ARM GAS  C:\Users\PRESID~1\AppData\Local\Temp\cc9Coa7Z.s 			page 1


   1              		.syntax unified
   2              		.cpu cortex-m4
   3              		.fpu softvfp
   4              		.eabi_attribute 20, 1
   5              		.eabi_attribute 21, 1
   6              		.eabi_attribute 23, 3
   7              		.eabi_attribute 24, 1
   8              		.eabi_attribute 25, 1
   9              		.eabi_attribute 26, 1
  10              		.eabi_attribute 30, 6
  11              		.eabi_attribute 34, 1
  12              		.eabi_attribute 18, 4
  13              		.thumb
  14              		.file	"hal_driver_fs_fat.c"
  15              		.text
  16              	.Ltext0:
  17              		.cfi_sections	.debug_frame
  18              		.comm	FILE_HANDLER_POOL,20,4
  19              		.bss
  20              		.align	2
  21              	FILE_HANDLER_POOL_USED:
  22 0000 00000000 		.space	20
  22      00000000 
  22      00000000 
  22      00000000 
  22      00000000 
  23              		.text
  24              		.align	2
  25              		.global	fopen
  26              		.thumb
  27              		.thumb_func
  29              	fopen:
  30              	.LFB0:
  31              		.file 1 "E:\\NeuOrga\\Programmieren\\c_cpp\\github_os\\input\\src\\os_drivers\\hal_driver_fs_fat.c
   1:E:\NeuOrga\Programmieren\c_cpp\github_os\input\src\os_drivers\hal_driver_fs_fat.c **** #include "..\os_base\os_firstinc.h"
   2:E:\NeuOrga\Programmieren\c_cpp\github_os\input\src\os_drivers\hal_driver_fs_fat.c **** #include "..\os_drivers\hal_driver_fs_fat.h"
   3:E:\NeuOrga\Programmieren\c_cpp\github_os\input\src\os_drivers\hal_driver_fs_fat.c **** 
   4:E:\NeuOrga\Programmieren\c_cpp\github_os\input\src\os_drivers\hal_driver_fs_fat.c **** #define NR_OF_FILE_HANDLERS 5
   5:E:\NeuOrga\Programmieren\c_cpp\github_os\input\src\os_drivers\hal_driver_fs_fat.c **** 
   6:E:\NeuOrga\Programmieren\c_cpp\github_os\input\src\os_drivers\hal_driver_fs_fat.c **** FILE* FILE_HANDLER_POOL[NR_OF_FILE_HANDLERS];
   7:E:\NeuOrga\Programmieren\c_cpp\github_os\input\src\os_drivers\hal_driver_fs_fat.c **** static unsigned FILE_HANDLER_POOL_USED[NR_OF_FILE_HANDLERS];
   8:E:\NeuOrga\Programmieren\c_cpp\github_os\input\src\os_drivers\hal_driver_fs_fat.c **** 
   9:E:\NeuOrga\Programmieren\c_cpp\github_os\input\src\os_drivers\hal_driver_fs_fat.c **** FILE* fopen(const char *filename, const char *mode)
  10:E:\NeuOrga\Programmieren\c_cpp\github_os\input\src\os_drivers\hal_driver_fs_fat.c **** {
  32              		.loc 1 10 0
  33              		.cfi_startproc
  34              		@ args = 0, pretend = 0, frame = 24
  35              		@ frame_needed = 1, uses_anonymous_args = 0
  36              		@ link register save eliminated.
  37 0000 80B4     		push	{r7}
  38              		.cfi_def_cfa_offset 4
  39              		.cfi_offset 7, -4
  40 0002 87B0     		sub	sp, sp, #28
  41              		.cfi_def_cfa_offset 32
  42 0004 00AF     		add	r7, sp, #0
  43              		.cfi_def_cfa_register 7
  44 0006 7860     		str	r0, [r7, #4]
ARM GAS  C:\Users\PRESID~1\AppData\Local\Temp\cc9Coa7Z.s 			page 2


  45 0008 3960     		str	r1, [r7]
  11:E:\NeuOrga\Programmieren\c_cpp\github_os\input\src\os_drivers\hal_driver_fs_fat.c ****    uint32 i;
  12:E:\NeuOrga\Programmieren\c_cpp\github_os\input\src\os_drivers\hal_driver_fs_fat.c ****    FILE* file_ptr = 0;
  46              		.loc 1 12 0
  47 000a 0023     		movs	r3, #0
  48 000c 3B61     		str	r3, [r7, #16]
  13:E:\NeuOrga\Programmieren\c_cpp\github_os\input\src\os_drivers\hal_driver_fs_fat.c ****    uint32 current_file_obj_number = 0;
  49              		.loc 1 13 0
  50 000e 0023     		movs	r3, #0
  51 0010 FB60     		str	r3, [r7, #12]
  14:E:\NeuOrga\Programmieren\c_cpp\github_os\input\src\os_drivers\hal_driver_fs_fat.c **** 
  15:E:\NeuOrga\Programmieren\c_cpp\github_os\input\src\os_drivers\hal_driver_fs_fat.c ****    for(i = 0; i < NR_OF_FILE_HANDLERS; i++)
  52              		.loc 1 15 0
  53 0012 0023     		movs	r3, #0
  54 0014 7B61     		str	r3, [r7, #20]
  55 0016 7DE0     		b	.L2
  56              	.L21:
  16:E:\NeuOrga\Programmieren\c_cpp\github_os\input\src\os_drivers\hal_driver_fs_fat.c ****    {
  17:E:\NeuOrga\Programmieren\c_cpp\github_os\input\src\os_drivers\hal_driver_fs_fat.c ****       if(FILE_HANDLER_POOL_USED[i] == False)
  57              		.loc 1 17 0
  58 0018 444A     		ldr	r2, .L24
  59 001a 7B69     		ldr	r3, [r7, #20]
  60 001c 52F82330 		ldr	r3, [r2, r3, lsl #2]
  61 0020 002B     		cmp	r3, #0
  62 0022 74D1     		bne	.L3
  18:E:\NeuOrga\Programmieren\c_cpp\github_os\input\src\os_drivers\hal_driver_fs_fat.c ****       {
  19:E:\NeuOrga\Programmieren\c_cpp\github_os\input\src\os_drivers\hal_driver_fs_fat.c ****          /* get the next free object number */
  20:E:\NeuOrga\Programmieren\c_cpp\github_os\input\src\os_drivers\hal_driver_fs_fat.c ****          FILE_HANDLER_POOL_USED[i] = True;
  63              		.loc 1 20 0
  64 0024 414A     		ldr	r2, .L24
  65 0026 7B69     		ldr	r3, [r7, #20]
  66 0028 0121     		movs	r1, #1
  67 002a 42F82310 		str	r1, [r2, r3, lsl #2]
  21:E:\NeuOrga\Programmieren\c_cpp\github_os\input\src\os_drivers\hal_driver_fs_fat.c ****          current_file_obj_number   = i;
  68              		.loc 1 21 0
  69 002e 7B69     		ldr	r3, [r7, #20]
  70 0030 FB60     		str	r3, [r7, #12]
  22:E:\NeuOrga\Programmieren\c_cpp\github_os\input\src\os_drivers\hal_driver_fs_fat.c **** 
  23:E:\NeuOrga\Programmieren\c_cpp\github_os\input\src\os_drivers\hal_driver_fs_fat.c ****          /* get the next free object (via ptr)*/
  24:E:\NeuOrga\Programmieren\c_cpp\github_os\input\src\os_drivers\hal_driver_fs_fat.c ****          file_ptr = FILE_HANDLER_POOL[current_file_obj_number];
  71              		.loc 1 24 0
  72 0032 3F4A     		ldr	r2, .L24+4
  73 0034 FB68     		ldr	r3, [r7, #12]
  74 0036 52F82330 		ldr	r3, [r2, r3, lsl #2]
  75 003a 3B61     		str	r3, [r7, #16]
  25:E:\NeuOrga\Programmieren\c_cpp\github_os\input\src\os_drivers\hal_driver_fs_fat.c **** 
  26:E:\NeuOrga\Programmieren\c_cpp\github_os\input\src\os_drivers\hal_driver_fs_fat.c ****          /* set the mode:
  27:E:\NeuOrga\Programmieren\c_cpp\github_os\input\src\os_drivers\hal_driver_fs_fat.c ****          "r"	Textdatei zum lesen und eröffnen
  28:E:\NeuOrga\Programmieren\c_cpp\github_os\input\src\os_drivers\hal_driver_fs_fat.c ****          "w"	Textdatei zum Schreiben erzeugen; gegebenenfalls alten Inhalt wegwerfen
  29:E:\NeuOrga\Programmieren\c_cpp\github_os\input\src\os_drivers\hal_driver_fs_fat.c ****          "a"	anfügen; Textdatei zum Schreiben am Dateiende eröffnen oder erzeugen
  30:E:\NeuOrga\Programmieren\c_cpp\github_os\input\src\os_drivers\hal_driver_fs_fat.c ****          "r+"	Textdatei zum Ändern eröffnen (Lesen und Schreiben)
  31:E:\NeuOrga\Programmieren\c_cpp\github_os\input\src\os_drivers\hal_driver_fs_fat.c ****          "w+"	Textdatei zum Ändern erzeugen; gegebenenfalls alten Inhalt wegwerfen
  32:E:\NeuOrga\Programmieren\c_cpp\github_os\input\src\os_drivers\hal_driver_fs_fat.c ****          "a+"	anfügen; Textdatei zum Ändern eröffnen oder erzeugen, Schreiben am Ende*/
  33:E:\NeuOrga\Programmieren\c_cpp\github_os\input\src\os_drivers\hal_driver_fs_fat.c ****          switch(*mode)
  76              		.loc 1 33 0
  77 003c 3B68     		ldr	r3, [r7]
  78 003e 1B78     		ldrb	r3, [r3]	@ zero_extendqisi2
ARM GAS  C:\Users\PRESID~1\AppData\Local\Temp\cc9Coa7Z.s 			page 3


  79 0040 722B     		cmp	r3, #114
  80 0042 04D0     		beq	.L5
  81 0044 772B     		cmp	r3, #119
  82 0046 13D0     		beq	.L6
  83 0048 612B     		cmp	r3, #97
  84 004a 22D0     		beq	.L7
  34:E:\NeuOrga\Programmieren\c_cpp\github_os\input\src\os_drivers\hal_driver_fs_fat.c ****          {
  35:E:\NeuOrga\Programmieren\c_cpp\github_os\input\src\os_drivers\hal_driver_fs_fat.c ****          case 'r':
  36:E:\NeuOrga\Programmieren\c_cpp\github_os\input\src\os_drivers\hal_driver_fs_fat.c ****             if(*(mode+1) == '+')
  37:E:\NeuOrga\Programmieren\c_cpp\github_os\input\src\os_drivers\hal_driver_fs_fat.c ****             {
  38:E:\NeuOrga\Programmieren\c_cpp\github_os\input\src\os_drivers\hal_driver_fs_fat.c ****                file_ptr->mode_rplus = True;
  39:E:\NeuOrga\Programmieren\c_cpp\github_os\input\src\os_drivers\hal_driver_fs_fat.c ****             }
  40:E:\NeuOrga\Programmieren\c_cpp\github_os\input\src\os_drivers\hal_driver_fs_fat.c ****             else
  41:E:\NeuOrga\Programmieren\c_cpp\github_os\input\src\os_drivers\hal_driver_fs_fat.c ****             {
  42:E:\NeuOrga\Programmieren\c_cpp\github_os\input\src\os_drivers\hal_driver_fs_fat.c ****                file_ptr->mode_r = True;
  43:E:\NeuOrga\Programmieren\c_cpp\github_os\input\src\os_drivers\hal_driver_fs_fat.c ****             }
  44:E:\NeuOrga\Programmieren\c_cpp\github_os\input\src\os_drivers\hal_driver_fs_fat.c ****             break;
  45:E:\NeuOrga\Programmieren\c_cpp\github_os\input\src\os_drivers\hal_driver_fs_fat.c ****          case 'w':
  46:E:\NeuOrga\Programmieren\c_cpp\github_os\input\src\os_drivers\hal_driver_fs_fat.c ****             if(*(mode+1) == '+')
  47:E:\NeuOrga\Programmieren\c_cpp\github_os\input\src\os_drivers\hal_driver_fs_fat.c ****             {
  48:E:\NeuOrga\Programmieren\c_cpp\github_os\input\src\os_drivers\hal_driver_fs_fat.c ****                file_ptr->mode_wplus = True;
  49:E:\NeuOrga\Programmieren\c_cpp\github_os\input\src\os_drivers\hal_driver_fs_fat.c ****             }
  50:E:\NeuOrga\Programmieren\c_cpp\github_os\input\src\os_drivers\hal_driver_fs_fat.c ****             else
  51:E:\NeuOrga\Programmieren\c_cpp\github_os\input\src\os_drivers\hal_driver_fs_fat.c ****             {
  52:E:\NeuOrga\Programmieren\c_cpp\github_os\input\src\os_drivers\hal_driver_fs_fat.c ****                file_ptr->mode_w = True;
  53:E:\NeuOrga\Programmieren\c_cpp\github_os\input\src\os_drivers\hal_driver_fs_fat.c ****             }
  54:E:\NeuOrga\Programmieren\c_cpp\github_os\input\src\os_drivers\hal_driver_fs_fat.c ****             break;
  55:E:\NeuOrga\Programmieren\c_cpp\github_os\input\src\os_drivers\hal_driver_fs_fat.c ****          case 'a':
  56:E:\NeuOrga\Programmieren\c_cpp\github_os\input\src\os_drivers\hal_driver_fs_fat.c ****             if(*(mode+1) == '+')
  57:E:\NeuOrga\Programmieren\c_cpp\github_os\input\src\os_drivers\hal_driver_fs_fat.c ****             {
  58:E:\NeuOrga\Programmieren\c_cpp\github_os\input\src\os_drivers\hal_driver_fs_fat.c ****                file_ptr->mode_aplus = True;
  59:E:\NeuOrga\Programmieren\c_cpp\github_os\input\src\os_drivers\hal_driver_fs_fat.c ****             }
  60:E:\NeuOrga\Programmieren\c_cpp\github_os\input\src\os_drivers\hal_driver_fs_fat.c ****             else
  61:E:\NeuOrga\Programmieren\c_cpp\github_os\input\src\os_drivers\hal_driver_fs_fat.c ****             {
  62:E:\NeuOrga\Programmieren\c_cpp\github_os\input\src\os_drivers\hal_driver_fs_fat.c ****                file_ptr->mode_a = True;
  63:E:\NeuOrga\Programmieren\c_cpp\github_os\input\src\os_drivers\hal_driver_fs_fat.c ****             }
  64:E:\NeuOrga\Programmieren\c_cpp\github_os\input\src\os_drivers\hal_driver_fs_fat.c ****             break;
  65:E:\NeuOrga\Programmieren\c_cpp\github_os\input\src\os_drivers\hal_driver_fs_fat.c ****          default:
  66:E:\NeuOrga\Programmieren\c_cpp\github_os\input\src\os_drivers\hal_driver_fs_fat.c ****             break;
  85              		.loc 1 66 0
  86 004c 32E0     		b	.L10
  87              	.L5:
  36:E:\NeuOrga\Programmieren\c_cpp\github_os\input\src\os_drivers\hal_driver_fs_fat.c ****             {
  88              		.loc 1 36 0
  89 004e 3B68     		ldr	r3, [r7]
  90 0050 0133     		adds	r3, r3, #1
  91 0052 1B78     		ldrb	r3, [r3]	@ zero_extendqisi2
  92 0054 2B2B     		cmp	r3, #43
  93 0056 05D1     		bne	.L8
  38:E:\NeuOrga\Programmieren\c_cpp\github_os\input\src\os_drivers\hal_driver_fs_fat.c ****             }
  94              		.loc 1 38 0
  95 0058 3A69     		ldr	r2, [r7, #16]
  96 005a 1378     		ldrb	r3, [r2]
  97 005c 43F00803 		orr	r3, r3, #8
  98 0060 1370     		strb	r3, [r2]
  44:E:\NeuOrga\Programmieren\c_cpp\github_os\input\src\os_drivers\hal_driver_fs_fat.c ****          case 'w':
  99              		.loc 1 44 0
ARM GAS  C:\Users\PRESID~1\AppData\Local\Temp\cc9Coa7Z.s 			page 4


 100 0062 27E0     		b	.L10
 101              	.L8:
  42:E:\NeuOrga\Programmieren\c_cpp\github_os\input\src\os_drivers\hal_driver_fs_fat.c ****             }
 102              		.loc 1 42 0
 103 0064 3A69     		ldr	r2, [r7, #16]
 104 0066 1378     		ldrb	r3, [r2]
 105 0068 43F00103 		orr	r3, r3, #1
 106 006c 1370     		strb	r3, [r2]
  44:E:\NeuOrga\Programmieren\c_cpp\github_os\input\src\os_drivers\hal_driver_fs_fat.c ****          case 'w':
 107              		.loc 1 44 0
 108 006e 21E0     		b	.L10
 109              	.L6:
  46:E:\NeuOrga\Programmieren\c_cpp\github_os\input\src\os_drivers\hal_driver_fs_fat.c ****             {
 110              		.loc 1 46 0
 111 0070 3B68     		ldr	r3, [r7]
 112 0072 0133     		adds	r3, r3, #1
 113 0074 1B78     		ldrb	r3, [r3]	@ zero_extendqisi2
 114 0076 2B2B     		cmp	r3, #43
 115 0078 05D1     		bne	.L11
  48:E:\NeuOrga\Programmieren\c_cpp\github_os\input\src\os_drivers\hal_driver_fs_fat.c ****             }
 116              		.loc 1 48 0
 117 007a 3A69     		ldr	r2, [r7, #16]
 118 007c 1378     		ldrb	r3, [r2]
 119 007e 43F01003 		orr	r3, r3, #16
 120 0082 1370     		strb	r3, [r2]
  54:E:\NeuOrga\Programmieren\c_cpp\github_os\input\src\os_drivers\hal_driver_fs_fat.c ****          case 'a':
 121              		.loc 1 54 0
 122 0084 16E0     		b	.L10
 123              	.L11:
  52:E:\NeuOrga\Programmieren\c_cpp\github_os\input\src\os_drivers\hal_driver_fs_fat.c ****             }
 124              		.loc 1 52 0
 125 0086 3A69     		ldr	r2, [r7, #16]
 126 0088 1378     		ldrb	r3, [r2]
 127 008a 43F00203 		orr	r3, r3, #2
 128 008e 1370     		strb	r3, [r2]
  54:E:\NeuOrga\Programmieren\c_cpp\github_os\input\src\os_drivers\hal_driver_fs_fat.c ****          case 'a':
 129              		.loc 1 54 0
 130 0090 10E0     		b	.L10
 131              	.L7:
  56:E:\NeuOrga\Programmieren\c_cpp\github_os\input\src\os_drivers\hal_driver_fs_fat.c ****             {
 132              		.loc 1 56 0
 133 0092 3B68     		ldr	r3, [r7]
 134 0094 0133     		adds	r3, r3, #1
 135 0096 1B78     		ldrb	r3, [r3]	@ zero_extendqisi2
 136 0098 2B2B     		cmp	r3, #43
 137 009a 05D1     		bne	.L13
  58:E:\NeuOrga\Programmieren\c_cpp\github_os\input\src\os_drivers\hal_driver_fs_fat.c ****             }
 138              		.loc 1 58 0
 139 009c 3A69     		ldr	r2, [r7, #16]
 140 009e 1378     		ldrb	r3, [r2]
 141 00a0 43F02003 		orr	r3, r3, #32
 142 00a4 1370     		strb	r3, [r2]
  64:E:\NeuOrga\Programmieren\c_cpp\github_os\input\src\os_drivers\hal_driver_fs_fat.c ****          default:
 143              		.loc 1 64 0
 144 00a6 04E0     		b	.L23
 145              	.L13:
  62:E:\NeuOrga\Programmieren\c_cpp\github_os\input\src\os_drivers\hal_driver_fs_fat.c ****             }
ARM GAS  C:\Users\PRESID~1\AppData\Local\Temp\cc9Coa7Z.s 			page 5


 146              		.loc 1 62 0
 147 00a8 3A69     		ldr	r2, [r7, #16]
 148 00aa 1378     		ldrb	r3, [r2]
 149 00ac 43F00403 		orr	r3, r3, #4
 150 00b0 1370     		strb	r3, [r2]
 151              	.L23:
  64:E:\NeuOrga\Programmieren\c_cpp\github_os\input\src\os_drivers\hal_driver_fs_fat.c ****          default:
 152              		.loc 1 64 0
 153 00b2 00BF     		nop
 154              	.L10:
  67:E:\NeuOrga\Programmieren\c_cpp\github_os\input\src\os_drivers\hal_driver_fs_fat.c ****          }
  68:E:\NeuOrga\Programmieren\c_cpp\github_os\input\src\os_drivers\hal_driver_fs_fat.c ****          /* copy the file name */
  69:E:\NeuOrga\Programmieren\c_cpp\github_os\input\src\os_drivers\hal_driver_fs_fat.c ****          for(i = 0; (i < file_ptr->max_file_name_size); i++ )
 155              		.loc 1 69 0
 156 00b4 0023     		movs	r3, #0
 157 00b6 7B61     		str	r3, [r7, #20]
 158 00b8 0DE0     		b	.L15
 159              	.L18:
  70:E:\NeuOrga\Programmieren\c_cpp\github_os\input\src\os_drivers\hal_driver_fs_fat.c ****          {
  71:E:\NeuOrga\Programmieren\c_cpp\github_os\input\src\os_drivers\hal_driver_fs_fat.c ****             if( *(filename+i)=='\0' )
 160              		.loc 1 71 0
 161 00ba 7A68     		ldr	r2, [r7, #4]
 162 00bc 7B69     		ldr	r3, [r7, #20]
 163 00be 1344     		add	r3, r3, r2
 164 00c0 1B78     		ldrb	r3, [r3]	@ zero_extendqisi2
 165 00c2 002B     		cmp	r3, #0
 166 00c4 04D1     		bne	.L16
  72:E:\NeuOrga\Programmieren\c_cpp\github_os\input\src\os_drivers\hal_driver_fs_fat.c ****             {
  73:E:\NeuOrga\Programmieren\c_cpp\github_os\input\src\os_drivers\hal_driver_fs_fat.c ****                file_ptr->used_file_name_size = i+1;
 167              		.loc 1 73 0
 168 00c6 7B69     		ldr	r3, [r7, #20]
 169 00c8 5A1C     		adds	r2, r3, #1
 170 00ca 3B69     		ldr	r3, [r7, #16]
 171 00cc 9A60     		str	r2, [r3, #8]
  74:E:\NeuOrga\Programmieren\c_cpp\github_os\input\src\os_drivers\hal_driver_fs_fat.c ****                break;
 172              		.loc 1 74 0
 173 00ce 07E0     		b	.L17
 174              	.L16:
  69:E:\NeuOrga\Programmieren\c_cpp\github_os\input\src\os_drivers\hal_driver_fs_fat.c ****          {
 175              		.loc 1 69 0 discriminator 2
 176 00d0 7B69     		ldr	r3, [r7, #20]
 177 00d2 0133     		adds	r3, r3, #1
 178 00d4 7B61     		str	r3, [r7, #20]
 179              	.L15:
  69:E:\NeuOrga\Programmieren\c_cpp\github_os\input\src\os_drivers\hal_driver_fs_fat.c ****          {
 180              		.loc 1 69 0 is_stmt 0 discriminator 1
 181 00d6 3B69     		ldr	r3, [r7, #16]
 182 00d8 5A68     		ldr	r2, [r3, #4]
 183 00da 7B69     		ldr	r3, [r7, #20]
 184 00dc 9A42     		cmp	r2, r3
 185 00de ECD8     		bhi	.L18
 186              	.L17:
  75:E:\NeuOrga\Programmieren\c_cpp\github_os\input\src\os_drivers\hal_driver_fs_fat.c ****             }
  76:E:\NeuOrga\Programmieren\c_cpp\github_os\input\src\os_drivers\hal_driver_fs_fat.c ****          }
  77:E:\NeuOrga\Programmieren\c_cpp\github_os\input\src\os_drivers\hal_driver_fs_fat.c ****          for(i = 0; (i < file_ptr->used_file_name_size); i++ )
 187              		.loc 1 77 0 is_stmt 1
 188 00e0 0023     		movs	r3, #0
ARM GAS  C:\Users\PRESID~1\AppData\Local\Temp\cc9Coa7Z.s 			page 6


 189 00e2 7B61     		str	r3, [r7, #20]
 190 00e4 0CE0     		b	.L19
 191              	.L20:
  78:E:\NeuOrga\Programmieren\c_cpp\github_os\input\src\os_drivers\hal_driver_fs_fat.c ****          {
  79:E:\NeuOrga\Programmieren\c_cpp\github_os\input\src\os_drivers\hal_driver_fs_fat.c ****             *(file_ptr->name+i) = *(filename+i);
 192              		.loc 1 79 0 discriminator 3
 193 00e6 7A68     		ldr	r2, [r7, #4]
 194 00e8 7B69     		ldr	r3, [r7, #20]
 195 00ea 1344     		add	r3, r3, r2
 196 00ec 1978     		ldrb	r1, [r3]	@ zero_extendqisi2
 197 00ee 3A69     		ldr	r2, [r7, #16]
 198 00f0 7B69     		ldr	r3, [r7, #20]
 199 00f2 1344     		add	r3, r3, r2
 200 00f4 0833     		adds	r3, r3, #8
 201 00f6 0A46     		mov	r2, r1
 202 00f8 1A71     		strb	r2, [r3, #4]
  77:E:\NeuOrga\Programmieren\c_cpp\github_os\input\src\os_drivers\hal_driver_fs_fat.c ****          {
 203              		.loc 1 77 0 discriminator 3
 204 00fa 7B69     		ldr	r3, [r7, #20]
 205 00fc 0133     		adds	r3, r3, #1
 206 00fe 7B61     		str	r3, [r7, #20]
 207              	.L19:
  77:E:\NeuOrga\Programmieren\c_cpp\github_os\input\src\os_drivers\hal_driver_fs_fat.c ****          {
 208              		.loc 1 77 0 is_stmt 0 discriminator 1
 209 0100 3B69     		ldr	r3, [r7, #16]
 210 0102 9A68     		ldr	r2, [r3, #8]
 211 0104 7B69     		ldr	r3, [r7, #20]
 212 0106 9A42     		cmp	r2, r3
 213 0108 EDD8     		bhi	.L20
  80:E:\NeuOrga\Programmieren\c_cpp\github_os\input\src\os_drivers\hal_driver_fs_fat.c ****          }
  81:E:\NeuOrga\Programmieren\c_cpp\github_os\input\src\os_drivers\hal_driver_fs_fat.c ****          if(1/*FS_FILE_EXISTS(file_ptr) == False*/)
  82:E:\NeuOrga\Programmieren\c_cpp\github_os\input\src\os_drivers\hal_driver_fs_fat.c ****          {
  83:E:\NeuOrga\Programmieren\c_cpp\github_os\input\src\os_drivers\hal_driver_fs_fat.c ****             file_ptr = 0;
 214              		.loc 1 83 0 is_stmt 1
 215 010a 0023     		movs	r3, #0
 216 010c 3B61     		str	r3, [r7, #16]
 217              	.L3:
  15:E:\NeuOrga\Programmieren\c_cpp\github_os\input\src\os_drivers\hal_driver_fs_fat.c ****    {
 218              		.loc 1 15 0 discriminator 2
 219 010e 7B69     		ldr	r3, [r7, #20]
 220 0110 0133     		adds	r3, r3, #1
 221 0112 7B61     		str	r3, [r7, #20]
 222              	.L2:
  15:E:\NeuOrga\Programmieren\c_cpp\github_os\input\src\os_drivers\hal_driver_fs_fat.c ****    {
 223              		.loc 1 15 0 is_stmt 0 discriminator 1
 224 0114 7B69     		ldr	r3, [r7, #20]
 225 0116 042B     		cmp	r3, #4
 226 0118 7FF67EAF 		bls	.L21
  84:E:\NeuOrga\Programmieren\c_cpp\github_os\input\src\os_drivers\hal_driver_fs_fat.c ****          }
  85:E:\NeuOrga\Programmieren\c_cpp\github_os\input\src\os_drivers\hal_driver_fs_fat.c ****       }
  86:E:\NeuOrga\Programmieren\c_cpp\github_os\input\src\os_drivers\hal_driver_fs_fat.c ****    }
  87:E:\NeuOrga\Programmieren\c_cpp\github_os\input\src\os_drivers\hal_driver_fs_fat.c ****    return file_ptr;
 227              		.loc 1 87 0 is_stmt 1
 228 011c 3B69     		ldr	r3, [r7, #16]
  88:E:\NeuOrga\Programmieren\c_cpp\github_os\input\src\os_drivers\hal_driver_fs_fat.c **** }
 229              		.loc 1 88 0
 230 011e 1846     		mov	r0, r3
ARM GAS  C:\Users\PRESID~1\AppData\Local\Temp\cc9Coa7Z.s 			page 7


 231 0120 1C37     		adds	r7, r7, #28
 232              		.cfi_def_cfa_offset 4
 233 0122 BD46     		mov	sp, r7
 234              		.cfi_def_cfa_register 13
 235              		@ sp needed
 236 0124 5DF8047B 		ldr	r7, [sp], #4
 237              		.cfi_restore 7
 238              		.cfi_def_cfa_offset 0
 239 0128 7047     		bx	lr
 240              	.L25:
 241 012a 00BF     		.align	2
 242              	.L24:
 243 012c 00000000 		.word	FILE_HANDLER_POOL_USED
 244 0130 00000000 		.word	FILE_HANDLER_POOL
 245              		.cfi_endproc
 246              	.LFE0:
 248              		.align	2
 249              		.global	freopen
 250              		.thumb
 251              		.thumb_func
 253              	freopen:
 254              	.LFB1:
  89:E:\NeuOrga\Programmieren\c_cpp\github_os\input\src\os_drivers\hal_driver_fs_fat.c **** FILE* freopen(const char *filename, const char *mode, FILE *stream)
  90:E:\NeuOrga\Programmieren\c_cpp\github_os\input\src\os_drivers\hal_driver_fs_fat.c **** {
 255              		.loc 1 90 0
 256              		.cfi_startproc
 257              		@ args = 0, pretend = 0, frame = 16
 258              		@ frame_needed = 1, uses_anonymous_args = 0
 259 0134 80B5     		push	{r7, lr}
 260              		.cfi_def_cfa_offset 8
 261              		.cfi_offset 7, -8
 262              		.cfi_offset 14, -4
 263 0136 84B0     		sub	sp, sp, #16
 264              		.cfi_def_cfa_offset 24
 265 0138 00AF     		add	r7, sp, #0
 266              		.cfi_def_cfa_register 7
 267 013a F860     		str	r0, [r7, #12]
 268 013c B960     		str	r1, [r7, #8]
 269 013e 7A60     		str	r2, [r7, #4]
  91:E:\NeuOrga\Programmieren\c_cpp\github_os\input\src\os_drivers\hal_driver_fs_fat.c ****    fclose(stream);
 270              		.loc 1 91 0
 271 0140 7868     		ldr	r0, [r7, #4]
 272 0142 FFF7FEFF 		bl	fclose
  92:E:\NeuOrga\Programmieren\c_cpp\github_os\input\src\os_drivers\hal_driver_fs_fat.c ****    return fopen(filename, mode);
 273              		.loc 1 92 0
 274 0146 F868     		ldr	r0, [r7, #12]
 275 0148 B968     		ldr	r1, [r7, #8]
 276 014a FFF7FEFF 		bl	fopen
 277 014e 0346     		mov	r3, r0
  93:E:\NeuOrga\Programmieren\c_cpp\github_os\input\src\os_drivers\hal_driver_fs_fat.c **** }
 278              		.loc 1 93 0
 279 0150 1846     		mov	r0, r3
 280 0152 1037     		adds	r7, r7, #16
 281              		.cfi_def_cfa_offset 8
 282 0154 BD46     		mov	sp, r7
 283              		.cfi_def_cfa_register 13
 284              		@ sp needed
ARM GAS  C:\Users\PRESID~1\AppData\Local\Temp\cc9Coa7Z.s 			page 8


 285 0156 80BD     		pop	{r7, pc}
 286              		.cfi_endproc
 287              	.LFE1:
 289              		.align	2
 290              		.global	fflush
 291              		.thumb
 292              		.thumb_func
 294              	fflush:
 295              	.LFB2:
  94:E:\NeuOrga\Programmieren\c_cpp\github_os\input\src\os_drivers\hal_driver_fs_fat.c **** int fflush(FILE* stream)
  95:E:\NeuOrga\Programmieren\c_cpp\github_os\input\src\os_drivers\hal_driver_fs_fat.c **** {
 296              		.loc 1 95 0
 297              		.cfi_startproc
 298              		@ args = 0, pretend = 0, frame = 8
 299              		@ frame_needed = 1, uses_anonymous_args = 0
 300              		@ link register save eliminated.
 301 0158 80B4     		push	{r7}
 302              		.cfi_def_cfa_offset 4
 303              		.cfi_offset 7, -4
 304 015a 83B0     		sub	sp, sp, #12
 305              		.cfi_def_cfa_offset 16
 306 015c 00AF     		add	r7, sp, #0
 307              		.cfi_def_cfa_register 7
 308 015e 7860     		str	r0, [r7, #4]
  96:E:\NeuOrga\Programmieren\c_cpp\github_os\input\src\os_drivers\hal_driver_fs_fat.c ****    ReferenceUnusedParameter(*stream);
  97:E:\NeuOrga\Programmieren\c_cpp\github_os\input\src\os_drivers\hal_driver_fs_fat.c ****    /* no buffering implemented -> no need for flush */
  98:E:\NeuOrga\Programmieren\c_cpp\github_os\input\src\os_drivers\hal_driver_fs_fat.c ****    return 0;
 309              		.loc 1 98 0
 310 0160 0023     		movs	r3, #0
  99:E:\NeuOrga\Programmieren\c_cpp\github_os\input\src\os_drivers\hal_driver_fs_fat.c **** }
 311              		.loc 1 99 0
 312 0162 1846     		mov	r0, r3
 313 0164 0C37     		adds	r7, r7, #12
 314              		.cfi_def_cfa_offset 4
 315 0166 BD46     		mov	sp, r7
 316              		.cfi_def_cfa_register 13
 317              		@ sp needed
 318 0168 5DF8047B 		ldr	r7, [sp], #4
 319              		.cfi_restore 7
 320              		.cfi_def_cfa_offset 0
 321 016c 7047     		bx	lr
 322              		.cfi_endproc
 323              	.LFE2:
 325 016e 00BF     		.align	2
 326              		.global	fclose
 327              		.thumb
 328              		.thumb_func
 330              	fclose:
 331              	.LFB3:
 100:E:\NeuOrga\Programmieren\c_cpp\github_os\input\src\os_drivers\hal_driver_fs_fat.c **** int fclose(FILE* file_ptr)
 101:E:\NeuOrga\Programmieren\c_cpp\github_os\input\src\os_drivers\hal_driver_fs_fat.c **** {
 332              		.loc 1 101 0
 333              		.cfi_startproc
 334              		@ args = 0, pretend = 0, frame = 16
 335              		@ frame_needed = 1, uses_anonymous_args = 0
 336              		@ link register save eliminated.
 337 0170 80B4     		push	{r7}
ARM GAS  C:\Users\PRESID~1\AppData\Local\Temp\cc9Coa7Z.s 			page 9


 338              		.cfi_def_cfa_offset 4
 339              		.cfi_offset 7, -4
 340 0172 85B0     		sub	sp, sp, #20
 341              		.cfi_def_cfa_offset 24
 342 0174 00AF     		add	r7, sp, #0
 343              		.cfi_def_cfa_register 7
 344 0176 7860     		str	r0, [r7, #4]
 102:E:\NeuOrga\Programmieren\c_cpp\github_os\input\src\os_drivers\hal_driver_fs_fat.c ****    uint8 i = 0;
 345              		.loc 1 102 0
 346 0178 0023     		movs	r3, #0
 347 017a FB73     		strb	r3, [r7, #15]
 103:E:\NeuOrga\Programmieren\c_cpp\github_os\input\src\os_drivers\hal_driver_fs_fat.c **** 
 104:E:\NeuOrga\Programmieren\c_cpp\github_os\input\src\os_drivers\hal_driver_fs_fat.c ****    file_ptr->mode_r = False;
 348              		.loc 1 104 0
 349 017c 7A68     		ldr	r2, [r7, #4]
 350 017e 1378     		ldrb	r3, [r2]
 351 0180 6FF30003 		bfc	r3, #0, #1
 352 0184 1370     		strb	r3, [r2]
 105:E:\NeuOrga\Programmieren\c_cpp\github_os\input\src\os_drivers\hal_driver_fs_fat.c ****    file_ptr->mode_w = False;
 353              		.loc 1 105 0
 354 0186 7A68     		ldr	r2, [r7, #4]
 355 0188 1378     		ldrb	r3, [r2]
 356 018a 6FF34103 		bfc	r3, #1, #1
 357 018e 1370     		strb	r3, [r2]
 106:E:\NeuOrga\Programmieren\c_cpp\github_os\input\src\os_drivers\hal_driver_fs_fat.c ****    file_ptr->mode_a = False;
 358              		.loc 1 106 0
 359 0190 7A68     		ldr	r2, [r7, #4]
 360 0192 1378     		ldrb	r3, [r2]
 361 0194 6FF38203 		bfc	r3, #2, #1
 362 0198 1370     		strb	r3, [r2]
 107:E:\NeuOrga\Programmieren\c_cpp\github_os\input\src\os_drivers\hal_driver_fs_fat.c ****    file_ptr->mode_rplus = False;
 363              		.loc 1 107 0
 364 019a 7A68     		ldr	r2, [r7, #4]
 365 019c 1378     		ldrb	r3, [r2]
 366 019e 6FF3C303 		bfc	r3, #3, #1
 367 01a2 1370     		strb	r3, [r2]
 108:E:\NeuOrga\Programmieren\c_cpp\github_os\input\src\os_drivers\hal_driver_fs_fat.c ****    file_ptr->mode_wplus = False;
 368              		.loc 1 108 0
 369 01a4 7A68     		ldr	r2, [r7, #4]
 370 01a6 1378     		ldrb	r3, [r2]
 371 01a8 6FF30413 		bfc	r3, #4, #1
 372 01ac 1370     		strb	r3, [r2]
 109:E:\NeuOrga\Programmieren\c_cpp\github_os\input\src\os_drivers\hal_driver_fs_fat.c ****    file_ptr->mode_aplus = False;
 373              		.loc 1 109 0
 374 01ae 7A68     		ldr	r2, [r7, #4]
 375 01b0 1378     		ldrb	r3, [r2]
 376 01b2 6FF34513 		bfc	r3, #5, #1
 377 01b6 1370     		strb	r3, [r2]
 110:E:\NeuOrga\Programmieren\c_cpp\github_os\input\src\os_drivers\hal_driver_fs_fat.c ****    for(i = 0; (i < file_ptr->max_file_name_size); i++ )
 378              		.loc 1 110 0
 379 01b8 0023     		movs	r3, #0
 380 01ba FB73     		strb	r3, [r7, #15]
 381 01bc 07E0     		b	.L31
 382              	.L32:
 111:E:\NeuOrga\Programmieren\c_cpp\github_os\input\src\os_drivers\hal_driver_fs_fat.c ****    {
 112:E:\NeuOrga\Programmieren\c_cpp\github_os\input\src\os_drivers\hal_driver_fs_fat.c ****       *(file_ptr->name+i) = 0x00;
 383              		.loc 1 112 0 discriminator 3
ARM GAS  C:\Users\PRESID~1\AppData\Local\Temp\cc9Coa7Z.s 			page 10


 384 01be FB7B     		ldrb	r3, [r7, #15]	@ zero_extendqisi2
 385 01c0 7A68     		ldr	r2, [r7, #4]
 386 01c2 1344     		add	r3, r3, r2
 387 01c4 0022     		movs	r2, #0
 388 01c6 1A73     		strb	r2, [r3, #12]
 110:E:\NeuOrga\Programmieren\c_cpp\github_os\input\src\os_drivers\hal_driver_fs_fat.c ****    for(i = 0; (i < file_ptr->max_file_name_size); i++ )
 389              		.loc 1 110 0 discriminator 3
 390 01c8 FB7B     		ldrb	r3, [r7, #15]	@ zero_extendqisi2
 391 01ca 0133     		adds	r3, r3, #1
 392 01cc FB73     		strb	r3, [r7, #15]
 393              	.L31:
 110:E:\NeuOrga\Programmieren\c_cpp\github_os\input\src\os_drivers\hal_driver_fs_fat.c ****    for(i = 0; (i < file_ptr->max_file_name_size); i++ )
 394              		.loc 1 110 0 is_stmt 0 discriminator 1
 395 01ce FA7B     		ldrb	r2, [r7, #15]	@ zero_extendqisi2
 396 01d0 7B68     		ldr	r3, [r7, #4]
 397 01d2 5B68     		ldr	r3, [r3, #4]
 398 01d4 9A42     		cmp	r2, r3
 399 01d6 F2D3     		bcc	.L32
 113:E:\NeuOrga\Programmieren\c_cpp\github_os\input\src\os_drivers\hal_driver_fs_fat.c ****    }
 114:E:\NeuOrga\Programmieren\c_cpp\github_os\input\src\os_drivers\hal_driver_fs_fat.c ****    file_ptr->used_file_name_size = 0;
 400              		.loc 1 114 0 is_stmt 1
 401 01d8 7B68     		ldr	r3, [r7, #4]
 402 01da 0022     		movs	r2, #0
 403 01dc 9A60     		str	r2, [r3, #8]
 115:E:\NeuOrga\Programmieren\c_cpp\github_os\input\src\os_drivers\hal_driver_fs_fat.c ****    file_ptr = 0;
 404              		.loc 1 115 0
 405 01de 0023     		movs	r3, #0
 406 01e0 7B60     		str	r3, [r7, #4]
 116:E:\NeuOrga\Programmieren\c_cpp\github_os\input\src\os_drivers\hal_driver_fs_fat.c ****    return 0;
 407              		.loc 1 116 0
 408 01e2 0023     		movs	r3, #0
 117:E:\NeuOrga\Programmieren\c_cpp\github_os\input\src\os_drivers\hal_driver_fs_fat.c **** }
 409              		.loc 1 117 0
 410 01e4 1846     		mov	r0, r3
 411 01e6 1437     		adds	r7, r7, #20
 412              		.cfi_def_cfa_offset 4
 413 01e8 BD46     		mov	sp, r7
 414              		.cfi_def_cfa_register 13
 415              		@ sp needed
 416 01ea 5DF8047B 		ldr	r7, [sp], #4
 417              		.cfi_restore 7
 418              		.cfi_def_cfa_offset 0
 419 01ee 7047     		bx	lr
 420              		.cfi_endproc
 421              	.LFE3:
 423              		.align	2
 424              		.global	remove
 425              		.thumb
 426              		.thumb_func
 428              	remove:
 429              	.LFB4:
 118:E:\NeuOrga\Programmieren\c_cpp\github_os\input\src\os_drivers\hal_driver_fs_fat.c **** int remove(const char *filename)
 119:E:\NeuOrga\Programmieren\c_cpp\github_os\input\src\os_drivers\hal_driver_fs_fat.c **** {
 430              		.loc 1 119 0
 431              		.cfi_startproc
 432              		@ args = 0, pretend = 0, frame = 8
 433              		@ frame_needed = 1, uses_anonymous_args = 0
ARM GAS  C:\Users\PRESID~1\AppData\Local\Temp\cc9Coa7Z.s 			page 11


 434              		@ link register save eliminated.
 435 01f0 80B4     		push	{r7}
 436              		.cfi_def_cfa_offset 4
 437              		.cfi_offset 7, -4
 438 01f2 83B0     		sub	sp, sp, #12
 439              		.cfi_def_cfa_offset 16
 440 01f4 00AF     		add	r7, sp, #0
 441              		.cfi_def_cfa_register 7
 442 01f6 7860     		str	r0, [r7, #4]
 120:E:\NeuOrga\Programmieren\c_cpp\github_os\input\src\os_drivers\hal_driver_fs_fat.c ****    /*#warn "fopen"*/
 121:E:\NeuOrga\Programmieren\c_cpp\github_os\input\src\os_drivers\hal_driver_fs_fat.c ****    return 0;
 443              		.loc 1 121 0
 444 01f8 0023     		movs	r3, #0
 122:E:\NeuOrga\Programmieren\c_cpp\github_os\input\src\os_drivers\hal_driver_fs_fat.c **** }
 445              		.loc 1 122 0
 446 01fa 1846     		mov	r0, r3
 447 01fc 0C37     		adds	r7, r7, #12
 448              		.cfi_def_cfa_offset 4
 449 01fe BD46     		mov	sp, r7
 450              		.cfi_def_cfa_register 13
 451              		@ sp needed
 452 0200 5DF8047B 		ldr	r7, [sp], #4
 453              		.cfi_restore 7
 454              		.cfi_def_cfa_offset 0
 455 0204 7047     		bx	lr
 456              		.cfi_endproc
 457              	.LFE4:
 459 0206 00BF     		.align	2
 460              		.global	rename
 461              		.thumb
 462              		.thumb_func
 464              	rename:
 465              	.LFB5:
 123:E:\NeuOrga\Programmieren\c_cpp\github_os\input\src\os_drivers\hal_driver_fs_fat.c **** int rename(const char *oldname, const char *newname)
 124:E:\NeuOrga\Programmieren\c_cpp\github_os\input\src\os_drivers\hal_driver_fs_fat.c **** {
 466              		.loc 1 124 0
 467              		.cfi_startproc
 468              		@ args = 0, pretend = 0, frame = 8
 469              		@ frame_needed = 1, uses_anonymous_args = 0
 470              		@ link register save eliminated.
 471 0208 80B4     		push	{r7}
 472              		.cfi_def_cfa_offset 4
 473              		.cfi_offset 7, -4
 474 020a 83B0     		sub	sp, sp, #12
 475              		.cfi_def_cfa_offset 16
 476 020c 00AF     		add	r7, sp, #0
 477              		.cfi_def_cfa_register 7
 478 020e 7860     		str	r0, [r7, #4]
 479 0210 3960     		str	r1, [r7]
 125:E:\NeuOrga\Programmieren\c_cpp\github_os\input\src\os_drivers\hal_driver_fs_fat.c ****    /*#warn "fopen"*/
 126:E:\NeuOrga\Programmieren\c_cpp\github_os\input\src\os_drivers\hal_driver_fs_fat.c ****    return 0;
 480              		.loc 1 126 0
 481 0212 0023     		movs	r3, #0
 127:E:\NeuOrga\Programmieren\c_cpp\github_os\input\src\os_drivers\hal_driver_fs_fat.c **** }
 482              		.loc 1 127 0
 483 0214 1846     		mov	r0, r3
 484 0216 0C37     		adds	r7, r7, #12
ARM GAS  C:\Users\PRESID~1\AppData\Local\Temp\cc9Coa7Z.s 			page 12


 485              		.cfi_def_cfa_offset 4
 486 0218 BD46     		mov	sp, r7
 487              		.cfi_def_cfa_register 13
 488              		@ sp needed
 489 021a 5DF8047B 		ldr	r7, [sp], #4
 490              		.cfi_restore 7
 491              		.cfi_def_cfa_offset 0
 492 021e 7047     		bx	lr
 493              		.cfi_endproc
 494              	.LFE5:
 496              		.align	2
 497              		.global	fread
 498              		.thumb
 499              		.thumb_func
 501              	fread:
 502              	.LFB6:
 128:E:\NeuOrga\Programmieren\c_cpp\github_os\input\src\os_drivers\hal_driver_fs_fat.c **** uint32 fread(void *ptr, uint32 size, uint32 nobj, FILE *stream)
 129:E:\NeuOrga\Programmieren\c_cpp\github_os\input\src\os_drivers\hal_driver_fs_fat.c **** {
 503              		.loc 1 129 0
 504              		.cfi_startproc
 505              		@ args = 0, pretend = 0, frame = 16
 506              		@ frame_needed = 1, uses_anonymous_args = 0
 507              		@ link register save eliminated.
 508 0220 80B4     		push	{r7}
 509              		.cfi_def_cfa_offset 4
 510              		.cfi_offset 7, -4
 511 0222 85B0     		sub	sp, sp, #20
 512              		.cfi_def_cfa_offset 24
 513 0224 00AF     		add	r7, sp, #0
 514              		.cfi_def_cfa_register 7
 515 0226 F860     		str	r0, [r7, #12]
 516 0228 B960     		str	r1, [r7, #8]
 517 022a 7A60     		str	r2, [r7, #4]
 518 022c 3B60     		str	r3, [r7]
 130:E:\NeuOrga\Programmieren\c_cpp\github_os\input\src\os_drivers\hal_driver_fs_fat.c ****     ReferenceUnusedParameter(size);
 131:E:\NeuOrga\Programmieren\c_cpp\github_os\input\src\os_drivers\hal_driver_fs_fat.c ****    ReferenceUnusedParameter(nobj);
 132:E:\NeuOrga\Programmieren\c_cpp\github_os\input\src\os_drivers\hal_driver_fs_fat.c ****    ReferenceUnusedParameter(*stream);
 133:E:\NeuOrga\Programmieren\c_cpp\github_os\input\src\os_drivers\hal_driver_fs_fat.c ****    /*#warn "fopen"*/
 134:E:\NeuOrga\Programmieren\c_cpp\github_os\input\src\os_drivers\hal_driver_fs_fat.c ****    return 0;
 519              		.loc 1 134 0
 520 022e 0023     		movs	r3, #0
 135:E:\NeuOrga\Programmieren\c_cpp\github_os\input\src\os_drivers\hal_driver_fs_fat.c **** }
 521              		.loc 1 135 0
 522 0230 1846     		mov	r0, r3
 523 0232 1437     		adds	r7, r7, #20
 524              		.cfi_def_cfa_offset 4
 525 0234 BD46     		mov	sp, r7
 526              		.cfi_def_cfa_register 13
 527              		@ sp needed
 528 0236 5DF8047B 		ldr	r7, [sp], #4
 529              		.cfi_restore 7
 530              		.cfi_def_cfa_offset 0
 531 023a 7047     		bx	lr
 532              		.cfi_endproc
 533              	.LFE6:
 535              		.align	2
 536              		.global	fwrite
ARM GAS  C:\Users\PRESID~1\AppData\Local\Temp\cc9Coa7Z.s 			page 13


 537              		.thumb
 538              		.thumb_func
 540              	fwrite:
 541              	.LFB7:
 136:E:\NeuOrga\Programmieren\c_cpp\github_os\input\src\os_drivers\hal_driver_fs_fat.c **** uint32 fwrite(const void *ptr, uint32 size, uint32 nobj, FILE *stream)
 137:E:\NeuOrga\Programmieren\c_cpp\github_os\input\src\os_drivers\hal_driver_fs_fat.c **** {
 542              		.loc 1 137 0
 543              		.cfi_startproc
 544              		@ args = 0, pretend = 0, frame = 16
 545              		@ frame_needed = 1, uses_anonymous_args = 0
 546              		@ link register save eliminated.
 547 023c 80B4     		push	{r7}
 548              		.cfi_def_cfa_offset 4
 549              		.cfi_offset 7, -4
 550 023e 85B0     		sub	sp, sp, #20
 551              		.cfi_def_cfa_offset 24
 552 0240 00AF     		add	r7, sp, #0
 553              		.cfi_def_cfa_register 7
 554 0242 F860     		str	r0, [r7, #12]
 555 0244 B960     		str	r1, [r7, #8]
 556 0246 7A60     		str	r2, [r7, #4]
 557 0248 3B60     		str	r3, [r7]
 138:E:\NeuOrga\Programmieren\c_cpp\github_os\input\src\os_drivers\hal_driver_fs_fat.c ****    ReferenceUnusedParameter(size);
 139:E:\NeuOrga\Programmieren\c_cpp\github_os\input\src\os_drivers\hal_driver_fs_fat.c ****    ReferenceUnusedParameter(nobj);
 140:E:\NeuOrga\Programmieren\c_cpp\github_os\input\src\os_drivers\hal_driver_fs_fat.c ****    ReferenceUnusedParameter(*stream);
 141:E:\NeuOrga\Programmieren\c_cpp\github_os\input\src\os_drivers\hal_driver_fs_fat.c ****    /*#warn "fopen"*/
 142:E:\NeuOrga\Programmieren\c_cpp\github_os\input\src\os_drivers\hal_driver_fs_fat.c ****    return 0;
 558              		.loc 1 142 0
 559 024a 0023     		movs	r3, #0
 143:E:\NeuOrga\Programmieren\c_cpp\github_os\input\src\os_drivers\hal_driver_fs_fat.c **** }
 560              		.loc 1 143 0
 561 024c 1846     		mov	r0, r3
 562 024e 1437     		adds	r7, r7, #20
 563              		.cfi_def_cfa_offset 4
 564 0250 BD46     		mov	sp, r7
 565              		.cfi_def_cfa_register 13
 566              		@ sp needed
 567 0252 5DF8047B 		ldr	r7, [sp], #4
 568              		.cfi_restore 7
 569              		.cfi_def_cfa_offset 0
 570 0256 7047     		bx	lr
 571              		.cfi_endproc
 572              	.LFE7:
 574              	.Letext0:
 575              		.file 2 "e:\\neuorga\\programmieren\\c_cpp\\github_os\\input\\src\\os_base\\os_base_types.h"
 576              		.file 3 "e:\\neuorga\\programmieren\\c_cpp\\github_os\\input\\src\\os_drivers\\hal_driver_fs_fat.h
ARM GAS  C:\Users\PRESID~1\AppData\Local\Temp\cc9Coa7Z.s 			page 14


DEFINED SYMBOLS
                            *ABS*:00000000 hal_driver_fs_fat.c
                            *COM*:00000014 FILE_HANDLER_POOL
C:\Users\PRESID~1\AppData\Local\Temp\cc9Coa7Z.s:20     .bss:00000000 $d
C:\Users\PRESID~1\AppData\Local\Temp\cc9Coa7Z.s:21     .bss:00000000 FILE_HANDLER_POOL_USED
C:\Users\PRESID~1\AppData\Local\Temp\cc9Coa7Z.s:24     .text:00000000 $t
C:\Users\PRESID~1\AppData\Local\Temp\cc9Coa7Z.s:29     .text:00000000 fopen
C:\Users\PRESID~1\AppData\Local\Temp\cc9Coa7Z.s:243    .text:0000012c $d
C:\Users\PRESID~1\AppData\Local\Temp\cc9Coa7Z.s:248    .text:00000134 $t
C:\Users\PRESID~1\AppData\Local\Temp\cc9Coa7Z.s:253    .text:00000134 freopen
C:\Users\PRESID~1\AppData\Local\Temp\cc9Coa7Z.s:330    .text:00000170 fclose
C:\Users\PRESID~1\AppData\Local\Temp\cc9Coa7Z.s:294    .text:00000158 fflush
C:\Users\PRESID~1\AppData\Local\Temp\cc9Coa7Z.s:428    .text:000001f0 remove
C:\Users\PRESID~1\AppData\Local\Temp\cc9Coa7Z.s:464    .text:00000208 rename
C:\Users\PRESID~1\AppData\Local\Temp\cc9Coa7Z.s:501    .text:00000220 fread
C:\Users\PRESID~1\AppData\Local\Temp\cc9Coa7Z.s:540    .text:0000023c fwrite
                     .debug_frame:00000010 $d
                           .group:00000000 wm4.0.718a663455c795daf5c6dd176ef70bbe
                           .group:00000000 wm4.os_base_types.h.2.f3c0267f175f5cbacca6b71710665a02
                           .group:00000000 wm4.os_common.h.2.9521b3e5c1199f549394d32eec33a9c8
                           .group:00000000 wm4.lld_interrupt.h.2.b1b940a31d6b49628a13b8fe5e920a88
                           .group:00000000 wm4.os_task_config.h.2.7cfaa082f19f6144d85c64ce1f04b914
                           .group:00000000 wm4.os_task_common.h.92.310ae0de7be5874c80e3c1d4bf919b37

NO UNDEFINED SYMBOLS
