ARM GAS  C:\Users\PRESID~1\AppData\Local\Temp\cc4hbT4g.s 			page 1


   1              		.syntax unified
   2              		.cpu cortex-m4
   3              		.fpu softvfp
   4              		.eabi_attribute 20, 1
   5              		.eabi_attribute 21, 1
   6              		.eabi_attribute 23, 3
   7              		.eabi_attribute 24, 1
   8              		.eabi_attribute 25, 1
   9              		.eabi_attribute 26, 1
  10              		.eabi_attribute 30, 6
  11              		.eabi_attribute 34, 1
  12              		.eabi_attribute 18, 4
  13              		.thumb
  14              		.file	"lld_global.c"
  15              		.text
  16              	.Ltext0:
  17              		.cfi_sections	.debug_frame
  18              		.align	2
  19              		.global	Get_core_id
  20              		.thumb
  21              		.thumb_func
  23              	Get_core_id:
  24              	.LFB0:
  25              		.file 1 "E:\\NeuOrga\\Programmieren\\c_cpp\\github_os\\input\\src\\os_drivers\\lld_global.c"
   1:E:\NeuOrga\Programmieren\c_cpp\github_os\input\src\os_drivers\lld_global.c **** #include "..\os_base\os_firstinc.h"
   2:E:\NeuOrga\Programmieren\c_cpp\github_os\input\src\os_drivers\lld_global.c **** CoreID_t Get_core_id(void)
   3:E:\NeuOrga\Programmieren\c_cpp\github_os\input\src\os_drivers\lld_global.c **** {
  26              		.loc 1 3 0
  27              		.cfi_startproc
  28              		@ args = 0, pretend = 0, frame = 8
  29              		@ frame_needed = 1, uses_anonymous_args = 0
  30              		@ link register save eliminated.
  31 0000 80B4     		push	{r7}
  32              		.cfi_def_cfa_offset 4
  33              		.cfi_offset 7, -4
  34 0002 83B0     		sub	sp, sp, #12
  35              		.cfi_def_cfa_offset 16
  36 0004 00AF     		add	r7, sp, #0
  37              		.cfi_def_cfa_register 7
   4:E:\NeuOrga\Programmieren\c_cpp\github_os\input\src\os_drivers\lld_global.c ****    /* the Coretex M4 process has just one core-> use static assignement of core id */
   5:E:\NeuOrga\Programmieren\c_cpp\github_os\input\src\os_drivers\lld_global.c ****    /*
   6:E:\NeuOrga\Programmieren\c_cpp\github_os\input\src\os_drivers\lld_global.c ****    14.1.1. Determining which core the code is running on
   7:E:\NeuOrga\Programmieren\c_cpp\github_os\input\src\os_drivers\lld_global.c **** 
   8:E:\NeuOrga\Programmieren\c_cpp\github_os\input\src\os_drivers\lld_global.c ****    Some software operations are dependent on which core the code is running on. For example, global
   9:E:\NeuOrga\Programmieren\c_cpp\github_os\input\src\os_drivers\lld_global.c **** 
  10:E:\NeuOrga\Programmieren\c_cpp\github_os\input\src\os_drivers\lld_global.c ****    The Multi-Processor Affinity Register (MPIDR_EL1) enables software to determine on which core it
  11:E:\NeuOrga\Programmieren\c_cpp\github_os\input\src\os_drivers\lld_global.c **** 
  12:E:\NeuOrga\Programmieren\c_cpp\github_os\input\src\os_drivers\lld_global.c ****    The U bit in some processor configurations indicates whether this is a single core or a multi-co
  13:E:\NeuOrga\Programmieren\c_cpp\github_os\input\src\os_drivers\lld_global.c ****    Note
  14:E:\NeuOrga\Programmieren\c_cpp\github_os\input\src\os_drivers\lld_global.c **** 
  15:E:\NeuOrga\Programmieren\c_cpp\github_os\input\src\os_drivers\lld_global.c ****    Software running at EL1 may be running inside a virtual machine managed by a hypervisor. In orde
  16:E:\NeuOrga\Programmieren\c_cpp\github_os\input\src\os_drivers\lld_global.c **** 
  17:E:\NeuOrga\Programmieren\c_cpp\github_os\input\src\os_drivers\lld_global.c ****    MIPDR_EL3 contains the unchangeable ID of each physical core. No two cores share the same MPIDR_
  18:E:\NeuOrga\Programmieren\c_cpp\github_os\input\src\os_drivers\lld_global.c ****    */
  19:E:\NeuOrga\Programmieren\c_cpp\github_os\input\src\os_drivers\lld_global.c ****    /* Cortex M7 seems to be always single core */
  20:E:\NeuOrga\Programmieren\c_cpp\github_os\input\src\os_drivers\lld_global.c ****    CoreID_t ret_val = 0;
  38              		.loc 1 20 0
ARM GAS  C:\Users\PRESID~1\AppData\Local\Temp\cc4hbT4g.s 			page 2


  39 0006 0023     		movs	r3, #0
  40 0008 FB71     		strb	r3, [r7, #7]
  21:E:\NeuOrga\Programmieren\c_cpp\github_os\input\src\os_drivers\lld_global.c ****    return (ret_val);
  41              		.loc 1 21 0
  42 000a FB79     		ldrb	r3, [r7, #7]	@ zero_extendqisi2
  22:E:\NeuOrga\Programmieren\c_cpp\github_os\input\src\os_drivers\lld_global.c **** }
  43              		.loc 1 22 0
  44 000c 1846     		mov	r0, r3
  45 000e 0C37     		adds	r7, r7, #12
  46              		.cfi_def_cfa_offset 4
  47 0010 BD46     		mov	sp, r7
  48              		.cfi_def_cfa_register 13
  49              		@ sp needed
  50 0012 5DF8047B 		ldr	r7, [sp], #4
  51              		.cfi_restore 7
  52              		.cfi_def_cfa_offset 0
  53 0016 7047     		bx	lr
  54              		.cfi_endproc
  55              	.LFE0:
  57              		.align	2
  58              		.global	LLF_SAVE_TASK_STACK
  59              		.thumb
  60              		.thumb_func
  62              	LLF_SAVE_TASK_STACK:
  63              	.LFB1:
  23:E:\NeuOrga\Programmieren\c_cpp\github_os\input\src\os_drivers\lld_global.c **** void LLF_SAVE_TASK_STACK(unsigned_char_t* StackPointer)
  24:E:\NeuOrga\Programmieren\c_cpp\github_os\input\src\os_drivers\lld_global.c **** {
  64              		.loc 1 24 0
  65              		.cfi_startproc
  66              		@ args = 0, pretend = 0, frame = 8
  67              		@ frame_needed = 1, uses_anonymous_args = 0
  68              		@ link register save eliminated.
  69 0018 80B4     		push	{r7}
  70              		.cfi_def_cfa_offset 4
  71              		.cfi_offset 7, -4
  72 001a 83B0     		sub	sp, sp, #12
  73              		.cfi_def_cfa_offset 16
  74 001c 00AF     		add	r7, sp, #0
  75              		.cfi_def_cfa_register 7
  76 001e 7860     		str	r0, [r7, #4]
  25:E:\NeuOrga\Programmieren\c_cpp\github_os\input\src\os_drivers\lld_global.c ****    /* 1. read the stack pointer register
  26:E:\NeuOrga\Programmieren\c_cpp\github_os\input\src\os_drivers\lld_global.c ****       2. save it the correct task context
  27:E:\NeuOrga\Programmieren\c_cpp\github_os\input\src\os_drivers\lld_global.c ****       3. invalidate the register (==0)
  28:E:\NeuOrga\Programmieren\c_cpp\github_os\input\src\os_drivers\lld_global.c ****    */
  29:E:\NeuOrga\Programmieren\c_cpp\github_os\input\src\os_drivers\lld_global.c ****    ReferenceUnusedParameter(*StackPointer);
  77              		.loc 1 29 0
  78 0020 7B68     		ldr	r3, [r7, #4]
  79 0022 1A78     		ldrb	r2, [r3]	@ zero_extendqisi2
  80 0024 7B68     		ldr	r3, [r7, #4]
  81 0026 1A70     		strb	r2, [r3]
  30:E:\NeuOrga\Programmieren\c_cpp\github_os\input\src\os_drivers\lld_global.c **** /*TODO*/
  31:E:\NeuOrga\Programmieren\c_cpp\github_os\input\src\os_drivers\lld_global.c **** }
  82              		.loc 1 31 0
  83 0028 0C37     		adds	r7, r7, #12
  84              		.cfi_def_cfa_offset 4
  85 002a BD46     		mov	sp, r7
  86              		.cfi_def_cfa_register 13
ARM GAS  C:\Users\PRESID~1\AppData\Local\Temp\cc4hbT4g.s 			page 3


  87              		@ sp needed
  88 002c 5DF8047B 		ldr	r7, [sp], #4
  89              		.cfi_restore 7
  90              		.cfi_def_cfa_offset 0
  91 0030 7047     		bx	lr
  92              		.cfi_endproc
  93              	.LFE1:
  95 0032 00BF     		.align	2
  96              		.global	LLF_SAVE_REGISTERS
  97              		.thumb
  98              		.thumb_func
 100              	LLF_SAVE_REGISTERS:
 101              	.LFB2:
  32:E:\NeuOrga\Programmieren\c_cpp\github_os\input\src\os_drivers\lld_global.c **** void LLF_SAVE_REGISTERS(task_t* task)
  33:E:\NeuOrga\Programmieren\c_cpp\github_os\input\src\os_drivers\lld_global.c **** {
 102              		.loc 1 33 0
 103              		.cfi_startproc
 104              		@ args = 0, pretend = 0, frame = 8
 105              		@ frame_needed = 1, uses_anonymous_args = 0
 106              		@ link register save eliminated.
 107 0034 80B4     		push	{r7}
 108              		.cfi_def_cfa_offset 4
 109              		.cfi_offset 7, -4
 110 0036 83B0     		sub	sp, sp, #12
 111              		.cfi_def_cfa_offset 16
 112 0038 00AF     		add	r7, sp, #0
 113              		.cfi_def_cfa_register 7
 114 003a 7860     		str	r0, [r7, #4]
  34:E:\NeuOrga\Programmieren\c_cpp\github_os\input\src\os_drivers\lld_global.c ****    ReferenceUnusedParameter(*task);
  35:E:\NeuOrga\Programmieren\c_cpp\github_os\input\src\os_drivers\lld_global.c **** }
 115              		.loc 1 35 0
 116 003c 0C37     		adds	r7, r7, #12
 117              		.cfi_def_cfa_offset 4
 118 003e BD46     		mov	sp, r7
 119              		.cfi_def_cfa_register 13
 120              		@ sp needed
 121 0040 5DF8047B 		ldr	r7, [sp], #4
 122              		.cfi_restore 7
 123              		.cfi_def_cfa_offset 0
 124 0044 7047     		bx	lr
 125              		.cfi_endproc
 126              	.LFE2:
 128 0046 00BF     		.align	2
 129              		.global	LLF_RESTORE_TASK_STACK
 130              		.thumb
 131              		.thumb_func
 133              	LLF_RESTORE_TASK_STACK:
 134              	.LFB3:
  36:E:\NeuOrga\Programmieren\c_cpp\github_os\input\src\os_drivers\lld_global.c **** void LLF_RESTORE_TASK_STACK(uint8* StackPointer)
  37:E:\NeuOrga\Programmieren\c_cpp\github_os\input\src\os_drivers\lld_global.c **** {
 135              		.loc 1 37 0
 136              		.cfi_startproc
 137              		@ args = 0, pretend = 0, frame = 8
 138              		@ frame_needed = 1, uses_anonymous_args = 0
 139              		@ link register save eliminated.
 140 0048 80B4     		push	{r7}
 141              		.cfi_def_cfa_offset 4
ARM GAS  C:\Users\PRESID~1\AppData\Local\Temp\cc4hbT4g.s 			page 4


 142              		.cfi_offset 7, -4
 143 004a 83B0     		sub	sp, sp, #12
 144              		.cfi_def_cfa_offset 16
 145 004c 00AF     		add	r7, sp, #0
 146              		.cfi_def_cfa_register 7
 147 004e 7860     		str	r0, [r7, #4]
  38:E:\NeuOrga\Programmieren\c_cpp\github_os\input\src\os_drivers\lld_global.c ****    ReferenceUnusedParameter(*StackPointer);
 148              		.loc 1 38 0
 149 0050 7B68     		ldr	r3, [r7, #4]
 150 0052 1A78     		ldrb	r2, [r3]	@ zero_extendqisi2
 151 0054 7B68     		ldr	r3, [r7, #4]
 152 0056 1A70     		strb	r2, [r3]
  39:E:\NeuOrga\Programmieren\c_cpp\github_os\input\src\os_drivers\lld_global.c **** }
 153              		.loc 1 39 0
 154 0058 0C37     		adds	r7, r7, #12
 155              		.cfi_def_cfa_offset 4
 156 005a BD46     		mov	sp, r7
 157              		.cfi_def_cfa_register 13
 158              		@ sp needed
 159 005c 5DF8047B 		ldr	r7, [sp], #4
 160              		.cfi_restore 7
 161              		.cfi_def_cfa_offset 0
 162 0060 7047     		bx	lr
 163              		.cfi_endproc
 164              	.LFE3:
 166 0062 00BF     		.align	2
 167              		.global	LLF_RESTORE_REGISTERS
 168              		.thumb
 169              		.thumb_func
 171              	LLF_RESTORE_REGISTERS:
 172              	.LFB4:
  40:E:\NeuOrga\Programmieren\c_cpp\github_os\input\src\os_drivers\lld_global.c **** void LLF_RESTORE_REGISTERS(task_t* task)
  41:E:\NeuOrga\Programmieren\c_cpp\github_os\input\src\os_drivers\lld_global.c **** {
 173              		.loc 1 41 0
 174              		.cfi_startproc
 175              		@ args = 0, pretend = 0, frame = 8
 176              		@ frame_needed = 1, uses_anonymous_args = 0
 177              		@ link register save eliminated.
 178 0064 80B4     		push	{r7}
 179              		.cfi_def_cfa_offset 4
 180              		.cfi_offset 7, -4
 181 0066 83B0     		sub	sp, sp, #12
 182              		.cfi_def_cfa_offset 16
 183 0068 00AF     		add	r7, sp, #0
 184              		.cfi_def_cfa_register 7
 185 006a 7860     		str	r0, [r7, #4]
  42:E:\NeuOrga\Programmieren\c_cpp\github_os\input\src\os_drivers\lld_global.c ****    ReferenceUnusedParameter(*task);
  43:E:\NeuOrga\Programmieren\c_cpp\github_os\input\src\os_drivers\lld_global.c ****    /*TODO*/
  44:E:\NeuOrga\Programmieren\c_cpp\github_os\input\src\os_drivers\lld_global.c **** }
 186              		.loc 1 44 0
 187 006c 0C37     		adds	r7, r7, #12
 188              		.cfi_def_cfa_offset 4
 189 006e BD46     		mov	sp, r7
 190              		.cfi_def_cfa_register 13
 191              		@ sp needed
 192 0070 5DF8047B 		ldr	r7, [sp], #4
 193              		.cfi_restore 7
ARM GAS  C:\Users\PRESID~1\AppData\Local\Temp\cc4hbT4g.s 			page 5


 194              		.cfi_def_cfa_offset 0
 195 0074 7047     		bx	lr
 196              		.cfi_endproc
 197              	.LFE4:
 199 0076 00BF     		.align	2
 200              		.global	LLF_RESTORE_SYSTEM_STACK
 201              		.thumb
 202              		.thumb_func
 204              	LLF_RESTORE_SYSTEM_STACK:
 205              	.LFB5:
  45:E:\NeuOrga\Programmieren\c_cpp\github_os\input\src\os_drivers\lld_global.c **** void LLF_RESTORE_SYSTEM_STACK(uint8* system_stack_ptr)
  46:E:\NeuOrga\Programmieren\c_cpp\github_os\input\src\os_drivers\lld_global.c **** {
 206              		.loc 1 46 0
 207              		.cfi_startproc
 208              		@ args = 0, pretend = 0, frame = 8
 209              		@ frame_needed = 1, uses_anonymous_args = 0
 210              		@ link register save eliminated.
 211 0078 80B4     		push	{r7}
 212              		.cfi_def_cfa_offset 4
 213              		.cfi_offset 7, -4
 214 007a 83B0     		sub	sp, sp, #12
 215              		.cfi_def_cfa_offset 16
 216 007c 00AF     		add	r7, sp, #0
 217              		.cfi_def_cfa_register 7
 218 007e 7860     		str	r0, [r7, #4]
  47:E:\NeuOrga\Programmieren\c_cpp\github_os\input\src\os_drivers\lld_global.c ****    ReferenceUnusedParameter(*system_stack_ptr);
 219              		.loc 1 47 0
 220 0080 7B68     		ldr	r3, [r7, #4]
 221 0082 1A78     		ldrb	r2, [r3]	@ zero_extendqisi2
 222 0084 7B68     		ldr	r3, [r7, #4]
 223 0086 1A70     		strb	r2, [r3]
  48:E:\NeuOrga\Programmieren\c_cpp\github_os\input\src\os_drivers\lld_global.c ****    /*TODO*/
  49:E:\NeuOrga\Programmieren\c_cpp\github_os\input\src\os_drivers\lld_global.c **** }
 224              		.loc 1 49 0
 225 0088 0C37     		adds	r7, r7, #12
 226              		.cfi_def_cfa_offset 4
 227 008a BD46     		mov	sp, r7
 228              		.cfi_def_cfa_register 13
 229              		@ sp needed
 230 008c 5DF8047B 		ldr	r7, [sp], #4
 231              		.cfi_restore 7
 232              		.cfi_def_cfa_offset 0
 233 0090 7047     		bx	lr
 234              		.cfi_endproc
 235              	.LFE5:
 237 0092 00BF     		.align	2
 238              		.global	LLF_SAVE_SYSTEM_STACK
 239              		.thumb
 240              		.thumb_func
 242              	LLF_SAVE_SYSTEM_STACK:
 243              	.LFB6:
  50:E:\NeuOrga\Programmieren\c_cpp\github_os\input\src\os_drivers\lld_global.c **** void LLF_SAVE_SYSTEM_STACK(uint8* system_stack_ptr)
  51:E:\NeuOrga\Programmieren\c_cpp\github_os\input\src\os_drivers\lld_global.c **** {
 244              		.loc 1 51 0
 245              		.cfi_startproc
 246              		@ args = 0, pretend = 0, frame = 8
 247              		@ frame_needed = 1, uses_anonymous_args = 0
ARM GAS  C:\Users\PRESID~1\AppData\Local\Temp\cc4hbT4g.s 			page 6


 248              		@ link register save eliminated.
 249 0094 80B4     		push	{r7}
 250              		.cfi_def_cfa_offset 4
 251              		.cfi_offset 7, -4
 252 0096 83B0     		sub	sp, sp, #12
 253              		.cfi_def_cfa_offset 16
 254 0098 00AF     		add	r7, sp, #0
 255              		.cfi_def_cfa_register 7
 256 009a 7860     		str	r0, [r7, #4]
  52:E:\NeuOrga\Programmieren\c_cpp\github_os\input\src\os_drivers\lld_global.c ****    ReferenceUnusedParameter(*system_stack_ptr);
 257              		.loc 1 52 0
 258 009c 7B68     		ldr	r3, [r7, #4]
 259 009e 1A78     		ldrb	r2, [r3]	@ zero_extendqisi2
 260 00a0 7B68     		ldr	r3, [r7, #4]
 261 00a2 1A70     		strb	r2, [r3]
  53:E:\NeuOrga\Programmieren\c_cpp\github_os\input\src\os_drivers\lld_global.c ****    /*TODO*/
  54:E:\NeuOrga\Programmieren\c_cpp\github_os\input\src\os_drivers\lld_global.c **** }
 262              		.loc 1 54 0
 263 00a4 0C37     		adds	r7, r7, #12
 264              		.cfi_def_cfa_offset 4
 265 00a6 BD46     		mov	sp, r7
 266              		.cfi_def_cfa_register 13
 267              		@ sp needed
 268 00a8 5DF8047B 		ldr	r7, [sp], #4
 269              		.cfi_restore 7
 270              		.cfi_def_cfa_offset 0
 271 00ac 7047     		bx	lr
 272              		.cfi_endproc
 273              	.LFE6:
 275 00ae 00BF     		.align	2
 276              		.global	LLF_CLEAR_ALL_GP_REGISTERS
 277              		.thumb
 278              		.thumb_func
 280              	LLF_CLEAR_ALL_GP_REGISTERS:
 281              	.LFB7:
  55:E:\NeuOrga\Programmieren\c_cpp\github_os\input\src\os_drivers\lld_global.c **** void LLF_CLEAR_ALL_GP_REGISTERS(void)
  56:E:\NeuOrga\Programmieren\c_cpp\github_os\input\src\os_drivers\lld_global.c **** { 
 282              		.loc 1 56 0
 283              		.cfi_startproc
 284              		@ args = 0, pretend = 0, frame = 0
 285              		@ frame_needed = 1, uses_anonymous_args = 0
 286              		@ link register save eliminated.
 287 00b0 80B4     		push	{r7}
 288              		.cfi_def_cfa_offset 4
 289              		.cfi_offset 7, -4
 290 00b2 00AF     		add	r7, sp, #0
 291              		.cfi_def_cfa_register 7
  57:E:\NeuOrga\Programmieren\c_cpp\github_os\input\src\os_drivers\lld_global.c **** /*TODO*/
  58:E:\NeuOrga\Programmieren\c_cpp\github_os\input\src\os_drivers\lld_global.c **** }
 292              		.loc 1 58 0
 293 00b4 BD46     		mov	sp, r7
 294              		.cfi_def_cfa_register 13
 295              		@ sp needed
 296 00b6 5DF8047B 		ldr	r7, [sp], #4
 297              		.cfi_restore 7
 298              		.cfi_def_cfa_offset 0
 299 00ba 7047     		bx	lr
ARM GAS  C:\Users\PRESID~1\AppData\Local\Temp\cc4hbT4g.s 			page 7


 300              		.cfi_endproc
 301              	.LFE7:
 303              		.align	2
 304              		.global	LLF_PERFORM_RAM_CHECK
 305              		.thumb
 306              		.thumb_func
 308              	LLF_PERFORM_RAM_CHECK:
 309              	.LFB8:
  59:E:\NeuOrga\Programmieren\c_cpp\github_os\input\src\os_drivers\lld_global.c **** void LLF_PERFORM_RAM_CHECK(void)
  60:E:\NeuOrga\Programmieren\c_cpp\github_os\input\src\os_drivers\lld_global.c **** {
 310              		.loc 1 60 0
 311              		.cfi_startproc
 312              		@ args = 0, pretend = 0, frame = 0
 313              		@ frame_needed = 1, uses_anonymous_args = 0
 314              		@ link register save eliminated.
 315 00bc 80B4     		push	{r7}
 316              		.cfi_def_cfa_offset 4
 317              		.cfi_offset 7, -4
 318 00be 00AF     		add	r7, sp, #0
 319              		.cfi_def_cfa_register 7
  61:E:\NeuOrga\Programmieren\c_cpp\github_os\input\src\os_drivers\lld_global.c ****    /*TODO*/
  62:E:\NeuOrga\Programmieren\c_cpp\github_os\input\src\os_drivers\lld_global.c **** }...
 320              		.loc 1 62 0
 321 00c0 BD46     		mov	sp, r7
 322              		.cfi_def_cfa_register 13
 323              		@ sp needed
 324 00c2 5DF8047B 		ldr	r7, [sp], #4
 325              		.cfi_restore 7
 326              		.cfi_def_cfa_offset 0
 327 00c6 7047     		bx	lr
 328              		.cfi_endproc
 329              	.LFE8:
 331              	.Letext0:
 332              		.file 2 "e:\\neuorga\\programmieren\\c_cpp\\github_os\\input\\src\\os_base\\os_base_types.h"
 333              		.file 3 "e:\\neuorga\\programmieren\\c_cpp\\github_os\\input\\src\\os_drivers\\lld_core.h"
 334              		.file 4 "e:\\neuorga\\programmieren\\c_cpp\\github_os\\input\\src\\os_base\\os_task_common.h"
ARM GAS  C:\Users\PRESID~1\AppData\Local\Temp\cc4hbT4g.s 			page 8

