ARM GAS  C:\Users\PRESID~1\AppData\Local\Temp\ccKZ1gJo.s 			page 1


   1              		.syntax unified
   2              		.cpu cortex-m4
   3              		.fpu softvfp
   4              		.eabi_attribute 20, 1
   5              		.eabi_attribute 21, 1
   6              		.eabi_attribute 23, 3
   7              		.eabi_attribute 24, 1
   8              		.eabi_attribute 25, 1
   9              		.eabi_attribute 26, 1
  10              		.eabi_attribute 30, 6
  11              		.eabi_attribute 34, 1
  12              		.eabi_attribute 18, 4
  13              		.thumb
  14              		.file	"lld_mmu.c"
  15              		.text
  16              	.Ltext0:
  17              		.cfi_sections	.debug_frame
  18              		.align	2
  19              		.global	LLF_MPU_DISABLE
  20              		.thumb
  21              		.thumb_func
  23              	LLF_MPU_DISABLE:
  24              	.LFB0:
  25              		.file 1 "E:\\NeuOrga\\Programmieren\\c_cpp\\github_os\\input\\src\\os_drivers\\lld_mmu.c"
   1:E:\NeuOrga\Programmieren\c_cpp\github_os\input\src\os_drivers\lld_mmu.c **** #include "..\os_base\os_firstinc.h"
   2:E:\NeuOrga\Programmieren\c_cpp\github_os\input\src\os_drivers\lld_mmu.c **** /* MCU: STM32F407VG -> MPU */
   3:E:\NeuOrga\Programmieren\c_cpp\github_os\input\src\os_drivers\lld_mmu.c **** 
   4:E:\NeuOrga\Programmieren\c_cpp\github_os\input\src\os_drivers\lld_mmu.c **** void LLF_MPU_DISABLE(void)
   5:E:\NeuOrga\Programmieren\c_cpp\github_os\input\src\os_drivers\lld_mmu.c **** {
  26              		.loc 1 5 0
  27              		.cfi_startproc
  28              		@ args = 0, pretend = 0, frame = 0
  29              		@ frame_needed = 1, uses_anonymous_args = 0
  30              		@ link register save eliminated.
  31 0000 80B4     		push	{r7}
  32              		.cfi_def_cfa_offset 4
  33              		.cfi_offset 7, -4
  34 0002 00AF     		add	r7, sp, #0
  35              		.cfi_def_cfa_register 7
   6:E:\NeuOrga\Programmieren\c_cpp\github_os\input\src\os_drivers\lld_mmu.c ****    /*#warn "LLF_MPU_DISABLE not yet implemented"*/
   7:E:\NeuOrga\Programmieren\c_cpp\github_os\input\src\os_drivers\lld_mmu.c **** }
  36              		.loc 1 7 0
  37 0004 BD46     		mov	sp, r7
  38              		.cfi_def_cfa_register 13
  39              		@ sp needed
  40 0006 5DF8047B 		ldr	r7, [sp], #4
  41              		.cfi_restore 7
  42              		.cfi_def_cfa_offset 0
  43 000a 7047     		bx	lr
  44              		.cfi_endproc
  45              	.LFE0:
  47              		.align	2
  48              		.global	LLF_MPU_ENABLE
  49              		.thumb
  50              		.thumb_func
  52              	LLF_MPU_ENABLE:
  53              	.LFB1:
ARM GAS  C:\Users\PRESID~1\AppData\Local\Temp\ccKZ1gJo.s 			page 2


   8:E:\NeuOrga\Programmieren\c_cpp\github_os\input\src\os_drivers\lld_mmu.c **** 
   9:E:\NeuOrga\Programmieren\c_cpp\github_os\input\src\os_drivers\lld_mmu.c **** void LLF_MPU_ENABLE(void)
  10:E:\NeuOrga\Programmieren\c_cpp\github_os\input\src\os_drivers\lld_mmu.c **** {
  54              		.loc 1 10 0
  55              		.cfi_startproc
  56              		@ args = 0, pretend = 0, frame = 0
  57              		@ frame_needed = 1, uses_anonymous_args = 0
  58              		@ link register save eliminated.
  59 000c 80B4     		push	{r7}
  60              		.cfi_def_cfa_offset 4
  61              		.cfi_offset 7, -4
  62 000e 00AF     		add	r7, sp, #0
  63              		.cfi_def_cfa_register 7
  11:E:\NeuOrga\Programmieren\c_cpp\github_os\input\src\os_drivers\lld_mmu.c ****    /*#warn "LLF_MPU_ENABLE not yet implemented"*/
  12:E:\NeuOrga\Programmieren\c_cpp\github_os\input\src\os_drivers\lld_mmu.c **** }
  64              		.loc 1 12 0
  65 0010 BD46     		mov	sp, r7
  66              		.cfi_def_cfa_register 13
  67              		@ sp needed
  68 0012 5DF8047B 		ldr	r7, [sp], #4
  69              		.cfi_restore 7
  70              		.cfi_def_cfa_offset 0
  71 0016 7047     		bx	lr
  72              		.cfi_endproc
  73              	.LFE1:
  75              		.align	2
  76              		.global	LLF_MPU_SWITCH_OFF_ALL_REGIONS
  77              		.thumb
  78              		.thumb_func
  80              	LLF_MPU_SWITCH_OFF_ALL_REGIONS:
  81              	.LFB2:
  13:E:\NeuOrga\Programmieren\c_cpp\github_os\input\src\os_drivers\lld_mmu.c **** 
  14:E:\NeuOrga\Programmieren\c_cpp\github_os\input\src\os_drivers\lld_mmu.c **** void LLF_MPU_SWITCH_OFF_ALL_REGIONS(void)
  15:E:\NeuOrga\Programmieren\c_cpp\github_os\input\src\os_drivers\lld_mmu.c **** {
  82              		.loc 1 15 0
  83              		.cfi_startproc
  84              		@ args = 0, pretend = 0, frame = 0
  85              		@ frame_needed = 1, uses_anonymous_args = 0
  86              		@ link register save eliminated.
  87 0018 80B4     		push	{r7}
  88              		.cfi_def_cfa_offset 4
  89              		.cfi_offset 7, -4
  90 001a 00AF     		add	r7, sp, #0
  91              		.cfi_def_cfa_register 7
  16:E:\NeuOrga\Programmieren\c_cpp\github_os\input\src\os_drivers\lld_mmu.c ****   
  17:E:\NeuOrga\Programmieren\c_cpp\github_os\input\src\os_drivers\lld_mmu.c **** }
  92              		.loc 1 17 0
  93 001c BD46     		mov	sp, r7
  94              		.cfi_def_cfa_register 13
  95              		@ sp needed
  96 001e 5DF8047B 		ldr	r7, [sp], #4
  97              		.cfi_restore 7
  98              		.cfi_def_cfa_offset 0
  99 0022 7047     		bx	lr
 100              		.cfi_endproc
 101              	.LFE2:
 103              		.align	2
ARM GAS  C:\Users\PRESID~1\AppData\Local\Temp\ccKZ1gJo.s 			page 3


 104              		.global	LLF_GET_MPU_PRESENT
 105              		.thumb
 106              		.thumb_func
 108              	LLF_GET_MPU_PRESENT:
 109              	.LFB3:
  18:E:\NeuOrga\Programmieren\c_cpp\github_os\input\src\os_drivers\lld_mmu.c **** 
  19:E:\NeuOrga\Programmieren\c_cpp\github_os\input\src\os_drivers\lld_mmu.c **** unsigned_char_t LLF_GET_MPU_PRESENT(void)
  20:E:\NeuOrga\Programmieren\c_cpp\github_os\input\src\os_drivers\lld_mmu.c **** {
 110              		.loc 1 20 0
 111              		.cfi_startproc
 112              		@ args = 0, pretend = 0, frame = 8
 113              		@ frame_needed = 1, uses_anonymous_args = 0
 114              		@ link register save eliminated.
 115 0024 80B4     		push	{r7}
 116              		.cfi_def_cfa_offset 4
 117              		.cfi_offset 7, -4
 118 0026 83B0     		sub	sp, sp, #12
 119              		.cfi_def_cfa_offset 16
 120 0028 00AF     		add	r7, sp, #0
 121              		.cfi_def_cfa_register 7
  21:E:\NeuOrga\Programmieren\c_cpp\github_os\input\src\os_drivers\lld_mmu.c ****    unsigned_char_t ret_val;
  22:E:\NeuOrga\Programmieren\c_cpp\github_os\input\src\os_drivers\lld_mmu.c **** #if(CFG_PROCESSOR == cMCU_X86)
  23:E:\NeuOrga\Programmieren\c_cpp\github_os\input\src\os_drivers\lld_mmu.c ****    ret_val = False;
  24:E:\NeuOrga\Programmieren\c_cpp\github_os\input\src\os_drivers\lld_mmu.c **** #else
  25:E:\NeuOrga\Programmieren\c_cpp\github_os\input\src\os_drivers\lld_mmu.c **** #define MPU_TYPE ((unsigned_char_t*)0xE000ED90)
  26:E:\NeuOrga\Programmieren\c_cpp\github_os\input\src\os_drivers\lld_mmu.c ****    if( *MPU_TYPE != 0)
 122              		.loc 1 26 0
 123 002a 084B     		ldr	r3, .L8
 124 002c 1B78     		ldrb	r3, [r3]	@ zero_extendqisi2
 125 002e 002B     		cmp	r3, #0
 126 0030 02D0     		beq	.L5
  27:E:\NeuOrga\Programmieren\c_cpp\github_os\input\src\os_drivers\lld_mmu.c ****    {
  28:E:\NeuOrga\Programmieren\c_cpp\github_os\input\src\os_drivers\lld_mmu.c ****       ret_val = True;
 127              		.loc 1 28 0
 128 0032 0123     		movs	r3, #1
 129 0034 FB71     		strb	r3, [r7, #7]
 130 0036 01E0     		b	.L6
 131              	.L5:
  29:E:\NeuOrga\Programmieren\c_cpp\github_os\input\src\os_drivers\lld_mmu.c ****    }
  30:E:\NeuOrga\Programmieren\c_cpp\github_os\input\src\os_drivers\lld_mmu.c ****    else
  31:E:\NeuOrga\Programmieren\c_cpp\github_os\input\src\os_drivers\lld_mmu.c ****    {
  32:E:\NeuOrga\Programmieren\c_cpp\github_os\input\src\os_drivers\lld_mmu.c ****       ret_val = False;
 132              		.loc 1 32 0
 133 0038 0023     		movs	r3, #0
 134 003a FB71     		strb	r3, [r7, #7]
 135              	.L6:
  33:E:\NeuOrga\Programmieren\c_cpp\github_os\input\src\os_drivers\lld_mmu.c ****    }
  34:E:\NeuOrga\Programmieren\c_cpp\github_os\input\src\os_drivers\lld_mmu.c **** #endif
  35:E:\NeuOrga\Programmieren\c_cpp\github_os\input\src\os_drivers\lld_mmu.c ****    return ret_val;
 136              		.loc 1 35 0
 137 003c FB79     		ldrb	r3, [r7, #7]	@ zero_extendqisi2
  36:E:\NeuOrga\Programmieren\c_cpp\github_os\input\src\os_drivers\lld_mmu.c **** }
 138              		.loc 1 36 0
 139 003e 1846     		mov	r0, r3
 140 0040 0C37     		adds	r7, r7, #12
 141              		.cfi_def_cfa_offset 4
 142 0042 BD46     		mov	sp, r7
ARM GAS  C:\Users\PRESID~1\AppData\Local\Temp\ccKZ1gJo.s 			page 4


 143              		.cfi_def_cfa_register 13
 144              		@ sp needed
 145 0044 5DF8047B 		ldr	r7, [sp], #4
 146              		.cfi_restore 7
 147              		.cfi_def_cfa_offset 0
 148 0048 7047     		bx	lr
 149              	.L9:
 150 004a 00BF     		.align	2
 151              	.L8:
 152 004c 90ED00E0 		.word	-536810096
 153              		.cfi_endproc
 154              	.LFE3:
 156              	.Letext0:
 157              		.file 2 "e:\\neuorga\\programmieren\\c_cpp\\github_os\\input\\src\\os_base\\os_base_types.h"
ARM GAS  C:\Users\PRESID~1\AppData\Local\Temp\ccKZ1gJo.s 			page 5

