	.file	"os_common.c"
	.text
Ltext0:
	.globl	_OS_SET_SW_BUG
	.def	_OS_SET_SW_BUG;	.scl	2;	.type	32;	.endef
_OS_SET_SW_BUG:
LFB0:
	.file 1 "E:/NeuOrga/Programmieren/c_cpp/github_os/input/src/os_base/os_common.c"
	.loc 1 5 0
	.cfi_startproc
	pushl	%ebp
	.cfi_def_cfa_offset 8
	.cfi_offset 5, -8
	movl	%esp, %ebp
	.cfi_def_cfa_register 5
	.loc 1 6 0
	movl	12(%ebp), %eax
	movl	8(%ebp), %edx
	movl	%edx, _OS_SW_BUG(,%eax,4)
	.loc 1 7 0
	popl	%ebp
	.cfi_restore 5
	.cfi_def_cfa 4, 4
	ret
	.cfi_endproc
LFE0:
	.globl	_OS_GET_CURRENT_TIME
	.def	_OS_GET_CURRENT_TIME;	.scl	2;	.type	32;	.endef
_OS_GET_CURRENT_TIME:
LFB1:
	.loc 1 12 0
	.cfi_startproc
	pushl	%ebp
	.cfi_def_cfa_offset 8
	.cfi_offset 5, -8
	movl	%esp, %ebp
	.cfi_def_cfa_register 5
	subl	$24, %esp
	.loc 1 14 0
	call	_OS_UpdateCurrentTime
	.loc 1 16 0
	movl	$_LOCAL_SYSTEM_TIME, 4(%esp)
	movl	8(%ebp), %eax
	movl	%eax, (%esp)
	call	_ASSIGN
	.loc 1 18 0
	leave
	.cfi_restore 5
	.cfi_def_cfa 4, 4
	ret
	.cfi_endproc
LFE1:
	.globl	_OS_UpdateCurrentTime
	.def	_OS_UpdateCurrentTime;	.scl	2;	.type	32;	.endef
_OS_UpdateCurrentTime:
LFB2:
	.loc 1 20 0
	.cfi_startproc
	pushl	%ebp
	.cfi_def_cfa_offset 8
	.cfi_offset 5, -8
	movl	%esp, %ebp
	.cfi_def_cfa_register 5
	subl	$40, %esp
	.loc 1 25 0
	leal	-24(%ebp), %eax
	movl	%eax, (%esp)
	call	_OS_READ_AND_RESET_CURRENT_TIME
	.loc 1 28 0
	leal	-24(%ebp), %eax
	movl	%eax, 8(%esp)
	movl	$_LOCAL_SYSTEM_TIME, 4(%esp)
	movl	$_LOCAL_SYSTEM_TIME, (%esp)
	call	_INT_ADD
	.loc 1 29 0
	leave
	.cfi_restore 5
	.cfi_def_cfa 4, 4
	ret
	.cfi_endproc
LFE2:
	.globl	_OS_READ_AND_RESET_CURRENT_TIME
	.def	_OS_READ_AND_RESET_CURRENT_TIME;	.scl	2;	.type	32;	.endef
_OS_READ_AND_RESET_CURRENT_TIME:
LFB3:
	.loc 1 32 0
	.cfi_startproc
	pushl	%ebp
	.cfi_def_cfa_offset 8
	.cfi_offset 5, -8
	movl	%esp, %ebp
	.cfi_def_cfa_register 5
	subl	$24, %esp
	.loc 1 54 0
	movl	$5, 4(%esp)
	movl	8(%ebp), %eax
	movl	%eax, (%esp)
	call	_ASSIGN_UINT32
	.loc 1 56 0
	leave
	.cfi_restore 5
	.cfi_def_cfa 4, 4
	ret
	.cfi_endproc
LFE3:
	.globl	_INT_DIV
	.def	_INT_DIV;	.scl	2;	.type	32;	.endef
_INT_DIV:
LFB4:
	.loc 1 59 0
	.cfi_startproc
	pushl	%ebp
	.cfi_def_cfa_offset 8
	.cfi_offset 5, -8
	movl	%esp, %ebp
	.cfi_def_cfa_register 5
	subl	$120, %esp
	.loc 1 75 0
	movl	$0, -12(%ebp)
	.loc 1 79 0
	movl	$0, -16(%ebp)
	.loc 1 84 0
	leal	-40(%ebp), %eax
	movl	%eax, (%esp)
	call	_ASSIGN_NULL
	.loc 1 85 0
	movl	12(%ebp), %eax
	movl	%eax, 4(%esp)
	leal	-56(%ebp), %eax
	movl	%eax, (%esp)
	call	_ASSIGN
	.loc 1 86 0
	movl	16(%ebp), %eax
	movl	%eax, 4(%esp)
	leal	-72(%ebp), %eax
	movl	%eax, (%esp)
	call	_ASSIGN
	.loc 1 87 0
	movl	12(%ebp), %eax
	movl	%eax, 4(%esp)
	leal	-88(%ebp), %eax
	movl	%eax, (%esp)
	call	_ASSIGN
	.loc 1 90 0
	leal	-40(%ebp), %eax
	movl	%eax, 4(%esp)
	leal	-72(%ebp), %eax
	movl	%eax, (%esp)
	call	_IS_EQUAL
	testb	%al, %al
	je	L6
	.loc 1 93 0
	movl	$20, 4(%esp)
	movl	$12, (%esp)
	call	_OS_SET_SW_BUG
	jmp	L5
L6:
	.loc 1 96 0
	jmp	L8
L13:
	.loc 1 107 0
	jmp	L9
L10:
	.loc 1 109 0
	movl	$4, 4(%esp)
	leal	-72(%ebp), %eax
	movl	%eax, (%esp)
	call	_SHIFT_LEFT
	.loc 1 110 0
	incl	-12(%ebp)
L9:
	.loc 1 107 0
	leal	-56(%ebp), %eax
	movl	%eax, 4(%esp)
	leal	-72(%ebp), %eax
	movl	%eax, (%esp)
	call	_IS_LESS_OR_EQUAL
	testb	%al, %al
	jne	L10
	.loc 1 115 0
	movl	$0, -16(%ebp)
	.loc 1 116 0
	jmp	L11
L12:
	.loc 1 118 0
	leal	-72(%ebp), %eax
	movl	%eax, 8(%esp)
	leal	-56(%ebp), %eax
	movl	%eax, 4(%esp)
	leal	-88(%ebp), %eax
	movl	%eax, (%esp)
	call	_INT_SUB
	.loc 1 119 0
	incl	-16(%ebp)
L11:
	.loc 1 116 0
	leal	-72(%ebp), %eax
	movl	%eax, 4(%esp)
	leal	-88(%ebp), %eax
	movl	%eax, (%esp)
	call	_IS_LESS_OR_EQUAL
	testb	%al, %al
	jne	L12
	.loc 1 122 0
	movl	-12(%ebp), %eax
	movl	$1, %edx
	movb	%al, %cl
	sall	%cl, %edx
	movl	%edx, %eax
	movl	%eax, -20(%ebp)
	.loc 1 123 0
	movl	-16(%ebp), %eax
	imull	-20(%ebp), %eax
	movl	%eax, -24(%ebp)
	.loc 1 125 0
	movl	-24(%ebp), %eax
	movl	%eax, 4(%esp)
	leal	-104(%ebp), %eax
	movl	%eax, (%esp)
	call	_ASSIGN_UINT32
	.loc 1 128 0
	leal	-88(%ebp), %eax
	movl	%eax, 8(%esp)
	leal	-104(%ebp), %eax
	movl	%eax, 4(%esp)
	leal	-104(%ebp), %eax
	movl	%eax, (%esp)
	call	_INT_ADD
L8:
	.loc 1 96 0
	leal	-56(%ebp), %eax
	movl	%eax, 4(%esp)
	leal	-88(%ebp), %eax
	movl	%eax, (%esp)
	call	_IS_GREATER_OR_EQUAL
	testb	%al, %al
	jne	L13
	.loc 1 132 0
	leal	-104(%ebp), %eax
	movl	%eax, 4(%esp)
	movl	8(%ebp), %eax
	movl	%eax, (%esp)
	call	_ASSIGN
L5:
	.loc 1 133 0
	leave
	.cfi_restore 5
	.cfi_def_cfa 4, 4
	ret
	.cfi_endproc
LFE4:
	.globl	_INT_MUL
	.def	_INT_MUL;	.scl	2;	.type	32;	.endef
_INT_MUL:
LFB5:
	.loc 1 136 0
	.cfi_startproc
	pushl	%ebp
	.cfi_def_cfa_offset 8
	.cfi_offset 5, -8
	movl	%esp, %ebp
	.cfi_def_cfa_register 5
	subl	$72, %esp
	.loc 1 150 0
	leal	-50(%ebp), %eax
	movl	%eax, (%esp)
	call	_ASSIGN_NULL
	.loc 1 151 0
	leal	-34(%ebp), %eax
	movl	%eax, (%esp)
	call	_ASSIGN_NULL
	.loc 1 168 0
	movl	$15, -12(%ebp)
	jmp	L15
L18:
	.loc 1 170 0
	movl	$15, -16(%ebp)
	jmp	L16
L17:
	.loc 1 172 0 discriminator 3
	movl	-12(%ebp), %edx
	movl	12(%ebp), %eax
	addl	%edx, %eax
	movb	(%eax), %al
	movzbl	%al, %edx
	movl	-16(%ebp), %ecx
	movl	16(%ebp), %eax
	addl	%ecx, %eax
	movb	(%eax), %al
	movzbl	%al, %eax
	imulw	%dx, %ax
	movw	%ax, -18(%ebp)
	.loc 1 174 0 discriminator 3
	movzwl	-18(%ebp), %eax
	movl	%eax, 4(%esp)
	leal	-50(%ebp), %eax
	movl	%eax, (%esp)
	call	_ASSIGN_UINT32
	.loc 1 176 0 discriminator 3
	movl	-12(%ebp), %edx
	movl	-16(%ebp), %eax
	addl	%edx, %eax
	movl	%eax, 4(%esp)
	leal	-50(%ebp), %eax
	movl	%eax, (%esp)
	call	_SHIFT_LEFT
	.loc 1 178 0 discriminator 3
	leal	-50(%ebp), %eax
	movl	%eax, 8(%esp)
	leal	-34(%ebp), %eax
	movl	%eax, 4(%esp)
	leal	-34(%ebp), %eax
	movl	%eax, (%esp)
	call	_INT_ADD
	.loc 1 170 0 discriminator 3
	decl	-16(%ebp)
L16:
	.loc 1 170 0 is_stmt 0 discriminator 1
	cmpl	$0, -16(%ebp)
	jns	L17
	.loc 1 168 0 is_stmt 1 discriminator 2
	decl	-12(%ebp)
L15:
	.loc 1 168 0 is_stmt 0 discriminator 1
	cmpl	$0, -12(%ebp)
	jns	L18
	.loc 1 181 0 is_stmt 1
	leal	-34(%ebp), %eax
	movl	%eax, 4(%esp)
	movl	8(%ebp), %eax
	movl	%eax, (%esp)
	call	_ASSIGN
	.loc 1 182 0
	leave
	.cfi_restore 5
	.cfi_def_cfa 4, 4
	ret
	.cfi_endproc
LFE5:
	.globl	_INT_ADD
	.def	_INT_ADD;	.scl	2;	.type	32;	.endef
_INT_ADD:
LFB6:
	.loc 1 185 0
	.cfi_startproc
	pushl	%ebp
	.cfi_def_cfa_offset 8
	.cfi_offset 5, -8
	movl	%esp, %ebp
	.cfi_def_cfa_register 5
	subl	$16, %esp
	.loc 1 187 0
	movw	$0, -4(%ebp)
	.loc 1 189 0
	movb	$15, -1(%ebp)
	jmp	L20
L21:
LBB2:
	.loc 1 191 0 discriminator 3
	movsbl	-1(%ebp), %eax
	movl	12(%ebp), %edx
	movb	(%edx,%eax), %al
	movzbl	%al, %edx
	movsbl	-1(%ebp), %eax
	movl	16(%ebp), %ecx
	movb	(%ecx,%eax), %al
	movzbl	%al, %eax
	addl	%eax, %edx
	movl	-4(%ebp), %eax
	addl	%edx, %eax
	movw	%ax, -6(%ebp)
	.loc 1 192 0 discriminator 3
	movsbl	-1(%ebp), %edx
	movw	-6(%ebp), %ax
	movb	%al, %cl
	movl	8(%ebp), %eax
	movb	%cl, (%eax,%edx)
	.loc 1 193 0 discriminator 3
	movw	-6(%ebp), %ax
	movb	$0, %al
	movw	%ax, -4(%ebp)
LBE2:
	.loc 1 189 0 discriminator 3
	movb	-1(%ebp), %al
	decl	%eax
	movb	%al, -1(%ebp)
L20:
	.loc 1 189 0 is_stmt 0 discriminator 1
	cmpb	$0, -1(%ebp)
	jns	L21
	.loc 1 195 0 is_stmt 1
	leave
	.cfi_restore 5
	.cfi_def_cfa 4, 4
	ret
	.cfi_endproc
LFE6:
	.globl	_INT_SUB
	.def	_INT_SUB;	.scl	2;	.type	32;	.endef
_INT_SUB:
LFB7:
	.loc 1 197 0
	.cfi_startproc
	pushl	%ebp
	.cfi_def_cfa_offset 8
	.cfi_offset 5, -8
	movl	%esp, %ebp
	.cfi_def_cfa_register 5
	subl	$16, %esp
	.loc 1 199 0
	movw	$0, -6(%ebp)
	.loc 1 201 0
	movb	$15, -1(%ebp)
	jmp	L23
L26:
LBB3:
	.loc 1 203 0
	movw	$0, -4(%ebp)
	.loc 1 204 0
	movsbl	-1(%ebp), %eax
	movl	12(%ebp), %edx
	movb	(%edx,%eax), %al
	movzbl	%al, %ecx
	movsbl	-1(%ebp), %eax
	movl	16(%ebp), %edx
	movb	(%edx,%eax), %al
	movzbl	%al, %edx
	movzwl	-6(%ebp), %eax
	addl	%edx, %eax
	cmpl	%eax, %ecx
	jl	L24
	.loc 1 206 0
	movsbl	-1(%ebp), %eax
	movl	12(%ebp), %edx
	movb	(%edx,%eax), %al
	movzbl	%al, %edx
	movsbl	-1(%ebp), %eax
	movl	16(%ebp), %ecx
	movb	(%ecx,%eax), %al
	movzbl	%al, %eax
	subl	%eax, %edx
	movl	%edx, %eax
	subw	-6(%ebp), %ax
	movw	%ax, -4(%ebp)
	jmp	L25
L24:
	.loc 1 208 0
	movsbl	-1(%ebp), %eax
	movl	12(%ebp), %edx
	movb	(%edx,%eax), %al
	movzbl	%al, %eax
	leal	256(%eax), %ecx
	movsbl	-1(%ebp), %eax
	movl	16(%ebp), %edx
	movb	(%edx,%eax), %al
	movzbl	%al, %edx
	movzwl	-6(%ebp), %eax
	addl	%edx, %eax
	cmpl	%eax, %ecx
	jb	L25
	.loc 1 210 0
	movsbl	-1(%ebp), %eax
	movl	12(%ebp), %edx
	movb	(%edx,%eax), %al
	movzbl	%al, %edx
	movsbl	-1(%ebp), %eax
	movl	16(%ebp), %ecx
	movb	(%ecx,%eax), %al
	movzbl	%al, %eax
	subl	%eax, %edx
	movl	%edx, %eax
	subw	-6(%ebp), %ax
	addl	$256, %eax
	movw	%ax, -4(%ebp)
L25:
	.loc 1 216 0 discriminator 2
	movsbl	-1(%ebp), %edx
	movl	-4(%ebp), %eax
	movb	%al, %cl
	movl	8(%ebp), %eax
	movb	%cl, (%eax,%edx)
LBE3:
	.loc 1 201 0 discriminator 2
	movb	-1(%ebp), %al
	decl	%eax
	movb	%al, -1(%ebp)
L23:
	.loc 1 201 0 is_stmt 0 discriminator 1
	cmpb	$0, -1(%ebp)
	jns	L26
	.loc 1 218 0 is_stmt 1
	leave
	.cfi_restore 5
	.cfi_def_cfa 4, 4
	ret
	.cfi_endproc
LFE7:
	.globl	_IS_LESS
	.def	_IS_LESS;	.scl	2;	.type	32;	.endef
_IS_LESS:
LFB8:
	.loc 1 220 0
	.cfi_startproc
	pushl	%ebp
	.cfi_def_cfa_offset 8
	.cfi_offset 5, -8
	movl	%esp, %ebp
	.cfi_def_cfa_register 5
	subl	$16, %esp
	.loc 1 222 0
	movb	$0, -2(%ebp)
	.loc 1 223 0
	movb	$0, -1(%ebp)
	jmp	L28
L32:
	.loc 1 225 0
	movzbl	-1(%ebp), %eax
	movl	8(%ebp), %edx
	movb	(%edx,%eax), %cl
	movzbl	-1(%ebp), %eax
	movl	12(%ebp), %edx
	movb	(%edx,%eax), %al
	cmpb	%al, %cl
	jnb	L29
	.loc 1 227 0
	movb	$1, -2(%ebp)
	.loc 1 228 0
	jmp	L30
L29:
	.loc 1 230 0
	movzbl	-1(%ebp), %eax
	movl	8(%ebp), %edx
	movb	(%edx,%eax), %cl
	movzbl	-1(%ebp), %eax
	movl	12(%ebp), %edx
	movb	(%edx,%eax), %al
	cmpb	%al, %cl
	jbe	L31
	.loc 1 232 0
	movb	$0, -2(%ebp)
	.loc 1 233 0
	jmp	L30
L31:
	.loc 1 223 0 discriminator 2
	movb	-1(%ebp), %al
	incl	%eax
	movb	%al, -1(%ebp)
L28:
	.loc 1 223 0 is_stmt 0 discriminator 1
	cmpb	$15, -1(%ebp)
	jbe	L32
L30:
	.loc 1 240 0 is_stmt 1
	movb	-2(%ebp), %al
	.loc 1 241 0
	leave
	.cfi_restore 5
	.cfi_def_cfa 4, 4
	ret
	.cfi_endproc
LFE8:
	.globl	_IS_LESS_OR_EQUAL
	.def	_IS_LESS_OR_EQUAL;	.scl	2;	.type	32;	.endef
_IS_LESS_OR_EQUAL:
LFB9:
	.loc 1 243 0
	.cfi_startproc
	pushl	%ebp
	.cfi_def_cfa_offset 8
	.cfi_offset 5, -8
	movl	%esp, %ebp
	.cfi_def_cfa_register 5
	subl	$24, %esp
	.loc 1 244 0
	movl	12(%ebp), %eax
	movl	%eax, 4(%esp)
	movl	8(%ebp), %eax
	movl	%eax, (%esp)
	call	_IS_LESS
	testb	%al, %al
	jne	L35
	.loc 1 244 0 is_stmt 0 discriminator 2
	movl	12(%ebp), %eax
	movl	%eax, 4(%esp)
	movl	8(%ebp), %eax
	movl	%eax, (%esp)
	call	_IS_EQUAL
	testb	%al, %al
	je	L36
L35:
	.loc 1 244 0 discriminator 3
	movl	$1, %eax
	jmp	L37
L36:
	.loc 1 244 0 discriminator 4
	movl	$0, %eax
L37:
	.loc 1 245 0 is_stmt 1 discriminator 6
	leave
	.cfi_restore 5
	.cfi_def_cfa 4, 4
	ret
	.cfi_endproc
LFE9:
	.globl	_IS_EQUAL
	.def	_IS_EQUAL;	.scl	2;	.type	32;	.endef
_IS_EQUAL:
LFB10:
	.loc 1 247 0
	.cfi_startproc
	pushl	%ebp
	.cfi_def_cfa_offset 8
	.cfi_offset 5, -8
	movl	%esp, %ebp
	.cfi_def_cfa_register 5
	subl	$16, %esp
	.loc 1 249 0
	movb	$1, -2(%ebp)
	.loc 1 250 0
	movb	$0, -1(%ebp)
	jmp	L40
L43:
	.loc 1 252 0
	movzbl	-1(%ebp), %eax
	movl	8(%ebp), %edx
	movb	(%edx,%eax), %cl
	movzbl	-1(%ebp), %eax
	movl	12(%ebp), %edx
	movb	(%edx,%eax), %al
	cmpb	%al, %cl
	je	L41
	.loc 1 254 0
	movb	$0, -2(%ebp)
	.loc 1 255 0
	jmp	L42
L41:
	.loc 1 250 0 discriminator 2
	movb	-1(%ebp), %al
	incl	%eax
	movb	%al, -1(%ebp)
L40:
	.loc 1 250 0 is_stmt 0 discriminator 1
	cmpb	$15, -1(%ebp)
	jbe	L43
L42:
	.loc 1 262 0 is_stmt 1
	movb	-2(%ebp), %al
	.loc 1 263 0
	leave
	.cfi_restore 5
	.cfi_def_cfa 4, 4
	ret
	.cfi_endproc
LFE10:
	.globl	_IS_GREATER
	.def	_IS_GREATER;	.scl	2;	.type	32;	.endef
_IS_GREATER:
LFB11:
	.loc 1 265 0
	.cfi_startproc
	pushl	%ebp
	.cfi_def_cfa_offset 8
	.cfi_offset 5, -8
	movl	%esp, %ebp
	.cfi_def_cfa_register 5
	subl	$16, %esp
	.loc 1 267 0
	movb	$0, -2(%ebp)
	.loc 1 268 0
	movb	$0, -1(%ebp)
	jmp	L46
L50:
	.loc 1 270 0
	movzbl	-1(%ebp), %eax
	movl	8(%ebp), %edx
	movb	(%edx,%eax), %cl
	movzbl	-1(%ebp), %eax
	movl	12(%ebp), %edx
	movb	(%edx,%eax), %al
	cmpb	%al, %cl
	jnb	L47
	.loc 1 272 0
	movb	$0, -2(%ebp)
	.loc 1 273 0
	jmp	L48
L47:
	.loc 1 275 0
	movzbl	-1(%ebp), %eax
	movl	8(%ebp), %edx
	movb	(%edx,%eax), %cl
	movzbl	-1(%ebp), %eax
	movl	12(%ebp), %edx
	movb	(%edx,%eax), %al
	cmpb	%al, %cl
	jbe	L49
	.loc 1 277 0
	movb	$1, -2(%ebp)
	.loc 1 278 0
	jmp	L48
L49:
	.loc 1 268 0 discriminator 2
	movb	-1(%ebp), %al
	incl	%eax
	movb	%al, -1(%ebp)
L46:
	.loc 1 268 0 is_stmt 0 discriminator 1
	cmpb	$15, -1(%ebp)
	jbe	L50
L48:
	.loc 1 285 0 is_stmt 1
	movb	-2(%ebp), %al
	.loc 1 286 0
	leave
	.cfi_restore 5
	.cfi_def_cfa 4, 4
	ret
	.cfi_endproc
LFE11:
	.globl	_IS_GREATER_OR_EQUAL
	.def	_IS_GREATER_OR_EQUAL;	.scl	2;	.type	32;	.endef
_IS_GREATER_OR_EQUAL:
LFB12:
	.loc 1 288 0
	.cfi_startproc
	pushl	%ebp
	.cfi_def_cfa_offset 8
	.cfi_offset 5, -8
	movl	%esp, %ebp
	.cfi_def_cfa_register 5
	subl	$8, %esp
	.loc 1 289 0
	movl	12(%ebp), %eax
	movl	%eax, 4(%esp)
	movl	8(%ebp), %eax
	movl	%eax, (%esp)
	call	_IS_GREATER
	testb	%al, %al
	jne	L53
	.loc 1 289 0 is_stmt 0 discriminator 2
	movl	12(%ebp), %eax
	movl	%eax, 4(%esp)
	movl	8(%ebp), %eax
	movl	%eax, (%esp)
	call	_IS_EQUAL
	testb	%al, %al
	je	L54
L53:
	.loc 1 289 0 discriminator 3
	movl	$1, %eax
	jmp	L55
L54:
	.loc 1 289 0 discriminator 4
	movl	$0, %eax
L55:
	.loc 1 290 0 is_stmt 1 discriminator 6
	leave
	.cfi_restore 5
	.cfi_def_cfa 4, 4
	ret
	.cfi_endproc
LFE12:
	.globl	_ASSIGN
	.def	_ASSIGN;	.scl	2;	.type	32;	.endef
_ASSIGN:
LFB13:
	.loc 1 292 0
	.cfi_startproc
	pushl	%ebp
	.cfi_def_cfa_offset 8
	.cfi_offset 5, -8
	movl	%esp, %ebp
	.cfi_def_cfa_register 5
	subl	$16, %esp
	.loc 1 294 0
	movb	$0, -1(%ebp)
	jmp	L58
L59:
	.loc 1 296 0 discriminator 3
	movzbl	-1(%ebp), %eax
	movzbl	-1(%ebp), %edx
	movl	12(%ebp), %ecx
	movb	(%ecx,%edx), %cl
	movl	8(%ebp), %edx
	movb	%cl, (%edx,%eax)
	.loc 1 294 0 discriminator 3
	movb	-1(%ebp), %al
	incl	%eax
	movb	%al, -1(%ebp)
L58:
	.loc 1 294 0 is_stmt 0 discriminator 1
	cmpb	$15, -1(%ebp)
	jbe	L59
	.loc 1 298 0 is_stmt 1
	leave
	.cfi_restore 5
	.cfi_def_cfa 4, 4
	ret
	.cfi_endproc
LFE13:
	.globl	_ASSIGN_NULL
	.def	_ASSIGN_NULL;	.scl	2;	.type	32;	.endef
_ASSIGN_NULL:
LFB14:
	.loc 1 300 0
	.cfi_startproc
	pushl	%ebp
	.cfi_def_cfa_offset 8
	.cfi_offset 5, -8
	movl	%esp, %ebp
	.cfi_def_cfa_register 5
	subl	$16, %esp
	.loc 1 302 0
	movb	$0, -1(%ebp)
	jmp	L61
L62:
	.loc 1 304 0 discriminator 3
	movzbl	-1(%ebp), %eax
	movl	8(%ebp), %edx
	movb	$0, (%edx,%eax)
	.loc 1 302 0 discriminator 3
	movb	-1(%ebp), %al
	incl	%eax
	movb	%al, -1(%ebp)
L61:
	.loc 1 302 0 is_stmt 0 discriminator 1
	cmpb	$15, -1(%ebp)
	jbe	L62
	.loc 1 306 0 is_stmt 1
	leave
	.cfi_restore 5
	.cfi_def_cfa 4, 4
	ret
	.cfi_endproc
LFE14:
	.globl	_ASSIGN_UINT32
	.def	_ASSIGN_UINT32;	.scl	2;	.type	32;	.endef
_ASSIGN_UINT32:
LFB15:
	.loc 1 309 0
	.cfi_startproc
	pushl	%ebp
	.cfi_def_cfa_offset 8
	.cfi_offset 5, -8
	movl	%esp, %ebp
	.cfi_def_cfa_register 5
	pushl	%ebx
	subl	$16, %esp
	.cfi_offset 3, -12
	.loc 1 312 0
	movb	$0, -5(%ebp)
	jmp	L64
L65:
	.loc 1 314 0 discriminator 3
	movzbl	-5(%ebp), %eax
	movl	8(%ebp), %edx
	movb	$0, (%edx,%eax)
	.loc 1 312 0 discriminator 3
	movb	-5(%ebp), %al
	incl	%eax
	movb	%al, -5(%ebp)
L64:
	.loc 1 312 0 is_stmt 0 discriminator 1
	cmpb	$15, -5(%ebp)
	jbe	L65
	.loc 1 317 0 is_stmt 1
	movb	$15, -5(%ebp)
	movb	$0, -6(%ebp)
	jmp	L66
L67:
	.loc 1 319 0 discriminator 3
	movzbl	-5(%ebp), %eax
	movzbl	-6(%ebp), %edx
	movl	12(%ebp), %ebx
	movb	%dl, %cl
	shrl	%cl, %ebx
	movl	%ebx, %edx
	movb	%dl, %cl
	movl	8(%ebp), %edx
	movb	%cl, (%edx,%eax)
	.loc 1 317 0 discriminator 3
	movb	-5(%ebp), %al
	decl	%eax
	movb	%al, -5(%ebp)
	movb	-6(%ebp), %al
	incl	%eax
	movb	%al, -6(%ebp)
L66:
	.loc 1 317 0 is_stmt 0 discriminator 1
	cmpb	$11, -5(%ebp)
	ja	L67
	.loc 1 321 0 is_stmt 1
	addl	$16, %esp
	popl	%ebx
	.cfi_restore 3
	popl	%ebp
	.cfi_restore 5
	.cfi_def_cfa 4, 4
	ret
	.cfi_endproc
LFE15:
	.globl	_SHIFT_LEFT
	.def	_SHIFT_LEFT;	.scl	2;	.type	32;	.endef
_SHIFT_LEFT:
LFB16:
	.loc 1 323 0
	.cfi_startproc
	pushl	%ebp
	.cfi_def_cfa_offset 8
	.cfi_offset 5, -8
	movl	%esp, %ebp
	.cfi_def_cfa_register 5
	subl	$60, %esp
	.loc 1 328 0
	leal	-24(%ebp), %eax
	movl	%eax, (%esp)
	call	_ASSIGN_NULL
	.loc 1 329 0
	leal	-40(%ebp), %eax
	movl	%eax, (%esp)
	call	_ASSIGN_NULL
	.loc 1 332 0
	cmpl	$24, 12(%ebp)
	jbe	L69
	.loc 1 334 0
	movl	$21, 4(%esp)
	movl	$13, (%esp)
	call	_OS_SET_SW_BUG
	jmp	L68
L69:
	.loc 1 337 0
	movl	$15, -4(%ebp)
	jmp	L71
L72:
	.loc 1 339 0 discriminator 3
	leal	-24(%ebp), %eax
	movl	%eax, (%esp)
	call	_ASSIGN_NULL
	.loc 1 340 0 discriminator 3
	movl	-4(%ebp), %eax
	movl	8(%ebp), %edx
	movb	(%edx,%eax), %al
	movzbl	%al, %edx
	movl	12(%ebp), %eax
	movb	%al, %cl
	sall	%cl, %edx
	movl	%edx, %eax
	movl	%eax, -8(%ebp)
	.loc 1 341 0 discriminator 3
	movl	-4(%ebp), %eax
	movl	-8(%ebp), %edx
	movb	%dl, -24(%ebp,%eax)
	.loc 1 342 0 discriminator 3
	movl	-4(%ebp), %eax
	incl	%eax
	movl	-8(%ebp), %edx
	shrl	$8, %edx
	movb	%dl, -24(%ebp,%eax)
	.loc 1 343 0 discriminator 3
	movl	-4(%ebp), %eax
	addl	$2, %eax
	movl	-8(%ebp), %edx
	shrl	$16, %edx
	movb	%dl, -24(%ebp,%eax)
	.loc 1 344 0 discriminator 3
	movl	-4(%ebp), %eax
	addl	$3, %eax
	movl	-8(%ebp), %edx
	shrl	$24, %edx
	movb	%dl, -24(%ebp,%eax)
	.loc 1 345 0 discriminator 3
	leal	-24(%ebp), %eax
	movl	%eax, 8(%esp)
	leal	-40(%ebp), %eax
	movl	%eax, 4(%esp)
	leal	-40(%ebp), %eax
	movl	%eax, (%esp)
	call	_INT_ADD
	.loc 1 337 0 discriminator 3
	decl	-4(%ebp)
L71:
	.loc 1 337 0 is_stmt 0 discriminator 1
	cmpl	$0, -4(%ebp)
	jns	L72
	.loc 1 347 0 is_stmt 1
	leal	-40(%ebp), %eax
	movl	%eax, 4(%esp)
	movl	8(%ebp), %eax
	movl	%eax, (%esp)
	call	_ASSIGN
L68:
	.loc 1 348 0
	leave
	.cfi_restore 5
	.cfi_def_cfa 4, 4
	ret
	.cfi_endproc
LFE16:
	.globl	_get_uint32_of_4_uint8
	.def	_get_uint32_of_4_uint8;	.scl	2;	.type	32;	.endef
_get_uint32_of_4_uint8:
LFB17:
	.loc 1 351 0
	.cfi_startproc
	pushl	%ebp
	.cfi_def_cfa_offset 8
	.cfi_offset 5, -8
	movl	%esp, %ebp
	.cfi_def_cfa_register 5
	subl	$16, %esp
	.loc 1 352 0
	movl	$0, -4(%ebp)
	.loc 1 354 0
	movl	8(%ebp), %eax
	movb	(%eax), %al
	movzbl	%al, %eax
	sall	$24, %eax
	addl	%eax, -4(%ebp)
	.loc 1 355 0
	incl	8(%ebp)
	.loc 1 356 0
	movl	8(%ebp), %eax
	movb	(%eax), %al
	movzbl	%al, %eax
	sall	$16, %eax
	addl	%eax, -4(%ebp)
	.loc 1 357 0
	incl	8(%ebp)
	.loc 1 358 0
	movl	8(%ebp), %eax
	movb	(%eax), %al
	movzbl	%al, %eax
	sall	$8, %eax
	addl	%eax, -4(%ebp)
	.loc 1 359 0
	incl	8(%ebp)
	.loc 1 360 0
	movl	8(%ebp), %eax
	movb	(%eax), %al
	movzbl	%al, %eax
	addl	%eax, -4(%ebp)
	.loc 1 362 0
	movl	-4(%ebp), %eax
	.loc 1 363 0
	leave
	.cfi_restore 5
	.cfi_def_cfa 4, 4
	ret
	.cfi_endproc
LFE17:
	.globl	_set_4_uint8_to_uint32
	.def	_set_4_uint8_to_uint32;	.scl	2;	.type	32;	.endef
_set_4_uint8_to_uint32:
LFB18:
	.loc 1 365 0
	.cfi_startproc
	pushl	%ebp
	.cfi_def_cfa_offset 8
	.cfi_offset 5, -8
	movl	%esp, %ebp
	.cfi_def_cfa_register 5
	.loc 1 366 0
	movl	12(%ebp), %eax
	shrl	$24, %eax
	movb	%al, %dl
	movl	8(%ebp), %eax
	movb	%dl, (%eax)
	.loc 1 367 0
	incl	8(%ebp)
	.loc 1 368 0
	movl	12(%ebp), %eax
	shrl	$16, %eax
	movb	%al, %dl
	movl	8(%ebp), %eax
	movb	%dl, (%eax)
	.loc 1 369 0
	incl	8(%ebp)
	.loc 1 370 0
	movl	12(%ebp), %eax
	shrl	$8, %eax
	movb	%al, %dl
	movl	8(%ebp), %eax
	movb	%dl, (%eax)
	.loc 1 371 0
	incl	8(%ebp)
	.loc 1 372 0
	movl	12(%ebp), %eax
	movb	%al, %dl
	movl	8(%ebp), %eax
	movb	%dl, (%eax)
	.loc 1 373 0
	popl	%ebp
	.cfi_restore 5
	.cfi_def_cfa 4, 4
	ret
	.cfi_endproc
LFE18:
Letext0:
	.file 2 "E:/NeuOrga/Programmieren/c_cpp/github_os/input/src/os_base/../os_base/os_base_types.h"
	.file 3 "E:/NeuOrga/Programmieren/c_cpp/github_os/input/src/os_base/../os_base/os_common.h"
	.file 4 "E:/NeuOrga/Programmieren/c_cpp/github_os/input/src/os_base/../os_base/os_ram.h"