	.file	"os_rte_icc.c"
	.text
Ltext0:
	.globl	_SEND_DATA
	.def	_SEND_DATA;	.scl	2;	.type	32;	.endef
_SEND_DATA:
LFB0:
	.file 1 "E:/NeuOrga/Programmieren/c_cpp/github_os/input/src/os_base/os_rte_icc.c"
	.loc 1 69 0
	.cfi_startproc
	pushl	%ebp
	.cfi_def_cfa_offset 8
	.cfi_offset 5, -8
	movl	%esp, %ebp
	.cfi_def_cfa_register 5
	.loc 1 75 0
	movb	$1, %al
	.loc 1 76 0
	popl	%ebp
	.cfi_restore 5
	.cfi_def_cfa 4, 4
	ret
	.cfi_endproc
LFE0:
	.globl	_SEND_PACKAGE
	.def	_SEND_PACKAGE;	.scl	2;	.type	32;	.endef
_SEND_PACKAGE:
LFB1:
	.loc 1 89 0
	.cfi_startproc
	pushl	%ebp
	.cfi_def_cfa_offset 8
	.cfi_offset 5, -8
	movl	%esp, %ebp
	.cfi_def_cfa_register 5
	.loc 1 95 0
	movb	$1, %al
	.loc 1 96 0
	popl	%ebp
	.cfi_restore 5
	.cfi_def_cfa 4, 4
	ret
	.cfi_endproc
LFE1:
	.globl	_SEND_FRAME
	.def	_SEND_FRAME;	.scl	2;	.type	32;	.endef
_SEND_FRAME:
LFB2:
	.loc 1 119 0
	.cfi_startproc
	pushl	%ebp
	.cfi_def_cfa_offset 8
	.cfi_offset 5, -8
	movl	%esp, %ebp
	.cfi_def_cfa_register 5
	.loc 1 125 0
	movb	$1, %al
	.loc 1 126 0
	popl	%ebp
	.cfi_restore 5
	.cfi_def_cfa 4, 4
	ret
	.cfi_endproc
LFE2:
Letext0:
	.file 2 "E:/NeuOrga/Programmieren/c_cpp/github_os/input/src/os_base/../os_base/os_base_types.h"
	.file 3 "E:/NeuOrga/Programmieren/c_cpp/github_os/input/src/os_base/../os_sim/lld_core.h"