	.file	"os_start_init_mc.c"
	.text
Ltext0:
	.globl	_OS_INIT_MC
	.def	_OS_INIT_MC;	.scl	2;	.type	32;	.endef
_OS_INIT_MC:
LFB0:
	.file 1 "C:/Users/president/Desktop/sbx/input/src/os_base/os_start_init_mc.c"
	.loc 1 6 1
	.cfi_startproc
	pushl	%ebp
	.cfi_def_cfa_offset 8
	.cfi_offset 5, -8
	movl	%esp, %ebp
	.cfi_def_cfa_register 5
	subl	$8, %esp
	.loc 1 16 4
	call	_OS_MMU_SETUP
	.loc 1 17 1
	nop
	leave
	.cfi_restore 5
	.cfi_def_cfa 4, 4
	ret
	.cfi_endproc
LFE0:
Letext0:
	.file 2 "c:/users/president/desktop/sbx/input/src/os_base/os_base_types.h"
	.file 3 "c:/users/president/desktop/sbx/input/src/os_base/os_common.h"
	.file 4 "c:/users/president/desktop/sbx/input/src/os_sim/lld_core.h"
	.file 5 "c:/users/president/desktop/sbx/input/src/os_base/os_task_common.h"
	.file 6 "C:/Users/president/Desktop/sbx/input/src/os_base/os_main.h"
	.file 7 "c:/users/president/desktop/sbx/input/src/os_base/os_ram.h"
	.file 8 "c:/users/president/desktop/sbx/input/src/os_base/os_ram_stack.h"