	.file	"os_task_queue.c"
	.text
Ltext0:
	.globl	_SET_RUNNING_TASK
	.def	_SET_RUNNING_TASK;	.scl	2;	.type	32;	.endef
_SET_RUNNING_TASK:
LFB0:
	.file 1 "E:/NeuOrga/Programmieren/c_cpp/github_os/input/src/os_base/os_task_queue.c"
	.loc 1 34 0
	.cfi_startproc
	pushl	%ebp
	.cfi_def_cfa_offset 8
	.cfi_offset 5, -8
	movl	%esp, %ebp
	.cfi_def_cfa_register 5
	.loc 1 35 0
	cmpl	$0, 8(%ebp)
	je	L1
	.loc 1 37 0
	movl	8(%ebp), %eax
	movb	(%eax), %al
	andl	$1, %eax
	andl	$1, %eax
	movb	%al, %dl
	movb	_RUNNING_TASK, %al
	andl	$-2, %eax
	orl	%edx, %eax
	movb	%al, _RUNNING_TASK
	.loc 1 38 0
	movl	8(%ebp), %eax
	movb	(%eax), %al
	shrb	%al
	andl	$1, %eax
	andl	$1, %eax
	leal	(%eax,%eax), %edx
	movb	_RUNNING_TASK, %al
	andl	$-3, %eax
	orl	%edx, %eax
	movb	%al, _RUNNING_TASK
	.loc 1 39 0
	movl	8(%ebp), %eax
	movb	(%eax), %al
	shrb	$2, %al
	andl	$1, %eax
	andl	$1, %eax
	leal	0(,%eax,4), %edx
	movb	_RUNNING_TASK, %al
	andl	$-5, %eax
	orl	%edx, %eax
	movb	%al, _RUNNING_TASK
	.loc 1 40 0
	movl	8(%ebp), %eax
	movl	(%eax), %eax
	shrl	$3, %eax
	leal	0(,%eax,8), %edx
	movl	_RUNNING_TASK, %eax
	andl	$7, %eax
	orl	%edx, %eax
	movl	%eax, _RUNNING_TASK
	.loc 1 41 0
	movl	8(%ebp), %eax
	movb	4(%eax), %al
	movb	%al, _RUNNING_TASK+4
	.loc 1 42 0
	movl	8(%ebp), %eax
	movb	5(%eax), %al
	movb	%al, _RUNNING_TASK+5
	.loc 1 43 0
	movl	8(%ebp), %eax
	movl	8(%eax), %eax
	movl	%eax, _RUNNING_TASK+8
	.loc 1 44 0
	movl	8(%ebp), %eax
	movl	12(%eax), %eax
	movl	%eax, _RUNNING_TASK+12
	.loc 1 45 0
	movl	8(%ebp), %eax
	movl	16(%eax), %eax
	movl	%eax, _RUNNING_TASK+16
	.loc 1 46 0
	movl	8(%ebp), %eax
	movl	20(%eax), %eax
	movl	%eax, _RUNNING_TASK+20
	.loc 1 47 0
	movl	8(%ebp), %eax
	movl	24(%eax), %eax
	movl	%eax, _RUNNING_TASK+24
	.loc 1 48 0
	movl	8(%ebp), %eax
	movl	28(%eax), %eax
	movl	%eax, _RUNNING_TASK+28
	.loc 1 49 0
	movl	8(%ebp), %eax
	movl	32(%eax), %eax
	movl	%eax, _RUNNING_TASK+32
	.loc 1 50 0
	movl	8(%ebp), %eax
	movb	36(%eax), %al
	movb	%al, _RUNNING_TASK+36
	.loc 1 51 0
	movl	8(%ebp), %eax
	movb	37(%eax), %al
	movb	%al, _RUNNING_TASK+37
	.loc 1 52 0
	movl	8(%ebp), %eax
	movl	44(%eax), %eax
	movl	%eax, _RUNNING_TASK+44
	.loc 1 53 0
	movl	8(%ebp), %eax
	movl	48(%eax), %eax
	movl	%eax, _RUNNING_TASK+48
	.loc 1 54 0
	movl	8(%ebp), %eax
	movl	52(%eax), %eax
	movl	%eax, _RUNNING_TASK+52
	.loc 1 55 0
	movl	8(%ebp), %eax
	movl	56(%eax), %eax
	movl	%eax, _RUNNING_TASK+56
	.loc 1 57 0
	movl	8(%ebp), %eax
	movl	60(%eax), %eax
	movl	%eax, _RUNNING_TASK+60
	.loc 1 58 0
	movl	8(%ebp), %eax
	movl	64(%eax), %eax
	movl	%eax, _RUNNING_TASK+64
	.loc 1 59 0
	movl	8(%ebp), %eax
	movl	68(%eax), %eax
	movl	%eax, _RUNNING_TASK+68
	.loc 1 60 0
	movl	8(%ebp), %eax
	movl	72(%eax), %eax
	movl	%eax, _RUNNING_TASK+72
	.loc 1 77 0
	movl	8(%ebp), %eax
	movl	76(%eax), %eax
	movl	%eax, _RUNNING_TASK+76
	.loc 1 78 0
	movl	8(%ebp), %eax
	movl	80(%eax), %eax
	movl	%eax, _RUNNING_TASK+80
	.loc 1 79 0
	movl	8(%ebp), %eax
	movl	84(%eax), %eax
	movl	%eax, _RUNNING_TASK+84
	.loc 1 80 0
	movl	8(%ebp), %eax
	movl	88(%eax), %eax
	movl	%eax, _RUNNING_TASK+88
	.loc 1 81 0
	movl	8(%ebp), %eax
	movl	92(%eax), %eax
	movl	%eax, _RUNNING_TASK+92
L1:
	.loc 1 83 0
	popl	%ebp
	.cfi_restore 5
	.cfi_def_cfa 4, 4
	ret
	.cfi_endproc
LFE0:
	.globl	_OS_INIT_TASK_QUEUE
	.def	_OS_INIT_TASK_QUEUE;	.scl	2;	.type	32;	.endef
_OS_INIT_TASK_QUEUE:
LFB1:
	.loc 1 87 0
	.cfi_startproc
	pushl	%ebp
	.cfi_def_cfa_offset 8
	.cfi_offset 5, -8
	movl	%esp, %ebp
	.cfi_def_cfa_register 5
	subl	$40, %esp
	.loc 1 88 0
	movb	_bTASK_QUEUE_INITIALIZED, %al
	testb	%al, %al
	jne	L3
LBB2:
	.loc 1 90 0
	movb	$0, -9(%ebp)
	.loc 1 91 0
	jmp	L5
L6:
	.loc 1 95 0
	movzbl	-9(%ebp), %eax
	movl	$0, _pTASK_RUN_QUEUE(,%eax,4)
	.loc 1 96 0
	movzbl	-9(%ebp), %edx
	movl	%edx, %eax
	sall	$2, %eax
	addl	%edx, %eax
	leal	0(,%eax,4), %edx
	addl	%edx, %eax
	sall	$2, %eax
	addl	$_TASK_RUN_QUEUE, %eax
	movl	%eax, (%esp)
	call	_OS_Task_InitTaskEnvironment
	.loc 1 97 0
	movb	-9(%ebp), %al
	incl	%eax
	movb	%al, -9(%ebp)
L5:
	.loc 1 91 0
	cmpb	$4, -9(%ebp)
	jbe	L6
	.loc 1 99 0
	movb	$1, _bTASK_QUEUE_INITIALIZED
L3:
LBE2:
	.loc 1 101 0
	leave
	.cfi_restore 5
	.cfi_def_cfa 4, 4
	ret
	.cfi_endproc
LFE1:
	.globl	_AddToTaskQueue
	.def	_AddToTaskQueue;	.scl	2;	.type	32;	.endef
_AddToTaskQueue:
LFB2:
	.loc 1 103 0
	.cfi_startproc
	pushl	%ebp
	.cfi_def_cfa_offset 8
	.cfi_offset 5, -8
	movl	%esp, %ebp
	.cfi_def_cfa_register 5
	subl	$16, %esp
	.loc 1 104 0
	movb	$0, -1(%ebp)
	.loc 1 105 0
	jmp	L8
L10:
	.loc 1 109 0
	movb	-1(%ebp), %al
	incl	%eax
	movb	%al, -1(%ebp)
L8:
	.loc 1 105 0
	cmpb	$4, -1(%ebp)
	ja	L9
	.loc 1 106 0
	movzbl	-1(%ebp), %edx
	movl	%edx, %eax
	sall	$2, %eax
	addl	%edx, %eax
	leal	0(,%eax,4), %edx
	addl	%edx, %eax
	sall	$2, %eax
	addl	$_TASK_RUN_QUEUE, %eax
	movb	(%eax), %al
	shrb	%al
	andl	$1, %eax
	cmpb	$1, %al
	je	L10
L9:
	.loc 1 112 0
	cmpb	$4, -1(%ebp)
	ja	L11
	.loc 1 112 0 is_stmt 0 discriminator 1
	movzbl	-1(%ebp), %edx
	movl	%edx, %eax
	sall	$2, %eax
	addl	%edx, %eax
	leal	0(,%eax,4), %edx
	addl	%edx, %eax
	sall	$2, %eax
	addl	$_TASK_RUN_QUEUE, %eax
	movb	(%eax), %al
	shrb	%al
	andl	$1, %eax
	testb	%al, %al
	jne	L11
	.loc 1 114 0 is_stmt 1
	movzbl	-1(%ebp), %edx
	movl	8(%ebp), %eax
	movb	(%eax), %al
	andl	$1, %eax
	movb	%al, %cl
	movl	%edx, %eax
	sall	$2, %eax
	addl	%edx, %eax
	leal	0(,%eax,4), %edx
	addl	%edx, %eax
	sall	$2, %eax
	addl	$_TASK_RUN_QUEUE, %eax
	andl	$1, %ecx
	movb	(%eax), %dl
	andl	$-2, %edx
	orl	%ecx, %edx
	movb	%dl, (%eax)
	.loc 1 115 0
	movzbl	-1(%ebp), %edx
	movl	%edx, %eax
	sall	$2, %eax
	addl	%edx, %eax
	leal	0(,%eax,4), %edx
	addl	%edx, %eax
	sall	$2, %eax
	addl	$_TASK_RUN_QUEUE, %eax
	movb	(%eax), %dl
	orl	$2, %edx
	movb	%dl, (%eax)
	.loc 1 116 0
	movzbl	-1(%ebp), %ecx
	movl	8(%ebp), %eax
	movb	(%eax), %al
	shrb	$2, %al
	movb	%al, %dl
	andl	$1, %edx
	movl	%ecx, %eax
	sall	$2, %eax
	addl	%ecx, %eax
	leal	0(,%eax,4), %ecx
	addl	%ecx, %eax
	sall	$2, %eax
	addl	$_TASK_RUN_QUEUE, %eax
	andl	$1, %edx
	leal	0(,%edx,4), %ecx
	movb	(%eax), %dl
	andl	$-5, %edx
	orl	%ecx, %edx
	movb	%dl, (%eax)
	.loc 1 117 0
	movzbl	-1(%ebp), %edx
	movl	8(%ebp), %eax
	movl	(%eax), %eax
	shrl	$3, %eax
	movl	%eax, %ecx
	movl	%edx, %eax
	sall	$2, %eax
	addl	%edx, %eax
	leal	0(,%eax,4), %edx
	addl	%edx, %eax
	sall	$2, %eax
	addl	$_TASK_RUN_QUEUE, %eax
	sall	$3, %ecx
	movl	(%eax), %edx
	andl	$7, %edx
	orl	%ecx, %edx
	movl	%edx, (%eax)
	.loc 1 118 0
	movzbl	-1(%ebp), %ecx
	movl	8(%ebp), %eax
	movb	4(%eax), %dl
	movl	%ecx, %eax
	sall	$2, %eax
	addl	%ecx, %eax
	leal	0(,%eax,4), %ecx
	addl	%ecx, %eax
	sall	$2, %eax
	addl	$_TASK_RUN_QUEUE, %eax
	movb	%dl, 4(%eax)
	.loc 1 119 0
	movzbl	-1(%ebp), %ecx
	movl	8(%ebp), %eax
	movb	5(%eax), %dl
	movl	%ecx, %eax
	sall	$2, %eax
	addl	%ecx, %eax
	leal	0(,%eax,4), %ecx
	addl	%ecx, %eax
	sall	$2, %eax
	addl	$_TASK_RUN_QUEUE, %eax
	movb	%dl, 5(%eax)
	.loc 1 120 0
	movzbl	-1(%ebp), %ecx
	movl	8(%ebp), %eax
	movl	8(%eax), %edx
	movl	%ecx, %eax
	sall	$2, %eax
	addl	%ecx, %eax
	leal	0(,%eax,4), %ecx
	addl	%ecx, %eax
	sall	$2, %eax
	addl	$_TASK_RUN_QUEUE, %eax
	movl	%edx, 8(%eax)
	.loc 1 121 0
	movzbl	-1(%ebp), %ecx
	movl	8(%ebp), %eax
	movl	12(%eax), %edx
	movl	%ecx, %eax
	sall	$2, %eax
	addl	%ecx, %eax
	leal	0(,%eax,4), %ecx
	addl	%ecx, %eax
	sall	$2, %eax
	addl	$_TASK_RUN_QUEUE, %eax
	movl	%edx, 12(%eax)
	.loc 1 122 0
	movzbl	-1(%ebp), %ecx
	movl	8(%ebp), %eax
	movl	16(%eax), %edx
	movl	%ecx, %eax
	sall	$2, %eax
	addl	%ecx, %eax
	leal	0(,%eax,4), %ecx
	addl	%ecx, %eax
	sall	$2, %eax
	addl	$_TASK_RUN_QUEUE+16, %eax
	movl	%edx, (%eax)
	.loc 1 123 0
	movzbl	-1(%ebp), %ecx
	movl	8(%ebp), %eax
	movl	20(%eax), %edx
	movl	%ecx, %eax
	sall	$2, %eax
	addl	%ecx, %eax
	leal	0(,%eax,4), %ecx
	addl	%ecx, %eax
	sall	$2, %eax
	addl	$_TASK_RUN_QUEUE+16, %eax
	movl	%edx, 4(%eax)
	.loc 1 124 0
	movzbl	-1(%ebp), %ecx
	movl	8(%ebp), %eax
	movl	24(%eax), %edx
	movl	%ecx, %eax
	sall	$2, %eax
	addl	%ecx, %eax
	leal	0(,%eax,4), %ecx
	addl	%ecx, %eax
	sall	$2, %eax
	addl	$_TASK_RUN_QUEUE+16, %eax
	movl	%edx, 8(%eax)
	.loc 1 125 0
	movzbl	-1(%ebp), %ecx
	movl	8(%ebp), %eax
	movl	28(%eax), %edx
	movl	%ecx, %eax
	sall	$2, %eax
	addl	%ecx, %eax
	leal	0(,%eax,4), %ecx
	addl	%ecx, %eax
	sall	$2, %eax
	addl	$_TASK_RUN_QUEUE+16, %eax
	movl	%edx, 12(%eax)
	.loc 1 126 0
	movzbl	-1(%ebp), %ecx
	movl	8(%ebp), %eax
	movl	32(%eax), %edx
	movl	%ecx, %eax
	sall	$2, %eax
	addl	%ecx, %eax
	leal	0(,%eax,4), %ecx
	addl	%ecx, %eax
	sall	$2, %eax
	addl	$_TASK_RUN_QUEUE+32, %eax
	movl	%edx, (%eax)
	.loc 1 127 0
	movzbl	-1(%ebp), %ecx
	movl	8(%ebp), %eax
	movb	36(%eax), %dl
	movl	%ecx, %eax
	sall	$2, %eax
	addl	%ecx, %eax
	leal	0(,%eax,4), %ecx
	addl	%ecx, %eax
	sall	$2, %eax
	addl	$_TASK_RUN_QUEUE+32, %eax
	movb	%dl, 4(%eax)
	.loc 1 128 0
	movzbl	-1(%ebp), %ecx
	movl	8(%ebp), %eax
	movb	37(%eax), %dl
	movl	%ecx, %eax
	sall	$2, %eax
	addl	%ecx, %eax
	leal	0(,%eax,4), %ecx
	addl	%ecx, %eax
	sall	$2, %eax
	addl	$_TASK_RUN_QUEUE+32, %eax
	movb	%dl, 5(%eax)
	.loc 1 129 0
	movzbl	-1(%ebp), %ecx
	movl	8(%ebp), %eax
	movl	44(%eax), %edx
	movl	%ecx, %eax
	sall	$2, %eax
	addl	%ecx, %eax
	leal	0(,%eax,4), %ecx
	addl	%ecx, %eax
	sall	$2, %eax
	addl	$_TASK_RUN_QUEUE+32, %eax
	movl	%edx, 12(%eax)
	.loc 1 130 0
	movzbl	-1(%ebp), %ecx
	movl	8(%ebp), %eax
	movl	48(%eax), %edx
	movl	%ecx, %eax
	sall	$2, %eax
	addl	%ecx, %eax
	leal	0(,%eax,4), %ecx
	addl	%ecx, %eax
	sall	$2, %eax
	addl	$_TASK_RUN_QUEUE+48, %eax
	movl	%edx, (%eax)
	.loc 1 131 0
	movzbl	-1(%ebp), %ecx
	movl	8(%ebp), %eax
	movl	52(%eax), %edx
	movl	%ecx, %eax
	sall	$2, %eax
	addl	%ecx, %eax
	leal	0(,%eax,4), %ecx
	addl	%ecx, %eax
	sall	$2, %eax
	addl	$_TASK_RUN_QUEUE+48, %eax
	movl	%edx, 4(%eax)
	.loc 1 132 0
	movzbl	-1(%ebp), %ecx
	movl	8(%ebp), %eax
	movl	56(%eax), %edx
	movl	%ecx, %eax
	sall	$2, %eax
	addl	%ecx, %eax
	leal	0(,%eax,4), %ecx
	addl	%ecx, %eax
	sall	$2, %eax
	addl	$_TASK_RUN_QUEUE+48, %eax
	movl	%edx, 8(%eax)
	.loc 1 134 0
	movzbl	-1(%ebp), %ecx
	movl	8(%ebp), %eax
	movl	60(%eax), %edx
	movl	%ecx, %eax
	sall	$2, %eax
	addl	%ecx, %eax
	leal	0(,%eax,4), %ecx
	addl	%ecx, %eax
	sall	$2, %eax
	addl	$_TASK_RUN_QUEUE+48, %eax
	movl	%edx, 12(%eax)
	.loc 1 135 0
	movzbl	-1(%ebp), %ecx
	movl	8(%ebp), %eax
	movl	64(%eax), %edx
	movl	%ecx, %eax
	sall	$2, %eax
	addl	%ecx, %eax
	leal	0(,%eax,4), %ecx
	addl	%ecx, %eax
	sall	$2, %eax
	addl	$_TASK_RUN_QUEUE+64, %eax
	movl	%edx, (%eax)
	.loc 1 136 0
	movzbl	-1(%ebp), %ecx
	movl	8(%ebp), %eax
	movl	68(%eax), %edx
	movl	%ecx, %eax
	sall	$2, %eax
	addl	%ecx, %eax
	leal	0(,%eax,4), %ecx
	addl	%ecx, %eax
	sall	$2, %eax
	addl	$_TASK_RUN_QUEUE+64, %eax
	movl	%edx, 4(%eax)
	.loc 1 137 0
	movzbl	-1(%ebp), %ecx
	movl	8(%ebp), %eax
	movl	72(%eax), %edx
	movl	%ecx, %eax
	sall	$2, %eax
	addl	%ecx, %eax
	leal	0(,%eax,4), %ecx
	addl	%ecx, %eax
	sall	$2, %eax
	addl	$_TASK_RUN_QUEUE+64, %eax
	movl	%edx, 8(%eax)
	.loc 1 153 0
	movzbl	-1(%ebp), %ecx
	movl	8(%ebp), %eax
	movl	76(%eax), %edx
	movl	%ecx, %eax
	sall	$2, %eax
	addl	%ecx, %eax
	leal	0(,%eax,4), %ecx
	addl	%ecx, %eax
	sall	$2, %eax
	addl	$_TASK_RUN_QUEUE+64, %eax
	movl	%edx, 12(%eax)
	.loc 1 154 0
	movzbl	-1(%ebp), %ecx
	movl	8(%ebp), %eax
	movl	80(%eax), %edx
	movl	%ecx, %eax
	sall	$2, %eax
	addl	%ecx, %eax
	leal	0(,%eax,4), %ecx
	addl	%ecx, %eax
	sall	$2, %eax
	addl	$_TASK_RUN_QUEUE+80, %eax
	movl	%edx, (%eax)
	.loc 1 155 0
	movzbl	-1(%ebp), %ecx
	movl	8(%ebp), %eax
	movl	84(%eax), %edx
	movl	%ecx, %eax
	sall	$2, %eax
	addl	%ecx, %eax
	leal	0(,%eax,4), %ecx
	addl	%ecx, %eax
	sall	$2, %eax
	addl	$_TASK_RUN_QUEUE+80, %eax
	movl	%edx, 4(%eax)
	.loc 1 156 0
	movzbl	-1(%ebp), %ecx
	movl	8(%ebp), %eax
	movl	88(%eax), %edx
	movl	%ecx, %eax
	sall	$2, %eax
	addl	%ecx, %eax
	leal	0(,%eax,4), %ecx
	addl	%ecx, %eax
	sall	$2, %eax
	addl	$_TASK_RUN_QUEUE+80, %eax
	movl	%edx, 8(%eax)
	.loc 1 157 0
	movzbl	-1(%ebp), %ecx
	movl	8(%ebp), %eax
	movl	92(%eax), %edx
	movl	%ecx, %eax
	sall	$2, %eax
	addl	%ecx, %eax
	leal	0(,%eax,4), %ecx
	addl	%ecx, %eax
	sall	$2, %eax
	addl	$_TASK_RUN_QUEUE+80, %eax
	movl	%edx, 12(%eax)
L11:
	.loc 1 159 0
	movzbl	-1(%ebp), %edx
	movl	%edx, %eax
	sall	$2, %eax
	addl	%edx, %eax
	leal	0(,%eax,4), %edx
	addl	%edx, %eax
	sall	$2, %eax
	addl	$_TASK_RUN_QUEUE, %eax
	.loc 1 160 0
	leave
	.cfi_restore 5
	.cfi_def_cfa 4, 4
	ret
	.cfi_endproc
LFE2:
	.globl	_DeleteFromTaskQueue
	.def	_DeleteFromTaskQueue;	.scl	2;	.type	32;	.endef
_DeleteFromTaskQueue:
LFB3:
	.loc 1 162 0
	.cfi_startproc
	pushl	%ebp
	.cfi_def_cfa_offset 8
	.cfi_offset 5, -8
	movl	%esp, %ebp
	.cfi_def_cfa_register 5
	.loc 1 163 0
	movl	8(%ebp), %eax
	movb	(%eax), %dl
	andl	$-2, %edx
	movb	%dl, (%eax)
	.loc 1 164 0
	movl	8(%ebp), %eax
	movb	(%eax), %dl
	andl	$-3, %edx
	movb	%dl, (%eax)
	.loc 1 165 0
	movl	8(%ebp), %eax
	movb	(%eax), %dl
	andl	$-5, %edx
	movb	%dl, (%eax)
	.loc 1 166 0
	movl	8(%ebp), %eax
	movl	(%eax), %edx
	andl	$7, %edx
	movl	%edx, (%eax)
	.loc 1 167 0
	movl	8(%ebp), %eax
	movb	$0, 4(%eax)
	.loc 1 168 0
	movl	8(%ebp), %eax
	movb	$0, 5(%eax)
	.loc 1 169 0
	movl	8(%ebp), %eax
	movl	$0, 8(%eax)
	.loc 1 170 0
	movl	8(%ebp), %eax
	movl	$0, 12(%eax)
	.loc 1 171 0
	movl	8(%ebp), %eax
	movl	$0, 16(%eax)
	.loc 1 172 0
	movl	8(%ebp), %eax
	movl	$0, 20(%eax)
	.loc 1 173 0
	movl	8(%ebp), %eax
	movl	$0, 24(%eax)
	.loc 1 174 0
	movl	8(%ebp), %eax
	movl	$0, 28(%eax)
	.loc 1 175 0
	movl	8(%ebp), %eax
	movl	$0, 32(%eax)
	.loc 1 176 0
	movl	8(%ebp), %eax
	movb	$0, 36(%eax)
	.loc 1 177 0
	movl	8(%ebp), %eax
	movb	$0, 37(%eax)
	.loc 1 178 0
	movl	8(%ebp), %eax
	movl	$0, 44(%eax)
	.loc 1 179 0
	movl	8(%ebp), %eax
	movl	$_task_state_request, 48(%eax)
	.loc 1 180 0
	movl	8(%ebp), %eax
	movl	$0, 52(%eax)
	.loc 1 181 0
	movl	8(%ebp), %eax
	movl	$0, 56(%eax)
	.loc 1 183 0
	movl	8(%ebp), %eax
	movl	$0, 60(%eax)
	.loc 1 184 0
	movl	8(%ebp), %eax
	movl	$0, 64(%eax)
	.loc 1 185 0
	movl	8(%ebp), %eax
	movl	$0, 68(%eax)
	.loc 1 186 0
	movl	8(%ebp), %eax
	movl	$0, 72(%eax)
	.loc 1 204 0
	movl	8(%ebp), %eax
	movl	$0, 76(%eax)
	.loc 1 205 0
	movl	8(%ebp), %eax
	movl	$0, 80(%eax)
	.loc 1 206 0
	movl	8(%ebp), %eax
	movl	$0, 84(%eax)
	.loc 1 207 0
	movl	8(%ebp), %eax
	movl	$0, 88(%eax)
	.loc 1 208 0
	movl	8(%ebp), %eax
	movl	$0, 92(%eax)
	.loc 1 209 0
	popl	%ebp
	.cfi_restore 5
	.cfi_def_cfa 4, 4
	ret
	.cfi_endproc
LFE3:
	.globl	_GetFromTaskQueue
	.def	_GetFromTaskQueue;	.scl	2;	.type	32;	.endef
_GetFromTaskQueue:
LFB4:
	.loc 1 211 0
	.cfi_startproc
	pushl	%ebp
	.cfi_def_cfa_offset 8
	.cfi_offset 5, -8
	movl	%esp, %ebp
	.cfi_def_cfa_register 5
	.loc 1 212 0
	movl	8(%ebp), %eax
	.loc 1 213 0
	popl	%ebp
	.cfi_restore 5
	.cfi_def_cfa 4, 4
	ret
	.cfi_endproc
LFE4:
	.globl	_GetFromLinkList
	.def	_GetFromLinkList;	.scl	2;	.type	32;	.endef
_GetFromLinkList:
LFB5:
	.loc 1 215 0
	.cfi_startproc
	pushl	%ebp
	.cfi_def_cfa_offset 8
	.cfi_offset 5, -8
	movl	%esp, %ebp
	.cfi_def_cfa_register 5
	subl	$4, %esp
	movl	8(%ebp), %eax
	movb	%al, -4(%ebp)
	.loc 1 216 0
	movzbl	-4(%ebp), %eax
	movl	_pTASK_RUN_QUEUE(,%eax,4), %eax
	.loc 1 217 0
	leave
	.cfi_restore 5
	.cfi_def_cfa 4, 4
	ret
	.cfi_endproc
LFE5:
	.globl	_DeleteFromLinkList
	.def	_DeleteFromLinkList;	.scl	2;	.type	32;	.endef
_DeleteFromLinkList:
LFB6:
	.loc 1 220 0
	.cfi_startproc
	pushl	%ebp
	.cfi_def_cfa_offset 8
	.cfi_offset 5, -8
	movl	%esp, %ebp
	.cfi_def_cfa_register 5
	subl	$4, %esp
	movl	8(%ebp), %eax
	movb	%al, -4(%ebp)
	.loc 1 221 0
	movzbl	-4(%ebp), %eax
	movl	$0, _pTASK_RUN_QUEUE(,%eax,4)
	.loc 1 222 0
	leave
	.cfi_restore 5
	.cfi_def_cfa 4, 4
	ret
	.cfi_endproc
LFE6:
	.globl	_AddToLinkList
	.def	_AddToLinkList;	.scl	2;	.type	32;	.endef
_AddToLinkList:
LFB7:
	.loc 1 224 0
	.cfi_startproc
	pushl	%ebp
	.cfi_def_cfa_offset 8
	.cfi_offset 5, -8
	movl	%esp, %ebp
	.cfi_def_cfa_register 5
	subl	$16, %esp
	.loc 1 232 0
	movb	$0, -1(%ebp)
	.loc 1 233 0
	movb	$0, -2(%ebp)
	.loc 1 234 0
	movl	$0, -8(%ebp)
	.loc 1 236 0
	jmp	L20
L23:
	.loc 1 239 0
	movzbl	-2(%ebp), %eax
	movl	_pTASK_RUN_QUEUE(,%eax,4), %eax
	testl	%eax, %eax
	jne	L21
	.loc 1 241 0
	movzbl	-2(%ebp), %eax
	movl	8(%ebp), %edx
	movl	%edx, _pTASK_RUN_QUEUE(,%eax,4)
	.loc 1 242 0
	movb	$1, -1(%ebp)
	.loc 1 243 0
	movzbl	-2(%ebp), %eax
	sall	$2, %eax
	addl	$_pTASK_RUN_QUEUE, %eax
	movl	%eax, -8(%ebp)
L21:
	.loc 1 245 0
	movb	-2(%ebp), %al
	incl	%eax
	movb	%al, -2(%ebp)
L20:
	.loc 1 236 0
	cmpb	$4, -2(%ebp)
	ja	L22
	.loc 1 237 0
	cmpb	$0, -1(%ebp)
	je	L23
L22:
	.loc 1 247 0
	movl	-8(%ebp), %eax
	.loc 1 248 0
	leave
	.cfi_restore 5
	.cfi_def_cfa 4, 4
	ret
	.cfi_endproc
LFE7:
	.globl	_UpdateLinkList
	.def	_UpdateLinkList;	.scl	2;	.type	32;	.endef
_UpdateLinkList:
LFB8:
	.loc 1 250 0
	.cfi_startproc
	pushl	%ebp
	.cfi_def_cfa_offset 8
	.cfi_offset 5, -8
	movl	%esp, %ebp
	.cfi_def_cfa_register 5
	subl	$16, %esp
	.loc 1 252 0
	movb	$0, -1(%ebp)
	movb	$0, -2(%ebp)
	.loc 1 254 0
	jmp	L26
L31:
	.loc 1 256 0
	movzbl	-1(%ebp), %eax
	movl	_pTASK_RUN_QUEUE(,%eax,4), %eax
	testl	%eax, %eax
	jne	L27
	.loc 1 260 0
	movb	-1(%ebp), %al
	movb	%al, -2(%ebp)
	.loc 1 261 0
	jmp	L28
L30:
	.loc 1 263 0
	movb	-2(%ebp), %al
	incl	%eax
	movb	%al, -2(%ebp)
L28:
	.loc 1 261 0
	cmpb	$4, -2(%ebp)
	ja	L29
	.loc 1 261 0 is_stmt 0 discriminator 1
	movzbl	-2(%ebp), %eax
	movl	_pTASK_RUN_QUEUE(,%eax,4), %eax
	testl	%eax, %eax
	je	L30
L29:
	.loc 1 265 0 is_stmt 1
	cmpb	$4, -2(%ebp)
	ja	L27
	.loc 1 265 0 is_stmt 0 discriminator 1
	movzbl	-2(%ebp), %eax
	movl	_pTASK_RUN_QUEUE(,%eax,4), %eax
	testl	%eax, %eax
	je	L27
	.loc 1 267 0 is_stmt 1
	movzbl	-1(%ebp), %eax
	movzbl	-2(%ebp), %edx
	movl	_pTASK_RUN_QUEUE(,%edx,4), %edx
	movl	%edx, _pTASK_RUN_QUEUE(,%eax,4)
	.loc 1 268 0
	movzbl	-2(%ebp), %eax
	movl	$0, _pTASK_RUN_QUEUE(,%eax,4)
L27:
	.loc 1 271 0
	movb	-1(%ebp), %al
	incl	%eax
	movb	%al, -1(%ebp)
L26:
	.loc 1 254 0
	cmpb	$4, -1(%ebp)
	jbe	L31
	.loc 1 273 0
	leave
	.cfi_restore 5
	.cfi_def_cfa 4, 4
	ret
	.cfi_endproc
LFE8:
	.globl	_GetIdleTask
	.def	_GetIdleTask;	.scl	2;	.type	32;	.endef
_GetIdleTask:
LFB9:
	.loc 1 277 0
	.cfi_startproc
	pushl	%ebp
	.cfi_def_cfa_offset 8
	.cfi_offset 5, -8
	movl	%esp, %ebp
	.cfi_def_cfa_register 5
	.loc 1 278 0
	movl	$_TASK_IDLE_QUEUE, %eax
	.loc 1 279 0
	popl	%ebp
	.cfi_restore 5
	.cfi_def_cfa 4, 4
	ret
	.cfi_endproc
LFE9:
	.globl	_AddToIdleTaskQueue
	.def	_AddToIdleTaskQueue;	.scl	2;	.type	32;	.endef
_AddToIdleTaskQueue:
LFB10:
	.loc 1 281 0
	.cfi_startproc
	pushl	%ebp
	.cfi_def_cfa_offset 8
	.cfi_offset 5, -8
	movl	%esp, %ebp
	.cfi_def_cfa_register 5
	.loc 1 283 0
	movb	_TASK_IDLE_QUEUE, %al
	andl	$4, %eax
	testb	%al, %al
	jne	L34
	.loc 1 285 0
	movl	8(%ebp), %eax
	movb	(%eax), %al
	andl	$1, %eax
	andl	$1, %eax
	movb	%al, %dl
	movb	_TASK_IDLE_QUEUE, %al
	andl	$-2, %eax
	orl	%edx, %eax
	movb	%al, _TASK_IDLE_QUEUE
	.loc 1 286 0
	movl	8(%ebp), %eax
	movb	(%eax), %al
	shrb	%al
	andl	$1, %eax
	andl	$1, %eax
	leal	(%eax,%eax), %edx
	movb	_TASK_IDLE_QUEUE, %al
	andl	$-3, %eax
	orl	%edx, %eax
	movb	%al, _TASK_IDLE_QUEUE
	.loc 1 287 0
	movl	8(%ebp), %eax
	movb	(%eax), %al
	shrb	$2, %al
	andl	$1, %eax
	andl	$1, %eax
	leal	0(,%eax,4), %edx
	movb	_TASK_IDLE_QUEUE, %al
	andl	$-5, %eax
	orl	%edx, %eax
	movb	%al, _TASK_IDLE_QUEUE
	.loc 1 288 0
	movl	8(%ebp), %eax
	movl	(%eax), %eax
	shrl	$3, %eax
	leal	0(,%eax,8), %edx
	movl	_TASK_IDLE_QUEUE, %eax
	andl	$7, %eax
	orl	%edx, %eax
	movl	%eax, _TASK_IDLE_QUEUE
	.loc 1 289 0
	movl	8(%ebp), %eax
	movb	4(%eax), %al
	movb	%al, _TASK_IDLE_QUEUE+4
	.loc 1 290 0
	movl	8(%ebp), %eax
	movb	5(%eax), %al
	movb	%al, _TASK_IDLE_QUEUE+5
	.loc 1 291 0
	movl	8(%ebp), %eax
	movl	8(%eax), %eax
	movl	%eax, _TASK_IDLE_QUEUE+8
	.loc 1 292 0
	movl	8(%ebp), %eax
	movl	12(%eax), %eax
	movl	%eax, _TASK_IDLE_QUEUE+12
	.loc 1 293 0
	movl	8(%ebp), %eax
	movl	16(%eax), %eax
	movl	%eax, _TASK_IDLE_QUEUE+16
	.loc 1 294 0
	movl	8(%ebp), %eax
	movl	20(%eax), %eax
	movl	%eax, _TASK_IDLE_QUEUE+20
	.loc 1 295 0
	movl	8(%ebp), %eax
	movl	24(%eax), %eax
	movl	%eax, _TASK_IDLE_QUEUE+24
	.loc 1 296 0
	movl	8(%ebp), %eax
	movl	28(%eax), %eax
	movl	%eax, _TASK_IDLE_QUEUE+28
	.loc 1 297 0
	movl	8(%ebp), %eax
	movb	36(%eax), %al
	movb	%al, _TASK_IDLE_QUEUE+36
	.loc 1 298 0
	movl	8(%ebp), %eax
	movb	37(%eax), %al
	movb	%al, _TASK_IDLE_QUEUE+37
	.loc 1 299 0
	movl	8(%ebp), %eax
	movl	44(%eax), %eax
	movl	%eax, _TASK_IDLE_QUEUE+44
	.loc 1 300 0
	movl	8(%ebp), %eax
	movl	48(%eax), %eax
	movl	%eax, _TASK_IDLE_QUEUE+48
	.loc 1 301 0
	movl	$2, _TASK_IDLE_QUEUE+52
	.loc 1 302 0
	movl	8(%ebp), %eax
	movl	56(%eax), %eax
	movl	%eax, _TASK_IDLE_QUEUE+56
	.loc 1 304 0
	movl	8(%ebp), %eax
	movl	60(%eax), %eax
	movl	%eax, _TASK_IDLE_QUEUE+60
	.loc 1 305 0
	movl	8(%ebp), %eax
	movl	64(%eax), %eax
	movl	%eax, _TASK_IDLE_QUEUE+64
	.loc 1 306 0
	movl	8(%ebp), %eax
	movl	68(%eax), %eax
	movl	%eax, _TASK_IDLE_QUEUE+68
	.loc 1 307 0
	movl	8(%ebp), %eax
	movl	72(%eax), %eax
	movl	%eax, _TASK_IDLE_QUEUE+72
	.loc 1 325 0
	movl	8(%ebp), %eax
	movl	76(%eax), %eax
	movl	%eax, _TASK_IDLE_QUEUE+76
	.loc 1 326 0
	movl	8(%ebp), %eax
	movl	80(%eax), %eax
	movl	%eax, _TASK_IDLE_QUEUE+80
	.loc 1 327 0
	movl	8(%ebp), %eax
	movl	84(%eax), %eax
	movl	%eax, _TASK_IDLE_QUEUE+84
	.loc 1 328 0
	movl	8(%ebp), %eax
	movl	88(%eax), %eax
	movl	%eax, _TASK_IDLE_QUEUE+88
	.loc 1 329 0
	movl	8(%ebp), %eax
	movl	92(%eax), %eax
	movl	%eax, _TASK_IDLE_QUEUE+92
L34:
	.loc 1 331 0
	popl	%ebp
	.cfi_restore 5
	.cfi_def_cfa 4, 4
	ret
	.cfi_endproc
LFE10:
	.globl	_GetRunningTask
	.def	_GetRunningTask;	.scl	2;	.type	32;	.endef
_GetRunningTask:
LFB11:
	.loc 1 333 0
	.cfi_startproc
	pushl	%ebp
	.cfi_def_cfa_offset 8
	.cfi_offset 5, -8
	movl	%esp, %ebp
	.cfi_def_cfa_register 5
	.loc 1 334 0
	movl	$_RUNNING_TASK, %eax
	.loc 1 335 0
	popl	%ebp
	.cfi_restore 5
	.cfi_def_cfa 4, 4
	ret
	.cfi_endproc
LFE11:
	.globl	_OS_INIT_TASK
	.def	_OS_INIT_TASK;	.scl	2;	.type	32;	.endef
_OS_INIT_TASK:
LFB12:
	.loc 1 349 0
	.cfi_startproc
	pushl	%ebp
	.cfi_def_cfa_offset 8
	.cfi_offset 5, -8
	movl	%esp, %ebp
	.cfi_def_cfa_register 5
	subl	$40, %esp
	movl	16(%ebp), %ecx
	movl	20(%ebp), %edx
	movl	44(%ebp), %eax
	movb	%cl, -12(%ebp)
	movb	%dl, -16(%ebp)
	movb	%al, -20(%ebp)
	.loc 1 351 0
	cmpl	$0, 8(%ebp)
	je	L39
	.loc 1 353 0
	movl	8(%ebp), %eax
	movb	(%eax), %dl
	andl	$-2, %edx
	movb	%dl, (%eax)
	.loc 1 354 0
	movl	8(%ebp), %eax
	movl	12(%ebp), %edx
	movl	%edx, 44(%eax)
	.loc 1 355 0
	movl	8(%ebp), %eax
	movb	-12(%ebp), %dl
	movb	%dl, 4(%eax)
	.loc 1 356 0
	movl	8(%ebp), %eax
	movl	24(%ebp), %edx
	movl	%edx, 56(%eax)
	.loc 1 357 0
	movl	8(%ebp), %eax
	movb	$0, 5(%eax)
	.loc 1 358 0
	movl	8(%ebp), %eax
	movl	$0, 8(%eax)
	.loc 1 359 0
	movl	8(%ebp), %eax
	movl	36(%ebp), %edx
	movl	%edx, 96(%eax)
	.loc 1 360 0
	movl	8(%ebp), %eax
	movb	-20(%ebp), %dl
	movb	%dl, 37(%eax)
	.loc 1 362 0
	movl	8(%ebp), %eax
	movl	$1, 20(%eax)
	.loc 1 363 0
	movl	8(%ebp), %eax
	movl	$100000, 24(%eax)
	.loc 1 365 0
	movb	-16(%ebp), %al
	andl	$1, %eax
	movb	%al, %dl
	movl	8(%ebp), %eax
	andl	$1, %edx
	leal	0(,%edx,4), %ecx
	movb	(%eax), %dl
	andl	$-5, %edx
	orl	%ecx, %edx
	movb	%dl, (%eax)
	.loc 1 366 0
	movl	8(%ebp), %eax
	movl	$_task_state_request, 48(%eax)
	.loc 1 369 0
	cmpb	$0, -16(%ebp)
	je	L40
	.loc 1 371 0
	movl	8(%ebp), %eax
	movl	$3, 52(%eax)
	jmp	L41
L40:
	.loc 1 375 0
	movl	$0, 4(%esp)
	movl	8(%ebp), %eax
	movl	%eax, (%esp)
	call	_task_state_request
	.loc 1 376 0
	movl	$1, 4(%esp)
	movl	8(%ebp), %eax
	movl	%eax, (%esp)
	call	_task_state_request
L41:
	.loc 1 378 0
	cmpl	$200, 32(%ebp)
	jbe	L42
	.loc 1 380 0
	movl	$200, 32(%ebp)
L42:
	.loc 1 384 0
	movl	8(%ebp), %eax
	movl	28(%ebp), %edx
	movl	%edx, 80(%eax)
	.loc 1 385 0
	movl	8(%ebp), %eax
	movl	28(%ebp), %edx
	movl	%edx, 84(%eax)
	.loc 1 386 0
	movl	32(%ebp), %eax
	leal	-1(%eax), %edx
	movl	28(%ebp), %eax
	addl	%eax, %edx
	movl	8(%ebp), %eax
	movl	%edx, 92(%eax)
	.loc 1 387 0
	movl	8(%ebp), %eax
	movl	32(%ebp), %edx
	movl	%edx, 88(%eax)
	.loc 1 389 0
	movl	8(%ebp), %eax
	movl	92(%eax), %edx
	movl	8(%ebp), %eax
	movl	%edx, 76(%eax)
	jmp	L38
L39:
	.loc 1 393 0
	movl	$9, 4(%esp)
	movl	$2, (%esp)
	call	_OS_SET_SW_BUG
L38:
	.loc 1 395 0
	leave
	.cfi_restore 5
	.cfi_def_cfa 4, 4
	ret
	.cfi_endproc
LFE12:
Letext0:
	.file 2 "E:/NeuOrga/Programmieren/c_cpp/github_os/input/src/os_base/../os_base/os_base_types.h"
	.file 3 "E:/NeuOrga/Programmieren/c_cpp/github_os/input/src/os_base/../os_base/os_common.h"
	.file 4 "E:/NeuOrga/Programmieren/c_cpp/github_os/input/src/os_base/../os_sim/lld_core.h"
	.file 5 "E:/NeuOrga/Programmieren/c_cpp/github_os/input/src/os_base/../os_sim/../os_base/os_task_common.h"
	.file 6 "E:/NeuOrga/Programmieren/c_cpp/github_os/input/src/os_base/os_task_queue.h"
	.file 7 "E:/NeuOrga/Programmieren/c_cpp/github_os/input/src/os_base/../os_base/os_ram.h"