GAS LISTING C:\Users\PRESID~1\AppData\Local\Temp\ccDe376t.s 			page 1


   1              		.file	"os_common.c"
   2              		.text
   3              	Ltext0:
   4              		.globl	_OS_SET_SW_BUG
   6              	_OS_SET_SW_BUG:
   7              	LFB0:
   8              		.file 1 "C:/Users/president/Desktop/sbx/input/src/os_base/os_common.c"
   1:C:/Users/president/Desktop/sbx/input/src/os_base\os_common.c **** #include "os_firstinc.h"
   2:C:/Users/president/Desktop/sbx/input/src/os_base\os_common.c **** #include "os_task_common.h"
   3:C:/Users/president/Desktop/sbx/input/src/os_base\os_common.c **** 
   4:C:/Users/president/Desktop/sbx/input/src/os_base\os_common.c **** void OS_SET_SW_BUG(os_sw_bugs_t bug_nr, os_sw_bugs_function_t task_func_nr)
   5:C:/Users/president/Desktop/sbx/input/src/os_base\os_common.c **** {
   9              		.loc 1 5 1
  10              		.cfi_startproc
  11 0000 55       		pushl	%ebp
  12              		.cfi_def_cfa_offset 8
  13              		.cfi_offset 5, -8
  14 0001 89E5     		movl	%esp, %ebp
  15              		.cfi_def_cfa_register 5
   6:C:/Users/president/Desktop/sbx/input/src/os_base\os_common.c ****    OS_SW_BUG[task_func_nr] = bug_nr;
  16              		.loc 1 6 28
  17 0003 8B450C   		movl	12(%ebp), %eax
  18 0006 8B5508   		movl	8(%ebp), %edx
  19 0009 89148500 		movl	%edx, _OS_SW_BUG(,%eax,4)
  19      000000
   7:C:/Users/president/Desktop/sbx/input/src/os_base\os_common.c **** }
  20              		.loc 1 7 1
  21 0010 90       		nop
  22 0011 5D       		popl	%ebp
  23              		.cfi_restore 5
  24              		.cfi_def_cfa 4, 4
  25 0012 C3       		ret
  26              		.cfi_endproc
  27              	LFE0:
  28              		.globl	_OS_GET_CURRENT_TIME
  30              	_OS_GET_CURRENT_TIME:
  31              	LFB1:
   8:C:/Users/president/Desktop/sbx/input/src/os_base\os_common.c **** 
   9:C:/Users/president/Desktop/sbx/input/src/os_base\os_common.c **** 
  10:C:/Users/president/Desktop/sbx/input/src/os_base\os_common.c **** 
  11:C:/Users/president/Desktop/sbx/input/src/os_base\os_common.c **** void OS_GET_CURRENT_TIME(timebig_t* time)
  12:C:/Users/president/Desktop/sbx/input/src/os_base\os_common.c **** {
  32              		.loc 1 12 1
  33              		.cfi_startproc
  34 0013 55       		pushl	%ebp
  35              		.cfi_def_cfa_offset 8
  36              		.cfi_offset 5, -8
  37 0014 89E5     		movl	%esp, %ebp
  38              		.cfi_def_cfa_register 5
  39 0016 83EC18   		subl	$24, %esp
  13:C:/Users/president/Desktop/sbx/input/src/os_base\os_common.c ****    /* update the current time info */
  14:C:/Users/president/Desktop/sbx/input/src/os_base\os_common.c ****    OS_UpdateCurrentTime();
  40              		.loc 1 14 4
  41 0019 E8160000 		call	_OS_UpdateCurrentTime
  41      00
  15:C:/Users/president/Desktop/sbx/input/src/os_base\os_common.c ****    /* output the time to the caller */
  16:C:/Users/president/Desktop/sbx/input/src/os_base\os_common.c ****    ASSIGN(time, &LOCAL_SYSTEM_TIME);
GAS LISTING C:\Users\PRESID~1\AppData\Local\Temp\ccDe376t.s 			page 2


  42              		.loc 1 16 4
  43 001e C7442404 		movl	$_LOCAL_SYSTEM_TIME, 4(%esp)
  43      00000000 
  44 0026 8B4508   		movl	8(%ebp), %eax
  45 0029 890424   		movl	%eax, (%esp)
  46 002c E8270500 		call	_ASSIGN
  46      00
  17:C:/Users/president/Desktop/sbx/input/src/os_base\os_common.c **** 
  18:C:/Users/president/Desktop/sbx/input/src/os_base\os_common.c **** }
  47              		.loc 1 18 1
  48 0031 90       		nop
  49 0032 C9       		leave
  50              		.cfi_restore 5
  51              		.cfi_def_cfa 4, 4
  52 0033 C3       		ret
  53              		.cfi_endproc
  54              	LFE1:
  55              		.globl	_OS_UpdateCurrentTime
  57              	_OS_UpdateCurrentTime:
  58              	LFB2:
  19:C:/Users/president/Desktop/sbx/input/src/os_base\os_common.c **** void OS_UpdateCurrentTime(void)
  20:C:/Users/president/Desktop/sbx/input/src/os_base\os_common.c **** {
  59              		.loc 1 20 1
  60              		.cfi_startproc
  61 0034 55       		pushl	%ebp
  62              		.cfi_def_cfa_offset 8
  63              		.cfi_offset 5, -8
  64 0035 89E5     		movl	%esp, %ebp
  65              		.cfi_def_cfa_register 5
  66 0037 83EC28   		subl	$40, %esp
  21:C:/Users/president/Desktop/sbx/input/src/os_base\os_common.c ****    /* the only free running counter on STM32F4 is the DWT counter DWT_CYCCNT
  22:C:/Users/president/Desktop/sbx/input/src/os_base\os_common.c ****    The counter will overflow every 25sec -> provide function OS_ClearCurrentTime to reset the value
  23:C:/Users/president/Desktop/sbx/input/src/os_base\os_common.c ****    */
  24:C:/Users/president/Desktop/sbx/input/src/os_base\os_common.c ****    timebig_t tmp_time;
  25:C:/Users/president/Desktop/sbx/input/src/os_base\os_common.c ****    OS_READ_AND_RESET_CURRENT_TIME(&tmp_time);
  67              		.loc 1 25 4
  68 003a 8D45E8   		leal	-24(%ebp), %eax
  69 003d 890424   		movl	%eax, (%esp)
  70 0040 E81E0000 		call	_OS_READ_AND_RESET_CURRENT_TIME
  70      00
  26:C:/Users/president/Desktop/sbx/input/src/os_base\os_common.c **** 
  27:C:/Users/president/Desktop/sbx/input/src/os_base\os_common.c ****    /* increment the global time value by the new increment received by the hardware register */
  28:C:/Users/president/Desktop/sbx/input/src/os_base\os_common.c ****    INT_ADD(&LOCAL_SYSTEM_TIME, &LOCAL_SYSTEM_TIME, &tmp_time);
  71              		.loc 1 28 4
  72 0045 8D45E8   		leal	-24(%ebp), %eax
  73 0048 89442408 		movl	%eax, 8(%esp)
  74 004c C7442404 		movl	$_LOCAL_SYSTEM_TIME, 4(%esp)
  74      00000000 
  75 0054 C7042400 		movl	$_LOCAL_SYSTEM_TIME, (%esp)
  75      000000
  76 005b E83C0200 		call	_INT_ADD
  76      00
  29:C:/Users/president/Desktop/sbx/input/src/os_base\os_common.c **** }
  77              		.loc 1 29 1
  78 0060 90       		nop
  79 0061 C9       		leave
  80              		.cfi_restore 5
GAS LISTING C:\Users\PRESID~1\AppData\Local\Temp\ccDe376t.s 			page 3


  81              		.cfi_def_cfa 4, 4
  82 0062 C3       		ret
  83              		.cfi_endproc
  84              	LFE2:
  85              		.globl	_OS_READ_AND_RESET_CURRENT_TIME
  87              	_OS_READ_AND_RESET_CURRENT_TIME:
  88              	LFB3:
  30:C:/Users/president/Desktop/sbx/input/src/os_base\os_common.c **** 
  31:C:/Users/president/Desktop/sbx/input/src/os_base\os_common.c **** void OS_READ_AND_RESET_CURRENT_TIME(timebig_t* timebig)
  32:C:/Users/president/Desktop/sbx/input/src/os_base\os_common.c **** {
  89              		.loc 1 32 1
  90              		.cfi_startproc
  91 0063 55       		pushl	%ebp
  92              		.cfi_def_cfa_offset 8
  93              		.cfi_offset 5, -8
  94 0064 89E5     		movl	%esp, %ebp
  95              		.cfi_def_cfa_register 5
  96 0066 83EC18   		subl	$24, %esp
  33:C:/Users/president/Desktop/sbx/input/src/os_base\os_common.c **** #if(CFG_PROCESSOR == MCU_CORTEX_M4)
  34:C:/Users/president/Desktop/sbx/input/src/os_base\os_common.c ****    volatile uint32 time = 0u;
  35:C:/Users/president/Desktop/sbx/input/src/os_base\os_common.c **** 
  36:C:/Users/president/Desktop/sbx/input/src/os_base\os_common.c ****    /* unlock the CoreSight (CM4) */
  37:C:/Users/president/Desktop/sbx/input/src/os_base\os_common.c ****    *DWT_LAR = 0xC5ACCE55u;
  38:C:/Users/president/Desktop/sbx/input/src/os_base\os_common.c **** 
  39:C:/Users/president/Desktop/sbx/input/src/os_base\os_common.c ****    /* enable trace/debug block TRCENA */
  40:C:/Users/president/Desktop/sbx/input/src/os_base\os_common.c ****    *SCB_DEMCR |= 0x01000000u;
  41:C:/Users/president/Desktop/sbx/input/src/os_base\os_common.c **** 
  42:C:/Users/president/Desktop/sbx/input/src/os_base\os_common.c ****    /* save the current delta time */
  43:C:/Users/president/Desktop/sbx/input/src/os_base\os_common.c ****    time = *DWT_CYCCNT;
  44:C:/Users/president/Desktop/sbx/input/src/os_base\os_common.c **** 
  45:C:/Users/president/Desktop/sbx/input/src/os_base\os_common.c ****    /* reset the counter to 0 cycle */
  46:C:/Users/president/Desktop/sbx/input/src/os_base\os_common.c ****    *DWT_CYCCNT = 0u;
  47:C:/Users/president/Desktop/sbx/input/src/os_base\os_common.c **** 
  48:C:/Users/president/Desktop/sbx/input/src/os_base\os_common.c ****    /* enable the counter */
  49:C:/Users/president/Desktop/sbx/input/src/os_base\os_common.c ****    *DWT_CTRL |= 1u;
  50:C:/Users/president/Desktop/sbx/input/src/os_base\os_common.c **** 
  51:C:/Users/president/Desktop/sbx/input/src/os_base\os_common.c ****    /* store the read time at the pointer pointer buffer */
  52:C:/Users/president/Desktop/sbx/input/src/os_base\os_common.c ****    ASSIGN_UINT32(timebig, time);
  53:C:/Users/president/Desktop/sbx/input/src/os_base\os_common.c **** #else
  54:C:/Users/president/Desktop/sbx/input/src/os_base\os_common.c ****    ASSIGN_UINT32(timebig, 5u);/* assume a fixed step .... */
  97              		.loc 1 54 4
  98 0069 C7442404 		movl	$5, 4(%esp)
  98      05000000 
  99 0071 8B4508   		movl	8(%ebp), %eax
 100 0074 890424   		movl	%eax, (%esp)
 101 0077 E8330500 		call	_ASSIGN_UINT32
 101      00
  55:C:/Users/president/Desktop/sbx/input/src/os_base\os_common.c **** #endif
  56:C:/Users/president/Desktop/sbx/input/src/os_base\os_common.c **** }
 102              		.loc 1 56 1
 103 007c 90       		nop
 104 007d C9       		leave
 105              		.cfi_restore 5
 106              		.cfi_def_cfa 4, 4
 107 007e C3       		ret
 108              		.cfi_endproc
 109              	LFE3:
GAS LISTING C:\Users\PRESID~1\AppData\Local\Temp\ccDe376t.s 			page 4


 110              		.globl	_INT_DIV
 112              	_INT_DIV:
 113              	LFB4:
  57:C:/Users/president/Desktop/sbx/input/src/os_base\os_common.c **** 
  58:C:/Users/president/Desktop/sbx/input/src/os_base\os_common.c **** void INT_DIV(big_int* Quotient, const big_int* Dividend, const big_int* Divisor)
  59:C:/Users/president/Desktop/sbx/input/src/os_base\os_common.c **** {
 114              		.loc 1 59 1
 115              		.cfi_startproc
 116 007f 55       		pushl	%ebp
 117              		.cfi_def_cfa_offset 8
 118              		.cfi_offset 5, -8
 119 0080 89E5     		movl	%esp, %ebp
 120              		.cfi_def_cfa_register 5
 121 0082 83EC78   		subl	$120, %esp
  60:C:/Users/president/Desktop/sbx/input/src/os_base\os_common.c ****    /*Tag: Big Int*/
  61:C:/Users/president/Desktop/sbx/input/src/os_base\os_common.c ****    /*
  62:C:/Users/president/Desktop/sbx/input/src/os_base\os_common.c ****    example: 
  63:C:/Users/president/Desktop/sbx/input/src/os_base\os_common.c ****    Dividend 0x0456
  64:C:/Users/president/Desktop/sbx/input/src/os_base\os_common.c ****    Divisor  0x32
  65:C:/Users/president/Desktop/sbx/input/src/os_base\os_common.c ****    Quotient 0x0456 / 0x32
  66:C:/Users/president/Desktop/sbx/input/src/os_base\os_common.c ****    
  67:C:/Users/president/Desktop/sbx/input/src/os_base\os_common.c ****    0x0456 : 0x32 = 0x16 R 0x9
  68:C:/Users/president/Desktop/sbx/input/src/os_base\os_common.c ****   -0x032|
  69:C:/Users/president/Desktop/sbx/input/src/os_base\os_common.c ****    -----|
  70:C:/Users/president/Desktop/sbx/input/src/os_base\os_common.c ****     0x136
  71:C:/Users/president/Desktop/sbx/input/src/os_base\os_common.c ****    -0x12C
  72:C:/Users/president/Desktop/sbx/input/src/os_base\os_common.c ****     -----|
  73:C:/Users/president/Desktop/sbx/input/src/os_base\os_common.c ****         9
  74:C:/Users/president/Desktop/sbx/input/src/os_base\os_common.c ****    */
  75:C:/Users/president/Desktop/sbx/input/src/os_base\os_common.c ****    uint32 nibble_shift_left_amount = 0u;
 122              		.loc 1 75 11
 123 0085 C745F400 		movl	$0, -12(%ebp)
 123      000000
  76:C:/Users/president/Desktop/sbx/input/src/os_base\os_common.c ****    big_int local_zero;
  77:C:/Users/president/Desktop/sbx/input/src/os_base\os_common.c ****    big_int tmp_Dividend, tmp_Divisor;
  78:C:/Users/president/Desktop/sbx/input/src/os_base\os_common.c ****    big_int rest;
  79:C:/Users/president/Desktop/sbx/input/src/os_base\os_common.c ****    uint32  local_cnt = 0;
 124              		.loc 1 79 12
 125 008c C745F000 		movl	$0, -16(%ebp)
 125      000000
  80:C:/Users/president/Desktop/sbx/input/src/os_base\os_common.c ****    uint32 one_shifted_nibble; 
  81:C:/Users/president/Desktop/sbx/input/src/os_base\os_common.c ****    uint32 u32_teilergebnis;
  82:C:/Users/president/Desktop/sbx/input/src/os_base\os_common.c ****    big_int teilergebnis;
  83:C:/Users/president/Desktop/sbx/input/src/os_base\os_common.c ****    
  84:C:/Users/president/Desktop/sbx/input/src/os_base\os_common.c ****    ASSIGN_NULL(&local_zero);
 126              		.loc 1 84 4
 127 0093 8D45D8   		leal	-40(%ebp), %eax
 128 0096 890424   		movl	%eax, (%esp)
 129 0099 E8EA0400 		call	_ASSIGN_NULL
 129      00
  85:C:/Users/president/Desktop/sbx/input/src/os_base\os_common.c ****    ASSIGN(&tmp_Dividend, Dividend);
 130              		.loc 1 85 4
 131 009e 8B450C   		movl	12(%ebp), %eax
 132 00a1 89442404 		movl	%eax, 4(%esp)
 133 00a5 8D45C8   		leal	-56(%ebp), %eax
 134 00a8 890424   		movl	%eax, (%esp)
 135 00ab E8A80400 		call	_ASSIGN
GAS LISTING C:\Users\PRESID~1\AppData\Local\Temp\ccDe376t.s 			page 5


 135      00
  86:C:/Users/president/Desktop/sbx/input/src/os_base\os_common.c ****    ASSIGN(&tmp_Divisor, Divisor);
 136              		.loc 1 86 4
 137 00b0 8B4510   		movl	16(%ebp), %eax
 138 00b3 89442404 		movl	%eax, 4(%esp)
 139 00b7 8D45B8   		leal	-72(%ebp), %eax
 140 00ba 890424   		movl	%eax, (%esp)
 141 00bd E8960400 		call	_ASSIGN
 141      00
  87:C:/Users/president/Desktop/sbx/input/src/os_base\os_common.c ****    ASSIGN(&rest, Dividend);
 142              		.loc 1 87 4
 143 00c2 8B450C   		movl	12(%ebp), %eax
 144 00c5 89442404 		movl	%eax, 4(%esp)
 145 00c9 8D45A8   		leal	-88(%ebp), %eax
 146 00cc 890424   		movl	%eax, (%esp)
 147 00cf E8840400 		call	_ASSIGN
 147      00
  88:C:/Users/president/Desktop/sbx/input/src/os_base\os_common.c ****    
  89:C:/Users/president/Desktop/sbx/input/src/os_base\os_common.c ****    /* Case 1: Divisor == 0 */
  90:C:/Users/president/Desktop/sbx/input/src/os_base\os_common.c ****    if(IS_EQUAL(&tmp_Divisor,&local_zero))
 148              		.loc 1 90 7
 149 00d4 8D45D8   		leal	-40(%ebp), %eax
 150 00d7 89442404 		movl	%eax, 4(%esp)
 151 00db 8D45B8   		leal	-72(%ebp), %eax
 152 00de 890424   		movl	%eax, (%esp)
 153 00e1 E8940300 		call	_IS_EQUAL
 153      00
 154              		.loc 1 90 6
 155 00e6 84C0     		testb	%al, %al
 156 00e8 0F84C600 		je	L8
 156      0000
  91:C:/Users/president/Desktop/sbx/input/src/os_base\os_common.c ****    {
  92:C:/Users/president/Desktop/sbx/input/src/os_base\os_common.c ****       /* Error "N.a.N." */     
  93:C:/Users/president/Desktop/sbx/input/src/os_base\os_common.c ****       OS_SET_SW_BUG(E_OS_BUG_DIVISION_BY_ZERO, E_FUNC_INTDIV);
 157              		.loc 1 93 7
 158 00ee C7442404 		movl	$20, 4(%esp)
 158      14000000 
 159 00f6 C704240C 		movl	$12, (%esp)
 159      000000
 160 00fd E8FEFEFF 		call	_OS_SET_SW_BUG
 160      FF
 161 0102 E9D90000 		jmp	L5
 161      00
 162              	L10:
  94:C:/Users/president/Desktop/sbx/input/src/os_base\os_common.c ****       return;      
  95:C:/Users/president/Desktop/sbx/input/src/os_base\os_common.c ****    }      
  96:C:/Users/president/Desktop/sbx/input/src/os_base\os_common.c ****    while(IS_GREATER_OR_EQUAL(&rest, &tmp_Dividend))
  97:C:/Users/president/Desktop/sbx/input/src/os_base\os_common.c ****    {
  98:C:/Users/president/Desktop/sbx/input/src/os_base\os_common.c ****       /* 
  99:C:/Users/president/Desktop/sbx/input/src/os_base\os_common.c ****       Step 1: Divisor um so viele nibble shiften nach links bis der Divisor größer wie der Divide
 100:C:/Users/president/Desktop/sbx/input/src/os_base\os_common.c ****       Step 2: Die Zahl aus Step 1 um 1 verringern = nibble_shift_left_amount
 101:C:/Users/president/Desktop/sbx/input/src/os_base\os_common.c ****       Step 3: Dividend - n*(Divisor << nibble_shift_left_amount ) = Rest (e.g. 0x136)
 102:C:/Users/president/Desktop/sbx/input/src/os_base\os_common.c ****               Dabei n solange vergrößern bis "Rest" kleiner wie Divisor ist  
 103:C:/Users/president/Desktop/sbx/input/src/os_base\os_common.c ****       Step 4: Teilergebnis = n*(1<<nibble_shift_left_amount)           
 104:C:/Users/president/Desktop/sbx/input/src/os_base\os_common.c ****       Step 5: Teilergebnisse addieren.
 105:C:/Users/president/Desktop/sbx/input/src/os_base\os_common.c ****       */
 106:C:/Users/president/Desktop/sbx/input/src/os_base\os_common.c ****       /* Step 1: Divisor um so viele nibble shiften nach links bis der Divisor größer wie der Div
GAS LISTING C:\Users\PRESID~1\AppData\Local\Temp\ccDe376t.s 			page 6


 107:C:/Users/president/Desktop/sbx/input/src/os_base\os_common.c ****       while(IS_LESS_OR_EQUAL(&tmp_Divisor, &tmp_Dividend))
 108:C:/Users/president/Desktop/sbx/input/src/os_base\os_common.c ****       {      
 109:C:/Users/president/Desktop/sbx/input/src/os_base\os_common.c ****          SHIFT_LEFT(&tmp_Divisor, 4u);
 163              		.loc 1 109 10
 164 0107 C7442404 		movl	$4, 4(%esp)
 164      04000000 
 165 010f 8D45B8   		leal	-72(%ebp), %eax
 166 0112 890424   		movl	%eax, (%esp)
 167 0115 E8F10400 		call	_SHIFT_LEFT
 167      00
 110:C:/Users/president/Desktop/sbx/input/src/os_base\os_common.c ****          nibble_shift_left_amount++;
 168              		.loc 1 110 34
 169 011a FF45F4   		incl	-12(%ebp)
 170              	L9:
 107:C:/Users/president/Desktop/sbx/input/src/os_base\os_common.c ****       {      
 171              		.loc 1 107 13
 172 011d 8D45C8   		leal	-56(%ebp), %eax
 173 0120 89442404 		movl	%eax, 4(%esp)
 174 0124 8D45B8   		leal	-72(%ebp), %eax
 175 0127 890424   		movl	%eax, (%esp)
 176 012a E80B0300 		call	_IS_LESS_OR_EQUAL
 176      00
 107:C:/Users/president/Desktop/sbx/input/src/os_base\os_common.c ****       {      
 177              		.loc 1 107 12
 178 012f 84C0     		testb	%al, %al
 179 0131 75D4     		jne	L10
 111:C:/Users/president/Desktop/sbx/input/src/os_base\os_common.c ****       }
 112:C:/Users/president/Desktop/sbx/input/src/os_base\os_common.c ****       /* Divisor is already shifted at this point by nibble_shift_left_amount */
 113:C:/Users/president/Desktop/sbx/input/src/os_base\os_common.c ****       /* Step 3: Dabei n = local_cnt solange vergrößern bis "Rest" kleiner wie Divisor ist */
 114:C:/Users/president/Desktop/sbx/input/src/os_base\os_common.c ****       
 115:C:/Users/president/Desktop/sbx/input/src/os_base\os_common.c ****       local_cnt = 0u;
 180              		.loc 1 115 17
 181 0133 C745F000 		movl	$0, -16(%ebp)
 181      000000
 116:C:/Users/president/Desktop/sbx/input/src/os_base\os_common.c ****       while(IS_LESS_OR_EQUAL(&rest, &tmp_Divisor))
 182              		.loc 1 116 12
 183 013a EB1C     		jmp	L11
 184              	L12:
 117:C:/Users/president/Desktop/sbx/input/src/os_base\os_common.c ****       {
 118:C:/Users/president/Desktop/sbx/input/src/os_base\os_common.c ****          INT_SUB(&rest,&tmp_Dividend,&tmp_Divisor);
 185              		.loc 1 118 10
 186 013c 8D45B8   		leal	-72(%ebp), %eax
 187 013f 89442408 		movl	%eax, 8(%esp)
 188 0143 8D45C8   		leal	-56(%ebp), %eax
 189 0146 89442404 		movl	%eax, 4(%esp)
 190 014a 8D45A8   		leal	-88(%ebp), %eax
 191 014d 890424   		movl	%eax, (%esp)
 192 0150 E8A80100 		call	_INT_SUB
 192      00
 119:C:/Users/president/Desktop/sbx/input/src/os_base\os_common.c ****          local_cnt++;      
 193              		.loc 1 119 19
 194 0155 FF45F0   		incl	-16(%ebp)
 195              	L11:
 116:C:/Users/president/Desktop/sbx/input/src/os_base\os_common.c ****       while(IS_LESS_OR_EQUAL(&rest, &tmp_Divisor))
 196              		.loc 1 116 13
 197 0158 8D45B8   		leal	-72(%ebp), %eax
 198 015b 89442404 		movl	%eax, 4(%esp)
GAS LISTING C:\Users\PRESID~1\AppData\Local\Temp\ccDe376t.s 			page 7


 199 015f 8D45A8   		leal	-88(%ebp), %eax
 200 0162 890424   		movl	%eax, (%esp)
 201 0165 E8D00200 		call	_IS_LESS_OR_EQUAL
 201      00
 116:C:/Users/president/Desktop/sbx/input/src/os_base\os_common.c ****       while(IS_LESS_OR_EQUAL(&rest, &tmp_Divisor))
 202              		.loc 1 116 12
 203 016a 84C0     		testb	%al, %al
 204 016c 75CE     		jne	L12
 120:C:/Users/president/Desktop/sbx/input/src/os_base\os_common.c ****       }
 121:C:/Users/president/Desktop/sbx/input/src/os_base\os_common.c ****       /* Step 4: Teilergebnis = n*(1<<nibble_shift_left_amount)           */
 122:C:/Users/president/Desktop/sbx/input/src/os_base\os_common.c ****       one_shifted_nibble = 1u<<nibble_shift_left_amount;
 205              		.loc 1 122 26
 206 016e 8B45F4   		movl	-12(%ebp), %eax
 207 0171 BA010000 		movl	$1, %edx
 207      00
 208 0176 88C1     		movb	%al, %cl
 209 0178 D3E2     		sall	%cl, %edx
 210 017a 89D0     		movl	%edx, %eax
 211 017c 8945EC   		movl	%eax, -20(%ebp)
 123:C:/Users/president/Desktop/sbx/input/src/os_base\os_common.c ****       u32_teilergebnis = local_cnt * one_shifted_nibble;
 212              		.loc 1 123 24
 213 017f 8B45F0   		movl	-16(%ebp), %eax
 214 0182 0FAF45EC 		imull	-20(%ebp), %eax
 215 0186 8945E8   		movl	%eax, -24(%ebp)
 124:C:/Users/president/Desktop/sbx/input/src/os_base\os_common.c **** 
 125:C:/Users/president/Desktop/sbx/input/src/os_base\os_common.c ****       ASSIGN_UINT32(&teilergebnis,u32_teilergebnis);
 216              		.loc 1 125 7
 217 0189 8B45E8   		movl	-24(%ebp), %eax
 218 018c 89442404 		movl	%eax, 4(%esp)
 219 0190 8D4598   		leal	-104(%ebp), %eax
 220 0193 890424   		movl	%eax, (%esp)
 221 0196 E8140400 		call	_ASSIGN_UINT32
 221      00
 126:C:/Users/president/Desktop/sbx/input/src/os_base\os_common.c ****       
 127:C:/Users/president/Desktop/sbx/input/src/os_base\os_common.c ****       /* Step 5: Teilergebnisse addieren.*/
 128:C:/Users/president/Desktop/sbx/input/src/os_base\os_common.c ****       INT_ADD(&teilergebnis, &teilergebnis, &rest);
 222              		.loc 1 128 7
 223 019b 8D45A8   		leal	-88(%ebp), %eax
 224 019e 89442408 		movl	%eax, 8(%esp)
 225 01a2 8D4598   		leal	-104(%ebp), %eax
 226 01a5 89442404 		movl	%eax, 4(%esp)
 227 01a9 8D4598   		leal	-104(%ebp), %eax
 228 01ac 890424   		movl	%eax, (%esp)
 229 01af E8E80000 		call	_INT_ADD
 229      00
 230              	L8:
  96:C:/Users/president/Desktop/sbx/input/src/os_base\os_common.c ****    {
 231              		.loc 1 96 10
 232 01b4 8D45C8   		leal	-56(%ebp), %eax
 233 01b7 89442404 		movl	%eax, 4(%esp)
 234 01bb 8D45A8   		leal	-88(%ebp), %eax
 235 01be 890424   		movl	%eax, (%esp)
 236 01c1 E8520300 		call	_IS_GREATER_OR_EQUAL
 236      00
  96:C:/Users/president/Desktop/sbx/input/src/os_base\os_common.c ****    {
 237              		.loc 1 96 9
 238 01c6 84C0     		testb	%al, %al
GAS LISTING C:\Users\PRESID~1\AppData\Local\Temp\ccDe376t.s 			page 8


 239 01c8 0F854FFF 		jne	L9
 239      FFFF
 129:C:/Users/president/Desktop/sbx/input/src/os_base\os_common.c ****       
 130:C:/Users/president/Desktop/sbx/input/src/os_base\os_common.c ****             
 131:C:/Users/president/Desktop/sbx/input/src/os_base\os_common.c ****    }   
 132:C:/Users/president/Desktop/sbx/input/src/os_base\os_common.c ****    ASSIGN(Quotient, &teilergebnis);
 240              		.loc 1 132 4
 241 01ce 8D4598   		leal	-104(%ebp), %eax
 242 01d1 89442404 		movl	%eax, 4(%esp)
 243 01d5 8B4508   		movl	8(%ebp), %eax
 244 01d8 890424   		movl	%eax, (%esp)
 245 01db E8780300 		call	_ASSIGN
 245      00
 246              	L5:
 133:C:/Users/president/Desktop/sbx/input/src/os_base\os_common.c **** }
 247              		.loc 1 133 1
 248 01e0 C9       		leave
 249              		.cfi_restore 5
 250              		.cfi_def_cfa 4, 4
 251 01e1 C3       		ret
 252              		.cfi_endproc
 253              	LFE4:
 254              		.globl	_INT_MUL
 256              	_INT_MUL:
 257              	LFB5:
 134:C:/Users/president/Desktop/sbx/input/src/os_base\os_common.c **** 
 135:C:/Users/president/Desktop/sbx/input/src/os_base\os_common.c **** void INT_MUL(big_int* Produkt, const big_int* Faktor1, const big_int* Faktor2)
 136:C:/Users/president/Desktop/sbx/input/src/os_base\os_common.c **** {
 258              		.loc 1 136 1
 259              		.cfi_startproc
 260 01e2 55       		pushl	%ebp
 261              		.cfi_def_cfa_offset 8
 262              		.cfi_offset 5, -8
 263 01e3 89E5     		movl	%esp, %ebp
 264              		.cfi_def_cfa_register 5
 265 01e5 83EC48   		subl	$72, %esp
 137:C:/Users/president/Desktop/sbx/input/src/os_base\os_common.c ****    /*Tag: Big Int*/
 138:C:/Users/president/Desktop/sbx/input/src/os_base\os_common.c ****    /*
 139:C:/Users/president/Desktop/sbx/input/src/os_base\os_common.c ****    example: 
 140:C:/Users/president/Desktop/sbx/input/src/os_base\os_common.c ****    Faktor1 0x0456
 141:C:/Users/president/Desktop/sbx/input/src/os_base\os_common.c ****    Faktor2 0x0321
 142:C:/Users/president/Desktop/sbx/input/src/os_base\os_common.c ****    Produkt 0x0456 * 0x0321
 143:C:/Users/president/Desktop/sbx/input/src/os_base\os_common.c ****    
 144:C:/Users/president/Desktop/sbx/input/src/os_base\os_common.c ****    
 145:C:/Users/president/Desktop/sbx/input/src/os_base\os_common.c ****    */
 146:C:/Users/president/Desktop/sbx/input/src/os_base\os_common.c ****    big_int result, local_tmp_bigInt;
 147:C:/Users/president/Desktop/sbx/input/src/os_base\os_common.c ****    sint32 pos1, pos2;
 148:C:/Users/president/Desktop/sbx/input/src/os_base\os_common.c ****    uint16 local_tmp16;
 149:C:/Users/president/Desktop/sbx/input/src/os_base\os_common.c ****    
 150:C:/Users/president/Desktop/sbx/input/src/os_base\os_common.c ****    ASSIGN_NULL(&local_tmp_bigInt);
 266              		.loc 1 150 4
 267 01e8 8D45CE   		leal	-50(%ebp), %eax
 268 01eb 890424   		movl	%eax, (%esp)
 269 01ee E8950300 		call	_ASSIGN_NULL
 269      00
 151:C:/Users/president/Desktop/sbx/input/src/os_base\os_common.c ****    ASSIGN_NULL(&result);
 270              		.loc 1 151 4
GAS LISTING C:\Users\PRESID~1\AppData\Local\Temp\ccDe376t.s 			page 9


 271 01f3 8D45DE   		leal	-34(%ebp), %eax
 272 01f6 890424   		movl	%eax, (%esp)
 273 01f9 E88A0300 		call	_ASSIGN_NULL
 273      00
 152:C:/Users/president/Desktop/sbx/input/src/os_base\os_common.c ****    
 153:C:/Users/president/Desktop/sbx/input/src/os_base\os_common.c ****    /* 
 154:C:/Users/president/Desktop/sbx/input/src/os_base\os_common.c ****    0x0456 * 0x0321
 155:C:/Users/president/Desktop/sbx/input/src/os_base\os_common.c ****    => 0x0400 * 0x0300 = 0x04 * 0x03 * 0x100*0x100     = 0xC0000
 156:C:/Users/president/Desktop/sbx/input/src/os_base\os_common.c ****     + 0x0400 * 0x0021 = 0x04 * 0x21 * 0x100*0x1       = 0x8400 
 157:C:/Users/president/Desktop/sbx/input/src/os_base\os_common.c ****     + 0x0056 * 0x0300 = 0x56 * 0x03 * 0x1  *0x100*0x1 = 0x10200
 158:C:/Users/president/Desktop/sbx/input/src/os_base\os_common.c ****     + 0x0056 * 0x0021 = 0x56 * 0x21 * 0x1  *0x1  *0x1 = 0xB16
 159:C:/Users/president/Desktop/sbx/input/src/os_base\os_common.c ****     ----------------------
 160:C:/Users/president/Desktop/sbx/input/src/os_base\os_common.c ****     => Summe = 0xD9116
 161:C:/Users/president/Desktop/sbx/input/src/os_base\os_common.c ****    
 162:C:/Users/president/Desktop/sbx/input/src/os_base\os_common.c ****    Step 1: 
 163:C:/Users/president/Desktop/sbx/input/src/os_base\os_common.c ****    Step 2: 
 164:C:/Users/president/Desktop/sbx/input/src/os_base\os_common.c ****    Step 3: 
 165:C:/Users/president/Desktop/sbx/input/src/os_base\os_common.c ****    Step 4: 
 166:C:/Users/president/Desktop/sbx/input/src/os_base\os_common.c ****    Step 5: 
 167:C:/Users/president/Desktop/sbx/input/src/os_base\os_common.c ****    */
 168:C:/Users/president/Desktop/sbx/input/src/os_base\os_common.c ****    for(pos1 = BIG_INT_SIZE-1; pos1 >= 0; pos1--)
 274              		.loc 1 168 13
 275 01fe C745F40F 		movl	$15, -12(%ebp)
 275      000000
 276              		.loc 1 168 4
 277 0205 EB7A     		jmp	L15
 278              	L18:
 169:C:/Users/president/Desktop/sbx/input/src/os_base\os_common.c ****    {
 170:C:/Users/president/Desktop/sbx/input/src/os_base\os_common.c ****       for(pos2 = BIG_INT_SIZE-1; pos2 >= 0; pos2--)
 279              		.loc 1 170 16
 280 0207 C745F00F 		movl	$15, -16(%ebp)
 280      000000
 281              		.loc 1 170 7
 282 020e EB68     		jmp	L16
 283              	L17:
 171:C:/Users/president/Desktop/sbx/input/src/os_base\os_common.c ****       {
 172:C:/Users/president/Desktop/sbx/input/src/os_base\os_common.c ****          local_tmp16 = ((uint16) *((uint8*)Faktor1+(uint32)pos1)) * ((uint16) *((uint8*)Faktor2+(ui
 284              		.loc 1 172 52 discriminator 3
 285 0210 8B55F4   		movl	-12(%ebp), %edx
 286              		.loc 1 172 51 discriminator 3
 287 0213 8B450C   		movl	12(%ebp), %eax
 288 0216 01D0     		addl	%edx, %eax
 289              		.loc 1 172 34 discriminator 3
 290 0218 8A00     		movb	(%eax), %al
 291 021a 0FB6D0   		movzbl	%al, %edx
 292              		.loc 1 172 97 discriminator 3
 293 021d 8B4DF0   		movl	-16(%ebp), %ecx
 294              		.loc 1 172 96 discriminator 3
 295 0220 8B4510   		movl	16(%ebp), %eax
 296 0223 01C8     		addl	%ecx, %eax
 297              		.loc 1 172 79 discriminator 3
 298 0225 8A00     		movb	(%eax), %al
 299 0227 0FB6C0   		movzbl	%al, %eax
 300              		.loc 1 172 22 discriminator 3
 301 022a 660FAFC2 		imulw	%dx, %ax
 302 022e 668945EE 		movw	%ax, -18(%ebp)
 173:C:/Users/president/Desktop/sbx/input/src/os_base\os_common.c ****          
GAS LISTING C:\Users\PRESID~1\AppData\Local\Temp\ccDe376t.s 			page 10


 174:C:/Users/president/Desktop/sbx/input/src/os_base\os_common.c ****          ASSIGN_UINT32(&local_tmp_bigInt, (uint32) local_tmp16);
 303              		.loc 1 174 10 discriminator 3
 304 0232 0FB745EE 		movzwl	-18(%ebp), %eax
 305 0236 89442404 		movl	%eax, 4(%esp)
 306 023a 8D45CE   		leal	-50(%ebp), %eax
 307 023d 890424   		movl	%eax, (%esp)
 308 0240 E86A0300 		call	_ASSIGN_UINT32
 308      00
 175:C:/Users/president/Desktop/sbx/input/src/os_base\os_common.c ****          
 176:C:/Users/president/Desktop/sbx/input/src/os_base\os_common.c ****          SHIFT_LEFT(&local_tmp_bigInt, pos1+pos2);
 309              		.loc 1 176 44 discriminator 3
 310 0245 8B55F4   		movl	-12(%ebp), %edx
 311 0248 8B45F0   		movl	-16(%ebp), %eax
 312 024b 01D0     		addl	%edx, %eax
 313              		.loc 1 176 10 discriminator 3
 314 024d 89442404 		movl	%eax, 4(%esp)
 315 0251 8D45CE   		leal	-50(%ebp), %eax
 316 0254 890424   		movl	%eax, (%esp)
 317 0257 E8AF0300 		call	_SHIFT_LEFT
 317      00
 177:C:/Users/president/Desktop/sbx/input/src/os_base\os_common.c ****          
 178:C:/Users/president/Desktop/sbx/input/src/os_base\os_common.c ****          INT_ADD(&result, &result, &local_tmp_bigInt);
 318              		.loc 1 178 10 discriminator 3
 319 025c 8D45CE   		leal	-50(%ebp), %eax
 320 025f 89442408 		movl	%eax, 8(%esp)
 321 0263 8D45DE   		leal	-34(%ebp), %eax
 322 0266 89442404 		movl	%eax, 4(%esp)
 323 026a 8D45DE   		leal	-34(%ebp), %eax
 324 026d 890424   		movl	%eax, (%esp)
 325 0270 E8270000 		call	_INT_ADD
 325      00
 170:C:/Users/president/Desktop/sbx/input/src/os_base\os_common.c ****       {
 326              		.loc 1 170 49 discriminator 3
 327 0275 FF4DF0   		decl	-16(%ebp)
 328              	L16:
 170:C:/Users/president/Desktop/sbx/input/src/os_base\os_common.c ****       {
 329              		.loc 1 170 7 discriminator 1
 330 0278 837DF000 		cmpl	$0, -16(%ebp)
 331 027c 7992     		jns	L17
 168:C:/Users/president/Desktop/sbx/input/src/os_base\os_common.c ****    {
 332              		.loc 1 168 46 discriminator 2
 333 027e FF4DF4   		decl	-12(%ebp)
 334              	L15:
 168:C:/Users/president/Desktop/sbx/input/src/os_base\os_common.c ****    {
 335              		.loc 1 168 4 discriminator 1
 336 0281 837DF400 		cmpl	$0, -12(%ebp)
 337 0285 7980     		jns	L18
 179:C:/Users/president/Desktop/sbx/input/src/os_base\os_common.c ****       }
 180:C:/Users/president/Desktop/sbx/input/src/os_base\os_common.c ****    }  
 181:C:/Users/president/Desktop/sbx/input/src/os_base\os_common.c ****    ASSIGN(Produkt, &result);
 338              		.loc 1 181 4
 339 0287 8D45DE   		leal	-34(%ebp), %eax
 340 028a 89442404 		movl	%eax, 4(%esp)
 341 028e 8B4508   		movl	8(%ebp), %eax
 342 0291 890424   		movl	%eax, (%esp)
 343 0294 E8BF0200 		call	_ASSIGN
 343      00
GAS LISTING C:\Users\PRESID~1\AppData\Local\Temp\ccDe376t.s 			page 11


 182:C:/Users/president/Desktop/sbx/input/src/os_base\os_common.c **** }
 344              		.loc 1 182 1
 345 0299 90       		nop
 346 029a C9       		leave
 347              		.cfi_restore 5
 348              		.cfi_def_cfa 4, 4
 349 029b C3       		ret
 350              		.cfi_endproc
 351              	LFE5:
 352              		.globl	_INT_ADD
 354              	_INT_ADD:
 355              	LFB6:
 183:C:/Users/president/Desktop/sbx/input/src/os_base\os_common.c **** 
 184:C:/Users/president/Desktop/sbx/input/src/os_base\os_common.c **** void INT_ADD(big_int* Summe, const big_int* ErsterSummand, const big_int* ZweiterSummand)
 185:C:/Users/president/Desktop/sbx/input/src/os_base\os_common.c **** {
 356              		.loc 1 185 1
 357              		.cfi_startproc
 358 029c 55       		pushl	%ebp
 359              		.cfi_def_cfa_offset 8
 360              		.cfi_offset 5, -8
 361 029d 89E5     		movl	%esp, %ebp
 362              		.cfi_def_cfa_register 5
 363 029f 83EC10   		subl	$16, %esp
 186:C:/Users/president/Desktop/sbx/input/src/os_base\os_common.c ****    sint8 pos;
 187:C:/Users/president/Desktop/sbx/input/src/os_base\os_common.c ****    uint16 carry  = 0u;
 364              		.loc 1 187 11
 365 02a2 66C745FC 		movw	$0, -4(%ebp)
 365      0000
 188:C:/Users/president/Desktop/sbx/input/src/os_base\os_common.c **** 
 189:C:/Users/president/Desktop/sbx/input/src/os_base\os_common.c ****    for(pos = BIG_INT_SIZE-1; pos >= 0; pos--)
 366              		.loc 1 189 12
 367 02a8 C645FF0F 		movb	$15, -1(%ebp)
 368              		.loc 1 189 4
 369 02ac EB46     		jmp	L20
 370              	L21:
 371              	LBB2:
 190:C:/Users/president/Desktop/sbx/input/src/os_base\os_common.c ****    {
 191:C:/Users/president/Desktop/sbx/input/src/os_base\os_common.c ****       uint16 tmp_sum = (uint16)ErsterSummand->number[pos] +(uint16)ZweiterSummand->number[pos] + ca
 372              		.loc 1 191 53 discriminator 3
 373 02ae 0FBE45FF 		movsbl	-1(%ebp), %eax
 374 02b2 8B550C   		movl	12(%ebp), %edx
 375 02b5 8A0402   		movb	(%edx,%eax), %al
 376 02b8 0FB6D0   		movzbl	%al, %edx
 377              		.loc 1 191 90 discriminator 3
 378 02bb 0FBE45FF 		movsbl	-1(%ebp), %eax
 379 02bf 8B4D10   		movl	16(%ebp), %ecx
 380 02c2 8A0401   		movb	(%ecx,%eax), %al
 381 02c5 0FB6C0   		movzbl	%al, %eax
 382              		.loc 1 191 59 discriminator 3
 383 02c8 01C2     		addl	%eax, %edx
 384              		.loc 1 191 14 discriminator 3
 385 02ca 8B45FC   		movl	-4(%ebp), %eax
 386 02cd 01D0     		addl	%edx, %eax
 387 02cf 668945FA 		movw	%ax, -6(%ebp)
 192:C:/Users/president/Desktop/sbx/input/src/os_base\os_common.c ****       Summe->number[pos] = tmp_sum & 0xFFu;
 388              		.loc 1 192 20 discriminator 3
 389 02d3 0FBE55FF 		movsbl	-1(%ebp), %edx
GAS LISTING C:\Users\PRESID~1\AppData\Local\Temp\ccDe376t.s 			page 12


 390              		.loc 1 192 26 discriminator 3
 391 02d7 668B45FA 		movw	-6(%ebp), %ax
 392 02db 88C1     		movb	%al, %cl
 393 02dd 8B4508   		movl	8(%ebp), %eax
 394 02e0 880C10   		movb	%cl, (%eax,%edx)
 193:C:/Users/president/Desktop/sbx/input/src/os_base\os_common.c ****       carry = tmp_sum & 0xFF00u;
 395              		.loc 1 193 13 discriminator 3
 396 02e3 668B45FA 		movw	-6(%ebp), %ax
 397 02e7 B000     		movb	$0, %al
 398 02e9 668945FC 		movw	%ax, -4(%ebp)
 399              	LBE2:
 189:C:/Users/president/Desktop/sbx/input/src/os_base\os_common.c ****    {
 400              		.loc 1 189 43 discriminator 3
 401 02ed 8A45FF   		movb	-1(%ebp), %al
 402 02f0 48       		decl	%eax
 403 02f1 8845FF   		movb	%al, -1(%ebp)
 404              	L20:
 189:C:/Users/president/Desktop/sbx/input/src/os_base\os_common.c ****    {
 405              		.loc 1 189 4 discriminator 1
 406 02f4 807DFF00 		cmpb	$0, -1(%ebp)
 407 02f8 79B4     		jns	L21
 194:C:/Users/president/Desktop/sbx/input/src/os_base\os_common.c ****    }
 195:C:/Users/president/Desktop/sbx/input/src/os_base\os_common.c **** }
 408              		.loc 1 195 1
 409 02fa 90       		nop
 410 02fb C9       		leave
 411              		.cfi_restore 5
 412              		.cfi_def_cfa 4, 4
 413 02fc C3       		ret
 414              		.cfi_endproc
 415              	LFE6:
 416              		.globl	_INT_SUB
 418              	_INT_SUB:
 419              	LFB7:
 196:C:/Users/president/Desktop/sbx/input/src/os_base\os_common.c **** void INT_SUB(big_int* Differenz, const big_int* Minuend, const big_int* Subtrahend)
 197:C:/Users/president/Desktop/sbx/input/src/os_base\os_common.c **** {
 420              		.loc 1 197 1
 421              		.cfi_startproc
 422 02fd 55       		pushl	%ebp
 423              		.cfi_def_cfa_offset 8
 424              		.cfi_offset 5, -8
 425 02fe 89E5     		movl	%esp, %ebp
 426              		.cfi_def_cfa_register 5
 427 0300 83EC10   		subl	$16, %esp
 198:C:/Users/president/Desktop/sbx/input/src/os_base\os_common.c ****    sint8 pos;
 199:C:/Users/president/Desktop/sbx/input/src/os_base\os_common.c ****    uint16 carry  = 0;
 428              		.loc 1 199 11
 429 0303 66C745FA 		movw	$0, -6(%ebp)
 429      0000
 200:C:/Users/president/Desktop/sbx/input/src/os_base\os_common.c **** 
 201:C:/Users/president/Desktop/sbx/input/src/os_base\os_common.c ****    for(pos = BIG_INT_SIZE-1; pos >= 0; pos--)
 430              		.loc 1 201 12
 431 0309 C645FF0F 		movb	$15, -1(%ebp)
 432              		.loc 1 201 4
 433 030d E9BD0000 		jmp	L23
 433      00
 434              	L26:
GAS LISTING C:\Users\PRESID~1\AppData\Local\Temp\ccDe376t.s 			page 13


 435              	LBB3:
 202:C:/Users/president/Desktop/sbx/input/src/os_base\os_common.c ****    {
 203:C:/Users/president/Desktop/sbx/input/src/os_base\os_common.c ****       uint16 tmp_diff = 0u;
 436              		.loc 1 203 14
 437 0312 66C745FC 		movw	$0, -4(%ebp)
 437      0000
 204:C:/Users/president/Desktop/sbx/input/src/os_base\os_common.c ****       if(Minuend->number[pos]  >= (Subtrahend->number[pos] + carry))
 438              		.loc 1 204 25
 439 0318 0FBE45FF 		movsbl	-1(%ebp), %eax
 440 031c 8B550C   		movl	12(%ebp), %edx
 441 031f 8A0402   		movb	(%edx,%eax), %al
 442 0322 0FB6C8   		movzbl	%al, %ecx
 443              		.loc 1 204 54
 444 0325 0FBE45FF 		movsbl	-1(%ebp), %eax
 445 0329 8B5510   		movl	16(%ebp), %edx
 446 032c 8A0402   		movb	(%edx,%eax), %al
 447 032f 0FB6D0   		movzbl	%al, %edx
 448              		.loc 1 204 60
 449 0332 0FB745FA 		movzwl	-6(%ebp), %eax
 450 0336 01D0     		addl	%edx, %eax
 451              		.loc 1 204 9
 452 0338 39C1     		cmpl	%eax, %ecx
 453 033a 7C28     		jl	L24
 205:C:/Users/president/Desktop/sbx/input/src/os_base\os_common.c ****       {
 206:C:/Users/president/Desktop/sbx/input/src/os_base\os_common.c ****          tmp_diff = (uint16)Minuend->number[pos] - (uint16)Subtrahend->number[pos] - carry;
 454              		.loc 1 206 44
 455 033c 0FBE45FF 		movsbl	-1(%ebp), %eax
 456 0340 8B550C   		movl	12(%ebp), %edx
 457 0343 8A0402   		movb	(%edx,%eax), %al
 458 0346 0FB6D0   		movzbl	%al, %edx
 459              		.loc 1 206 78
 460 0349 0FBE45FF 		movsbl	-1(%ebp), %eax
 461 034d 8B4D10   		movl	16(%ebp), %ecx
 462 0350 8A0401   		movb	(%ecx,%eax), %al
 463 0353 0FB6C0   		movzbl	%al, %eax
 464              		.loc 1 206 50
 465 0356 29C2     		subl	%eax, %edx
 466 0358 89D0     		movl	%edx, %eax
 467              		.loc 1 206 19
 468 035a 662B45FA 		subw	-6(%ebp), %ax
 469 035e 668945FC 		movw	%ax, -4(%ebp)
 470 0362 EB55     		jmp	L25
 471              	L24:
 207:C:/Users/president/Desktop/sbx/input/src/os_base\os_common.c ****       }
 208:C:/Users/president/Desktop/sbx/input/src/os_base\os_common.c ****       else if((Minuend->number[pos]+0x100u)  >= (Subtrahend->number[pos] + carry))
 472              		.loc 1 208 31
 473 0364 0FBE45FF 		movsbl	-1(%ebp), %eax
 474 0368 8B550C   		movl	12(%ebp), %edx
 475 036b 8A0402   		movb	(%edx,%eax), %al
 476 036e 0FB6C0   		movzbl	%al, %eax
 477              		.loc 1 208 36
 478 0371 8D880001 		leal	256(%eax), %ecx
 478      0000
 479              		.loc 1 208 68
 480 0377 0FBE45FF 		movsbl	-1(%ebp), %eax
 481 037b 8B5510   		movl	16(%ebp), %edx
 482 037e 8A0402   		movb	(%edx,%eax), %al
GAS LISTING C:\Users\PRESID~1\AppData\Local\Temp\ccDe376t.s 			page 14


 483 0381 0FB6D0   		movzbl	%al, %edx
 484              		.loc 1 208 74
 485 0384 0FB745FA 		movzwl	-6(%ebp), %eax
 486 0388 01D0     		addl	%edx, %eax
 487              		.loc 1 208 14
 488 038a 39C1     		cmpl	%eax, %ecx
 489 038c 722B     		jb	L25
 209:C:/Users/president/Desktop/sbx/input/src/os_base\os_common.c ****       {
 210:C:/Users/president/Desktop/sbx/input/src/os_base\os_common.c ****          tmp_diff = 0x100u+(uint16)Minuend->number[pos] - (uint16)Subtrahend->number[pos] - (uint16
 490              		.loc 1 210 51
 491 038e 0FBE45FF 		movsbl	-1(%ebp), %eax
 492 0392 8B550C   		movl	12(%ebp), %edx
 493 0395 8A0402   		movb	(%edx,%eax), %al
 494 0398 0FB6D0   		movzbl	%al, %edx
 495              		.loc 1 210 85
 496 039b 0FBE45FF 		movsbl	-1(%ebp), %eax
 497 039f 8B4D10   		movl	16(%ebp), %ecx
 498 03a2 8A0401   		movb	(%ecx,%eax), %al
 499 03a5 0FB6C0   		movzbl	%al, %eax
 500              		.loc 1 210 57
 501 03a8 29C2     		subl	%eax, %edx
 502 03aa 89D0     		movl	%edx, %eax
 503              		.loc 1 210 91
 504 03ac 662B45FA 		subw	-6(%ebp), %ax
 505              		.loc 1 210 19
 506 03b0 05000100 		addl	$256, %eax
 506      00
 507 03b5 668945FC 		movw	%ax, -4(%ebp)
 508              	L25:
 211:C:/Users/president/Desktop/sbx/input/src/os_base\os_common.c ****       }
 212:C:/Users/president/Desktop/sbx/input/src/os_base\os_common.c ****       else
 213:C:/Users/president/Desktop/sbx/input/src/os_base\os_common.c ****       {
 214:C:/Users/president/Desktop/sbx/input/src/os_base\os_common.c ****          /* not possible */
 215:C:/Users/president/Desktop/sbx/input/src/os_base\os_common.c ****       }
 216:C:/Users/president/Desktop/sbx/input/src/os_base\os_common.c ****       Differenz->number[pos] = tmp_diff;
 509              		.loc 1 216 24 discriminator 2
 510 03b9 0FBE55FF 		movsbl	-1(%ebp), %edx
 511              		.loc 1 216 30 discriminator 2
 512 03bd 8B45FC   		movl	-4(%ebp), %eax
 513 03c0 88C1     		movb	%al, %cl
 514 03c2 8B4508   		movl	8(%ebp), %eax
 515 03c5 880C10   		movb	%cl, (%eax,%edx)
 516              	LBE3:
 201:C:/Users/president/Desktop/sbx/input/src/os_base\os_common.c ****    {
 517              		.loc 1 201 43 discriminator 2
 518 03c8 8A45FF   		movb	-1(%ebp), %al
 519 03cb 48       		decl	%eax
 520 03cc 8845FF   		movb	%al, -1(%ebp)
 521              	L23:
 201:C:/Users/president/Desktop/sbx/input/src/os_base\os_common.c ****    {
 522              		.loc 1 201 4 discriminator 1
 523 03cf 807DFF00 		cmpb	$0, -1(%ebp)
 524 03d3 0F8939FF 		jns	L26
 524      FFFF
 217:C:/Users/president/Desktop/sbx/input/src/os_base\os_common.c ****    }
 218:C:/Users/president/Desktop/sbx/input/src/os_base\os_common.c **** }
 525              		.loc 1 218 1
GAS LISTING C:\Users\PRESID~1\AppData\Local\Temp\ccDe376t.s 			page 15


 526 03d9 90       		nop
 527 03da C9       		leave
 528              		.cfi_restore 5
 529              		.cfi_def_cfa 4, 4
 530 03db C3       		ret
 531              		.cfi_endproc
 532              	LFE7:
 533              		.globl	_IS_LESS
 535              	_IS_LESS:
 536              	LFB8:
 219:C:/Users/president/Desktop/sbx/input/src/os_base\os_common.c **** boolean_t IS_LESS(const big_int* Operand1, const big_int* Operand2)
 220:C:/Users/president/Desktop/sbx/input/src/os_base\os_common.c **** {
 537              		.loc 1 220 1
 538              		.cfi_startproc
 539 03dc 55       		pushl	%ebp
 540              		.cfi_def_cfa_offset 8
 541              		.cfi_offset 5, -8
 542 03dd 89E5     		movl	%esp, %ebp
 543              		.cfi_def_cfa_register 5
 544 03df 83EC10   		subl	$16, %esp
 221:C:/Users/president/Desktop/sbx/input/src/os_base\os_common.c ****    uint8 pos;
 222:C:/Users/president/Desktop/sbx/input/src/os_base\os_common.c ****    boolean_t is_less = FALSE;/* in case no if was entered, the numbers are equal -> return FALSE */
 545              		.loc 1 222 14
 546 03e2 C645FE00 		movb	$0, -2(%ebp)
 223:C:/Users/president/Desktop/sbx/input/src/os_base\os_common.c ****    for(pos = 0; pos < BIG_INT_SIZE; pos++)
 547              		.loc 1 223 12
 548 03e6 C645FF00 		movb	$0, -1(%ebp)
 549              		.loc 1 223 4
 550 03ea EB43     		jmp	L28
 551              	L32:
 224:C:/Users/president/Desktop/sbx/input/src/os_base\os_common.c ****    {
 225:C:/Users/president/Desktop/sbx/input/src/os_base\os_common.c ****       if(Operand1->number[pos] < Operand2->number[pos])
 552              		.loc 1 225 26
 553 03ec 0FB645FF 		movzbl	-1(%ebp), %eax
 554 03f0 8B5508   		movl	8(%ebp), %edx
 555 03f3 8A0C02   		movb	(%edx,%eax), %cl
 556              		.loc 1 225 50
 557 03f6 0FB645FF 		movzbl	-1(%ebp), %eax
 558 03fa 8B550C   		movl	12(%ebp), %edx
 559 03fd 8A0402   		movb	(%edx,%eax), %al
 560              		.loc 1 225 9
 561 0400 38C1     		cmpb	%al, %cl
 562 0402 7306     		jnb	L29
 226:C:/Users/president/Desktop/sbx/input/src/os_base\os_common.c ****       {
 227:C:/Users/president/Desktop/sbx/input/src/os_base\os_common.c ****          is_less = TRUE;
 563              		.loc 1 227 18
 564 0404 C645FE01 		movb	$1, -2(%ebp)
 228:C:/Users/president/Desktop/sbx/input/src/os_base\os_common.c ****          break;
 565              		.loc 1 228 10
 566 0408 EB2B     		jmp	L30
 567              	L29:
 229:C:/Users/president/Desktop/sbx/input/src/os_base\os_common.c ****       }
 230:C:/Users/president/Desktop/sbx/input/src/os_base\os_common.c ****       else if (Operand1->number[pos] > Operand2->number[pos])
 568              		.loc 1 230 32
 569 040a 0FB645FF 		movzbl	-1(%ebp), %eax
 570 040e 8B5508   		movl	8(%ebp), %edx
 571 0411 8A0C02   		movb	(%edx,%eax), %cl
GAS LISTING C:\Users\PRESID~1\AppData\Local\Temp\ccDe376t.s 			page 16


 572              		.loc 1 230 56
 573 0414 0FB645FF 		movzbl	-1(%ebp), %eax
 574 0418 8B550C   		movl	12(%ebp), %edx
 575 041b 8A0402   		movb	(%edx,%eax), %al
 576              		.loc 1 230 15
 577 041e 38C1     		cmpb	%al, %cl
 578 0420 7606     		jbe	L31
 231:C:/Users/president/Desktop/sbx/input/src/os_base\os_common.c ****       {
 232:C:/Users/president/Desktop/sbx/input/src/os_base\os_common.c ****          is_less = FALSE;
 579              		.loc 1 232 18
 580 0422 C645FE00 		movb	$0, -2(%ebp)
 233:C:/Users/president/Desktop/sbx/input/src/os_base\os_common.c ****          break;
 581              		.loc 1 233 10
 582 0426 EB0D     		jmp	L30
 583              	L31:
 223:C:/Users/president/Desktop/sbx/input/src/os_base\os_common.c ****    {
 584              		.loc 1 223 40 discriminator 2
 585 0428 8A45FF   		movb	-1(%ebp), %al
 586 042b 40       		incl	%eax
 587 042c 8845FF   		movb	%al, -1(%ebp)
 588              	L28:
 223:C:/Users/president/Desktop/sbx/input/src/os_base\os_common.c ****    {
 589              		.loc 1 223 4 discriminator 1
 590 042f 807DFF0F 		cmpb	$15, -1(%ebp)
 591 0433 76B7     		jbe	L32
 592              	L30:
 234:C:/Users/president/Desktop/sbx/input/src/os_base\os_common.c ****       }
 235:C:/Users/president/Desktop/sbx/input/src/os_base\os_common.c ****       else
 236:C:/Users/president/Desktop/sbx/input/src/os_base\os_common.c ****       {
 237:C:/Users/president/Desktop/sbx/input/src/os_base\os_common.c ****          /* don't break, but continue with next position */
 238:C:/Users/president/Desktop/sbx/input/src/os_base\os_common.c ****       }
 239:C:/Users/president/Desktop/sbx/input/src/os_base\os_common.c ****    }
 240:C:/Users/president/Desktop/sbx/input/src/os_base\os_common.c ****    return is_less;
 593              		.loc 1 240 11
 594 0435 8A45FE   		movb	-2(%ebp), %al
 241:C:/Users/president/Desktop/sbx/input/src/os_base\os_common.c **** }
 595              		.loc 1 241 1
 596 0438 C9       		leave
 597              		.cfi_restore 5
 598              		.cfi_def_cfa 4, 4
 599 0439 C3       		ret
 600              		.cfi_endproc
 601              	LFE8:
 602              		.globl	_IS_LESS_OR_EQUAL
 604              	_IS_LESS_OR_EQUAL:
 605              	LFB9:
 242:C:/Users/president/Desktop/sbx/input/src/os_base\os_common.c **** boolean_t IS_LESS_OR_EQUAL(const big_int* Operand1, const big_int* Operand2)
 243:C:/Users/president/Desktop/sbx/input/src/os_base\os_common.c **** {
 606              		.loc 1 243 1
 607              		.cfi_startproc
 608 043a 55       		pushl	%ebp
 609              		.cfi_def_cfa_offset 8
 610              		.cfi_offset 5, -8
 611 043b 89E5     		movl	%esp, %ebp
 612              		.cfi_def_cfa_register 5
 613 043d 83EC18   		subl	$24, %esp
 244:C:/Users/president/Desktop/sbx/input/src/os_base\os_common.c ****    return IS_LESS(Operand1,Operand2) || IS_EQUAL(Operand1,Operand2);
GAS LISTING C:\Users\PRESID~1\AppData\Local\Temp\ccDe376t.s 			page 17


 614              		.loc 1 244 11
 615 0440 8B450C   		movl	12(%ebp), %eax
 616 0443 89442404 		movl	%eax, 4(%esp)
 617 0447 8B4508   		movl	8(%ebp), %eax
 618 044a 890424   		movl	%eax, (%esp)
 619 044d E88AFFFF 		call	_IS_LESS
 619      FF
 620              		.loc 1 244 38
 621 0452 84C0     		testb	%al, %al
 622 0454 7516     		jne	L35
 623              		.loc 1 244 41 discriminator 2
 624 0456 8B450C   		movl	12(%ebp), %eax
 625 0459 89442404 		movl	%eax, 4(%esp)
 626 045d 8B4508   		movl	8(%ebp), %eax
 627 0460 890424   		movl	%eax, (%esp)
 628 0463 E8120000 		call	_IS_EQUAL
 628      00
 629              		.loc 1 244 38 discriminator 2
 630 0468 84C0     		testb	%al, %al
 631 046a 7407     		je	L36
 632              	L35:
 633              		.loc 1 244 38 is_stmt 0 discriminator 3
 634 046c B8010000 		movl	$1, %eax
 634      00
 635 0471 EB05     		jmp	L37
 636              	L36:
 637              		.loc 1 244 38 discriminator 4
 638 0473 B8000000 		movl	$0, %eax
 638      00
 639              	L37:
 245:C:/Users/president/Desktop/sbx/input/src/os_base\os_common.c **** }
 640              		.loc 1 245 1 is_stmt 1 discriminator 6
 641 0478 C9       		leave
 642              		.cfi_restore 5
 643              		.cfi_def_cfa 4, 4
 644 0479 C3       		ret
 645              		.cfi_endproc
 646              	LFE9:
 647              		.globl	_IS_EQUAL
 649              	_IS_EQUAL:
 650              	LFB10:
 246:C:/Users/president/Desktop/sbx/input/src/os_base\os_common.c **** boolean_t IS_EQUAL(const big_int* Operand1, const big_int* Operand2)
 247:C:/Users/president/Desktop/sbx/input/src/os_base\os_common.c **** {
 651              		.loc 1 247 1
 652              		.cfi_startproc
 653 047a 55       		pushl	%ebp
 654              		.cfi_def_cfa_offset 8
 655              		.cfi_offset 5, -8
 656 047b 89E5     		movl	%esp, %ebp
 657              		.cfi_def_cfa_register 5
 658 047d 83EC10   		subl	$16, %esp
 248:C:/Users/president/Desktop/sbx/input/src/os_base\os_common.c ****    uint8 pos;
 249:C:/Users/president/Desktop/sbx/input/src/os_base\os_common.c ****    boolean_t is_equal = TRUE;/* in case no if/elseif) was entered, the numbers are equal -> return 
 659              		.loc 1 249 14
 660 0480 C645FE01 		movb	$1, -2(%ebp)
 250:C:/Users/president/Desktop/sbx/input/src/os_base\os_common.c ****    for(pos = 0u; pos < BIG_INT_SIZE; pos++)
 661              		.loc 1 250 12
GAS LISTING C:\Users\PRESID~1\AppData\Local\Temp\ccDe376t.s 			page 18


 662 0484 C645FF00 		movb	$0, -1(%ebp)
 663              		.loc 1 250 4
 664 0488 EB25     		jmp	L40
 665              	L43:
 251:C:/Users/president/Desktop/sbx/input/src/os_base\os_common.c ****    {
 252:C:/Users/president/Desktop/sbx/input/src/os_base\os_common.c ****       if(Operand1->number[pos] != Operand2->number[pos])
 666              		.loc 1 252 26
 667 048a 0FB645FF 		movzbl	-1(%ebp), %eax
 668 048e 8B5508   		movl	8(%ebp), %edx
 669 0491 8A0C02   		movb	(%edx,%eax), %cl
 670              		.loc 1 252 51
 671 0494 0FB645FF 		movzbl	-1(%ebp), %eax
 672 0498 8B550C   		movl	12(%ebp), %edx
 673 049b 8A0402   		movb	(%edx,%eax), %al
 674              		.loc 1 252 9
 675 049e 38C1     		cmpb	%al, %cl
 676 04a0 7406     		je	L41
 253:C:/Users/president/Desktop/sbx/input/src/os_base\os_common.c ****       {
 254:C:/Users/president/Desktop/sbx/input/src/os_base\os_common.c ****          is_equal = FALSE;
 677              		.loc 1 254 19
 678 04a2 C645FE00 		movb	$0, -2(%ebp)
 255:C:/Users/president/Desktop/sbx/input/src/os_base\os_common.c ****          break;
 679              		.loc 1 255 10
 680 04a6 EB0D     		jmp	L42
 681              	L41:
 250:C:/Users/president/Desktop/sbx/input/src/os_base\os_common.c ****    {
 682              		.loc 1 250 41 discriminator 2
 683 04a8 8A45FF   		movb	-1(%ebp), %al
 684 04ab 40       		incl	%eax
 685 04ac 8845FF   		movb	%al, -1(%ebp)
 686              	L40:
 250:C:/Users/president/Desktop/sbx/input/src/os_base\os_common.c ****    {
 687              		.loc 1 250 4 discriminator 1
 688 04af 807DFF0F 		cmpb	$15, -1(%ebp)
 689 04b3 76D5     		jbe	L43
 690              	L42:
 256:C:/Users/president/Desktop/sbx/input/src/os_base\os_common.c ****       }
 257:C:/Users/president/Desktop/sbx/input/src/os_base\os_common.c ****       else
 258:C:/Users/president/Desktop/sbx/input/src/os_base\os_common.c ****       {
 259:C:/Users/president/Desktop/sbx/input/src/os_base\os_common.c ****          /* don't break, but continue with next position */
 260:C:/Users/president/Desktop/sbx/input/src/os_base\os_common.c ****       }
 261:C:/Users/president/Desktop/sbx/input/src/os_base\os_common.c ****    }
 262:C:/Users/president/Desktop/sbx/input/src/os_base\os_common.c ****    return is_equal;
 691              		.loc 1 262 11
 692 04b5 8A45FE   		movb	-2(%ebp), %al
 263:C:/Users/president/Desktop/sbx/input/src/os_base\os_common.c **** }
 693              		.loc 1 263 1
 694 04b8 C9       		leave
 695              		.cfi_restore 5
 696              		.cfi_def_cfa 4, 4
 697 04b9 C3       		ret
 698              		.cfi_endproc
 699              	LFE10:
 700              		.globl	_IS_GREATER
 702              	_IS_GREATER:
 703              	LFB11:
 264:C:/Users/president/Desktop/sbx/input/src/os_base\os_common.c **** boolean_t IS_GREATER(const big_int* Operand1, const big_int* Operand2)
GAS LISTING C:\Users\PRESID~1\AppData\Local\Temp\ccDe376t.s 			page 19


 265:C:/Users/president/Desktop/sbx/input/src/os_base\os_common.c **** {
 704              		.loc 1 265 1
 705              		.cfi_startproc
 706 04ba 55       		pushl	%ebp
 707              		.cfi_def_cfa_offset 8
 708              		.cfi_offset 5, -8
 709 04bb 89E5     		movl	%esp, %ebp
 710              		.cfi_def_cfa_register 5
 711 04bd 83EC10   		subl	$16, %esp
 266:C:/Users/president/Desktop/sbx/input/src/os_base\os_common.c ****    uint8 pos;
 267:C:/Users/president/Desktop/sbx/input/src/os_base\os_common.c ****    boolean_t is_greater = FALSE;/* in case no if was entered, the numbers are equal -> return FALSE
 712              		.loc 1 267 14
 713 04c0 C645FE00 		movb	$0, -2(%ebp)
 268:C:/Users/president/Desktop/sbx/input/src/os_base\os_common.c ****    for(pos = 0u; pos < BIG_INT_SIZE; pos++)
 714              		.loc 1 268 12
 715 04c4 C645FF00 		movb	$0, -1(%ebp)
 716              		.loc 1 268 4
 717 04c8 EB43     		jmp	L46
 718              	L50:
 269:C:/Users/president/Desktop/sbx/input/src/os_base\os_common.c ****    {
 270:C:/Users/president/Desktop/sbx/input/src/os_base\os_common.c ****       if(Operand1->number[pos] < Operand2->number[pos])
 719              		.loc 1 270 26
 720 04ca 0FB645FF 		movzbl	-1(%ebp), %eax
 721 04ce 8B5508   		movl	8(%ebp), %edx
 722 04d1 8A0C02   		movb	(%edx,%eax), %cl
 723              		.loc 1 270 50
 724 04d4 0FB645FF 		movzbl	-1(%ebp), %eax
 725 04d8 8B550C   		movl	12(%ebp), %edx
 726 04db 8A0402   		movb	(%edx,%eax), %al
 727              		.loc 1 270 9
 728 04de 38C1     		cmpb	%al, %cl
 729 04e0 7306     		jnb	L47
 271:C:/Users/president/Desktop/sbx/input/src/os_base\os_common.c ****       {
 272:C:/Users/president/Desktop/sbx/input/src/os_base\os_common.c ****          is_greater = FALSE;
 730              		.loc 1 272 21
 731 04e2 C645FE00 		movb	$0, -2(%ebp)
 273:C:/Users/president/Desktop/sbx/input/src/os_base\os_common.c ****          break;
 732              		.loc 1 273 10
 733 04e6 EB2B     		jmp	L48
 734              	L47:
 274:C:/Users/president/Desktop/sbx/input/src/os_base\os_common.c ****       }
 275:C:/Users/president/Desktop/sbx/input/src/os_base\os_common.c ****       else if (Operand1->number[pos] > Operand2->number[pos])
 735              		.loc 1 275 32
 736 04e8 0FB645FF 		movzbl	-1(%ebp), %eax
 737 04ec 8B5508   		movl	8(%ebp), %edx
 738 04ef 8A0C02   		movb	(%edx,%eax), %cl
 739              		.loc 1 275 56
 740 04f2 0FB645FF 		movzbl	-1(%ebp), %eax
 741 04f6 8B550C   		movl	12(%ebp), %edx
 742 04f9 8A0402   		movb	(%edx,%eax), %al
 743              		.loc 1 275 15
 744 04fc 38C1     		cmpb	%al, %cl
 745 04fe 7606     		jbe	L49
 276:C:/Users/president/Desktop/sbx/input/src/os_base\os_common.c ****       {
 277:C:/Users/president/Desktop/sbx/input/src/os_base\os_common.c ****          is_greater = TRUE;
 746              		.loc 1 277 21
 747 0500 C645FE01 		movb	$1, -2(%ebp)
GAS LISTING C:\Users\PRESID~1\AppData\Local\Temp\ccDe376t.s 			page 20


 278:C:/Users/president/Desktop/sbx/input/src/os_base\os_common.c ****          break;
 748              		.loc 1 278 10
 749 0504 EB0D     		jmp	L48
 750              	L49:
 268:C:/Users/president/Desktop/sbx/input/src/os_base\os_common.c ****    {
 751              		.loc 1 268 41 discriminator 2
 752 0506 8A45FF   		movb	-1(%ebp), %al
 753 0509 40       		incl	%eax
 754 050a 8845FF   		movb	%al, -1(%ebp)
 755              	L46:
 268:C:/Users/president/Desktop/sbx/input/src/os_base\os_common.c ****    {
 756              		.loc 1 268 4 discriminator 1
 757 050d 807DFF0F 		cmpb	$15, -1(%ebp)
 758 0511 76B7     		jbe	L50
 759              	L48:
 279:C:/Users/president/Desktop/sbx/input/src/os_base\os_common.c ****       }
 280:C:/Users/president/Desktop/sbx/input/src/os_base\os_common.c ****       else
 281:C:/Users/president/Desktop/sbx/input/src/os_base\os_common.c ****       {
 282:C:/Users/president/Desktop/sbx/input/src/os_base\os_common.c ****          /* don't break, but continue with next position */
 283:C:/Users/president/Desktop/sbx/input/src/os_base\os_common.c ****       }
 284:C:/Users/president/Desktop/sbx/input/src/os_base\os_common.c ****    }
 285:C:/Users/president/Desktop/sbx/input/src/os_base\os_common.c ****    return is_greater;
 760              		.loc 1 285 11
 761 0513 8A45FE   		movb	-2(%ebp), %al
 286:C:/Users/president/Desktop/sbx/input/src/os_base\os_common.c **** }
 762              		.loc 1 286 1
 763 0516 C9       		leave
 764              		.cfi_restore 5
 765              		.cfi_def_cfa 4, 4
 766 0517 C3       		ret
 767              		.cfi_endproc
 768              	LFE11:
 769              		.globl	_IS_GREATER_OR_EQUAL
 771              	_IS_GREATER_OR_EQUAL:
 772              	LFB12:
 287:C:/Users/president/Desktop/sbx/input/src/os_base\os_common.c **** boolean_t IS_GREATER_OR_EQUAL(const big_int* Operand1, const big_int* Operand2)
 288:C:/Users/president/Desktop/sbx/input/src/os_base\os_common.c **** {
 773              		.loc 1 288 1
 774              		.cfi_startproc
 775 0518 55       		pushl	%ebp
 776              		.cfi_def_cfa_offset 8
 777              		.cfi_offset 5, -8
 778 0519 89E5     		movl	%esp, %ebp
 779              		.cfi_def_cfa_register 5
 780 051b 83EC08   		subl	$8, %esp
 289:C:/Users/president/Desktop/sbx/input/src/os_base\os_common.c ****    return IS_GREATER(Operand1,Operand2) || IS_EQUAL(Operand1,Operand2);
 781              		.loc 1 289 11
 782 051e 8B450C   		movl	12(%ebp), %eax
 783 0521 89442404 		movl	%eax, 4(%esp)
 784 0525 8B4508   		movl	8(%ebp), %eax
 785 0528 890424   		movl	%eax, (%esp)
 786 052b E88AFFFF 		call	_IS_GREATER
 786      FF
 787              		.loc 1 289 41
 788 0530 84C0     		testb	%al, %al
 789 0532 7516     		jne	L53
 790              		.loc 1 289 44 discriminator 2
GAS LISTING C:\Users\PRESID~1\AppData\Local\Temp\ccDe376t.s 			page 21


 791 0534 8B450C   		movl	12(%ebp), %eax
 792 0537 89442404 		movl	%eax, 4(%esp)
 793 053b 8B4508   		movl	8(%ebp), %eax
 794 053e 890424   		movl	%eax, (%esp)
 795 0541 E834FFFF 		call	_IS_EQUAL
 795      FF
 796              		.loc 1 289 41 discriminator 2
 797 0546 84C0     		testb	%al, %al
 798 0548 7407     		je	L54
 799              	L53:
 800              		.loc 1 289 41 is_stmt 0 discriminator 3
 801 054a B8010000 		movl	$1, %eax
 801      00
 802 054f EB05     		jmp	L55
 803              	L54:
 804              		.loc 1 289 41 discriminator 4
 805 0551 B8000000 		movl	$0, %eax
 805      00
 806              	L55:
 290:C:/Users/president/Desktop/sbx/input/src/os_base\os_common.c **** }
 807              		.loc 1 290 1 is_stmt 1 discriminator 6
 808 0556 C9       		leave
 809              		.cfi_restore 5
 810              		.cfi_def_cfa 4, 4
 811 0557 C3       		ret
 812              		.cfi_endproc
 813              	LFE12:
 814              		.globl	_ASSIGN
 816              	_ASSIGN:
 817              	LFB13:
 291:C:/Users/president/Desktop/sbx/input/src/os_base\os_common.c **** void ASSIGN(big_int* leftOperand, const big_int* rightOperand)
 292:C:/Users/president/Desktop/sbx/input/src/os_base\os_common.c **** {
 818              		.loc 1 292 1
 819              		.cfi_startproc
 820 0558 55       		pushl	%ebp
 821              		.cfi_def_cfa_offset 8
 822              		.cfi_offset 5, -8
 823 0559 89E5     		movl	%esp, %ebp
 824              		.cfi_def_cfa_register 5
 825 055b 83EC10   		subl	$16, %esp
 293:C:/Users/president/Desktop/sbx/input/src/os_base\os_common.c ****    uint8 pos;
 294:C:/Users/president/Desktop/sbx/input/src/os_base\os_common.c ****    for (pos = 0u; pos < BIG_INT_SIZE; pos++)
 826              		.loc 1 294 13
 827 055e C645FF00 		movb	$0, -1(%ebp)
 828              		.loc 1 294 4
 829 0562 EB1B     		jmp	L58
 830              	L59:
 295:C:/Users/president/Desktop/sbx/input/src/os_base\os_common.c ****    {
 296:C:/Users/president/Desktop/sbx/input/src/os_base\os_common.c ****       leftOperand->number[pos] = rightOperand->number[pos];
 831              		.loc 1 296 54 discriminator 3
 832 0564 0FB655FF 		movzbl	-1(%ebp), %edx
 833              		.loc 1 296 26 discriminator 3
 834 0568 0FB645FF 		movzbl	-1(%ebp), %eax
 835              		.loc 1 296 54 discriminator 3
 836 056c 8B4D0C   		movl	12(%ebp), %ecx
 837 056f 8A0C11   		movb	(%ecx,%edx), %cl
 838              		.loc 1 296 32 discriminator 3
GAS LISTING C:\Users\PRESID~1\AppData\Local\Temp\ccDe376t.s 			page 22


 839 0572 8B5508   		movl	8(%ebp), %edx
 840 0575 880C02   		movb	%cl, (%edx,%eax)
 294:C:/Users/president/Desktop/sbx/input/src/os_base\os_common.c ****    {
 841              		.loc 1 294 42 discriminator 3
 842 0578 8A45FF   		movb	-1(%ebp), %al
 843 057b 40       		incl	%eax
 844 057c 8845FF   		movb	%al, -1(%ebp)
 845              	L58:
 294:C:/Users/president/Desktop/sbx/input/src/os_base\os_common.c ****    {
 846              		.loc 1 294 4 discriminator 1
 847 057f 807DFF0F 		cmpb	$15, -1(%ebp)
 848 0583 76DF     		jbe	L59
 297:C:/Users/president/Desktop/sbx/input/src/os_base\os_common.c ****    }
 298:C:/Users/president/Desktop/sbx/input/src/os_base\os_common.c **** }
 849              		.loc 1 298 1
 850 0585 90       		nop
 851 0586 C9       		leave
 852              		.cfi_restore 5
 853              		.cfi_def_cfa 4, 4
 854 0587 C3       		ret
 855              		.cfi_endproc
 856              	LFE13:
 857              		.globl	_ASSIGN_NULL
 859              	_ASSIGN_NULL:
 860              	LFB14:
 299:C:/Users/president/Desktop/sbx/input/src/os_base\os_common.c **** void ASSIGN_NULL(big_int* leftOperand)
 300:C:/Users/president/Desktop/sbx/input/src/os_base\os_common.c **** {
 861              		.loc 1 300 1
 862              		.cfi_startproc
 863 0588 55       		pushl	%ebp
 864              		.cfi_def_cfa_offset 8
 865              		.cfi_offset 5, -8
 866 0589 89E5     		movl	%esp, %ebp
 867              		.cfi_def_cfa_register 5
 868 058b 83EC10   		subl	$16, %esp
 301:C:/Users/president/Desktop/sbx/input/src/os_base\os_common.c ****    uint8 pos;
 302:C:/Users/president/Desktop/sbx/input/src/os_base\os_common.c ****    for (pos = 0u; pos < BIG_INT_SIZE; pos++)
 869              		.loc 1 302 13
 870 058e C645FF00 		movb	$0, -1(%ebp)
 871              		.loc 1 302 4
 872 0592 EB12     		jmp	L61
 873              	L62:
 303:C:/Users/president/Desktop/sbx/input/src/os_base\os_common.c ****    {
 304:C:/Users/president/Desktop/sbx/input/src/os_base\os_common.c ****       leftOperand->number[pos] = 0x00u;
 874              		.loc 1 304 26 discriminator 3
 875 0594 0FB645FF 		movzbl	-1(%ebp), %eax
 876              		.loc 1 304 32 discriminator 3
 877 0598 8B5508   		movl	8(%ebp), %edx
 878 059b C6040200 		movb	$0, (%edx,%eax)
 302:C:/Users/president/Desktop/sbx/input/src/os_base\os_common.c ****    {
 879              		.loc 1 302 42 discriminator 3
 880 059f 8A45FF   		movb	-1(%ebp), %al
 881 05a2 40       		incl	%eax
 882 05a3 8845FF   		movb	%al, -1(%ebp)
 883              	L61:
 302:C:/Users/president/Desktop/sbx/input/src/os_base\os_common.c ****    {
 884              		.loc 1 302 4 discriminator 1
GAS LISTING C:\Users\PRESID~1\AppData\Local\Temp\ccDe376t.s 			page 23


 885 05a6 807DFF0F 		cmpb	$15, -1(%ebp)
 886 05aa 76E8     		jbe	L62
 305:C:/Users/president/Desktop/sbx/input/src/os_base\os_common.c ****    }
 306:C:/Users/president/Desktop/sbx/input/src/os_base\os_common.c **** }
 887              		.loc 1 306 1
 888 05ac 90       		nop
 889 05ad C9       		leave
 890              		.cfi_restore 5
 891              		.cfi_def_cfa 4, 4
 892 05ae C3       		ret
 893              		.cfi_endproc
 894              	LFE14:
 895              		.globl	_ASSIGN_UINT32
 897              	_ASSIGN_UINT32:
 898              	LFB15:
 307:C:/Users/president/Desktop/sbx/input/src/os_base\os_common.c **** 
 308:C:/Users/president/Desktop/sbx/input/src/os_base\os_common.c **** void ASSIGN_UINT32(big_int* leftOperand, const uint32 rightOperand)
 309:C:/Users/president/Desktop/sbx/input/src/os_base\os_common.c **** {
 899              		.loc 1 309 1
 900              		.cfi_startproc
 901 05af 55       		pushl	%ebp
 902              		.cfi_def_cfa_offset 8
 903              		.cfi_offset 5, -8
 904 05b0 89E5     		movl	%esp, %ebp
 905              		.cfi_def_cfa_register 5
 906 05b2 83EC10   		subl	$16, %esp
 310:C:/Users/president/Desktop/sbx/input/src/os_base\os_common.c ****    uint8 pos;
 311:C:/Users/president/Desktop/sbx/input/src/os_base\os_common.c ****    uint8 i;
 312:C:/Users/president/Desktop/sbx/input/src/os_base\os_common.c ****    for (pos = 0u; pos < BIG_INT_SIZE; pos++)
 907              		.loc 1 312 13
 908 05b5 C645FF00 		movb	$0, -1(%ebp)
 909              		.loc 1 312 4
 910 05b9 EB12     		jmp	L64
 911              	L65:
 313:C:/Users/president/Desktop/sbx/input/src/os_base\os_common.c ****    {
 314:C:/Users/president/Desktop/sbx/input/src/os_base\os_common.c ****       leftOperand->number[pos] = 0x00u;
 912              		.loc 1 314 26 discriminator 3
 913 05bb 0FB645FF 		movzbl	-1(%ebp), %eax
 914              		.loc 1 314 32 discriminator 3
 915 05bf 8B5508   		movl	8(%ebp), %edx
 916 05c2 C6040200 		movb	$0, (%edx,%eax)
 312:C:/Users/president/Desktop/sbx/input/src/os_base\os_common.c ****    {
 917              		.loc 1 312 42 discriminator 3
 918 05c6 8A45FF   		movb	-1(%ebp), %al
 919 05c9 40       		incl	%eax
 920 05ca 8845FF   		movb	%al, -1(%ebp)
 921              	L64:
 312:C:/Users/president/Desktop/sbx/input/src/os_base\os_common.c ****    {
 922              		.loc 1 312 4 discriminator 1
 923 05cd 807DFF0F 		cmpb	$15, -1(%ebp)
 924 05d1 76E8     		jbe	L65
 315:C:/Users/president/Desktop/sbx/input/src/os_base\os_common.c ****    }
 316:C:/Users/president/Desktop/sbx/input/src/os_base\os_common.c **** 
 317:C:/Users/president/Desktop/sbx/input/src/os_base\os_common.c ****    for (pos = BIG_INT_SIZE-1u, i = 0u; pos >= (BIG_INT_SIZE-sizeof(uint32)); pos--, i++)
 925              		.loc 1 317 13
 926 05d3 C645FF0F 		movb	$15, -1(%ebp)
 927              		.loc 1 317 34
GAS LISTING C:\Users\PRESID~1\AppData\Local\Temp\ccDe376t.s 			page 24


 928 05d7 C645FE00 		movb	$0, -2(%ebp)
 929              		.loc 1 317 4
 930 05db EB25     		jmp	L66
 931              	L67:
 318:C:/Users/president/Desktop/sbx/input/src/os_base\os_common.c ****    {
 319:C:/Users/president/Desktop/sbx/input/src/os_base\os_common.c ****       leftOperand->number[pos] = (rightOperand>>i)&0xFFu;
 932              		.loc 1 319 47 discriminator 3
 933 05dd 0FB645FE 		movzbl	-2(%ebp), %eax
 934 05e1 8B550C   		movl	12(%ebp), %edx
 935 05e4 88C1     		movb	%al, %cl
 936 05e6 D3EA     		shrl	%cl, %edx
 937              		.loc 1 319 26 discriminator 3
 938 05e8 0FB645FF 		movzbl	-1(%ebp), %eax
 939              		.loc 1 319 32 discriminator 3
 940 05ec 88D1     		movb	%dl, %cl
 941 05ee 8B5508   		movl	8(%ebp), %edx
 942 05f1 880C02   		movb	%cl, (%edx,%eax)
 317:C:/Users/president/Desktop/sbx/input/src/os_base\os_common.c ****    {
 943              		.loc 1 317 81 discriminator 3
 944 05f4 8A45FF   		movb	-1(%ebp), %al
 945 05f7 48       		decl	%eax
 946 05f8 8845FF   		movb	%al, -1(%ebp)
 317:C:/Users/president/Desktop/sbx/input/src/os_base\os_common.c ****    {
 947              		.loc 1 317 86 discriminator 3
 948 05fb 8A45FE   		movb	-2(%ebp), %al
 949 05fe 40       		incl	%eax
 950 05ff 8845FE   		movb	%al, -2(%ebp)
 951              	L66:
 317:C:/Users/president/Desktop/sbx/input/src/os_base\os_common.c ****    {
 952              		.loc 1 317 4 discriminator 1
 953 0602 807DFF0B 		cmpb	$11, -1(%ebp)
 954 0606 77D5     		ja	L67
 320:C:/Users/president/Desktop/sbx/input/src/os_base\os_common.c ****    }
 321:C:/Users/president/Desktop/sbx/input/src/os_base\os_common.c **** }
 955              		.loc 1 321 1
 956 0608 90       		nop
 957 0609 C9       		leave
 958              		.cfi_restore 5
 959              		.cfi_def_cfa 4, 4
 960 060a C3       		ret
 961              		.cfi_endproc
 962              	LFE15:
 963              		.globl	_SHIFT_LEFT
 965              	_SHIFT_LEFT:
 966              	LFB16:
 322:C:/Users/president/Desktop/sbx/input/src/os_base\os_common.c **** void SHIFT_LEFT(big_int* number, uint32 amount_bits_shift)
 323:C:/Users/president/Desktop/sbx/input/src/os_base\os_common.c **** {
 967              		.loc 1 323 1
 968              		.cfi_startproc
 969 060b 55       		pushl	%ebp
 970              		.cfi_def_cfa_offset 8
 971              		.cfi_offset 5, -8
 972 060c 89E5     		movl	%esp, %ebp
 973              		.cfi_def_cfa_register 5
 974 060e 83EC3C   		subl	$60, %esp
 324:C:/Users/president/Desktop/sbx/input/src/os_base\os_common.c ****    big_int tmpBigInt, result;
 325:C:/Users/president/Desktop/sbx/input/src/os_base\os_common.c ****    uint32  tmp32;
GAS LISTING C:\Users\PRESID~1\AppData\Local\Temp\ccDe376t.s 			page 25


 326:C:/Users/president/Desktop/sbx/input/src/os_base\os_common.c ****    sint32  pos;
 327:C:/Users/president/Desktop/sbx/input/src/os_base\os_common.c ****    /* init the variable */
 328:C:/Users/president/Desktop/sbx/input/src/os_base\os_common.c ****    ASSIGN_NULL(&tmpBigInt);
 975              		.loc 1 328 4
 976 0611 8D45E8   		leal	-24(%ebp), %eax
 977 0614 890424   		movl	%eax, (%esp)
 978 0617 E86CFFFF 		call	_ASSIGN_NULL
 978      FF
 329:C:/Users/president/Desktop/sbx/input/src/os_base\os_common.c ****    ASSIGN_NULL(&result);
 979              		.loc 1 329 4
 980 061c 8D45D8   		leal	-40(%ebp), %eax
 981 061f 890424   		movl	%eax, (%esp)
 982 0622 E861FFFF 		call	_ASSIGN_NULL
 982      FF
 330:C:/Users/president/Desktop/sbx/input/src/os_base\os_common.c ****    
 331:C:/Users/president/Desktop/sbx/input/src/os_base\os_common.c ****    /* due to the underlying 32 bit integer type only 24 bits can be shifted (32bit variable -8bit a
 332:C:/Users/president/Desktop/sbx/input/src/os_base\os_common.c ****    if(amount_bits_shift > 24u)
 983              		.loc 1 332 6
 984 0627 837D0C18 		cmpl	$24, 12(%ebp)
 985 062b 7619     		jbe	L69
 333:C:/Users/president/Desktop/sbx/input/src/os_base\os_common.c ****    {
 334:C:/Users/president/Desktop/sbx/input/src/os_base\os_common.c ****       OS_SET_SW_BUG(E_OS_BUG_BIT_SHIFT_OUT_OF_RANGE, E_FUNC_SHIFT_LEFT);
 986              		.loc 1 334 7
 987 062d C7442404 		movl	$21, 4(%esp)
 987      15000000 
 988 0635 C704240D 		movl	$13, (%esp)
 988      000000
 989 063c E8BFF9FF 		call	_OS_SET_SW_BUG
 989      FF
 990 0641 E9A20000 		jmp	L68
 990      00
 991              	L69:
 335:C:/Users/president/Desktop/sbx/input/src/os_base\os_common.c ****       return;
 336:C:/Users/president/Desktop/sbx/input/src/os_base\os_common.c ****    }         
 337:C:/Users/president/Desktop/sbx/input/src/os_base\os_common.c ****    for (pos = BIG_INT_SIZE-1u; pos >= 0; pos--)
 992              		.loc 1 337 13
 993 0646 C745FC0F 		movl	$15, -4(%ebp)
 993      000000
 994              		.loc 1 337 4
 995 064d EB7D     		jmp	L71
 996              	L72:
 338:C:/Users/president/Desktop/sbx/input/src/os_base\os_common.c ****    {
 339:C:/Users/president/Desktop/sbx/input/src/os_base\os_common.c ****       ASSIGN_NULL(&tmpBigInt);
 997              		.loc 1 339 7 discriminator 3
 998 064f 8D45E8   		leal	-24(%ebp), %eax
 999 0652 890424   		movl	%eax, (%esp)
 1000 0655 E82EFFFF 		call	_ASSIGN_NULL
 1000      FF
 340:C:/Users/president/Desktop/sbx/input/src/os_base\os_common.c ****       tmp32 = ((uint32)number->number[(uint32)pos]) << amount_bits_shift;
 1001              		.loc 1 340 39 discriminator 3
 1002 065a 8B45FC   		movl	-4(%ebp), %eax
 1003              		.loc 1 340 38 discriminator 3
 1004 065d 8B5508   		movl	8(%ebp), %edx
 1005 0660 8A0402   		movb	(%edx,%eax), %al
 1006              		.loc 1 340 16 discriminator 3
 1007 0663 0FB6D0   		movzbl	%al, %edx
 1008              		.loc 1 340 13 discriminator 3
GAS LISTING C:\Users\PRESID~1\AppData\Local\Temp\ccDe376t.s 			page 26


 1009 0666 8B450C   		movl	12(%ebp), %eax
 1010 0669 88C1     		movb	%al, %cl
 1011 066b D3E2     		sall	%cl, %edx
 1012 066d 89D0     		movl	%edx, %eax
 1013 066f 8945F8   		movl	%eax, -8(%ebp)
 341:C:/Users/president/Desktop/sbx/input/src/os_base\os_common.c ****       tmpBigInt.number[(uint32)pos]      = (tmp32 >> 0u) & 0xFF;
 1014              		.loc 1 341 24 discriminator 3
 1015 0672 8B45FC   		movl	-4(%ebp), %eax
 1016              		.loc 1 341 42 discriminator 3
 1017 0675 8B55F8   		movl	-8(%ebp), %edx
 1018 0678 885405E8 		movb	%dl, -24(%ebp,%eax)
 342:C:/Users/president/Desktop/sbx/input/src/os_base\os_common.c ****       tmpBigInt.number[(uint32)pos+1u]   = (tmp32 >> 8u) & 0xFF;
 1019              		.loc 1 342 51 discriminator 3
 1020 067c 8B45F8   		movl	-8(%ebp), %eax
 1021 067f C1E808   		shrl	$8, %eax
 1022 0682 89C2     		movl	%eax, %edx
 1023              		.loc 1 342 24 discriminator 3
 1024 0684 8B45FC   		movl	-4(%ebp), %eax
 1025              		.loc 1 342 35 discriminator 3
 1026 0687 40       		incl	%eax
 1027              		.loc 1 342 42 discriminator 3
 1028 0688 885405E8 		movb	%dl, -24(%ebp,%eax)
 343:C:/Users/president/Desktop/sbx/input/src/os_base\os_common.c ****       tmpBigInt.number[(uint32)pos+2u]   = (tmp32 >>16u) & 0xFF;
 1029              		.loc 1 343 51 discriminator 3
 1030 068c 8B45F8   		movl	-8(%ebp), %eax
 1031 068f C1E810   		shrl	$16, %eax
 1032 0692 89C2     		movl	%eax, %edx
 1033              		.loc 1 343 24 discriminator 3
 1034 0694 8B45FC   		movl	-4(%ebp), %eax
 1035              		.loc 1 343 35 discriminator 3
 1036 0697 83C002   		addl	$2, %eax
 1037              		.loc 1 343 42 discriminator 3
 1038 069a 885405E8 		movb	%dl, -24(%ebp,%eax)
 344:C:/Users/president/Desktop/sbx/input/src/os_base\os_common.c ****       tmpBigInt.number[(uint32)pos+3u]   = (tmp32 >>24u) & 0xFF;
 1039              		.loc 1 344 51 discriminator 3
 1040 069e 8B45F8   		movl	-8(%ebp), %eax
 1041 06a1 C1E818   		shrl	$24, %eax
 1042 06a4 89C2     		movl	%eax, %edx
 1043              		.loc 1 344 24 discriminator 3
 1044 06a6 8B45FC   		movl	-4(%ebp), %eax
 1045              		.loc 1 344 35 discriminator 3
 1046 06a9 83C003   		addl	$3, %eax
 1047              		.loc 1 344 42 discriminator 3
 1048 06ac 885405E8 		movb	%dl, -24(%ebp,%eax)
 345:C:/Users/president/Desktop/sbx/input/src/os_base\os_common.c ****       INT_ADD(&result, &result, &tmpBigInt);
 1049              		.loc 1 345 7 discriminator 3
 1050 06b0 8D45E8   		leal	-24(%ebp), %eax
 1051 06b3 89442408 		movl	%eax, 8(%esp)
 1052 06b7 8D45D8   		leal	-40(%ebp), %eax
 1053 06ba 89442404 		movl	%eax, 4(%esp)
 1054 06be 8D45D8   		leal	-40(%ebp), %eax
 1055 06c1 890424   		movl	%eax, (%esp)
 1056 06c4 E8D3FBFF 		call	_INT_ADD
 1056      FF
 337:C:/Users/president/Desktop/sbx/input/src/os_base\os_common.c ****    {
 1057              		.loc 1 337 45 discriminator 3
 1058 06c9 FF4DFC   		decl	-4(%ebp)
GAS LISTING C:\Users\PRESID~1\AppData\Local\Temp\ccDe376t.s 			page 27


 1059              	L71:
 337:C:/Users/president/Desktop/sbx/input/src/os_base\os_common.c ****    {
 1060              		.loc 1 337 4 discriminator 1
 1061 06cc 837DFC00 		cmpl	$0, -4(%ebp)
 1062 06d0 0F8979FF 		jns	L72
 1062      FFFF
 346:C:/Users/president/Desktop/sbx/input/src/os_base\os_common.c ****    }    
 347:C:/Users/president/Desktop/sbx/input/src/os_base\os_common.c ****    ASSIGN(number, &result);
 1063              		.loc 1 347 4
 1064 06d6 8D45D8   		leal	-40(%ebp), %eax
 1065 06d9 89442404 		movl	%eax, 4(%esp)
 1066 06dd 8B4508   		movl	8(%ebp), %eax
 1067 06e0 890424   		movl	%eax, (%esp)
 1068 06e3 E870FEFF 		call	_ASSIGN
 1068      FF
 1069              	L68:
 348:C:/Users/president/Desktop/sbx/input/src/os_base\os_common.c **** }
 1070              		.loc 1 348 1
 1071 06e8 C9       		leave
 1072              		.cfi_restore 5
 1073              		.cfi_def_cfa 4, 4
 1074 06e9 C3       		ret
 1075              		.cfi_endproc
 1076              	LFE16:
 1077              		.globl	_get_uint32_of_4_uint8
 1079              	_get_uint32_of_4_uint8:
 1080              	LFB17:
 349:C:/Users/president/Desktop/sbx/input/src/os_base\os_common.c **** 
 350:C:/Users/president/Desktop/sbx/input/src/os_base\os_common.c **** uint32 get_uint32_of_4_uint8(uint8* ptr)
 351:C:/Users/president/Desktop/sbx/input/src/os_base\os_common.c **** {
 1081              		.loc 1 351 1
 1082              		.cfi_startproc
 1083 06ea 55       		pushl	%ebp
 1084              		.cfi_def_cfa_offset 8
 1085              		.cfi_offset 5, -8
 1086 06eb 89E5     		movl	%esp, %ebp
 1087              		.cfi_def_cfa_register 5
 1088 06ed 83EC10   		subl	$16, %esp
 352:C:/Users/president/Desktop/sbx/input/src/os_base\os_common.c ****    uint32 ret_val = 0u;
 1089              		.loc 1 352 11
 1090 06f0 C745FC00 		movl	$0, -4(%ebp)
 1090      000000
 353:C:/Users/president/Desktop/sbx/input/src/os_base\os_common.c **** 
 354:C:/Users/president/Desktop/sbx/input/src/os_base\os_common.c ****    ret_val += ((uint32) *ptr)<< 24u;
 1091              		.loc 1 354 25
 1092 06f7 8B4508   		movl	8(%ebp), %eax
 1093 06fa 8A00     		movb	(%eax), %al
 1094              		.loc 1 354 16
 1095 06fc 0FB6C0   		movzbl	%al, %eax
 1096              		.loc 1 354 30
 1097 06ff C1E018   		sall	$24, %eax
 1098              		.loc 1 354 12
 1099 0702 0145FC   		addl	%eax, -4(%ebp)
 355:C:/Users/president/Desktop/sbx/input/src/os_base\os_common.c ****    ptr++;
 1100              		.loc 1 355 7
 1101 0705 FF4508   		incl	8(%ebp)
 356:C:/Users/president/Desktop/sbx/input/src/os_base\os_common.c ****    ret_val += ((uint32) *ptr)<< 16u;
GAS LISTING C:\Users\PRESID~1\AppData\Local\Temp\ccDe376t.s 			page 28


 1102              		.loc 1 356 25
 1103 0708 8B4508   		movl	8(%ebp), %eax
 1104 070b 8A00     		movb	(%eax), %al
 1105              		.loc 1 356 16
 1106 070d 0FB6C0   		movzbl	%al, %eax
 1107              		.loc 1 356 30
 1108 0710 C1E010   		sall	$16, %eax
 1109              		.loc 1 356 12
 1110 0713 0145FC   		addl	%eax, -4(%ebp)
 357:C:/Users/president/Desktop/sbx/input/src/os_base\os_common.c ****    ptr++;
 1111              		.loc 1 357 7
 1112 0716 FF4508   		incl	8(%ebp)
 358:C:/Users/president/Desktop/sbx/input/src/os_base\os_common.c ****    ret_val += ((uint32) *ptr)<< 8u;
 1113              		.loc 1 358 25
 1114 0719 8B4508   		movl	8(%ebp), %eax
 1115 071c 8A00     		movb	(%eax), %al
 1116              		.loc 1 358 16
 1117 071e 0FB6C0   		movzbl	%al, %eax
 1118              		.loc 1 358 30
 1119 0721 C1E008   		sall	$8, %eax
 1120              		.loc 1 358 12
 1121 0724 0145FC   		addl	%eax, -4(%ebp)
 359:C:/Users/president/Desktop/sbx/input/src/os_base\os_common.c ****    ptr++;
 1122              		.loc 1 359 7
 1123 0727 FF4508   		incl	8(%ebp)
 360:C:/Users/president/Desktop/sbx/input/src/os_base\os_common.c ****    ret_val += ((uint32) *ptr)<< 0u;
 1124              		.loc 1 360 25
 1125 072a 8B4508   		movl	8(%ebp), %eax
 1126 072d 8A00     		movb	(%eax), %al
 1127              		.loc 1 360 30
 1128 072f 0FB6C0   		movzbl	%al, %eax
 1129              		.loc 1 360 12
 1130 0732 0145FC   		addl	%eax, -4(%ebp)
 361:C:/Users/president/Desktop/sbx/input/src/os_base\os_common.c **** 
 362:C:/Users/president/Desktop/sbx/input/src/os_base\os_common.c ****    return ret_val;
 1131              		.loc 1 362 11
 1132 0735 8B45FC   		movl	-4(%ebp), %eax
 363:C:/Users/president/Desktop/sbx/input/src/os_base\os_common.c **** }
 1133              		.loc 1 363 1
 1134 0738 C9       		leave
 1135              		.cfi_restore 5
 1136              		.cfi_def_cfa 4, 4
 1137 0739 C3       		ret
 1138              		.cfi_endproc
 1139              	LFE17:
 1140              		.globl	_set_4_uint8_to_uint32
 1142              	_set_4_uint8_to_uint32:
 1143              	LFB18:
 364:C:/Users/president/Desktop/sbx/input/src/os_base\os_common.c **** void set_4_uint8_to_uint32(uint8* ptr, uint32 value)
 365:C:/Users/president/Desktop/sbx/input/src/os_base\os_common.c **** {
 1144              		.loc 1 365 1
 1145              		.cfi_startproc
 1146 073a 55       		pushl	%ebp
 1147              		.cfi_def_cfa_offset 8
 1148              		.cfi_offset 5, -8
 1149 073b 89E5     		movl	%esp, %ebp
 1150              		.cfi_def_cfa_register 5
GAS LISTING C:\Users\PRESID~1\AppData\Local\Temp\ccDe376t.s 			page 29


 366:C:/Users/president/Desktop/sbx/input/src/os_base\os_common.c ****    *ptr = (value >>24u)&0xFFu;
 1151              		.loc 1 366 18
 1152 073d 8B450C   		movl	12(%ebp), %eax
 1153 0740 C1E818   		shrl	$24, %eax
 1154              		.loc 1 366 9
 1155 0743 88C2     		movb	%al, %dl
 1156 0745 8B4508   		movl	8(%ebp), %eax
 1157 0748 8810     		movb	%dl, (%eax)
 367:C:/Users/president/Desktop/sbx/input/src/os_base\os_common.c ****    ptr++;
 1158              		.loc 1 367 7
 1159 074a FF4508   		incl	8(%ebp)
 368:C:/Users/president/Desktop/sbx/input/src/os_base\os_common.c ****    *ptr = (value >>16u)&0xFFu;
 1160              		.loc 1 368 18
 1161 074d 8B450C   		movl	12(%ebp), %eax
 1162 0750 C1E810   		shrl	$16, %eax
 1163              		.loc 1 368 9
 1164 0753 88C2     		movb	%al, %dl
 1165 0755 8B4508   		movl	8(%ebp), %eax
 1166 0758 8810     		movb	%dl, (%eax)
 369:C:/Users/president/Desktop/sbx/input/src/os_base\os_common.c ****    ptr++;
 1167              		.loc 1 369 7
 1168 075a FF4508   		incl	8(%ebp)
 370:C:/Users/president/Desktop/sbx/input/src/os_base\os_common.c ****    *ptr = (value >>8u)&0xFFu;
 1169              		.loc 1 370 18
 1170 075d 8B450C   		movl	12(%ebp), %eax
 1171 0760 C1E808   		shrl	$8, %eax
 1172              		.loc 1 370 9
 1173 0763 88C2     		movb	%al, %dl
 1174 0765 8B4508   		movl	8(%ebp), %eax
 1175 0768 8810     		movb	%dl, (%eax)
 371:C:/Users/president/Desktop/sbx/input/src/os_base\os_common.c ****    ptr++;
 1176              		.loc 1 371 7
 1177 076a FF4508   		incl	8(%ebp)
 372:C:/Users/president/Desktop/sbx/input/src/os_base\os_common.c ****    *ptr = (value >>0u)&0xFFu;
 1178              		.loc 1 372 9
 1179 076d 8B450C   		movl	12(%ebp), %eax
 1180 0770 88C2     		movb	%al, %dl
 1181 0772 8B4508   		movl	8(%ebp), %eax
 1182 0775 8810     		movb	%dl, (%eax)
 373:C:/Users/president/Desktop/sbx/input/src/os_base\os_common.c **** }
 1183              		.loc 1 373 1
 1184 0777 90       		nop
 1185 0778 5D       		popl	%ebp
 1186              		.cfi_restore 5
 1187              		.cfi_def_cfa 4, 4
 1188 0779 C3       		ret
 1189              		.cfi_endproc
 1190              	LFE18:
 1191              	Letext0:
 1192              		.file 2 "c:/users/president/desktop/sbx/input/src/os_base/os_base_types.h"
 1193              		.file 3 "c:/users/president/desktop/sbx/input/src/os_base/os_common.h"
 1194              		.file 4 "c:/users/president/desktop/sbx/input/src/os_sim/lld_core.h"
 1195              		.file 5 "c:/users/president/desktop/sbx/input/src/os_base/os_task_common.h"
 1196              		.file 6 "C:/Users/president/Desktop/sbx/input/src/os_base/os_main.h"
 1197              		.file 7 "c:/users/president/desktop/sbx/input/src/os_base/os_ram.h"
 1198              		.file 8 "c:/users/president/desktop/sbx/input/src/os_base/os_ram_stack.h"
 1199              		.section	.debug_info,"dr"
GAS LISTING C:\Users\PRESID~1\AppData\Local\Temp\ccDe376t.s 			page 30


 1200              	Ldebug_info0:
 1201 0000 F61A0000 		.long	0x1af6
 1202 0004 0400     		.word	0x4
 1203 0006 00000000 		.secrel32	Ldebug_abbrev0
 1204 000a 04       		.byte	0x4
 1205 000b 01       		.uleb128 0x1
 1206 000c 474E5520 		.ascii "GNU C89 8.2.0 -march=i386 -g3 -O0 -std=c90\0"
 1206      43383920 
 1206      382E322E 
 1206      30202D6D 
 1206      61726368 
 1207 0037 01       		.byte	0x1
 1208 0038 433A5C55 		.ascii "C:\\Users\\president\\Desktop\\sbx\\input\\src\\os_base\\os_common.c\0"
 1208      73657273 
 1208      5C707265 
 1208      73696465 
 1208      6E745C44 
 1209 0075 433A5C50 		.ascii "C:\\Program\\MinGW\\bin\0"
 1209      726F6772 
 1209      616D5C4D 
 1209      696E4757 
 1209      5C62696E 
 1210 008a 00000000 		.long	Ltext0
 1211 008e 7A070000 		.long	Letext0-Ltext0
 1212 0092 00000000 		.secrel32	Ldebug_line0
 1213 0096 00000000 		.secrel32	Ldebug_macro0
 1214 009a 02       		.uleb128 0x2
 1215 009b 756E7369 		.ascii "unsigned_char_t\0"
 1215      676E6564 
 1215      5F636861 
 1215      725F7400 
 1216 00ab 02       		.byte	0x2
 1217 00ac 11       		.byte	0x11
 1218 00ad 18       		.byte	0x18
 1219 00ae B2000000 		.long	0xb2
 1220 00b2 03       		.uleb128 0x3
 1221 00b3 01       		.byte	0x1
 1222 00b4 08       		.byte	0x8
 1223 00b5 756E7369 		.ascii "unsigned char\0"
 1223      676E6564 
 1223      20636861 
 1223      7200
 1224 00c3 03       		.uleb128 0x3
 1225 00c4 01       		.byte	0x1
 1226 00c5 06       		.byte	0x6
 1227 00c6 7369676E 		.ascii "signed char\0"
 1227      65642063 
 1227      68617200 
 1228 00d2 02       		.uleb128 0x2
 1229 00d3 75696E74 		.ascii "uint8\0"
 1229      3800
 1230 00d9 02       		.byte	0x2
 1231 00da 15       		.byte	0x15
 1232 00db 18       		.byte	0x18
 1233 00dc B2000000 		.long	0xb2
 1234 00e0 02       		.uleb128 0x2
 1235 00e1 73696E74 		.ascii "sint8\0"
GAS LISTING C:\Users\PRESID~1\AppData\Local\Temp\ccDe376t.s 			page 31


 1235      3800
 1236 00e7 02       		.byte	0x2
 1237 00e8 16       		.byte	0x16
 1238 00e9 18       		.byte	0x18
 1239 00ea C3000000 		.long	0xc3
 1240 00ee 03       		.uleb128 0x3
 1241 00ef 02       		.byte	0x2
 1242 00f0 07       		.byte	0x7
 1243 00f1 73686F72 		.ascii "short unsigned int\0"
 1243      7420756E 
 1243      7369676E 
 1243      65642069 
 1243      6E7400
 1244 0104 03       		.uleb128 0x3
 1245 0105 02       		.byte	0x2
 1246 0106 05       		.byte	0x5
 1247 0107 73686F72 		.ascii "short int\0"
 1247      7420696E 
 1247      7400
 1248 0111 02       		.uleb128 0x2
 1249 0112 75696E74 		.ascii "uint16\0"
 1249      313600
 1250 0119 02       		.byte	0x2
 1251 011a 19       		.byte	0x19
 1252 011b 18       		.byte	0x18
 1253 011c EE000000 		.long	0xee
 1254 0120 02       		.uleb128 0x2
 1255 0121 756E7369 		.ascii "unsigned_int32_t\0"
 1255      676E6564 
 1255      5F696E74 
 1255      33325F74 
 1255      00
 1256 0132 02       		.byte	0x2
 1257 0133 1B       		.byte	0x1b
 1258 0134 18       		.byte	0x18
 1259 0135 39010000 		.long	0x139
 1260 0139 03       		.uleb128 0x3
 1261 013a 04       		.byte	0x4
 1262 013b 07       		.byte	0x7
 1263 013c 6C6F6E67 		.ascii "long unsigned int\0"
 1263      20756E73 
 1263      69676E65 
 1263      6420696E 
 1263      7400
 1264 014e 03       		.uleb128 0x3
 1265 014f 04       		.byte	0x4
 1266 0150 05       		.byte	0x5
 1267 0151 6C6F6E67 		.ascii "long int\0"
 1267      20696E74 
 1267      00
 1268 015a 02       		.uleb128 0x2
 1269 015b 75696E74 		.ascii "uint32\0"
 1269      333200
 1270 0162 02       		.byte	0x2
 1271 0163 1D       		.byte	0x1d
 1272 0164 18       		.byte	0x18
 1273 0165 39010000 		.long	0x139
GAS LISTING C:\Users\PRESID~1\AppData\Local\Temp\ccDe376t.s 			page 32


 1274 0169 04       		.uleb128 0x4
 1275 016a 5A010000 		.long	0x15a
 1276 016e 05       		.uleb128 0x5
 1277 016f 5A010000 		.long	0x15a
 1278 0173 02       		.uleb128 0x2
 1279 0174 73696E74 		.ascii "sint32\0"
 1279      333200
 1280 017b 02       		.byte	0x2
 1281 017c 1E       		.byte	0x1e
 1282 017d 18       		.byte	0x18
 1283 017e 4E010000 		.long	0x14e
 1284 0182 06       		.uleb128 0x6
 1285 0183 6F735F73 		.ascii "os_sw_bugs_e\0"
 1285      775F6275 
 1285      67735F65 
 1285      00
 1286 0190 07       		.byte	0x7
 1287 0191 04       		.byte	0x4
 1288 0192 5C030000 		.long	0x35c
 1289 0196 03       		.byte	0x3
 1290 0197 2E       		.byte	0x2e
 1291 0198 06       		.byte	0x6
 1292 0199 5C030000 		.long	0x35c
 1293 019d 07       		.uleb128 0x7
 1294 019e 455F4F53 		.ascii "E_OS_BUG_NO_BUG\0"
 1294      5F425547 
 1294      5F4E4F5F 
 1294      42554700 
 1295 01ae 00       		.byte	0
 1296 01af 07       		.uleb128 0x7
 1297 01b0 455F4F53 		.ascii "E_OS_BUG_TASKSTATE_REQUEST_DENIED\0"
 1297      5F425547 
 1297      5F544153 
 1297      4B535441 
 1297      54455F52 
 1298 01d2 01       		.byte	0x1
 1299 01d3 07       		.uleb128 0x7
 1300 01d4 455F4F53 		.ascii "E_OS_BUG_NULL_POINTER\0"
 1300      5F425547 
 1300      5F4E554C 
 1300      4C5F504F 
 1300      494E5445 
 1301 01ea 02       		.byte	0x2
 1302 01eb 07       		.uleb128 0x7
 1303 01ec 455F4F53 		.ascii "E_OS_BUG_TASK_MAX_WAIT_TIME_REACHED\0"
 1303      5F425547 
 1303      5F544153 
 1303      4B5F4D41 
 1303      585F5741 
 1304 0210 03       		.byte	0x3
 1305 0211 07       		.uleb128 0x7
 1306 0212 455F4F53 		.ascii "E_OS_BUG_TASK_UNSPECIFIED\0"
 1306      5F425547 
 1306      5F544153 
 1306      4B5F554E 
 1306      53504543 
 1307 022c 04       		.byte	0x4
GAS LISTING C:\Users\PRESID~1\AppData\Local\Temp\ccDe376t.s 			page 33


 1308 022d 07       		.uleb128 0x7
 1309 022e 455F4F53 		.ascii "E_OS_BUG_EXCEPTION_UNDEFINSTRUCTION\0"
 1309      5F425547 
 1309      5F455843 
 1309      45505449 
 1309      4F4E5F55 
 1310 0252 05       		.byte	0x5
 1311 0253 07       		.uleb128 0x7
 1312 0254 455F4F53 		.ascii "E_OS_BUG_EXCEPTION_ABORTPREFETCH\0"
 1312      5F425547 
 1312      5F455843 
 1312      45505449 
 1312      4F4E5F41 
 1313 0275 06       		.byte	0x6
 1314 0276 07       		.uleb128 0x7
 1315 0277 455F4F53 		.ascii "E_OS_BUG_EXCEPTION_ABORTDATA\0"
 1315      5F425547 
 1315      5F455843 
 1315      45505449 
 1315      4F4E5F41 
 1316 0294 07       		.byte	0x7
 1317 0295 07       		.uleb128 0x7
 1318 0296 455F4F53 		.ascii "E_OS_BUG_RESET_EXIT_OR_SHUTDOWN_FAILED\0"
 1318      5F425547 
 1318      5F524553 
 1318      45545F45 
 1318      5849545F 
 1319 02bd 08       		.byte	0x8
 1320 02be 07       		.uleb128 0x7
 1321 02bf 455F4F53 		.ascii "E_OS_BUG_CRITICAL_STACK_USAGE\0"
 1321      5F425547 
 1321      5F435249 
 1321      54494341 
 1321      4C5F5354 
 1322 02dd 09       		.byte	0x9
 1323 02de 07       		.uleb128 0x7
 1324 02df 455F4F53 		.ascii "E_OS_BUG_SVC_NUMBER_MISSING\0"
 1324      5F425547 
 1324      5F535643 
 1324      5F4E554D 
 1324      4245525F 
 1325 02fb 0A       		.byte	0xa
 1326 02fc 07       		.uleb128 0x7
 1327 02fd 455F4F53 		.ascii "E_OS_BUG_MAX_WAIT_TIME_REACHED\0"
 1327      5F425547 
 1327      5F4D4158 
 1327      5F574149 
 1327      545F5449 
 1328 031c 0B       		.byte	0xb
 1329 031d 07       		.uleb128 0x7
 1330 031e 455F4F53 		.ascii "E_OS_BUG_DIVISION_BY_ZERO\0"
 1330      5F425547 
 1330      5F444956 
 1330      4953494F 
 1330      4E5F4259 
 1331 0338 0C       		.byte	0xc
 1332 0339 07       		.uleb128 0x7
GAS LISTING C:\Users\PRESID~1\AppData\Local\Temp\ccDe376t.s 			page 34


 1333 033a 455F4F53 		.ascii "E_OS_BUG_BIT_SHIFT_OUT_OF_RANGE\0"
 1333      5F425547 
 1333      5F424954 
 1333      5F534849 
 1333      46545F4F 
 1334 035a 0D       		.byte	0xd
 1335 035b 00       		.byte	0
 1336 035c 03       		.uleb128 0x3
 1337 035d 04       		.byte	0x4
 1338 035e 07       		.byte	0x7
 1339 035f 756E7369 		.ascii "unsigned int\0"
 1339      676E6564 
 1339      20696E74 
 1339      00
 1340 036c 02       		.uleb128 0x2
 1341 036d 6F735F73 		.ascii "os_sw_bugs_t\0"
 1341      775F6275 
 1341      67735F74 
 1341      00
 1342 037a 03       		.byte	0x3
 1343 037b 3F       		.byte	0x3f
 1344 037c 1B       		.byte	0x1b
 1345 037d 82010000 		.long	0x182
 1346 0381 04       		.uleb128 0x4
 1347 0382 6C030000 		.long	0x36c
 1348 0386 02       		.uleb128 0x2
 1349 0387 626F6F6C 		.ascii "boolean_t\0"
 1349      65616E5F 
 1349      7400
 1350 0391 03       		.byte	0x3
 1351 0392 40       		.byte	0x40
 1352 0393 0F       		.byte	0xf
 1353 0394 D2000000 		.long	0xd2
 1354 0398 06       		.uleb128 0x6
 1355 0399 6F735F73 		.ascii "os_sw_bugs_function_e\0"
 1355      775F6275 
 1355      67735F66 
 1355      756E6374 
 1355      696F6E5F 
 1356 03af 07       		.byte	0x7
 1357 03b0 04       		.byte	0x4
 1358 03b1 5C030000 		.long	0x35c
 1359 03b5 03       		.byte	0x3
 1360 03b6 43       		.byte	0x43
 1361 03b7 06       		.byte	0x6
 1362 03b8 B6050000 		.long	0x5b6
 1363 03bc 07       		.uleb128 0x7
 1364 03bd 455F4655 		.ascii "E_FUNC_NOFUNCTION\0"
 1364      4E435F4E 
 1364      4F46554E 
 1364      4354494F 
 1364      4E00
 1365 03cf 00       		.byte	0
 1366 03d0 07       		.uleb128 0x7
 1367 03d1 455F4655 		.ascii "E_FUNC_SAVETASKENVIRONMENT\0"
 1367      4E435F53 
 1367      41564554 
GAS LISTING C:\Users\PRESID~1\AppData\Local\Temp\ccDe376t.s 			page 35


 1367      41534B45 
 1367      4E564952 
 1368 03ec 01       		.byte	0x1
 1369 03ed 07       		.uleb128 0x7
 1370 03ee 455F4655 		.ascii "E_FUNC_RESTORETASKENVIRONMENT\0"
 1370      4E435F52 
 1370      4553544F 
 1370      52455441 
 1370      534B454E 
 1371 040c 02       		.byte	0x2
 1372 040d 07       		.uleb128 0x7
 1373 040e 455F4655 		.ascii "E_FUNC_CREATETASKENVIRONMENT\0"
 1373      4E435F43 
 1373      52454154 
 1373      45544153 
 1373      4B454E56 
 1374 042b 03       		.byte	0x3
 1375 042c 07       		.uleb128 0x7
 1376 042d 455F4655 		.ascii "E_FUNC_DELETETASKENVIRONMENT\0"
 1376      4E435F44 
 1376      454C4554 
 1376      45544153 
 1376      4B454E56 
 1377 044a 04       		.byte	0x4
 1378 044b 07       		.uleb128 0x7
 1379 044c 455F4655 		.ascii "E_FUNC_INITTASKENVIRONMENT\0"
 1379      4E435F49 
 1379      4E495454 
 1379      41534B45 
 1379      4E564952 
 1380 0467 05       		.byte	0x5
 1381 0468 07       		.uleb128 0x7
 1382 0469 455F4655 		.ascii "E_FUNC_STARTTASK\0"
 1382      4E435F53 
 1382      54415254 
 1382      5441534B 
 1382      00
 1383 047a 06       		.byte	0x6
 1384 047b 07       		.uleb128 0x7
 1385 047c 455F4655 		.ascii "E_FUNC_PREEMPTTASK\0"
 1385      4E435F50 
 1385      5245454D 
 1385      50545441 
 1385      534B00
 1386 048f 07       		.byte	0x7
 1387 0490 07       		.uleb128 0x7
 1388 0491 455F4655 		.ascii "E_FUNC_TERMINATETASK\0"
 1388      4E435F54 
 1388      45524D49 
 1388      4E415445 
 1388      5441534B 
 1389 04a6 08       		.byte	0x8
 1390 04a7 07       		.uleb128 0x7
 1391 04a8 455F4655 		.ascii "E_FUNC_TASKSCHEDULER\0"
 1391      4E435F54 
 1391      41534B53 
 1391      43484544 
GAS LISTING C:\Users\PRESID~1\AppData\Local\Temp\ccDe376t.s 			page 36


 1391      554C4552 
 1392 04bd 09       		.byte	0x9
 1393 04be 07       		.uleb128 0x7
 1394 04bf 455F4655 		.ascii "E_FUNC_INITTASK\0"
 1394      4E435F49 
 1394      4E495454 
 1394      41534B00 
 1395 04cf 0A       		.byte	0xa
 1396 04d0 07       		.uleb128 0x7
 1397 04d1 455F4655 		.ascii "E_FUNC_ACTIVATETASK\0"
 1397      4E435F41 
 1397      43544956 
 1397      41544554 
 1397      41534B00 
 1398 04e5 0B       		.byte	0xb
 1399 04e6 07       		.uleb128 0x7
 1400 04e7 455F4655 		.ascii "E_FUNC_TASKSTATEREQUEST\0"
 1400      4E435F54 
 1400      41534B53 
 1400      54415445 
 1400      52455155 
 1401 04ff 0C       		.byte	0xc
 1402 0500 07       		.uleb128 0x7
 1403 0501 455F4655 		.ascii "E_FUNC_PREEMPT_TASK\0"
 1403      4E435F50 
 1403      5245454D 
 1403      50545F54 
 1403      41534B00 
 1404 0515 0D       		.byte	0xd
 1405 0516 07       		.uleb128 0x7
 1406 0517 455F4655 		.ascii "E_FUNC_OS_EXCEPTION\0"
 1406      4E435F4F 
 1406      535F4558 
 1406      43455054 
 1406      494F4E00 
 1407 052b 0E       		.byte	0xe
 1408 052c 07       		.uleb128 0x7
 1409 052d 455F4655 		.ascii "E_FUNC_CREATETASK\0"
 1409      4E435F43 
 1409      52454154 
 1409      45544153 
 1409      4B00
 1410 053f 0F       		.byte	0xf
 1411 0540 07       		.uleb128 0x7
 1412 0541 455F4655 		.ascii "E_FUNC_SHUTDOWN\0"
 1412      4E435F53 
 1412      48555444 
 1412      4F574E00 
 1413 0551 10       		.byte	0x10
 1414 0552 07       		.uleb128 0x7
 1415 0553 455F4655 		.ascii "E_FUNC_STACKCHECK\0"
 1415      4E435F53 
 1415      5441434B 
 1415      43484543 
 1415      4B00
 1416 0565 11       		.byte	0x11
 1417 0566 07       		.uleb128 0x7
GAS LISTING C:\Users\PRESID~1\AppData\Local\Temp\ccDe376t.s 			page 37


 1418 0567 455F4655 		.ascii "E_FUNC_ISRHANDLER\0"
 1418      4E435F49 
 1418      53524841 
 1418      4E444C45 
 1418      5200
 1419 0579 12       		.byte	0x12
 1420 057a 07       		.uleb128 0x7
 1421 057b 455F4655 		.ascii "E_FUNC_STATE_HANDLER\0"
 1421      4E435F53 
 1421      54415445 
 1421      5F48414E 
 1421      444C4552 
 1422 0590 13       		.byte	0x13
 1423 0591 07       		.uleb128 0x7
 1424 0592 455F4655 		.ascii "E_FUNC_INTDIV\0"
 1424      4E435F49 
 1424      4E544449 
 1424      5600
 1425 05a0 14       		.byte	0x14
 1426 05a1 07       		.uleb128 0x7
 1427 05a2 455F4655 		.ascii "E_FUNC_SHIFT_LEFT\0"
 1427      4E435F53 
 1427      48494654 
 1427      5F4C4546 
 1427      5400
 1428 05b4 15       		.byte	0x15
 1429 05b5 00       		.byte	0
 1430 05b6 02       		.uleb128 0x2
 1431 05b7 6F735F73 		.ascii "os_sw_bugs_function_t\0"
 1431      775F6275 
 1431      67735F66 
 1431      756E6374 
 1431      696F6E5F 
 1432 05cd 03       		.byte	0x3
 1433 05ce 5C       		.byte	0x5c
 1434 05cf 24       		.byte	0x24
 1435 05d0 98030000 		.long	0x398
 1436 05d4 08       		.uleb128 0x8
 1437 05d5 6269675F 		.ascii "big_int_s\0"
 1437      696E745F 
 1437      7300
 1438 05df 10       		.byte	0x10
 1439 05e0 03       		.byte	0x3
 1440 05e1 63       		.byte	0x63
 1441 05e2 10       		.byte	0x10
 1442 05e3 F8050000 		.long	0x5f8
 1443 05e7 09       		.uleb128 0x9
 1444 05e8 6E756D62 		.ascii "number\0"
 1444      657200
 1445 05ef 03       		.byte	0x3
 1446 05f0 6C       		.byte	0x6c
 1447 05f1 0A       		.byte	0xa
 1448 05f2 F8050000 		.long	0x5f8
 1449 05f6 00       		.byte	0
 1450 05f7 00       		.byte	0
 1451 05f8 0A       		.uleb128 0xa
 1452 05f9 D2000000 		.long	0xd2
GAS LISTING C:\Users\PRESID~1\AppData\Local\Temp\ccDe376t.s 			page 38


 1453 05fd 08060000 		.long	0x608
 1454 0601 0B       		.uleb128 0xb
 1455 0602 5C030000 		.long	0x35c
 1456 0606 0F       		.byte	0xf
 1457 0607 00       		.byte	0
 1458 0608 02       		.uleb128 0x2
 1459 0609 6269675F 		.ascii "big_int\0"
 1459      696E7400 
 1460 0611 03       		.byte	0x3
 1461 0612 6D       		.byte	0x6d
 1462 0613 03       		.byte	0x3
 1463 0614 D4050000 		.long	0x5d4
 1464 0618 05       		.uleb128 0x5
 1465 0619 08060000 		.long	0x608
 1466 061d 02       		.uleb128 0x2
 1467 061e 74696D65 		.ascii "timebig_t\0"
 1467      6269675F 
 1467      7400
 1468 0628 03       		.byte	0x3
 1469 0629 6F       		.byte	0x6f
 1470 062a 11       		.byte	0x11
 1471 062b 08060000 		.long	0x608
 1472 062f 06       		.uleb128 0x6
 1473 0630 70726976 		.ascii "privilige_mode_e\0"
 1473      696C6967 
 1473      655F6D6F 
 1473      64655F65 
 1473      00
 1474 0641 07       		.byte	0x7
 1475 0642 04       		.byte	0x4
 1476 0643 5C030000 		.long	0x35c
 1477 0647 04       		.byte	0x4
 1478 0648 10       		.byte	0x10
 1479 0649 06       		.byte	0x6
 1480 064a CD060000 		.long	0x6cd
 1481 064e 07       		.uleb128 0x7
 1482 064f 455F5052 		.ascii "E_PRIVILIGEMODE_UNPRIVILIGED_THREAD_MODE\0"
 1482      4956494C 
 1482      4947454D 
 1482      4F44455F 
 1482      554E5052 
 1483 0678 00       		.byte	0
 1484 0679 07       		.uleb128 0x7
 1485 067a 455F5052 		.ascii "E_PRIVILIGEMODE_PRIVILIGED_THREAD_MODE\0"
 1485      4956494C 
 1485      4947454D 
 1485      4F44455F 
 1485      50524956 
 1486 06a1 01       		.byte	0x1
 1487 06a2 07       		.uleb128 0x7
 1488 06a3 455F5052 		.ascii "E_PRIVILIGEMODE_PRIVILIGED_HANDLER_MODE\0"
 1488      4956494C 
 1488      4947454D 
 1488      4F44455F 
 1488      50524956 
 1489 06cb 02       		.byte	0x2
 1490 06cc 00       		.byte	0
GAS LISTING C:\Users\PRESID~1\AppData\Local\Temp\ccDe376t.s 			page 39


 1491 06cd 02       		.uleb128 0x2
 1492 06ce 70726976 		.ascii "privilige_mode_t\0"
 1492      696C6967 
 1492      655F6D6F 
 1492      64655F74 
 1492      00
 1493 06df 04       		.byte	0x4
 1494 06e0 16       		.byte	0x16
 1495 06e1 20       		.byte	0x20
 1496 06e2 2F060000 		.long	0x62f
 1497 06e6 06       		.uleb128 0x6
 1498 06e7 7461736B 		.ascii "task_state_e\0"
 1498      5F737461 
 1498      74655F65 
 1498      00
 1499 06f4 07       		.byte	0x7
 1500 06f5 04       		.byte	0x4
 1501 06f6 5C030000 		.long	0x35c
 1502 06fa 05       		.byte	0x5
 1503 06fb 07       		.byte	0x7
 1504 06fc 06       		.byte	0x6
 1505 06fd 4A070000 		.long	0x74a
 1506 0701 07       		.uleb128 0x7
 1507 0702 455F5441 		.ascii "E_TASK_UNSPECIFIED\0"
 1507      534B5F55 
 1507      4E535045 
 1507      43494649 
 1507      454400
 1508 0715 00       		.byte	0
 1509 0716 07       		.uleb128 0x7
 1510 0717 455F5441 		.ascii "E_TASK_SUSPENDED\0"
 1510      534B5F53 
 1510      55535045 
 1510      4E444544 
 1510      00
 1511 0728 01       		.byte	0x1
 1512 0729 07       		.uleb128 0x7
 1513 072a 455F5441 		.ascii "E_TASK_READY\0"
 1513      534B5F52 
 1513      45414459 
 1513      00
 1514 0737 02       		.byte	0x2
 1515 0738 07       		.uleb128 0x7
 1516 0739 455F5441 		.ascii "E_TASK_RUNNING\0"
 1516      534B5F52 
 1516      554E4E49 
 1516      4E4700
 1517 0748 03       		.byte	0x3
 1518 0749 00       		.byte	0
 1519 074a 02       		.uleb128 0x2
 1520 074b 7461736B 		.ascii "task_state_t\0"
 1520      5F737461 
 1520      74655F74 
 1520      00
 1521 0758 05       		.byte	0x5
 1522 0759 0E       		.byte	0xe
 1523 075a 1B       		.byte	0x1b
GAS LISTING C:\Users\PRESID~1\AppData\Local\Temp\ccDe376t.s 			page 40


 1524 075b E6060000 		.long	0x6e6
 1525 075f 02       		.uleb128 0x2
 1526 0760 66756E63 		.ascii "func_p_t\0"
 1526      5F705F74 
 1526      00
 1527 0769 05       		.byte	0x5
 1528 076a 13       		.byte	0x13
 1529 076b 1B       		.byte	0x1b
 1530 076c 70070000 		.long	0x770
 1531 0770 0C       		.uleb128 0xc
 1532 0771 04       		.byte	0x4
 1533 0772 76070000 		.long	0x776
 1534 0776 0D       		.uleb128 0xd
 1535 0777 81070000 		.long	0x781
 1536 077b 0E       		.uleb128 0xe
 1537 077c 81070000 		.long	0x781
 1538 0780 00       		.byte	0
 1539 0781 0F       		.uleb128 0xf
 1540 0782 04       		.byte	0x4
 1541 0783 02       		.uleb128 0x2
 1542 0784 66756E63 		.ascii "func_p_state_change_t\0"
 1542      5F705F73 
 1542      74617465 
 1542      5F636861 
 1542      6E67655F 
 1543 079a 05       		.byte	0x5
 1544 079b 15       		.byte	0x15
 1545 079c 1B       		.byte	0x1b
 1546 079d A1070000 		.long	0x7a1
 1547 07a1 0C       		.uleb128 0xc
 1548 07a2 04       		.byte	0x4
 1549 07a3 A7070000 		.long	0x7a7
 1550 07a7 10       		.uleb128 0x10
 1551 07a8 9A000000 		.long	0x9a
 1552 07ac BB070000 		.long	0x7bb
 1553 07b0 0E       		.uleb128 0xe
 1554 07b1 81070000 		.long	0x781
 1555 07b5 0E       		.uleb128 0xe
 1556 07b6 4A070000 		.long	0x74a
 1557 07ba 00       		.byte	0
 1558 07bb 08       		.uleb128 0x8
 1559 07bc 7461736B 		.ascii "task_group_s\0"
 1559      5F67726F 
 1559      75705F73 
 1559      00
 1560 07c9 20       		.byte	0x20
 1561 07ca 05       		.byte	0x5
 1562 07cb 18       		.byte	0x18
 1563 07cc 08       		.byte	0x8
 1564 07cd F6070000 		.long	0x7f6
 1565 07d1 11       		.uleb128 0x11
 1566 07d2 12000000 		.secrel32	LASF0
 1567 07d6 05       		.byte	0x5
 1568 07d7 1A       		.byte	0x1a
 1569 07d8 0E       		.byte	0xe
 1570 07d9 1D060000 		.long	0x61d
 1571 07dd 00       		.byte	0
GAS LISTING C:\Users\PRESID~1\AppData\Local\Temp\ccDe376t.s 			page 41


 1572 07de 09       		.uleb128 0x9
 1573 07df 66616972 		.ascii "fair_exe_time\0"
 1573      5F657865 
 1573      5F74696D 
 1573      6500
 1574 07ed 05       		.byte	0x5
 1575 07ee 1B       		.byte	0x1b
 1576 07ef 0E       		.byte	0xe
 1577 07f0 1D060000 		.long	0x61d
 1578 07f4 10       		.byte	0x10
 1579 07f5 00       		.byte	0
 1580 07f6 02       		.uleb128 0x2
 1581 07f7 7461736B 		.ascii "task_group_t\0"
 1581      5F67726F 
 1581      75705F74 
 1581      00
 1582 0804 05       		.byte	0x5
 1583 0805 1D       		.byte	0x1d
 1584 0806 1D       		.byte	0x1d
 1585 0807 BB070000 		.long	0x7bb
 1586 080b 08       		.uleb128 0x8
 1587 080c 7461736B 		.ascii "task_s\0"
 1587      5F7300
 1588 0813 AC       		.byte	0xac
 1589 0814 05       		.byte	0x5
 1590 0815 1F       		.byte	0x1f
 1591 0816 08       		.byte	0x8
 1592 0817 B70A0000 		.long	0xab7
 1593 081b 12       		.uleb128 0x12
 1594 081c 61637469 		.ascii "active\0"
 1594      766500
 1595 0823 05       		.byte	0x5
 1596 0824 21       		.byte	0x21
 1597 0825 0D       		.byte	0xd
 1598 0826 5C030000 		.long	0x35c
 1599 082a 04       		.byte	0x4
 1600 082b 01       		.byte	0x1
 1601 082c 1F       		.byte	0x1f
 1602 082d 00       		.byte	0
 1603 082e 12       		.uleb128 0x12
 1604 082f 7461736B 		.ascii "task_queued\0"
 1604      5F717565 
 1604      75656400 
 1605 083b 05       		.byte	0x5
 1606 083c 22       		.byte	0x22
 1607 083d 0D       		.byte	0xd
 1608 083e 5C030000 		.long	0x35c
 1609 0842 04       		.byte	0x4
 1610 0843 01       		.byte	0x1
 1611 0844 1E       		.byte	0x1e
 1612 0845 00       		.byte	0
 1613 0846 12       		.uleb128 0x12
 1614 0847 69646C65 		.ascii "idle_task\0"
 1614      5F746173 
 1614      6B00
 1615 0851 05       		.byte	0x5
 1616 0852 23       		.byte	0x23
GAS LISTING C:\Users\PRESID~1\AppData\Local\Temp\ccDe376t.s 			page 42


 1617 0853 0D       		.byte	0xd
 1618 0854 5C030000 		.long	0x35c
 1619 0858 04       		.byte	0x4
 1620 0859 01       		.byte	0x1
 1621 085a 1D       		.byte	0x1d
 1622 085b 00       		.byte	0
 1623 085c 12       		.uleb128 0x12
 1624 085d 66726565 		.ascii "free\0"
 1624      00
 1625 0862 05       		.byte	0x5
 1626 0863 24       		.byte	0x24
 1627 0864 0D       		.byte	0xd
 1628 0865 5C030000 		.long	0x35c
 1629 0869 04       		.byte	0x4
 1630 086a 1D       		.byte	0x1d
 1631 086b 00       		.byte	0
 1632 086c 00       		.byte	0
 1633 086d 09       		.uleb128 0x9
 1634 086e 6E725F6F 		.ascii "nr_of_ins_allowed\0"
 1634      665F696E 
 1634      735F616C 
 1634      6C6F7765 
 1634      6400
 1635 0880 05       		.byte	0x5
 1636 0881 25       		.byte	0x25
 1637 0882 14       		.byte	0x14
 1638 0883 9A000000 		.long	0x9a
 1639 0887 04       		.byte	0x4
 1640 0888 09       		.uleb128 0x9
 1641 0889 6E725F6F 		.ascii "nr_of_ins_activated\0"
 1641      665F696E 
 1641      735F6163 
 1641      74697661 
 1641      74656400 
 1642 089d 05       		.byte	0x5
 1643 089e 26       		.byte	0x26
 1644 089f 14       		.byte	0x14
 1645 08a0 9A000000 		.long	0x9a
 1646 08a4 05       		.byte	0x5
 1647 08a5 09       		.uleb128 0x9
 1648 08a6 77616974 		.ascii "wait_act_until\0"
 1648      5F616374 
 1648      5F756E74 
 1648      696C00
 1649 08b5 05       		.byte	0x5
 1650 08b6 27       		.byte	0x27
 1651 08b7 0E       		.byte	0xe
 1652 08b8 1D060000 		.long	0x61d
 1653 08bc 06       		.byte	0x6
 1654 08bd 09       		.uleb128 0x9
 1655 08be 77616974 		.ascii "wait_time\0"
 1655      5F74696D 
 1655      6500
 1656 08c8 05       		.byte	0x5
 1657 08c9 28       		.byte	0x28
 1658 08ca 0E       		.byte	0xe
 1659 08cb 1D060000 		.long	0x61d
GAS LISTING C:\Users\PRESID~1\AppData\Local\Temp\ccDe376t.s 			page 43


 1660 08cf 16       		.byte	0x16
 1661 08d0 09       		.uleb128 0x9
 1662 08d1 74696D65 		.ascii "time_to_prio_inc\0"
 1662      5F746F5F 
 1662      7072696F 
 1662      5F696E63 
 1662      00
 1663 08e2 05       		.byte	0x5
 1664 08e3 29       		.byte	0x29
 1665 08e4 0E       		.byte	0xe
 1666 08e5 1D060000 		.long	0x61d
 1667 08e9 26       		.byte	0x26
 1668 08ea 09       		.uleb128 0x9
 1669 08eb 6F766572 		.ascii "overwaittime_per_prio_inc_step\0"
 1669      77616974 
 1669      74696D65 
 1669      5F706572 
 1669      5F707269 
 1670 090a 05       		.byte	0x5
 1671 090b 2A       		.byte	0x2a
 1672 090c 0B       		.byte	0xb
 1673 090d 5A010000 		.long	0x15a
 1674 0911 38       		.byte	0x38
 1675 0912 09       		.uleb128 0x9
 1676 0913 6D61785F 		.ascii "max_allowed_wait_time\0"
 1676      616C6C6F 
 1676      7765645F 
 1676      77616974 
 1676      5F74696D 
 1677 0929 05       		.byte	0x5
 1678 092a 2B       		.byte	0x2b
 1679 092b 0E       		.byte	0xe
 1680 092c 1D060000 		.long	0x61d
 1681 0930 3C       		.byte	0x3c
 1682 0931 11       		.uleb128 0x11
 1683 0932 12000000 		.secrel32	LASF0
 1684 0936 05       		.byte	0x5
 1685 0937 2C       		.byte	0x2c
 1686 0938 0E       		.byte	0xe
 1687 0939 1D060000 		.long	0x61d
 1688 093d 4C       		.byte	0x4c
 1689 093e 09       		.uleb128 0x9
 1690 093f 73746172 		.ascii "start_time\0"
 1690      745F7469 
 1690      6D6500
 1691 094a 05       		.byte	0x5
 1692 094b 2D       		.byte	0x2d
 1693 094c 0E       		.byte	0xe
 1694 094d 1D060000 		.long	0x61d
 1695 0951 5C       		.byte	0x5c
 1696 0952 09       		.uleb128 0x9
 1697 0953 63757272 		.ascii "current_prio\0"
 1697      656E745F 
 1697      7072696F 
 1697      00
 1698 0960 05       		.byte	0x5
 1699 0961 2E       		.byte	0x2e
GAS LISTING C:\Users\PRESID~1\AppData\Local\Temp\ccDe376t.s 			page 44


 1700 0962 14       		.byte	0x14
 1701 0963 9A000000 		.long	0x9a
 1702 0967 6C       		.byte	0x6c
 1703 0968 09       		.uleb128 0x9
 1704 0969 64656661 		.ascii "default_prio\0"
 1704      756C745F 
 1704      7072696F 
 1704      00
 1705 0976 05       		.byte	0x5
 1706 0977 2F       		.byte	0x2f
 1707 0978 14       		.byte	0x14
 1708 0979 9A000000 		.long	0x9a
 1709 097d 6D       		.byte	0x6d
 1710 097e 09       		.uleb128 0x9
 1711 097f 7461736B 		.ascii "task_number\0"
 1711      5F6E756D 
 1711      62657200 
 1712 098b 05       		.byte	0x5
 1713 098c 30       		.byte	0x30
 1714 098d 15       		.byte	0x15
 1715 098e 20010000 		.long	0x120
 1716 0992 70       		.byte	0x70
 1717 0993 09       		.uleb128 0x9
 1718 0994 667000   		.ascii "fp\0"
 1719 0997 05       		.byte	0x5
 1720 0998 31       		.byte	0x31
 1721 0999 0D       		.byte	0xd
 1722 099a 5F070000 		.long	0x75f
 1723 099e 74       		.byte	0x74
 1724 099f 09       		.uleb128 0x9
 1725 09a0 73746174 		.ascii "state_request\0"
 1725      655F7265 
 1725      71756573 
 1725      7400
 1726 09ae 05       		.byte	0x5
 1727 09af 32       		.byte	0x32
 1728 09b0 1A       		.byte	0x1a
 1729 09b1 83070000 		.long	0x783
 1730 09b5 78       		.byte	0x78
 1731 09b6 09       		.uleb128 0x9
 1732 09b7 7461736B 		.ascii "task_state\0"
 1732      5F737461 
 1732      746500
 1733 09c2 05       		.byte	0x5
 1734 09c3 33       		.byte	0x33
 1735 09c4 11       		.byte	0x11
 1736 09c5 4A070000 		.long	0x74a
 1737 09c9 7C       		.byte	0x7c
 1738 09ca 09       		.uleb128 0x9
 1739 09cb 7461736B 		.ascii "task_group\0"
 1739      5F67726F 
 1739      757000
 1740 09d6 05       		.byte	0x5
 1741 09d7 34       		.byte	0x34
 1742 09d8 12       		.byte	0x12
 1743 09d9 B70A0000 		.long	0xab7
 1744 09dd 80       		.byte	0x80
GAS LISTING C:\Users\PRESID~1\AppData\Local\Temp\ccDe376t.s 			page 45


 1745 09de 09       		.uleb128 0x9
 1746 09df 65617800 		.ascii "eax\0"
 1747 09e3 05       		.byte	0x5
 1748 09e4 36       		.byte	0x36
 1749 09e5 15       		.byte	0x15
 1750 09e6 20010000 		.long	0x120
 1751 09ea 84       		.byte	0x84
 1752 09eb 09       		.uleb128 0x9
 1753 09ec 65627800 		.ascii "ebx\0"
 1754 09f0 05       		.byte	0x5
 1755 09f1 37       		.byte	0x37
 1756 09f2 15       		.byte	0x15
 1757 09f3 20010000 		.long	0x120
 1758 09f7 88       		.byte	0x88
 1759 09f8 09       		.uleb128 0x9
 1760 09f9 65637800 		.ascii "ecx\0"
 1761 09fd 05       		.byte	0x5
 1762 09fe 38       		.byte	0x38
 1763 09ff 15       		.byte	0x15
 1764 0a00 20010000 		.long	0x120
 1765 0a04 8C       		.byte	0x8c
 1766 0a05 09       		.uleb128 0x9
 1767 0a06 65647800 		.ascii "edx\0"
 1768 0a0a 05       		.byte	0x5
 1769 0a0b 39       		.byte	0x39
 1770 0a0c 15       		.byte	0x15
 1771 0a0d 20010000 		.long	0x120
 1772 0a11 90       		.byte	0x90
 1773 0a12 09       		.uleb128 0x9
 1774 0a13 705F7374 		.ascii "p_stack_pointer\0"
 1774      61636B5F 
 1774      706F696E 
 1774      74657200 
 1775 0a23 05       		.byte	0x5
 1776 0a24 49       		.byte	0x49
 1777 0a25 15       		.byte	0x15
 1778 0a26 BD0A0000 		.long	0xabd
 1779 0a2a 94       		.byte	0x94
 1780 0a2b 09       		.uleb128 0x9
 1781 0a2c 705F7374 		.ascii "p_stack_pointer_by_malloc\0"
 1781      61636B5F 
 1781      706F696E 
 1781      7465725F 
 1781      62795F6D 
 1782 0a46 05       		.byte	0x5
 1783 0a47 4A       		.byte	0x4a
 1784 0a48 15       		.byte	0x15
 1785 0a49 BD0A0000 		.long	0xabd
 1786 0a4d 98       		.byte	0x98
 1787 0a4e 09       		.uleb128 0x9
 1788 0a4f 705F7374 		.ascii "p_stack_pointer_start\0"
 1788      61636B5F 
 1788      706F696E 
 1788      7465725F 
 1788      73746172 
 1789 0a65 05       		.byte	0x5
 1790 0a66 4B       		.byte	0x4b
GAS LISTING C:\Users\PRESID~1\AppData\Local\Temp\ccDe376t.s 			page 46


 1791 0a67 15       		.byte	0x15
 1792 0a68 BD0A0000 		.long	0xabd
 1793 0a6c 9C       		.byte	0x9c
 1794 0a6d 09       		.uleb128 0x9
 1795 0a6e 73746163 		.ascii "stack_size\0"
 1795      6B5F7369 
 1795      7A6500
 1796 0a79 05       		.byte	0x5
 1797 0a7a 4C       		.byte	0x4c
 1798 0a7b 16       		.byte	0x16
 1799 0a7c 20010000 		.long	0x120
 1800 0a80 A0       		.byte	0xa0
 1801 0a81 09       		.uleb128 0x9
 1802 0a82 705F7374 		.ascii "p_stack_pointer_end\0"
 1802      61636B5F 
 1802      706F696E 
 1802      7465725F 
 1802      656E6400 
 1803 0a96 05       		.byte	0x5
 1804 0a97 4D       		.byte	0x4d
 1805 0a98 15       		.byte	0x15
 1806 0a99 BD0A0000 		.long	0xabd
 1807 0a9d A4       		.byte	0xa4
 1808 0a9e 09       		.uleb128 0x9
 1809 0a9f 70726976 		.ascii "privilige_mode\0"
 1809      696C6967 
 1809      655F6D6F 
 1809      646500
 1810 0aae 05       		.byte	0x5
 1811 0aaf 4E       		.byte	0x4e
 1812 0ab0 15       		.byte	0x15
 1813 0ab1 CD060000 		.long	0x6cd
 1814 0ab5 A8       		.byte	0xa8
 1815 0ab6 00       		.byte	0
 1816 0ab7 0C       		.uleb128 0xc
 1817 0ab8 04       		.byte	0x4
 1818 0ab9 F6070000 		.long	0x7f6
 1819 0abd 0C       		.uleb128 0xc
 1820 0abe 04       		.byte	0x4
 1821 0abf 9A000000 		.long	0x9a
 1822 0ac3 02       		.uleb128 0x2
 1823 0ac4 7461736B 		.ascii "task_t\0"
 1823      5F7400
 1824 0acb 05       		.byte	0x5
 1825 0acc 50       		.byte	0x50
 1826 0acd 17       		.byte	0x17
 1827 0ace 0B080000 		.long	0x80b
 1828 0ad2 02       		.uleb128 0x2
 1829 0ad3 73636865 		.ascii "scheduling_t\0"
 1829      64756C69 
 1829      6E675F74 
 1829      00
 1830 0ae0 05       		.byte	0x5
 1831 0ae1 51       		.byte	0x51
 1832 0ae2 11       		.byte	0x11
 1833 0ae3 E70A0000 		.long	0xae7
 1834 0ae7 0C       		.uleb128 0xc
GAS LISTING C:\Users\PRESID~1\AppData\Local\Temp\ccDe376t.s 			page 47


 1835 0ae8 04       		.byte	0x4
 1836 0ae9 C30A0000 		.long	0xac3
 1837 0aed 0A       		.uleb128 0xa
 1838 0aee E70A0000 		.long	0xae7
 1839 0af2 FD0A0000 		.long	0xafd
 1840 0af6 0B       		.uleb128 0xb
 1841 0af7 5C030000 		.long	0x35c
 1842 0afb 09       		.byte	0x9
 1843 0afc 00       		.byte	0
 1844 0afd 13       		.uleb128 0x13
 1845 0afe 5441534B 		.ascii "TASK_PTR\0"
 1845      5F505452 
 1845      00
 1846 0b07 05       		.byte	0x5
 1847 0b08 5B       		.byte	0x5b
 1848 0b09 10       		.byte	0x10
 1849 0b0a ED0A0000 		.long	0xaed
 1850 0b0e 02       		.uleb128 0x2
 1851 0b0f 73636865 		.ascii "scheduler_time_t\0"
 1851      64756C65 
 1851      725F7469 
 1851      6D655F74 
 1851      00
 1852 0b20 05       		.byte	0x5
 1853 0b21 5D       		.byte	0x5d
 1854 0b22 13       		.byte	0x13
 1855 0b23 1D060000 		.long	0x61d
 1856 0b27 06       		.uleb128 0x6
 1857 0b28 6F735F73 		.ascii "os_state_e\0"
 1857      74617465 
 1857      5F6500
 1858 0b33 07       		.byte	0x7
 1859 0b34 04       		.byte	0x4
 1860 0b35 5C030000 		.long	0x35c
 1861 0b39 06       		.byte	0x6
 1862 0b3a 04       		.byte	0x4
 1863 0b3b 06       		.byte	0x6
 1864 0b3c 780B0000 		.long	0xb78
 1865 0b40 07       		.uleb128 0x7
 1866 0b41 4F535F53 		.ascii "OS_STATE_INIT\0"
 1866      54415445 
 1866      5F494E49 
 1866      5400
 1867 0b4f 00       		.byte	0
 1868 0b50 07       		.uleb128 0x7
 1869 0b51 4F535F53 		.ascii "OS_STATE_RUNNING\0"
 1869      54415445 
 1869      5F52554E 
 1869      4E494E47 
 1869      00
 1870 0b62 01       		.byte	0x1
 1871 0b63 07       		.uleb128 0x7
 1872 0b64 4F535F53 		.ascii "OS_STATE_SHUTDOWN\0"
 1872      54415445 
 1872      5F534855 
 1872      54444F57 
 1872      4E00
GAS LISTING C:\Users\PRESID~1\AppData\Local\Temp\ccDe376t.s 			page 48


 1873 0b76 02       		.byte	0x2
 1874 0b77 00       		.byte	0
 1875 0b78 02       		.uleb128 0x2
 1876 0b79 6F735F73 		.ascii "os_state_t\0"
 1876      74617465 
 1876      5F7400
 1877 0b84 06       		.byte	0x6
 1878 0b85 0A       		.byte	0xa
 1879 0b86 19       		.byte	0x19
 1880 0b87 270B0000 		.long	0xb27
 1881 0b8b 04       		.uleb128 0x4
 1882 0b8c 780B0000 		.long	0xb78
 1883 0b90 0A       		.uleb128 0xa
 1884 0b91 9A000000 		.long	0x9a
 1885 0b95 A10B0000 		.long	0xba1
 1886 0b99 14       		.uleb128 0x14
 1887 0b9a 5C030000 		.long	0x35c
 1888 0b9e 0F27     		.word	0x270f
 1889 0ba0 00       		.byte	0
 1890 0ba1 13       		.uleb128 0x13
 1891 0ba2 48454150 		.ascii "HEAP\0"
 1891      00
 1892 0ba7 07       		.byte	0x7
 1893 0ba8 0B       		.byte	0xb
 1894 0ba9 18       		.byte	0x18
 1895 0baa 900B0000 		.long	0xb90
 1896 0bae 0A       		.uleb128 0xa
 1897 0baf 81030000 		.long	0x381
 1898 0bb3 BE0B0000 		.long	0xbbe
 1899 0bb7 0B       		.uleb128 0xb
 1900 0bb8 5C030000 		.long	0x35c
 1901 0bbc 15       		.byte	0x15
 1902 0bbd 00       		.byte	0
 1903 0bbe 04       		.uleb128 0x4
 1904 0bbf AE0B0000 		.long	0xbae
 1905 0bc3 13       		.uleb128 0x13
 1906 0bc4 4F535F53 		.ascii "OS_SW_BUG\0"
 1906      575F4255 
 1906      4700
 1907 0bce 07       		.byte	0x7
 1908 0bcf 0E       		.byte	0xe
 1909 0bd0 1E       		.byte	0x1e
 1910 0bd1 BE0B0000 		.long	0xbbe
 1911 0bd5 13       		.uleb128 0x13
 1912 0bd6 4F535F53 		.ascii "OS_STATE\0"
 1912      54415445 
 1912      00
 1913 0bdf 07       		.byte	0x7
 1914 0be0 0F       		.byte	0xf
 1915 0be1 1C       		.byte	0x1c
 1916 0be2 8B0B0000 		.long	0xb8b
 1917 0be6 13       		.uleb128 0x13
 1918 0be7 5641525F 		.ascii "VAR_HARDFAULT_STATUS_REG\0"
 1918      48415244 
 1918      4641554C 
 1918      545F5354 
 1918      41545553 
GAS LISTING C:\Users\PRESID~1\AppData\Local\Temp\ccDe376t.s 			page 49


 1919 0c00 07       		.byte	0x7
 1920 0c01 10       		.byte	0x10
 1921 0c02 18       		.byte	0x18
 1922 0c03 69010000 		.long	0x169
 1923 0c07 13       		.uleb128 0x13
 1924 0c08 5641525F 		.ascii "VAR_MEM_MANAG_FAULT_STATUS_REG\0"
 1924      4D454D5F 
 1924      4D414E41 
 1924      475F4641 
 1924      554C545F 
 1925 0c27 07       		.byte	0x7
 1926 0c28 11       		.byte	0x11
 1927 0c29 18       		.byte	0x18
 1928 0c2a 69010000 		.long	0x169
 1929 0c2e 13       		.uleb128 0x13
 1930 0c2f 5641525F 		.ascii "VAR_USAGE_FAULT_STATUS_REG\0"
 1930      55534147 
 1930      455F4641 
 1930      554C545F 
 1930      53544154 
 1931 0c4a 07       		.byte	0x7
 1932 0c4b 12       		.byte	0x12
 1933 0c4c 18       		.byte	0x18
 1934 0c4d 69010000 		.long	0x169
 1935 0c51 13       		.uleb128 0x13
 1936 0c52 5641525F 		.ascii "VAR_FAULT_STATUS_REG\0"
 1936      4641554C 
 1936      545F5354 
 1936      41545553 
 1936      5F524547 
 1937 0c67 07       		.byte	0x7
 1938 0c68 13       		.byte	0x13
 1939 0c69 18       		.byte	0x18
 1940 0c6a 69010000 		.long	0x169
 1941 0c6e 13       		.uleb128 0x13
 1942 0c6f 5641525F 		.ascii "VAR_MEM_FAULT_ADDR_REG\0"
 1942      4D454D5F 
 1942      4641554C 
 1942      545F4144 
 1942      44525F52 
 1943 0c86 07       		.byte	0x7
 1944 0c87 14       		.byte	0x14
 1945 0c88 18       		.byte	0x18
 1946 0c89 69010000 		.long	0x169
 1947 0c8d 13       		.uleb128 0x13
 1948 0c8e 5641525F 		.ascii "VAR_BUS_FAULT_ADDR_REG\0"
 1948      4255535F 
 1948      4641554C 
 1948      545F4144 
 1948      44525F52 
 1949 0ca5 07       		.byte	0x7
 1950 0ca6 15       		.byte	0x15
 1951 0ca7 18       		.byte	0x18
 1952 0ca8 69010000 		.long	0x169
 1953 0cac 13       		.uleb128 0x13
 1954 0cad 5641525F 		.ascii "VAR_AUX_FAULT_STATUS_REG\0"
 1954      4155585F 
GAS LISTING C:\Users\PRESID~1\AppData\Local\Temp\ccDe376t.s 			page 50


 1954      4641554C 
 1954      545F5354 
 1954      41545553 
 1955 0cc6 07       		.byte	0x7
 1956 0cc7 16       		.byte	0x16
 1957 0cc8 18       		.byte	0x18
 1958 0cc9 69010000 		.long	0x169
 1959 0ccd 13       		.uleb128 0x13
 1960 0cce 5641525F 		.ascii "VAR_BUS_FAULT_STATUS_REG\0"
 1960      4255535F 
 1960      4641554C 
 1960      545F5354 
 1960      41545553 
 1961 0ce7 07       		.byte	0x7
 1962 0ce8 17       		.byte	0x17
 1963 0ce9 18       		.byte	0x18
 1964 0cea 69010000 		.long	0x169
 1965 0cee 13       		.uleb128 0x13
 1966 0cef 4C494E4B 		.ascii "LINK_REGISTER_HANDLER\0"
 1966      5F524547 
 1966      49535445 
 1966      525F4841 
 1966      4E444C45 
 1967 0d05 07       		.byte	0x7
 1968 0d06 18       		.byte	0x18
 1969 0d07 18       		.byte	0x18
 1970 0d08 69010000 		.long	0x169
 1971 0d0c 13       		.uleb128 0x13
 1972 0d0d 4241434B 		.ascii "BACKUP_SYSTICK_CURRENT_VAL_REG\0"
 1972      55505F53 
 1972      59535449 
 1972      434B5F43 
 1972      55525245 
 1973 0d2c 07       		.byte	0x7
 1974 0d2d 19       		.byte	0x19
 1975 0d2e 18       		.byte	0x18
 1976 0d2f 69010000 		.long	0x169
 1977 0d33 13       		.uleb128 0x13
 1978 0d34 4442475F 		.ascii "DBG_RLD_VALUE\0"
 1978      524C445F 
 1978      56414C55 
 1978      4500
 1979 0d42 07       		.byte	0x7
 1980 0d43 1A       		.byte	0x1a
 1981 0d44 18       		.byte	0x18
 1982 0d45 69010000 		.long	0x169
 1983 0d49 13       		.uleb128 0x13
 1984 0d4a 4442475F 		.ascii "DBG_CURR_VAL\0"
 1984      43555252 
 1984      5F56414C 
 1984      00
 1985 0d57 07       		.byte	0x7
 1986 0d58 1B       		.byte	0x1b
 1987 0d59 18       		.byte	0x18
 1988 0d5a 69010000 		.long	0x169
 1989 0d5e 13       		.uleb128 0x13
 1990 0d5f 4442475F 		.ascii "DBG_CTRL_VALUE\0"
GAS LISTING C:\Users\PRESID~1\AppData\Local\Temp\ccDe376t.s 			page 51


 1990      4354524C 
 1990      5F56414C 
 1990      554500
 1991 0d6e 07       		.byte	0x7
 1992 0d6f 1C       		.byte	0x1c
 1993 0d70 18       		.byte	0x18
 1994 0d71 69010000 		.long	0x169
 1995 0d75 13       		.uleb128 0x13
 1996 0d76 4442475F 		.ascii "DBG_CALIB_VALUE\0"
 1996      43414C49 
 1996      425F5641 
 1996      4C554500 
 1997 0d86 07       		.byte	0x7
 1998 0d87 1D       		.byte	0x1d
 1999 0d88 18       		.byte	0x18
 2000 0d89 69010000 		.long	0x169
 2001 0d8d 13       		.uleb128 0x13
 2002 0d8e 5441534B 		.ascii "TASK1_CALL_NR\0"
 2002      315F4341 
 2002      4C4C5F4E 
 2002      5200
 2003 0d9c 07       		.byte	0x7
 2004 0d9d 1E       		.byte	0x1e
 2005 0d9e 18       		.byte	0x18
 2006 0d9f 69010000 		.long	0x169
 2007 0da3 13       		.uleb128 0x13
 2008 0da4 5441534B 		.ascii "TASK2_CALL_NR\0"
 2008      325F4341 
 2008      4C4C5F4E 
 2008      5200
 2009 0db2 07       		.byte	0x7
 2010 0db3 1F       		.byte	0x1f
 2011 0db4 18       		.byte	0x18
 2012 0db5 69010000 		.long	0x169
 2013 0db9 13       		.uleb128 0x13
 2014 0dba 5441534B 		.ascii "TASK3_CALL_NR\0"
 2014      335F4341 
 2014      4C4C5F4E 
 2014      5200
 2015 0dc8 07       		.byte	0x7
 2016 0dc9 20       		.byte	0x20
 2017 0dca 18       		.byte	0x18
 2018 0dcb 69010000 		.long	0x169
 2019 0dcf 13       		.uleb128 0x13
 2020 0dd0 5441534B 		.ascii "TASK4_CALL_NR\0"
 2020      345F4341 
 2020      4C4C5F4E 
 2020      5200
 2021 0dde 07       		.byte	0x7
 2022 0ddf 21       		.byte	0x21
 2023 0de0 18       		.byte	0x18
 2024 0de1 69010000 		.long	0x169
 2025 0de5 13       		.uleb128 0x13
 2026 0de6 4F535F4D 		.ascii "OS_MAIN_STACK_ADDR\0"
 2026      41494E5F 
 2026      53544143 
 2026      4B5F4144 
GAS LISTING C:\Users\PRESID~1\AppData\Local\Temp\ccDe376t.s 			page 52


 2026      445200
 2027 0df9 07       		.byte	0x7
 2028 0dfa 23       		.byte	0x23
 2029 0dfb 19       		.byte	0x19
 2030 0dfc 000E0000 		.long	0xe00
 2031 0e00 0C       		.uleb128 0xc
 2032 0e01 04       		.byte	0x4
 2033 0e02 69010000 		.long	0x169
 2034 0e06 13       		.uleb128 0x13
 2035 0e07 4F535F4D 		.ascii "OS_MAIN_STACK_POS\0"
 2035      41494E5F 
 2035      53544143 
 2035      4B5F504F 
 2035      5300
 2036 0e19 07       		.byte	0x7
 2037 0e1a 24       		.byte	0x24
 2038 0e1b 19       		.byte	0x19
 2039 0e1c 69010000 		.long	0x169
 2040 0e20 13       		.uleb128 0x13
 2041 0e21 4F535F4D 		.ascii "OS_MAIN_STACK_USAGE_PERCENT\0"
 2041      41494E5F 
 2041      53544143 
 2041      4B5F5553 
 2041      4147455F 
 2042 0e3d 07       		.byte	0x7
 2043 0e3e 25       		.byte	0x25
 2044 0e3f 19       		.byte	0x19
 2045 0e40 69010000 		.long	0x169
 2046 0e44 13       		.uleb128 0x13
 2047 0e45 5441534B 		.ascii "TASK0_STACK_ADDR\0"
 2047      305F5354 
 2047      41434B5F 
 2047      41444452 
 2047      00
 2048 0e56 07       		.byte	0x7
 2049 0e57 26       		.byte	0x26
 2050 0e58 19       		.byte	0x19
 2051 0e59 000E0000 		.long	0xe00
 2052 0e5d 13       		.uleb128 0x13
 2053 0e5e 5441534B 		.ascii "TASK0_STACK_POS\0"
 2053      305F5354 
 2053      41434B5F 
 2053      504F5300 
 2054 0e6e 07       		.byte	0x7
 2055 0e6f 27       		.byte	0x27
 2056 0e70 19       		.byte	0x19
 2057 0e71 69010000 		.long	0x169
 2058 0e75 13       		.uleb128 0x13
 2059 0e76 5441534B 		.ascii "TASK0_STACK_USAGE_PERCENT\0"
 2059      305F5354 
 2059      41434B5F 
 2059      55534147 
 2059      455F5045 
 2060 0e90 07       		.byte	0x7
 2061 0e91 28       		.byte	0x28
 2062 0e92 19       		.byte	0x19
 2063 0e93 69010000 		.long	0x169
GAS LISTING C:\Users\PRESID~1\AppData\Local\Temp\ccDe376t.s 			page 53


 2064 0e97 13       		.uleb128 0x13
 2065 0e98 5441534B 		.ascii "TASK1_STACK_ADDR\0"
 2065      315F5354 
 2065      41434B5F 
 2065      41444452 
 2065      00
 2066 0ea9 07       		.byte	0x7
 2067 0eaa 29       		.byte	0x29
 2068 0eab 19       		.byte	0x19
 2069 0eac 000E0000 		.long	0xe00
 2070 0eb0 13       		.uleb128 0x13
 2071 0eb1 5441534B 		.ascii "TASK1_STACK_POS\0"
 2071      315F5354 
 2071      41434B5F 
 2071      504F5300 
 2072 0ec1 07       		.byte	0x7
 2073 0ec2 2A       		.byte	0x2a
 2074 0ec3 19       		.byte	0x19
 2075 0ec4 69010000 		.long	0x169
 2076 0ec8 13       		.uleb128 0x13
 2077 0ec9 5441534B 		.ascii "TASK1_STACK_USAGE_PERCENT\0"
 2077      315F5354 
 2077      41434B5F 
 2077      55534147 
 2077      455F5045 
 2078 0ee3 07       		.byte	0x7
 2079 0ee4 2B       		.byte	0x2b
 2080 0ee5 19       		.byte	0x19
 2081 0ee6 69010000 		.long	0x169
 2082 0eea 13       		.uleb128 0x13
 2083 0eeb 5441534B 		.ascii "TASK2_STACK_ADDR\0"
 2083      325F5354 
 2083      41434B5F 
 2083      41444452 
 2083      00
 2084 0efc 07       		.byte	0x7
 2085 0efd 2C       		.byte	0x2c
 2086 0efe 19       		.byte	0x19
 2087 0eff 000E0000 		.long	0xe00
 2088 0f03 13       		.uleb128 0x13
 2089 0f04 5441534B 		.ascii "TASK2_STACK_POS\0"
 2089      325F5354 
 2089      41434B5F 
 2089      504F5300 
 2090 0f14 07       		.byte	0x7
 2091 0f15 2D       		.byte	0x2d
 2092 0f16 19       		.byte	0x19
 2093 0f17 69010000 		.long	0x169
 2094 0f1b 13       		.uleb128 0x13
 2095 0f1c 5441534B 		.ascii "TASK2_STACK_USAGE_PERCENT\0"
 2095      325F5354 
 2095      41434B5F 
 2095      55534147 
 2095      455F5045 
 2096 0f36 07       		.byte	0x7
 2097 0f37 2E       		.byte	0x2e
 2098 0f38 19       		.byte	0x19
GAS LISTING C:\Users\PRESID~1\AppData\Local\Temp\ccDe376t.s 			page 54


 2099 0f39 69010000 		.long	0x169
 2100 0f3d 13       		.uleb128 0x13
 2101 0f3e 5441534B 		.ascii "TASK3_STACK_ADDR\0"
 2101      335F5354 
 2101      41434B5F 
 2101      41444452 
 2101      00
 2102 0f4f 07       		.byte	0x7
 2103 0f50 2F       		.byte	0x2f
 2104 0f51 19       		.byte	0x19
 2105 0f52 000E0000 		.long	0xe00
 2106 0f56 13       		.uleb128 0x13
 2107 0f57 5441534B 		.ascii "TASK3_STACK_POS\0"
 2107      335F5354 
 2107      41434B5F 
 2107      504F5300 
 2108 0f67 07       		.byte	0x7
 2109 0f68 30       		.byte	0x30
 2110 0f69 19       		.byte	0x19
 2111 0f6a 69010000 		.long	0x169
 2112 0f6e 13       		.uleb128 0x13
 2113 0f6f 5441534B 		.ascii "TASK3_STACK_USAGE_PERCENT\0"
 2113      335F5354 
 2113      41434B5F 
 2113      55534147 
 2113      455F5045 
 2114 0f89 07       		.byte	0x7
 2115 0f8a 31       		.byte	0x31
 2116 0f8b 19       		.byte	0x19
 2117 0f8c 69010000 		.long	0x169
 2118 0f90 13       		.uleb128 0x13
 2119 0f91 5441534B 		.ascii "TASK4_STACK_ADDR\0"
 2119      345F5354 
 2119      41434B5F 
 2119      41444452 
 2119      00
 2120 0fa2 07       		.byte	0x7
 2121 0fa3 32       		.byte	0x32
 2122 0fa4 19       		.byte	0x19
 2123 0fa5 000E0000 		.long	0xe00
 2124 0fa9 13       		.uleb128 0x13
 2125 0faa 5441534B 		.ascii "TASK4_STACK_POS\0"
 2125      345F5354 
 2125      41434B5F 
 2125      504F5300 
 2126 0fba 07       		.byte	0x7
 2127 0fbb 33       		.byte	0x33
 2128 0fbc 19       		.byte	0x19
 2129 0fbd 69010000 		.long	0x169
 2130 0fc1 13       		.uleb128 0x13
 2131 0fc2 5441534B 		.ascii "TASK4_STACK_USAGE_PERCENT\0"
 2131      345F5354 
 2131      41434B5F 
 2131      55534147 
 2131      455F5045 
 2132 0fdc 07       		.byte	0x7
 2133 0fdd 34       		.byte	0x34
GAS LISTING C:\Users\PRESID~1\AppData\Local\Temp\ccDe376t.s 			page 55


 2134 0fde 19       		.byte	0x19
 2135 0fdf 69010000 		.long	0x169
 2136 0fe3 0A       		.uleb128 0xa
 2137 0fe4 9A000000 		.long	0x9a
 2138 0fe8 F40F0000 		.long	0xff4
 2139 0fec 14       		.uleb128 0x14
 2140 0fed 5C030000 		.long	0x35c
 2141 0ff1 CF07     		.word	0x7cf
 2142 0ff3 00       		.byte	0
 2143 0ff4 13       		.uleb128 0x13
 2144 0ff5 5441534B 		.ascii "TASK0_STACK\0"
 2144      305F5354 
 2144      41434B00 
 2145 1001 07       		.byte	0x7
 2146 1002 35       		.byte	0x35
 2147 1003 1A       		.byte	0x1a
 2148 1004 E30F0000 		.long	0xfe3
 2149 1008 13       		.uleb128 0x13
 2150 1009 5441534B 		.ascii "TASK1_STACK\0"
 2150      315F5354 
 2150      41434B00 
 2151 1015 07       		.byte	0x7
 2152 1016 36       		.byte	0x36
 2153 1017 1A       		.byte	0x1a
 2154 1018 E30F0000 		.long	0xfe3
 2155 101c 13       		.uleb128 0x13
 2156 101d 5441534B 		.ascii "TASK2_STACK\0"
 2156      325F5354 
 2156      41434B00 
 2157 1029 07       		.byte	0x7
 2158 102a 37       		.byte	0x37
 2159 102b 1A       		.byte	0x1a
 2160 102c E30F0000 		.long	0xfe3
 2161 1030 13       		.uleb128 0x13
 2162 1031 5441534B 		.ascii "TASK3_STACK\0"
 2162      335F5354 
 2162      41434B00 
 2163 103d 07       		.byte	0x7
 2164 103e 38       		.byte	0x38
 2165 103f 1A       		.byte	0x1a
 2166 1040 E30F0000 		.long	0xfe3
 2167 1044 13       		.uleb128 0x13
 2168 1045 5441534B 		.ascii "TASK4_STACK\0"
 2168      345F5354 
 2168      41434B00 
 2169 1051 07       		.byte	0x7
 2170 1052 39       		.byte	0x39
 2171 1053 1A       		.byte	0x1a
 2172 1054 E30F0000 		.long	0xfe3
 2173 1058 13       		.uleb128 0x13
 2174 1059 4C415354 		.ascii "LAST_CURRENT_TIME\0"
 2174      5F435552 
 2174      52454E54 
 2174      5F54494D 
 2174      4500
 2175 106b 07       		.byte	0x7
 2176 106c 3A       		.byte	0x3a
GAS LISTING C:\Users\PRESID~1\AppData\Local\Temp\ccDe376t.s 			page 56


 2177 106d 1A       		.byte	0x1a
 2178 106e 0E0B0000 		.long	0xb0e
 2179 1072 0A       		.uleb128 0xa
 2180 1073 D20A0000 		.long	0xad2
 2181 1077 82100000 		.long	0x1082
 2182 107b 0B       		.uleb128 0xb
 2183 107c 5C030000 		.long	0x35c
 2184 1080 09       		.byte	0x9
 2185 1081 00       		.byte	0
 2186 1082 13       		.uleb128 0x13
 2187 1083 5441534B 		.ascii "TASK_SCHEDULING_QUEUE\0"
 2187      5F534348 
 2187      4544554C 
 2187      494E475F 
 2187      51554555 
 2188 1099 07       		.byte	0x7
 2189 109a 3B       		.byte	0x3b
 2190 109b 1A       		.byte	0x1a
 2191 109c 72100000 		.long	0x1072
 2192 10a0 13       		.uleb128 0x13
 2193 10a1 52554E4E 		.ascii "RUNNING_SCHEDULING_QUEUE_ENTRY\0"
 2193      494E475F 
 2193      53434845 
 2193      44554C49 
 2193      4E475F51 
 2194 10c0 07       		.byte	0x7
 2195 10c1 3C       		.byte	0x3c
 2196 10c2 1A       		.byte	0x1a
 2197 10c3 C7100000 		.long	0x10c7
 2198 10c7 0C       		.uleb128 0xc
 2199 10c8 04       		.byte	0x4
 2200 10c9 D20A0000 		.long	0xad2
 2201 10cd 0A       		.uleb128 0xa
 2202 10ce C30A0000 		.long	0xac3
 2203 10d2 DD100000 		.long	0x10dd
 2204 10d6 0B       		.uleb128 0xb
 2205 10d7 5C030000 		.long	0x35c
 2206 10db 09       		.byte	0x9
 2207 10dc 00       		.byte	0
 2208 10dd 13       		.uleb128 0x13
 2209 10de 5441534B 		.ascii "TASK_RUN_QUEUE\0"
 2209      5F52554E 
 2209      5F515545 
 2209      554500
 2210 10ed 07       		.byte	0x7
 2211 10ee 3D       		.byte	0x3d
 2212 10ef 1A       		.byte	0x1a
 2213 10f0 CD100000 		.long	0x10cd
 2214 10f4 0A       		.uleb128 0xa
 2215 10f5 C30A0000 		.long	0xac3
 2216 10f9 04110000 		.long	0x1104
 2217 10fd 0B       		.uleb128 0xb
 2218 10fe 5C030000 		.long	0x35c
 2219 1102 00       		.byte	0
 2220 1103 00       		.byte	0
 2221 1104 13       		.uleb128 0x13
 2222 1105 52554E4E 		.ascii "RUNNING_TASK\0"
GAS LISTING C:\Users\PRESID~1\AppData\Local\Temp\ccDe376t.s 			page 57


 2222      494E475F 
 2222      5441534B 
 2222      00
 2223 1112 07       		.byte	0x7
 2224 1113 3E       		.byte	0x3e
 2225 1114 1A       		.byte	0x1a
 2226 1115 F4100000 		.long	0x10f4
 2227 1119 13       		.uleb128 0x13
 2228 111a 5441534B 		.ascii "TASK_IDLE_QUEUE\0"
 2228      5F49444C 
 2228      455F5155 
 2228      45554500 
 2229 112a 07       		.byte	0x7
 2230 112b 3F       		.byte	0x3f
 2231 112c 1A       		.byte	0x1a
 2232 112d F4100000 		.long	0x10f4
 2233 1131 13       		.uleb128 0x13
 2234 1132 62544153 		.ascii "bTASK_QUEUE_INITIALIZED\0"
 2234      4B5F5155 
 2234      4555455F 
 2234      494E4954 
 2234      49414C49 
 2235 114a 07       		.byte	0x7
 2236 114b 40       		.byte	0x40
 2237 114c 1A       		.byte	0x1a
 2238 114d 9A000000 		.long	0x9a
 2239 1151 13       		.uleb128 0x13
 2240 1152 5441534B 		.ascii "TASK_0_VAR\0"
 2240      5F305F56 
 2240      415200
 2241 115d 07       		.byte	0x7
 2242 115e 41       		.byte	0x41
 2243 115f 0F       		.byte	0xf
 2244 1160 C30A0000 		.long	0xac3
 2245 1164 13       		.uleb128 0x13
 2246 1165 5441534B 		.ascii "TASK_1_VAR\0"
 2246      5F315F56 
 2246      415200
 2247 1170 07       		.byte	0x7
 2248 1171 41       		.byte	0x41
 2249 1172 1B       		.byte	0x1b
 2250 1173 C30A0000 		.long	0xac3
 2251 1177 13       		.uleb128 0x13
 2252 1178 5441534B 		.ascii "TASK_2_VAR\0"
 2252      5F325F56 
 2252      415200
 2253 1183 07       		.byte	0x7
 2254 1184 41       		.byte	0x41
 2255 1185 27       		.byte	0x27
 2256 1186 C30A0000 		.long	0xac3
 2257 118a 13       		.uleb128 0x13
 2258 118b 5441534B 		.ascii "TASK_3_VAR\0"
 2258      5F335F56 
 2258      415200
 2259 1196 07       		.byte	0x7
 2260 1197 41       		.byte	0x41
 2261 1198 33       		.byte	0x33
GAS LISTING C:\Users\PRESID~1\AppData\Local\Temp\ccDe376t.s 			page 58


 2262 1199 C30A0000 		.long	0xac3
 2263 119d 13       		.uleb128 0x13
 2264 119e 5441534B 		.ascii "TASK_GROUP_1\0"
 2264      5F47524F 
 2264      55505F31 
 2264      00
 2265 11ab 07       		.byte	0x7
 2266 11ac 42       		.byte	0x42
 2267 11ad 15       		.byte	0x15
 2268 11ae F6070000 		.long	0x7f6
 2269 11b2 13       		.uleb128 0x13
 2270 11b3 5441534B 		.ascii "TASK_GROUP_2\0"
 2270      5F47524F 
 2270      55505F32 
 2270      00
 2271 11c0 07       		.byte	0x7
 2272 11c1 42       		.byte	0x42
 2273 11c2 23       		.byte	0x23
 2274 11c3 F6070000 		.long	0x7f6
 2275 11c7 13       		.uleb128 0x13
 2276 11c8 5441534B 		.ascii "TASK_GROUP_3\0"
 2276      5F47524F 
 2276      55505F33 
 2276      00
 2277 11d5 07       		.byte	0x7
 2278 11d6 42       		.byte	0x42
 2279 11d7 31       		.byte	0x31
 2280 11d8 F6070000 		.long	0x7f6
 2281 11dc 13       		.uleb128 0x13
 2282 11dd 5441534B 		.ascii "TASK_GROUP_4\0"
 2282      5F47524F 
 2282      55505F34 
 2282      00
 2283 11ea 07       		.byte	0x7
 2284 11eb 42       		.byte	0x42
 2285 11ec 3F       		.byte	0x3f
 2286 11ed F6070000 		.long	0x7f6
 2287 11f1 13       		.uleb128 0x13
 2288 11f2 5441534B 		.ascii "TASK_GROUP_5\0"
 2288      5F47524F 
 2288      55505F35 
 2288      00
 2289 11ff 07       		.byte	0x7
 2290 1200 42       		.byte	0x42
 2291 1201 4D       		.byte	0x4d
 2292 1202 F6070000 		.long	0x7f6
 2293 1206 13       		.uleb128 0x13
 2294 1207 5441534B 		.ascii "TASK_TRANSITION_REJECTED_TASK_ADDR\0"
 2294      5F545241 
 2294      4E534954 
 2294      494F4E5F 
 2294      52454A45 
 2295 122a 07       		.byte	0x7
 2296 122b 43       		.byte	0x43
 2297 122c 1A       		.byte	0x1a
 2298 122d E70A0000 		.long	0xae7
 2299 1231 13       		.uleb128 0x13
GAS LISTING C:\Users\PRESID~1\AppData\Local\Temp\ccDe376t.s 			page 59


 2300 1232 5441534B 		.ascii "TASK_TRANSITION_REJECTED_STATE\0"
 2300      5F545241 
 2300      4E534954 
 2300      494F4E5F 
 2300      52454A45 
 2301 1251 07       		.byte	0x7
 2302 1252 44       		.byte	0x44
 2303 1253 1A       		.byte	0x1a
 2304 1254 4A070000 		.long	0x74a
 2305 1258 13       		.uleb128 0x13
 2306 1259 5441534B 		.ascii "TASK_TRANSITION_CURRENT_STATE\0"
 2306      5F545241 
 2306      4E534954 
 2306      494F4E5F 
 2306      43555252 
 2307 1277 07       		.byte	0x7
 2308 1278 45       		.byte	0x45
 2309 1279 1A       		.byte	0x1a
 2310 127a 4A070000 		.long	0x74a
 2311 127e 13       		.uleb128 0x13
 2312 127f 53595354 		.ascii "SYSTEM_STATE_ACCEPTED\0"
 2312      454D5F53 
 2312      54415445 
 2312      5F414343 
 2312      45505445 
 2313 1295 07       		.byte	0x7
 2314 1296 46       		.byte	0x46
 2315 1297 1C       		.byte	0x1c
 2316 1298 8B0B0000 		.long	0xb8b
 2317 129c 13       		.uleb128 0x13
 2318 129d 4C4F4341 		.ascii "LOCAL_SYSTEM_TIME\0"
 2318      4C5F5359 
 2318      5354454D 
 2318      5F54494D 
 2318      4500
 2319 12af 07       		.byte	0x7
 2320 12b0 47       		.byte	0x47
 2321 12b1 12       		.byte	0x12
 2322 12b2 1D060000 		.long	0x61d
 2323 12b6 0A       		.uleb128 0xa
 2324 12b7 9A000000 		.long	0x9a
 2325 12bb C7120000 		.long	0x12c7
 2326 12bf 14       		.uleb128 0x14
 2327 12c0 5C030000 		.long	0x35c
 2328 12c4 FF03     		.word	0x3ff
 2329 12c6 00       		.byte	0
 2330 12c7 13       		.uleb128 0x13
 2331 12c8 4F535F4D 		.ascii "OS_MAIN_STACK\0"
 2331      41494E5F 
 2331      53544143 
 2331      4B00
 2332 12d6 08       		.byte	0x8
 2333 12d7 0C       		.byte	0xc
 2334 12d8 18       		.byte	0x18
 2335 12d9 B6120000 		.long	0x12b6
 2336 12dd 15       		.uleb128 0x15
 2337 12de 7365745F 		.ascii "set_4_uint8_to_uint32\0"
GAS LISTING C:\Users\PRESID~1\AppData\Local\Temp\ccDe376t.s 			page 60


 2337      345F7569 
 2337      6E74385F 
 2337      746F5F75 
 2337      696E7433 
 2338 12f4 01       		.byte	0x1
 2339 12f5 6C01     		.word	0x16c
 2340 12f7 06       		.byte	0x6
 2341 12f8 3A070000 		.long	LFB18
 2342 12fc 40000000 		.long	LFE18-LFB18
 2343 1300 01       		.uleb128 0x1
 2344 1301 9C       		.byte	0x9c
 2345 1302 29130000 		.long	0x1329
 2346 1306 16       		.uleb128 0x16
 2347 1307 70747200 		.ascii "ptr\0"
 2348 130b 01       		.byte	0x1
 2349 130c 6C01     		.word	0x16c
 2350 130e 23       		.byte	0x23
 2351 130f 29130000 		.long	0x1329
 2352 1313 02       		.uleb128 0x2
 2353 1314 91       		.byte	0x91
 2354 1315 00       		.sleb128 0
 2355 1316 16       		.uleb128 0x16
 2356 1317 76616C75 		.ascii "value\0"
 2356      6500
 2357 131d 01       		.byte	0x1
 2358 131e 6C01     		.word	0x16c
 2359 1320 2F       		.byte	0x2f
 2360 1321 5A010000 		.long	0x15a
 2361 1325 02       		.uleb128 0x2
 2362 1326 91       		.byte	0x91
 2363 1327 04       		.sleb128 4
 2364 1328 00       		.byte	0
 2365 1329 0C       		.uleb128 0xc
 2366 132a 04       		.byte	0x4
 2367 132b D2000000 		.long	0xd2
 2368 132f 17       		.uleb128 0x17
 2369 1330 6765745F 		.ascii "get_uint32_of_4_uint8\0"
 2369      75696E74 
 2369      33325F6F 
 2369      665F345F 
 2369      75696E74 
 2370 1346 01       		.byte	0x1
 2371 1347 5E01     		.word	0x15e
 2372 1349 08       		.byte	0x8
 2373 134a 5A010000 		.long	0x15a
 2374 134e EA060000 		.long	LFB17
 2375 1352 50000000 		.long	LFE17-LFB17
 2376 1356 01       		.uleb128 0x1
 2377 1357 9C       		.byte	0x9c
 2378 1358 81130000 		.long	0x1381
 2379 135c 16       		.uleb128 0x16
 2380 135d 70747200 		.ascii "ptr\0"
 2381 1361 01       		.byte	0x1
 2382 1362 5E01     		.word	0x15e
 2383 1364 25       		.byte	0x25
 2384 1365 29130000 		.long	0x1329
 2385 1369 02       		.uleb128 0x2
GAS LISTING C:\Users\PRESID~1\AppData\Local\Temp\ccDe376t.s 			page 61


 2386 136a 91       		.byte	0x91
 2387 136b 00       		.sleb128 0
 2388 136c 18       		.uleb128 0x18
 2389 136d 7265745F 		.ascii "ret_val\0"
 2389      76616C00 
 2390 1375 01       		.byte	0x1
 2391 1376 6001     		.word	0x160
 2392 1378 0B       		.byte	0xb
 2393 1379 5A010000 		.long	0x15a
 2394 137d 02       		.uleb128 0x2
 2395 137e 91       		.byte	0x91
 2396 137f 74       		.sleb128 -12
 2397 1380 00       		.byte	0
 2398 1381 19       		.uleb128 0x19
 2399 1382 53484946 		.ascii "SHIFT_LEFT\0"
 2399      545F4C45 
 2399      465400
 2400 138d 01       		.byte	0x1
 2401 138e 4201     		.word	0x142
 2402 1390 06       		.byte	0x6
 2403 1391 0B060000 		.long	LFB16
 2404 1395 DF000000 		.long	LFE16-LFB16
 2405 1399 01       		.uleb128 0x1
 2406 139a 9C       		.byte	0x9c
 2407 139b 1C140000 		.long	0x141c
 2408 139f 16       		.uleb128 0x16
 2409 13a0 6E756D62 		.ascii "number\0"
 2409      657200
 2410 13a7 01       		.byte	0x1
 2411 13a8 4201     		.word	0x142
 2412 13aa 1A       		.byte	0x1a
 2413 13ab 1C140000 		.long	0x141c
 2414 13af 02       		.uleb128 0x2
 2415 13b0 91       		.byte	0x91
 2416 13b1 00       		.sleb128 0
 2417 13b2 16       		.uleb128 0x16
 2418 13b3 616D6F75 		.ascii "amount_bits_shift\0"
 2418      6E745F62 
 2418      6974735F 
 2418      73686966 
 2418      7400
 2419 13c5 01       		.byte	0x1
 2420 13c6 4201     		.word	0x142
 2421 13c8 29       		.byte	0x29
 2422 13c9 5A010000 		.long	0x15a
 2423 13cd 02       		.uleb128 0x2
 2424 13ce 91       		.byte	0x91
 2425 13cf 04       		.sleb128 4
 2426 13d0 18       		.uleb128 0x18
 2427 13d1 746D7042 		.ascii "tmpBigInt\0"
 2427      6967496E 
 2427      7400
 2428 13db 01       		.byte	0x1
 2429 13dc 4401     		.word	0x144
 2430 13de 0C       		.byte	0xc
 2431 13df 08060000 		.long	0x608
 2432 13e3 02       		.uleb128 0x2
GAS LISTING C:\Users\PRESID~1\AppData\Local\Temp\ccDe376t.s 			page 62


 2433 13e4 91       		.byte	0x91
 2434 13e5 60       		.sleb128 -32
 2435 13e6 18       		.uleb128 0x18
 2436 13e7 72657375 		.ascii "result\0"
 2436      6C7400
 2437 13ee 01       		.byte	0x1
 2438 13ef 4401     		.word	0x144
 2439 13f1 17       		.byte	0x17
 2440 13f2 08060000 		.long	0x608
 2441 13f6 02       		.uleb128 0x2
 2442 13f7 91       		.byte	0x91
 2443 13f8 50       		.sleb128 -48
 2444 13f9 18       		.uleb128 0x18
 2445 13fa 746D7033 		.ascii "tmp32\0"
 2445      3200
 2446 1400 01       		.byte	0x1
 2447 1401 4501     		.word	0x145
 2448 1403 0C       		.byte	0xc
 2449 1404 5A010000 		.long	0x15a
 2450 1408 02       		.uleb128 0x2
 2451 1409 91       		.byte	0x91
 2452 140a 70       		.sleb128 -16
 2453 140b 18       		.uleb128 0x18
 2454 140c 706F7300 		.ascii "pos\0"
 2455 1410 01       		.byte	0x1
 2456 1411 4601     		.word	0x146
 2457 1413 0C       		.byte	0xc
 2458 1414 73010000 		.long	0x173
 2459 1418 02       		.uleb128 0x2
 2460 1419 91       		.byte	0x91
 2461 141a 74       		.sleb128 -12
 2462 141b 00       		.byte	0
 2463 141c 0C       		.uleb128 0xc
 2464 141d 04       		.byte	0x4
 2465 141e 08060000 		.long	0x608
 2466 1422 15       		.uleb128 0x15
 2467 1423 41535349 		.ascii "ASSIGN_UINT32\0"
 2467      474E5F55 
 2467      494E5433 
 2467      3200
 2468 1431 01       		.byte	0x1
 2469 1432 3401     		.word	0x134
 2470 1434 06       		.byte	0x6
 2471 1435 AF050000 		.long	LFB15
 2472 1439 5C000000 		.long	LFE15-LFB15
 2473 143d 01       		.uleb128 0x1
 2474 143e 9C       		.byte	0x9c
 2475 143f 82140000 		.long	0x1482
 2476 1443 1A       		.uleb128 0x1a
 2477 1444 28000000 		.secrel32	LASF1
 2478 1448 01       		.byte	0x1
 2479 1449 3401     		.word	0x134
 2480 144b 1D       		.byte	0x1d
 2481 144c 1C140000 		.long	0x141c
 2482 1450 02       		.uleb128 0x2
 2483 1451 91       		.byte	0x91
 2484 1452 00       		.sleb128 0
GAS LISTING C:\Users\PRESID~1\AppData\Local\Temp\ccDe376t.s 			page 63


 2485 1453 1A       		.uleb128 0x1a
 2486 1454 1B000000 		.secrel32	LASF2
 2487 1458 01       		.byte	0x1
 2488 1459 3401     		.word	0x134
 2489 145b 37       		.byte	0x37
 2490 145c 6E010000 		.long	0x16e
 2491 1460 02       		.uleb128 0x2
 2492 1461 91       		.byte	0x91
 2493 1462 04       		.sleb128 4
 2494 1463 18       		.uleb128 0x18
 2495 1464 706F7300 		.ascii "pos\0"
 2496 1468 01       		.byte	0x1
 2497 1469 3601     		.word	0x136
 2498 146b 0A       		.byte	0xa
 2499 146c D2000000 		.long	0xd2
 2500 1470 02       		.uleb128 0x2
 2501 1471 91       		.byte	0x91
 2502 1472 77       		.sleb128 -9
 2503 1473 18       		.uleb128 0x18
 2504 1474 6900     		.ascii "i\0"
 2505 1476 01       		.byte	0x1
 2506 1477 3701     		.word	0x137
 2507 1479 0A       		.byte	0xa
 2508 147a D2000000 		.long	0xd2
 2509 147e 02       		.uleb128 0x2
 2510 147f 91       		.byte	0x91
 2511 1480 76       		.sleb128 -10
 2512 1481 00       		.byte	0
 2513 1482 15       		.uleb128 0x15
 2514 1483 41535349 		.ascii "ASSIGN_NULL\0"
 2514      474E5F4E 
 2514      554C4C00 
 2515 148f 01       		.byte	0x1
 2516 1490 2B01     		.word	0x12b
 2517 1492 06       		.byte	0x6
 2518 1493 88050000 		.long	LFB14
 2519 1497 27000000 		.long	LFE14-LFB14
 2520 149b 01       		.uleb128 0x1
 2521 149c 9C       		.byte	0x9c
 2522 149d C2140000 		.long	0x14c2
 2523 14a1 1A       		.uleb128 0x1a
 2524 14a2 28000000 		.secrel32	LASF1
 2525 14a6 01       		.byte	0x1
 2526 14a7 2B01     		.word	0x12b
 2527 14a9 1B       		.byte	0x1b
 2528 14aa 1C140000 		.long	0x141c
 2529 14ae 02       		.uleb128 0x2
 2530 14af 91       		.byte	0x91
 2531 14b0 00       		.sleb128 0
 2532 14b1 18       		.uleb128 0x18
 2533 14b2 706F7300 		.ascii "pos\0"
 2534 14b6 01       		.byte	0x1
 2535 14b7 2D01     		.word	0x12d
 2536 14b9 0A       		.byte	0xa
 2537 14ba D2000000 		.long	0xd2
 2538 14be 02       		.uleb128 0x2
 2539 14bf 91       		.byte	0x91
GAS LISTING C:\Users\PRESID~1\AppData\Local\Temp\ccDe376t.s 			page 64


 2540 14c0 77       		.sleb128 -9
 2541 14c1 00       		.byte	0
 2542 14c2 15       		.uleb128 0x15
 2543 14c3 41535349 		.ascii "ASSIGN\0"
 2543      474E00
 2544 14ca 01       		.byte	0x1
 2545 14cb 2301     		.word	0x123
 2546 14cd 06       		.byte	0x6
 2547 14ce 58050000 		.long	LFB13
 2548 14d2 30000000 		.long	LFE13-LFB13
 2549 14d6 01       		.uleb128 0x1
 2550 14d7 9C       		.byte	0x9c
 2551 14d8 0D150000 		.long	0x150d
 2552 14dc 1A       		.uleb128 0x1a
 2553 14dd 28000000 		.secrel32	LASF1
 2554 14e1 01       		.byte	0x1
 2555 14e2 2301     		.word	0x123
 2556 14e4 16       		.byte	0x16
 2557 14e5 1C140000 		.long	0x141c
 2558 14e9 02       		.uleb128 0x2
 2559 14ea 91       		.byte	0x91
 2560 14eb 00       		.sleb128 0
 2561 14ec 1A       		.uleb128 0x1a
 2562 14ed 1B000000 		.secrel32	LASF2
 2563 14f1 01       		.byte	0x1
 2564 14f2 2301     		.word	0x123
 2565 14f4 32       		.byte	0x32
 2566 14f5 0D150000 		.long	0x150d
 2567 14f9 02       		.uleb128 0x2
 2568 14fa 91       		.byte	0x91
 2569 14fb 04       		.sleb128 4
 2570 14fc 18       		.uleb128 0x18
 2571 14fd 706F7300 		.ascii "pos\0"
 2572 1501 01       		.byte	0x1
 2573 1502 2501     		.word	0x125
 2574 1504 0A       		.byte	0xa
 2575 1505 D2000000 		.long	0xd2
 2576 1509 02       		.uleb128 0x2
 2577 150a 91       		.byte	0x91
 2578 150b 77       		.sleb128 -9
 2579 150c 00       		.byte	0
 2580 150d 0C       		.uleb128 0xc
 2581 150e 04       		.byte	0x4
 2582 150f 18060000 		.long	0x618
 2583 1513 1B       		.uleb128 0x1b
 2584 1514 49535F47 		.ascii "IS_GREATER_OR_EQUAL\0"
 2584      52454154 
 2584      45525F4F 
 2584      525F4551 
 2584      55414C00 
 2585 1528 01       		.byte	0x1
 2586 1529 1F01     		.word	0x11f
 2587 152b 0B       		.byte	0xb
 2588 152c 86030000 		.long	0x386
 2589 1530 18050000 		.long	LFB12
 2590 1534 40000000 		.long	LFE12-LFB12
 2591 1538 01       		.uleb128 0x1
GAS LISTING C:\Users\PRESID~1\AppData\Local\Temp\ccDe376t.s 			page 65


 2592 1539 9C       		.byte	0x9c
 2593 153a 5F150000 		.long	0x155f
 2594 153e 1A       		.uleb128 0x1a
 2595 153f 00000000 		.secrel32	LASF3
 2596 1543 01       		.byte	0x1
 2597 1544 1F01     		.word	0x11f
 2598 1546 2E       		.byte	0x2e
 2599 1547 0D150000 		.long	0x150d
 2600 154b 02       		.uleb128 0x2
 2601 154c 91       		.byte	0x91
 2602 154d 00       		.sleb128 0
 2603 154e 1A       		.uleb128 0x1a
 2604 154f 09000000 		.secrel32	LASF4
 2605 1553 01       		.byte	0x1
 2606 1554 1F01     		.word	0x11f
 2607 1556 47       		.byte	0x47
 2608 1557 0D150000 		.long	0x150d
 2609 155b 02       		.uleb128 0x2
 2610 155c 91       		.byte	0x91
 2611 155d 04       		.sleb128 4
 2612 155e 00       		.byte	0
 2613 155f 17       		.uleb128 0x17
 2614 1560 49535F47 		.ascii "IS_GREATER\0"
 2614      52454154 
 2614      455200
 2615 156b 01       		.byte	0x1
 2616 156c 0801     		.word	0x108
 2617 156e 0B       		.byte	0xb
 2618 156f 86030000 		.long	0x386
 2619 1573 BA040000 		.long	LFB11
 2620 1577 5E000000 		.long	LFE11-LFB11
 2621 157b 01       		.uleb128 0x1
 2622 157c 9C       		.byte	0x9c
 2623 157d C9150000 		.long	0x15c9
 2624 1581 1A       		.uleb128 0x1a
 2625 1582 00000000 		.secrel32	LASF3
 2626 1586 01       		.byte	0x1
 2627 1587 0801     		.word	0x108
 2628 1589 25       		.byte	0x25
 2629 158a 0D150000 		.long	0x150d
 2630 158e 02       		.uleb128 0x2
 2631 158f 91       		.byte	0x91
 2632 1590 00       		.sleb128 0
 2633 1591 1A       		.uleb128 0x1a
 2634 1592 09000000 		.secrel32	LASF4
 2635 1596 01       		.byte	0x1
 2636 1597 0801     		.word	0x108
 2637 1599 3E       		.byte	0x3e
 2638 159a 0D150000 		.long	0x150d
 2639 159e 02       		.uleb128 0x2
 2640 159f 91       		.byte	0x91
 2641 15a0 04       		.sleb128 4
 2642 15a1 18       		.uleb128 0x18
 2643 15a2 706F7300 		.ascii "pos\0"
 2644 15a6 01       		.byte	0x1
 2645 15a7 0A01     		.word	0x10a
 2646 15a9 0A       		.byte	0xa
GAS LISTING C:\Users\PRESID~1\AppData\Local\Temp\ccDe376t.s 			page 66


 2647 15aa D2000000 		.long	0xd2
 2648 15ae 02       		.uleb128 0x2
 2649 15af 91       		.byte	0x91
 2650 15b0 77       		.sleb128 -9
 2651 15b1 18       		.uleb128 0x18
 2652 15b2 69735F67 		.ascii "is_greater\0"
 2652      72656174 
 2652      657200
 2653 15bd 01       		.byte	0x1
 2654 15be 0B01     		.word	0x10b
 2655 15c0 0E       		.byte	0xe
 2656 15c1 86030000 		.long	0x386
 2657 15c5 02       		.uleb128 0x2
 2658 15c6 91       		.byte	0x91
 2659 15c7 76       		.sleb128 -10
 2660 15c8 00       		.byte	0
 2661 15c9 1C       		.uleb128 0x1c
 2662 15ca 49535F45 		.ascii "IS_EQUAL\0"
 2662      5155414C 
 2662      00
 2663 15d3 01       		.byte	0x1
 2664 15d4 F6       		.byte	0xf6
 2665 15d5 0B       		.byte	0xb
 2666 15d6 86030000 		.long	0x386
 2667 15da 7A040000 		.long	LFB10
 2668 15de 40000000 		.long	LFE10-LFB10
 2669 15e2 01       		.uleb128 0x1
 2670 15e3 9C       		.byte	0x9c
 2671 15e4 2A160000 		.long	0x162a
 2672 15e8 1D       		.uleb128 0x1d
 2673 15e9 00000000 		.secrel32	LASF3
 2674 15ed 01       		.byte	0x1
 2675 15ee F6       		.byte	0xf6
 2676 15ef 23       		.byte	0x23
 2677 15f0 0D150000 		.long	0x150d
 2678 15f4 02       		.uleb128 0x2
 2679 15f5 91       		.byte	0x91
 2680 15f6 00       		.sleb128 0
 2681 15f7 1D       		.uleb128 0x1d
 2682 15f8 09000000 		.secrel32	LASF4
 2683 15fc 01       		.byte	0x1
 2684 15fd F6       		.byte	0xf6
 2685 15fe 3C       		.byte	0x3c
 2686 15ff 0D150000 		.long	0x150d
 2687 1603 02       		.uleb128 0x2
 2688 1604 91       		.byte	0x91
 2689 1605 04       		.sleb128 4
 2690 1606 1E       		.uleb128 0x1e
 2691 1607 706F7300 		.ascii "pos\0"
 2692 160b 01       		.byte	0x1
 2693 160c F8       		.byte	0xf8
 2694 160d 0A       		.byte	0xa
 2695 160e D2000000 		.long	0xd2
 2696 1612 02       		.uleb128 0x2
 2697 1613 91       		.byte	0x91
 2698 1614 77       		.sleb128 -9
 2699 1615 1E       		.uleb128 0x1e
GAS LISTING C:\Users\PRESID~1\AppData\Local\Temp\ccDe376t.s 			page 67


 2700 1616 69735F65 		.ascii "is_equal\0"
 2700      7175616C 
 2700      00
 2701 161f 01       		.byte	0x1
 2702 1620 F9       		.byte	0xf9
 2703 1621 0E       		.byte	0xe
 2704 1622 86030000 		.long	0x386
 2705 1626 02       		.uleb128 0x2
 2706 1627 91       		.byte	0x91
 2707 1628 76       		.sleb128 -10
 2708 1629 00       		.byte	0
 2709 162a 1F       		.uleb128 0x1f
 2710 162b 49535F4C 		.ascii "IS_LESS_OR_EQUAL\0"
 2710      4553535F 
 2710      4F525F45 
 2710      5155414C 
 2710      00
 2711 163c 01       		.byte	0x1
 2712 163d F2       		.byte	0xf2
 2713 163e 0B       		.byte	0xb
 2714 163f 86030000 		.long	0x386
 2715 1643 3A040000 		.long	LFB9
 2716 1647 40000000 		.long	LFE9-LFB9
 2717 164b 01       		.uleb128 0x1
 2718 164c 9C       		.byte	0x9c
 2719 164d 70160000 		.long	0x1670
 2720 1651 1D       		.uleb128 0x1d
 2721 1652 00000000 		.secrel32	LASF3
 2722 1656 01       		.byte	0x1
 2723 1657 F2       		.byte	0xf2
 2724 1658 2B       		.byte	0x2b
 2725 1659 0D150000 		.long	0x150d
 2726 165d 02       		.uleb128 0x2
 2727 165e 91       		.byte	0x91
 2728 165f 00       		.sleb128 0
 2729 1660 1D       		.uleb128 0x1d
 2730 1661 09000000 		.secrel32	LASF4
 2731 1665 01       		.byte	0x1
 2732 1666 F2       		.byte	0xf2
 2733 1667 44       		.byte	0x44
 2734 1668 0D150000 		.long	0x150d
 2735 166c 02       		.uleb128 0x2
 2736 166d 91       		.byte	0x91
 2737 166e 04       		.sleb128 4
 2738 166f 00       		.byte	0
 2739 1670 1C       		.uleb128 0x1c
 2740 1671 49535F4C 		.ascii "IS_LESS\0"
 2740      45535300 
 2741 1679 01       		.byte	0x1
 2742 167a DB       		.byte	0xdb
 2743 167b 0B       		.byte	0xb
 2744 167c 86030000 		.long	0x386
 2745 1680 DC030000 		.long	LFB8
 2746 1684 5E000000 		.long	LFE8-LFB8
 2747 1688 01       		.uleb128 0x1
 2748 1689 9C       		.byte	0x9c
 2749 168a CF160000 		.long	0x16cf
GAS LISTING C:\Users\PRESID~1\AppData\Local\Temp\ccDe376t.s 			page 68


 2750 168e 1D       		.uleb128 0x1d
 2751 168f 00000000 		.secrel32	LASF3
 2752 1693 01       		.byte	0x1
 2753 1694 DB       		.byte	0xdb
 2754 1695 22       		.byte	0x22
 2755 1696 0D150000 		.long	0x150d
 2756 169a 02       		.uleb128 0x2
 2757 169b 91       		.byte	0x91
 2758 169c 00       		.sleb128 0
 2759 169d 1D       		.uleb128 0x1d
 2760 169e 09000000 		.secrel32	LASF4
 2761 16a2 01       		.byte	0x1
 2762 16a3 DB       		.byte	0xdb
 2763 16a4 3B       		.byte	0x3b
 2764 16a5 0D150000 		.long	0x150d
 2765 16a9 02       		.uleb128 0x2
 2766 16aa 91       		.byte	0x91
 2767 16ab 04       		.sleb128 4
 2768 16ac 1E       		.uleb128 0x1e
 2769 16ad 706F7300 		.ascii "pos\0"
 2770 16b1 01       		.byte	0x1
 2771 16b2 DD       		.byte	0xdd
 2772 16b3 0A       		.byte	0xa
 2773 16b4 D2000000 		.long	0xd2
 2774 16b8 02       		.uleb128 0x2
 2775 16b9 91       		.byte	0x91
 2776 16ba 77       		.sleb128 -9
 2777 16bb 1E       		.uleb128 0x1e
 2778 16bc 69735F6C 		.ascii "is_less\0"
 2778      65737300 
 2779 16c4 01       		.byte	0x1
 2780 16c5 DE       		.byte	0xde
 2781 16c6 0E       		.byte	0xe
 2782 16c7 86030000 		.long	0x386
 2783 16cb 02       		.uleb128 0x2
 2784 16cc 91       		.byte	0x91
 2785 16cd 76       		.sleb128 -10
 2786 16ce 00       		.byte	0
 2787 16cf 20       		.uleb128 0x20
 2788 16d0 494E545F 		.ascii "INT_SUB\0"
 2788      53554200 
 2789 16d8 01       		.byte	0x1
 2790 16d9 C4       		.byte	0xc4
 2791 16da 06       		.byte	0x6
 2792 16db FD020000 		.long	LFB7
 2793 16df DF000000 		.long	LFE7-LFB7
 2794 16e3 01       		.uleb128 0x1
 2795 16e4 9C       		.byte	0x9c
 2796 16e5 66170000 		.long	0x1766
 2797 16e9 21       		.uleb128 0x21
 2798 16ea 44696666 		.ascii "Differenz\0"
 2798      6572656E 
 2798      7A00
 2799 16f4 01       		.byte	0x1
 2800 16f5 C4       		.byte	0xc4
 2801 16f6 17       		.byte	0x17
 2802 16f7 1C140000 		.long	0x141c
GAS LISTING C:\Users\PRESID~1\AppData\Local\Temp\ccDe376t.s 			page 69


 2803 16fb 02       		.uleb128 0x2
 2804 16fc 91       		.byte	0x91
 2805 16fd 00       		.sleb128 0
 2806 16fe 21       		.uleb128 0x21
 2807 16ff 4D696E75 		.ascii "Minuend\0"
 2807      656E6400 
 2808 1707 01       		.byte	0x1
 2809 1708 C4       		.byte	0xc4
 2810 1709 31       		.byte	0x31
 2811 170a 0D150000 		.long	0x150d
 2812 170e 02       		.uleb128 0x2
 2813 170f 91       		.byte	0x91
 2814 1710 04       		.sleb128 4
 2815 1711 21       		.uleb128 0x21
 2816 1712 53756274 		.ascii "Subtrahend\0"
 2816      72616865 
 2816      6E6400
 2817 171d 01       		.byte	0x1
 2818 171e C4       		.byte	0xc4
 2819 171f 49       		.byte	0x49
 2820 1720 0D150000 		.long	0x150d
 2821 1724 02       		.uleb128 0x2
 2822 1725 91       		.byte	0x91
 2823 1726 08       		.sleb128 8
 2824 1727 1E       		.uleb128 0x1e
 2825 1728 706F7300 		.ascii "pos\0"
 2826 172c 01       		.byte	0x1
 2827 172d C6       		.byte	0xc6
 2828 172e 0A       		.byte	0xa
 2829 172f E0000000 		.long	0xe0
 2830 1733 02       		.uleb128 0x2
 2831 1734 91       		.byte	0x91
 2832 1735 77       		.sleb128 -9
 2833 1736 1E       		.uleb128 0x1e
 2834 1737 63617272 		.ascii "carry\0"
 2834      7900
 2835 173d 01       		.byte	0x1
 2836 173e C7       		.byte	0xc7
 2837 173f 0B       		.byte	0xb
 2838 1740 11010000 		.long	0x111
 2839 1744 02       		.uleb128 0x2
 2840 1745 91       		.byte	0x91
 2841 1746 72       		.sleb128 -14
 2842 1747 22       		.uleb128 0x22
 2843 1748 12030000 		.long	LBB3
 2844 174c B6000000 		.long	LBE3-LBB3
 2845 1750 1E       		.uleb128 0x1e
 2846 1751 746D705F 		.ascii "tmp_diff\0"
 2846      64696666 
 2846      00
 2847 175a 01       		.byte	0x1
 2848 175b CB       		.byte	0xcb
 2849 175c 0E       		.byte	0xe
 2850 175d 11010000 		.long	0x111
 2851 1761 02       		.uleb128 0x2
 2852 1762 91       		.byte	0x91
 2853 1763 74       		.sleb128 -12
GAS LISTING C:\Users\PRESID~1\AppData\Local\Temp\ccDe376t.s 			page 70


 2854 1764 00       		.byte	0
 2855 1765 00       		.byte	0
 2856 1766 20       		.uleb128 0x20
 2857 1767 494E545F 		.ascii "INT_ADD\0"
 2857      41444400 
 2858 176f 01       		.byte	0x1
 2859 1770 B8       		.byte	0xb8
 2860 1771 06       		.byte	0x6
 2861 1772 9C020000 		.long	LFB6
 2862 1776 61000000 		.long	LFE6-LFB6
 2863 177a 01       		.uleb128 0x1
 2864 177b 9C       		.byte	0x9c
 2865 177c 02180000 		.long	0x1802
 2866 1780 21       		.uleb128 0x21
 2867 1781 53756D6D 		.ascii "Summe\0"
 2867      6500
 2868 1787 01       		.byte	0x1
 2869 1788 B8       		.byte	0xb8
 2870 1789 17       		.byte	0x17
 2871 178a 1C140000 		.long	0x141c
 2872 178e 02       		.uleb128 0x2
 2873 178f 91       		.byte	0x91
 2874 1790 00       		.sleb128 0
 2875 1791 21       		.uleb128 0x21
 2876 1792 45727374 		.ascii "ErsterSummand\0"
 2876      65725375 
 2876      6D6D616E 
 2876      6400
 2877 17a0 01       		.byte	0x1
 2878 17a1 B8       		.byte	0xb8
 2879 17a2 2D       		.byte	0x2d
 2880 17a3 0D150000 		.long	0x150d
 2881 17a7 02       		.uleb128 0x2
 2882 17a8 91       		.byte	0x91
 2883 17a9 04       		.sleb128 4
 2884 17aa 21       		.uleb128 0x21
 2885 17ab 5A776569 		.ascii "ZweiterSummand\0"
 2885      74657253 
 2885      756D6D61 
 2885      6E6400
 2886 17ba 01       		.byte	0x1
 2887 17bb B8       		.byte	0xb8
 2888 17bc 4B       		.byte	0x4b
 2889 17bd 0D150000 		.long	0x150d
 2890 17c1 02       		.uleb128 0x2
 2891 17c2 91       		.byte	0x91
 2892 17c3 08       		.sleb128 8
 2893 17c4 1E       		.uleb128 0x1e
 2894 17c5 706F7300 		.ascii "pos\0"
 2895 17c9 01       		.byte	0x1
 2896 17ca BA       		.byte	0xba
 2897 17cb 0A       		.byte	0xa
 2898 17cc E0000000 		.long	0xe0
 2899 17d0 02       		.uleb128 0x2
 2900 17d1 91       		.byte	0x91
 2901 17d2 77       		.sleb128 -9
 2902 17d3 1E       		.uleb128 0x1e
GAS LISTING C:\Users\PRESID~1\AppData\Local\Temp\ccDe376t.s 			page 71


 2903 17d4 63617272 		.ascii "carry\0"
 2903      7900
 2904 17da 01       		.byte	0x1
 2905 17db BB       		.byte	0xbb
 2906 17dc 0B       		.byte	0xb
 2907 17dd 11010000 		.long	0x111
 2908 17e1 02       		.uleb128 0x2
 2909 17e2 91       		.byte	0x91
 2910 17e3 74       		.sleb128 -12
 2911 17e4 22       		.uleb128 0x22
 2912 17e5 AE020000 		.long	LBB2
 2913 17e9 3F000000 		.long	LBE2-LBB2
 2914 17ed 1E       		.uleb128 0x1e
 2915 17ee 746D705F 		.ascii "tmp_sum\0"
 2915      73756D00 
 2916 17f6 01       		.byte	0x1
 2917 17f7 BF       		.byte	0xbf
 2918 17f8 0E       		.byte	0xe
 2919 17f9 11010000 		.long	0x111
 2920 17fd 02       		.uleb128 0x2
 2921 17fe 91       		.byte	0x91
 2922 17ff 72       		.sleb128 -14
 2923 1800 00       		.byte	0
 2924 1801 00       		.byte	0
 2925 1802 23       		.uleb128 0x23
 2926 1803 494E545F 		.ascii "INT_MUL\0"
 2926      4D554C00 
 2927 180b 01       		.byte	0x1
 2928 180c 87       		.byte	0x87
 2929 180d 06       		.byte	0x6
 2930 180e E2010000 		.long	LFB5
 2931 1812 BA000000 		.long	LFE5-LFB5
 2932 1816 01       		.uleb128 0x1
 2933 1817 9C       		.byte	0x9c
 2934 1818 BB180000 		.long	0x18bb
 2935 181c 21       		.uleb128 0x21
 2936 181d 50726F64 		.ascii "Produkt\0"
 2936      756B7400 
 2937 1825 01       		.byte	0x1
 2938 1826 87       		.byte	0x87
 2939 1827 17       		.byte	0x17
 2940 1828 1C140000 		.long	0x141c
 2941 182c 02       		.uleb128 0x2
 2942 182d 91       		.byte	0x91
 2943 182e 00       		.sleb128 0
 2944 182f 21       		.uleb128 0x21
 2945 1830 46616B74 		.ascii "Faktor1\0"
 2945      6F723100 
 2946 1838 01       		.byte	0x1
 2947 1839 87       		.byte	0x87
 2948 183a 2F       		.byte	0x2f
 2949 183b 0D150000 		.long	0x150d
 2950 183f 02       		.uleb128 0x2
 2951 1840 91       		.byte	0x91
 2952 1841 04       		.sleb128 4
 2953 1842 21       		.uleb128 0x21
 2954 1843 46616B74 		.ascii "Faktor2\0"
GAS LISTING C:\Users\PRESID~1\AppData\Local\Temp\ccDe376t.s 			page 72


 2954      6F723200 
 2955 184b 01       		.byte	0x1
 2956 184c 87       		.byte	0x87
 2957 184d 47       		.byte	0x47
 2958 184e 0D150000 		.long	0x150d
 2959 1852 02       		.uleb128 0x2
 2960 1853 91       		.byte	0x91
 2961 1854 08       		.sleb128 8
 2962 1855 1E       		.uleb128 0x1e
 2963 1856 72657375 		.ascii "result\0"
 2963      6C7400
 2964 185d 01       		.byte	0x1
 2965 185e 92       		.byte	0x92
 2966 185f 0C       		.byte	0xc
 2967 1860 08060000 		.long	0x608
 2968 1864 02       		.uleb128 0x2
 2969 1865 91       		.byte	0x91
 2970 1866 56       		.sleb128 -42
 2971 1867 1E       		.uleb128 0x1e
 2972 1868 6C6F6361 		.ascii "local_tmp_bigInt\0"
 2972      6C5F746D 
 2972      705F6269 
 2972      67496E74 
 2972      00
 2973 1879 01       		.byte	0x1
 2974 187a 92       		.byte	0x92
 2975 187b 14       		.byte	0x14
 2976 187c 08060000 		.long	0x608
 2977 1880 02       		.uleb128 0x2
 2978 1881 91       		.byte	0x91
 2979 1882 46       		.sleb128 -58
 2980 1883 1E       		.uleb128 0x1e
 2981 1884 706F7331 		.ascii "pos1\0"
 2981      00
 2982 1889 01       		.byte	0x1
 2983 188a 93       		.byte	0x93
 2984 188b 0B       		.byte	0xb
 2985 188c 73010000 		.long	0x173
 2986 1890 02       		.uleb128 0x2
 2987 1891 91       		.byte	0x91
 2988 1892 6C       		.sleb128 -20
 2989 1893 1E       		.uleb128 0x1e
 2990 1894 706F7332 		.ascii "pos2\0"
 2990      00
 2991 1899 01       		.byte	0x1
 2992 189a 93       		.byte	0x93
 2993 189b 11       		.byte	0x11
 2994 189c 73010000 		.long	0x173
 2995 18a0 02       		.uleb128 0x2
 2996 18a1 91       		.byte	0x91
 2997 18a2 68       		.sleb128 -24
 2998 18a3 1E       		.uleb128 0x1e
 2999 18a4 6C6F6361 		.ascii "local_tmp16\0"
 2999      6C5F746D 
 2999      70313600 
 3000 18b0 01       		.byte	0x1
 3001 18b1 94       		.byte	0x94
GAS LISTING C:\Users\PRESID~1\AppData\Local\Temp\ccDe376t.s 			page 73


 3002 18b2 0B       		.byte	0xb
 3003 18b3 11010000 		.long	0x111
 3004 18b7 02       		.uleb128 0x2
 3005 18b8 91       		.byte	0x91
 3006 18b9 66       		.sleb128 -26
 3007 18ba 00       		.byte	0
 3008 18bb 23       		.uleb128 0x23
 3009 18bc 494E545F 		.ascii "INT_DIV\0"
 3009      44495600 
 3010 18c4 01       		.byte	0x1
 3011 18c5 3A       		.byte	0x3a
 3012 18c6 06       		.byte	0x6
 3013 18c7 7F000000 		.long	LFB4
 3014 18cb 63010000 		.long	LFE4-LFB4
 3015 18cf 01       		.uleb128 0x1
 3016 18d0 9C       		.byte	0x9c
 3017 18d1 F4190000 		.long	0x19f4
 3018 18d5 21       		.uleb128 0x21
 3019 18d6 51756F74 		.ascii "Quotient\0"
 3019      69656E74 
 3019      00
 3020 18df 01       		.byte	0x1
 3021 18e0 3A       		.byte	0x3a
 3022 18e1 17       		.byte	0x17
 3023 18e2 1C140000 		.long	0x141c
 3024 18e6 02       		.uleb128 0x2
 3025 18e7 91       		.byte	0x91
 3026 18e8 00       		.sleb128 0
 3027 18e9 21       		.uleb128 0x21
 3028 18ea 44697669 		.ascii "Dividend\0"
 3028      64656E64 
 3028      00
 3029 18f3 01       		.byte	0x1
 3030 18f4 3A       		.byte	0x3a
 3031 18f5 30       		.byte	0x30
 3032 18f6 0D150000 		.long	0x150d
 3033 18fa 02       		.uleb128 0x2
 3034 18fb 91       		.byte	0x91
 3035 18fc 04       		.sleb128 4
 3036 18fd 21       		.uleb128 0x21
 3037 18fe 44697669 		.ascii "Divisor\0"
 3037      736F7200 
 3038 1906 01       		.byte	0x1
 3039 1907 3A       		.byte	0x3a
 3040 1908 49       		.byte	0x49
 3041 1909 0D150000 		.long	0x150d
 3042 190d 02       		.uleb128 0x2
 3043 190e 91       		.byte	0x91
 3044 190f 08       		.sleb128 8
 3045 1910 1E       		.uleb128 0x1e
 3046 1911 6E696262 		.ascii "nibble_shift_left_amount\0"
 3046      6C655F73 
 3046      68696674 
 3046      5F6C6566 
 3046      745F616D 
 3047 192a 01       		.byte	0x1
 3048 192b 4B       		.byte	0x4b
GAS LISTING C:\Users\PRESID~1\AppData\Local\Temp\ccDe376t.s 			page 74


 3049 192c 0B       		.byte	0xb
 3050 192d 5A010000 		.long	0x15a
 3051 1931 02       		.uleb128 0x2
 3052 1932 91       		.byte	0x91
 3053 1933 6C       		.sleb128 -20
 3054 1934 1E       		.uleb128 0x1e
 3055 1935 6C6F6361 		.ascii "local_zero\0"
 3055      6C5F7A65 
 3055      726F00
 3056 1940 01       		.byte	0x1
 3057 1941 4C       		.byte	0x4c
 3058 1942 0C       		.byte	0xc
 3059 1943 08060000 		.long	0x608
 3060 1947 02       		.uleb128 0x2
 3061 1948 91       		.byte	0x91
 3062 1949 50       		.sleb128 -48
 3063 194a 1E       		.uleb128 0x1e
 3064 194b 746D705F 		.ascii "tmp_Dividend\0"
 3064      44697669 
 3064      64656E64 
 3064      00
 3065 1958 01       		.byte	0x1
 3066 1959 4D       		.byte	0x4d
 3067 195a 0C       		.byte	0xc
 3068 195b 08060000 		.long	0x608
 3069 195f 02       		.uleb128 0x2
 3070 1960 91       		.byte	0x91
 3071 1961 40       		.sleb128 -64
 3072 1962 1E       		.uleb128 0x1e
 3073 1963 746D705F 		.ascii "tmp_Divisor\0"
 3073      44697669 
 3073      736F7200 
 3074 196f 01       		.byte	0x1
 3075 1970 4D       		.byte	0x4d
 3076 1971 1A       		.byte	0x1a
 3077 1972 08060000 		.long	0x608
 3078 1976 03       		.uleb128 0x3
 3079 1977 91       		.byte	0x91
 3080 1978 B07F     		.sleb128 -80
 3081 197a 1E       		.uleb128 0x1e
 3082 197b 72657374 		.ascii "rest\0"
 3082      00
 3083 1980 01       		.byte	0x1
 3084 1981 4E       		.byte	0x4e
 3085 1982 0C       		.byte	0xc
 3086 1983 08060000 		.long	0x608
 3087 1987 03       		.uleb128 0x3
 3088 1988 91       		.byte	0x91
 3089 1989 A07F     		.sleb128 -96
 3090 198b 1E       		.uleb128 0x1e
 3091 198c 6C6F6361 		.ascii "local_cnt\0"
 3091      6C5F636E 
 3091      7400
 3092 1996 01       		.byte	0x1
 3093 1997 4F       		.byte	0x4f
 3094 1998 0C       		.byte	0xc
 3095 1999 5A010000 		.long	0x15a
GAS LISTING C:\Users\PRESID~1\AppData\Local\Temp\ccDe376t.s 			page 75


 3096 199d 02       		.uleb128 0x2
 3097 199e 91       		.byte	0x91
 3098 199f 68       		.sleb128 -24
 3099 19a0 1E       		.uleb128 0x1e
 3100 19a1 6F6E655F 		.ascii "one_shifted_nibble\0"
 3100      73686966 
 3100      7465645F 
 3100      6E696262 
 3100      6C6500
 3101 19b4 01       		.byte	0x1
 3102 19b5 50       		.byte	0x50
 3103 19b6 0B       		.byte	0xb
 3104 19b7 5A010000 		.long	0x15a
 3105 19bb 02       		.uleb128 0x2
 3106 19bc 91       		.byte	0x91
 3107 19bd 64       		.sleb128 -28
 3108 19be 1E       		.uleb128 0x1e
 3109 19bf 7533325F 		.ascii "u32_teilergebnis\0"
 3109      7465696C 
 3109      65726765 
 3109      626E6973 
 3109      00
 3110 19d0 01       		.byte	0x1
 3111 19d1 51       		.byte	0x51
 3112 19d2 0B       		.byte	0xb
 3113 19d3 5A010000 		.long	0x15a
 3114 19d7 02       		.uleb128 0x2
 3115 19d8 91       		.byte	0x91
 3116 19d9 60       		.sleb128 -32
 3117 19da 1E       		.uleb128 0x1e
 3118 19db 7465696C 		.ascii "teilergebnis\0"
 3118      65726765 
 3118      626E6973 
 3118      00
 3119 19e8 01       		.byte	0x1
 3120 19e9 52       		.byte	0x52
 3121 19ea 0C       		.byte	0xc
 3122 19eb 08060000 		.long	0x608
 3123 19ef 03       		.uleb128 0x3
 3124 19f0 91       		.byte	0x91
 3125 19f1 907F     		.sleb128 -112
 3126 19f3 00       		.byte	0
 3127 19f4 23       		.uleb128 0x23
 3128 19f5 4F535F52 		.ascii "OS_READ_AND_RESET_CURRENT_TIME\0"
 3128      4541445F 
 3128      414E445F 
 3128      52455345 
 3128      545F4355 
 3129 1a14 01       		.byte	0x1
 3130 1a15 1F       		.byte	0x1f
 3131 1a16 06       		.byte	0x6
 3132 1a17 63000000 		.long	LFB3
 3133 1a1b 1C000000 		.long	LFE3-LFB3
 3134 1a1f 01       		.uleb128 0x1
 3135 1a20 9C       		.byte	0x9c
 3136 1a21 391A0000 		.long	0x1a39
 3137 1a25 21       		.uleb128 0x21
GAS LISTING C:\Users\PRESID~1\AppData\Local\Temp\ccDe376t.s 			page 76


 3138 1a26 74696D65 		.ascii "timebig\0"
 3138      62696700 
 3139 1a2e 01       		.byte	0x1
 3140 1a2f 1F       		.byte	0x1f
 3141 1a30 30       		.byte	0x30
 3142 1a31 391A0000 		.long	0x1a39
 3143 1a35 02       		.uleb128 0x2
 3144 1a36 91       		.byte	0x91
 3145 1a37 00       		.sleb128 0
 3146 1a38 00       		.byte	0
 3147 1a39 0C       		.uleb128 0xc
 3148 1a3a 04       		.byte	0x4
 3149 1a3b 1D060000 		.long	0x61d
 3150 1a3f 23       		.uleb128 0x23
 3151 1a40 4F535F55 		.ascii "OS_UpdateCurrentTime\0"
 3151      70646174 
 3151      65437572 
 3151      72656E74 
 3151      54696D65 
 3152 1a55 01       		.byte	0x1
 3153 1a56 13       		.byte	0x13
 3154 1a57 06       		.byte	0x6
 3155 1a58 34000000 		.long	LFB2
 3156 1a5c 2F000000 		.long	LFE2-LFB2
 3157 1a60 01       		.uleb128 0x1
 3158 1a61 9C       		.byte	0x9c
 3159 1a62 7B1A0000 		.long	0x1a7b
 3160 1a66 1E       		.uleb128 0x1e
 3161 1a67 746D705F 		.ascii "tmp_time\0"
 3161      74696D65 
 3161      00
 3162 1a70 01       		.byte	0x1
 3163 1a71 18       		.byte	0x18
 3164 1a72 0E       		.byte	0xe
 3165 1a73 1D060000 		.long	0x61d
 3166 1a77 02       		.uleb128 0x2
 3167 1a78 91       		.byte	0x91
 3168 1a79 60       		.sleb128 -32
 3169 1a7a 00       		.byte	0
 3170 1a7b 23       		.uleb128 0x23
 3171 1a7c 4F535F47 		.ascii "OS_GET_CURRENT_TIME\0"
 3171      45545F43 
 3171      55525245 
 3171      4E545F54 
 3171      494D4500 
 3172 1a90 01       		.byte	0x1
 3173 1a91 0B       		.byte	0xb
 3174 1a92 06       		.byte	0x6
 3175 1a93 13000000 		.long	LFB1
 3176 1a97 21000000 		.long	LFE1-LFB1
 3177 1a9b 01       		.uleb128 0x1
 3178 1a9c 9C       		.byte	0x9c
 3179 1a9d B21A0000 		.long	0x1ab2
 3180 1aa1 21       		.uleb128 0x21
 3181 1aa2 74696D65 		.ascii "time\0"
 3181      00
 3182 1aa7 01       		.byte	0x1
GAS LISTING C:\Users\PRESID~1\AppData\Local\Temp\ccDe376t.s 			page 77


 3183 1aa8 0B       		.byte	0xb
 3184 1aa9 25       		.byte	0x25
 3185 1aaa 391A0000 		.long	0x1a39
 3186 1aae 02       		.uleb128 0x2
 3187 1aaf 91       		.byte	0x91
 3188 1ab0 00       		.sleb128 0
 3189 1ab1 00       		.byte	0
 3190 1ab2 24       		.uleb128 0x24
 3191 1ab3 4F535F53 		.ascii "OS_SET_SW_BUG\0"
 3191      45545F53 
 3191      575F4255 
 3191      4700
 3192 1ac1 01       		.byte	0x1
 3193 1ac2 04       		.byte	0x4
 3194 1ac3 06       		.byte	0x6
 3195 1ac4 00000000 		.long	LFB0
 3196 1ac8 13000000 		.long	LFE0-LFB0
 3197 1acc 01       		.uleb128 0x1
 3198 1acd 9C       		.byte	0x9c
 3199 1ace 21       		.uleb128 0x21
 3200 1acf 6275675F 		.ascii "bug_nr\0"
 3200      6E7200
 3201 1ad6 01       		.byte	0x1
 3202 1ad7 04       		.byte	0x4
 3203 1ad8 21       		.byte	0x21
 3204 1ad9 6C030000 		.long	0x36c
 3205 1add 02       		.uleb128 0x2
 3206 1ade 91       		.byte	0x91
 3207 1adf 00       		.sleb128 0
 3208 1ae0 21       		.uleb128 0x21
 3209 1ae1 7461736B 		.ascii "task_func_nr\0"
 3209      5F66756E 
 3209      635F6E72 
 3209      00
 3210 1aee 01       		.byte	0x1
 3211 1aef 04       		.byte	0x4
 3212 1af0 3F       		.byte	0x3f
 3213 1af1 B6050000 		.long	0x5b6
 3214 1af5 02       		.uleb128 0x2
 3215 1af6 91       		.byte	0x91
 3216 1af7 04       		.sleb128 4
 3217 1af8 00       		.byte	0
 3218 1af9 00       		.byte	0
 3219              		.section	.debug_abbrev,"dr"
 3220              	Ldebug_abbrev0:
 3221 0000 01       		.uleb128 0x1
 3222 0001 11       		.uleb128 0x11
 3223 0002 01       		.byte	0x1
 3224 0003 25       		.uleb128 0x25
 3225 0004 08       		.uleb128 0x8
 3226 0005 13       		.uleb128 0x13
 3227 0006 0B       		.uleb128 0xb
 3228 0007 03       		.uleb128 0x3
 3229 0008 08       		.uleb128 0x8
 3230 0009 1B       		.uleb128 0x1b
 3231 000a 08       		.uleb128 0x8
 3232 000b 11       		.uleb128 0x11
GAS LISTING C:\Users\PRESID~1\AppData\Local\Temp\ccDe376t.s 			page 78


 3233 000c 01       		.uleb128 0x1
 3234 000d 12       		.uleb128 0x12
 3235 000e 06       		.uleb128 0x6
 3236 000f 10       		.uleb128 0x10
 3237 0010 17       		.uleb128 0x17
 3238 0011 9942     		.uleb128 0x2119
 3239 0013 17       		.uleb128 0x17
 3240 0014 00       		.byte	0
 3241 0015 00       		.byte	0
 3242 0016 02       		.uleb128 0x2
 3243 0017 16       		.uleb128 0x16
 3244 0018 00       		.byte	0
 3245 0019 03       		.uleb128 0x3
 3246 001a 08       		.uleb128 0x8
 3247 001b 3A       		.uleb128 0x3a
 3248 001c 0B       		.uleb128 0xb
 3249 001d 3B       		.uleb128 0x3b
 3250 001e 0B       		.uleb128 0xb
 3251 001f 39       		.uleb128 0x39
 3252 0020 0B       		.uleb128 0xb
 3253 0021 49       		.uleb128 0x49
 3254 0022 13       		.uleb128 0x13
 3255 0023 00       		.byte	0
 3256 0024 00       		.byte	0
 3257 0025 03       		.uleb128 0x3
 3258 0026 24       		.uleb128 0x24
 3259 0027 00       		.byte	0
 3260 0028 0B       		.uleb128 0xb
 3261 0029 0B       		.uleb128 0xb
 3262 002a 3E       		.uleb128 0x3e
 3263 002b 0B       		.uleb128 0xb
 3264 002c 03       		.uleb128 0x3
 3265 002d 08       		.uleb128 0x8
 3266 002e 00       		.byte	0
 3267 002f 00       		.byte	0
 3268 0030 04       		.uleb128 0x4
 3269 0031 35       		.uleb128 0x35
 3270 0032 00       		.byte	0
 3271 0033 49       		.uleb128 0x49
 3272 0034 13       		.uleb128 0x13
 3273 0035 00       		.byte	0
 3274 0036 00       		.byte	0
 3275 0037 05       		.uleb128 0x5
 3276 0038 26       		.uleb128 0x26
 3277 0039 00       		.byte	0
 3278 003a 49       		.uleb128 0x49
 3279 003b 13       		.uleb128 0x13
 3280 003c 00       		.byte	0
 3281 003d 00       		.byte	0
 3282 003e 06       		.uleb128 0x6
 3283 003f 04       		.uleb128 0x4
 3284 0040 01       		.byte	0x1
 3285 0041 03       		.uleb128 0x3
 3286 0042 08       		.uleb128 0x8
 3287 0043 3E       		.uleb128 0x3e
 3288 0044 0B       		.uleb128 0xb
 3289 0045 0B       		.uleb128 0xb
GAS LISTING C:\Users\PRESID~1\AppData\Local\Temp\ccDe376t.s 			page 79


 3290 0046 0B       		.uleb128 0xb
 3291 0047 49       		.uleb128 0x49
 3292 0048 13       		.uleb128 0x13
 3293 0049 3A       		.uleb128 0x3a
 3294 004a 0B       		.uleb128 0xb
 3295 004b 3B       		.uleb128 0x3b
 3296 004c 0B       		.uleb128 0xb
 3297 004d 39       		.uleb128 0x39
 3298 004e 0B       		.uleb128 0xb
 3299 004f 01       		.uleb128 0x1
 3300 0050 13       		.uleb128 0x13
 3301 0051 00       		.byte	0
 3302 0052 00       		.byte	0
 3303 0053 07       		.uleb128 0x7
 3304 0054 28       		.uleb128 0x28
 3305 0055 00       		.byte	0
 3306 0056 03       		.uleb128 0x3
 3307 0057 08       		.uleb128 0x8
 3308 0058 1C       		.uleb128 0x1c
 3309 0059 0B       		.uleb128 0xb
 3310 005a 00       		.byte	0
 3311 005b 00       		.byte	0
 3312 005c 08       		.uleb128 0x8
 3313 005d 13       		.uleb128 0x13
 3314 005e 01       		.byte	0x1
 3315 005f 03       		.uleb128 0x3
 3316 0060 08       		.uleb128 0x8
 3317 0061 0B       		.uleb128 0xb
 3318 0062 0B       		.uleb128 0xb
 3319 0063 3A       		.uleb128 0x3a
 3320 0064 0B       		.uleb128 0xb
 3321 0065 3B       		.uleb128 0x3b
 3322 0066 0B       		.uleb128 0xb
 3323 0067 39       		.uleb128 0x39
 3324 0068 0B       		.uleb128 0xb
 3325 0069 01       		.uleb128 0x1
 3326 006a 13       		.uleb128 0x13
 3327 006b 00       		.byte	0
 3328 006c 00       		.byte	0
 3329 006d 09       		.uleb128 0x9
 3330 006e 0D       		.uleb128 0xd
 3331 006f 00       		.byte	0
 3332 0070 03       		.uleb128 0x3
 3333 0071 08       		.uleb128 0x8
 3334 0072 3A       		.uleb128 0x3a
 3335 0073 0B       		.uleb128 0xb
 3336 0074 3B       		.uleb128 0x3b
 3337 0075 0B       		.uleb128 0xb
 3338 0076 39       		.uleb128 0x39
 3339 0077 0B       		.uleb128 0xb
 3340 0078 49       		.uleb128 0x49
 3341 0079 13       		.uleb128 0x13
 3342 007a 38       		.uleb128 0x38
 3343 007b 0B       		.uleb128 0xb
 3344 007c 00       		.byte	0
 3345 007d 00       		.byte	0
 3346 007e 0A       		.uleb128 0xa
GAS LISTING C:\Users\PRESID~1\AppData\Local\Temp\ccDe376t.s 			page 80


 3347 007f 01       		.uleb128 0x1
 3348 0080 01       		.byte	0x1
 3349 0081 49       		.uleb128 0x49
 3350 0082 13       		.uleb128 0x13
 3351 0083 01       		.uleb128 0x1
 3352 0084 13       		.uleb128 0x13
 3353 0085 00       		.byte	0
 3354 0086 00       		.byte	0
 3355 0087 0B       		.uleb128 0xb
 3356 0088 21       		.uleb128 0x21
 3357 0089 00       		.byte	0
 3358 008a 49       		.uleb128 0x49
 3359 008b 13       		.uleb128 0x13
 3360 008c 2F       		.uleb128 0x2f
 3361 008d 0B       		.uleb128 0xb
 3362 008e 00       		.byte	0
 3363 008f 00       		.byte	0
 3364 0090 0C       		.uleb128 0xc
 3365 0091 0F       		.uleb128 0xf
 3366 0092 00       		.byte	0
 3367 0093 0B       		.uleb128 0xb
 3368 0094 0B       		.uleb128 0xb
 3369 0095 49       		.uleb128 0x49
 3370 0096 13       		.uleb128 0x13
 3371 0097 00       		.byte	0
 3372 0098 00       		.byte	0
 3373 0099 0D       		.uleb128 0xd
 3374 009a 15       		.uleb128 0x15
 3375 009b 01       		.byte	0x1
 3376 009c 27       		.uleb128 0x27
 3377 009d 19       		.uleb128 0x19
 3378 009e 01       		.uleb128 0x1
 3379 009f 13       		.uleb128 0x13
 3380 00a0 00       		.byte	0
 3381 00a1 00       		.byte	0
 3382 00a2 0E       		.uleb128 0xe
 3383 00a3 05       		.uleb128 0x5
 3384 00a4 00       		.byte	0
 3385 00a5 49       		.uleb128 0x49
 3386 00a6 13       		.uleb128 0x13
 3387 00a7 00       		.byte	0
 3388 00a8 00       		.byte	0
 3389 00a9 0F       		.uleb128 0xf
 3390 00aa 0F       		.uleb128 0xf
 3391 00ab 00       		.byte	0
 3392 00ac 0B       		.uleb128 0xb
 3393 00ad 0B       		.uleb128 0xb
 3394 00ae 00       		.byte	0
 3395 00af 00       		.byte	0
 3396 00b0 10       		.uleb128 0x10
 3397 00b1 15       		.uleb128 0x15
 3398 00b2 01       		.byte	0x1
 3399 00b3 27       		.uleb128 0x27
 3400 00b4 19       		.uleb128 0x19
 3401 00b5 49       		.uleb128 0x49
 3402 00b6 13       		.uleb128 0x13
 3403 00b7 01       		.uleb128 0x1
GAS LISTING C:\Users\PRESID~1\AppData\Local\Temp\ccDe376t.s 			page 81


 3404 00b8 13       		.uleb128 0x13
 3405 00b9 00       		.byte	0
 3406 00ba 00       		.byte	0
 3407 00bb 11       		.uleb128 0x11
 3408 00bc 0D       		.uleb128 0xd
 3409 00bd 00       		.byte	0
 3410 00be 03       		.uleb128 0x3
 3411 00bf 0E       		.uleb128 0xe
 3412 00c0 3A       		.uleb128 0x3a
 3413 00c1 0B       		.uleb128 0xb
 3414 00c2 3B       		.uleb128 0x3b
 3415 00c3 0B       		.uleb128 0xb
 3416 00c4 39       		.uleb128 0x39
 3417 00c5 0B       		.uleb128 0xb
 3418 00c6 49       		.uleb128 0x49
 3419 00c7 13       		.uleb128 0x13
 3420 00c8 38       		.uleb128 0x38
 3421 00c9 0B       		.uleb128 0xb
 3422 00ca 00       		.byte	0
 3423 00cb 00       		.byte	0
 3424 00cc 12       		.uleb128 0x12
 3425 00cd 0D       		.uleb128 0xd
 3426 00ce 00       		.byte	0
 3427 00cf 03       		.uleb128 0x3
 3428 00d0 08       		.uleb128 0x8
 3429 00d1 3A       		.uleb128 0x3a
 3430 00d2 0B       		.uleb128 0xb
 3431 00d3 3B       		.uleb128 0x3b
 3432 00d4 0B       		.uleb128 0xb
 3433 00d5 39       		.uleb128 0x39
 3434 00d6 0B       		.uleb128 0xb
 3435 00d7 49       		.uleb128 0x49
 3436 00d8 13       		.uleb128 0x13
 3437 00d9 0B       		.uleb128 0xb
 3438 00da 0B       		.uleb128 0xb
 3439 00db 0D       		.uleb128 0xd
 3440 00dc 0B       		.uleb128 0xb
 3441 00dd 0C       		.uleb128 0xc
 3442 00de 0B       		.uleb128 0xb
 3443 00df 38       		.uleb128 0x38
 3444 00e0 0B       		.uleb128 0xb
 3445 00e1 00       		.byte	0
 3446 00e2 00       		.byte	0
 3447 00e3 13       		.uleb128 0x13
 3448 00e4 34       		.uleb128 0x34
 3449 00e5 00       		.byte	0
 3450 00e6 03       		.uleb128 0x3
 3451 00e7 08       		.uleb128 0x8
 3452 00e8 3A       		.uleb128 0x3a
 3453 00e9 0B       		.uleb128 0xb
 3454 00ea 3B       		.uleb128 0x3b
 3455 00eb 0B       		.uleb128 0xb
 3456 00ec 39       		.uleb128 0x39
 3457 00ed 0B       		.uleb128 0xb
 3458 00ee 49       		.uleb128 0x49
 3459 00ef 13       		.uleb128 0x13
 3460 00f0 3F       		.uleb128 0x3f
GAS LISTING C:\Users\PRESID~1\AppData\Local\Temp\ccDe376t.s 			page 82


 3461 00f1 19       		.uleb128 0x19
 3462 00f2 3C       		.uleb128 0x3c
 3463 00f3 19       		.uleb128 0x19
 3464 00f4 00       		.byte	0
 3465 00f5 00       		.byte	0
 3466 00f6 14       		.uleb128 0x14
 3467 00f7 21       		.uleb128 0x21
 3468 00f8 00       		.byte	0
 3469 00f9 49       		.uleb128 0x49
 3470 00fa 13       		.uleb128 0x13
 3471 00fb 2F       		.uleb128 0x2f
 3472 00fc 05       		.uleb128 0x5
 3473 00fd 00       		.byte	0
 3474 00fe 00       		.byte	0
 3475 00ff 15       		.uleb128 0x15
 3476 0100 2E       		.uleb128 0x2e
 3477 0101 01       		.byte	0x1
 3478 0102 3F       		.uleb128 0x3f
 3479 0103 19       		.uleb128 0x19
 3480 0104 03       		.uleb128 0x3
 3481 0105 08       		.uleb128 0x8
 3482 0106 3A       		.uleb128 0x3a
 3483 0107 0B       		.uleb128 0xb
 3484 0108 3B       		.uleb128 0x3b
 3485 0109 05       		.uleb128 0x5
 3486 010a 39       		.uleb128 0x39
 3487 010b 0B       		.uleb128 0xb
 3488 010c 27       		.uleb128 0x27
 3489 010d 19       		.uleb128 0x19
 3490 010e 11       		.uleb128 0x11
 3491 010f 01       		.uleb128 0x1
 3492 0110 12       		.uleb128 0x12
 3493 0111 06       		.uleb128 0x6
 3494 0112 40       		.uleb128 0x40
 3495 0113 18       		.uleb128 0x18
 3496 0114 9742     		.uleb128 0x2117
 3497 0116 19       		.uleb128 0x19
 3498 0117 01       		.uleb128 0x1
 3499 0118 13       		.uleb128 0x13
 3500 0119 00       		.byte	0
 3501 011a 00       		.byte	0
 3502 011b 16       		.uleb128 0x16
 3503 011c 05       		.uleb128 0x5
 3504 011d 00       		.byte	0
 3505 011e 03       		.uleb128 0x3
 3506 011f 08       		.uleb128 0x8
 3507 0120 3A       		.uleb128 0x3a
 3508 0121 0B       		.uleb128 0xb
 3509 0122 3B       		.uleb128 0x3b
 3510 0123 05       		.uleb128 0x5
 3511 0124 39       		.uleb128 0x39
 3512 0125 0B       		.uleb128 0xb
 3513 0126 49       		.uleb128 0x49
 3514 0127 13       		.uleb128 0x13
 3515 0128 02       		.uleb128 0x2
 3516 0129 18       		.uleb128 0x18
 3517 012a 00       		.byte	0
GAS LISTING C:\Users\PRESID~1\AppData\Local\Temp\ccDe376t.s 			page 83


 3518 012b 00       		.byte	0
 3519 012c 17       		.uleb128 0x17
 3520 012d 2E       		.uleb128 0x2e
 3521 012e 01       		.byte	0x1
 3522 012f 3F       		.uleb128 0x3f
 3523 0130 19       		.uleb128 0x19
 3524 0131 03       		.uleb128 0x3
 3525 0132 08       		.uleb128 0x8
 3526 0133 3A       		.uleb128 0x3a
 3527 0134 0B       		.uleb128 0xb
 3528 0135 3B       		.uleb128 0x3b
 3529 0136 05       		.uleb128 0x5
 3530 0137 39       		.uleb128 0x39
 3531 0138 0B       		.uleb128 0xb
 3532 0139 27       		.uleb128 0x27
 3533 013a 19       		.uleb128 0x19
 3534 013b 49       		.uleb128 0x49
 3535 013c 13       		.uleb128 0x13
 3536 013d 11       		.uleb128 0x11
 3537 013e 01       		.uleb128 0x1
 3538 013f 12       		.uleb128 0x12
 3539 0140 06       		.uleb128 0x6
 3540 0141 40       		.uleb128 0x40
 3541 0142 18       		.uleb128 0x18
 3542 0143 9742     		.uleb128 0x2117
 3543 0145 19       		.uleb128 0x19
 3544 0146 01       		.uleb128 0x1
 3545 0147 13       		.uleb128 0x13
 3546 0148 00       		.byte	0
 3547 0149 00       		.byte	0
 3548 014a 18       		.uleb128 0x18
 3549 014b 34       		.uleb128 0x34
 3550 014c 00       		.byte	0
 3551 014d 03       		.uleb128 0x3
 3552 014e 08       		.uleb128 0x8
 3553 014f 3A       		.uleb128 0x3a
 3554 0150 0B       		.uleb128 0xb
 3555 0151 3B       		.uleb128 0x3b
 3556 0152 05       		.uleb128 0x5
 3557 0153 39       		.uleb128 0x39
 3558 0154 0B       		.uleb128 0xb
 3559 0155 49       		.uleb128 0x49
 3560 0156 13       		.uleb128 0x13
 3561 0157 02       		.uleb128 0x2
 3562 0158 18       		.uleb128 0x18
 3563 0159 00       		.byte	0
 3564 015a 00       		.byte	0
 3565 015b 19       		.uleb128 0x19
 3566 015c 2E       		.uleb128 0x2e
 3567 015d 01       		.byte	0x1
 3568 015e 3F       		.uleb128 0x3f
 3569 015f 19       		.uleb128 0x19
 3570 0160 03       		.uleb128 0x3
 3571 0161 08       		.uleb128 0x8
 3572 0162 3A       		.uleb128 0x3a
 3573 0163 0B       		.uleb128 0xb
 3574 0164 3B       		.uleb128 0x3b
GAS LISTING C:\Users\PRESID~1\AppData\Local\Temp\ccDe376t.s 			page 84


 3575 0165 05       		.uleb128 0x5
 3576 0166 39       		.uleb128 0x39
 3577 0167 0B       		.uleb128 0xb
 3578 0168 27       		.uleb128 0x27
 3579 0169 19       		.uleb128 0x19
 3580 016a 11       		.uleb128 0x11
 3581 016b 01       		.uleb128 0x1
 3582 016c 12       		.uleb128 0x12
 3583 016d 06       		.uleb128 0x6
 3584 016e 40       		.uleb128 0x40
 3585 016f 18       		.uleb128 0x18
 3586 0170 9642     		.uleb128 0x2116
 3587 0172 19       		.uleb128 0x19
 3588 0173 01       		.uleb128 0x1
 3589 0174 13       		.uleb128 0x13
 3590 0175 00       		.byte	0
 3591 0176 00       		.byte	0
 3592 0177 1A       		.uleb128 0x1a
 3593 0178 05       		.uleb128 0x5
 3594 0179 00       		.byte	0
 3595 017a 03       		.uleb128 0x3
 3596 017b 0E       		.uleb128 0xe
 3597 017c 3A       		.uleb128 0x3a
 3598 017d 0B       		.uleb128 0xb
 3599 017e 3B       		.uleb128 0x3b
 3600 017f 05       		.uleb128 0x5
 3601 0180 39       		.uleb128 0x39
 3602 0181 0B       		.uleb128 0xb
 3603 0182 49       		.uleb128 0x49
 3604 0183 13       		.uleb128 0x13
 3605 0184 02       		.uleb128 0x2
 3606 0185 18       		.uleb128 0x18
 3607 0186 00       		.byte	0
 3608 0187 00       		.byte	0
 3609 0188 1B       		.uleb128 0x1b
 3610 0189 2E       		.uleb128 0x2e
 3611 018a 01       		.byte	0x1
 3612 018b 3F       		.uleb128 0x3f
 3613 018c 19       		.uleb128 0x19
 3614 018d 03       		.uleb128 0x3
 3615 018e 08       		.uleb128 0x8
 3616 018f 3A       		.uleb128 0x3a
 3617 0190 0B       		.uleb128 0xb
 3618 0191 3B       		.uleb128 0x3b
 3619 0192 05       		.uleb128 0x5
 3620 0193 39       		.uleb128 0x39
 3621 0194 0B       		.uleb128 0xb
 3622 0195 27       		.uleb128 0x27
 3623 0196 19       		.uleb128 0x19
 3624 0197 49       		.uleb128 0x49
 3625 0198 13       		.uleb128 0x13
 3626 0199 11       		.uleb128 0x11
 3627 019a 01       		.uleb128 0x1
 3628 019b 12       		.uleb128 0x12
 3629 019c 06       		.uleb128 0x6
 3630 019d 40       		.uleb128 0x40
 3631 019e 18       		.uleb128 0x18
GAS LISTING C:\Users\PRESID~1\AppData\Local\Temp\ccDe376t.s 			page 85


 3632 019f 9642     		.uleb128 0x2116
 3633 01a1 19       		.uleb128 0x19
 3634 01a2 01       		.uleb128 0x1
 3635 01a3 13       		.uleb128 0x13
 3636 01a4 00       		.byte	0
 3637 01a5 00       		.byte	0
 3638 01a6 1C       		.uleb128 0x1c
 3639 01a7 2E       		.uleb128 0x2e
 3640 01a8 01       		.byte	0x1
 3641 01a9 3F       		.uleb128 0x3f
 3642 01aa 19       		.uleb128 0x19
 3643 01ab 03       		.uleb128 0x3
 3644 01ac 08       		.uleb128 0x8
 3645 01ad 3A       		.uleb128 0x3a
 3646 01ae 0B       		.uleb128 0xb
 3647 01af 3B       		.uleb128 0x3b
 3648 01b0 0B       		.uleb128 0xb
 3649 01b1 39       		.uleb128 0x39
 3650 01b2 0B       		.uleb128 0xb
 3651 01b3 27       		.uleb128 0x27
 3652 01b4 19       		.uleb128 0x19
 3653 01b5 49       		.uleb128 0x49
 3654 01b6 13       		.uleb128 0x13
 3655 01b7 11       		.uleb128 0x11
 3656 01b8 01       		.uleb128 0x1
 3657 01b9 12       		.uleb128 0x12
 3658 01ba 06       		.uleb128 0x6
 3659 01bb 40       		.uleb128 0x40
 3660 01bc 18       		.uleb128 0x18
 3661 01bd 9742     		.uleb128 0x2117
 3662 01bf 19       		.uleb128 0x19
 3663 01c0 01       		.uleb128 0x1
 3664 01c1 13       		.uleb128 0x13
 3665 01c2 00       		.byte	0
 3666 01c3 00       		.byte	0
 3667 01c4 1D       		.uleb128 0x1d
 3668 01c5 05       		.uleb128 0x5
 3669 01c6 00       		.byte	0
 3670 01c7 03       		.uleb128 0x3
 3671 01c8 0E       		.uleb128 0xe
 3672 01c9 3A       		.uleb128 0x3a
 3673 01ca 0B       		.uleb128 0xb
 3674 01cb 3B       		.uleb128 0x3b
 3675 01cc 0B       		.uleb128 0xb
 3676 01cd 39       		.uleb128 0x39
 3677 01ce 0B       		.uleb128 0xb
 3678 01cf 49       		.uleb128 0x49
 3679 01d0 13       		.uleb128 0x13
 3680 01d1 02       		.uleb128 0x2
 3681 01d2 18       		.uleb128 0x18
 3682 01d3 00       		.byte	0
 3683 01d4 00       		.byte	0
 3684 01d5 1E       		.uleb128 0x1e
 3685 01d6 34       		.uleb128 0x34
 3686 01d7 00       		.byte	0
 3687 01d8 03       		.uleb128 0x3
 3688 01d9 08       		.uleb128 0x8
GAS LISTING C:\Users\PRESID~1\AppData\Local\Temp\ccDe376t.s 			page 86


 3689 01da 3A       		.uleb128 0x3a
 3690 01db 0B       		.uleb128 0xb
 3691 01dc 3B       		.uleb128 0x3b
 3692 01dd 0B       		.uleb128 0xb
 3693 01de 39       		.uleb128 0x39
 3694 01df 0B       		.uleb128 0xb
 3695 01e0 49       		.uleb128 0x49
 3696 01e1 13       		.uleb128 0x13
 3697 01e2 02       		.uleb128 0x2
 3698 01e3 18       		.uleb128 0x18
 3699 01e4 00       		.byte	0
 3700 01e5 00       		.byte	0
 3701 01e6 1F       		.uleb128 0x1f
 3702 01e7 2E       		.uleb128 0x2e
 3703 01e8 01       		.byte	0x1
 3704 01e9 3F       		.uleb128 0x3f
 3705 01ea 19       		.uleb128 0x19
 3706 01eb 03       		.uleb128 0x3
 3707 01ec 08       		.uleb128 0x8
 3708 01ed 3A       		.uleb128 0x3a
 3709 01ee 0B       		.uleb128 0xb
 3710 01ef 3B       		.uleb128 0x3b
 3711 01f0 0B       		.uleb128 0xb
 3712 01f1 39       		.uleb128 0x39
 3713 01f2 0B       		.uleb128 0xb
 3714 01f3 27       		.uleb128 0x27
 3715 01f4 19       		.uleb128 0x19
 3716 01f5 49       		.uleb128 0x49
 3717 01f6 13       		.uleb128 0x13
 3718 01f7 11       		.uleb128 0x11
 3719 01f8 01       		.uleb128 0x1
 3720 01f9 12       		.uleb128 0x12
 3721 01fa 06       		.uleb128 0x6
 3722 01fb 40       		.uleb128 0x40
 3723 01fc 18       		.uleb128 0x18
 3724 01fd 9642     		.uleb128 0x2116
 3725 01ff 19       		.uleb128 0x19
 3726 0200 01       		.uleb128 0x1
 3727 0201 13       		.uleb128 0x13
 3728 0202 00       		.byte	0
 3729 0203 00       		.byte	0
 3730 0204 20       		.uleb128 0x20
 3731 0205 2E       		.uleb128 0x2e
 3732 0206 01       		.byte	0x1
 3733 0207 3F       		.uleb128 0x3f
 3734 0208 19       		.uleb128 0x19
 3735 0209 03       		.uleb128 0x3
 3736 020a 08       		.uleb128 0x8
 3737 020b 3A       		.uleb128 0x3a
 3738 020c 0B       		.uleb128 0xb
 3739 020d 3B       		.uleb128 0x3b
 3740 020e 0B       		.uleb128 0xb
 3741 020f 39       		.uleb128 0x39
 3742 0210 0B       		.uleb128 0xb
 3743 0211 27       		.uleb128 0x27
 3744 0212 19       		.uleb128 0x19
 3745 0213 11       		.uleb128 0x11
GAS LISTING C:\Users\PRESID~1\AppData\Local\Temp\ccDe376t.s 			page 87


 3746 0214 01       		.uleb128 0x1
 3747 0215 12       		.uleb128 0x12
 3748 0216 06       		.uleb128 0x6
 3749 0217 40       		.uleb128 0x40
 3750 0218 18       		.uleb128 0x18
 3751 0219 9742     		.uleb128 0x2117
 3752 021b 19       		.uleb128 0x19
 3753 021c 01       		.uleb128 0x1
 3754 021d 13       		.uleb128 0x13
 3755 021e 00       		.byte	0
 3756 021f 00       		.byte	0
 3757 0220 21       		.uleb128 0x21
 3758 0221 05       		.uleb128 0x5
 3759 0222 00       		.byte	0
 3760 0223 03       		.uleb128 0x3
 3761 0224 08       		.uleb128 0x8
 3762 0225 3A       		.uleb128 0x3a
 3763 0226 0B       		.uleb128 0xb
 3764 0227 3B       		.uleb128 0x3b
 3765 0228 0B       		.uleb128 0xb
 3766 0229 39       		.uleb128 0x39
 3767 022a 0B       		.uleb128 0xb
 3768 022b 49       		.uleb128 0x49
 3769 022c 13       		.uleb128 0x13
 3770 022d 02       		.uleb128 0x2
 3771 022e 18       		.uleb128 0x18
 3772 022f 00       		.byte	0
 3773 0230 00       		.byte	0
 3774 0231 22       		.uleb128 0x22
 3775 0232 0B       		.uleb128 0xb
 3776 0233 01       		.byte	0x1
 3777 0234 11       		.uleb128 0x11
 3778 0235 01       		.uleb128 0x1
 3779 0236 12       		.uleb128 0x12
 3780 0237 06       		.uleb128 0x6
 3781 0238 00       		.byte	0
 3782 0239 00       		.byte	0
 3783 023a 23       		.uleb128 0x23
 3784 023b 2E       		.uleb128 0x2e
 3785 023c 01       		.byte	0x1
 3786 023d 3F       		.uleb128 0x3f
 3787 023e 19       		.uleb128 0x19
 3788 023f 03       		.uleb128 0x3
 3789 0240 08       		.uleb128 0x8
 3790 0241 3A       		.uleb128 0x3a
 3791 0242 0B       		.uleb128 0xb
 3792 0243 3B       		.uleb128 0x3b
 3793 0244 0B       		.uleb128 0xb
 3794 0245 39       		.uleb128 0x39
 3795 0246 0B       		.uleb128 0xb
 3796 0247 27       		.uleb128 0x27
 3797 0248 19       		.uleb128 0x19
 3798 0249 11       		.uleb128 0x11
 3799 024a 01       		.uleb128 0x1
 3800 024b 12       		.uleb128 0x12
 3801 024c 06       		.uleb128 0x6
 3802 024d 40       		.uleb128 0x40
GAS LISTING C:\Users\PRESID~1\AppData\Local\Temp\ccDe376t.s 			page 88


 3803 024e 18       		.uleb128 0x18
 3804 024f 9642     		.uleb128 0x2116
 3805 0251 19       		.uleb128 0x19
 3806 0252 01       		.uleb128 0x1
 3807 0253 13       		.uleb128 0x13
 3808 0254 00       		.byte	0
 3809 0255 00       		.byte	0
 3810 0256 24       		.uleb128 0x24
 3811 0257 2E       		.uleb128 0x2e
 3812 0258 01       		.byte	0x1
 3813 0259 3F       		.uleb128 0x3f
 3814 025a 19       		.uleb128 0x19
 3815 025b 03       		.uleb128 0x3
 3816 025c 08       		.uleb128 0x8
 3817 025d 3A       		.uleb128 0x3a
 3818 025e 0B       		.uleb128 0xb
 3819 025f 3B       		.uleb128 0x3b
 3820 0260 0B       		.uleb128 0xb
 3821 0261 39       		.uleb128 0x39
 3822 0262 0B       		.uleb128 0xb
 3823 0263 27       		.uleb128 0x27
 3824 0264 19       		.uleb128 0x19
 3825 0265 11       		.uleb128 0x11
 3826 0266 01       		.uleb128 0x1
 3827 0267 12       		.uleb128 0x12
 3828 0268 06       		.uleb128 0x6
 3829 0269 40       		.uleb128 0x40
 3830 026a 18       		.uleb128 0x18
 3831 026b 9742     		.uleb128 0x2117
 3832 026d 19       		.uleb128 0x19
 3833 026e 00       		.byte	0
 3834 026f 00       		.byte	0
 3835 0270 00       		.byte	0
 3836              		.section	.debug_aranges,"dr"
 3837 0000 1C000000 		.long	0x1c
 3838 0004 0200     		.word	0x2
 3839 0006 00000000 		.secrel32	Ldebug_info0
 3840 000a 04       		.byte	0x4
 3841 000b 00       		.byte	0
 3842 000c 0000     		.word	0
 3843 000e 0000     		.word	0
 3844 0010 00000000 		.long	Ltext0
 3845 0014 7A070000 		.long	Letext0-Ltext0
 3846 0018 00000000 		.long	0
 3847 001c 00000000 		.long	0
 3848              		.section	.debug_macro,"dr"
 3849              	Ldebug_macro0:
 3850 0000 0400     		.word	0x4
 3851 0002 02       		.byte	0x2
 3852 0003 00000000 		.secrel32	Ldebug_line0
 3853 0007 01       		.byte	0x1
 3854 0008 00       		.uleb128 0
 3855 0009 5F5F5354 		.ascii "__STDC__ 1\0"
 3855      44435F5F 
 3855      203100
 3856 0014 01       		.byte	0x1
 3857 0015 00       		.uleb128 0
GAS LISTING C:\Users\PRESID~1\AppData\Local\Temp\ccDe376t.s 			page 89


 3858 0016 5F5F5354 		.ascii "__STDC_HOSTED__ 1\0"
 3858      44435F48 
 3858      4F535445 
 3858      445F5F20 
 3858      3100
 3859 0028 01       		.byte	0x1
 3860 0029 00       		.uleb128 0
 3861 002a 5F5F474E 		.ascii "__GNUC__ 8\0"
 3861      55435F5F 
 3861      203800
 3862 0035 01       		.byte	0x1
 3863 0036 00       		.uleb128 0
 3864 0037 5F5F474E 		.ascii "__GNUC_MINOR__ 2\0"
 3864      55435F4D 
 3864      494E4F52 
 3864      5F5F2032 
 3864      00
 3865 0048 01       		.byte	0x1
 3866 0049 00       		.uleb128 0
 3867 004a 5F5F474E 		.ascii "__GNUC_PATCHLEVEL__ 0\0"
 3867      55435F50 
 3867      41544348 
 3867      4C455645 
 3867      4C5F5F20 
 3868 0060 01       		.byte	0x1
 3869 0061 00       		.uleb128 0
 3870 0062 5F5F5645 		.ascii "__VERSION__ \"8.2.0\"\0"
 3870      5253494F 
 3870      4E5F5F20 
 3870      22382E32 
 3870      2E302200 
 3871 0076 01       		.byte	0x1
 3872 0077 00       		.uleb128 0
 3873 0078 5F5F4154 		.ascii "__ATOMIC_RELAXED 0\0"
 3873      4F4D4943 
 3873      5F52454C 
 3873      41584544 
 3873      203000
 3874 008b 01       		.byte	0x1
 3875 008c 00       		.uleb128 0
 3876 008d 5F5F4154 		.ascii "__ATOMIC_SEQ_CST 5\0"
 3876      4F4D4943 
 3876      5F534551 
 3876      5F435354 
 3876      203500
 3877 00a0 01       		.byte	0x1
 3878 00a1 00       		.uleb128 0
 3879 00a2 5F5F4154 		.ascii "__ATOMIC_ACQUIRE 2\0"
 3879      4F4D4943 
 3879      5F414351 
 3879      55495245 
 3879      203200
 3880 00b5 01       		.byte	0x1
 3881 00b6 00       		.uleb128 0
 3882 00b7 5F5F4154 		.ascii "__ATOMIC_RELEASE 3\0"
 3882      4F4D4943 
 3882      5F52454C 
GAS LISTING C:\Users\PRESID~1\AppData\Local\Temp\ccDe376t.s 			page 90


 3882      45415345 
 3882      203300
 3883 00ca 01       		.byte	0x1
 3884 00cb 00       		.uleb128 0
 3885 00cc 5F5F4154 		.ascii "__ATOMIC_ACQ_REL 4\0"
 3885      4F4D4943 
 3885      5F414351 
 3885      5F52454C 
 3885      203400
 3886 00df 01       		.byte	0x1
 3887 00e0 00       		.uleb128 0
 3888 00e1 5F5F4154 		.ascii "__ATOMIC_CONSUME 1\0"
 3888      4F4D4943 
 3888      5F434F4E 
 3888      53554D45 
 3888      203100
 3889 00f4 01       		.byte	0x1
 3890 00f5 00       		.uleb128 0
 3891 00f6 5F5F4649 		.ascii "__FINITE_MATH_ONLY__ 0\0"
 3891      4E495445 
 3891      5F4D4154 
 3891      485F4F4E 
 3891      4C595F5F 
 3892 010d 01       		.byte	0x1
 3893 010e 00       		.uleb128 0
 3894 010f 5F5F5349 		.ascii "__SIZEOF_INT__ 4\0"
 3894      5A454F46 
 3894      5F494E54 
 3894      5F5F2034 
 3894      00
 3895 0120 01       		.byte	0x1
 3896 0121 00       		.uleb128 0
 3897 0122 5F5F5349 		.ascii "__SIZEOF_LONG__ 4\0"
 3897      5A454F46 
 3897      5F4C4F4E 
 3897      475F5F20 
 3897      3400
 3898 0134 01       		.byte	0x1
 3899 0135 00       		.uleb128 0
 3900 0136 5F5F5349 		.ascii "__SIZEOF_LONG_LONG__ 8\0"
 3900      5A454F46 
 3900      5F4C4F4E 
 3900      475F4C4F 
 3900      4E475F5F 
 3901 014d 01       		.byte	0x1
 3902 014e 00       		.uleb128 0
 3903 014f 5F5F5349 		.ascii "__SIZEOF_SHORT__ 2\0"
 3903      5A454F46 
 3903      5F53484F 
 3903      52545F5F 
 3903      203200
 3904 0162 01       		.byte	0x1
 3905 0163 00       		.uleb128 0
 3906 0164 5F5F5349 		.ascii "__SIZEOF_FLOAT__ 4\0"
 3906      5A454F46 
 3906      5F464C4F 
 3906      41545F5F 
GAS LISTING C:\Users\PRESID~1\AppData\Local\Temp\ccDe376t.s 			page 91


 3906      203400
 3907 0177 01       		.byte	0x1
 3908 0178 00       		.uleb128 0
 3909 0179 5F5F5349 		.ascii "__SIZEOF_DOUBLE__ 8\0"
 3909      5A454F46 
 3909      5F444F55 
 3909      424C455F 
 3909      5F203800 
 3910 018d 01       		.byte	0x1
 3911 018e 00       		.uleb128 0
 3912 018f 5F5F5349 		.ascii "__SIZEOF_LONG_DOUBLE__ 12\0"
 3912      5A454F46 
 3912      5F4C4F4E 
 3912      475F444F 
 3912      55424C45 
 3913 01a9 01       		.byte	0x1
 3914 01aa 00       		.uleb128 0
 3915 01ab 5F5F5349 		.ascii "__SIZEOF_SIZE_T__ 4\0"
 3915      5A454F46 
 3915      5F53495A 
 3915      455F545F 
 3915      5F203400 
 3916 01bf 01       		.byte	0x1
 3917 01c0 00       		.uleb128 0
 3918 01c1 5F5F4348 		.ascii "__CHAR_BIT__ 8\0"
 3918      41525F42 
 3918      49545F5F 
 3918      203800
 3919 01d0 01       		.byte	0x1
 3920 01d1 00       		.uleb128 0
 3921 01d2 5F5F4249 		.ascii "__BIGGEST_ALIGNMENT__ 16\0"
 3921      47474553 
 3921      545F414C 
 3921      49474E4D 
 3921      454E545F 
 3922 01eb 01       		.byte	0x1
 3923 01ec 00       		.uleb128 0
 3924 01ed 5F5F4F52 		.ascii "__ORDER_LITTLE_ENDIAN__ 1234\0"
 3924      4445525F 
 3924      4C495454 
 3924      4C455F45 
 3924      4E444941 
 3925 020a 01       		.byte	0x1
 3926 020b 00       		.uleb128 0
 3927 020c 5F5F4F52 		.ascii "__ORDER_BIG_ENDIAN__ 4321\0"
 3927      4445525F 
 3927      4249475F 
 3927      454E4449 
 3927      414E5F5F 
 3928 0226 01       		.byte	0x1
 3929 0227 00       		.uleb128 0
 3930 0228 5F5F4F52 		.ascii "__ORDER_PDP_ENDIAN__ 3412\0"
 3930      4445525F 
 3930      5044505F 
 3930      454E4449 
 3930      414E5F5F 
 3931 0242 01       		.byte	0x1
GAS LISTING C:\Users\PRESID~1\AppData\Local\Temp\ccDe376t.s 			page 92


 3932 0243 00       		.uleb128 0
 3933 0244 5F5F4259 		.ascii "__BYTE_ORDER__ __ORDER_LITTLE_ENDIAN__\0"
 3933      54455F4F 
 3933      52444552 
 3933      5F5F205F 
 3933      5F4F5244 
 3934 026b 01       		.byte	0x1
 3935 026c 00       		.uleb128 0
 3936 026d 5F5F464C 		.ascii "__FLOAT_WORD_ORDER__ __ORDER_LITTLE_ENDIAN__\0"
 3936      4F41545F 
 3936      574F5244 
 3936      5F4F5244 
 3936      45525F5F 
 3937 029a 01       		.byte	0x1
 3938 029b 00       		.uleb128 0
 3939 029c 5F5F5349 		.ascii "__SIZEOF_POINTER__ 4\0"
 3939      5A454F46 
 3939      5F504F49 
 3939      4E544552 
 3939      5F5F2034 
 3940 02b1 01       		.byte	0x1
 3941 02b2 00       		.uleb128 0
 3942 02b3 5F5F5349 		.ascii "__SIZE_TYPE__ unsigned int\0"
 3942      5A455F54 
 3942      5950455F 
 3942      5F20756E 
 3942      7369676E 
 3943 02ce 01       		.byte	0x1
 3944 02cf 00       		.uleb128 0
 3945 02d0 5F5F5054 		.ascii "__PTRDIFF_TYPE__ int\0"
 3945      52444946 
 3945      465F5459 
 3945      50455F5F 
 3945      20696E74 
 3946 02e5 01       		.byte	0x1
 3947 02e6 00       		.uleb128 0
 3948 02e7 5F5F5743 		.ascii "__WCHAR_TYPE__ short unsigned int\0"
 3948      4841525F 
 3948      54595045 
 3948      5F5F2073 
 3948      686F7274 
 3949 0309 01       		.byte	0x1
 3950 030a 00       		.uleb128 0
 3951 030b 5F5F5749 		.ascii "__WINT_TYPE__ short unsigned int\0"
 3951      4E545F54 
 3951      5950455F 
 3951      5F207368 
 3951      6F727420 
 3952 032c 01       		.byte	0x1
 3953 032d 00       		.uleb128 0
 3954 032e 5F5F494E 		.ascii "__INTMAX_TYPE__ long long int\0"
 3954      544D4158 
 3954      5F545950 
 3954      455F5F20 
 3954      6C6F6E67 
 3955 034c 01       		.byte	0x1
 3956 034d 00       		.uleb128 0
GAS LISTING C:\Users\PRESID~1\AppData\Local\Temp\ccDe376t.s 			page 93


 3957 034e 5F5F5549 		.ascii "__UINTMAX_TYPE__ long long unsigned int\0"
 3957      4E544D41 
 3957      585F5459 
 3957      50455F5F 
 3957      206C6F6E 
 3958 0376 01       		.byte	0x1
 3959 0377 00       		.uleb128 0
 3960 0378 5F5F4348 		.ascii "__CHAR16_TYPE__ short unsigned int\0"
 3960      41523136 
 3960      5F545950 
 3960      455F5F20 
 3960      73686F72 
 3961 039b 01       		.byte	0x1
 3962 039c 00       		.uleb128 0
 3963 039d 5F5F4348 		.ascii "__CHAR32_TYPE__ unsigned int\0"
 3963      41523332 
 3963      5F545950 
 3963      455F5F20 
 3963      756E7369 
 3964 03ba 01       		.byte	0x1
 3965 03bb 00       		.uleb128 0
 3966 03bc 5F5F5349 		.ascii "__SIG_ATOMIC_TYPE__ int\0"
 3966      475F4154 
 3966      4F4D4943 
 3966      5F545950 
 3966      455F5F20 
 3967 03d4 01       		.byte	0x1
 3968 03d5 00       		.uleb128 0
 3969 03d6 5F5F494E 		.ascii "__INT8_TYPE__ signed char\0"
 3969      54385F54 
 3969      5950455F 
 3969      5F207369 
 3969      676E6564 
 3970 03f0 01       		.byte	0x1
 3971 03f1 00       		.uleb128 0
 3972 03f2 5F5F494E 		.ascii "__INT16_TYPE__ short int\0"
 3972      5431365F 
 3972      54595045 
 3972      5F5F2073 
 3972      686F7274 
 3973 040b 01       		.byte	0x1
 3974 040c 00       		.uleb128 0
 3975 040d 5F5F494E 		.ascii "__INT32_TYPE__ int\0"
 3975      5433325F 
 3975      54595045 
 3975      5F5F2069 
 3975      6E7400
 3976 0420 01       		.byte	0x1
 3977 0421 00       		.uleb128 0
 3978 0422 5F5F494E 		.ascii "__INT64_TYPE__ long long int\0"
 3978      5436345F 
 3978      54595045 
 3978      5F5F206C 
 3978      6F6E6720 
 3979 043f 01       		.byte	0x1
 3980 0440 00       		.uleb128 0
 3981 0441 5F5F5549 		.ascii "__UINT8_TYPE__ unsigned char\0"
GAS LISTING C:\Users\PRESID~1\AppData\Local\Temp\ccDe376t.s 			page 94


 3981      4E54385F 
 3981      54595045 
 3981      5F5F2075 
 3981      6E736967 
 3982 045e 01       		.byte	0x1
 3983 045f 00       		.uleb128 0
 3984 0460 5F5F5549 		.ascii "__UINT16_TYPE__ short unsigned int\0"
 3984      4E543136 
 3984      5F545950 
 3984      455F5F20 
 3984      73686F72 
 3985 0483 01       		.byte	0x1
 3986 0484 00       		.uleb128 0
 3987 0485 5F5F5549 		.ascii "__UINT32_TYPE__ unsigned int\0"
 3987      4E543332 
 3987      5F545950 
 3987      455F5F20 
 3987      756E7369 
 3988 04a2 01       		.byte	0x1
 3989 04a3 00       		.uleb128 0
 3990 04a4 5F5F5549 		.ascii "__UINT64_TYPE__ long long unsigned int\0"
 3990      4E543634 
 3990      5F545950 
 3990      455F5F20 
 3990      6C6F6E67 
 3991 04cb 01       		.byte	0x1
 3992 04cc 00       		.uleb128 0
 3993 04cd 5F5F494E 		.ascii "__INT_LEAST8_TYPE__ signed char\0"
 3993      545F4C45 
 3993      41535438 
 3993      5F545950 
 3993      455F5F20 
 3994 04ed 01       		.byte	0x1
 3995 04ee 00       		.uleb128 0
 3996 04ef 5F5F494E 		.ascii "__INT_LEAST16_TYPE__ short int\0"
 3996      545F4C45 
 3996      41535431 
 3996      365F5459 
 3996      50455F5F 
 3997 050e 01       		.byte	0x1
 3998 050f 00       		.uleb128 0
 3999 0510 5F5F494E 		.ascii "__INT_LEAST32_TYPE__ int\0"
 3999      545F4C45 
 3999      41535433 
 3999      325F5459 
 3999      50455F5F 
 4000 0529 01       		.byte	0x1
 4001 052a 00       		.uleb128 0
 4002 052b 5F5F494E 		.ascii "__INT_LEAST64_TYPE__ long long int\0"
 4002      545F4C45 
 4002      41535436 
 4002      345F5459 
 4002      50455F5F 
 4003 054e 01       		.byte	0x1
 4004 054f 00       		.uleb128 0
 4005 0550 5F5F5549 		.ascii "__UINT_LEAST8_TYPE__ unsigned char\0"
 4005      4E545F4C 
GAS LISTING C:\Users\PRESID~1\AppData\Local\Temp\ccDe376t.s 			page 95


 4005      45415354 
 4005      385F5459 
 4005      50455F5F 
 4006 0573 01       		.byte	0x1
 4007 0574 00       		.uleb128 0
 4008 0575 5F5F5549 		.ascii "__UINT_LEAST16_TYPE__ short unsigned int\0"
 4008      4E545F4C 
 4008      45415354 
 4008      31365F54 
 4008      5950455F 
 4009 059e 01       		.byte	0x1
 4010 059f 00       		.uleb128 0
 4011 05a0 5F5F5549 		.ascii "__UINT_LEAST32_TYPE__ unsigned int\0"
 4011      4E545F4C 
 4011      45415354 
 4011      33325F54 
 4011      5950455F 
 4012 05c3 01       		.byte	0x1
 4013 05c4 00       		.uleb128 0
 4014 05c5 5F5F5549 		.ascii "__UINT_LEAST64_TYPE__ long long unsigned int\0"
 4014      4E545F4C 
 4014      45415354 
 4014      36345F54 
 4014      5950455F 
 4015 05f2 01       		.byte	0x1
 4016 05f3 00       		.uleb128 0
 4017 05f4 5F5F494E 		.ascii "__INT_FAST8_TYPE__ signed char\0"
 4017      545F4641 
 4017      5354385F 
 4017      54595045 
 4017      5F5F2073 
 4018 0613 01       		.byte	0x1
 4019 0614 00       		.uleb128 0
 4020 0615 5F5F494E 		.ascii "__INT_FAST16_TYPE__ short int\0"
 4020      545F4641 
 4020      53543136 
 4020      5F545950 
 4020      455F5F20 
 4021 0633 01       		.byte	0x1
 4022 0634 00       		.uleb128 0
 4023 0635 5F5F494E 		.ascii "__INT_FAST32_TYPE__ int\0"
 4023      545F4641 
 4023      53543332 
 4023      5F545950 
 4023      455F5F20 
 4024 064d 01       		.byte	0x1
 4025 064e 00       		.uleb128 0
 4026 064f 5F5F494E 		.ascii "__INT_FAST64_TYPE__ long long int\0"
 4026      545F4641 
 4026      53543634 
 4026      5F545950 
 4026      455F5F20 
 4027 0671 01       		.byte	0x1
 4028 0672 00       		.uleb128 0
 4029 0673 5F5F5549 		.ascii "__UINT_FAST8_TYPE__ unsigned char\0"
 4029      4E545F46 
 4029      41535438 
GAS LISTING C:\Users\PRESID~1\AppData\Local\Temp\ccDe376t.s 			page 96


 4029      5F545950 
 4029      455F5F20 
 4030 0695 01       		.byte	0x1
 4031 0696 00       		.uleb128 0
 4032 0697 5F5F5549 		.ascii "__UINT_FAST16_TYPE__ short unsigned int\0"
 4032      4E545F46 
 4032      41535431 
 4032      365F5459 
 4032      50455F5F 
 4033 06bf 01       		.byte	0x1
 4034 06c0 00       		.uleb128 0
 4035 06c1 5F5F5549 		.ascii "__UINT_FAST32_TYPE__ unsigned int\0"
 4035      4E545F46 
 4035      41535433 
 4035      325F5459 
 4035      50455F5F 
 4036 06e3 01       		.byte	0x1
 4037 06e4 00       		.uleb128 0
 4038 06e5 5F5F5549 		.ascii "__UINT_FAST64_TYPE__ long long unsigned int\0"
 4038      4E545F46 
 4038      41535436 
 4038      345F5459 
 4038      50455F5F 
 4039 0711 01       		.byte	0x1
 4040 0712 00       		.uleb128 0
 4041 0713 5F5F494E 		.ascii "__INTPTR_TYPE__ int\0"
 4041      54505452 
 4041      5F545950 
 4041      455F5F20 
 4041      696E7400 
 4042 0727 01       		.byte	0x1
 4043 0728 00       		.uleb128 0
 4044 0729 5F5F5549 		.ascii "__UINTPTR_TYPE__ unsigned int\0"
 4044      4E545054 
 4044      525F5459 
 4044      50455F5F 
 4044      20756E73 
 4045 0747 01       		.byte	0x1
 4046 0748 00       		.uleb128 0
 4047 0749 5F5F6861 		.ascii "__has_include(STR) __has_include__(STR)\0"
 4047      735F696E 
 4047      636C7564 
 4047      65285354 
 4047      5229205F 
 4048 0771 01       		.byte	0x1
 4049 0772 00       		.uleb128 0
 4050 0773 5F5F6861 		.ascii "__has_include_next(STR) __has_include_next__(STR)\0"
 4050      735F696E 
 4050      636C7564 
 4050      655F6E65 
 4050      78742853 
 4051 07a5 01       		.byte	0x1
 4052 07a6 00       		.uleb128 0
 4053 07a7 5F5F4758 		.ascii "__GXX_ABI_VERSION 1013\0"
 4053      585F4142 
 4053      495F5645 
 4053      5253494F 
GAS LISTING C:\Users\PRESID~1\AppData\Local\Temp\ccDe376t.s 			page 97


 4053      4E203130 
 4054 07be 01       		.byte	0x1
 4055 07bf 00       		.uleb128 0
 4056 07c0 5F5F5343 		.ascii "__SCHAR_MAX__ 0x7f\0"
 4056      4841525F 
 4056      4D41585F 
 4056      5F203078 
 4056      376600
 4057 07d3 01       		.byte	0x1
 4058 07d4 00       		.uleb128 0
 4059 07d5 5F5F5348 		.ascii "__SHRT_MAX__ 0x7fff\0"
 4059      52545F4D 
 4059      41585F5F 
 4059      20307837 
 4059      66666600 
 4060 07e9 01       		.byte	0x1
 4061 07ea 00       		.uleb128 0
 4062 07eb 5F5F494E 		.ascii "__INT_MAX__ 0x7fffffff\0"
 4062      545F4D41 
 4062      585F5F20 
 4062      30783766 
 4062      66666666 
 4063 0802 01       		.byte	0x1
 4064 0803 00       		.uleb128 0
 4065 0804 5F5F4C4F 		.ascii "__LONG_MAX__ 0x7fffffffL\0"
 4065      4E475F4D 
 4065      41585F5F 
 4065      20307837 
 4065      66666666 
 4066 081d 01       		.byte	0x1
 4067 081e 00       		.uleb128 0
 4068 081f 5F5F4C4F 		.ascii "__LONG_LONG_MAX__ 0x7fffffffffffffffLL\0"
 4068      4E475F4C 
 4068      4F4E475F 
 4068      4D41585F 
 4068      5F203078 
 4069 0846 01       		.byte	0x1
 4070 0847 00       		.uleb128 0
 4071 0848 5F5F5743 		.ascii "__WCHAR_MAX__ 0xffff\0"
 4071      4841525F 
 4071      4D41585F 
 4071      5F203078 
 4071      66666666 
 4072 085d 01       		.byte	0x1
 4073 085e 00       		.uleb128 0
 4074 085f 5F5F5743 		.ascii "__WCHAR_MIN__ 0\0"
 4074      4841525F 
 4074      4D494E5F 
 4074      5F203000 
 4075 086f 01       		.byte	0x1
 4076 0870 00       		.uleb128 0
 4077 0871 5F5F5749 		.ascii "__WINT_MAX__ 0xffff\0"
 4077      4E545F4D 
 4077      41585F5F 
 4077      20307866 
 4077      66666600 
 4078 0885 01       		.byte	0x1
GAS LISTING C:\Users\PRESID~1\AppData\Local\Temp\ccDe376t.s 			page 98


 4079 0886 00       		.uleb128 0
 4080 0887 5F5F5749 		.ascii "__WINT_MIN__ 0\0"
 4080      4E545F4D 
 4080      494E5F5F 
 4080      203000
 4081 0896 01       		.byte	0x1
 4082 0897 00       		.uleb128 0
 4083 0898 5F5F5054 		.ascii "__PTRDIFF_MAX__ 0x7fffffff\0"
 4083      52444946 
 4083      465F4D41 
 4083      585F5F20 
 4083      30783766 
 4084 08b3 01       		.byte	0x1
 4085 08b4 00       		.uleb128 0
 4086 08b5 5F5F5349 		.ascii "__SIZE_MAX__ 0xffffffffU\0"
 4086      5A455F4D 
 4086      41585F5F 
 4086      20307866 
 4086      66666666 
 4087 08ce 01       		.byte	0x1
 4088 08cf 00       		.uleb128 0
 4089 08d0 5F5F5343 		.ascii "__SCHAR_WIDTH__ 8\0"
 4089      4841525F 
 4089      57494454 
 4089      485F5F20 
 4089      3800
 4090 08e2 01       		.byte	0x1
 4091 08e3 00       		.uleb128 0
 4092 08e4 5F5F5348 		.ascii "__SHRT_WIDTH__ 16\0"
 4092      52545F57 
 4092      49445448 
 4092      5F5F2031 
 4092      3600
 4093 08f6 01       		.byte	0x1
 4094 08f7 00       		.uleb128 0
 4095 08f8 5F5F494E 		.ascii "__INT_WIDTH__ 32\0"
 4095      545F5749 
 4095      4454485F 
 4095      5F203332 
 4095      00
 4096 0909 01       		.byte	0x1
 4097 090a 00       		.uleb128 0
 4098 090b 5F5F4C4F 		.ascii "__LONG_WIDTH__ 32\0"
 4098      4E475F57 
 4098      49445448 
 4098      5F5F2033 
 4098      3200
 4099 091d 01       		.byte	0x1
 4100 091e 00       		.uleb128 0
 4101 091f 5F5F4C4F 		.ascii "__LONG_LONG_WIDTH__ 64\0"
 4101      4E475F4C 
 4101      4F4E475F 
 4101      57494454 
 4101      485F5F20 
 4102 0936 01       		.byte	0x1
 4103 0937 00       		.uleb128 0
 4104 0938 5F5F5743 		.ascii "__WCHAR_WIDTH__ 16\0"
GAS LISTING C:\Users\PRESID~1\AppData\Local\Temp\ccDe376t.s 			page 99


 4104      4841525F 
 4104      57494454 
 4104      485F5F20 
 4104      313600
 4105 094b 01       		.byte	0x1
 4106 094c 00       		.uleb128 0
 4107 094d 5F5F5749 		.ascii "__WINT_WIDTH__ 16\0"
 4107      4E545F57 
 4107      49445448 
 4107      5F5F2031 
 4107      3600
 4108 095f 01       		.byte	0x1
 4109 0960 00       		.uleb128 0
 4110 0961 5F5F5054 		.ascii "__PTRDIFF_WIDTH__ 32\0"
 4110      52444946 
 4110      465F5749 
 4110      4454485F 
 4110      5F203332 
 4111 0976 01       		.byte	0x1
 4112 0977 00       		.uleb128 0
 4113 0978 5F5F5349 		.ascii "__SIZE_WIDTH__ 32\0"
 4113      5A455F57 
 4113      49445448 
 4113      5F5F2033 
 4113      3200
 4114 098a 01       		.byte	0x1
 4115 098b 00       		.uleb128 0
 4116 098c 5F5F494E 		.ascii "__INTMAX_MAX__ 0x7fffffffffffffffLL\0"
 4116      544D4158 
 4116      5F4D4158 
 4116      5F5F2030 
 4116      78376666 
 4117 09b0 01       		.byte	0x1
 4118 09b1 00       		.uleb128 0
 4119 09b2 5F5F494E 		.ascii "__INTMAX_C(c) c ## LL\0"
 4119      544D4158 
 4119      5F432863 
 4119      29206320 
 4119      2323204C 
 4120 09c8 01       		.byte	0x1
 4121 09c9 00       		.uleb128 0
 4122 09ca 5F5F5549 		.ascii "__UINTMAX_MAX__ 0xffffffffffffffffULL\0"
 4122      4E544D41 
 4122      585F4D41 
 4122      585F5F20 
 4122      30786666 
 4123 09f0 01       		.byte	0x1
 4124 09f1 00       		.uleb128 0
 4125 09f2 5F5F5549 		.ascii "__UINTMAX_C(c) c ## ULL\0"
 4125      4E544D41 
 4125      585F4328 
 4125      63292063 
 4125      20232320 
 4126 0a0a 01       		.byte	0x1
 4127 0a0b 00       		.uleb128 0
 4128 0a0c 5F5F494E 		.ascii "__INTMAX_WIDTH__ 64\0"
 4128      544D4158 
GAS LISTING C:\Users\PRESID~1\AppData\Local\Temp\ccDe376t.s 			page 100


 4128      5F574944 
 4128      54485F5F 
 4128      20363400 
 4129 0a20 01       		.byte	0x1
 4130 0a21 00       		.uleb128 0
 4131 0a22 5F5F5349 		.ascii "__SIG_ATOMIC_MAX__ 0x7fffffff\0"
 4131      475F4154 
 4131      4F4D4943 
 4131      5F4D4158 
 4131      5F5F2030 
 4132 0a40 01       		.byte	0x1
 4133 0a41 00       		.uleb128 0
 4134 0a42 5F5F5349 		.ascii "__SIG_ATOMIC_MIN__ (-__SIG_ATOMIC_MAX__ - 1)\0"
 4134      475F4154 
 4134      4F4D4943 
 4134      5F4D494E 
 4134      5F5F2028 
 4135 0a6f 01       		.byte	0x1
 4136 0a70 00       		.uleb128 0
 4137 0a71 5F5F5349 		.ascii "__SIG_ATOMIC_WIDTH__ 32\0"
 4137      475F4154 
 4137      4F4D4943 
 4137      5F574944 
 4137      54485F5F 
 4138 0a89 01       		.byte	0x1
 4139 0a8a 00       		.uleb128 0
 4140 0a8b 5F5F494E 		.ascii "__INT8_MAX__ 0x7f\0"
 4140      54385F4D 
 4140      41585F5F 
 4140      20307837 
 4140      6600
 4141 0a9d 01       		.byte	0x1
 4142 0a9e 00       		.uleb128 0
 4143 0a9f 5F5F494E 		.ascii "__INT16_MAX__ 0x7fff\0"
 4143      5431365F 
 4143      4D41585F 
 4143      5F203078 
 4143      37666666 
 4144 0ab4 01       		.byte	0x1
 4145 0ab5 00       		.uleb128 0
 4146 0ab6 5F5F494E 		.ascii "__INT32_MAX__ 0x7fffffff\0"
 4146      5433325F 
 4146      4D41585F 
 4146      5F203078 
 4146      37666666 
 4147 0acf 01       		.byte	0x1
 4148 0ad0 00       		.uleb128 0
 4149 0ad1 5F5F494E 		.ascii "__INT64_MAX__ 0x7fffffffffffffffLL\0"
 4149      5436345F 
 4149      4D41585F 
 4149      5F203078 
 4149      37666666 
 4150 0af4 01       		.byte	0x1
 4151 0af5 00       		.uleb128 0
 4152 0af6 5F5F5549 		.ascii "__UINT8_MAX__ 0xff\0"
 4152      4E54385F 
 4152      4D41585F 
GAS LISTING C:\Users\PRESID~1\AppData\Local\Temp\ccDe376t.s 			page 101


 4152      5F203078 
 4152      666600
 4153 0b09 01       		.byte	0x1
 4154 0b0a 00       		.uleb128 0
 4155 0b0b 5F5F5549 		.ascii "__UINT16_MAX__ 0xffff\0"
 4155      4E543136 
 4155      5F4D4158 
 4155      5F5F2030 
 4155      78666666 
 4156 0b21 01       		.byte	0x1
 4157 0b22 00       		.uleb128 0
 4158 0b23 5F5F5549 		.ascii "__UINT32_MAX__ 0xffffffffU\0"
 4158      4E543332 
 4158      5F4D4158 
 4158      5F5F2030 
 4158      78666666 
 4159 0b3e 01       		.byte	0x1
 4160 0b3f 00       		.uleb128 0
 4161 0b40 5F5F5549 		.ascii "__UINT64_MAX__ 0xffffffffffffffffULL\0"
 4161      4E543634 
 4161      5F4D4158 
 4161      5F5F2030 
 4161      78666666 
 4162 0b65 01       		.byte	0x1
 4163 0b66 00       		.uleb128 0
 4164 0b67 5F5F494E 		.ascii "__INT_LEAST8_MAX__ 0x7f\0"
 4164      545F4C45 
 4164      41535438 
 4164      5F4D4158 
 4164      5F5F2030 
 4165 0b7f 01       		.byte	0x1
 4166 0b80 00       		.uleb128 0
 4167 0b81 5F5F494E 		.ascii "__INT8_C(c) c\0"
 4167      54385F43 
 4167      28632920 
 4167      6300
 4168 0b8f 01       		.byte	0x1
 4169 0b90 00       		.uleb128 0
 4170 0b91 5F5F494E 		.ascii "__INT_LEAST8_WIDTH__ 8\0"
 4170      545F4C45 
 4170      41535438 
 4170      5F574944 
 4170      54485F5F 
 4171 0ba8 01       		.byte	0x1
 4172 0ba9 00       		.uleb128 0
 4173 0baa 5F5F494E 		.ascii "__INT_LEAST16_MAX__ 0x7fff\0"
 4173      545F4C45 
 4173      41535431 
 4173      365F4D41 
 4173      585F5F20 
 4174 0bc5 01       		.byte	0x1
 4175 0bc6 00       		.uleb128 0
 4176 0bc7 5F5F494E 		.ascii "__INT16_C(c) c\0"
 4176      5431365F 
 4176      43286329 
 4176      206300
 4177 0bd6 01       		.byte	0x1
GAS LISTING C:\Users\PRESID~1\AppData\Local\Temp\ccDe376t.s 			page 102


 4178 0bd7 00       		.uleb128 0
 4179 0bd8 5F5F494E 		.ascii "__INT_LEAST16_WIDTH__ 16\0"
 4179      545F4C45 
 4179      41535431 
 4179      365F5749 
 4179      4454485F 
 4180 0bf1 01       		.byte	0x1
 4181 0bf2 00       		.uleb128 0
 4182 0bf3 5F5F494E 		.ascii "__INT_LEAST32_MAX__ 0x7fffffff\0"
 4182      545F4C45 
 4182      41535433 
 4182      325F4D41 
 4182      585F5F20 
 4183 0c12 01       		.byte	0x1
 4184 0c13 00       		.uleb128 0
 4185 0c14 5F5F494E 		.ascii "__INT32_C(c) c\0"
 4185      5433325F 
 4185      43286329 
 4185      206300
 4186 0c23 01       		.byte	0x1
 4187 0c24 00       		.uleb128 0
 4188 0c25 5F5F494E 		.ascii "__INT_LEAST32_WIDTH__ 32\0"
 4188      545F4C45 
 4188      41535433 
 4188      325F5749 
 4188      4454485F 
 4189 0c3e 01       		.byte	0x1
 4190 0c3f 00       		.uleb128 0
 4191 0c40 5F5F494E 		.ascii "__INT_LEAST64_MAX__ 0x7fffffffffffffffLL\0"
 4191      545F4C45 
 4191      41535436 
 4191      345F4D41 
 4191      585F5F20 
 4192 0c69 01       		.byte	0x1
 4193 0c6a 00       		.uleb128 0
 4194 0c6b 5F5F494E 		.ascii "__INT64_C(c) c ## LL\0"
 4194      5436345F 
 4194      43286329 
 4194      20632023 
 4194      23204C4C 
 4195 0c80 01       		.byte	0x1
 4196 0c81 00       		.uleb128 0
 4197 0c82 5F5F494E 		.ascii "__INT_LEAST64_WIDTH__ 64\0"
 4197      545F4C45 
 4197      41535436 
 4197      345F5749 
 4197      4454485F 
 4198 0c9b 01       		.byte	0x1
 4199 0c9c 00       		.uleb128 0
 4200 0c9d 5F5F5549 		.ascii "__UINT_LEAST8_MAX__ 0xff\0"
 4200      4E545F4C 
 4200      45415354 
 4200      385F4D41 
 4200      585F5F20 
 4201 0cb6 01       		.byte	0x1
 4202 0cb7 00       		.uleb128 0
 4203 0cb8 5F5F5549 		.ascii "__UINT8_C(c) c\0"
GAS LISTING C:\Users\PRESID~1\AppData\Local\Temp\ccDe376t.s 			page 103


 4203      4E54385F 
 4203      43286329 
 4203      206300
 4204 0cc7 01       		.byte	0x1
 4205 0cc8 00       		.uleb128 0
 4206 0cc9 5F5F5549 		.ascii "__UINT_LEAST16_MAX__ 0xffff\0"
 4206      4E545F4C 
 4206      45415354 
 4206      31365F4D 
 4206      41585F5F 
 4207 0ce5 01       		.byte	0x1
 4208 0ce6 00       		.uleb128 0
 4209 0ce7 5F5F5549 		.ascii "__UINT16_C(c) c\0"
 4209      4E543136 
 4209      5F432863 
 4209      29206300 
 4210 0cf7 01       		.byte	0x1
 4211 0cf8 00       		.uleb128 0
 4212 0cf9 5F5F5549 		.ascii "__UINT_LEAST32_MAX__ 0xffffffffU\0"
 4212      4E545F4C 
 4212      45415354 
 4212      33325F4D 
 4212      41585F5F 
 4213 0d1a 01       		.byte	0x1
 4214 0d1b 00       		.uleb128 0
 4215 0d1c 5F5F5549 		.ascii "__UINT32_C(c) c ## U\0"
 4215      4E543332 
 4215      5F432863 
 4215      29206320 
 4215      23232055 
 4216 0d31 01       		.byte	0x1
 4217 0d32 00       		.uleb128 0
 4218 0d33 5F5F5549 		.ascii "__UINT_LEAST64_MAX__ 0xffffffffffffffffULL\0"
 4218      4E545F4C 
 4218      45415354 
 4218      36345F4D 
 4218      41585F5F 
 4219 0d5e 01       		.byte	0x1
 4220 0d5f 00       		.uleb128 0
 4221 0d60 5F5F5549 		.ascii "__UINT64_C(c) c ## ULL\0"
 4221      4E543634 
 4221      5F432863 
 4221      29206320 
 4221      23232055 
 4222 0d77 01       		.byte	0x1
 4223 0d78 00       		.uleb128 0
 4224 0d79 5F5F494E 		.ascii "__INT_FAST8_MAX__ 0x7f\0"
 4224      545F4641 
 4224      5354385F 
 4224      4D41585F 
 4224      5F203078 
 4225 0d90 01       		.byte	0x1
 4226 0d91 00       		.uleb128 0
 4227 0d92 5F5F494E 		.ascii "__INT_FAST8_WIDTH__ 8\0"
 4227      545F4641 
 4227      5354385F 
 4227      57494454 
GAS LISTING C:\Users\PRESID~1\AppData\Local\Temp\ccDe376t.s 			page 104


 4227      485F5F20 
 4228 0da8 01       		.byte	0x1
 4229 0da9 00       		.uleb128 0
 4230 0daa 5F5F494E 		.ascii "__INT_FAST16_MAX__ 0x7fff\0"
 4230      545F4641 
 4230      53543136 
 4230      5F4D4158 
 4230      5F5F2030 
 4231 0dc4 01       		.byte	0x1
 4232 0dc5 00       		.uleb128 0
 4233 0dc6 5F5F494E 		.ascii "__INT_FAST16_WIDTH__ 16\0"
 4233      545F4641 
 4233      53543136 
 4233      5F574944 
 4233      54485F5F 
 4234 0dde 01       		.byte	0x1
 4235 0ddf 00       		.uleb128 0
 4236 0de0 5F5F494E 		.ascii "__INT_FAST32_MAX__ 0x7fffffff\0"
 4236      545F4641 
 4236      53543332 
 4236      5F4D4158 
 4236      5F5F2030 
 4237 0dfe 01       		.byte	0x1
 4238 0dff 00       		.uleb128 0
 4239 0e00 5F5F494E 		.ascii "__INT_FAST32_WIDTH__ 32\0"
 4239      545F4641 
 4239      53543332 
 4239      5F574944 
 4239      54485F5F 
 4240 0e18 01       		.byte	0x1
 4241 0e19 00       		.uleb128 0
 4242 0e1a 5F5F494E 		.ascii "__INT_FAST64_MAX__ 0x7fffffffffffffffLL\0"
 4242      545F4641 
 4242      53543634 
 4242      5F4D4158 
 4242      5F5F2030 
 4243 0e42 01       		.byte	0x1
 4244 0e43 00       		.uleb128 0
 4245 0e44 5F5F494E 		.ascii "__INT_FAST64_WIDTH__ 64\0"
 4245      545F4641 
 4245      53543634 
 4245      5F574944 
 4245      54485F5F 
 4246 0e5c 01       		.byte	0x1
 4247 0e5d 00       		.uleb128 0
 4248 0e5e 5F5F5549 		.ascii "__UINT_FAST8_MAX__ 0xff\0"
 4248      4E545F46 
 4248      41535438 
 4248      5F4D4158 
 4248      5F5F2030 
 4249 0e76 01       		.byte	0x1
 4250 0e77 00       		.uleb128 0
 4251 0e78 5F5F5549 		.ascii "__UINT_FAST16_MAX__ 0xffff\0"
 4251      4E545F46 
 4251      41535431 
 4251      365F4D41 
 4251      585F5F20 
GAS LISTING C:\Users\PRESID~1\AppData\Local\Temp\ccDe376t.s 			page 105


 4252 0e93 01       		.byte	0x1
 4253 0e94 00       		.uleb128 0
 4254 0e95 5F5F5549 		.ascii "__UINT_FAST32_MAX__ 0xffffffffU\0"
 4254      4E545F46 
 4254      41535433 
 4254      325F4D41 
 4254      585F5F20 
 4255 0eb5 01       		.byte	0x1
 4256 0eb6 00       		.uleb128 0
 4257 0eb7 5F5F5549 		.ascii "__UINT_FAST64_MAX__ 0xffffffffffffffffULL\0"
 4257      4E545F46 
 4257      41535436 
 4257      345F4D41 
 4257      585F5F20 
 4258 0ee1 01       		.byte	0x1
 4259 0ee2 00       		.uleb128 0
 4260 0ee3 5F5F494E 		.ascii "__INTPTR_MAX__ 0x7fffffff\0"
 4260      54505452 
 4260      5F4D4158 
 4260      5F5F2030 
 4260      78376666 
 4261 0efd 01       		.byte	0x1
 4262 0efe 00       		.uleb128 0
 4263 0eff 5F5F494E 		.ascii "__INTPTR_WIDTH__ 32\0"
 4263      54505452 
 4263      5F574944 
 4263      54485F5F 
 4263      20333200 
 4264 0f13 01       		.byte	0x1
 4265 0f14 00       		.uleb128 0
 4266 0f15 5F5F5549 		.ascii "__UINTPTR_MAX__ 0xffffffffU\0"
 4266      4E545054 
 4266      525F4D41 
 4266      585F5F20 
 4266      30786666 
 4267 0f31 01       		.byte	0x1
 4268 0f32 00       		.uleb128 0
 4269 0f33 5F5F4743 		.ascii "__GCC_IEC_559 2\0"
 4269      435F4945 
 4269      435F3535 
 4269      39203200 
 4270 0f43 01       		.byte	0x1
 4271 0f44 00       		.uleb128 0
 4272 0f45 5F5F4743 		.ascii "__GCC_IEC_559_COMPLEX 2\0"
 4272      435F4945 
 4272      435F3535 
 4272      395F434F 
 4272      4D504C45 
 4273 0f5d 01       		.byte	0x1
 4274 0f5e 00       		.uleb128 0
 4275 0f5f 5F5F464C 		.ascii "__FLT_EVAL_METHOD__ 2\0"
 4275      545F4556 
 4275      414C5F4D 
 4275      4554484F 
 4275      445F5F20 
 4276 0f75 01       		.byte	0x1
 4277 0f76 00       		.uleb128 0
GAS LISTING C:\Users\PRESID~1\AppData\Local\Temp\ccDe376t.s 			page 106


 4278 0f77 5F5F464C 		.ascii "__FLT_EVAL_METHOD_TS_18661_3__ 2\0"
 4278      545F4556 
 4278      414C5F4D 
 4278      4554484F 
 4278      445F5453 
 4279 0f98 01       		.byte	0x1
 4280 0f99 00       		.uleb128 0
 4281 0f9a 5F5F4445 		.ascii "__DEC_EVAL_METHOD__ 2\0"
 4281      435F4556 
 4281      414C5F4D 
 4281      4554484F 
 4281      445F5F20 
 4282 0fb0 01       		.byte	0x1
 4283 0fb1 00       		.uleb128 0
 4284 0fb2 5F5F464C 		.ascii "__FLT_RADIX__ 2\0"
 4284      545F5241 
 4284      4449585F 
 4284      5F203200 
 4285 0fc2 01       		.byte	0x1
 4286 0fc3 00       		.uleb128 0
 4287 0fc4 5F5F464C 		.ascii "__FLT_MANT_DIG__ 24\0"
 4287      545F4D41 
 4287      4E545F44 
 4287      49475F5F 
 4287      20323400 
 4288 0fd8 01       		.byte	0x1
 4289 0fd9 00       		.uleb128 0
 4290 0fda 5F5F464C 		.ascii "__FLT_DIG__ 6\0"
 4290      545F4449 
 4290      475F5F20 
 4290      3600
 4291 0fe8 01       		.byte	0x1
 4292 0fe9 00       		.uleb128 0
 4293 0fea 5F5F464C 		.ascii "__FLT_MIN_EXP__ (-125)\0"
 4293      545F4D49 
 4293      4E5F4558 
 4293      505F5F20 
 4293      282D3132 
 4294 1001 01       		.byte	0x1
 4295 1002 00       		.uleb128 0
 4296 1003 5F5F464C 		.ascii "__FLT_MIN_10_EXP__ (-37)\0"
 4296      545F4D49 
 4296      4E5F3130 
 4296      5F455850 
 4296      5F5F2028 
 4297 101c 01       		.byte	0x1
 4298 101d 00       		.uleb128 0
 4299 101e 5F5F464C 		.ascii "__FLT_MAX_EXP__ 128\0"
 4299      545F4D41 
 4299      585F4558 
 4299      505F5F20 
 4299      31323800 
 4300 1032 01       		.byte	0x1
 4301 1033 00       		.uleb128 0
 4302 1034 5F5F464C 		.ascii "__FLT_MAX_10_EXP__ 38\0"
 4302      545F4D41 
 4302      585F3130 
GAS LISTING C:\Users\PRESID~1\AppData\Local\Temp\ccDe376t.s 			page 107


 4302      5F455850 
 4302      5F5F2033 
 4303 104a 01       		.byte	0x1
 4304 104b 00       		.uleb128 0
 4305 104c 5F5F464C 		.ascii "__FLT_DECIMAL_DIG__ 9\0"
 4305      545F4445 
 4305      43494D41 
 4305      4C5F4449 
 4305      475F5F20 
 4306 1062 01       		.byte	0x1
 4307 1063 00       		.uleb128 0
 4308 1064 5F5F464C 		.ascii "__FLT_MAX__ 3.40282346638528859811704183484516925e+38F\0"
 4308      545F4D41 
 4308      585F5F20 
 4308      332E3430 
 4308      32383233 
 4309 109b 01       		.byte	0x1
 4310 109c 00       		.uleb128 0
 4311 109d 5F5F464C 		.ascii "__FLT_MIN__ 1.17549435082228750796873653722224568e-38F\0"
 4311      545F4D49 
 4311      4E5F5F20 
 4311      312E3137 
 4311      35343934 
 4312 10d4 01       		.byte	0x1
 4313 10d5 00       		.uleb128 0
 4314 10d6 5F5F464C 		.ascii "__FLT_EPSILON__ 1.19209289550781250000000000000000000e-7F\0"
 4314      545F4550 
 4314      53494C4F 
 4314      4E5F5F20 
 4314      312E3139 
 4315 1110 01       		.byte	0x1
 4316 1111 00       		.uleb128 0
 4317 1112 5F5F464C 		.ascii "__FLT_DENORM_MIN__ 1.40129846432481707092372958328991613e-45F\0"
 4317      545F4445 
 4317      4E4F524D 
 4317      5F4D494E 
 4317      5F5F2031 
 4318 1150 01       		.byte	0x1
 4319 1151 00       		.uleb128 0
 4320 1152 5F5F464C 		.ascii "__FLT_HAS_DENORM__ 1\0"
 4320      545F4841 
 4320      535F4445 
 4320      4E4F524D 
 4320      5F5F2031 
 4321 1167 01       		.byte	0x1
 4322 1168 00       		.uleb128 0
 4323 1169 5F5F464C 		.ascii "__FLT_HAS_INFINITY__ 1\0"
 4323      545F4841 
 4323      535F494E 
 4323      46494E49 
 4323      54595F5F 
 4324 1180 01       		.byte	0x1
 4325 1181 00       		.uleb128 0
 4326 1182 5F5F464C 		.ascii "__FLT_HAS_QUIET_NAN__ 1\0"
 4326      545F4841 
 4326      535F5155 
 4326      4945545F 
GAS LISTING C:\Users\PRESID~1\AppData\Local\Temp\ccDe376t.s 			page 108


 4326      4E414E5F 
 4327 119a 01       		.byte	0x1
 4328 119b 00       		.uleb128 0
 4329 119c 5F5F4442 		.ascii "__DBL_MANT_DIG__ 53\0"
 4329      4C5F4D41 
 4329      4E545F44 
 4329      49475F5F 
 4329      20353300 
 4330 11b0 01       		.byte	0x1
 4331 11b1 00       		.uleb128 0
 4332 11b2 5F5F4442 		.ascii "__DBL_DIG__ 15\0"
 4332      4C5F4449 
 4332      475F5F20 
 4332      313500
 4333 11c1 01       		.byte	0x1
 4334 11c2 00       		.uleb128 0
 4335 11c3 5F5F4442 		.ascii "__DBL_MIN_EXP__ (-1021)\0"
 4335      4C5F4D49 
 4335      4E5F4558 
 4335      505F5F20 
 4335      282D3130 
 4336 11db 01       		.byte	0x1
 4337 11dc 00       		.uleb128 0
 4338 11dd 5F5F4442 		.ascii "__DBL_MIN_10_EXP__ (-307)\0"
 4338      4C5F4D49 
 4338      4E5F3130 
 4338      5F455850 
 4338      5F5F2028 
 4339 11f7 01       		.byte	0x1
 4340 11f8 00       		.uleb128 0
 4341 11f9 5F5F4442 		.ascii "__DBL_MAX_EXP__ 1024\0"
 4341      4C5F4D41 
 4341      585F4558 
 4341      505F5F20 
 4341      31303234 
 4342 120e 01       		.byte	0x1
 4343 120f 00       		.uleb128 0
 4344 1210 5F5F4442 		.ascii "__DBL_MAX_10_EXP__ 308\0"
 4344      4C5F4D41 
 4344      585F3130 
 4344      5F455850 
 4344      5F5F2033 
 4345 1227 01       		.byte	0x1
 4346 1228 00       		.uleb128 0
 4347 1229 5F5F4442 		.ascii "__DBL_DECIMAL_DIG__ 17\0"
 4347      4C5F4445 
 4347      43494D41 
 4347      4C5F4449 
 4347      475F5F20 
 4348 1240 01       		.byte	0x1
 4349 1241 00       		.uleb128 0
 4350 1242 5F5F4442 		.ascii "__DBL_MAX__ ((double)1.79769313486231570814527423731704357e+308L)\0"
 4350      4C5F4D41 
 4350      585F5F20 
 4350      2828646F 
 4350      75626C65 
 4351 1284 01       		.byte	0x1
GAS LISTING C:\Users\PRESID~1\AppData\Local\Temp\ccDe376t.s 			page 109


 4352 1285 00       		.uleb128 0
 4353 1286 5F5F4442 		.ascii "__DBL_MIN__ ((double)2.22507385850720138309023271733240406e-308L)\0"
 4353      4C5F4D49 
 4353      4E5F5F20 
 4353      2828646F 
 4353      75626C65 
 4354 12c8 01       		.byte	0x1
 4355 12c9 00       		.uleb128 0
 4356 12ca 5F5F4442 		.ascii "__DBL_EPSILON__ ((double)2.22044604925031308084726333618164062e-16L)\0"
 4356      4C5F4550 
 4356      53494C4F 
 4356      4E5F5F20 
 4356      2828646F 
 4357 130f 01       		.byte	0x1
 4358 1310 00       		.uleb128 0
 4359 1311 5F5F4442 		.ascii "__DBL_DENORM_MIN__ ((double)4.94065645841246544176568792868221372e-324L)\0"
 4359      4C5F4445 
 4359      4E4F524D 
 4359      5F4D494E 
 4359      5F5F2028 
 4360 135a 01       		.byte	0x1
 4361 135b 00       		.uleb128 0
 4362 135c 5F5F4442 		.ascii "__DBL_HAS_DENORM__ 1\0"
 4362      4C5F4841 
 4362      535F4445 
 4362      4E4F524D 
 4362      5F5F2031 
 4363 1371 01       		.byte	0x1
 4364 1372 00       		.uleb128 0
 4365 1373 5F5F4442 		.ascii "__DBL_HAS_INFINITY__ 1\0"
 4365      4C5F4841 
 4365      535F494E 
 4365      46494E49 
 4365      54595F5F 
 4366 138a 01       		.byte	0x1
 4367 138b 00       		.uleb128 0
 4368 138c 5F5F4442 		.ascii "__DBL_HAS_QUIET_NAN__ 1\0"
 4368      4C5F4841 
 4368      535F5155 
 4368      4945545F 
 4368      4E414E5F 
 4369 13a4 01       		.byte	0x1
 4370 13a5 00       		.uleb128 0
 4371 13a6 5F5F4C44 		.ascii "__LDBL_MANT_DIG__ 64\0"
 4371      424C5F4D 
 4371      414E545F 
 4371      4449475F 
 4371      5F203634 
 4372 13bb 01       		.byte	0x1
 4373 13bc 00       		.uleb128 0
 4374 13bd 5F5F4C44 		.ascii "__LDBL_DIG__ 18\0"
 4374      424C5F44 
 4374      49475F5F 
 4374      20313800 
 4375 13cd 01       		.byte	0x1
 4376 13ce 00       		.uleb128 0
 4377 13cf 5F5F4C44 		.ascii "__LDBL_MIN_EXP__ (-16381)\0"
GAS LISTING C:\Users\PRESID~1\AppData\Local\Temp\ccDe376t.s 			page 110


 4377      424C5F4D 
 4377      494E5F45 
 4377      58505F5F 
 4377      20282D31 
 4378 13e9 01       		.byte	0x1
 4379 13ea 00       		.uleb128 0
 4380 13eb 5F5F4C44 		.ascii "__LDBL_MIN_10_EXP__ (-4931)\0"
 4380      424C5F4D 
 4380      494E5F31 
 4380      305F4558 
 4380      505F5F20 
 4381 1407 01       		.byte	0x1
 4382 1408 00       		.uleb128 0
 4383 1409 5F5F4C44 		.ascii "__LDBL_MAX_EXP__ 16384\0"
 4383      424C5F4D 
 4383      41585F45 
 4383      58505F5F 
 4383      20313633 
 4384 1420 01       		.byte	0x1
 4385 1421 00       		.uleb128 0
 4386 1422 5F5F4C44 		.ascii "__LDBL_MAX_10_EXP__ 4932\0"
 4386      424C5F4D 
 4386      41585F31 
 4386      305F4558 
 4386      505F5F20 
 4387 143b 01       		.byte	0x1
 4388 143c 00       		.uleb128 0
 4389 143d 5F5F4445 		.ascii "__DECIMAL_DIG__ 21\0"
 4389      43494D41 
 4389      4C5F4449 
 4389      475F5F20 
 4389      323100
 4390 1450 01       		.byte	0x1
 4391 1451 00       		.uleb128 0
 4392 1452 5F5F4C44 		.ascii "__LDBL_DECIMAL_DIG__ 21\0"
 4392      424C5F44 
 4392      4543494D 
 4392      414C5F44 
 4392      49475F5F 
 4393 146a 01       		.byte	0x1
 4394 146b 00       		.uleb128 0
 4395 146c 5F5F4C44 		.ascii "__LDBL_MAX__ 1.18973149535723176502126385303097021e+4932L\0"
 4395      424C5F4D 
 4395      41585F5F 
 4395      20312E31 
 4395      38393733 
 4396 14a6 01       		.byte	0x1
 4397 14a7 00       		.uleb128 0
 4398 14a8 5F5F4C44 		.ascii "__LDBL_MIN__ 3.36210314311209350626267781732175260e-4932L\0"
 4398      424C5F4D 
 4398      494E5F5F 
 4398      20332E33 
 4398      36323130 
 4399 14e2 01       		.byte	0x1
 4400 14e3 00       		.uleb128 0
 4401 14e4 5F5F4C44 		.ascii "__LDBL_EPSILON__ 1.08420217248550443400745280086994171e-19L\0"
 4401      424C5F45 
GAS LISTING C:\Users\PRESID~1\AppData\Local\Temp\ccDe376t.s 			page 111


 4401      5053494C 
 4401      4F4E5F5F 
 4401      20312E30 
 4402 1520 01       		.byte	0x1
 4403 1521 00       		.uleb128 0
 4404 1522 5F5F4C44 		.ascii "__LDBL_DENORM_MIN__ 3.64519953188247460252840593361941982e-4951L\0"
 4404      424C5F44 
 4404      454E4F52 
 4404      4D5F4D49 
 4404      4E5F5F20 
 4405 1563 01       		.byte	0x1
 4406 1564 00       		.uleb128 0
 4407 1565 5F5F4C44 		.ascii "__LDBL_HAS_DENORM__ 1\0"
 4407      424C5F48 
 4407      41535F44 
 4407      454E4F52 
 4407      4D5F5F20 
 4408 157b 01       		.byte	0x1
 4409 157c 00       		.uleb128 0
 4410 157d 5F5F4C44 		.ascii "__LDBL_HAS_INFINITY__ 1\0"
 4410      424C5F48 
 4410      41535F49 
 4410      4E46494E 
 4410      4954595F 
 4411 1595 01       		.byte	0x1
 4412 1596 00       		.uleb128 0
 4413 1597 5F5F4C44 		.ascii "__LDBL_HAS_QUIET_NAN__ 1\0"
 4413      424C5F48 
 4413      41535F51 
 4413      55494554 
 4413      5F4E414E 
 4414 15b0 01       		.byte	0x1
 4415 15b1 00       		.uleb128 0
 4416 15b2 5F5F464C 		.ascii "__FLT32_MANT_DIG__ 24\0"
 4416      5433325F 
 4416      4D414E54 
 4416      5F444947 
 4416      5F5F2032 
 4417 15c8 01       		.byte	0x1
 4418 15c9 00       		.uleb128 0
 4419 15ca 5F5F464C 		.ascii "__FLT32_DIG__ 6\0"
 4419      5433325F 
 4419      4449475F 
 4419      5F203600 
 4420 15da 01       		.byte	0x1
 4421 15db 00       		.uleb128 0
 4422 15dc 5F5F464C 		.ascii "__FLT32_MIN_EXP__ (-125)\0"
 4422      5433325F 
 4422      4D494E5F 
 4422      4558505F 
 4422      5F20282D 
 4423 15f5 01       		.byte	0x1
 4424 15f6 00       		.uleb128 0
 4425 15f7 5F5F464C 		.ascii "__FLT32_MIN_10_EXP__ (-37)\0"
 4425      5433325F 
 4425      4D494E5F 
 4425      31305F45 
GAS LISTING C:\Users\PRESID~1\AppData\Local\Temp\ccDe376t.s 			page 112


 4425      58505F5F 
 4426 1612 01       		.byte	0x1
 4427 1613 00       		.uleb128 0
 4428 1614 5F5F464C 		.ascii "__FLT32_MAX_EXP__ 128\0"
 4428      5433325F 
 4428      4D41585F 
 4428      4558505F 
 4428      5F203132 
 4429 162a 01       		.byte	0x1
 4430 162b 00       		.uleb128 0
 4431 162c 5F5F464C 		.ascii "__FLT32_MAX_10_EXP__ 38\0"
 4431      5433325F 
 4431      4D41585F 
 4431      31305F45 
 4431      58505F5F 
 4432 1644 01       		.byte	0x1
 4433 1645 00       		.uleb128 0
 4434 1646 5F5F464C 		.ascii "__FLT32_DECIMAL_DIG__ 9\0"
 4434      5433325F 
 4434      44454349 
 4434      4D414C5F 
 4434      4449475F 
 4435 165e 01       		.byte	0x1
 4436 165f 00       		.uleb128 0
 4437 1660 5F5F464C 		.ascii "__FLT32_MAX__ 3.40282346638528859811704183484516925e+38F32\0"
 4437      5433325F 
 4437      4D41585F 
 4437      5F20332E 
 4437      34303238 
 4438 169b 01       		.byte	0x1
 4439 169c 00       		.uleb128 0
 4440 169d 5F5F464C 		.ascii "__FLT32_MIN__ 1.17549435082228750796873653722224568e-38F32\0"
 4440      5433325F 
 4440      4D494E5F 
 4440      5F20312E 
 4440      31373534 
 4441 16d8 01       		.byte	0x1
 4442 16d9 00       		.uleb128 0
 4443 16da 5F5F464C 		.ascii "__FLT32_EPSILON__ 1.19209289550781250000000000000000000e-7F32\0"
 4443      5433325F 
 4443      45505349 
 4443      4C4F4E5F 
 4443      5F20312E 
 4444 1718 01       		.byte	0x1
 4445 1719 00       		.uleb128 0
 4446 171a 5F5F464C 		.ascii "__FLT32_DENORM_MIN__ 1.40129846432481707092372958328991613e-45F32\0"
 4446      5433325F 
 4446      44454E4F 
 4446      524D5F4D 
 4446      494E5F5F 
 4447 175c 01       		.byte	0x1
 4448 175d 00       		.uleb128 0
 4449 175e 5F5F464C 		.ascii "__FLT32_HAS_DENORM__ 1\0"
 4449      5433325F 
 4449      4841535F 
 4449      44454E4F 
 4449      524D5F5F 
GAS LISTING C:\Users\PRESID~1\AppData\Local\Temp\ccDe376t.s 			page 113


 4450 1775 01       		.byte	0x1
 4451 1776 00       		.uleb128 0
 4452 1777 5F5F464C 		.ascii "__FLT32_HAS_INFINITY__ 1\0"
 4452      5433325F 
 4452      4841535F 
 4452      494E4649 
 4452      4E495459 
 4453 1790 01       		.byte	0x1
 4454 1791 00       		.uleb128 0
 4455 1792 5F5F464C 		.ascii "__FLT32_HAS_QUIET_NAN__ 1\0"
 4455      5433325F 
 4455      4841535F 
 4455      51554945 
 4455      545F4E41 
 4456 17ac 01       		.byte	0x1
 4457 17ad 00       		.uleb128 0
 4458 17ae 5F5F464C 		.ascii "__FLT64_MANT_DIG__ 53\0"
 4458      5436345F 
 4458      4D414E54 
 4458      5F444947 
 4458      5F5F2035 
 4459 17c4 01       		.byte	0x1
 4460 17c5 00       		.uleb128 0
 4461 17c6 5F5F464C 		.ascii "__FLT64_DIG__ 15\0"
 4461      5436345F 
 4461      4449475F 
 4461      5F203135 
 4461      00
 4462 17d7 01       		.byte	0x1
 4463 17d8 00       		.uleb128 0
 4464 17d9 5F5F464C 		.ascii "__FLT64_MIN_EXP__ (-1021)\0"
 4464      5436345F 
 4464      4D494E5F 
 4464      4558505F 
 4464      5F20282D 
 4465 17f3 01       		.byte	0x1
 4466 17f4 00       		.uleb128 0
 4467 17f5 5F5F464C 		.ascii "__FLT64_MIN_10_EXP__ (-307)\0"
 4467      5436345F 
 4467      4D494E5F 
 4467      31305F45 
 4467      58505F5F 
 4468 1811 01       		.byte	0x1
 4469 1812 00       		.uleb128 0
 4470 1813 5F5F464C 		.ascii "__FLT64_MAX_EXP__ 1024\0"
 4470      5436345F 
 4470      4D41585F 
 4470      4558505F 
 4470      5F203130 
 4471 182a 01       		.byte	0x1
 4472 182b 00       		.uleb128 0
 4473 182c 5F5F464C 		.ascii "__FLT64_MAX_10_EXP__ 308\0"
 4473      5436345F 
 4473      4D41585F 
 4473      31305F45 
 4473      58505F5F 
 4474 1845 01       		.byte	0x1
GAS LISTING C:\Users\PRESID~1\AppData\Local\Temp\ccDe376t.s 			page 114


 4475 1846 00       		.uleb128 0
 4476 1847 5F5F464C 		.ascii "__FLT64_DECIMAL_DIG__ 17\0"
 4476      5436345F 
 4476      44454349 
 4476      4D414C5F 
 4476      4449475F 
 4477 1860 01       		.byte	0x1
 4478 1861 00       		.uleb128 0
 4479 1862 5F5F464C 		.ascii "__FLT64_MAX__ 1.79769313486231570814527423731704357e+308F64\0"
 4479      5436345F 
 4479      4D41585F 
 4479      5F20312E 
 4479      37393736 
 4480 189e 01       		.byte	0x1
 4481 189f 00       		.uleb128 0
 4482 18a0 5F5F464C 		.ascii "__FLT64_MIN__ 2.22507385850720138309023271733240406e-308F64\0"
 4482      5436345F 
 4482      4D494E5F 
 4482      5F20322E 
 4482      32323530 
 4483 18dc 01       		.byte	0x1
 4484 18dd 00       		.uleb128 0
 4485 18de 5F5F464C 		.ascii "__FLT64_EPSILON__ 2.22044604925031308084726333618164062e-16F64\0"
 4485      5436345F 
 4485      45505349 
 4485      4C4F4E5F 
 4485      5F20322E 
 4486 191d 01       		.byte	0x1
 4487 191e 00       		.uleb128 0
 4488 191f 5F5F464C 		.ascii "__FLT64_DENORM_MIN__ 4.94065645841246544176568792868221372e-324F64\0"
 4488      5436345F 
 4488      44454E4F 
 4488      524D5F4D 
 4488      494E5F5F 
 4489 1962 01       		.byte	0x1
 4490 1963 00       		.uleb128 0
 4491 1964 5F5F464C 		.ascii "__FLT64_HAS_DENORM__ 1\0"
 4491      5436345F 
 4491      4841535F 
 4491      44454E4F 
 4491      524D5F5F 
 4492 197b 01       		.byte	0x1
 4493 197c 00       		.uleb128 0
 4494 197d 5F5F464C 		.ascii "__FLT64_HAS_INFINITY__ 1\0"
 4494      5436345F 
 4494      4841535F 
 4494      494E4649 
 4494      4E495459 
 4495 1996 01       		.byte	0x1
 4496 1997 00       		.uleb128 0
 4497 1998 5F5F464C 		.ascii "__FLT64_HAS_QUIET_NAN__ 1\0"
 4497      5436345F 
 4497      4841535F 
 4497      51554945 
 4497      545F4E41 
 4498 19b2 01       		.byte	0x1
 4499 19b3 00       		.uleb128 0
GAS LISTING C:\Users\PRESID~1\AppData\Local\Temp\ccDe376t.s 			page 115


 4500 19b4 5F5F464C 		.ascii "__FLT128_MANT_DIG__ 113\0"
 4500      54313238 
 4500      5F4D414E 
 4500      545F4449 
 4500      475F5F20 
 4501 19cc 01       		.byte	0x1
 4502 19cd 00       		.uleb128 0
 4503 19ce 5F5F464C 		.ascii "__FLT128_DIG__ 33\0"
 4503      54313238 
 4503      5F444947 
 4503      5F5F2033 
 4503      3300
 4504 19e0 01       		.byte	0x1
 4505 19e1 00       		.uleb128 0
 4506 19e2 5F5F464C 		.ascii "__FLT128_MIN_EXP__ (-16381)\0"
 4506      54313238 
 4506      5F4D494E 
 4506      5F455850 
 4506      5F5F2028 
 4507 19fe 01       		.byte	0x1
 4508 19ff 00       		.uleb128 0
 4509 1a00 5F5F464C 		.ascii "__FLT128_MIN_10_EXP__ (-4931)\0"
 4509      54313238 
 4509      5F4D494E 
 4509      5F31305F 
 4509      4558505F 
 4510 1a1e 01       		.byte	0x1
 4511 1a1f 00       		.uleb128 0
 4512 1a20 5F5F464C 		.ascii "__FLT128_MAX_EXP__ 16384\0"
 4512      54313238 
 4512      5F4D4158 
 4512      5F455850 
 4512      5F5F2031 
 4513 1a39 01       		.byte	0x1
 4514 1a3a 00       		.uleb128 0
 4515 1a3b 5F5F464C 		.ascii "__FLT128_MAX_10_EXP__ 4932\0"
 4515      54313238 
 4515      5F4D4158 
 4515      5F31305F 
 4515      4558505F 
 4516 1a56 01       		.byte	0x1
 4517 1a57 00       		.uleb128 0
 4518 1a58 5F5F464C 		.ascii "__FLT128_DECIMAL_DIG__ 36\0"
 4518      54313238 
 4518      5F444543 
 4518      494D414C 
 4518      5F444947 
 4519 1a72 01       		.byte	0x1
 4520 1a73 00       		.uleb128 0
 4521 1a74 5F5F464C 		.ascii "__FLT128_MAX__ 1.18973149535723176508575932662800702e+4932F128\0"
 4521      54313238 
 4521      5F4D4158 
 4521      5F5F2031 
 4521      2E313839 
 4522 1ab3 01       		.byte	0x1
 4523 1ab4 00       		.uleb128 0
 4524 1ab5 5F5F464C 		.ascii "__FLT128_MIN__ 3.36210314311209350626267781732175260e-4932F128\0"
GAS LISTING C:\Users\PRESID~1\AppData\Local\Temp\ccDe376t.s 			page 116


 4524      54313238 
 4524      5F4D494E 
 4524      5F5F2033 
 4524      2E333632 
 4525 1af4 01       		.byte	0x1
 4526 1af5 00       		.uleb128 0
 4527 1af6 5F5F464C 		.ascii "__FLT128_EPSILON__ 1.92592994438723585305597794258492732e-34F128\0"
 4527      54313238 
 4527      5F455053 
 4527      494C4F4E 
 4527      5F5F2031 
 4528 1b37 01       		.byte	0x1
 4529 1b38 00       		.uleb128 0
 4530 1b39 5F5F464C 		.ascii "__FLT128_DENORM_MIN__ 6.47517511943802511092443895822764655e-4966F128\0"
 4530      54313238 
 4530      5F44454E 
 4530      4F524D5F 
 4530      4D494E5F 
 4531 1b7f 01       		.byte	0x1
 4532 1b80 00       		.uleb128 0
 4533 1b81 5F5F464C 		.ascii "__FLT128_HAS_DENORM__ 1\0"
 4533      54313238 
 4533      5F484153 
 4533      5F44454E 
 4533      4F524D5F 
 4534 1b99 01       		.byte	0x1
 4535 1b9a 00       		.uleb128 0
 4536 1b9b 5F5F464C 		.ascii "__FLT128_HAS_INFINITY__ 1\0"
 4536      54313238 
 4536      5F484153 
 4536      5F494E46 
 4536      494E4954 
 4537 1bb5 01       		.byte	0x1
 4538 1bb6 00       		.uleb128 0
 4539 1bb7 5F5F464C 		.ascii "__FLT128_HAS_QUIET_NAN__ 1\0"
 4539      54313238 
 4539      5F484153 
 4539      5F515549 
 4539      45545F4E 
 4540 1bd2 01       		.byte	0x1
 4541 1bd3 00       		.uleb128 0
 4542 1bd4 5F5F464C 		.ascii "__FLT32X_MANT_DIG__ 53\0"
 4542      54333258 
 4542      5F4D414E 
 4542      545F4449 
 4542      475F5F20 
 4543 1beb 01       		.byte	0x1
 4544 1bec 00       		.uleb128 0
 4545 1bed 5F5F464C 		.ascii "__FLT32X_DIG__ 15\0"
 4545      54333258 
 4545      5F444947 
 4545      5F5F2031 
 4545      3500
 4546 1bff 01       		.byte	0x1
 4547 1c00 00       		.uleb128 0
 4548 1c01 5F5F464C 		.ascii "__FLT32X_MIN_EXP__ (-1021)\0"
 4548      54333258 
GAS LISTING C:\Users\PRESID~1\AppData\Local\Temp\ccDe376t.s 			page 117


 4548      5F4D494E 
 4548      5F455850 
 4548      5F5F2028 
 4549 1c1c 01       		.byte	0x1
 4550 1c1d 00       		.uleb128 0
 4551 1c1e 5F5F464C 		.ascii "__FLT32X_MIN_10_EXP__ (-307)\0"
 4551      54333258 
 4551      5F4D494E 
 4551      5F31305F 
 4551      4558505F 
 4552 1c3b 01       		.byte	0x1
 4553 1c3c 00       		.uleb128 0
 4554 1c3d 5F5F464C 		.ascii "__FLT32X_MAX_EXP__ 1024\0"
 4554      54333258 
 4554      5F4D4158 
 4554      5F455850 
 4554      5F5F2031 
 4555 1c55 01       		.byte	0x1
 4556 1c56 00       		.uleb128 0
 4557 1c57 5F5F464C 		.ascii "__FLT32X_MAX_10_EXP__ 308\0"
 4557      54333258 
 4557      5F4D4158 
 4557      5F31305F 
 4557      4558505F 
 4558 1c71 01       		.byte	0x1
 4559 1c72 00       		.uleb128 0
 4560 1c73 5F5F464C 		.ascii "__FLT32X_DECIMAL_DIG__ 17\0"
 4560      54333258 
 4560      5F444543 
 4560      494D414C 
 4560      5F444947 
 4561 1c8d 01       		.byte	0x1
 4562 1c8e 00       		.uleb128 0
 4563 1c8f 5F5F464C 		.ascii "__FLT32X_MAX__ 1.79769313486231570814527423731704357e+308F32x\0"
 4563      54333258 
 4563      5F4D4158 
 4563      5F5F2031 
 4563      2E373937 
 4564 1ccd 01       		.byte	0x1
 4565 1cce 00       		.uleb128 0
 4566 1ccf 5F5F464C 		.ascii "__FLT32X_MIN__ 2.22507385850720138309023271733240406e-308F32x\0"
 4566      54333258 
 4566      5F4D494E 
 4566      5F5F2032 
 4566      2E323235 
 4567 1d0d 01       		.byte	0x1
 4568 1d0e 00       		.uleb128 0
 4569 1d0f 5F5F464C 		.ascii "__FLT32X_EPSILON__ 2.22044604925031308084726333618164062e-16F32x\0"
 4569      54333258 
 4569      5F455053 
 4569      494C4F4E 
 4569      5F5F2032 
 4570 1d50 01       		.byte	0x1
 4571 1d51 00       		.uleb128 0
 4572 1d52 5F5F464C 		.ascii "__FLT32X_DENORM_MIN__ 4.94065645841246544176568792868221372e-324F32x\0"
 4572      54333258 
 4572      5F44454E 
GAS LISTING C:\Users\PRESID~1\AppData\Local\Temp\ccDe376t.s 			page 118


 4572      4F524D5F 
 4572      4D494E5F 
 4573 1d97 01       		.byte	0x1
 4574 1d98 00       		.uleb128 0
 4575 1d99 5F5F464C 		.ascii "__FLT32X_HAS_DENORM__ 1\0"
 4575      54333258 
 4575      5F484153 
 4575      5F44454E 
 4575      4F524D5F 
 4576 1db1 01       		.byte	0x1
 4577 1db2 00       		.uleb128 0
 4578 1db3 5F5F464C 		.ascii "__FLT32X_HAS_INFINITY__ 1\0"
 4578      54333258 
 4578      5F484153 
 4578      5F494E46 
 4578      494E4954 
 4579 1dcd 01       		.byte	0x1
 4580 1dce 00       		.uleb128 0
 4581 1dcf 5F5F464C 		.ascii "__FLT32X_HAS_QUIET_NAN__ 1\0"
 4581      54333258 
 4581      5F484153 
 4581      5F515549 
 4581      45545F4E 
 4582 1dea 01       		.byte	0x1
 4583 1deb 00       		.uleb128 0
 4584 1dec 5F5F464C 		.ascii "__FLT64X_MANT_DIG__ 64\0"
 4584      54363458 
 4584      5F4D414E 
 4584      545F4449 
 4584      475F5F20 
 4585 1e03 01       		.byte	0x1
 4586 1e04 00       		.uleb128 0
 4587 1e05 5F5F464C 		.ascii "__FLT64X_DIG__ 18\0"
 4587      54363458 
 4587      5F444947 
 4587      5F5F2031 
 4587      3800
 4588 1e17 01       		.byte	0x1
 4589 1e18 00       		.uleb128 0
 4590 1e19 5F5F464C 		.ascii "__FLT64X_MIN_EXP__ (-16381)\0"
 4590      54363458 
 4590      5F4D494E 
 4590      5F455850 
 4590      5F5F2028 
 4591 1e35 01       		.byte	0x1
 4592 1e36 00       		.uleb128 0
 4593 1e37 5F5F464C 		.ascii "__FLT64X_MIN_10_EXP__ (-4931)\0"
 4593      54363458 
 4593      5F4D494E 
 4593      5F31305F 
 4593      4558505F 
 4594 1e55 01       		.byte	0x1
 4595 1e56 00       		.uleb128 0
 4596 1e57 5F5F464C 		.ascii "__FLT64X_MAX_EXP__ 16384\0"
 4596      54363458 
 4596      5F4D4158 
 4596      5F455850 
GAS LISTING C:\Users\PRESID~1\AppData\Local\Temp\ccDe376t.s 			page 119


 4596      5F5F2031 
 4597 1e70 01       		.byte	0x1
 4598 1e71 00       		.uleb128 0
 4599 1e72 5F5F464C 		.ascii "__FLT64X_MAX_10_EXP__ 4932\0"
 4599      54363458 
 4599      5F4D4158 
 4599      5F31305F 
 4599      4558505F 
 4600 1e8d 01       		.byte	0x1
 4601 1e8e 00       		.uleb128 0
 4602 1e8f 5F5F464C 		.ascii "__FLT64X_DECIMAL_DIG__ 21\0"
 4602      54363458 
 4602      5F444543 
 4602      494D414C 
 4602      5F444947 
 4603 1ea9 01       		.byte	0x1
 4604 1eaa 00       		.uleb128 0
 4605 1eab 5F5F464C 		.ascii "__FLT64X_MAX__ 1.18973149535723176502126385303097021e+4932F64x\0"
 4605      54363458 
 4605      5F4D4158 
 4605      5F5F2031 
 4605      2E313839 
 4606 1eea 01       		.byte	0x1
 4607 1eeb 00       		.uleb128 0
 4608 1eec 5F5F464C 		.ascii "__FLT64X_MIN__ 3.36210314311209350626267781732175260e-4932F64x\0"
 4608      54363458 
 4608      5F4D494E 
 4608      5F5F2033 
 4608      2E333632 
 4609 1f2b 01       		.byte	0x1
 4610 1f2c 00       		.uleb128 0
 4611 1f2d 5F5F464C 		.ascii "__FLT64X_EPSILON__ 1.08420217248550443400745280086994171e-19F64x\0"
 4611      54363458 
 4611      5F455053 
 4611      494C4F4E 
 4611      5F5F2031 
 4612 1f6e 01       		.byte	0x1
 4613 1f6f 00       		.uleb128 0
 4614 1f70 5F5F464C 		.ascii "__FLT64X_DENORM_MIN__ 3.64519953188247460252840593361941982e-4951F64x\0"
 4614      54363458 
 4614      5F44454E 
 4614      4F524D5F 
 4614      4D494E5F 
 4615 1fb6 01       		.byte	0x1
 4616 1fb7 00       		.uleb128 0
 4617 1fb8 5F5F464C 		.ascii "__FLT64X_HAS_DENORM__ 1\0"
 4617      54363458 
 4617      5F484153 
 4617      5F44454E 
 4617      4F524D5F 
 4618 1fd0 01       		.byte	0x1
 4619 1fd1 00       		.uleb128 0
 4620 1fd2 5F5F464C 		.ascii "__FLT64X_HAS_INFINITY__ 1\0"
 4620      54363458 
 4620      5F484153 
 4620      5F494E46 
 4620      494E4954 
GAS LISTING C:\Users\PRESID~1\AppData\Local\Temp\ccDe376t.s 			page 120


 4621 1fec 01       		.byte	0x1
 4622 1fed 00       		.uleb128 0
 4623 1fee 5F5F464C 		.ascii "__FLT64X_HAS_QUIET_NAN__ 1\0"
 4623      54363458 
 4623      5F484153 
 4623      5F515549 
 4623      45545F4E 
 4624 2009 01       		.byte	0x1
 4625 200a 00       		.uleb128 0
 4626 200b 5F5F4445 		.ascii "__DEC32_MANT_DIG__ 7\0"
 4626      4333325F 
 4626      4D414E54 
 4626      5F444947 
 4626      5F5F2037 
 4627 2020 01       		.byte	0x1
 4628 2021 00       		.uleb128 0
 4629 2022 5F5F4445 		.ascii "__DEC32_MIN_EXP__ (-94)\0"
 4629      4333325F 
 4629      4D494E5F 
 4629      4558505F 
 4629      5F20282D 
 4630 203a 01       		.byte	0x1
 4631 203b 00       		.uleb128 0
 4632 203c 5F5F4445 		.ascii "__DEC32_MAX_EXP__ 97\0"
 4632      4333325F 
 4632      4D41585F 
 4632      4558505F 
 4632      5F203937 
 4633 2051 01       		.byte	0x1
 4634 2052 00       		.uleb128 0
 4635 2053 5F5F4445 		.ascii "__DEC32_MIN__ 1E-95DF\0"
 4635      4333325F 
 4635      4D494E5F 
 4635      5F203145 
 4635      2D393544 
 4636 2069 01       		.byte	0x1
 4637 206a 00       		.uleb128 0
 4638 206b 5F5F4445 		.ascii "__DEC32_MAX__ 9.999999E96DF\0"
 4638      4333325F 
 4638      4D41585F 
 4638      5F20392E 
 4638      39393939 
 4639 2087 01       		.byte	0x1
 4640 2088 00       		.uleb128 0
 4641 2089 5F5F4445 		.ascii "__DEC32_EPSILON__ 1E-6DF\0"
 4641      4333325F 
 4641      45505349 
 4641      4C4F4E5F 
 4641      5F203145 
 4642 20a2 01       		.byte	0x1
 4643 20a3 00       		.uleb128 0
 4644 20a4 5F5F4445 		.ascii "__DEC32_SUBNORMAL_MIN__ 0.000001E-95DF\0"
 4644      4333325F 
 4644      5355424E 
 4644      4F524D41 
 4644      4C5F4D49 
 4645 20cb 01       		.byte	0x1
GAS LISTING C:\Users\PRESID~1\AppData\Local\Temp\ccDe376t.s 			page 121


 4646 20cc 00       		.uleb128 0
 4647 20cd 5F5F4445 		.ascii "__DEC64_MANT_DIG__ 16\0"
 4647      4336345F 
 4647      4D414E54 
 4647      5F444947 
 4647      5F5F2031 
 4648 20e3 01       		.byte	0x1
 4649 20e4 00       		.uleb128 0
 4650 20e5 5F5F4445 		.ascii "__DEC64_MIN_EXP__ (-382)\0"
 4650      4336345F 
 4650      4D494E5F 
 4650      4558505F 
 4650      5F20282D 
 4651 20fe 01       		.byte	0x1
 4652 20ff 00       		.uleb128 0
 4653 2100 5F5F4445 		.ascii "__DEC64_MAX_EXP__ 385\0"
 4653      4336345F 
 4653      4D41585F 
 4653      4558505F 
 4653      5F203338 
 4654 2116 01       		.byte	0x1
 4655 2117 00       		.uleb128 0
 4656 2118 5F5F4445 		.ascii "__DEC64_MIN__ 1E-383DD\0"
 4656      4336345F 
 4656      4D494E5F 
 4656      5F203145 
 4656      2D333833 
 4657 212f 01       		.byte	0x1
 4658 2130 00       		.uleb128 0
 4659 2131 5F5F4445 		.ascii "__DEC64_MAX__ 9.999999999999999E384DD\0"
 4659      4336345F 
 4659      4D41585F 
 4659      5F20392E 
 4659      39393939 
 4660 2157 01       		.byte	0x1
 4661 2158 00       		.uleb128 0
 4662 2159 5F5F4445 		.ascii "__DEC64_EPSILON__ 1E-15DD\0"
 4662      4336345F 
 4662      45505349 
 4662      4C4F4E5F 
 4662      5F203145 
 4663 2173 01       		.byte	0x1
 4664 2174 00       		.uleb128 0
 4665 2175 5F5F4445 		.ascii "__DEC64_SUBNORMAL_MIN__ 0.000000000000001E-383DD\0"
 4665      4336345F 
 4665      5355424E 
 4665      4F524D41 
 4665      4C5F4D49 
 4666 21a6 01       		.byte	0x1
 4667 21a7 00       		.uleb128 0
 4668 21a8 5F5F4445 		.ascii "__DEC128_MANT_DIG__ 34\0"
 4668      43313238 
 4668      5F4D414E 
 4668      545F4449 
 4668      475F5F20 
 4669 21bf 01       		.byte	0x1
 4670 21c0 00       		.uleb128 0
GAS LISTING C:\Users\PRESID~1\AppData\Local\Temp\ccDe376t.s 			page 122


 4671 21c1 5F5F4445 		.ascii "__DEC128_MIN_EXP__ (-6142)\0"
 4671      43313238 
 4671      5F4D494E 
 4671      5F455850 
 4671      5F5F2028 
 4672 21dc 01       		.byte	0x1
 4673 21dd 00       		.uleb128 0
 4674 21de 5F5F4445 		.ascii "__DEC128_MAX_EXP__ 6145\0"
 4674      43313238 
 4674      5F4D4158 
 4674      5F455850 
 4674      5F5F2036 
 4675 21f6 01       		.byte	0x1
 4676 21f7 00       		.uleb128 0
 4677 21f8 5F5F4445 		.ascii "__DEC128_MIN__ 1E-6143DL\0"
 4677      43313238 
 4677      5F4D494E 
 4677      5F5F2031 
 4677      452D3631 
 4678 2211 01       		.byte	0x1
 4679 2212 00       		.uleb128 0
 4680 2213 5F5F4445 		.ascii "__DEC128_MAX__ 9.999999999999999999999999999999999E6144DL\0"
 4680      43313238 
 4680      5F4D4158 
 4680      5F5F2039 
 4680      2E393939 
 4681 224d 01       		.byte	0x1
 4682 224e 00       		.uleb128 0
 4683 224f 5F5F4445 		.ascii "__DEC128_EPSILON__ 1E-33DL\0"
 4683      43313238 
 4683      5F455053 
 4683      494C4F4E 
 4683      5F5F2031 
 4684 226a 01       		.byte	0x1
 4685 226b 00       		.uleb128 0
 4686 226c 5F5F4445 		.ascii "__DEC128_SUBNORMAL_MIN__ 0.000000000000000000000000000000001E-6143DL\0"
 4686      43313238 
 4686      5F535542 
 4686      4E4F524D 
 4686      414C5F4D 
 4687 22b1 01       		.byte	0x1
 4688 22b2 00       		.uleb128 0
 4689 22b3 5F5F5245 		.ascii "__REGISTER_PREFIX__ \0"
 4689      47495354 
 4689      45525F50 
 4689      52454649 
 4689      585F5F20 
 4690 22c8 01       		.byte	0x1
 4691 22c9 00       		.uleb128 0
 4692 22ca 5F5F5553 		.ascii "__USER_LABEL_PREFIX__ _\0"
 4692      45525F4C 
 4692      4142454C 
 4692      5F505245 
 4692      4649585F 
 4693 22e2 01       		.byte	0x1
 4694 22e3 00       		.uleb128 0
 4695 22e4 5F5F474E 		.ascii "__GNUC_GNU_INLINE__ 1\0"
GAS LISTING C:\Users\PRESID~1\AppData\Local\Temp\ccDe376t.s 			page 123


 4695      55435F47 
 4695      4E555F49 
 4695      4E4C494E 
 4695      455F5F20 
 4696 22fa 01       		.byte	0x1
 4697 22fb 00       		.uleb128 0
 4698 22fc 5F5F4E4F 		.ascii "__NO_INLINE__ 1\0"
 4698      5F494E4C 
 4698      494E455F 
 4698      5F203100 
 4699 230c 01       		.byte	0x1
 4700 230d 00       		.uleb128 0
 4701 230e 5F5F5354 		.ascii "__STRICT_ANSI__ 1\0"
 4701      52494354 
 4701      5F414E53 
 4701      495F5F20 
 4701      3100
 4702 2320 01       		.byte	0x1
 4703 2321 00       		.uleb128 0
 4704 2322 5F5F4743 		.ascii "__GCC_ATOMIC_BOOL_LOCK_FREE 1\0"
 4704      435F4154 
 4704      4F4D4943 
 4704      5F424F4F 
 4704      4C5F4C4F 
 4705 2340 01       		.byte	0x1
 4706 2341 00       		.uleb128 0
 4707 2342 5F5F4743 		.ascii "__GCC_ATOMIC_CHAR_LOCK_FREE 1\0"
 4707      435F4154 
 4707      4F4D4943 
 4707      5F434841 
 4707      525F4C4F 
 4708 2360 01       		.byte	0x1
 4709 2361 00       		.uleb128 0
 4710 2362 5F5F4743 		.ascii "__GCC_ATOMIC_CHAR16_T_LOCK_FREE 1\0"
 4710      435F4154 
 4710      4F4D4943 
 4710      5F434841 
 4710      5231365F 
 4711 2384 01       		.byte	0x1
 4712 2385 00       		.uleb128 0
 4713 2386 5F5F4743 		.ascii "__GCC_ATOMIC_CHAR32_T_LOCK_FREE 1\0"
 4713      435F4154 
 4713      4F4D4943 
 4713      5F434841 
 4713      5233325F 
 4714 23a8 01       		.byte	0x1
 4715 23a9 00       		.uleb128 0
 4716 23aa 5F5F4743 		.ascii "__GCC_ATOMIC_WCHAR_T_LOCK_FREE 1\0"
 4716      435F4154 
 4716      4F4D4943 
 4716      5F574348 
 4716      41525F54 
 4717 23cb 01       		.byte	0x1
 4718 23cc 00       		.uleb128 0
 4719 23cd 5F5F4743 		.ascii "__GCC_ATOMIC_SHORT_LOCK_FREE 1\0"
 4719      435F4154 
 4719      4F4D4943 
GAS LISTING C:\Users\PRESID~1\AppData\Local\Temp\ccDe376t.s 			page 124


 4719      5F53484F 
 4719      52545F4C 
 4720 23ec 01       		.byte	0x1
 4721 23ed 00       		.uleb128 0
 4722 23ee 5F5F4743 		.ascii "__GCC_ATOMIC_INT_LOCK_FREE 1\0"
 4722      435F4154 
 4722      4F4D4943 
 4722      5F494E54 
 4722      5F4C4F43 
 4723 240b 01       		.byte	0x1
 4724 240c 00       		.uleb128 0
 4725 240d 5F5F4743 		.ascii "__GCC_ATOMIC_LONG_LOCK_FREE 1\0"
 4725      435F4154 
 4725      4F4D4943 
 4725      5F4C4F4E 
 4725      475F4C4F 
 4726 242b 01       		.byte	0x1
 4727 242c 00       		.uleb128 0
 4728 242d 5F5F4743 		.ascii "__GCC_ATOMIC_LLONG_LOCK_FREE 1\0"
 4728      435F4154 
 4728      4F4D4943 
 4728      5F4C4C4F 
 4728      4E475F4C 
 4729 244c 01       		.byte	0x1
 4730 244d 00       		.uleb128 0
 4731 244e 5F5F4743 		.ascii "__GCC_ATOMIC_TEST_AND_SET_TRUEVAL 1\0"
 4731      435F4154 
 4731      4F4D4943 
 4731      5F544553 
 4731      545F414E 
 4732 2472 01       		.byte	0x1
 4733 2473 00       		.uleb128 0
 4734 2474 5F5F4743 		.ascii "__GCC_ATOMIC_POINTER_LOCK_FREE 1\0"
 4734      435F4154 
 4734      4F4D4943 
 4734      5F504F49 
 4734      4E544552 
 4735 2495 01       		.byte	0x1
 4736 2496 00       		.uleb128 0
 4737 2497 5F5F4743 		.ascii "__GCC_HAVE_DWARF2_CFI_ASM 1\0"
 4737      435F4841 
 4737      56455F44 
 4737      57415246 
 4737      325F4346 
 4738 24b3 01       		.byte	0x1
 4739 24b4 00       		.uleb128 0
 4740 24b5 5F5F5052 		.ascii "__PRAGMA_REDEFINE_EXTNAME 1\0"
 4740      41474D41 
 4740      5F524544 
 4740      4546494E 
 4740      455F4558 
 4741 24d1 01       		.byte	0x1
 4742 24d2 00       		.uleb128 0
 4743 24d3 5F5F5349 		.ascii "__SIZEOF_WCHAR_T__ 2\0"
 4743      5A454F46 
 4743      5F574348 
 4743      41525F54 
GAS LISTING C:\Users\PRESID~1\AppData\Local\Temp\ccDe376t.s 			page 125


 4743      5F5F2032 
 4744 24e8 01       		.byte	0x1
 4745 24e9 00       		.uleb128 0
 4746 24ea 5F5F5349 		.ascii "__SIZEOF_WINT_T__ 2\0"
 4746      5A454F46 
 4746      5F57494E 
 4746      545F545F 
 4746      5F203200 
 4747 24fe 01       		.byte	0x1
 4748 24ff 00       		.uleb128 0
 4749 2500 5F5F5349 		.ascii "__SIZEOF_PTRDIFF_T__ 4\0"
 4749      5A454F46 
 4749      5F505452 
 4749      44494646 
 4749      5F545F5F 
 4750 2517 01       		.byte	0x1
 4751 2518 00       		.uleb128 0
 4752 2519 5F5F6933 		.ascii "__i386 1\0"
 4752      38362031 
 4752      00
 4753 2522 01       		.byte	0x1
 4754 2523 00       		.uleb128 0
 4755 2524 5F5F6933 		.ascii "__i386__ 1\0"
 4755      38365F5F 
 4755      203100
 4756 252f 01       		.byte	0x1
 4757 2530 00       		.uleb128 0
 4758 2531 5F5F5349 		.ascii "__SIZEOF_FLOAT80__ 12\0"
 4758      5A454F46 
 4758      5F464C4F 
 4758      41543830 
 4758      5F5F2031 
 4759 2547 01       		.byte	0x1
 4760 2548 00       		.uleb128 0
 4761 2549 5F5F5349 		.ascii "__SIZEOF_FLOAT128__ 16\0"
 4761      5A454F46 
 4761      5F464C4F 
 4761      41543132 
 4761      385F5F20 
 4762 2560 01       		.byte	0x1
 4763 2561 00       		.uleb128 0
 4764 2562 5F5F4154 		.ascii "__ATOMIC_HLE_ACQUIRE 65536\0"
 4764      4F4D4943 
 4764      5F484C45 
 4764      5F414351 
 4764      55495245 
 4765 257d 01       		.byte	0x1
 4766 257e 00       		.uleb128 0
 4767 257f 5F5F4154 		.ascii "__ATOMIC_HLE_RELEASE 131072\0"
 4767      4F4D4943 
 4767      5F484C45 
 4767      5F52454C 
 4767      45415345 
 4768 259b 01       		.byte	0x1
 4769 259c 00       		.uleb128 0
 4770 259d 5F5F4743 		.ascii "__GCC_ASM_FLAG_OUTPUTS__ 1\0"
 4770      435F4153 
GAS LISTING C:\Users\PRESID~1\AppData\Local\Temp\ccDe376t.s 			page 126


 4770      4D5F464C 
 4770      41475F4F 
 4770      55545055 
 4771 25b8 01       		.byte	0x1
 4772 25b9 00       		.uleb128 0
 4773 25ba 5F5F7475 		.ascii "__tune_i386__ 1\0"
 4773      6E655F69 
 4773      3338365F 
 4773      5F203100 
 4774 25ca 01       		.byte	0x1
 4775 25cb 00       		.uleb128 0
 4776 25cc 5F5F636F 		.ascii "__code_model_32__ 1\0"
 4776      64655F6D 
 4776      6F64656C 
 4776      5F33325F 
 4776      5F203100 
 4777 25e0 01       		.byte	0x1
 4778 25e1 00       		.uleb128 0
 4779 25e2 5F5F5345 		.ascii "__SEG_FS 1\0"
 4779      475F4653 
 4779      203100
 4780 25ed 01       		.byte	0x1
 4781 25ee 00       		.uleb128 0
 4782 25ef 5F5F5345 		.ascii "__SEG_GS 1\0"
 4782      475F4753 
 4782      203100
 4783 25fa 01       		.byte	0x1
 4784 25fb 00       		.uleb128 0
 4785 25fc 5F583836 		.ascii "_X86_ 1\0"
 4785      5F203100 
 4786 2604 01       		.byte	0x1
 4787 2605 00       		.uleb128 0
 4788 2606 5F5F7374 		.ascii "__stdcall __attribute__((__stdcall__))\0"
 4788      6463616C 
 4788      6C205F5F 
 4788      61747472 
 4788      69627574 
 4789 262d 01       		.byte	0x1
 4790 262e 00       		.uleb128 0
 4791 262f 5F5F6661 		.ascii "__fastcall __attribute__((__fastcall__))\0"
 4791      73746361 
 4791      6C6C205F 
 4791      5F617474 
 4791      72696275 
 4792 2658 01       		.byte	0x1
 4793 2659 00       		.uleb128 0
 4794 265a 5F5F7468 		.ascii "__thiscall __attribute__((__thiscall__))\0"
 4794      69736361 
 4794      6C6C205F 
 4794      5F617474 
 4794      72696275 
 4795 2683 01       		.byte	0x1
 4796 2684 00       		.uleb128 0
 4797 2685 5F5F6364 		.ascii "__cdecl __attribute__((__cdecl__))\0"
 4797      65636C20 
 4797      5F5F6174 
 4797      74726962 
GAS LISTING C:\Users\PRESID~1\AppData\Local\Temp\ccDe376t.s 			page 127


 4797      7574655F 
 4798 26a8 01       		.byte	0x1
 4799 26a9 00       		.uleb128 0
 4800 26aa 5F5F4758 		.ascii "__GXX_MERGED_TYPEINFO_NAMES 0\0"
 4800      585F4D45 
 4800      52474544 
 4800      5F545950 
 4800      45494E46 
 4801 26c8 01       		.byte	0x1
 4802 26c9 00       		.uleb128 0
 4803 26ca 5F5F4758 		.ascii "__GXX_TYPEINFO_EQUALITY_INLINE 0\0"
 4803      585F5459 
 4803      5045494E 
 4803      464F5F45 
 4803      5155414C 
 4804 26eb 01       		.byte	0x1
 4805 26ec 00       		.uleb128 0
 4806 26ed 5F5F4D53 		.ascii "__MSVCRT__ 1\0"
 4806      56435254 
 4806      5F5F2031 
 4806      00
 4807 26fa 01       		.byte	0x1
 4808 26fb 00       		.uleb128 0
 4809 26fc 5F5F4D49 		.ascii "__MINGW32__ 1\0"
 4809      4E475733 
 4809      325F5F20 
 4809      3100
 4810 270a 01       		.byte	0x1
 4811 270b 00       		.uleb128 0
 4812 270c 5F57494E 		.ascii "_WIN32 1\0"
 4812      33322031 
 4812      00
 4813 2715 01       		.byte	0x1
 4814 2716 00       		.uleb128 0
 4815 2717 5F5F5749 		.ascii "__WIN32 1\0"
 4815      4E333220 
 4815      3100
 4816 2721 01       		.byte	0x1
 4817 2722 00       		.uleb128 0
 4818 2723 5F5F5749 		.ascii "__WIN32__ 1\0"
 4818      4E33325F 
 4818      5F203100 
 4819 272f 01       		.byte	0x1
 4820 2730 00       		.uleb128 0
 4821 2731 5F5F5749 		.ascii "__WINNT 1\0"
 4821      4E4E5420 
 4821      3100
 4822 273b 01       		.byte	0x1
 4823 273c 00       		.uleb128 0
 4824 273d 5F5F5749 		.ascii "__WINNT__ 1\0"
 4824      4E4E545F 
 4824      5F203100 
 4825 2749 01       		.byte	0x1
 4826 274a 00       		.uleb128 0
 4827 274b 5F494E54 		.ascii "_INTEGRAL_MAX_BITS 64\0"
 4827      45475241 
 4827      4C5F4D41 
GAS LISTING C:\Users\PRESID~1\AppData\Local\Temp\ccDe376t.s 			page 128


 4827      585F4249 
 4827      54532036 
 4828 2761 01       		.byte	0x1
 4829 2762 00       		.uleb128 0
 4830 2763 5F5F6465 		.ascii "__declspec(x) __attribute__((x))\0"
 4830      636C7370 
 4830      65632878 
 4830      29205F5F 
 4830      61747472 
 4831 2784 01       		.byte	0x1
 4832 2785 00       		.uleb128 0
 4833 2786 5F5F4445 		.ascii "__DECIMAL_BID_FORMAT__ 1\0"
 4833      43494D41 
 4833      4C5F4249 
 4833      445F464F 
 4833      524D4154 
 4834 279f 01       		.byte	0x1
 4835 27a0 00       		.uleb128 0
 4836 27a1 4346475F 		.ascii "CFG_PROCESSOR 3\0"
 4836      50524F43 
 4836      4553534F 
 4836      52203300 
 4837 27b1 03       		.byte	0x3
 4838 27b2 00       		.uleb128 0
 4839 27b3 01       		.uleb128 0x1
 4840              		.file 9 "C:/Users/president/Desktop/sbx/input/src/os_base/os_firstinc.h"
 4841 27b4 03       		.byte	0x3
 4842 27b5 01       		.uleb128 0x1
 4843 27b6 09       		.uleb128 0x9
 4844 27b7 01       		.byte	0x1
 4845 27b8 02       		.uleb128 0x2
 4846 27b9 5F4F535F 		.ascii "_OS_FIRSTINC_H_ \0"
 4846      46495253 
 4846      54494E43 
 4846      5F485F20 
 4846      00
 4847              		.file 10 "c:/users/president/desktop/sbx/input/src/os_config.h"
 4848 27ca 03       		.byte	0x3
 4849 27cb 04       		.uleb128 0x4
 4850 27cc 0A       		.uleb128 0xa
 4851 27cd 01       		.byte	0x1
 4852 27ce 02       		.uleb128 0x2
 4853 27cf 5F4F535F 		.ascii "_OS_CONFIG_H_ \0"
 4853      434F4E46 
 4853      49475F48 
 4853      5F2000
 4854 27de 01       		.byte	0x1
 4855 27df 05       		.uleb128 0x5
 4856 27e0 494E5445 		.ascii "INTEGER_LLP64_IL32P64 1u\0"
 4856      4745525F 
 4856      4C4C5036 
 4856      345F494C 
 4856      33325036 
 4857 27f9 01       		.byte	0x1
 4858 27fa 06       		.uleb128 0x6
 4859 27fb 494E5445 		.ascii "INTEGER_LP64_I32LP64 2u\0"
 4859      4745525F 
GAS LISTING C:\Users\PRESID~1\AppData\Local\Temp\ccDe376t.s 			page 129


 4859      4C503634 
 4859      5F493332 
 4859      4C503634 
 4860 2813 01       		.byte	0x1
 4861 2814 07       		.uleb128 0x7
 4862 2815 494E5445 		.ascii "INTEGER_ILP64 3u\0"
 4862      4745525F 
 4862      494C5036 
 4862      34203375 
 4862      00
 4863 2826 01       		.byte	0x1
 4864 2827 08       		.uleb128 0x8
 4865 2828 494E5445 		.ascii "INTEGER_SILP64 4u\0"
 4865      4745525F 
 4865      53494C50 
 4865      36342034 
 4865      7500
 4866 283a 01       		.byte	0x1
 4867 283b 09       		.uleb128 0x9
 4868 283c 494E5445 		.ascii "INTEGER_MODEL INTEGER_LLP64_IL32P64\0"
 4868      4745525F 
 4868      4D4F4445 
 4868      4C20494E 
 4868      54454745 
 4869 2860 01       		.byte	0x1
 4870 2861 0C       		.uleb128 0xc
 4871 2862 4350505F 		.ascii "CPP_VERSION_NONE 0u\0"
 4871      56455253 
 4871      494F4E5F 
 4871      4E4F4E45 
 4871      20307500 
 4872 2876 01       		.byte	0x1
 4873 2877 0D       		.uleb128 0xd
 4874 2878 4350505F 		.ascii "CPP_VERSION_1998 1u\0"
 4874      56455253 
 4874      494F4E5F 
 4874      31393938 
 4874      20317500 
 4875 288c 01       		.byte	0x1
 4876 288d 0E       		.uleb128 0xe
 4877 288e 4350505F 		.ascii "CPP_VERSION_2003 2u\0"
 4877      56455253 
 4877      494F4E5F 
 4877      32303033 
 4877      20327500 
 4878 28a2 01       		.byte	0x1
 4879 28a3 0F       		.uleb128 0xf
 4880 28a4 4350505F 		.ascii "CPP_VERSION_2007 3u\0"
 4880      56455253 
 4880      494F4E5F 
 4880      32303037 
 4880      20337500 
 4881 28b8 01       		.byte	0x1
 4882 28b9 10       		.uleb128 0x10
 4883 28ba 4350505F 		.ascii "CPP_VERSION_2011 4u\0"
 4883      56455253 
 4883      494F4E5F 
GAS LISTING C:\Users\PRESID~1\AppData\Local\Temp\ccDe376t.s 			page 130


 4883      32303131 
 4883      20347500 
 4884 28ce 01       		.byte	0x1
 4885 28cf 11       		.uleb128 0x11
 4886 28d0 49534F5F 		.ascii "ISO_CPP_VERSION CPP_VERSION_1998\0"
 4886      4350505F 
 4886      56455253 
 4886      494F4E20 
 4886      4350505F 
 4887 28f1 01       		.byte	0x1
 4888 28f2 14       		.uleb128 0x14
 4889 28f3 4249475F 		.ascii "BIG_INT_SIZE 16u\0"
 4889      494E545F 
 4889      53495A45 
 4889      20313675 
 4889      00
 4890 2904 01       		.byte	0x1
 4891 2905 17       		.uleb128 0x17
 4892 2906 4E525F4F 		.ascii "NR_OF_CORES 1u\0"
 4892      465F434F 
 4892      52455320 
 4892      317500
 4893 2915 01       		.byte	0x1
 4894 2916 1B       		.uleb128 0x1b
 4895 2917 4D43555F 		.ascii "MCU_CLOCK_IN_HZ ((uint32)168000000u)\0"
 4895      434C4F43 
 4895      4B5F494E 
 4895      5F485A20 
 4895      28287569 
 4896 293c 01       		.byte	0x1
 4897 293d 1D       		.uleb128 0x1d
 4898 293e 44594E41 		.ascii "DYNAMIC_MEMORY_USED FALSE\0"
 4898      4D49435F 
 4898      4D454D4F 
 4898      52595F55 
 4898      53454420 
 4899 2958 01       		.byte	0x1
 4900 2959 1E       		.uleb128 0x1e
 4901 295a 4C4F4F50 		.ascii "LOOPTIME_IN_USEC ((uint32)10000u)\0"
 4901      54494D45 
 4901      5F494E5F 
 4901      55534543 
 4901      20282875 
 4902 297c 01       		.byte	0x1
 4903 297d 21       		.uleb128 0x21
 4904 297e 48454150 		.ascii "HEAP_SIZE 10000u\0"
 4904      5F53495A 
 4904      45203130 
 4904      30303075 
 4904      00
 4905 298f 01       		.byte	0x1
 4906 2990 22       		.uleb128 0x22
 4907 2991 4D494E5F 		.ascii "MIN_BLOCK_SIZE_HEAP 8u\0"
 4907      424C4F43 
 4907      4B5F5349 
 4907      5A455F48 
 4907      45415020 
GAS LISTING C:\Users\PRESID~1\AppData\Local\Temp\ccDe376t.s 			page 131


 4908 29a8 01       		.byte	0x1
 4909 29a9 23       		.uleb128 0x23
 4910 29aa 48454150 		.ascii "HEAP_OFFSET_FOR_SIZE 0u\0"
 4910      5F4F4646 
 4910      5345545F 
 4910      464F525F 
 4910      53495A45 
 4911 29c2 01       		.byte	0x1
 4912 29c3 24       		.uleb128 0x24
 4913 29c4 48454150 		.ascii "HEAP_OFFSET_FOR_USED_SIZE 4u\0"
 4913      5F4F4646 
 4913      5345545F 
 4913      464F525F 
 4913      55534544 
 4914 29e1 01       		.byte	0x1
 4915 29e2 25       		.uleb128 0x25
 4916 29e3 48454150 		.ascii "HEAP_OFFSET_FOR_CHUNK 8u\0"
 4916      5F4F4646 
 4916      5345545F 
 4916      464F525F 
 4916      4348554E 
 4917 29fc 01       		.byte	0x1
 4918 29fd 28       		.uleb128 0x28
 4919 29fe 4F535F4D 		.ascii "OS_MAIN_STACK_SIZE 0x400u\0"
 4919      41494E5F 
 4919      53544143 
 4919      4B5F5349 
 4919      5A452030 
 4920 2a18 01       		.byte	0x1
 4921 2a19 29       		.uleb128 0x29
 4922 2a1a 4F535F50 		.ascii "OS_PROCESS_STACK_TASK1_SIZE 0x200u\0"
 4922      524F4345 
 4922      53535F53 
 4922      5441434B 
 4922      5F544153 
 4923 2a3d 01       		.byte	0x1
 4924 2a3e 2A       		.uleb128 0x2a
 4925 2a3f 4F535F50 		.ascii "OS_PROCESS_STACK_TASK2_SIZE 0x200u\0"
 4925      524F4345 
 4925      53535F53 
 4925      5441434B 
 4925      5F544153 
 4926 2a62 01       		.byte	0x1
 4927 2a63 2B       		.uleb128 0x2b
 4928 2a64 4F535F50 		.ascii "OS_PROCESS_STACK_TASK3_SIZE 0x200u\0"
 4928      524F4345 
 4928      53535F53 
 4928      5441434B 
 4928      5F544153 
 4929 2a87 01       		.byte	0x1
 4930 2a88 2C       		.uleb128 0x2c
 4931 2a89 4F535F50 		.ascii "OS_PROCESS_STACK_TASK4_SIZE 0x200u\0"
 4931      524F4345 
 4931      53535F53 
 4931      5441434B 
 4931      5F544153 
 4932 2aac 04       		.byte	0x4
GAS LISTING C:\Users\PRESID~1\AppData\Local\Temp\ccDe376t.s 			page 132


 4933 2aad 03       		.byte	0x3
 4934 2aae 05       		.uleb128 0x5
 4935 2aaf 02       		.uleb128 0x2
 4936 2ab0 01       		.byte	0x1
 4937 2ab1 02       		.uleb128 0x2
 4938 2ab2 5F4F535F 		.ascii "_OS_BASE_TYPES_H_ \0"
 4938      42415345 
 4938      5F545950 
 4938      45535F48 
 4938      5F2000
 4939 2ac5 04       		.byte	0x4
 4940 2ac6 03       		.byte	0x3
 4941 2ac7 06       		.uleb128 0x6
 4942 2ac8 03       		.uleb128 0x3
 4943 2ac9 01       		.byte	0x1
 4944 2aca 02       		.uleb128 0x2
 4945 2acb 5F4F535F 		.ascii "_OS_COMMON_H_ \0"
 4945      434F4D4D 
 4945      4F4E5F48 
 4945      5F2000
 4946 2ada 01       		.byte	0x1
 4947 2adb 06       		.uleb128 0x6
 4948 2adc 46414C53 		.ascii "FALSE 0u\0"
 4948      45203075 
 4948      00
 4949 2ae5 01       		.byte	0x1
 4950 2ae6 07       		.uleb128 0x7
 4951 2ae7 54525545 		.ascii "TRUE 1u\0"
 4951      20317500 
 4952 2aef 01       		.byte	0x1
 4953 2af0 08       		.uleb128 0x8
 4954 2af1 46616C73 		.ascii "False FALSE\0"
 4954      65204641 
 4954      4C534500 
 4955 2afd 01       		.byte	0x1
 4956 2afe 09       		.uleb128 0x9
 4957 2aff 54727565 		.ascii "True TRUE\0"
 4957      20545255 
 4957      4500
 4958 2b09 01       		.byte	0x1
 4959 2b0a 0A       		.uleb128 0xa
 4960 2b0b 41434345 		.ascii "ACCEPTED 1u\0"
 4960      50544544 
 4960      20317500 
 4961 2b17 01       		.byte	0x1
 4962 2b18 0B       		.uleb128 0xb
 4963 2b19 52454A45 		.ascii "REJECTED 0u\0"
 4963      43544544 
 4963      20307500 
 4964 2b25 01       		.byte	0x1
 4965 2b26 0C       		.uleb128 0xc
 4966 2b27 4C4F4341 		.ascii "LOCAL static\0"
 4966      4C207374 
 4966      61746963 
 4966      00
 4967 2b34 01       		.byte	0x1
 4968 2b35 0D       		.uleb128 0xd
GAS LISTING C:\Users\PRESID~1\AppData\Local\Temp\ccDe376t.s 			page 133


 4969 2b36 4C4F4341 		.ascii "LOCAL_INLINE static __inline__\0"
 4969      4C5F494E 
 4969      4C494E45 
 4969      20737461 
 4969      74696320 
 4970 2b55 01       		.byte	0x1
 4971 2b56 0E       		.uleb128 0xe
 4972 2b57 474C4F42 		.ascii "GLOBAL_INLINE __inline__\0"
 4972      414C5F49 
 4972      4E4C494E 
 4972      45205F5F 
 4972      696E6C69 
 4973 2b70 01       		.byte	0x1
 4974 2b71 0F       		.uleb128 0xf
 4975 2b72 52454645 		.ascii "REFERENCE_UNUSED_PARAMETER(x) ((x) = (x))\0"
 4975      52454E43 
 4975      455F554E 
 4975      55534544 
 4975      5F504152 
 4976 2b9c 01       		.byte	0x1
 4977 2b9d 10       		.uleb128 0x10
 4978 2b9e 4E554C4C 		.ascii "NULL ((void*)0)\0"
 4978      20282876 
 4978      6F69642A 
 4978      29302900 
 4979 2bae 01       		.byte	0x1
 4980 2baf 13       		.uleb128 0x13
 4981 2bb0 4D43555F 		.ascii "MCU_X86 3\0"
 4981      58383620 
 4981      3300
 4982 2bba 01       		.byte	0x1
 4983 2bbb 14       		.uleb128 0x14
 4984 2bbc 4D43555F 		.ascii "MCU_CORTEX_M4 4\0"
 4984      434F5254 
 4984      45585F4D 
 4984      34203400 
 4985 2bcc 01       		.byte	0x1
 4986 2bcd 17       		.uleb128 0x17
 4987 2bce 4457545F 		.ascii "DWT_CTRL ((volatile uint32*)0xE0001000u)\0"
 4987      4354524C 
 4987      20282876 
 4987      6F6C6174 
 4987      696C6520 
 4988 2bf7 01       		.byte	0x1
 4989 2bf8 18       		.uleb128 0x18
 4990 2bf9 4457545F 		.ascii "DWT_CYCCNT ((volatile uint32*)0xE0001004u)\0"
 4990      43594343 
 4990      4E542028 
 4990      28766F6C 
 4990      6174696C 
 4991 2c24 01       		.byte	0x1
 4992 2c25 19       		.uleb128 0x19
 4993 2c26 4457545F 		.ascii "DWT_LAR ((volatile uint32*)0xE0001FB0u)\0"
 4993      4C415220 
 4993      2828766F 
 4993      6C617469 
 4993      6C652075 
GAS LISTING C:\Users\PRESID~1\AppData\Local\Temp\ccDe376t.s 			page 134


 4994 2c4e 01       		.byte	0x1
 4995 2c4f 1A       		.uleb128 0x1a
 4996 2c50 5343425F 		.ascii "SCB_DEMCR ((volatile uint32*)0xE000EDFCu)\0"
 4996      44454D43 
 4996      52202828 
 4996      766F6C61 
 4996      74696C65 
 4997 2c7a 01       		.byte	0x1
 4998 2c7b 1D       		.uleb128 0x1d
 4999 2c7c 44495341 		.ascii "DISABLE_INTERRUPTS() \0"
 4999      424C455F 
 4999      494E5445 
 4999      52525550 
 4999      54532829 
 5000 2c92 01       		.byte	0x1
 5001 2c93 1E       		.uleb128 0x1e
 5002 2c94 454E4142 		.ascii "ENABLE_INTERRUPTS() \0"
 5002      4C455F49 
 5002      4E544552 
 5002      52555054 
 5002      53282920 
 5003 2ca9 01       		.byte	0x1
 5004 2caa 1F       		.uleb128 0x1f
 5005 2cab 50524956 		.ascii "PRIVILIGE_LEVEL_SAVE_CURRENT() \0"
 5005      494C4947 
 5005      455F4C45 
 5005      56454C5F 
 5005      53415645 
 5006 2ccb 01       		.byte	0x1
 5007 2ccc 20       		.uleb128 0x20
 5008 2ccd 50524956 		.ascii "PRIVILIGE_LEVEL_ENTER_KERNEL_MODE() \0"
 5008      494C4947 
 5008      455F4C45 
 5008      56454C5F 
 5008      454E5445 
 5009 2cf2 01       		.byte	0x1
 5010 2cf3 21       		.uleb128 0x21
 5011 2cf4 50524956 		.ascii "PRIVILIGE_LEVEL_RESTORE_SAVED() \0"
 5011      494C4947 
 5011      455F4C45 
 5011      56454C5F 
 5011      52455354 
 5012 2d15 01       		.byte	0x1
 5013 2d16 22       		.uleb128 0x22
 5014 2d17 48414C54 		.ascii "HALT_MCU() \0"
 5014      5F4D4355 
 5014      28292000 
 5015 2d23 01       		.byte	0x1
 5016 2d24 42       		.uleb128 0x42
 5017 2d25 414D4F55 		.ascii "AMOUNT_SW_BUG_FUNCTIONS 22\0"
 5017      4E545F53 
 5017      575F4255 
 5017      475F4655 
 5017      4E435449 
 5018 2d40 04       		.byte	0x4
 5019              		.file 11 "c:/users/president/desktop/sbx/input/src/os_sim/lld_global.h"
 5020 2d41 03       		.byte	0x3
GAS LISTING C:\Users\PRESID~1\AppData\Local\Temp\ccDe376t.s 			page 135


 5021 2d42 09       		.uleb128 0x9
 5022 2d43 0B       		.uleb128 0xb
 5023 2d44 01       		.byte	0x1
 5024 2d45 02       		.uleb128 0x2
 5025 2d46 5F4C4C44 		.ascii "_LLD_GLOBAL_H_ \0"
 5025      5F474C4F 
 5025      42414C5F 
 5025      485F2000 
 5026 2d56 03       		.byte	0x3
 5027 2d57 04       		.uleb128 0x4
 5028 2d58 04       		.uleb128 0x4
 5029 2d59 01       		.byte	0x1
 5030 2d5a 02       		.uleb128 0x2
 5031 2d5b 5F4C4C44 		.ascii "_LLD_CORE_H_ \0"
 5031      5F434F52 
 5031      455F485F 
 5031      2000
 5032              		.file 12 "c:/users/president/desktop/sbx/input/src/os_base/os_firstinc.h"
 5033 2d69 03       		.byte	0x3
 5034 2d6a 03       		.uleb128 0x3
 5035 2d6b 0C       		.uleb128 0xc
 5036 2d6c 04       		.byte	0x4
 5037 2d6d 04       		.byte	0x4
 5038              		.file 13 "c:/users/president/desktop/sbx/input/src/os_sim/lld_interrupt.h"
 5039 2d6e 03       		.byte	0x3
 5040 2d6f 05       		.uleb128 0x5
 5041 2d70 0D       		.uleb128 0xd
 5042 2d71 01       		.byte	0x1
 5043 2d72 02       		.uleb128 0x2
 5044 2d73 5F4C4C44 		.ascii "_LLD_INTERRUPT_H_ \0"
 5044      5F494E54 
 5044      45525255 
 5044      50545F48 
 5044      5F2000
 5045 2d86 01       		.byte	0x1
 5046 2d87 05       		.uleb128 0x5
 5047 2d88 4F535F49 		.ascii "OS_INTERRUPT_SWI_1 asm(\"swi 1\")\0"
 5047      4E544552 
 5047      52555054 
 5047      5F535749 
 5047      5F312061 
 5048 2da8 01       		.byte	0x1
 5049 2da9 06       		.uleb128 0x6
 5050 2daa 4F535F49 		.ascii "OS_INTERRUPT_SWI_2 asm(\"swi 2\")\0"
 5050      4E544552 
 5050      52555054 
 5050      5F535749 
 5050      5F322061 
 5051 2dca 01       		.byte	0x1
 5052 2dcb 07       		.uleb128 0x7
 5053 2dcc 4F535F49 		.ascii "OS_INTERRUPT_SWI_3 asm(\"swi 3\")\0"
 5053      4E544552 
 5053      52555054 
 5053      5F535749 
 5053      5F332061 
 5054 2dec 01       		.byte	0x1
 5055 2ded 08       		.uleb128 0x8
GAS LISTING C:\Users\PRESID~1\AppData\Local\Temp\ccDe376t.s 			page 136


 5056 2dee 4F535F49 		.ascii "OS_INTERRUPT_SWI_4 asm(\"swi 4\")\0"
 5056      4E544552 
 5056      52555054 
 5056      5F535749 
 5056      5F342061 
 5057 2e0e 01       		.byte	0x1
 5058 2e0f 09       		.uleb128 0x9
 5059 2e10 4F535F49 		.ascii "OS_INTERRUPT_SWI_5 asm(\"swi 5\")\0"
 5059      4E544552 
 5059      52555054 
 5059      5F535749 
 5059      5F352061 
 5060 2e30 04       		.byte	0x4
 5061              		.file 14 "c:/users/president/desktop/sbx/input/src/os_sim/lld_mmu.h"
 5062 2e31 03       		.byte	0x3
 5063 2e32 06       		.uleb128 0x6
 5064 2e33 0E       		.uleb128 0xe
 5065 2e34 01       		.byte	0x1
 5066 2e35 02       		.uleb128 0x2
 5067 2e36 5F4C4C44 		.ascii "_LLD_MMU_H_ \0"
 5067      5F4D4D55 
 5067      5F485F20 
 5067      00
 5068 2e43 04       		.byte	0x4
 5069              		.file 15 "c:/users/president/desktop/sbx/input/src/os_sim/lld_timer.h"
 5070 2e44 03       		.byte	0x3
 5071 2e45 07       		.uleb128 0x7
 5072 2e46 0F       		.uleb128 0xf
 5073 2e47 01       		.byte	0x1
 5074 2e48 02       		.uleb128 0x2
 5075 2e49 5F4C4C44 		.ascii "_LLD_TIMER_H_ \0"
 5075      5F54494D 
 5075      45525F48 
 5075      5F2000
 5076 2e58 04       		.byte	0x4
 5077              		.file 16 "c:/users/president/desktop/sbx/input/src/os_sim/lld_power.h"
 5078 2e59 03       		.byte	0x3
 5079 2e5a 08       		.uleb128 0x8
 5080 2e5b 10       		.uleb128 0x10
 5081 2e5c 01       		.byte	0x1
 5082 2e5d 02       		.uleb128 0x2
 5083 2e5e 5F4C4C44 		.ascii "_LLD_POWER_H_ \0"
 5083      5F504F57 
 5083      45525F48 
 5083      5F2000
 5084 2e6d 04       		.byte	0x4
 5085              		.file 17 "c:/users/president/desktop/sbx/input/src/os_sim/lld_ram.h"
 5086 2e6e 03       		.byte	0x3
 5087 2e6f 09       		.uleb128 0x9
 5088 2e70 11       		.uleb128 0x11
 5089 2e71 01       		.byte	0x1
 5090 2e72 02       		.uleb128 0x2
 5091 2e73 5F4C4C44 		.ascii "_LLD_RAM_H_ \0"
 5091      5F52414D 
 5091      5F485F20 
 5091      00
 5092 2e80 04       		.byte	0x4
GAS LISTING C:\Users\PRESID~1\AppData\Local\Temp\ccDe376t.s 			page 137


 5093 2e81 03       		.byte	0x3
 5094 2e82 0A       		.uleb128 0xa
 5095 2e83 05       		.uleb128 0x5
 5096 2e84 01       		.byte	0x1
 5097 2e85 02       		.uleb128 0x2
 5098 2e86 5F4F535F 		.ascii "_OS_TASK_COMMON_H_ \0"
 5098      5441534B 
 5098      5F434F4D 
 5098      4D4F4E5F 
 5098      485F2000 
 5099 2e9a 03       		.byte	0x3
 5100 2e9b 03       		.uleb128 0x3
 5101 2e9c 09       		.uleb128 0x9
 5102 2e9d 04       		.byte	0x4
 5103              		.file 18 "C:/Users/president/Desktop/sbx/input/src/os_base/os_task_config.h"
 5104 2e9e 03       		.byte	0x3
 5105 2e9f 04       		.uleb128 0x4
 5106 2ea0 12       		.uleb128 0x12
 5107 2ea1 01       		.byte	0x1
 5108 2ea2 02       		.uleb128 0x2
 5109 2ea3 5F4F535F 		.ascii "_OS_TASK_CONFIG_H_ \0"
 5109      5441534B 
 5109      5F434F4E 
 5109      4649475F 
 5109      485F2000 
 5110 2eb7 01       		.byte	0x1
 5111 2eb8 05       		.uleb128 0x5
 5112 2eb9 5441534B 		.ascii "TASK_MIN_TIME (1e0)\0"
 5112      5F4D494E 
 5112      5F54494D 
 5112      45202831 
 5112      65302900 
 5113 2ecd 01       		.byte	0x1
 5114 2ece 06       		.uleb128 0x6
 5115 2ecf 4E554D42 		.ascii "NUMBER_OF_TASKS 10u\0"
 5115      45525F4F 
 5115      465F5441 
 5115      534B5320 
 5115      31307500 
 5116 2ee3 01       		.byte	0x1
 5117 2ee4 07       		.uleb128 0x7
 5118 2ee5 4D41585F 		.ascii "MAX_RUN_QUEUE_SIZE (NUMBER_OF_TASKS)\0"
 5118      52554E5F 
 5118      51554555 
 5118      455F5349 
 5118      5A452028 
 5119 2f0a 01       		.byte	0x1
 5120 2f0b 08       		.uleb128 0x8
 5121 2f0c 4D41585F 		.ascii "MAX_RUN_PQUEUE_SIZE MAX_RUN_QUEUE_SIZE\0"
 5121      52554E5F 
 5121      50515545 
 5121      55455F53 
 5121      495A4520 
 5122 2f33 01       		.byte	0x1
 5123 2f34 0A       		.uleb128 0xa
 5124 2f35 5441534B 		.ascii "TASK0_STACK_SIZE 2000u\0"
 5124      305F5354 
GAS LISTING C:\Users\PRESID~1\AppData\Local\Temp\ccDe376t.s 			page 138


 5124      41434B5F 
 5124      53495A45 
 5124      20323030 
 5125 2f4c 01       		.byte	0x1
 5126 2f4d 0B       		.uleb128 0xb
 5127 2f4e 5441534B 		.ascii "TASK1_STACK_SIZE 2000u\0"
 5127      315F5354 
 5127      41434B5F 
 5127      53495A45 
 5127      20323030 
 5128 2f65 01       		.byte	0x1
 5129 2f66 0C       		.uleb128 0xc
 5130 2f67 5441534B 		.ascii "TASK2_STACK_SIZE 2000u\0"
 5130      325F5354 
 5130      41434B5F 
 5130      53495A45 
 5130      20323030 
 5131 2f7e 01       		.byte	0x1
 5132 2f7f 0D       		.uleb128 0xd
 5133 2f80 5441534B 		.ascii "TASK3_STACK_SIZE 2000u\0"
 5133      335F5354 
 5133      41434B5F 
 5133      53495A45 
 5133      20323030 
 5134 2f97 01       		.byte	0x1
 5135 2f98 0E       		.uleb128 0xe
 5136 2f99 5441534B 		.ascii "TASK4_STACK_SIZE 2000u\0"
 5136      345F5354 
 5136      41434B5F 
 5136      53495A45 
 5136      20323030 
 5137 2fb0 01       		.byte	0x1
 5138 2fb1 12       		.uleb128 0x12
 5139 2fb2 4D535F50 		.ascii "MS_PER_SEC 1000u\0"
 5139      45525F53 
 5139      45432031 
 5139      30303075 
 5139      00
 5140 2fc3 01       		.byte	0x1
 5141 2fc4 13       		.uleb128 0x13
 5142 2fc5 5553455F 		.ascii "USE_STATIC_CREATED_TASKS TRUE\0"
 5142      53544154 
 5142      49435F43 
 5142      52454154 
 5142      45445F54 
 5143 2fe3 04       		.byte	0x4
 5144              		.file 19 "C:/Users/president/Desktop/sbx/input/src/os_base/os_init_task_system.h"
 5145 2fe4 03       		.byte	0x3
 5146 2fe5 05       		.uleb128 0x5
 5147 2fe6 13       		.uleb128 0x13
 5148 2fe7 01       		.byte	0x1
 5149 2fe8 02       		.uleb128 0x2
 5150 2fe9 5F4F535F 		.ascii "_OS_INIT_TASK_SYSTEM_H_ \0"
 5150      494E4954 
 5150      5F544153 
 5150      4B5F5359 
 5150      5354454D 
GAS LISTING C:\Users\PRESID~1\AppData\Local\Temp\ccDe376t.s 			page 139


 5151 3002 04       		.byte	0x4
 5152 3003 01       		.byte	0x1
 5153 3004 5F       		.uleb128 0x5f
 5154 3005 4F535F53 		.ascii "OS_SAVE_TASK_PTR(task_ptr,task_name) (TASK_PTR[(task_name)] = (task_ptr))\0"
 5154      4156455F 
 5154      5441534B 
 5154      5F505452 
 5154      28746173 
 5155 304f 01       		.byte	0x1
 5156 3050 60       		.uleb128 0x60
 5157 3051 4F535F47 		.ascii "OS_GET_TASK_PTR(task_name) ((task_t*) TASK_PTR[(task_name)])\0"
 5157      45545F54 
 5157      41534B5F 
 5157      50545228 
 5157      7461736B 
 5158 308e 04       		.byte	0x4
 5159 308f 04       		.byte	0x4
 5160              		.file 20 "c:/users/president/desktop/sbx/input/src/os_user_code/led.h"
 5161 3090 03       		.byte	0x3
 5162 3091 0D       		.uleb128 0xd
 5163 3092 14       		.uleb128 0x14
 5164 3093 01       		.byte	0x1
 5165 3094 02       		.uleb128 0x2
 5166 3095 5F4C4544 		.ascii "_LED_H_ \0"
 5166      5F485F20 
 5166      00
 5167 309e 04       		.byte	0x4
 5168 309f 03       		.byte	0x3
 5169 30a0 0F       		.uleb128 0xf
 5170 30a1 07       		.uleb128 0x7
 5171 30a2 01       		.byte	0x1
 5172 30a3 02       		.uleb128 0x2
 5173 30a4 5F4F535F 		.ascii "_OS_RAM_H_ \0"
 5173      52414D5F 
 5173      485F2000 
 5174              		.file 21 "C:/Users/president/Desktop/sbx/input/src/os_base/os_stack.h"
 5175 30b0 03       		.byte	0x3
 5176 30b1 05       		.uleb128 0x5
 5177 30b2 15       		.uleb128 0x15
 5178 30b3 01       		.byte	0x1
 5179 30b4 02       		.uleb128 0x2
 5180 30b5 5F4F535F 		.ascii "_OS_STACK_H_ \0"
 5180      53544143 
 5180      4B5F485F 
 5180      2000
 5181 30c3 04       		.byte	0x4
 5182              		.file 22 "C:/Users/president/Desktop/sbx/input/src/os_base/os_heap.h"
 5183 30c4 03       		.byte	0x3
 5184 30c5 06       		.uleb128 0x6
 5185 30c6 16       		.uleb128 0x16
 5186 30c7 01       		.byte	0x1
 5187 30c8 02       		.uleb128 0x2
 5188 30c9 5F4F535F 		.ascii "_OS_HEAP_H_ \0"
 5188      48454150 
 5188      5F485F20 
 5188      00
 5189 30d6 04       		.byte	0x4
GAS LISTING C:\Users\PRESID~1\AppData\Local\Temp\ccDe376t.s 			page 140


 5190 30d7 03       		.byte	0x3
 5191 30d8 07       		.uleb128 0x7
 5192 30d9 06       		.uleb128 0x6
 5193 30da 01       		.byte	0x1
 5194 30db 02       		.uleb128 0x2
 5195 30dc 5F4F535F 		.ascii "_OS_MAIN_H_ \0"
 5195      4D41494E 
 5195      5F485F20 
 5195      00
 5196 30e9 04       		.byte	0x4
 5197              		.file 23 "C:/Users/president/Desktop/sbx/input/src/os_base/os_task_common.h"
 5198 30ea 03       		.byte	0x3
 5199 30eb 09       		.uleb128 0x9
 5200 30ec 17       		.uleb128 0x17
 5201 30ed 04       		.byte	0x4
 5202 30ee 04       		.byte	0x4
 5203 30ef 03       		.byte	0x3
 5204 30f0 10       		.uleb128 0x10
 5205 30f1 08       		.uleb128 0x8
 5206 30f2 01       		.byte	0x1
 5207 30f3 02       		.uleb128 0x2
 5208 30f4 5F4F535F 		.ascii "_OS_RAM_STACK_H_ \0"
 5208      52414D5F 
 5208      53544143 
 5208      4B5F485F 
 5208      2000
 5209 3106 04       		.byte	0x4
 5210 3107 04       		.byte	0x4
 5211 3108 04       		.byte	0x4
 5212 3109 00       		.byte	0
 5213              		.section	.debug_line,"dr"
 5214              	Ldebug_line0:
 5215 0000 E0060000 		.section	.debug_str,"dr"
 5215      03004202 
 5215      00000101 
 5215      FB0E0D00 
 5215      01010101 
 5216              	LASF3:
 5217 0000 4F706572 		.ascii "Operand1\0"
 5217      616E6431 
 5217      00
 5218              	LASF4:
 5219 0009 4F706572 		.ascii "Operand2\0"
 5219      616E6432 
 5219      00
 5220              	LASF0:
 5221 0012 6578655F 		.ascii "exe_time\0"
 5221      74696D65 
 5221      00
 5222              	LASF2:
 5223 001b 72696768 		.ascii "rightOperand\0"
 5223      744F7065 
 5223      72616E64 
 5223      00
 5224              	LASF1:
 5225 0028 6C656674 		.ascii "leftOperand\0"
 5225      4F706572 
GAS LISTING C:\Users\PRESID~1\AppData\Local\Temp\ccDe376t.s 			page 141


 5225      616E6400 
 5226              		.ident	"GCC: (MinGW.org GCC-8.2.0-3) 8.2.0"
GAS LISTING C:\Users\PRESID~1\AppData\Local\Temp\ccDe376t.s 			page 142


DEFINED SYMBOLS
                            *ABS*:00000000 os_common.c
C:\Users\PRESID~1\AppData\Local\Temp\ccDe376t.s:6      .text:00000000 _OS_SET_SW_BUG
C:\Users\PRESID~1\AppData\Local\Temp\ccDe376t.s:30     .text:00000013 _OS_GET_CURRENT_TIME
C:\Users\PRESID~1\AppData\Local\Temp\ccDe376t.s:57     .text:00000034 _OS_UpdateCurrentTime
C:\Users\PRESID~1\AppData\Local\Temp\ccDe376t.s:87     .text:00000063 _OS_READ_AND_RESET_CURRENT_TIME
C:\Users\PRESID~1\AppData\Local\Temp\ccDe376t.s:112    .text:0000007f _INT_DIV
C:\Users\PRESID~1\AppData\Local\Temp\ccDe376t.s:256    .text:000001e2 _INT_MUL
C:\Users\PRESID~1\AppData\Local\Temp\ccDe376t.s:354    .text:0000029c _INT_ADD
C:\Users\PRESID~1\AppData\Local\Temp\ccDe376t.s:418    .text:000002fd _INT_SUB
C:\Users\PRESID~1\AppData\Local\Temp\ccDe376t.s:535    .text:000003dc _IS_LESS
C:\Users\PRESID~1\AppData\Local\Temp\ccDe376t.s:604    .text:0000043a _IS_LESS_OR_EQUAL
C:\Users\PRESID~1\AppData\Local\Temp\ccDe376t.s:649    .text:0000047a _IS_EQUAL
C:\Users\PRESID~1\AppData\Local\Temp\ccDe376t.s:702    .text:000004ba _IS_GREATER
C:\Users\PRESID~1\AppData\Local\Temp\ccDe376t.s:771    .text:00000518 _IS_GREATER_OR_EQUAL
C:\Users\PRESID~1\AppData\Local\Temp\ccDe376t.s:816    .text:00000558 _ASSIGN
C:\Users\PRESID~1\AppData\Local\Temp\ccDe376t.s:859    .text:00000588 _ASSIGN_NULL
C:\Users\PRESID~1\AppData\Local\Temp\ccDe376t.s:897    .text:000005af _ASSIGN_UINT32
C:\Users\PRESID~1\AppData\Local\Temp\ccDe376t.s:965    .text:0000060b _SHIFT_LEFT
C:\Users\PRESID~1\AppData\Local\Temp\ccDe376t.s:1079   .text:000006ea _get_uint32_of_4_uint8
C:\Users\PRESID~1\AppData\Local\Temp\ccDe376t.s:1142   .text:0000073a _set_4_uint8_to_uint32

UNDEFINED SYMBOLS
_OS_SW_BUG
_LOCAL_SYSTEM_TIME
