GAS LISTING C:\Users\PRESID~1\AppData\Local\Temp\ccvbOxmE.s 			page 1


   1              		.file	"os_common.c"
   2              		.text
   3              	Ltext0:
   4              		.globl	_OS_SET_SW_BUG
   6              	_OS_SET_SW_BUG:
   7              	LFB0:
   8              		.file 1 "E:/NeuOrga/Programmieren/c_cpp/github_os/input/src/os_base/os_common.c"
   1:E:/NeuOrga/Programmieren/c_cpp/github_os/input/src/os_base\os_common.c **** #include "os_firstinc.h"
   2:E:/NeuOrga/Programmieren/c_cpp/github_os/input/src/os_base\os_common.c **** #include "os_task_common.h"
   3:E:/NeuOrga/Programmieren/c_cpp/github_os/input/src/os_base\os_common.c **** 
   4:E:/NeuOrga/Programmieren/c_cpp/github_os/input/src/os_base\os_common.c **** void OS_SET_SW_BUG(os_sw_bugs_t bug_nr, os_sw_bugs_function_t task_func_nr)
   5:E:/NeuOrga/Programmieren/c_cpp/github_os/input/src/os_base\os_common.c **** {
   9              		.loc 1 5 0
  10              		.cfi_startproc
  11 0000 55       		pushl	%ebp
  12              		.cfi_def_cfa_offset 8
  13              		.cfi_offset 5, -8
  14 0001 89E5     		movl	%esp, %ebp
  15              		.cfi_def_cfa_register 5
   6:E:/NeuOrga/Programmieren/c_cpp/github_os/input/src/os_base\os_common.c ****    OS_SW_BUG[task_func_nr] = bug_nr;
  16              		.loc 1 6 0
  17 0003 8B450C   		movl	12(%ebp), %eax
  18 0006 8B5508   		movl	8(%ebp), %edx
  19 0009 89148500 		movl	%edx, _OS_SW_BUG(,%eax,4)
  19      000000
   7:E:/NeuOrga/Programmieren/c_cpp/github_os/input/src/os_base\os_common.c **** }
  20              		.loc 1 7 0
  21 0010 5D       		popl	%ebp
  22              		.cfi_restore 5
  23              		.cfi_def_cfa 4, 4
  24 0011 C3       		ret
  25              		.cfi_endproc
  26              	LFE0:
  27              		.globl	_OS_GET_CURRENT_TIME
  29              	_OS_GET_CURRENT_TIME:
  30              	LFB1:
   8:E:/NeuOrga/Programmieren/c_cpp/github_os/input/src/os_base\os_common.c **** 
   9:E:/NeuOrga/Programmieren/c_cpp/github_os/input/src/os_base\os_common.c **** 
  10:E:/NeuOrga/Programmieren/c_cpp/github_os/input/src/os_base\os_common.c **** 
  11:E:/NeuOrga/Programmieren/c_cpp/github_os/input/src/os_base\os_common.c **** void OS_GET_CURRENT_TIME(timebig_t* time)
  12:E:/NeuOrga/Programmieren/c_cpp/github_os/input/src/os_base\os_common.c **** {
  31              		.loc 1 12 0
  32              		.cfi_startproc
  33 0012 55       		pushl	%ebp
  34              		.cfi_def_cfa_offset 8
  35              		.cfi_offset 5, -8
  36 0013 89E5     		movl	%esp, %ebp
  37              		.cfi_def_cfa_register 5
  38 0015 83EC18   		subl	$24, %esp
  13:E:/NeuOrga/Programmieren/c_cpp/github_os/input/src/os_base\os_common.c ****    /* update the current time info */
  14:E:/NeuOrga/Programmieren/c_cpp/github_os/input/src/os_base\os_common.c ****    OS_UpdateCurrentTime();
  39              		.loc 1 14 0
  40 0018 E8150000 		call	_OS_UpdateCurrentTime
  40      00
  15:E:/NeuOrga/Programmieren/c_cpp/github_os/input/src/os_base\os_common.c ****    /* output the time to the caller */
  16:E:/NeuOrga/Programmieren/c_cpp/github_os/input/src/os_base\os_common.c ****    ASSIGN(time, &LOCAL_SYSTEM_TIME);
  41              		.loc 1 16 0
GAS LISTING C:\Users\PRESID~1\AppData\Local\Temp\ccvbOxmE.s 			page 2


  42 001d C7442404 		movl	$_LOCAL_SYSTEM_TIME, 4(%esp)
  42      00000000 
  43 0025 8B4508   		movl	8(%ebp), %eax
  44 0028 890424   		movl	%eax, (%esp)
  45 002b E8240500 		call	_ASSIGN
  45      00
  17:E:/NeuOrga/Programmieren/c_cpp/github_os/input/src/os_base\os_common.c **** 
  18:E:/NeuOrga/Programmieren/c_cpp/github_os/input/src/os_base\os_common.c **** }
  46              		.loc 1 18 0
  47 0030 C9       		leave
  48              		.cfi_restore 5
  49              		.cfi_def_cfa 4, 4
  50 0031 C3       		ret
  51              		.cfi_endproc
  52              	LFE1:
  53              		.globl	_OS_UpdateCurrentTime
  55              	_OS_UpdateCurrentTime:
  56              	LFB2:
  19:E:/NeuOrga/Programmieren/c_cpp/github_os/input/src/os_base\os_common.c **** void OS_UpdateCurrentTime(void)
  20:E:/NeuOrga/Programmieren/c_cpp/github_os/input/src/os_base\os_common.c **** {
  57              		.loc 1 20 0
  58              		.cfi_startproc
  59 0032 55       		pushl	%ebp
  60              		.cfi_def_cfa_offset 8
  61              		.cfi_offset 5, -8
  62 0033 89E5     		movl	%esp, %ebp
  63              		.cfi_def_cfa_register 5
  64 0035 83EC28   		subl	$40, %esp
  21:E:/NeuOrga/Programmieren/c_cpp/github_os/input/src/os_base\os_common.c ****    /* the only free running counter on STM32F4 is the DWT counter DWT_CYCCNT
  22:E:/NeuOrga/Programmieren/c_cpp/github_os/input/src/os_base\os_common.c ****    The counter will overflow every 25sec -> provide function OS_ClearCurrentTime to reset the value
  23:E:/NeuOrga/Programmieren/c_cpp/github_os/input/src/os_base\os_common.c ****    */
  24:E:/NeuOrga/Programmieren/c_cpp/github_os/input/src/os_base\os_common.c ****    timebig_t tmp_time;
  25:E:/NeuOrga/Programmieren/c_cpp/github_os/input/src/os_base\os_common.c ****    OS_READ_AND_RESET_CURRENT_TIME(&tmp_time);
  65              		.loc 1 25 0
  66 0038 8D45E8   		leal	-24(%ebp), %eax
  67 003b 890424   		movl	%eax, (%esp)
  68 003e E81D0000 		call	_OS_READ_AND_RESET_CURRENT_TIME
  68      00
  26:E:/NeuOrga/Programmieren/c_cpp/github_os/input/src/os_base\os_common.c **** 
  27:E:/NeuOrga/Programmieren/c_cpp/github_os/input/src/os_base\os_common.c ****    /* increment the global time value by the new increment received by the hardware register */
  28:E:/NeuOrga/Programmieren/c_cpp/github_os/input/src/os_base\os_common.c ****    INT_ADD(&LOCAL_SYSTEM_TIME, &LOCAL_SYSTEM_TIME, &tmp_time);
  69              		.loc 1 28 0
  70 0043 8D45E8   		leal	-24(%ebp), %eax
  71 0046 89442408 		movl	%eax, 8(%esp)
  72 004a C7442404 		movl	$_LOCAL_SYSTEM_TIME, 4(%esp)
  72      00000000 
  73 0052 C7042400 		movl	$_LOCAL_SYSTEM_TIME, (%esp)
  73      000000
  74 0059 E83C0200 		call	_INT_ADD
  74      00
  29:E:/NeuOrga/Programmieren/c_cpp/github_os/input/src/os_base\os_common.c **** }
  75              		.loc 1 29 0
  76 005e C9       		leave
  77              		.cfi_restore 5
  78              		.cfi_def_cfa 4, 4
  79 005f C3       		ret
  80              		.cfi_endproc
GAS LISTING C:\Users\PRESID~1\AppData\Local\Temp\ccvbOxmE.s 			page 3


  81              	LFE2:
  82              		.globl	_OS_READ_AND_RESET_CURRENT_TIME
  84              	_OS_READ_AND_RESET_CURRENT_TIME:
  85              	LFB3:
  30:E:/NeuOrga/Programmieren/c_cpp/github_os/input/src/os_base\os_common.c **** 
  31:E:/NeuOrga/Programmieren/c_cpp/github_os/input/src/os_base\os_common.c **** void OS_READ_AND_RESET_CURRENT_TIME(timebig_t* timebig)
  32:E:/NeuOrga/Programmieren/c_cpp/github_os/input/src/os_base\os_common.c **** {
  86              		.loc 1 32 0
  87              		.cfi_startproc
  88 0060 55       		pushl	%ebp
  89              		.cfi_def_cfa_offset 8
  90              		.cfi_offset 5, -8
  91 0061 89E5     		movl	%esp, %ebp
  92              		.cfi_def_cfa_register 5
  93 0063 83EC18   		subl	$24, %esp
  33:E:/NeuOrga/Programmieren/c_cpp/github_os/input/src/os_base\os_common.c **** #if(CFG_PROCESSOR == MCU_CORTEX_M4)
  34:E:/NeuOrga/Programmieren/c_cpp/github_os/input/src/os_base\os_common.c ****    volatile uint32 time = 0u;
  35:E:/NeuOrga/Programmieren/c_cpp/github_os/input/src/os_base\os_common.c **** 
  36:E:/NeuOrga/Programmieren/c_cpp/github_os/input/src/os_base\os_common.c ****    /* unlock the CoreSight (CM4) */
  37:E:/NeuOrga/Programmieren/c_cpp/github_os/input/src/os_base\os_common.c ****    *DWT_LAR = 0xC5ACCE55u;
  38:E:/NeuOrga/Programmieren/c_cpp/github_os/input/src/os_base\os_common.c **** 
  39:E:/NeuOrga/Programmieren/c_cpp/github_os/input/src/os_base\os_common.c ****    /* enable trace/debug block TRCENA */
  40:E:/NeuOrga/Programmieren/c_cpp/github_os/input/src/os_base\os_common.c ****    *SCB_DEMCR |= 0x01000000u;
  41:E:/NeuOrga/Programmieren/c_cpp/github_os/input/src/os_base\os_common.c **** 
  42:E:/NeuOrga/Programmieren/c_cpp/github_os/input/src/os_base\os_common.c ****    /* save the current delta time */
  43:E:/NeuOrga/Programmieren/c_cpp/github_os/input/src/os_base\os_common.c ****    time = *DWT_CYCCNT;
  44:E:/NeuOrga/Programmieren/c_cpp/github_os/input/src/os_base\os_common.c **** 
  45:E:/NeuOrga/Programmieren/c_cpp/github_os/input/src/os_base\os_common.c ****    /* reset the counter to 0 cycle */
  46:E:/NeuOrga/Programmieren/c_cpp/github_os/input/src/os_base\os_common.c ****    *DWT_CYCCNT = 0u;
  47:E:/NeuOrga/Programmieren/c_cpp/github_os/input/src/os_base\os_common.c **** 
  48:E:/NeuOrga/Programmieren/c_cpp/github_os/input/src/os_base\os_common.c ****    /* enable the counter */
  49:E:/NeuOrga/Programmieren/c_cpp/github_os/input/src/os_base\os_common.c ****    *DWT_CTRL |= 1u;
  50:E:/NeuOrga/Programmieren/c_cpp/github_os/input/src/os_base\os_common.c **** 
  51:E:/NeuOrga/Programmieren/c_cpp/github_os/input/src/os_base\os_common.c ****    /* store the read time at the pointer pointer buffer */
  52:E:/NeuOrga/Programmieren/c_cpp/github_os/input/src/os_base\os_common.c ****    ASSIGN_UINT32(timebig, time);
  53:E:/NeuOrga/Programmieren/c_cpp/github_os/input/src/os_base\os_common.c **** #else
  54:E:/NeuOrga/Programmieren/c_cpp/github_os/input/src/os_base\os_common.c ****    ASSIGN_UINT32(timebig, 5u);/* assume a fixed step .... */
  94              		.loc 1 54 0
  95 0066 C7442404 		movl	$5, 4(%esp)
  95      05000000 
  96 006e 8B4508   		movl	8(%ebp), %eax
  97 0071 890424   		movl	%eax, (%esp)
  98 0074 E8300500 		call	_ASSIGN_UINT32
  98      00
  55:E:/NeuOrga/Programmieren/c_cpp/github_os/input/src/os_base\os_common.c **** #endif
  56:E:/NeuOrga/Programmieren/c_cpp/github_os/input/src/os_base\os_common.c **** }
  99              		.loc 1 56 0
 100 0079 C9       		leave
 101              		.cfi_restore 5
 102              		.cfi_def_cfa 4, 4
 103 007a C3       		ret
 104              		.cfi_endproc
 105              	LFE3:
 106              		.globl	_INT_DIV
 108              	_INT_DIV:
 109              	LFB4:
  57:E:/NeuOrga/Programmieren/c_cpp/github_os/input/src/os_base\os_common.c **** 
GAS LISTING C:\Users\PRESID~1\AppData\Local\Temp\ccvbOxmE.s 			page 4


  58:E:/NeuOrga/Programmieren/c_cpp/github_os/input/src/os_base\os_common.c **** void INT_DIV(big_int* Quotient, const big_int* Dividend, const big_int* Divisor)
  59:E:/NeuOrga/Programmieren/c_cpp/github_os/input/src/os_base\os_common.c **** {
 110              		.loc 1 59 0
 111              		.cfi_startproc
 112 007b 55       		pushl	%ebp
 113              		.cfi_def_cfa_offset 8
 114              		.cfi_offset 5, -8
 115 007c 89E5     		movl	%esp, %ebp
 116              		.cfi_def_cfa_register 5
 117 007e 83EC78   		subl	$120, %esp
  60:E:/NeuOrga/Programmieren/c_cpp/github_os/input/src/os_base\os_common.c ****    /*Tag: Big Int*/
  61:E:/NeuOrga/Programmieren/c_cpp/github_os/input/src/os_base\os_common.c ****    /*
  62:E:/NeuOrga/Programmieren/c_cpp/github_os/input/src/os_base\os_common.c ****    example: 
  63:E:/NeuOrga/Programmieren/c_cpp/github_os/input/src/os_base\os_common.c ****    Dividend 0x0456
  64:E:/NeuOrga/Programmieren/c_cpp/github_os/input/src/os_base\os_common.c ****    Divisor  0x32
  65:E:/NeuOrga/Programmieren/c_cpp/github_os/input/src/os_base\os_common.c ****    Quotient 0x0456 / 0x32
  66:E:/NeuOrga/Programmieren/c_cpp/github_os/input/src/os_base\os_common.c ****    
  67:E:/NeuOrga/Programmieren/c_cpp/github_os/input/src/os_base\os_common.c ****    0x0456 : 0x32 = 0x16 R 0x9
  68:E:/NeuOrga/Programmieren/c_cpp/github_os/input/src/os_base\os_common.c ****   -0x032|
  69:E:/NeuOrga/Programmieren/c_cpp/github_os/input/src/os_base\os_common.c ****    -----|
  70:E:/NeuOrga/Programmieren/c_cpp/github_os/input/src/os_base\os_common.c ****     0x136
  71:E:/NeuOrga/Programmieren/c_cpp/github_os/input/src/os_base\os_common.c ****    -0x12C
  72:E:/NeuOrga/Programmieren/c_cpp/github_os/input/src/os_base\os_common.c ****     -----|
  73:E:/NeuOrga/Programmieren/c_cpp/github_os/input/src/os_base\os_common.c ****         9
  74:E:/NeuOrga/Programmieren/c_cpp/github_os/input/src/os_base\os_common.c ****    */
  75:E:/NeuOrga/Programmieren/c_cpp/github_os/input/src/os_base\os_common.c ****    uint32 nibble_shift_left_amount = 0u;
 118              		.loc 1 75 0
 119 0081 C745F400 		movl	$0, -12(%ebp)
 119      000000
  76:E:/NeuOrga/Programmieren/c_cpp/github_os/input/src/os_base\os_common.c ****    big_int local_zero;
  77:E:/NeuOrga/Programmieren/c_cpp/github_os/input/src/os_base\os_common.c ****    big_int tmp_Dividend, tmp_Divisor;
  78:E:/NeuOrga/Programmieren/c_cpp/github_os/input/src/os_base\os_common.c ****    big_int rest;
  79:E:/NeuOrga/Programmieren/c_cpp/github_os/input/src/os_base\os_common.c ****    uint32  local_cnt = 0;
 120              		.loc 1 79 0
 121 0088 C745F000 		movl	$0, -16(%ebp)
 121      000000
  80:E:/NeuOrga/Programmieren/c_cpp/github_os/input/src/os_base\os_common.c ****    uint32 one_shifted_nibble; 
  81:E:/NeuOrga/Programmieren/c_cpp/github_os/input/src/os_base\os_common.c ****    uint32 u32_teilergebnis;
  82:E:/NeuOrga/Programmieren/c_cpp/github_os/input/src/os_base\os_common.c ****    big_int teilergebnis;
  83:E:/NeuOrga/Programmieren/c_cpp/github_os/input/src/os_base\os_common.c ****    
  84:E:/NeuOrga/Programmieren/c_cpp/github_os/input/src/os_base\os_common.c ****    ASSIGN_NULL(&local_zero);
 122              		.loc 1 84 0
 123 008f 8D45D8   		leal	-40(%ebp), %eax
 124 0092 890424   		movl	%eax, (%esp)
 125 0095 E8E90400 		call	_ASSIGN_NULL
 125      00
  85:E:/NeuOrga/Programmieren/c_cpp/github_os/input/src/os_base\os_common.c ****    ASSIGN(&tmp_Dividend, Dividend);
 126              		.loc 1 85 0
 127 009a 8B450C   		movl	12(%ebp), %eax
 128 009d 89442404 		movl	%eax, 4(%esp)
 129 00a1 8D45C8   		leal	-56(%ebp), %eax
 130 00a4 890424   		movl	%eax, (%esp)
 131 00a7 E8A80400 		call	_ASSIGN
 131      00
  86:E:/NeuOrga/Programmieren/c_cpp/github_os/input/src/os_base\os_common.c ****    ASSIGN(&tmp_Divisor, Divisor);
 132              		.loc 1 86 0
 133 00ac 8B4510   		movl	16(%ebp), %eax
GAS LISTING C:\Users\PRESID~1\AppData\Local\Temp\ccvbOxmE.s 			page 5


 134 00af 89442404 		movl	%eax, 4(%esp)
 135 00b3 8D45B8   		leal	-72(%ebp), %eax
 136 00b6 890424   		movl	%eax, (%esp)
 137 00b9 E8960400 		call	_ASSIGN
 137      00
  87:E:/NeuOrga/Programmieren/c_cpp/github_os/input/src/os_base\os_common.c ****    ASSIGN(&rest, Dividend);
 138              		.loc 1 87 0
 139 00be 8B450C   		movl	12(%ebp), %eax
 140 00c1 89442404 		movl	%eax, 4(%esp)
 141 00c5 8D45A8   		leal	-88(%ebp), %eax
 142 00c8 890424   		movl	%eax, (%esp)
 143 00cb E8840400 		call	_ASSIGN
 143      00
  88:E:/NeuOrga/Programmieren/c_cpp/github_os/input/src/os_base\os_common.c ****    
  89:E:/NeuOrga/Programmieren/c_cpp/github_os/input/src/os_base\os_common.c ****    /* Case 1: Divisor == 0 */
  90:E:/NeuOrga/Programmieren/c_cpp/github_os/input/src/os_base\os_common.c ****    if(IS_EQUAL(&tmp_Divisor,&local_zero))
 144              		.loc 1 90 0
 145 00d0 8D45D8   		leal	-40(%ebp), %eax
 146 00d3 89442404 		movl	%eax, 4(%esp)
 147 00d7 8D45B8   		leal	-72(%ebp), %eax
 148 00da 890424   		movl	%eax, (%esp)
 149 00dd E8940300 		call	_IS_EQUAL
 149      00
 150 00e2 84C0     		testb	%al, %al
 151 00e4 7419     		je	L6
  91:E:/NeuOrga/Programmieren/c_cpp/github_os/input/src/os_base\os_common.c ****    {
  92:E:/NeuOrga/Programmieren/c_cpp/github_os/input/src/os_base\os_common.c ****       /* Error "N.a.N." */     
  93:E:/NeuOrga/Programmieren/c_cpp/github_os/input/src/os_base\os_common.c ****       OS_SET_SW_BUG(E_OS_BUG_DIVISION_BY_ZERO, E_FUNC_INTDIV);
 152              		.loc 1 93 0
 153 00e6 C7442404 		movl	$20, 4(%esp)
 153      14000000 
 154 00ee C704240C 		movl	$12, (%esp)
 154      000000
 155 00f5 E806FFFF 		call	_OS_SET_SW_BUG
 155      FF
 156 00fa E9E00000 		jmp	L5
 156      00
 157              	L6:
  94:E:/NeuOrga/Programmieren/c_cpp/github_os/input/src/os_base\os_common.c ****       return;      
  95:E:/NeuOrga/Programmieren/c_cpp/github_os/input/src/os_base\os_common.c ****    }      
  96:E:/NeuOrga/Programmieren/c_cpp/github_os/input/src/os_base\os_common.c ****    while(IS_GREATER_OR_EQUAL(&rest, &tmp_Dividend))
 158              		.loc 1 96 0
 159 00ff E9AF0000 		jmp	L8
 159      00
 160              	L13:
  97:E:/NeuOrga/Programmieren/c_cpp/github_os/input/src/os_base\os_common.c ****    {
  98:E:/NeuOrga/Programmieren/c_cpp/github_os/input/src/os_base\os_common.c ****       /* 
  99:E:/NeuOrga/Programmieren/c_cpp/github_os/input/src/os_base\os_common.c ****       Step 1: Divisor um so viele nibble shiften nach links bis der Divisor größer wie der Divide
 100:E:/NeuOrga/Programmieren/c_cpp/github_os/input/src/os_base\os_common.c ****       Step 2: Die Zahl aus Step 1 um 1 verringern = nibble_shift_left_amount
 101:E:/NeuOrga/Programmieren/c_cpp/github_os/input/src/os_base\os_common.c ****       Step 3: Dividend - n*(Divisor << nibble_shift_left_amount ) = Rest (e.g. 0x136)
 102:E:/NeuOrga/Programmieren/c_cpp/github_os/input/src/os_base\os_common.c ****               Dabei n solange vergrößern bis "Rest" kleiner wie Divisor ist  
 103:E:/NeuOrga/Programmieren/c_cpp/github_os/input/src/os_base\os_common.c ****       Step 4: Teilergebnis = n*(1<<nibble_shift_left_amount)           
 104:E:/NeuOrga/Programmieren/c_cpp/github_os/input/src/os_base\os_common.c ****       Step 5: Teilergebnisse addieren.
 105:E:/NeuOrga/Programmieren/c_cpp/github_os/input/src/os_base\os_common.c ****       */
 106:E:/NeuOrga/Programmieren/c_cpp/github_os/input/src/os_base\os_common.c ****       /* Step 1: Divisor um so viele nibble shiften nach links bis der Divisor größer wie der Div
 107:E:/NeuOrga/Programmieren/c_cpp/github_os/input/src/os_base\os_common.c ****       while(IS_LESS_OR_EQUAL(&tmp_Divisor, &tmp_Dividend))
 161              		.loc 1 107 0
GAS LISTING C:\Users\PRESID~1\AppData\Local\Temp\ccvbOxmE.s 			page 6


 162 0104 EB16     		jmp	L9
 163              	L10:
 108:E:/NeuOrga/Programmieren/c_cpp/github_os/input/src/os_base\os_common.c ****       {      
 109:E:/NeuOrga/Programmieren/c_cpp/github_os/input/src/os_base\os_common.c ****          SHIFT_LEFT(&tmp_Divisor, 4u);
 164              		.loc 1 109 0
 165 0106 C7442404 		movl	$4, 4(%esp)
 165      04000000 
 166 010e 8D45B8   		leal	-72(%ebp), %eax
 167 0111 890424   		movl	%eax, (%esp)
 168 0114 E8F20400 		call	_SHIFT_LEFT
 168      00
 110:E:/NeuOrga/Programmieren/c_cpp/github_os/input/src/os_base\os_common.c ****          nibble_shift_left_amount++;
 169              		.loc 1 110 0
 170 0119 FF45F4   		incl	-12(%ebp)
 171              	L9:
 107:E:/NeuOrga/Programmieren/c_cpp/github_os/input/src/os_base\os_common.c ****       {      
 172              		.loc 1 107 0
 173 011c 8D45C8   		leal	-56(%ebp), %eax
 174 011f 89442404 		movl	%eax, 4(%esp)
 175 0123 8D45B8   		leal	-72(%ebp), %eax
 176 0126 890424   		movl	%eax, (%esp)
 177 0129 E8080300 		call	_IS_LESS_OR_EQUAL
 177      00
 178 012e 84C0     		testb	%al, %al
 179 0130 75D4     		jne	L10
 111:E:/NeuOrga/Programmieren/c_cpp/github_os/input/src/os_base\os_common.c ****       }
 112:E:/NeuOrga/Programmieren/c_cpp/github_os/input/src/os_base\os_common.c ****       /* Divisor is already shifted at this point by nibble_shift_left_amount */
 113:E:/NeuOrga/Programmieren/c_cpp/github_os/input/src/os_base\os_common.c ****       /* Step 3: Dabei n = local_cnt solange vergrößern bis "Rest" kleiner wie Divisor ist */
 114:E:/NeuOrga/Programmieren/c_cpp/github_os/input/src/os_base\os_common.c ****       
 115:E:/NeuOrga/Programmieren/c_cpp/github_os/input/src/os_base\os_common.c ****       local_cnt = 0u;
 180              		.loc 1 115 0
 181 0132 C745F000 		movl	$0, -16(%ebp)
 181      000000
 116:E:/NeuOrga/Programmieren/c_cpp/github_os/input/src/os_base\os_common.c ****       while(IS_LESS_OR_EQUAL(&rest, &tmp_Divisor))
 182              		.loc 1 116 0
 183 0139 EB1C     		jmp	L11
 184              	L12:
 117:E:/NeuOrga/Programmieren/c_cpp/github_os/input/src/os_base\os_common.c ****       {
 118:E:/NeuOrga/Programmieren/c_cpp/github_os/input/src/os_base\os_common.c ****          INT_SUB(&rest,&tmp_Dividend,&tmp_Divisor);
 185              		.loc 1 118 0
 186 013b 8D45B8   		leal	-72(%ebp), %eax
 187 013e 89442408 		movl	%eax, 8(%esp)
 188 0142 8D45C8   		leal	-56(%ebp), %eax
 189 0145 89442404 		movl	%eax, 4(%esp)
 190 0149 8D45A8   		leal	-88(%ebp), %eax
 191 014c 890424   		movl	%eax, (%esp)
 192 014f E8A60100 		call	_INT_SUB
 192      00
 119:E:/NeuOrga/Programmieren/c_cpp/github_os/input/src/os_base\os_common.c ****          local_cnt++;      
 193              		.loc 1 119 0
 194 0154 FF45F0   		incl	-16(%ebp)
 195              	L11:
 116:E:/NeuOrga/Programmieren/c_cpp/github_os/input/src/os_base\os_common.c ****       while(IS_LESS_OR_EQUAL(&rest, &tmp_Divisor))
 196              		.loc 1 116 0
 197 0157 8D45B8   		leal	-72(%ebp), %eax
 198 015a 89442404 		movl	%eax, 4(%esp)
 199 015e 8D45A8   		leal	-88(%ebp), %eax
GAS LISTING C:\Users\PRESID~1\AppData\Local\Temp\ccvbOxmE.s 			page 7


 200 0161 890424   		movl	%eax, (%esp)
 201 0164 E8CD0200 		call	_IS_LESS_OR_EQUAL
 201      00
 202 0169 84C0     		testb	%al, %al
 203 016b 75CE     		jne	L12
 120:E:/NeuOrga/Programmieren/c_cpp/github_os/input/src/os_base\os_common.c ****       }
 121:E:/NeuOrga/Programmieren/c_cpp/github_os/input/src/os_base\os_common.c ****       /* Step 4: Teilergebnis = n*(1<<nibble_shift_left_amount)           */
 122:E:/NeuOrga/Programmieren/c_cpp/github_os/input/src/os_base\os_common.c ****       one_shifted_nibble = 1u<<nibble_shift_left_amount;
 204              		.loc 1 122 0
 205 016d 8B45F4   		movl	-12(%ebp), %eax
 206 0170 BA010000 		movl	$1, %edx
 206      00
 207 0175 88C1     		movb	%al, %cl
 208 0177 D3E2     		sall	%cl, %edx
 209 0179 89D0     		movl	%edx, %eax
 210 017b 8945EC   		movl	%eax, -20(%ebp)
 123:E:/NeuOrga/Programmieren/c_cpp/github_os/input/src/os_base\os_common.c ****       u32_teilergebnis = local_cnt * one_shifted_nibble;
 211              		.loc 1 123 0
 212 017e 8B45F0   		movl	-16(%ebp), %eax
 213 0181 0FAF45EC 		imull	-20(%ebp), %eax
 214 0185 8945E8   		movl	%eax, -24(%ebp)
 124:E:/NeuOrga/Programmieren/c_cpp/github_os/input/src/os_base\os_common.c **** 
 125:E:/NeuOrga/Programmieren/c_cpp/github_os/input/src/os_base\os_common.c ****       ASSIGN_UINT32(&teilergebnis,u32_teilergebnis);
 215              		.loc 1 125 0
 216 0188 8B45E8   		movl	-24(%ebp), %eax
 217 018b 89442404 		movl	%eax, 4(%esp)
 218 018f 8D4598   		leal	-104(%ebp), %eax
 219 0192 890424   		movl	%eax, (%esp)
 220 0195 E80F0400 		call	_ASSIGN_UINT32
 220      00
 126:E:/NeuOrga/Programmieren/c_cpp/github_os/input/src/os_base\os_common.c ****       
 127:E:/NeuOrga/Programmieren/c_cpp/github_os/input/src/os_base\os_common.c ****       /* Step 5: Teilergebnisse addieren.*/
 128:E:/NeuOrga/Programmieren/c_cpp/github_os/input/src/os_base\os_common.c ****       INT_ADD(&teilergebnis, &teilergebnis, &rest);
 221              		.loc 1 128 0
 222 019a 8D45A8   		leal	-88(%ebp), %eax
 223 019d 89442408 		movl	%eax, 8(%esp)
 224 01a1 8D4598   		leal	-104(%ebp), %eax
 225 01a4 89442404 		movl	%eax, 4(%esp)
 226 01a8 8D4598   		leal	-104(%ebp), %eax
 227 01ab 890424   		movl	%eax, (%esp)
 228 01ae E8E70000 		call	_INT_ADD
 228      00
 229              	L8:
  96:E:/NeuOrga/Programmieren/c_cpp/github_os/input/src/os_base\os_common.c ****    {
 230              		.loc 1 96 0
 231 01b3 8D45C8   		leal	-56(%ebp), %eax
 232 01b6 89442404 		movl	%eax, 4(%esp)
 233 01ba 8D45A8   		leal	-88(%ebp), %eax
 234 01bd 890424   		movl	%eax, (%esp)
 235 01c0 E84F0300 		call	_IS_GREATER_OR_EQUAL
 235      00
 236 01c5 84C0     		testb	%al, %al
 237 01c7 0F8537FF 		jne	L13
 237      FFFF
 129:E:/NeuOrga/Programmieren/c_cpp/github_os/input/src/os_base\os_common.c ****       
 130:E:/NeuOrga/Programmieren/c_cpp/github_os/input/src/os_base\os_common.c ****             
 131:E:/NeuOrga/Programmieren/c_cpp/github_os/input/src/os_base\os_common.c ****    }   
GAS LISTING C:\Users\PRESID~1\AppData\Local\Temp\ccvbOxmE.s 			page 8


 132:E:/NeuOrga/Programmieren/c_cpp/github_os/input/src/os_base\os_common.c ****    ASSIGN(Quotient, &teilergebnis);
 238              		.loc 1 132 0
 239 01cd 8D4598   		leal	-104(%ebp), %eax
 240 01d0 89442404 		movl	%eax, 4(%esp)
 241 01d4 8B4508   		movl	8(%ebp), %eax
 242 01d7 890424   		movl	%eax, (%esp)
 243 01da E8750300 		call	_ASSIGN
 243      00
 244              	L5:
 133:E:/NeuOrga/Programmieren/c_cpp/github_os/input/src/os_base\os_common.c **** }
 245              		.loc 1 133 0
 246 01df C9       		leave
 247              		.cfi_restore 5
 248              		.cfi_def_cfa 4, 4
 249 01e0 C3       		ret
 250              		.cfi_endproc
 251              	LFE4:
 252              		.globl	_INT_MUL
 254              	_INT_MUL:
 255              	LFB5:
 134:E:/NeuOrga/Programmieren/c_cpp/github_os/input/src/os_base\os_common.c **** 
 135:E:/NeuOrga/Programmieren/c_cpp/github_os/input/src/os_base\os_common.c **** void INT_MUL(big_int* Produkt, const big_int* Faktor1, const big_int* Faktor2)
 136:E:/NeuOrga/Programmieren/c_cpp/github_os/input/src/os_base\os_common.c **** {
 256              		.loc 1 136 0
 257              		.cfi_startproc
 258 01e1 55       		pushl	%ebp
 259              		.cfi_def_cfa_offset 8
 260              		.cfi_offset 5, -8
 261 01e2 89E5     		movl	%esp, %ebp
 262              		.cfi_def_cfa_register 5
 263 01e4 83EC48   		subl	$72, %esp
 137:E:/NeuOrga/Programmieren/c_cpp/github_os/input/src/os_base\os_common.c ****    /*Tag: Big Int*/
 138:E:/NeuOrga/Programmieren/c_cpp/github_os/input/src/os_base\os_common.c ****    /*
 139:E:/NeuOrga/Programmieren/c_cpp/github_os/input/src/os_base\os_common.c ****    example: 
 140:E:/NeuOrga/Programmieren/c_cpp/github_os/input/src/os_base\os_common.c ****    Faktor1 0x0456
 141:E:/NeuOrga/Programmieren/c_cpp/github_os/input/src/os_base\os_common.c ****    Faktor2 0x0321
 142:E:/NeuOrga/Programmieren/c_cpp/github_os/input/src/os_base\os_common.c ****    Produkt 0x0456 * 0x0321
 143:E:/NeuOrga/Programmieren/c_cpp/github_os/input/src/os_base\os_common.c ****    
 144:E:/NeuOrga/Programmieren/c_cpp/github_os/input/src/os_base\os_common.c ****    
 145:E:/NeuOrga/Programmieren/c_cpp/github_os/input/src/os_base\os_common.c ****    */
 146:E:/NeuOrga/Programmieren/c_cpp/github_os/input/src/os_base\os_common.c ****    big_int result, local_tmp_bigInt;
 147:E:/NeuOrga/Programmieren/c_cpp/github_os/input/src/os_base\os_common.c ****    sint32 pos1, pos2;
 148:E:/NeuOrga/Programmieren/c_cpp/github_os/input/src/os_base\os_common.c ****    uint16 local_tmp16;
 149:E:/NeuOrga/Programmieren/c_cpp/github_os/input/src/os_base\os_common.c ****    
 150:E:/NeuOrga/Programmieren/c_cpp/github_os/input/src/os_base\os_common.c ****    ASSIGN_NULL(&local_tmp_bigInt);
 264              		.loc 1 150 0
 265 01e7 8D45CE   		leal	-50(%ebp), %eax
 266 01ea 890424   		movl	%eax, (%esp)
 267 01ed E8910300 		call	_ASSIGN_NULL
 267      00
 151:E:/NeuOrga/Programmieren/c_cpp/github_os/input/src/os_base\os_common.c ****    ASSIGN_NULL(&result);
 268              		.loc 1 151 0
 269 01f2 8D45DE   		leal	-34(%ebp), %eax
 270 01f5 890424   		movl	%eax, (%esp)
 271 01f8 E8860300 		call	_ASSIGN_NULL
 271      00
 152:E:/NeuOrga/Programmieren/c_cpp/github_os/input/src/os_base\os_common.c ****    
GAS LISTING C:\Users\PRESID~1\AppData\Local\Temp\ccvbOxmE.s 			page 9


 153:E:/NeuOrga/Programmieren/c_cpp/github_os/input/src/os_base\os_common.c ****    /* 
 154:E:/NeuOrga/Programmieren/c_cpp/github_os/input/src/os_base\os_common.c ****    0x0456 * 0x0321
 155:E:/NeuOrga/Programmieren/c_cpp/github_os/input/src/os_base\os_common.c ****    => 0x0400 * 0x0300 = 0x04 * 0x03 * 0x100*0x100     = 0xC0000
 156:E:/NeuOrga/Programmieren/c_cpp/github_os/input/src/os_base\os_common.c ****     + 0x0400 * 0x0021 = 0x04 * 0x21 * 0x100*0x1       = 0x8400 
 157:E:/NeuOrga/Programmieren/c_cpp/github_os/input/src/os_base\os_common.c ****     + 0x0056 * 0x0300 = 0x56 * 0x03 * 0x1  *0x100*0x1 = 0x10200
 158:E:/NeuOrga/Programmieren/c_cpp/github_os/input/src/os_base\os_common.c ****     + 0x0056 * 0x0021 = 0x56 * 0x21 * 0x1  *0x1  *0x1 = 0xB16
 159:E:/NeuOrga/Programmieren/c_cpp/github_os/input/src/os_base\os_common.c ****     ----------------------
 160:E:/NeuOrga/Programmieren/c_cpp/github_os/input/src/os_base\os_common.c ****     => Summe = 0xD9116
 161:E:/NeuOrga/Programmieren/c_cpp/github_os/input/src/os_base\os_common.c ****    
 162:E:/NeuOrga/Programmieren/c_cpp/github_os/input/src/os_base\os_common.c ****    Step 1: 
 163:E:/NeuOrga/Programmieren/c_cpp/github_os/input/src/os_base\os_common.c ****    Step 2: 
 164:E:/NeuOrga/Programmieren/c_cpp/github_os/input/src/os_base\os_common.c ****    Step 3: 
 165:E:/NeuOrga/Programmieren/c_cpp/github_os/input/src/os_base\os_common.c ****    Step 4: 
 166:E:/NeuOrga/Programmieren/c_cpp/github_os/input/src/os_base\os_common.c ****    Step 5: 
 167:E:/NeuOrga/Programmieren/c_cpp/github_os/input/src/os_base\os_common.c ****    */
 168:E:/NeuOrga/Programmieren/c_cpp/github_os/input/src/os_base\os_common.c ****    for(pos1 = BIG_INT_SIZE-1; pos1 >= 0; pos1--)
 272              		.loc 1 168 0
 273 01fd C745F40F 		movl	$15, -12(%ebp)
 273      000000
 274 0204 EB7A     		jmp	L15
 275              	L18:
 169:E:/NeuOrga/Programmieren/c_cpp/github_os/input/src/os_base\os_common.c ****    {
 170:E:/NeuOrga/Programmieren/c_cpp/github_os/input/src/os_base\os_common.c ****       for(pos2 = BIG_INT_SIZE-1; pos2 >= 0; pos2--)
 276              		.loc 1 170 0
 277 0206 C745F00F 		movl	$15, -16(%ebp)
 277      000000
 278 020d EB68     		jmp	L16
 279              	L17:
 171:E:/NeuOrga/Programmieren/c_cpp/github_os/input/src/os_base\os_common.c ****       {
 172:E:/NeuOrga/Programmieren/c_cpp/github_os/input/src/os_base\os_common.c ****          local_tmp16 = ((uint16) *((uint8*)Faktor1+(uint32)pos1)) * ((uint16) *((uint8*)Faktor2+(ui
 280              		.loc 1 172 0 discriminator 3
 281 020f 8B55F4   		movl	-12(%ebp), %edx
 282 0212 8B450C   		movl	12(%ebp), %eax
 283 0215 01D0     		addl	%edx, %eax
 284 0217 8A00     		movb	(%eax), %al
 285 0219 0FB6D0   		movzbl	%al, %edx
 286 021c 8B4DF0   		movl	-16(%ebp), %ecx
 287 021f 8B4510   		movl	16(%ebp), %eax
 288 0222 01C8     		addl	%ecx, %eax
 289 0224 8A00     		movb	(%eax), %al
 290 0226 0FB6C0   		movzbl	%al, %eax
 291 0229 660FAFC2 		imulw	%dx, %ax
 292 022d 668945EE 		movw	%ax, -18(%ebp)
 173:E:/NeuOrga/Programmieren/c_cpp/github_os/input/src/os_base\os_common.c ****          
 174:E:/NeuOrga/Programmieren/c_cpp/github_os/input/src/os_base\os_common.c ****          ASSIGN_UINT32(&local_tmp_bigInt, (uint32) local_tmp16);
 293              		.loc 1 174 0 discriminator 3
 294 0231 0FB745EE 		movzwl	-18(%ebp), %eax
 295 0235 89442404 		movl	%eax, 4(%esp)
 296 0239 8D45CE   		leal	-50(%ebp), %eax
 297 023c 890424   		movl	%eax, (%esp)
 298 023f E8650300 		call	_ASSIGN_UINT32
 298      00
 175:E:/NeuOrga/Programmieren/c_cpp/github_os/input/src/os_base\os_common.c ****          
 176:E:/NeuOrga/Programmieren/c_cpp/github_os/input/src/os_base\os_common.c ****          SHIFT_LEFT(&local_tmp_bigInt, pos1+pos2);
 299              		.loc 1 176 0 discriminator 3
 300 0244 8B55F4   		movl	-12(%ebp), %edx
 301 0247 8B45F0   		movl	-16(%ebp), %eax
GAS LISTING C:\Users\PRESID~1\AppData\Local\Temp\ccvbOxmE.s 			page 10


 302 024a 01D0     		addl	%edx, %eax
 303 024c 89442404 		movl	%eax, 4(%esp)
 304 0250 8D45CE   		leal	-50(%ebp), %eax
 305 0253 890424   		movl	%eax, (%esp)
 306 0256 E8B00300 		call	_SHIFT_LEFT
 306      00
 177:E:/NeuOrga/Programmieren/c_cpp/github_os/input/src/os_base\os_common.c ****          
 178:E:/NeuOrga/Programmieren/c_cpp/github_os/input/src/os_base\os_common.c ****          INT_ADD(&result, &result, &local_tmp_bigInt);
 307              		.loc 1 178 0 discriminator 3
 308 025b 8D45CE   		leal	-50(%ebp), %eax
 309 025e 89442408 		movl	%eax, 8(%esp)
 310 0262 8D45DE   		leal	-34(%ebp), %eax
 311 0265 89442404 		movl	%eax, 4(%esp)
 312 0269 8D45DE   		leal	-34(%ebp), %eax
 313 026c 890424   		movl	%eax, (%esp)
 314 026f E8260000 		call	_INT_ADD
 314      00
 170:E:/NeuOrga/Programmieren/c_cpp/github_os/input/src/os_base\os_common.c ****       {
 315              		.loc 1 170 0 discriminator 3
 316 0274 FF4DF0   		decl	-16(%ebp)
 317              	L16:
 170:E:/NeuOrga/Programmieren/c_cpp/github_os/input/src/os_base\os_common.c ****       {
 318              		.loc 1 170 0 is_stmt 0 discriminator 1
 319 0277 837DF000 		cmpl	$0, -16(%ebp)
 320 027b 7992     		jns	L17
 168:E:/NeuOrga/Programmieren/c_cpp/github_os/input/src/os_base\os_common.c ****    {
 321              		.loc 1 168 0 is_stmt 1 discriminator 2
 322 027d FF4DF4   		decl	-12(%ebp)
 323              	L15:
 168:E:/NeuOrga/Programmieren/c_cpp/github_os/input/src/os_base\os_common.c ****    {
 324              		.loc 1 168 0 is_stmt 0 discriminator 1
 325 0280 837DF400 		cmpl	$0, -12(%ebp)
 326 0284 7980     		jns	L18
 179:E:/NeuOrga/Programmieren/c_cpp/github_os/input/src/os_base\os_common.c ****       }
 180:E:/NeuOrga/Programmieren/c_cpp/github_os/input/src/os_base\os_common.c ****    }  
 181:E:/NeuOrga/Programmieren/c_cpp/github_os/input/src/os_base\os_common.c ****    ASSIGN(Produkt, &result);
 327              		.loc 1 181 0 is_stmt 1
 328 0286 8D45DE   		leal	-34(%ebp), %eax
 329 0289 89442404 		movl	%eax, 4(%esp)
 330 028d 8B4508   		movl	8(%ebp), %eax
 331 0290 890424   		movl	%eax, (%esp)
 332 0293 E8BC0200 		call	_ASSIGN
 332      00
 182:E:/NeuOrga/Programmieren/c_cpp/github_os/input/src/os_base\os_common.c **** }
 333              		.loc 1 182 0
 334 0298 C9       		leave
 335              		.cfi_restore 5
 336              		.cfi_def_cfa 4, 4
 337 0299 C3       		ret
 338              		.cfi_endproc
 339              	LFE5:
 340              		.globl	_INT_ADD
 342              	_INT_ADD:
 343              	LFB6:
 183:E:/NeuOrga/Programmieren/c_cpp/github_os/input/src/os_base\os_common.c **** 
 184:E:/NeuOrga/Programmieren/c_cpp/github_os/input/src/os_base\os_common.c **** void INT_ADD(big_int* Summe, const big_int* ErsterSummand, const big_int* ZweiterSummand)
 185:E:/NeuOrga/Programmieren/c_cpp/github_os/input/src/os_base\os_common.c **** {
GAS LISTING C:\Users\PRESID~1\AppData\Local\Temp\ccvbOxmE.s 			page 11


 344              		.loc 1 185 0
 345              		.cfi_startproc
 346 029a 55       		pushl	%ebp
 347              		.cfi_def_cfa_offset 8
 348              		.cfi_offset 5, -8
 349 029b 89E5     		movl	%esp, %ebp
 350              		.cfi_def_cfa_register 5
 351 029d 83EC10   		subl	$16, %esp
 186:E:/NeuOrga/Programmieren/c_cpp/github_os/input/src/os_base\os_common.c ****    sint8 pos;
 187:E:/NeuOrga/Programmieren/c_cpp/github_os/input/src/os_base\os_common.c ****    uint16 carry  = 0u;
 352              		.loc 1 187 0
 353 02a0 66C745FC 		movw	$0, -4(%ebp)
 353      0000
 188:E:/NeuOrga/Programmieren/c_cpp/github_os/input/src/os_base\os_common.c **** 
 189:E:/NeuOrga/Programmieren/c_cpp/github_os/input/src/os_base\os_common.c ****    for(pos = BIG_INT_SIZE-1; pos >= 0; pos--)
 354              		.loc 1 189 0
 355 02a6 C645FF0F 		movb	$15, -1(%ebp)
 356 02aa EB46     		jmp	L20
 357              	L21:
 358              	LBB2:
 190:E:/NeuOrga/Programmieren/c_cpp/github_os/input/src/os_base\os_common.c ****    {
 191:E:/NeuOrga/Programmieren/c_cpp/github_os/input/src/os_base\os_common.c ****       uint16 tmp_sum = (uint16)ErsterSummand->number[pos] +(uint16)ZweiterSummand->number[pos] + ca
 359              		.loc 1 191 0 discriminator 3
 360 02ac 0FBE45FF 		movsbl	-1(%ebp), %eax
 361 02b0 8B550C   		movl	12(%ebp), %edx
 362 02b3 8A0402   		movb	(%edx,%eax), %al
 363 02b6 0FB6D0   		movzbl	%al, %edx
 364 02b9 0FBE45FF 		movsbl	-1(%ebp), %eax
 365 02bd 8B4D10   		movl	16(%ebp), %ecx
 366 02c0 8A0401   		movb	(%ecx,%eax), %al
 367 02c3 0FB6C0   		movzbl	%al, %eax
 368 02c6 01C2     		addl	%eax, %edx
 369 02c8 8B45FC   		movl	-4(%ebp), %eax
 370 02cb 01D0     		addl	%edx, %eax
 371 02cd 668945FA 		movw	%ax, -6(%ebp)
 192:E:/NeuOrga/Programmieren/c_cpp/github_os/input/src/os_base\os_common.c ****       Summe->number[pos] = tmp_sum & 0xFFu;
 372              		.loc 1 192 0 discriminator 3
 373 02d1 0FBE55FF 		movsbl	-1(%ebp), %edx
 374 02d5 668B45FA 		movw	-6(%ebp), %ax
 375 02d9 88C1     		movb	%al, %cl
 376 02db 8B4508   		movl	8(%ebp), %eax
 377 02de 880C10   		movb	%cl, (%eax,%edx)
 193:E:/NeuOrga/Programmieren/c_cpp/github_os/input/src/os_base\os_common.c ****       carry = tmp_sum & 0xFF00u;
 378              		.loc 1 193 0 discriminator 3
 379 02e1 668B45FA 		movw	-6(%ebp), %ax
 380 02e5 B000     		movb	$0, %al
 381 02e7 668945FC 		movw	%ax, -4(%ebp)
 382              	LBE2:
 189:E:/NeuOrga/Programmieren/c_cpp/github_os/input/src/os_base\os_common.c ****    {
 383              		.loc 1 189 0 discriminator 3
 384 02eb 8A45FF   		movb	-1(%ebp), %al
 385 02ee 48       		decl	%eax
 386 02ef 8845FF   		movb	%al, -1(%ebp)
 387              	L20:
 189:E:/NeuOrga/Programmieren/c_cpp/github_os/input/src/os_base\os_common.c ****    {
 388              		.loc 1 189 0 is_stmt 0 discriminator 1
 389 02f2 807DFF00 		cmpb	$0, -1(%ebp)
GAS LISTING C:\Users\PRESID~1\AppData\Local\Temp\ccvbOxmE.s 			page 12


 390 02f6 79B4     		jns	L21
 194:E:/NeuOrga/Programmieren/c_cpp/github_os/input/src/os_base\os_common.c ****    }
 195:E:/NeuOrga/Programmieren/c_cpp/github_os/input/src/os_base\os_common.c **** }
 391              		.loc 1 195 0 is_stmt 1
 392 02f8 C9       		leave
 393              		.cfi_restore 5
 394              		.cfi_def_cfa 4, 4
 395 02f9 C3       		ret
 396              		.cfi_endproc
 397              	LFE6:
 398              		.globl	_INT_SUB
 400              	_INT_SUB:
 401              	LFB7:
 196:E:/NeuOrga/Programmieren/c_cpp/github_os/input/src/os_base\os_common.c **** void INT_SUB(big_int* Differenz, const big_int* Minuend, const big_int* Subtrahend)
 197:E:/NeuOrga/Programmieren/c_cpp/github_os/input/src/os_base\os_common.c **** {
 402              		.loc 1 197 0
 403              		.cfi_startproc
 404 02fa 55       		pushl	%ebp
 405              		.cfi_def_cfa_offset 8
 406              		.cfi_offset 5, -8
 407 02fb 89E5     		movl	%esp, %ebp
 408              		.cfi_def_cfa_register 5
 409 02fd 83EC10   		subl	$16, %esp
 198:E:/NeuOrga/Programmieren/c_cpp/github_os/input/src/os_base\os_common.c ****    sint8 pos;
 199:E:/NeuOrga/Programmieren/c_cpp/github_os/input/src/os_base\os_common.c ****    uint16 carry  = 0;
 410              		.loc 1 199 0
 411 0300 66C745FA 		movw	$0, -6(%ebp)
 411      0000
 200:E:/NeuOrga/Programmieren/c_cpp/github_os/input/src/os_base\os_common.c **** 
 201:E:/NeuOrga/Programmieren/c_cpp/github_os/input/src/os_base\os_common.c ****    for(pos = BIG_INT_SIZE-1; pos >= 0; pos--)
 412              		.loc 1 201 0
 413 0306 C645FF0F 		movb	$15, -1(%ebp)
 414 030a E9BD0000 		jmp	L23
 414      00
 415              	L26:
 416              	LBB3:
 202:E:/NeuOrga/Programmieren/c_cpp/github_os/input/src/os_base\os_common.c ****    {
 203:E:/NeuOrga/Programmieren/c_cpp/github_os/input/src/os_base\os_common.c ****       uint16 tmp_diff = 0u;
 417              		.loc 1 203 0
 418 030f 66C745FC 		movw	$0, -4(%ebp)
 418      0000
 204:E:/NeuOrga/Programmieren/c_cpp/github_os/input/src/os_base\os_common.c ****       if(Minuend->number[pos]  >= (Subtrahend->number[pos] + carry))
 419              		.loc 1 204 0
 420 0315 0FBE45FF 		movsbl	-1(%ebp), %eax
 421 0319 8B550C   		movl	12(%ebp), %edx
 422 031c 8A0402   		movb	(%edx,%eax), %al
 423 031f 0FB6C8   		movzbl	%al, %ecx
 424 0322 0FBE45FF 		movsbl	-1(%ebp), %eax
 425 0326 8B5510   		movl	16(%ebp), %edx
 426 0329 8A0402   		movb	(%edx,%eax), %al
 427 032c 0FB6D0   		movzbl	%al, %edx
 428 032f 0FB745FA 		movzwl	-6(%ebp), %eax
 429 0333 01D0     		addl	%edx, %eax
 430 0335 39C1     		cmpl	%eax, %ecx
 431 0337 7C28     		jl	L24
 205:E:/NeuOrga/Programmieren/c_cpp/github_os/input/src/os_base\os_common.c ****       {
 206:E:/NeuOrga/Programmieren/c_cpp/github_os/input/src/os_base\os_common.c ****          tmp_diff = (uint16)Minuend->number[pos] - (uint16)Subtrahend->number[pos] - carry;
GAS LISTING C:\Users\PRESID~1\AppData\Local\Temp\ccvbOxmE.s 			page 13


 432              		.loc 1 206 0
 433 0339 0FBE45FF 		movsbl	-1(%ebp), %eax
 434 033d 8B550C   		movl	12(%ebp), %edx
 435 0340 8A0402   		movb	(%edx,%eax), %al
 436 0343 0FB6D0   		movzbl	%al, %edx
 437 0346 0FBE45FF 		movsbl	-1(%ebp), %eax
 438 034a 8B4D10   		movl	16(%ebp), %ecx
 439 034d 8A0401   		movb	(%ecx,%eax), %al
 440 0350 0FB6C0   		movzbl	%al, %eax
 441 0353 29C2     		subl	%eax, %edx
 442 0355 89D0     		movl	%edx, %eax
 443 0357 662B45FA 		subw	-6(%ebp), %ax
 444 035b 668945FC 		movw	%ax, -4(%ebp)
 445 035f EB55     		jmp	L25
 446              	L24:
 207:E:/NeuOrga/Programmieren/c_cpp/github_os/input/src/os_base\os_common.c ****       }
 208:E:/NeuOrga/Programmieren/c_cpp/github_os/input/src/os_base\os_common.c ****       else if((Minuend->number[pos]+0x100u)  >= (Subtrahend->number[pos] + carry))
 447              		.loc 1 208 0
 448 0361 0FBE45FF 		movsbl	-1(%ebp), %eax
 449 0365 8B550C   		movl	12(%ebp), %edx
 450 0368 8A0402   		movb	(%edx,%eax), %al
 451 036b 0FB6C0   		movzbl	%al, %eax
 452 036e 8D880001 		leal	256(%eax), %ecx
 452      0000
 453 0374 0FBE45FF 		movsbl	-1(%ebp), %eax
 454 0378 8B5510   		movl	16(%ebp), %edx
 455 037b 8A0402   		movb	(%edx,%eax), %al
 456 037e 0FB6D0   		movzbl	%al, %edx
 457 0381 0FB745FA 		movzwl	-6(%ebp), %eax
 458 0385 01D0     		addl	%edx, %eax
 459 0387 39C1     		cmpl	%eax, %ecx
 460 0389 722B     		jb	L25
 209:E:/NeuOrga/Programmieren/c_cpp/github_os/input/src/os_base\os_common.c ****       {
 210:E:/NeuOrga/Programmieren/c_cpp/github_os/input/src/os_base\os_common.c ****          tmp_diff = 0x100u+(uint16)Minuend->number[pos] - (uint16)Subtrahend->number[pos] - (uint16
 461              		.loc 1 210 0
 462 038b 0FBE45FF 		movsbl	-1(%ebp), %eax
 463 038f 8B550C   		movl	12(%ebp), %edx
 464 0392 8A0402   		movb	(%edx,%eax), %al
 465 0395 0FB6D0   		movzbl	%al, %edx
 466 0398 0FBE45FF 		movsbl	-1(%ebp), %eax
 467 039c 8B4D10   		movl	16(%ebp), %ecx
 468 039f 8A0401   		movb	(%ecx,%eax), %al
 469 03a2 0FB6C0   		movzbl	%al, %eax
 470 03a5 29C2     		subl	%eax, %edx
 471 03a7 89D0     		movl	%edx, %eax
 472 03a9 662B45FA 		subw	-6(%ebp), %ax
 473 03ad 05000100 		addl	$256, %eax
 473      00
 474 03b2 668945FC 		movw	%ax, -4(%ebp)
 475              	L25:
 211:E:/NeuOrga/Programmieren/c_cpp/github_os/input/src/os_base\os_common.c ****       }
 212:E:/NeuOrga/Programmieren/c_cpp/github_os/input/src/os_base\os_common.c ****       else
 213:E:/NeuOrga/Programmieren/c_cpp/github_os/input/src/os_base\os_common.c ****       {
 214:E:/NeuOrga/Programmieren/c_cpp/github_os/input/src/os_base\os_common.c ****          /* not possible */
 215:E:/NeuOrga/Programmieren/c_cpp/github_os/input/src/os_base\os_common.c ****       }
 216:E:/NeuOrga/Programmieren/c_cpp/github_os/input/src/os_base\os_common.c ****       Differenz->number[pos] = tmp_diff;
 476              		.loc 1 216 0 discriminator 2
GAS LISTING C:\Users\PRESID~1\AppData\Local\Temp\ccvbOxmE.s 			page 14


 477 03b6 0FBE55FF 		movsbl	-1(%ebp), %edx
 478 03ba 8B45FC   		movl	-4(%ebp), %eax
 479 03bd 88C1     		movb	%al, %cl
 480 03bf 8B4508   		movl	8(%ebp), %eax
 481 03c2 880C10   		movb	%cl, (%eax,%edx)
 482              	LBE3:
 201:E:/NeuOrga/Programmieren/c_cpp/github_os/input/src/os_base\os_common.c ****    {
 483              		.loc 1 201 0 discriminator 2
 484 03c5 8A45FF   		movb	-1(%ebp), %al
 485 03c8 48       		decl	%eax
 486 03c9 8845FF   		movb	%al, -1(%ebp)
 487              	L23:
 201:E:/NeuOrga/Programmieren/c_cpp/github_os/input/src/os_base\os_common.c ****    {
 488              		.loc 1 201 0 is_stmt 0 discriminator 1
 489 03cc 807DFF00 		cmpb	$0, -1(%ebp)
 490 03d0 0F8939FF 		jns	L26
 490      FFFF
 217:E:/NeuOrga/Programmieren/c_cpp/github_os/input/src/os_base\os_common.c ****    }
 218:E:/NeuOrga/Programmieren/c_cpp/github_os/input/src/os_base\os_common.c **** }
 491              		.loc 1 218 0 is_stmt 1
 492 03d6 C9       		leave
 493              		.cfi_restore 5
 494              		.cfi_def_cfa 4, 4
 495 03d7 C3       		ret
 496              		.cfi_endproc
 497              	LFE7:
 498              		.globl	_IS_LESS
 500              	_IS_LESS:
 501              	LFB8:
 219:E:/NeuOrga/Programmieren/c_cpp/github_os/input/src/os_base\os_common.c **** boolean_t IS_LESS(const big_int* Operand1, const big_int* Operand2)
 220:E:/NeuOrga/Programmieren/c_cpp/github_os/input/src/os_base\os_common.c **** {
 502              		.loc 1 220 0
 503              		.cfi_startproc
 504 03d8 55       		pushl	%ebp
 505              		.cfi_def_cfa_offset 8
 506              		.cfi_offset 5, -8
 507 03d9 89E5     		movl	%esp, %ebp
 508              		.cfi_def_cfa_register 5
 509 03db 83EC10   		subl	$16, %esp
 221:E:/NeuOrga/Programmieren/c_cpp/github_os/input/src/os_base\os_common.c ****    uint8 pos;
 222:E:/NeuOrga/Programmieren/c_cpp/github_os/input/src/os_base\os_common.c ****    boolean_t is_less = FALSE;/* in case no if was entered, the numbers are equal -> return FALSE */
 510              		.loc 1 222 0
 511 03de C645FE00 		movb	$0, -2(%ebp)
 223:E:/NeuOrga/Programmieren/c_cpp/github_os/input/src/os_base\os_common.c ****    for(pos = 0; pos < BIG_INT_SIZE; pos++)
 512              		.loc 1 223 0
 513 03e2 C645FF00 		movb	$0, -1(%ebp)
 514 03e6 EB43     		jmp	L28
 515              	L32:
 224:E:/NeuOrga/Programmieren/c_cpp/github_os/input/src/os_base\os_common.c ****    {
 225:E:/NeuOrga/Programmieren/c_cpp/github_os/input/src/os_base\os_common.c ****       if(Operand1->number[pos] < Operand2->number[pos])
 516              		.loc 1 225 0
 517 03e8 0FB645FF 		movzbl	-1(%ebp), %eax
 518 03ec 8B5508   		movl	8(%ebp), %edx
 519 03ef 8A0C02   		movb	(%edx,%eax), %cl
 520 03f2 0FB645FF 		movzbl	-1(%ebp), %eax
 521 03f6 8B550C   		movl	12(%ebp), %edx
 522 03f9 8A0402   		movb	(%edx,%eax), %al
GAS LISTING C:\Users\PRESID~1\AppData\Local\Temp\ccvbOxmE.s 			page 15


 523 03fc 38C1     		cmpb	%al, %cl
 524 03fe 7306     		jnb	L29
 226:E:/NeuOrga/Programmieren/c_cpp/github_os/input/src/os_base\os_common.c ****       {
 227:E:/NeuOrga/Programmieren/c_cpp/github_os/input/src/os_base\os_common.c ****          is_less = TRUE;
 525              		.loc 1 227 0
 526 0400 C645FE01 		movb	$1, -2(%ebp)
 228:E:/NeuOrga/Programmieren/c_cpp/github_os/input/src/os_base\os_common.c ****          break;
 527              		.loc 1 228 0
 528 0404 EB2B     		jmp	L30
 529              	L29:
 229:E:/NeuOrga/Programmieren/c_cpp/github_os/input/src/os_base\os_common.c ****       }
 230:E:/NeuOrga/Programmieren/c_cpp/github_os/input/src/os_base\os_common.c ****       else if (Operand1->number[pos] > Operand2->number[pos])
 530              		.loc 1 230 0
 531 0406 0FB645FF 		movzbl	-1(%ebp), %eax
 532 040a 8B5508   		movl	8(%ebp), %edx
 533 040d 8A0C02   		movb	(%edx,%eax), %cl
 534 0410 0FB645FF 		movzbl	-1(%ebp), %eax
 535 0414 8B550C   		movl	12(%ebp), %edx
 536 0417 8A0402   		movb	(%edx,%eax), %al
 537 041a 38C1     		cmpb	%al, %cl
 538 041c 7606     		jbe	L31
 231:E:/NeuOrga/Programmieren/c_cpp/github_os/input/src/os_base\os_common.c ****       {
 232:E:/NeuOrga/Programmieren/c_cpp/github_os/input/src/os_base\os_common.c ****          is_less = FALSE;
 539              		.loc 1 232 0
 540 041e C645FE00 		movb	$0, -2(%ebp)
 233:E:/NeuOrga/Programmieren/c_cpp/github_os/input/src/os_base\os_common.c ****          break;
 541              		.loc 1 233 0
 542 0422 EB0D     		jmp	L30
 543              	L31:
 223:E:/NeuOrga/Programmieren/c_cpp/github_os/input/src/os_base\os_common.c ****    {
 544              		.loc 1 223 0 discriminator 2
 545 0424 8A45FF   		movb	-1(%ebp), %al
 546 0427 40       		incl	%eax
 547 0428 8845FF   		movb	%al, -1(%ebp)
 548              	L28:
 223:E:/NeuOrga/Programmieren/c_cpp/github_os/input/src/os_base\os_common.c ****    {
 549              		.loc 1 223 0 is_stmt 0 discriminator 1
 550 042b 807DFF0F 		cmpb	$15, -1(%ebp)
 551 042f 76B7     		jbe	L32
 552              	L30:
 234:E:/NeuOrga/Programmieren/c_cpp/github_os/input/src/os_base\os_common.c ****       }
 235:E:/NeuOrga/Programmieren/c_cpp/github_os/input/src/os_base\os_common.c ****       else
 236:E:/NeuOrga/Programmieren/c_cpp/github_os/input/src/os_base\os_common.c ****       {
 237:E:/NeuOrga/Programmieren/c_cpp/github_os/input/src/os_base\os_common.c ****          /* don't break, but continue with next position */
 238:E:/NeuOrga/Programmieren/c_cpp/github_os/input/src/os_base\os_common.c ****       }
 239:E:/NeuOrga/Programmieren/c_cpp/github_os/input/src/os_base\os_common.c ****    }
 240:E:/NeuOrga/Programmieren/c_cpp/github_os/input/src/os_base\os_common.c ****    return is_less;
 553              		.loc 1 240 0 is_stmt 1
 554 0431 8A45FE   		movb	-2(%ebp), %al
 241:E:/NeuOrga/Programmieren/c_cpp/github_os/input/src/os_base\os_common.c **** }
 555              		.loc 1 241 0
 556 0434 C9       		leave
 557              		.cfi_restore 5
 558              		.cfi_def_cfa 4, 4
 559 0435 C3       		ret
 560              		.cfi_endproc
 561              	LFE8:
GAS LISTING C:\Users\PRESID~1\AppData\Local\Temp\ccvbOxmE.s 			page 16


 562              		.globl	_IS_LESS_OR_EQUAL
 564              	_IS_LESS_OR_EQUAL:
 565              	LFB9:
 242:E:/NeuOrga/Programmieren/c_cpp/github_os/input/src/os_base\os_common.c **** boolean_t IS_LESS_OR_EQUAL(const big_int* Operand1, const big_int* Operand2)
 243:E:/NeuOrga/Programmieren/c_cpp/github_os/input/src/os_base\os_common.c **** {
 566              		.loc 1 243 0
 567              		.cfi_startproc
 568 0436 55       		pushl	%ebp
 569              		.cfi_def_cfa_offset 8
 570              		.cfi_offset 5, -8
 571 0437 89E5     		movl	%esp, %ebp
 572              		.cfi_def_cfa_register 5
 573 0439 83EC18   		subl	$24, %esp
 244:E:/NeuOrga/Programmieren/c_cpp/github_os/input/src/os_base\os_common.c ****    return IS_LESS(Operand1,Operand2) || IS_EQUAL(Operand1,Operand2);
 574              		.loc 1 244 0
 575 043c 8B450C   		movl	12(%ebp), %eax
 576 043f 89442404 		movl	%eax, 4(%esp)
 577 0443 8B4508   		movl	8(%ebp), %eax
 578 0446 890424   		movl	%eax, (%esp)
 579 0449 E88AFFFF 		call	_IS_LESS
 579      FF
 580 044e 84C0     		testb	%al, %al
 581 0450 7516     		jne	L35
 582              		.loc 1 244 0 is_stmt 0 discriminator 2
 583 0452 8B450C   		movl	12(%ebp), %eax
 584 0455 89442404 		movl	%eax, 4(%esp)
 585 0459 8B4508   		movl	8(%ebp), %eax
 586 045c 890424   		movl	%eax, (%esp)
 587 045f E8120000 		call	_IS_EQUAL
 587      00
 588 0464 84C0     		testb	%al, %al
 589 0466 7407     		je	L36
 590              	L35:
 591              		.loc 1 244 0 discriminator 3
 592 0468 B8010000 		movl	$1, %eax
 592      00
 593 046d EB05     		jmp	L37
 594              	L36:
 595              		.loc 1 244 0 discriminator 4
 596 046f B8000000 		movl	$0, %eax
 596      00
 597              	L37:
 245:E:/NeuOrga/Programmieren/c_cpp/github_os/input/src/os_base\os_common.c **** }
 598              		.loc 1 245 0 is_stmt 1 discriminator 6
 599 0474 C9       		leave
 600              		.cfi_restore 5
 601              		.cfi_def_cfa 4, 4
 602 0475 C3       		ret
 603              		.cfi_endproc
 604              	LFE9:
 605              		.globl	_IS_EQUAL
 607              	_IS_EQUAL:
 608              	LFB10:
 246:E:/NeuOrga/Programmieren/c_cpp/github_os/input/src/os_base\os_common.c **** boolean_t IS_EQUAL(const big_int* Operand1, const big_int* Operand2)
 247:E:/NeuOrga/Programmieren/c_cpp/github_os/input/src/os_base\os_common.c **** {
 609              		.loc 1 247 0
 610              		.cfi_startproc
GAS LISTING C:\Users\PRESID~1\AppData\Local\Temp\ccvbOxmE.s 			page 17


 611 0476 55       		pushl	%ebp
 612              		.cfi_def_cfa_offset 8
 613              		.cfi_offset 5, -8
 614 0477 89E5     		movl	%esp, %ebp
 615              		.cfi_def_cfa_register 5
 616 0479 83EC10   		subl	$16, %esp
 248:E:/NeuOrga/Programmieren/c_cpp/github_os/input/src/os_base\os_common.c ****    uint8 pos;
 249:E:/NeuOrga/Programmieren/c_cpp/github_os/input/src/os_base\os_common.c ****    boolean_t is_equal = TRUE;/* in case no if/elseif) was entered, the numbers are equal -> return 
 617              		.loc 1 249 0
 618 047c C645FE01 		movb	$1, -2(%ebp)
 250:E:/NeuOrga/Programmieren/c_cpp/github_os/input/src/os_base\os_common.c ****    for(pos = 0u; pos < BIG_INT_SIZE; pos++)
 619              		.loc 1 250 0
 620 0480 C645FF00 		movb	$0, -1(%ebp)
 621 0484 EB25     		jmp	L40
 622              	L43:
 251:E:/NeuOrga/Programmieren/c_cpp/github_os/input/src/os_base\os_common.c ****    {
 252:E:/NeuOrga/Programmieren/c_cpp/github_os/input/src/os_base\os_common.c ****       if(Operand1->number[pos] != Operand2->number[pos])
 623              		.loc 1 252 0
 624 0486 0FB645FF 		movzbl	-1(%ebp), %eax
 625 048a 8B5508   		movl	8(%ebp), %edx
 626 048d 8A0C02   		movb	(%edx,%eax), %cl
 627 0490 0FB645FF 		movzbl	-1(%ebp), %eax
 628 0494 8B550C   		movl	12(%ebp), %edx
 629 0497 8A0402   		movb	(%edx,%eax), %al
 630 049a 38C1     		cmpb	%al, %cl
 631 049c 7406     		je	L41
 253:E:/NeuOrga/Programmieren/c_cpp/github_os/input/src/os_base\os_common.c ****       {
 254:E:/NeuOrga/Programmieren/c_cpp/github_os/input/src/os_base\os_common.c ****          is_equal = FALSE;
 632              		.loc 1 254 0
 633 049e C645FE00 		movb	$0, -2(%ebp)
 255:E:/NeuOrga/Programmieren/c_cpp/github_os/input/src/os_base\os_common.c ****          break;
 634              		.loc 1 255 0
 635 04a2 EB0D     		jmp	L42
 636              	L41:
 250:E:/NeuOrga/Programmieren/c_cpp/github_os/input/src/os_base\os_common.c ****    {
 637              		.loc 1 250 0 discriminator 2
 638 04a4 8A45FF   		movb	-1(%ebp), %al
 639 04a7 40       		incl	%eax
 640 04a8 8845FF   		movb	%al, -1(%ebp)
 641              	L40:
 250:E:/NeuOrga/Programmieren/c_cpp/github_os/input/src/os_base\os_common.c ****    {
 642              		.loc 1 250 0 is_stmt 0 discriminator 1
 643 04ab 807DFF0F 		cmpb	$15, -1(%ebp)
 644 04af 76D5     		jbe	L43
 645              	L42:
 256:E:/NeuOrga/Programmieren/c_cpp/github_os/input/src/os_base\os_common.c ****       }
 257:E:/NeuOrga/Programmieren/c_cpp/github_os/input/src/os_base\os_common.c ****       else
 258:E:/NeuOrga/Programmieren/c_cpp/github_os/input/src/os_base\os_common.c ****       {
 259:E:/NeuOrga/Programmieren/c_cpp/github_os/input/src/os_base\os_common.c ****          /* don't break, but continue with next position */
 260:E:/NeuOrga/Programmieren/c_cpp/github_os/input/src/os_base\os_common.c ****       }
 261:E:/NeuOrga/Programmieren/c_cpp/github_os/input/src/os_base\os_common.c ****    }
 262:E:/NeuOrga/Programmieren/c_cpp/github_os/input/src/os_base\os_common.c ****    return is_equal;
 646              		.loc 1 262 0 is_stmt 1
 647 04b1 8A45FE   		movb	-2(%ebp), %al
 263:E:/NeuOrga/Programmieren/c_cpp/github_os/input/src/os_base\os_common.c **** }
 648              		.loc 1 263 0
 649 04b4 C9       		leave
GAS LISTING C:\Users\PRESID~1\AppData\Local\Temp\ccvbOxmE.s 			page 18


 650              		.cfi_restore 5
 651              		.cfi_def_cfa 4, 4
 652 04b5 C3       		ret
 653              		.cfi_endproc
 654              	LFE10:
 655              		.globl	_IS_GREATER
 657              	_IS_GREATER:
 658              	LFB11:
 264:E:/NeuOrga/Programmieren/c_cpp/github_os/input/src/os_base\os_common.c **** boolean_t IS_GREATER(const big_int* Operand1, const big_int* Operand2)
 265:E:/NeuOrga/Programmieren/c_cpp/github_os/input/src/os_base\os_common.c **** {
 659              		.loc 1 265 0
 660              		.cfi_startproc
 661 04b6 55       		pushl	%ebp
 662              		.cfi_def_cfa_offset 8
 663              		.cfi_offset 5, -8
 664 04b7 89E5     		movl	%esp, %ebp
 665              		.cfi_def_cfa_register 5
 666 04b9 83EC10   		subl	$16, %esp
 266:E:/NeuOrga/Programmieren/c_cpp/github_os/input/src/os_base\os_common.c ****    uint8 pos;
 267:E:/NeuOrga/Programmieren/c_cpp/github_os/input/src/os_base\os_common.c ****    boolean_t is_greater = FALSE;/* in case no if was entered, the numbers are equal -> return FALSE
 667              		.loc 1 267 0
 668 04bc C645FE00 		movb	$0, -2(%ebp)
 268:E:/NeuOrga/Programmieren/c_cpp/github_os/input/src/os_base\os_common.c ****    for(pos = 0u; pos < BIG_INT_SIZE; pos++)
 669              		.loc 1 268 0
 670 04c0 C645FF00 		movb	$0, -1(%ebp)
 671 04c4 EB43     		jmp	L46
 672              	L50:
 269:E:/NeuOrga/Programmieren/c_cpp/github_os/input/src/os_base\os_common.c ****    {
 270:E:/NeuOrga/Programmieren/c_cpp/github_os/input/src/os_base\os_common.c ****       if(Operand1->number[pos] < Operand2->number[pos])
 673              		.loc 1 270 0
 674 04c6 0FB645FF 		movzbl	-1(%ebp), %eax
 675 04ca 8B5508   		movl	8(%ebp), %edx
 676 04cd 8A0C02   		movb	(%edx,%eax), %cl
 677 04d0 0FB645FF 		movzbl	-1(%ebp), %eax
 678 04d4 8B550C   		movl	12(%ebp), %edx
 679 04d7 8A0402   		movb	(%edx,%eax), %al
 680 04da 38C1     		cmpb	%al, %cl
 681 04dc 7306     		jnb	L47
 271:E:/NeuOrga/Programmieren/c_cpp/github_os/input/src/os_base\os_common.c ****       {
 272:E:/NeuOrga/Programmieren/c_cpp/github_os/input/src/os_base\os_common.c ****          is_greater = FALSE;
 682              		.loc 1 272 0
 683 04de C645FE00 		movb	$0, -2(%ebp)
 273:E:/NeuOrga/Programmieren/c_cpp/github_os/input/src/os_base\os_common.c ****          break;
 684              		.loc 1 273 0
 685 04e2 EB2B     		jmp	L48
 686              	L47:
 274:E:/NeuOrga/Programmieren/c_cpp/github_os/input/src/os_base\os_common.c ****       }
 275:E:/NeuOrga/Programmieren/c_cpp/github_os/input/src/os_base\os_common.c ****       else if (Operand1->number[pos] > Operand2->number[pos])
 687              		.loc 1 275 0
 688 04e4 0FB645FF 		movzbl	-1(%ebp), %eax
 689 04e8 8B5508   		movl	8(%ebp), %edx
 690 04eb 8A0C02   		movb	(%edx,%eax), %cl
 691 04ee 0FB645FF 		movzbl	-1(%ebp), %eax
 692 04f2 8B550C   		movl	12(%ebp), %edx
 693 04f5 8A0402   		movb	(%edx,%eax), %al
 694 04f8 38C1     		cmpb	%al, %cl
 695 04fa 7606     		jbe	L49
GAS LISTING C:\Users\PRESID~1\AppData\Local\Temp\ccvbOxmE.s 			page 19


 276:E:/NeuOrga/Programmieren/c_cpp/github_os/input/src/os_base\os_common.c ****       {
 277:E:/NeuOrga/Programmieren/c_cpp/github_os/input/src/os_base\os_common.c ****          is_greater = TRUE;
 696              		.loc 1 277 0
 697 04fc C645FE01 		movb	$1, -2(%ebp)
 278:E:/NeuOrga/Programmieren/c_cpp/github_os/input/src/os_base\os_common.c ****          break;
 698              		.loc 1 278 0
 699 0500 EB0D     		jmp	L48
 700              	L49:
 268:E:/NeuOrga/Programmieren/c_cpp/github_os/input/src/os_base\os_common.c ****    {
 701              		.loc 1 268 0 discriminator 2
 702 0502 8A45FF   		movb	-1(%ebp), %al
 703 0505 40       		incl	%eax
 704 0506 8845FF   		movb	%al, -1(%ebp)
 705              	L46:
 268:E:/NeuOrga/Programmieren/c_cpp/github_os/input/src/os_base\os_common.c ****    {
 706              		.loc 1 268 0 is_stmt 0 discriminator 1
 707 0509 807DFF0F 		cmpb	$15, -1(%ebp)
 708 050d 76B7     		jbe	L50
 709              	L48:
 279:E:/NeuOrga/Programmieren/c_cpp/github_os/input/src/os_base\os_common.c ****       }
 280:E:/NeuOrga/Programmieren/c_cpp/github_os/input/src/os_base\os_common.c ****       else
 281:E:/NeuOrga/Programmieren/c_cpp/github_os/input/src/os_base\os_common.c ****       {
 282:E:/NeuOrga/Programmieren/c_cpp/github_os/input/src/os_base\os_common.c ****          /* don't break, but continue with next position */
 283:E:/NeuOrga/Programmieren/c_cpp/github_os/input/src/os_base\os_common.c ****       }
 284:E:/NeuOrga/Programmieren/c_cpp/github_os/input/src/os_base\os_common.c ****    }
 285:E:/NeuOrga/Programmieren/c_cpp/github_os/input/src/os_base\os_common.c ****    return is_greater;
 710              		.loc 1 285 0 is_stmt 1
 711 050f 8A45FE   		movb	-2(%ebp), %al
 286:E:/NeuOrga/Programmieren/c_cpp/github_os/input/src/os_base\os_common.c **** }
 712              		.loc 1 286 0
 713 0512 C9       		leave
 714              		.cfi_restore 5
 715              		.cfi_def_cfa 4, 4
 716 0513 C3       		ret
 717              		.cfi_endproc
 718              	LFE11:
 719              		.globl	_IS_GREATER_OR_EQUAL
 721              	_IS_GREATER_OR_EQUAL:
 722              	LFB12:
 287:E:/NeuOrga/Programmieren/c_cpp/github_os/input/src/os_base\os_common.c **** boolean_t IS_GREATER_OR_EQUAL(const big_int* Operand1, const big_int* Operand2)
 288:E:/NeuOrga/Programmieren/c_cpp/github_os/input/src/os_base\os_common.c **** {
 723              		.loc 1 288 0
 724              		.cfi_startproc
 725 0514 55       		pushl	%ebp
 726              		.cfi_def_cfa_offset 8
 727              		.cfi_offset 5, -8
 728 0515 89E5     		movl	%esp, %ebp
 729              		.cfi_def_cfa_register 5
 730 0517 83EC08   		subl	$8, %esp
 289:E:/NeuOrga/Programmieren/c_cpp/github_os/input/src/os_base\os_common.c ****    return IS_GREATER(Operand1,Operand2) || IS_EQUAL(Operand1,Operand2);
 731              		.loc 1 289 0
 732 051a 8B450C   		movl	12(%ebp), %eax
 733 051d 89442404 		movl	%eax, 4(%esp)
 734 0521 8B4508   		movl	8(%ebp), %eax
 735 0524 890424   		movl	%eax, (%esp)
 736 0527 E88AFFFF 		call	_IS_GREATER
 736      FF
GAS LISTING C:\Users\PRESID~1\AppData\Local\Temp\ccvbOxmE.s 			page 20


 737 052c 84C0     		testb	%al, %al
 738 052e 7516     		jne	L53
 739              		.loc 1 289 0 is_stmt 0 discriminator 2
 740 0530 8B450C   		movl	12(%ebp), %eax
 741 0533 89442404 		movl	%eax, 4(%esp)
 742 0537 8B4508   		movl	8(%ebp), %eax
 743 053a 890424   		movl	%eax, (%esp)
 744 053d E834FFFF 		call	_IS_EQUAL
 744      FF
 745 0542 84C0     		testb	%al, %al
 746 0544 7407     		je	L54
 747              	L53:
 748              		.loc 1 289 0 discriminator 3
 749 0546 B8010000 		movl	$1, %eax
 749      00
 750 054b EB05     		jmp	L55
 751              	L54:
 752              		.loc 1 289 0 discriminator 4
 753 054d B8000000 		movl	$0, %eax
 753      00
 754              	L55:
 290:E:/NeuOrga/Programmieren/c_cpp/github_os/input/src/os_base\os_common.c **** }
 755              		.loc 1 290 0 is_stmt 1 discriminator 6
 756 0552 C9       		leave
 757              		.cfi_restore 5
 758              		.cfi_def_cfa 4, 4
 759 0553 C3       		ret
 760              		.cfi_endproc
 761              	LFE12:
 762              		.globl	_ASSIGN
 764              	_ASSIGN:
 765              	LFB13:
 291:E:/NeuOrga/Programmieren/c_cpp/github_os/input/src/os_base\os_common.c **** void ASSIGN(big_int* leftOperand, const big_int* rightOperand)
 292:E:/NeuOrga/Programmieren/c_cpp/github_os/input/src/os_base\os_common.c **** {
 766              		.loc 1 292 0
 767              		.cfi_startproc
 768 0554 55       		pushl	%ebp
 769              		.cfi_def_cfa_offset 8
 770              		.cfi_offset 5, -8
 771 0555 89E5     		movl	%esp, %ebp
 772              		.cfi_def_cfa_register 5
 773 0557 83EC10   		subl	$16, %esp
 293:E:/NeuOrga/Programmieren/c_cpp/github_os/input/src/os_base\os_common.c ****    uint8 pos;
 294:E:/NeuOrga/Programmieren/c_cpp/github_os/input/src/os_base\os_common.c ****    for (pos = 0u; pos < BIG_INT_SIZE; pos++)
 774              		.loc 1 294 0
 775 055a C645FF00 		movb	$0, -1(%ebp)
 776 055e EB1B     		jmp	L58
 777              	L59:
 295:E:/NeuOrga/Programmieren/c_cpp/github_os/input/src/os_base\os_common.c ****    {
 296:E:/NeuOrga/Programmieren/c_cpp/github_os/input/src/os_base\os_common.c ****       leftOperand->number[pos] = rightOperand->number[pos];
 778              		.loc 1 296 0 discriminator 3
 779 0560 0FB645FF 		movzbl	-1(%ebp), %eax
 780 0564 0FB655FF 		movzbl	-1(%ebp), %edx
 781 0568 8B4D0C   		movl	12(%ebp), %ecx
 782 056b 8A0C11   		movb	(%ecx,%edx), %cl
 783 056e 8B5508   		movl	8(%ebp), %edx
 784 0571 880C02   		movb	%cl, (%edx,%eax)
GAS LISTING C:\Users\PRESID~1\AppData\Local\Temp\ccvbOxmE.s 			page 21


 294:E:/NeuOrga/Programmieren/c_cpp/github_os/input/src/os_base\os_common.c ****    {
 785              		.loc 1 294 0 discriminator 3
 786 0574 8A45FF   		movb	-1(%ebp), %al
 787 0577 40       		incl	%eax
 788 0578 8845FF   		movb	%al, -1(%ebp)
 789              	L58:
 294:E:/NeuOrga/Programmieren/c_cpp/github_os/input/src/os_base\os_common.c ****    {
 790              		.loc 1 294 0 is_stmt 0 discriminator 1
 791 057b 807DFF0F 		cmpb	$15, -1(%ebp)
 792 057f 76DF     		jbe	L59
 297:E:/NeuOrga/Programmieren/c_cpp/github_os/input/src/os_base\os_common.c ****    }
 298:E:/NeuOrga/Programmieren/c_cpp/github_os/input/src/os_base\os_common.c **** }
 793              		.loc 1 298 0 is_stmt 1
 794 0581 C9       		leave
 795              		.cfi_restore 5
 796              		.cfi_def_cfa 4, 4
 797 0582 C3       		ret
 798              		.cfi_endproc
 799              	LFE13:
 800              		.globl	_ASSIGN_NULL
 802              	_ASSIGN_NULL:
 803              	LFB14:
 299:E:/NeuOrga/Programmieren/c_cpp/github_os/input/src/os_base\os_common.c **** void ASSIGN_NULL(big_int* leftOperand)
 300:E:/NeuOrga/Programmieren/c_cpp/github_os/input/src/os_base\os_common.c **** {
 804              		.loc 1 300 0
 805              		.cfi_startproc
 806 0583 55       		pushl	%ebp
 807              		.cfi_def_cfa_offset 8
 808              		.cfi_offset 5, -8
 809 0584 89E5     		movl	%esp, %ebp
 810              		.cfi_def_cfa_register 5
 811 0586 83EC10   		subl	$16, %esp
 301:E:/NeuOrga/Programmieren/c_cpp/github_os/input/src/os_base\os_common.c ****    uint8 pos;
 302:E:/NeuOrga/Programmieren/c_cpp/github_os/input/src/os_base\os_common.c ****    for (pos = 0u; pos < BIG_INT_SIZE; pos++)
 812              		.loc 1 302 0
 813 0589 C645FF00 		movb	$0, -1(%ebp)
 814 058d EB12     		jmp	L61
 815              	L62:
 303:E:/NeuOrga/Programmieren/c_cpp/github_os/input/src/os_base\os_common.c ****    {
 304:E:/NeuOrga/Programmieren/c_cpp/github_os/input/src/os_base\os_common.c ****       leftOperand->number[pos] = 0x00u;
 816              		.loc 1 304 0 discriminator 3
 817 058f 0FB645FF 		movzbl	-1(%ebp), %eax
 818 0593 8B5508   		movl	8(%ebp), %edx
 819 0596 C6040200 		movb	$0, (%edx,%eax)
 302:E:/NeuOrga/Programmieren/c_cpp/github_os/input/src/os_base\os_common.c ****    {
 820              		.loc 1 302 0 discriminator 3
 821 059a 8A45FF   		movb	-1(%ebp), %al
 822 059d 40       		incl	%eax
 823 059e 8845FF   		movb	%al, -1(%ebp)
 824              	L61:
 302:E:/NeuOrga/Programmieren/c_cpp/github_os/input/src/os_base\os_common.c ****    {
 825              		.loc 1 302 0 is_stmt 0 discriminator 1
 826 05a1 807DFF0F 		cmpb	$15, -1(%ebp)
 827 05a5 76E8     		jbe	L62
 305:E:/NeuOrga/Programmieren/c_cpp/github_os/input/src/os_base\os_common.c ****    }
 306:E:/NeuOrga/Programmieren/c_cpp/github_os/input/src/os_base\os_common.c **** }
 828              		.loc 1 306 0 is_stmt 1
GAS LISTING C:\Users\PRESID~1\AppData\Local\Temp\ccvbOxmE.s 			page 22


 829 05a7 C9       		leave
 830              		.cfi_restore 5
 831              		.cfi_def_cfa 4, 4
 832 05a8 C3       		ret
 833              		.cfi_endproc
 834              	LFE14:
 835              		.globl	_ASSIGN_UINT32
 837              	_ASSIGN_UINT32:
 838              	LFB15:
 307:E:/NeuOrga/Programmieren/c_cpp/github_os/input/src/os_base\os_common.c **** 
 308:E:/NeuOrga/Programmieren/c_cpp/github_os/input/src/os_base\os_common.c **** void ASSIGN_UINT32(big_int* leftOperand, const uint32 rightOperand)
 309:E:/NeuOrga/Programmieren/c_cpp/github_os/input/src/os_base\os_common.c **** {
 839              		.loc 1 309 0
 840              		.cfi_startproc
 841 05a9 55       		pushl	%ebp
 842              		.cfi_def_cfa_offset 8
 843              		.cfi_offset 5, -8
 844 05aa 89E5     		movl	%esp, %ebp
 845              		.cfi_def_cfa_register 5
 846 05ac 53       		pushl	%ebx
 847 05ad 83EC10   		subl	$16, %esp
 848              		.cfi_offset 3, -12
 310:E:/NeuOrga/Programmieren/c_cpp/github_os/input/src/os_base\os_common.c ****    uint8 pos;
 311:E:/NeuOrga/Programmieren/c_cpp/github_os/input/src/os_base\os_common.c ****    uint8 i;
 312:E:/NeuOrga/Programmieren/c_cpp/github_os/input/src/os_base\os_common.c ****    for (pos = 0u; pos < BIG_INT_SIZE; pos++)
 849              		.loc 1 312 0
 850 05b0 C645FB00 		movb	$0, -5(%ebp)
 851 05b4 EB12     		jmp	L64
 852              	L65:
 313:E:/NeuOrga/Programmieren/c_cpp/github_os/input/src/os_base\os_common.c ****    {
 314:E:/NeuOrga/Programmieren/c_cpp/github_os/input/src/os_base\os_common.c ****       leftOperand->number[pos] = 0x00u;
 853              		.loc 1 314 0 discriminator 3
 854 05b6 0FB645FB 		movzbl	-5(%ebp), %eax
 855 05ba 8B5508   		movl	8(%ebp), %edx
 856 05bd C6040200 		movb	$0, (%edx,%eax)
 312:E:/NeuOrga/Programmieren/c_cpp/github_os/input/src/os_base\os_common.c ****    {
 857              		.loc 1 312 0 discriminator 3
 858 05c1 8A45FB   		movb	-5(%ebp), %al
 859 05c4 40       		incl	%eax
 860 05c5 8845FB   		movb	%al, -5(%ebp)
 861              	L64:
 312:E:/NeuOrga/Programmieren/c_cpp/github_os/input/src/os_base\os_common.c ****    {
 862              		.loc 1 312 0 is_stmt 0 discriminator 1
 863 05c8 807DFB0F 		cmpb	$15, -5(%ebp)
 864 05cc 76E8     		jbe	L65
 315:E:/NeuOrga/Programmieren/c_cpp/github_os/input/src/os_base\os_common.c ****    }
 316:E:/NeuOrga/Programmieren/c_cpp/github_os/input/src/os_base\os_common.c **** 
 317:E:/NeuOrga/Programmieren/c_cpp/github_os/input/src/os_base\os_common.c ****    for (pos = BIG_INT_SIZE-1u, i = 0u; pos >= (BIG_INT_SIZE-sizeof(uint32)); pos--, i++)
 865              		.loc 1 317 0 is_stmt 1
 866 05ce C645FB0F 		movb	$15, -5(%ebp)
 867 05d2 C645FA00 		movb	$0, -6(%ebp)
 868 05d6 EB27     		jmp	L66
 869              	L67:
 318:E:/NeuOrga/Programmieren/c_cpp/github_os/input/src/os_base\os_common.c ****    {
 319:E:/NeuOrga/Programmieren/c_cpp/github_os/input/src/os_base\os_common.c ****       leftOperand->number[pos] = (rightOperand>>i)&0xFFu;
 870              		.loc 1 319 0 discriminator 3
 871 05d8 0FB645FB 		movzbl	-5(%ebp), %eax
GAS LISTING C:\Users\PRESID~1\AppData\Local\Temp\ccvbOxmE.s 			page 23


 872 05dc 0FB655FA 		movzbl	-6(%ebp), %edx
 873 05e0 8B5D0C   		movl	12(%ebp), %ebx
 874 05e3 88D1     		movb	%dl, %cl
 875 05e5 D3EB     		shrl	%cl, %ebx
 876 05e7 89DA     		movl	%ebx, %edx
 877 05e9 88D1     		movb	%dl, %cl
 878 05eb 8B5508   		movl	8(%ebp), %edx
 879 05ee 880C02   		movb	%cl, (%edx,%eax)
 317:E:/NeuOrga/Programmieren/c_cpp/github_os/input/src/os_base\os_common.c ****    {
 880              		.loc 1 317 0 discriminator 3
 881 05f1 8A45FB   		movb	-5(%ebp), %al
 882 05f4 48       		decl	%eax
 883 05f5 8845FB   		movb	%al, -5(%ebp)
 884 05f8 8A45FA   		movb	-6(%ebp), %al
 885 05fb 40       		incl	%eax
 886 05fc 8845FA   		movb	%al, -6(%ebp)
 887              	L66:
 317:E:/NeuOrga/Programmieren/c_cpp/github_os/input/src/os_base\os_common.c ****    {
 888              		.loc 1 317 0 is_stmt 0 discriminator 1
 889 05ff 807DFB0B 		cmpb	$11, -5(%ebp)
 890 0603 77D3     		ja	L67
 320:E:/NeuOrga/Programmieren/c_cpp/github_os/input/src/os_base\os_common.c ****    }
 321:E:/NeuOrga/Programmieren/c_cpp/github_os/input/src/os_base\os_common.c **** }
 891              		.loc 1 321 0 is_stmt 1
 892 0605 83C410   		addl	$16, %esp
 893 0608 5B       		popl	%ebx
 894              		.cfi_restore 3
 895 0609 5D       		popl	%ebp
 896              		.cfi_restore 5
 897              		.cfi_def_cfa 4, 4
 898 060a C3       		ret
 899              		.cfi_endproc
 900              	LFE15:
 901              		.globl	_SHIFT_LEFT
 903              	_SHIFT_LEFT:
 904              	LFB16:
 322:E:/NeuOrga/Programmieren/c_cpp/github_os/input/src/os_base\os_common.c **** void SHIFT_LEFT(big_int* number, uint32 amount_bits_shift)
 323:E:/NeuOrga/Programmieren/c_cpp/github_os/input/src/os_base\os_common.c **** {
 905              		.loc 1 323 0
 906              		.cfi_startproc
 907 060b 55       		pushl	%ebp
 908              		.cfi_def_cfa_offset 8
 909              		.cfi_offset 5, -8
 910 060c 89E5     		movl	%esp, %ebp
 911              		.cfi_def_cfa_register 5
 912 060e 83EC3C   		subl	$60, %esp
 324:E:/NeuOrga/Programmieren/c_cpp/github_os/input/src/os_base\os_common.c ****    big_int tmpBigInt, result;
 325:E:/NeuOrga/Programmieren/c_cpp/github_os/input/src/os_base\os_common.c ****    uint32  tmp32;
 326:E:/NeuOrga/Programmieren/c_cpp/github_os/input/src/os_base\os_common.c ****    sint32  pos;
 327:E:/NeuOrga/Programmieren/c_cpp/github_os/input/src/os_base\os_common.c ****    /* init the variable */
 328:E:/NeuOrga/Programmieren/c_cpp/github_os/input/src/os_base\os_common.c ****    ASSIGN_NULL(&tmpBigInt);
 913              		.loc 1 328 0
 914 0611 8D45E8   		leal	-24(%ebp), %eax
 915 0614 890424   		movl	%eax, (%esp)
 916 0617 E867FFFF 		call	_ASSIGN_NULL
 916      FF
 329:E:/NeuOrga/Programmieren/c_cpp/github_os/input/src/os_base\os_common.c ****    ASSIGN_NULL(&result);
GAS LISTING C:\Users\PRESID~1\AppData\Local\Temp\ccvbOxmE.s 			page 24


 917              		.loc 1 329 0
 918 061c 8D45D8   		leal	-40(%ebp), %eax
 919 061f 890424   		movl	%eax, (%esp)
 920 0622 E85CFFFF 		call	_ASSIGN_NULL
 920      FF
 330:E:/NeuOrga/Programmieren/c_cpp/github_os/input/src/os_base\os_common.c ****    
 331:E:/NeuOrga/Programmieren/c_cpp/github_os/input/src/os_base\os_common.c ****    /* due to the underlying 32 bit integer type only 24 bits can be shifted (32bit variable -8bit a
 332:E:/NeuOrga/Programmieren/c_cpp/github_os/input/src/os_base\os_common.c ****    if(amount_bits_shift > 24u)
 921              		.loc 1 332 0
 922 0627 837D0C18 		cmpl	$24, 12(%ebp)
 923 062b 7619     		jbe	L69
 333:E:/NeuOrga/Programmieren/c_cpp/github_os/input/src/os_base\os_common.c ****    {
 334:E:/NeuOrga/Programmieren/c_cpp/github_os/input/src/os_base\os_common.c ****       OS_SET_SW_BUG(E_OS_BUG_BIT_SHIFT_OUT_OF_RANGE, E_FUNC_SHIFT_LEFT);
 924              		.loc 1 334 0
 925 062d C7442404 		movl	$21, 4(%esp)
 925      15000000 
 926 0635 C704240D 		movl	$13, (%esp)
 926      000000
 927 063c E8BFF9FF 		call	_OS_SET_SW_BUG
 927      FF
 928 0641 E9980000 		jmp	L68
 928      00
 929              	L69:
 335:E:/NeuOrga/Programmieren/c_cpp/github_os/input/src/os_base\os_common.c ****       return;
 336:E:/NeuOrga/Programmieren/c_cpp/github_os/input/src/os_base\os_common.c ****    }         
 337:E:/NeuOrga/Programmieren/c_cpp/github_os/input/src/os_base\os_common.c ****    for (pos = BIG_INT_SIZE-1u; pos >= 0; pos--)
 930              		.loc 1 337 0
 931 0646 C745FC0F 		movl	$15, -4(%ebp)
 931      000000
 932 064d EB77     		jmp	L71
 933              	L72:
 338:E:/NeuOrga/Programmieren/c_cpp/github_os/input/src/os_base\os_common.c ****    {
 339:E:/NeuOrga/Programmieren/c_cpp/github_os/input/src/os_base\os_common.c ****       ASSIGN_NULL(&tmpBigInt);
 934              		.loc 1 339 0 discriminator 3
 935 064f 8D45E8   		leal	-24(%ebp), %eax
 936 0652 890424   		movl	%eax, (%esp)
 937 0655 E829FFFF 		call	_ASSIGN_NULL
 937      FF
 340:E:/NeuOrga/Programmieren/c_cpp/github_os/input/src/os_base\os_common.c ****       tmp32 = ((uint32)number->number[(uint32)pos]) << amount_bits_shift;
 938              		.loc 1 340 0 discriminator 3
 939 065a 8B45FC   		movl	-4(%ebp), %eax
 940 065d 8B5508   		movl	8(%ebp), %edx
 941 0660 8A0402   		movb	(%edx,%eax), %al
 942 0663 0FB6D0   		movzbl	%al, %edx
 943 0666 8B450C   		movl	12(%ebp), %eax
 944 0669 88C1     		movb	%al, %cl
 945 066b D3E2     		sall	%cl, %edx
 946 066d 89D0     		movl	%edx, %eax
 947 066f 8945F8   		movl	%eax, -8(%ebp)
 341:E:/NeuOrga/Programmieren/c_cpp/github_os/input/src/os_base\os_common.c ****       tmpBigInt.number[(uint32)pos]      = (tmp32 >> 0u) & 0xFF;
 948              		.loc 1 341 0 discriminator 3
 949 0672 8B45FC   		movl	-4(%ebp), %eax
 950 0675 8B55F8   		movl	-8(%ebp), %edx
 951 0678 885405E8 		movb	%dl, -24(%ebp,%eax)
 342:E:/NeuOrga/Programmieren/c_cpp/github_os/input/src/os_base\os_common.c ****       tmpBigInt.number[(uint32)pos+1u]   = (tmp32 >> 8u) & 0xFF;
 952              		.loc 1 342 0 discriminator 3
 953 067c 8B45FC   		movl	-4(%ebp), %eax
GAS LISTING C:\Users\PRESID~1\AppData\Local\Temp\ccvbOxmE.s 			page 25


 954 067f 40       		incl	%eax
 955 0680 8B55F8   		movl	-8(%ebp), %edx
 956 0683 C1EA08   		shrl	$8, %edx
 957 0686 885405E8 		movb	%dl, -24(%ebp,%eax)
 343:E:/NeuOrga/Programmieren/c_cpp/github_os/input/src/os_base\os_common.c ****       tmpBigInt.number[(uint32)pos+2u]   = (tmp32 >>16u) & 0xFF;
 958              		.loc 1 343 0 discriminator 3
 959 068a 8B45FC   		movl	-4(%ebp), %eax
 960 068d 83C002   		addl	$2, %eax
 961 0690 8B55F8   		movl	-8(%ebp), %edx
 962 0693 C1EA10   		shrl	$16, %edx
 963 0696 885405E8 		movb	%dl, -24(%ebp,%eax)
 344:E:/NeuOrga/Programmieren/c_cpp/github_os/input/src/os_base\os_common.c ****       tmpBigInt.number[(uint32)pos+3u]   = (tmp32 >>24u) & 0xFF;
 964              		.loc 1 344 0 discriminator 3
 965 069a 8B45FC   		movl	-4(%ebp), %eax
 966 069d 83C003   		addl	$3, %eax
 967 06a0 8B55F8   		movl	-8(%ebp), %edx
 968 06a3 C1EA18   		shrl	$24, %edx
 969 06a6 885405E8 		movb	%dl, -24(%ebp,%eax)
 345:E:/NeuOrga/Programmieren/c_cpp/github_os/input/src/os_base\os_common.c ****       INT_ADD(&result, &result, &tmpBigInt);
 970              		.loc 1 345 0 discriminator 3
 971 06aa 8D45E8   		leal	-24(%ebp), %eax
 972 06ad 89442408 		movl	%eax, 8(%esp)
 973 06b1 8D45D8   		leal	-40(%ebp), %eax
 974 06b4 89442404 		movl	%eax, 4(%esp)
 975 06b8 8D45D8   		leal	-40(%ebp), %eax
 976 06bb 890424   		movl	%eax, (%esp)
 977 06be E8D7FBFF 		call	_INT_ADD
 977      FF
 337:E:/NeuOrga/Programmieren/c_cpp/github_os/input/src/os_base\os_common.c ****    {
 978              		.loc 1 337 0 discriminator 3
 979 06c3 FF4DFC   		decl	-4(%ebp)
 980              	L71:
 337:E:/NeuOrga/Programmieren/c_cpp/github_os/input/src/os_base\os_common.c ****    {
 981              		.loc 1 337 0 is_stmt 0 discriminator 1
 982 06c6 837DFC00 		cmpl	$0, -4(%ebp)
 983 06ca 7983     		jns	L72
 346:E:/NeuOrga/Programmieren/c_cpp/github_os/input/src/os_base\os_common.c ****    }    
 347:E:/NeuOrga/Programmieren/c_cpp/github_os/input/src/os_base\os_common.c ****    ASSIGN(number, &result);
 984              		.loc 1 347 0 is_stmt 1
 985 06cc 8D45D8   		leal	-40(%ebp), %eax
 986 06cf 89442404 		movl	%eax, 4(%esp)
 987 06d3 8B4508   		movl	8(%ebp), %eax
 988 06d6 890424   		movl	%eax, (%esp)
 989 06d9 E876FEFF 		call	_ASSIGN
 989      FF
 990              	L68:
 348:E:/NeuOrga/Programmieren/c_cpp/github_os/input/src/os_base\os_common.c **** }
 991              		.loc 1 348 0
 992 06de C9       		leave
 993              		.cfi_restore 5
 994              		.cfi_def_cfa 4, 4
 995 06df C3       		ret
 996              		.cfi_endproc
 997              	LFE16:
 998              		.globl	_get_uint32_of_4_uint8
 1000              	_get_uint32_of_4_uint8:
 1001              	LFB17:
GAS LISTING C:\Users\PRESID~1\AppData\Local\Temp\ccvbOxmE.s 			page 26


 349:E:/NeuOrga/Programmieren/c_cpp/github_os/input/src/os_base\os_common.c **** 
 350:E:/NeuOrga/Programmieren/c_cpp/github_os/input/src/os_base\os_common.c **** uint32 get_uint32_of_4_uint8(uint8* ptr)
 351:E:/NeuOrga/Programmieren/c_cpp/github_os/input/src/os_base\os_common.c **** {
 1002              		.loc 1 351 0
 1003              		.cfi_startproc
 1004 06e0 55       		pushl	%ebp
 1005              		.cfi_def_cfa_offset 8
 1006              		.cfi_offset 5, -8
 1007 06e1 89E5     		movl	%esp, %ebp
 1008              		.cfi_def_cfa_register 5
 1009 06e3 83EC10   		subl	$16, %esp
 352:E:/NeuOrga/Programmieren/c_cpp/github_os/input/src/os_base\os_common.c ****    uint32 ret_val = 0u;
 1010              		.loc 1 352 0
 1011 06e6 C745FC00 		movl	$0, -4(%ebp)
 1011      000000
 353:E:/NeuOrga/Programmieren/c_cpp/github_os/input/src/os_base\os_common.c **** 
 354:E:/NeuOrga/Programmieren/c_cpp/github_os/input/src/os_base\os_common.c ****    ret_val += ((uint32) *ptr)<< 24u;
 1012              		.loc 1 354 0
 1013 06ed 8B4508   		movl	8(%ebp), %eax
 1014 06f0 8A00     		movb	(%eax), %al
 1015 06f2 0FB6C0   		movzbl	%al, %eax
 1016 06f5 C1E018   		sall	$24, %eax
 1017 06f8 0145FC   		addl	%eax, -4(%ebp)
 355:E:/NeuOrga/Programmieren/c_cpp/github_os/input/src/os_base\os_common.c ****    ptr++;
 1018              		.loc 1 355 0
 1019 06fb FF4508   		incl	8(%ebp)
 356:E:/NeuOrga/Programmieren/c_cpp/github_os/input/src/os_base\os_common.c ****    ret_val += ((uint32) *ptr)<< 16u;
 1020              		.loc 1 356 0
 1021 06fe 8B4508   		movl	8(%ebp), %eax
 1022 0701 8A00     		movb	(%eax), %al
 1023 0703 0FB6C0   		movzbl	%al, %eax
 1024 0706 C1E010   		sall	$16, %eax
 1025 0709 0145FC   		addl	%eax, -4(%ebp)
 357:E:/NeuOrga/Programmieren/c_cpp/github_os/input/src/os_base\os_common.c ****    ptr++;
 1026              		.loc 1 357 0
 1027 070c FF4508   		incl	8(%ebp)
 358:E:/NeuOrga/Programmieren/c_cpp/github_os/input/src/os_base\os_common.c ****    ret_val += ((uint32) *ptr)<< 8u;
 1028              		.loc 1 358 0
 1029 070f 8B4508   		movl	8(%ebp), %eax
 1030 0712 8A00     		movb	(%eax), %al
 1031 0714 0FB6C0   		movzbl	%al, %eax
 1032 0717 C1E008   		sall	$8, %eax
 1033 071a 0145FC   		addl	%eax, -4(%ebp)
 359:E:/NeuOrga/Programmieren/c_cpp/github_os/input/src/os_base\os_common.c ****    ptr++;
 1034              		.loc 1 359 0
 1035 071d FF4508   		incl	8(%ebp)
 360:E:/NeuOrga/Programmieren/c_cpp/github_os/input/src/os_base\os_common.c ****    ret_val += ((uint32) *ptr)<< 0u;
 1036              		.loc 1 360 0
 1037 0720 8B4508   		movl	8(%ebp), %eax
 1038 0723 8A00     		movb	(%eax), %al
 1039 0725 0FB6C0   		movzbl	%al, %eax
 1040 0728 0145FC   		addl	%eax, -4(%ebp)
 361:E:/NeuOrga/Programmieren/c_cpp/github_os/input/src/os_base\os_common.c **** 
 362:E:/NeuOrga/Programmieren/c_cpp/github_os/input/src/os_base\os_common.c ****    return ret_val;
 1041              		.loc 1 362 0
 1042 072b 8B45FC   		movl	-4(%ebp), %eax
 363:E:/NeuOrga/Programmieren/c_cpp/github_os/input/src/os_base\os_common.c **** }
GAS LISTING C:\Users\PRESID~1\AppData\Local\Temp\ccvbOxmE.s 			page 27


 1043              		.loc 1 363 0
 1044 072e C9       		leave
 1045              		.cfi_restore 5
 1046              		.cfi_def_cfa 4, 4
 1047 072f C3       		ret
 1048              		.cfi_endproc
 1049              	LFE17:
 1050              		.globl	_set_4_uint8_to_uint32
 1052              	_set_4_uint8_to_uint32:
 1053              	LFB18:
 364:E:/NeuOrga/Programmieren/c_cpp/github_os/input/src/os_base\os_common.c **** void set_4_uint8_to_uint32(uint8* ptr, uint32 value)
 365:E:/NeuOrga/Programmieren/c_cpp/github_os/input/src/os_base\os_common.c **** {
 1054              		.loc 1 365 0
 1055              		.cfi_startproc
 1056 0730 55       		pushl	%ebp
 1057              		.cfi_def_cfa_offset 8
 1058              		.cfi_offset 5, -8
 1059 0731 89E5     		movl	%esp, %ebp
 1060              		.cfi_def_cfa_register 5
 366:E:/NeuOrga/Programmieren/c_cpp/github_os/input/src/os_base\os_common.c ****    *ptr = (value >>24u)&0xFFu;
 1061              		.loc 1 366 0
 1062 0733 8B450C   		movl	12(%ebp), %eax
 1063 0736 C1E818   		shrl	$24, %eax
 1064 0739 88C2     		movb	%al, %dl
 1065 073b 8B4508   		movl	8(%ebp), %eax
 1066 073e 8810     		movb	%dl, (%eax)
 367:E:/NeuOrga/Programmieren/c_cpp/github_os/input/src/os_base\os_common.c ****    ptr++;
 1067              		.loc 1 367 0
 1068 0740 FF4508   		incl	8(%ebp)
 368:E:/NeuOrga/Programmieren/c_cpp/github_os/input/src/os_base\os_common.c ****    *ptr = (value >>16u)&0xFFu;
 1069              		.loc 1 368 0
 1070 0743 8B450C   		movl	12(%ebp), %eax
 1071 0746 C1E810   		shrl	$16, %eax
 1072 0749 88C2     		movb	%al, %dl
 1073 074b 8B4508   		movl	8(%ebp), %eax
 1074 074e 8810     		movb	%dl, (%eax)
 369:E:/NeuOrga/Programmieren/c_cpp/github_os/input/src/os_base\os_common.c ****    ptr++;
 1075              		.loc 1 369 0
 1076 0750 FF4508   		incl	8(%ebp)
 370:E:/NeuOrga/Programmieren/c_cpp/github_os/input/src/os_base\os_common.c ****    *ptr = (value >>8u)&0xFFu;
 1077              		.loc 1 370 0
 1078 0753 8B450C   		movl	12(%ebp), %eax
 1079 0756 C1E808   		shrl	$8, %eax
 1080 0759 88C2     		movb	%al, %dl
 1081 075b 8B4508   		movl	8(%ebp), %eax
 1082 075e 8810     		movb	%dl, (%eax)
 371:E:/NeuOrga/Programmieren/c_cpp/github_os/input/src/os_base\os_common.c ****    ptr++;
 1083              		.loc 1 371 0
 1084 0760 FF4508   		incl	8(%ebp)
 372:E:/NeuOrga/Programmieren/c_cpp/github_os/input/src/os_base\os_common.c ****    *ptr = (value >>0u)&0xFFu;
 1085              		.loc 1 372 0
 1086 0763 8B450C   		movl	12(%ebp), %eax
 1087 0766 88C2     		movb	%al, %dl
 1088 0768 8B4508   		movl	8(%ebp), %eax
 1089 076b 8810     		movb	%dl, (%eax)
 373:E:/NeuOrga/Programmieren/c_cpp/github_os/input/src/os_base\os_common.c **** }
 1090              		.loc 1 373 0
GAS LISTING C:\Users\PRESID~1\AppData\Local\Temp\ccvbOxmE.s 			page 28


 1091 076d 5D       		popl	%ebp
 1092              		.cfi_restore 5
 1093              		.cfi_def_cfa 4, 4
 1094 076e C3       		ret
 1095              		.cfi_endproc
 1096              	LFE18:
 1097              	Letext0:
 1098              		.file 2 "E:/NeuOrga/Programmieren/c_cpp/github_os/input/src/os_base/../os_base/os_base_types.h"
 1099              		.file 3 "E:/NeuOrga/Programmieren/c_cpp/github_os/input/src/os_base/../os_base/os_common.h"
 1100              		.file 4 "E:/NeuOrga/Programmieren/c_cpp/github_os/input/src/os_base/../os_base/os_ram.h"
 1101 076f 90       		.section	.debug_info,"dr"
 1102              	Ldebug_info0:
 1103 0000 DC0D0000 		.long	0xddc
 1104 0004 0400     		.word	0x4
 1105 0006 00000000 		.secrel32	Ldebug_abbrev0
 1106 000a 04       		.byte	0x4
 1107 000b 01       		.uleb128 0x1
 1108 000c 474E5520 		.ascii "GNU C 4.9.3 -march=i386 -g3 -O0 -std=c90\0"
 1108      4320342E 
 1108      392E3320 
 1108      2D6D6172 
 1108      63683D69 
 1109 0035 01       		.byte	0x1
 1110 0036 453A5C4E 		.ascii "E:\\NeuOrga\\Programmieren\\c_cpp\\github_os\\input\\src\\os_base\\os_common.c\0"
 1110      65754F72 
 1110      67615C50 
 1110      726F6772 
 1110      616D6D69 
 1111 007d 00000000 		.long	Ltext0
 1112 0081 6F070000 		.long	Letext0-Ltext0
 1113 0085 00000000 		.secrel32	Ldebug_line0
 1114 0089 00000000 		.secrel32	Ldebug_macro0
 1115 008d 02       		.uleb128 0x2
 1116 008e 01       		.byte	0x1
 1117 008f 08       		.byte	0x8
 1118 0090 756E7369 		.ascii "unsigned char\0"
 1118      676E6564 
 1118      20636861 
 1118      7200
 1119 009e 02       		.uleb128 0x2
 1120 009f 01       		.byte	0x1
 1121 00a0 06       		.byte	0x6
 1122 00a1 7369676E 		.ascii "signed char\0"
 1122      65642063 
 1122      68617200 
 1123 00ad 03       		.uleb128 0x3
 1124 00ae 75696E74 		.ascii "uint8\0"
 1124      3800
 1125 00b4 02       		.byte	0x2
 1126 00b5 15       		.byte	0x15
 1127 00b6 8D000000 		.long	0x8d
 1128 00ba 03       		.uleb128 0x3
 1129 00bb 73696E74 		.ascii "sint8\0"
 1129      3800
 1130 00c1 02       		.byte	0x2
 1131 00c2 16       		.byte	0x16
 1132 00c3 9E000000 		.long	0x9e
GAS LISTING C:\Users\PRESID~1\AppData\Local\Temp\ccvbOxmE.s 			page 29


 1133 00c7 02       		.uleb128 0x2
 1134 00c8 02       		.byte	0x2
 1135 00c9 07       		.byte	0x7
 1136 00ca 73686F72 		.ascii "short unsigned int\0"
 1136      7420756E 
 1136      7369676E 
 1136      65642069 
 1136      6E7400
 1137 00dd 02       		.uleb128 0x2
 1138 00de 02       		.byte	0x2
 1139 00df 05       		.byte	0x5
 1140 00e0 73686F72 		.ascii "short int\0"
 1140      7420696E 
 1140      7400
 1141 00ea 03       		.uleb128 0x3
 1142 00eb 75696E74 		.ascii "uint16\0"
 1142      313600
 1143 00f2 02       		.byte	0x2
 1144 00f3 19       		.byte	0x19
 1145 00f4 C7000000 		.long	0xc7
 1146 00f8 02       		.uleb128 0x2
 1147 00f9 04       		.byte	0x4
 1148 00fa 07       		.byte	0x7
 1149 00fb 6C6F6E67 		.ascii "long unsigned int\0"
 1149      20756E73 
 1149      69676E65 
 1149      6420696E 
 1149      7400
 1150 010d 02       		.uleb128 0x2
 1151 010e 04       		.byte	0x4
 1152 010f 05       		.byte	0x5
 1153 0110 6C6F6E67 		.ascii "long int\0"
 1153      20696E74 
 1153      00
 1154 0119 03       		.uleb128 0x3
 1155 011a 75696E74 		.ascii "uint32\0"
 1155      333200
 1156 0121 02       		.byte	0x2
 1157 0122 1D       		.byte	0x1d
 1158 0123 F8000000 		.long	0xf8
 1159 0127 03       		.uleb128 0x3
 1160 0128 73696E74 		.ascii "sint32\0"
 1160      333200
 1161 012f 02       		.byte	0x2
 1162 0130 1E       		.byte	0x1e
 1163 0131 0D010000 		.long	0x10d
 1164 0135 04       		.uleb128 0x4
 1165 0136 6F735F73 		.ascii "os_sw_bugs_e\0"
 1165      775F6275 
 1165      67735F65 
 1165      00
 1166 0143 04       		.byte	0x4
 1167 0144 03       		.byte	0x3
 1168 0145 2D       		.byte	0x2d
 1169 0146 09030000 		.long	0x309
 1170 014a 05       		.uleb128 0x5
 1171 014b 455F4F53 		.ascii "E_OS_BUG_NO_BUG\0"
GAS LISTING C:\Users\PRESID~1\AppData\Local\Temp\ccvbOxmE.s 			page 30


 1171      5F425547 
 1171      5F4E4F5F 
 1171      42554700 
 1172 015b 00       		.sleb128 0
 1173 015c 05       		.uleb128 0x5
 1174 015d 455F4F53 		.ascii "E_OS_BUG_TASKSTATE_REQUEST_DENIED\0"
 1174      5F425547 
 1174      5F544153 
 1174      4B535441 
 1174      54455F52 
 1175 017f 01       		.sleb128 1
 1176 0180 05       		.uleb128 0x5
 1177 0181 455F4F53 		.ascii "E_OS_BUG_NULL_POINTER\0"
 1177      5F425547 
 1177      5F4E554C 
 1177      4C5F504F 
 1177      494E5445 
 1178 0197 02       		.sleb128 2
 1179 0198 05       		.uleb128 0x5
 1180 0199 455F4F53 		.ascii "E_OS_BUG_TASK_MAX_WAIT_TIME_REACHED\0"
 1180      5F425547 
 1180      5F544153 
 1180      4B5F4D41 
 1180      585F5741 
 1181 01bd 03       		.sleb128 3
 1182 01be 05       		.uleb128 0x5
 1183 01bf 455F4F53 		.ascii "E_OS_BUG_TASK_UNSPECIFIED\0"
 1183      5F425547 
 1183      5F544153 
 1183      4B5F554E 
 1183      53504543 
 1184 01d9 04       		.sleb128 4
 1185 01da 05       		.uleb128 0x5
 1186 01db 455F4F53 		.ascii "E_OS_BUG_EXCEPTION_UNDEFINSTRUCTION\0"
 1186      5F425547 
 1186      5F455843 
 1186      45505449 
 1186      4F4E5F55 
 1187 01ff 05       		.sleb128 5
 1188 0200 05       		.uleb128 0x5
 1189 0201 455F4F53 		.ascii "E_OS_BUG_EXCEPTION_ABORTPREFETCH\0"
 1189      5F425547 
 1189      5F455843 
 1189      45505449 
 1189      4F4E5F41 
 1190 0222 06       		.sleb128 6
 1191 0223 05       		.uleb128 0x5
 1192 0224 455F4F53 		.ascii "E_OS_BUG_EXCEPTION_ABORTDATA\0"
 1192      5F425547 
 1192      5F455843 
 1192      45505449 
 1192      4F4E5F41 
 1193 0241 07       		.sleb128 7
 1194 0242 05       		.uleb128 0x5
 1195 0243 455F4F53 		.ascii "E_OS_BUG_RESET_EXIT_OR_SHUTDOWN_FAILED\0"
 1195      5F425547 
 1195      5F524553 
GAS LISTING C:\Users\PRESID~1\AppData\Local\Temp\ccvbOxmE.s 			page 31


 1195      45545F45 
 1195      5849545F 
 1196 026a 08       		.sleb128 8
 1197 026b 05       		.uleb128 0x5
 1198 026c 455F4F53 		.ascii "E_OS_BUG_CRITICAL_STACK_USAGE\0"
 1198      5F425547 
 1198      5F435249 
 1198      54494341 
 1198      4C5F5354 
 1199 028a 09       		.sleb128 9
 1200 028b 05       		.uleb128 0x5
 1201 028c 455F4F53 		.ascii "E_OS_BUG_SVC_NUMBER_MISSING\0"
 1201      5F425547 
 1201      5F535643 
 1201      5F4E554D 
 1201      4245525F 
 1202 02a8 0A       		.sleb128 10
 1203 02a9 05       		.uleb128 0x5
 1204 02aa 455F4F53 		.ascii "E_OS_BUG_MAX_WAIT_TIME_REACHED\0"
 1204      5F425547 
 1204      5F4D4158 
 1204      5F574149 
 1204      545F5449 
 1205 02c9 0B       		.sleb128 11
 1206 02ca 05       		.uleb128 0x5
 1207 02cb 455F4F53 		.ascii "E_OS_BUG_DIVISION_BY_ZERO\0"
 1207      5F425547 
 1207      5F444956 
 1207      4953494F 
 1207      4E5F4259 
 1208 02e5 0C       		.sleb128 12
 1209 02e6 05       		.uleb128 0x5
 1210 02e7 455F4F53 		.ascii "E_OS_BUG_BIT_SHIFT_OUT_OF_RANGE\0"
 1210      5F425547 
 1210      5F424954 
 1210      5F534849 
 1210      46545F4F 
 1211 0307 0D       		.sleb128 13
 1212 0308 00       		.byte	0
 1213 0309 03       		.uleb128 0x3
 1214 030a 6F735F73 		.ascii "os_sw_bugs_t\0"
 1214      775F6275 
 1214      67735F74 
 1214      00
 1215 0317 03       		.byte	0x3
 1216 0318 3E       		.byte	0x3e
 1217 0319 35010000 		.long	0x135
 1218 031d 03       		.uleb128 0x3
 1219 031e 626F6F6C 		.ascii "boolean_t\0"
 1219      65616E5F 
 1219      7400
 1220 0328 03       		.byte	0x3
 1221 0329 3F       		.byte	0x3f
 1222 032a AD000000 		.long	0xad
 1223 032e 04       		.uleb128 0x4
 1224 032f 6F735F73 		.ascii "os_sw_bugs_function_e\0"
 1224      775F6275 
GAS LISTING C:\Users\PRESID~1\AppData\Local\Temp\ccvbOxmE.s 			page 32


 1224      67735F66 
 1224      756E6374 
 1224      696F6E5F 
 1225 0345 04       		.byte	0x4
 1226 0346 03       		.byte	0x3
 1227 0347 42       		.byte	0x42
 1228 0348 46050000 		.long	0x546
 1229 034c 05       		.uleb128 0x5
 1230 034d 455F4655 		.ascii "E_FUNC_NOFUNCTION\0"
 1230      4E435F4E 
 1230      4F46554E 
 1230      4354494F 
 1230      4E00
 1231 035f 00       		.sleb128 0
 1232 0360 05       		.uleb128 0x5
 1233 0361 455F4655 		.ascii "E_FUNC_SAVETASKENVIRONMENT\0"
 1233      4E435F53 
 1233      41564554 
 1233      41534B45 
 1233      4E564952 
 1234 037c 01       		.sleb128 1
 1235 037d 05       		.uleb128 0x5
 1236 037e 455F4655 		.ascii "E_FUNC_RESTORETASKENVIRONMENT\0"
 1236      4E435F52 
 1236      4553544F 
 1236      52455441 
 1236      534B454E 
 1237 039c 02       		.sleb128 2
 1238 039d 05       		.uleb128 0x5
 1239 039e 455F4655 		.ascii "E_FUNC_CREATETASKENVIRONMENT\0"
 1239      4E435F43 
 1239      52454154 
 1239      45544153 
 1239      4B454E56 
 1240 03bb 03       		.sleb128 3
 1241 03bc 05       		.uleb128 0x5
 1242 03bd 455F4655 		.ascii "E_FUNC_DELETETASKENVIRONMENT\0"
 1242      4E435F44 
 1242      454C4554 
 1242      45544153 
 1242      4B454E56 
 1243 03da 04       		.sleb128 4
 1244 03db 05       		.uleb128 0x5
 1245 03dc 455F4655 		.ascii "E_FUNC_INITTASKENVIRONMENT\0"
 1245      4E435F49 
 1245      4E495454 
 1245      41534B45 
 1245      4E564952 
 1246 03f7 05       		.sleb128 5
 1247 03f8 05       		.uleb128 0x5
 1248 03f9 455F4655 		.ascii "E_FUNC_STARTTASK\0"
 1248      4E435F53 
 1248      54415254 
 1248      5441534B 
 1248      00
 1249 040a 06       		.sleb128 6
 1250 040b 05       		.uleb128 0x5
GAS LISTING C:\Users\PRESID~1\AppData\Local\Temp\ccvbOxmE.s 			page 33


 1251 040c 455F4655 		.ascii "E_FUNC_PREEMPTTASK\0"
 1251      4E435F50 
 1251      5245454D 
 1251      50545441 
 1251      534B00
 1252 041f 07       		.sleb128 7
 1253 0420 05       		.uleb128 0x5
 1254 0421 455F4655 		.ascii "E_FUNC_TERMINATETASK\0"
 1254      4E435F54 
 1254      45524D49 
 1254      4E415445 
 1254      5441534B 
 1255 0436 08       		.sleb128 8
 1256 0437 05       		.uleb128 0x5
 1257 0438 455F4655 		.ascii "E_FUNC_TASKSCHEDULER\0"
 1257      4E435F54 
 1257      41534B53 
 1257      43484544 
 1257      554C4552 
 1258 044d 09       		.sleb128 9
 1259 044e 05       		.uleb128 0x5
 1260 044f 455F4655 		.ascii "E_FUNC_INITTASK\0"
 1260      4E435F49 
 1260      4E495454 
 1260      41534B00 
 1261 045f 0A       		.sleb128 10
 1262 0460 05       		.uleb128 0x5
 1263 0461 455F4655 		.ascii "E_FUNC_ACTIVATETASK\0"
 1263      4E435F41 
 1263      43544956 
 1263      41544554 
 1263      41534B00 
 1264 0475 0B       		.sleb128 11
 1265 0476 05       		.uleb128 0x5
 1266 0477 455F4655 		.ascii "E_FUNC_TASKSTATEREQUEST\0"
 1266      4E435F54 
 1266      41534B53 
 1266      54415445 
 1266      52455155 
 1267 048f 0C       		.sleb128 12
 1268 0490 05       		.uleb128 0x5
 1269 0491 455F4655 		.ascii "E_FUNC_PREEMPT_TASK\0"
 1269      4E435F50 
 1269      5245454D 
 1269      50545F54 
 1269      41534B00 
 1270 04a5 0D       		.sleb128 13
 1271 04a6 05       		.uleb128 0x5
 1272 04a7 455F4655 		.ascii "E_FUNC_OS_EXCEPTION\0"
 1272      4E435F4F 
 1272      535F4558 
 1272      43455054 
 1272      494F4E00 
 1273 04bb 0E       		.sleb128 14
 1274 04bc 05       		.uleb128 0x5
 1275 04bd 455F4655 		.ascii "E_FUNC_CREATETASK\0"
 1275      4E435F43 
GAS LISTING C:\Users\PRESID~1\AppData\Local\Temp\ccvbOxmE.s 			page 34


 1275      52454154 
 1275      45544153 
 1275      4B00
 1276 04cf 0F       		.sleb128 15
 1277 04d0 05       		.uleb128 0x5
 1278 04d1 455F4655 		.ascii "E_FUNC_SHUTDOWN\0"
 1278      4E435F53 
 1278      48555444 
 1278      4F574E00 
 1279 04e1 10       		.sleb128 16
 1280 04e2 05       		.uleb128 0x5
 1281 04e3 455F4655 		.ascii "E_FUNC_STACKCHECK\0"
 1281      4E435F53 
 1281      5441434B 
 1281      43484543 
 1281      4B00
 1282 04f5 11       		.sleb128 17
 1283 04f6 05       		.uleb128 0x5
 1284 04f7 455F4655 		.ascii "E_FUNC_ISRHANDLER\0"
 1284      4E435F49 
 1284      53524841 
 1284      4E444C45 
 1284      5200
 1285 0509 12       		.sleb128 18
 1286 050a 05       		.uleb128 0x5
 1287 050b 455F4655 		.ascii "E_FUNC_STATE_HANDLER\0"
 1287      4E435F53 
 1287      54415445 
 1287      5F48414E 
 1287      444C4552 
 1288 0520 13       		.sleb128 19
 1289 0521 05       		.uleb128 0x5
 1290 0522 455F4655 		.ascii "E_FUNC_INTDIV\0"
 1290      4E435F49 
 1290      4E544449 
 1290      5600
 1291 0530 14       		.sleb128 20
 1292 0531 05       		.uleb128 0x5
 1293 0532 455F4655 		.ascii "E_FUNC_SHIFT_LEFT\0"
 1293      4E435F53 
 1293      48494654 
 1293      5F4C4546 
 1293      5400
 1294 0544 15       		.sleb128 21
 1295 0545 00       		.byte	0
 1296 0546 03       		.uleb128 0x3
 1297 0547 6F735F73 		.ascii "os_sw_bugs_function_t\0"
 1297      775F6275 
 1297      67735F66 
 1297      756E6374 
 1297      696F6E5F 
 1298 055d 03       		.byte	0x3
 1299 055e 5B       		.byte	0x5b
 1300 055f 2E030000 		.long	0x32e
 1301 0563 06       		.uleb128 0x6
 1302 0564 6269675F 		.ascii "big_int_s\0"
 1302      696E745F 
GAS LISTING C:\Users\PRESID~1\AppData\Local\Temp\ccvbOxmE.s 			page 35


 1302      7300
 1303 056e 10       		.byte	0x10
 1304 056f 03       		.byte	0x3
 1305 0570 62       		.byte	0x62
 1306 0571 85050000 		.long	0x585
 1307 0575 07       		.uleb128 0x7
 1308 0576 6E756D62 		.ascii "number\0"
 1308      657200
 1309 057d 03       		.byte	0x3
 1310 057e 6B       		.byte	0x6b
 1311 057f 85050000 		.long	0x585
 1312 0583 00       		.byte	0
 1313 0584 00       		.byte	0
 1314 0585 08       		.uleb128 0x8
 1315 0586 AD000000 		.long	0xad
 1316 058a 95050000 		.long	0x595
 1317 058e 09       		.uleb128 0x9
 1318 058f 95050000 		.long	0x595
 1319 0593 0F       		.byte	0xf
 1320 0594 00       		.byte	0
 1321 0595 02       		.uleb128 0x2
 1322 0596 04       		.byte	0x4
 1323 0597 07       		.byte	0x7
 1324 0598 73697A65 		.ascii "sizetype\0"
 1324      74797065 
 1324      00
 1325 05a1 03       		.uleb128 0x3
 1326 05a2 6269675F 		.ascii "big_int\0"
 1326      696E7400 
 1327 05aa 03       		.byte	0x3
 1328 05ab 6C       		.byte	0x6c
 1329 05ac 63050000 		.long	0x563
 1330 05b0 03       		.uleb128 0x3
 1331 05b1 74696D65 		.ascii "timebig_t\0"
 1331      6269675F 
 1331      7400
 1332 05bb 03       		.byte	0x3
 1333 05bc 6E       		.byte	0x6e
 1334 05bd A1050000 		.long	0x5a1
 1335 05c1 02       		.uleb128 0x2
 1336 05c2 04       		.byte	0x4
 1337 05c3 07       		.byte	0x7
 1338 05c4 756E7369 		.ascii "unsigned int\0"
 1338      676E6564 
 1338      20696E74 
 1338      00
 1339 05d1 0A       		.uleb128 0xa
 1340 05d2 4F535F53 		.ascii "OS_SET_SW_BUG\0"
 1340      45545F53 
 1340      575F4255 
 1340      4700
 1341 05e0 01       		.byte	0x1
 1342 05e1 04       		.byte	0x4
 1343 05e2 00000000 		.long	LFB0
 1344 05e6 12000000 		.long	LFE0-LFB0
 1345 05ea 01       		.uleb128 0x1
 1346 05eb 9C       		.byte	0x9c
GAS LISTING C:\Users\PRESID~1\AppData\Local\Temp\ccvbOxmE.s 			page 36


 1347 05ec 19060000 		.long	0x619
 1348 05f0 0B       		.uleb128 0xb
 1349 05f1 6275675F 		.ascii "bug_nr\0"
 1349      6E7200
 1350 05f8 01       		.byte	0x1
 1351 05f9 04       		.byte	0x4
 1352 05fa 09030000 		.long	0x309
 1353 05fe 02       		.uleb128 0x2
 1354 05ff 91       		.byte	0x91
 1355 0600 00       		.sleb128 0
 1356 0601 0B       		.uleb128 0xb
 1357 0602 7461736B 		.ascii "task_func_nr\0"
 1357      5F66756E 
 1357      635F6E72 
 1357      00
 1358 060f 01       		.byte	0x1
 1359 0610 04       		.byte	0x4
 1360 0611 46050000 		.long	0x546
 1361 0615 02       		.uleb128 0x2
 1362 0616 91       		.byte	0x91
 1363 0617 04       		.sleb128 4
 1364 0618 00       		.byte	0
 1365 0619 0C       		.uleb128 0xc
 1366 061a 4F535F47 		.ascii "OS_GET_CURRENT_TIME\0"
 1366      45545F43 
 1366      55525245 
 1366      4E545F54 
 1366      494D4500 
 1367 062e 01       		.byte	0x1
 1368 062f 0B       		.byte	0xb
 1369 0630 12000000 		.long	LFB1
 1370 0634 20000000 		.long	LFE1-LFB1
 1371 0638 01       		.uleb128 0x1
 1372 0639 9C       		.byte	0x9c
 1373 063a 4E060000 		.long	0x64e
 1374 063e 0B       		.uleb128 0xb
 1375 063f 74696D65 		.ascii "time\0"
 1375      00
 1376 0644 01       		.byte	0x1
 1377 0645 0B       		.byte	0xb
 1378 0646 4E060000 		.long	0x64e
 1379 064a 02       		.uleb128 0x2
 1380 064b 91       		.byte	0x91
 1381 064c 00       		.sleb128 0
 1382 064d 00       		.byte	0
 1383 064e 0D       		.uleb128 0xd
 1384 064f 04       		.byte	0x4
 1385 0650 B0050000 		.long	0x5b0
 1386 0654 0C       		.uleb128 0xc
 1387 0655 4F535F55 		.ascii "OS_UpdateCurrentTime\0"
 1387      70646174 
 1387      65437572 
 1387      72656E74 
 1387      54696D65 
 1388 066a 01       		.byte	0x1
 1389 066b 13       		.byte	0x13
 1390 066c 32000000 		.long	LFB2
GAS LISTING C:\Users\PRESID~1\AppData\Local\Temp\ccvbOxmE.s 			page 37


 1391 0670 2E000000 		.long	LFE2-LFB2
 1392 0674 01       		.uleb128 0x1
 1393 0675 9C       		.byte	0x9c
 1394 0676 8E060000 		.long	0x68e
 1395 067a 0E       		.uleb128 0xe
 1396 067b 746D705F 		.ascii "tmp_time\0"
 1396      74696D65 
 1396      00
 1397 0684 01       		.byte	0x1
 1398 0685 18       		.byte	0x18
 1399 0686 B0050000 		.long	0x5b0
 1400 068a 02       		.uleb128 0x2
 1401 068b 91       		.byte	0x91
 1402 068c 60       		.sleb128 -32
 1403 068d 00       		.byte	0
 1404 068e 0C       		.uleb128 0xc
 1405 068f 4F535F52 		.ascii "OS_READ_AND_RESET_CURRENT_TIME\0"
 1405      4541445F 
 1405      414E445F 
 1405      52455345 
 1405      545F4355 
 1406 06ae 01       		.byte	0x1
 1407 06af 1F       		.byte	0x1f
 1408 06b0 60000000 		.long	LFB3
 1409 06b4 1B000000 		.long	LFE3-LFB3
 1410 06b8 01       		.uleb128 0x1
 1411 06b9 9C       		.byte	0x9c
 1412 06ba D1060000 		.long	0x6d1
 1413 06be 0B       		.uleb128 0xb
 1414 06bf 74696D65 		.ascii "timebig\0"
 1414      62696700 
 1415 06c7 01       		.byte	0x1
 1416 06c8 1F       		.byte	0x1f
 1417 06c9 4E060000 		.long	0x64e
 1418 06cd 02       		.uleb128 0x2
 1419 06ce 91       		.byte	0x91
 1420 06cf 00       		.sleb128 0
 1421 06d0 00       		.byte	0
 1422 06d1 0C       		.uleb128 0xc
 1423 06d2 494E545F 		.ascii "INT_DIV\0"
 1423      44495600 
 1424 06da 01       		.byte	0x1
 1425 06db 3A       		.byte	0x3a
 1426 06dc 7B000000 		.long	LFB4
 1427 06e0 66010000 		.long	LFE4-LFB4
 1428 06e4 01       		.uleb128 0x1
 1429 06e5 9C       		.byte	0x9c
 1430 06e6 FD070000 		.long	0x7fd
 1431 06ea 0B       		.uleb128 0xb
 1432 06eb 51756F74 		.ascii "Quotient\0"
 1432      69656E74 
 1432      00
 1433 06f4 01       		.byte	0x1
 1434 06f5 3A       		.byte	0x3a
 1435 06f6 FD070000 		.long	0x7fd
 1436 06fa 02       		.uleb128 0x2
 1437 06fb 91       		.byte	0x91
GAS LISTING C:\Users\PRESID~1\AppData\Local\Temp\ccvbOxmE.s 			page 38


 1438 06fc 00       		.sleb128 0
 1439 06fd 0B       		.uleb128 0xb
 1440 06fe 44697669 		.ascii "Dividend\0"
 1440      64656E64 
 1440      00
 1441 0707 01       		.byte	0x1
 1442 0708 3A       		.byte	0x3a
 1443 0709 03080000 		.long	0x803
 1444 070d 02       		.uleb128 0x2
 1445 070e 91       		.byte	0x91
 1446 070f 04       		.sleb128 4
 1447 0710 0B       		.uleb128 0xb
 1448 0711 44697669 		.ascii "Divisor\0"
 1448      736F7200 
 1449 0719 01       		.byte	0x1
 1450 071a 3A       		.byte	0x3a
 1451 071b 03080000 		.long	0x803
 1452 071f 02       		.uleb128 0x2
 1453 0720 91       		.byte	0x91
 1454 0721 08       		.sleb128 8
 1455 0722 0E       		.uleb128 0xe
 1456 0723 6E696262 		.ascii "nibble_shift_left_amount\0"
 1456      6C655F73 
 1456      68696674 
 1456      5F6C6566 
 1456      745F616D 
 1457 073c 01       		.byte	0x1
 1458 073d 4B       		.byte	0x4b
 1459 073e 19010000 		.long	0x119
 1460 0742 02       		.uleb128 0x2
 1461 0743 91       		.byte	0x91
 1462 0744 6C       		.sleb128 -20
 1463 0745 0E       		.uleb128 0xe
 1464 0746 6C6F6361 		.ascii "local_zero\0"
 1464      6C5F7A65 
 1464      726F00
 1465 0751 01       		.byte	0x1
 1466 0752 4C       		.byte	0x4c
 1467 0753 A1050000 		.long	0x5a1
 1468 0757 02       		.uleb128 0x2
 1469 0758 91       		.byte	0x91
 1470 0759 50       		.sleb128 -48
 1471 075a 0E       		.uleb128 0xe
 1472 075b 746D705F 		.ascii "tmp_Dividend\0"
 1472      44697669 
 1472      64656E64 
 1472      00
 1473 0768 01       		.byte	0x1
 1474 0769 4D       		.byte	0x4d
 1475 076a A1050000 		.long	0x5a1
 1476 076e 02       		.uleb128 0x2
 1477 076f 91       		.byte	0x91
 1478 0770 40       		.sleb128 -64
 1479 0771 0E       		.uleb128 0xe
 1480 0772 746D705F 		.ascii "tmp_Divisor\0"
 1480      44697669 
 1480      736F7200 
GAS LISTING C:\Users\PRESID~1\AppData\Local\Temp\ccvbOxmE.s 			page 39


 1481 077e 01       		.byte	0x1
 1482 077f 4D       		.byte	0x4d
 1483 0780 A1050000 		.long	0x5a1
 1484 0784 03       		.uleb128 0x3
 1485 0785 91       		.byte	0x91
 1486 0786 B07F     		.sleb128 -80
 1487 0788 0E       		.uleb128 0xe
 1488 0789 72657374 		.ascii "rest\0"
 1488      00
 1489 078e 01       		.byte	0x1
 1490 078f 4E       		.byte	0x4e
 1491 0790 A1050000 		.long	0x5a1
 1492 0794 03       		.uleb128 0x3
 1493 0795 91       		.byte	0x91
 1494 0796 A07F     		.sleb128 -96
 1495 0798 0E       		.uleb128 0xe
 1496 0799 6C6F6361 		.ascii "local_cnt\0"
 1496      6C5F636E 
 1496      7400
 1497 07a3 01       		.byte	0x1
 1498 07a4 4F       		.byte	0x4f
 1499 07a5 19010000 		.long	0x119
 1500 07a9 02       		.uleb128 0x2
 1501 07aa 91       		.byte	0x91
 1502 07ab 68       		.sleb128 -24
 1503 07ac 0E       		.uleb128 0xe
 1504 07ad 6F6E655F 		.ascii "one_shifted_nibble\0"
 1504      73686966 
 1504      7465645F 
 1504      6E696262 
 1504      6C6500
 1505 07c0 01       		.byte	0x1
 1506 07c1 50       		.byte	0x50
 1507 07c2 19010000 		.long	0x119
 1508 07c6 02       		.uleb128 0x2
 1509 07c7 91       		.byte	0x91
 1510 07c8 64       		.sleb128 -28
 1511 07c9 0E       		.uleb128 0xe
 1512 07ca 7533325F 		.ascii "u32_teilergebnis\0"
 1512      7465696C 
 1512      65726765 
 1512      626E6973 
 1512      00
 1513 07db 01       		.byte	0x1
 1514 07dc 51       		.byte	0x51
 1515 07dd 19010000 		.long	0x119
 1516 07e1 02       		.uleb128 0x2
 1517 07e2 91       		.byte	0x91
 1518 07e3 60       		.sleb128 -32
 1519 07e4 0E       		.uleb128 0xe
 1520 07e5 7465696C 		.ascii "teilergebnis\0"
 1520      65726765 
 1520      626E6973 
 1520      00
 1521 07f2 01       		.byte	0x1
 1522 07f3 52       		.byte	0x52
 1523 07f4 A1050000 		.long	0x5a1
GAS LISTING C:\Users\PRESID~1\AppData\Local\Temp\ccvbOxmE.s 			page 40


 1524 07f8 03       		.uleb128 0x3
 1525 07f9 91       		.byte	0x91
 1526 07fa 907F     		.sleb128 -112
 1527 07fc 00       		.byte	0
 1528 07fd 0D       		.uleb128 0xd
 1529 07fe 04       		.byte	0x4
 1530 07ff A1050000 		.long	0x5a1
 1531 0803 0D       		.uleb128 0xd
 1532 0804 04       		.byte	0x4
 1533 0805 09080000 		.long	0x809
 1534 0809 0F       		.uleb128 0xf
 1535 080a A1050000 		.long	0x5a1
 1536 080e 0C       		.uleb128 0xc
 1537 080f 494E545F 		.ascii "INT_MUL\0"
 1537      4D554C00 
 1538 0817 01       		.byte	0x1
 1539 0818 87       		.byte	0x87
 1540 0819 E1010000 		.long	LFB5
 1541 081d B9000000 		.long	LFE5-LFB5
 1542 0821 01       		.uleb128 0x1
 1543 0822 9C       		.byte	0x9c
 1544 0823 BE080000 		.long	0x8be
 1545 0827 0B       		.uleb128 0xb
 1546 0828 50726F64 		.ascii "Produkt\0"
 1546      756B7400 
 1547 0830 01       		.byte	0x1
 1548 0831 87       		.byte	0x87
 1549 0832 FD070000 		.long	0x7fd
 1550 0836 02       		.uleb128 0x2
 1551 0837 91       		.byte	0x91
 1552 0838 00       		.sleb128 0
 1553 0839 0B       		.uleb128 0xb
 1554 083a 46616B74 		.ascii "Faktor1\0"
 1554      6F723100 
 1555 0842 01       		.byte	0x1
 1556 0843 87       		.byte	0x87
 1557 0844 03080000 		.long	0x803
 1558 0848 02       		.uleb128 0x2
 1559 0849 91       		.byte	0x91
 1560 084a 04       		.sleb128 4
 1561 084b 0B       		.uleb128 0xb
 1562 084c 46616B74 		.ascii "Faktor2\0"
 1562      6F723200 
 1563 0854 01       		.byte	0x1
 1564 0855 87       		.byte	0x87
 1565 0856 03080000 		.long	0x803
 1566 085a 02       		.uleb128 0x2
 1567 085b 91       		.byte	0x91
 1568 085c 08       		.sleb128 8
 1569 085d 0E       		.uleb128 0xe
 1570 085e 72657375 		.ascii "result\0"
 1570      6C7400
 1571 0865 01       		.byte	0x1
 1572 0866 92       		.byte	0x92
 1573 0867 A1050000 		.long	0x5a1
 1574 086b 02       		.uleb128 0x2
 1575 086c 91       		.byte	0x91
GAS LISTING C:\Users\PRESID~1\AppData\Local\Temp\ccvbOxmE.s 			page 41


 1576 086d 56       		.sleb128 -42
 1577 086e 0E       		.uleb128 0xe
 1578 086f 6C6F6361 		.ascii "local_tmp_bigInt\0"
 1578      6C5F746D 
 1578      705F6269 
 1578      67496E74 
 1578      00
 1579 0880 01       		.byte	0x1
 1580 0881 92       		.byte	0x92
 1581 0882 A1050000 		.long	0x5a1
 1582 0886 02       		.uleb128 0x2
 1583 0887 91       		.byte	0x91
 1584 0888 46       		.sleb128 -58
 1585 0889 0E       		.uleb128 0xe
 1586 088a 706F7331 		.ascii "pos1\0"
 1586      00
 1587 088f 01       		.byte	0x1
 1588 0890 93       		.byte	0x93
 1589 0891 27010000 		.long	0x127
 1590 0895 02       		.uleb128 0x2
 1591 0896 91       		.byte	0x91
 1592 0897 6C       		.sleb128 -20
 1593 0898 0E       		.uleb128 0xe
 1594 0899 706F7332 		.ascii "pos2\0"
 1594      00
 1595 089e 01       		.byte	0x1
 1596 089f 93       		.byte	0x93
 1597 08a0 27010000 		.long	0x127
 1598 08a4 02       		.uleb128 0x2
 1599 08a5 91       		.byte	0x91
 1600 08a6 68       		.sleb128 -24
 1601 08a7 0E       		.uleb128 0xe
 1602 08a8 6C6F6361 		.ascii "local_tmp16\0"
 1602      6C5F746D 
 1602      70313600 
 1603 08b4 01       		.byte	0x1
 1604 08b5 94       		.byte	0x94
 1605 08b6 EA000000 		.long	0xea
 1606 08ba 02       		.uleb128 0x2
 1607 08bb 91       		.byte	0x91
 1608 08bc 66       		.sleb128 -26
 1609 08bd 00       		.byte	0
 1610 08be 0A       		.uleb128 0xa
 1611 08bf 494E545F 		.ascii "INT_ADD\0"
 1611      41444400 
 1612 08c7 01       		.byte	0x1
 1613 08c8 B8       		.byte	0xb8
 1614 08c9 9A020000 		.long	LFB6
 1615 08cd 60000000 		.long	LFE6-LFB6
 1616 08d1 01       		.uleb128 0x1
 1617 08d2 9C       		.byte	0x9c
 1618 08d3 53090000 		.long	0x953
 1619 08d7 0B       		.uleb128 0xb
 1620 08d8 53756D6D 		.ascii "Summe\0"
 1620      6500
 1621 08de 01       		.byte	0x1
 1622 08df B8       		.byte	0xb8
GAS LISTING C:\Users\PRESID~1\AppData\Local\Temp\ccvbOxmE.s 			page 42


 1623 08e0 FD070000 		.long	0x7fd
 1624 08e4 02       		.uleb128 0x2
 1625 08e5 91       		.byte	0x91
 1626 08e6 00       		.sleb128 0
 1627 08e7 0B       		.uleb128 0xb
 1628 08e8 45727374 		.ascii "ErsterSummand\0"
 1628      65725375 
 1628      6D6D616E 
 1628      6400
 1629 08f6 01       		.byte	0x1
 1630 08f7 B8       		.byte	0xb8
 1631 08f8 03080000 		.long	0x803
 1632 08fc 02       		.uleb128 0x2
 1633 08fd 91       		.byte	0x91
 1634 08fe 04       		.sleb128 4
 1635 08ff 0B       		.uleb128 0xb
 1636 0900 5A776569 		.ascii "ZweiterSummand\0"
 1636      74657253 
 1636      756D6D61 
 1636      6E6400
 1637 090f 01       		.byte	0x1
 1638 0910 B8       		.byte	0xb8
 1639 0911 03080000 		.long	0x803
 1640 0915 02       		.uleb128 0x2
 1641 0916 91       		.byte	0x91
 1642 0917 08       		.sleb128 8
 1643 0918 0E       		.uleb128 0xe
 1644 0919 706F7300 		.ascii "pos\0"
 1645 091d 01       		.byte	0x1
 1646 091e BA       		.byte	0xba
 1647 091f BA000000 		.long	0xba
 1648 0923 02       		.uleb128 0x2
 1649 0924 91       		.byte	0x91
 1650 0925 77       		.sleb128 -9
 1651 0926 0E       		.uleb128 0xe
 1652 0927 63617272 		.ascii "carry\0"
 1652      7900
 1653 092d 01       		.byte	0x1
 1654 092e BB       		.byte	0xbb
 1655 092f EA000000 		.long	0xea
 1656 0933 02       		.uleb128 0x2
 1657 0934 91       		.byte	0x91
 1658 0935 74       		.sleb128 -12
 1659 0936 10       		.uleb128 0x10
 1660 0937 AC020000 		.long	LBB2
 1661 093b 3F000000 		.long	LBE2-LBB2
 1662 093f 0E       		.uleb128 0xe
 1663 0940 746D705F 		.ascii "tmp_sum\0"
 1663      73756D00 
 1664 0948 01       		.byte	0x1
 1665 0949 BF       		.byte	0xbf
 1666 094a EA000000 		.long	0xea
 1667 094e 02       		.uleb128 0x2
 1668 094f 91       		.byte	0x91
 1669 0950 72       		.sleb128 -14
 1670 0951 00       		.byte	0
 1671 0952 00       		.byte	0
GAS LISTING C:\Users\PRESID~1\AppData\Local\Temp\ccvbOxmE.s 			page 43


 1672 0953 0A       		.uleb128 0xa
 1673 0954 494E545F 		.ascii "INT_SUB\0"
 1673      53554200 
 1674 095c 01       		.byte	0x1
 1675 095d C4       		.byte	0xc4
 1676 095e FA020000 		.long	LFB7
 1677 0962 DE000000 		.long	LFE7-LFB7
 1678 0966 01       		.uleb128 0x1
 1679 0967 9C       		.byte	0x9c
 1680 0968 E3090000 		.long	0x9e3
 1681 096c 0B       		.uleb128 0xb
 1682 096d 44696666 		.ascii "Differenz\0"
 1682      6572656E 
 1682      7A00
 1683 0977 01       		.byte	0x1
 1684 0978 C4       		.byte	0xc4
 1685 0979 FD070000 		.long	0x7fd
 1686 097d 02       		.uleb128 0x2
 1687 097e 91       		.byte	0x91
 1688 097f 00       		.sleb128 0
 1689 0980 0B       		.uleb128 0xb
 1690 0981 4D696E75 		.ascii "Minuend\0"
 1690      656E6400 
 1691 0989 01       		.byte	0x1
 1692 098a C4       		.byte	0xc4
 1693 098b 03080000 		.long	0x803
 1694 098f 02       		.uleb128 0x2
 1695 0990 91       		.byte	0x91
 1696 0991 04       		.sleb128 4
 1697 0992 0B       		.uleb128 0xb
 1698 0993 53756274 		.ascii "Subtrahend\0"
 1698      72616865 
 1698      6E6400
 1699 099e 01       		.byte	0x1
 1700 099f C4       		.byte	0xc4
 1701 09a0 03080000 		.long	0x803
 1702 09a4 02       		.uleb128 0x2
 1703 09a5 91       		.byte	0x91
 1704 09a6 08       		.sleb128 8
 1705 09a7 0E       		.uleb128 0xe
 1706 09a8 706F7300 		.ascii "pos\0"
 1707 09ac 01       		.byte	0x1
 1708 09ad C6       		.byte	0xc6
 1709 09ae BA000000 		.long	0xba
 1710 09b2 02       		.uleb128 0x2
 1711 09b3 91       		.byte	0x91
 1712 09b4 77       		.sleb128 -9
 1713 09b5 0E       		.uleb128 0xe
 1714 09b6 63617272 		.ascii "carry\0"
 1714      7900
 1715 09bc 01       		.byte	0x1
 1716 09bd C7       		.byte	0xc7
 1717 09be EA000000 		.long	0xea
 1718 09c2 02       		.uleb128 0x2
 1719 09c3 91       		.byte	0x91
 1720 09c4 72       		.sleb128 -14
 1721 09c5 10       		.uleb128 0x10
GAS LISTING C:\Users\PRESID~1\AppData\Local\Temp\ccvbOxmE.s 			page 44


 1722 09c6 0F030000 		.long	LBB3
 1723 09ca B6000000 		.long	LBE3-LBB3
 1724 09ce 0E       		.uleb128 0xe
 1725 09cf 746D705F 		.ascii "tmp_diff\0"
 1725      64696666 
 1725      00
 1726 09d8 01       		.byte	0x1
 1727 09d9 CB       		.byte	0xcb
 1728 09da EA000000 		.long	0xea
 1729 09de 02       		.uleb128 0x2
 1730 09df 91       		.byte	0x91
 1731 09e0 74       		.sleb128 -12
 1732 09e1 00       		.byte	0
 1733 09e2 00       		.byte	0
 1734 09e3 11       		.uleb128 0x11
 1735 09e4 49535F4C 		.ascii "IS_LESS\0"
 1735      45535300 
 1736 09ec 01       		.byte	0x1
 1737 09ed DB       		.byte	0xdb
 1738 09ee 1D030000 		.long	0x31d
 1739 09f2 D8030000 		.long	LFB8
 1740 09f6 5E000000 		.long	LFE8-LFB8
 1741 09fa 01       		.uleb128 0x1
 1742 09fb 9C       		.byte	0x9c
 1743 09fc 3D0A0000 		.long	0xa3d
 1744 0a00 12       		.uleb128 0x12
 1745 0a01 00000000 		.secrel32	LASF0
 1746 0a05 01       		.byte	0x1
 1747 0a06 DB       		.byte	0xdb
 1748 0a07 03080000 		.long	0x803
 1749 0a0b 02       		.uleb128 0x2
 1750 0a0c 91       		.byte	0x91
 1751 0a0d 00       		.sleb128 0
 1752 0a0e 12       		.uleb128 0x12
 1753 0a0f 09000000 		.secrel32	LASF1
 1754 0a13 01       		.byte	0x1
 1755 0a14 DB       		.byte	0xdb
 1756 0a15 03080000 		.long	0x803
 1757 0a19 02       		.uleb128 0x2
 1758 0a1a 91       		.byte	0x91
 1759 0a1b 04       		.sleb128 4
 1760 0a1c 0E       		.uleb128 0xe
 1761 0a1d 706F7300 		.ascii "pos\0"
 1762 0a21 01       		.byte	0x1
 1763 0a22 DD       		.byte	0xdd
 1764 0a23 AD000000 		.long	0xad
 1765 0a27 02       		.uleb128 0x2
 1766 0a28 91       		.byte	0x91
 1767 0a29 77       		.sleb128 -9
 1768 0a2a 0E       		.uleb128 0xe
 1769 0a2b 69735F6C 		.ascii "is_less\0"
 1769      65737300 
 1770 0a33 01       		.byte	0x1
 1771 0a34 DE       		.byte	0xde
 1772 0a35 1D030000 		.long	0x31d
 1773 0a39 02       		.uleb128 0x2
 1774 0a3a 91       		.byte	0x91
GAS LISTING C:\Users\PRESID~1\AppData\Local\Temp\ccvbOxmE.s 			page 45


 1775 0a3b 76       		.sleb128 -10
 1776 0a3c 00       		.byte	0
 1777 0a3d 13       		.uleb128 0x13
 1778 0a3e 49535F4C 		.ascii "IS_LESS_OR_EQUAL\0"
 1778      4553535F 
 1778      4F525F45 
 1778      5155414C 
 1778      00
 1779 0a4f 01       		.byte	0x1
 1780 0a50 F2       		.byte	0xf2
 1781 0a51 1D030000 		.long	0x31d
 1782 0a55 36040000 		.long	LFB9
 1783 0a59 40000000 		.long	LFE9-LFB9
 1784 0a5d 01       		.uleb128 0x1
 1785 0a5e 9C       		.byte	0x9c
 1786 0a5f 800A0000 		.long	0xa80
 1787 0a63 12       		.uleb128 0x12
 1788 0a64 00000000 		.secrel32	LASF0
 1789 0a68 01       		.byte	0x1
 1790 0a69 F2       		.byte	0xf2
 1791 0a6a 03080000 		.long	0x803
 1792 0a6e 02       		.uleb128 0x2
 1793 0a6f 91       		.byte	0x91
 1794 0a70 00       		.sleb128 0
 1795 0a71 12       		.uleb128 0x12
 1796 0a72 09000000 		.secrel32	LASF1
 1797 0a76 01       		.byte	0x1
 1798 0a77 F2       		.byte	0xf2
 1799 0a78 03080000 		.long	0x803
 1800 0a7c 02       		.uleb128 0x2
 1801 0a7d 91       		.byte	0x91
 1802 0a7e 04       		.sleb128 4
 1803 0a7f 00       		.byte	0
 1804 0a80 11       		.uleb128 0x11
 1805 0a81 49535F45 		.ascii "IS_EQUAL\0"
 1805      5155414C 
 1805      00
 1806 0a8a 01       		.byte	0x1
 1807 0a8b F6       		.byte	0xf6
 1808 0a8c 1D030000 		.long	0x31d
 1809 0a90 76040000 		.long	LFB10
 1810 0a94 40000000 		.long	LFE10-LFB10
 1811 0a98 01       		.uleb128 0x1
 1812 0a99 9C       		.byte	0x9c
 1813 0a9a DC0A0000 		.long	0xadc
 1814 0a9e 12       		.uleb128 0x12
 1815 0a9f 00000000 		.secrel32	LASF0
 1816 0aa3 01       		.byte	0x1
 1817 0aa4 F6       		.byte	0xf6
 1818 0aa5 03080000 		.long	0x803
 1819 0aa9 02       		.uleb128 0x2
 1820 0aaa 91       		.byte	0x91
 1821 0aab 00       		.sleb128 0
 1822 0aac 12       		.uleb128 0x12
 1823 0aad 09000000 		.secrel32	LASF1
 1824 0ab1 01       		.byte	0x1
 1825 0ab2 F6       		.byte	0xf6
GAS LISTING C:\Users\PRESID~1\AppData\Local\Temp\ccvbOxmE.s 			page 46


 1826 0ab3 03080000 		.long	0x803
 1827 0ab7 02       		.uleb128 0x2
 1828 0ab8 91       		.byte	0x91
 1829 0ab9 04       		.sleb128 4
 1830 0aba 0E       		.uleb128 0xe
 1831 0abb 706F7300 		.ascii "pos\0"
 1832 0abf 01       		.byte	0x1
 1833 0ac0 F8       		.byte	0xf8
 1834 0ac1 AD000000 		.long	0xad
 1835 0ac5 02       		.uleb128 0x2
 1836 0ac6 91       		.byte	0x91
 1837 0ac7 77       		.sleb128 -9
 1838 0ac8 0E       		.uleb128 0xe
 1839 0ac9 69735F65 		.ascii "is_equal\0"
 1839      7175616C 
 1839      00
 1840 0ad2 01       		.byte	0x1
 1841 0ad3 F9       		.byte	0xf9
 1842 0ad4 1D030000 		.long	0x31d
 1843 0ad8 02       		.uleb128 0x2
 1844 0ad9 91       		.byte	0x91
 1845 0ada 76       		.sleb128 -10
 1846 0adb 00       		.byte	0
 1847 0adc 14       		.uleb128 0x14
 1848 0add 49535F47 		.ascii "IS_GREATER\0"
 1848      52454154 
 1848      455200
 1849 0ae8 01       		.byte	0x1
 1850 0ae9 0801     		.word	0x108
 1851 0aeb 1D030000 		.long	0x31d
 1852 0aef B6040000 		.long	LFB11
 1853 0af3 5E000000 		.long	LFE11-LFB11
 1854 0af7 01       		.uleb128 0x1
 1855 0af8 9C       		.byte	0x9c
 1856 0af9 410B0000 		.long	0xb41
 1857 0afd 15       		.uleb128 0x15
 1858 0afe 00000000 		.secrel32	LASF0
 1859 0b02 01       		.byte	0x1
 1860 0b03 0801     		.word	0x108
 1861 0b05 03080000 		.long	0x803
 1862 0b09 02       		.uleb128 0x2
 1863 0b0a 91       		.byte	0x91
 1864 0b0b 00       		.sleb128 0
 1865 0b0c 15       		.uleb128 0x15
 1866 0b0d 09000000 		.secrel32	LASF1
 1867 0b11 01       		.byte	0x1
 1868 0b12 0801     		.word	0x108
 1869 0b14 03080000 		.long	0x803
 1870 0b18 02       		.uleb128 0x2
 1871 0b19 91       		.byte	0x91
 1872 0b1a 04       		.sleb128 4
 1873 0b1b 16       		.uleb128 0x16
 1874 0b1c 706F7300 		.ascii "pos\0"
 1875 0b20 01       		.byte	0x1
 1876 0b21 0A01     		.word	0x10a
 1877 0b23 AD000000 		.long	0xad
 1878 0b27 02       		.uleb128 0x2
GAS LISTING C:\Users\PRESID~1\AppData\Local\Temp\ccvbOxmE.s 			page 47


 1879 0b28 91       		.byte	0x91
 1880 0b29 77       		.sleb128 -9
 1881 0b2a 16       		.uleb128 0x16
 1882 0b2b 69735F67 		.ascii "is_greater\0"
 1882      72656174 
 1882      657200
 1883 0b36 01       		.byte	0x1
 1884 0b37 0B01     		.word	0x10b
 1885 0b39 1D030000 		.long	0x31d
 1886 0b3d 02       		.uleb128 0x2
 1887 0b3e 91       		.byte	0x91
 1888 0b3f 76       		.sleb128 -10
 1889 0b40 00       		.byte	0
 1890 0b41 17       		.uleb128 0x17
 1891 0b42 49535F47 		.ascii "IS_GREATER_OR_EQUAL\0"
 1891      52454154 
 1891      45525F4F 
 1891      525F4551 
 1891      55414C00 
 1892 0b56 01       		.byte	0x1
 1893 0b57 1F01     		.word	0x11f
 1894 0b59 1D030000 		.long	0x31d
 1895 0b5d 14050000 		.long	LFB12
 1896 0b61 40000000 		.long	LFE12-LFB12
 1897 0b65 01       		.uleb128 0x1
 1898 0b66 9C       		.byte	0x9c
 1899 0b67 8A0B0000 		.long	0xb8a
 1900 0b6b 15       		.uleb128 0x15
 1901 0b6c 00000000 		.secrel32	LASF0
 1902 0b70 01       		.byte	0x1
 1903 0b71 1F01     		.word	0x11f
 1904 0b73 03080000 		.long	0x803
 1905 0b77 02       		.uleb128 0x2
 1906 0b78 91       		.byte	0x91
 1907 0b79 00       		.sleb128 0
 1908 0b7a 15       		.uleb128 0x15
 1909 0b7b 09000000 		.secrel32	LASF1
 1910 0b7f 01       		.byte	0x1
 1911 0b80 1F01     		.word	0x11f
 1912 0b82 03080000 		.long	0x803
 1913 0b86 02       		.uleb128 0x2
 1914 0b87 91       		.byte	0x91
 1915 0b88 04       		.sleb128 4
 1916 0b89 00       		.byte	0
 1917 0b8a 18       		.uleb128 0x18
 1918 0b8b 41535349 		.ascii "ASSIGN\0"
 1918      474E00
 1919 0b92 01       		.byte	0x1
 1920 0b93 2301     		.word	0x123
 1921 0b95 54050000 		.long	LFB13
 1922 0b99 2F000000 		.long	LFE13-LFB13
 1923 0b9d 01       		.uleb128 0x1
 1924 0b9e 9C       		.byte	0x9c
 1925 0b9f D10B0000 		.long	0xbd1
 1926 0ba3 15       		.uleb128 0x15
 1927 0ba4 1F000000 		.secrel32	LASF2
 1928 0ba8 01       		.byte	0x1
GAS LISTING C:\Users\PRESID~1\AppData\Local\Temp\ccvbOxmE.s 			page 48


 1929 0ba9 2301     		.word	0x123
 1930 0bab FD070000 		.long	0x7fd
 1931 0baf 02       		.uleb128 0x2
 1932 0bb0 91       		.byte	0x91
 1933 0bb1 00       		.sleb128 0
 1934 0bb2 15       		.uleb128 0x15
 1935 0bb3 12000000 		.secrel32	LASF3
 1936 0bb7 01       		.byte	0x1
 1937 0bb8 2301     		.word	0x123
 1938 0bba 03080000 		.long	0x803
 1939 0bbe 02       		.uleb128 0x2
 1940 0bbf 91       		.byte	0x91
 1941 0bc0 04       		.sleb128 4
 1942 0bc1 16       		.uleb128 0x16
 1943 0bc2 706F7300 		.ascii "pos\0"
 1944 0bc6 01       		.byte	0x1
 1945 0bc7 2501     		.word	0x125
 1946 0bc9 AD000000 		.long	0xad
 1947 0bcd 02       		.uleb128 0x2
 1948 0bce 91       		.byte	0x91
 1949 0bcf 77       		.sleb128 -9
 1950 0bd0 00       		.byte	0
 1951 0bd1 18       		.uleb128 0x18
 1952 0bd2 41535349 		.ascii "ASSIGN_NULL\0"
 1952      474E5F4E 
 1952      554C4C00 
 1953 0bde 01       		.byte	0x1
 1954 0bdf 2B01     		.word	0x12b
 1955 0be1 83050000 		.long	LFB14
 1956 0be5 26000000 		.long	LFE14-LFB14
 1957 0be9 01       		.uleb128 0x1
 1958 0bea 9C       		.byte	0x9c
 1959 0beb 0E0C0000 		.long	0xc0e
 1960 0bef 15       		.uleb128 0x15
 1961 0bf0 1F000000 		.secrel32	LASF2
 1962 0bf4 01       		.byte	0x1
 1963 0bf5 2B01     		.word	0x12b
 1964 0bf7 FD070000 		.long	0x7fd
 1965 0bfb 02       		.uleb128 0x2
 1966 0bfc 91       		.byte	0x91
 1967 0bfd 00       		.sleb128 0
 1968 0bfe 16       		.uleb128 0x16
 1969 0bff 706F7300 		.ascii "pos\0"
 1970 0c03 01       		.byte	0x1
 1971 0c04 2D01     		.word	0x12d
 1972 0c06 AD000000 		.long	0xad
 1973 0c0a 02       		.uleb128 0x2
 1974 0c0b 91       		.byte	0x91
 1975 0c0c 77       		.sleb128 -9
 1976 0c0d 00       		.byte	0
 1977 0c0e 18       		.uleb128 0x18
 1978 0c0f 41535349 		.ascii "ASSIGN_UINT32\0"
 1978      474E5F55 
 1978      494E5433 
 1978      3200
 1979 0c1d 01       		.byte	0x1
 1980 0c1e 3401     		.word	0x134
GAS LISTING C:\Users\PRESID~1\AppData\Local\Temp\ccvbOxmE.s 			page 49


 1981 0c20 A9050000 		.long	LFB15
 1982 0c24 62000000 		.long	LFE15-LFB15
 1983 0c28 01       		.uleb128 0x1
 1984 0c29 9C       		.byte	0x9c
 1985 0c2a 690C0000 		.long	0xc69
 1986 0c2e 15       		.uleb128 0x15
 1987 0c2f 1F000000 		.secrel32	LASF2
 1988 0c33 01       		.byte	0x1
 1989 0c34 3401     		.word	0x134
 1990 0c36 FD070000 		.long	0x7fd
 1991 0c3a 02       		.uleb128 0x2
 1992 0c3b 91       		.byte	0x91
 1993 0c3c 00       		.sleb128 0
 1994 0c3d 15       		.uleb128 0x15
 1995 0c3e 12000000 		.secrel32	LASF3
 1996 0c42 01       		.byte	0x1
 1997 0c43 3401     		.word	0x134
 1998 0c45 690C0000 		.long	0xc69
 1999 0c49 02       		.uleb128 0x2
 2000 0c4a 91       		.byte	0x91
 2001 0c4b 04       		.sleb128 4
 2002 0c4c 16       		.uleb128 0x16
 2003 0c4d 706F7300 		.ascii "pos\0"
 2004 0c51 01       		.byte	0x1
 2005 0c52 3601     		.word	0x136
 2006 0c54 AD000000 		.long	0xad
 2007 0c58 02       		.uleb128 0x2
 2008 0c59 91       		.byte	0x91
 2009 0c5a 73       		.sleb128 -13
 2010 0c5b 16       		.uleb128 0x16
 2011 0c5c 6900     		.ascii "i\0"
 2012 0c5e 01       		.byte	0x1
 2013 0c5f 3701     		.word	0x137
 2014 0c61 AD000000 		.long	0xad
 2015 0c65 02       		.uleb128 0x2
 2016 0c66 91       		.byte	0x91
 2017 0c67 72       		.sleb128 -14
 2018 0c68 00       		.byte	0
 2019 0c69 0F       		.uleb128 0xf
 2020 0c6a 19010000 		.long	0x119
 2021 0c6e 19       		.uleb128 0x19
 2022 0c6f 53484946 		.ascii "SHIFT_LEFT\0"
 2022      545F4C45 
 2022      465400
 2023 0c7a 01       		.byte	0x1
 2024 0c7b 4201     		.word	0x142
 2025 0c7d 0B060000 		.long	LFB16
 2026 0c81 D5000000 		.long	LFE16-LFB16
 2027 0c85 01       		.uleb128 0x1
 2028 0c86 9C       		.byte	0x9c
 2029 0c87 020D0000 		.long	0xd02
 2030 0c8b 1A       		.uleb128 0x1a
 2031 0c8c 6E756D62 		.ascii "number\0"
 2031      657200
 2032 0c93 01       		.byte	0x1
 2033 0c94 4201     		.word	0x142
 2034 0c96 FD070000 		.long	0x7fd
GAS LISTING C:\Users\PRESID~1\AppData\Local\Temp\ccvbOxmE.s 			page 50


 2035 0c9a 02       		.uleb128 0x2
 2036 0c9b 91       		.byte	0x91
 2037 0c9c 00       		.sleb128 0
 2038 0c9d 1A       		.uleb128 0x1a
 2039 0c9e 616D6F75 		.ascii "amount_bits_shift\0"
 2039      6E745F62 
 2039      6974735F 
 2039      73686966 
 2039      7400
 2040 0cb0 01       		.byte	0x1
 2041 0cb1 4201     		.word	0x142
 2042 0cb3 19010000 		.long	0x119
 2043 0cb7 02       		.uleb128 0x2
 2044 0cb8 91       		.byte	0x91
 2045 0cb9 04       		.sleb128 4
 2046 0cba 16       		.uleb128 0x16
 2047 0cbb 746D7042 		.ascii "tmpBigInt\0"
 2047      6967496E 
 2047      7400
 2048 0cc5 01       		.byte	0x1
 2049 0cc6 4401     		.word	0x144
 2050 0cc8 A1050000 		.long	0x5a1
 2051 0ccc 02       		.uleb128 0x2
 2052 0ccd 91       		.byte	0x91
 2053 0cce 60       		.sleb128 -32
 2054 0ccf 16       		.uleb128 0x16
 2055 0cd0 72657375 		.ascii "result\0"
 2055      6C7400
 2056 0cd7 01       		.byte	0x1
 2057 0cd8 4401     		.word	0x144
 2058 0cda A1050000 		.long	0x5a1
 2059 0cde 02       		.uleb128 0x2
 2060 0cdf 91       		.byte	0x91
 2061 0ce0 50       		.sleb128 -48
 2062 0ce1 16       		.uleb128 0x16
 2063 0ce2 746D7033 		.ascii "tmp32\0"
 2063      3200
 2064 0ce8 01       		.byte	0x1
 2065 0ce9 4501     		.word	0x145
 2066 0ceb 19010000 		.long	0x119
 2067 0cef 02       		.uleb128 0x2
 2068 0cf0 91       		.byte	0x91
 2069 0cf1 70       		.sleb128 -16
 2070 0cf2 16       		.uleb128 0x16
 2071 0cf3 706F7300 		.ascii "pos\0"
 2072 0cf7 01       		.byte	0x1
 2073 0cf8 4601     		.word	0x146
 2074 0cfa 27010000 		.long	0x127
 2075 0cfe 02       		.uleb128 0x2
 2076 0cff 91       		.byte	0x91
 2077 0d00 74       		.sleb128 -12
 2078 0d01 00       		.byte	0
 2079 0d02 14       		.uleb128 0x14
 2080 0d03 6765745F 		.ascii "get_uint32_of_4_uint8\0"
 2080      75696E74 
 2080      33325F6F 
 2080      665F345F 
GAS LISTING C:\Users\PRESID~1\AppData\Local\Temp\ccvbOxmE.s 			page 51


 2080      75696E74 
 2081 0d19 01       		.byte	0x1
 2082 0d1a 5E01     		.word	0x15e
 2083 0d1c 19010000 		.long	0x119
 2084 0d20 E0060000 		.long	LFB17
 2085 0d24 50000000 		.long	LFE17-LFB17
 2086 0d28 01       		.uleb128 0x1
 2087 0d29 9C       		.byte	0x9c
 2088 0d2a 510D0000 		.long	0xd51
 2089 0d2e 1A       		.uleb128 0x1a
 2090 0d2f 70747200 		.ascii "ptr\0"
 2091 0d33 01       		.byte	0x1
 2092 0d34 5E01     		.word	0x15e
 2093 0d36 510D0000 		.long	0xd51
 2094 0d3a 02       		.uleb128 0x2
 2095 0d3b 91       		.byte	0x91
 2096 0d3c 00       		.sleb128 0
 2097 0d3d 16       		.uleb128 0x16
 2098 0d3e 7265745F 		.ascii "ret_val\0"
 2098      76616C00 
 2099 0d46 01       		.byte	0x1
 2100 0d47 6001     		.word	0x160
 2101 0d49 19010000 		.long	0x119
 2102 0d4d 02       		.uleb128 0x2
 2103 0d4e 91       		.byte	0x91
 2104 0d4f 74       		.sleb128 -12
 2105 0d50 00       		.byte	0
 2106 0d51 0D       		.uleb128 0xd
 2107 0d52 04       		.byte	0x4
 2108 0d53 AD000000 		.long	0xad
 2109 0d57 18       		.uleb128 0x18
 2110 0d58 7365745F 		.ascii "set_4_uint8_to_uint32\0"
 2110      345F7569 
 2110      6E74385F 
 2110      746F5F75 
 2110      696E7433 
 2111 0d6e 01       		.byte	0x1
 2112 0d6f 6C01     		.word	0x16c
 2113 0d71 30070000 		.long	LFB18
 2114 0d75 3F000000 		.long	LFE18-LFB18
 2115 0d79 01       		.uleb128 0x1
 2116 0d7a 9C       		.byte	0x9c
 2117 0d7b A00D0000 		.long	0xda0
 2118 0d7f 1A       		.uleb128 0x1a
 2119 0d80 70747200 		.ascii "ptr\0"
 2120 0d84 01       		.byte	0x1
 2121 0d85 6C01     		.word	0x16c
 2122 0d87 510D0000 		.long	0xd51
 2123 0d8b 02       		.uleb128 0x2
 2124 0d8c 91       		.byte	0x91
 2125 0d8d 00       		.sleb128 0
 2126 0d8e 1A       		.uleb128 0x1a
 2127 0d8f 76616C75 		.ascii "value\0"
 2127      6500
 2128 0d95 01       		.byte	0x1
 2129 0d96 6C01     		.word	0x16c
 2130 0d98 19010000 		.long	0x119
GAS LISTING C:\Users\PRESID~1\AppData\Local\Temp\ccvbOxmE.s 			page 52


 2131 0d9c 02       		.uleb128 0x2
 2132 0d9d 91       		.byte	0x91
 2133 0d9e 04       		.sleb128 4
 2134 0d9f 00       		.byte	0
 2135 0da0 08       		.uleb128 0x8
 2136 0da1 09030000 		.long	0x309
 2137 0da5 B00D0000 		.long	0xdb0
 2138 0da9 09       		.uleb128 0x9
 2139 0daa 95050000 		.long	0x595
 2140 0dae 15       		.byte	0x15
 2141 0daf 00       		.byte	0
 2142 0db0 1B       		.uleb128 0x1b
 2143 0db1 4F535F53 		.ascii "OS_SW_BUG\0"
 2143      575F4255 
 2143      4700
 2144 0dbb 04       		.byte	0x4
 2145 0dbc 0E       		.byte	0xe
 2146 0dbd C10D0000 		.long	0xdc1
 2147 0dc1 1C       		.uleb128 0x1c
 2148 0dc2 A00D0000 		.long	0xda0
 2149 0dc6 1B       		.uleb128 0x1b
 2150 0dc7 4C4F4341 		.ascii "LOCAL_SYSTEM_TIME\0"
 2150      4C5F5359 
 2150      5354454D 
 2150      5F54494D 
 2150      4500
 2151 0dd9 04       		.byte	0x4
 2152 0dda 47       		.byte	0x47
 2153 0ddb B0050000 		.long	0x5b0
 2154 0ddf 00       		.byte	0
 2155              		.section	.debug_abbrev,"dr"
 2156              	Ldebug_abbrev0:
 2157 0000 01       		.uleb128 0x1
 2158 0001 11       		.uleb128 0x11
 2159 0002 01       		.byte	0x1
 2160 0003 25       		.uleb128 0x25
 2161 0004 08       		.uleb128 0x8
 2162 0005 13       		.uleb128 0x13
 2163 0006 0B       		.uleb128 0xb
 2164 0007 03       		.uleb128 0x3
 2165 0008 08       		.uleb128 0x8
 2166 0009 11       		.uleb128 0x11
 2167 000a 01       		.uleb128 0x1
 2168 000b 12       		.uleb128 0x12
 2169 000c 06       		.uleb128 0x6
 2170 000d 10       		.uleb128 0x10
 2171 000e 17       		.uleb128 0x17
 2172 000f 9942     		.uleb128 0x2119
 2173 0011 17       		.uleb128 0x17
 2174 0012 00       		.byte	0
 2175 0013 00       		.byte	0
 2176 0014 02       		.uleb128 0x2
 2177 0015 24       		.uleb128 0x24
 2178 0016 00       		.byte	0
 2179 0017 0B       		.uleb128 0xb
 2180 0018 0B       		.uleb128 0xb
 2181 0019 3E       		.uleb128 0x3e
GAS LISTING C:\Users\PRESID~1\AppData\Local\Temp\ccvbOxmE.s 			page 53


 2182 001a 0B       		.uleb128 0xb
 2183 001b 03       		.uleb128 0x3
 2184 001c 08       		.uleb128 0x8
 2185 001d 00       		.byte	0
 2186 001e 00       		.byte	0
 2187 001f 03       		.uleb128 0x3
 2188 0020 16       		.uleb128 0x16
 2189 0021 00       		.byte	0
 2190 0022 03       		.uleb128 0x3
 2191 0023 08       		.uleb128 0x8
 2192 0024 3A       		.uleb128 0x3a
 2193 0025 0B       		.uleb128 0xb
 2194 0026 3B       		.uleb128 0x3b
 2195 0027 0B       		.uleb128 0xb
 2196 0028 49       		.uleb128 0x49
 2197 0029 13       		.uleb128 0x13
 2198 002a 00       		.byte	0
 2199 002b 00       		.byte	0
 2200 002c 04       		.uleb128 0x4
 2201 002d 04       		.uleb128 0x4
 2202 002e 01       		.byte	0x1
 2203 002f 03       		.uleb128 0x3
 2204 0030 08       		.uleb128 0x8
 2205 0031 0B       		.uleb128 0xb
 2206 0032 0B       		.uleb128 0xb
 2207 0033 3A       		.uleb128 0x3a
 2208 0034 0B       		.uleb128 0xb
 2209 0035 3B       		.uleb128 0x3b
 2210 0036 0B       		.uleb128 0xb
 2211 0037 01       		.uleb128 0x1
 2212 0038 13       		.uleb128 0x13
 2213 0039 00       		.byte	0
 2214 003a 00       		.byte	0
 2215 003b 05       		.uleb128 0x5
 2216 003c 28       		.uleb128 0x28
 2217 003d 00       		.byte	0
 2218 003e 03       		.uleb128 0x3
 2219 003f 08       		.uleb128 0x8
 2220 0040 1C       		.uleb128 0x1c
 2221 0041 0D       		.uleb128 0xd
 2222 0042 00       		.byte	0
 2223 0043 00       		.byte	0
 2224 0044 06       		.uleb128 0x6
 2225 0045 13       		.uleb128 0x13
 2226 0046 01       		.byte	0x1
 2227 0047 03       		.uleb128 0x3
 2228 0048 08       		.uleb128 0x8
 2229 0049 0B       		.uleb128 0xb
 2230 004a 0B       		.uleb128 0xb
 2231 004b 3A       		.uleb128 0x3a
 2232 004c 0B       		.uleb128 0xb
 2233 004d 3B       		.uleb128 0x3b
 2234 004e 0B       		.uleb128 0xb
 2235 004f 01       		.uleb128 0x1
 2236 0050 13       		.uleb128 0x13
 2237 0051 00       		.byte	0
 2238 0052 00       		.byte	0
GAS LISTING C:\Users\PRESID~1\AppData\Local\Temp\ccvbOxmE.s 			page 54


 2239 0053 07       		.uleb128 0x7
 2240 0054 0D       		.uleb128 0xd
 2241 0055 00       		.byte	0
 2242 0056 03       		.uleb128 0x3
 2243 0057 08       		.uleb128 0x8
 2244 0058 3A       		.uleb128 0x3a
 2245 0059 0B       		.uleb128 0xb
 2246 005a 3B       		.uleb128 0x3b
 2247 005b 0B       		.uleb128 0xb
 2248 005c 49       		.uleb128 0x49
 2249 005d 13       		.uleb128 0x13
 2250 005e 38       		.uleb128 0x38
 2251 005f 0B       		.uleb128 0xb
 2252 0060 00       		.byte	0
 2253 0061 00       		.byte	0
 2254 0062 08       		.uleb128 0x8
 2255 0063 01       		.uleb128 0x1
 2256 0064 01       		.byte	0x1
 2257 0065 49       		.uleb128 0x49
 2258 0066 13       		.uleb128 0x13
 2259 0067 01       		.uleb128 0x1
 2260 0068 13       		.uleb128 0x13
 2261 0069 00       		.byte	0
 2262 006a 00       		.byte	0
 2263 006b 09       		.uleb128 0x9
 2264 006c 21       		.uleb128 0x21
 2265 006d 00       		.byte	0
 2266 006e 49       		.uleb128 0x49
 2267 006f 13       		.uleb128 0x13
 2268 0070 2F       		.uleb128 0x2f
 2269 0071 0B       		.uleb128 0xb
 2270 0072 00       		.byte	0
 2271 0073 00       		.byte	0
 2272 0074 0A       		.uleb128 0xa
 2273 0075 2E       		.uleb128 0x2e
 2274 0076 01       		.byte	0x1
 2275 0077 3F       		.uleb128 0x3f
 2276 0078 19       		.uleb128 0x19
 2277 0079 03       		.uleb128 0x3
 2278 007a 08       		.uleb128 0x8
 2279 007b 3A       		.uleb128 0x3a
 2280 007c 0B       		.uleb128 0xb
 2281 007d 3B       		.uleb128 0x3b
 2282 007e 0B       		.uleb128 0xb
 2283 007f 27       		.uleb128 0x27
 2284 0080 19       		.uleb128 0x19
 2285 0081 11       		.uleb128 0x11
 2286 0082 01       		.uleb128 0x1
 2287 0083 12       		.uleb128 0x12
 2288 0084 06       		.uleb128 0x6
 2289 0085 40       		.uleb128 0x40
 2290 0086 18       		.uleb128 0x18
 2291 0087 9742     		.uleb128 0x2117
 2292 0089 19       		.uleb128 0x19
 2293 008a 01       		.uleb128 0x1
 2294 008b 13       		.uleb128 0x13
 2295 008c 00       		.byte	0
GAS LISTING C:\Users\PRESID~1\AppData\Local\Temp\ccvbOxmE.s 			page 55


 2296 008d 00       		.byte	0
 2297 008e 0B       		.uleb128 0xb
 2298 008f 05       		.uleb128 0x5
 2299 0090 00       		.byte	0
 2300 0091 03       		.uleb128 0x3
 2301 0092 08       		.uleb128 0x8
 2302 0093 3A       		.uleb128 0x3a
 2303 0094 0B       		.uleb128 0xb
 2304 0095 3B       		.uleb128 0x3b
 2305 0096 0B       		.uleb128 0xb
 2306 0097 49       		.uleb128 0x49
 2307 0098 13       		.uleb128 0x13
 2308 0099 02       		.uleb128 0x2
 2309 009a 18       		.uleb128 0x18
 2310 009b 00       		.byte	0
 2311 009c 00       		.byte	0
 2312 009d 0C       		.uleb128 0xc
 2313 009e 2E       		.uleb128 0x2e
 2314 009f 01       		.byte	0x1
 2315 00a0 3F       		.uleb128 0x3f
 2316 00a1 19       		.uleb128 0x19
 2317 00a2 03       		.uleb128 0x3
 2318 00a3 08       		.uleb128 0x8
 2319 00a4 3A       		.uleb128 0x3a
 2320 00a5 0B       		.uleb128 0xb
 2321 00a6 3B       		.uleb128 0x3b
 2322 00a7 0B       		.uleb128 0xb
 2323 00a8 27       		.uleb128 0x27
 2324 00a9 19       		.uleb128 0x19
 2325 00aa 11       		.uleb128 0x11
 2326 00ab 01       		.uleb128 0x1
 2327 00ac 12       		.uleb128 0x12
 2328 00ad 06       		.uleb128 0x6
 2329 00ae 40       		.uleb128 0x40
 2330 00af 18       		.uleb128 0x18
 2331 00b0 9642     		.uleb128 0x2116
 2332 00b2 19       		.uleb128 0x19
 2333 00b3 01       		.uleb128 0x1
 2334 00b4 13       		.uleb128 0x13
 2335 00b5 00       		.byte	0
 2336 00b6 00       		.byte	0
 2337 00b7 0D       		.uleb128 0xd
 2338 00b8 0F       		.uleb128 0xf
 2339 00b9 00       		.byte	0
 2340 00ba 0B       		.uleb128 0xb
 2341 00bb 0B       		.uleb128 0xb
 2342 00bc 49       		.uleb128 0x49
 2343 00bd 13       		.uleb128 0x13
 2344 00be 00       		.byte	0
 2345 00bf 00       		.byte	0
 2346 00c0 0E       		.uleb128 0xe
 2347 00c1 34       		.uleb128 0x34
 2348 00c2 00       		.byte	0
 2349 00c3 03       		.uleb128 0x3
 2350 00c4 08       		.uleb128 0x8
 2351 00c5 3A       		.uleb128 0x3a
 2352 00c6 0B       		.uleb128 0xb
GAS LISTING C:\Users\PRESID~1\AppData\Local\Temp\ccvbOxmE.s 			page 56


 2353 00c7 3B       		.uleb128 0x3b
 2354 00c8 0B       		.uleb128 0xb
 2355 00c9 49       		.uleb128 0x49
 2356 00ca 13       		.uleb128 0x13
 2357 00cb 02       		.uleb128 0x2
 2358 00cc 18       		.uleb128 0x18
 2359 00cd 00       		.byte	0
 2360 00ce 00       		.byte	0
 2361 00cf 0F       		.uleb128 0xf
 2362 00d0 26       		.uleb128 0x26
 2363 00d1 00       		.byte	0
 2364 00d2 49       		.uleb128 0x49
 2365 00d3 13       		.uleb128 0x13
 2366 00d4 00       		.byte	0
 2367 00d5 00       		.byte	0
 2368 00d6 10       		.uleb128 0x10
 2369 00d7 0B       		.uleb128 0xb
 2370 00d8 01       		.byte	0x1
 2371 00d9 11       		.uleb128 0x11
 2372 00da 01       		.uleb128 0x1
 2373 00db 12       		.uleb128 0x12
 2374 00dc 06       		.uleb128 0x6
 2375 00dd 00       		.byte	0
 2376 00de 00       		.byte	0
 2377 00df 11       		.uleb128 0x11
 2378 00e0 2E       		.uleb128 0x2e
 2379 00e1 01       		.byte	0x1
 2380 00e2 3F       		.uleb128 0x3f
 2381 00e3 19       		.uleb128 0x19
 2382 00e4 03       		.uleb128 0x3
 2383 00e5 08       		.uleb128 0x8
 2384 00e6 3A       		.uleb128 0x3a
 2385 00e7 0B       		.uleb128 0xb
 2386 00e8 3B       		.uleb128 0x3b
 2387 00e9 0B       		.uleb128 0xb
 2388 00ea 27       		.uleb128 0x27
 2389 00eb 19       		.uleb128 0x19
 2390 00ec 49       		.uleb128 0x49
 2391 00ed 13       		.uleb128 0x13
 2392 00ee 11       		.uleb128 0x11
 2393 00ef 01       		.uleb128 0x1
 2394 00f0 12       		.uleb128 0x12
 2395 00f1 06       		.uleb128 0x6
 2396 00f2 40       		.uleb128 0x40
 2397 00f3 18       		.uleb128 0x18
 2398 00f4 9742     		.uleb128 0x2117
 2399 00f6 19       		.uleb128 0x19
 2400 00f7 01       		.uleb128 0x1
 2401 00f8 13       		.uleb128 0x13
 2402 00f9 00       		.byte	0
 2403 00fa 00       		.byte	0
 2404 00fb 12       		.uleb128 0x12
 2405 00fc 05       		.uleb128 0x5
 2406 00fd 00       		.byte	0
 2407 00fe 03       		.uleb128 0x3
 2408 00ff 0E       		.uleb128 0xe
 2409 0100 3A       		.uleb128 0x3a
GAS LISTING C:\Users\PRESID~1\AppData\Local\Temp\ccvbOxmE.s 			page 57


 2410 0101 0B       		.uleb128 0xb
 2411 0102 3B       		.uleb128 0x3b
 2412 0103 0B       		.uleb128 0xb
 2413 0104 49       		.uleb128 0x49
 2414 0105 13       		.uleb128 0x13
 2415 0106 02       		.uleb128 0x2
 2416 0107 18       		.uleb128 0x18
 2417 0108 00       		.byte	0
 2418 0109 00       		.byte	0
 2419 010a 13       		.uleb128 0x13
 2420 010b 2E       		.uleb128 0x2e
 2421 010c 01       		.byte	0x1
 2422 010d 3F       		.uleb128 0x3f
 2423 010e 19       		.uleb128 0x19
 2424 010f 03       		.uleb128 0x3
 2425 0110 08       		.uleb128 0x8
 2426 0111 3A       		.uleb128 0x3a
 2427 0112 0B       		.uleb128 0xb
 2428 0113 3B       		.uleb128 0x3b
 2429 0114 0B       		.uleb128 0xb
 2430 0115 27       		.uleb128 0x27
 2431 0116 19       		.uleb128 0x19
 2432 0117 49       		.uleb128 0x49
 2433 0118 13       		.uleb128 0x13
 2434 0119 11       		.uleb128 0x11
 2435 011a 01       		.uleb128 0x1
 2436 011b 12       		.uleb128 0x12
 2437 011c 06       		.uleb128 0x6
 2438 011d 40       		.uleb128 0x40
 2439 011e 18       		.uleb128 0x18
 2440 011f 9642     		.uleb128 0x2116
 2441 0121 19       		.uleb128 0x19
 2442 0122 01       		.uleb128 0x1
 2443 0123 13       		.uleb128 0x13
 2444 0124 00       		.byte	0
 2445 0125 00       		.byte	0
 2446 0126 14       		.uleb128 0x14
 2447 0127 2E       		.uleb128 0x2e
 2448 0128 01       		.byte	0x1
 2449 0129 3F       		.uleb128 0x3f
 2450 012a 19       		.uleb128 0x19
 2451 012b 03       		.uleb128 0x3
 2452 012c 08       		.uleb128 0x8
 2453 012d 3A       		.uleb128 0x3a
 2454 012e 0B       		.uleb128 0xb
 2455 012f 3B       		.uleb128 0x3b
 2456 0130 05       		.uleb128 0x5
 2457 0131 27       		.uleb128 0x27
 2458 0132 19       		.uleb128 0x19
 2459 0133 49       		.uleb128 0x49
 2460 0134 13       		.uleb128 0x13
 2461 0135 11       		.uleb128 0x11
 2462 0136 01       		.uleb128 0x1
 2463 0137 12       		.uleb128 0x12
 2464 0138 06       		.uleb128 0x6
 2465 0139 40       		.uleb128 0x40
 2466 013a 18       		.uleb128 0x18
GAS LISTING C:\Users\PRESID~1\AppData\Local\Temp\ccvbOxmE.s 			page 58


 2467 013b 9742     		.uleb128 0x2117
 2468 013d 19       		.uleb128 0x19
 2469 013e 01       		.uleb128 0x1
 2470 013f 13       		.uleb128 0x13
 2471 0140 00       		.byte	0
 2472 0141 00       		.byte	0
 2473 0142 15       		.uleb128 0x15
 2474 0143 05       		.uleb128 0x5
 2475 0144 00       		.byte	0
 2476 0145 03       		.uleb128 0x3
 2477 0146 0E       		.uleb128 0xe
 2478 0147 3A       		.uleb128 0x3a
 2479 0148 0B       		.uleb128 0xb
 2480 0149 3B       		.uleb128 0x3b
 2481 014a 05       		.uleb128 0x5
 2482 014b 49       		.uleb128 0x49
 2483 014c 13       		.uleb128 0x13
 2484 014d 02       		.uleb128 0x2
 2485 014e 18       		.uleb128 0x18
 2486 014f 00       		.byte	0
 2487 0150 00       		.byte	0
 2488 0151 16       		.uleb128 0x16
 2489 0152 34       		.uleb128 0x34
 2490 0153 00       		.byte	0
 2491 0154 03       		.uleb128 0x3
 2492 0155 08       		.uleb128 0x8
 2493 0156 3A       		.uleb128 0x3a
 2494 0157 0B       		.uleb128 0xb
 2495 0158 3B       		.uleb128 0x3b
 2496 0159 05       		.uleb128 0x5
 2497 015a 49       		.uleb128 0x49
 2498 015b 13       		.uleb128 0x13
 2499 015c 02       		.uleb128 0x2
 2500 015d 18       		.uleb128 0x18
 2501 015e 00       		.byte	0
 2502 015f 00       		.byte	0
 2503 0160 17       		.uleb128 0x17
 2504 0161 2E       		.uleb128 0x2e
 2505 0162 01       		.byte	0x1
 2506 0163 3F       		.uleb128 0x3f
 2507 0164 19       		.uleb128 0x19
 2508 0165 03       		.uleb128 0x3
 2509 0166 08       		.uleb128 0x8
 2510 0167 3A       		.uleb128 0x3a
 2511 0168 0B       		.uleb128 0xb
 2512 0169 3B       		.uleb128 0x3b
 2513 016a 05       		.uleb128 0x5
 2514 016b 27       		.uleb128 0x27
 2515 016c 19       		.uleb128 0x19
 2516 016d 49       		.uleb128 0x49
 2517 016e 13       		.uleb128 0x13
 2518 016f 11       		.uleb128 0x11
 2519 0170 01       		.uleb128 0x1
 2520 0171 12       		.uleb128 0x12
 2521 0172 06       		.uleb128 0x6
 2522 0173 40       		.uleb128 0x40
 2523 0174 18       		.uleb128 0x18
GAS LISTING C:\Users\PRESID~1\AppData\Local\Temp\ccvbOxmE.s 			page 59


 2524 0175 9642     		.uleb128 0x2116
 2525 0177 19       		.uleb128 0x19
 2526 0178 01       		.uleb128 0x1
 2527 0179 13       		.uleb128 0x13
 2528 017a 00       		.byte	0
 2529 017b 00       		.byte	0
 2530 017c 18       		.uleb128 0x18
 2531 017d 2E       		.uleb128 0x2e
 2532 017e 01       		.byte	0x1
 2533 017f 3F       		.uleb128 0x3f
 2534 0180 19       		.uleb128 0x19
 2535 0181 03       		.uleb128 0x3
 2536 0182 08       		.uleb128 0x8
 2537 0183 3A       		.uleb128 0x3a
 2538 0184 0B       		.uleb128 0xb
 2539 0185 3B       		.uleb128 0x3b
 2540 0186 05       		.uleb128 0x5
 2541 0187 27       		.uleb128 0x27
 2542 0188 19       		.uleb128 0x19
 2543 0189 11       		.uleb128 0x11
 2544 018a 01       		.uleb128 0x1
 2545 018b 12       		.uleb128 0x12
 2546 018c 06       		.uleb128 0x6
 2547 018d 40       		.uleb128 0x40
 2548 018e 18       		.uleb128 0x18
 2549 018f 9742     		.uleb128 0x2117
 2550 0191 19       		.uleb128 0x19
 2551 0192 01       		.uleb128 0x1
 2552 0193 13       		.uleb128 0x13
 2553 0194 00       		.byte	0
 2554 0195 00       		.byte	0
 2555 0196 19       		.uleb128 0x19
 2556 0197 2E       		.uleb128 0x2e
 2557 0198 01       		.byte	0x1
 2558 0199 3F       		.uleb128 0x3f
 2559 019a 19       		.uleb128 0x19
 2560 019b 03       		.uleb128 0x3
 2561 019c 08       		.uleb128 0x8
 2562 019d 3A       		.uleb128 0x3a
 2563 019e 0B       		.uleb128 0xb
 2564 019f 3B       		.uleb128 0x3b
 2565 01a0 05       		.uleb128 0x5
 2566 01a1 27       		.uleb128 0x27
 2567 01a2 19       		.uleb128 0x19
 2568 01a3 11       		.uleb128 0x11
 2569 01a4 01       		.uleb128 0x1
 2570 01a5 12       		.uleb128 0x12
 2571 01a6 06       		.uleb128 0x6
 2572 01a7 40       		.uleb128 0x40
 2573 01a8 18       		.uleb128 0x18
 2574 01a9 9642     		.uleb128 0x2116
 2575 01ab 19       		.uleb128 0x19
 2576 01ac 01       		.uleb128 0x1
 2577 01ad 13       		.uleb128 0x13
 2578 01ae 00       		.byte	0
 2579 01af 00       		.byte	0
 2580 01b0 1A       		.uleb128 0x1a
GAS LISTING C:\Users\PRESID~1\AppData\Local\Temp\ccvbOxmE.s 			page 60


 2581 01b1 05       		.uleb128 0x5
 2582 01b2 00       		.byte	0
 2583 01b3 03       		.uleb128 0x3
 2584 01b4 08       		.uleb128 0x8
 2585 01b5 3A       		.uleb128 0x3a
 2586 01b6 0B       		.uleb128 0xb
 2587 01b7 3B       		.uleb128 0x3b
 2588 01b8 05       		.uleb128 0x5
 2589 01b9 49       		.uleb128 0x49
 2590 01ba 13       		.uleb128 0x13
 2591 01bb 02       		.uleb128 0x2
 2592 01bc 18       		.uleb128 0x18
 2593 01bd 00       		.byte	0
 2594 01be 00       		.byte	0
 2595 01bf 1B       		.uleb128 0x1b
 2596 01c0 34       		.uleb128 0x34
 2597 01c1 00       		.byte	0
 2598 01c2 03       		.uleb128 0x3
 2599 01c3 08       		.uleb128 0x8
 2600 01c4 3A       		.uleb128 0x3a
 2601 01c5 0B       		.uleb128 0xb
 2602 01c6 3B       		.uleb128 0x3b
 2603 01c7 0B       		.uleb128 0xb
 2604 01c8 49       		.uleb128 0x49
 2605 01c9 13       		.uleb128 0x13
 2606 01ca 3F       		.uleb128 0x3f
 2607 01cb 19       		.uleb128 0x19
 2608 01cc 3C       		.uleb128 0x3c
 2609 01cd 19       		.uleb128 0x19
 2610 01ce 00       		.byte	0
 2611 01cf 00       		.byte	0
 2612 01d0 1C       		.uleb128 0x1c
 2613 01d1 35       		.uleb128 0x35
 2614 01d2 00       		.byte	0
 2615 01d3 49       		.uleb128 0x49
 2616 01d4 13       		.uleb128 0x13
 2617 01d5 00       		.byte	0
 2618 01d6 00       		.byte	0
 2619 01d7 00       		.byte	0
 2620              		.section	.debug_aranges,"dr"
 2621 0000 1C000000 		.long	0x1c
 2622 0004 0200     		.word	0x2
 2623 0006 00000000 		.secrel32	Ldebug_info0
 2624 000a 04       		.byte	0x4
 2625 000b 00       		.byte	0
 2626 000c 0000     		.word	0
 2627 000e 0000     		.word	0
 2628 0010 00000000 		.long	Ltext0
 2629 0014 6F070000 		.long	Letext0-Ltext0
 2630 0018 00000000 		.long	0
 2631 001c 00000000 		.long	0
 2632              		.section	.debug_macro,"dr"
 2633              	Ldebug_macro0:
 2634 0000 0400     		.word	0x4
 2635 0002 02       		.byte	0x2
 2636 0003 00000000 		.secrel32	Ldebug_line0
 2637 0007 01       		.byte	0x1
GAS LISTING C:\Users\PRESID~1\AppData\Local\Temp\ccvbOxmE.s 			page 61


 2638 0008 00       		.uleb128 0
 2639 0009 5F5F5354 		.ascii "__STDC__ 1\0"
 2639      44435F5F 
 2639      203100
 2640 0014 01       		.byte	0x1
 2641 0015 00       		.uleb128 0
 2642 0016 5F5F5354 		.ascii "__STDC_HOSTED__ 1\0"
 2642      44435F48 
 2642      4F535445 
 2642      445F5F20 
 2642      3100
 2643 0028 01       		.byte	0x1
 2644 0029 00       		.uleb128 0
 2645 002a 5F5F474E 		.ascii "__GNUC__ 4\0"
 2645      55435F5F 
 2645      203400
 2646 0035 01       		.byte	0x1
 2647 0036 00       		.uleb128 0
 2648 0037 5F5F474E 		.ascii "__GNUC_MINOR__ 9\0"
 2648      55435F4D 
 2648      494E4F52 
 2648      5F5F2039 
 2648      00
 2649 0048 01       		.byte	0x1
 2650 0049 00       		.uleb128 0
 2651 004a 5F5F474E 		.ascii "__GNUC_PATCHLEVEL__ 3\0"
 2651      55435F50 
 2651      41544348 
 2651      4C455645 
 2651      4C5F5F20 
 2652 0060 01       		.byte	0x1
 2653 0061 00       		.uleb128 0
 2654 0062 5F5F5645 		.ascii "__VERSION__ \"4.9.3\"\0"
 2654      5253494F 
 2654      4E5F5F20 
 2654      22342E39 
 2654      2E332200 
 2655 0076 01       		.byte	0x1
 2656 0077 00       		.uleb128 0
 2657 0078 5F5F4154 		.ascii "__ATOMIC_RELAXED 0\0"
 2657      4F4D4943 
 2657      5F52454C 
 2657      41584544 
 2657      203000
 2658 008b 01       		.byte	0x1
 2659 008c 00       		.uleb128 0
 2660 008d 5F5F4154 		.ascii "__ATOMIC_SEQ_CST 5\0"
 2660      4F4D4943 
 2660      5F534551 
 2660      5F435354 
 2660      203500
 2661 00a0 01       		.byte	0x1
 2662 00a1 00       		.uleb128 0
 2663 00a2 5F5F4154 		.ascii "__ATOMIC_ACQUIRE 2\0"
 2663      4F4D4943 
 2663      5F414351 
 2663      55495245 
GAS LISTING C:\Users\PRESID~1\AppData\Local\Temp\ccvbOxmE.s 			page 62


 2663      203200
 2664 00b5 01       		.byte	0x1
 2665 00b6 00       		.uleb128 0
 2666 00b7 5F5F4154 		.ascii "__ATOMIC_RELEASE 3\0"
 2666      4F4D4943 
 2666      5F52454C 
 2666      45415345 
 2666      203300
 2667 00ca 01       		.byte	0x1
 2668 00cb 00       		.uleb128 0
 2669 00cc 5F5F4154 		.ascii "__ATOMIC_ACQ_REL 4\0"
 2669      4F4D4943 
 2669      5F414351 
 2669      5F52454C 
 2669      203400
 2670 00df 01       		.byte	0x1
 2671 00e0 00       		.uleb128 0
 2672 00e1 5F5F4154 		.ascii "__ATOMIC_CONSUME 1\0"
 2672      4F4D4943 
 2672      5F434F4E 
 2672      53554D45 
 2672      203100
 2673 00f4 01       		.byte	0x1
 2674 00f5 00       		.uleb128 0
 2675 00f6 5F5F4649 		.ascii "__FINITE_MATH_ONLY__ 0\0"
 2675      4E495445 
 2675      5F4D4154 
 2675      485F4F4E 
 2675      4C595F5F 
 2676 010d 01       		.byte	0x1
 2677 010e 00       		.uleb128 0
 2678 010f 5F5F5349 		.ascii "__SIZEOF_INT__ 4\0"
 2678      5A454F46 
 2678      5F494E54 
 2678      5F5F2034 
 2678      00
 2679 0120 01       		.byte	0x1
 2680 0121 00       		.uleb128 0
 2681 0122 5F5F5349 		.ascii "__SIZEOF_LONG__ 4\0"
 2681      5A454F46 
 2681      5F4C4F4E 
 2681      475F5F20 
 2681      3400
 2682 0134 01       		.byte	0x1
 2683 0135 00       		.uleb128 0
 2684 0136 5F5F5349 		.ascii "__SIZEOF_LONG_LONG__ 8\0"
 2684      5A454F46 
 2684      5F4C4F4E 
 2684      475F4C4F 
 2684      4E475F5F 
 2685 014d 01       		.byte	0x1
 2686 014e 00       		.uleb128 0
 2687 014f 5F5F5349 		.ascii "__SIZEOF_SHORT__ 2\0"
 2687      5A454F46 
 2687      5F53484F 
 2687      52545F5F 
 2687      203200
GAS LISTING C:\Users\PRESID~1\AppData\Local\Temp\ccvbOxmE.s 			page 63


 2688 0162 01       		.byte	0x1
 2689 0163 00       		.uleb128 0
 2690 0164 5F5F5349 		.ascii "__SIZEOF_FLOAT__ 4\0"
 2690      5A454F46 
 2690      5F464C4F 
 2690      41545F5F 
 2690      203400
 2691 0177 01       		.byte	0x1
 2692 0178 00       		.uleb128 0
 2693 0179 5F5F5349 		.ascii "__SIZEOF_DOUBLE__ 8\0"
 2693      5A454F46 
 2693      5F444F55 
 2693      424C455F 
 2693      5F203800 
 2694 018d 01       		.byte	0x1
 2695 018e 00       		.uleb128 0
 2696 018f 5F5F5349 		.ascii "__SIZEOF_LONG_DOUBLE__ 12\0"
 2696      5A454F46 
 2696      5F4C4F4E 
 2696      475F444F 
 2696      55424C45 
 2697 01a9 01       		.byte	0x1
 2698 01aa 00       		.uleb128 0
 2699 01ab 5F5F5349 		.ascii "__SIZEOF_SIZE_T__ 4\0"
 2699      5A454F46 
 2699      5F53495A 
 2699      455F545F 
 2699      5F203400 
 2700 01bf 01       		.byte	0x1
 2701 01c0 00       		.uleb128 0
 2702 01c1 5F5F4348 		.ascii "__CHAR_BIT__ 8\0"
 2702      41525F42 
 2702      49545F5F 
 2702      203800
 2703 01d0 01       		.byte	0x1
 2704 01d1 00       		.uleb128 0
 2705 01d2 5F5F4249 		.ascii "__BIGGEST_ALIGNMENT__ 16\0"
 2705      47474553 
 2705      545F414C 
 2705      49474E4D 
 2705      454E545F 
 2706 01eb 01       		.byte	0x1
 2707 01ec 00       		.uleb128 0
 2708 01ed 5F5F4F52 		.ascii "__ORDER_LITTLE_ENDIAN__ 1234\0"
 2708      4445525F 
 2708      4C495454 
 2708      4C455F45 
 2708      4E444941 
 2709 020a 01       		.byte	0x1
 2710 020b 00       		.uleb128 0
 2711 020c 5F5F4F52 		.ascii "__ORDER_BIG_ENDIAN__ 4321\0"
 2711      4445525F 
 2711      4249475F 
 2711      454E4449 
 2711      414E5F5F 
 2712 0226 01       		.byte	0x1
 2713 0227 00       		.uleb128 0
GAS LISTING C:\Users\PRESID~1\AppData\Local\Temp\ccvbOxmE.s 			page 64


 2714 0228 5F5F4F52 		.ascii "__ORDER_PDP_ENDIAN__ 3412\0"
 2714      4445525F 
 2714      5044505F 
 2714      454E4449 
 2714      414E5F5F 
 2715 0242 01       		.byte	0x1
 2716 0243 00       		.uleb128 0
 2717 0244 5F5F4259 		.ascii "__BYTE_ORDER__ __ORDER_LITTLE_ENDIAN__\0"
 2717      54455F4F 
 2717      52444552 
 2717      5F5F205F 
 2717      5F4F5244 
 2718 026b 01       		.byte	0x1
 2719 026c 00       		.uleb128 0
 2720 026d 5F5F464C 		.ascii "__FLOAT_WORD_ORDER__ __ORDER_LITTLE_ENDIAN__\0"
 2720      4F41545F 
 2720      574F5244 
 2720      5F4F5244 
 2720      45525F5F 
 2721 029a 01       		.byte	0x1
 2722 029b 00       		.uleb128 0
 2723 029c 5F5F5349 		.ascii "__SIZEOF_POINTER__ 4\0"
 2723      5A454F46 
 2723      5F504F49 
 2723      4E544552 
 2723      5F5F2034 
 2724 02b1 01       		.byte	0x1
 2725 02b2 00       		.uleb128 0
 2726 02b3 5F5F5349 		.ascii "__SIZE_TYPE__ unsigned int\0"
 2726      5A455F54 
 2726      5950455F 
 2726      5F20756E 
 2726      7369676E 
 2727 02ce 01       		.byte	0x1
 2728 02cf 00       		.uleb128 0
 2729 02d0 5F5F5054 		.ascii "__PTRDIFF_TYPE__ int\0"
 2729      52444946 
 2729      465F5459 
 2729      50455F5F 
 2729      20696E74 
 2730 02e5 01       		.byte	0x1
 2731 02e6 00       		.uleb128 0
 2732 02e7 5F5F5743 		.ascii "__WCHAR_TYPE__ short unsigned int\0"
 2732      4841525F 
 2732      54595045 
 2732      5F5F2073 
 2732      686F7274 
 2733 0309 01       		.byte	0x1
 2734 030a 00       		.uleb128 0
 2735 030b 5F5F5749 		.ascii "__WINT_TYPE__ short unsigned int\0"
 2735      4E545F54 
 2735      5950455F 
 2735      5F207368 
 2735      6F727420 
 2736 032c 01       		.byte	0x1
 2737 032d 00       		.uleb128 0
 2738 032e 5F5F494E 		.ascii "__INTMAX_TYPE__ long long int\0"
GAS LISTING C:\Users\PRESID~1\AppData\Local\Temp\ccvbOxmE.s 			page 65


 2738      544D4158 
 2738      5F545950 
 2738      455F5F20 
 2738      6C6F6E67 
 2739 034c 01       		.byte	0x1
 2740 034d 00       		.uleb128 0
 2741 034e 5F5F5549 		.ascii "__UINTMAX_TYPE__ long long unsigned int\0"
 2741      4E544D41 
 2741      585F5459 
 2741      50455F5F 
 2741      206C6F6E 
 2742 0376 01       		.byte	0x1
 2743 0377 00       		.uleb128 0
 2744 0378 5F5F4348 		.ascii "__CHAR16_TYPE__ short unsigned int\0"
 2744      41523136 
 2744      5F545950 
 2744      455F5F20 
 2744      73686F72 
 2745 039b 01       		.byte	0x1
 2746 039c 00       		.uleb128 0
 2747 039d 5F5F4348 		.ascii "__CHAR32_TYPE__ unsigned int\0"
 2747      41523332 
 2747      5F545950 
 2747      455F5F20 
 2747      756E7369 
 2748 03ba 01       		.byte	0x1
 2749 03bb 00       		.uleb128 0
 2750 03bc 5F5F5349 		.ascii "__SIG_ATOMIC_TYPE__ int\0"
 2750      475F4154 
 2750      4F4D4943 
 2750      5F545950 
 2750      455F5F20 
 2751 03d4 01       		.byte	0x1
 2752 03d5 00       		.uleb128 0
 2753 03d6 5F5F494E 		.ascii "__INT8_TYPE__ signed char\0"
 2753      54385F54 
 2753      5950455F 
 2753      5F207369 
 2753      676E6564 
 2754 03f0 01       		.byte	0x1
 2755 03f1 00       		.uleb128 0
 2756 03f2 5F5F494E 		.ascii "__INT16_TYPE__ short int\0"
 2756      5431365F 
 2756      54595045 
 2756      5F5F2073 
 2756      686F7274 
 2757 040b 01       		.byte	0x1
 2758 040c 00       		.uleb128 0
 2759 040d 5F5F494E 		.ascii "__INT32_TYPE__ int\0"
 2759      5433325F 
 2759      54595045 
 2759      5F5F2069 
 2759      6E7400
 2760 0420 01       		.byte	0x1
 2761 0421 00       		.uleb128 0
 2762 0422 5F5F494E 		.ascii "__INT64_TYPE__ long long int\0"
 2762      5436345F 
GAS LISTING C:\Users\PRESID~1\AppData\Local\Temp\ccvbOxmE.s 			page 66


 2762      54595045 
 2762      5F5F206C 
 2762      6F6E6720 
 2763 043f 01       		.byte	0x1
 2764 0440 00       		.uleb128 0
 2765 0441 5F5F5549 		.ascii "__UINT8_TYPE__ unsigned char\0"
 2765      4E54385F 
 2765      54595045 
 2765      5F5F2075 
 2765      6E736967 
 2766 045e 01       		.byte	0x1
 2767 045f 00       		.uleb128 0
 2768 0460 5F5F5549 		.ascii "__UINT16_TYPE__ short unsigned int\0"
 2768      4E543136 
 2768      5F545950 
 2768      455F5F20 
 2768      73686F72 
 2769 0483 01       		.byte	0x1
 2770 0484 00       		.uleb128 0
 2771 0485 5F5F5549 		.ascii "__UINT32_TYPE__ unsigned int\0"
 2771      4E543332 
 2771      5F545950 
 2771      455F5F20 
 2771      756E7369 
 2772 04a2 01       		.byte	0x1
 2773 04a3 00       		.uleb128 0
 2774 04a4 5F5F5549 		.ascii "__UINT64_TYPE__ long long unsigned int\0"
 2774      4E543634 
 2774      5F545950 
 2774      455F5F20 
 2774      6C6F6E67 
 2775 04cb 01       		.byte	0x1
 2776 04cc 00       		.uleb128 0
 2777 04cd 5F5F494E 		.ascii "__INT_LEAST8_TYPE__ signed char\0"
 2777      545F4C45 
 2777      41535438 
 2777      5F545950 
 2777      455F5F20 
 2778 04ed 01       		.byte	0x1
 2779 04ee 00       		.uleb128 0
 2780 04ef 5F5F494E 		.ascii "__INT_LEAST16_TYPE__ short int\0"
 2780      545F4C45 
 2780      41535431 
 2780      365F5459 
 2780      50455F5F 
 2781 050e 01       		.byte	0x1
 2782 050f 00       		.uleb128 0
 2783 0510 5F5F494E 		.ascii "__INT_LEAST32_TYPE__ int\0"
 2783      545F4C45 
 2783      41535433 
 2783      325F5459 
 2783      50455F5F 
 2784 0529 01       		.byte	0x1
 2785 052a 00       		.uleb128 0
 2786 052b 5F5F494E 		.ascii "__INT_LEAST64_TYPE__ long long int\0"
 2786      545F4C45 
 2786      41535436 
GAS LISTING C:\Users\PRESID~1\AppData\Local\Temp\ccvbOxmE.s 			page 67


 2786      345F5459 
 2786      50455F5F 
 2787 054e 01       		.byte	0x1
 2788 054f 00       		.uleb128 0
 2789 0550 5F5F5549 		.ascii "__UINT_LEAST8_TYPE__ unsigned char\0"
 2789      4E545F4C 
 2789      45415354 
 2789      385F5459 
 2789      50455F5F 
 2790 0573 01       		.byte	0x1
 2791 0574 00       		.uleb128 0
 2792 0575 5F5F5549 		.ascii "__UINT_LEAST16_TYPE__ short unsigned int\0"
 2792      4E545F4C 
 2792      45415354 
 2792      31365F54 
 2792      5950455F 
 2793 059e 01       		.byte	0x1
 2794 059f 00       		.uleb128 0
 2795 05a0 5F5F5549 		.ascii "__UINT_LEAST32_TYPE__ unsigned int\0"
 2795      4E545F4C 
 2795      45415354 
 2795      33325F54 
 2795      5950455F 
 2796 05c3 01       		.byte	0x1
 2797 05c4 00       		.uleb128 0
 2798 05c5 5F5F5549 		.ascii "__UINT_LEAST64_TYPE__ long long unsigned int\0"
 2798      4E545F4C 
 2798      45415354 
 2798      36345F54 
 2798      5950455F 
 2799 05f2 01       		.byte	0x1
 2800 05f3 00       		.uleb128 0
 2801 05f4 5F5F494E 		.ascii "__INT_FAST8_TYPE__ signed char\0"
 2801      545F4641 
 2801      5354385F 
 2801      54595045 
 2801      5F5F2073 
 2802 0613 01       		.byte	0x1
 2803 0614 00       		.uleb128 0
 2804 0615 5F5F494E 		.ascii "__INT_FAST16_TYPE__ short int\0"
 2804      545F4641 
 2804      53543136 
 2804      5F545950 
 2804      455F5F20 
 2805 0633 01       		.byte	0x1
 2806 0634 00       		.uleb128 0
 2807 0635 5F5F494E 		.ascii "__INT_FAST32_TYPE__ int\0"
 2807      545F4641 
 2807      53543332 
 2807      5F545950 
 2807      455F5F20 
 2808 064d 01       		.byte	0x1
 2809 064e 00       		.uleb128 0
 2810 064f 5F5F494E 		.ascii "__INT_FAST64_TYPE__ long long int\0"
 2810      545F4641 
 2810      53543634 
 2810      5F545950 
GAS LISTING C:\Users\PRESID~1\AppData\Local\Temp\ccvbOxmE.s 			page 68


 2810      455F5F20 
 2811 0671 01       		.byte	0x1
 2812 0672 00       		.uleb128 0
 2813 0673 5F5F5549 		.ascii "__UINT_FAST8_TYPE__ unsigned char\0"
 2813      4E545F46 
 2813      41535438 
 2813      5F545950 
 2813      455F5F20 
 2814 0695 01       		.byte	0x1
 2815 0696 00       		.uleb128 0
 2816 0697 5F5F5549 		.ascii "__UINT_FAST16_TYPE__ short unsigned int\0"
 2816      4E545F46 
 2816      41535431 
 2816      365F5459 
 2816      50455F5F 
 2817 06bf 01       		.byte	0x1
 2818 06c0 00       		.uleb128 0
 2819 06c1 5F5F5549 		.ascii "__UINT_FAST32_TYPE__ unsigned int\0"
 2819      4E545F46 
 2819      41535433 
 2819      325F5459 
 2819      50455F5F 
 2820 06e3 01       		.byte	0x1
 2821 06e4 00       		.uleb128 0
 2822 06e5 5F5F5549 		.ascii "__UINT_FAST64_TYPE__ long long unsigned int\0"
 2822      4E545F46 
 2822      41535436 
 2822      345F5459 
 2822      50455F5F 
 2823 0711 01       		.byte	0x1
 2824 0712 00       		.uleb128 0
 2825 0713 5F5F494E 		.ascii "__INTPTR_TYPE__ int\0"
 2825      54505452 
 2825      5F545950 
 2825      455F5F20 
 2825      696E7400 
 2826 0727 01       		.byte	0x1
 2827 0728 00       		.uleb128 0
 2828 0729 5F5F5549 		.ascii "__UINTPTR_TYPE__ unsigned int\0"
 2828      4E545054 
 2828      525F5459 
 2828      50455F5F 
 2828      20756E73 
 2829 0747 01       		.byte	0x1
 2830 0748 00       		.uleb128 0
 2831 0749 5F5F6861 		.ascii "__has_include(STR) __has_include__(STR)\0"
 2831      735F696E 
 2831      636C7564 
 2831      65285354 
 2831      5229205F 
 2832 0771 01       		.byte	0x1
 2833 0772 00       		.uleb128 0
 2834 0773 5F5F6861 		.ascii "__has_include_next(STR) __has_include_next__(STR)\0"
 2834      735F696E 
 2834      636C7564 
 2834      655F6E65 
 2834      78742853 
GAS LISTING C:\Users\PRESID~1\AppData\Local\Temp\ccvbOxmE.s 			page 69


 2835 07a5 01       		.byte	0x1
 2836 07a6 00       		.uleb128 0
 2837 07a7 5F5F4758 		.ascii "__GXX_ABI_VERSION 1002\0"
 2837      585F4142 
 2837      495F5645 
 2837      5253494F 
 2837      4E203130 
 2838 07be 01       		.byte	0x1
 2839 07bf 00       		.uleb128 0
 2840 07c0 5F5F5343 		.ascii "__SCHAR_MAX__ 127\0"
 2840      4841525F 
 2840      4D41585F 
 2840      5F203132 
 2840      3700
 2841 07d2 01       		.byte	0x1
 2842 07d3 00       		.uleb128 0
 2843 07d4 5F5F5348 		.ascii "__SHRT_MAX__ 32767\0"
 2843      52545F4D 
 2843      41585F5F 
 2843      20333237 
 2843      363700
 2844 07e7 01       		.byte	0x1
 2845 07e8 00       		.uleb128 0
 2846 07e9 5F5F494E 		.ascii "__INT_MAX__ 2147483647\0"
 2846      545F4D41 
 2846      585F5F20 
 2846      32313437 
 2846      34383336 
 2847 0800 01       		.byte	0x1
 2848 0801 00       		.uleb128 0
 2849 0802 5F5F4C4F 		.ascii "__LONG_MAX__ 2147483647L\0"
 2849      4E475F4D 
 2849      41585F5F 
 2849      20323134 
 2849      37343833 
 2850 081b 01       		.byte	0x1
 2851 081c 00       		.uleb128 0
 2852 081d 5F5F4C4F 		.ascii "__LONG_LONG_MAX__ 9223372036854775807LL\0"
 2852      4E475F4C 
 2852      4F4E475F 
 2852      4D41585F 
 2852      5F203932 
 2853 0845 01       		.byte	0x1
 2854 0846 00       		.uleb128 0
 2855 0847 5F5F5743 		.ascii "__WCHAR_MAX__ 65535\0"
 2855      4841525F 
 2855      4D41585F 
 2855      5F203635 
 2855      35333500 
 2856 085b 01       		.byte	0x1
 2857 085c 00       		.uleb128 0
 2858 085d 5F5F5743 		.ascii "__WCHAR_MIN__ 0\0"
 2858      4841525F 
 2858      4D494E5F 
 2858      5F203000 
 2859 086d 01       		.byte	0x1
 2860 086e 00       		.uleb128 0
GAS LISTING C:\Users\PRESID~1\AppData\Local\Temp\ccvbOxmE.s 			page 70


 2861 086f 5F5F5749 		.ascii "__WINT_MAX__ 65535\0"
 2861      4E545F4D 
 2861      41585F5F 
 2861      20363535 
 2861      333500
 2862 0882 01       		.byte	0x1
 2863 0883 00       		.uleb128 0
 2864 0884 5F5F5749 		.ascii "__WINT_MIN__ 0\0"
 2864      4E545F4D 
 2864      494E5F5F 
 2864      203000
 2865 0893 01       		.byte	0x1
 2866 0894 00       		.uleb128 0
 2867 0895 5F5F5054 		.ascii "__PTRDIFF_MAX__ 2147483647\0"
 2867      52444946 
 2867      465F4D41 
 2867      585F5F20 
 2867      32313437 
 2868 08b0 01       		.byte	0x1
 2869 08b1 00       		.uleb128 0
 2870 08b2 5F5F5349 		.ascii "__SIZE_MAX__ 4294967295U\0"
 2870      5A455F4D 
 2870      41585F5F 
 2870      20343239 
 2870      34393637 
 2871 08cb 01       		.byte	0x1
 2872 08cc 00       		.uleb128 0
 2873 08cd 5F5F494E 		.ascii "__INTMAX_MAX__ 9223372036854775807LL\0"
 2873      544D4158 
 2873      5F4D4158 
 2873      5F5F2039 
 2873      32323333 
 2874 08f2 01       		.byte	0x1
 2875 08f3 00       		.uleb128 0
 2876 08f4 5F5F494E 		.ascii "__INTMAX_C(c) c ## LL\0"
 2876      544D4158 
 2876      5F432863 
 2876      29206320 
 2876      2323204C 
 2877 090a 01       		.byte	0x1
 2878 090b 00       		.uleb128 0
 2879 090c 5F5F5549 		.ascii "__UINTMAX_MAX__ 18446744073709551615ULL\0"
 2879      4E544D41 
 2879      585F4D41 
 2879      585F5F20 
 2879      31383434 
 2880 0934 01       		.byte	0x1
 2881 0935 00       		.uleb128 0
 2882 0936 5F5F5549 		.ascii "__UINTMAX_C(c) c ## ULL\0"
 2882      4E544D41 
 2882      585F4328 
 2882      63292063 
 2882      20232320 
 2883 094e 01       		.byte	0x1
 2884 094f 00       		.uleb128 0
 2885 0950 5F5F5349 		.ascii "__SIG_ATOMIC_MAX__ 2147483647\0"
 2885      475F4154 
GAS LISTING C:\Users\PRESID~1\AppData\Local\Temp\ccvbOxmE.s 			page 71


 2885      4F4D4943 
 2885      5F4D4158 
 2885      5F5F2032 
 2886 096e 01       		.byte	0x1
 2887 096f 00       		.uleb128 0
 2888 0970 5F5F5349 		.ascii "__SIG_ATOMIC_MIN__ (-__SIG_ATOMIC_MAX__ - 1)\0"
 2888      475F4154 
 2888      4F4D4943 
 2888      5F4D494E 
 2888      5F5F2028 
 2889 099d 01       		.byte	0x1
 2890 099e 00       		.uleb128 0
 2891 099f 5F5F494E 		.ascii "__INT8_MAX__ 127\0"
 2891      54385F4D 
 2891      41585F5F 
 2891      20313237 
 2891      00
 2892 09b0 01       		.byte	0x1
 2893 09b1 00       		.uleb128 0
 2894 09b2 5F5F494E 		.ascii "__INT16_MAX__ 32767\0"
 2894      5431365F 
 2894      4D41585F 
 2894      5F203332 
 2894      37363700 
 2895 09c6 01       		.byte	0x1
 2896 09c7 00       		.uleb128 0
 2897 09c8 5F5F494E 		.ascii "__INT32_MAX__ 2147483647\0"
 2897      5433325F 
 2897      4D41585F 
 2897      5F203231 
 2897      34373438 
 2898 09e1 01       		.byte	0x1
 2899 09e2 00       		.uleb128 0
 2900 09e3 5F5F494E 		.ascii "__INT64_MAX__ 9223372036854775807LL\0"
 2900      5436345F 
 2900      4D41585F 
 2900      5F203932 
 2900      32333337 
 2901 0a07 01       		.byte	0x1
 2902 0a08 00       		.uleb128 0
 2903 0a09 5F5F5549 		.ascii "__UINT8_MAX__ 255\0"
 2903      4E54385F 
 2903      4D41585F 
 2903      5F203235 
 2903      3500
 2904 0a1b 01       		.byte	0x1
 2905 0a1c 00       		.uleb128 0
 2906 0a1d 5F5F5549 		.ascii "__UINT16_MAX__ 65535\0"
 2906      4E543136 
 2906      5F4D4158 
 2906      5F5F2036 
 2906      35353335 
 2907 0a32 01       		.byte	0x1
 2908 0a33 00       		.uleb128 0
 2909 0a34 5F5F5549 		.ascii "__UINT32_MAX__ 4294967295U\0"
 2909      4E543332 
 2909      5F4D4158 
GAS LISTING C:\Users\PRESID~1\AppData\Local\Temp\ccvbOxmE.s 			page 72


 2909      5F5F2034 
 2909      32393439 
 2910 0a4f 01       		.byte	0x1
 2911 0a50 00       		.uleb128 0
 2912 0a51 5F5F5549 		.ascii "__UINT64_MAX__ 18446744073709551615ULL\0"
 2912      4E543634 
 2912      5F4D4158 
 2912      5F5F2031 
 2912      38343436 
 2913 0a78 01       		.byte	0x1
 2914 0a79 00       		.uleb128 0
 2915 0a7a 5F5F494E 		.ascii "__INT_LEAST8_MAX__ 127\0"
 2915      545F4C45 
 2915      41535438 
 2915      5F4D4158 
 2915      5F5F2031 
 2916 0a91 01       		.byte	0x1
 2917 0a92 00       		.uleb128 0
 2918 0a93 5F5F494E 		.ascii "__INT8_C(c) c\0"
 2918      54385F43 
 2918      28632920 
 2918      6300
 2919 0aa1 01       		.byte	0x1
 2920 0aa2 00       		.uleb128 0
 2921 0aa3 5F5F494E 		.ascii "__INT_LEAST16_MAX__ 32767\0"
 2921      545F4C45 
 2921      41535431 
 2921      365F4D41 
 2921      585F5F20 
 2922 0abd 01       		.byte	0x1
 2923 0abe 00       		.uleb128 0
 2924 0abf 5F5F494E 		.ascii "__INT16_C(c) c\0"
 2924      5431365F 
 2924      43286329 
 2924      206300
 2925 0ace 01       		.byte	0x1
 2926 0acf 00       		.uleb128 0
 2927 0ad0 5F5F494E 		.ascii "__INT_LEAST32_MAX__ 2147483647\0"
 2927      545F4C45 
 2927      41535433 
 2927      325F4D41 
 2927      585F5F20 
 2928 0aef 01       		.byte	0x1
 2929 0af0 00       		.uleb128 0
 2930 0af1 5F5F494E 		.ascii "__INT32_C(c) c\0"
 2930      5433325F 
 2930      43286329 
 2930      206300
 2931 0b00 01       		.byte	0x1
 2932 0b01 00       		.uleb128 0
 2933 0b02 5F5F494E 		.ascii "__INT_LEAST64_MAX__ 9223372036854775807LL\0"
 2933      545F4C45 
 2933      41535436 
 2933      345F4D41 
 2933      585F5F20 
 2934 0b2c 01       		.byte	0x1
 2935 0b2d 00       		.uleb128 0
GAS LISTING C:\Users\PRESID~1\AppData\Local\Temp\ccvbOxmE.s 			page 73


 2936 0b2e 5F5F494E 		.ascii "__INT64_C(c) c ## LL\0"
 2936      5436345F 
 2936      43286329 
 2936      20632023 
 2936      23204C4C 
 2937 0b43 01       		.byte	0x1
 2938 0b44 00       		.uleb128 0
 2939 0b45 5F5F5549 		.ascii "__UINT_LEAST8_MAX__ 255\0"
 2939      4E545F4C 
 2939      45415354 
 2939      385F4D41 
 2939      585F5F20 
 2940 0b5d 01       		.byte	0x1
 2941 0b5e 00       		.uleb128 0
 2942 0b5f 5F5F5549 		.ascii "__UINT8_C(c) c\0"
 2942      4E54385F 
 2942      43286329 
 2942      206300
 2943 0b6e 01       		.byte	0x1
 2944 0b6f 00       		.uleb128 0
 2945 0b70 5F5F5549 		.ascii "__UINT_LEAST16_MAX__ 65535\0"
 2945      4E545F4C 
 2945      45415354 
 2945      31365F4D 
 2945      41585F5F 
 2946 0b8b 01       		.byte	0x1
 2947 0b8c 00       		.uleb128 0
 2948 0b8d 5F5F5549 		.ascii "__UINT16_C(c) c\0"
 2948      4E543136 
 2948      5F432863 
 2948      29206300 
 2949 0b9d 01       		.byte	0x1
 2950 0b9e 00       		.uleb128 0
 2951 0b9f 5F5F5549 		.ascii "__UINT_LEAST32_MAX__ 4294967295U\0"
 2951      4E545F4C 
 2951      45415354 
 2951      33325F4D 
 2951      41585F5F 
 2952 0bc0 01       		.byte	0x1
 2953 0bc1 00       		.uleb128 0
 2954 0bc2 5F5F5549 		.ascii "__UINT32_C(c) c ## U\0"
 2954      4E543332 
 2954      5F432863 
 2954      29206320 
 2954      23232055 
 2955 0bd7 01       		.byte	0x1
 2956 0bd8 00       		.uleb128 0
 2957 0bd9 5F5F5549 		.ascii "__UINT_LEAST64_MAX__ 18446744073709551615ULL\0"
 2957      4E545F4C 
 2957      45415354 
 2957      36345F4D 
 2957      41585F5F 
 2958 0c06 01       		.byte	0x1
 2959 0c07 00       		.uleb128 0
 2960 0c08 5F5F5549 		.ascii "__UINT64_C(c) c ## ULL\0"
 2960      4E543634 
 2960      5F432863 
GAS LISTING C:\Users\PRESID~1\AppData\Local\Temp\ccvbOxmE.s 			page 74


 2960      29206320 
 2960      23232055 
 2961 0c1f 01       		.byte	0x1
 2962 0c20 00       		.uleb128 0
 2963 0c21 5F5F494E 		.ascii "__INT_FAST8_MAX__ 127\0"
 2963      545F4641 
 2963      5354385F 
 2963      4D41585F 
 2963      5F203132 
 2964 0c37 01       		.byte	0x1
 2965 0c38 00       		.uleb128 0
 2966 0c39 5F5F494E 		.ascii "__INT_FAST16_MAX__ 32767\0"
 2966      545F4641 
 2966      53543136 
 2966      5F4D4158 
 2966      5F5F2033 
 2967 0c52 01       		.byte	0x1
 2968 0c53 00       		.uleb128 0
 2969 0c54 5F5F494E 		.ascii "__INT_FAST32_MAX__ 2147483647\0"
 2969      545F4641 
 2969      53543332 
 2969      5F4D4158 
 2969      5F5F2032 
 2970 0c72 01       		.byte	0x1
 2971 0c73 00       		.uleb128 0
 2972 0c74 5F5F494E 		.ascii "__INT_FAST64_MAX__ 9223372036854775807LL\0"
 2972      545F4641 
 2972      53543634 
 2972      5F4D4158 
 2972      5F5F2039 
 2973 0c9d 01       		.byte	0x1
 2974 0c9e 00       		.uleb128 0
 2975 0c9f 5F5F5549 		.ascii "__UINT_FAST8_MAX__ 255\0"
 2975      4E545F46 
 2975      41535438 
 2975      5F4D4158 
 2975      5F5F2032 
 2976 0cb6 01       		.byte	0x1
 2977 0cb7 00       		.uleb128 0
 2978 0cb8 5F5F5549 		.ascii "__UINT_FAST16_MAX__ 65535\0"
 2978      4E545F46 
 2978      41535431 
 2978      365F4D41 
 2978      585F5F20 
 2979 0cd2 01       		.byte	0x1
 2980 0cd3 00       		.uleb128 0
 2981 0cd4 5F5F5549 		.ascii "__UINT_FAST32_MAX__ 4294967295U\0"
 2981      4E545F46 
 2981      41535433 
 2981      325F4D41 
 2981      585F5F20 
 2982 0cf4 01       		.byte	0x1
 2983 0cf5 00       		.uleb128 0
 2984 0cf6 5F5F5549 		.ascii "__UINT_FAST64_MAX__ 18446744073709551615ULL\0"
 2984      4E545F46 
 2984      41535436 
 2984      345F4D41 
GAS LISTING C:\Users\PRESID~1\AppData\Local\Temp\ccvbOxmE.s 			page 75


 2984      585F5F20 
 2985 0d22 01       		.byte	0x1
 2986 0d23 00       		.uleb128 0
 2987 0d24 5F5F494E 		.ascii "__INTPTR_MAX__ 2147483647\0"
 2987      54505452 
 2987      5F4D4158 
 2987      5F5F2032 
 2987      31343734 
 2988 0d3e 01       		.byte	0x1
 2989 0d3f 00       		.uleb128 0
 2990 0d40 5F5F5549 		.ascii "__UINTPTR_MAX__ 4294967295U\0"
 2990      4E545054 
 2990      525F4D41 
 2990      585F5F20 
 2990      34323934 
 2991 0d5c 01       		.byte	0x1
 2992 0d5d 00       		.uleb128 0
 2993 0d5e 5F5F4743 		.ascii "__GCC_IEC_559 2\0"
 2993      435F4945 
 2993      435F3535 
 2993      39203200 
 2994 0d6e 01       		.byte	0x1
 2995 0d6f 00       		.uleb128 0
 2996 0d70 5F5F4743 		.ascii "__GCC_IEC_559_COMPLEX 2\0"
 2996      435F4945 
 2996      435F3535 
 2996      395F434F 
 2996      4D504C45 
 2997 0d88 01       		.byte	0x1
 2998 0d89 00       		.uleb128 0
 2999 0d8a 5F5F464C 		.ascii "__FLT_EVAL_METHOD__ 2\0"
 2999      545F4556 
 2999      414C5F4D 
 2999      4554484F 
 2999      445F5F20 
 3000 0da0 01       		.byte	0x1
 3001 0da1 00       		.uleb128 0
 3002 0da2 5F5F4445 		.ascii "__DEC_EVAL_METHOD__ 2\0"
 3002      435F4556 
 3002      414C5F4D 
 3002      4554484F 
 3002      445F5F20 
 3003 0db8 01       		.byte	0x1
 3004 0db9 00       		.uleb128 0
 3005 0dba 5F5F464C 		.ascii "__FLT_RADIX__ 2\0"
 3005      545F5241 
 3005      4449585F 
 3005      5F203200 
 3006 0dca 01       		.byte	0x1
 3007 0dcb 00       		.uleb128 0
 3008 0dcc 5F5F464C 		.ascii "__FLT_MANT_DIG__ 24\0"
 3008      545F4D41 
 3008      4E545F44 
 3008      49475F5F 
 3008      20323400 
 3009 0de0 01       		.byte	0x1
 3010 0de1 00       		.uleb128 0
GAS LISTING C:\Users\PRESID~1\AppData\Local\Temp\ccvbOxmE.s 			page 76


 3011 0de2 5F5F464C 		.ascii "__FLT_DIG__ 6\0"
 3011      545F4449 
 3011      475F5F20 
 3011      3600
 3012 0df0 01       		.byte	0x1
 3013 0df1 00       		.uleb128 0
 3014 0df2 5F5F464C 		.ascii "__FLT_MIN_EXP__ (-125)\0"
 3014      545F4D49 
 3014      4E5F4558 
 3014      505F5F20 
 3014      282D3132 
 3015 0e09 01       		.byte	0x1
 3016 0e0a 00       		.uleb128 0
 3017 0e0b 5F5F464C 		.ascii "__FLT_MIN_10_EXP__ (-37)\0"
 3017      545F4D49 
 3017      4E5F3130 
 3017      5F455850 
 3017      5F5F2028 
 3018 0e24 01       		.byte	0x1
 3019 0e25 00       		.uleb128 0
 3020 0e26 5F5F464C 		.ascii "__FLT_MAX_EXP__ 128\0"
 3020      545F4D41 
 3020      585F4558 
 3020      505F5F20 
 3020      31323800 
 3021 0e3a 01       		.byte	0x1
 3022 0e3b 00       		.uleb128 0
 3023 0e3c 5F5F464C 		.ascii "__FLT_MAX_10_EXP__ 38\0"
 3023      545F4D41 
 3023      585F3130 
 3023      5F455850 
 3023      5F5F2033 
 3024 0e52 01       		.byte	0x1
 3025 0e53 00       		.uleb128 0
 3026 0e54 5F5F464C 		.ascii "__FLT_DECIMAL_DIG__ 9\0"
 3026      545F4445 
 3026      43494D41 
 3026      4C5F4449 
 3026      475F5F20 
 3027 0e6a 01       		.byte	0x1
 3028 0e6b 00       		.uleb128 0
 3029 0e6c 5F5F464C 		.ascii "__FLT_MAX__ 3.40282346638528859812e+38F\0"
 3029      545F4D41 
 3029      585F5F20 
 3029      332E3430 
 3029      32383233 
 3030 0e94 01       		.byte	0x1
 3031 0e95 00       		.uleb128 0
 3032 0e96 5F5F464C 		.ascii "__FLT_MIN__ 1.17549435082228750797e-38F\0"
 3032      545F4D49 
 3032      4E5F5F20 
 3032      312E3137 
 3032      35343934 
 3033 0ebe 01       		.byte	0x1
 3034 0ebf 00       		.uleb128 0
 3035 0ec0 5F5F464C 		.ascii "__FLT_EPSILON__ 1.19209289550781250000e-7F\0"
 3035      545F4550 
GAS LISTING C:\Users\PRESID~1\AppData\Local\Temp\ccvbOxmE.s 			page 77


 3035      53494C4F 
 3035      4E5F5F20 
 3035      312E3139 
 3036 0eeb 01       		.byte	0x1
 3037 0eec 00       		.uleb128 0
 3038 0eed 5F5F464C 		.ascii "__FLT_DENORM_MIN__ 1.40129846432481707092e-45F\0"
 3038      545F4445 
 3038      4E4F524D 
 3038      5F4D494E 
 3038      5F5F2031 
 3039 0f1c 01       		.byte	0x1
 3040 0f1d 00       		.uleb128 0
 3041 0f1e 5F5F464C 		.ascii "__FLT_HAS_DENORM__ 1\0"
 3041      545F4841 
 3041      535F4445 
 3041      4E4F524D 
 3041      5F5F2031 
 3042 0f33 01       		.byte	0x1
 3043 0f34 00       		.uleb128 0
 3044 0f35 5F5F464C 		.ascii "__FLT_HAS_INFINITY__ 1\0"
 3044      545F4841 
 3044      535F494E 
 3044      46494E49 
 3044      54595F5F 
 3045 0f4c 01       		.byte	0x1
 3046 0f4d 00       		.uleb128 0
 3047 0f4e 5F5F464C 		.ascii "__FLT_HAS_QUIET_NAN__ 1\0"
 3047      545F4841 
 3047      535F5155 
 3047      4945545F 
 3047      4E414E5F 
 3048 0f66 01       		.byte	0x1
 3049 0f67 00       		.uleb128 0
 3050 0f68 5F5F4442 		.ascii "__DBL_MANT_DIG__ 53\0"
 3050      4C5F4D41 
 3050      4E545F44 
 3050      49475F5F 
 3050      20353300 
 3051 0f7c 01       		.byte	0x1
 3052 0f7d 00       		.uleb128 0
 3053 0f7e 5F5F4442 		.ascii "__DBL_DIG__ 15\0"
 3053      4C5F4449 
 3053      475F5F20 
 3053      313500
 3054 0f8d 01       		.byte	0x1
 3055 0f8e 00       		.uleb128 0
 3056 0f8f 5F5F4442 		.ascii "__DBL_MIN_EXP__ (-1021)\0"
 3056      4C5F4D49 
 3056      4E5F4558 
 3056      505F5F20 
 3056      282D3130 
 3057 0fa7 01       		.byte	0x1
 3058 0fa8 00       		.uleb128 0
 3059 0fa9 5F5F4442 		.ascii "__DBL_MIN_10_EXP__ (-307)\0"
 3059      4C5F4D49 
 3059      4E5F3130 
 3059      5F455850 
GAS LISTING C:\Users\PRESID~1\AppData\Local\Temp\ccvbOxmE.s 			page 78


 3059      5F5F2028 
 3060 0fc3 01       		.byte	0x1
 3061 0fc4 00       		.uleb128 0
 3062 0fc5 5F5F4442 		.ascii "__DBL_MAX_EXP__ 1024\0"
 3062      4C5F4D41 
 3062      585F4558 
 3062      505F5F20 
 3062      31303234 
 3063 0fda 01       		.byte	0x1
 3064 0fdb 00       		.uleb128 0
 3065 0fdc 5F5F4442 		.ascii "__DBL_MAX_10_EXP__ 308\0"
 3065      4C5F4D41 
 3065      585F3130 
 3065      5F455850 
 3065      5F5F2033 
 3066 0ff3 01       		.byte	0x1
 3067 0ff4 00       		.uleb128 0
 3068 0ff5 5F5F4442 		.ascii "__DBL_DECIMAL_DIG__ 17\0"
 3068      4C5F4445 
 3068      43494D41 
 3068      4C5F4449 
 3068      475F5F20 
 3069 100c 01       		.byte	0x1
 3070 100d 00       		.uleb128 0
 3071 100e 5F5F4442 		.ascii "__DBL_MAX__ ((double)1.79769313486231570815e+308L)\0"
 3071      4C5F4D41 
 3071      585F5F20 
 3071      2828646F 
 3071      75626C65 
 3072 1041 01       		.byte	0x1
 3073 1042 00       		.uleb128 0
 3074 1043 5F5F4442 		.ascii "__DBL_MIN__ ((double)2.22507385850720138309e-308L)\0"
 3074      4C5F4D49 
 3074      4E5F5F20 
 3074      2828646F 
 3074      75626C65 
 3075 1076 01       		.byte	0x1
 3076 1077 00       		.uleb128 0
 3077 1078 5F5F4442 		.ascii "__DBL_EPSILON__ ((double)2.22044604925031308085e-16L)\0"
 3077      4C5F4550 
 3077      53494C4F 
 3077      4E5F5F20 
 3077      2828646F 
 3078 10ae 01       		.byte	0x1
 3079 10af 00       		.uleb128 0
 3080 10b0 5F5F4442 		.ascii "__DBL_DENORM_MIN__ ((double)4.94065645841246544177e-324L)\0"
 3080      4C5F4445 
 3080      4E4F524D 
 3080      5F4D494E 
 3080      5F5F2028 
 3081 10ea 01       		.byte	0x1
 3082 10eb 00       		.uleb128 0
 3083 10ec 5F5F4442 		.ascii "__DBL_HAS_DENORM__ 1\0"
 3083      4C5F4841 
 3083      535F4445 
 3083      4E4F524D 
 3083      5F5F2031 
GAS LISTING C:\Users\PRESID~1\AppData\Local\Temp\ccvbOxmE.s 			page 79


 3084 1101 01       		.byte	0x1
 3085 1102 00       		.uleb128 0
 3086 1103 5F5F4442 		.ascii "__DBL_HAS_INFINITY__ 1\0"
 3086      4C5F4841 
 3086      535F494E 
 3086      46494E49 
 3086      54595F5F 
 3087 111a 01       		.byte	0x1
 3088 111b 00       		.uleb128 0
 3089 111c 5F5F4442 		.ascii "__DBL_HAS_QUIET_NAN__ 1\0"
 3089      4C5F4841 
 3089      535F5155 
 3089      4945545F 
 3089      4E414E5F 
 3090 1134 01       		.byte	0x1
 3091 1135 00       		.uleb128 0
 3092 1136 5F5F4C44 		.ascii "__LDBL_MANT_DIG__ 64\0"
 3092      424C5F4D 
 3092      414E545F 
 3092      4449475F 
 3092      5F203634 
 3093 114b 01       		.byte	0x1
 3094 114c 00       		.uleb128 0
 3095 114d 5F5F4C44 		.ascii "__LDBL_DIG__ 18\0"
 3095      424C5F44 
 3095      49475F5F 
 3095      20313800 
 3096 115d 01       		.byte	0x1
 3097 115e 00       		.uleb128 0
 3098 115f 5F5F4C44 		.ascii "__LDBL_MIN_EXP__ (-16381)\0"
 3098      424C5F4D 
 3098      494E5F45 
 3098      58505F5F 
 3098      20282D31 
 3099 1179 01       		.byte	0x1
 3100 117a 00       		.uleb128 0
 3101 117b 5F5F4C44 		.ascii "__LDBL_MIN_10_EXP__ (-4931)\0"
 3101      424C5F4D 
 3101      494E5F31 
 3101      305F4558 
 3101      505F5F20 
 3102 1197 01       		.byte	0x1
 3103 1198 00       		.uleb128 0
 3104 1199 5F5F4C44 		.ascii "__LDBL_MAX_EXP__ 16384\0"
 3104      424C5F4D 
 3104      41585F45 
 3104      58505F5F 
 3104      20313633 
 3105 11b0 01       		.byte	0x1
 3106 11b1 00       		.uleb128 0
 3107 11b2 5F5F4C44 		.ascii "__LDBL_MAX_10_EXP__ 4932\0"
 3107      424C5F4D 
 3107      41585F31 
 3107      305F4558 
 3107      505F5F20 
 3108 11cb 01       		.byte	0x1
 3109 11cc 00       		.uleb128 0
GAS LISTING C:\Users\PRESID~1\AppData\Local\Temp\ccvbOxmE.s 			page 80


 3110 11cd 5F5F4445 		.ascii "__DECIMAL_DIG__ 21\0"
 3110      43494D41 
 3110      4C5F4449 
 3110      475F5F20 
 3110      323100
 3111 11e0 01       		.byte	0x1
 3112 11e1 00       		.uleb128 0
 3113 11e2 5F5F4C44 		.ascii "__LDBL_MAX__ 1.18973149535723176502e+4932L\0"
 3113      424C5F4D 
 3113      41585F5F 
 3113      20312E31 
 3113      38393733 
 3114 120d 01       		.byte	0x1
 3115 120e 00       		.uleb128 0
 3116 120f 5F5F4C44 		.ascii "__LDBL_MIN__ 3.36210314311209350626e-4932L\0"
 3116      424C5F4D 
 3116      494E5F5F 
 3116      20332E33 
 3116      36323130 
 3117 123a 01       		.byte	0x1
 3118 123b 00       		.uleb128 0
 3119 123c 5F5F4C44 		.ascii "__LDBL_EPSILON__ 1.08420217248550443401e-19L\0"
 3119      424C5F45 
 3119      5053494C 
 3119      4F4E5F5F 
 3119      20312E30 
 3120 1269 01       		.byte	0x1
 3121 126a 00       		.uleb128 0
 3122 126b 5F5F4C44 		.ascii "__LDBL_DENORM_MIN__ 3.64519953188247460253e-4951L\0"
 3122      424C5F44 
 3122      454E4F52 
 3122      4D5F4D49 
 3122      4E5F5F20 
 3123 129d 01       		.byte	0x1
 3124 129e 00       		.uleb128 0
 3125 129f 5F5F4C44 		.ascii "__LDBL_HAS_DENORM__ 1\0"
 3125      424C5F48 
 3125      41535F44 
 3125      454E4F52 
 3125      4D5F5F20 
 3126 12b5 01       		.byte	0x1
 3127 12b6 00       		.uleb128 0
 3128 12b7 5F5F4C44 		.ascii "__LDBL_HAS_INFINITY__ 1\0"
 3128      424C5F48 
 3128      41535F49 
 3128      4E46494E 
 3128      4954595F 
 3129 12cf 01       		.byte	0x1
 3130 12d0 00       		.uleb128 0
 3131 12d1 5F5F4C44 		.ascii "__LDBL_HAS_QUIET_NAN__ 1\0"
 3131      424C5F48 
 3131      41535F51 
 3131      55494554 
 3131      5F4E414E 
 3132 12ea 01       		.byte	0x1
 3133 12eb 00       		.uleb128 0
 3134 12ec 5F5F4445 		.ascii "__DEC32_MANT_DIG__ 7\0"
GAS LISTING C:\Users\PRESID~1\AppData\Local\Temp\ccvbOxmE.s 			page 81


 3134      4333325F 
 3134      4D414E54 
 3134      5F444947 
 3134      5F5F2037 
 3135 1301 01       		.byte	0x1
 3136 1302 00       		.uleb128 0
 3137 1303 5F5F4445 		.ascii "__DEC32_MIN_EXP__ (-94)\0"
 3137      4333325F 
 3137      4D494E5F 
 3137      4558505F 
 3137      5F20282D 
 3138 131b 01       		.byte	0x1
 3139 131c 00       		.uleb128 0
 3140 131d 5F5F4445 		.ascii "__DEC32_MAX_EXP__ 97\0"
 3140      4333325F 
 3140      4D41585F 
 3140      4558505F 
 3140      5F203937 
 3141 1332 01       		.byte	0x1
 3142 1333 00       		.uleb128 0
 3143 1334 5F5F4445 		.ascii "__DEC32_MIN__ 1E-95DF\0"
 3143      4333325F 
 3143      4D494E5F 
 3143      5F203145 
 3143      2D393544 
 3144 134a 01       		.byte	0x1
 3145 134b 00       		.uleb128 0
 3146 134c 5F5F4445 		.ascii "__DEC32_MAX__ 9.999999E96DF\0"
 3146      4333325F 
 3146      4D41585F 
 3146      5F20392E 
 3146      39393939 
 3147 1368 01       		.byte	0x1
 3148 1369 00       		.uleb128 0
 3149 136a 5F5F4445 		.ascii "__DEC32_EPSILON__ 1E-6DF\0"
 3149      4333325F 
 3149      45505349 
 3149      4C4F4E5F 
 3149      5F203145 
 3150 1383 01       		.byte	0x1
 3151 1384 00       		.uleb128 0
 3152 1385 5F5F4445 		.ascii "__DEC32_SUBNORMAL_MIN__ 0.000001E-95DF\0"
 3152      4333325F 
 3152      5355424E 
 3152      4F524D41 
 3152      4C5F4D49 
 3153 13ac 01       		.byte	0x1
 3154 13ad 00       		.uleb128 0
 3155 13ae 5F5F4445 		.ascii "__DEC64_MANT_DIG__ 16\0"
 3155      4336345F 
 3155      4D414E54 
 3155      5F444947 
 3155      5F5F2031 
 3156 13c4 01       		.byte	0x1
 3157 13c5 00       		.uleb128 0
 3158 13c6 5F5F4445 		.ascii "__DEC64_MIN_EXP__ (-382)\0"
 3158      4336345F 
GAS LISTING C:\Users\PRESID~1\AppData\Local\Temp\ccvbOxmE.s 			page 82


 3158      4D494E5F 
 3158      4558505F 
 3158      5F20282D 
 3159 13df 01       		.byte	0x1
 3160 13e0 00       		.uleb128 0
 3161 13e1 5F5F4445 		.ascii "__DEC64_MAX_EXP__ 385\0"
 3161      4336345F 
 3161      4D41585F 
 3161      4558505F 
 3161      5F203338 
 3162 13f7 01       		.byte	0x1
 3163 13f8 00       		.uleb128 0
 3164 13f9 5F5F4445 		.ascii "__DEC64_MIN__ 1E-383DD\0"
 3164      4336345F 
 3164      4D494E5F 
 3164      5F203145 
 3164      2D333833 
 3165 1410 01       		.byte	0x1
 3166 1411 00       		.uleb128 0
 3167 1412 5F5F4445 		.ascii "__DEC64_MAX__ 9.999999999999999E384DD\0"
 3167      4336345F 
 3167      4D41585F 
 3167      5F20392E 
 3167      39393939 
 3168 1438 01       		.byte	0x1
 3169 1439 00       		.uleb128 0
 3170 143a 5F5F4445 		.ascii "__DEC64_EPSILON__ 1E-15DD\0"
 3170      4336345F 
 3170      45505349 
 3170      4C4F4E5F 
 3170      5F203145 
 3171 1454 01       		.byte	0x1
 3172 1455 00       		.uleb128 0
 3173 1456 5F5F4445 		.ascii "__DEC64_SUBNORMAL_MIN__ 0.000000000000001E-383DD\0"
 3173      4336345F 
 3173      5355424E 
 3173      4F524D41 
 3173      4C5F4D49 
 3174 1487 01       		.byte	0x1
 3175 1488 00       		.uleb128 0
 3176 1489 5F5F4445 		.ascii "__DEC128_MANT_DIG__ 34\0"
 3176      43313238 
 3176      5F4D414E 
 3176      545F4449 
 3176      475F5F20 
 3177 14a0 01       		.byte	0x1
 3178 14a1 00       		.uleb128 0
 3179 14a2 5F5F4445 		.ascii "__DEC128_MIN_EXP__ (-6142)\0"
 3179      43313238 
 3179      5F4D494E 
 3179      5F455850 
 3179      5F5F2028 
 3180 14bd 01       		.byte	0x1
 3181 14be 00       		.uleb128 0
 3182 14bf 5F5F4445 		.ascii "__DEC128_MAX_EXP__ 6145\0"
 3182      43313238 
 3182      5F4D4158 
GAS LISTING C:\Users\PRESID~1\AppData\Local\Temp\ccvbOxmE.s 			page 83


 3182      5F455850 
 3182      5F5F2036 
 3183 14d7 01       		.byte	0x1
 3184 14d8 00       		.uleb128 0
 3185 14d9 5F5F4445 		.ascii "__DEC128_MIN__ 1E-6143DL\0"
 3185      43313238 
 3185      5F4D494E 
 3185      5F5F2031 
 3185      452D3631 
 3186 14f2 01       		.byte	0x1
 3187 14f3 00       		.uleb128 0
 3188 14f4 5F5F4445 		.ascii "__DEC128_MAX__ 9.999999999999999999999999999999999E6144DL\0"
 3188      43313238 
 3188      5F4D4158 
 3188      5F5F2039 
 3188      2E393939 
 3189 152e 01       		.byte	0x1
 3190 152f 00       		.uleb128 0
 3191 1530 5F5F4445 		.ascii "__DEC128_EPSILON__ 1E-33DL\0"
 3191      43313238 
 3191      5F455053 
 3191      494C4F4E 
 3191      5F5F2031 
 3192 154b 01       		.byte	0x1
 3193 154c 00       		.uleb128 0
 3194 154d 5F5F4445 		.ascii "__DEC128_SUBNORMAL_MIN__ 0.000000000000000000000000000000001E-6143DL\0"
 3194      43313238 
 3194      5F535542 
 3194      4E4F524D 
 3194      414C5F4D 
 3195 1592 01       		.byte	0x1
 3196 1593 00       		.uleb128 0
 3197 1594 5F5F5245 		.ascii "__REGISTER_PREFIX__ \0"
 3197      47495354 
 3197      45525F50 
 3197      52454649 
 3197      585F5F20 
 3198 15a9 01       		.byte	0x1
 3199 15aa 00       		.uleb128 0
 3200 15ab 5F5F5553 		.ascii "__USER_LABEL_PREFIX__ _\0"
 3200      45525F4C 
 3200      4142454C 
 3200      5F505245 
 3200      4649585F 
 3201 15c3 01       		.byte	0x1
 3202 15c4 00       		.uleb128 0
 3203 15c5 5F5F474E 		.ascii "__GNUC_GNU_INLINE__ 1\0"
 3203      55435F47 
 3203      4E555F49 
 3203      4E4C494E 
 3203      455F5F20 
 3204 15db 01       		.byte	0x1
 3205 15dc 00       		.uleb128 0
 3206 15dd 5F5F4E4F 		.ascii "__NO_INLINE__ 1\0"
 3206      5F494E4C 
 3206      494E455F 
 3206      5F203100 
GAS LISTING C:\Users\PRESID~1\AppData\Local\Temp\ccvbOxmE.s 			page 84


 3207 15ed 01       		.byte	0x1
 3208 15ee 00       		.uleb128 0
 3209 15ef 5F5F5354 		.ascii "__STRICT_ANSI__ 1\0"
 3209      52494354 
 3209      5F414E53 
 3209      495F5F20 
 3209      3100
 3210 1601 01       		.byte	0x1
 3211 1602 00       		.uleb128 0
 3212 1603 5F5F4743 		.ascii "__GCC_ATOMIC_BOOL_LOCK_FREE 1\0"
 3212      435F4154 
 3212      4F4D4943 
 3212      5F424F4F 
 3212      4C5F4C4F 
 3213 1621 01       		.byte	0x1
 3214 1622 00       		.uleb128 0
 3215 1623 5F5F4743 		.ascii "__GCC_ATOMIC_CHAR_LOCK_FREE 1\0"
 3215      435F4154 
 3215      4F4D4943 
 3215      5F434841 
 3215      525F4C4F 
 3216 1641 01       		.byte	0x1
 3217 1642 00       		.uleb128 0
 3218 1643 5F5F4743 		.ascii "__GCC_ATOMIC_CHAR16_T_LOCK_FREE 1\0"
 3218      435F4154 
 3218      4F4D4943 
 3218      5F434841 
 3218      5231365F 
 3219 1665 01       		.byte	0x1
 3220 1666 00       		.uleb128 0
 3221 1667 5F5F4743 		.ascii "__GCC_ATOMIC_CHAR32_T_LOCK_FREE 1\0"
 3221      435F4154 
 3221      4F4D4943 
 3221      5F434841 
 3221      5233325F 
 3222 1689 01       		.byte	0x1
 3223 168a 00       		.uleb128 0
 3224 168b 5F5F4743 		.ascii "__GCC_ATOMIC_WCHAR_T_LOCK_FREE 1\0"
 3224      435F4154 
 3224      4F4D4943 
 3224      5F574348 
 3224      41525F54 
 3225 16ac 01       		.byte	0x1
 3226 16ad 00       		.uleb128 0
 3227 16ae 5F5F4743 		.ascii "__GCC_ATOMIC_SHORT_LOCK_FREE 1\0"
 3227      435F4154 
 3227      4F4D4943 
 3227      5F53484F 
 3227      52545F4C 
 3228 16cd 01       		.byte	0x1
 3229 16ce 00       		.uleb128 0
 3230 16cf 5F5F4743 		.ascii "__GCC_ATOMIC_INT_LOCK_FREE 1\0"
 3230      435F4154 
 3230      4F4D4943 
 3230      5F494E54 
 3230      5F4C4F43 
 3231 16ec 01       		.byte	0x1
GAS LISTING C:\Users\PRESID~1\AppData\Local\Temp\ccvbOxmE.s 			page 85


 3232 16ed 00       		.uleb128 0
 3233 16ee 5F5F4743 		.ascii "__GCC_ATOMIC_LONG_LOCK_FREE 1\0"
 3233      435F4154 
 3233      4F4D4943 
 3233      5F4C4F4E 
 3233      475F4C4F 
 3234 170c 01       		.byte	0x1
 3235 170d 00       		.uleb128 0
 3236 170e 5F5F4743 		.ascii "__GCC_ATOMIC_LLONG_LOCK_FREE 1\0"
 3236      435F4154 
 3236      4F4D4943 
 3236      5F4C4C4F 
 3236      4E475F4C 
 3237 172d 01       		.byte	0x1
 3238 172e 00       		.uleb128 0
 3239 172f 5F5F4743 		.ascii "__GCC_ATOMIC_TEST_AND_SET_TRUEVAL 1\0"
 3239      435F4154 
 3239      4F4D4943 
 3239      5F544553 
 3239      545F414E 
 3240 1753 01       		.byte	0x1
 3241 1754 00       		.uleb128 0
 3242 1755 5F5F4743 		.ascii "__GCC_ATOMIC_POINTER_LOCK_FREE 1\0"
 3242      435F4154 
 3242      4F4D4943 
 3242      5F504F49 
 3242      4E544552 
 3243 1776 01       		.byte	0x1
 3244 1777 00       		.uleb128 0
 3245 1778 5F5F4743 		.ascii "__GCC_HAVE_DWARF2_CFI_ASM 1\0"
 3245      435F4841 
 3245      56455F44 
 3245      57415246 
 3245      325F4346 
 3246 1794 01       		.byte	0x1
 3247 1795 00       		.uleb128 0
 3248 1796 5F5F5052 		.ascii "__PRAGMA_REDEFINE_EXTNAME 1\0"
 3248      41474D41 
 3248      5F524544 
 3248      4546494E 
 3248      455F4558 
 3249 17b2 01       		.byte	0x1
 3250 17b3 00       		.uleb128 0
 3251 17b4 5F5F5349 		.ascii "__SIZEOF_WCHAR_T__ 2\0"
 3251      5A454F46 
 3251      5F574348 
 3251      41525F54 
 3251      5F5F2032 
 3252 17c9 01       		.byte	0x1
 3253 17ca 00       		.uleb128 0
 3254 17cb 5F5F5349 		.ascii "__SIZEOF_WINT_T__ 2\0"
 3254      5A454F46 
 3254      5F57494E 
 3254      545F545F 
 3254      5F203200 
 3255 17df 01       		.byte	0x1
 3256 17e0 00       		.uleb128 0
GAS LISTING C:\Users\PRESID~1\AppData\Local\Temp\ccvbOxmE.s 			page 86


 3257 17e1 5F5F5349 		.ascii "__SIZEOF_PTRDIFF_T__ 4\0"
 3257      5A454F46 
 3257      5F505452 
 3257      44494646 
 3257      5F545F5F 
 3258 17f8 01       		.byte	0x1
 3259 17f9 00       		.uleb128 0
 3260 17fa 5F5F6933 		.ascii "__i386 1\0"
 3260      38362031 
 3260      00
 3261 1803 01       		.byte	0x1
 3262 1804 00       		.uleb128 0
 3263 1805 5F5F6933 		.ascii "__i386__ 1\0"
 3263      38365F5F 
 3263      203100
 3264 1810 01       		.byte	0x1
 3265 1811 00       		.uleb128 0
 3266 1812 5F5F4154 		.ascii "__ATOMIC_HLE_ACQUIRE 65536\0"
 3266      4F4D4943 
 3266      5F484C45 
 3266      5F414351 
 3266      55495245 
 3267 182d 01       		.byte	0x1
 3268 182e 00       		.uleb128 0
 3269 182f 5F5F4154 		.ascii "__ATOMIC_HLE_RELEASE 131072\0"
 3269      4F4D4943 
 3269      5F484C45 
 3269      5F52454C 
 3269      45415345 
 3270 184b 01       		.byte	0x1
 3271 184c 00       		.uleb128 0
 3272 184d 5F5F7475 		.ascii "__tune_i386__ 1\0"
 3272      6E655F69 
 3272      3338365F 
 3272      5F203100 
 3273 185d 01       		.byte	0x1
 3274 185e 00       		.uleb128 0
 3275 185f 5F5F636F 		.ascii "__code_model_32__ 1\0"
 3275      64655F6D 
 3275      6F64656C 
 3275      5F33325F 
 3275      5F203100 
 3276 1873 01       		.byte	0x1
 3277 1874 00       		.uleb128 0
 3278 1875 5F583836 		.ascii "_X86_ 1\0"
 3278      5F203100 
 3279 187d 01       		.byte	0x1
 3280 187e 00       		.uleb128 0
 3281 187f 5F5F7374 		.ascii "__stdcall __attribute__((__stdcall__))\0"
 3281      6463616C 
 3281      6C205F5F 
 3281      61747472 
 3281      69627574 
 3282 18a6 01       		.byte	0x1
 3283 18a7 00       		.uleb128 0
 3284 18a8 5F5F6661 		.ascii "__fastcall __attribute__((__fastcall__))\0"
 3284      73746361 
GAS LISTING C:\Users\PRESID~1\AppData\Local\Temp\ccvbOxmE.s 			page 87


 3284      6C6C205F 
 3284      5F617474 
 3284      72696275 
 3285 18d1 01       		.byte	0x1
 3286 18d2 00       		.uleb128 0
 3287 18d3 5F5F7468 		.ascii "__thiscall __attribute__((__thiscall__))\0"
 3287      69736361 
 3287      6C6C205F 
 3287      5F617474 
 3287      72696275 
 3288 18fc 01       		.byte	0x1
 3289 18fd 00       		.uleb128 0
 3290 18fe 5F5F6364 		.ascii "__cdecl __attribute__((__cdecl__))\0"
 3290      65636C20 
 3290      5F5F6174 
 3290      74726962 
 3290      7574655F 
 3291 1921 01       		.byte	0x1
 3292 1922 00       		.uleb128 0
 3293 1923 5F5F4758 		.ascii "__GXX_MERGED_TYPEINFO_NAMES 0\0"
 3293      585F4D45 
 3293      52474544 
 3293      5F545950 
 3293      45494E46 
 3294 1941 01       		.byte	0x1
 3295 1942 00       		.uleb128 0
 3296 1943 5F5F4758 		.ascii "__GXX_TYPEINFO_EQUALITY_INLINE 0\0"
 3296      585F5459 
 3296      5045494E 
 3296      464F5F45 
 3296      5155414C 
 3297 1964 01       		.byte	0x1
 3298 1965 00       		.uleb128 0
 3299 1966 5F5F4D53 		.ascii "__MSVCRT__ 1\0"
 3299      56435254 
 3299      5F5F2031 
 3299      00
 3300 1973 01       		.byte	0x1
 3301 1974 00       		.uleb128 0
 3302 1975 5F5F4D49 		.ascii "__MINGW32__ 1\0"
 3302      4E475733 
 3302      325F5F20 
 3302      3100
 3303 1983 01       		.byte	0x1
 3304 1984 00       		.uleb128 0
 3305 1985 5F57494E 		.ascii "_WIN32 1\0"
 3305      33322031 
 3305      00
 3306 198e 01       		.byte	0x1
 3307 198f 00       		.uleb128 0
 3308 1990 5F5F5749 		.ascii "__WIN32 1\0"
 3308      4E333220 
 3308      3100
 3309 199a 01       		.byte	0x1
 3310 199b 00       		.uleb128 0
 3311 199c 5F5F5749 		.ascii "__WIN32__ 1\0"
 3311      4E33325F 
GAS LISTING C:\Users\PRESID~1\AppData\Local\Temp\ccvbOxmE.s 			page 88


 3311      5F203100 
 3312 19a8 01       		.byte	0x1
 3313 19a9 00       		.uleb128 0
 3314 19aa 5F5F5749 		.ascii "__WINNT 1\0"
 3314      4E4E5420 
 3314      3100
 3315 19b4 01       		.byte	0x1
 3316 19b5 00       		.uleb128 0
 3317 19b6 5F5F5749 		.ascii "__WINNT__ 1\0"
 3317      4E4E545F 
 3317      5F203100 
 3318 19c2 01       		.byte	0x1
 3319 19c3 00       		.uleb128 0
 3320 19c4 5F494E54 		.ascii "_INTEGRAL_MAX_BITS 64\0"
 3320      45475241 
 3320      4C5F4D41 
 3320      585F4249 
 3320      54532036 
 3321 19da 01       		.byte	0x1
 3322 19db 00       		.uleb128 0
 3323 19dc 5F5F6465 		.ascii "__declspec(x) __attribute__((x))\0"
 3323      636C7370 
 3323      65632878 
 3323      29205F5F 
 3323      61747472 
 3324 19fd 01       		.byte	0x1
 3325 19fe 00       		.uleb128 0
 3326 19ff 5F5F4445 		.ascii "__DECIMAL_BID_FORMAT__ 1\0"
 3326      43494D41 
 3326      4C5F4249 
 3326      445F464F 
 3326      524D4154 
 3327 1a18 01       		.byte	0x1
 3328 1a19 00       		.uleb128 0
 3329 1a1a 4346475F 		.ascii "CFG_PROCESSOR 3\0"
 3329      50524F43 
 3329      4553534F 
 3329      52203300 
 3330 1a2a 03       		.byte	0x3
 3331 1a2b 00       		.uleb128 0
 3332 1a2c 01       		.uleb128 0x1
 3333              		.file 5 "E:/NeuOrga/Programmieren/c_cpp/github_os/input/src/os_base/os_firstinc.h"
 3334 1a2d 03       		.byte	0x3
 3335 1a2e 01       		.uleb128 0x1
 3336 1a2f 05       		.uleb128 0x5
 3337 1a30 01       		.byte	0x1
 3338 1a31 02       		.uleb128 0x2
 3339 1a32 5F4F535F 		.ascii "_OS_FIRSTINC_H_ \0"
 3339      46495253 
 3339      54494E43 
 3339      5F485F20 
 3339      00
 3340              		.file 6 "E:/NeuOrga/Programmieren/c_cpp/github_os/input/src/os_base/../os_config.h"
 3341 1a43 03       		.byte	0x3
 3342 1a44 04       		.uleb128 0x4
 3343 1a45 06       		.uleb128 0x6
 3344 1a46 01       		.byte	0x1
GAS LISTING C:\Users\PRESID~1\AppData\Local\Temp\ccvbOxmE.s 			page 89


 3345 1a47 02       		.uleb128 0x2
 3346 1a48 5F4F535F 		.ascii "_OS_CONFIG_H_ \0"
 3346      434F4E46 
 3346      49475F48 
 3346      5F2000
 3347 1a57 01       		.byte	0x1
 3348 1a58 05       		.uleb128 0x5
 3349 1a59 494E5445 		.ascii "INTEGER_LLP64_IL32P64 1u\0"
 3349      4745525F 
 3349      4C4C5036 
 3349      345F494C 
 3349      33325036 
 3350 1a72 01       		.byte	0x1
 3351 1a73 06       		.uleb128 0x6
 3352 1a74 494E5445 		.ascii "INTEGER_LP64_I32LP64 2u\0"
 3352      4745525F 
 3352      4C503634 
 3352      5F493332 
 3352      4C503634 
 3353 1a8c 01       		.byte	0x1
 3354 1a8d 07       		.uleb128 0x7
 3355 1a8e 494E5445 		.ascii "INTEGER_ILP64 3u\0"
 3355      4745525F 
 3355      494C5036 
 3355      34203375 
 3355      00
 3356 1a9f 01       		.byte	0x1
 3357 1aa0 08       		.uleb128 0x8
 3358 1aa1 494E5445 		.ascii "INTEGER_SILP64 4u\0"
 3358      4745525F 
 3358      53494C50 
 3358      36342034 
 3358      7500
 3359 1ab3 01       		.byte	0x1
 3360 1ab4 09       		.uleb128 0x9
 3361 1ab5 494E5445 		.ascii "INTEGER_MODEL INTEGER_LLP64_IL32P64\0"
 3361      4745525F 
 3361      4D4F4445 
 3361      4C20494E 
 3361      54454745 
 3362 1ad9 01       		.byte	0x1
 3363 1ada 0C       		.uleb128 0xc
 3364 1adb 4350505F 		.ascii "CPP_VERSION_NONE 0u\0"
 3364      56455253 
 3364      494F4E5F 
 3364      4E4F4E45 
 3364      20307500 
 3365 1aef 01       		.byte	0x1
 3366 1af0 0D       		.uleb128 0xd
 3367 1af1 4350505F 		.ascii "CPP_VERSION_1998 1u\0"
 3367      56455253 
 3367      494F4E5F 
 3367      31393938 
 3367      20317500 
 3368 1b05 01       		.byte	0x1
 3369 1b06 0E       		.uleb128 0xe
 3370 1b07 4350505F 		.ascii "CPP_VERSION_2003 2u\0"
GAS LISTING C:\Users\PRESID~1\AppData\Local\Temp\ccvbOxmE.s 			page 90


 3370      56455253 
 3370      494F4E5F 
 3370      32303033 
 3370      20327500 
 3371 1b1b 01       		.byte	0x1
 3372 1b1c 0F       		.uleb128 0xf
 3373 1b1d 4350505F 		.ascii "CPP_VERSION_2007 3u\0"
 3373      56455253 
 3373      494F4E5F 
 3373      32303037 
 3373      20337500 
 3374 1b31 01       		.byte	0x1
 3375 1b32 10       		.uleb128 0x10
 3376 1b33 4350505F 		.ascii "CPP_VERSION_2011 4u\0"
 3376      56455253 
 3376      494F4E5F 
 3376      32303131 
 3376      20347500 
 3377 1b47 01       		.byte	0x1
 3378 1b48 11       		.uleb128 0x11
 3379 1b49 49534F5F 		.ascii "ISO_CPP_VERSION CPP_VERSION_1998\0"
 3379      4350505F 
 3379      56455253 
 3379      494F4E20 
 3379      4350505F 
 3380 1b6a 01       		.byte	0x1
 3381 1b6b 14       		.uleb128 0x14
 3382 1b6c 4249475F 		.ascii "BIG_INT_SIZE 16u\0"
 3382      494E545F 
 3382      53495A45 
 3382      20313675 
 3382      00
 3383 1b7d 01       		.byte	0x1
 3384 1b7e 17       		.uleb128 0x17
 3385 1b7f 4E525F4F 		.ascii "NR_OF_CORES 1u\0"
 3385      465F434F 
 3385      52455320 
 3385      317500
 3386 1b8e 01       		.byte	0x1
 3387 1b8f 1B       		.uleb128 0x1b
 3388 1b90 4D43555F 		.ascii "MCU_CLOCK_IN_HZ ((uint32)168000000u)\0"
 3388      434C4F43 
 3388      4B5F494E 
 3388      5F485A20 
 3388      28287569 
 3389 1bb5 01       		.byte	0x1
 3390 1bb6 1D       		.uleb128 0x1d
 3391 1bb7 44594E41 		.ascii "DYNAMIC_MEMORY_USED FALSE\0"
 3391      4D49435F 
 3391      4D454D4F 
 3391      52595F55 
 3391      53454420 
 3392 1bd1 01       		.byte	0x1
 3393 1bd2 1E       		.uleb128 0x1e
 3394 1bd3 4C4F4F50 		.ascii "LOOPTIME_IN_USEC ((uint32)10000u)\0"
 3394      54494D45 
 3394      5F494E5F 
GAS LISTING C:\Users\PRESID~1\AppData\Local\Temp\ccvbOxmE.s 			page 91


 3394      55534543 
 3394      20282875 
 3395 1bf5 01       		.byte	0x1
 3396 1bf6 21       		.uleb128 0x21
 3397 1bf7 48454150 		.ascii "HEAP_SIZE 10000u\0"
 3397      5F53495A 
 3397      45203130 
 3397      30303075 
 3397      00
 3398 1c08 01       		.byte	0x1
 3399 1c09 22       		.uleb128 0x22
 3400 1c0a 4D494E5F 		.ascii "MIN_BLOCK_SIZE_HEAP 8u\0"
 3400      424C4F43 
 3400      4B5F5349 
 3400      5A455F48 
 3400      45415020 
 3401 1c21 01       		.byte	0x1
 3402 1c22 23       		.uleb128 0x23
 3403 1c23 48454150 		.ascii "HEAP_OFFSET_FOR_SIZE 0u\0"
 3403      5F4F4646 
 3403      5345545F 
 3403      464F525F 
 3403      53495A45 
 3404 1c3b 01       		.byte	0x1
 3405 1c3c 24       		.uleb128 0x24
 3406 1c3d 48454150 		.ascii "HEAP_OFFSET_FOR_USED_SIZE 4u\0"
 3406      5F4F4646 
 3406      5345545F 
 3406      464F525F 
 3406      55534544 
 3407 1c5a 01       		.byte	0x1
 3408 1c5b 25       		.uleb128 0x25
 3409 1c5c 48454150 		.ascii "HEAP_OFFSET_FOR_CHUNK 8u\0"
 3409      5F4F4646 
 3409      5345545F 
 3409      464F525F 
 3409      4348554E 
 3410 1c75 01       		.byte	0x1
 3411 1c76 28       		.uleb128 0x28
 3412 1c77 4F535F4D 		.ascii "OS_MAIN_STACK_SIZE 0x400u\0"
 3412      41494E5F 
 3412      53544143 
 3412      4B5F5349 
 3412      5A452030 
 3413 1c91 01       		.byte	0x1
 3414 1c92 29       		.uleb128 0x29
 3415 1c93 4F535F50 		.ascii "OS_PROCESS_STACK_TASK1_SIZE 0x200u\0"
 3415      524F4345 
 3415      53535F53 
 3415      5441434B 
 3415      5F544153 
 3416 1cb6 01       		.byte	0x1
 3417 1cb7 2A       		.uleb128 0x2a
 3418 1cb8 4F535F50 		.ascii "OS_PROCESS_STACK_TASK2_SIZE 0x200u\0"
 3418      524F4345 
 3418      53535F53 
 3418      5441434B 
GAS LISTING C:\Users\PRESID~1\AppData\Local\Temp\ccvbOxmE.s 			page 92


 3418      5F544153 
 3419 1cdb 01       		.byte	0x1
 3420 1cdc 2B       		.uleb128 0x2b
 3421 1cdd 4F535F50 		.ascii "OS_PROCESS_STACK_TASK3_SIZE 0x200u\0"
 3421      524F4345 
 3421      53535F53 
 3421      5441434B 
 3421      5F544153 
 3422 1d00 01       		.byte	0x1
 3423 1d01 2C       		.uleb128 0x2c
 3424 1d02 4F535F50 		.ascii "OS_PROCESS_STACK_TASK4_SIZE 0x200u\0"
 3424      524F4345 
 3424      53535F53 
 3424      5441434B 
 3424      5F544153 
 3425 1d25 04       		.byte	0x4
 3426 1d26 03       		.byte	0x3
 3427 1d27 05       		.uleb128 0x5
 3428 1d28 02       		.uleb128 0x2
 3429 1d29 01       		.byte	0x1
 3430 1d2a 02       		.uleb128 0x2
 3431 1d2b 5F4F535F 		.ascii "_OS_BASE_TYPES_H_ \0"
 3431      42415345 
 3431      5F545950 
 3431      45535F48 
 3431      5F2000
 3432 1d3e 04       		.byte	0x4
 3433 1d3f 03       		.byte	0x3
 3434 1d40 06       		.uleb128 0x6
 3435 1d41 03       		.uleb128 0x3
 3436 1d42 01       		.byte	0x1
 3437 1d43 02       		.uleb128 0x2
 3438 1d44 5F4F535F 		.ascii "_OS_COMMON_H_ \0"
 3438      434F4D4D 
 3438      4F4E5F48 
 3438      5F2000
 3439 1d53 01       		.byte	0x1
 3440 1d54 06       		.uleb128 0x6
 3441 1d55 46414C53 		.ascii "FALSE 0u\0"
 3441      45203075 
 3441      00
 3442 1d5e 01       		.byte	0x1
 3443 1d5f 07       		.uleb128 0x7
 3444 1d60 54525545 		.ascii "TRUE 1u\0"
 3444      20317500 
 3445 1d68 01       		.byte	0x1
 3446 1d69 08       		.uleb128 0x8
 3447 1d6a 46616C73 		.ascii "False FALSE\0"
 3447      65204641 
 3447      4C534500 
 3448 1d76 01       		.byte	0x1
 3449 1d77 09       		.uleb128 0x9
 3450 1d78 54727565 		.ascii "True TRUE\0"
 3450      20545255 
 3450      4500
 3451 1d82 01       		.byte	0x1
 3452 1d83 0A       		.uleb128 0xa
GAS LISTING C:\Users\PRESID~1\AppData\Local\Temp\ccvbOxmE.s 			page 93


 3453 1d84 41434345 		.ascii "ACCEPTED 1u\0"
 3453      50544544 
 3453      20317500 
 3454 1d90 01       		.byte	0x1
 3455 1d91 0B       		.uleb128 0xb
 3456 1d92 52454A45 		.ascii "REJECTED 0u\0"
 3456      43544544 
 3456      20307500 
 3457 1d9e 01       		.byte	0x1
 3458 1d9f 0C       		.uleb128 0xc
 3459 1da0 4C4F4341 		.ascii "LOCAL static\0"
 3459      4C207374 
 3459      61746963 
 3459      00
 3460 1dad 01       		.byte	0x1
 3461 1dae 0D       		.uleb128 0xd
 3462 1daf 4C4F4341 		.ascii "LOCAL_INLINE static __inline__\0"
 3462      4C5F494E 
 3462      4C494E45 
 3462      20737461 
 3462      74696320 
 3463 1dce 01       		.byte	0x1
 3464 1dcf 0E       		.uleb128 0xe
 3465 1dd0 474C4F42 		.ascii "GLOBAL_INLINE __inline__\0"
 3465      414C5F49 
 3465      4E4C494E 
 3465      45205F5F 
 3465      696E6C69 
 3466 1de9 01       		.byte	0x1
 3467 1dea 0F       		.uleb128 0xf
 3468 1deb 52454645 		.ascii "REFERENCE_UNUSED_PARAMETER(x) ((x) = (x))\0"
 3468      52454E43 
 3468      455F554E 
 3468      55534544 
 3468      5F504152 
 3469 1e15 01       		.byte	0x1
 3470 1e16 12       		.uleb128 0x12
 3471 1e17 4D43555F 		.ascii "MCU_X86 3\0"
 3471      58383620 
 3471      3300
 3472 1e21 01       		.byte	0x1
 3473 1e22 13       		.uleb128 0x13
 3474 1e23 4D43555F 		.ascii "MCU_CORTEX_M4 4\0"
 3474      434F5254 
 3474      45585F4D 
 3474      34203400 
 3475 1e33 01       		.byte	0x1
 3476 1e34 16       		.uleb128 0x16
 3477 1e35 4457545F 		.ascii "DWT_CTRL ((volatile uint32*)0xE0001000u)\0"
 3477      4354524C 
 3477      20282876 
 3477      6F6C6174 
 3477      696C6520 
 3478 1e5e 01       		.byte	0x1
 3479 1e5f 17       		.uleb128 0x17
 3480 1e60 4457545F 		.ascii "DWT_CYCCNT ((volatile uint32*)0xE0001004u)\0"
 3480      43594343 
GAS LISTING C:\Users\PRESID~1\AppData\Local\Temp\ccvbOxmE.s 			page 94


 3480      4E542028 
 3480      28766F6C 
 3480      6174696C 
 3481 1e8b 01       		.byte	0x1
 3482 1e8c 18       		.uleb128 0x18
 3483 1e8d 4457545F 		.ascii "DWT_LAR ((volatile uint32*)0xE0001FB0u)\0"
 3483      4C415220 
 3483      2828766F 
 3483      6C617469 
 3483      6C652075 
 3484 1eb5 01       		.byte	0x1
 3485 1eb6 19       		.uleb128 0x19
 3486 1eb7 5343425F 		.ascii "SCB_DEMCR ((volatile uint32*)0xE000EDFCu)\0"
 3486      44454D43 
 3486      52202828 
 3486      766F6C61 
 3486      74696C65 
 3487 1ee1 01       		.byte	0x1
 3488 1ee2 1C       		.uleb128 0x1c
 3489 1ee3 44495341 		.ascii "DISABLE_INTERRUPTS() \0"
 3489      424C455F 
 3489      494E5445 
 3489      52525550 
 3489      54532829 
 3490 1ef9 01       		.byte	0x1
 3491 1efa 1D       		.uleb128 0x1d
 3492 1efb 454E4142 		.ascii "ENABLE_INTERRUPTS() \0"
 3492      4C455F49 
 3492      4E544552 
 3492      52555054 
 3492      53282920 
 3493 1f10 01       		.byte	0x1
 3494 1f11 1E       		.uleb128 0x1e
 3495 1f12 50524956 		.ascii "PRIVILIGE_LEVEL_SAVE_CURRENT() \0"
 3495      494C4947 
 3495      455F4C45 
 3495      56454C5F 
 3495      53415645 
 3496 1f32 01       		.byte	0x1
 3497 1f33 1F       		.uleb128 0x1f
 3498 1f34 50524956 		.ascii "PRIVILIGE_LEVEL_ENTER_KERNEL_MODE() \0"
 3498      494C4947 
 3498      455F4C45 
 3498      56454C5F 
 3498      454E5445 
 3499 1f59 01       		.byte	0x1
 3500 1f5a 20       		.uleb128 0x20
 3501 1f5b 50524956 		.ascii "PRIVILIGE_LEVEL_RESTORE_SAVED() \0"
 3501      494C4947 
 3501      455F4C45 
 3501      56454C5F 
 3501      52455354 
 3502 1f7c 01       		.byte	0x1
 3503 1f7d 21       		.uleb128 0x21
 3504 1f7e 48414C54 		.ascii "HALT_MCU() \0"
 3504      5F4D4355 
 3504      28292000 
GAS LISTING C:\Users\PRESID~1\AppData\Local\Temp\ccvbOxmE.s 			page 95


 3505 1f8a 01       		.byte	0x1
 3506 1f8b 41       		.uleb128 0x41
 3507 1f8c 414D4F55 		.ascii "AMOUNT_SW_BUG_FUNCTIONS 22\0"
 3507      4E545F53 
 3507      575F4255 
 3507      475F4655 
 3507      4E435449 
 3508 1fa7 04       		.byte	0x4
 3509              		.file 7 "E:/NeuOrga/Programmieren/c_cpp/github_os/input/src/os_base/../os_sim/lld_global.h"
 3510 1fa8 03       		.byte	0x3
 3511 1fa9 09       		.uleb128 0x9
 3512 1faa 07       		.uleb128 0x7
 3513 1fab 01       		.byte	0x1
 3514 1fac 02       		.uleb128 0x2
 3515 1fad 5F4C4C44 		.ascii "_LLD_GLOBAL_H_ \0"
 3515      5F474C4F 
 3515      42414C5F 
 3515      485F2000 
 3516              		.file 8 "E:/NeuOrga/Programmieren/c_cpp/github_os/input/src/os_base/../os_sim/lld_core.h"
 3517 1fbd 03       		.byte	0x3
 3518 1fbe 04       		.uleb128 0x4
 3519 1fbf 08       		.uleb128 0x8
 3520 1fc0 01       		.byte	0x1
 3521 1fc1 02       		.uleb128 0x2
 3522 1fc2 5F4C4C44 		.ascii "_LLD_CORE_H_ \0"
 3522      5F434F52 
 3522      455F485F 
 3522      2000
 3523              		.file 9 "E:/NeuOrga/Programmieren/c_cpp/github_os/input/src/os_base/../os_sim/../os_base/os_firsti
 3524 1fd0 03       		.byte	0x3
 3525 1fd1 03       		.uleb128 0x3
 3526 1fd2 09       		.uleb128 0x9
 3527 1fd3 04       		.byte	0x4
 3528 1fd4 04       		.byte	0x4
 3529              		.file 10 "E:/NeuOrga/Programmieren/c_cpp/github_os/input/src/os_base/../os_sim/lld_interrupt.h"
 3530 1fd5 03       		.byte	0x3
 3531 1fd6 05       		.uleb128 0x5
 3532 1fd7 0A       		.uleb128 0xa
 3533 1fd8 01       		.byte	0x1
 3534 1fd9 02       		.uleb128 0x2
 3535 1fda 5F4C4C44 		.ascii "_LLD_INTERRUPT_H_ \0"
 3535      5F494E54 
 3535      45525255 
 3535      50545F48 
 3535      5F2000
 3536 1fed 01       		.byte	0x1
 3537 1fee 05       		.uleb128 0x5
 3538 1fef 4F535F49 		.ascii "OS_INTERRUPT_SWI_1 asm(\"swi 1\")\0"
 3538      4E544552 
 3538      52555054 
 3538      5F535749 
 3538      5F312061 
 3539 200f 01       		.byte	0x1
 3540 2010 06       		.uleb128 0x6
 3541 2011 4F535F49 		.ascii "OS_INTERRUPT_SWI_2 asm(\"swi 2\")\0"
 3541      4E544552 
 3541      52555054 
GAS LISTING C:\Users\PRESID~1\AppData\Local\Temp\ccvbOxmE.s 			page 96


 3541      5F535749 
 3541      5F322061 
 3542 2031 01       		.byte	0x1
 3543 2032 07       		.uleb128 0x7
 3544 2033 4F535F49 		.ascii "OS_INTERRUPT_SWI_3 asm(\"swi 3\")\0"
 3544      4E544552 
 3544      52555054 
 3544      5F535749 
 3544      5F332061 
 3545 2053 01       		.byte	0x1
 3546 2054 08       		.uleb128 0x8
 3547 2055 4F535F49 		.ascii "OS_INTERRUPT_SWI_4 asm(\"swi 4\")\0"
 3547      4E544552 
 3547      52555054 
 3547      5F535749 
 3547      5F342061 
 3548 2075 01       		.byte	0x1
 3549 2076 09       		.uleb128 0x9
 3550 2077 4F535F49 		.ascii "OS_INTERRUPT_SWI_5 asm(\"swi 5\")\0"
 3550      4E544552 
 3550      52555054 
 3550      5F535749 
 3550      5F352061 
 3551 2097 04       		.byte	0x4
 3552              		.file 11 "E:/NeuOrga/Programmieren/c_cpp/github_os/input/src/os_base/../os_sim/lld_mmu.h"
 3553 2098 03       		.byte	0x3
 3554 2099 06       		.uleb128 0x6
 3555 209a 0B       		.uleb128 0xb
 3556 209b 01       		.byte	0x1
 3557 209c 02       		.uleb128 0x2
 3558 209d 5F4C4C44 		.ascii "_LLD_MMU_H_ \0"
 3558      5F4D4D55 
 3558      5F485F20 
 3558      00
 3559 20aa 04       		.byte	0x4
 3560              		.file 12 "E:/NeuOrga/Programmieren/c_cpp/github_os/input/src/os_base/../os_sim/lld_timer.h"
 3561 20ab 03       		.byte	0x3
 3562 20ac 07       		.uleb128 0x7
 3563 20ad 0C       		.uleb128 0xc
 3564 20ae 01       		.byte	0x1
 3565 20af 02       		.uleb128 0x2
 3566 20b0 5F4C4C44 		.ascii "_LLD_TIMER_H_ \0"
 3566      5F54494D 
 3566      45525F48 
 3566      5F2000
 3567 20bf 04       		.byte	0x4
 3568              		.file 13 "E:/NeuOrga/Programmieren/c_cpp/github_os/input/src/os_base/../os_sim/lld_power.h"
 3569 20c0 03       		.byte	0x3
 3570 20c1 08       		.uleb128 0x8
 3571 20c2 0D       		.uleb128 0xd
 3572 20c3 01       		.byte	0x1
 3573 20c4 02       		.uleb128 0x2
 3574 20c5 5F4C4C44 		.ascii "_LLD_POWER_H_ \0"
 3574      5F504F57 
 3574      45525F48 
 3574      5F2000
 3575 20d4 04       		.byte	0x4
GAS LISTING C:\Users\PRESID~1\AppData\Local\Temp\ccvbOxmE.s 			page 97


 3576              		.file 14 "E:/NeuOrga/Programmieren/c_cpp/github_os/input/src/os_base/../os_sim/lld_ram.h"
 3577 20d5 03       		.byte	0x3
 3578 20d6 09       		.uleb128 0x9
 3579 20d7 0E       		.uleb128 0xe
 3580 20d8 01       		.byte	0x1
 3581 20d9 02       		.uleb128 0x2
 3582 20da 5F4C4C44 		.ascii "_LLD_RAM_H_ \0"
 3582      5F52414D 
 3582      5F485F20 
 3582      00
 3583 20e7 04       		.byte	0x4
 3584              		.file 15 "E:/NeuOrga/Programmieren/c_cpp/github_os/input/src/os_base/../os_sim/../os_base/os_task_
 3585 20e8 03       		.byte	0x3
 3586 20e9 0A       		.uleb128 0xa
 3587 20ea 0F       		.uleb128 0xf
 3588 20eb 01       		.byte	0x1
 3589 20ec 02       		.uleb128 0x2
 3590 20ed 5F4F535F 		.ascii "_OS_TASK_COMMON_H_ \0"
 3590      5441534B 
 3590      5F434F4D 
 3590      4D4F4E5F 
 3590      485F2000 
 3591 2101 03       		.byte	0x3
 3592 2102 03       		.uleb128 0x3
 3593 2103 09       		.uleb128 0x9
 3594 2104 04       		.byte	0x4
 3595              		.file 16 "E:/NeuOrga/Programmieren/c_cpp/github_os/input/src/os_base/../os_sim/../os_base/os_task_
 3596 2105 03       		.byte	0x3
 3597 2106 04       		.uleb128 0x4
 3598 2107 10       		.uleb128 0x10
 3599 2108 01       		.byte	0x1
 3600 2109 02       		.uleb128 0x2
 3601 210a 5F4F535F 		.ascii "_OS_TASK_CONFIG_H_ \0"
 3601      5441534B 
 3601      5F434F4E 
 3601      4649475F 
 3601      485F2000 
 3602 211e 01       		.byte	0x1
 3603 211f 05       		.uleb128 0x5
 3604 2120 5441534B 		.ascii "TASK_MIN_TIME (1e0)\0"
 3604      5F4D494E 
 3604      5F54494D 
 3604      45202831 
 3604      65302900 
 3605 2134 01       		.byte	0x1
 3606 2135 06       		.uleb128 0x6
 3607 2136 4E554D42 		.ascii "NUMBER_OF_TASKS 10u\0"
 3607      45525F4F 
 3607      465F5441 
 3607      534B5320 
 3607      31307500 
 3608 214a 01       		.byte	0x1
 3609 214b 07       		.uleb128 0x7
 3610 214c 4D41585F 		.ascii "MAX_RUN_QUEUE_SIZE (NUMBER_OF_TASKS)\0"
 3610      52554E5F 
 3610      51554555 
 3610      455F5349 
GAS LISTING C:\Users\PRESID~1\AppData\Local\Temp\ccvbOxmE.s 			page 98


 3610      5A452028 
 3611 2171 01       		.byte	0x1
 3612 2172 08       		.uleb128 0x8
 3613 2173 4D41585F 		.ascii "MAX_RUN_PQUEUE_SIZE MAX_RUN_QUEUE_SIZE\0"
 3613      52554E5F 
 3613      50515545 
 3613      55455F53 
 3613      495A4520 
 3614 219a 01       		.byte	0x1
 3615 219b 0A       		.uleb128 0xa
 3616 219c 5441534B 		.ascii "TASK0_STACK_SIZE 2000u\0"
 3616      305F5354 
 3616      41434B5F 
 3616      53495A45 
 3616      20323030 
 3617 21b3 01       		.byte	0x1
 3618 21b4 0B       		.uleb128 0xb
 3619 21b5 5441534B 		.ascii "TASK1_STACK_SIZE 2000u\0"
 3619      315F5354 
 3619      41434B5F 
 3619      53495A45 
 3619      20323030 
 3620 21cc 01       		.byte	0x1
 3621 21cd 0C       		.uleb128 0xc
 3622 21ce 5441534B 		.ascii "TASK2_STACK_SIZE 2000u\0"
 3622      325F5354 
 3622      41434B5F 
 3622      53495A45 
 3622      20323030 
 3623 21e5 01       		.byte	0x1
 3624 21e6 0D       		.uleb128 0xd
 3625 21e7 5441534B 		.ascii "TASK3_STACK_SIZE 2000u\0"
 3625      335F5354 
 3625      41434B5F 
 3625      53495A45 
 3625      20323030 
 3626 21fe 01       		.byte	0x1
 3627 21ff 0E       		.uleb128 0xe
 3628 2200 5441534B 		.ascii "TASK4_STACK_SIZE 2000u\0"
 3628      345F5354 
 3628      41434B5F 
 3628      53495A45 
 3628      20323030 
 3629 2217 01       		.byte	0x1
 3630 2218 12       		.uleb128 0x12
 3631 2219 4D535F50 		.ascii "MS_PER_SEC 1000u\0"
 3631      45525F53 
 3631      45432031 
 3631      30303075 
 3631      00
 3632 222a 01       		.byte	0x1
 3633 222b 13       		.uleb128 0x13
 3634 222c 5553455F 		.ascii "USE_STATIC_CREATED_TASKS TRUE\0"
 3634      53544154 
 3634      49435F43 
 3634      52454154 
 3634      45445F54 
GAS LISTING C:\Users\PRESID~1\AppData\Local\Temp\ccvbOxmE.s 			page 99


 3635 224a 04       		.byte	0x4
 3636              		.file 17 "E:/NeuOrga/Programmieren/c_cpp/github_os/input/src/os_base/../os_sim/../os_base/os_init_
 3637 224b 03       		.byte	0x3
 3638 224c 05       		.uleb128 0x5
 3639 224d 11       		.uleb128 0x11
 3640 224e 01       		.byte	0x1
 3641 224f 02       		.uleb128 0x2
 3642 2250 5F4F535F 		.ascii "_OS_INIT_TASK_SYSTEM_H_ \0"
 3642      494E4954 
 3642      5F544153 
 3642      4B5F5359 
 3642      5354454D 
 3643 2269 04       		.byte	0x4
 3644 226a 01       		.byte	0x1
 3645 226b 5F       		.uleb128 0x5f
 3646 226c 4F535F53 		.ascii "OS_SAVE_TASK_PTR(task_ptr,task_name) (TASK_PTR[(task_name)] = (task_ptr))\0"
 3646      4156455F 
 3646      5441534B 
 3646      5F505452 
 3646      28746173 
 3647 22b6 01       		.byte	0x1
 3648 22b7 60       		.uleb128 0x60
 3649 22b8 4F535F47 		.ascii "OS_GET_TASK_PTR(task_name) ((task_t*) TASK_PTR[(task_name)])\0"
 3649      45545F54 
 3649      41534B5F 
 3649      50545228 
 3649      7461736B 
 3650 22f5 04       		.byte	0x4
 3651 22f6 04       		.byte	0x4
 3652              		.file 18 "E:/NeuOrga/Programmieren/c_cpp/github_os/input/src/os_base/../os_user_code/led.h"
 3653 22f7 03       		.byte	0x3
 3654 22f8 0D       		.uleb128 0xd
 3655 22f9 12       		.uleb128 0x12
 3656 22fa 01       		.byte	0x1
 3657 22fb 02       		.uleb128 0x2
 3658 22fc 5F4C4544 		.ascii "_LED_H_ \0"
 3658      5F485F20 
 3658      00
 3659 2305 04       		.byte	0x4
 3660 2306 03       		.byte	0x3
 3661 2307 0F       		.uleb128 0xf
 3662 2308 04       		.uleb128 0x4
 3663 2309 01       		.byte	0x1
 3664 230a 02       		.uleb128 0x2
 3665 230b 5F4F535F 		.ascii "_OS_RAM_H_ \0"
 3665      52414D5F 
 3665      485F2000 
 3666              		.file 19 "E:/NeuOrga/Programmieren/c_cpp/github_os/input/src/os_base/../os_base/os_firstinc.h"
 3667 2317 03       		.byte	0x3
 3668 2318 04       		.uleb128 0x4
 3669 2319 13       		.uleb128 0x13
 3670 231a 04       		.byte	0x4
 3671              		.file 20 "E:/NeuOrga/Programmieren/c_cpp/github_os/input/src/os_base/../os_base/os_stack.h"
 3672 231b 03       		.byte	0x3
 3673 231c 05       		.uleb128 0x5
 3674 231d 14       		.uleb128 0x14
 3675 231e 01       		.byte	0x1
GAS LISTING C:\Users\PRESID~1\AppData\Local\Temp\ccvbOxmE.s 			page 100


 3676 231f 02       		.uleb128 0x2
 3677 2320 5F4F535F 		.ascii "_OS_STACK_H_ \0"
 3677      53544143 
 3677      4B5F485F 
 3677      2000
 3678 232e 04       		.byte	0x4
 3679              		.file 21 "E:/NeuOrga/Programmieren/c_cpp/github_os/input/src/os_base/../os_base/os_heap.h"
 3680 232f 03       		.byte	0x3
 3681 2330 06       		.uleb128 0x6
 3682 2331 15       		.uleb128 0x15
 3683 2332 01       		.byte	0x1
 3684 2333 02       		.uleb128 0x2
 3685 2334 5F4F535F 		.ascii "_OS_HEAP_H_ \0"
 3685      48454150 
 3685      5F485F20 
 3685      00
 3686 2341 04       		.byte	0x4
 3687              		.file 22 "E:/NeuOrga/Programmieren/c_cpp/github_os/input/src/os_base/../os_base/os_main.h"
 3688 2342 03       		.byte	0x3
 3689 2343 07       		.uleb128 0x7
 3690 2344 16       		.uleb128 0x16
 3691 2345 01       		.byte	0x1
 3692 2346 02       		.uleb128 0x2
 3693 2347 5F4F535F 		.ascii "_OS_MAIN_H_ \0"
 3693      4D41494E 
 3693      5F485F20 
 3693      00
 3694 2354 04       		.byte	0x4
 3695              		.file 23 "E:/NeuOrga/Programmieren/c_cpp/github_os/input/src/os_base/../os_base/os_task_config.h"
 3696 2355 03       		.byte	0x3
 3697 2356 08       		.uleb128 0x8
 3698 2357 17       		.uleb128 0x17
 3699 2358 04       		.byte	0x4
 3700              		.file 24 "E:/NeuOrga/Programmieren/c_cpp/github_os/input/src/os_base/../os_base/os_task_common.h"
 3701 2359 03       		.byte	0x3
 3702 235a 09       		.uleb128 0x9
 3703 235b 18       		.uleb128 0x18
 3704 235c 04       		.byte	0x4
 3705 235d 04       		.byte	0x4
 3706              		.file 25 "E:/NeuOrga/Programmieren/c_cpp/github_os/input/src/os_base/../os_base/os_ram_stack.h"
 3707 235e 03       		.byte	0x3
 3708 235f 10       		.uleb128 0x10
 3709 2360 19       		.uleb128 0x19
 3710 2361 01       		.byte	0x1
 3711 2362 02       		.uleb128 0x2
 3712 2363 5F4F535F 		.ascii "_OS_RAM_STACK_H_ \0"
 3712      52414D5F 
 3712      53544143 
 3712      4B5F485F 
 3712      2000
 3713 2375 04       		.byte	0x4
 3714 2376 04       		.byte	0x4
 3715              		.file 26 "E:/NeuOrga/Programmieren/c_cpp/github_os/input/src/os_base/os_task_common.h"
 3716 2377 03       		.byte	0x3
 3717 2378 02       		.uleb128 0x2
 3718 2379 1A       		.uleb128 0x1a
 3719 237a 04       		.byte	0x4
GAS LISTING C:\Users\PRESID~1\AppData\Local\Temp\ccvbOxmE.s 			page 101


 3720 237b 04       		.byte	0x4
 3721 237c 00       		.byte	0
 3722              		.section	.debug_line,"dr"
 3723              	Ldebug_line0:
 3724 0000 5F050000 		.section	.debug_str,"dr"
 3724      02005A03 
 3724      00000101 
 3724      FB0E0D00 
 3724      01010101 
 3725              	LASF0:
 3726 0000 4F706572 		.ascii "Operand1\0"
 3726      616E6431 
 3726      00
 3727              	LASF1:
 3728 0009 4F706572 		.ascii "Operand2\0"
 3728      616E6432 
 3728      00
 3729              	LASF3:
 3730 0012 72696768 		.ascii "rightOperand\0"
 3730      744F7065 
 3730      72616E64 
 3730      00
 3731              	LASF2:
 3732 001f 6C656674 		.ascii "leftOperand\0"
 3732      4F706572 
 3732      616E6400 
 3733              		.ident	"GCC: (GNU) 4.9.3"
GAS LISTING C:\Users\PRESID~1\AppData\Local\Temp\ccvbOxmE.s 			page 102


DEFINED SYMBOLS
                            *ABS*:00000000 os_common.c
C:\Users\PRESID~1\AppData\Local\Temp\ccvbOxmE.s:6      .text:00000000 _OS_SET_SW_BUG
C:\Users\PRESID~1\AppData\Local\Temp\ccvbOxmE.s:29     .text:00000012 _OS_GET_CURRENT_TIME
C:\Users\PRESID~1\AppData\Local\Temp\ccvbOxmE.s:55     .text:00000032 _OS_UpdateCurrentTime
C:\Users\PRESID~1\AppData\Local\Temp\ccvbOxmE.s:84     .text:00000060 _OS_READ_AND_RESET_CURRENT_TIME
C:\Users\PRESID~1\AppData\Local\Temp\ccvbOxmE.s:108    .text:0000007b _INT_DIV
C:\Users\PRESID~1\AppData\Local\Temp\ccvbOxmE.s:254    .text:000001e1 _INT_MUL
C:\Users\PRESID~1\AppData\Local\Temp\ccvbOxmE.s:342    .text:0000029a _INT_ADD
C:\Users\PRESID~1\AppData\Local\Temp\ccvbOxmE.s:400    .text:000002fa _INT_SUB
C:\Users\PRESID~1\AppData\Local\Temp\ccvbOxmE.s:500    .text:000003d8 _IS_LESS
C:\Users\PRESID~1\AppData\Local\Temp\ccvbOxmE.s:564    .text:00000436 _IS_LESS_OR_EQUAL
C:\Users\PRESID~1\AppData\Local\Temp\ccvbOxmE.s:607    .text:00000476 _IS_EQUAL
C:\Users\PRESID~1\AppData\Local\Temp\ccvbOxmE.s:657    .text:000004b6 _IS_GREATER
C:\Users\PRESID~1\AppData\Local\Temp\ccvbOxmE.s:721    .text:00000514 _IS_GREATER_OR_EQUAL
C:\Users\PRESID~1\AppData\Local\Temp\ccvbOxmE.s:764    .text:00000554 _ASSIGN
C:\Users\PRESID~1\AppData\Local\Temp\ccvbOxmE.s:802    .text:00000583 _ASSIGN_NULL
C:\Users\PRESID~1\AppData\Local\Temp\ccvbOxmE.s:837    .text:000005a9 _ASSIGN_UINT32
C:\Users\PRESID~1\AppData\Local\Temp\ccvbOxmE.s:903    .text:0000060b _SHIFT_LEFT
C:\Users\PRESID~1\AppData\Local\Temp\ccvbOxmE.s:1000   .text:000006e0 _get_uint32_of_4_uint8
C:\Users\PRESID~1\AppData\Local\Temp\ccvbOxmE.s:1052   .text:00000730 _set_4_uint8_to_uint32

UNDEFINED SYMBOLS
_OS_SW_BUG
_LOCAL_SYSTEM_TIME
