GAS LISTING C:\Users\PRESID~1\AppData\Local\Temp\ccIsuMsd.s 			page 1


   1              		.file	"os_common.c"
   2              		.text
   3              	Ltext0:
   4              	.lcomm _sw_bug,60,32
   5              		.globl	_OS_SET_SW_BUG
   7              	_OS_SET_SW_BUG:
   8              	LFB0:
   9              		.file 1 "E:/NeuOrga/Programmieren/c_cpp/github_os/input/src/os_base/os_common.c"
   1:E:/NeuOrga/Programmieren/c_cpp/github_os/input/src/os_base\os_common.c **** #include "os_firstinc.h"
   2:E:/NeuOrga/Programmieren/c_cpp/github_os/input/src/os_base\os_common.c **** #include "os_task_common.h"
   3:E:/NeuOrga/Programmieren/c_cpp/github_os/input/src/os_base\os_common.c **** #include "..\os_drivers\lld_global.h"
   4:E:/NeuOrga/Programmieren/c_cpp/github_os/input/src/os_base\os_common.c **** 
   5:E:/NeuOrga/Programmieren/c_cpp/github_os/input/src/os_base\os_common.c **** Local os_sw_bugs_t sw_bug[15] = {os_bug_no_bug,os_bug_no_bug,os_bug_no_bug,os_bug_no_bug,os_bug_no_
   6:E:/NeuOrga/Programmieren/c_cpp/github_os/input/src/os_base\os_common.c **** void OS_SET_SW_BUG(os_sw_bugs_t bug_nr, os_sw_bugs_function_t task_func_nr)
   7:E:/NeuOrga/Programmieren/c_cpp/github_os/input/src/os_base\os_common.c **** {
  10              		.loc 1 7 0
  11              		.cfi_startproc
  12 0000 55       		pushl	%ebp
  13              		.cfi_def_cfa_offset 8
  14              		.cfi_offset 5, -8
  15 0001 89E5     		movl	%esp, %ebp
  16              		.cfi_def_cfa_register 5
   8:E:/NeuOrga/Programmieren/c_cpp/github_os/input/src/os_base\os_common.c ****    sw_bug[task_func_nr] = bug_nr;
  17              		.loc 1 8 0
  18 0003 8B450C   		movl	12(%ebp), %eax
  19 0006 8B5508   		movl	8(%ebp), %edx
  20 0009 89148500 		movl	%edx, _sw_bug(,%eax,4)
  20      000000
   9:E:/NeuOrga/Programmieren/c_cpp/github_os/input/src/os_base\os_common.c **** }
  21              		.loc 1 9 0
  22 0010 5D       		popl	%ebp
  23              		.cfi_restore 5
  24              		.cfi_def_cfa 4, 4
  25 0011 C3       		ret
  26              		.cfi_endproc
  27              	LFE0:
  28              		.globl	_Get_current_time
  30              	_Get_current_time:
  31              	LFB1:
  10:E:/NeuOrga/Programmieren/c_cpp/github_os/input/src/os_base\os_common.c **** unsigned_int32_t Get_current_time(void)/* return us */
  11:E:/NeuOrga/Programmieren/c_cpp/github_os/input/src/os_base\os_common.c **** {
  32              		.loc 1 11 0
  33              		.cfi_startproc
  34 0012 55       		pushl	%ebp
  35              		.cfi_def_cfa_offset 8
  36              		.cfi_offset 5, -8
  37 0013 89E5     		movl	%esp, %ebp
  38              		.cfi_def_cfa_register 5
  39 0015 83EC08   		subl	$8, %esp
  12:E:/NeuOrga/Programmieren/c_cpp/github_os/input/src/os_base\os_common.c ****    return (LLF_UP_CNT_TIMER_32());
  40              		.loc 1 12 0
  41 0018 E8000000 		call	_LLF_UP_CNT_TIMER_32
  41      00
  13:E:/NeuOrga/Programmieren/c_cpp/github_os/input/src/os_base\os_common.c **** }...
  42              		.loc 1 13 0
  43 001d C9       		leave
  44              		.cfi_restore 5
GAS LISTING C:\Users\PRESID~1\AppData\Local\Temp\ccIsuMsd.s 			page 2


  45              		.cfi_def_cfa 4, 4
  46 001e C3       		ret
  47              		.cfi_endproc
  48              	LFE1:
  49              	Letext0:
  50              		.file 2 "E:/NeuOrga/Programmieren/c_cpp/github_os/input/src/os_base/../os_base/os_base_types.h"
  51              		.file 3 "E:/NeuOrga/Programmieren/c_cpp/github_os/input/src/os_base/../os_base/os_common.h"