GAS LISTING C:\Users\PRESID~1\AppData\Local\Temp\ccTZYDpu.s 			page 1


   1              		.file	"os_common.c"
   2              		.text
   3              	Ltext0:
   4              		.globl	_OS_SET_SW_BUG
   6              	_OS_SET_SW_BUG:
   7              	LFB0:
   8              		.file 1 "E:/NeuOrga/Programmieren/c_cpp/github_os/input/src/os_base/os_common.c"
   1:E:/NeuOrga/Programmieren/c_cpp/github_os/input/src/os_base\os_common.c **** #include "os_firstinc.h"
   2:E:/NeuOrga/Programmieren/c_cpp/github_os/input/src/os_base\os_common.c **** #include "os_task_common.h"
   3:E:/NeuOrga/Programmieren/c_cpp/github_os/input/src/os_base\os_common.c **** 
   4:E:/NeuOrga/Programmieren/c_cpp/github_os/input/src/os_base\os_common.c **** void OS_SET_SW_BUG(os_sw_bugs_t bug_nr, os_sw_bugs_function_t task_func_nr)
   5:E:/NeuOrga/Programmieren/c_cpp/github_os/input/src/os_base\os_common.c **** {
   9              		.loc 1 5 0
  10              		.cfi_startproc
  11 0000 55       		pushl	%ebp
  12              		.cfi_def_cfa_offset 8
  13              		.cfi_offset 5, -8
  14 0001 89E5     		movl	%esp, %ebp
  15              		.cfi_def_cfa_register 5
   6:E:/NeuOrga/Programmieren/c_cpp/github_os/input/src/os_base\os_common.c ****    OS_SW_BUG[task_func_nr] = bug_nr;
  16              		.loc 1 6 0
  17 0003 8B450C   		movl	12(%ebp), %eax
  18 0006 8B5508   		movl	8(%ebp), %edx
  19 0009 89148500 		movl	%edx, _OS_SW_BUG(,%eax,4)
  19      000000
   7:E:/NeuOrga/Programmieren/c_cpp/github_os/input/src/os_base\os_common.c **** }
  20              		.loc 1 7 0
  21 0010 5D       		popl	%ebp
  22              		.cfi_restore 5
  23              		.cfi_def_cfa 4, 4
  24 0011 C3       		ret
  25              		.cfi_endproc
  26              	LFE0:
  27              		.globl	_OS_GET_CURRENT_TIME
  29              	_OS_GET_CURRENT_TIME:
  30              	LFB1:
   8:E:/NeuOrga/Programmieren/c_cpp/github_os/input/src/os_base\os_common.c **** 
   9:E:/NeuOrga/Programmieren/c_cpp/github_os/input/src/os_base\os_common.c **** 
  10:E:/NeuOrga/Programmieren/c_cpp/github_os/input/src/os_base\os_common.c **** 
  11:E:/NeuOrga/Programmieren/c_cpp/github_os/input/src/os_base\os_common.c **** void OS_GET_CURRENT_TIME(timebig_t* time)
  12:E:/NeuOrga/Programmieren/c_cpp/github_os/input/src/os_base\os_common.c **** {
  31              		.loc 1 12 0
  32              		.cfi_startproc
  33 0012 55       		pushl	%ebp
  34              		.cfi_def_cfa_offset 8
  35              		.cfi_offset 5, -8
  36 0013 89E5     		movl	%esp, %ebp
  37              		.cfi_def_cfa_register 5
  38 0015 83EC18   		subl	$24, %esp
  13:E:/NeuOrga/Programmieren/c_cpp/github_os/input/src/os_base\os_common.c ****    /* update the current time info */
  14:E:/NeuOrga/Programmieren/c_cpp/github_os/input/src/os_base\os_common.c ****    OS_UpdateCurrentTime();
  39              		.loc 1 14 0
  40 0018 E8150000 		call	_OS_UpdateCurrentTime
  40      00
  15:E:/NeuOrga/Programmieren/c_cpp/github_os/input/src/os_base\os_common.c ****    /* output the time to the caller */
  16:E:/NeuOrga/Programmieren/c_cpp/github_os/input/src/os_base\os_common.c ****    ASSIGN(time, &LOCAL_SYSTEM_TIME);
  41              		.loc 1 16 0
GAS LISTING C:\Users\PRESID~1\AppData\Local\Temp\ccTZYDpu.s 			page 2


  42 001d C7442404 		movl	$_LOCAL_SYSTEM_TIME, 4(%esp)
  42      00000000 
  43 0025 8B4508   		movl	8(%ebp), %eax
  44 0028 890424   		movl	%eax, (%esp)
  45 002b E80F0300 		call	_ASSIGN
  45      00
  17:E:/NeuOrga/Programmieren/c_cpp/github_os/input/src/os_base\os_common.c **** 
  18:E:/NeuOrga/Programmieren/c_cpp/github_os/input/src/os_base\os_common.c **** }
  46              		.loc 1 18 0
  47 0030 C9       		leave
  48              		.cfi_restore 5
  49              		.cfi_def_cfa 4, 4
  50 0031 C3       		ret
  51              		.cfi_endproc
  52              	LFE1:
  53              		.globl	_OS_UpdateCurrentTime
  55              	_OS_UpdateCurrentTime:
  56              	LFB2:
  19:E:/NeuOrga/Programmieren/c_cpp/github_os/input/src/os_base\os_common.c **** void OS_UpdateCurrentTime(void)
  20:E:/NeuOrga/Programmieren/c_cpp/github_os/input/src/os_base\os_common.c **** {
  57              		.loc 1 20 0
  58              		.cfi_startproc
  59 0032 55       		pushl	%ebp
  60              		.cfi_def_cfa_offset 8
  61              		.cfi_offset 5, -8
  62 0033 89E5     		movl	%esp, %ebp
  63              		.cfi_def_cfa_register 5
  64 0035 83EC28   		subl	$40, %esp
  21:E:/NeuOrga/Programmieren/c_cpp/github_os/input/src/os_base\os_common.c ****    /* the only free running counter on STM32F4 is the DWT counter DWT_CYCCNT
  22:E:/NeuOrga/Programmieren/c_cpp/github_os/input/src/os_base\os_common.c ****    The counter will overflow every 25sec -> provide function OS_ClearCurrentTime to reset the value
  23:E:/NeuOrga/Programmieren/c_cpp/github_os/input/src/os_base\os_common.c ****    */
  24:E:/NeuOrga/Programmieren/c_cpp/github_os/input/src/os_base\os_common.c ****    timebig_t tmp_time;
  25:E:/NeuOrga/Programmieren/c_cpp/github_os/input/src/os_base\os_common.c ****    OS_READ_AND_RESET_CURRENT_TIME(&tmp_time);
  65              		.loc 1 25 0
  66 0038 8D45E8   		leal	-24(%ebp), %eax
  67 003b 890424   		movl	%eax, (%esp)
  68 003e E81D0000 		call	_OS_READ_AND_RESET_CURRENT_TIME
  68      00
  26:E:/NeuOrga/Programmieren/c_cpp/github_os/input/src/os_base\os_common.c **** 
  27:E:/NeuOrga/Programmieren/c_cpp/github_os/input/src/os_base\os_common.c ****    /* increment the global time value by the new increment received by the hardware register */
  28:E:/NeuOrga/Programmieren/c_cpp/github_os/input/src/os_base\os_common.c ****    INT_ADD(&LOCAL_SYSTEM_TIME, &LOCAL_SYSTEM_TIME, &tmp_time);
  69              		.loc 1 28 0
  70 0043 8D45E8   		leal	-24(%ebp), %eax
  71 0046 89442408 		movl	%eax, 8(%esp)
  72 004a C7442404 		movl	$_LOCAL_SYSTEM_TIME, 4(%esp)
  72      00000000 
  73 0052 C7042400 		movl	$_LOCAL_SYSTEM_TIME, (%esp)
  73      000000
  74 0059 E8270000 		call	_INT_ADD
  74      00
  29:E:/NeuOrga/Programmieren/c_cpp/github_os/input/src/os_base\os_common.c **** }
  75              		.loc 1 29 0
  76 005e C9       		leave
  77              		.cfi_restore 5
  78              		.cfi_def_cfa 4, 4
  79 005f C3       		ret
  80              		.cfi_endproc
GAS LISTING C:\Users\PRESID~1\AppData\Local\Temp\ccTZYDpu.s 			page 3


  81              	LFE2:
  82              		.globl	_OS_READ_AND_RESET_CURRENT_TIME
  84              	_OS_READ_AND_RESET_CURRENT_TIME:
  85              	LFB3:
  30:E:/NeuOrga/Programmieren/c_cpp/github_os/input/src/os_base\os_common.c **** 
  31:E:/NeuOrga/Programmieren/c_cpp/github_os/input/src/os_base\os_common.c **** void OS_READ_AND_RESET_CURRENT_TIME(timebig_t* timebig)
  32:E:/NeuOrga/Programmieren/c_cpp/github_os/input/src/os_base\os_common.c **** {
  86              		.loc 1 32 0
  87              		.cfi_startproc
  88 0060 55       		pushl	%ebp
  89              		.cfi_def_cfa_offset 8
  90              		.cfi_offset 5, -8
  91 0061 89E5     		movl	%esp, %ebp
  92              		.cfi_def_cfa_register 5
  93 0063 83EC18   		subl	$24, %esp
  33:E:/NeuOrga/Programmieren/c_cpp/github_os/input/src/os_base\os_common.c **** #if(CFG_PROCESSOR == MCU_CORTEX_M4)
  34:E:/NeuOrga/Programmieren/c_cpp/github_os/input/src/os_base\os_common.c ****    volatile uint32 time = 0u;
  35:E:/NeuOrga/Programmieren/c_cpp/github_os/input/src/os_base\os_common.c **** 
  36:E:/NeuOrga/Programmieren/c_cpp/github_os/input/src/os_base\os_common.c ****    /* unlock the CoreSight (CM4) */
  37:E:/NeuOrga/Programmieren/c_cpp/github_os/input/src/os_base\os_common.c ****    *DWT_LAR = 0xC5ACCE55u;
  38:E:/NeuOrga/Programmieren/c_cpp/github_os/input/src/os_base\os_common.c **** 
  39:E:/NeuOrga/Programmieren/c_cpp/github_os/input/src/os_base\os_common.c ****    /* enable trace/debug block TRCENA */
  40:E:/NeuOrga/Programmieren/c_cpp/github_os/input/src/os_base\os_common.c ****    *SCB_DEMCR |= 0x01000000u;
  41:E:/NeuOrga/Programmieren/c_cpp/github_os/input/src/os_base\os_common.c **** 
  42:E:/NeuOrga/Programmieren/c_cpp/github_os/input/src/os_base\os_common.c ****    /* save the current delta time */
  43:E:/NeuOrga/Programmieren/c_cpp/github_os/input/src/os_base\os_common.c ****    time = *DWT_CYCCNT;
  44:E:/NeuOrga/Programmieren/c_cpp/github_os/input/src/os_base\os_common.c **** 
  45:E:/NeuOrga/Programmieren/c_cpp/github_os/input/src/os_base\os_common.c ****    /* reset the counter to 0 cycle */
  46:E:/NeuOrga/Programmieren/c_cpp/github_os/input/src/os_base\os_common.c ****    *DWT_CYCCNT = 0u;
  47:E:/NeuOrga/Programmieren/c_cpp/github_os/input/src/os_base\os_common.c **** 
  48:E:/NeuOrga/Programmieren/c_cpp/github_os/input/src/os_base\os_common.c ****    /* enable the counter */
  49:E:/NeuOrga/Programmieren/c_cpp/github_os/input/src/os_base\os_common.c ****    *DWT_CTRL |= 1u;
  50:E:/NeuOrga/Programmieren/c_cpp/github_os/input/src/os_base\os_common.c **** 
  51:E:/NeuOrga/Programmieren/c_cpp/github_os/input/src/os_base\os_common.c ****    /* store the read time at the pointer pointer buffer */
  52:E:/NeuOrga/Programmieren/c_cpp/github_os/input/src/os_base\os_common.c ****    ASSIGN_UINT32(timebig, time);
  53:E:/NeuOrga/Programmieren/c_cpp/github_os/input/src/os_base\os_common.c **** #else
  54:E:/NeuOrga/Programmieren/c_cpp/github_os/input/src/os_base\os_common.c ****    ASSIGN_UINT32(timebig, 5u);/* assume a fixed step .... */
  94              		.loc 1 54 0
  95 0066 C7442404 		movl	$5, 4(%esp)
  95      05000000 
  96 006e 8B4508   		movl	8(%ebp), %eax
  97 0071 890424   		movl	%eax, (%esp)
  98 0074 E81B0300 		call	_ASSIGN_UINT32
  98      00
  55:E:/NeuOrga/Programmieren/c_cpp/github_os/input/src/os_base\os_common.c **** #endif
  56:E:/NeuOrga/Programmieren/c_cpp/github_os/input/src/os_base\os_common.c **** }
  99              		.loc 1 56 0
 100 0079 C9       		leave
 101              		.cfi_restore 5
 102              		.cfi_def_cfa 4, 4
 103 007a C3       		ret
 104              		.cfi_endproc
 105              	LFE3:
 106              		.globl	_INT_DIV
 108              	_INT_DIV:
 109              	LFB4:
  57:E:/NeuOrga/Programmieren/c_cpp/github_os/input/src/os_base\os_common.c **** 
GAS LISTING C:\Users\PRESID~1\AppData\Local\Temp\ccTZYDpu.s 			page 4


  58:E:/NeuOrga/Programmieren/c_cpp/github_os/input/src/os_base\os_common.c **** void INT_DIV(big_int* Quotient, big_int* Dividend, big_int* Divisor)
  59:E:/NeuOrga/Programmieren/c_cpp/github_os/input/src/os_base\os_common.c **** {
 110              		.loc 1 59 0
 111              		.cfi_startproc
 112 007b 55       		pushl	%ebp
 113              		.cfi_def_cfa_offset 8
 114              		.cfi_offset 5, -8
 115 007c 89E5     		movl	%esp, %ebp
 116              		.cfi_def_cfa_register 5
  60:E:/NeuOrga/Programmieren/c_cpp/github_os/input/src/os_base\os_common.c ****    /*TODO*/
  61:E:/NeuOrga/Programmieren/c_cpp/github_os/input/src/os_base\os_common.c **** }
 117              		.loc 1 61 0
 118 007e 5D       		popl	%ebp
 119              		.cfi_restore 5
 120              		.cfi_def_cfa 4, 4
 121 007f C3       		ret
 122              		.cfi_endproc
 123              	LFE4:
 124              		.globl	_INT_MUL
 126              	_INT_MUL:
 127              	LFB5:
  62:E:/NeuOrga/Programmieren/c_cpp/github_os/input/src/os_base\os_common.c **** 
  63:E:/NeuOrga/Programmieren/c_cpp/github_os/input/src/os_base\os_common.c **** void INT_MUL(big_int* Produkt, big_int* Faktor1, big_int* Faktor2)
  64:E:/NeuOrga/Programmieren/c_cpp/github_os/input/src/os_base\os_common.c **** {
 128              		.loc 1 64 0
 129              		.cfi_startproc
 130 0080 55       		pushl	%ebp
 131              		.cfi_def_cfa_offset 8
 132              		.cfi_offset 5, -8
 133 0081 89E5     		movl	%esp, %ebp
 134              		.cfi_def_cfa_register 5
  65:E:/NeuOrga/Programmieren/c_cpp/github_os/input/src/os_base\os_common.c ****    /*TODO*/
  66:E:/NeuOrga/Programmieren/c_cpp/github_os/input/src/os_base\os_common.c **** }
 135              		.loc 1 66 0
 136 0083 5D       		popl	%ebp
 137              		.cfi_restore 5
 138              		.cfi_def_cfa 4, 4
 139 0084 C3       		ret
 140              		.cfi_endproc
 141              	LFE5:
 142              		.globl	_INT_ADD
 144              	_INT_ADD:
 145              	LFB6:
  67:E:/NeuOrga/Programmieren/c_cpp/github_os/input/src/os_base\os_common.c **** 
  68:E:/NeuOrga/Programmieren/c_cpp/github_os/input/src/os_base\os_common.c **** void INT_ADD(big_int* Summe, big_int* ErsterSummand, big_int* ZweiterSummand)
  69:E:/NeuOrga/Programmieren/c_cpp/github_os/input/src/os_base\os_common.c **** {
 146              		.loc 1 69 0
 147              		.cfi_startproc
 148 0085 55       		pushl	%ebp
 149              		.cfi_def_cfa_offset 8
 150              		.cfi_offset 5, -8
 151 0086 89E5     		movl	%esp, %ebp
 152              		.cfi_def_cfa_register 5
 153 0088 83EC10   		subl	$16, %esp
  70:E:/NeuOrga/Programmieren/c_cpp/github_os/input/src/os_base\os_common.c ****    sint8 pos;
  71:E:/NeuOrga/Programmieren/c_cpp/github_os/input/src/os_base\os_common.c ****    uint16 carry  = 0u;
 154              		.loc 1 71 0
GAS LISTING C:\Users\PRESID~1\AppData\Local\Temp\ccTZYDpu.s 			page 5


 155 008b 66C745FC 		movw	$0, -4(%ebp)
 155      0000
  72:E:/NeuOrga/Programmieren/c_cpp/github_os/input/src/os_base\os_common.c **** 
  73:E:/NeuOrga/Programmieren/c_cpp/github_os/input/src/os_base\os_common.c ****    for(pos = BIG_INT_SIZE-1; pos >= 0; pos--)
 156              		.loc 1 73 0
 157 0091 C645FF0F 		movb	$15, -1(%ebp)
 158 0095 EB46     		jmp	L8
 159              	L9:
 160              	LBB2:
  74:E:/NeuOrga/Programmieren/c_cpp/github_os/input/src/os_base\os_common.c ****    {
  75:E:/NeuOrga/Programmieren/c_cpp/github_os/input/src/os_base\os_common.c ****       uint16 tmp_sum = (uint16)ErsterSummand->number[pos] +(uint16)ZweiterSummand->number[pos] + ca
 161              		.loc 1 75 0 discriminator 3
 162 0097 0FBE45FF 		movsbl	-1(%ebp), %eax
 163 009b 8B550C   		movl	12(%ebp), %edx
 164 009e 8A0402   		movb	(%edx,%eax), %al
 165 00a1 0FB6D0   		movzbl	%al, %edx
 166 00a4 0FBE45FF 		movsbl	-1(%ebp), %eax
 167 00a8 8B4D10   		movl	16(%ebp), %ecx
 168 00ab 8A0401   		movb	(%ecx,%eax), %al
 169 00ae 0FB6C0   		movzbl	%al, %eax
 170 00b1 01C2     		addl	%eax, %edx
 171 00b3 8B45FC   		movl	-4(%ebp), %eax
 172 00b6 01D0     		addl	%edx, %eax
 173 00b8 668945FA 		movw	%ax, -6(%ebp)
  76:E:/NeuOrga/Programmieren/c_cpp/github_os/input/src/os_base\os_common.c ****       Summe->number[pos] = tmp_sum & 0xFFu;
 174              		.loc 1 76 0 discriminator 3
 175 00bc 0FBE55FF 		movsbl	-1(%ebp), %edx
 176 00c0 668B45FA 		movw	-6(%ebp), %ax
 177 00c4 88C1     		movb	%al, %cl
 178 00c6 8B4508   		movl	8(%ebp), %eax
 179 00c9 880C10   		movb	%cl, (%eax,%edx)
  77:E:/NeuOrga/Programmieren/c_cpp/github_os/input/src/os_base\os_common.c ****       carry = tmp_sum & 0xFF00u;
 180              		.loc 1 77 0 discriminator 3
 181 00cc 668B45FA 		movw	-6(%ebp), %ax
 182 00d0 B000     		movb	$0, %al
 183 00d2 668945FC 		movw	%ax, -4(%ebp)
 184              	LBE2:
  73:E:/NeuOrga/Programmieren/c_cpp/github_os/input/src/os_base\os_common.c ****    {
 185              		.loc 1 73 0 discriminator 3
 186 00d6 8A45FF   		movb	-1(%ebp), %al
 187 00d9 48       		decl	%eax
 188 00da 8845FF   		movb	%al, -1(%ebp)
 189              	L8:
  73:E:/NeuOrga/Programmieren/c_cpp/github_os/input/src/os_base\os_common.c ****    {
 190              		.loc 1 73 0 is_stmt 0 discriminator 1
 191 00dd 807DFF00 		cmpb	$0, -1(%ebp)
 192 00e1 79B4     		jns	L9
  78:E:/NeuOrga/Programmieren/c_cpp/github_os/input/src/os_base\os_common.c ****    }
  79:E:/NeuOrga/Programmieren/c_cpp/github_os/input/src/os_base\os_common.c **** }
 193              		.loc 1 79 0 is_stmt 1
 194 00e3 C9       		leave
 195              		.cfi_restore 5
 196              		.cfi_def_cfa 4, 4
 197 00e4 C3       		ret
 198              		.cfi_endproc
 199              	LFE6:
 200              		.globl	_INT_SUB
GAS LISTING C:\Users\PRESID~1\AppData\Local\Temp\ccTZYDpu.s 			page 6


 202              	_INT_SUB:
 203              	LFB7:
  80:E:/NeuOrga/Programmieren/c_cpp/github_os/input/src/os_base\os_common.c **** void INT_SUB(big_int* Differenz, big_int* Minuend, big_int* Subtrahend)
  81:E:/NeuOrga/Programmieren/c_cpp/github_os/input/src/os_base\os_common.c **** {
 204              		.loc 1 81 0
 205              		.cfi_startproc
 206 00e5 55       		pushl	%ebp
 207              		.cfi_def_cfa_offset 8
 208              		.cfi_offset 5, -8
 209 00e6 89E5     		movl	%esp, %ebp
 210              		.cfi_def_cfa_register 5
 211 00e8 83EC10   		subl	$16, %esp
  82:E:/NeuOrga/Programmieren/c_cpp/github_os/input/src/os_base\os_common.c ****    sint8 pos;
  83:E:/NeuOrga/Programmieren/c_cpp/github_os/input/src/os_base\os_common.c ****    uint16 carry  = 0;
 212              		.loc 1 83 0
 213 00eb 66C745FA 		movw	$0, -6(%ebp)
 213      0000
  84:E:/NeuOrga/Programmieren/c_cpp/github_os/input/src/os_base\os_common.c **** 
  85:E:/NeuOrga/Programmieren/c_cpp/github_os/input/src/os_base\os_common.c ****    for(pos = BIG_INT_SIZE-1; pos >= 0; pos--)
 214              		.loc 1 85 0
 215 00f1 C645FF0F 		movb	$15, -1(%ebp)
 216 00f5 E9BD0000 		jmp	L11
 216      00
 217              	L14:
 218              	LBB3:
  86:E:/NeuOrga/Programmieren/c_cpp/github_os/input/src/os_base\os_common.c ****    {
  87:E:/NeuOrga/Programmieren/c_cpp/github_os/input/src/os_base\os_common.c ****       uint16 tmp_diff = 0u;
 219              		.loc 1 87 0
 220 00fa 66C745FC 		movw	$0, -4(%ebp)
 220      0000
  88:E:/NeuOrga/Programmieren/c_cpp/github_os/input/src/os_base\os_common.c ****       if(Minuend->number[pos]  >= (Subtrahend->number[pos] + carry))
 221              		.loc 1 88 0
 222 0100 0FBE45FF 		movsbl	-1(%ebp), %eax
 223 0104 8B550C   		movl	12(%ebp), %edx
 224 0107 8A0402   		movb	(%edx,%eax), %al
 225 010a 0FB6C8   		movzbl	%al, %ecx
 226 010d 0FBE45FF 		movsbl	-1(%ebp), %eax
 227 0111 8B5510   		movl	16(%ebp), %edx
 228 0114 8A0402   		movb	(%edx,%eax), %al
 229 0117 0FB6D0   		movzbl	%al, %edx
 230 011a 0FB745FA 		movzwl	-6(%ebp), %eax
 231 011e 01D0     		addl	%edx, %eax
 232 0120 39C1     		cmpl	%eax, %ecx
 233 0122 7C28     		jl	L12
  89:E:/NeuOrga/Programmieren/c_cpp/github_os/input/src/os_base\os_common.c ****       {
  90:E:/NeuOrga/Programmieren/c_cpp/github_os/input/src/os_base\os_common.c ****          tmp_diff = (uint16)Minuend->number[pos] - (uint16)Subtrahend->number[pos] - carry;
 234              		.loc 1 90 0
 235 0124 0FBE45FF 		movsbl	-1(%ebp), %eax
 236 0128 8B550C   		movl	12(%ebp), %edx
 237 012b 8A0402   		movb	(%edx,%eax), %al
 238 012e 0FB6D0   		movzbl	%al, %edx
 239 0131 0FBE45FF 		movsbl	-1(%ebp), %eax
 240 0135 8B4D10   		movl	16(%ebp), %ecx
 241 0138 8A0401   		movb	(%ecx,%eax), %al
 242 013b 0FB6C0   		movzbl	%al, %eax
 243 013e 29C2     		subl	%eax, %edx
 244 0140 89D0     		movl	%edx, %eax
GAS LISTING C:\Users\PRESID~1\AppData\Local\Temp\ccTZYDpu.s 			page 7


 245 0142 662B45FA 		subw	-6(%ebp), %ax
 246 0146 668945FC 		movw	%ax, -4(%ebp)
 247 014a EB55     		jmp	L13
 248              	L12:
  91:E:/NeuOrga/Programmieren/c_cpp/github_os/input/src/os_base\os_common.c ****       }
  92:E:/NeuOrga/Programmieren/c_cpp/github_os/input/src/os_base\os_common.c ****       else if((Minuend->number[pos]+0x100u)  >= (Subtrahend->number[pos] + carry))
 249              		.loc 1 92 0
 250 014c 0FBE45FF 		movsbl	-1(%ebp), %eax
 251 0150 8B550C   		movl	12(%ebp), %edx
 252 0153 8A0402   		movb	(%edx,%eax), %al
 253 0156 0FB6C0   		movzbl	%al, %eax
 254 0159 8D880001 		leal	256(%eax), %ecx
 254      0000
 255 015f 0FBE45FF 		movsbl	-1(%ebp), %eax
 256 0163 8B5510   		movl	16(%ebp), %edx
 257 0166 8A0402   		movb	(%edx,%eax), %al
 258 0169 0FB6D0   		movzbl	%al, %edx
 259 016c 0FB745FA 		movzwl	-6(%ebp), %eax
 260 0170 01D0     		addl	%edx, %eax
 261 0172 39C1     		cmpl	%eax, %ecx
 262 0174 722B     		jb	L13
  93:E:/NeuOrga/Programmieren/c_cpp/github_os/input/src/os_base\os_common.c ****       {
  94:E:/NeuOrga/Programmieren/c_cpp/github_os/input/src/os_base\os_common.c ****          tmp_diff = 0x100u+(uint16)Minuend->number[pos] - (uint16)Subtrahend->number[pos] - (uint16
 263              		.loc 1 94 0
 264 0176 0FBE45FF 		movsbl	-1(%ebp), %eax
 265 017a 8B550C   		movl	12(%ebp), %edx
 266 017d 8A0402   		movb	(%edx,%eax), %al
 267 0180 0FB6D0   		movzbl	%al, %edx
 268 0183 0FBE45FF 		movsbl	-1(%ebp), %eax
 269 0187 8B4D10   		movl	16(%ebp), %ecx
 270 018a 8A0401   		movb	(%ecx,%eax), %al
 271 018d 0FB6C0   		movzbl	%al, %eax
 272 0190 29C2     		subl	%eax, %edx
 273 0192 89D0     		movl	%edx, %eax
 274 0194 662B45FA 		subw	-6(%ebp), %ax
 275 0198 05000100 		addl	$256, %eax
 275      00
 276 019d 668945FC 		movw	%ax, -4(%ebp)
 277              	L13:
  95:E:/NeuOrga/Programmieren/c_cpp/github_os/input/src/os_base\os_common.c ****       }
  96:E:/NeuOrga/Programmieren/c_cpp/github_os/input/src/os_base\os_common.c ****       else
  97:E:/NeuOrga/Programmieren/c_cpp/github_os/input/src/os_base\os_common.c ****       {
  98:E:/NeuOrga/Programmieren/c_cpp/github_os/input/src/os_base\os_common.c ****          /* not possible */
  99:E:/NeuOrga/Programmieren/c_cpp/github_os/input/src/os_base\os_common.c ****       }
 100:E:/NeuOrga/Programmieren/c_cpp/github_os/input/src/os_base\os_common.c ****       Differenz->number[pos] = tmp_diff;
 278              		.loc 1 100 0 discriminator 2
 279 01a1 0FBE55FF 		movsbl	-1(%ebp), %edx
 280 01a5 8B45FC   		movl	-4(%ebp), %eax
 281 01a8 88C1     		movb	%al, %cl
 282 01aa 8B4508   		movl	8(%ebp), %eax
 283 01ad 880C10   		movb	%cl, (%eax,%edx)
 284              	LBE3:
  85:E:/NeuOrga/Programmieren/c_cpp/github_os/input/src/os_base\os_common.c ****    {
 285              		.loc 1 85 0 discriminator 2
 286 01b0 8A45FF   		movb	-1(%ebp), %al
 287 01b3 48       		decl	%eax
 288 01b4 8845FF   		movb	%al, -1(%ebp)
GAS LISTING C:\Users\PRESID~1\AppData\Local\Temp\ccTZYDpu.s 			page 8


 289              	L11:
  85:E:/NeuOrga/Programmieren/c_cpp/github_os/input/src/os_base\os_common.c ****    {
 290              		.loc 1 85 0 is_stmt 0 discriminator 1
 291 01b7 807DFF00 		cmpb	$0, -1(%ebp)
 292 01bb 0F8939FF 		jns	L14
 292      FFFF
 101:E:/NeuOrga/Programmieren/c_cpp/github_os/input/src/os_base\os_common.c ****    }
 102:E:/NeuOrga/Programmieren/c_cpp/github_os/input/src/os_base\os_common.c **** }
 293              		.loc 1 102 0 is_stmt 1
 294 01c1 C9       		leave
 295              		.cfi_restore 5
 296              		.cfi_def_cfa 4, 4
 297 01c2 C3       		ret
 298              		.cfi_endproc
 299              	LFE7:
 300              		.globl	_IS_LESS
 302              	_IS_LESS:
 303              	LFB8:
 103:E:/NeuOrga/Programmieren/c_cpp/github_os/input/src/os_base\os_common.c **** boolean_t IS_LESS(big_int* Operand1, big_int* Operand2)
 104:E:/NeuOrga/Programmieren/c_cpp/github_os/input/src/os_base\os_common.c **** {
 304              		.loc 1 104 0
 305              		.cfi_startproc
 306 01c3 55       		pushl	%ebp
 307              		.cfi_def_cfa_offset 8
 308              		.cfi_offset 5, -8
 309 01c4 89E5     		movl	%esp, %ebp
 310              		.cfi_def_cfa_register 5
 311 01c6 83EC10   		subl	$16, %esp
 105:E:/NeuOrga/Programmieren/c_cpp/github_os/input/src/os_base\os_common.c ****    uint8 pos;
 106:E:/NeuOrga/Programmieren/c_cpp/github_os/input/src/os_base\os_common.c ****    boolean_t is_less = FALSE;/* in case no if was entered, the numbers are equal -> return FALSE */
 312              		.loc 1 106 0
 313 01c9 C645FE00 		movb	$0, -2(%ebp)
 107:E:/NeuOrga/Programmieren/c_cpp/github_os/input/src/os_base\os_common.c ****    for(pos = 0; pos < BIG_INT_SIZE; pos++)
 314              		.loc 1 107 0
 315 01cd C645FF00 		movb	$0, -1(%ebp)
 316 01d1 EB43     		jmp	L16
 317              	L20:
 108:E:/NeuOrga/Programmieren/c_cpp/github_os/input/src/os_base\os_common.c ****    {
 109:E:/NeuOrga/Programmieren/c_cpp/github_os/input/src/os_base\os_common.c ****       if(Operand1->number[pos] < Operand2->number[pos])
 318              		.loc 1 109 0
 319 01d3 0FB645FF 		movzbl	-1(%ebp), %eax
 320 01d7 8B5508   		movl	8(%ebp), %edx
 321 01da 8A0C02   		movb	(%edx,%eax), %cl
 322 01dd 0FB645FF 		movzbl	-1(%ebp), %eax
 323 01e1 8B550C   		movl	12(%ebp), %edx
 324 01e4 8A0402   		movb	(%edx,%eax), %al
 325 01e7 38C1     		cmpb	%al, %cl
 326 01e9 7306     		jnb	L17
 110:E:/NeuOrga/Programmieren/c_cpp/github_os/input/src/os_base\os_common.c ****       {
 111:E:/NeuOrga/Programmieren/c_cpp/github_os/input/src/os_base\os_common.c ****          is_less = TRUE;
 327              		.loc 1 111 0
 328 01eb C645FE01 		movb	$1, -2(%ebp)
 112:E:/NeuOrga/Programmieren/c_cpp/github_os/input/src/os_base\os_common.c ****          break;
 329              		.loc 1 112 0
 330 01ef EB2B     		jmp	L18
 331              	L17:
 113:E:/NeuOrga/Programmieren/c_cpp/github_os/input/src/os_base\os_common.c ****       }
GAS LISTING C:\Users\PRESID~1\AppData\Local\Temp\ccTZYDpu.s 			page 9


 114:E:/NeuOrga/Programmieren/c_cpp/github_os/input/src/os_base\os_common.c ****       else if (Operand1->number[pos] > Operand2->number[pos])
 332              		.loc 1 114 0
 333 01f1 0FB645FF 		movzbl	-1(%ebp), %eax
 334 01f5 8B5508   		movl	8(%ebp), %edx
 335 01f8 8A0C02   		movb	(%edx,%eax), %cl
 336 01fb 0FB645FF 		movzbl	-1(%ebp), %eax
 337 01ff 8B550C   		movl	12(%ebp), %edx
 338 0202 8A0402   		movb	(%edx,%eax), %al
 339 0205 38C1     		cmpb	%al, %cl
 340 0207 7606     		jbe	L19
 115:E:/NeuOrga/Programmieren/c_cpp/github_os/input/src/os_base\os_common.c ****       {
 116:E:/NeuOrga/Programmieren/c_cpp/github_os/input/src/os_base\os_common.c ****          is_less = FALSE;
 341              		.loc 1 116 0
 342 0209 C645FE00 		movb	$0, -2(%ebp)
 117:E:/NeuOrga/Programmieren/c_cpp/github_os/input/src/os_base\os_common.c ****          break;
 343              		.loc 1 117 0
 344 020d EB0D     		jmp	L18
 345              	L19:
 107:E:/NeuOrga/Programmieren/c_cpp/github_os/input/src/os_base\os_common.c ****    {
 346              		.loc 1 107 0 discriminator 2
 347 020f 8A45FF   		movb	-1(%ebp), %al
 348 0212 40       		incl	%eax
 349 0213 8845FF   		movb	%al, -1(%ebp)
 350              	L16:
 107:E:/NeuOrga/Programmieren/c_cpp/github_os/input/src/os_base\os_common.c ****    {
 351              		.loc 1 107 0 is_stmt 0 discriminator 1
 352 0216 807DFF0F 		cmpb	$15, -1(%ebp)
 353 021a 76B7     		jbe	L20
 354              	L18:
 118:E:/NeuOrga/Programmieren/c_cpp/github_os/input/src/os_base\os_common.c ****       }
 119:E:/NeuOrga/Programmieren/c_cpp/github_os/input/src/os_base\os_common.c ****       else
 120:E:/NeuOrga/Programmieren/c_cpp/github_os/input/src/os_base\os_common.c ****       {
 121:E:/NeuOrga/Programmieren/c_cpp/github_os/input/src/os_base\os_common.c ****          /* don't break, but continue with next position */
 122:E:/NeuOrga/Programmieren/c_cpp/github_os/input/src/os_base\os_common.c ****       }
 123:E:/NeuOrga/Programmieren/c_cpp/github_os/input/src/os_base\os_common.c ****    }
 124:E:/NeuOrga/Programmieren/c_cpp/github_os/input/src/os_base\os_common.c ****    return is_less;
 355              		.loc 1 124 0 is_stmt 1
 356 021c 8A45FE   		movb	-2(%ebp), %al
 125:E:/NeuOrga/Programmieren/c_cpp/github_os/input/src/os_base\os_common.c **** }
 357              		.loc 1 125 0
 358 021f C9       		leave
 359              		.cfi_restore 5
 360              		.cfi_def_cfa 4, 4
 361 0220 C3       		ret
 362              		.cfi_endproc
 363              	LFE8:
 364              		.globl	_IS_LESS_OR_EQUAL
 366              	_IS_LESS_OR_EQUAL:
 367              	LFB9:
 126:E:/NeuOrga/Programmieren/c_cpp/github_os/input/src/os_base\os_common.c **** boolean_t IS_LESS_OR_EQUAL(big_int* Operand1, big_int* Operand2)
 127:E:/NeuOrga/Programmieren/c_cpp/github_os/input/src/os_base\os_common.c **** {
 368              		.loc 1 127 0
 369              		.cfi_startproc
 370 0221 55       		pushl	%ebp
 371              		.cfi_def_cfa_offset 8
 372              		.cfi_offset 5, -8
 373 0222 89E5     		movl	%esp, %ebp
GAS LISTING C:\Users\PRESID~1\AppData\Local\Temp\ccTZYDpu.s 			page 10


 374              		.cfi_def_cfa_register 5
 375 0224 83EC18   		subl	$24, %esp
 128:E:/NeuOrga/Programmieren/c_cpp/github_os/input/src/os_base\os_common.c ****    return IS_LESS(Operand1,Operand2) || IS_EQUAL(Operand1,Operand2);
 376              		.loc 1 128 0
 377 0227 8B450C   		movl	12(%ebp), %eax
 378 022a 89442404 		movl	%eax, 4(%esp)
 379 022e 8B4508   		movl	8(%ebp), %eax
 380 0231 890424   		movl	%eax, (%esp)
 381 0234 E88AFFFF 		call	_IS_LESS
 381      FF
 382 0239 84C0     		testb	%al, %al
 383 023b 7516     		jne	L23
 384              		.loc 1 128 0 is_stmt 0 discriminator 2
 385 023d 8B450C   		movl	12(%ebp), %eax
 386 0240 89442404 		movl	%eax, 4(%esp)
 387 0244 8B4508   		movl	8(%ebp), %eax
 388 0247 890424   		movl	%eax, (%esp)
 389 024a E8120000 		call	_IS_EQUAL
 389      00
 390 024f 84C0     		testb	%al, %al
 391 0251 7407     		je	L24
 392              	L23:
 393              		.loc 1 128 0 discriminator 3
 394 0253 B8010000 		movl	$1, %eax
 394      00
 395 0258 EB05     		jmp	L25
 396              	L24:
 397              		.loc 1 128 0 discriminator 4
 398 025a B8000000 		movl	$0, %eax
 398      00
 399              	L25:
 129:E:/NeuOrga/Programmieren/c_cpp/github_os/input/src/os_base\os_common.c **** }
 400              		.loc 1 129 0 is_stmt 1 discriminator 6
 401 025f C9       		leave
 402              		.cfi_restore 5
 403              		.cfi_def_cfa 4, 4
 404 0260 C3       		ret
 405              		.cfi_endproc
 406              	LFE9:
 407              		.globl	_IS_EQUAL
 409              	_IS_EQUAL:
 410              	LFB10:
 130:E:/NeuOrga/Programmieren/c_cpp/github_os/input/src/os_base\os_common.c **** boolean_t IS_EQUAL(big_int* Operand1, big_int* Operand2)
 131:E:/NeuOrga/Programmieren/c_cpp/github_os/input/src/os_base\os_common.c **** {
 411              		.loc 1 131 0
 412              		.cfi_startproc
 413 0261 55       		pushl	%ebp
 414              		.cfi_def_cfa_offset 8
 415              		.cfi_offset 5, -8
 416 0262 89E5     		movl	%esp, %ebp
 417              		.cfi_def_cfa_register 5
 418 0264 83EC10   		subl	$16, %esp
 132:E:/NeuOrga/Programmieren/c_cpp/github_os/input/src/os_base\os_common.c ****    uint8 pos;
 133:E:/NeuOrga/Programmieren/c_cpp/github_os/input/src/os_base\os_common.c ****    boolean_t is_equal = TRUE;/* in case no if/elseif) was entered, the numbers are equal -> return 
 419              		.loc 1 133 0
 420 0267 C645FE01 		movb	$1, -2(%ebp)
 134:E:/NeuOrga/Programmieren/c_cpp/github_os/input/src/os_base\os_common.c ****    for(pos = 0u; pos < BIG_INT_SIZE; pos++)
GAS LISTING C:\Users\PRESID~1\AppData\Local\Temp\ccTZYDpu.s 			page 11


 421              		.loc 1 134 0
 422 026b C645FF00 		movb	$0, -1(%ebp)
 423 026f EB25     		jmp	L28
 424              	L31:
 135:E:/NeuOrga/Programmieren/c_cpp/github_os/input/src/os_base\os_common.c ****    {
 136:E:/NeuOrga/Programmieren/c_cpp/github_os/input/src/os_base\os_common.c ****       if(Operand1->number[pos] != Operand2->number[pos])
 425              		.loc 1 136 0
 426 0271 0FB645FF 		movzbl	-1(%ebp), %eax
 427 0275 8B5508   		movl	8(%ebp), %edx
 428 0278 8A0C02   		movb	(%edx,%eax), %cl
 429 027b 0FB645FF 		movzbl	-1(%ebp), %eax
 430 027f 8B550C   		movl	12(%ebp), %edx
 431 0282 8A0402   		movb	(%edx,%eax), %al
 432 0285 38C1     		cmpb	%al, %cl
 433 0287 7406     		je	L29
 137:E:/NeuOrga/Programmieren/c_cpp/github_os/input/src/os_base\os_common.c ****       {
 138:E:/NeuOrga/Programmieren/c_cpp/github_os/input/src/os_base\os_common.c ****          is_equal = FALSE;
 434              		.loc 1 138 0
 435 0289 C645FE00 		movb	$0, -2(%ebp)
 139:E:/NeuOrga/Programmieren/c_cpp/github_os/input/src/os_base\os_common.c ****          break;
 436              		.loc 1 139 0
 437 028d EB0D     		jmp	L30
 438              	L29:
 134:E:/NeuOrga/Programmieren/c_cpp/github_os/input/src/os_base\os_common.c ****    {
 439              		.loc 1 134 0 discriminator 2
 440 028f 8A45FF   		movb	-1(%ebp), %al
 441 0292 40       		incl	%eax
 442 0293 8845FF   		movb	%al, -1(%ebp)
 443              	L28:
 134:E:/NeuOrga/Programmieren/c_cpp/github_os/input/src/os_base\os_common.c ****    {
 444              		.loc 1 134 0 is_stmt 0 discriminator 1
 445 0296 807DFF0F 		cmpb	$15, -1(%ebp)
 446 029a 76D5     		jbe	L31
 447              	L30:
 140:E:/NeuOrga/Programmieren/c_cpp/github_os/input/src/os_base\os_common.c ****       }
 141:E:/NeuOrga/Programmieren/c_cpp/github_os/input/src/os_base\os_common.c ****       else
 142:E:/NeuOrga/Programmieren/c_cpp/github_os/input/src/os_base\os_common.c ****       {
 143:E:/NeuOrga/Programmieren/c_cpp/github_os/input/src/os_base\os_common.c ****          /* don't break, but continue with next position */
 144:E:/NeuOrga/Programmieren/c_cpp/github_os/input/src/os_base\os_common.c ****       }
 145:E:/NeuOrga/Programmieren/c_cpp/github_os/input/src/os_base\os_common.c ****    }
 146:E:/NeuOrga/Programmieren/c_cpp/github_os/input/src/os_base\os_common.c ****    return is_equal;
 448              		.loc 1 146 0 is_stmt 1
 449 029c 8A45FE   		movb	-2(%ebp), %al
 147:E:/NeuOrga/Programmieren/c_cpp/github_os/input/src/os_base\os_common.c **** }
 450              		.loc 1 147 0
 451 029f C9       		leave
 452              		.cfi_restore 5
 453              		.cfi_def_cfa 4, 4
 454 02a0 C3       		ret
 455              		.cfi_endproc
 456              	LFE10:
 457              		.globl	_IS_GREATER
 459              	_IS_GREATER:
 460              	LFB11:
 148:E:/NeuOrga/Programmieren/c_cpp/github_os/input/src/os_base\os_common.c **** boolean_t IS_GREATER(big_int* Operand1, big_int* Operand2)
 149:E:/NeuOrga/Programmieren/c_cpp/github_os/input/src/os_base\os_common.c **** {
 461              		.loc 1 149 0
GAS LISTING C:\Users\PRESID~1\AppData\Local\Temp\ccTZYDpu.s 			page 12


 462              		.cfi_startproc
 463 02a1 55       		pushl	%ebp
 464              		.cfi_def_cfa_offset 8
 465              		.cfi_offset 5, -8
 466 02a2 89E5     		movl	%esp, %ebp
 467              		.cfi_def_cfa_register 5
 468 02a4 83EC10   		subl	$16, %esp
 150:E:/NeuOrga/Programmieren/c_cpp/github_os/input/src/os_base\os_common.c ****    uint8 pos;
 151:E:/NeuOrga/Programmieren/c_cpp/github_os/input/src/os_base\os_common.c ****    boolean_t is_greater = FALSE;/* in case no if was entered, the numbers are equal -> return FALSE
 469              		.loc 1 151 0
 470 02a7 C645FE00 		movb	$0, -2(%ebp)
 152:E:/NeuOrga/Programmieren/c_cpp/github_os/input/src/os_base\os_common.c ****    for(pos = 0u; pos < BIG_INT_SIZE; pos++)
 471              		.loc 1 152 0
 472 02ab C645FF00 		movb	$0, -1(%ebp)
 473 02af EB43     		jmp	L34
 474              	L38:
 153:E:/NeuOrga/Programmieren/c_cpp/github_os/input/src/os_base\os_common.c ****    {
 154:E:/NeuOrga/Programmieren/c_cpp/github_os/input/src/os_base\os_common.c ****       if(Operand1->number[pos] < Operand2->number[pos])
 475              		.loc 1 154 0
 476 02b1 0FB645FF 		movzbl	-1(%ebp), %eax
 477 02b5 8B5508   		movl	8(%ebp), %edx
 478 02b8 8A0C02   		movb	(%edx,%eax), %cl
 479 02bb 0FB645FF 		movzbl	-1(%ebp), %eax
 480 02bf 8B550C   		movl	12(%ebp), %edx
 481 02c2 8A0402   		movb	(%edx,%eax), %al
 482 02c5 38C1     		cmpb	%al, %cl
 483 02c7 7306     		jnb	L35
 155:E:/NeuOrga/Programmieren/c_cpp/github_os/input/src/os_base\os_common.c ****       {
 156:E:/NeuOrga/Programmieren/c_cpp/github_os/input/src/os_base\os_common.c ****          is_greater = FALSE;
 484              		.loc 1 156 0
 485 02c9 C645FE00 		movb	$0, -2(%ebp)
 157:E:/NeuOrga/Programmieren/c_cpp/github_os/input/src/os_base\os_common.c ****          break;
 486              		.loc 1 157 0
 487 02cd EB2B     		jmp	L36
 488              	L35:
 158:E:/NeuOrga/Programmieren/c_cpp/github_os/input/src/os_base\os_common.c ****       }
 159:E:/NeuOrga/Programmieren/c_cpp/github_os/input/src/os_base\os_common.c ****       else if (Operand1->number[pos] > Operand2->number[pos])
 489              		.loc 1 159 0
 490 02cf 0FB645FF 		movzbl	-1(%ebp), %eax
 491 02d3 8B5508   		movl	8(%ebp), %edx
 492 02d6 8A0C02   		movb	(%edx,%eax), %cl
 493 02d9 0FB645FF 		movzbl	-1(%ebp), %eax
 494 02dd 8B550C   		movl	12(%ebp), %edx
 495 02e0 8A0402   		movb	(%edx,%eax), %al
 496 02e3 38C1     		cmpb	%al, %cl
 497 02e5 7606     		jbe	L37
 160:E:/NeuOrga/Programmieren/c_cpp/github_os/input/src/os_base\os_common.c ****       {
 161:E:/NeuOrga/Programmieren/c_cpp/github_os/input/src/os_base\os_common.c ****          is_greater = TRUE;
 498              		.loc 1 161 0
 499 02e7 C645FE01 		movb	$1, -2(%ebp)
 162:E:/NeuOrga/Programmieren/c_cpp/github_os/input/src/os_base\os_common.c ****          break;
 500              		.loc 1 162 0
 501 02eb EB0D     		jmp	L36
 502              	L37:
 152:E:/NeuOrga/Programmieren/c_cpp/github_os/input/src/os_base\os_common.c ****    {
 503              		.loc 1 152 0 discriminator 2
 504 02ed 8A45FF   		movb	-1(%ebp), %al
GAS LISTING C:\Users\PRESID~1\AppData\Local\Temp\ccTZYDpu.s 			page 13


 505 02f0 40       		incl	%eax
 506 02f1 8845FF   		movb	%al, -1(%ebp)
 507              	L34:
 152:E:/NeuOrga/Programmieren/c_cpp/github_os/input/src/os_base\os_common.c ****    {
 508              		.loc 1 152 0 is_stmt 0 discriminator 1
 509 02f4 807DFF0F 		cmpb	$15, -1(%ebp)
 510 02f8 76B7     		jbe	L38
 511              	L36:
 163:E:/NeuOrga/Programmieren/c_cpp/github_os/input/src/os_base\os_common.c ****       }
 164:E:/NeuOrga/Programmieren/c_cpp/github_os/input/src/os_base\os_common.c ****       else
 165:E:/NeuOrga/Programmieren/c_cpp/github_os/input/src/os_base\os_common.c ****       {
 166:E:/NeuOrga/Programmieren/c_cpp/github_os/input/src/os_base\os_common.c ****          /* don't break, but continue with next position */
 167:E:/NeuOrga/Programmieren/c_cpp/github_os/input/src/os_base\os_common.c ****       }
 168:E:/NeuOrga/Programmieren/c_cpp/github_os/input/src/os_base\os_common.c ****    }
 169:E:/NeuOrga/Programmieren/c_cpp/github_os/input/src/os_base\os_common.c ****    return is_greater;
 512              		.loc 1 169 0 is_stmt 1
 513 02fa 8A45FE   		movb	-2(%ebp), %al
 170:E:/NeuOrga/Programmieren/c_cpp/github_os/input/src/os_base\os_common.c **** }
 514              		.loc 1 170 0
 515 02fd C9       		leave
 516              		.cfi_restore 5
 517              		.cfi_def_cfa 4, 4
 518 02fe C3       		ret
 519              		.cfi_endproc
 520              	LFE11:
 521              		.globl	_IS_GREATER_OR_EQUAL
 523              	_IS_GREATER_OR_EQUAL:
 524              	LFB12:
 171:E:/NeuOrga/Programmieren/c_cpp/github_os/input/src/os_base\os_common.c **** boolean_t IS_GREATER_OR_EQUAL(big_int* Operand1, big_int* Operand2)
 172:E:/NeuOrga/Programmieren/c_cpp/github_os/input/src/os_base\os_common.c **** {
 525              		.loc 1 172 0
 526              		.cfi_startproc
 527 02ff 55       		pushl	%ebp
 528              		.cfi_def_cfa_offset 8
 529              		.cfi_offset 5, -8
 530 0300 89E5     		movl	%esp, %ebp
 531              		.cfi_def_cfa_register 5
 532 0302 83EC08   		subl	$8, %esp
 173:E:/NeuOrga/Programmieren/c_cpp/github_os/input/src/os_base\os_common.c ****    return IS_GREATER(Operand1,Operand2) || IS_EQUAL(Operand1,Operand2);
 533              		.loc 1 173 0
 534 0305 8B450C   		movl	12(%ebp), %eax
 535 0308 89442404 		movl	%eax, 4(%esp)
 536 030c 8B4508   		movl	8(%ebp), %eax
 537 030f 890424   		movl	%eax, (%esp)
 538 0312 E88AFFFF 		call	_IS_GREATER
 538      FF
 539 0317 84C0     		testb	%al, %al
 540 0319 7516     		jne	L41
 541              		.loc 1 173 0 is_stmt 0 discriminator 2
 542 031b 8B450C   		movl	12(%ebp), %eax
 543 031e 89442404 		movl	%eax, 4(%esp)
 544 0322 8B4508   		movl	8(%ebp), %eax
 545 0325 890424   		movl	%eax, (%esp)
 546 0328 E834FFFF 		call	_IS_EQUAL
 546      FF
 547 032d 84C0     		testb	%al, %al
 548 032f 7407     		je	L42
GAS LISTING C:\Users\PRESID~1\AppData\Local\Temp\ccTZYDpu.s 			page 14


 549              	L41:
 550              		.loc 1 173 0 discriminator 3
 551 0331 B8010000 		movl	$1, %eax
 551      00
 552 0336 EB05     		jmp	L43
 553              	L42:
 554              		.loc 1 173 0 discriminator 4
 555 0338 B8000000 		movl	$0, %eax
 555      00
 556              	L43:
 174:E:/NeuOrga/Programmieren/c_cpp/github_os/input/src/os_base\os_common.c **** }
 557              		.loc 1 174 0 is_stmt 1 discriminator 6
 558 033d C9       		leave
 559              		.cfi_restore 5
 560              		.cfi_def_cfa 4, 4
 561 033e C3       		ret
 562              		.cfi_endproc
 563              	LFE12:
 564              		.globl	_ASSIGN
 566              	_ASSIGN:
 567              	LFB13:
 175:E:/NeuOrga/Programmieren/c_cpp/github_os/input/src/os_base\os_common.c **** void ASSIGN(big_int* leftOperand, big_int* rightOperand)
 176:E:/NeuOrga/Programmieren/c_cpp/github_os/input/src/os_base\os_common.c **** {
 568              		.loc 1 176 0
 569              		.cfi_startproc
 570 033f 55       		pushl	%ebp
 571              		.cfi_def_cfa_offset 8
 572              		.cfi_offset 5, -8
 573 0340 89E5     		movl	%esp, %ebp
 574              		.cfi_def_cfa_register 5
 575 0342 83EC10   		subl	$16, %esp
 177:E:/NeuOrga/Programmieren/c_cpp/github_os/input/src/os_base\os_common.c ****    uint8 pos;
 178:E:/NeuOrga/Programmieren/c_cpp/github_os/input/src/os_base\os_common.c ****    for (pos = 0u; pos < BIG_INT_SIZE; pos++)
 576              		.loc 1 178 0
 577 0345 C645FF00 		movb	$0, -1(%ebp)
 578 0349 EB1B     		jmp	L46
 579              	L47:
 179:E:/NeuOrga/Programmieren/c_cpp/github_os/input/src/os_base\os_common.c ****    {
 180:E:/NeuOrga/Programmieren/c_cpp/github_os/input/src/os_base\os_common.c ****       leftOperand->number[pos] = rightOperand->number[pos];
 580              		.loc 1 180 0 discriminator 3
 581 034b 0FB645FF 		movzbl	-1(%ebp), %eax
 582 034f 0FB655FF 		movzbl	-1(%ebp), %edx
 583 0353 8B4D0C   		movl	12(%ebp), %ecx
 584 0356 8A0C11   		movb	(%ecx,%edx), %cl
 585 0359 8B5508   		movl	8(%ebp), %edx
 586 035c 880C02   		movb	%cl, (%edx,%eax)
 178:E:/NeuOrga/Programmieren/c_cpp/github_os/input/src/os_base\os_common.c ****    {
 587              		.loc 1 178 0 discriminator 3
 588 035f 8A45FF   		movb	-1(%ebp), %al
 589 0362 40       		incl	%eax
 590 0363 8845FF   		movb	%al, -1(%ebp)
 591              	L46:
 178:E:/NeuOrga/Programmieren/c_cpp/github_os/input/src/os_base\os_common.c ****    {
 592              		.loc 1 178 0 is_stmt 0 discriminator 1
 593 0366 807DFF0F 		cmpb	$15, -1(%ebp)
 594 036a 76DF     		jbe	L47
 181:E:/NeuOrga/Programmieren/c_cpp/github_os/input/src/os_base\os_common.c ****    }
GAS LISTING C:\Users\PRESID~1\AppData\Local\Temp\ccTZYDpu.s 			page 15


 182:E:/NeuOrga/Programmieren/c_cpp/github_os/input/src/os_base\os_common.c **** }
 595              		.loc 1 182 0 is_stmt 1
 596 036c C9       		leave
 597              		.cfi_restore 5
 598              		.cfi_def_cfa 4, 4
 599 036d C3       		ret
 600              		.cfi_endproc
 601              	LFE13:
 602              		.globl	_ASSIGN_NULL
 604              	_ASSIGN_NULL:
 605              	LFB14:
 183:E:/NeuOrga/Programmieren/c_cpp/github_os/input/src/os_base\os_common.c **** void ASSIGN_NULL(big_int* leftOperand)
 184:E:/NeuOrga/Programmieren/c_cpp/github_os/input/src/os_base\os_common.c **** {
 606              		.loc 1 184 0
 607              		.cfi_startproc
 608 036e 55       		pushl	%ebp
 609              		.cfi_def_cfa_offset 8
 610              		.cfi_offset 5, -8
 611 036f 89E5     		movl	%esp, %ebp
 612              		.cfi_def_cfa_register 5
 613 0371 83EC10   		subl	$16, %esp
 185:E:/NeuOrga/Programmieren/c_cpp/github_os/input/src/os_base\os_common.c ****    uint8 pos;
 186:E:/NeuOrga/Programmieren/c_cpp/github_os/input/src/os_base\os_common.c ****    for (pos = 0u; pos < BIG_INT_SIZE; pos++)
 614              		.loc 1 186 0
 615 0374 C645FF00 		movb	$0, -1(%ebp)
 616 0378 EB12     		jmp	L49
 617              	L50:
 187:E:/NeuOrga/Programmieren/c_cpp/github_os/input/src/os_base\os_common.c ****    {
 188:E:/NeuOrga/Programmieren/c_cpp/github_os/input/src/os_base\os_common.c ****       leftOperand->number[pos] = 0x00u;
 618              		.loc 1 188 0 discriminator 3
 619 037a 0FB645FF 		movzbl	-1(%ebp), %eax
 620 037e 8B5508   		movl	8(%ebp), %edx
 621 0381 C6040200 		movb	$0, (%edx,%eax)
 186:E:/NeuOrga/Programmieren/c_cpp/github_os/input/src/os_base\os_common.c ****    {
 622              		.loc 1 186 0 discriminator 3
 623 0385 8A45FF   		movb	-1(%ebp), %al
 624 0388 40       		incl	%eax
 625 0389 8845FF   		movb	%al, -1(%ebp)
 626              	L49:
 186:E:/NeuOrga/Programmieren/c_cpp/github_os/input/src/os_base\os_common.c ****    {
 627              		.loc 1 186 0 is_stmt 0 discriminator 1
 628 038c 807DFF0F 		cmpb	$15, -1(%ebp)
 629 0390 76E8     		jbe	L50
 189:E:/NeuOrga/Programmieren/c_cpp/github_os/input/src/os_base\os_common.c ****    }
 190:E:/NeuOrga/Programmieren/c_cpp/github_os/input/src/os_base\os_common.c **** }
 630              		.loc 1 190 0 is_stmt 1
 631 0392 C9       		leave
 632              		.cfi_restore 5
 633              		.cfi_def_cfa 4, 4
 634 0393 C3       		ret
 635              		.cfi_endproc
 636              	LFE14:
 637              		.globl	_ASSIGN_UINT32
 639              	_ASSIGN_UINT32:
 640              	LFB15:
 191:E:/NeuOrga/Programmieren/c_cpp/github_os/input/src/os_base\os_common.c **** 
 192:E:/NeuOrga/Programmieren/c_cpp/github_os/input/src/os_base\os_common.c **** void ASSIGN_UINT32(big_int* leftOperand, uint32 rightOperand)
GAS LISTING C:\Users\PRESID~1\AppData\Local\Temp\ccTZYDpu.s 			page 16


 193:E:/NeuOrga/Programmieren/c_cpp/github_os/input/src/os_base\os_common.c **** {
 641              		.loc 1 193 0
 642              		.cfi_startproc
 643 0394 55       		pushl	%ebp
 644              		.cfi_def_cfa_offset 8
 645              		.cfi_offset 5, -8
 646 0395 89E5     		movl	%esp, %ebp
 647              		.cfi_def_cfa_register 5
 648 0397 53       		pushl	%ebx
 649 0398 83EC10   		subl	$16, %esp
 650              		.cfi_offset 3, -12
 194:E:/NeuOrga/Programmieren/c_cpp/github_os/input/src/os_base\os_common.c ****    uint8 pos;
 195:E:/NeuOrga/Programmieren/c_cpp/github_os/input/src/os_base\os_common.c ****    uint8 i;
 196:E:/NeuOrga/Programmieren/c_cpp/github_os/input/src/os_base\os_common.c ****    for (pos = 0u; pos < BIG_INT_SIZE; pos++)
 651              		.loc 1 196 0
 652 039b C645FB00 		movb	$0, -5(%ebp)
 653 039f EB12     		jmp	L52
 654              	L53:
 197:E:/NeuOrga/Programmieren/c_cpp/github_os/input/src/os_base\os_common.c ****    {
 198:E:/NeuOrga/Programmieren/c_cpp/github_os/input/src/os_base\os_common.c ****       leftOperand->number[pos] = 0x00u;
 655              		.loc 1 198 0 discriminator 3
 656 03a1 0FB645FB 		movzbl	-5(%ebp), %eax
 657 03a5 8B5508   		movl	8(%ebp), %edx
 658 03a8 C6040200 		movb	$0, (%edx,%eax)
 196:E:/NeuOrga/Programmieren/c_cpp/github_os/input/src/os_base\os_common.c ****    {
 659              		.loc 1 196 0 discriminator 3
 660 03ac 8A45FB   		movb	-5(%ebp), %al
 661 03af 40       		incl	%eax
 662 03b0 8845FB   		movb	%al, -5(%ebp)
 663              	L52:
 196:E:/NeuOrga/Programmieren/c_cpp/github_os/input/src/os_base\os_common.c ****    {
 664              		.loc 1 196 0 is_stmt 0 discriminator 1
 665 03b3 807DFB0F 		cmpb	$15, -5(%ebp)
 666 03b7 76E8     		jbe	L53
 199:E:/NeuOrga/Programmieren/c_cpp/github_os/input/src/os_base\os_common.c ****    }
 200:E:/NeuOrga/Programmieren/c_cpp/github_os/input/src/os_base\os_common.c ****    for (pos = BIG_INT_SIZE-1u, i = 0u; pos >= (BIG_INT_SIZE-sizeof(uint32)); pos--, i++)
 667              		.loc 1 200 0 is_stmt 1
 668 03b9 C645FB0F 		movb	$15, -5(%ebp)
 669 03bd C645FA00 		movb	$0, -6(%ebp)
 670 03c1 EB27     		jmp	L54
 671              	L55:
 201:E:/NeuOrga/Programmieren/c_cpp/github_os/input/src/os_base\os_common.c ****    {
 202:E:/NeuOrga/Programmieren/c_cpp/github_os/input/src/os_base\os_common.c ****       leftOperand->number[pos] = (rightOperand>>i)&0xFFu;
 672              		.loc 1 202 0 discriminator 3
 673 03c3 0FB645FB 		movzbl	-5(%ebp), %eax
 674 03c7 0FB655FA 		movzbl	-6(%ebp), %edx
 675 03cb 8B5D0C   		movl	12(%ebp), %ebx
 676 03ce 88D1     		movb	%dl, %cl
 677 03d0 D3EB     		shrl	%cl, %ebx
 678 03d2 89DA     		movl	%ebx, %edx
 679 03d4 88D1     		movb	%dl, %cl
 680 03d6 8B5508   		movl	8(%ebp), %edx
 681 03d9 880C02   		movb	%cl, (%edx,%eax)
 200:E:/NeuOrga/Programmieren/c_cpp/github_os/input/src/os_base\os_common.c ****    {
 682              		.loc 1 200 0 discriminator 3
 683 03dc 8A45FB   		movb	-5(%ebp), %al
 684 03df 48       		decl	%eax
GAS LISTING C:\Users\PRESID~1\AppData\Local\Temp\ccTZYDpu.s 			page 17


 685 03e0 8845FB   		movb	%al, -5(%ebp)
 686 03e3 8A45FA   		movb	-6(%ebp), %al
 687 03e6 40       		incl	%eax
 688 03e7 8845FA   		movb	%al, -6(%ebp)
 689              	L54:
 200:E:/NeuOrga/Programmieren/c_cpp/github_os/input/src/os_base\os_common.c ****    {
 690              		.loc 1 200 0 is_stmt 0 discriminator 1
 691 03ea 807DFB0B 		cmpb	$11, -5(%ebp)
 692 03ee 77D3     		ja	L55
 203:E:/NeuOrga/Programmieren/c_cpp/github_os/input/src/os_base\os_common.c ****    }
 204:E:/NeuOrga/Programmieren/c_cpp/github_os/input/src/os_base\os_common.c **** }
 693              		.loc 1 204 0 is_stmt 1
 694 03f0 83C410   		addl	$16, %esp
 695 03f3 5B       		popl	%ebx
 696              		.cfi_restore 3
 697 03f4 5D       		popl	%ebp
 698              		.cfi_restore 5
 699              		.cfi_def_cfa 4, 4
 700 03f5 C3       		ret
 701              		.cfi_endproc
 702              	LFE15:
 703              		.globl	_get_uint32_of_4_uint8
 705              	_get_uint32_of_4_uint8:
 706              	LFB16:
 205:E:/NeuOrga/Programmieren/c_cpp/github_os/input/src/os_base\os_common.c **** 
 206:E:/NeuOrga/Programmieren/c_cpp/github_os/input/src/os_base\os_common.c **** uint32 get_uint32_of_4_uint8(uint8* ptr)
 207:E:/NeuOrga/Programmieren/c_cpp/github_os/input/src/os_base\os_common.c **** {
 707              		.loc 1 207 0
 708              		.cfi_startproc
 709 03f6 55       		pushl	%ebp
 710              		.cfi_def_cfa_offset 8
 711              		.cfi_offset 5, -8
 712 03f7 89E5     		movl	%esp, %ebp
 713              		.cfi_def_cfa_register 5
 714 03f9 83EC10   		subl	$16, %esp
 208:E:/NeuOrga/Programmieren/c_cpp/github_os/input/src/os_base\os_common.c ****    uint32 ret_val = 0u;
 715              		.loc 1 208 0
 716 03fc C745FC00 		movl	$0, -4(%ebp)
 716      000000
 209:E:/NeuOrga/Programmieren/c_cpp/github_os/input/src/os_base\os_common.c **** 
 210:E:/NeuOrga/Programmieren/c_cpp/github_os/input/src/os_base\os_common.c ****    ret_val += ((uint32) *ptr)<< 24u;
 717              		.loc 1 210 0
 718 0403 8B4508   		movl	8(%ebp), %eax
 719 0406 8A00     		movb	(%eax), %al
 720 0408 0FB6C0   		movzbl	%al, %eax
 721 040b C1E018   		sall	$24, %eax
 722 040e 0145FC   		addl	%eax, -4(%ebp)
 211:E:/NeuOrga/Programmieren/c_cpp/github_os/input/src/os_base\os_common.c ****    ptr++;
 723              		.loc 1 211 0
 724 0411 FF4508   		incl	8(%ebp)
 212:E:/NeuOrga/Programmieren/c_cpp/github_os/input/src/os_base\os_common.c ****    ret_val += ((uint32) *ptr)<< 16u;
 725              		.loc 1 212 0
 726 0414 8B4508   		movl	8(%ebp), %eax
 727 0417 8A00     		movb	(%eax), %al
 728 0419 0FB6C0   		movzbl	%al, %eax
 729 041c C1E010   		sall	$16, %eax
 730 041f 0145FC   		addl	%eax, -4(%ebp)
GAS LISTING C:\Users\PRESID~1\AppData\Local\Temp\ccTZYDpu.s 			page 18


 213:E:/NeuOrga/Programmieren/c_cpp/github_os/input/src/os_base\os_common.c ****    ptr++;
 731              		.loc 1 213 0
 732 0422 FF4508   		incl	8(%ebp)
 214:E:/NeuOrga/Programmieren/c_cpp/github_os/input/src/os_base\os_common.c ****    ret_val += ((uint32) *ptr)<< 8u;
 733              		.loc 1 214 0
 734 0425 8B4508   		movl	8(%ebp), %eax
 735 0428 8A00     		movb	(%eax), %al
 736 042a 0FB6C0   		movzbl	%al, %eax
 737 042d C1E008   		sall	$8, %eax
 738 0430 0145FC   		addl	%eax, -4(%ebp)
 215:E:/NeuOrga/Programmieren/c_cpp/github_os/input/src/os_base\os_common.c ****    ptr++;
 739              		.loc 1 215 0
 740 0433 FF4508   		incl	8(%ebp)
 216:E:/NeuOrga/Programmieren/c_cpp/github_os/input/src/os_base\os_common.c ****    ret_val += ((uint32) *ptr)<< 0u;
 741              		.loc 1 216 0
 742 0436 8B4508   		movl	8(%ebp), %eax
 743 0439 8A00     		movb	(%eax), %al
 744 043b 0FB6C0   		movzbl	%al, %eax
 745 043e 0145FC   		addl	%eax, -4(%ebp)
 217:E:/NeuOrga/Programmieren/c_cpp/github_os/input/src/os_base\os_common.c **** 
 218:E:/NeuOrga/Programmieren/c_cpp/github_os/input/src/os_base\os_common.c ****    return ret_val;
 746              		.loc 1 218 0
 747 0441 8B45FC   		movl	-4(%ebp), %eax
 219:E:/NeuOrga/Programmieren/c_cpp/github_os/input/src/os_base\os_common.c **** }
 748              		.loc 1 219 0
 749 0444 C9       		leave
 750              		.cfi_restore 5
 751              		.cfi_def_cfa 4, 4
 752 0445 C3       		ret
 753              		.cfi_endproc
 754              	LFE16:
 755              		.globl	_set_4_uint8_to_uint32
 757              	_set_4_uint8_to_uint32:
 758              	LFB17:
 220:E:/NeuOrga/Programmieren/c_cpp/github_os/input/src/os_base\os_common.c **** void set_4_uint8_to_uint32(uint8* ptr, uint32 value)
 221:E:/NeuOrga/Programmieren/c_cpp/github_os/input/src/os_base\os_common.c **** {
 759              		.loc 1 221 0
 760              		.cfi_startproc
 761 0446 55       		pushl	%ebp
 762              		.cfi_def_cfa_offset 8
 763              		.cfi_offset 5, -8
 764 0447 89E5     		movl	%esp, %ebp
 765              		.cfi_def_cfa_register 5
 222:E:/NeuOrga/Programmieren/c_cpp/github_os/input/src/os_base\os_common.c ****    *ptr = (value >>24u)&0xFFu;
 766              		.loc 1 222 0
 767 0449 8B450C   		movl	12(%ebp), %eax
 768 044c C1E818   		shrl	$24, %eax
 769 044f 88C2     		movb	%al, %dl
 770 0451 8B4508   		movl	8(%ebp), %eax
 771 0454 8810     		movb	%dl, (%eax)
 223:E:/NeuOrga/Programmieren/c_cpp/github_os/input/src/os_base\os_common.c ****    ptr++;
 772              		.loc 1 223 0
 773 0456 FF4508   		incl	8(%ebp)
 224:E:/NeuOrga/Programmieren/c_cpp/github_os/input/src/os_base\os_common.c ****    *ptr = (value >>16u)&0xFFu;
 774              		.loc 1 224 0
 775 0459 8B450C   		movl	12(%ebp), %eax
 776 045c C1E810   		shrl	$16, %eax
GAS LISTING C:\Users\PRESID~1\AppData\Local\Temp\ccTZYDpu.s 			page 19


 777 045f 88C2     		movb	%al, %dl
 778 0461 8B4508   		movl	8(%ebp), %eax
 779 0464 8810     		movb	%dl, (%eax)
 225:E:/NeuOrga/Programmieren/c_cpp/github_os/input/src/os_base\os_common.c ****    ptr++;
 780              		.loc 1 225 0
 781 0466 FF4508   		incl	8(%ebp)
 226:E:/NeuOrga/Programmieren/c_cpp/github_os/input/src/os_base\os_common.c ****    *ptr = (value >>8u)&0xFFu;
 782              		.loc 1 226 0
 783 0469 8B450C   		movl	12(%ebp), %eax
 784 046c C1E808   		shrl	$8, %eax
 785 046f 88C2     		movb	%al, %dl
 786 0471 8B4508   		movl	8(%ebp), %eax
 787 0474 8810     		movb	%dl, (%eax)
 227:E:/NeuOrga/Programmieren/c_cpp/github_os/input/src/os_base\os_common.c ****    ptr++;
 788              		.loc 1 227 0
 789 0476 FF4508   		incl	8(%ebp)
 228:E:/NeuOrga/Programmieren/c_cpp/github_os/input/src/os_base\os_common.c ****    *ptr = (value >>0u)&0xFFu;
 790              		.loc 1 228 0
 791 0479 8B450C   		movl	12(%ebp), %eax
 792 047c 88C2     		movb	%al, %dl
 793 047e 8B4508   		movl	8(%ebp), %eax
 794 0481 8810     		movb	%dl, (%eax)
 229:E:/NeuOrga/Programmieren/c_cpp/github_os/input/src/os_base\os_common.c **** }
 795              		.loc 1 229 0
 796 0483 5D       		popl	%ebp
 797              		.cfi_restore 5
 798              		.cfi_def_cfa 4, 4
 799 0484 C3       		ret
 800              		.cfi_endproc
 801              	LFE17:
 802              	Letext0:
 803              		.file 2 "E:/NeuOrga/Programmieren/c_cpp/github_os/input/src/os_base/../os_base/os_base_types.h"
 804              		.file 3 "E:/NeuOrga/Programmieren/c_cpp/github_os/input/src/os_base/../os_base/os_common.h"
 805              		.file 4 "E:/NeuOrga/Programmieren/c_cpp/github_os/input/src/os_base/../os_base/os_ram.h"
 806 0485 909090   		.section	.debug_info,"dr"
 807              	Ldebug_info0:
 808 0000 740B0000 		.long	0xb74
 809 0004 0400     		.word	0x4
 810 0006 00000000 		.secrel32	Ldebug_abbrev0
 811 000a 04       		.byte	0x4
 812 000b 01       		.uleb128 0x1
 813 000c 474E5520 		.ascii "GNU C 4.9.3 -march=i386 -g3 -O0 -std=c90\0"
 813      4320342E 
 813      392E3320 
 813      2D6D6172 
 813      63683D69 
 814 0035 01       		.byte	0x1
 815 0036 453A5C4E 		.ascii "E:\\NeuOrga\\Programmieren\\c_cpp\\github_os\\input\\src\\os_base\\os_common.c\0"
 815      65754F72 
 815      67615C50 
 815      726F6772 
 815      616D6D69 
 816 007d 00000000 		.long	Ltext0
 817 0081 85040000 		.long	Letext0-Ltext0
 818 0085 00000000 		.secrel32	Ldebug_line0
 819 0089 00000000 		.secrel32	Ldebug_macro0
 820 008d 02       		.uleb128 0x2
GAS LISTING C:\Users\PRESID~1\AppData\Local\Temp\ccTZYDpu.s 			page 20


 821 008e 01       		.byte	0x1
 822 008f 08       		.byte	0x8
 823 0090 756E7369 		.ascii "unsigned char\0"
 823      676E6564 
 823      20636861 
 823      7200
 824 009e 02       		.uleb128 0x2
 825 009f 01       		.byte	0x1
 826 00a0 06       		.byte	0x6
 827 00a1 7369676E 		.ascii "signed char\0"
 827      65642063 
 827      68617200 
 828 00ad 03       		.uleb128 0x3
 829 00ae 75696E74 		.ascii "uint8\0"
 829      3800
 830 00b4 02       		.byte	0x2
 831 00b5 15       		.byte	0x15
 832 00b6 8D000000 		.long	0x8d
 833 00ba 03       		.uleb128 0x3
 834 00bb 73696E74 		.ascii "sint8\0"
 834      3800
 835 00c1 02       		.byte	0x2
 836 00c2 16       		.byte	0x16
 837 00c3 9E000000 		.long	0x9e
 838 00c7 02       		.uleb128 0x2
 839 00c8 02       		.byte	0x2
 840 00c9 07       		.byte	0x7
 841 00ca 73686F72 		.ascii "short unsigned int\0"
 841      7420756E 
 841      7369676E 
 841      65642069 
 841      6E7400
 842 00dd 02       		.uleb128 0x2
 843 00de 02       		.byte	0x2
 844 00df 05       		.byte	0x5
 845 00e0 73686F72 		.ascii "short int\0"
 845      7420696E 
 845      7400
 846 00ea 03       		.uleb128 0x3
 847 00eb 75696E74 		.ascii "uint16\0"
 847      313600
 848 00f2 02       		.byte	0x2
 849 00f3 19       		.byte	0x19
 850 00f4 C7000000 		.long	0xc7
 851 00f8 02       		.uleb128 0x2
 852 00f9 04       		.byte	0x4
 853 00fa 07       		.byte	0x7
 854 00fb 6C6F6E67 		.ascii "long unsigned int\0"
 854      20756E73 
 854      69676E65 
 854      6420696E 
 854      7400
 855 010d 02       		.uleb128 0x2
 856 010e 04       		.byte	0x4
 857 010f 05       		.byte	0x5
 858 0110 6C6F6E67 		.ascii "long int\0"
 858      20696E74 
GAS LISTING C:\Users\PRESID~1\AppData\Local\Temp\ccTZYDpu.s 			page 21


 858      00
 859 0119 03       		.uleb128 0x3
 860 011a 75696E74 		.ascii "uint32\0"
 860      333200
 861 0121 02       		.byte	0x2
 862 0122 1D       		.byte	0x1d
 863 0123 F8000000 		.long	0xf8
 864 0127 04       		.uleb128 0x4
 865 0128 6F735F73 		.ascii "os_sw_bugs_e\0"
 865      775F6275 
 865      67735F65 
 865      00
 866 0135 04       		.byte	0x4
 867 0136 03       		.byte	0x3
 868 0137 28       		.byte	0x28
 869 0138 BD020000 		.long	0x2bd
 870 013c 05       		.uleb128 0x5
 871 013d 455F4F53 		.ascii "E_OS_BUG_NO_BUG\0"
 871      5F425547 
 871      5F4E4F5F 
 871      42554700 
 872 014d 00       		.sleb128 0
 873 014e 05       		.uleb128 0x5
 874 014f 455F4F53 		.ascii "E_OS_BUG_TASKSTATE_REQUEST_DENIED\0"
 874      5F425547 
 874      5F544153 
 874      4B535441 
 874      54455F52 
 875 0171 01       		.sleb128 1
 876 0172 05       		.uleb128 0x5
 877 0173 455F4F53 		.ascii "E_OS_BUG_NULL_POINTER\0"
 877      5F425547 
 877      5F4E554C 
 877      4C5F504F 
 877      494E5445 
 878 0189 02       		.sleb128 2
 879 018a 05       		.uleb128 0x5
 880 018b 455F4F53 		.ascii "E_OS_BUG_TASK_MAX_WAIT_TIME_REACHED\0"
 880      5F425547 
 880      5F544153 
 880      4B5F4D41 
 880      585F5741 
 881 01af 03       		.sleb128 3
 882 01b0 05       		.uleb128 0x5
 883 01b1 455F4F53 		.ascii "E_OS_BUG_TASK_UNSPECIFIED\0"
 883      5F425547 
 883      5F544153 
 883      4B5F554E 
 883      53504543 
 884 01cb 04       		.sleb128 4
 885 01cc 05       		.uleb128 0x5
 886 01cd 455F4F53 		.ascii "E_OS_BUG_EXCEPTION_UNDEFINSTRUCTION\0"
 886      5F425547 
 886      5F455843 
 886      45505449 
 886      4F4E5F55 
 887 01f1 05       		.sleb128 5
GAS LISTING C:\Users\PRESID~1\AppData\Local\Temp\ccTZYDpu.s 			page 22


 888 01f2 05       		.uleb128 0x5
 889 01f3 455F4F53 		.ascii "E_OS_BUG_EXCEPTION_ABORTPREFETCH\0"
 889      5F425547 
 889      5F455843 
 889      45505449 
 889      4F4E5F41 
 890 0214 06       		.sleb128 6
 891 0215 05       		.uleb128 0x5
 892 0216 455F4F53 		.ascii "E_OS_BUG_EXCEPTION_ABORTDATA\0"
 892      5F425547 
 892      5F455843 
 892      45505449 
 892      4F4E5F41 
 893 0233 07       		.sleb128 7
 894 0234 05       		.uleb128 0x5
 895 0235 455F4F53 		.ascii "E_OS_BUG_RESET_EXIT_OR_SHUTDOWN_FAILED\0"
 895      5F425547 
 895      5F524553 
 895      45545F45 
 895      5849545F 
 896 025c 08       		.sleb128 8
 897 025d 05       		.uleb128 0x5
 898 025e 455F4F53 		.ascii "E_OS_BUG_CRITICAL_STACK_USAGE\0"
 898      5F425547 
 898      5F435249 
 898      54494341 
 898      4C5F5354 
 899 027c 09       		.sleb128 9
 900 027d 05       		.uleb128 0x5
 901 027e 455F4F53 		.ascii "E_OS_BUG_SVC_NUMBER_MISSING\0"
 901      5F425547 
 901      5F535643 
 901      5F4E554D 
 901      4245525F 
 902 029a 0A       		.sleb128 10
 903 029b 05       		.uleb128 0x5
 904 029c 455F4F53 		.ascii "E_OS_BUG_MAX_WAIT_TIME_REACHED\0"
 904      5F425547 
 904      5F4D4158 
 904      5F574149 
 904      545F5449 
 905 02bb 0B       		.sleb128 11
 906 02bc 00       		.byte	0
 907 02bd 03       		.uleb128 0x3
 908 02be 6F735F73 		.ascii "os_sw_bugs_t\0"
 908      775F6275 
 908      67735F74 
 908      00
 909 02cb 03       		.byte	0x3
 910 02cc 37       		.byte	0x37
 911 02cd 27010000 		.long	0x127
 912 02d1 03       		.uleb128 0x3
 913 02d2 626F6F6C 		.ascii "boolean_t\0"
 913      65616E5F 
 913      7400
 914 02dc 03       		.byte	0x3
 915 02dd 38       		.byte	0x38
GAS LISTING C:\Users\PRESID~1\AppData\Local\Temp\ccTZYDpu.s 			page 23


 916 02de AD000000 		.long	0xad
 917 02e2 04       		.uleb128 0x4
 918 02e3 6F735F73 		.ascii "os_sw_bugs_function_e\0"
 918      775F6275 
 918      67735F66 
 918      756E6374 
 918      696F6E5F 
 919 02f9 04       		.byte	0x4
 920 02fa 03       		.byte	0x3
 921 02fb 39       		.byte	0x39
 922 02fc D6040000 		.long	0x4d6
 923 0300 05       		.uleb128 0x5
 924 0301 455F4655 		.ascii "E_FUNC_NOFUNCTION\0"
 924      4E435F4E 
 924      4F46554E 
 924      4354494F 
 924      4E00
 925 0313 00       		.sleb128 0
 926 0314 05       		.uleb128 0x5
 927 0315 455F4655 		.ascii "E_FUNC_SAVETASKENVIRONMENT\0"
 927      4E435F53 
 927      41564554 
 927      41534B45 
 927      4E564952 
 928 0330 01       		.sleb128 1
 929 0331 05       		.uleb128 0x5
 930 0332 455F4655 		.ascii "E_FUNC_RESTORETASKENVIRONMENT\0"
 930      4E435F52 
 930      4553544F 
 930      52455441 
 930      534B454E 
 931 0350 02       		.sleb128 2
 932 0351 05       		.uleb128 0x5
 933 0352 455F4655 		.ascii "E_FUNC_CREATETASKENVIRONMENT\0"
 933      4E435F43 
 933      52454154 
 933      45544153 
 933      4B454E56 
 934 036f 03       		.sleb128 3
 935 0370 05       		.uleb128 0x5
 936 0371 455F4655 		.ascii "E_FUNC_DELETETASKENVIRONMENT\0"
 936      4E435F44 
 936      454C4554 
 936      45544153 
 936      4B454E56 
 937 038e 04       		.sleb128 4
 938 038f 05       		.uleb128 0x5
 939 0390 455F4655 		.ascii "E_FUNC_INITTASKENVIRONMENT\0"
 939      4E435F49 
 939      4E495454 
 939      41534B45 
 939      4E564952 
 940 03ab 05       		.sleb128 5
 941 03ac 05       		.uleb128 0x5
 942 03ad 455F4655 		.ascii "E_FUNC_STARTTASK\0"
 942      4E435F53 
 942      54415254 
GAS LISTING C:\Users\PRESID~1\AppData\Local\Temp\ccTZYDpu.s 			page 24


 942      5441534B 
 942      00
 943 03be 06       		.sleb128 6
 944 03bf 05       		.uleb128 0x5
 945 03c0 455F4655 		.ascii "E_FUNC_PREEMPTTASK\0"
 945      4E435F50 
 945      5245454D 
 945      50545441 
 945      534B00
 946 03d3 07       		.sleb128 7
 947 03d4 05       		.uleb128 0x5
 948 03d5 455F4655 		.ascii "E_FUNC_TERMINATETASK\0"
 948      4E435F54 
 948      45524D49 
 948      4E415445 
 948      5441534B 
 949 03ea 08       		.sleb128 8
 950 03eb 05       		.uleb128 0x5
 951 03ec 455F4655 		.ascii "E_FUNC_TASKSCHEDULER\0"
 951      4E435F54 
 951      41534B53 
 951      43484544 
 951      554C4552 
 952 0401 09       		.sleb128 9
 953 0402 05       		.uleb128 0x5
 954 0403 455F4655 		.ascii "E_FUNC_INITTASK\0"
 954      4E435F49 
 954      4E495454 
 954      41534B00 
 955 0413 0A       		.sleb128 10
 956 0414 05       		.uleb128 0x5
 957 0415 455F4655 		.ascii "E_FUNC_ACTIVATETASK\0"
 957      4E435F41 
 957      43544956 
 957      41544554 
 957      41534B00 
 958 0429 0B       		.sleb128 11
 959 042a 05       		.uleb128 0x5
 960 042b 455F4655 		.ascii "E_FUNC_TASKSTATEREQUEST\0"
 960      4E435F54 
 960      41534B53 
 960      54415445 
 960      52455155 
 961 0443 0C       		.sleb128 12
 962 0444 05       		.uleb128 0x5
 963 0445 455F4655 		.ascii "E_FUNC_PREEMPT_TASK\0"
 963      4E435F50 
 963      5245454D 
 963      50545F54 
 963      41534B00 
 964 0459 0D       		.sleb128 13
 965 045a 05       		.uleb128 0x5
 966 045b 455F4655 		.ascii "E_FUNC_OS_EXCEPTION\0"
 966      4E435F4F 
 966      535F4558 
 966      43455054 
 966      494F4E00 
GAS LISTING C:\Users\PRESID~1\AppData\Local\Temp\ccTZYDpu.s 			page 25


 967 046f 0E       		.sleb128 14
 968 0470 05       		.uleb128 0x5
 969 0471 455F4655 		.ascii "E_FUNC_CREATETASK\0"
 969      4E435F43 
 969      52454154 
 969      45544153 
 969      4B00
 970 0483 0F       		.sleb128 15
 971 0484 05       		.uleb128 0x5
 972 0485 455F4655 		.ascii "E_FUNC_SHUTDOWN\0"
 972      4E435F53 
 972      48555444 
 972      4F574E00 
 973 0495 10       		.sleb128 16
 974 0496 05       		.uleb128 0x5
 975 0497 455F4655 		.ascii "E_FUNC_STACKCHECK\0"
 975      4E435F53 
 975      5441434B 
 975      43484543 
 975      4B00
 976 04a9 11       		.sleb128 17
 977 04aa 05       		.uleb128 0x5
 978 04ab 455F4655 		.ascii "E_FUNC_ISRHANDLER\0"
 978      4E435F49 
 978      53524841 
 978      4E444C45 
 978      5200
 979 04bd 12       		.sleb128 18
 980 04be 05       		.uleb128 0x5
 981 04bf 455F4655 		.ascii "E_FUNC_STATE_HANDLER\0"
 981      4E435F53 
 981      54415445 
 981      5F48414E 
 981      444C4552 
 982 04d4 13       		.sleb128 19
 983 04d5 00       		.byte	0
 984 04d6 03       		.uleb128 0x3
 985 04d7 6F735F73 		.ascii "os_sw_bugs_function_t\0"
 985      775F6275 
 985      67735F66 
 985      756E6374 
 985      696F6E5F 
 986 04ed 03       		.byte	0x3
 987 04ee 50       		.byte	0x50
 988 04ef E2020000 		.long	0x2e2
 989 04f3 06       		.uleb128 0x6
 990 04f4 6269675F 		.ascii "big_int_s\0"
 990      696E745F 
 990      7300
 991 04fe 10       		.byte	0x10
 992 04ff 03       		.byte	0x3
 993 0500 57       		.byte	0x57
 994 0501 15050000 		.long	0x515
 995 0505 07       		.uleb128 0x7
 996 0506 6E756D62 		.ascii "number\0"
 996      657200
 997 050d 03       		.byte	0x3
GAS LISTING C:\Users\PRESID~1\AppData\Local\Temp\ccTZYDpu.s 			page 26


 998 050e 60       		.byte	0x60
 999 050f 15050000 		.long	0x515
 1000 0513 00       		.byte	0
 1001 0514 00       		.byte	0
 1002 0515 08       		.uleb128 0x8
 1003 0516 AD000000 		.long	0xad
 1004 051a 25050000 		.long	0x525
 1005 051e 09       		.uleb128 0x9
 1006 051f 25050000 		.long	0x525
 1007 0523 0F       		.byte	0xf
 1008 0524 00       		.byte	0
 1009 0525 02       		.uleb128 0x2
 1010 0526 04       		.byte	0x4
 1011 0527 07       		.byte	0x7
 1012 0528 73697A65 		.ascii "sizetype\0"
 1012      74797065 
 1012      00
 1013 0531 03       		.uleb128 0x3
 1014 0532 6269675F 		.ascii "big_int\0"
 1014      696E7400 
 1015 053a 03       		.byte	0x3
 1016 053b 61       		.byte	0x61
 1017 053c F3040000 		.long	0x4f3
 1018 0540 03       		.uleb128 0x3
 1019 0541 74696D65 		.ascii "timebig_t\0"
 1019      6269675F 
 1019      7400
 1020 054b 03       		.byte	0x3
 1021 054c 63       		.byte	0x63
 1022 054d 31050000 		.long	0x531
 1023 0551 02       		.uleb128 0x2
 1024 0552 04       		.byte	0x4
 1025 0553 07       		.byte	0x7
 1026 0554 756E7369 		.ascii "unsigned int\0"
 1026      676E6564 
 1026      20696E74 
 1026      00
 1027 0561 0A       		.uleb128 0xa
 1028 0562 4F535F53 		.ascii "OS_SET_SW_BUG\0"
 1028      45545F53 
 1028      575F4255 
 1028      4700
 1029 0570 01       		.byte	0x1
 1030 0571 04       		.byte	0x4
 1031 0572 00000000 		.long	LFB0
 1032 0576 12000000 		.long	LFE0-LFB0
 1033 057a 01       		.uleb128 0x1
 1034 057b 9C       		.byte	0x9c
 1035 057c A9050000 		.long	0x5a9
 1036 0580 0B       		.uleb128 0xb
 1037 0581 6275675F 		.ascii "bug_nr\0"
 1037      6E7200
 1038 0588 01       		.byte	0x1
 1039 0589 04       		.byte	0x4
 1040 058a BD020000 		.long	0x2bd
 1041 058e 02       		.uleb128 0x2
 1042 058f 91       		.byte	0x91
GAS LISTING C:\Users\PRESID~1\AppData\Local\Temp\ccTZYDpu.s 			page 27


 1043 0590 00       		.sleb128 0
 1044 0591 0B       		.uleb128 0xb
 1045 0592 7461736B 		.ascii "task_func_nr\0"
 1045      5F66756E 
 1045      635F6E72 
 1045      00
 1046 059f 01       		.byte	0x1
 1047 05a0 04       		.byte	0x4
 1048 05a1 D6040000 		.long	0x4d6
 1049 05a5 02       		.uleb128 0x2
 1050 05a6 91       		.byte	0x91
 1051 05a7 04       		.sleb128 4
 1052 05a8 00       		.byte	0
 1053 05a9 0C       		.uleb128 0xc
 1054 05aa 4F535F47 		.ascii "OS_GET_CURRENT_TIME\0"
 1054      45545F43 
 1054      55525245 
 1054      4E545F54 
 1054      494D4500 
 1055 05be 01       		.byte	0x1
 1056 05bf 0B       		.byte	0xb
 1057 05c0 12000000 		.long	LFB1
 1058 05c4 20000000 		.long	LFE1-LFB1
 1059 05c8 01       		.uleb128 0x1
 1060 05c9 9C       		.byte	0x9c
 1061 05ca DE050000 		.long	0x5de
 1062 05ce 0B       		.uleb128 0xb
 1063 05cf 74696D65 		.ascii "time\0"
 1063      00
 1064 05d4 01       		.byte	0x1
 1065 05d5 0B       		.byte	0xb
 1066 05d6 DE050000 		.long	0x5de
 1067 05da 02       		.uleb128 0x2
 1068 05db 91       		.byte	0x91
 1069 05dc 00       		.sleb128 0
 1070 05dd 00       		.byte	0
 1071 05de 0D       		.uleb128 0xd
 1072 05df 04       		.byte	0x4
 1073 05e0 40050000 		.long	0x540
 1074 05e4 0C       		.uleb128 0xc
 1075 05e5 4F535F55 		.ascii "OS_UpdateCurrentTime\0"
 1075      70646174 
 1075      65437572 
 1075      72656E74 
 1075      54696D65 
 1076 05fa 01       		.byte	0x1
 1077 05fb 13       		.byte	0x13
 1078 05fc 32000000 		.long	LFB2
 1079 0600 2E000000 		.long	LFE2-LFB2
 1080 0604 01       		.uleb128 0x1
 1081 0605 9C       		.byte	0x9c
 1082 0606 1E060000 		.long	0x61e
 1083 060a 0E       		.uleb128 0xe
 1084 060b 746D705F 		.ascii "tmp_time\0"
 1084      74696D65 
 1084      00
 1085 0614 01       		.byte	0x1
GAS LISTING C:\Users\PRESID~1\AppData\Local\Temp\ccTZYDpu.s 			page 28


 1086 0615 18       		.byte	0x18
 1087 0616 40050000 		.long	0x540
 1088 061a 02       		.uleb128 0x2
 1089 061b 91       		.byte	0x91
 1090 061c 60       		.sleb128 -32
 1091 061d 00       		.byte	0
 1092 061e 0C       		.uleb128 0xc
 1093 061f 4F535F52 		.ascii "OS_READ_AND_RESET_CURRENT_TIME\0"
 1093      4541445F 
 1093      414E445F 
 1093      52455345 
 1093      545F4355 
 1094 063e 01       		.byte	0x1
 1095 063f 1F       		.byte	0x1f
 1096 0640 60000000 		.long	LFB3
 1097 0644 1B000000 		.long	LFE3-LFB3
 1098 0648 01       		.uleb128 0x1
 1099 0649 9C       		.byte	0x9c
 1100 064a 61060000 		.long	0x661
 1101 064e 0B       		.uleb128 0xb
 1102 064f 74696D65 		.ascii "timebig\0"
 1102      62696700 
 1103 0657 01       		.byte	0x1
 1104 0658 1F       		.byte	0x1f
 1105 0659 DE050000 		.long	0x5de
 1106 065d 02       		.uleb128 0x2
 1107 065e 91       		.byte	0x91
 1108 065f 00       		.sleb128 0
 1109 0660 00       		.byte	0
 1110 0661 0A       		.uleb128 0xa
 1111 0662 494E545F 		.ascii "INT_DIV\0"
 1111      44495600 
 1112 066a 01       		.byte	0x1
 1113 066b 3A       		.byte	0x3a
 1114 066c 7B000000 		.long	LFB4
 1115 0670 05000000 		.long	LFE4-LFB4
 1116 0674 01       		.uleb128 0x1
 1117 0675 9C       		.byte	0x9c
 1118 0676 B3060000 		.long	0x6b3
 1119 067a 0B       		.uleb128 0xb
 1120 067b 51756F74 		.ascii "Quotient\0"
 1120      69656E74 
 1120      00
 1121 0684 01       		.byte	0x1
 1122 0685 3A       		.byte	0x3a
 1123 0686 B3060000 		.long	0x6b3
 1124 068a 02       		.uleb128 0x2
 1125 068b 91       		.byte	0x91
 1126 068c 00       		.sleb128 0
 1127 068d 0B       		.uleb128 0xb
 1128 068e 44697669 		.ascii "Dividend\0"
 1128      64656E64 
 1128      00
 1129 0697 01       		.byte	0x1
 1130 0698 3A       		.byte	0x3a
 1131 0699 B3060000 		.long	0x6b3
 1132 069d 02       		.uleb128 0x2
GAS LISTING C:\Users\PRESID~1\AppData\Local\Temp\ccTZYDpu.s 			page 29


 1133 069e 91       		.byte	0x91
 1134 069f 04       		.sleb128 4
 1135 06a0 0B       		.uleb128 0xb
 1136 06a1 44697669 		.ascii "Divisor\0"
 1136      736F7200 
 1137 06a9 01       		.byte	0x1
 1138 06aa 3A       		.byte	0x3a
 1139 06ab B3060000 		.long	0x6b3
 1140 06af 02       		.uleb128 0x2
 1141 06b0 91       		.byte	0x91
 1142 06b1 08       		.sleb128 8
 1143 06b2 00       		.byte	0
 1144 06b3 0D       		.uleb128 0xd
 1145 06b4 04       		.byte	0x4
 1146 06b5 31050000 		.long	0x531
 1147 06b9 0A       		.uleb128 0xa
 1148 06ba 494E545F 		.ascii "INT_MUL\0"
 1148      4D554C00 
 1149 06c2 01       		.byte	0x1
 1150 06c3 3F       		.byte	0x3f
 1151 06c4 80000000 		.long	LFB5
 1152 06c8 05000000 		.long	LFE5-LFB5
 1153 06cc 01       		.uleb128 0x1
 1154 06cd 9C       		.byte	0x9c
 1155 06ce 09070000 		.long	0x709
 1156 06d2 0B       		.uleb128 0xb
 1157 06d3 50726F64 		.ascii "Produkt\0"
 1157      756B7400 
 1158 06db 01       		.byte	0x1
 1159 06dc 3F       		.byte	0x3f
 1160 06dd B3060000 		.long	0x6b3
 1161 06e1 02       		.uleb128 0x2
 1162 06e2 91       		.byte	0x91
 1163 06e3 00       		.sleb128 0
 1164 06e4 0B       		.uleb128 0xb
 1165 06e5 46616B74 		.ascii "Faktor1\0"
 1165      6F723100 
 1166 06ed 01       		.byte	0x1
 1167 06ee 3F       		.byte	0x3f
 1168 06ef B3060000 		.long	0x6b3
 1169 06f3 02       		.uleb128 0x2
 1170 06f4 91       		.byte	0x91
 1171 06f5 04       		.sleb128 4
 1172 06f6 0B       		.uleb128 0xb
 1173 06f7 46616B74 		.ascii "Faktor2\0"
 1173      6F723200 
 1174 06ff 01       		.byte	0x1
 1175 0700 3F       		.byte	0x3f
 1176 0701 B3060000 		.long	0x6b3
 1177 0705 02       		.uleb128 0x2
 1178 0706 91       		.byte	0x91
 1179 0707 08       		.sleb128 8
 1180 0708 00       		.byte	0
 1181 0709 0A       		.uleb128 0xa
 1182 070a 494E545F 		.ascii "INT_ADD\0"
 1182      41444400 
 1183 0712 01       		.byte	0x1
GAS LISTING C:\Users\PRESID~1\AppData\Local\Temp\ccTZYDpu.s 			page 30


 1184 0713 44       		.byte	0x44
 1185 0714 85000000 		.long	LFB6
 1186 0718 60000000 		.long	LFE6-LFB6
 1187 071c 01       		.uleb128 0x1
 1188 071d 9C       		.byte	0x9c
 1189 071e 9E070000 		.long	0x79e
 1190 0722 0B       		.uleb128 0xb
 1191 0723 53756D6D 		.ascii "Summe\0"
 1191      6500
 1192 0729 01       		.byte	0x1
 1193 072a 44       		.byte	0x44
 1194 072b B3060000 		.long	0x6b3
 1195 072f 02       		.uleb128 0x2
 1196 0730 91       		.byte	0x91
 1197 0731 00       		.sleb128 0
 1198 0732 0B       		.uleb128 0xb
 1199 0733 45727374 		.ascii "ErsterSummand\0"
 1199      65725375 
 1199      6D6D616E 
 1199      6400
 1200 0741 01       		.byte	0x1
 1201 0742 44       		.byte	0x44
 1202 0743 B3060000 		.long	0x6b3
 1203 0747 02       		.uleb128 0x2
 1204 0748 91       		.byte	0x91
 1205 0749 04       		.sleb128 4
 1206 074a 0B       		.uleb128 0xb
 1207 074b 5A776569 		.ascii "ZweiterSummand\0"
 1207      74657253 
 1207      756D6D61 
 1207      6E6400
 1208 075a 01       		.byte	0x1
 1209 075b 44       		.byte	0x44
 1210 075c B3060000 		.long	0x6b3
 1211 0760 02       		.uleb128 0x2
 1212 0761 91       		.byte	0x91
 1213 0762 08       		.sleb128 8
 1214 0763 0E       		.uleb128 0xe
 1215 0764 706F7300 		.ascii "pos\0"
 1216 0768 01       		.byte	0x1
 1217 0769 46       		.byte	0x46
 1218 076a BA000000 		.long	0xba
 1219 076e 02       		.uleb128 0x2
 1220 076f 91       		.byte	0x91
 1221 0770 77       		.sleb128 -9
 1222 0771 0E       		.uleb128 0xe
 1223 0772 63617272 		.ascii "carry\0"
 1223      7900
 1224 0778 01       		.byte	0x1
 1225 0779 47       		.byte	0x47
 1226 077a EA000000 		.long	0xea
 1227 077e 02       		.uleb128 0x2
 1228 077f 91       		.byte	0x91
 1229 0780 74       		.sleb128 -12
 1230 0781 0F       		.uleb128 0xf
 1231 0782 97000000 		.long	LBB2
 1232 0786 3F000000 		.long	LBE2-LBB2
GAS LISTING C:\Users\PRESID~1\AppData\Local\Temp\ccTZYDpu.s 			page 31


 1233 078a 0E       		.uleb128 0xe
 1234 078b 746D705F 		.ascii "tmp_sum\0"
 1234      73756D00 
 1235 0793 01       		.byte	0x1
 1236 0794 4B       		.byte	0x4b
 1237 0795 EA000000 		.long	0xea
 1238 0799 02       		.uleb128 0x2
 1239 079a 91       		.byte	0x91
 1240 079b 72       		.sleb128 -14
 1241 079c 00       		.byte	0
 1242 079d 00       		.byte	0
 1243 079e 0A       		.uleb128 0xa
 1244 079f 494E545F 		.ascii "INT_SUB\0"
 1244      53554200 
 1245 07a7 01       		.byte	0x1
 1246 07a8 50       		.byte	0x50
 1247 07a9 E5000000 		.long	LFB7
 1248 07ad DE000000 		.long	LFE7-LFB7
 1249 07b1 01       		.uleb128 0x1
 1250 07b2 9C       		.byte	0x9c
 1251 07b3 2E080000 		.long	0x82e
 1252 07b7 0B       		.uleb128 0xb
 1253 07b8 44696666 		.ascii "Differenz\0"
 1253      6572656E 
 1253      7A00
 1254 07c2 01       		.byte	0x1
 1255 07c3 50       		.byte	0x50
 1256 07c4 B3060000 		.long	0x6b3
 1257 07c8 02       		.uleb128 0x2
 1258 07c9 91       		.byte	0x91
 1259 07ca 00       		.sleb128 0
 1260 07cb 0B       		.uleb128 0xb
 1261 07cc 4D696E75 		.ascii "Minuend\0"
 1261      656E6400 
 1262 07d4 01       		.byte	0x1
 1263 07d5 50       		.byte	0x50
 1264 07d6 B3060000 		.long	0x6b3
 1265 07da 02       		.uleb128 0x2
 1266 07db 91       		.byte	0x91
 1267 07dc 04       		.sleb128 4
 1268 07dd 0B       		.uleb128 0xb
 1269 07de 53756274 		.ascii "Subtrahend\0"
 1269      72616865 
 1269      6E6400
 1270 07e9 01       		.byte	0x1
 1271 07ea 50       		.byte	0x50
 1272 07eb B3060000 		.long	0x6b3
 1273 07ef 02       		.uleb128 0x2
 1274 07f0 91       		.byte	0x91
 1275 07f1 08       		.sleb128 8
 1276 07f2 0E       		.uleb128 0xe
 1277 07f3 706F7300 		.ascii "pos\0"
 1278 07f7 01       		.byte	0x1
 1279 07f8 52       		.byte	0x52
 1280 07f9 BA000000 		.long	0xba
 1281 07fd 02       		.uleb128 0x2
 1282 07fe 91       		.byte	0x91
GAS LISTING C:\Users\PRESID~1\AppData\Local\Temp\ccTZYDpu.s 			page 32


 1283 07ff 77       		.sleb128 -9
 1284 0800 0E       		.uleb128 0xe
 1285 0801 63617272 		.ascii "carry\0"
 1285      7900
 1286 0807 01       		.byte	0x1
 1287 0808 53       		.byte	0x53
 1288 0809 EA000000 		.long	0xea
 1289 080d 02       		.uleb128 0x2
 1290 080e 91       		.byte	0x91
 1291 080f 72       		.sleb128 -14
 1292 0810 0F       		.uleb128 0xf
 1293 0811 FA000000 		.long	LBB3
 1294 0815 B6000000 		.long	LBE3-LBB3
 1295 0819 0E       		.uleb128 0xe
 1296 081a 746D705F 		.ascii "tmp_diff\0"
 1296      64696666 
 1296      00
 1297 0823 01       		.byte	0x1
 1298 0824 57       		.byte	0x57
 1299 0825 EA000000 		.long	0xea
 1300 0829 02       		.uleb128 0x2
 1301 082a 91       		.byte	0x91
 1302 082b 74       		.sleb128 -12
 1303 082c 00       		.byte	0
 1304 082d 00       		.byte	0
 1305 082e 10       		.uleb128 0x10
 1306 082f 49535F4C 		.ascii "IS_LESS\0"
 1306      45535300 
 1307 0837 01       		.byte	0x1
 1308 0838 67       		.byte	0x67
 1309 0839 D1020000 		.long	0x2d1
 1310 083d C3010000 		.long	LFB8
 1311 0841 5E000000 		.long	LFE8-LFB8
 1312 0845 01       		.uleb128 0x1
 1313 0846 9C       		.byte	0x9c
 1314 0847 88080000 		.long	0x888
 1315 084b 11       		.uleb128 0x11
 1316 084c 22000000 		.secrel32	LASF0
 1317 0850 01       		.byte	0x1
 1318 0851 67       		.byte	0x67
 1319 0852 B3060000 		.long	0x6b3
 1320 0856 02       		.uleb128 0x2
 1321 0857 91       		.byte	0x91
 1322 0858 00       		.sleb128 0
 1323 0859 11       		.uleb128 0x11
 1324 085a 00000000 		.secrel32	LASF1
 1325 085e 01       		.byte	0x1
 1326 085f 67       		.byte	0x67
 1327 0860 B3060000 		.long	0x6b3
 1328 0864 02       		.uleb128 0x2
 1329 0865 91       		.byte	0x91
 1330 0866 04       		.sleb128 4
 1331 0867 0E       		.uleb128 0xe
 1332 0868 706F7300 		.ascii "pos\0"
 1333 086c 01       		.byte	0x1
 1334 086d 69       		.byte	0x69
 1335 086e AD000000 		.long	0xad
GAS LISTING C:\Users\PRESID~1\AppData\Local\Temp\ccTZYDpu.s 			page 33


 1336 0872 02       		.uleb128 0x2
 1337 0873 91       		.byte	0x91
 1338 0874 77       		.sleb128 -9
 1339 0875 0E       		.uleb128 0xe
 1340 0876 69735F6C 		.ascii "is_less\0"
 1340      65737300 
 1341 087e 01       		.byte	0x1
 1342 087f 6A       		.byte	0x6a
 1343 0880 D1020000 		.long	0x2d1
 1344 0884 02       		.uleb128 0x2
 1345 0885 91       		.byte	0x91
 1346 0886 76       		.sleb128 -10
 1347 0887 00       		.byte	0
 1348 0888 12       		.uleb128 0x12
 1349 0889 49535F4C 		.ascii "IS_LESS_OR_EQUAL\0"
 1349      4553535F 
 1349      4F525F45 
 1349      5155414C 
 1349      00
 1350 089a 01       		.byte	0x1
 1351 089b 7E       		.byte	0x7e
 1352 089c D1020000 		.long	0x2d1
 1353 08a0 21020000 		.long	LFB9
 1354 08a4 40000000 		.long	LFE9-LFB9
 1355 08a8 01       		.uleb128 0x1
 1356 08a9 9C       		.byte	0x9c
 1357 08aa CB080000 		.long	0x8cb
 1358 08ae 11       		.uleb128 0x11
 1359 08af 22000000 		.secrel32	LASF0
 1360 08b3 01       		.byte	0x1
 1361 08b4 7E       		.byte	0x7e
 1362 08b5 B3060000 		.long	0x6b3
 1363 08b9 02       		.uleb128 0x2
 1364 08ba 91       		.byte	0x91
 1365 08bb 00       		.sleb128 0
 1366 08bc 11       		.uleb128 0x11
 1367 08bd 00000000 		.secrel32	LASF1
 1368 08c1 01       		.byte	0x1
 1369 08c2 7E       		.byte	0x7e
 1370 08c3 B3060000 		.long	0x6b3
 1371 08c7 02       		.uleb128 0x2
 1372 08c8 91       		.byte	0x91
 1373 08c9 04       		.sleb128 4
 1374 08ca 00       		.byte	0
 1375 08cb 10       		.uleb128 0x10
 1376 08cc 49535F45 		.ascii "IS_EQUAL\0"
 1376      5155414C 
 1376      00
 1377 08d5 01       		.byte	0x1
 1378 08d6 82       		.byte	0x82
 1379 08d7 D1020000 		.long	0x2d1
 1380 08db 61020000 		.long	LFB10
 1381 08df 40000000 		.long	LFE10-LFB10
 1382 08e3 01       		.uleb128 0x1
 1383 08e4 9C       		.byte	0x9c
 1384 08e5 27090000 		.long	0x927
 1385 08e9 11       		.uleb128 0x11
GAS LISTING C:\Users\PRESID~1\AppData\Local\Temp\ccTZYDpu.s 			page 34


 1386 08ea 22000000 		.secrel32	LASF0
 1387 08ee 01       		.byte	0x1
 1388 08ef 82       		.byte	0x82
 1389 08f0 B3060000 		.long	0x6b3
 1390 08f4 02       		.uleb128 0x2
 1391 08f5 91       		.byte	0x91
 1392 08f6 00       		.sleb128 0
 1393 08f7 11       		.uleb128 0x11
 1394 08f8 00000000 		.secrel32	LASF1
 1395 08fc 01       		.byte	0x1
 1396 08fd 82       		.byte	0x82
 1397 08fe B3060000 		.long	0x6b3
 1398 0902 02       		.uleb128 0x2
 1399 0903 91       		.byte	0x91
 1400 0904 04       		.sleb128 4
 1401 0905 0E       		.uleb128 0xe
 1402 0906 706F7300 		.ascii "pos\0"
 1403 090a 01       		.byte	0x1
 1404 090b 84       		.byte	0x84
 1405 090c AD000000 		.long	0xad
 1406 0910 02       		.uleb128 0x2
 1407 0911 91       		.byte	0x91
 1408 0912 77       		.sleb128 -9
 1409 0913 0E       		.uleb128 0xe
 1410 0914 69735F65 		.ascii "is_equal\0"
 1410      7175616C 
 1410      00
 1411 091d 01       		.byte	0x1
 1412 091e 85       		.byte	0x85
 1413 091f D1020000 		.long	0x2d1
 1414 0923 02       		.uleb128 0x2
 1415 0924 91       		.byte	0x91
 1416 0925 76       		.sleb128 -10
 1417 0926 00       		.byte	0
 1418 0927 10       		.uleb128 0x10
 1419 0928 49535F47 		.ascii "IS_GREATER\0"
 1419      52454154 
 1419      455200
 1420 0933 01       		.byte	0x1
 1421 0934 94       		.byte	0x94
 1422 0935 D1020000 		.long	0x2d1
 1423 0939 A1020000 		.long	LFB11
 1424 093d 5E000000 		.long	LFE11-LFB11
 1425 0941 01       		.uleb128 0x1
 1426 0942 9C       		.byte	0x9c
 1427 0943 87090000 		.long	0x987
 1428 0947 11       		.uleb128 0x11
 1429 0948 22000000 		.secrel32	LASF0
 1430 094c 01       		.byte	0x1
 1431 094d 94       		.byte	0x94
 1432 094e B3060000 		.long	0x6b3
 1433 0952 02       		.uleb128 0x2
 1434 0953 91       		.byte	0x91
 1435 0954 00       		.sleb128 0
 1436 0955 11       		.uleb128 0x11
 1437 0956 00000000 		.secrel32	LASF1
 1438 095a 01       		.byte	0x1
GAS LISTING C:\Users\PRESID~1\AppData\Local\Temp\ccTZYDpu.s 			page 35


 1439 095b 94       		.byte	0x94
 1440 095c B3060000 		.long	0x6b3
 1441 0960 02       		.uleb128 0x2
 1442 0961 91       		.byte	0x91
 1443 0962 04       		.sleb128 4
 1444 0963 0E       		.uleb128 0xe
 1445 0964 706F7300 		.ascii "pos\0"
 1446 0968 01       		.byte	0x1
 1447 0969 96       		.byte	0x96
 1448 096a AD000000 		.long	0xad
 1449 096e 02       		.uleb128 0x2
 1450 096f 91       		.byte	0x91
 1451 0970 77       		.sleb128 -9
 1452 0971 0E       		.uleb128 0xe
 1453 0972 69735F67 		.ascii "is_greater\0"
 1453      72656174 
 1453      657200
 1454 097d 01       		.byte	0x1
 1455 097e 97       		.byte	0x97
 1456 097f D1020000 		.long	0x2d1
 1457 0983 02       		.uleb128 0x2
 1458 0984 91       		.byte	0x91
 1459 0985 76       		.sleb128 -10
 1460 0986 00       		.byte	0
 1461 0987 12       		.uleb128 0x12
 1462 0988 49535F47 		.ascii "IS_GREATER_OR_EQUAL\0"
 1462      52454154 
 1462      45525F4F 
 1462      525F4551 
 1462      55414C00 
 1463 099c 01       		.byte	0x1
 1464 099d AB       		.byte	0xab
 1465 099e D1020000 		.long	0x2d1
 1466 09a2 FF020000 		.long	LFB12
 1467 09a6 40000000 		.long	LFE12-LFB12
 1468 09aa 01       		.uleb128 0x1
 1469 09ab 9C       		.byte	0x9c
 1470 09ac CD090000 		.long	0x9cd
 1471 09b0 11       		.uleb128 0x11
 1472 09b1 22000000 		.secrel32	LASF0
 1473 09b5 01       		.byte	0x1
 1474 09b6 AB       		.byte	0xab
 1475 09b7 B3060000 		.long	0x6b3
 1476 09bb 02       		.uleb128 0x2
 1477 09bc 91       		.byte	0x91
 1478 09bd 00       		.sleb128 0
 1479 09be 11       		.uleb128 0x11
 1480 09bf 00000000 		.secrel32	LASF1
 1481 09c3 01       		.byte	0x1
 1482 09c4 AB       		.byte	0xab
 1483 09c5 B3060000 		.long	0x6b3
 1484 09c9 02       		.uleb128 0x2
 1485 09ca 91       		.byte	0x91
 1486 09cb 04       		.sleb128 4
 1487 09cc 00       		.byte	0
 1488 09cd 0A       		.uleb128 0xa
 1489 09ce 41535349 		.ascii "ASSIGN\0"
GAS LISTING C:\Users\PRESID~1\AppData\Local\Temp\ccTZYDpu.s 			page 36


 1489      474E00
 1490 09d5 01       		.byte	0x1
 1491 09d6 AF       		.byte	0xaf
 1492 09d7 3F030000 		.long	LFB13
 1493 09db 2F000000 		.long	LFE13-LFB13
 1494 09df 01       		.uleb128 0x1
 1495 09e0 9C       		.byte	0x9c
 1496 09e1 100A0000 		.long	0xa10
 1497 09e5 11       		.uleb128 0x11
 1498 09e6 09000000 		.secrel32	LASF2
 1499 09ea 01       		.byte	0x1
 1500 09eb AF       		.byte	0xaf
 1501 09ec B3060000 		.long	0x6b3
 1502 09f0 02       		.uleb128 0x2
 1503 09f1 91       		.byte	0x91
 1504 09f2 00       		.sleb128 0
 1505 09f3 11       		.uleb128 0x11
 1506 09f4 15000000 		.secrel32	LASF3
 1507 09f8 01       		.byte	0x1
 1508 09f9 AF       		.byte	0xaf
 1509 09fa B3060000 		.long	0x6b3
 1510 09fe 02       		.uleb128 0x2
 1511 09ff 91       		.byte	0x91
 1512 0a00 04       		.sleb128 4
 1513 0a01 0E       		.uleb128 0xe
 1514 0a02 706F7300 		.ascii "pos\0"
 1515 0a06 01       		.byte	0x1
 1516 0a07 B1       		.byte	0xb1
 1517 0a08 AD000000 		.long	0xad
 1518 0a0c 02       		.uleb128 0x2
 1519 0a0d 91       		.byte	0x91
 1520 0a0e 77       		.sleb128 -9
 1521 0a0f 00       		.byte	0
 1522 0a10 0A       		.uleb128 0xa
 1523 0a11 41535349 		.ascii "ASSIGN_NULL\0"
 1523      474E5F4E 
 1523      554C4C00 
 1524 0a1d 01       		.byte	0x1
 1525 0a1e B7       		.byte	0xb7
 1526 0a1f 6E030000 		.long	LFB14
 1527 0a23 26000000 		.long	LFE14-LFB14
 1528 0a27 01       		.uleb128 0x1
 1529 0a28 9C       		.byte	0x9c
 1530 0a29 4A0A0000 		.long	0xa4a
 1531 0a2d 11       		.uleb128 0x11
 1532 0a2e 09000000 		.secrel32	LASF2
 1533 0a32 01       		.byte	0x1
 1534 0a33 B7       		.byte	0xb7
 1535 0a34 B3060000 		.long	0x6b3
 1536 0a38 02       		.uleb128 0x2
 1537 0a39 91       		.byte	0x91
 1538 0a3a 00       		.sleb128 0
 1539 0a3b 0E       		.uleb128 0xe
 1540 0a3c 706F7300 		.ascii "pos\0"
 1541 0a40 01       		.byte	0x1
 1542 0a41 B9       		.byte	0xb9
 1543 0a42 AD000000 		.long	0xad
GAS LISTING C:\Users\PRESID~1\AppData\Local\Temp\ccTZYDpu.s 			page 37


 1544 0a46 02       		.uleb128 0x2
 1545 0a47 91       		.byte	0x91
 1546 0a48 77       		.sleb128 -9
 1547 0a49 00       		.byte	0
 1548 0a4a 0A       		.uleb128 0xa
 1549 0a4b 41535349 		.ascii "ASSIGN_UINT32\0"
 1549      474E5F55 
 1549      494E5433 
 1549      3200
 1550 0a59 01       		.byte	0x1
 1551 0a5a C0       		.byte	0xc0
 1552 0a5b 94030000 		.long	LFB15
 1553 0a5f 62000000 		.long	LFE15-LFB15
 1554 0a63 01       		.uleb128 0x1
 1555 0a64 9C       		.byte	0x9c
 1556 0a65 A00A0000 		.long	0xaa0
 1557 0a69 11       		.uleb128 0x11
 1558 0a6a 09000000 		.secrel32	LASF2
 1559 0a6e 01       		.byte	0x1
 1560 0a6f C0       		.byte	0xc0
 1561 0a70 B3060000 		.long	0x6b3
 1562 0a74 02       		.uleb128 0x2
 1563 0a75 91       		.byte	0x91
 1564 0a76 00       		.sleb128 0
 1565 0a77 11       		.uleb128 0x11
 1566 0a78 15000000 		.secrel32	LASF3
 1567 0a7c 01       		.byte	0x1
 1568 0a7d C0       		.byte	0xc0
 1569 0a7e 19010000 		.long	0x119
 1570 0a82 02       		.uleb128 0x2
 1571 0a83 91       		.byte	0x91
 1572 0a84 04       		.sleb128 4
 1573 0a85 0E       		.uleb128 0xe
 1574 0a86 706F7300 		.ascii "pos\0"
 1575 0a8a 01       		.byte	0x1
 1576 0a8b C2       		.byte	0xc2
 1577 0a8c AD000000 		.long	0xad
 1578 0a90 02       		.uleb128 0x2
 1579 0a91 91       		.byte	0x91
 1580 0a92 73       		.sleb128 -13
 1581 0a93 0E       		.uleb128 0xe
 1582 0a94 6900     		.ascii "i\0"
 1583 0a96 01       		.byte	0x1
 1584 0a97 C3       		.byte	0xc3
 1585 0a98 AD000000 		.long	0xad
 1586 0a9c 02       		.uleb128 0x2
 1587 0a9d 91       		.byte	0x91
 1588 0a9e 72       		.sleb128 -14
 1589 0a9f 00       		.byte	0
 1590 0aa0 10       		.uleb128 0x10
 1591 0aa1 6765745F 		.ascii "get_uint32_of_4_uint8\0"
 1591      75696E74 
 1591      33325F6F 
 1591      665F345F 
 1591      75696E74 
 1592 0ab7 01       		.byte	0x1
 1593 0ab8 CE       		.byte	0xce
GAS LISTING C:\Users\PRESID~1\AppData\Local\Temp\ccTZYDpu.s 			page 38


 1594 0ab9 19010000 		.long	0x119
 1595 0abd F6030000 		.long	LFB16
 1596 0ac1 50000000 		.long	LFE16-LFB16
 1597 0ac5 01       		.uleb128 0x1
 1598 0ac6 9C       		.byte	0x9c
 1599 0ac7 EC0A0000 		.long	0xaec
 1600 0acb 0B       		.uleb128 0xb
 1601 0acc 70747200 		.ascii "ptr\0"
 1602 0ad0 01       		.byte	0x1
 1603 0ad1 CE       		.byte	0xce
 1604 0ad2 EC0A0000 		.long	0xaec
 1605 0ad6 02       		.uleb128 0x2
 1606 0ad7 91       		.byte	0x91
 1607 0ad8 00       		.sleb128 0
 1608 0ad9 0E       		.uleb128 0xe
 1609 0ada 7265745F 		.ascii "ret_val\0"
 1609      76616C00 
 1610 0ae2 01       		.byte	0x1
 1611 0ae3 D0       		.byte	0xd0
 1612 0ae4 19010000 		.long	0x119
 1613 0ae8 02       		.uleb128 0x2
 1614 0ae9 91       		.byte	0x91
 1615 0aea 74       		.sleb128 -12
 1616 0aeb 00       		.byte	0
 1617 0aec 0D       		.uleb128 0xd
 1618 0aed 04       		.byte	0x4
 1619 0aee AD000000 		.long	0xad
 1620 0af2 0A       		.uleb128 0xa
 1621 0af3 7365745F 		.ascii "set_4_uint8_to_uint32\0"
 1621      345F7569 
 1621      6E74385F 
 1621      746F5F75 
 1621      696E7433 
 1622 0b09 01       		.byte	0x1
 1623 0b0a DC       		.byte	0xdc
 1624 0b0b 46040000 		.long	LFB17
 1625 0b0f 3F000000 		.long	LFE17-LFB17
 1626 0b13 01       		.uleb128 0x1
 1627 0b14 9C       		.byte	0x9c
 1628 0b15 380B0000 		.long	0xb38
 1629 0b19 0B       		.uleb128 0xb
 1630 0b1a 70747200 		.ascii "ptr\0"
 1631 0b1e 01       		.byte	0x1
 1632 0b1f DC       		.byte	0xdc
 1633 0b20 EC0A0000 		.long	0xaec
 1634 0b24 02       		.uleb128 0x2
 1635 0b25 91       		.byte	0x91
 1636 0b26 00       		.sleb128 0
 1637 0b27 0B       		.uleb128 0xb
 1638 0b28 76616C75 		.ascii "value\0"
 1638      6500
 1639 0b2e 01       		.byte	0x1
 1640 0b2f DC       		.byte	0xdc
 1641 0b30 19010000 		.long	0x119
 1642 0b34 02       		.uleb128 0x2
 1643 0b35 91       		.byte	0x91
 1644 0b36 04       		.sleb128 4
GAS LISTING C:\Users\PRESID~1\AppData\Local\Temp\ccTZYDpu.s 			page 39


 1645 0b37 00       		.byte	0
 1646 0b38 08       		.uleb128 0x8
 1647 0b39 BD020000 		.long	0x2bd
 1648 0b3d 480B0000 		.long	0xb48
 1649 0b41 09       		.uleb128 0x9
 1650 0b42 25050000 		.long	0x525
 1651 0b46 0E       		.byte	0xe
 1652 0b47 00       		.byte	0
 1653 0b48 13       		.uleb128 0x13
 1654 0b49 4F535F53 		.ascii "OS_SW_BUG\0"
 1654      575F4255 
 1654      4700
 1655 0b53 04       		.byte	0x4
 1656 0b54 0E       		.byte	0xe
 1657 0b55 590B0000 		.long	0xb59
 1658 0b59 14       		.uleb128 0x14
 1659 0b5a 380B0000 		.long	0xb38
 1660 0b5e 13       		.uleb128 0x13
 1661 0b5f 4C4F4341 		.ascii "LOCAL_SYSTEM_TIME\0"
 1661      4C5F5359 
 1661      5354454D 
 1661      5F54494D 
 1661      4500
 1662 0b71 04       		.byte	0x4
 1663 0b72 35       		.byte	0x35
 1664 0b73 40050000 		.long	0x540
 1665 0b77 00       		.byte	0
 1666              		.section	.debug_abbrev,"dr"
 1667              	Ldebug_abbrev0:
 1668 0000 01       		.uleb128 0x1
 1669 0001 11       		.uleb128 0x11
 1670 0002 01       		.byte	0x1
 1671 0003 25       		.uleb128 0x25
 1672 0004 08       		.uleb128 0x8
 1673 0005 13       		.uleb128 0x13
 1674 0006 0B       		.uleb128 0xb
 1675 0007 03       		.uleb128 0x3
 1676 0008 08       		.uleb128 0x8
 1677 0009 11       		.uleb128 0x11
 1678 000a 01       		.uleb128 0x1
 1679 000b 12       		.uleb128 0x12
 1680 000c 06       		.uleb128 0x6
 1681 000d 10       		.uleb128 0x10
 1682 000e 17       		.uleb128 0x17
 1683 000f 9942     		.uleb128 0x2119
 1684 0011 17       		.uleb128 0x17
 1685 0012 00       		.byte	0
 1686 0013 00       		.byte	0
 1687 0014 02       		.uleb128 0x2
 1688 0015 24       		.uleb128 0x24
 1689 0016 00       		.byte	0
 1690 0017 0B       		.uleb128 0xb
 1691 0018 0B       		.uleb128 0xb
 1692 0019 3E       		.uleb128 0x3e
 1693 001a 0B       		.uleb128 0xb
 1694 001b 03       		.uleb128 0x3
 1695 001c 08       		.uleb128 0x8
GAS LISTING C:\Users\PRESID~1\AppData\Local\Temp\ccTZYDpu.s 			page 40


 1696 001d 00       		.byte	0
 1697 001e 00       		.byte	0
 1698 001f 03       		.uleb128 0x3
 1699 0020 16       		.uleb128 0x16
 1700 0021 00       		.byte	0
 1701 0022 03       		.uleb128 0x3
 1702 0023 08       		.uleb128 0x8
 1703 0024 3A       		.uleb128 0x3a
 1704 0025 0B       		.uleb128 0xb
 1705 0026 3B       		.uleb128 0x3b
 1706 0027 0B       		.uleb128 0xb
 1707 0028 49       		.uleb128 0x49
 1708 0029 13       		.uleb128 0x13
 1709 002a 00       		.byte	0
 1710 002b 00       		.byte	0
 1711 002c 04       		.uleb128 0x4
 1712 002d 04       		.uleb128 0x4
 1713 002e 01       		.byte	0x1
 1714 002f 03       		.uleb128 0x3
 1715 0030 08       		.uleb128 0x8
 1716 0031 0B       		.uleb128 0xb
 1717 0032 0B       		.uleb128 0xb
 1718 0033 3A       		.uleb128 0x3a
 1719 0034 0B       		.uleb128 0xb
 1720 0035 3B       		.uleb128 0x3b
 1721 0036 0B       		.uleb128 0xb
 1722 0037 01       		.uleb128 0x1
 1723 0038 13       		.uleb128 0x13
 1724 0039 00       		.byte	0
 1725 003a 00       		.byte	0
 1726 003b 05       		.uleb128 0x5
 1727 003c 28       		.uleb128 0x28
 1728 003d 00       		.byte	0
 1729 003e 03       		.uleb128 0x3
 1730 003f 08       		.uleb128 0x8
 1731 0040 1C       		.uleb128 0x1c
 1732 0041 0D       		.uleb128 0xd
 1733 0042 00       		.byte	0
 1734 0043 00       		.byte	0
 1735 0044 06       		.uleb128 0x6
 1736 0045 13       		.uleb128 0x13
 1737 0046 01       		.byte	0x1
 1738 0047 03       		.uleb128 0x3
 1739 0048 08       		.uleb128 0x8
 1740 0049 0B       		.uleb128 0xb
 1741 004a 0B       		.uleb128 0xb
 1742 004b 3A       		.uleb128 0x3a
 1743 004c 0B       		.uleb128 0xb
 1744 004d 3B       		.uleb128 0x3b
 1745 004e 0B       		.uleb128 0xb
 1746 004f 01       		.uleb128 0x1
 1747 0050 13       		.uleb128 0x13
 1748 0051 00       		.byte	0
 1749 0052 00       		.byte	0
 1750 0053 07       		.uleb128 0x7
 1751 0054 0D       		.uleb128 0xd
 1752 0055 00       		.byte	0
GAS LISTING C:\Users\PRESID~1\AppData\Local\Temp\ccTZYDpu.s 			page 41


 1753 0056 03       		.uleb128 0x3
 1754 0057 08       		.uleb128 0x8
 1755 0058 3A       		.uleb128 0x3a
 1756 0059 0B       		.uleb128 0xb
 1757 005a 3B       		.uleb128 0x3b
 1758 005b 0B       		.uleb128 0xb
 1759 005c 49       		.uleb128 0x49
 1760 005d 13       		.uleb128 0x13
 1761 005e 38       		.uleb128 0x38
 1762 005f 0B       		.uleb128 0xb
 1763 0060 00       		.byte	0
 1764 0061 00       		.byte	0
 1765 0062 08       		.uleb128 0x8
 1766 0063 01       		.uleb128 0x1
 1767 0064 01       		.byte	0x1
 1768 0065 49       		.uleb128 0x49
 1769 0066 13       		.uleb128 0x13
 1770 0067 01       		.uleb128 0x1
 1771 0068 13       		.uleb128 0x13
 1772 0069 00       		.byte	0
 1773 006a 00       		.byte	0
 1774 006b 09       		.uleb128 0x9
 1775 006c 21       		.uleb128 0x21
 1776 006d 00       		.byte	0
 1777 006e 49       		.uleb128 0x49
 1778 006f 13       		.uleb128 0x13
 1779 0070 2F       		.uleb128 0x2f
 1780 0071 0B       		.uleb128 0xb
 1781 0072 00       		.byte	0
 1782 0073 00       		.byte	0
 1783 0074 0A       		.uleb128 0xa
 1784 0075 2E       		.uleb128 0x2e
 1785 0076 01       		.byte	0x1
 1786 0077 3F       		.uleb128 0x3f
 1787 0078 19       		.uleb128 0x19
 1788 0079 03       		.uleb128 0x3
 1789 007a 08       		.uleb128 0x8
 1790 007b 3A       		.uleb128 0x3a
 1791 007c 0B       		.uleb128 0xb
 1792 007d 3B       		.uleb128 0x3b
 1793 007e 0B       		.uleb128 0xb
 1794 007f 27       		.uleb128 0x27
 1795 0080 19       		.uleb128 0x19
 1796 0081 11       		.uleb128 0x11
 1797 0082 01       		.uleb128 0x1
 1798 0083 12       		.uleb128 0x12
 1799 0084 06       		.uleb128 0x6
 1800 0085 40       		.uleb128 0x40
 1801 0086 18       		.uleb128 0x18
 1802 0087 9742     		.uleb128 0x2117
 1803 0089 19       		.uleb128 0x19
 1804 008a 01       		.uleb128 0x1
 1805 008b 13       		.uleb128 0x13
 1806 008c 00       		.byte	0
 1807 008d 00       		.byte	0
 1808 008e 0B       		.uleb128 0xb
 1809 008f 05       		.uleb128 0x5
GAS LISTING C:\Users\PRESID~1\AppData\Local\Temp\ccTZYDpu.s 			page 42


 1810 0090 00       		.byte	0
 1811 0091 03       		.uleb128 0x3
 1812 0092 08       		.uleb128 0x8
 1813 0093 3A       		.uleb128 0x3a
 1814 0094 0B       		.uleb128 0xb
 1815 0095 3B       		.uleb128 0x3b
 1816 0096 0B       		.uleb128 0xb
 1817 0097 49       		.uleb128 0x49
 1818 0098 13       		.uleb128 0x13
 1819 0099 02       		.uleb128 0x2
 1820 009a 18       		.uleb128 0x18
 1821 009b 00       		.byte	0
 1822 009c 00       		.byte	0
 1823 009d 0C       		.uleb128 0xc
 1824 009e 2E       		.uleb128 0x2e
 1825 009f 01       		.byte	0x1
 1826 00a0 3F       		.uleb128 0x3f
 1827 00a1 19       		.uleb128 0x19
 1828 00a2 03       		.uleb128 0x3
 1829 00a3 08       		.uleb128 0x8
 1830 00a4 3A       		.uleb128 0x3a
 1831 00a5 0B       		.uleb128 0xb
 1832 00a6 3B       		.uleb128 0x3b
 1833 00a7 0B       		.uleb128 0xb
 1834 00a8 27       		.uleb128 0x27
 1835 00a9 19       		.uleb128 0x19
 1836 00aa 11       		.uleb128 0x11
 1837 00ab 01       		.uleb128 0x1
 1838 00ac 12       		.uleb128 0x12
 1839 00ad 06       		.uleb128 0x6
 1840 00ae 40       		.uleb128 0x40
 1841 00af 18       		.uleb128 0x18
 1842 00b0 9642     		.uleb128 0x2116
 1843 00b2 19       		.uleb128 0x19
 1844 00b3 01       		.uleb128 0x1
 1845 00b4 13       		.uleb128 0x13
 1846 00b5 00       		.byte	0
 1847 00b6 00       		.byte	0
 1848 00b7 0D       		.uleb128 0xd
 1849 00b8 0F       		.uleb128 0xf
 1850 00b9 00       		.byte	0
 1851 00ba 0B       		.uleb128 0xb
 1852 00bb 0B       		.uleb128 0xb
 1853 00bc 49       		.uleb128 0x49
 1854 00bd 13       		.uleb128 0x13
 1855 00be 00       		.byte	0
 1856 00bf 00       		.byte	0
 1857 00c0 0E       		.uleb128 0xe
 1858 00c1 34       		.uleb128 0x34
 1859 00c2 00       		.byte	0
 1860 00c3 03       		.uleb128 0x3
 1861 00c4 08       		.uleb128 0x8
 1862 00c5 3A       		.uleb128 0x3a
 1863 00c6 0B       		.uleb128 0xb
 1864 00c7 3B       		.uleb128 0x3b
 1865 00c8 0B       		.uleb128 0xb
 1866 00c9 49       		.uleb128 0x49
GAS LISTING C:\Users\PRESID~1\AppData\Local\Temp\ccTZYDpu.s 			page 43


 1867 00ca 13       		.uleb128 0x13
 1868 00cb 02       		.uleb128 0x2
 1869 00cc 18       		.uleb128 0x18
 1870 00cd 00       		.byte	0
 1871 00ce 00       		.byte	0
 1872 00cf 0F       		.uleb128 0xf
 1873 00d0 0B       		.uleb128 0xb
 1874 00d1 01       		.byte	0x1
 1875 00d2 11       		.uleb128 0x11
 1876 00d3 01       		.uleb128 0x1
 1877 00d4 12       		.uleb128 0x12
 1878 00d5 06       		.uleb128 0x6
 1879 00d6 00       		.byte	0
 1880 00d7 00       		.byte	0
 1881 00d8 10       		.uleb128 0x10
 1882 00d9 2E       		.uleb128 0x2e
 1883 00da 01       		.byte	0x1
 1884 00db 3F       		.uleb128 0x3f
 1885 00dc 19       		.uleb128 0x19
 1886 00dd 03       		.uleb128 0x3
 1887 00de 08       		.uleb128 0x8
 1888 00df 3A       		.uleb128 0x3a
 1889 00e0 0B       		.uleb128 0xb
 1890 00e1 3B       		.uleb128 0x3b
 1891 00e2 0B       		.uleb128 0xb
 1892 00e3 27       		.uleb128 0x27
 1893 00e4 19       		.uleb128 0x19
 1894 00e5 49       		.uleb128 0x49
 1895 00e6 13       		.uleb128 0x13
 1896 00e7 11       		.uleb128 0x11
 1897 00e8 01       		.uleb128 0x1
 1898 00e9 12       		.uleb128 0x12
 1899 00ea 06       		.uleb128 0x6
 1900 00eb 40       		.uleb128 0x40
 1901 00ec 18       		.uleb128 0x18
 1902 00ed 9742     		.uleb128 0x2117
 1903 00ef 19       		.uleb128 0x19
 1904 00f0 01       		.uleb128 0x1
 1905 00f1 13       		.uleb128 0x13
 1906 00f2 00       		.byte	0
 1907 00f3 00       		.byte	0
 1908 00f4 11       		.uleb128 0x11
 1909 00f5 05       		.uleb128 0x5
 1910 00f6 00       		.byte	0
 1911 00f7 03       		.uleb128 0x3
 1912 00f8 0E       		.uleb128 0xe
 1913 00f9 3A       		.uleb128 0x3a
 1914 00fa 0B       		.uleb128 0xb
 1915 00fb 3B       		.uleb128 0x3b
 1916 00fc 0B       		.uleb128 0xb
 1917 00fd 49       		.uleb128 0x49
 1918 00fe 13       		.uleb128 0x13
 1919 00ff 02       		.uleb128 0x2
 1920 0100 18       		.uleb128 0x18
 1921 0101 00       		.byte	0
 1922 0102 00       		.byte	0
 1923 0103 12       		.uleb128 0x12
GAS LISTING C:\Users\PRESID~1\AppData\Local\Temp\ccTZYDpu.s 			page 44


 1924 0104 2E       		.uleb128 0x2e
 1925 0105 01       		.byte	0x1
 1926 0106 3F       		.uleb128 0x3f
 1927 0107 19       		.uleb128 0x19
 1928 0108 03       		.uleb128 0x3
 1929 0109 08       		.uleb128 0x8
 1930 010a 3A       		.uleb128 0x3a
 1931 010b 0B       		.uleb128 0xb
 1932 010c 3B       		.uleb128 0x3b
 1933 010d 0B       		.uleb128 0xb
 1934 010e 27       		.uleb128 0x27
 1935 010f 19       		.uleb128 0x19
 1936 0110 49       		.uleb128 0x49
 1937 0111 13       		.uleb128 0x13
 1938 0112 11       		.uleb128 0x11
 1939 0113 01       		.uleb128 0x1
 1940 0114 12       		.uleb128 0x12
 1941 0115 06       		.uleb128 0x6
 1942 0116 40       		.uleb128 0x40
 1943 0117 18       		.uleb128 0x18
 1944 0118 9642     		.uleb128 0x2116
 1945 011a 19       		.uleb128 0x19
 1946 011b 01       		.uleb128 0x1
 1947 011c 13       		.uleb128 0x13
 1948 011d 00       		.byte	0
 1949 011e 00       		.byte	0
 1950 011f 13       		.uleb128 0x13
 1951 0120 34       		.uleb128 0x34
 1952 0121 00       		.byte	0
 1953 0122 03       		.uleb128 0x3
 1954 0123 08       		.uleb128 0x8
 1955 0124 3A       		.uleb128 0x3a
 1956 0125 0B       		.uleb128 0xb
 1957 0126 3B       		.uleb128 0x3b
 1958 0127 0B       		.uleb128 0xb
 1959 0128 49       		.uleb128 0x49
 1960 0129 13       		.uleb128 0x13
 1961 012a 3F       		.uleb128 0x3f
 1962 012b 19       		.uleb128 0x19
 1963 012c 3C       		.uleb128 0x3c
 1964 012d 19       		.uleb128 0x19
 1965 012e 00       		.byte	0
 1966 012f 00       		.byte	0
 1967 0130 14       		.uleb128 0x14
 1968 0131 35       		.uleb128 0x35
 1969 0132 00       		.byte	0
 1970 0133 49       		.uleb128 0x49
 1971 0134 13       		.uleb128 0x13
 1972 0135 00       		.byte	0
 1973 0136 00       		.byte	0
 1974 0137 00       		.byte	0
 1975              		.section	.debug_aranges,"dr"
 1976 0000 1C000000 		.long	0x1c
 1977 0004 0200     		.word	0x2
 1978 0006 00000000 		.secrel32	Ldebug_info0
 1979 000a 04       		.byte	0x4
 1980 000b 00       		.byte	0
GAS LISTING C:\Users\PRESID~1\AppData\Local\Temp\ccTZYDpu.s 			page 45


 1981 000c 0000     		.word	0
 1982 000e 0000     		.word	0
 1983 0010 00000000 		.long	Ltext0
 1984 0014 85040000 		.long	Letext0-Ltext0
 1985 0018 00000000 		.long	0
 1986 001c 00000000 		.long	0
 1987              		.section	.debug_macro,"dr"
 1988              	Ldebug_macro0:
 1989 0000 0400     		.word	0x4
 1990 0002 02       		.byte	0x2
 1991 0003 00000000 		.secrel32	Ldebug_line0
 1992 0007 01       		.byte	0x1
 1993 0008 00       		.uleb128 0
 1994 0009 5F5F5354 		.ascii "__STDC__ 1\0"
 1994      44435F5F 
 1994      203100
 1995 0014 01       		.byte	0x1
 1996 0015 00       		.uleb128 0
 1997 0016 5F5F5354 		.ascii "__STDC_HOSTED__ 1\0"
 1997      44435F48 
 1997      4F535445 
 1997      445F5F20 
 1997      3100
 1998 0028 01       		.byte	0x1
 1999 0029 00       		.uleb128 0
 2000 002a 5F5F474E 		.ascii "__GNUC__ 4\0"
 2000      55435F5F 
 2000      203400
 2001 0035 01       		.byte	0x1
 2002 0036 00       		.uleb128 0
 2003 0037 5F5F474E 		.ascii "__GNUC_MINOR__ 9\0"
 2003      55435F4D 
 2003      494E4F52 
 2003      5F5F2039 
 2003      00
 2004 0048 01       		.byte	0x1
 2005 0049 00       		.uleb128 0
 2006 004a 5F5F474E 		.ascii "__GNUC_PATCHLEVEL__ 3\0"
 2006      55435F50 
 2006      41544348 
 2006      4C455645 
 2006      4C5F5F20 
 2007 0060 01       		.byte	0x1
 2008 0061 00       		.uleb128 0
 2009 0062 5F5F5645 		.ascii "__VERSION__ \"4.9.3\"\0"
 2009      5253494F 
 2009      4E5F5F20 
 2009      22342E39 
 2009      2E332200 
 2010 0076 01       		.byte	0x1
 2011 0077 00       		.uleb128 0
 2012 0078 5F5F4154 		.ascii "__ATOMIC_RELAXED 0\0"
 2012      4F4D4943 
 2012      5F52454C 
 2012      41584544 
 2012      203000
 2013 008b 01       		.byte	0x1
GAS LISTING C:\Users\PRESID~1\AppData\Local\Temp\ccTZYDpu.s 			page 46


 2014 008c 00       		.uleb128 0
 2015 008d 5F5F4154 		.ascii "__ATOMIC_SEQ_CST 5\0"
 2015      4F4D4943 
 2015      5F534551 
 2015      5F435354 
 2015      203500
 2016 00a0 01       		.byte	0x1
 2017 00a1 00       		.uleb128 0
 2018 00a2 5F5F4154 		.ascii "__ATOMIC_ACQUIRE 2\0"
 2018      4F4D4943 
 2018      5F414351 
 2018      55495245 
 2018      203200
 2019 00b5 01       		.byte	0x1
 2020 00b6 00       		.uleb128 0
 2021 00b7 5F5F4154 		.ascii "__ATOMIC_RELEASE 3\0"
 2021      4F4D4943 
 2021      5F52454C 
 2021      45415345 
 2021      203300
 2022 00ca 01       		.byte	0x1
 2023 00cb 00       		.uleb128 0
 2024 00cc 5F5F4154 		.ascii "__ATOMIC_ACQ_REL 4\0"
 2024      4F4D4943 
 2024      5F414351 
 2024      5F52454C 
 2024      203400
 2025 00df 01       		.byte	0x1
 2026 00e0 00       		.uleb128 0
 2027 00e1 5F5F4154 		.ascii "__ATOMIC_CONSUME 1\0"
 2027      4F4D4943 
 2027      5F434F4E 
 2027      53554D45 
 2027      203100
 2028 00f4 01       		.byte	0x1
 2029 00f5 00       		.uleb128 0
 2030 00f6 5F5F4649 		.ascii "__FINITE_MATH_ONLY__ 0\0"
 2030      4E495445 
 2030      5F4D4154 
 2030      485F4F4E 
 2030      4C595F5F 
 2031 010d 01       		.byte	0x1
 2032 010e 00       		.uleb128 0
 2033 010f 5F5F5349 		.ascii "__SIZEOF_INT__ 4\0"
 2033      5A454F46 
 2033      5F494E54 
 2033      5F5F2034 
 2033      00
 2034 0120 01       		.byte	0x1
 2035 0121 00       		.uleb128 0
 2036 0122 5F5F5349 		.ascii "__SIZEOF_LONG__ 4\0"
 2036      5A454F46 
 2036      5F4C4F4E 
 2036      475F5F20 
 2036      3400
 2037 0134 01       		.byte	0x1
 2038 0135 00       		.uleb128 0
GAS LISTING C:\Users\PRESID~1\AppData\Local\Temp\ccTZYDpu.s 			page 47


 2039 0136 5F5F5349 		.ascii "__SIZEOF_LONG_LONG__ 8\0"
 2039      5A454F46 
 2039      5F4C4F4E 
 2039      475F4C4F 
 2039      4E475F5F 
 2040 014d 01       		.byte	0x1
 2041 014e 00       		.uleb128 0
 2042 014f 5F5F5349 		.ascii "__SIZEOF_SHORT__ 2\0"
 2042      5A454F46 
 2042      5F53484F 
 2042      52545F5F 
 2042      203200
 2043 0162 01       		.byte	0x1
 2044 0163 00       		.uleb128 0
 2045 0164 5F5F5349 		.ascii "__SIZEOF_FLOAT__ 4\0"
 2045      5A454F46 
 2045      5F464C4F 
 2045      41545F5F 
 2045      203400
 2046 0177 01       		.byte	0x1
 2047 0178 00       		.uleb128 0
 2048 0179 5F5F5349 		.ascii "__SIZEOF_DOUBLE__ 8\0"
 2048      5A454F46 
 2048      5F444F55 
 2048      424C455F 
 2048      5F203800 
 2049 018d 01       		.byte	0x1
 2050 018e 00       		.uleb128 0
 2051 018f 5F5F5349 		.ascii "__SIZEOF_LONG_DOUBLE__ 12\0"
 2051      5A454F46 
 2051      5F4C4F4E 
 2051      475F444F 
 2051      55424C45 
 2052 01a9 01       		.byte	0x1
 2053 01aa 00       		.uleb128 0
 2054 01ab 5F5F5349 		.ascii "__SIZEOF_SIZE_T__ 4\0"
 2054      5A454F46 
 2054      5F53495A 
 2054      455F545F 
 2054      5F203400 
 2055 01bf 01       		.byte	0x1
 2056 01c0 00       		.uleb128 0
 2057 01c1 5F5F4348 		.ascii "__CHAR_BIT__ 8\0"
 2057      41525F42 
 2057      49545F5F 
 2057      203800
 2058 01d0 01       		.byte	0x1
 2059 01d1 00       		.uleb128 0
 2060 01d2 5F5F4249 		.ascii "__BIGGEST_ALIGNMENT__ 16\0"
 2060      47474553 
 2060      545F414C 
 2060      49474E4D 
 2060      454E545F 
 2061 01eb 01       		.byte	0x1
 2062 01ec 00       		.uleb128 0
 2063 01ed 5F5F4F52 		.ascii "__ORDER_LITTLE_ENDIAN__ 1234\0"
 2063      4445525F 
GAS LISTING C:\Users\PRESID~1\AppData\Local\Temp\ccTZYDpu.s 			page 48


 2063      4C495454 
 2063      4C455F45 
 2063      4E444941 
 2064 020a 01       		.byte	0x1
 2065 020b 00       		.uleb128 0
 2066 020c 5F5F4F52 		.ascii "__ORDER_BIG_ENDIAN__ 4321\0"
 2066      4445525F 
 2066      4249475F 
 2066      454E4449 
 2066      414E5F5F 
 2067 0226 01       		.byte	0x1
 2068 0227 00       		.uleb128 0
 2069 0228 5F5F4F52 		.ascii "__ORDER_PDP_ENDIAN__ 3412\0"
 2069      4445525F 
 2069      5044505F 
 2069      454E4449 
 2069      414E5F5F 
 2070 0242 01       		.byte	0x1
 2071 0243 00       		.uleb128 0
 2072 0244 5F5F4259 		.ascii "__BYTE_ORDER__ __ORDER_LITTLE_ENDIAN__\0"
 2072      54455F4F 
 2072      52444552 
 2072      5F5F205F 
 2072      5F4F5244 
 2073 026b 01       		.byte	0x1
 2074 026c 00       		.uleb128 0
 2075 026d 5F5F464C 		.ascii "__FLOAT_WORD_ORDER__ __ORDER_LITTLE_ENDIAN__\0"
 2075      4F41545F 
 2075      574F5244 
 2075      5F4F5244 
 2075      45525F5F 
 2076 029a 01       		.byte	0x1
 2077 029b 00       		.uleb128 0
 2078 029c 5F5F5349 		.ascii "__SIZEOF_POINTER__ 4\0"
 2078      5A454F46 
 2078      5F504F49 
 2078      4E544552 
 2078      5F5F2034 
 2079 02b1 01       		.byte	0x1
 2080 02b2 00       		.uleb128 0
 2081 02b3 5F5F5349 		.ascii "__SIZE_TYPE__ unsigned int\0"
 2081      5A455F54 
 2081      5950455F 
 2081      5F20756E 
 2081      7369676E 
 2082 02ce 01       		.byte	0x1
 2083 02cf 00       		.uleb128 0
 2084 02d0 5F5F5054 		.ascii "__PTRDIFF_TYPE__ int\0"
 2084      52444946 
 2084      465F5459 
 2084      50455F5F 
 2084      20696E74 
 2085 02e5 01       		.byte	0x1
 2086 02e6 00       		.uleb128 0
 2087 02e7 5F5F5743 		.ascii "__WCHAR_TYPE__ short unsigned int\0"
 2087      4841525F 
 2087      54595045 
GAS LISTING C:\Users\PRESID~1\AppData\Local\Temp\ccTZYDpu.s 			page 49


 2087      5F5F2073 
 2087      686F7274 
 2088 0309 01       		.byte	0x1
 2089 030a 00       		.uleb128 0
 2090 030b 5F5F5749 		.ascii "__WINT_TYPE__ short unsigned int\0"
 2090      4E545F54 
 2090      5950455F 
 2090      5F207368 
 2090      6F727420 
 2091 032c 01       		.byte	0x1
 2092 032d 00       		.uleb128 0
 2093 032e 5F5F494E 		.ascii "__INTMAX_TYPE__ long long int\0"
 2093      544D4158 
 2093      5F545950 
 2093      455F5F20 
 2093      6C6F6E67 
 2094 034c 01       		.byte	0x1
 2095 034d 00       		.uleb128 0
 2096 034e 5F5F5549 		.ascii "__UINTMAX_TYPE__ long long unsigned int\0"
 2096      4E544D41 
 2096      585F5459 
 2096      50455F5F 
 2096      206C6F6E 
 2097 0376 01       		.byte	0x1
 2098 0377 00       		.uleb128 0
 2099 0378 5F5F4348 		.ascii "__CHAR16_TYPE__ short unsigned int\0"
 2099      41523136 
 2099      5F545950 
 2099      455F5F20 
 2099      73686F72 
 2100 039b 01       		.byte	0x1
 2101 039c 00       		.uleb128 0
 2102 039d 5F5F4348 		.ascii "__CHAR32_TYPE__ unsigned int\0"
 2102      41523332 
 2102      5F545950 
 2102      455F5F20 
 2102      756E7369 
 2103 03ba 01       		.byte	0x1
 2104 03bb 00       		.uleb128 0
 2105 03bc 5F5F5349 		.ascii "__SIG_ATOMIC_TYPE__ int\0"
 2105      475F4154 
 2105      4F4D4943 
 2105      5F545950 
 2105      455F5F20 
 2106 03d4 01       		.byte	0x1
 2107 03d5 00       		.uleb128 0
 2108 03d6 5F5F494E 		.ascii "__INT8_TYPE__ signed char\0"
 2108      54385F54 
 2108      5950455F 
 2108      5F207369 
 2108      676E6564 
 2109 03f0 01       		.byte	0x1
 2110 03f1 00       		.uleb128 0
 2111 03f2 5F5F494E 		.ascii "__INT16_TYPE__ short int\0"
 2111      5431365F 
 2111      54595045 
 2111      5F5F2073 
GAS LISTING C:\Users\PRESID~1\AppData\Local\Temp\ccTZYDpu.s 			page 50


 2111      686F7274 
 2112 040b 01       		.byte	0x1
 2113 040c 00       		.uleb128 0
 2114 040d 5F5F494E 		.ascii "__INT32_TYPE__ int\0"
 2114      5433325F 
 2114      54595045 
 2114      5F5F2069 
 2114      6E7400
 2115 0420 01       		.byte	0x1
 2116 0421 00       		.uleb128 0
 2117 0422 5F5F494E 		.ascii "__INT64_TYPE__ long long int\0"
 2117      5436345F 
 2117      54595045 
 2117      5F5F206C 
 2117      6F6E6720 
 2118 043f 01       		.byte	0x1
 2119 0440 00       		.uleb128 0
 2120 0441 5F5F5549 		.ascii "__UINT8_TYPE__ unsigned char\0"
 2120      4E54385F 
 2120      54595045 
 2120      5F5F2075 
 2120      6E736967 
 2121 045e 01       		.byte	0x1
 2122 045f 00       		.uleb128 0
 2123 0460 5F5F5549 		.ascii "__UINT16_TYPE__ short unsigned int\0"
 2123      4E543136 
 2123      5F545950 
 2123      455F5F20 
 2123      73686F72 
 2124 0483 01       		.byte	0x1
 2125 0484 00       		.uleb128 0
 2126 0485 5F5F5549 		.ascii "__UINT32_TYPE__ unsigned int\0"
 2126      4E543332 
 2126      5F545950 
 2126      455F5F20 
 2126      756E7369 
 2127 04a2 01       		.byte	0x1
 2128 04a3 00       		.uleb128 0
 2129 04a4 5F5F5549 		.ascii "__UINT64_TYPE__ long long unsigned int\0"
 2129      4E543634 
 2129      5F545950 
 2129      455F5F20 
 2129      6C6F6E67 
 2130 04cb 01       		.byte	0x1
 2131 04cc 00       		.uleb128 0
 2132 04cd 5F5F494E 		.ascii "__INT_LEAST8_TYPE__ signed char\0"
 2132      545F4C45 
 2132      41535438 
 2132      5F545950 
 2132      455F5F20 
 2133 04ed 01       		.byte	0x1
 2134 04ee 00       		.uleb128 0
 2135 04ef 5F5F494E 		.ascii "__INT_LEAST16_TYPE__ short int\0"
 2135      545F4C45 
 2135      41535431 
 2135      365F5459 
 2135      50455F5F 
GAS LISTING C:\Users\PRESID~1\AppData\Local\Temp\ccTZYDpu.s 			page 51


 2136 050e 01       		.byte	0x1
 2137 050f 00       		.uleb128 0
 2138 0510 5F5F494E 		.ascii "__INT_LEAST32_TYPE__ int\0"
 2138      545F4C45 
 2138      41535433 
 2138      325F5459 
 2138      50455F5F 
 2139 0529 01       		.byte	0x1
 2140 052a 00       		.uleb128 0
 2141 052b 5F5F494E 		.ascii "__INT_LEAST64_TYPE__ long long int\0"
 2141      545F4C45 
 2141      41535436 
 2141      345F5459 
 2141      50455F5F 
 2142 054e 01       		.byte	0x1
 2143 054f 00       		.uleb128 0
 2144 0550 5F5F5549 		.ascii "__UINT_LEAST8_TYPE__ unsigned char\0"
 2144      4E545F4C 
 2144      45415354 
 2144      385F5459 
 2144      50455F5F 
 2145 0573 01       		.byte	0x1
 2146 0574 00       		.uleb128 0
 2147 0575 5F5F5549 		.ascii "__UINT_LEAST16_TYPE__ short unsigned int\0"
 2147      4E545F4C 
 2147      45415354 
 2147      31365F54 
 2147      5950455F 
 2148 059e 01       		.byte	0x1
 2149 059f 00       		.uleb128 0
 2150 05a0 5F5F5549 		.ascii "__UINT_LEAST32_TYPE__ unsigned int\0"
 2150      4E545F4C 
 2150      45415354 
 2150      33325F54 
 2150      5950455F 
 2151 05c3 01       		.byte	0x1
 2152 05c4 00       		.uleb128 0
 2153 05c5 5F5F5549 		.ascii "__UINT_LEAST64_TYPE__ long long unsigned int\0"
 2153      4E545F4C 
 2153      45415354 
 2153      36345F54 
 2153      5950455F 
 2154 05f2 01       		.byte	0x1
 2155 05f3 00       		.uleb128 0
 2156 05f4 5F5F494E 		.ascii "__INT_FAST8_TYPE__ signed char\0"
 2156      545F4641 
 2156      5354385F 
 2156      54595045 
 2156      5F5F2073 
 2157 0613 01       		.byte	0x1
 2158 0614 00       		.uleb128 0
 2159 0615 5F5F494E 		.ascii "__INT_FAST16_TYPE__ short int\0"
 2159      545F4641 
 2159      53543136 
 2159      5F545950 
 2159      455F5F20 
 2160 0633 01       		.byte	0x1
GAS LISTING C:\Users\PRESID~1\AppData\Local\Temp\ccTZYDpu.s 			page 52


 2161 0634 00       		.uleb128 0
 2162 0635 5F5F494E 		.ascii "__INT_FAST32_TYPE__ int\0"
 2162      545F4641 
 2162      53543332 
 2162      5F545950 
 2162      455F5F20 
 2163 064d 01       		.byte	0x1
 2164 064e 00       		.uleb128 0
 2165 064f 5F5F494E 		.ascii "__INT_FAST64_TYPE__ long long int\0"
 2165      545F4641 
 2165      53543634 
 2165      5F545950 
 2165      455F5F20 
 2166 0671 01       		.byte	0x1
 2167 0672 00       		.uleb128 0
 2168 0673 5F5F5549 		.ascii "__UINT_FAST8_TYPE__ unsigned char\0"
 2168      4E545F46 
 2168      41535438 
 2168      5F545950 
 2168      455F5F20 
 2169 0695 01       		.byte	0x1
 2170 0696 00       		.uleb128 0
 2171 0697 5F5F5549 		.ascii "__UINT_FAST16_TYPE__ short unsigned int\0"
 2171      4E545F46 
 2171      41535431 
 2171      365F5459 
 2171      50455F5F 
 2172 06bf 01       		.byte	0x1
 2173 06c0 00       		.uleb128 0
 2174 06c1 5F5F5549 		.ascii "__UINT_FAST32_TYPE__ unsigned int\0"
 2174      4E545F46 
 2174      41535433 
 2174      325F5459 
 2174      50455F5F 
 2175 06e3 01       		.byte	0x1
 2176 06e4 00       		.uleb128 0
 2177 06e5 5F5F5549 		.ascii "__UINT_FAST64_TYPE__ long long unsigned int\0"
 2177      4E545F46 
 2177      41535436 
 2177      345F5459 
 2177      50455F5F 
 2178 0711 01       		.byte	0x1
 2179 0712 00       		.uleb128 0
 2180 0713 5F5F494E 		.ascii "__INTPTR_TYPE__ int\0"
 2180      54505452 
 2180      5F545950 
 2180      455F5F20 
 2180      696E7400 
 2181 0727 01       		.byte	0x1
 2182 0728 00       		.uleb128 0
 2183 0729 5F5F5549 		.ascii "__UINTPTR_TYPE__ unsigned int\0"
 2183      4E545054 
 2183      525F5459 
 2183      50455F5F 
 2183      20756E73 
 2184 0747 01       		.byte	0x1
 2185 0748 00       		.uleb128 0
GAS LISTING C:\Users\PRESID~1\AppData\Local\Temp\ccTZYDpu.s 			page 53


 2186 0749 5F5F6861 		.ascii "__has_include(STR) __has_include__(STR)\0"
 2186      735F696E 
 2186      636C7564 
 2186      65285354 
 2186      5229205F 
 2187 0771 01       		.byte	0x1
 2188 0772 00       		.uleb128 0
 2189 0773 5F5F6861 		.ascii "__has_include_next(STR) __has_include_next__(STR)\0"
 2189      735F696E 
 2189      636C7564 
 2189      655F6E65 
 2189      78742853 
 2190 07a5 01       		.byte	0x1
 2191 07a6 00       		.uleb128 0
 2192 07a7 5F5F4758 		.ascii "__GXX_ABI_VERSION 1002\0"
 2192      585F4142 
 2192      495F5645 
 2192      5253494F 
 2192      4E203130 
 2193 07be 01       		.byte	0x1
 2194 07bf 00       		.uleb128 0
 2195 07c0 5F5F5343 		.ascii "__SCHAR_MAX__ 127\0"
 2195      4841525F 
 2195      4D41585F 
 2195      5F203132 
 2195      3700
 2196 07d2 01       		.byte	0x1
 2197 07d3 00       		.uleb128 0
 2198 07d4 5F5F5348 		.ascii "__SHRT_MAX__ 32767\0"
 2198      52545F4D 
 2198      41585F5F 
 2198      20333237 
 2198      363700
 2199 07e7 01       		.byte	0x1
 2200 07e8 00       		.uleb128 0
 2201 07e9 5F5F494E 		.ascii "__INT_MAX__ 2147483647\0"
 2201      545F4D41 
 2201      585F5F20 
 2201      32313437 
 2201      34383336 
 2202 0800 01       		.byte	0x1
 2203 0801 00       		.uleb128 0
 2204 0802 5F5F4C4F 		.ascii "__LONG_MAX__ 2147483647L\0"
 2204      4E475F4D 
 2204      41585F5F 
 2204      20323134 
 2204      37343833 
 2205 081b 01       		.byte	0x1
 2206 081c 00       		.uleb128 0
 2207 081d 5F5F4C4F 		.ascii "__LONG_LONG_MAX__ 9223372036854775807LL\0"
 2207      4E475F4C 
 2207      4F4E475F 
 2207      4D41585F 
 2207      5F203932 
 2208 0845 01       		.byte	0x1
 2209 0846 00       		.uleb128 0
 2210 0847 5F5F5743 		.ascii "__WCHAR_MAX__ 65535\0"
GAS LISTING C:\Users\PRESID~1\AppData\Local\Temp\ccTZYDpu.s 			page 54


 2210      4841525F 
 2210      4D41585F 
 2210      5F203635 
 2210      35333500 
 2211 085b 01       		.byte	0x1
 2212 085c 00       		.uleb128 0
 2213 085d 5F5F5743 		.ascii "__WCHAR_MIN__ 0\0"
 2213      4841525F 
 2213      4D494E5F 
 2213      5F203000 
 2214 086d 01       		.byte	0x1
 2215 086e 00       		.uleb128 0
 2216 086f 5F5F5749 		.ascii "__WINT_MAX__ 65535\0"
 2216      4E545F4D 
 2216      41585F5F 
 2216      20363535 
 2216      333500
 2217 0882 01       		.byte	0x1
 2218 0883 00       		.uleb128 0
 2219 0884 5F5F5749 		.ascii "__WINT_MIN__ 0\0"
 2219      4E545F4D 
 2219      494E5F5F 
 2219      203000
 2220 0893 01       		.byte	0x1
 2221 0894 00       		.uleb128 0
 2222 0895 5F5F5054 		.ascii "__PTRDIFF_MAX__ 2147483647\0"
 2222      52444946 
 2222      465F4D41 
 2222      585F5F20 
 2222      32313437 
 2223 08b0 01       		.byte	0x1
 2224 08b1 00       		.uleb128 0
 2225 08b2 5F5F5349 		.ascii "__SIZE_MAX__ 4294967295U\0"
 2225      5A455F4D 
 2225      41585F5F 
 2225      20343239 
 2225      34393637 
 2226 08cb 01       		.byte	0x1
 2227 08cc 00       		.uleb128 0
 2228 08cd 5F5F494E 		.ascii "__INTMAX_MAX__ 9223372036854775807LL\0"
 2228      544D4158 
 2228      5F4D4158 
 2228      5F5F2039 
 2228      32323333 
 2229 08f2 01       		.byte	0x1
 2230 08f3 00       		.uleb128 0
 2231 08f4 5F5F494E 		.ascii "__INTMAX_C(c) c ## LL\0"
 2231      544D4158 
 2231      5F432863 
 2231      29206320 
 2231      2323204C 
 2232 090a 01       		.byte	0x1
 2233 090b 00       		.uleb128 0
 2234 090c 5F5F5549 		.ascii "__UINTMAX_MAX__ 18446744073709551615ULL\0"
 2234      4E544D41 
 2234      585F4D41 
 2234      585F5F20 
GAS LISTING C:\Users\PRESID~1\AppData\Local\Temp\ccTZYDpu.s 			page 55


 2234      31383434 
 2235 0934 01       		.byte	0x1
 2236 0935 00       		.uleb128 0
 2237 0936 5F5F5549 		.ascii "__UINTMAX_C(c) c ## ULL\0"
 2237      4E544D41 
 2237      585F4328 
 2237      63292063 
 2237      20232320 
 2238 094e 01       		.byte	0x1
 2239 094f 00       		.uleb128 0
 2240 0950 5F5F5349 		.ascii "__SIG_ATOMIC_MAX__ 2147483647\0"
 2240      475F4154 
 2240      4F4D4943 
 2240      5F4D4158 
 2240      5F5F2032 
 2241 096e 01       		.byte	0x1
 2242 096f 00       		.uleb128 0
 2243 0970 5F5F5349 		.ascii "__SIG_ATOMIC_MIN__ (-__SIG_ATOMIC_MAX__ - 1)\0"
 2243      475F4154 
 2243      4F4D4943 
 2243      5F4D494E 
 2243      5F5F2028 
 2244 099d 01       		.byte	0x1
 2245 099e 00       		.uleb128 0
 2246 099f 5F5F494E 		.ascii "__INT8_MAX__ 127\0"
 2246      54385F4D 
 2246      41585F5F 
 2246      20313237 
 2246      00
 2247 09b0 01       		.byte	0x1
 2248 09b1 00       		.uleb128 0
 2249 09b2 5F5F494E 		.ascii "__INT16_MAX__ 32767\0"
 2249      5431365F 
 2249      4D41585F 
 2249      5F203332 
 2249      37363700 
 2250 09c6 01       		.byte	0x1
 2251 09c7 00       		.uleb128 0
 2252 09c8 5F5F494E 		.ascii "__INT32_MAX__ 2147483647\0"
 2252      5433325F 
 2252      4D41585F 
 2252      5F203231 
 2252      34373438 
 2253 09e1 01       		.byte	0x1
 2254 09e2 00       		.uleb128 0
 2255 09e3 5F5F494E 		.ascii "__INT64_MAX__ 9223372036854775807LL\0"
 2255      5436345F 
 2255      4D41585F 
 2255      5F203932 
 2255      32333337 
 2256 0a07 01       		.byte	0x1
 2257 0a08 00       		.uleb128 0
 2258 0a09 5F5F5549 		.ascii "__UINT8_MAX__ 255\0"
 2258      4E54385F 
 2258      4D41585F 
 2258      5F203235 
 2258      3500
GAS LISTING C:\Users\PRESID~1\AppData\Local\Temp\ccTZYDpu.s 			page 56


 2259 0a1b 01       		.byte	0x1
 2260 0a1c 00       		.uleb128 0
 2261 0a1d 5F5F5549 		.ascii "__UINT16_MAX__ 65535\0"
 2261      4E543136 
 2261      5F4D4158 
 2261      5F5F2036 
 2261      35353335 
 2262 0a32 01       		.byte	0x1
 2263 0a33 00       		.uleb128 0
 2264 0a34 5F5F5549 		.ascii "__UINT32_MAX__ 4294967295U\0"
 2264      4E543332 
 2264      5F4D4158 
 2264      5F5F2034 
 2264      32393439 
 2265 0a4f 01       		.byte	0x1
 2266 0a50 00       		.uleb128 0
 2267 0a51 5F5F5549 		.ascii "__UINT64_MAX__ 18446744073709551615ULL\0"
 2267      4E543634 
 2267      5F4D4158 
 2267      5F5F2031 
 2267      38343436 
 2268 0a78 01       		.byte	0x1
 2269 0a79 00       		.uleb128 0
 2270 0a7a 5F5F494E 		.ascii "__INT_LEAST8_MAX__ 127\0"
 2270      545F4C45 
 2270      41535438 
 2270      5F4D4158 
 2270      5F5F2031 
 2271 0a91 01       		.byte	0x1
 2272 0a92 00       		.uleb128 0
 2273 0a93 5F5F494E 		.ascii "__INT8_C(c) c\0"
 2273      54385F43 
 2273      28632920 
 2273      6300
 2274 0aa1 01       		.byte	0x1
 2275 0aa2 00       		.uleb128 0
 2276 0aa3 5F5F494E 		.ascii "__INT_LEAST16_MAX__ 32767\0"
 2276      545F4C45 
 2276      41535431 
 2276      365F4D41 
 2276      585F5F20 
 2277 0abd 01       		.byte	0x1
 2278 0abe 00       		.uleb128 0
 2279 0abf 5F5F494E 		.ascii "__INT16_C(c) c\0"
 2279      5431365F 
 2279      43286329 
 2279      206300
 2280 0ace 01       		.byte	0x1
 2281 0acf 00       		.uleb128 0
 2282 0ad0 5F5F494E 		.ascii "__INT_LEAST32_MAX__ 2147483647\0"
 2282      545F4C45 
 2282      41535433 
 2282      325F4D41 
 2282      585F5F20 
 2283 0aef 01       		.byte	0x1
 2284 0af0 00       		.uleb128 0
 2285 0af1 5F5F494E 		.ascii "__INT32_C(c) c\0"
GAS LISTING C:\Users\PRESID~1\AppData\Local\Temp\ccTZYDpu.s 			page 57


 2285      5433325F 
 2285      43286329 
 2285      206300
 2286 0b00 01       		.byte	0x1
 2287 0b01 00       		.uleb128 0
 2288 0b02 5F5F494E 		.ascii "__INT_LEAST64_MAX__ 9223372036854775807LL\0"
 2288      545F4C45 
 2288      41535436 
 2288      345F4D41 
 2288      585F5F20 
 2289 0b2c 01       		.byte	0x1
 2290 0b2d 00       		.uleb128 0
 2291 0b2e 5F5F494E 		.ascii "__INT64_C(c) c ## LL\0"
 2291      5436345F 
 2291      43286329 
 2291      20632023 
 2291      23204C4C 
 2292 0b43 01       		.byte	0x1
 2293 0b44 00       		.uleb128 0
 2294 0b45 5F5F5549 		.ascii "__UINT_LEAST8_MAX__ 255\0"
 2294      4E545F4C 
 2294      45415354 
 2294      385F4D41 
 2294      585F5F20 
 2295 0b5d 01       		.byte	0x1
 2296 0b5e 00       		.uleb128 0
 2297 0b5f 5F5F5549 		.ascii "__UINT8_C(c) c\0"
 2297      4E54385F 
 2297      43286329 
 2297      206300
 2298 0b6e 01       		.byte	0x1
 2299 0b6f 00       		.uleb128 0
 2300 0b70 5F5F5549 		.ascii "__UINT_LEAST16_MAX__ 65535\0"
 2300      4E545F4C 
 2300      45415354 
 2300      31365F4D 
 2300      41585F5F 
 2301 0b8b 01       		.byte	0x1
 2302 0b8c 00       		.uleb128 0
 2303 0b8d 5F5F5549 		.ascii "__UINT16_C(c) c\0"
 2303      4E543136 
 2303      5F432863 
 2303      29206300 
 2304 0b9d 01       		.byte	0x1
 2305 0b9e 00       		.uleb128 0
 2306 0b9f 5F5F5549 		.ascii "__UINT_LEAST32_MAX__ 4294967295U\0"
 2306      4E545F4C 
 2306      45415354 
 2306      33325F4D 
 2306      41585F5F 
 2307 0bc0 01       		.byte	0x1
 2308 0bc1 00       		.uleb128 0
 2309 0bc2 5F5F5549 		.ascii "__UINT32_C(c) c ## U\0"
 2309      4E543332 
 2309      5F432863 
 2309      29206320 
 2309      23232055 
GAS LISTING C:\Users\PRESID~1\AppData\Local\Temp\ccTZYDpu.s 			page 58


 2310 0bd7 01       		.byte	0x1
 2311 0bd8 00       		.uleb128 0
 2312 0bd9 5F5F5549 		.ascii "__UINT_LEAST64_MAX__ 18446744073709551615ULL\0"
 2312      4E545F4C 
 2312      45415354 
 2312      36345F4D 
 2312      41585F5F 
 2313 0c06 01       		.byte	0x1
 2314 0c07 00       		.uleb128 0
 2315 0c08 5F5F5549 		.ascii "__UINT64_C(c) c ## ULL\0"
 2315      4E543634 
 2315      5F432863 
 2315      29206320 
 2315      23232055 
 2316 0c1f 01       		.byte	0x1
 2317 0c20 00       		.uleb128 0
 2318 0c21 5F5F494E 		.ascii "__INT_FAST8_MAX__ 127\0"
 2318      545F4641 
 2318      5354385F 
 2318      4D41585F 
 2318      5F203132 
 2319 0c37 01       		.byte	0x1
 2320 0c38 00       		.uleb128 0
 2321 0c39 5F5F494E 		.ascii "__INT_FAST16_MAX__ 32767\0"
 2321      545F4641 
 2321      53543136 
 2321      5F4D4158 
 2321      5F5F2033 
 2322 0c52 01       		.byte	0x1
 2323 0c53 00       		.uleb128 0
 2324 0c54 5F5F494E 		.ascii "__INT_FAST32_MAX__ 2147483647\0"
 2324      545F4641 
 2324      53543332 
 2324      5F4D4158 
 2324      5F5F2032 
 2325 0c72 01       		.byte	0x1
 2326 0c73 00       		.uleb128 0
 2327 0c74 5F5F494E 		.ascii "__INT_FAST64_MAX__ 9223372036854775807LL\0"
 2327      545F4641 
 2327      53543634 
 2327      5F4D4158 
 2327      5F5F2039 
 2328 0c9d 01       		.byte	0x1
 2329 0c9e 00       		.uleb128 0
 2330 0c9f 5F5F5549 		.ascii "__UINT_FAST8_MAX__ 255\0"
 2330      4E545F46 
 2330      41535438 
 2330      5F4D4158 
 2330      5F5F2032 
 2331 0cb6 01       		.byte	0x1
 2332 0cb7 00       		.uleb128 0
 2333 0cb8 5F5F5549 		.ascii "__UINT_FAST16_MAX__ 65535\0"
 2333      4E545F46 
 2333      41535431 
 2333      365F4D41 
 2333      585F5F20 
 2334 0cd2 01       		.byte	0x1
GAS LISTING C:\Users\PRESID~1\AppData\Local\Temp\ccTZYDpu.s 			page 59


 2335 0cd3 00       		.uleb128 0
 2336 0cd4 5F5F5549 		.ascii "__UINT_FAST32_MAX__ 4294967295U\0"
 2336      4E545F46 
 2336      41535433 
 2336      325F4D41 
 2336      585F5F20 
 2337 0cf4 01       		.byte	0x1
 2338 0cf5 00       		.uleb128 0
 2339 0cf6 5F5F5549 		.ascii "__UINT_FAST64_MAX__ 18446744073709551615ULL\0"
 2339      4E545F46 
 2339      41535436 
 2339      345F4D41 
 2339      585F5F20 
 2340 0d22 01       		.byte	0x1
 2341 0d23 00       		.uleb128 0
 2342 0d24 5F5F494E 		.ascii "__INTPTR_MAX__ 2147483647\0"
 2342      54505452 
 2342      5F4D4158 
 2342      5F5F2032 
 2342      31343734 
 2343 0d3e 01       		.byte	0x1
 2344 0d3f 00       		.uleb128 0
 2345 0d40 5F5F5549 		.ascii "__UINTPTR_MAX__ 4294967295U\0"
 2345      4E545054 
 2345      525F4D41 
 2345      585F5F20 
 2345      34323934 
 2346 0d5c 01       		.byte	0x1
 2347 0d5d 00       		.uleb128 0
 2348 0d5e 5F5F4743 		.ascii "__GCC_IEC_559 2\0"
 2348      435F4945 
 2348      435F3535 
 2348      39203200 
 2349 0d6e 01       		.byte	0x1
 2350 0d6f 00       		.uleb128 0
 2351 0d70 5F5F4743 		.ascii "__GCC_IEC_559_COMPLEX 2\0"
 2351      435F4945 
 2351      435F3535 
 2351      395F434F 
 2351      4D504C45 
 2352 0d88 01       		.byte	0x1
 2353 0d89 00       		.uleb128 0
 2354 0d8a 5F5F464C 		.ascii "__FLT_EVAL_METHOD__ 2\0"
 2354      545F4556 
 2354      414C5F4D 
 2354      4554484F 
 2354      445F5F20 
 2355 0da0 01       		.byte	0x1
 2356 0da1 00       		.uleb128 0
 2357 0da2 5F5F4445 		.ascii "__DEC_EVAL_METHOD__ 2\0"
 2357      435F4556 
 2357      414C5F4D 
 2357      4554484F 
 2357      445F5F20 
 2358 0db8 01       		.byte	0x1
 2359 0db9 00       		.uleb128 0
 2360 0dba 5F5F464C 		.ascii "__FLT_RADIX__ 2\0"
GAS LISTING C:\Users\PRESID~1\AppData\Local\Temp\ccTZYDpu.s 			page 60


 2360      545F5241 
 2360      4449585F 
 2360      5F203200 
 2361 0dca 01       		.byte	0x1
 2362 0dcb 00       		.uleb128 0
 2363 0dcc 5F5F464C 		.ascii "__FLT_MANT_DIG__ 24\0"
 2363      545F4D41 
 2363      4E545F44 
 2363      49475F5F 
 2363      20323400 
 2364 0de0 01       		.byte	0x1
 2365 0de1 00       		.uleb128 0
 2366 0de2 5F5F464C 		.ascii "__FLT_DIG__ 6\0"
 2366      545F4449 
 2366      475F5F20 
 2366      3600
 2367 0df0 01       		.byte	0x1
 2368 0df1 00       		.uleb128 0
 2369 0df2 5F5F464C 		.ascii "__FLT_MIN_EXP__ (-125)\0"
 2369      545F4D49 
 2369      4E5F4558 
 2369      505F5F20 
 2369      282D3132 
 2370 0e09 01       		.byte	0x1
 2371 0e0a 00       		.uleb128 0
 2372 0e0b 5F5F464C 		.ascii "__FLT_MIN_10_EXP__ (-37)\0"
 2372      545F4D49 
 2372      4E5F3130 
 2372      5F455850 
 2372      5F5F2028 
 2373 0e24 01       		.byte	0x1
 2374 0e25 00       		.uleb128 0
 2375 0e26 5F5F464C 		.ascii "__FLT_MAX_EXP__ 128\0"
 2375      545F4D41 
 2375      585F4558 
 2375      505F5F20 
 2375      31323800 
 2376 0e3a 01       		.byte	0x1
 2377 0e3b 00       		.uleb128 0
 2378 0e3c 5F5F464C 		.ascii "__FLT_MAX_10_EXP__ 38\0"
 2378      545F4D41 
 2378      585F3130 
 2378      5F455850 
 2378      5F5F2033 
 2379 0e52 01       		.byte	0x1
 2380 0e53 00       		.uleb128 0
 2381 0e54 5F5F464C 		.ascii "__FLT_DECIMAL_DIG__ 9\0"
 2381      545F4445 
 2381      43494D41 
 2381      4C5F4449 
 2381      475F5F20 
 2382 0e6a 01       		.byte	0x1
 2383 0e6b 00       		.uleb128 0
 2384 0e6c 5F5F464C 		.ascii "__FLT_MAX__ 3.40282346638528859812e+38F\0"
 2384      545F4D41 
 2384      585F5F20 
 2384      332E3430 
GAS LISTING C:\Users\PRESID~1\AppData\Local\Temp\ccTZYDpu.s 			page 61


 2384      32383233 
 2385 0e94 01       		.byte	0x1
 2386 0e95 00       		.uleb128 0
 2387 0e96 5F5F464C 		.ascii "__FLT_MIN__ 1.17549435082228750797e-38F\0"
 2387      545F4D49 
 2387      4E5F5F20 
 2387      312E3137 
 2387      35343934 
 2388 0ebe 01       		.byte	0x1
 2389 0ebf 00       		.uleb128 0
 2390 0ec0 5F5F464C 		.ascii "__FLT_EPSILON__ 1.19209289550781250000e-7F\0"
 2390      545F4550 
 2390      53494C4F 
 2390      4E5F5F20 
 2390      312E3139 
 2391 0eeb 01       		.byte	0x1
 2392 0eec 00       		.uleb128 0
 2393 0eed 5F5F464C 		.ascii "__FLT_DENORM_MIN__ 1.40129846432481707092e-45F\0"
 2393      545F4445 
 2393      4E4F524D 
 2393      5F4D494E 
 2393      5F5F2031 
 2394 0f1c 01       		.byte	0x1
 2395 0f1d 00       		.uleb128 0
 2396 0f1e 5F5F464C 		.ascii "__FLT_HAS_DENORM__ 1\0"
 2396      545F4841 
 2396      535F4445 
 2396      4E4F524D 
 2396      5F5F2031 
 2397 0f33 01       		.byte	0x1
 2398 0f34 00       		.uleb128 0
 2399 0f35 5F5F464C 		.ascii "__FLT_HAS_INFINITY__ 1\0"
 2399      545F4841 
 2399      535F494E 
 2399      46494E49 
 2399      54595F5F 
 2400 0f4c 01       		.byte	0x1
 2401 0f4d 00       		.uleb128 0
 2402 0f4e 5F5F464C 		.ascii "__FLT_HAS_QUIET_NAN__ 1\0"
 2402      545F4841 
 2402      535F5155 
 2402      4945545F 
 2402      4E414E5F 
 2403 0f66 01       		.byte	0x1
 2404 0f67 00       		.uleb128 0
 2405 0f68 5F5F4442 		.ascii "__DBL_MANT_DIG__ 53\0"
 2405      4C5F4D41 
 2405      4E545F44 
 2405      49475F5F 
 2405      20353300 
 2406 0f7c 01       		.byte	0x1
 2407 0f7d 00       		.uleb128 0
 2408 0f7e 5F5F4442 		.ascii "__DBL_DIG__ 15\0"
 2408      4C5F4449 
 2408      475F5F20 
 2408      313500
 2409 0f8d 01       		.byte	0x1
GAS LISTING C:\Users\PRESID~1\AppData\Local\Temp\ccTZYDpu.s 			page 62


 2410 0f8e 00       		.uleb128 0
 2411 0f8f 5F5F4442 		.ascii "__DBL_MIN_EXP__ (-1021)\0"
 2411      4C5F4D49 
 2411      4E5F4558 
 2411      505F5F20 
 2411      282D3130 
 2412 0fa7 01       		.byte	0x1
 2413 0fa8 00       		.uleb128 0
 2414 0fa9 5F5F4442 		.ascii "__DBL_MIN_10_EXP__ (-307)\0"
 2414      4C5F4D49 
 2414      4E5F3130 
 2414      5F455850 
 2414      5F5F2028 
 2415 0fc3 01       		.byte	0x1
 2416 0fc4 00       		.uleb128 0
 2417 0fc5 5F5F4442 		.ascii "__DBL_MAX_EXP__ 1024\0"
 2417      4C5F4D41 
 2417      585F4558 
 2417      505F5F20 
 2417      31303234 
 2418 0fda 01       		.byte	0x1
 2419 0fdb 00       		.uleb128 0
 2420 0fdc 5F5F4442 		.ascii "__DBL_MAX_10_EXP__ 308\0"
 2420      4C5F4D41 
 2420      585F3130 
 2420      5F455850 
 2420      5F5F2033 
 2421 0ff3 01       		.byte	0x1
 2422 0ff4 00       		.uleb128 0
 2423 0ff5 5F5F4442 		.ascii "__DBL_DECIMAL_DIG__ 17\0"
 2423      4C5F4445 
 2423      43494D41 
 2423      4C5F4449 
 2423      475F5F20 
 2424 100c 01       		.byte	0x1
 2425 100d 00       		.uleb128 0
 2426 100e 5F5F4442 		.ascii "__DBL_MAX__ ((double)1.79769313486231570815e+308L)\0"
 2426      4C5F4D41 
 2426      585F5F20 
 2426      2828646F 
 2426      75626C65 
 2427 1041 01       		.byte	0x1
 2428 1042 00       		.uleb128 0
 2429 1043 5F5F4442 		.ascii "__DBL_MIN__ ((double)2.22507385850720138309e-308L)\0"
 2429      4C5F4D49 
 2429      4E5F5F20 
 2429      2828646F 
 2429      75626C65 
 2430 1076 01       		.byte	0x1
 2431 1077 00       		.uleb128 0
 2432 1078 5F5F4442 		.ascii "__DBL_EPSILON__ ((double)2.22044604925031308085e-16L)\0"
 2432      4C5F4550 
 2432      53494C4F 
 2432      4E5F5F20 
 2432      2828646F 
 2433 10ae 01       		.byte	0x1
 2434 10af 00       		.uleb128 0
GAS LISTING C:\Users\PRESID~1\AppData\Local\Temp\ccTZYDpu.s 			page 63


 2435 10b0 5F5F4442 		.ascii "__DBL_DENORM_MIN__ ((double)4.94065645841246544177e-324L)\0"
 2435      4C5F4445 
 2435      4E4F524D 
 2435      5F4D494E 
 2435      5F5F2028 
 2436 10ea 01       		.byte	0x1
 2437 10eb 00       		.uleb128 0
 2438 10ec 5F5F4442 		.ascii "__DBL_HAS_DENORM__ 1\0"
 2438      4C5F4841 
 2438      535F4445 
 2438      4E4F524D 
 2438      5F5F2031 
 2439 1101 01       		.byte	0x1
 2440 1102 00       		.uleb128 0
 2441 1103 5F5F4442 		.ascii "__DBL_HAS_INFINITY__ 1\0"
 2441      4C5F4841 
 2441      535F494E 
 2441      46494E49 
 2441      54595F5F 
 2442 111a 01       		.byte	0x1
 2443 111b 00       		.uleb128 0
 2444 111c 5F5F4442 		.ascii "__DBL_HAS_QUIET_NAN__ 1\0"
 2444      4C5F4841 
 2444      535F5155 
 2444      4945545F 
 2444      4E414E5F 
 2445 1134 01       		.byte	0x1
 2446 1135 00       		.uleb128 0
 2447 1136 5F5F4C44 		.ascii "__LDBL_MANT_DIG__ 64\0"
 2447      424C5F4D 
 2447      414E545F 
 2447      4449475F 
 2447      5F203634 
 2448 114b 01       		.byte	0x1
 2449 114c 00       		.uleb128 0
 2450 114d 5F5F4C44 		.ascii "__LDBL_DIG__ 18\0"
 2450      424C5F44 
 2450      49475F5F 
 2450      20313800 
 2451 115d 01       		.byte	0x1
 2452 115e 00       		.uleb128 0
 2453 115f 5F5F4C44 		.ascii "__LDBL_MIN_EXP__ (-16381)\0"
 2453      424C5F4D 
 2453      494E5F45 
 2453      58505F5F 
 2453      20282D31 
 2454 1179 01       		.byte	0x1
 2455 117a 00       		.uleb128 0
 2456 117b 5F5F4C44 		.ascii "__LDBL_MIN_10_EXP__ (-4931)\0"
 2456      424C5F4D 
 2456      494E5F31 
 2456      305F4558 
 2456      505F5F20 
 2457 1197 01       		.byte	0x1
 2458 1198 00       		.uleb128 0
 2459 1199 5F5F4C44 		.ascii "__LDBL_MAX_EXP__ 16384\0"
 2459      424C5F4D 
GAS LISTING C:\Users\PRESID~1\AppData\Local\Temp\ccTZYDpu.s 			page 64


 2459      41585F45 
 2459      58505F5F 
 2459      20313633 
 2460 11b0 01       		.byte	0x1
 2461 11b1 00       		.uleb128 0
 2462 11b2 5F5F4C44 		.ascii "__LDBL_MAX_10_EXP__ 4932\0"
 2462      424C5F4D 
 2462      41585F31 
 2462      305F4558 
 2462      505F5F20 
 2463 11cb 01       		.byte	0x1
 2464 11cc 00       		.uleb128 0
 2465 11cd 5F5F4445 		.ascii "__DECIMAL_DIG__ 21\0"
 2465      43494D41 
 2465      4C5F4449 
 2465      475F5F20 
 2465      323100
 2466 11e0 01       		.byte	0x1
 2467 11e1 00       		.uleb128 0
 2468 11e2 5F5F4C44 		.ascii "__LDBL_MAX__ 1.18973149535723176502e+4932L\0"
 2468      424C5F4D 
 2468      41585F5F 
 2468      20312E31 
 2468      38393733 
 2469 120d 01       		.byte	0x1
 2470 120e 00       		.uleb128 0
 2471 120f 5F5F4C44 		.ascii "__LDBL_MIN__ 3.36210314311209350626e-4932L\0"
 2471      424C5F4D 
 2471      494E5F5F 
 2471      20332E33 
 2471      36323130 
 2472 123a 01       		.byte	0x1
 2473 123b 00       		.uleb128 0
 2474 123c 5F5F4C44 		.ascii "__LDBL_EPSILON__ 1.08420217248550443401e-19L\0"
 2474      424C5F45 
 2474      5053494C 
 2474      4F4E5F5F 
 2474      20312E30 
 2475 1269 01       		.byte	0x1
 2476 126a 00       		.uleb128 0
 2477 126b 5F5F4C44 		.ascii "__LDBL_DENORM_MIN__ 3.64519953188247460253e-4951L\0"
 2477      424C5F44 
 2477      454E4F52 
 2477      4D5F4D49 
 2477      4E5F5F20 
 2478 129d 01       		.byte	0x1
 2479 129e 00       		.uleb128 0
 2480 129f 5F5F4C44 		.ascii "__LDBL_HAS_DENORM__ 1\0"
 2480      424C5F48 
 2480      41535F44 
 2480      454E4F52 
 2480      4D5F5F20 
 2481 12b5 01       		.byte	0x1
 2482 12b6 00       		.uleb128 0
 2483 12b7 5F5F4C44 		.ascii "__LDBL_HAS_INFINITY__ 1\0"
 2483      424C5F48 
 2483      41535F49 
GAS LISTING C:\Users\PRESID~1\AppData\Local\Temp\ccTZYDpu.s 			page 65


 2483      4E46494E 
 2483      4954595F 
 2484 12cf 01       		.byte	0x1
 2485 12d0 00       		.uleb128 0
 2486 12d1 5F5F4C44 		.ascii "__LDBL_HAS_QUIET_NAN__ 1\0"
 2486      424C5F48 
 2486      41535F51 
 2486      55494554 
 2486      5F4E414E 
 2487 12ea 01       		.byte	0x1
 2488 12eb 00       		.uleb128 0
 2489 12ec 5F5F4445 		.ascii "__DEC32_MANT_DIG__ 7\0"
 2489      4333325F 
 2489      4D414E54 
 2489      5F444947 
 2489      5F5F2037 
 2490 1301 01       		.byte	0x1
 2491 1302 00       		.uleb128 0
 2492 1303 5F5F4445 		.ascii "__DEC32_MIN_EXP__ (-94)\0"
 2492      4333325F 
 2492      4D494E5F 
 2492      4558505F 
 2492      5F20282D 
 2493 131b 01       		.byte	0x1
 2494 131c 00       		.uleb128 0
 2495 131d 5F5F4445 		.ascii "__DEC32_MAX_EXP__ 97\0"
 2495      4333325F 
 2495      4D41585F 
 2495      4558505F 
 2495      5F203937 
 2496 1332 01       		.byte	0x1
 2497 1333 00       		.uleb128 0
 2498 1334 5F5F4445 		.ascii "__DEC32_MIN__ 1E-95DF\0"
 2498      4333325F 
 2498      4D494E5F 
 2498      5F203145 
 2498      2D393544 
 2499 134a 01       		.byte	0x1
 2500 134b 00       		.uleb128 0
 2501 134c 5F5F4445 		.ascii "__DEC32_MAX__ 9.999999E96DF\0"
 2501      4333325F 
 2501      4D41585F 
 2501      5F20392E 
 2501      39393939 
 2502 1368 01       		.byte	0x1
 2503 1369 00       		.uleb128 0
 2504 136a 5F5F4445 		.ascii "__DEC32_EPSILON__ 1E-6DF\0"
 2504      4333325F 
 2504      45505349 
 2504      4C4F4E5F 
 2504      5F203145 
 2505 1383 01       		.byte	0x1
 2506 1384 00       		.uleb128 0
 2507 1385 5F5F4445 		.ascii "__DEC32_SUBNORMAL_MIN__ 0.000001E-95DF\0"
 2507      4333325F 
 2507      5355424E 
 2507      4F524D41 
GAS LISTING C:\Users\PRESID~1\AppData\Local\Temp\ccTZYDpu.s 			page 66


 2507      4C5F4D49 
 2508 13ac 01       		.byte	0x1
 2509 13ad 00       		.uleb128 0
 2510 13ae 5F5F4445 		.ascii "__DEC64_MANT_DIG__ 16\0"
 2510      4336345F 
 2510      4D414E54 
 2510      5F444947 
 2510      5F5F2031 
 2511 13c4 01       		.byte	0x1
 2512 13c5 00       		.uleb128 0
 2513 13c6 5F5F4445 		.ascii "__DEC64_MIN_EXP__ (-382)\0"
 2513      4336345F 
 2513      4D494E5F 
 2513      4558505F 
 2513      5F20282D 
 2514 13df 01       		.byte	0x1
 2515 13e0 00       		.uleb128 0
 2516 13e1 5F5F4445 		.ascii "__DEC64_MAX_EXP__ 385\0"
 2516      4336345F 
 2516      4D41585F 
 2516      4558505F 
 2516      5F203338 
 2517 13f7 01       		.byte	0x1
 2518 13f8 00       		.uleb128 0
 2519 13f9 5F5F4445 		.ascii "__DEC64_MIN__ 1E-383DD\0"
 2519      4336345F 
 2519      4D494E5F 
 2519      5F203145 
 2519      2D333833 
 2520 1410 01       		.byte	0x1
 2521 1411 00       		.uleb128 0
 2522 1412 5F5F4445 		.ascii "__DEC64_MAX__ 9.999999999999999E384DD\0"
 2522      4336345F 
 2522      4D41585F 
 2522      5F20392E 
 2522      39393939 
 2523 1438 01       		.byte	0x1
 2524 1439 00       		.uleb128 0
 2525 143a 5F5F4445 		.ascii "__DEC64_EPSILON__ 1E-15DD\0"
 2525      4336345F 
 2525      45505349 
 2525      4C4F4E5F 
 2525      5F203145 
 2526 1454 01       		.byte	0x1
 2527 1455 00       		.uleb128 0
 2528 1456 5F5F4445 		.ascii "__DEC64_SUBNORMAL_MIN__ 0.000000000000001E-383DD\0"
 2528      4336345F 
 2528      5355424E 
 2528      4F524D41 
 2528      4C5F4D49 
 2529 1487 01       		.byte	0x1
 2530 1488 00       		.uleb128 0
 2531 1489 5F5F4445 		.ascii "__DEC128_MANT_DIG__ 34\0"
 2531      43313238 
 2531      5F4D414E 
 2531      545F4449 
 2531      475F5F20 
GAS LISTING C:\Users\PRESID~1\AppData\Local\Temp\ccTZYDpu.s 			page 67


 2532 14a0 01       		.byte	0x1
 2533 14a1 00       		.uleb128 0
 2534 14a2 5F5F4445 		.ascii "__DEC128_MIN_EXP__ (-6142)\0"
 2534      43313238 
 2534      5F4D494E 
 2534      5F455850 
 2534      5F5F2028 
 2535 14bd 01       		.byte	0x1
 2536 14be 00       		.uleb128 0
 2537 14bf 5F5F4445 		.ascii "__DEC128_MAX_EXP__ 6145\0"
 2537      43313238 
 2537      5F4D4158 
 2537      5F455850 
 2537      5F5F2036 
 2538 14d7 01       		.byte	0x1
 2539 14d8 00       		.uleb128 0
 2540 14d9 5F5F4445 		.ascii "__DEC128_MIN__ 1E-6143DL\0"
 2540      43313238 
 2540      5F4D494E 
 2540      5F5F2031 
 2540      452D3631 
 2541 14f2 01       		.byte	0x1
 2542 14f3 00       		.uleb128 0
 2543 14f4 5F5F4445 		.ascii "__DEC128_MAX__ 9.999999999999999999999999999999999E6144DL\0"
 2543      43313238 
 2543      5F4D4158 
 2543      5F5F2039 
 2543      2E393939 
 2544 152e 01       		.byte	0x1
 2545 152f 00       		.uleb128 0
 2546 1530 5F5F4445 		.ascii "__DEC128_EPSILON__ 1E-33DL\0"
 2546      43313238 
 2546      5F455053 
 2546      494C4F4E 
 2546      5F5F2031 
 2547 154b 01       		.byte	0x1
 2548 154c 00       		.uleb128 0
 2549 154d 5F5F4445 		.ascii "__DEC128_SUBNORMAL_MIN__ 0.000000000000000000000000000000001E-6143DL\0"
 2549      43313238 
 2549      5F535542 
 2549      4E4F524D 
 2549      414C5F4D 
 2550 1592 01       		.byte	0x1
 2551 1593 00       		.uleb128 0
 2552 1594 5F5F5245 		.ascii "__REGISTER_PREFIX__ \0"
 2552      47495354 
 2552      45525F50 
 2552      52454649 
 2552      585F5F20 
 2553 15a9 01       		.byte	0x1
 2554 15aa 00       		.uleb128 0
 2555 15ab 5F5F5553 		.ascii "__USER_LABEL_PREFIX__ _\0"
 2555      45525F4C 
 2555      4142454C 
 2555      5F505245 
 2555      4649585F 
 2556 15c3 01       		.byte	0x1
GAS LISTING C:\Users\PRESID~1\AppData\Local\Temp\ccTZYDpu.s 			page 68


 2557 15c4 00       		.uleb128 0
 2558 15c5 5F5F474E 		.ascii "__GNUC_GNU_INLINE__ 1\0"
 2558      55435F47 
 2558      4E555F49 
 2558      4E4C494E 
 2558      455F5F20 
 2559 15db 01       		.byte	0x1
 2560 15dc 00       		.uleb128 0
 2561 15dd 5F5F4E4F 		.ascii "__NO_INLINE__ 1\0"
 2561      5F494E4C 
 2561      494E455F 
 2561      5F203100 
 2562 15ed 01       		.byte	0x1
 2563 15ee 00       		.uleb128 0
 2564 15ef 5F5F5354 		.ascii "__STRICT_ANSI__ 1\0"
 2564      52494354 
 2564      5F414E53 
 2564      495F5F20 
 2564      3100
 2565 1601 01       		.byte	0x1
 2566 1602 00       		.uleb128 0
 2567 1603 5F5F4743 		.ascii "__GCC_ATOMIC_BOOL_LOCK_FREE 1\0"
 2567      435F4154 
 2567      4F4D4943 
 2567      5F424F4F 
 2567      4C5F4C4F 
 2568 1621 01       		.byte	0x1
 2569 1622 00       		.uleb128 0
 2570 1623 5F5F4743 		.ascii "__GCC_ATOMIC_CHAR_LOCK_FREE 1\0"
 2570      435F4154 
 2570      4F4D4943 
 2570      5F434841 
 2570      525F4C4F 
 2571 1641 01       		.byte	0x1
 2572 1642 00       		.uleb128 0
 2573 1643 5F5F4743 		.ascii "__GCC_ATOMIC_CHAR16_T_LOCK_FREE 1\0"
 2573      435F4154 
 2573      4F4D4943 
 2573      5F434841 
 2573      5231365F 
 2574 1665 01       		.byte	0x1
 2575 1666 00       		.uleb128 0
 2576 1667 5F5F4743 		.ascii "__GCC_ATOMIC_CHAR32_T_LOCK_FREE 1\0"
 2576      435F4154 
 2576      4F4D4943 
 2576      5F434841 
 2576      5233325F 
 2577 1689 01       		.byte	0x1
 2578 168a 00       		.uleb128 0
 2579 168b 5F5F4743 		.ascii "__GCC_ATOMIC_WCHAR_T_LOCK_FREE 1\0"
 2579      435F4154 
 2579      4F4D4943 
 2579      5F574348 
 2579      41525F54 
 2580 16ac 01       		.byte	0x1
 2581 16ad 00       		.uleb128 0
 2582 16ae 5F5F4743 		.ascii "__GCC_ATOMIC_SHORT_LOCK_FREE 1\0"
GAS LISTING C:\Users\PRESID~1\AppData\Local\Temp\ccTZYDpu.s 			page 69


 2582      435F4154 
 2582      4F4D4943 
 2582      5F53484F 
 2582      52545F4C 
 2583 16cd 01       		.byte	0x1
 2584 16ce 00       		.uleb128 0
 2585 16cf 5F5F4743 		.ascii "__GCC_ATOMIC_INT_LOCK_FREE 1\0"
 2585      435F4154 
 2585      4F4D4943 
 2585      5F494E54 
 2585      5F4C4F43 
 2586 16ec 01       		.byte	0x1
 2587 16ed 00       		.uleb128 0
 2588 16ee 5F5F4743 		.ascii "__GCC_ATOMIC_LONG_LOCK_FREE 1\0"
 2588      435F4154 
 2588      4F4D4943 
 2588      5F4C4F4E 
 2588      475F4C4F 
 2589 170c 01       		.byte	0x1
 2590 170d 00       		.uleb128 0
 2591 170e 5F5F4743 		.ascii "__GCC_ATOMIC_LLONG_LOCK_FREE 1\0"
 2591      435F4154 
 2591      4F4D4943 
 2591      5F4C4C4F 
 2591      4E475F4C 
 2592 172d 01       		.byte	0x1
 2593 172e 00       		.uleb128 0
 2594 172f 5F5F4743 		.ascii "__GCC_ATOMIC_TEST_AND_SET_TRUEVAL 1\0"
 2594      435F4154 
 2594      4F4D4943 
 2594      5F544553 
 2594      545F414E 
 2595 1753 01       		.byte	0x1
 2596 1754 00       		.uleb128 0
 2597 1755 5F5F4743 		.ascii "__GCC_ATOMIC_POINTER_LOCK_FREE 1\0"
 2597      435F4154 
 2597      4F4D4943 
 2597      5F504F49 
 2597      4E544552 
 2598 1776 01       		.byte	0x1
 2599 1777 00       		.uleb128 0
 2600 1778 5F5F4743 		.ascii "__GCC_HAVE_DWARF2_CFI_ASM 1\0"
 2600      435F4841 
 2600      56455F44 
 2600      57415246 
 2600      325F4346 
 2601 1794 01       		.byte	0x1
 2602 1795 00       		.uleb128 0
 2603 1796 5F5F5052 		.ascii "__PRAGMA_REDEFINE_EXTNAME 1\0"
 2603      41474D41 
 2603      5F524544 
 2603      4546494E 
 2603      455F4558 
 2604 17b2 01       		.byte	0x1
 2605 17b3 00       		.uleb128 0
 2606 17b4 5F5F5349 		.ascii "__SIZEOF_WCHAR_T__ 2\0"
 2606      5A454F46 
GAS LISTING C:\Users\PRESID~1\AppData\Local\Temp\ccTZYDpu.s 			page 70


 2606      5F574348 
 2606      41525F54 
 2606      5F5F2032 
 2607 17c9 01       		.byte	0x1
 2608 17ca 00       		.uleb128 0
 2609 17cb 5F5F5349 		.ascii "__SIZEOF_WINT_T__ 2\0"
 2609      5A454F46 
 2609      5F57494E 
 2609      545F545F 
 2609      5F203200 
 2610 17df 01       		.byte	0x1
 2611 17e0 00       		.uleb128 0
 2612 17e1 5F5F5349 		.ascii "__SIZEOF_PTRDIFF_T__ 4\0"
 2612      5A454F46 
 2612      5F505452 
 2612      44494646 
 2612      5F545F5F 
 2613 17f8 01       		.byte	0x1
 2614 17f9 00       		.uleb128 0
 2615 17fa 5F5F6933 		.ascii "__i386 1\0"
 2615      38362031 
 2615      00
 2616 1803 01       		.byte	0x1
 2617 1804 00       		.uleb128 0
 2618 1805 5F5F6933 		.ascii "__i386__ 1\0"
 2618      38365F5F 
 2618      203100
 2619 1810 01       		.byte	0x1
 2620 1811 00       		.uleb128 0
 2621 1812 5F5F4154 		.ascii "__ATOMIC_HLE_ACQUIRE 65536\0"
 2621      4F4D4943 
 2621      5F484C45 
 2621      5F414351 
 2621      55495245 
 2622 182d 01       		.byte	0x1
 2623 182e 00       		.uleb128 0
 2624 182f 5F5F4154 		.ascii "__ATOMIC_HLE_RELEASE 131072\0"
 2624      4F4D4943 
 2624      5F484C45 
 2624      5F52454C 
 2624      45415345 
 2625 184b 01       		.byte	0x1
 2626 184c 00       		.uleb128 0
 2627 184d 5F5F7475 		.ascii "__tune_i386__ 1\0"
 2627      6E655F69 
 2627      3338365F 
 2627      5F203100 
 2628 185d 01       		.byte	0x1
 2629 185e 00       		.uleb128 0
 2630 185f 5F5F636F 		.ascii "__code_model_32__ 1\0"
 2630      64655F6D 
 2630      6F64656C 
 2630      5F33325F 
 2630      5F203100 
 2631 1873 01       		.byte	0x1
 2632 1874 00       		.uleb128 0
 2633 1875 5F583836 		.ascii "_X86_ 1\0"
GAS LISTING C:\Users\PRESID~1\AppData\Local\Temp\ccTZYDpu.s 			page 71


 2633      5F203100 
 2634 187d 01       		.byte	0x1
 2635 187e 00       		.uleb128 0
 2636 187f 5F5F7374 		.ascii "__stdcall __attribute__((__stdcall__))\0"
 2636      6463616C 
 2636      6C205F5F 
 2636      61747472 
 2636      69627574 
 2637 18a6 01       		.byte	0x1
 2638 18a7 00       		.uleb128 0
 2639 18a8 5F5F6661 		.ascii "__fastcall __attribute__((__fastcall__))\0"
 2639      73746361 
 2639      6C6C205F 
 2639      5F617474 
 2639      72696275 
 2640 18d1 01       		.byte	0x1
 2641 18d2 00       		.uleb128 0
 2642 18d3 5F5F7468 		.ascii "__thiscall __attribute__((__thiscall__))\0"
 2642      69736361 
 2642      6C6C205F 
 2642      5F617474 
 2642      72696275 
 2643 18fc 01       		.byte	0x1
 2644 18fd 00       		.uleb128 0
 2645 18fe 5F5F6364 		.ascii "__cdecl __attribute__((__cdecl__))\0"
 2645      65636C20 
 2645      5F5F6174 
 2645      74726962 
 2645      7574655F 
 2646 1921 01       		.byte	0x1
 2647 1922 00       		.uleb128 0
 2648 1923 5F5F4758 		.ascii "__GXX_MERGED_TYPEINFO_NAMES 0\0"
 2648      585F4D45 
 2648      52474544 
 2648      5F545950 
 2648      45494E46 
 2649 1941 01       		.byte	0x1
 2650 1942 00       		.uleb128 0
 2651 1943 5F5F4758 		.ascii "__GXX_TYPEINFO_EQUALITY_INLINE 0\0"
 2651      585F5459 
 2651      5045494E 
 2651      464F5F45 
 2651      5155414C 
 2652 1964 01       		.byte	0x1
 2653 1965 00       		.uleb128 0
 2654 1966 5F5F4D53 		.ascii "__MSVCRT__ 1\0"
 2654      56435254 
 2654      5F5F2031 
 2654      00
 2655 1973 01       		.byte	0x1
 2656 1974 00       		.uleb128 0
 2657 1975 5F5F4D49 		.ascii "__MINGW32__ 1\0"
 2657      4E475733 
 2657      325F5F20 
 2657      3100
 2658 1983 01       		.byte	0x1
 2659 1984 00       		.uleb128 0
GAS LISTING C:\Users\PRESID~1\AppData\Local\Temp\ccTZYDpu.s 			page 72


 2660 1985 5F57494E 		.ascii "_WIN32 1\0"
 2660      33322031 
 2660      00
 2661 198e 01       		.byte	0x1
 2662 198f 00       		.uleb128 0
 2663 1990 5F5F5749 		.ascii "__WIN32 1\0"
 2663      4E333220 
 2663      3100
 2664 199a 01       		.byte	0x1
 2665 199b 00       		.uleb128 0
 2666 199c 5F5F5749 		.ascii "__WIN32__ 1\0"
 2666      4E33325F 
 2666      5F203100 
 2667 19a8 01       		.byte	0x1
 2668 19a9 00       		.uleb128 0
 2669 19aa 5F5F5749 		.ascii "__WINNT 1\0"
 2669      4E4E5420 
 2669      3100
 2670 19b4 01       		.byte	0x1
 2671 19b5 00       		.uleb128 0
 2672 19b6 5F5F5749 		.ascii "__WINNT__ 1\0"
 2672      4E4E545F 
 2672      5F203100 
 2673 19c2 01       		.byte	0x1
 2674 19c3 00       		.uleb128 0
 2675 19c4 5F494E54 		.ascii "_INTEGRAL_MAX_BITS 64\0"
 2675      45475241 
 2675      4C5F4D41 
 2675      585F4249 
 2675      54532036 
 2676 19da 01       		.byte	0x1
 2677 19db 00       		.uleb128 0
 2678 19dc 5F5F6465 		.ascii "__declspec(x) __attribute__((x))\0"
 2678      636C7370 
 2678      65632878 
 2678      29205F5F 
 2678      61747472 
 2679 19fd 01       		.byte	0x1
 2680 19fe 00       		.uleb128 0
 2681 19ff 5F5F4445 		.ascii "__DECIMAL_BID_FORMAT__ 1\0"
 2681      43494D41 
 2681      4C5F4249 
 2681      445F464F 
 2681      524D4154 
 2682 1a18 01       		.byte	0x1
 2683 1a19 00       		.uleb128 0
 2684 1a1a 4346475F 		.ascii "CFG_PROCESSOR 3\0"
 2684      50524F43 
 2684      4553534F 
 2684      52203300 
 2685 1a2a 03       		.byte	0x3
 2686 1a2b 00       		.uleb128 0
 2687 1a2c 01       		.uleb128 0x1
 2688              		.file 5 "E:/NeuOrga/Programmieren/c_cpp/github_os/input/src/os_base/os_firstinc.h"
 2689 1a2d 03       		.byte	0x3
 2690 1a2e 01       		.uleb128 0x1
 2691 1a2f 05       		.uleb128 0x5
GAS LISTING C:\Users\PRESID~1\AppData\Local\Temp\ccTZYDpu.s 			page 73


 2692 1a30 01       		.byte	0x1
 2693 1a31 02       		.uleb128 0x2
 2694 1a32 5F4F535F 		.ascii "_OS_FIRSTINC_H_ \0"
 2694      46495253 
 2694      54494E43 
 2694      5F485F20 
 2694      00
 2695              		.file 6 "E:/NeuOrga/Programmieren/c_cpp/github_os/input/src/os_base/../os_config.h"
 2696 1a43 03       		.byte	0x3
 2697 1a44 04       		.uleb128 0x4
 2698 1a45 06       		.uleb128 0x6
 2699 1a46 01       		.byte	0x1
 2700 1a47 02       		.uleb128 0x2
 2701 1a48 5F4F535F 		.ascii "_OS_CONFIG_H_ \0"
 2701      434F4E46 
 2701      49475F48 
 2701      5F2000
 2702 1a57 01       		.byte	0x1
 2703 1a58 05       		.uleb128 0x5
 2704 1a59 494E5445 		.ascii "INTEGER_LLP64_IL32P64 1u\0"
 2704      4745525F 
 2704      4C4C5036 
 2704      345F494C 
 2704      33325036 
 2705 1a72 01       		.byte	0x1
 2706 1a73 06       		.uleb128 0x6
 2707 1a74 494E5445 		.ascii "INTEGER_LP64_I32LP64 2u\0"
 2707      4745525F 
 2707      4C503634 
 2707      5F493332 
 2707      4C503634 
 2708 1a8c 01       		.byte	0x1
 2709 1a8d 07       		.uleb128 0x7
 2710 1a8e 494E5445 		.ascii "INTEGER_ILP64 3u\0"
 2710      4745525F 
 2710      494C5036 
 2710      34203375 
 2710      00
 2711 1a9f 01       		.byte	0x1
 2712 1aa0 08       		.uleb128 0x8
 2713 1aa1 494E5445 		.ascii "INTEGER_SILP64 4u\0"
 2713      4745525F 
 2713      53494C50 
 2713      36342034 
 2713      7500
 2714 1ab3 01       		.byte	0x1
 2715 1ab4 09       		.uleb128 0x9
 2716 1ab5 494E5445 		.ascii "INTEGER_MODEL INTEGER_LLP64_IL32P64\0"
 2716      4745525F 
 2716      4D4F4445 
 2716      4C20494E 
 2716      54454745 
 2717 1ad9 01       		.byte	0x1
 2718 1ada 0C       		.uleb128 0xc
 2719 1adb 4350505F 		.ascii "CPP_VERSION_NONE 0u\0"
 2719      56455253 
 2719      494F4E5F 
GAS LISTING C:\Users\PRESID~1\AppData\Local\Temp\ccTZYDpu.s 			page 74


 2719      4E4F4E45 
 2719      20307500 
 2720 1aef 01       		.byte	0x1
 2721 1af0 0D       		.uleb128 0xd
 2722 1af1 4350505F 		.ascii "CPP_VERSION_1998 1u\0"
 2722      56455253 
 2722      494F4E5F 
 2722      31393938 
 2722      20317500 
 2723 1b05 01       		.byte	0x1
 2724 1b06 0E       		.uleb128 0xe
 2725 1b07 4350505F 		.ascii "CPP_VERSION_2003 2u\0"
 2725      56455253 
 2725      494F4E5F 
 2725      32303033 
 2725      20327500 
 2726 1b1b 01       		.byte	0x1
 2727 1b1c 0F       		.uleb128 0xf
 2728 1b1d 4350505F 		.ascii "CPP_VERSION_2007 3u\0"
 2728      56455253 
 2728      494F4E5F 
 2728      32303037 
 2728      20337500 
 2729 1b31 01       		.byte	0x1
 2730 1b32 10       		.uleb128 0x10
 2731 1b33 4350505F 		.ascii "CPP_VERSION_2011 4u\0"
 2731      56455253 
 2731      494F4E5F 
 2731      32303131 
 2731      20347500 
 2732 1b47 01       		.byte	0x1
 2733 1b48 11       		.uleb128 0x11
 2734 1b49 49534F5F 		.ascii "ISO_CPP_VERSION CPP_VERSION_1998\0"
 2734      4350505F 
 2734      56455253 
 2734      494F4E20 
 2734      4350505F 
 2735 1b6a 01       		.byte	0x1
 2736 1b6b 14       		.uleb128 0x14
 2737 1b6c 4249475F 		.ascii "BIG_INT_SIZE 16u\0"
 2737      494E545F 
 2737      53495A45 
 2737      20313675 
 2737      00
 2738 1b7d 01       		.byte	0x1
 2739 1b7e 17       		.uleb128 0x17
 2740 1b7f 4E525F4F 		.ascii "NR_OF_CORES 1u\0"
 2740      465F434F 
 2740      52455320 
 2740      317500
 2741 1b8e 01       		.byte	0x1
 2742 1b8f 1B       		.uleb128 0x1b
 2743 1b90 4D43555F 		.ascii "MCU_CLOCK_IN_HZ ((uint32)168000000u)\0"
 2743      434C4F43 
 2743      4B5F494E 
 2743      5F485A20 
 2743      28287569 
GAS LISTING C:\Users\PRESID~1\AppData\Local\Temp\ccTZYDpu.s 			page 75


 2744 1bb5 01       		.byte	0x1
 2745 1bb6 1D       		.uleb128 0x1d
 2746 1bb7 44594E41 		.ascii "DYNAMIC_MEMORY_USED FALSE\0"
 2746      4D49435F 
 2746      4D454D4F 
 2746      52595F55 
 2746      53454420 
 2747 1bd1 01       		.byte	0x1
 2748 1bd2 1E       		.uleb128 0x1e
 2749 1bd3 4C4F4F50 		.ascii "LOOPTIME_IN_USEC ((uint32)10000u)\0"
 2749      54494D45 
 2749      5F494E5F 
 2749      55534543 
 2749      20282875 
 2750 1bf5 01       		.byte	0x1
 2751 1bf6 21       		.uleb128 0x21
 2752 1bf7 48454150 		.ascii "HEAP_SIZE 10000u\0"
 2752      5F53495A 
 2752      45203130 
 2752      30303075 
 2752      00
 2753 1c08 01       		.byte	0x1
 2754 1c09 22       		.uleb128 0x22
 2755 1c0a 4D494E5F 		.ascii "MIN_BLOCK_SIZE_HEAP 8u\0"
 2755      424C4F43 
 2755      4B5F5349 
 2755      5A455F48 
 2755      45415020 
 2756 1c21 01       		.byte	0x1
 2757 1c22 23       		.uleb128 0x23
 2758 1c23 48454150 		.ascii "HEAP_OFFSET_FOR_SIZE 0u\0"
 2758      5F4F4646 
 2758      5345545F 
 2758      464F525F 
 2758      53495A45 
 2759 1c3b 01       		.byte	0x1
 2760 1c3c 24       		.uleb128 0x24
 2761 1c3d 48454150 		.ascii "HEAP_OFFSET_FOR_USED_SIZE 4u\0"
 2761      5F4F4646 
 2761      5345545F 
 2761      464F525F 
 2761      55534544 
 2762 1c5a 01       		.byte	0x1
 2763 1c5b 25       		.uleb128 0x25
 2764 1c5c 48454150 		.ascii "HEAP_OFFSET_FOR_CHUNK 8u\0"
 2764      5F4F4646 
 2764      5345545F 
 2764      464F525F 
 2764      4348554E 
 2765 1c75 01       		.byte	0x1
 2766 1c76 28       		.uleb128 0x28
 2767 1c77 4F535F53 		.ascii "OS_STACK_SIZE 0x200u\0"
 2767      5441434B 
 2767      5F53495A 
 2767      45203078 
 2767      32303075 
 2768 1c8c 04       		.byte	0x4
GAS LISTING C:\Users\PRESID~1\AppData\Local\Temp\ccTZYDpu.s 			page 76


 2769 1c8d 03       		.byte	0x3
 2770 1c8e 05       		.uleb128 0x5
 2771 1c8f 02       		.uleb128 0x2
 2772 1c90 01       		.byte	0x1
 2773 1c91 02       		.uleb128 0x2
 2774 1c92 5F4F535F 		.ascii "_OS_BASE_TYPES_H_ \0"
 2774      42415345 
 2774      5F545950 
 2774      45535F48 
 2774      5F2000
 2775 1ca5 04       		.byte	0x4
 2776 1ca6 03       		.byte	0x3
 2777 1ca7 06       		.uleb128 0x6
 2778 1ca8 03       		.uleb128 0x3
 2779 1ca9 01       		.byte	0x1
 2780 1caa 02       		.uleb128 0x2
 2781 1cab 5F4F535F 		.ascii "_OS_COMMON_H_ \0"
 2781      434F4D4D 
 2781      4F4E5F48 
 2781      5F2000
 2782 1cba 01       		.byte	0x1
 2783 1cbb 06       		.uleb128 0x6
 2784 1cbc 46414C53 		.ascii "FALSE 0u\0"
 2784      45203075 
 2784      00
 2785 1cc5 01       		.byte	0x1
 2786 1cc6 07       		.uleb128 0x7
 2787 1cc7 54525545 		.ascii "TRUE 1u\0"
 2787      20317500 
 2788 1ccf 01       		.byte	0x1
 2789 1cd0 08       		.uleb128 0x8
 2790 1cd1 41434345 		.ascii "ACCEPTED 1u\0"
 2790      50544544 
 2790      20317500 
 2791 1cdd 01       		.byte	0x1
 2792 1cde 09       		.uleb128 0x9
 2793 1cdf 52454A45 		.ascii "REJECTED 0u\0"
 2793      43544544 
 2793      20307500 
 2794 1ceb 01       		.byte	0x1
 2795 1cec 0A       		.uleb128 0xa
 2796 1ced 4C4F4341 		.ascii "LOCAL static\0"
 2796      4C207374 
 2796      61746963 
 2796      00
 2797 1cfa 01       		.byte	0x1
 2798 1cfb 0B       		.uleb128 0xb
 2799 1cfc 4C4F4341 		.ascii "LOCAL_INLINE static __inline__\0"
 2799      4C5F494E 
 2799      4C494E45 
 2799      20737461 
 2799      74696320 
 2800 1d1b 01       		.byte	0x1
 2801 1d1c 0C       		.uleb128 0xc
 2802 1d1d 474C4F42 		.ascii "GLOBAL_INLINE __inline__\0"
 2802      414C5F49 
 2802      4E4C494E 
GAS LISTING C:\Users\PRESID~1\AppData\Local\Temp\ccTZYDpu.s 			page 77


 2802      45205F5F 
 2802      696E6C69 
 2803 1d36 01       		.byte	0x1
 2804 1d37 0D       		.uleb128 0xd
 2805 1d38 52454645 		.ascii "REFERENCE_UNUSED_PARAMETER(x) ((x) = (x))\0"
 2805      52454E43 
 2805      455F554E 
 2805      55534544 
 2805      5F504152 
 2806 1d62 01       		.byte	0x1
 2807 1d63 10       		.uleb128 0x10
 2808 1d64 4D43555F 		.ascii "MCU_X86 3\0"
 2808      58383620 
 2808      3300
 2809 1d6e 01       		.byte	0x1
 2810 1d6f 11       		.uleb128 0x11
 2811 1d70 4D43555F 		.ascii "MCU_CORTEX_M4 4\0"
 2811      434F5254 
 2811      45585F4D 
 2811      34203400 
 2812 1d80 01       		.byte	0x1
 2813 1d81 14       		.uleb128 0x14
 2814 1d82 4457545F 		.ascii "DWT_CTRL ((volatile uint32*)0xE0001000u)\0"
 2814      4354524C 
 2814      20282876 
 2814      6F6C6174 
 2814      696C6520 
 2815 1dab 01       		.byte	0x1
 2816 1dac 15       		.uleb128 0x15
 2817 1dad 4457545F 		.ascii "DWT_CYCCNT ((volatile uint32*)0xE0001004u)\0"
 2817      43594343 
 2817      4E542028 
 2817      28766F6C 
 2817      6174696C 
 2818 1dd8 01       		.byte	0x1
 2819 1dd9 16       		.uleb128 0x16
 2820 1dda 4457545F 		.ascii "DWT_LAR ((volatile uint32*)0xE0001FB0u)\0"
 2820      4C415220 
 2820      2828766F 
 2820      6C617469 
 2820      6C652075 
 2821 1e02 01       		.byte	0x1
 2822 1e03 17       		.uleb128 0x17
 2823 1e04 5343425F 		.ascii "SCB_DEMCR ((volatile uint32*)0xE000EDFCu)\0"
 2823      44454D43 
 2823      52202828 
 2823      766F6C61 
 2823      74696C65 
 2824 1e2e 01       		.byte	0x1
 2825 1e2f 1A       		.uleb128 0x1a
 2826 1e30 44495341 		.ascii "DISABLE_INTERRUPTS() \0"
 2826      424C455F 
 2826      494E5445 
 2826      52525550 
 2826      54532829 
 2827 1e46 01       		.byte	0x1
 2828 1e47 1B       		.uleb128 0x1b
GAS LISTING C:\Users\PRESID~1\AppData\Local\Temp\ccTZYDpu.s 			page 78


 2829 1e48 454E4142 		.ascii "ENABLE_INTERRUPTS() \0"
 2829      4C455F49 
 2829      4E544552 
 2829      52555054 
 2829      53282920 
 2830 1e5d 01       		.byte	0x1
 2831 1e5e 1C       		.uleb128 0x1c
 2832 1e5f 50524956 		.ascii "PRIVILIGE_LEVEL_SAVE_CURRENT() \0"
 2832      494C4947 
 2832      455F4C45 
 2832      56454C5F 
 2832      53415645 
 2833 1e7f 01       		.byte	0x1
 2834 1e80 1D       		.uleb128 0x1d
 2835 1e81 50524956 		.ascii "PRIVILIGE_LEVEL_ENTER_KERNEL_MODE() \0"
 2835      494C4947 
 2835      455F4C45 
 2835      56454C5F 
 2835      454E5445 
 2836 1ea6 01       		.byte	0x1
 2837 1ea7 1E       		.uleb128 0x1e
 2838 1ea8 50524956 		.ascii "PRIVILIGE_LEVEL_RESTORE_SAVED() \0"
 2838      494C4947 
 2838      455F4C45 
 2838      56454C5F 
 2838      52455354 
 2839 1ec9 01       		.byte	0x1
 2840 1eca 1F       		.uleb128 0x1f
 2841 1ecb 48414C54 		.ascii "HALT_MCU() \0"
 2841      5F4D4355 
 2841      28292000 
 2842 1ed7 04       		.byte	0x4
 2843              		.file 7 "E:/NeuOrga/Programmieren/c_cpp/github_os/input/src/os_base/../os_sim/lld_global.h"
 2844 1ed8 03       		.byte	0x3
 2845 1ed9 09       		.uleb128 0x9
 2846 1eda 07       		.uleb128 0x7
 2847 1edb 01       		.byte	0x1
 2848 1edc 02       		.uleb128 0x2
 2849 1edd 5F4C4C44 		.ascii "_LLD_GLOBAL_H_ \0"
 2849      5F474C4F 
 2849      42414C5F 
 2849      485F2000 
 2850              		.file 8 "E:/NeuOrga/Programmieren/c_cpp/github_os/input/src/os_base/../os_sim/lld_core.h"
 2851 1eed 03       		.byte	0x3
 2852 1eee 04       		.uleb128 0x4
 2853 1eef 08       		.uleb128 0x8
 2854 1ef0 01       		.byte	0x1
 2855 1ef1 02       		.uleb128 0x2
 2856 1ef2 5F4C4C44 		.ascii "_LLD_CORE_H_ \0"
 2856      5F434F52 
 2856      455F485F 
 2856      2000
 2857              		.file 9 "E:/NeuOrga/Programmieren/c_cpp/github_os/input/src/os_base/../os_sim/../os_base/os_firsti
 2858 1f00 03       		.byte	0x3
 2859 1f01 03       		.uleb128 0x3
 2860 1f02 09       		.uleb128 0x9
 2861 1f03 04       		.byte	0x4
GAS LISTING C:\Users\PRESID~1\AppData\Local\Temp\ccTZYDpu.s 			page 79


 2862 1f04 04       		.byte	0x4
 2863              		.file 10 "E:/NeuOrga/Programmieren/c_cpp/github_os/input/src/os_base/../os_sim/lld_interrupt.h"
 2864 1f05 03       		.byte	0x3
 2865 1f06 05       		.uleb128 0x5
 2866 1f07 0A       		.uleb128 0xa
 2867 1f08 01       		.byte	0x1
 2868 1f09 02       		.uleb128 0x2
 2869 1f0a 5F4C4C44 		.ascii "_LLD_INTERRUPT_H_ \0"
 2869      5F494E54 
 2869      45525255 
 2869      50545F48 
 2869      5F2000
 2870 1f1d 01       		.byte	0x1
 2871 1f1e 05       		.uleb128 0x5
 2872 1f1f 4F535F49 		.ascii "OS_INTERRUPT_SWI_1 asm(\"swi 1\")\0"
 2872      4E544552 
 2872      52555054 
 2872      5F535749 
 2872      5F312061 
 2873 1f3f 01       		.byte	0x1
 2874 1f40 06       		.uleb128 0x6
 2875 1f41 4F535F49 		.ascii "OS_INTERRUPT_SWI_2 asm(\"swi 2\")\0"
 2875      4E544552 
 2875      52555054 
 2875      5F535749 
 2875      5F322061 
 2876 1f61 01       		.byte	0x1
 2877 1f62 07       		.uleb128 0x7
 2878 1f63 4F535F49 		.ascii "OS_INTERRUPT_SWI_3 asm(\"swi 3\")\0"
 2878      4E544552 
 2878      52555054 
 2878      5F535749 
 2878      5F332061 
 2879 1f83 01       		.byte	0x1
 2880 1f84 08       		.uleb128 0x8
 2881 1f85 4F535F49 		.ascii "OS_INTERRUPT_SWI_4 asm(\"swi 4\")\0"
 2881      4E544552 
 2881      52555054 
 2881      5F535749 
 2881      5F342061 
 2882 1fa5 01       		.byte	0x1
 2883 1fa6 09       		.uleb128 0x9
 2884 1fa7 4F535F49 		.ascii "OS_INTERRUPT_SWI_5 asm(\"swi 5\")\0"
 2884      4E544552 
 2884      52555054 
 2884      5F535749 
 2884      5F352061 
 2885 1fc7 04       		.byte	0x4
 2886              		.file 11 "E:/NeuOrga/Programmieren/c_cpp/github_os/input/src/os_base/../os_sim/lld_mmu.h"
 2887 1fc8 03       		.byte	0x3
 2888 1fc9 06       		.uleb128 0x6
 2889 1fca 0B       		.uleb128 0xb
 2890 1fcb 01       		.byte	0x1
 2891 1fcc 02       		.uleb128 0x2
 2892 1fcd 5F4C4C44 		.ascii "_LLD_MMU_H_ \0"
 2892      5F4D4D55 
 2892      5F485F20 
GAS LISTING C:\Users\PRESID~1\AppData\Local\Temp\ccTZYDpu.s 			page 80


 2892      00
 2893 1fda 04       		.byte	0x4
 2894              		.file 12 "E:/NeuOrga/Programmieren/c_cpp/github_os/input/src/os_base/../os_sim/lld_timer.h"
 2895 1fdb 03       		.byte	0x3
 2896 1fdc 07       		.uleb128 0x7
 2897 1fdd 0C       		.uleb128 0xc
 2898 1fde 01       		.byte	0x1
 2899 1fdf 02       		.uleb128 0x2
 2900 1fe0 5F4C4C44 		.ascii "_LLD_TIMER_H_ \0"
 2900      5F54494D 
 2900      45525F48 
 2900      5F2000
 2901 1fef 04       		.byte	0x4
 2902              		.file 13 "E:/NeuOrga/Programmieren/c_cpp/github_os/input/src/os_base/../os_sim/lld_power.h"
 2903 1ff0 03       		.byte	0x3
 2904 1ff1 08       		.uleb128 0x8
 2905 1ff2 0D       		.uleb128 0xd
 2906 1ff3 01       		.byte	0x1
 2907 1ff4 02       		.uleb128 0x2
 2908 1ff5 5F4C4C44 		.ascii "_LLD_POWER_H_ \0"
 2908      5F504F57 
 2908      45525F48 
 2908      5F2000
 2909 2004 04       		.byte	0x4
 2910              		.file 14 "E:/NeuOrga/Programmieren/c_cpp/github_os/input/src/os_base/../os_sim/lld_ram.h"
 2911 2005 03       		.byte	0x3
 2912 2006 09       		.uleb128 0x9
 2913 2007 0E       		.uleb128 0xe
 2914 2008 01       		.byte	0x1
 2915 2009 02       		.uleb128 0x2
 2916 200a 5F4C4C44 		.ascii "_LLD_RAM_H_ \0"
 2916      5F52414D 
 2916      5F485F20 
 2916      00
 2917 2017 04       		.byte	0x4
 2918              		.file 15 "E:/NeuOrga/Programmieren/c_cpp/github_os/input/src/os_base/../os_sim/../os_base/os_task_
 2919 2018 03       		.byte	0x3
 2920 2019 0A       		.uleb128 0xa
 2921 201a 0F       		.uleb128 0xf
 2922 201b 01       		.byte	0x1
 2923 201c 02       		.uleb128 0x2
 2924 201d 5F4F535F 		.ascii "_OS_TASK_COMMON_H_ \0"
 2924      5441534B 
 2924      5F434F4D 
 2924      4D4F4E5F 
 2924      485F2000 
 2925 2031 03       		.byte	0x3
 2926 2032 03       		.uleb128 0x3
 2927 2033 09       		.uleb128 0x9
 2928 2034 04       		.byte	0x4
 2929              		.file 16 "E:/NeuOrga/Programmieren/c_cpp/github_os/input/src/os_base/../os_sim/../os_base/os_task_
 2930 2035 03       		.byte	0x3
 2931 2036 04       		.uleb128 0x4
 2932 2037 10       		.uleb128 0x10
 2933 2038 01       		.byte	0x1
 2934 2039 02       		.uleb128 0x2
 2935 203a 5F4F535F 		.ascii "_OS_TASK_CONFIG_H_ \0"
GAS LISTING C:\Users\PRESID~1\AppData\Local\Temp\ccTZYDpu.s 			page 81


 2935      5441534B 
 2935      5F434F4E 
 2935      4649475F 
 2935      485F2000 
 2936 204e 01       		.byte	0x1
 2937 204f 05       		.uleb128 0x5
 2938 2050 5441534B 		.ascii "TASK_MIN_TIME (1e0)\0"
 2938      5F4D494E 
 2938      5F54494D 
 2938      45202831 
 2938      65302900 
 2939 2064 01       		.byte	0x1
 2940 2065 06       		.uleb128 0x6
 2941 2066 4E554D42 		.ascii "NUMBER_OF_TASKS 10u\0"
 2941      45525F4F 
 2941      465F5441 
 2941      534B5320 
 2941      31307500 
 2942 207a 01       		.byte	0x1
 2943 207b 07       		.uleb128 0x7
 2944 207c 4D41585F 		.ascii "MAX_RUN_QUEUE_SIZE (NUMBER_OF_TASKS)\0"
 2944      52554E5F 
 2944      51554555 
 2944      455F5349 
 2944      5A452028 
 2945 20a1 01       		.byte	0x1
 2946 20a2 08       		.uleb128 0x8
 2947 20a3 4D41585F 		.ascii "MAX_RUN_PQUEUE_SIZE MAX_RUN_QUEUE_SIZE\0"
 2947      52554E5F 
 2947      50515545 
 2947      55455F53 
 2947      495A4520 
 2948 20ca 01       		.byte	0x1
 2949 20cb 0A       		.uleb128 0xa
 2950 20cc 5441534B 		.ascii "TASK_STACK_SIZE 2000u\0"
 2950      5F535441 
 2950      434B5F53 
 2950      495A4520 
 2950      32303030 
 2951 20e2 01       		.byte	0x1
 2952 20e3 0D       		.uleb128 0xd
 2953 20e4 4D535F50 		.ascii "MS_PER_SEC 1000u\0"
 2953      45525F53 
 2953      45432031 
 2953      30303075 
 2953      00
 2954 20f5 01       		.byte	0x1
 2955 20f6 0E       		.uleb128 0xe
 2956 20f7 5553455F 		.ascii "USE_STATIC_CREATED_TASKS TRUE\0"
 2956      53544154 
 2956      49435F43 
 2956      52454154 
 2956      45445F54 
 2957 2115 04       		.byte	0x4
 2958              		.file 17 "E:/NeuOrga/Programmieren/c_cpp/github_os/input/src/os_base/../os_sim/../os_base/os_init_
 2959 2116 03       		.byte	0x3
 2960 2117 05       		.uleb128 0x5
GAS LISTING C:\Users\PRESID~1\AppData\Local\Temp\ccTZYDpu.s 			page 82


 2961 2118 11       		.uleb128 0x11
 2962 2119 01       		.byte	0x1
 2963 211a 02       		.uleb128 0x2
 2964 211b 5F4F535F 		.ascii "_OS_INIT_TASK_SYSTEM_H_ \0"
 2964      494E4954 
 2964      5F544153 
 2964      4B5F5359 
 2964      5354454D 
 2965 2134 04       		.byte	0x4
 2966 2135 01       		.byte	0x1
 2967 2136 5F       		.uleb128 0x5f
 2968 2137 4F535F53 		.ascii "OS_SAVE_TASK_PTR(task_ptr,task_name) (TASK_PTR[(task_name)] = (task_ptr))\0"
 2968      4156455F 
 2968      5441534B 
 2968      5F505452 
 2968      28746173 
 2969 2181 01       		.byte	0x1
 2970 2182 60       		.uleb128 0x60
 2971 2183 4F535F47 		.ascii "OS_GET_TASK_PTR(task_name) ((task_t*) TASK_PTR[(task_name)])\0"
 2971      45545F54 
 2971      41534B5F 
 2971      50545228 
 2971      7461736B 
 2972 21c0 04       		.byte	0x4
 2973 21c1 04       		.byte	0x4
 2974              		.file 18 "E:/NeuOrga/Programmieren/c_cpp/github_os/input/src/os_base/../os_user_code/led.h"
 2975 21c2 03       		.byte	0x3
 2976 21c3 0D       		.uleb128 0xd
 2977 21c4 12       		.uleb128 0x12
 2978 21c5 01       		.byte	0x1
 2979 21c6 02       		.uleb128 0x2
 2980 21c7 5F4C4544 		.ascii "_LED_H_ \0"
 2980      5F485F20 
 2980      00
 2981 21d0 04       		.byte	0x4
 2982 21d1 03       		.byte	0x3
 2983 21d2 0F       		.uleb128 0xf
 2984 21d3 04       		.uleb128 0x4
 2985 21d4 01       		.byte	0x1
 2986 21d5 02       		.uleb128 0x2
 2987 21d6 5F4F535F 		.ascii "_OS_RAM_H_ \0"
 2987      52414D5F 
 2987      485F2000 
 2988              		.file 19 "E:/NeuOrga/Programmieren/c_cpp/github_os/input/src/os_base/../os_base/os_firstinc.h"
 2989 21e2 03       		.byte	0x3
 2990 21e3 04       		.uleb128 0x4
 2991 21e4 13       		.uleb128 0x13
 2992 21e5 04       		.byte	0x4
 2993              		.file 20 "E:/NeuOrga/Programmieren/c_cpp/github_os/input/src/os_base/../os_base/os_stack.h"
 2994 21e6 03       		.byte	0x3
 2995 21e7 05       		.uleb128 0x5
 2996 21e8 14       		.uleb128 0x14
 2997 21e9 01       		.byte	0x1
 2998 21ea 02       		.uleb128 0x2
 2999 21eb 5F4F535F 		.ascii "_OS_STACK_H_ \0"
 2999      53544143 
 2999      4B5F485F 
GAS LISTING C:\Users\PRESID~1\AppData\Local\Temp\ccTZYDpu.s 			page 83


 2999      2000
 3000 21f9 04       		.byte	0x4
 3001              		.file 21 "E:/NeuOrga/Programmieren/c_cpp/github_os/input/src/os_base/../os_base/os_heap.h"
 3002 21fa 03       		.byte	0x3
 3003 21fb 06       		.uleb128 0x6
 3004 21fc 15       		.uleb128 0x15
 3005 21fd 01       		.byte	0x1
 3006 21fe 02       		.uleb128 0x2
 3007 21ff 5F4F535F 		.ascii "_OS_HEAP_H_ \0"
 3007      48454150 
 3007      5F485F20 
 3007      00
 3008 220c 04       		.byte	0x4
 3009              		.file 22 "E:/NeuOrga/Programmieren/c_cpp/github_os/input/src/os_base/../os_base/os_main.h"
 3010 220d 03       		.byte	0x3
 3011 220e 07       		.uleb128 0x7
 3012 220f 16       		.uleb128 0x16
 3013 2210 01       		.byte	0x1
 3014 2211 02       		.uleb128 0x2
 3015 2212 5F4F535F 		.ascii "_OS_MAIN_H_ \0"
 3015      4D41494E 
 3015      5F485F20 
 3015      00
 3016 221f 04       		.byte	0x4
 3017              		.file 23 "E:/NeuOrga/Programmieren/c_cpp/github_os/input/src/os_base/../os_base/os_task_config.h"
 3018 2220 03       		.byte	0x3
 3019 2221 08       		.uleb128 0x8
 3020 2222 17       		.uleb128 0x17
 3021 2223 04       		.byte	0x4
 3022              		.file 24 "E:/NeuOrga/Programmieren/c_cpp/github_os/input/src/os_base/../os_base/os_task_common.h"
 3023 2224 03       		.byte	0x3
 3024 2225 09       		.uleb128 0x9
 3025 2226 18       		.uleb128 0x18
 3026 2227 04       		.byte	0x4
 3027 2228 04       		.byte	0x4
 3028              		.file 25 "E:/NeuOrga/Programmieren/c_cpp/github_os/input/src/os_base/../os_base/os_ram_stack.h"
 3029 2229 03       		.byte	0x3
 3030 222a 10       		.uleb128 0x10
 3031 222b 19       		.uleb128 0x19
 3032 222c 01       		.byte	0x1
 3033 222d 02       		.uleb128 0x2
 3034 222e 5F4F535F 		.ascii "_OS_RAM_STACK_H_ \0"
 3034      52414D5F 
 3034      53544143 
 3034      4B5F485F 
 3034      2000
 3035 2240 04       		.byte	0x4
 3036 2241 04       		.byte	0x4
 3037              		.file 26 "E:/NeuOrga/Programmieren/c_cpp/github_os/input/src/os_base/os_task_common.h"
 3038 2242 03       		.byte	0x3
 3039 2243 02       		.uleb128 0x2
 3040 2244 1A       		.uleb128 0x1a
 3041 2245 04       		.byte	0x4
 3042 2246 04       		.byte	0x4
 3043 2247 00       		.byte	0
 3044              		.section	.debug_line,"dr"
 3045              	Ldebug_line0:
GAS LISTING C:\Users\PRESID~1\AppData\Local\Temp\ccTZYDpu.s 			page 84


 3046 0000 B3040000 		.section	.debug_str,"dr"
 3046      02005A03 
 3046      00000101 
 3046      FB0E0D00 
 3046      01010101 
 3047              	LASF1:
 3048 0000 4F706572 		.ascii "Operand2\0"
 3048      616E6432 
 3048      00
 3049              	LASF2:
 3050 0009 6C656674 		.ascii "leftOperand\0"
 3050      4F706572 
 3050      616E6400 
 3051              	LASF3:
 3052 0015 72696768 		.ascii "rightOperand\0"
 3052      744F7065 
 3052      72616E64 
 3052      00
 3053              	LASF0:
 3054 0022 4F706572 		.ascii "Operand1\0"
 3054      616E6431 
 3054      00
 3055              		.ident	"GCC: (GNU) 4.9.3"
GAS LISTING C:\Users\PRESID~1\AppData\Local\Temp\ccTZYDpu.s 			page 85


DEFINED SYMBOLS
                            *ABS*:00000000 os_common.c
C:\Users\PRESID~1\AppData\Local\Temp\ccTZYDpu.s:6      .text:00000000 _OS_SET_SW_BUG
C:\Users\PRESID~1\AppData\Local\Temp\ccTZYDpu.s:29     .text:00000012 _OS_GET_CURRENT_TIME
C:\Users\PRESID~1\AppData\Local\Temp\ccTZYDpu.s:55     .text:00000032 _OS_UpdateCurrentTime
C:\Users\PRESID~1\AppData\Local\Temp\ccTZYDpu.s:84     .text:00000060 _OS_READ_AND_RESET_CURRENT_TIME
C:\Users\PRESID~1\AppData\Local\Temp\ccTZYDpu.s:108    .text:0000007b _INT_DIV
C:\Users\PRESID~1\AppData\Local\Temp\ccTZYDpu.s:126    .text:00000080 _INT_MUL
C:\Users\PRESID~1\AppData\Local\Temp\ccTZYDpu.s:144    .text:00000085 _INT_ADD
C:\Users\PRESID~1\AppData\Local\Temp\ccTZYDpu.s:202    .text:000000e5 _INT_SUB
C:\Users\PRESID~1\AppData\Local\Temp\ccTZYDpu.s:302    .text:000001c3 _IS_LESS
C:\Users\PRESID~1\AppData\Local\Temp\ccTZYDpu.s:366    .text:00000221 _IS_LESS_OR_EQUAL
C:\Users\PRESID~1\AppData\Local\Temp\ccTZYDpu.s:409    .text:00000261 _IS_EQUAL
C:\Users\PRESID~1\AppData\Local\Temp\ccTZYDpu.s:459    .text:000002a1 _IS_GREATER
C:\Users\PRESID~1\AppData\Local\Temp\ccTZYDpu.s:523    .text:000002ff _IS_GREATER_OR_EQUAL
C:\Users\PRESID~1\AppData\Local\Temp\ccTZYDpu.s:566    .text:0000033f _ASSIGN
C:\Users\PRESID~1\AppData\Local\Temp\ccTZYDpu.s:604    .text:0000036e _ASSIGN_NULL
C:\Users\PRESID~1\AppData\Local\Temp\ccTZYDpu.s:639    .text:00000394 _ASSIGN_UINT32
C:\Users\PRESID~1\AppData\Local\Temp\ccTZYDpu.s:705    .text:000003f6 _get_uint32_of_4_uint8
C:\Users\PRESID~1\AppData\Local\Temp\ccTZYDpu.s:757    .text:00000446 _set_4_uint8_to_uint32

UNDEFINED SYMBOLS
_OS_SW_BUG
_LOCAL_SYSTEM_TIME
