GAS LISTING C:\Users\PRESID~1\AppData\Local\Temp\ccSmxUIj.s 			page 1


   1              		.file	"os_common.c"
   2              		.text
   3              	Ltext0:
   4              		.globl	_OS_SetSwBug
   6              	_OS_SetSwBug:
   7              	LFB0:
   8              		.file 1 "E:/NeuOrga/Programmieren/c_cpp/github_os/input/src/os_base/os_common.c"
   1:E:/NeuOrga/Programmieren/c_cpp/github_os/input/src/os_base\os_common.c **** #include "os_firstinc.h"
   2:E:/NeuOrga/Programmieren/c_cpp/github_os/input/src/os_base\os_common.c **** #include "os_task_common.h"
   3:E:/NeuOrga/Programmieren/c_cpp/github_os/input/src/os_base\os_common.c **** 
   4:E:/NeuOrga/Programmieren/c_cpp/github_os/input/src/os_base\os_common.c **** void OS_SetSwBug(os_sw_bugs_t bug_nr, os_sw_bugs_function_t task_func_nr)
   5:E:/NeuOrga/Programmieren/c_cpp/github_os/input/src/os_base\os_common.c **** {
   9              		.loc 1 5 0
  10              		.cfi_startproc
  11 0000 55       		pushl	%ebp
  12              		.cfi_def_cfa_offset 8
  13              		.cfi_offset 5, -8
  14 0001 89E5     		movl	%esp, %ebp
  15              		.cfi_def_cfa_register 5
   6:E:/NeuOrga/Programmieren/c_cpp/github_os/input/src/os_base\os_common.c ****    OS_SW_BUG[task_func_nr] = bug_nr;
  16              		.loc 1 6 0
  17 0003 8B450C   		movl	12(%ebp), %eax
  18 0006 8B5508   		movl	8(%ebp), %edx
  19 0009 89148500 		movl	%edx, _OS_SW_BUG(,%eax,4)
  19      000000
   7:E:/NeuOrga/Programmieren/c_cpp/github_os/input/src/os_base\os_common.c **** }
  20              		.loc 1 7 0
  21 0010 5D       		popl	%ebp
  22              		.cfi_restore 5
  23              		.cfi_def_cfa 4, 4
  24 0011 C3       		ret
  25              		.cfi_endproc
  26              	LFE0:
  27              	.lcomm _GLOBAL_TIMER1,16,4
  28              		.globl	_OS_GetCurrentTime
  30              	_OS_GetCurrentTime:
  31              	LFB1:
   8:E:/NeuOrga/Programmieren/c_cpp/github_os/input/src/os_base\os_common.c **** #define DWT_CTRL   ((volatile uint32*)0xE0001000)
   9:E:/NeuOrga/Programmieren/c_cpp/github_os/input/src/os_base\os_common.c **** #define DWT_CYCCNT ((volatile uint32*)0xE0001004)
  10:E:/NeuOrga/Programmieren/c_cpp/github_os/input/src/os_base\os_common.c **** 
  11:E:/NeuOrga/Programmieren/c_cpp/github_os/input/src/os_base\os_common.c **** #define DWT_LAR     ((volatile uint32*)0xE0001FB0)
  12:E:/NeuOrga/Programmieren/c_cpp/github_os/input/src/os_base\os_common.c **** #define SCB_DEMCR   ((volatile uint32*)0xE000EDFC)
  13:E:/NeuOrga/Programmieren/c_cpp/github_os/input/src/os_base\os_common.c **** static timebig_t GLOBAL_TIMER1;
  14:E:/NeuOrga/Programmieren/c_cpp/github_os/input/src/os_base\os_common.c **** 
  15:E:/NeuOrga/Programmieren/c_cpp/github_os/input/src/os_base\os_common.c **** void OS_GetCurrentTime(timebig_t* time)
  16:E:/NeuOrga/Programmieren/c_cpp/github_os/input/src/os_base\os_common.c **** {
  32              		.loc 1 16 0
  33              		.cfi_startproc
  34 0012 55       		pushl	%ebp
  35              		.cfi_def_cfa_offset 8
  36              		.cfi_offset 5, -8
  37 0013 89E5     		movl	%esp, %ebp
  38              		.cfi_def_cfa_register 5
  39 0015 83EC18   		subl	$24, %esp
  17:E:/NeuOrga/Programmieren/c_cpp/github_os/input/src/os_base\os_common.c ****    /* the only free running counter on STM32F4 is the DWT counter DWT_CYCCNT
  18:E:/NeuOrga/Programmieren/c_cpp/github_os/input/src/os_base\os_common.c ****    The counter will overflow every 25sec -> provide function OS_ClearCurrentTime to reset the value
  19:E:/NeuOrga/Programmieren/c_cpp/github_os/input/src/os_base\os_common.c ****    */
GAS LISTING C:\Users\PRESID~1\AppData\Local\Temp\ccSmxUIj.s 			page 2


  20:E:/NeuOrga/Programmieren/c_cpp/github_os/input/src/os_base\os_common.c ****    
  21:E:/NeuOrga/Programmieren/c_cpp/github_os/input/src/os_base\os_common.c ****    #if(CFG_PROCESSOR == cMCU_CORTEX_M4)
  22:E:/NeuOrga/Programmieren/c_cpp/github_os/input/src/os_base\os_common.c ****    AssignUint32(time, *DWT_CYCCNT);
  23:E:/NeuOrga/Programmieren/c_cpp/github_os/input/src/os_base\os_common.c ****    #else
  24:E:/NeuOrga/Programmieren/c_cpp/github_os/input/src/os_base\os_common.c ****    Assign(time, &GLOBAL_TIMER1);
  40              		.loc 1 24 0
  41 0018 C7442404 		movl	$_GLOBAL_TIMER1, 4(%esp)
  41      00000000 
  42 0020 8B4508   		movl	8(%ebp), %eax
  43 0023 890424   		movl	%eax, (%esp)
  44 0026 E80B0300 		call	_Assign
  44      00
  25:E:/NeuOrga/Programmieren/c_cpp/github_os/input/src/os_base\os_common.c ****    #endif
  26:E:/NeuOrga/Programmieren/c_cpp/github_os/input/src/os_base\os_common.c **** }
  45              		.loc 1 26 0
  46 002b C9       		leave
  47              		.cfi_restore 5
  48              		.cfi_def_cfa 4, 4
  49 002c C3       		ret
  50              		.cfi_endproc
  51              	LFE1:
  52              		.globl	_OS_ResetCurrentTime
  54              	_OS_ResetCurrentTime:
  55              	LFB2:
  27:E:/NeuOrga/Programmieren/c_cpp/github_os/input/src/os_base\os_common.c **** 
  28:E:/NeuOrga/Programmieren/c_cpp/github_os/input/src/os_base\os_common.c **** void OS_ResetCurrentTime(void)
  29:E:/NeuOrga/Programmieren/c_cpp/github_os/input/src/os_base\os_common.c **** {
  56              		.loc 1 29 0
  57              		.cfi_startproc
  58 002d 55       		pushl	%ebp
  59              		.cfi_def_cfa_offset 8
  60              		.cfi_offset 5, -8
  61 002e 89E5     		movl	%esp, %ebp
  62              		.cfi_def_cfa_register 5
  63 0030 83EC18   		subl	$24, %esp
  30:E:/NeuOrga/Programmieren/c_cpp/github_os/input/src/os_base\os_common.c ****    /* unlock the CoreSight (CM4) */
  31:E:/NeuOrga/Programmieren/c_cpp/github_os/input/src/os_base\os_common.c ****    *DWT_LAR = 0xC5ACCE55;
  64              		.loc 1 31 0
  65 0033 B8B01F00 		movl	$-536862800, %eax
  65      E0
  66 0038 C70055CE 		movl	$-978530731, (%eax)
  66      ACC5
  32:E:/NeuOrga/Programmieren/c_cpp/github_os/input/src/os_base\os_common.c **** 
  33:E:/NeuOrga/Programmieren/c_cpp/github_os/input/src/os_base\os_common.c ****    /* enable trace/debug block TRCENA */
  34:E:/NeuOrga/Programmieren/c_cpp/github_os/input/src/os_base\os_common.c ****    *SCB_DEMCR |= 0x01000000;
  67              		.loc 1 34 0
  68 003e B8FCED00 		movl	$-536809988, %eax
  68      E0
  69 0043 BAFCED00 		movl	$-536809988, %edx
  69      E0
  70 0048 8B12     		movl	(%edx), %edx
  71 004a 81CA0000 		orl	$16777216, %edx
  71      0001
  72 0050 8910     		movl	%edx, (%eax)
  35:E:/NeuOrga/Programmieren/c_cpp/github_os/input/src/os_base\os_common.c **** 
  36:E:/NeuOrga/Programmieren/c_cpp/github_os/input/src/os_base\os_common.c ****    /* reset the counter to 0 cycle */
  37:E:/NeuOrga/Programmieren/c_cpp/github_os/input/src/os_base\os_common.c ****    *DWT_CYCCNT = 0;
GAS LISTING C:\Users\PRESID~1\AppData\Local\Temp\ccSmxUIj.s 			page 3


  73              		.loc 1 37 0
  74 0052 B8041000 		movl	$-536866812, %eax
  74      E0
  75 0057 C7000000 		movl	$0, (%eax)
  75      0000
  38:E:/NeuOrga/Programmieren/c_cpp/github_os/input/src/os_base\os_common.c **** 
  39:E:/NeuOrga/Programmieren/c_cpp/github_os/input/src/os_base\os_common.c ****    /* enable the counter */
  40:E:/NeuOrga/Programmieren/c_cpp/github_os/input/src/os_base\os_common.c ****    *DWT_CTRL |= 1;
  76              		.loc 1 40 0
  77 005d B8001000 		movl	$-536866816, %eax
  77      E0
  78 0062 BA001000 		movl	$-536866816, %edx
  78      E0
  79 0067 8B12     		movl	(%edx), %edx
  80 0069 83CA01   		orl	$1, %edx
  81 006c 8910     		movl	%edx, (%eax)
  41:E:/NeuOrga/Programmieren/c_cpp/github_os/input/src/os_base\os_common.c ****    
  42:E:/NeuOrga/Programmieren/c_cpp/github_os/input/src/os_base\os_common.c ****    /* clear the global time variable */
  43:E:/NeuOrga/Programmieren/c_cpp/github_os/input/src/os_base\os_common.c ****    AssignNull(&GLOBAL_TIMER1);
  82              		.loc 1 43 0
  83 006e C7042400 		movl	$_GLOBAL_TIMER1, (%esp)
  83      000000
  84 0075 E8EB0200 		call	_AssignNull
  84      00
  44:E:/NeuOrga/Programmieren/c_cpp/github_os/input/src/os_base\os_common.c **** }
  85              		.loc 1 44 0
  86 007a C9       		leave
  87              		.cfi_restore 5
  88              		.cfi_def_cfa 4, 4
  89 007b C3       		ret
  90              		.cfi_endproc
  91              	LFE2:
  92              		.globl	_IntAdd
  94              	_IntAdd:
  95              	LFB3:
  45:E:/NeuOrga/Programmieren/c_cpp/github_os/input/src/os_base\os_common.c **** 
  46:E:/NeuOrga/Programmieren/c_cpp/github_os/input/src/os_base\os_common.c **** 
  47:E:/NeuOrga/Programmieren/c_cpp/github_os/input/src/os_base\os_common.c **** 
  48:E:/NeuOrga/Programmieren/c_cpp/github_os/input/src/os_base\os_common.c **** void IntAdd(BigInt* Summe, BigInt* ErsterSummand, BigInt* ZweiterSummand)
  49:E:/NeuOrga/Programmieren/c_cpp/github_os/input/src/os_base\os_common.c **** {
  96              		.loc 1 49 0
  97              		.cfi_startproc
  98 007c 55       		pushl	%ebp
  99              		.cfi_def_cfa_offset 8
 100              		.cfi_offset 5, -8
 101 007d 89E5     		movl	%esp, %ebp
 102              		.cfi_def_cfa_register 5
 103 007f 83EC10   		subl	$16, %esp
  50:E:/NeuOrga/Programmieren/c_cpp/github_os/input/src/os_base\os_common.c ****    sint8 pos;
  51:E:/NeuOrga/Programmieren/c_cpp/github_os/input/src/os_base\os_common.c ****    uint16 carry  = 0;
 104              		.loc 1 51 0
 105 0082 66C745FC 		movw	$0, -4(%ebp)
 105      0000
  52:E:/NeuOrga/Programmieren/c_cpp/github_os/input/src/os_base\os_common.c **** 
  53:E:/NeuOrga/Programmieren/c_cpp/github_os/input/src/os_base\os_common.c ****    for(pos = BigIntSize-1; pos >= 0; pos--)
 106              		.loc 1 53 0
 107 0088 C645FF0F 		movb	$15, -1(%ebp)
GAS LISTING C:\Users\PRESID~1\AppData\Local\Temp\ccSmxUIj.s 			page 4


 108 008c EB46     		jmp	L5
 109              	L6:
 110              	LBB2:
  54:E:/NeuOrga/Programmieren/c_cpp/github_os/input/src/os_base\os_common.c ****    {
  55:E:/NeuOrga/Programmieren/c_cpp/github_os/input/src/os_base\os_common.c ****       uint16 tmpSum = (uint16)ErsterSummand->Number[pos] +(uint16)ZweiterSummand->Number[pos] + car
 111              		.loc 1 55 0 discriminator 3
 112 008e 0FBE45FF 		movsbl	-1(%ebp), %eax
 113 0092 8B550C   		movl	12(%ebp), %edx
 114 0095 8A0402   		movb	(%edx,%eax), %al
 115 0098 0FB6D0   		movzbl	%al, %edx
 116 009b 0FBE45FF 		movsbl	-1(%ebp), %eax
 117 009f 8B4D10   		movl	16(%ebp), %ecx
 118 00a2 8A0401   		movb	(%ecx,%eax), %al
 119 00a5 0FB6C0   		movzbl	%al, %eax
 120 00a8 01C2     		addl	%eax, %edx
 121 00aa 8B45FC   		movl	-4(%ebp), %eax
 122 00ad 01D0     		addl	%edx, %eax
 123 00af 668945FA 		movw	%ax, -6(%ebp)
  56:E:/NeuOrga/Programmieren/c_cpp/github_os/input/src/os_base\os_common.c ****       Summe->Number[pos] = tmpSum & 0xFFu;
 124              		.loc 1 56 0 discriminator 3
 125 00b3 0FBE55FF 		movsbl	-1(%ebp), %edx
 126 00b7 668B45FA 		movw	-6(%ebp), %ax
 127 00bb 88C1     		movb	%al, %cl
 128 00bd 8B4508   		movl	8(%ebp), %eax
 129 00c0 880C10   		movb	%cl, (%eax,%edx)
  57:E:/NeuOrga/Programmieren/c_cpp/github_os/input/src/os_base\os_common.c ****       carry = tmpSum & 0xFF00u;
 130              		.loc 1 57 0 discriminator 3
 131 00c3 668B45FA 		movw	-6(%ebp), %ax
 132 00c7 B000     		movb	$0, %al
 133 00c9 668945FC 		movw	%ax, -4(%ebp)
 134              	LBE2:
  53:E:/NeuOrga/Programmieren/c_cpp/github_os/input/src/os_base\os_common.c ****    {
 135              		.loc 1 53 0 discriminator 3
 136 00cd 8A45FF   		movb	-1(%ebp), %al
 137 00d0 48       		decl	%eax
 138 00d1 8845FF   		movb	%al, -1(%ebp)
 139              	L5:
  53:E:/NeuOrga/Programmieren/c_cpp/github_os/input/src/os_base\os_common.c ****    {
 140              		.loc 1 53 0 is_stmt 0 discriminator 1
 141 00d4 807DFF00 		cmpb	$0, -1(%ebp)
 142 00d8 79B4     		jns	L6
  58:E:/NeuOrga/Programmieren/c_cpp/github_os/input/src/os_base\os_common.c ****    }
  59:E:/NeuOrga/Programmieren/c_cpp/github_os/input/src/os_base\os_common.c **** }
 143              		.loc 1 59 0 is_stmt 1
 144 00da C9       		leave
 145              		.cfi_restore 5
 146              		.cfi_def_cfa 4, 4
 147 00db C3       		ret
 148              		.cfi_endproc
 149              	LFE3:
 150              		.globl	_IntSub
 152              	_IntSub:
 153              	LFB4:
  60:E:/NeuOrga/Programmieren/c_cpp/github_os/input/src/os_base\os_common.c **** void IntSub(BigInt* Differenz, BigInt* Minuend, BigInt* Subtrahend)
  61:E:/NeuOrga/Programmieren/c_cpp/github_os/input/src/os_base\os_common.c **** {
 154              		.loc 1 61 0
 155              		.cfi_startproc
GAS LISTING C:\Users\PRESID~1\AppData\Local\Temp\ccSmxUIj.s 			page 5


 156 00dc 55       		pushl	%ebp
 157              		.cfi_def_cfa_offset 8
 158              		.cfi_offset 5, -8
 159 00dd 89E5     		movl	%esp, %ebp
 160              		.cfi_def_cfa_register 5
 161 00df 83EC10   		subl	$16, %esp
  62:E:/NeuOrga/Programmieren/c_cpp/github_os/input/src/os_base\os_common.c ****    sint8 pos;
  63:E:/NeuOrga/Programmieren/c_cpp/github_os/input/src/os_base\os_common.c ****    uint16 carry  = 0;
 162              		.loc 1 63 0
 163 00e2 66C745FA 		movw	$0, -6(%ebp)
 163      0000
  64:E:/NeuOrga/Programmieren/c_cpp/github_os/input/src/os_base\os_common.c **** 
  65:E:/NeuOrga/Programmieren/c_cpp/github_os/input/src/os_base\os_common.c ****    for(pos = BigIntSize-1; pos >= 0; pos--)
 164              		.loc 1 65 0
 165 00e8 C645FF0F 		movb	$15, -1(%ebp)
 166 00ec E9BD0000 		jmp	L8
 166      00
 167              	L11:
 168              	LBB3:
  66:E:/NeuOrga/Programmieren/c_cpp/github_os/input/src/os_base\os_common.c ****    {
  67:E:/NeuOrga/Programmieren/c_cpp/github_os/input/src/os_base\os_common.c ****       uint16 tmpDiff = 0u;
 169              		.loc 1 67 0
 170 00f1 66C745FC 		movw	$0, -4(%ebp)
 170      0000
  68:E:/NeuOrga/Programmieren/c_cpp/github_os/input/src/os_base\os_common.c ****       if(Minuend->Number[pos]  >= (Subtrahend->Number[pos] + carry))
 171              		.loc 1 68 0
 172 00f7 0FBE45FF 		movsbl	-1(%ebp), %eax
 173 00fb 8B550C   		movl	12(%ebp), %edx
 174 00fe 8A0402   		movb	(%edx,%eax), %al
 175 0101 0FB6C8   		movzbl	%al, %ecx
 176 0104 0FBE45FF 		movsbl	-1(%ebp), %eax
 177 0108 8B5510   		movl	16(%ebp), %edx
 178 010b 8A0402   		movb	(%edx,%eax), %al
 179 010e 0FB6D0   		movzbl	%al, %edx
 180 0111 0FB745FA 		movzwl	-6(%ebp), %eax
 181 0115 01D0     		addl	%edx, %eax
 182 0117 39C1     		cmpl	%eax, %ecx
 183 0119 7C28     		jl	L9
  69:E:/NeuOrga/Programmieren/c_cpp/github_os/input/src/os_base\os_common.c ****       {
  70:E:/NeuOrga/Programmieren/c_cpp/github_os/input/src/os_base\os_common.c ****          tmpDiff = (uint16)Minuend->Number[pos] - (uint16)Subtrahend->Number[pos] - carry;
 184              		.loc 1 70 0
 185 011b 0FBE45FF 		movsbl	-1(%ebp), %eax
 186 011f 8B550C   		movl	12(%ebp), %edx
 187 0122 8A0402   		movb	(%edx,%eax), %al
 188 0125 0FB6D0   		movzbl	%al, %edx
 189 0128 0FBE45FF 		movsbl	-1(%ebp), %eax
 190 012c 8B4D10   		movl	16(%ebp), %ecx
 191 012f 8A0401   		movb	(%ecx,%eax), %al
 192 0132 0FB6C0   		movzbl	%al, %eax
 193 0135 29C2     		subl	%eax, %edx
 194 0137 89D0     		movl	%edx, %eax
 195 0139 662B45FA 		subw	-6(%ebp), %ax
 196 013d 668945FC 		movw	%ax, -4(%ebp)
 197 0141 EB55     		jmp	L10
 198              	L9:
  71:E:/NeuOrga/Programmieren/c_cpp/github_os/input/src/os_base\os_common.c ****       }
  72:E:/NeuOrga/Programmieren/c_cpp/github_os/input/src/os_base\os_common.c ****       else if((Minuend->Number[pos]+0x100)  >= (Subtrahend->Number[pos] + carry))
GAS LISTING C:\Users\PRESID~1\AppData\Local\Temp\ccSmxUIj.s 			page 6


 199              		.loc 1 72 0
 200 0143 0FBE45FF 		movsbl	-1(%ebp), %eax
 201 0147 8B550C   		movl	12(%ebp), %edx
 202 014a 8A0402   		movb	(%edx,%eax), %al
 203 014d 0FB6C0   		movzbl	%al, %eax
 204 0150 8D880001 		leal	256(%eax), %ecx
 204      0000
 205 0156 0FBE45FF 		movsbl	-1(%ebp), %eax
 206 015a 8B5510   		movl	16(%ebp), %edx
 207 015d 8A0402   		movb	(%edx,%eax), %al
 208 0160 0FB6D0   		movzbl	%al, %edx
 209 0163 0FB745FA 		movzwl	-6(%ebp), %eax
 210 0167 01D0     		addl	%edx, %eax
 211 0169 39C1     		cmpl	%eax, %ecx
 212 016b 7C2B     		jl	L10
  73:E:/NeuOrga/Programmieren/c_cpp/github_os/input/src/os_base\os_common.c ****       {
  74:E:/NeuOrga/Programmieren/c_cpp/github_os/input/src/os_base\os_common.c ****          tmpDiff = 0x100+(uint16)Minuend->Number[pos] - (uint16)Subtrahend->Number[pos] - (uint16)c
 213              		.loc 1 74 0
 214 016d 0FBE45FF 		movsbl	-1(%ebp), %eax
 215 0171 8B550C   		movl	12(%ebp), %edx
 216 0174 8A0402   		movb	(%edx,%eax), %al
 217 0177 0FB6D0   		movzbl	%al, %edx
 218 017a 0FBE45FF 		movsbl	-1(%ebp), %eax
 219 017e 8B4D10   		movl	16(%ebp), %ecx
 220 0181 8A0401   		movb	(%ecx,%eax), %al
 221 0184 0FB6C0   		movzbl	%al, %eax
 222 0187 29C2     		subl	%eax, %edx
 223 0189 89D0     		movl	%edx, %eax
 224 018b 662B45FA 		subw	-6(%ebp), %ax
 225 018f 05000100 		addl	$256, %eax
 225      00
 226 0194 668945FC 		movw	%ax, -4(%ebp)
 227              	L10:
  75:E:/NeuOrga/Programmieren/c_cpp/github_os/input/src/os_base\os_common.c ****       }
  76:E:/NeuOrga/Programmieren/c_cpp/github_os/input/src/os_base\os_common.c ****       else
  77:E:/NeuOrga/Programmieren/c_cpp/github_os/input/src/os_base\os_common.c ****       {
  78:E:/NeuOrga/Programmieren/c_cpp/github_os/input/src/os_base\os_common.c ****          /* not possible */
  79:E:/NeuOrga/Programmieren/c_cpp/github_os/input/src/os_base\os_common.c ****       }
  80:E:/NeuOrga/Programmieren/c_cpp/github_os/input/src/os_base\os_common.c ****       Differenz->Number[pos] = tmpDiff;
 228              		.loc 1 80 0 discriminator 2
 229 0198 0FBE55FF 		movsbl	-1(%ebp), %edx
 230 019c 8B45FC   		movl	-4(%ebp), %eax
 231 019f 88C1     		movb	%al, %cl
 232 01a1 8B4508   		movl	8(%ebp), %eax
 233 01a4 880C10   		movb	%cl, (%eax,%edx)
 234              	LBE3:
  65:E:/NeuOrga/Programmieren/c_cpp/github_os/input/src/os_base\os_common.c ****    {
 235              		.loc 1 65 0 discriminator 2
 236 01a7 8A45FF   		movb	-1(%ebp), %al
 237 01aa 48       		decl	%eax
 238 01ab 8845FF   		movb	%al, -1(%ebp)
 239              	L8:
  65:E:/NeuOrga/Programmieren/c_cpp/github_os/input/src/os_base\os_common.c ****    {
 240              		.loc 1 65 0 is_stmt 0 discriminator 1
 241 01ae 807DFF00 		cmpb	$0, -1(%ebp)
 242 01b2 0F8939FF 		jns	L11
 242      FFFF
GAS LISTING C:\Users\PRESID~1\AppData\Local\Temp\ccSmxUIj.s 			page 7


  81:E:/NeuOrga/Programmieren/c_cpp/github_os/input/src/os_base\os_common.c ****    }
  82:E:/NeuOrga/Programmieren/c_cpp/github_os/input/src/os_base\os_common.c **** }
 243              		.loc 1 82 0 is_stmt 1
 244 01b8 C9       		leave
 245              		.cfi_restore 5
 246              		.cfi_def_cfa 4, 4
 247 01b9 C3       		ret
 248              		.cfi_endproc
 249              	LFE4:
 250              		.globl	_IsLess
 252              	_IsLess:
 253              	LFB5:
  83:E:/NeuOrga/Programmieren/c_cpp/github_os/input/src/os_base\os_common.c **** boolean_t IsLess(BigInt* Operand1, BigInt* Operand2)
  84:E:/NeuOrga/Programmieren/c_cpp/github_os/input/src/os_base\os_common.c **** {
 254              		.loc 1 84 0
 255              		.cfi_startproc
 256 01ba 55       		pushl	%ebp
 257              		.cfi_def_cfa_offset 8
 258              		.cfi_offset 5, -8
 259 01bb 89E5     		movl	%esp, %ebp
 260              		.cfi_def_cfa_register 5
 261 01bd 83EC10   		subl	$16, %esp
  85:E:/NeuOrga/Programmieren/c_cpp/github_os/input/src/os_base\os_common.c ****    uint8 pos;
  86:E:/NeuOrga/Programmieren/c_cpp/github_os/input/src/os_base\os_common.c ****    boolean_t IsLess = False;/* in case no if was entered, the numbers are equal -> return False */
 262              		.loc 1 86 0
 263 01c0 C645FE00 		movb	$0, -2(%ebp)
  87:E:/NeuOrga/Programmieren/c_cpp/github_os/input/src/os_base\os_common.c ****    for(pos = 0; pos < BigIntSize; pos++)
 264              		.loc 1 87 0
 265 01c4 C645FF00 		movb	$0, -1(%ebp)
 266 01c8 EB43     		jmp	L13
 267              	L17:
  88:E:/NeuOrga/Programmieren/c_cpp/github_os/input/src/os_base\os_common.c ****    {
  89:E:/NeuOrga/Programmieren/c_cpp/github_os/input/src/os_base\os_common.c ****       if(Operand1->Number[pos] < Operand2->Number[pos])
 268              		.loc 1 89 0
 269 01ca 0FB645FF 		movzbl	-1(%ebp), %eax
 270 01ce 8B5508   		movl	8(%ebp), %edx
 271 01d1 8A0C02   		movb	(%edx,%eax), %cl
 272 01d4 0FB645FF 		movzbl	-1(%ebp), %eax
 273 01d8 8B550C   		movl	12(%ebp), %edx
 274 01db 8A0402   		movb	(%edx,%eax), %al
 275 01de 38C1     		cmpb	%al, %cl
 276 01e0 7306     		jnb	L14
  90:E:/NeuOrga/Programmieren/c_cpp/github_os/input/src/os_base\os_common.c ****       {
  91:E:/NeuOrga/Programmieren/c_cpp/github_os/input/src/os_base\os_common.c ****          IsLess = True;
 277              		.loc 1 91 0
 278 01e2 C645FE01 		movb	$1, -2(%ebp)
  92:E:/NeuOrga/Programmieren/c_cpp/github_os/input/src/os_base\os_common.c ****          break;
 279              		.loc 1 92 0
 280 01e6 EB2B     		jmp	L15
 281              	L14:
  93:E:/NeuOrga/Programmieren/c_cpp/github_os/input/src/os_base\os_common.c ****       }
  94:E:/NeuOrga/Programmieren/c_cpp/github_os/input/src/os_base\os_common.c ****       else if (Operand1->Number[pos] > Operand2->Number[pos])
 282              		.loc 1 94 0
 283 01e8 0FB645FF 		movzbl	-1(%ebp), %eax
 284 01ec 8B5508   		movl	8(%ebp), %edx
 285 01ef 8A0C02   		movb	(%edx,%eax), %cl
 286 01f2 0FB645FF 		movzbl	-1(%ebp), %eax
GAS LISTING C:\Users\PRESID~1\AppData\Local\Temp\ccSmxUIj.s 			page 8


 287 01f6 8B550C   		movl	12(%ebp), %edx
 288 01f9 8A0402   		movb	(%edx,%eax), %al
 289 01fc 38C1     		cmpb	%al, %cl
 290 01fe 7606     		jbe	L16
  95:E:/NeuOrga/Programmieren/c_cpp/github_os/input/src/os_base\os_common.c ****       {
  96:E:/NeuOrga/Programmieren/c_cpp/github_os/input/src/os_base\os_common.c ****          IsLess = False;
 291              		.loc 1 96 0
 292 0200 C645FE00 		movb	$0, -2(%ebp)
  97:E:/NeuOrga/Programmieren/c_cpp/github_os/input/src/os_base\os_common.c ****          break;
 293              		.loc 1 97 0
 294 0204 EB0D     		jmp	L15
 295              	L16:
  87:E:/NeuOrga/Programmieren/c_cpp/github_os/input/src/os_base\os_common.c ****    {
 296              		.loc 1 87 0 discriminator 2
 297 0206 8A45FF   		movb	-1(%ebp), %al
 298 0209 40       		incl	%eax
 299 020a 8845FF   		movb	%al, -1(%ebp)
 300              	L13:
  87:E:/NeuOrga/Programmieren/c_cpp/github_os/input/src/os_base\os_common.c ****    {
 301              		.loc 1 87 0 is_stmt 0 discriminator 1
 302 020d 807DFF0F 		cmpb	$15, -1(%ebp)
 303 0211 76B7     		jbe	L17
 304              	L15:
  98:E:/NeuOrga/Programmieren/c_cpp/github_os/input/src/os_base\os_common.c ****       }
  99:E:/NeuOrga/Programmieren/c_cpp/github_os/input/src/os_base\os_common.c ****       else
 100:E:/NeuOrga/Programmieren/c_cpp/github_os/input/src/os_base\os_common.c ****       {
 101:E:/NeuOrga/Programmieren/c_cpp/github_os/input/src/os_base\os_common.c ****          /* don't break, but continue with next position */
 102:E:/NeuOrga/Programmieren/c_cpp/github_os/input/src/os_base\os_common.c ****       }
 103:E:/NeuOrga/Programmieren/c_cpp/github_os/input/src/os_base\os_common.c ****    }
 104:E:/NeuOrga/Programmieren/c_cpp/github_os/input/src/os_base\os_common.c ****    return IsLess;
 305              		.loc 1 104 0 is_stmt 1
 306 0213 8A45FE   		movb	-2(%ebp), %al
 105:E:/NeuOrga/Programmieren/c_cpp/github_os/input/src/os_base\os_common.c **** }
 307              		.loc 1 105 0
 308 0216 C9       		leave
 309              		.cfi_restore 5
 310              		.cfi_def_cfa 4, 4
 311 0217 C3       		ret
 312              		.cfi_endproc
 313              	LFE5:
 314              		.globl	_IsLessOrEqual
 316              	_IsLessOrEqual:
 317              	LFB6:
 106:E:/NeuOrga/Programmieren/c_cpp/github_os/input/src/os_base\os_common.c **** boolean_t IsLessOrEqual(BigInt* Operand1, BigInt* Operand2)
 107:E:/NeuOrga/Programmieren/c_cpp/github_os/input/src/os_base\os_common.c **** {
 318              		.loc 1 107 0
 319              		.cfi_startproc
 320 0218 55       		pushl	%ebp
 321              		.cfi_def_cfa_offset 8
 322              		.cfi_offset 5, -8
 323 0219 89E5     		movl	%esp, %ebp
 324              		.cfi_def_cfa_register 5
 325 021b 83EC18   		subl	$24, %esp
 108:E:/NeuOrga/Programmieren/c_cpp/github_os/input/src/os_base\os_common.c ****    return IsLess(Operand1,Operand2) || IsEqual(Operand1,Operand2);
 326              		.loc 1 108 0
 327 021e 8B450C   		movl	12(%ebp), %eax
 328 0221 89442404 		movl	%eax, 4(%esp)
GAS LISTING C:\Users\PRESID~1\AppData\Local\Temp\ccSmxUIj.s 			page 9


 329 0225 8B4508   		movl	8(%ebp), %eax
 330 0228 890424   		movl	%eax, (%esp)
 331 022b E88AFFFF 		call	_IsLess
 331      FF
 332 0230 84C0     		testb	%al, %al
 333 0232 7516     		jne	L20
 334              		.loc 1 108 0 is_stmt 0 discriminator 2
 335 0234 8B450C   		movl	12(%ebp), %eax
 336 0237 89442404 		movl	%eax, 4(%esp)
 337 023b 8B4508   		movl	8(%ebp), %eax
 338 023e 890424   		movl	%eax, (%esp)
 339 0241 E8120000 		call	_IsEqual
 339      00
 340 0246 84C0     		testb	%al, %al
 341 0248 7407     		je	L21
 342              	L20:
 343              		.loc 1 108 0 discriminator 3
 344 024a B8010000 		movl	$1, %eax
 344      00
 345 024f EB05     		jmp	L22
 346              	L21:
 347              		.loc 1 108 0 discriminator 4
 348 0251 B8000000 		movl	$0, %eax
 348      00
 349              	L22:
 109:E:/NeuOrga/Programmieren/c_cpp/github_os/input/src/os_base\os_common.c **** }
 350              		.loc 1 109 0 is_stmt 1 discriminator 6
 351 0256 C9       		leave
 352              		.cfi_restore 5
 353              		.cfi_def_cfa 4, 4
 354 0257 C3       		ret
 355              		.cfi_endproc
 356              	LFE6:
 357              		.globl	_IsEqual
 359              	_IsEqual:
 360              	LFB7:
 110:E:/NeuOrga/Programmieren/c_cpp/github_os/input/src/os_base\os_common.c **** boolean_t IsEqual(BigInt* Operand1, BigInt* Operand2)
 111:E:/NeuOrga/Programmieren/c_cpp/github_os/input/src/os_base\os_common.c **** {
 361              		.loc 1 111 0
 362              		.cfi_startproc
 363 0258 55       		pushl	%ebp
 364              		.cfi_def_cfa_offset 8
 365              		.cfi_offset 5, -8
 366 0259 89E5     		movl	%esp, %ebp
 367              		.cfi_def_cfa_register 5
 368 025b 83EC10   		subl	$16, %esp
 112:E:/NeuOrga/Programmieren/c_cpp/github_os/input/src/os_base\os_common.c ****    uint8 pos;
 113:E:/NeuOrga/Programmieren/c_cpp/github_os/input/src/os_base\os_common.c ****    boolean_t IsEqual = True;/* in case no if/elseif) was entered, the numbers are equal -> return T
 369              		.loc 1 113 0
 370 025e C645FE01 		movb	$1, -2(%ebp)
 114:E:/NeuOrga/Programmieren/c_cpp/github_os/input/src/os_base\os_common.c ****    for(pos = 0; pos < BigIntSize; pos++)
 371              		.loc 1 114 0
 372 0262 C645FF00 		movb	$0, -1(%ebp)
 373 0266 EB25     		jmp	L25
 374              	L28:
 115:E:/NeuOrga/Programmieren/c_cpp/github_os/input/src/os_base\os_common.c ****    {
 116:E:/NeuOrga/Programmieren/c_cpp/github_os/input/src/os_base\os_common.c ****       if(Operand1->Number[pos] != Operand2->Number[pos])
GAS LISTING C:\Users\PRESID~1\AppData\Local\Temp\ccSmxUIj.s 			page 10


 375              		.loc 1 116 0
 376 0268 0FB645FF 		movzbl	-1(%ebp), %eax
 377 026c 8B5508   		movl	8(%ebp), %edx
 378 026f 8A0C02   		movb	(%edx,%eax), %cl
 379 0272 0FB645FF 		movzbl	-1(%ebp), %eax
 380 0276 8B550C   		movl	12(%ebp), %edx
 381 0279 8A0402   		movb	(%edx,%eax), %al
 382 027c 38C1     		cmpb	%al, %cl
 383 027e 7406     		je	L26
 117:E:/NeuOrga/Programmieren/c_cpp/github_os/input/src/os_base\os_common.c ****       {
 118:E:/NeuOrga/Programmieren/c_cpp/github_os/input/src/os_base\os_common.c ****          IsEqual = False;
 384              		.loc 1 118 0
 385 0280 C645FE00 		movb	$0, -2(%ebp)
 119:E:/NeuOrga/Programmieren/c_cpp/github_os/input/src/os_base\os_common.c ****          break;
 386              		.loc 1 119 0
 387 0284 EB0D     		jmp	L27
 388              	L26:
 114:E:/NeuOrga/Programmieren/c_cpp/github_os/input/src/os_base\os_common.c ****    {
 389              		.loc 1 114 0 discriminator 2
 390 0286 8A45FF   		movb	-1(%ebp), %al
 391 0289 40       		incl	%eax
 392 028a 8845FF   		movb	%al, -1(%ebp)
 393              	L25:
 114:E:/NeuOrga/Programmieren/c_cpp/github_os/input/src/os_base\os_common.c ****    {
 394              		.loc 1 114 0 is_stmt 0 discriminator 1
 395 028d 807DFF0F 		cmpb	$15, -1(%ebp)
 396 0291 76D5     		jbe	L28
 397              	L27:
 120:E:/NeuOrga/Programmieren/c_cpp/github_os/input/src/os_base\os_common.c ****       }
 121:E:/NeuOrga/Programmieren/c_cpp/github_os/input/src/os_base\os_common.c ****       else
 122:E:/NeuOrga/Programmieren/c_cpp/github_os/input/src/os_base\os_common.c ****       {
 123:E:/NeuOrga/Programmieren/c_cpp/github_os/input/src/os_base\os_common.c ****          /* don't break, but continue with next position */
 124:E:/NeuOrga/Programmieren/c_cpp/github_os/input/src/os_base\os_common.c ****       }
 125:E:/NeuOrga/Programmieren/c_cpp/github_os/input/src/os_base\os_common.c ****    }
 126:E:/NeuOrga/Programmieren/c_cpp/github_os/input/src/os_base\os_common.c ****    return IsEqual;
 398              		.loc 1 126 0 is_stmt 1
 399 0293 8A45FE   		movb	-2(%ebp), %al
 127:E:/NeuOrga/Programmieren/c_cpp/github_os/input/src/os_base\os_common.c **** }
 400              		.loc 1 127 0
 401 0296 C9       		leave
 402              		.cfi_restore 5
 403              		.cfi_def_cfa 4, 4
 404 0297 C3       		ret
 405              		.cfi_endproc
 406              	LFE7:
 407              		.globl	_IsGreater
 409              	_IsGreater:
 410              	LFB8:
 128:E:/NeuOrga/Programmieren/c_cpp/github_os/input/src/os_base\os_common.c **** boolean_t IsGreater(BigInt* Operand1, BigInt* Operand2)
 129:E:/NeuOrga/Programmieren/c_cpp/github_os/input/src/os_base\os_common.c **** {
 411              		.loc 1 129 0
 412              		.cfi_startproc
 413 0298 55       		pushl	%ebp
 414              		.cfi_def_cfa_offset 8
 415              		.cfi_offset 5, -8
 416 0299 89E5     		movl	%esp, %ebp
 417              		.cfi_def_cfa_register 5
GAS LISTING C:\Users\PRESID~1\AppData\Local\Temp\ccSmxUIj.s 			page 11


 418 029b 83EC10   		subl	$16, %esp
 130:E:/NeuOrga/Programmieren/c_cpp/github_os/input/src/os_base\os_common.c ****    uint8 pos;
 131:E:/NeuOrga/Programmieren/c_cpp/github_os/input/src/os_base\os_common.c ****    boolean_t IsGreater = False;/* in case no if was entered, the numbers are equal -> return False 
 419              		.loc 1 131 0
 420 029e C645FE00 		movb	$0, -2(%ebp)
 132:E:/NeuOrga/Programmieren/c_cpp/github_os/input/src/os_base\os_common.c ****    for(pos = 0; pos < BigIntSize; pos++)
 421              		.loc 1 132 0
 422 02a2 C645FF00 		movb	$0, -1(%ebp)
 423 02a6 EB43     		jmp	L31
 424              	L35:
 133:E:/NeuOrga/Programmieren/c_cpp/github_os/input/src/os_base\os_common.c ****    {
 134:E:/NeuOrga/Programmieren/c_cpp/github_os/input/src/os_base\os_common.c ****       if(Operand1->Number[pos] < Operand2->Number[pos])
 425              		.loc 1 134 0
 426 02a8 0FB645FF 		movzbl	-1(%ebp), %eax
 427 02ac 8B5508   		movl	8(%ebp), %edx
 428 02af 8A0C02   		movb	(%edx,%eax), %cl
 429 02b2 0FB645FF 		movzbl	-1(%ebp), %eax
 430 02b6 8B550C   		movl	12(%ebp), %edx
 431 02b9 8A0402   		movb	(%edx,%eax), %al
 432 02bc 38C1     		cmpb	%al, %cl
 433 02be 7306     		jnb	L32
 135:E:/NeuOrga/Programmieren/c_cpp/github_os/input/src/os_base\os_common.c ****       {
 136:E:/NeuOrga/Programmieren/c_cpp/github_os/input/src/os_base\os_common.c ****          IsGreater = False;
 434              		.loc 1 136 0
 435 02c0 C645FE00 		movb	$0, -2(%ebp)
 137:E:/NeuOrga/Programmieren/c_cpp/github_os/input/src/os_base\os_common.c ****          break;
 436              		.loc 1 137 0
 437 02c4 EB2B     		jmp	L33
 438              	L32:
 138:E:/NeuOrga/Programmieren/c_cpp/github_os/input/src/os_base\os_common.c ****       }
 139:E:/NeuOrga/Programmieren/c_cpp/github_os/input/src/os_base\os_common.c ****       else if (Operand1->Number[pos] > Operand2->Number[pos])
 439              		.loc 1 139 0
 440 02c6 0FB645FF 		movzbl	-1(%ebp), %eax
 441 02ca 8B5508   		movl	8(%ebp), %edx
 442 02cd 8A0C02   		movb	(%edx,%eax), %cl
 443 02d0 0FB645FF 		movzbl	-1(%ebp), %eax
 444 02d4 8B550C   		movl	12(%ebp), %edx
 445 02d7 8A0402   		movb	(%edx,%eax), %al
 446 02da 38C1     		cmpb	%al, %cl
 447 02dc 7606     		jbe	L34
 140:E:/NeuOrga/Programmieren/c_cpp/github_os/input/src/os_base\os_common.c ****       {
 141:E:/NeuOrga/Programmieren/c_cpp/github_os/input/src/os_base\os_common.c ****          IsGreater = True;
 448              		.loc 1 141 0
 449 02de C645FE01 		movb	$1, -2(%ebp)
 142:E:/NeuOrga/Programmieren/c_cpp/github_os/input/src/os_base\os_common.c ****          break;
 450              		.loc 1 142 0
 451 02e2 EB0D     		jmp	L33
 452              	L34:
 132:E:/NeuOrga/Programmieren/c_cpp/github_os/input/src/os_base\os_common.c ****    {
 453              		.loc 1 132 0 discriminator 2
 454 02e4 8A45FF   		movb	-1(%ebp), %al
 455 02e7 40       		incl	%eax
 456 02e8 8845FF   		movb	%al, -1(%ebp)
 457              	L31:
 132:E:/NeuOrga/Programmieren/c_cpp/github_os/input/src/os_base\os_common.c ****    {
 458              		.loc 1 132 0 is_stmt 0 discriminator 1
 459 02eb 807DFF0F 		cmpb	$15, -1(%ebp)
GAS LISTING C:\Users\PRESID~1\AppData\Local\Temp\ccSmxUIj.s 			page 12


 460 02ef 76B7     		jbe	L35
 461              	L33:
 143:E:/NeuOrga/Programmieren/c_cpp/github_os/input/src/os_base\os_common.c ****       }
 144:E:/NeuOrga/Programmieren/c_cpp/github_os/input/src/os_base\os_common.c ****       else
 145:E:/NeuOrga/Programmieren/c_cpp/github_os/input/src/os_base\os_common.c ****       {
 146:E:/NeuOrga/Programmieren/c_cpp/github_os/input/src/os_base\os_common.c ****          /* don't break, but continue with next position */
 147:E:/NeuOrga/Programmieren/c_cpp/github_os/input/src/os_base\os_common.c ****       }
 148:E:/NeuOrga/Programmieren/c_cpp/github_os/input/src/os_base\os_common.c ****    }
 149:E:/NeuOrga/Programmieren/c_cpp/github_os/input/src/os_base\os_common.c ****    return IsGreater;
 462              		.loc 1 149 0 is_stmt 1
 463 02f1 8A45FE   		movb	-2(%ebp), %al
 150:E:/NeuOrga/Programmieren/c_cpp/github_os/input/src/os_base\os_common.c **** }
 464              		.loc 1 150 0
 465 02f4 C9       		leave
 466              		.cfi_restore 5
 467              		.cfi_def_cfa 4, 4
 468 02f5 C3       		ret
 469              		.cfi_endproc
 470              	LFE8:
 471              		.globl	_IsGreaterOrEqual
 473              	_IsGreaterOrEqual:
 474              	LFB9:
 151:E:/NeuOrga/Programmieren/c_cpp/github_os/input/src/os_base\os_common.c **** boolean_t IsGreaterOrEqual(BigInt* Operand1, BigInt* Operand2)
 152:E:/NeuOrga/Programmieren/c_cpp/github_os/input/src/os_base\os_common.c **** {
 475              		.loc 1 152 0
 476              		.cfi_startproc
 477 02f6 55       		pushl	%ebp
 478              		.cfi_def_cfa_offset 8
 479              		.cfi_offset 5, -8
 480 02f7 89E5     		movl	%esp, %ebp
 481              		.cfi_def_cfa_register 5
 482 02f9 83EC08   		subl	$8, %esp
 153:E:/NeuOrga/Programmieren/c_cpp/github_os/input/src/os_base\os_common.c ****    return IsGreater(Operand1,Operand2) || IsEqual(Operand1,Operand2);
 483              		.loc 1 153 0
 484 02fc 8B450C   		movl	12(%ebp), %eax
 485 02ff 89442404 		movl	%eax, 4(%esp)
 486 0303 8B4508   		movl	8(%ebp), %eax
 487 0306 890424   		movl	%eax, (%esp)
 488 0309 E88AFFFF 		call	_IsGreater
 488      FF
 489 030e 84C0     		testb	%al, %al
 490 0310 7516     		jne	L38
 491              		.loc 1 153 0 is_stmt 0 discriminator 2
 492 0312 8B450C   		movl	12(%ebp), %eax
 493 0315 89442404 		movl	%eax, 4(%esp)
 494 0319 8B4508   		movl	8(%ebp), %eax
 495 031c 890424   		movl	%eax, (%esp)
 496 031f E834FFFF 		call	_IsEqual
 496      FF
 497 0324 84C0     		testb	%al, %al
 498 0326 7407     		je	L39
 499              	L38:
 500              		.loc 1 153 0 discriminator 3
 501 0328 B8010000 		movl	$1, %eax
 501      00
 502 032d EB05     		jmp	L40
 503              	L39:
GAS LISTING C:\Users\PRESID~1\AppData\Local\Temp\ccSmxUIj.s 			page 13


 504              		.loc 1 153 0 discriminator 4
 505 032f B8000000 		movl	$0, %eax
 505      00
 506              	L40:
 154:E:/NeuOrga/Programmieren/c_cpp/github_os/input/src/os_base\os_common.c **** }
 507              		.loc 1 154 0 is_stmt 1 discriminator 6
 508 0334 C9       		leave
 509              		.cfi_restore 5
 510              		.cfi_def_cfa 4, 4
 511 0335 C3       		ret
 512              		.cfi_endproc
 513              	LFE9:
 514              		.globl	_Assign
 516              	_Assign:
 517              	LFB10:
 155:E:/NeuOrga/Programmieren/c_cpp/github_os/input/src/os_base\os_common.c **** void Assign(BigInt* leftOperand, BigInt* rightOperand)
 156:E:/NeuOrga/Programmieren/c_cpp/github_os/input/src/os_base\os_common.c **** {
 518              		.loc 1 156 0
 519              		.cfi_startproc
 520 0336 55       		pushl	%ebp
 521              		.cfi_def_cfa_offset 8
 522              		.cfi_offset 5, -8
 523 0337 89E5     		movl	%esp, %ebp
 524              		.cfi_def_cfa_register 5
 525 0339 83EC10   		subl	$16, %esp
 157:E:/NeuOrga/Programmieren/c_cpp/github_os/input/src/os_base\os_common.c ****    uint8 pos;
 158:E:/NeuOrga/Programmieren/c_cpp/github_os/input/src/os_base\os_common.c ****    for (pos = 0; pos < BigIntSize; pos++)
 526              		.loc 1 158 0
 527 033c C645FF00 		movb	$0, -1(%ebp)
 528 0340 EB1B     		jmp	L43
 529              	L44:
 159:E:/NeuOrga/Programmieren/c_cpp/github_os/input/src/os_base\os_common.c ****    {
 160:E:/NeuOrga/Programmieren/c_cpp/github_os/input/src/os_base\os_common.c ****       leftOperand->Number[pos] = rightOperand->Number[pos];
 530              		.loc 1 160 0 discriminator 3
 531 0342 0FB645FF 		movzbl	-1(%ebp), %eax
 532 0346 0FB655FF 		movzbl	-1(%ebp), %edx
 533 034a 8B4D0C   		movl	12(%ebp), %ecx
 534 034d 8A0C11   		movb	(%ecx,%edx), %cl
 535 0350 8B5508   		movl	8(%ebp), %edx
 536 0353 880C02   		movb	%cl, (%edx,%eax)
 158:E:/NeuOrga/Programmieren/c_cpp/github_os/input/src/os_base\os_common.c ****    {
 537              		.loc 1 158 0 discriminator 3
 538 0356 8A45FF   		movb	-1(%ebp), %al
 539 0359 40       		incl	%eax
 540 035a 8845FF   		movb	%al, -1(%ebp)
 541              	L43:
 158:E:/NeuOrga/Programmieren/c_cpp/github_os/input/src/os_base\os_common.c ****    {
 542              		.loc 1 158 0 is_stmt 0 discriminator 1
 543 035d 807DFF0F 		cmpb	$15, -1(%ebp)
 544 0361 76DF     		jbe	L44
 161:E:/NeuOrga/Programmieren/c_cpp/github_os/input/src/os_base\os_common.c ****    }
 162:E:/NeuOrga/Programmieren/c_cpp/github_os/input/src/os_base\os_common.c **** }
 545              		.loc 1 162 0 is_stmt 1
 546 0363 C9       		leave
 547              		.cfi_restore 5
 548              		.cfi_def_cfa 4, 4
 549 0364 C3       		ret
GAS LISTING C:\Users\PRESID~1\AppData\Local\Temp\ccSmxUIj.s 			page 14


 550              		.cfi_endproc
 551              	LFE10:
 552              		.globl	_AssignNull
 554              	_AssignNull:
 555              	LFB11:
 163:E:/NeuOrga/Programmieren/c_cpp/github_os/input/src/os_base\os_common.c **** void AssignNull(BigInt* leftOperand)
 164:E:/NeuOrga/Programmieren/c_cpp/github_os/input/src/os_base\os_common.c **** {
 556              		.loc 1 164 0
 557              		.cfi_startproc
 558 0365 55       		pushl	%ebp
 559              		.cfi_def_cfa_offset 8
 560              		.cfi_offset 5, -8
 561 0366 89E5     		movl	%esp, %ebp
 562              		.cfi_def_cfa_register 5
 563 0368 83EC10   		subl	$16, %esp
 165:E:/NeuOrga/Programmieren/c_cpp/github_os/input/src/os_base\os_common.c ****    uint8 pos;
 166:E:/NeuOrga/Programmieren/c_cpp/github_os/input/src/os_base\os_common.c ****    for (pos = 0; pos < BigIntSize; pos++)
 564              		.loc 1 166 0
 565 036b C645FF00 		movb	$0, -1(%ebp)
 566 036f EB12     		jmp	L46
 567              	L47:
 167:E:/NeuOrga/Programmieren/c_cpp/github_os/input/src/os_base\os_common.c ****    {
 168:E:/NeuOrga/Programmieren/c_cpp/github_os/input/src/os_base\os_common.c ****       leftOperand->Number[pos] = 0x00;
 568              		.loc 1 168 0 discriminator 3
 569 0371 0FB645FF 		movzbl	-1(%ebp), %eax
 570 0375 8B5508   		movl	8(%ebp), %edx
 571 0378 C6040200 		movb	$0, (%edx,%eax)
 166:E:/NeuOrga/Programmieren/c_cpp/github_os/input/src/os_base\os_common.c ****    {
 572              		.loc 1 166 0 discriminator 3
 573 037c 8A45FF   		movb	-1(%ebp), %al
 574 037f 40       		incl	%eax
 575 0380 8845FF   		movb	%al, -1(%ebp)
 576              	L46:
 166:E:/NeuOrga/Programmieren/c_cpp/github_os/input/src/os_base\os_common.c ****    {
 577              		.loc 1 166 0 is_stmt 0 discriminator 1
 578 0383 807DFF0F 		cmpb	$15, -1(%ebp)
 579 0387 76E8     		jbe	L47
 169:E:/NeuOrga/Programmieren/c_cpp/github_os/input/src/os_base\os_common.c ****    }
 170:E:/NeuOrga/Programmieren/c_cpp/github_os/input/src/os_base\os_common.c **** }
 580              		.loc 1 170 0 is_stmt 1
 581 0389 C9       		leave
 582              		.cfi_restore 5
 583              		.cfi_def_cfa 4, 4
 584 038a C3       		ret
 585              		.cfi_endproc
 586              	LFE11:
 587              		.globl	_AssignUint32
 589              	_AssignUint32:
 590              	LFB12:
 171:E:/NeuOrga/Programmieren/c_cpp/github_os/input/src/os_base\os_common.c **** 
 172:E:/NeuOrga/Programmieren/c_cpp/github_os/input/src/os_base\os_common.c **** void AssignUint32(BigInt* leftOperand, uint32 rightOperand)
 173:E:/NeuOrga/Programmieren/c_cpp/github_os/input/src/os_base\os_common.c **** {
 591              		.loc 1 173 0
 592              		.cfi_startproc
 593 038b 55       		pushl	%ebp
 594              		.cfi_def_cfa_offset 8
 595              		.cfi_offset 5, -8
GAS LISTING C:\Users\PRESID~1\AppData\Local\Temp\ccSmxUIj.s 			page 15


 596 038c 89E5     		movl	%esp, %ebp
 597              		.cfi_def_cfa_register 5
 598 038e 53       		pushl	%ebx
 599 038f 83EC10   		subl	$16, %esp
 600              		.cfi_offset 3, -12
 174:E:/NeuOrga/Programmieren/c_cpp/github_os/input/src/os_base\os_common.c ****    uint8 pos;
 175:E:/NeuOrga/Programmieren/c_cpp/github_os/input/src/os_base\os_common.c ****    uint8 i;
 176:E:/NeuOrga/Programmieren/c_cpp/github_os/input/src/os_base\os_common.c ****    for (pos = 0; pos < BigIntSize; pos++)
 601              		.loc 1 176 0
 602 0392 C645FB00 		movb	$0, -5(%ebp)
 603 0396 EB12     		jmp	L49
 604              	L50:
 177:E:/NeuOrga/Programmieren/c_cpp/github_os/input/src/os_base\os_common.c ****    {
 178:E:/NeuOrga/Programmieren/c_cpp/github_os/input/src/os_base\os_common.c ****       leftOperand->Number[pos] = 0x00;
 605              		.loc 1 178 0 discriminator 3
 606 0398 0FB645FB 		movzbl	-5(%ebp), %eax
 607 039c 8B5508   		movl	8(%ebp), %edx
 608 039f C6040200 		movb	$0, (%edx,%eax)
 176:E:/NeuOrga/Programmieren/c_cpp/github_os/input/src/os_base\os_common.c ****    {
 609              		.loc 1 176 0 discriminator 3
 610 03a3 8A45FB   		movb	-5(%ebp), %al
 611 03a6 40       		incl	%eax
 612 03a7 8845FB   		movb	%al, -5(%ebp)
 613              	L49:
 176:E:/NeuOrga/Programmieren/c_cpp/github_os/input/src/os_base\os_common.c ****    {
 614              		.loc 1 176 0 is_stmt 0 discriminator 1
 615 03aa 807DFB0F 		cmpb	$15, -5(%ebp)
 616 03ae 76E8     		jbe	L50
 179:E:/NeuOrga/Programmieren/c_cpp/github_os/input/src/os_base\os_common.c ****    }   
 180:E:/NeuOrga/Programmieren/c_cpp/github_os/input/src/os_base\os_common.c ****    for (pos = BigIntSize-1, i = 0; pos >= (BigIntSize-sizeof(uint32)); pos--, i++)
 617              		.loc 1 180 0 is_stmt 1
 618 03b0 C645FB0F 		movb	$15, -5(%ebp)
 619 03b4 C645FA00 		movb	$0, -6(%ebp)
 620 03b8 EB27     		jmp	L51
 621              	L52:
 181:E:/NeuOrga/Programmieren/c_cpp/github_os/input/src/os_base\os_common.c ****    {
 182:E:/NeuOrga/Programmieren/c_cpp/github_os/input/src/os_base\os_common.c ****       leftOperand->Number[pos] = (rightOperand>>i)&0xFFu;
 622              		.loc 1 182 0 discriminator 3
 623 03ba 0FB645FB 		movzbl	-5(%ebp), %eax
 624 03be 0FB655FA 		movzbl	-6(%ebp), %edx
 625 03c2 8B5D0C   		movl	12(%ebp), %ebx
 626 03c5 88D1     		movb	%dl, %cl
 627 03c7 D3EB     		shrl	%cl, %ebx
 628 03c9 89DA     		movl	%ebx, %edx
 629 03cb 88D1     		movb	%dl, %cl
 630 03cd 8B5508   		movl	8(%ebp), %edx
 631 03d0 880C02   		movb	%cl, (%edx,%eax)
 180:E:/NeuOrga/Programmieren/c_cpp/github_os/input/src/os_base\os_common.c ****    {
 632              		.loc 1 180 0 discriminator 3
 633 03d3 8A45FB   		movb	-5(%ebp), %al
 634 03d6 48       		decl	%eax
 635 03d7 8845FB   		movb	%al, -5(%ebp)
 636 03da 8A45FA   		movb	-6(%ebp), %al
 637 03dd 40       		incl	%eax
 638 03de 8845FA   		movb	%al, -6(%ebp)
 639              	L51:
 180:E:/NeuOrga/Programmieren/c_cpp/github_os/input/src/os_base\os_common.c ****    {
GAS LISTING C:\Users\PRESID~1\AppData\Local\Temp\ccSmxUIj.s 			page 16


 640              		.loc 1 180 0 is_stmt 0 discriminator 1
 641 03e1 807DFB0B 		cmpb	$11, -5(%ebp)
 642 03e5 77D3     		ja	L52
 183:E:/NeuOrga/Programmieren/c_cpp/github_os/input/src/os_base\os_common.c ****    }
 184:E:/NeuOrga/Programmieren/c_cpp/github_os/input/src/os_base\os_common.c **** }...
 643              		.loc 1 184 0 is_stmt 1
 644 03e7 83C410   		addl	$16, %esp
 645 03ea 5B       		popl	%ebx
 646              		.cfi_restore 3
 647 03eb 5D       		popl	%ebp
 648              		.cfi_restore 5
 649              		.cfi_def_cfa 4, 4
 650 03ec C3       		ret
 651              		.cfi_endproc
 652              	LFE12:
 653              	Letext0:
 654              		.file 2 "E:/NeuOrga/Programmieren/c_cpp/github_os/input/src/os_base/../os_base/os_base_types.h"
 655              		.file 3 "E:/NeuOrga/Programmieren/c_cpp/github_os/input/src/os_base/../os_base/os_common.h"
 656              		.file 4 "E:/NeuOrga/Programmieren/c_cpp/github_os/input/src/os_base/../os_sim/../os_base/os_task_c
 657              		.file 5 "E:/NeuOrga/Programmieren/c_cpp/github_os/input/src/os_base/../os_base/os_ram.h"
 658 03ed 909090   		.section	.debug_info,"dr"
 659              	Ldebug_info0:
 660 0000 1A090000 		.long	0x91a
 661 0004 0400     		.word	0x4
 662 0006 00000000 		.secrel32	Ldebug_abbrev0
 663 000a 04       		.byte	0x4
 664 000b 01       		.uleb128 0x1
 665 000c 474E5520 		.ascii "GNU C 4.9.3 -march=i386 -g3 -O0 -std=c90\0"
 665      4320342E 
 665      392E3320 
 665      2D6D6172 
 665      63683D69 
 666 0035 01       		.byte	0x1
 667 0036 453A5C4E 		.ascii "E:\\NeuOrga\\Programmieren\\c_cpp\\github_os\\input\\src\\os_base\\os_common.c\0"
 667      65754F72 
 667      67615C50 
 667      726F6772 
 667      616D6D69 
 668 007d 00000000 		.long	Ltext0
 669 0081 ED030000 		.long	Letext0-Ltext0
 670 0085 00000000 		.secrel32	Ldebug_line0
 671 0089 00000000 		.secrel32	Ldebug_macro0
 672 008d 02       		.uleb128 0x2
 673 008e 01       		.byte	0x1
 674 008f 08       		.byte	0x8
 675 0090 756E7369 		.ascii "unsigned char\0"
 675      676E6564 
 675      20636861 
 675      7200
 676 009e 02       		.uleb128 0x2
 677 009f 01       		.byte	0x1
 678 00a0 06       		.byte	0x6
 679 00a1 7369676E 		.ascii "signed char\0"
 679      65642063 
 679      68617200 
 680 00ad 03       		.uleb128 0x3
 681 00ae 75696E74 		.ascii "uint8\0"
GAS LISTING C:\Users\PRESID~1\AppData\Local\Temp\ccSmxUIj.s 			page 17


 681      3800
 682 00b4 02       		.byte	0x2
 683 00b5 21       		.byte	0x21
 684 00b6 8D000000 		.long	0x8d
 685 00ba 03       		.uleb128 0x3
 686 00bb 73696E74 		.ascii "sint8\0"
 686      3800
 687 00c1 02       		.byte	0x2
 688 00c2 22       		.byte	0x22
 689 00c3 9E000000 		.long	0x9e
 690 00c7 02       		.uleb128 0x2
 691 00c8 02       		.byte	0x2
 692 00c9 07       		.byte	0x7
 693 00ca 73686F72 		.ascii "short unsigned int\0"
 693      7420756E 
 693      7369676E 
 693      65642069 
 693      6E7400
 694 00dd 02       		.uleb128 0x2
 695 00de 02       		.byte	0x2
 696 00df 05       		.byte	0x5
 697 00e0 73686F72 		.ascii "short int\0"
 697      7420696E 
 697      7400
 698 00ea 03       		.uleb128 0x3
 699 00eb 75696E74 		.ascii "uint16\0"
 699      313600
 700 00f2 02       		.byte	0x2
 701 00f3 25       		.byte	0x25
 702 00f4 C7000000 		.long	0xc7
 703 00f8 02       		.uleb128 0x2
 704 00f9 04       		.byte	0x4
 705 00fa 07       		.byte	0x7
 706 00fb 6C6F6E67 		.ascii "long unsigned int\0"
 706      20756E73 
 706      69676E65 
 706      6420696E 
 706      7400
 707 010d 02       		.uleb128 0x2
 708 010e 04       		.byte	0x4
 709 010f 05       		.byte	0x5
 710 0110 6C6F6E67 		.ascii "long int\0"
 710      20696E74 
 710      00
 711 0119 03       		.uleb128 0x3
 712 011a 75696E74 		.ascii "uint32\0"
 712      333200
 713 0121 02       		.byte	0x2
 714 0122 29       		.byte	0x29
 715 0123 F8000000 		.long	0xf8
 716 0127 04       		.uleb128 0x4
 717 0128 6F735F73 		.ascii "os_sw_bugs_e\0"
 717      775F6275 
 717      67735F65 
 717      00
 718 0135 04       		.byte	0x4
 719 0136 03       		.byte	0x3
GAS LISTING C:\Users\PRESID~1\AppData\Local\Temp\ccSmxUIj.s 			page 18


 720 0137 2B       		.byte	0x2b
 721 0138 6A020000 		.long	0x26a
 722 013c 05       		.uleb128 0x5
 723 013d 6F735F62 		.ascii "os_bug_no_bug\0"
 723      75675F6E 
 723      6F5F6275 
 723      6700
 724 014b 00       		.sleb128 0
 725 014c 05       		.uleb128 0x5
 726 014d 6F735F62 		.ascii "os_bug_taskstate_request_denied\0"
 726      75675F74 
 726      61736B73 
 726      74617465 
 726      5F726571 
 727 016d 01       		.sleb128 1
 728 016e 05       		.uleb128 0x5
 729 016f 6F735F62 		.ascii "os_bug_null_pointer\0"
 729      75675F6E 
 729      756C6C5F 
 729      706F696E 
 729      74657200 
 730 0183 02       		.sleb128 2
 731 0184 05       		.uleb128 0x5
 732 0185 6F735F62 		.ascii "os_bug_task_max_wait_time_reached\0"
 732      75675F74 
 732      61736B5F 
 732      6D61785F 
 732      77616974 
 733 01a7 03       		.sleb128 3
 734 01a8 05       		.uleb128 0x5
 735 01a9 6F735F62 		.ascii "os_bug_Task_unspecified\0"
 735      75675F54 
 735      61736B5F 
 735      756E7370 
 735      65636966 
 736 01c1 04       		.sleb128 4
 737 01c2 05       		.uleb128 0x5
 738 01c3 6F735F62 		.ascii "os_bug_exception_UndefInstruction\0"
 738      75675F65 
 738      78636570 
 738      74696F6E 
 738      5F556E64 
 739 01e5 05       		.sleb128 5
 740 01e6 05       		.uleb128 0x5
 741 01e7 6F735F62 		.ascii "os_bug_exception_AbortPrefetch\0"
 741      75675F65 
 741      78636570 
 741      74696F6E 
 741      5F41626F 
 742 0206 06       		.sleb128 6
 743 0207 05       		.uleb128 0x5
 744 0208 6F735F62 		.ascii "os_bug_exception_AbortData\0"
 744      75675F65 
 744      78636570 
 744      74696F6E 
 744      5F41626F 
 745 0223 07       		.sleb128 7
GAS LISTING C:\Users\PRESID~1\AppData\Local\Temp\ccSmxUIj.s 			page 19


 746 0224 05       		.uleb128 0x5
 747 0225 6F735F62 		.ascii "os_bug_reset_exit_or_shutdown_failed\0"
 747      75675F72 
 747      65736574 
 747      5F657869 
 747      745F6F72 
 748 024a 08       		.sleb128 8
 749 024b 05       		.uleb128 0x5
 750 024c 6F735F62 		.ascii "os_bug_critical_stack_usage\0"
 750      75675F63 
 750      72697469 
 750      63616C5F 
 750      73746163 
 751 0268 09       		.sleb128 9
 752 0269 00       		.byte	0
 753 026a 03       		.uleb128 0x3
 754 026b 6F735F73 		.ascii "os_sw_bugs_t\0"
 754      775F6275 
 754      67735F74 
 754      00
 755 0278 03       		.byte	0x3
 756 0279 38       		.byte	0x38
 757 027a 27010000 		.long	0x127
 758 027e 03       		.uleb128 0x3
 759 027f 626F6F6C 		.ascii "boolean_t\0"
 759      65616E5F 
 759      7400
 760 0289 03       		.byte	0x3
 761 028a 39       		.byte	0x39
 762 028b AD000000 		.long	0xad
 763 028f 04       		.uleb128 0x4
 764 0290 6F735F73 		.ascii "os_sw_bugs_function_e\0"
 764      775F6275 
 764      67735F66 
 764      756E6374 
 764      696F6E5F 
 765 02a6 04       		.byte	0x4
 766 02a7 03       		.byte	0x3
 767 02a8 3A       		.byte	0x3a
 768 02a9 34040000 		.long	0x434
 769 02ad 05       		.uleb128 0x5
 770 02ae 46756E63 		.ascii "Func_NoFunction\0"
 770      5F4E6F46 
 770      756E6374 
 770      696F6E00 
 771 02be 00       		.sleb128 0
 772 02bf 05       		.uleb128 0x5
 773 02c0 46756E63 		.ascii "Func_SaveTaskEnvironment\0"
 773      5F536176 
 773      65546173 
 773      6B456E76 
 773      69726F6E 
 774 02d9 01       		.sleb128 1
 775 02da 05       		.uleb128 0x5
 776 02db 46756E63 		.ascii "Func_RestoreTaskEnvironment\0"
 776      5F526573 
 776      746F7265 
GAS LISTING C:\Users\PRESID~1\AppData\Local\Temp\ccSmxUIj.s 			page 20


 776      5461736B 
 776      456E7669 
 777 02f7 02       		.sleb128 2
 778 02f8 05       		.uleb128 0x5
 779 02f9 46756E63 		.ascii "Func_CreateTaskEnvironment\0"
 779      5F437265 
 779      61746554 
 779      61736B45 
 779      6E766972 
 780 0314 03       		.sleb128 3
 781 0315 05       		.uleb128 0x5
 782 0316 46756E63 		.ascii "Func_DeleteTaskEnvironment\0"
 782      5F44656C 
 782      65746554 
 782      61736B45 
 782      6E766972 
 783 0331 04       		.sleb128 4
 784 0332 05       		.uleb128 0x5
 785 0333 46756E63 		.ascii "Func_InitTaskEnvironment\0"
 785      5F496E69 
 785      74546173 
 785      6B456E76 
 785      69726F6E 
 786 034c 05       		.sleb128 5
 787 034d 05       		.uleb128 0x5
 788 034e 46756E63 		.ascii "Func_StartTask\0"
 788      5F537461 
 788      72745461 
 788      736B00
 789 035d 06       		.sleb128 6
 790 035e 05       		.uleb128 0x5
 791 035f 46756E63 		.ascii "Func_PreemptTask\0"
 791      5F507265 
 791      656D7074 
 791      5461736B 
 791      00
 792 0370 07       		.sleb128 7
 793 0371 05       		.uleb128 0x5
 794 0372 46756E63 		.ascii "Func_TerminateTask\0"
 794      5F546572 
 794      6D696E61 
 794      74655461 
 794      736B00
 795 0385 08       		.sleb128 8
 796 0386 05       		.uleb128 0x5
 797 0387 46756E63 		.ascii "Func_TaskScheduler\0"
 797      5F546173 
 797      6B536368 
 797      6564756C 
 797      657200
 798 039a 09       		.sleb128 9
 799 039b 05       		.uleb128 0x5
 800 039c 46756E63 		.ascii "Func_InitTask\0"
 800      5F496E69 
 800      74546173 
 800      6B00
 801 03aa 0A       		.sleb128 10
GAS LISTING C:\Users\PRESID~1\AppData\Local\Temp\ccSmxUIj.s 			page 21


 802 03ab 05       		.uleb128 0x5
 803 03ac 46756E63 		.ascii "Func_ActivateTask\0"
 803      5F416374 
 803      69766174 
 803      65546173 
 803      6B00
 804 03be 0B       		.sleb128 11
 805 03bf 05       		.uleb128 0x5
 806 03c0 46756E63 		.ascii "Func_TaskStateRequest\0"
 806      5F546173 
 806      6B537461 
 806      74655265 
 806      71756573 
 807 03d6 0C       		.sleb128 12
 808 03d7 05       		.uleb128 0x5
 809 03d8 46756E63 		.ascii "Func_Preempt_Task\0"
 809      5F507265 
 809      656D7074 
 809      5F546173 
 809      6B00
 810 03ea 0D       		.sleb128 13
 811 03eb 05       		.uleb128 0x5
 812 03ec 46756E63 		.ascii "Func_os_exception\0"
 812      5F6F735F 
 812      65786365 
 812      7074696F 
 812      6E00
 813 03fe 0E       		.sleb128 14
 814 03ff 05       		.uleb128 0x5
 815 0400 46756E63 		.ascii "Func_CreateTask\0"
 815      5F437265 
 815      61746554 
 815      61736B00 
 816 0410 0F       		.sleb128 15
 817 0411 05       		.uleb128 0x5
 818 0412 46756E63 		.ascii "Func_Shutdown\0"
 818      5F536875 
 818      74646F77 
 818      6E00
 819 0420 10       		.sleb128 16
 820 0421 05       		.uleb128 0x5
 821 0422 46756E63 		.ascii "Func_StackCheck\0"
 821      5F537461 
 821      636B4368 
 821      65636B00 
 822 0432 11       		.sleb128 17
 823 0433 00       		.byte	0
 824 0434 03       		.uleb128 0x3
 825 0435 6F735F73 		.ascii "os_sw_bugs_function_t\0"
 825      775F6275 
 825      67735F66 
 825      756E6374 
 825      696F6E5F 
 826 044b 03       		.byte	0x3
 827 044c 4F       		.byte	0x4f
 828 044d 8F020000 		.long	0x28f
 829 0451 06       		.uleb128 0x6
GAS LISTING C:\Users\PRESID~1\AppData\Local\Temp\ccSmxUIj.s 			page 22


 830 0452 42696749 		.ascii "BigInt_s\0"
 830      6E745F73 
 830      00
 831 045b 10       		.byte	0x10
 832 045c 03       		.byte	0x3
 833 045d 59       		.byte	0x59
 834 045e 72040000 		.long	0x472
 835 0462 07       		.uleb128 0x7
 836 0463 4E756D62 		.ascii "Number\0"
 836      657200
 837 046a 03       		.byte	0x3
 838 046b 62       		.byte	0x62
 839 046c 72040000 		.long	0x472
 840 0470 00       		.byte	0
 841 0471 00       		.byte	0
 842 0472 08       		.uleb128 0x8
 843 0473 AD000000 		.long	0xad
 844 0477 82040000 		.long	0x482
 845 047b 09       		.uleb128 0x9
 846 047c 82040000 		.long	0x482
 847 0480 0F       		.byte	0xf
 848 0481 00       		.byte	0
 849 0482 02       		.uleb128 0x2
 850 0483 04       		.byte	0x4
 851 0484 07       		.byte	0x7
 852 0485 73697A65 		.ascii "sizetype\0"
 852      74797065 
 852      00
 853 048e 03       		.uleb128 0x3
 854 048f 42696749 		.ascii "BigInt\0"
 854      6E7400
 855 0496 03       		.byte	0x3
 856 0497 63       		.byte	0x63
 857 0498 51040000 		.long	0x451
 858 049c 03       		.uleb128 0x3
 859 049d 74696D65 		.ascii "timebig_t\0"
 859      6269675F 
 859      7400
 860 04a7 04       		.byte	0x4
 861 04a8 16       		.byte	0x16
 862 04a9 8E040000 		.long	0x48e
 863 04ad 02       		.uleb128 0x2
 864 04ae 04       		.byte	0x4
 865 04af 07       		.byte	0x7
 866 04b0 756E7369 		.ascii "unsigned int\0"
 866      676E6564 
 866      20696E74 
 866      00
 867 04bd 0A       		.uleb128 0xa
 868 04be 4F535F53 		.ascii "OS_SetSwBug\0"
 868      65745377 
 868      42756700 
 869 04ca 01       		.byte	0x1
 870 04cb 04       		.byte	0x4
 871 04cc 00000000 		.long	LFB0
 872 04d0 12000000 		.long	LFE0-LFB0
 873 04d4 01       		.uleb128 0x1
GAS LISTING C:\Users\PRESID~1\AppData\Local\Temp\ccSmxUIj.s 			page 23


 874 04d5 9C       		.byte	0x9c
 875 04d6 03050000 		.long	0x503
 876 04da 0B       		.uleb128 0xb
 877 04db 6275675F 		.ascii "bug_nr\0"
 877      6E7200
 878 04e2 01       		.byte	0x1
 879 04e3 04       		.byte	0x4
 880 04e4 6A020000 		.long	0x26a
 881 04e8 02       		.uleb128 0x2
 882 04e9 91       		.byte	0x91
 883 04ea 00       		.sleb128 0
 884 04eb 0B       		.uleb128 0xb
 885 04ec 7461736B 		.ascii "task_func_nr\0"
 885      5F66756E 
 885      635F6E72 
 885      00
 886 04f9 01       		.byte	0x1
 887 04fa 04       		.byte	0x4
 888 04fb 34040000 		.long	0x434
 889 04ff 02       		.uleb128 0x2
 890 0500 91       		.byte	0x91
 891 0501 04       		.sleb128 4
 892 0502 00       		.byte	0
 893 0503 0C       		.uleb128 0xc
 894 0504 4F535F47 		.ascii "OS_GetCurrentTime\0"
 894      65744375 
 894      7272656E 
 894      7454696D 
 894      6500
 895 0516 01       		.byte	0x1
 896 0517 0F       		.byte	0xf
 897 0518 12000000 		.long	LFB1
 898 051c 1B000000 		.long	LFE1-LFB1
 899 0520 01       		.uleb128 0x1
 900 0521 9C       		.byte	0x9c
 901 0522 36050000 		.long	0x536
 902 0526 0B       		.uleb128 0xb
 903 0527 74696D65 		.ascii "time\0"
 903      00
 904 052c 01       		.byte	0x1
 905 052d 0F       		.byte	0xf
 906 052e 36050000 		.long	0x536
 907 0532 02       		.uleb128 0x2
 908 0533 91       		.byte	0x91
 909 0534 00       		.sleb128 0
 910 0535 00       		.byte	0
 911 0536 0D       		.uleb128 0xd
 912 0537 04       		.byte	0x4
 913 0538 9C040000 		.long	0x49c
 914 053c 0E       		.uleb128 0xe
 915 053d 4F535F52 		.ascii "OS_ResetCurrentTime\0"
 915      65736574 
 915      43757272 
 915      656E7454 
 915      696D6500 
 916 0551 01       		.byte	0x1
 917 0552 1C       		.byte	0x1c
GAS LISTING C:\Users\PRESID~1\AppData\Local\Temp\ccSmxUIj.s 			page 24


 918 0553 2D000000 		.long	LFB2
 919 0557 4F000000 		.long	LFE2-LFB2
 920 055b 01       		.uleb128 0x1
 921 055c 9C       		.byte	0x9c
 922 055d 0A       		.uleb128 0xa
 923 055e 496E7441 		.ascii "IntAdd\0"
 923      646400
 924 0565 01       		.byte	0x1
 925 0566 30       		.byte	0x30
 926 0567 7C000000 		.long	LFB3
 927 056b 60000000 		.long	LFE3-LFB3
 928 056f 01       		.uleb128 0x1
 929 0570 9C       		.byte	0x9c
 930 0571 F0050000 		.long	0x5f0
 931 0575 0B       		.uleb128 0xb
 932 0576 53756D6D 		.ascii "Summe\0"
 932      6500
 933 057c 01       		.byte	0x1
 934 057d 30       		.byte	0x30
 935 057e F0050000 		.long	0x5f0
 936 0582 02       		.uleb128 0x2
 937 0583 91       		.byte	0x91
 938 0584 00       		.sleb128 0
 939 0585 0B       		.uleb128 0xb
 940 0586 45727374 		.ascii "ErsterSummand\0"
 940      65725375 
 940      6D6D616E 
 940      6400
 941 0594 01       		.byte	0x1
 942 0595 30       		.byte	0x30
 943 0596 F0050000 		.long	0x5f0
 944 059a 02       		.uleb128 0x2
 945 059b 91       		.byte	0x91
 946 059c 04       		.sleb128 4
 947 059d 0B       		.uleb128 0xb
 948 059e 5A776569 		.ascii "ZweiterSummand\0"
 948      74657253 
 948      756D6D61 
 948      6E6400
 949 05ad 01       		.byte	0x1
 950 05ae 30       		.byte	0x30
 951 05af F0050000 		.long	0x5f0
 952 05b3 02       		.uleb128 0x2
 953 05b4 91       		.byte	0x91
 954 05b5 08       		.sleb128 8
 955 05b6 0F       		.uleb128 0xf
 956 05b7 706F7300 		.ascii "pos\0"
 957 05bb 01       		.byte	0x1
 958 05bc 32       		.byte	0x32
 959 05bd BA000000 		.long	0xba
 960 05c1 02       		.uleb128 0x2
 961 05c2 91       		.byte	0x91
 962 05c3 77       		.sleb128 -9
 963 05c4 0F       		.uleb128 0xf
 964 05c5 63617272 		.ascii "carry\0"
 964      7900
 965 05cb 01       		.byte	0x1
GAS LISTING C:\Users\PRESID~1\AppData\Local\Temp\ccSmxUIj.s 			page 25


 966 05cc 33       		.byte	0x33
 967 05cd EA000000 		.long	0xea
 968 05d1 02       		.uleb128 0x2
 969 05d2 91       		.byte	0x91
 970 05d3 74       		.sleb128 -12
 971 05d4 10       		.uleb128 0x10
 972 05d5 8E000000 		.long	LBB2
 973 05d9 3F000000 		.long	LBE2-LBB2
 974 05dd 0F       		.uleb128 0xf
 975 05de 746D7053 		.ascii "tmpSum\0"
 975      756D00
 976 05e5 01       		.byte	0x1
 977 05e6 37       		.byte	0x37
 978 05e7 EA000000 		.long	0xea
 979 05eb 02       		.uleb128 0x2
 980 05ec 91       		.byte	0x91
 981 05ed 72       		.sleb128 -14
 982 05ee 00       		.byte	0
 983 05ef 00       		.byte	0
 984 05f0 0D       		.uleb128 0xd
 985 05f1 04       		.byte	0x4
 986 05f2 8E040000 		.long	0x48e
 987 05f6 0A       		.uleb128 0xa
 988 05f7 496E7453 		.ascii "IntSub\0"
 988      756200
 989 05fe 01       		.byte	0x1
 990 05ff 3C       		.byte	0x3c
 991 0600 DC000000 		.long	LFB4
 992 0604 DE000000 		.long	LFE4-LFB4
 993 0608 01       		.uleb128 0x1
 994 0609 9C       		.byte	0x9c
 995 060a 84060000 		.long	0x684
 996 060e 0B       		.uleb128 0xb
 997 060f 44696666 		.ascii "Differenz\0"
 997      6572656E 
 997      7A00
 998 0619 01       		.byte	0x1
 999 061a 3C       		.byte	0x3c
 1000 061b F0050000 		.long	0x5f0
 1001 061f 02       		.uleb128 0x2
 1002 0620 91       		.byte	0x91
 1003 0621 00       		.sleb128 0
 1004 0622 0B       		.uleb128 0xb
 1005 0623 4D696E75 		.ascii "Minuend\0"
 1005      656E6400 
 1006 062b 01       		.byte	0x1
 1007 062c 3C       		.byte	0x3c
 1008 062d F0050000 		.long	0x5f0
 1009 0631 02       		.uleb128 0x2
 1010 0632 91       		.byte	0x91
 1011 0633 04       		.sleb128 4
 1012 0634 0B       		.uleb128 0xb
 1013 0635 53756274 		.ascii "Subtrahend\0"
 1013      72616865 
 1013      6E6400
 1014 0640 01       		.byte	0x1
 1015 0641 3C       		.byte	0x3c
GAS LISTING C:\Users\PRESID~1\AppData\Local\Temp\ccSmxUIj.s 			page 26


 1016 0642 F0050000 		.long	0x5f0
 1017 0646 02       		.uleb128 0x2
 1018 0647 91       		.byte	0x91
 1019 0648 08       		.sleb128 8
 1020 0649 0F       		.uleb128 0xf
 1021 064a 706F7300 		.ascii "pos\0"
 1022 064e 01       		.byte	0x1
 1023 064f 3E       		.byte	0x3e
 1024 0650 BA000000 		.long	0xba
 1025 0654 02       		.uleb128 0x2
 1026 0655 91       		.byte	0x91
 1027 0656 77       		.sleb128 -9
 1028 0657 0F       		.uleb128 0xf
 1029 0658 63617272 		.ascii "carry\0"
 1029      7900
 1030 065e 01       		.byte	0x1
 1031 065f 3F       		.byte	0x3f
 1032 0660 EA000000 		.long	0xea
 1033 0664 02       		.uleb128 0x2
 1034 0665 91       		.byte	0x91
 1035 0666 72       		.sleb128 -14
 1036 0667 10       		.uleb128 0x10
 1037 0668 F1000000 		.long	LBB3
 1038 066c B6000000 		.long	LBE3-LBB3
 1039 0670 0F       		.uleb128 0xf
 1040 0671 746D7044 		.ascii "tmpDiff\0"
 1040      69666600 
 1041 0679 01       		.byte	0x1
 1042 067a 43       		.byte	0x43
 1043 067b EA000000 		.long	0xea
 1044 067f 02       		.uleb128 0x2
 1045 0680 91       		.byte	0x91
 1046 0681 74       		.sleb128 -12
 1047 0682 00       		.byte	0
 1048 0683 00       		.byte	0
 1049 0684 11       		.uleb128 0x11
 1050 0685 49734C65 		.ascii "IsLess\0"
 1050      737300
 1051 068c 01       		.byte	0x1
 1052 068d 53       		.byte	0x53
 1053 068e 7E020000 		.long	0x27e
 1054 0692 BA010000 		.long	LFB5
 1055 0696 5E000000 		.long	LFE5-LFB5
 1056 069a 01       		.uleb128 0x1
 1057 069b 9C       		.byte	0x9c
 1058 069c DC060000 		.long	0x6dc
 1059 06a0 12       		.uleb128 0x12
 1060 06a1 22000000 		.secrel32	LASF0
 1061 06a5 01       		.byte	0x1
 1062 06a6 53       		.byte	0x53
 1063 06a7 F0050000 		.long	0x5f0
 1064 06ab 02       		.uleb128 0x2
 1065 06ac 91       		.byte	0x91
 1066 06ad 00       		.sleb128 0
 1067 06ae 12       		.uleb128 0x12
 1068 06af 00000000 		.secrel32	LASF1
 1069 06b3 01       		.byte	0x1
GAS LISTING C:\Users\PRESID~1\AppData\Local\Temp\ccSmxUIj.s 			page 27


 1070 06b4 53       		.byte	0x53
 1071 06b5 F0050000 		.long	0x5f0
 1072 06b9 02       		.uleb128 0x2
 1073 06ba 91       		.byte	0x91
 1074 06bb 04       		.sleb128 4
 1075 06bc 0F       		.uleb128 0xf
 1076 06bd 706F7300 		.ascii "pos\0"
 1077 06c1 01       		.byte	0x1
 1078 06c2 55       		.byte	0x55
 1079 06c3 AD000000 		.long	0xad
 1080 06c7 02       		.uleb128 0x2
 1081 06c8 91       		.byte	0x91
 1082 06c9 77       		.sleb128 -9
 1083 06ca 0F       		.uleb128 0xf
 1084 06cb 49734C65 		.ascii "IsLess\0"
 1084      737300
 1085 06d2 01       		.byte	0x1
 1086 06d3 56       		.byte	0x56
 1087 06d4 7E020000 		.long	0x27e
 1088 06d8 02       		.uleb128 0x2
 1089 06d9 91       		.byte	0x91
 1090 06da 76       		.sleb128 -10
 1091 06db 00       		.byte	0
 1092 06dc 13       		.uleb128 0x13
 1093 06dd 49734C65 		.ascii "IsLessOrEqual\0"
 1093      73734F72 
 1093      45717561 
 1093      6C00
 1094 06eb 01       		.byte	0x1
 1095 06ec 6A       		.byte	0x6a
 1096 06ed 7E020000 		.long	0x27e
 1097 06f1 18020000 		.long	LFB6
 1098 06f5 40000000 		.long	LFE6-LFB6
 1099 06f9 01       		.uleb128 0x1
 1100 06fa 9C       		.byte	0x9c
 1101 06fb 1C070000 		.long	0x71c
 1102 06ff 12       		.uleb128 0x12
 1103 0700 22000000 		.secrel32	LASF0
 1104 0704 01       		.byte	0x1
 1105 0705 6A       		.byte	0x6a
 1106 0706 F0050000 		.long	0x5f0
 1107 070a 02       		.uleb128 0x2
 1108 070b 91       		.byte	0x91
 1109 070c 00       		.sleb128 0
 1110 070d 12       		.uleb128 0x12
 1111 070e 00000000 		.secrel32	LASF1
 1112 0712 01       		.byte	0x1
 1113 0713 6A       		.byte	0x6a
 1114 0714 F0050000 		.long	0x5f0
 1115 0718 02       		.uleb128 0x2
 1116 0719 91       		.byte	0x91
 1117 071a 04       		.sleb128 4
 1118 071b 00       		.byte	0
 1119 071c 11       		.uleb128 0x11
 1120 071d 49734571 		.ascii "IsEqual\0"
 1120      75616C00 
 1121 0725 01       		.byte	0x1
GAS LISTING C:\Users\PRESID~1\AppData\Local\Temp\ccSmxUIj.s 			page 28


 1122 0726 6E       		.byte	0x6e
 1123 0727 7E020000 		.long	0x27e
 1124 072b 58020000 		.long	LFB7
 1125 072f 40000000 		.long	LFE7-LFB7
 1126 0733 01       		.uleb128 0x1
 1127 0734 9C       		.byte	0x9c
 1128 0735 76070000 		.long	0x776
 1129 0739 12       		.uleb128 0x12
 1130 073a 22000000 		.secrel32	LASF0
 1131 073e 01       		.byte	0x1
 1132 073f 6E       		.byte	0x6e
 1133 0740 F0050000 		.long	0x5f0
 1134 0744 02       		.uleb128 0x2
 1135 0745 91       		.byte	0x91
 1136 0746 00       		.sleb128 0
 1137 0747 12       		.uleb128 0x12
 1138 0748 00000000 		.secrel32	LASF1
 1139 074c 01       		.byte	0x1
 1140 074d 6E       		.byte	0x6e
 1141 074e F0050000 		.long	0x5f0
 1142 0752 02       		.uleb128 0x2
 1143 0753 91       		.byte	0x91
 1144 0754 04       		.sleb128 4
 1145 0755 0F       		.uleb128 0xf
 1146 0756 706F7300 		.ascii "pos\0"
 1147 075a 01       		.byte	0x1
 1148 075b 70       		.byte	0x70
 1149 075c AD000000 		.long	0xad
 1150 0760 02       		.uleb128 0x2
 1151 0761 91       		.byte	0x91
 1152 0762 77       		.sleb128 -9
 1153 0763 0F       		.uleb128 0xf
 1154 0764 49734571 		.ascii "IsEqual\0"
 1154      75616C00 
 1155 076c 01       		.byte	0x1
 1156 076d 71       		.byte	0x71
 1157 076e 7E020000 		.long	0x27e
 1158 0772 02       		.uleb128 0x2
 1159 0773 91       		.byte	0x91
 1160 0774 76       		.sleb128 -10
 1161 0775 00       		.byte	0
 1162 0776 14       		.uleb128 0x14
 1163 0777 2B000000 		.secrel32	LASF2
 1164 077b 01       		.byte	0x1
 1165 077c 80       		.byte	0x80
 1166 077d 7E020000 		.long	0x27e
 1167 0781 98020000 		.long	LFB8
 1168 0785 5E000000 		.long	LFE8-LFB8
 1169 0789 01       		.uleb128 0x1
 1170 078a 9C       		.byte	0x9c
 1171 078b C8070000 		.long	0x7c8
 1172 078f 12       		.uleb128 0x12
 1173 0790 22000000 		.secrel32	LASF0
 1174 0794 01       		.byte	0x1
 1175 0795 80       		.byte	0x80
 1176 0796 F0050000 		.long	0x5f0
 1177 079a 02       		.uleb128 0x2
GAS LISTING C:\Users\PRESID~1\AppData\Local\Temp\ccSmxUIj.s 			page 29


 1178 079b 91       		.byte	0x91
 1179 079c 00       		.sleb128 0
 1180 079d 12       		.uleb128 0x12
 1181 079e 00000000 		.secrel32	LASF1
 1182 07a2 01       		.byte	0x1
 1183 07a3 80       		.byte	0x80
 1184 07a4 F0050000 		.long	0x5f0
 1185 07a8 02       		.uleb128 0x2
 1186 07a9 91       		.byte	0x91
 1187 07aa 04       		.sleb128 4
 1188 07ab 0F       		.uleb128 0xf
 1189 07ac 706F7300 		.ascii "pos\0"
 1190 07b0 01       		.byte	0x1
 1191 07b1 82       		.byte	0x82
 1192 07b2 AD000000 		.long	0xad
 1193 07b6 02       		.uleb128 0x2
 1194 07b7 91       		.byte	0x91
 1195 07b8 77       		.sleb128 -9
 1196 07b9 15       		.uleb128 0x15
 1197 07ba 2B000000 		.secrel32	LASF2
 1198 07be 01       		.byte	0x1
 1199 07bf 83       		.byte	0x83
 1200 07c0 7E020000 		.long	0x27e
 1201 07c4 02       		.uleb128 0x2
 1202 07c5 91       		.byte	0x91
 1203 07c6 76       		.sleb128 -10
 1204 07c7 00       		.byte	0
 1205 07c8 13       		.uleb128 0x13
 1206 07c9 49734772 		.ascii "IsGreaterOrEqual\0"
 1206      65617465 
 1206      724F7245 
 1206      7175616C 
 1206      00
 1207 07da 01       		.byte	0x1
 1208 07db 97       		.byte	0x97
 1209 07dc 7E020000 		.long	0x27e
 1210 07e0 F6020000 		.long	LFB9
 1211 07e4 40000000 		.long	LFE9-LFB9
 1212 07e8 01       		.uleb128 0x1
 1213 07e9 9C       		.byte	0x9c
 1214 07ea 0B080000 		.long	0x80b
 1215 07ee 12       		.uleb128 0x12
 1216 07ef 22000000 		.secrel32	LASF0
 1217 07f3 01       		.byte	0x1
 1218 07f4 97       		.byte	0x97
 1219 07f5 F0050000 		.long	0x5f0
 1220 07f9 02       		.uleb128 0x2
 1221 07fa 91       		.byte	0x91
 1222 07fb 00       		.sleb128 0
 1223 07fc 12       		.uleb128 0x12
 1224 07fd 00000000 		.secrel32	LASF1
 1225 0801 01       		.byte	0x1
 1226 0802 97       		.byte	0x97
 1227 0803 F0050000 		.long	0x5f0
 1228 0807 02       		.uleb128 0x2
 1229 0808 91       		.byte	0x91
 1230 0809 04       		.sleb128 4
GAS LISTING C:\Users\PRESID~1\AppData\Local\Temp\ccSmxUIj.s 			page 30


 1231 080a 00       		.byte	0
 1232 080b 0A       		.uleb128 0xa
 1233 080c 41737369 		.ascii "Assign\0"
 1233      676E00
 1234 0813 01       		.byte	0x1
 1235 0814 9B       		.byte	0x9b
 1236 0815 36030000 		.long	LFB10
 1237 0819 2F000000 		.long	LFE10-LFB10
 1238 081d 01       		.uleb128 0x1
 1239 081e 9C       		.byte	0x9c
 1240 081f 4E080000 		.long	0x84e
 1241 0823 12       		.uleb128 0x12
 1242 0824 09000000 		.secrel32	LASF3
 1243 0828 01       		.byte	0x1
 1244 0829 9B       		.byte	0x9b
 1245 082a F0050000 		.long	0x5f0
 1246 082e 02       		.uleb128 0x2
 1247 082f 91       		.byte	0x91
 1248 0830 00       		.sleb128 0
 1249 0831 12       		.uleb128 0x12
 1250 0832 15000000 		.secrel32	LASF4
 1251 0836 01       		.byte	0x1
 1252 0837 9B       		.byte	0x9b
 1253 0838 F0050000 		.long	0x5f0
 1254 083c 02       		.uleb128 0x2
 1255 083d 91       		.byte	0x91
 1256 083e 04       		.sleb128 4
 1257 083f 0F       		.uleb128 0xf
 1258 0840 706F7300 		.ascii "pos\0"
 1259 0844 01       		.byte	0x1
 1260 0845 9D       		.byte	0x9d
 1261 0846 AD000000 		.long	0xad
 1262 084a 02       		.uleb128 0x2
 1263 084b 91       		.byte	0x91
 1264 084c 77       		.sleb128 -9
 1265 084d 00       		.byte	0
 1266 084e 0A       		.uleb128 0xa
 1267 084f 41737369 		.ascii "AssignNull\0"
 1267      676E4E75 
 1267      6C6C00
 1268 085a 01       		.byte	0x1
 1269 085b A3       		.byte	0xa3
 1270 085c 65030000 		.long	LFB11
 1271 0860 26000000 		.long	LFE11-LFB11
 1272 0864 01       		.uleb128 0x1
 1273 0865 9C       		.byte	0x9c
 1274 0866 87080000 		.long	0x887
 1275 086a 12       		.uleb128 0x12
 1276 086b 09000000 		.secrel32	LASF3
 1277 086f 01       		.byte	0x1
 1278 0870 A3       		.byte	0xa3
 1279 0871 F0050000 		.long	0x5f0
 1280 0875 02       		.uleb128 0x2
 1281 0876 91       		.byte	0x91
 1282 0877 00       		.sleb128 0
 1283 0878 0F       		.uleb128 0xf
 1284 0879 706F7300 		.ascii "pos\0"
GAS LISTING C:\Users\PRESID~1\AppData\Local\Temp\ccSmxUIj.s 			page 31


 1285 087d 01       		.byte	0x1
 1286 087e A5       		.byte	0xa5
 1287 087f AD000000 		.long	0xad
 1288 0883 02       		.uleb128 0x2
 1289 0884 91       		.byte	0x91
 1290 0885 77       		.sleb128 -9
 1291 0886 00       		.byte	0
 1292 0887 0A       		.uleb128 0xa
 1293 0888 41737369 		.ascii "AssignUint32\0"
 1293      676E5569 
 1293      6E743332 
 1293      00
 1294 0895 01       		.byte	0x1
 1295 0896 AC       		.byte	0xac
 1296 0897 8B030000 		.long	LFB12
 1297 089b 62000000 		.long	LFE12-LFB12
 1298 089f 01       		.uleb128 0x1
 1299 08a0 9C       		.byte	0x9c
 1300 08a1 DC080000 		.long	0x8dc
 1301 08a5 12       		.uleb128 0x12
 1302 08a6 09000000 		.secrel32	LASF3
 1303 08aa 01       		.byte	0x1
 1304 08ab AC       		.byte	0xac
 1305 08ac F0050000 		.long	0x5f0
 1306 08b0 02       		.uleb128 0x2
 1307 08b1 91       		.byte	0x91
 1308 08b2 00       		.sleb128 0
 1309 08b3 12       		.uleb128 0x12
 1310 08b4 15000000 		.secrel32	LASF4
 1311 08b8 01       		.byte	0x1
 1312 08b9 AC       		.byte	0xac
 1313 08ba 19010000 		.long	0x119
 1314 08be 02       		.uleb128 0x2
 1315 08bf 91       		.byte	0x91
 1316 08c0 04       		.sleb128 4
 1317 08c1 0F       		.uleb128 0xf
 1318 08c2 706F7300 		.ascii "pos\0"
 1319 08c6 01       		.byte	0x1
 1320 08c7 AE       		.byte	0xae
 1321 08c8 AD000000 		.long	0xad
 1322 08cc 02       		.uleb128 0x2
 1323 08cd 91       		.byte	0x91
 1324 08ce 73       		.sleb128 -13
 1325 08cf 0F       		.uleb128 0xf
 1326 08d0 6900     		.ascii "i\0"
 1327 08d2 01       		.byte	0x1
 1328 08d3 AF       		.byte	0xaf
 1329 08d4 AD000000 		.long	0xad
 1330 08d8 02       		.uleb128 0x2
 1331 08d9 91       		.byte	0x91
 1332 08da 72       		.sleb128 -14
 1333 08db 00       		.byte	0
 1334 08dc 0F       		.uleb128 0xf
 1335 08dd 474C4F42 		.ascii "GLOBAL_TIMER1\0"
 1335      414C5F54 
 1335      494D4552 
 1335      3100
GAS LISTING C:\Users\PRESID~1\AppData\Local\Temp\ccSmxUIj.s 			page 32


 1336 08eb 01       		.byte	0x1
 1337 08ec 0D       		.byte	0xd
 1338 08ed 9C040000 		.long	0x49c
 1339 08f1 05       		.uleb128 0x5
 1340 08f2 03       		.byte	0x3
 1341 08f3 00000000 		.long	_GLOBAL_TIMER1
 1342 08f7 08       		.uleb128 0x8
 1343 08f8 6A020000 		.long	0x26a
 1344 08fc 07090000 		.long	0x907
 1345 0900 09       		.uleb128 0x9
 1346 0901 82040000 		.long	0x482
 1347 0905 0E       		.byte	0xe
 1348 0906 00       		.byte	0
 1349 0907 16       		.uleb128 0x16
 1350 0908 4F535F53 		.ascii "OS_SW_BUG\0"
 1350      575F4255 
 1350      4700
 1351 0912 05       		.byte	0x5
 1352 0913 10       		.byte	0x10
 1353 0914 18090000 		.long	0x918
 1354 0918 17       		.uleb128 0x17
 1355 0919 F7080000 		.long	0x8f7
 1356 091d 00       		.byte	0
 1357              		.section	.debug_abbrev,"dr"
 1358              	Ldebug_abbrev0:
 1359 0000 01       		.uleb128 0x1
 1360 0001 11       		.uleb128 0x11
 1361 0002 01       		.byte	0x1
 1362 0003 25       		.uleb128 0x25
 1363 0004 08       		.uleb128 0x8
 1364 0005 13       		.uleb128 0x13
 1365 0006 0B       		.uleb128 0xb
 1366 0007 03       		.uleb128 0x3
 1367 0008 08       		.uleb128 0x8
 1368 0009 11       		.uleb128 0x11
 1369 000a 01       		.uleb128 0x1
 1370 000b 12       		.uleb128 0x12
 1371 000c 06       		.uleb128 0x6
 1372 000d 10       		.uleb128 0x10
 1373 000e 17       		.uleb128 0x17
 1374 000f 9942     		.uleb128 0x2119
 1375 0011 17       		.uleb128 0x17
 1376 0012 00       		.byte	0
 1377 0013 00       		.byte	0
 1378 0014 02       		.uleb128 0x2
 1379 0015 24       		.uleb128 0x24
 1380 0016 00       		.byte	0
 1381 0017 0B       		.uleb128 0xb
 1382 0018 0B       		.uleb128 0xb
 1383 0019 3E       		.uleb128 0x3e
 1384 001a 0B       		.uleb128 0xb
 1385 001b 03       		.uleb128 0x3
 1386 001c 08       		.uleb128 0x8
 1387 001d 00       		.byte	0
 1388 001e 00       		.byte	0
 1389 001f 03       		.uleb128 0x3
 1390 0020 16       		.uleb128 0x16
GAS LISTING C:\Users\PRESID~1\AppData\Local\Temp\ccSmxUIj.s 			page 33


 1391 0021 00       		.byte	0
 1392 0022 03       		.uleb128 0x3
 1393 0023 08       		.uleb128 0x8
 1394 0024 3A       		.uleb128 0x3a
 1395 0025 0B       		.uleb128 0xb
 1396 0026 3B       		.uleb128 0x3b
 1397 0027 0B       		.uleb128 0xb
 1398 0028 49       		.uleb128 0x49
 1399 0029 13       		.uleb128 0x13
 1400 002a 00       		.byte	0
 1401 002b 00       		.byte	0
 1402 002c 04       		.uleb128 0x4
 1403 002d 04       		.uleb128 0x4
 1404 002e 01       		.byte	0x1
 1405 002f 03       		.uleb128 0x3
 1406 0030 08       		.uleb128 0x8
 1407 0031 0B       		.uleb128 0xb
 1408 0032 0B       		.uleb128 0xb
 1409 0033 3A       		.uleb128 0x3a
 1410 0034 0B       		.uleb128 0xb
 1411 0035 3B       		.uleb128 0x3b
 1412 0036 0B       		.uleb128 0xb
 1413 0037 01       		.uleb128 0x1
 1414 0038 13       		.uleb128 0x13
 1415 0039 00       		.byte	0
 1416 003a 00       		.byte	0
 1417 003b 05       		.uleb128 0x5
 1418 003c 28       		.uleb128 0x28
 1419 003d 00       		.byte	0
 1420 003e 03       		.uleb128 0x3
 1421 003f 08       		.uleb128 0x8
 1422 0040 1C       		.uleb128 0x1c
 1423 0041 0D       		.uleb128 0xd
 1424 0042 00       		.byte	0
 1425 0043 00       		.byte	0
 1426 0044 06       		.uleb128 0x6
 1427 0045 13       		.uleb128 0x13
 1428 0046 01       		.byte	0x1
 1429 0047 03       		.uleb128 0x3
 1430 0048 08       		.uleb128 0x8
 1431 0049 0B       		.uleb128 0xb
 1432 004a 0B       		.uleb128 0xb
 1433 004b 3A       		.uleb128 0x3a
 1434 004c 0B       		.uleb128 0xb
 1435 004d 3B       		.uleb128 0x3b
 1436 004e 0B       		.uleb128 0xb
 1437 004f 01       		.uleb128 0x1
 1438 0050 13       		.uleb128 0x13
 1439 0051 00       		.byte	0
 1440 0052 00       		.byte	0
 1441 0053 07       		.uleb128 0x7
 1442 0054 0D       		.uleb128 0xd
 1443 0055 00       		.byte	0
 1444 0056 03       		.uleb128 0x3
 1445 0057 08       		.uleb128 0x8
 1446 0058 3A       		.uleb128 0x3a
 1447 0059 0B       		.uleb128 0xb
GAS LISTING C:\Users\PRESID~1\AppData\Local\Temp\ccSmxUIj.s 			page 34


 1448 005a 3B       		.uleb128 0x3b
 1449 005b 0B       		.uleb128 0xb
 1450 005c 49       		.uleb128 0x49
 1451 005d 13       		.uleb128 0x13
 1452 005e 38       		.uleb128 0x38
 1453 005f 0B       		.uleb128 0xb
 1454 0060 00       		.byte	0
 1455 0061 00       		.byte	0
 1456 0062 08       		.uleb128 0x8
 1457 0063 01       		.uleb128 0x1
 1458 0064 01       		.byte	0x1
 1459 0065 49       		.uleb128 0x49
 1460 0066 13       		.uleb128 0x13
 1461 0067 01       		.uleb128 0x1
 1462 0068 13       		.uleb128 0x13
 1463 0069 00       		.byte	0
 1464 006a 00       		.byte	0
 1465 006b 09       		.uleb128 0x9
 1466 006c 21       		.uleb128 0x21
 1467 006d 00       		.byte	0
 1468 006e 49       		.uleb128 0x49
 1469 006f 13       		.uleb128 0x13
 1470 0070 2F       		.uleb128 0x2f
 1471 0071 0B       		.uleb128 0xb
 1472 0072 00       		.byte	0
 1473 0073 00       		.byte	0
 1474 0074 0A       		.uleb128 0xa
 1475 0075 2E       		.uleb128 0x2e
 1476 0076 01       		.byte	0x1
 1477 0077 3F       		.uleb128 0x3f
 1478 0078 19       		.uleb128 0x19
 1479 0079 03       		.uleb128 0x3
 1480 007a 08       		.uleb128 0x8
 1481 007b 3A       		.uleb128 0x3a
 1482 007c 0B       		.uleb128 0xb
 1483 007d 3B       		.uleb128 0x3b
 1484 007e 0B       		.uleb128 0xb
 1485 007f 27       		.uleb128 0x27
 1486 0080 19       		.uleb128 0x19
 1487 0081 11       		.uleb128 0x11
 1488 0082 01       		.uleb128 0x1
 1489 0083 12       		.uleb128 0x12
 1490 0084 06       		.uleb128 0x6
 1491 0085 40       		.uleb128 0x40
 1492 0086 18       		.uleb128 0x18
 1493 0087 9742     		.uleb128 0x2117
 1494 0089 19       		.uleb128 0x19
 1495 008a 01       		.uleb128 0x1
 1496 008b 13       		.uleb128 0x13
 1497 008c 00       		.byte	0
 1498 008d 00       		.byte	0
 1499 008e 0B       		.uleb128 0xb
 1500 008f 05       		.uleb128 0x5
 1501 0090 00       		.byte	0
 1502 0091 03       		.uleb128 0x3
 1503 0092 08       		.uleb128 0x8
 1504 0093 3A       		.uleb128 0x3a
GAS LISTING C:\Users\PRESID~1\AppData\Local\Temp\ccSmxUIj.s 			page 35


 1505 0094 0B       		.uleb128 0xb
 1506 0095 3B       		.uleb128 0x3b
 1507 0096 0B       		.uleb128 0xb
 1508 0097 49       		.uleb128 0x49
 1509 0098 13       		.uleb128 0x13
 1510 0099 02       		.uleb128 0x2
 1511 009a 18       		.uleb128 0x18
 1512 009b 00       		.byte	0
 1513 009c 00       		.byte	0
 1514 009d 0C       		.uleb128 0xc
 1515 009e 2E       		.uleb128 0x2e
 1516 009f 01       		.byte	0x1
 1517 00a0 3F       		.uleb128 0x3f
 1518 00a1 19       		.uleb128 0x19
 1519 00a2 03       		.uleb128 0x3
 1520 00a3 08       		.uleb128 0x8
 1521 00a4 3A       		.uleb128 0x3a
 1522 00a5 0B       		.uleb128 0xb
 1523 00a6 3B       		.uleb128 0x3b
 1524 00a7 0B       		.uleb128 0xb
 1525 00a8 27       		.uleb128 0x27
 1526 00a9 19       		.uleb128 0x19
 1527 00aa 11       		.uleb128 0x11
 1528 00ab 01       		.uleb128 0x1
 1529 00ac 12       		.uleb128 0x12
 1530 00ad 06       		.uleb128 0x6
 1531 00ae 40       		.uleb128 0x40
 1532 00af 18       		.uleb128 0x18
 1533 00b0 9642     		.uleb128 0x2116
 1534 00b2 19       		.uleb128 0x19
 1535 00b3 01       		.uleb128 0x1
 1536 00b4 13       		.uleb128 0x13
 1537 00b5 00       		.byte	0
 1538 00b6 00       		.byte	0
 1539 00b7 0D       		.uleb128 0xd
 1540 00b8 0F       		.uleb128 0xf
 1541 00b9 00       		.byte	0
 1542 00ba 0B       		.uleb128 0xb
 1543 00bb 0B       		.uleb128 0xb
 1544 00bc 49       		.uleb128 0x49
 1545 00bd 13       		.uleb128 0x13
 1546 00be 00       		.byte	0
 1547 00bf 00       		.byte	0
 1548 00c0 0E       		.uleb128 0xe
 1549 00c1 2E       		.uleb128 0x2e
 1550 00c2 00       		.byte	0
 1551 00c3 3F       		.uleb128 0x3f
 1552 00c4 19       		.uleb128 0x19
 1553 00c5 03       		.uleb128 0x3
 1554 00c6 08       		.uleb128 0x8
 1555 00c7 3A       		.uleb128 0x3a
 1556 00c8 0B       		.uleb128 0xb
 1557 00c9 3B       		.uleb128 0x3b
 1558 00ca 0B       		.uleb128 0xb
 1559 00cb 27       		.uleb128 0x27
 1560 00cc 19       		.uleb128 0x19
 1561 00cd 11       		.uleb128 0x11
GAS LISTING C:\Users\PRESID~1\AppData\Local\Temp\ccSmxUIj.s 			page 36


 1562 00ce 01       		.uleb128 0x1
 1563 00cf 12       		.uleb128 0x12
 1564 00d0 06       		.uleb128 0x6
 1565 00d1 40       		.uleb128 0x40
 1566 00d2 18       		.uleb128 0x18
 1567 00d3 9642     		.uleb128 0x2116
 1568 00d5 19       		.uleb128 0x19
 1569 00d6 00       		.byte	0
 1570 00d7 00       		.byte	0
 1571 00d8 0F       		.uleb128 0xf
 1572 00d9 34       		.uleb128 0x34
 1573 00da 00       		.byte	0
 1574 00db 03       		.uleb128 0x3
 1575 00dc 08       		.uleb128 0x8
 1576 00dd 3A       		.uleb128 0x3a
 1577 00de 0B       		.uleb128 0xb
 1578 00df 3B       		.uleb128 0x3b
 1579 00e0 0B       		.uleb128 0xb
 1580 00e1 49       		.uleb128 0x49
 1581 00e2 13       		.uleb128 0x13
 1582 00e3 02       		.uleb128 0x2
 1583 00e4 18       		.uleb128 0x18
 1584 00e5 00       		.byte	0
 1585 00e6 00       		.byte	0
 1586 00e7 10       		.uleb128 0x10
 1587 00e8 0B       		.uleb128 0xb
 1588 00e9 01       		.byte	0x1
 1589 00ea 11       		.uleb128 0x11
 1590 00eb 01       		.uleb128 0x1
 1591 00ec 12       		.uleb128 0x12
 1592 00ed 06       		.uleb128 0x6
 1593 00ee 00       		.byte	0
 1594 00ef 00       		.byte	0
 1595 00f0 11       		.uleb128 0x11
 1596 00f1 2E       		.uleb128 0x2e
 1597 00f2 01       		.byte	0x1
 1598 00f3 3F       		.uleb128 0x3f
 1599 00f4 19       		.uleb128 0x19
 1600 00f5 03       		.uleb128 0x3
 1601 00f6 08       		.uleb128 0x8
 1602 00f7 3A       		.uleb128 0x3a
 1603 00f8 0B       		.uleb128 0xb
 1604 00f9 3B       		.uleb128 0x3b
 1605 00fa 0B       		.uleb128 0xb
 1606 00fb 27       		.uleb128 0x27
 1607 00fc 19       		.uleb128 0x19
 1608 00fd 49       		.uleb128 0x49
 1609 00fe 13       		.uleb128 0x13
 1610 00ff 11       		.uleb128 0x11
 1611 0100 01       		.uleb128 0x1
 1612 0101 12       		.uleb128 0x12
 1613 0102 06       		.uleb128 0x6
 1614 0103 40       		.uleb128 0x40
 1615 0104 18       		.uleb128 0x18
 1616 0105 9742     		.uleb128 0x2117
 1617 0107 19       		.uleb128 0x19
 1618 0108 01       		.uleb128 0x1
GAS LISTING C:\Users\PRESID~1\AppData\Local\Temp\ccSmxUIj.s 			page 37


 1619 0109 13       		.uleb128 0x13
 1620 010a 00       		.byte	0
 1621 010b 00       		.byte	0
 1622 010c 12       		.uleb128 0x12
 1623 010d 05       		.uleb128 0x5
 1624 010e 00       		.byte	0
 1625 010f 03       		.uleb128 0x3
 1626 0110 0E       		.uleb128 0xe
 1627 0111 3A       		.uleb128 0x3a
 1628 0112 0B       		.uleb128 0xb
 1629 0113 3B       		.uleb128 0x3b
 1630 0114 0B       		.uleb128 0xb
 1631 0115 49       		.uleb128 0x49
 1632 0116 13       		.uleb128 0x13
 1633 0117 02       		.uleb128 0x2
 1634 0118 18       		.uleb128 0x18
 1635 0119 00       		.byte	0
 1636 011a 00       		.byte	0
 1637 011b 13       		.uleb128 0x13
 1638 011c 2E       		.uleb128 0x2e
 1639 011d 01       		.byte	0x1
 1640 011e 3F       		.uleb128 0x3f
 1641 011f 19       		.uleb128 0x19
 1642 0120 03       		.uleb128 0x3
 1643 0121 08       		.uleb128 0x8
 1644 0122 3A       		.uleb128 0x3a
 1645 0123 0B       		.uleb128 0xb
 1646 0124 3B       		.uleb128 0x3b
 1647 0125 0B       		.uleb128 0xb
 1648 0126 27       		.uleb128 0x27
 1649 0127 19       		.uleb128 0x19
 1650 0128 49       		.uleb128 0x49
 1651 0129 13       		.uleb128 0x13
 1652 012a 11       		.uleb128 0x11
 1653 012b 01       		.uleb128 0x1
 1654 012c 12       		.uleb128 0x12
 1655 012d 06       		.uleb128 0x6
 1656 012e 40       		.uleb128 0x40
 1657 012f 18       		.uleb128 0x18
 1658 0130 9642     		.uleb128 0x2116
 1659 0132 19       		.uleb128 0x19
 1660 0133 01       		.uleb128 0x1
 1661 0134 13       		.uleb128 0x13
 1662 0135 00       		.byte	0
 1663 0136 00       		.byte	0
 1664 0137 14       		.uleb128 0x14
 1665 0138 2E       		.uleb128 0x2e
 1666 0139 01       		.byte	0x1
 1667 013a 3F       		.uleb128 0x3f
 1668 013b 19       		.uleb128 0x19
 1669 013c 03       		.uleb128 0x3
 1670 013d 0E       		.uleb128 0xe
 1671 013e 3A       		.uleb128 0x3a
 1672 013f 0B       		.uleb128 0xb
 1673 0140 3B       		.uleb128 0x3b
 1674 0141 0B       		.uleb128 0xb
 1675 0142 27       		.uleb128 0x27
GAS LISTING C:\Users\PRESID~1\AppData\Local\Temp\ccSmxUIj.s 			page 38


 1676 0143 19       		.uleb128 0x19
 1677 0144 49       		.uleb128 0x49
 1678 0145 13       		.uleb128 0x13
 1679 0146 11       		.uleb128 0x11
 1680 0147 01       		.uleb128 0x1
 1681 0148 12       		.uleb128 0x12
 1682 0149 06       		.uleb128 0x6
 1683 014a 40       		.uleb128 0x40
 1684 014b 18       		.uleb128 0x18
 1685 014c 9742     		.uleb128 0x2117
 1686 014e 19       		.uleb128 0x19
 1687 014f 01       		.uleb128 0x1
 1688 0150 13       		.uleb128 0x13
 1689 0151 00       		.byte	0
 1690 0152 00       		.byte	0
 1691 0153 15       		.uleb128 0x15
 1692 0154 34       		.uleb128 0x34
 1693 0155 00       		.byte	0
 1694 0156 03       		.uleb128 0x3
 1695 0157 0E       		.uleb128 0xe
 1696 0158 3A       		.uleb128 0x3a
 1697 0159 0B       		.uleb128 0xb
 1698 015a 3B       		.uleb128 0x3b
 1699 015b 0B       		.uleb128 0xb
 1700 015c 49       		.uleb128 0x49
 1701 015d 13       		.uleb128 0x13
 1702 015e 02       		.uleb128 0x2
 1703 015f 18       		.uleb128 0x18
 1704 0160 00       		.byte	0
 1705 0161 00       		.byte	0
 1706 0162 16       		.uleb128 0x16
 1707 0163 34       		.uleb128 0x34
 1708 0164 00       		.byte	0
 1709 0165 03       		.uleb128 0x3
 1710 0166 08       		.uleb128 0x8
 1711 0167 3A       		.uleb128 0x3a
 1712 0168 0B       		.uleb128 0xb
 1713 0169 3B       		.uleb128 0x3b
 1714 016a 0B       		.uleb128 0xb
 1715 016b 49       		.uleb128 0x49
 1716 016c 13       		.uleb128 0x13
 1717 016d 3F       		.uleb128 0x3f
 1718 016e 19       		.uleb128 0x19
 1719 016f 3C       		.uleb128 0x3c
 1720 0170 19       		.uleb128 0x19
 1721 0171 00       		.byte	0
 1722 0172 00       		.byte	0
 1723 0173 17       		.uleb128 0x17
 1724 0174 35       		.uleb128 0x35
 1725 0175 00       		.byte	0
 1726 0176 49       		.uleb128 0x49
 1727 0177 13       		.uleb128 0x13
 1728 0178 00       		.byte	0
 1729 0179 00       		.byte	0
 1730 017a 00       		.byte	0
 1731              		.section	.debug_aranges,"dr"
 1732 0000 1C000000 		.long	0x1c
GAS LISTING C:\Users\PRESID~1\AppData\Local\Temp\ccSmxUIj.s 			page 39


 1733 0004 0200     		.word	0x2
 1734 0006 00000000 		.secrel32	Ldebug_info0
 1735 000a 04       		.byte	0x4
 1736 000b 00       		.byte	0
 1737 000c 0000     		.word	0
 1738 000e 0000     		.word	0
 1739 0010 00000000 		.long	Ltext0
 1740 0014 ED030000 		.long	Letext0-Ltext0
 1741 0018 00000000 		.long	0
 1742 001c 00000000 		.long	0
 1743              		.section	.debug_macro,"dr"
 1744              	Ldebug_macro0:
 1745 0000 0400     		.word	0x4
 1746 0002 02       		.byte	0x2
 1747 0003 00000000 		.secrel32	Ldebug_line0
 1748 0007 01       		.byte	0x1
 1749 0008 00       		.uleb128 0
 1750 0009 5F5F5354 		.ascii "__STDC__ 1\0"
 1750      44435F5F 
 1750      203100
 1751 0014 01       		.byte	0x1
 1752 0015 00       		.uleb128 0
 1753 0016 5F5F5354 		.ascii "__STDC_HOSTED__ 1\0"
 1753      44435F48 
 1753      4F535445 
 1753      445F5F20 
 1753      3100
 1754 0028 01       		.byte	0x1
 1755 0029 00       		.uleb128 0
 1756 002a 5F5F474E 		.ascii "__GNUC__ 4\0"
 1756      55435F5F 
 1756      203400
 1757 0035 01       		.byte	0x1
 1758 0036 00       		.uleb128 0
 1759 0037 5F5F474E 		.ascii "__GNUC_MINOR__ 9\0"
 1759      55435F4D 
 1759      494E4F52 
 1759      5F5F2039 
 1759      00
 1760 0048 01       		.byte	0x1
 1761 0049 00       		.uleb128 0
 1762 004a 5F5F474E 		.ascii "__GNUC_PATCHLEVEL__ 3\0"
 1762      55435F50 
 1762      41544348 
 1762      4C455645 
 1762      4C5F5F20 
 1763 0060 01       		.byte	0x1
 1764 0061 00       		.uleb128 0
 1765 0062 5F5F5645 		.ascii "__VERSION__ \"4.9.3\"\0"
 1765      5253494F 
 1765      4E5F5F20 
 1765      22342E39 
 1765      2E332200 
 1766 0076 01       		.byte	0x1
 1767 0077 00       		.uleb128 0
 1768 0078 5F5F4154 		.ascii "__ATOMIC_RELAXED 0\0"
 1768      4F4D4943 
GAS LISTING C:\Users\PRESID~1\AppData\Local\Temp\ccSmxUIj.s 			page 40


 1768      5F52454C 
 1768      41584544 
 1768      203000
 1769 008b 01       		.byte	0x1
 1770 008c 00       		.uleb128 0
 1771 008d 5F5F4154 		.ascii "__ATOMIC_SEQ_CST 5\0"
 1771      4F4D4943 
 1771      5F534551 
 1771      5F435354 
 1771      203500
 1772 00a0 01       		.byte	0x1
 1773 00a1 00       		.uleb128 0
 1774 00a2 5F5F4154 		.ascii "__ATOMIC_ACQUIRE 2\0"
 1774      4F4D4943 
 1774      5F414351 
 1774      55495245 
 1774      203200
 1775 00b5 01       		.byte	0x1
 1776 00b6 00       		.uleb128 0
 1777 00b7 5F5F4154 		.ascii "__ATOMIC_RELEASE 3\0"
 1777      4F4D4943 
 1777      5F52454C 
 1777      45415345 
 1777      203300
 1778 00ca 01       		.byte	0x1
 1779 00cb 00       		.uleb128 0
 1780 00cc 5F5F4154 		.ascii "__ATOMIC_ACQ_REL 4\0"
 1780      4F4D4943 
 1780      5F414351 
 1780      5F52454C 
 1780      203400
 1781 00df 01       		.byte	0x1
 1782 00e0 00       		.uleb128 0
 1783 00e1 5F5F4154 		.ascii "__ATOMIC_CONSUME 1\0"
 1783      4F4D4943 
 1783      5F434F4E 
 1783      53554D45 
 1783      203100
 1784 00f4 01       		.byte	0x1
 1785 00f5 00       		.uleb128 0
 1786 00f6 5F5F4649 		.ascii "__FINITE_MATH_ONLY__ 0\0"
 1786      4E495445 
 1786      5F4D4154 
 1786      485F4F4E 
 1786      4C595F5F 
 1787 010d 01       		.byte	0x1
 1788 010e 00       		.uleb128 0
 1789 010f 5F5F5349 		.ascii "__SIZEOF_INT__ 4\0"
 1789      5A454F46 
 1789      5F494E54 
 1789      5F5F2034 
 1789      00
 1790 0120 01       		.byte	0x1
 1791 0121 00       		.uleb128 0
 1792 0122 5F5F5349 		.ascii "__SIZEOF_LONG__ 4\0"
 1792      5A454F46 
 1792      5F4C4F4E 
GAS LISTING C:\Users\PRESID~1\AppData\Local\Temp\ccSmxUIj.s 			page 41


 1792      475F5F20 
 1792      3400
 1793 0134 01       		.byte	0x1
 1794 0135 00       		.uleb128 0
 1795 0136 5F5F5349 		.ascii "__SIZEOF_LONG_LONG__ 8\0"
 1795      5A454F46 
 1795      5F4C4F4E 
 1795      475F4C4F 
 1795      4E475F5F 
 1796 014d 01       		.byte	0x1
 1797 014e 00       		.uleb128 0
 1798 014f 5F5F5349 		.ascii "__SIZEOF_SHORT__ 2\0"
 1798      5A454F46 
 1798      5F53484F 
 1798      52545F5F 
 1798      203200
 1799 0162 01       		.byte	0x1
 1800 0163 00       		.uleb128 0
 1801 0164 5F5F5349 		.ascii "__SIZEOF_FLOAT__ 4\0"
 1801      5A454F46 
 1801      5F464C4F 
 1801      41545F5F 
 1801      203400
 1802 0177 01       		.byte	0x1
 1803 0178 00       		.uleb128 0
 1804 0179 5F5F5349 		.ascii "__SIZEOF_DOUBLE__ 8\0"
 1804      5A454F46 
 1804      5F444F55 
 1804      424C455F 
 1804      5F203800 
 1805 018d 01       		.byte	0x1
 1806 018e 00       		.uleb128 0
 1807 018f 5F5F5349 		.ascii "__SIZEOF_LONG_DOUBLE__ 12\0"
 1807      5A454F46 
 1807      5F4C4F4E 
 1807      475F444F 
 1807      55424C45 
 1808 01a9 01       		.byte	0x1
 1809 01aa 00       		.uleb128 0
 1810 01ab 5F5F5349 		.ascii "__SIZEOF_SIZE_T__ 4\0"
 1810      5A454F46 
 1810      5F53495A 
 1810      455F545F 
 1810      5F203400 
 1811 01bf 01       		.byte	0x1
 1812 01c0 00       		.uleb128 0
 1813 01c1 5F5F4348 		.ascii "__CHAR_BIT__ 8\0"
 1813      41525F42 
 1813      49545F5F 
 1813      203800
 1814 01d0 01       		.byte	0x1
 1815 01d1 00       		.uleb128 0
 1816 01d2 5F5F4249 		.ascii "__BIGGEST_ALIGNMENT__ 16\0"
 1816      47474553 
 1816      545F414C 
 1816      49474E4D 
 1816      454E545F 
GAS LISTING C:\Users\PRESID~1\AppData\Local\Temp\ccSmxUIj.s 			page 42


 1817 01eb 01       		.byte	0x1
 1818 01ec 00       		.uleb128 0
 1819 01ed 5F5F4F52 		.ascii "__ORDER_LITTLE_ENDIAN__ 1234\0"
 1819      4445525F 
 1819      4C495454 
 1819      4C455F45 
 1819      4E444941 
 1820 020a 01       		.byte	0x1
 1821 020b 00       		.uleb128 0
 1822 020c 5F5F4F52 		.ascii "__ORDER_BIG_ENDIAN__ 4321\0"
 1822      4445525F 
 1822      4249475F 
 1822      454E4449 
 1822      414E5F5F 
 1823 0226 01       		.byte	0x1
 1824 0227 00       		.uleb128 0
 1825 0228 5F5F4F52 		.ascii "__ORDER_PDP_ENDIAN__ 3412\0"
 1825      4445525F 
 1825      5044505F 
 1825      454E4449 
 1825      414E5F5F 
 1826 0242 01       		.byte	0x1
 1827 0243 00       		.uleb128 0
 1828 0244 5F5F4259 		.ascii "__BYTE_ORDER__ __ORDER_LITTLE_ENDIAN__\0"
 1828      54455F4F 
 1828      52444552 
 1828      5F5F205F 
 1828      5F4F5244 
 1829 026b 01       		.byte	0x1
 1830 026c 00       		.uleb128 0
 1831 026d 5F5F464C 		.ascii "__FLOAT_WORD_ORDER__ __ORDER_LITTLE_ENDIAN__\0"
 1831      4F41545F 
 1831      574F5244 
 1831      5F4F5244 
 1831      45525F5F 
 1832 029a 01       		.byte	0x1
 1833 029b 00       		.uleb128 0
 1834 029c 5F5F5349 		.ascii "__SIZEOF_POINTER__ 4\0"
 1834      5A454F46 
 1834      5F504F49 
 1834      4E544552 
 1834      5F5F2034 
 1835 02b1 01       		.byte	0x1
 1836 02b2 00       		.uleb128 0
 1837 02b3 5F5F5349 		.ascii "__SIZE_TYPE__ unsigned int\0"
 1837      5A455F54 
 1837      5950455F 
 1837      5F20756E 
 1837      7369676E 
 1838 02ce 01       		.byte	0x1
 1839 02cf 00       		.uleb128 0
 1840 02d0 5F5F5054 		.ascii "__PTRDIFF_TYPE__ int\0"
 1840      52444946 
 1840      465F5459 
 1840      50455F5F 
 1840      20696E74 
 1841 02e5 01       		.byte	0x1
GAS LISTING C:\Users\PRESID~1\AppData\Local\Temp\ccSmxUIj.s 			page 43


 1842 02e6 00       		.uleb128 0
 1843 02e7 5F5F5743 		.ascii "__WCHAR_TYPE__ short unsigned int\0"
 1843      4841525F 
 1843      54595045 
 1843      5F5F2073 
 1843      686F7274 
 1844 0309 01       		.byte	0x1
 1845 030a 00       		.uleb128 0
 1846 030b 5F5F5749 		.ascii "__WINT_TYPE__ short unsigned int\0"
 1846      4E545F54 
 1846      5950455F 
 1846      5F207368 
 1846      6F727420 
 1847 032c 01       		.byte	0x1
 1848 032d 00       		.uleb128 0
 1849 032e 5F5F494E 		.ascii "__INTMAX_TYPE__ long long int\0"
 1849      544D4158 
 1849      5F545950 
 1849      455F5F20 
 1849      6C6F6E67 
 1850 034c 01       		.byte	0x1
 1851 034d 00       		.uleb128 0
 1852 034e 5F5F5549 		.ascii "__UINTMAX_TYPE__ long long unsigned int\0"
 1852      4E544D41 
 1852      585F5459 
 1852      50455F5F 
 1852      206C6F6E 
 1853 0376 01       		.byte	0x1
 1854 0377 00       		.uleb128 0
 1855 0378 5F5F4348 		.ascii "__CHAR16_TYPE__ short unsigned int\0"
 1855      41523136 
 1855      5F545950 
 1855      455F5F20 
 1855      73686F72 
 1856 039b 01       		.byte	0x1
 1857 039c 00       		.uleb128 0
 1858 039d 5F5F4348 		.ascii "__CHAR32_TYPE__ unsigned int\0"
 1858      41523332 
 1858      5F545950 
 1858      455F5F20 
 1858      756E7369 
 1859 03ba 01       		.byte	0x1
 1860 03bb 00       		.uleb128 0
 1861 03bc 5F5F5349 		.ascii "__SIG_ATOMIC_TYPE__ int\0"
 1861      475F4154 
 1861      4F4D4943 
 1861      5F545950 
 1861      455F5F20 
 1862 03d4 01       		.byte	0x1
 1863 03d5 00       		.uleb128 0
 1864 03d6 5F5F494E 		.ascii "__INT8_TYPE__ signed char\0"
 1864      54385F54 
 1864      5950455F 
 1864      5F207369 
 1864      676E6564 
 1865 03f0 01       		.byte	0x1
 1866 03f1 00       		.uleb128 0
GAS LISTING C:\Users\PRESID~1\AppData\Local\Temp\ccSmxUIj.s 			page 44


 1867 03f2 5F5F494E 		.ascii "__INT16_TYPE__ short int\0"
 1867      5431365F 
 1867      54595045 
 1867      5F5F2073 
 1867      686F7274 
 1868 040b 01       		.byte	0x1
 1869 040c 00       		.uleb128 0
 1870 040d 5F5F494E 		.ascii "__INT32_TYPE__ int\0"
 1870      5433325F 
 1870      54595045 
 1870      5F5F2069 
 1870      6E7400
 1871 0420 01       		.byte	0x1
 1872 0421 00       		.uleb128 0
 1873 0422 5F5F494E 		.ascii "__INT64_TYPE__ long long int\0"
 1873      5436345F 
 1873      54595045 
 1873      5F5F206C 
 1873      6F6E6720 
 1874 043f 01       		.byte	0x1
 1875 0440 00       		.uleb128 0
 1876 0441 5F5F5549 		.ascii "__UINT8_TYPE__ unsigned char\0"
 1876      4E54385F 
 1876      54595045 
 1876      5F5F2075 
 1876      6E736967 
 1877 045e 01       		.byte	0x1
 1878 045f 00       		.uleb128 0
 1879 0460 5F5F5549 		.ascii "__UINT16_TYPE__ short unsigned int\0"
 1879      4E543136 
 1879      5F545950 
 1879      455F5F20 
 1879      73686F72 
 1880 0483 01       		.byte	0x1
 1881 0484 00       		.uleb128 0
 1882 0485 5F5F5549 		.ascii "__UINT32_TYPE__ unsigned int\0"
 1882      4E543332 
 1882      5F545950 
 1882      455F5F20 
 1882      756E7369 
 1883 04a2 01       		.byte	0x1
 1884 04a3 00       		.uleb128 0
 1885 04a4 5F5F5549 		.ascii "__UINT64_TYPE__ long long unsigned int\0"
 1885      4E543634 
 1885      5F545950 
 1885      455F5F20 
 1885      6C6F6E67 
 1886 04cb 01       		.byte	0x1
 1887 04cc 00       		.uleb128 0
 1888 04cd 5F5F494E 		.ascii "__INT_LEAST8_TYPE__ signed char\0"
 1888      545F4C45 
 1888      41535438 
 1888      5F545950 
 1888      455F5F20 
 1889 04ed 01       		.byte	0x1
 1890 04ee 00       		.uleb128 0
 1891 04ef 5F5F494E 		.ascii "__INT_LEAST16_TYPE__ short int\0"
GAS LISTING C:\Users\PRESID~1\AppData\Local\Temp\ccSmxUIj.s 			page 45


 1891      545F4C45 
 1891      41535431 
 1891      365F5459 
 1891      50455F5F 
 1892 050e 01       		.byte	0x1
 1893 050f 00       		.uleb128 0
 1894 0510 5F5F494E 		.ascii "__INT_LEAST32_TYPE__ int\0"
 1894      545F4C45 
 1894      41535433 
 1894      325F5459 
 1894      50455F5F 
 1895 0529 01       		.byte	0x1
 1896 052a 00       		.uleb128 0
 1897 052b 5F5F494E 		.ascii "__INT_LEAST64_TYPE__ long long int\0"
 1897      545F4C45 
 1897      41535436 
 1897      345F5459 
 1897      50455F5F 
 1898 054e 01       		.byte	0x1
 1899 054f 00       		.uleb128 0
 1900 0550 5F5F5549 		.ascii "__UINT_LEAST8_TYPE__ unsigned char\0"
 1900      4E545F4C 
 1900      45415354 
 1900      385F5459 
 1900      50455F5F 
 1901 0573 01       		.byte	0x1
 1902 0574 00       		.uleb128 0
 1903 0575 5F5F5549 		.ascii "__UINT_LEAST16_TYPE__ short unsigned int\0"
 1903      4E545F4C 
 1903      45415354 
 1903      31365F54 
 1903      5950455F 
 1904 059e 01       		.byte	0x1
 1905 059f 00       		.uleb128 0
 1906 05a0 5F5F5549 		.ascii "__UINT_LEAST32_TYPE__ unsigned int\0"
 1906      4E545F4C 
 1906      45415354 
 1906      33325F54 
 1906      5950455F 
 1907 05c3 01       		.byte	0x1
 1908 05c4 00       		.uleb128 0
 1909 05c5 5F5F5549 		.ascii "__UINT_LEAST64_TYPE__ long long unsigned int\0"
 1909      4E545F4C 
 1909      45415354 
 1909      36345F54 
 1909      5950455F 
 1910 05f2 01       		.byte	0x1
 1911 05f3 00       		.uleb128 0
 1912 05f4 5F5F494E 		.ascii "__INT_FAST8_TYPE__ signed char\0"
 1912      545F4641 
 1912      5354385F 
 1912      54595045 
 1912      5F5F2073 
 1913 0613 01       		.byte	0x1
 1914 0614 00       		.uleb128 0
 1915 0615 5F5F494E 		.ascii "__INT_FAST16_TYPE__ short int\0"
 1915      545F4641 
GAS LISTING C:\Users\PRESID~1\AppData\Local\Temp\ccSmxUIj.s 			page 46


 1915      53543136 
 1915      5F545950 
 1915      455F5F20 
 1916 0633 01       		.byte	0x1
 1917 0634 00       		.uleb128 0
 1918 0635 5F5F494E 		.ascii "__INT_FAST32_TYPE__ int\0"
 1918      545F4641 
 1918      53543332 
 1918      5F545950 
 1918      455F5F20 
 1919 064d 01       		.byte	0x1
 1920 064e 00       		.uleb128 0
 1921 064f 5F5F494E 		.ascii "__INT_FAST64_TYPE__ long long int\0"
 1921      545F4641 
 1921      53543634 
 1921      5F545950 
 1921      455F5F20 
 1922 0671 01       		.byte	0x1
 1923 0672 00       		.uleb128 0
 1924 0673 5F5F5549 		.ascii "__UINT_FAST8_TYPE__ unsigned char\0"
 1924      4E545F46 
 1924      41535438 
 1924      5F545950 
 1924      455F5F20 
 1925 0695 01       		.byte	0x1
 1926 0696 00       		.uleb128 0
 1927 0697 5F5F5549 		.ascii "__UINT_FAST16_TYPE__ short unsigned int\0"
 1927      4E545F46 
 1927      41535431 
 1927      365F5459 
 1927      50455F5F 
 1928 06bf 01       		.byte	0x1
 1929 06c0 00       		.uleb128 0
 1930 06c1 5F5F5549 		.ascii "__UINT_FAST32_TYPE__ unsigned int\0"
 1930      4E545F46 
 1930      41535433 
 1930      325F5459 
 1930      50455F5F 
 1931 06e3 01       		.byte	0x1
 1932 06e4 00       		.uleb128 0
 1933 06e5 5F5F5549 		.ascii "__UINT_FAST64_TYPE__ long long unsigned int\0"
 1933      4E545F46 
 1933      41535436 
 1933      345F5459 
 1933      50455F5F 
 1934 0711 01       		.byte	0x1
 1935 0712 00       		.uleb128 0
 1936 0713 5F5F494E 		.ascii "__INTPTR_TYPE__ int\0"
 1936      54505452 
 1936      5F545950 
 1936      455F5F20 
 1936      696E7400 
 1937 0727 01       		.byte	0x1
 1938 0728 00       		.uleb128 0
 1939 0729 5F5F5549 		.ascii "__UINTPTR_TYPE__ unsigned int\0"
 1939      4E545054 
 1939      525F5459 
GAS LISTING C:\Users\PRESID~1\AppData\Local\Temp\ccSmxUIj.s 			page 47


 1939      50455F5F 
 1939      20756E73 
 1940 0747 01       		.byte	0x1
 1941 0748 00       		.uleb128 0
 1942 0749 5F5F6861 		.ascii "__has_include(STR) __has_include__(STR)\0"
 1942      735F696E 
 1942      636C7564 
 1942      65285354 
 1942      5229205F 
 1943 0771 01       		.byte	0x1
 1944 0772 00       		.uleb128 0
 1945 0773 5F5F6861 		.ascii "__has_include_next(STR) __has_include_next__(STR)\0"
 1945      735F696E 
 1945      636C7564 
 1945      655F6E65 
 1945      78742853 
 1946 07a5 01       		.byte	0x1
 1947 07a6 00       		.uleb128 0
 1948 07a7 5F5F4758 		.ascii "__GXX_ABI_VERSION 1002\0"
 1948      585F4142 
 1948      495F5645 
 1948      5253494F 
 1948      4E203130 
 1949 07be 01       		.byte	0x1
 1950 07bf 00       		.uleb128 0
 1951 07c0 5F5F5343 		.ascii "__SCHAR_MAX__ 127\0"
 1951      4841525F 
 1951      4D41585F 
 1951      5F203132 
 1951      3700
 1952 07d2 01       		.byte	0x1
 1953 07d3 00       		.uleb128 0
 1954 07d4 5F5F5348 		.ascii "__SHRT_MAX__ 32767\0"
 1954      52545F4D 
 1954      41585F5F 
 1954      20333237 
 1954      363700
 1955 07e7 01       		.byte	0x1
 1956 07e8 00       		.uleb128 0
 1957 07e9 5F5F494E 		.ascii "__INT_MAX__ 2147483647\0"
 1957      545F4D41 
 1957      585F5F20 
 1957      32313437 
 1957      34383336 
 1958 0800 01       		.byte	0x1
 1959 0801 00       		.uleb128 0
 1960 0802 5F5F4C4F 		.ascii "__LONG_MAX__ 2147483647L\0"
 1960      4E475F4D 
 1960      41585F5F 
 1960      20323134 
 1960      37343833 
 1961 081b 01       		.byte	0x1
 1962 081c 00       		.uleb128 0
 1963 081d 5F5F4C4F 		.ascii "__LONG_LONG_MAX__ 9223372036854775807LL\0"
 1963      4E475F4C 
 1963      4F4E475F 
 1963      4D41585F 
GAS LISTING C:\Users\PRESID~1\AppData\Local\Temp\ccSmxUIj.s 			page 48


 1963      5F203932 
 1964 0845 01       		.byte	0x1
 1965 0846 00       		.uleb128 0
 1966 0847 5F5F5743 		.ascii "__WCHAR_MAX__ 65535\0"
 1966      4841525F 
 1966      4D41585F 
 1966      5F203635 
 1966      35333500 
 1967 085b 01       		.byte	0x1
 1968 085c 00       		.uleb128 0
 1969 085d 5F5F5743 		.ascii "__WCHAR_MIN__ 0\0"
 1969      4841525F 
 1969      4D494E5F 
 1969      5F203000 
 1970 086d 01       		.byte	0x1
 1971 086e 00       		.uleb128 0
 1972 086f 5F5F5749 		.ascii "__WINT_MAX__ 65535\0"
 1972      4E545F4D 
 1972      41585F5F 
 1972      20363535 
 1972      333500
 1973 0882 01       		.byte	0x1
 1974 0883 00       		.uleb128 0
 1975 0884 5F5F5749 		.ascii "__WINT_MIN__ 0\0"
 1975      4E545F4D 
 1975      494E5F5F 
 1975      203000
 1976 0893 01       		.byte	0x1
 1977 0894 00       		.uleb128 0
 1978 0895 5F5F5054 		.ascii "__PTRDIFF_MAX__ 2147483647\0"
 1978      52444946 
 1978      465F4D41 
 1978      585F5F20 
 1978      32313437 
 1979 08b0 01       		.byte	0x1
 1980 08b1 00       		.uleb128 0
 1981 08b2 5F5F5349 		.ascii "__SIZE_MAX__ 4294967295U\0"
 1981      5A455F4D 
 1981      41585F5F 
 1981      20343239 
 1981      34393637 
 1982 08cb 01       		.byte	0x1
 1983 08cc 00       		.uleb128 0
 1984 08cd 5F5F494E 		.ascii "__INTMAX_MAX__ 9223372036854775807LL\0"
 1984      544D4158 
 1984      5F4D4158 
 1984      5F5F2039 
 1984      32323333 
 1985 08f2 01       		.byte	0x1
 1986 08f3 00       		.uleb128 0
 1987 08f4 5F5F494E 		.ascii "__INTMAX_C(c) c ## LL\0"
 1987      544D4158 
 1987      5F432863 
 1987      29206320 
 1987      2323204C 
 1988 090a 01       		.byte	0x1
 1989 090b 00       		.uleb128 0
GAS LISTING C:\Users\PRESID~1\AppData\Local\Temp\ccSmxUIj.s 			page 49


 1990 090c 5F5F5549 		.ascii "__UINTMAX_MAX__ 18446744073709551615ULL\0"
 1990      4E544D41 
 1990      585F4D41 
 1990      585F5F20 
 1990      31383434 
 1991 0934 01       		.byte	0x1
 1992 0935 00       		.uleb128 0
 1993 0936 5F5F5549 		.ascii "__UINTMAX_C(c) c ## ULL\0"
 1993      4E544D41 
 1993      585F4328 
 1993      63292063 
 1993      20232320 
 1994 094e 01       		.byte	0x1
 1995 094f 00       		.uleb128 0
 1996 0950 5F5F5349 		.ascii "__SIG_ATOMIC_MAX__ 2147483647\0"
 1996      475F4154 
 1996      4F4D4943 
 1996      5F4D4158 
 1996      5F5F2032 
 1997 096e 01       		.byte	0x1
 1998 096f 00       		.uleb128 0
 1999 0970 5F5F5349 		.ascii "__SIG_ATOMIC_MIN__ (-__SIG_ATOMIC_MAX__ - 1)\0"
 1999      475F4154 
 1999      4F4D4943 
 1999      5F4D494E 
 1999      5F5F2028 
 2000 099d 01       		.byte	0x1
 2001 099e 00       		.uleb128 0
 2002 099f 5F5F494E 		.ascii "__INT8_MAX__ 127\0"
 2002      54385F4D 
 2002      41585F5F 
 2002      20313237 
 2002      00
 2003 09b0 01       		.byte	0x1
 2004 09b1 00       		.uleb128 0
 2005 09b2 5F5F494E 		.ascii "__INT16_MAX__ 32767\0"
 2005      5431365F 
 2005      4D41585F 
 2005      5F203332 
 2005      37363700 
 2006 09c6 01       		.byte	0x1
 2007 09c7 00       		.uleb128 0
 2008 09c8 5F5F494E 		.ascii "__INT32_MAX__ 2147483647\0"
 2008      5433325F 
 2008      4D41585F 
 2008      5F203231 
 2008      34373438 
 2009 09e1 01       		.byte	0x1
 2010 09e2 00       		.uleb128 0
 2011 09e3 5F5F494E 		.ascii "__INT64_MAX__ 9223372036854775807LL\0"
 2011      5436345F 
 2011      4D41585F 
 2011      5F203932 
 2011      32333337 
 2012 0a07 01       		.byte	0x1
 2013 0a08 00       		.uleb128 0
 2014 0a09 5F5F5549 		.ascii "__UINT8_MAX__ 255\0"
GAS LISTING C:\Users\PRESID~1\AppData\Local\Temp\ccSmxUIj.s 			page 50


 2014      4E54385F 
 2014      4D41585F 
 2014      5F203235 
 2014      3500
 2015 0a1b 01       		.byte	0x1
 2016 0a1c 00       		.uleb128 0
 2017 0a1d 5F5F5549 		.ascii "__UINT16_MAX__ 65535\0"
 2017      4E543136 
 2017      5F4D4158 
 2017      5F5F2036 
 2017      35353335 
 2018 0a32 01       		.byte	0x1
 2019 0a33 00       		.uleb128 0
 2020 0a34 5F5F5549 		.ascii "__UINT32_MAX__ 4294967295U\0"
 2020      4E543332 
 2020      5F4D4158 
 2020      5F5F2034 
 2020      32393439 
 2021 0a4f 01       		.byte	0x1
 2022 0a50 00       		.uleb128 0
 2023 0a51 5F5F5549 		.ascii "__UINT64_MAX__ 18446744073709551615ULL\0"
 2023      4E543634 
 2023      5F4D4158 
 2023      5F5F2031 
 2023      38343436 
 2024 0a78 01       		.byte	0x1
 2025 0a79 00       		.uleb128 0
 2026 0a7a 5F5F494E 		.ascii "__INT_LEAST8_MAX__ 127\0"
 2026      545F4C45 
 2026      41535438 
 2026      5F4D4158 
 2026      5F5F2031 
 2027 0a91 01       		.byte	0x1
 2028 0a92 00       		.uleb128 0
 2029 0a93 5F5F494E 		.ascii "__INT8_C(c) c\0"
 2029      54385F43 
 2029      28632920 
 2029      6300
 2030 0aa1 01       		.byte	0x1
 2031 0aa2 00       		.uleb128 0
 2032 0aa3 5F5F494E 		.ascii "__INT_LEAST16_MAX__ 32767\0"
 2032      545F4C45 
 2032      41535431 
 2032      365F4D41 
 2032      585F5F20 
 2033 0abd 01       		.byte	0x1
 2034 0abe 00       		.uleb128 0
 2035 0abf 5F5F494E 		.ascii "__INT16_C(c) c\0"
 2035      5431365F 
 2035      43286329 
 2035      206300
 2036 0ace 01       		.byte	0x1
 2037 0acf 00       		.uleb128 0
 2038 0ad0 5F5F494E 		.ascii "__INT_LEAST32_MAX__ 2147483647\0"
 2038      545F4C45 
 2038      41535433 
 2038      325F4D41 
GAS LISTING C:\Users\PRESID~1\AppData\Local\Temp\ccSmxUIj.s 			page 51


 2038      585F5F20 
 2039 0aef 01       		.byte	0x1
 2040 0af0 00       		.uleb128 0
 2041 0af1 5F5F494E 		.ascii "__INT32_C(c) c\0"
 2041      5433325F 
 2041      43286329 
 2041      206300
 2042 0b00 01       		.byte	0x1
 2043 0b01 00       		.uleb128 0
 2044 0b02 5F5F494E 		.ascii "__INT_LEAST64_MAX__ 9223372036854775807LL\0"
 2044      545F4C45 
 2044      41535436 
 2044      345F4D41 
 2044      585F5F20 
 2045 0b2c 01       		.byte	0x1
 2046 0b2d 00       		.uleb128 0
 2047 0b2e 5F5F494E 		.ascii "__INT64_C(c) c ## LL\0"
 2047      5436345F 
 2047      43286329 
 2047      20632023 
 2047      23204C4C 
 2048 0b43 01       		.byte	0x1
 2049 0b44 00       		.uleb128 0
 2050 0b45 5F5F5549 		.ascii "__UINT_LEAST8_MAX__ 255\0"
 2050      4E545F4C 
 2050      45415354 
 2050      385F4D41 
 2050      585F5F20 
 2051 0b5d 01       		.byte	0x1
 2052 0b5e 00       		.uleb128 0
 2053 0b5f 5F5F5549 		.ascii "__UINT8_C(c) c\0"
 2053      4E54385F 
 2053      43286329 
 2053      206300
 2054 0b6e 01       		.byte	0x1
 2055 0b6f 00       		.uleb128 0
 2056 0b70 5F5F5549 		.ascii "__UINT_LEAST16_MAX__ 65535\0"
 2056      4E545F4C 
 2056      45415354 
 2056      31365F4D 
 2056      41585F5F 
 2057 0b8b 01       		.byte	0x1
 2058 0b8c 00       		.uleb128 0
 2059 0b8d 5F5F5549 		.ascii "__UINT16_C(c) c\0"
 2059      4E543136 
 2059      5F432863 
 2059      29206300 
 2060 0b9d 01       		.byte	0x1
 2061 0b9e 00       		.uleb128 0
 2062 0b9f 5F5F5549 		.ascii "__UINT_LEAST32_MAX__ 4294967295U\0"
 2062      4E545F4C 
 2062      45415354 
 2062      33325F4D 
 2062      41585F5F 
 2063 0bc0 01       		.byte	0x1
 2064 0bc1 00       		.uleb128 0
 2065 0bc2 5F5F5549 		.ascii "__UINT32_C(c) c ## U\0"
GAS LISTING C:\Users\PRESID~1\AppData\Local\Temp\ccSmxUIj.s 			page 52


 2065      4E543332 
 2065      5F432863 
 2065      29206320 
 2065      23232055 
 2066 0bd7 01       		.byte	0x1
 2067 0bd8 00       		.uleb128 0
 2068 0bd9 5F5F5549 		.ascii "__UINT_LEAST64_MAX__ 18446744073709551615ULL\0"
 2068      4E545F4C 
 2068      45415354 
 2068      36345F4D 
 2068      41585F5F 
 2069 0c06 01       		.byte	0x1
 2070 0c07 00       		.uleb128 0
 2071 0c08 5F5F5549 		.ascii "__UINT64_C(c) c ## ULL\0"
 2071      4E543634 
 2071      5F432863 
 2071      29206320 
 2071      23232055 
 2072 0c1f 01       		.byte	0x1
 2073 0c20 00       		.uleb128 0
 2074 0c21 5F5F494E 		.ascii "__INT_FAST8_MAX__ 127\0"
 2074      545F4641 
 2074      5354385F 
 2074      4D41585F 
 2074      5F203132 
 2075 0c37 01       		.byte	0x1
 2076 0c38 00       		.uleb128 0
 2077 0c39 5F5F494E 		.ascii "__INT_FAST16_MAX__ 32767\0"
 2077      545F4641 
 2077      53543136 
 2077      5F4D4158 
 2077      5F5F2033 
 2078 0c52 01       		.byte	0x1
 2079 0c53 00       		.uleb128 0
 2080 0c54 5F5F494E 		.ascii "__INT_FAST32_MAX__ 2147483647\0"
 2080      545F4641 
 2080      53543332 
 2080      5F4D4158 
 2080      5F5F2032 
 2081 0c72 01       		.byte	0x1
 2082 0c73 00       		.uleb128 0
 2083 0c74 5F5F494E 		.ascii "__INT_FAST64_MAX__ 9223372036854775807LL\0"
 2083      545F4641 
 2083      53543634 
 2083      5F4D4158 
 2083      5F5F2039 
 2084 0c9d 01       		.byte	0x1
 2085 0c9e 00       		.uleb128 0
 2086 0c9f 5F5F5549 		.ascii "__UINT_FAST8_MAX__ 255\0"
 2086      4E545F46 
 2086      41535438 
 2086      5F4D4158 
 2086      5F5F2032 
 2087 0cb6 01       		.byte	0x1
 2088 0cb7 00       		.uleb128 0
 2089 0cb8 5F5F5549 		.ascii "__UINT_FAST16_MAX__ 65535\0"
 2089      4E545F46 
GAS LISTING C:\Users\PRESID~1\AppData\Local\Temp\ccSmxUIj.s 			page 53


 2089      41535431 
 2089      365F4D41 
 2089      585F5F20 
 2090 0cd2 01       		.byte	0x1
 2091 0cd3 00       		.uleb128 0
 2092 0cd4 5F5F5549 		.ascii "__UINT_FAST32_MAX__ 4294967295U\0"
 2092      4E545F46 
 2092      41535433 
 2092      325F4D41 
 2092      585F5F20 
 2093 0cf4 01       		.byte	0x1
 2094 0cf5 00       		.uleb128 0
 2095 0cf6 5F5F5549 		.ascii "__UINT_FAST64_MAX__ 18446744073709551615ULL\0"
 2095      4E545F46 
 2095      41535436 
 2095      345F4D41 
 2095      585F5F20 
 2096 0d22 01       		.byte	0x1
 2097 0d23 00       		.uleb128 0
 2098 0d24 5F5F494E 		.ascii "__INTPTR_MAX__ 2147483647\0"
 2098      54505452 
 2098      5F4D4158 
 2098      5F5F2032 
 2098      31343734 
 2099 0d3e 01       		.byte	0x1
 2100 0d3f 00       		.uleb128 0
 2101 0d40 5F5F5549 		.ascii "__UINTPTR_MAX__ 4294967295U\0"
 2101      4E545054 
 2101      525F4D41 
 2101      585F5F20 
 2101      34323934 
 2102 0d5c 01       		.byte	0x1
 2103 0d5d 00       		.uleb128 0
 2104 0d5e 5F5F4743 		.ascii "__GCC_IEC_559 2\0"
 2104      435F4945 
 2104      435F3535 
 2104      39203200 
 2105 0d6e 01       		.byte	0x1
 2106 0d6f 00       		.uleb128 0
 2107 0d70 5F5F4743 		.ascii "__GCC_IEC_559_COMPLEX 2\0"
 2107      435F4945 
 2107      435F3535 
 2107      395F434F 
 2107      4D504C45 
 2108 0d88 01       		.byte	0x1
 2109 0d89 00       		.uleb128 0
 2110 0d8a 5F5F464C 		.ascii "__FLT_EVAL_METHOD__ 2\0"
 2110      545F4556 
 2110      414C5F4D 
 2110      4554484F 
 2110      445F5F20 
 2111 0da0 01       		.byte	0x1
 2112 0da1 00       		.uleb128 0
 2113 0da2 5F5F4445 		.ascii "__DEC_EVAL_METHOD__ 2\0"
 2113      435F4556 
 2113      414C5F4D 
 2113      4554484F 
GAS LISTING C:\Users\PRESID~1\AppData\Local\Temp\ccSmxUIj.s 			page 54


 2113      445F5F20 
 2114 0db8 01       		.byte	0x1
 2115 0db9 00       		.uleb128 0
 2116 0dba 5F5F464C 		.ascii "__FLT_RADIX__ 2\0"
 2116      545F5241 
 2116      4449585F 
 2116      5F203200 
 2117 0dca 01       		.byte	0x1
 2118 0dcb 00       		.uleb128 0
 2119 0dcc 5F5F464C 		.ascii "__FLT_MANT_DIG__ 24\0"
 2119      545F4D41 
 2119      4E545F44 
 2119      49475F5F 
 2119      20323400 
 2120 0de0 01       		.byte	0x1
 2121 0de1 00       		.uleb128 0
 2122 0de2 5F5F464C 		.ascii "__FLT_DIG__ 6\0"
 2122      545F4449 
 2122      475F5F20 
 2122      3600
 2123 0df0 01       		.byte	0x1
 2124 0df1 00       		.uleb128 0
 2125 0df2 5F5F464C 		.ascii "__FLT_MIN_EXP__ (-125)\0"
 2125      545F4D49 
 2125      4E5F4558 
 2125      505F5F20 
 2125      282D3132 
 2126 0e09 01       		.byte	0x1
 2127 0e0a 00       		.uleb128 0
 2128 0e0b 5F5F464C 		.ascii "__FLT_MIN_10_EXP__ (-37)\0"
 2128      545F4D49 
 2128      4E5F3130 
 2128      5F455850 
 2128      5F5F2028 
 2129 0e24 01       		.byte	0x1
 2130 0e25 00       		.uleb128 0
 2131 0e26 5F5F464C 		.ascii "__FLT_MAX_EXP__ 128\0"
 2131      545F4D41 
 2131      585F4558 
 2131      505F5F20 
 2131      31323800 
 2132 0e3a 01       		.byte	0x1
 2133 0e3b 00       		.uleb128 0
 2134 0e3c 5F5F464C 		.ascii "__FLT_MAX_10_EXP__ 38\0"
 2134      545F4D41 
 2134      585F3130 
 2134      5F455850 
 2134      5F5F2033 
 2135 0e52 01       		.byte	0x1
 2136 0e53 00       		.uleb128 0
 2137 0e54 5F5F464C 		.ascii "__FLT_DECIMAL_DIG__ 9\0"
 2137      545F4445 
 2137      43494D41 
 2137      4C5F4449 
 2137      475F5F20 
 2138 0e6a 01       		.byte	0x1
 2139 0e6b 00       		.uleb128 0
GAS LISTING C:\Users\PRESID~1\AppData\Local\Temp\ccSmxUIj.s 			page 55


 2140 0e6c 5F5F464C 		.ascii "__FLT_MAX__ 3.40282346638528859812e+38F\0"
 2140      545F4D41 
 2140      585F5F20 
 2140      332E3430 
 2140      32383233 
 2141 0e94 01       		.byte	0x1
 2142 0e95 00       		.uleb128 0
 2143 0e96 5F5F464C 		.ascii "__FLT_MIN__ 1.17549435082228750797e-38F\0"
 2143      545F4D49 
 2143      4E5F5F20 
 2143      312E3137 
 2143      35343934 
 2144 0ebe 01       		.byte	0x1
 2145 0ebf 00       		.uleb128 0
 2146 0ec0 5F5F464C 		.ascii "__FLT_EPSILON__ 1.19209289550781250000e-7F\0"
 2146      545F4550 
 2146      53494C4F 
 2146      4E5F5F20 
 2146      312E3139 
 2147 0eeb 01       		.byte	0x1
 2148 0eec 00       		.uleb128 0
 2149 0eed 5F5F464C 		.ascii "__FLT_DENORM_MIN__ 1.40129846432481707092e-45F\0"
 2149      545F4445 
 2149      4E4F524D 
 2149      5F4D494E 
 2149      5F5F2031 
 2150 0f1c 01       		.byte	0x1
 2151 0f1d 00       		.uleb128 0
 2152 0f1e 5F5F464C 		.ascii "__FLT_HAS_DENORM__ 1\0"
 2152      545F4841 
 2152      535F4445 
 2152      4E4F524D 
 2152      5F5F2031 
 2153 0f33 01       		.byte	0x1
 2154 0f34 00       		.uleb128 0
 2155 0f35 5F5F464C 		.ascii "__FLT_HAS_INFINITY__ 1\0"
 2155      545F4841 
 2155      535F494E 
 2155      46494E49 
 2155      54595F5F 
 2156 0f4c 01       		.byte	0x1
 2157 0f4d 00       		.uleb128 0
 2158 0f4e 5F5F464C 		.ascii "__FLT_HAS_QUIET_NAN__ 1\0"
 2158      545F4841 
 2158      535F5155 
 2158      4945545F 
 2158      4E414E5F 
 2159 0f66 01       		.byte	0x1
 2160 0f67 00       		.uleb128 0
 2161 0f68 5F5F4442 		.ascii "__DBL_MANT_DIG__ 53\0"
 2161      4C5F4D41 
 2161      4E545F44 
 2161      49475F5F 
 2161      20353300 
 2162 0f7c 01       		.byte	0x1
 2163 0f7d 00       		.uleb128 0
 2164 0f7e 5F5F4442 		.ascii "__DBL_DIG__ 15\0"
GAS LISTING C:\Users\PRESID~1\AppData\Local\Temp\ccSmxUIj.s 			page 56


 2164      4C5F4449 
 2164      475F5F20 
 2164      313500
 2165 0f8d 01       		.byte	0x1
 2166 0f8e 00       		.uleb128 0
 2167 0f8f 5F5F4442 		.ascii "__DBL_MIN_EXP__ (-1021)\0"
 2167      4C5F4D49 
 2167      4E5F4558 
 2167      505F5F20 
 2167      282D3130 
 2168 0fa7 01       		.byte	0x1
 2169 0fa8 00       		.uleb128 0
 2170 0fa9 5F5F4442 		.ascii "__DBL_MIN_10_EXP__ (-307)\0"
 2170      4C5F4D49 
 2170      4E5F3130 
 2170      5F455850 
 2170      5F5F2028 
 2171 0fc3 01       		.byte	0x1
 2172 0fc4 00       		.uleb128 0
 2173 0fc5 5F5F4442 		.ascii "__DBL_MAX_EXP__ 1024\0"
 2173      4C5F4D41 
 2173      585F4558 
 2173      505F5F20 
 2173      31303234 
 2174 0fda 01       		.byte	0x1
 2175 0fdb 00       		.uleb128 0
 2176 0fdc 5F5F4442 		.ascii "__DBL_MAX_10_EXP__ 308\0"
 2176      4C5F4D41 
 2176      585F3130 
 2176      5F455850 
 2176      5F5F2033 
 2177 0ff3 01       		.byte	0x1
 2178 0ff4 00       		.uleb128 0
 2179 0ff5 5F5F4442 		.ascii "__DBL_DECIMAL_DIG__ 17\0"
 2179      4C5F4445 
 2179      43494D41 
 2179      4C5F4449 
 2179      475F5F20 
 2180 100c 01       		.byte	0x1
 2181 100d 00       		.uleb128 0
 2182 100e 5F5F4442 		.ascii "__DBL_MAX__ ((double)1.79769313486231570815e+308L)\0"
 2182      4C5F4D41 
 2182      585F5F20 
 2182      2828646F 
 2182      75626C65 
 2183 1041 01       		.byte	0x1
 2184 1042 00       		.uleb128 0
 2185 1043 5F5F4442 		.ascii "__DBL_MIN__ ((double)2.22507385850720138309e-308L)\0"
 2185      4C5F4D49 
 2185      4E5F5F20 
 2185      2828646F 
 2185      75626C65 
 2186 1076 01       		.byte	0x1
 2187 1077 00       		.uleb128 0
 2188 1078 5F5F4442 		.ascii "__DBL_EPSILON__ ((double)2.22044604925031308085e-16L)\0"
 2188      4C5F4550 
 2188      53494C4F 
GAS LISTING C:\Users\PRESID~1\AppData\Local\Temp\ccSmxUIj.s 			page 57


 2188      4E5F5F20 
 2188      2828646F 
 2189 10ae 01       		.byte	0x1
 2190 10af 00       		.uleb128 0
 2191 10b0 5F5F4442 		.ascii "__DBL_DENORM_MIN__ ((double)4.94065645841246544177e-324L)\0"
 2191      4C5F4445 
 2191      4E4F524D 
 2191      5F4D494E 
 2191      5F5F2028 
 2192 10ea 01       		.byte	0x1
 2193 10eb 00       		.uleb128 0
 2194 10ec 5F5F4442 		.ascii "__DBL_HAS_DENORM__ 1\0"
 2194      4C5F4841 
 2194      535F4445 
 2194      4E4F524D 
 2194      5F5F2031 
 2195 1101 01       		.byte	0x1
 2196 1102 00       		.uleb128 0
 2197 1103 5F5F4442 		.ascii "__DBL_HAS_INFINITY__ 1\0"
 2197      4C5F4841 
 2197      535F494E 
 2197      46494E49 
 2197      54595F5F 
 2198 111a 01       		.byte	0x1
 2199 111b 00       		.uleb128 0
 2200 111c 5F5F4442 		.ascii "__DBL_HAS_QUIET_NAN__ 1\0"
 2200      4C5F4841 
 2200      535F5155 
 2200      4945545F 
 2200      4E414E5F 
 2201 1134 01       		.byte	0x1
 2202 1135 00       		.uleb128 0
 2203 1136 5F5F4C44 		.ascii "__LDBL_MANT_DIG__ 64\0"
 2203      424C5F4D 
 2203      414E545F 
 2203      4449475F 
 2203      5F203634 
 2204 114b 01       		.byte	0x1
 2205 114c 00       		.uleb128 0
 2206 114d 5F5F4C44 		.ascii "__LDBL_DIG__ 18\0"
 2206      424C5F44 
 2206      49475F5F 
 2206      20313800 
 2207 115d 01       		.byte	0x1
 2208 115e 00       		.uleb128 0
 2209 115f 5F5F4C44 		.ascii "__LDBL_MIN_EXP__ (-16381)\0"
 2209      424C5F4D 
 2209      494E5F45 
 2209      58505F5F 
 2209      20282D31 
 2210 1179 01       		.byte	0x1
 2211 117a 00       		.uleb128 0
 2212 117b 5F5F4C44 		.ascii "__LDBL_MIN_10_EXP__ (-4931)\0"
 2212      424C5F4D 
 2212      494E5F31 
 2212      305F4558 
 2212      505F5F20 
GAS LISTING C:\Users\PRESID~1\AppData\Local\Temp\ccSmxUIj.s 			page 58


 2213 1197 01       		.byte	0x1
 2214 1198 00       		.uleb128 0
 2215 1199 5F5F4C44 		.ascii "__LDBL_MAX_EXP__ 16384\0"
 2215      424C5F4D 
 2215      41585F45 
 2215      58505F5F 
 2215      20313633 
 2216 11b0 01       		.byte	0x1
 2217 11b1 00       		.uleb128 0
 2218 11b2 5F5F4C44 		.ascii "__LDBL_MAX_10_EXP__ 4932\0"
 2218      424C5F4D 
 2218      41585F31 
 2218      305F4558 
 2218      505F5F20 
 2219 11cb 01       		.byte	0x1
 2220 11cc 00       		.uleb128 0
 2221 11cd 5F5F4445 		.ascii "__DECIMAL_DIG__ 21\0"
 2221      43494D41 
 2221      4C5F4449 
 2221      475F5F20 
 2221      323100
 2222 11e0 01       		.byte	0x1
 2223 11e1 00       		.uleb128 0
 2224 11e2 5F5F4C44 		.ascii "__LDBL_MAX__ 1.18973149535723176502e+4932L\0"
 2224      424C5F4D 
 2224      41585F5F 
 2224      20312E31 
 2224      38393733 
 2225 120d 01       		.byte	0x1
 2226 120e 00       		.uleb128 0
 2227 120f 5F5F4C44 		.ascii "__LDBL_MIN__ 3.36210314311209350626e-4932L\0"
 2227      424C5F4D 
 2227      494E5F5F 
 2227      20332E33 
 2227      36323130 
 2228 123a 01       		.byte	0x1
 2229 123b 00       		.uleb128 0
 2230 123c 5F5F4C44 		.ascii "__LDBL_EPSILON__ 1.08420217248550443401e-19L\0"
 2230      424C5F45 
 2230      5053494C 
 2230      4F4E5F5F 
 2230      20312E30 
 2231 1269 01       		.byte	0x1
 2232 126a 00       		.uleb128 0
 2233 126b 5F5F4C44 		.ascii "__LDBL_DENORM_MIN__ 3.64519953188247460253e-4951L\0"
 2233      424C5F44 
 2233      454E4F52 
 2233      4D5F4D49 
 2233      4E5F5F20 
 2234 129d 01       		.byte	0x1
 2235 129e 00       		.uleb128 0
 2236 129f 5F5F4C44 		.ascii "__LDBL_HAS_DENORM__ 1\0"
 2236      424C5F48 
 2236      41535F44 
 2236      454E4F52 
 2236      4D5F5F20 
 2237 12b5 01       		.byte	0x1
GAS LISTING C:\Users\PRESID~1\AppData\Local\Temp\ccSmxUIj.s 			page 59


 2238 12b6 00       		.uleb128 0
 2239 12b7 5F5F4C44 		.ascii "__LDBL_HAS_INFINITY__ 1\0"
 2239      424C5F48 
 2239      41535F49 
 2239      4E46494E 
 2239      4954595F 
 2240 12cf 01       		.byte	0x1
 2241 12d0 00       		.uleb128 0
 2242 12d1 5F5F4C44 		.ascii "__LDBL_HAS_QUIET_NAN__ 1\0"
 2242      424C5F48 
 2242      41535F51 
 2242      55494554 
 2242      5F4E414E 
 2243 12ea 01       		.byte	0x1
 2244 12eb 00       		.uleb128 0
 2245 12ec 5F5F4445 		.ascii "__DEC32_MANT_DIG__ 7\0"
 2245      4333325F 
 2245      4D414E54 
 2245      5F444947 
 2245      5F5F2037 
 2246 1301 01       		.byte	0x1
 2247 1302 00       		.uleb128 0
 2248 1303 5F5F4445 		.ascii "__DEC32_MIN_EXP__ (-94)\0"
 2248      4333325F 
 2248      4D494E5F 
 2248      4558505F 
 2248      5F20282D 
 2249 131b 01       		.byte	0x1
 2250 131c 00       		.uleb128 0
 2251 131d 5F5F4445 		.ascii "__DEC32_MAX_EXP__ 97\0"
 2251      4333325F 
 2251      4D41585F 
 2251      4558505F 
 2251      5F203937 
 2252 1332 01       		.byte	0x1
 2253 1333 00       		.uleb128 0
 2254 1334 5F5F4445 		.ascii "__DEC32_MIN__ 1E-95DF\0"
 2254      4333325F 
 2254      4D494E5F 
 2254      5F203145 
 2254      2D393544 
 2255 134a 01       		.byte	0x1
 2256 134b 00       		.uleb128 0
 2257 134c 5F5F4445 		.ascii "__DEC32_MAX__ 9.999999E96DF\0"
 2257      4333325F 
 2257      4D41585F 
 2257      5F20392E 
 2257      39393939 
 2258 1368 01       		.byte	0x1
 2259 1369 00       		.uleb128 0
 2260 136a 5F5F4445 		.ascii "__DEC32_EPSILON__ 1E-6DF\0"
 2260      4333325F 
 2260      45505349 
 2260      4C4F4E5F 
 2260      5F203145 
 2261 1383 01       		.byte	0x1
 2262 1384 00       		.uleb128 0
GAS LISTING C:\Users\PRESID~1\AppData\Local\Temp\ccSmxUIj.s 			page 60


 2263 1385 5F5F4445 		.ascii "__DEC32_SUBNORMAL_MIN__ 0.000001E-95DF\0"
 2263      4333325F 
 2263      5355424E 
 2263      4F524D41 
 2263      4C5F4D49 
 2264 13ac 01       		.byte	0x1
 2265 13ad 00       		.uleb128 0
 2266 13ae 5F5F4445 		.ascii "__DEC64_MANT_DIG__ 16\0"
 2266      4336345F 
 2266      4D414E54 
 2266      5F444947 
 2266      5F5F2031 
 2267 13c4 01       		.byte	0x1
 2268 13c5 00       		.uleb128 0
 2269 13c6 5F5F4445 		.ascii "__DEC64_MIN_EXP__ (-382)\0"
 2269      4336345F 
 2269      4D494E5F 
 2269      4558505F 
 2269      5F20282D 
 2270 13df 01       		.byte	0x1
 2271 13e0 00       		.uleb128 0
 2272 13e1 5F5F4445 		.ascii "__DEC64_MAX_EXP__ 385\0"
 2272      4336345F 
 2272      4D41585F 
 2272      4558505F 
 2272      5F203338 
 2273 13f7 01       		.byte	0x1
 2274 13f8 00       		.uleb128 0
 2275 13f9 5F5F4445 		.ascii "__DEC64_MIN__ 1E-383DD\0"
 2275      4336345F 
 2275      4D494E5F 
 2275      5F203145 
 2275      2D333833 
 2276 1410 01       		.byte	0x1
 2277 1411 00       		.uleb128 0
 2278 1412 5F5F4445 		.ascii "__DEC64_MAX__ 9.999999999999999E384DD\0"
 2278      4336345F 
 2278      4D41585F 
 2278      5F20392E 
 2278      39393939 
 2279 1438 01       		.byte	0x1
 2280 1439 00       		.uleb128 0
 2281 143a 5F5F4445 		.ascii "__DEC64_EPSILON__ 1E-15DD\0"
 2281      4336345F 
 2281      45505349 
 2281      4C4F4E5F 
 2281      5F203145 
 2282 1454 01       		.byte	0x1
 2283 1455 00       		.uleb128 0
 2284 1456 5F5F4445 		.ascii "__DEC64_SUBNORMAL_MIN__ 0.000000000000001E-383DD\0"
 2284      4336345F 
 2284      5355424E 
 2284      4F524D41 
 2284      4C5F4D49 
 2285 1487 01       		.byte	0x1
 2286 1488 00       		.uleb128 0
 2287 1489 5F5F4445 		.ascii "__DEC128_MANT_DIG__ 34\0"
GAS LISTING C:\Users\PRESID~1\AppData\Local\Temp\ccSmxUIj.s 			page 61


 2287      43313238 
 2287      5F4D414E 
 2287      545F4449 
 2287      475F5F20 
 2288 14a0 01       		.byte	0x1
 2289 14a1 00       		.uleb128 0
 2290 14a2 5F5F4445 		.ascii "__DEC128_MIN_EXP__ (-6142)\0"
 2290      43313238 
 2290      5F4D494E 
 2290      5F455850 
 2290      5F5F2028 
 2291 14bd 01       		.byte	0x1
 2292 14be 00       		.uleb128 0
 2293 14bf 5F5F4445 		.ascii "__DEC128_MAX_EXP__ 6145\0"
 2293      43313238 
 2293      5F4D4158 
 2293      5F455850 
 2293      5F5F2036 
 2294 14d7 01       		.byte	0x1
 2295 14d8 00       		.uleb128 0
 2296 14d9 5F5F4445 		.ascii "__DEC128_MIN__ 1E-6143DL\0"
 2296      43313238 
 2296      5F4D494E 
 2296      5F5F2031 
 2296      452D3631 
 2297 14f2 01       		.byte	0x1
 2298 14f3 00       		.uleb128 0
 2299 14f4 5F5F4445 		.ascii "__DEC128_MAX__ 9.999999999999999999999999999999999E6144DL\0"
 2299      43313238 
 2299      5F4D4158 
 2299      5F5F2039 
 2299      2E393939 
 2300 152e 01       		.byte	0x1
 2301 152f 00       		.uleb128 0
 2302 1530 5F5F4445 		.ascii "__DEC128_EPSILON__ 1E-33DL\0"
 2302      43313238 
 2302      5F455053 
 2302      494C4F4E 
 2302      5F5F2031 
 2303 154b 01       		.byte	0x1
 2304 154c 00       		.uleb128 0
 2305 154d 5F5F4445 		.ascii "__DEC128_SUBNORMAL_MIN__ 0.000000000000000000000000000000001E-6143DL\0"
 2305      43313238 
 2305      5F535542 
 2305      4E4F524D 
 2305      414C5F4D 
 2306 1592 01       		.byte	0x1
 2307 1593 00       		.uleb128 0
 2308 1594 5F5F5245 		.ascii "__REGISTER_PREFIX__ \0"
 2308      47495354 
 2308      45525F50 
 2308      52454649 
 2308      585F5F20 
 2309 15a9 01       		.byte	0x1
 2310 15aa 00       		.uleb128 0
 2311 15ab 5F5F5553 		.ascii "__USER_LABEL_PREFIX__ _\0"
 2311      45525F4C 
GAS LISTING C:\Users\PRESID~1\AppData\Local\Temp\ccSmxUIj.s 			page 62


 2311      4142454C 
 2311      5F505245 
 2311      4649585F 
 2312 15c3 01       		.byte	0x1
 2313 15c4 00       		.uleb128 0
 2314 15c5 5F5F474E 		.ascii "__GNUC_GNU_INLINE__ 1\0"
 2314      55435F47 
 2314      4E555F49 
 2314      4E4C494E 
 2314      455F5F20 
 2315 15db 01       		.byte	0x1
 2316 15dc 00       		.uleb128 0
 2317 15dd 5F5F4E4F 		.ascii "__NO_INLINE__ 1\0"
 2317      5F494E4C 
 2317      494E455F 
 2317      5F203100 
 2318 15ed 01       		.byte	0x1
 2319 15ee 00       		.uleb128 0
 2320 15ef 5F5F5354 		.ascii "__STRICT_ANSI__ 1\0"
 2320      52494354 
 2320      5F414E53 
 2320      495F5F20 
 2320      3100
 2321 1601 01       		.byte	0x1
 2322 1602 00       		.uleb128 0
 2323 1603 5F5F4743 		.ascii "__GCC_ATOMIC_BOOL_LOCK_FREE 1\0"
 2323      435F4154 
 2323      4F4D4943 
 2323      5F424F4F 
 2323      4C5F4C4F 
 2324 1621 01       		.byte	0x1
 2325 1622 00       		.uleb128 0
 2326 1623 5F5F4743 		.ascii "__GCC_ATOMIC_CHAR_LOCK_FREE 1\0"
 2326      435F4154 
 2326      4F4D4943 
 2326      5F434841 
 2326      525F4C4F 
 2327 1641 01       		.byte	0x1
 2328 1642 00       		.uleb128 0
 2329 1643 5F5F4743 		.ascii "__GCC_ATOMIC_CHAR16_T_LOCK_FREE 1\0"
 2329      435F4154 
 2329      4F4D4943 
 2329      5F434841 
 2329      5231365F 
 2330 1665 01       		.byte	0x1
 2331 1666 00       		.uleb128 0
 2332 1667 5F5F4743 		.ascii "__GCC_ATOMIC_CHAR32_T_LOCK_FREE 1\0"
 2332      435F4154 
 2332      4F4D4943 
 2332      5F434841 
 2332      5233325F 
 2333 1689 01       		.byte	0x1
 2334 168a 00       		.uleb128 0
 2335 168b 5F5F4743 		.ascii "__GCC_ATOMIC_WCHAR_T_LOCK_FREE 1\0"
 2335      435F4154 
 2335      4F4D4943 
 2335      5F574348 
GAS LISTING C:\Users\PRESID~1\AppData\Local\Temp\ccSmxUIj.s 			page 63


 2335      41525F54 
 2336 16ac 01       		.byte	0x1
 2337 16ad 00       		.uleb128 0
 2338 16ae 5F5F4743 		.ascii "__GCC_ATOMIC_SHORT_LOCK_FREE 1\0"
 2338      435F4154 
 2338      4F4D4943 
 2338      5F53484F 
 2338      52545F4C 
 2339 16cd 01       		.byte	0x1
 2340 16ce 00       		.uleb128 0
 2341 16cf 5F5F4743 		.ascii "__GCC_ATOMIC_INT_LOCK_FREE 1\0"
 2341      435F4154 
 2341      4F4D4943 
 2341      5F494E54 
 2341      5F4C4F43 
 2342 16ec 01       		.byte	0x1
 2343 16ed 00       		.uleb128 0
 2344 16ee 5F5F4743 		.ascii "__GCC_ATOMIC_LONG_LOCK_FREE 1\0"
 2344      435F4154 
 2344      4F4D4943 
 2344      5F4C4F4E 
 2344      475F4C4F 
 2345 170c 01       		.byte	0x1
 2346 170d 00       		.uleb128 0
 2347 170e 5F5F4743 		.ascii "__GCC_ATOMIC_LLONG_LOCK_FREE 1\0"
 2347      435F4154 
 2347      4F4D4943 
 2347      5F4C4C4F 
 2347      4E475F4C 
 2348 172d 01       		.byte	0x1
 2349 172e 00       		.uleb128 0
 2350 172f 5F5F4743 		.ascii "__GCC_ATOMIC_TEST_AND_SET_TRUEVAL 1\0"
 2350      435F4154 
 2350      4F4D4943 
 2350      5F544553 
 2350      545F414E 
 2351 1753 01       		.byte	0x1
 2352 1754 00       		.uleb128 0
 2353 1755 5F5F4743 		.ascii "__GCC_ATOMIC_POINTER_LOCK_FREE 1\0"
 2353      435F4154 
 2353      4F4D4943 
 2353      5F504F49 
 2353      4E544552 
 2354 1776 01       		.byte	0x1
 2355 1777 00       		.uleb128 0
 2356 1778 5F5F4743 		.ascii "__GCC_HAVE_DWARF2_CFI_ASM 1\0"
 2356      435F4841 
 2356      56455F44 
 2356      57415246 
 2356      325F4346 
 2357 1794 01       		.byte	0x1
 2358 1795 00       		.uleb128 0
 2359 1796 5F5F5052 		.ascii "__PRAGMA_REDEFINE_EXTNAME 1\0"
 2359      41474D41 
 2359      5F524544 
 2359      4546494E 
 2359      455F4558 
GAS LISTING C:\Users\PRESID~1\AppData\Local\Temp\ccSmxUIj.s 			page 64


 2360 17b2 01       		.byte	0x1
 2361 17b3 00       		.uleb128 0
 2362 17b4 5F5F5349 		.ascii "__SIZEOF_WCHAR_T__ 2\0"
 2362      5A454F46 
 2362      5F574348 
 2362      41525F54 
 2362      5F5F2032 
 2363 17c9 01       		.byte	0x1
 2364 17ca 00       		.uleb128 0
 2365 17cb 5F5F5349 		.ascii "__SIZEOF_WINT_T__ 2\0"
 2365      5A454F46 
 2365      5F57494E 
 2365      545F545F 
 2365      5F203200 
 2366 17df 01       		.byte	0x1
 2367 17e0 00       		.uleb128 0
 2368 17e1 5F5F5349 		.ascii "__SIZEOF_PTRDIFF_T__ 4\0"
 2368      5A454F46 
 2368      5F505452 
 2368      44494646 
 2368      5F545F5F 
 2369 17f8 01       		.byte	0x1
 2370 17f9 00       		.uleb128 0
 2371 17fa 5F5F6933 		.ascii "__i386 1\0"
 2371      38362031 
 2371      00
 2372 1803 01       		.byte	0x1
 2373 1804 00       		.uleb128 0
 2374 1805 5F5F6933 		.ascii "__i386__ 1\0"
 2374      38365F5F 
 2374      203100
 2375 1810 01       		.byte	0x1
 2376 1811 00       		.uleb128 0
 2377 1812 5F5F4154 		.ascii "__ATOMIC_HLE_ACQUIRE 65536\0"
 2377      4F4D4943 
 2377      5F484C45 
 2377      5F414351 
 2377      55495245 
 2378 182d 01       		.byte	0x1
 2379 182e 00       		.uleb128 0
 2380 182f 5F5F4154 		.ascii "__ATOMIC_HLE_RELEASE 131072\0"
 2380      4F4D4943 
 2380      5F484C45 
 2380      5F52454C 
 2380      45415345 
 2381 184b 01       		.byte	0x1
 2382 184c 00       		.uleb128 0
 2383 184d 5F5F7475 		.ascii "__tune_i386__ 1\0"
 2383      6E655F69 
 2383      3338365F 
 2383      5F203100 
 2384 185d 01       		.byte	0x1
 2385 185e 00       		.uleb128 0
 2386 185f 5F5F636F 		.ascii "__code_model_32__ 1\0"
 2386      64655F6D 
 2386      6F64656C 
 2386      5F33325F 
GAS LISTING C:\Users\PRESID~1\AppData\Local\Temp\ccSmxUIj.s 			page 65


 2386      5F203100 
 2387 1873 01       		.byte	0x1
 2388 1874 00       		.uleb128 0
 2389 1875 5F583836 		.ascii "_X86_ 1\0"
 2389      5F203100 
 2390 187d 01       		.byte	0x1
 2391 187e 00       		.uleb128 0
 2392 187f 5F5F7374 		.ascii "__stdcall __attribute__((__stdcall__))\0"
 2392      6463616C 
 2392      6C205F5F 
 2392      61747472 
 2392      69627574 
 2393 18a6 01       		.byte	0x1
 2394 18a7 00       		.uleb128 0
 2395 18a8 5F5F6661 		.ascii "__fastcall __attribute__((__fastcall__))\0"
 2395      73746361 
 2395      6C6C205F 
 2395      5F617474 
 2395      72696275 
 2396 18d1 01       		.byte	0x1
 2397 18d2 00       		.uleb128 0
 2398 18d3 5F5F7468 		.ascii "__thiscall __attribute__((__thiscall__))\0"
 2398      69736361 
 2398      6C6C205F 
 2398      5F617474 
 2398      72696275 
 2399 18fc 01       		.byte	0x1
 2400 18fd 00       		.uleb128 0
 2401 18fe 5F5F6364 		.ascii "__cdecl __attribute__((__cdecl__))\0"
 2401      65636C20 
 2401      5F5F6174 
 2401      74726962 
 2401      7574655F 
 2402 1921 01       		.byte	0x1
 2403 1922 00       		.uleb128 0
 2404 1923 5F5F4758 		.ascii "__GXX_MERGED_TYPEINFO_NAMES 0\0"
 2404      585F4D45 
 2404      52474544 
 2404      5F545950 
 2404      45494E46 
 2405 1941 01       		.byte	0x1
 2406 1942 00       		.uleb128 0
 2407 1943 5F5F4758 		.ascii "__GXX_TYPEINFO_EQUALITY_INLINE 0\0"
 2407      585F5459 
 2407      5045494E 
 2407      464F5F45 
 2407      5155414C 
 2408 1964 01       		.byte	0x1
 2409 1965 00       		.uleb128 0
 2410 1966 5F5F4D53 		.ascii "__MSVCRT__ 1\0"
 2410      56435254 
 2410      5F5F2031 
 2410      00
 2411 1973 01       		.byte	0x1
 2412 1974 00       		.uleb128 0
 2413 1975 5F5F4D49 		.ascii "__MINGW32__ 1\0"
 2413      4E475733 
GAS LISTING C:\Users\PRESID~1\AppData\Local\Temp\ccSmxUIj.s 			page 66


 2413      325F5F20 
 2413      3100
 2414 1983 01       		.byte	0x1
 2415 1984 00       		.uleb128 0
 2416 1985 5F57494E 		.ascii "_WIN32 1\0"
 2416      33322031 
 2416      00
 2417 198e 01       		.byte	0x1
 2418 198f 00       		.uleb128 0
 2419 1990 5F5F5749 		.ascii "__WIN32 1\0"
 2419      4E333220 
 2419      3100
 2420 199a 01       		.byte	0x1
 2421 199b 00       		.uleb128 0
 2422 199c 5F5F5749 		.ascii "__WIN32__ 1\0"
 2422      4E33325F 
 2422      5F203100 
 2423 19a8 01       		.byte	0x1
 2424 19a9 00       		.uleb128 0
 2425 19aa 5F5F5749 		.ascii "__WINNT 1\0"
 2425      4E4E5420 
 2425      3100
 2426 19b4 01       		.byte	0x1
 2427 19b5 00       		.uleb128 0
 2428 19b6 5F5F5749 		.ascii "__WINNT__ 1\0"
 2428      4E4E545F 
 2428      5F203100 
 2429 19c2 01       		.byte	0x1
 2430 19c3 00       		.uleb128 0
 2431 19c4 5F494E54 		.ascii "_INTEGRAL_MAX_BITS 64\0"
 2431      45475241 
 2431      4C5F4D41 
 2431      585F4249 
 2431      54532036 
 2432 19da 01       		.byte	0x1
 2433 19db 00       		.uleb128 0
 2434 19dc 5F5F6465 		.ascii "__declspec(x) __attribute__((x))\0"
 2434      636C7370 
 2434      65632878 
 2434      29205F5F 
 2434      61747472 
 2435 19fd 01       		.byte	0x1
 2436 19fe 00       		.uleb128 0
 2437 19ff 5F5F4445 		.ascii "__DECIMAL_BID_FORMAT__ 1\0"
 2437      43494D41 
 2437      4C5F4249 
 2437      445F464F 
 2437      524D4154 
 2438 1a18 01       		.byte	0x1
 2439 1a19 00       		.uleb128 0
 2440 1a1a 4346475F 		.ascii "CFG_PROCESSOR 3\0"
 2440      50524F43 
 2440      4553534F 
 2440      52203300 
 2441 1a2a 03       		.byte	0x3
 2442 1a2b 00       		.uleb128 0
 2443 1a2c 01       		.uleb128 0x1
GAS LISTING C:\Users\PRESID~1\AppData\Local\Temp\ccSmxUIj.s 			page 67


 2444              		.file 6 "E:/NeuOrga/Programmieren/c_cpp/github_os/input/src/os_base/os_firstinc.h"
 2445 1a2d 03       		.byte	0x3
 2446 1a2e 01       		.uleb128 0x1
 2447 1a2f 06       		.uleb128 0x6
 2448 1a30 01       		.byte	0x1
 2449 1a31 02       		.uleb128 0x2
 2450 1a32 5F6F735F 		.ascii "_os_firstinc_h_ \0"
 2450      66697273 
 2450      74696E63 
 2450      5F685F20 
 2450      00
 2451 1a43 03       		.byte	0x3
 2452 1a44 04       		.uleb128 0x4
 2453 1a45 02       		.uleb128 0x2
 2454 1a46 01       		.byte	0x1
 2455 1a47 02       		.uleb128 0x2
 2456 1a48 5F424153 		.ascii "_BASE_TYPES_H_ \0"
 2456      455F5459 
 2456      5045535F 
 2456      485F2000 
 2457 1a58 01       		.byte	0x1
 2458 1a59 04       		.uleb128 0x4
 2459 1a5a 494E5445 		.ascii "INTEGER_LLP64_IL32P64 1\0"
 2459      4745525F 
 2459      4C4C5036 
 2459      345F494C 
 2459      33325036 
 2460 1a72 01       		.byte	0x1
 2461 1a73 05       		.uleb128 0x5
 2462 1a74 494E5445 		.ascii "INTEGER_LP64_I32LP64 2\0"
 2462      4745525F 
 2462      4C503634 
 2462      5F493332 
 2462      4C503634 
 2463 1a8b 01       		.byte	0x1
 2464 1a8c 06       		.uleb128 0x6
 2465 1a8d 494E5445 		.ascii "INTEGER_ILP64 3\0"
 2465      4745525F 
 2465      494C5036 
 2465      34203300 
 2466 1a9d 01       		.byte	0x1
 2467 1a9e 07       		.uleb128 0x7
 2468 1a9f 494E5445 		.ascii "INTEGER_SILP64 4\0"
 2468      4745525F 
 2468      53494C50 
 2468      36342034 
 2468      00
 2469 1ab0 01       		.byte	0x1
 2470 1ab1 09       		.uleb128 0x9
 2471 1ab2 4350505F 		.ascii "CPP_VERSION_NONE 0\0"
 2471      56455253 
 2471      494F4E5F 
 2471      4E4F4E45 
 2471      203000
 2472 1ac5 01       		.byte	0x1
 2473 1ac6 0A       		.uleb128 0xa
 2474 1ac7 4350505F 		.ascii "CPP_VERSION_1998 1\0"
GAS LISTING C:\Users\PRESID~1\AppData\Local\Temp\ccSmxUIj.s 			page 68


 2474      56455253 
 2474      494F4E5F 
 2474      31393938 
 2474      203100
 2475 1ada 01       		.byte	0x1
 2476 1adb 0B       		.uleb128 0xb
 2477 1adc 4350505F 		.ascii "CPP_VERSION_2003 2\0"
 2477      56455253 
 2477      494F4E5F 
 2477      32303033 
 2477      203200
 2478 1aef 01       		.byte	0x1
 2479 1af0 0C       		.uleb128 0xc
 2480 1af1 4350505F 		.ascii "CPP_VERSION_2007 3\0"
 2480      56455253 
 2480      494F4E5F 
 2480      32303037 
 2480      203300
 2481 1b04 01       		.byte	0x1
 2482 1b05 0D       		.uleb128 0xd
 2483 1b06 4350505F 		.ascii "CPP_VERSION_2011 4\0"
 2483      56455253 
 2483      494F4E5F 
 2483      32303131 
 2483      203400
 2484 1b19 01       		.byte	0x1
 2485 1b1a 0E       		.uleb128 0xe
 2486 1b1b 49534F5F 		.ascii "ISO_CPP_VERSION CPP_VERSION_1998\0"
 2486      4350505F 
 2486      56455253 
 2486      494F4E20 
 2486      4350505F 
 2487 1b3c 01       		.byte	0x1
 2488 1b3d 10       		.uleb128 0x10
 2489 1b3e 494E5445 		.ascii "INTEGER_MODEL INTEGER_LLP64_IL32P64\0"
 2489      4745525F 
 2489      4D4F4445 
 2489      4C20494E 
 2489      54454745 
 2490 1b62 04       		.byte	0x4
 2491 1b63 03       		.byte	0x3
 2492 1b64 05       		.uleb128 0x5
 2493 1b65 03       		.uleb128 0x3
 2494 1b66 01       		.byte	0x1
 2495 1b67 02       		.uleb128 0x2
 2496 1b68 5F6F735F 		.ascii "_os_common_h_ \0"
 2496      636F6D6D 
 2496      6F6E5F68 
 2496      5F2000
 2497 1b77 01       		.byte	0x1
 2498 1b78 06       		.uleb128 0x6
 2499 1b79 46616C73 		.ascii "False 0\0"
 2499      65203000 
 2500 1b81 01       		.byte	0x1
 2501 1b82 07       		.uleb128 0x7
 2502 1b83 54727565 		.ascii "True 1\0"
 2502      203100
GAS LISTING C:\Users\PRESID~1\AppData\Local\Temp\ccSmxUIj.s 			page 69


 2503 1b8a 01       		.byte	0x1
 2504 1b8b 08       		.uleb128 0x8
 2505 1b8c 46414C53 		.ascii "FALSE False\0"
 2505      45204661 
 2505      6C736500 
 2506 1b98 01       		.byte	0x1
 2507 1b99 09       		.uleb128 0x9
 2508 1b9a 54525545 		.ascii "TRUE True\0"
 2508      20547275 
 2508      6500
 2509 1ba4 01       		.byte	0x1
 2510 1ba5 0A       		.uleb128 0xa
 2511 1ba6 41636365 		.ascii "Accepted 1\0"
 2511      70746564 
 2511      203100
 2512 1bb1 01       		.byte	0x1
 2513 1bb2 0B       		.uleb128 0xb
 2514 1bb3 52656A65 		.ascii "Rejected 0\0"
 2514      63746564 
 2514      203000
 2515 1bbe 01       		.byte	0x1
 2516 1bbf 0C       		.uleb128 0xc
 2517 1bc0 4C6F6361 		.ascii "Local static\0"
 2517      6C207374 
 2517      61746963 
 2517      00
 2518 1bcd 01       		.byte	0x1
 2519 1bce 0D       		.uleb128 0xd
 2520 1bcf 4C6F6361 		.ascii "Local_inline static __inline__\0"
 2520      6C5F696E 
 2520      6C696E65 
 2520      20737461 
 2520      74696320 
 2521 1bee 01       		.byte	0x1
 2522 1bef 0E       		.uleb128 0xe
 2523 1bf0 476C6F62 		.ascii "Global_inline __inline__\0"
 2523      616C5F69 
 2523      6E6C696E 
 2523      65205F5F 
 2523      696E6C69 
 2524 1c09 01       		.byte	0x1
 2525 1c0a 0F       		.uleb128 0xf
 2526 1c0b 52656665 		.ascii "ReferenceUnusedParameter(x) ((x) = (x))\0"
 2526      72656E63 
 2526      65556E75 
 2526      73656450 
 2526      6172616D 
 2527 1c33 01       		.byte	0x1
 2528 1c34 10       		.uleb128 0x10
 2529 1c35 44796E61 		.ascii "DynamicMemoryUsed False\0"
 2529      6D69634D 
 2529      656D6F72 
 2529      79557365 
 2529      64204661 
 2530 1c4d 01       		.byte	0x1
 2531 1c4e 13       		.uleb128 0x13
 2532 1c4f 634D4355 		.ascii "cMCU_X86 3\0"
GAS LISTING C:\Users\PRESID~1\AppData\Local\Temp\ccSmxUIj.s 			page 70


 2532      5F583836 
 2532      203300
 2533 1c5a 01       		.byte	0x1
 2534 1c5b 14       		.uleb128 0x14
 2535 1c5c 634D4355 		.ascii "cMCU_CORTEX_M4 4\0"
 2535      5F434F52 
 2535      5445585F 
 2535      4D342034 
 2535      00
 2536 1c6d 01       		.byte	0x1
 2537 1c6e 17       		.uleb128 0x17
 2538 1c6f 4E525F4F 		.ascii "NR_OF_CORES 1\0"
 2538      465F434F 
 2538      52455320 
 2538      3100
 2539 1c7d 01       		.byte	0x1
 2540 1c7e 19       		.uleb128 0x19
 2541 1c7f 4D43555F 		.ascii "MCU_CLOCK_IN_HZ ((uint32)168000000u)\0"
 2541      434C4F43 
 2541      4B5F494E 
 2541      5F485A20 
 2541      28287569 
 2542 1ca4 01       		.byte	0x1
 2543 1ca5 1D       		.uleb128 0x1d
 2544 1ca6 44697361 		.ascii "DisableInterrupts() \0"
 2544      626C6549 
 2544      6E746572 
 2544      72757074 
 2544      73282920 
 2545 1cbb 01       		.byte	0x1
 2546 1cbc 1E       		.uleb128 0x1e
 2547 1cbd 456E6162 		.ascii "EnableInterrupts() \0"
 2547      6C65496E 
 2547      74657272 
 2547      75707473 
 2547      28292000 
 2548 1cd1 01       		.byte	0x1
 2549 1cd2 1F       		.uleb128 0x1f
 2550 1cd3 50726976 		.ascii "Privilige_level_save_current() \0"
 2550      696C6967 
 2550      655F6C65 
 2550      76656C5F 
 2550      73617665 
 2551 1cf3 01       		.byte	0x1
 2552 1cf4 20       		.uleb128 0x20
 2553 1cf5 50726976 		.ascii "Privilige_level_enter_kernel_mode() \0"
 2553      696C6967 
 2553      655F6C65 
 2553      76656C5F 
 2553      656E7465 
 2554 1d1a 01       		.byte	0x1
 2555 1d1b 21       		.uleb128 0x21
 2556 1d1c 50726976 		.ascii "Privilige_level_restore_saved() \0"
 2556      696C6967 
 2556      655F6C65 
 2556      76656C5F 
 2556      72657374 
GAS LISTING C:\Users\PRESID~1\AppData\Local\Temp\ccSmxUIj.s 			page 71


 2557 1d3d 01       		.byte	0x1
 2558 1d3e 22       		.uleb128 0x22
 2559 1d3f 48616C74 		.ascii "HaltMcu() \0"
 2559      4D637528 
 2559      292000
 2560 1d4a 01       		.byte	0x1
 2561 1d4b 58       		.uleb128 0x58
 2562 1d4c 42696749 		.ascii "BigIntSize 16\0"
 2562      6E745369 
 2562      7A652031 
 2562      3600
 2563 1d5a 04       		.byte	0x4
 2564              		.file 7 "E:/NeuOrga/Programmieren/c_cpp/github_os/input/src/os_base/../os_sim/lld_global.h"
 2565 1d5b 03       		.byte	0x3
 2566 1d5c 08       		.uleb128 0x8
 2567 1d5d 07       		.uleb128 0x7
 2568 1d5e 01       		.byte	0x1
 2569 1d5f 02       		.uleb128 0x2
 2570 1d60 5F6C6C64 		.ascii "_lld_global_h_ \0"
 2570      5F676C6F 
 2570      62616C5F 
 2570      685F2000 
 2571              		.file 8 "E:/NeuOrga/Programmieren/c_cpp/github_os/input/src/os_base/../os_sim/lld_core.h"
 2572 1d70 03       		.byte	0x3
 2573 1d71 04       		.uleb128 0x4
 2574 1d72 08       		.uleb128 0x8
 2575 1d73 01       		.byte	0x1
 2576 1d74 02       		.uleb128 0x2
 2577 1d75 5F6C6C64 		.ascii "_lld_core_h_ \0"
 2577      5F636F72 
 2577      655F685F 
 2577      2000
 2578              		.file 9 "E:/NeuOrga/Programmieren/c_cpp/github_os/input/src/os_base/../os_sim/../os_base/os_firsti
 2579 1d83 03       		.byte	0x3
 2580 1d84 03       		.uleb128 0x3
 2581 1d85 09       		.uleb128 0x9
 2582 1d86 04       		.byte	0x4
 2583 1d87 04       		.byte	0x4
 2584              		.file 10 "E:/NeuOrga/Programmieren/c_cpp/github_os/input/src/os_base/../os_sim/lld_interrupt.h"
 2585 1d88 03       		.byte	0x3
 2586 1d89 05       		.uleb128 0x5
 2587 1d8a 0A       		.uleb128 0xa
 2588 1d8b 01       		.byte	0x1
 2589 1d8c 02       		.uleb128 0x2
 2590 1d8d 5F6C6C64 		.ascii "_lld_interrupt_h_ \0"
 2590      5F696E74 
 2590      65727275 
 2590      70745F68 
 2590      5F2000
 2591 1da0 01       		.byte	0x1
 2592 1da1 05       		.uleb128 0x5
 2593 1da2 6F735F69 		.ascii "os_interrupt_swi_1 asm(\"swi 1\")\0"
 2593      6E746572 
 2593      72757074 
 2593      5F737769 
 2593      5F312061 
 2594 1dc2 01       		.byte	0x1
GAS LISTING C:\Users\PRESID~1\AppData\Local\Temp\ccSmxUIj.s 			page 72


 2595 1dc3 06       		.uleb128 0x6
 2596 1dc4 6F735F69 		.ascii "os_interrupt_swi_2 asm(\"swi 2\")\0"
 2596      6E746572 
 2596      72757074 
 2596      5F737769 
 2596      5F322061 
 2597 1de4 01       		.byte	0x1
 2598 1de5 07       		.uleb128 0x7
 2599 1de6 6F735F69 		.ascii "os_interrupt_swi_3 asm(\"swi 3\")\0"
 2599      6E746572 
 2599      72757074 
 2599      5F737769 
 2599      5F332061 
 2600 1e06 01       		.byte	0x1
 2601 1e07 08       		.uleb128 0x8
 2602 1e08 6F735F69 		.ascii "os_interrupt_swi_4 asm(\"swi 4\")\0"
 2602      6E746572 
 2602      72757074 
 2602      5F737769 
 2602      5F342061 
 2603 1e28 01       		.byte	0x1
 2604 1e29 09       		.uleb128 0x9
 2605 1e2a 6F735F69 		.ascii "os_interrupt_swi_5 asm(\"swi 5\")\0"
 2605      6E746572 
 2605      72757074 
 2605      5F737769 
 2605      5F352061 
 2606 1e4a 04       		.byte	0x4
 2607              		.file 11 "E:/NeuOrga/Programmieren/c_cpp/github_os/input/src/os_base/../os_sim/lld_mmu.h"
 2608 1e4b 03       		.byte	0x3
 2609 1e4c 06       		.uleb128 0x6
 2610 1e4d 0B       		.uleb128 0xb
 2611 1e4e 01       		.byte	0x1
 2612 1e4f 02       		.uleb128 0x2
 2613 1e50 5F6C6C64 		.ascii "_lld_mmu_h_ \0"
 2613      5F6D6D75 
 2613      5F685F20 
 2613      00
 2614 1e5d 04       		.byte	0x4
 2615              		.file 12 "E:/NeuOrga/Programmieren/c_cpp/github_os/input/src/os_base/../os_sim/lld_timer.h"
 2616 1e5e 03       		.byte	0x3
 2617 1e5f 07       		.uleb128 0x7
 2618 1e60 0C       		.uleb128 0xc
 2619 1e61 01       		.byte	0x1
 2620 1e62 02       		.uleb128 0x2
 2621 1e63 5F6C6C64 		.ascii "_lld_timer_h_ \0"
 2621      5F74696D 
 2621      65725F68 
 2621      5F2000
 2622 1e72 04       		.byte	0x4
 2623              		.file 13 "E:/NeuOrga/Programmieren/c_cpp/github_os/input/src/os_base/../os_sim/lld_power.h"
 2624 1e73 03       		.byte	0x3
 2625 1e74 08       		.uleb128 0x8
 2626 1e75 0D       		.uleb128 0xd
 2627 1e76 01       		.byte	0x1
 2628 1e77 02       		.uleb128 0x2
 2629 1e78 5F6C6C64 		.ascii "_lld_power_h_ \0"
GAS LISTING C:\Users\PRESID~1\AppData\Local\Temp\ccSmxUIj.s 			page 73


 2629      5F706F77 
 2629      65725F68 
 2629      5F2000
 2630 1e87 04       		.byte	0x4
 2631              		.file 14 "E:/NeuOrga/Programmieren/c_cpp/github_os/input/src/os_base/../os_sim/lld_ram.h"
 2632 1e88 03       		.byte	0x3
 2633 1e89 09       		.uleb128 0x9
 2634 1e8a 0E       		.uleb128 0xe
 2635 1e8b 01       		.byte	0x1
 2636 1e8c 02       		.uleb128 0x2
 2637 1e8d 5F6C6C64 		.ascii "_lld_ram_h_ \0"
 2637      5F72616D 
 2637      5F685F20 
 2637      00
 2638 1e9a 04       		.byte	0x4
 2639 1e9b 03       		.byte	0x3
 2640 1e9c 0A       		.uleb128 0xa
 2641 1e9d 04       		.uleb128 0x4
 2642 1e9e 01       		.byte	0x1
 2643 1e9f 02       		.uleb128 0x2
 2644 1ea0 5F6F735F 		.ascii "_os_task_common_h_ \0"
 2644      7461736B 
 2644      5F636F6D 
 2644      6D6F6E5F 
 2644      685F2000 
 2645 1eb4 03       		.byte	0x3
 2646 1eb5 03       		.uleb128 0x3
 2647 1eb6 09       		.uleb128 0x9
 2648 1eb7 04       		.byte	0x4
 2649              		.file 15 "E:/NeuOrga/Programmieren/c_cpp/github_os/input/src/os_base/../os_sim/../os_base/os_task_
 2650 1eb8 03       		.byte	0x3
 2651 1eb9 04       		.uleb128 0x4
 2652 1eba 0F       		.uleb128 0xf
 2653 1ebb 01       		.byte	0x1
 2654 1ebc 02       		.uleb128 0x2
 2655 1ebd 5F6F735F 		.ascii "_os_task_config_h_ \0"
 2655      7461736B 
 2655      5F636F6E 
 2655      6669675F 
 2655      685F2000 
 2656 1ed1 01       		.byte	0x1
 2657 1ed2 05       		.uleb128 0x5
 2658 1ed3 53636865 		.ascii "SchedulerFrequency (1.0e3)\0"
 2658      64756C65 
 2658      72467265 
 2658      7175656E 
 2658      63792028 
 2659 1eee 01       		.byte	0x1
 2660 1eef 06       		.uleb128 0x6
 2661 1ef0 4D696E54 		.ascii "MinTimeSlice_s (1.0/SchedulerFrequency)\0"
 2661      696D6553 
 2661      6C696365 
 2661      5F732028 
 2661      312E302F 
 2662 1f18 01       		.byte	0x1
 2663 1f19 07       		.uleb128 0x7
 2664 1f1a 4D696E54 		.ascii "MinTimeSlice_us ((1.0/SchedulerFrequency)*1e6)\0"
GAS LISTING C:\Users\PRESID~1\AppData\Local\Temp\ccSmxUIj.s 			page 74


 2664      696D6553 
 2664      6C696365 
 2664      5F757320 
 2664      2828312E 
 2665 1f49 01       		.byte	0x1
 2666 1f4a 08       		.uleb128 0x8
 2667 1f4b 5461736B 		.ascii "Task_min_time (1e0)\0"
 2667      5F6D696E 
 2667      5F74696D 
 2667      65202831 
 2667      65302900 
 2668 1f5f 01       		.byte	0x1
 2669 1f60 09       		.uleb128 0x9
 2670 1f61 4E554D42 		.ascii "NUMBER_OF_TASKS 10\0"
 2670      45525F4F 
 2670      465F5441 
 2670      534B5320 
 2670      313000
 2671 1f74 01       		.byte	0x1
 2672 1f75 0A       		.uleb128 0xa
 2673 1f76 4D41585F 		.ascii "MAX_RUN_QUEUE_SIZE (NUMBER_OF_TASKS)\0"
 2673      52554E5F 
 2673      51554555 
 2673      455F5349 
 2673      5A452028 
 2674 1f9b 01       		.byte	0x1
 2675 1f9c 0B       		.uleb128 0xb
 2676 1f9d 4D41585F 		.ascii "MAX_RUN_PQUEUE_SIZE MAX_RUN_QUEUE_SIZE\0"
 2676      52554E5F 
 2676      50515545 
 2676      55455F53 
 2676      495A4520 
 2677 1fc4 01       		.byte	0x1
 2678 1fc5 0D       		.uleb128 0xd
 2679 1fc6 5441534B 		.ascii "TASK_STACK_SIZE 2000\0"
 2679      5F535441 
 2679      434B5F53 
 2679      495A4520 
 2679      32303030 
 2680 1fdb 01       		.byte	0x1
 2681 1fdc 10       		.uleb128 0x10
 2682 1fdd 4D535F50 		.ascii "MS_PER_SEC (1000)\0"
 2682      45525F53 
 2682      45432028 
 2682      31303030 
 2682      2900
 2683 1fef 01       		.byte	0x1
 2684 1ff0 11       		.uleb128 0x11
 2685 1ff1 5553455F 		.ascii "USE_STATIC_CREATED_TASKS True\0"
 2685      53544154 
 2685      49435F43 
 2685      52454154 
 2685      45445F54 
 2686 200f 04       		.byte	0x4
 2687              		.file 16 "E:/NeuOrga/Programmieren/c_cpp/github_os/input/src/os_base/../os_sim/../os_base/os_init_
 2688 2010 03       		.byte	0x3
 2689 2011 05       		.uleb128 0x5
GAS LISTING C:\Users\PRESID~1\AppData\Local\Temp\ccSmxUIj.s 			page 75


 2690 2012 10       		.uleb128 0x10
 2691 2013 01       		.byte	0x1
 2692 2014 02       		.uleb128 0x2
 2693 2015 5F6F735F 		.ascii "_os_init_task_system_h_ \0"
 2693      696E6974 
 2693      5F746173 
 2693      6B5F7379 
 2693      7374656D 
 2694 202e 04       		.byte	0x4
 2695 202f 01       		.byte	0x1
 2696 2030 61       		.uleb128 0x61
 2697 2031 6F735F53 		.ascii "os_SaveTaskPtr(task_ptr,task_name) (TASK_PTR[(task_name)] = (task_ptr))\0"
 2697      61766554 
 2697      61736B50 
 2697      74722874 
 2697      61736B5F 
 2698 2079 01       		.byte	0x1
 2699 207a 62       		.uleb128 0x62
 2700 207b 6F735F47 		.ascii "os_GetTaskPtr(task_name) ((task_t*) TASK_PTR[(task_name)])\0"
 2700      65745461 
 2700      736B5074 
 2700      72287461 
 2700      736B5F6E 
 2701 20b6 04       		.byte	0x4
 2702 20b7 04       		.byte	0x4
 2703              		.file 17 "E:/NeuOrga/Programmieren/c_cpp/github_os/input/src/os_base/../os_user_code/led.h"
 2704 20b8 03       		.byte	0x3
 2705 20b9 0C       		.uleb128 0xc
 2706 20ba 11       		.uleb128 0x11
 2707 20bb 01       		.byte	0x1
 2708 20bc 02       		.uleb128 0x2
 2709 20bd 5F4C4544 		.ascii "_LED_H_ \0"
 2709      5F485F20 
 2709      00
 2710 20c6 04       		.byte	0x4
 2711 20c7 03       		.byte	0x3
 2712 20c8 0E       		.uleb128 0xe
 2713 20c9 05       		.uleb128 0x5
 2714 20ca 01       		.byte	0x1
 2715 20cb 02       		.uleb128 0x2
 2716 20cc 5F4F535F 		.ascii "_OS_RAM_H_ \0"
 2716      52414D5F 
 2716      485F2000 
 2717              		.file 18 "E:/NeuOrga/Programmieren/c_cpp/github_os/input/src/os_base/../os_base/os_firstinc.h"
 2718 20d8 03       		.byte	0x3
 2719 20d9 04       		.uleb128 0x4
 2720 20da 12       		.uleb128 0x12
 2721 20db 04       		.byte	0x4
 2722              		.file 19 "E:/NeuOrga/Programmieren/c_cpp/github_os/input/src/os_base/../os_base/os_stack.h"
 2723 20dc 03       		.byte	0x3
 2724 20dd 05       		.uleb128 0x5
 2725 20de 13       		.uleb128 0x13
 2726 20df 01       		.byte	0x1
 2727 20e0 02       		.uleb128 0x2
 2728 20e1 5F6F735F 		.ascii "_os_stack_h_ \0"
 2728      73746163 
 2728      6B5F685F 
GAS LISTING C:\Users\PRESID~1\AppData\Local\Temp\ccSmxUIj.s 			page 76


 2728      2000
 2729 20ef 01       		.byte	0x1
 2730 20f0 04       		.uleb128 0x4
 2731 20f1 4F535F53 		.ascii "OS_STACK_SIZE 0x200u\0"
 2731      5441434B 
 2731      5F53495A 
 2731      45203078 
 2731      32303075 
 2732 2106 04       		.byte	0x4
 2733              		.file 20 "E:/NeuOrga/Programmieren/c_cpp/github_os/input/src/os_base/../os_base/os_heap.h"
 2734 2107 03       		.byte	0x3
 2735 2108 06       		.uleb128 0x6
 2736 2109 14       		.uleb128 0x14
 2737 210a 01       		.byte	0x1
 2738 210b 02       		.uleb128 0x2
 2739 210c 5F6F735F 		.ascii "_os_heap_h_ \0"
 2739      68656170 
 2739      5F685F20 
 2739      00
 2740 2119 01       		.byte	0x1
 2741 211a 05       		.uleb128 0x5
 2742 211b 48454150 		.ascii "HEAP_SIZE 10000\0"
 2742      5F53495A 
 2742      45203130 
 2742      30303000 
 2743 212b 01       		.byte	0x1
 2744 212c 06       		.uleb128 0x6
 2745 212d 4D494E5F 		.ascii "MIN_BLOCK_SIZE_HEAP 8\0"
 2745      424C4F43 
 2745      4B5F5349 
 2745      5A455F48 
 2745      45415020 
 2746 2143 01       		.byte	0x1
 2747 2144 09       		.uleb128 0x9
 2748 2145 48454150 		.ascii "HEAP_OFFSET_FOR_SIZE 0\0"
 2748      5F4F4646 
 2748      5345545F 
 2748      464F525F 
 2748      53495A45 
 2749 215c 01       		.byte	0x1
 2750 215d 0A       		.uleb128 0xa
 2751 215e 48454150 		.ascii "HEAP_OFFSET_FOR_USED_SIZE 4\0"
 2751      5F4F4646 
 2751      5345545F 
 2751      464F525F 
 2751      55534544 
 2752 217a 01       		.byte	0x1
 2753 217b 0B       		.uleb128 0xb
 2754 217c 48454150 		.ascii "HEAP_OFFSET_FOR_CHUNK 8\0"
 2754      5F4F4646 
 2754      5345545F 
 2754      464F525F 
 2754      4348554E 
 2755 2194 04       		.byte	0x4
 2756              		.file 21 "E:/NeuOrga/Programmieren/c_cpp/github_os/input/src/os_base/../os_base/os_main.h"
 2757 2195 03       		.byte	0x3
 2758 2196 07       		.uleb128 0x7
GAS LISTING C:\Users\PRESID~1\AppData\Local\Temp\ccSmxUIj.s 			page 77


 2759 2197 15       		.uleb128 0x15
 2760 2198 01       		.byte	0x1
 2761 2199 02       		.uleb128 0x2
 2762 219a 5F6F735F 		.ascii "_os_main_h_ \0"
 2762      6D61696E 
 2762      5F685F20 
 2762      00
 2763 21a7 01       		.byte	0x1
 2764 21a8 03       		.uleb128 0x3
 2765 21a9 6F735F69 		.ascii "os_init 0\0"
 2765      6E697420 
 2765      3000
 2766 21b3 01       		.byte	0x1
 2767 21b4 04       		.uleb128 0x4
 2768 21b5 6F735F72 		.ascii "os_running 1\0"
 2768      756E6E69 
 2768      6E672031 
 2768      00
 2769 21c2 01       		.byte	0x1
 2770 21c3 05       		.uleb128 0x5
 2771 21c4 6F735F73 		.ascii "os_shutdown 2\0"
 2771      68757464 
 2771      6F776E20 
 2771      3200
 2772 21d2 04       		.byte	0x4
 2773              		.file 22 "E:/NeuOrga/Programmieren/c_cpp/github_os/input/src/os_base/../os_base/os_task_config.h"
 2774 21d3 03       		.byte	0x3
 2775 21d4 08       		.uleb128 0x8
 2776 21d5 16       		.uleb128 0x16
 2777 21d6 04       		.byte	0x4
 2778              		.file 23 "E:/NeuOrga/Programmieren/c_cpp/github_os/input/src/os_base/../os_base/os_task_common.h"
 2779 21d7 03       		.byte	0x3
 2780 21d8 09       		.uleb128 0x9
 2781 21d9 17       		.uleb128 0x17
 2782 21da 04       		.byte	0x4
 2783 21db 04       		.byte	0x4
 2784 21dc 04       		.byte	0x4
 2785              		.file 24 "E:/NeuOrga/Programmieren/c_cpp/github_os/input/src/os_base/os_task_common.h"
 2786 21dd 03       		.byte	0x3
 2787 21de 02       		.uleb128 0x2
 2788 21df 18       		.uleb128 0x18
 2789 21e0 04       		.byte	0x4
 2790 21e1 01       		.byte	0x1
 2791 21e2 08       		.uleb128 0x8
 2792 21e3 4457545F 		.ascii "DWT_CTRL ((volatile uint32*)0xE0001000)\0"
 2792      4354524C 
 2792      20282876 
 2792      6F6C6174 
 2792      696C6520 
 2793 220b 01       		.byte	0x1
 2794 220c 09       		.uleb128 0x9
 2795 220d 4457545F 		.ascii "DWT_CYCCNT ((volatile uint32*)0xE0001004)\0"
 2795      43594343 
 2795      4E542028 
 2795      28766F6C 
 2795      6174696C 
 2796 2237 01       		.byte	0x1
GAS LISTING C:\Users\PRESID~1\AppData\Local\Temp\ccSmxUIj.s 			page 78


 2797 2238 0B       		.uleb128 0xb
 2798 2239 4457545F 		.ascii "DWT_LAR ((volatile uint32*)0xE0001FB0)\0"
 2798      4C415220 
 2798      2828766F 
 2798      6C617469 
 2798      6C652075 
 2799 2260 01       		.byte	0x1
 2800 2261 0C       		.uleb128 0xc
 2801 2262 5343425F 		.ascii "SCB_DEMCR ((volatile uint32*)0xE000EDFC)\0"
 2801      44454D43 
 2801      52202828 
 2801      766F6C61 
 2801      74696C65 
 2802 228b 04       		.byte	0x4
 2803 228c 00       		.byte	0
 2804              		.section	.debug_line,"dr"
 2805              	Ldebug_line0:
 2806 0000 3B040000 		.section	.debug_str,"dr"
 2806      0200FB02 
 2806      00000101 
 2806      FB0E0D00 
 2806      01010101 
 2807              	LASF1:
 2808 0000 4F706572 		.ascii "Operand2\0"
 2808      616E6432 
 2808      00
 2809              	LASF3:
 2810 0009 6C656674 		.ascii "leftOperand\0"
 2810      4F706572 
 2810      616E6400 
 2811              	LASF4:
 2812 0015 72696768 		.ascii "rightOperand\0"
 2812      744F7065 
 2812      72616E64 
 2812      00
 2813              	LASF0:
 2814 0022 4F706572 		.ascii "Operand1\0"
 2814      616E6431 
 2814      00
 2815              	LASF2:
 2816 002b 49734772 		.ascii "IsGreater\0"
 2816      65617465 
 2816      7200
 2817              		.ident	"GCC: (GNU) 4.9.3"
GAS LISTING C:\Users\PRESID~1\AppData\Local\Temp\ccSmxUIj.s 			page 79


DEFINED SYMBOLS
                            *ABS*:00000000 os_common.c
C:\Users\PRESID~1\AppData\Local\Temp\ccSmxUIj.s:6      .text:00000000 _OS_SetSwBug
C:\Users\PRESID~1\AppData\Local\Temp\ccSmxUIj.s:27     .bss:00000000 _GLOBAL_TIMER1
C:\Users\PRESID~1\AppData\Local\Temp\ccSmxUIj.s:30     .text:00000012 _OS_GetCurrentTime
C:\Users\PRESID~1\AppData\Local\Temp\ccSmxUIj.s:54     .text:0000002d _OS_ResetCurrentTime
C:\Users\PRESID~1\AppData\Local\Temp\ccSmxUIj.s:94     .text:0000007c _IntAdd
C:\Users\PRESID~1\AppData\Local\Temp\ccSmxUIj.s:152    .text:000000dc _IntSub
C:\Users\PRESID~1\AppData\Local\Temp\ccSmxUIj.s:252    .text:000001ba _IsLess
C:\Users\PRESID~1\AppData\Local\Temp\ccSmxUIj.s:316    .text:00000218 _IsLessOrEqual
C:\Users\PRESID~1\AppData\Local\Temp\ccSmxUIj.s:359    .text:00000258 _IsEqual
C:\Users\PRESID~1\AppData\Local\Temp\ccSmxUIj.s:409    .text:00000298 _IsGreater
C:\Users\PRESID~1\AppData\Local\Temp\ccSmxUIj.s:473    .text:000002f6 _IsGreaterOrEqual
C:\Users\PRESID~1\AppData\Local\Temp\ccSmxUIj.s:516    .text:00000336 _Assign
C:\Users\PRESID~1\AppData\Local\Temp\ccSmxUIj.s:554    .text:00000365 _AssignNull
C:\Users\PRESID~1\AppData\Local\Temp\ccSmxUIj.s:589    .text:0000038b _AssignUint32

UNDEFINED SYMBOLS
_OS_SW_BUG
