E:\NeuOrga\Programmieren\c_cpp\github_os\input\src\os_base\os_common.c: In function 'IsLess':
E:\NeuOrga\Programmieren\c_cpp\github_os\input\src\os_base\os_common.c:144:4: warning: return makes integer from pointer without a cast
    return IsEqual;   
    ^
E:\NeuOrga\Programmieren\c_cpp\github_os\input\src\os_base\os_common.c: In function 'IsGreater':
E:\NeuOrga\Programmieren\c_cpp\github_os\input\src\os_base\os_common.c:189:4: warning: return makes integer from pointer without a cast
    return IsEqual;
    ^
GAS LISTING C:\Users\PRESID~1\AppData\Local\Temp\ccLOX7Wh.s 			page 1


   1              		.file	"os_common.c"
   2              		.text
   3              	Ltext0:
   4              		.globl	_OS_SetSwBug
   6              	_OS_SetSwBug:
   7              	LFB0:
   8              		.file 1 "E:/NeuOrga/Programmieren/c_cpp/github_os/input/src/os_base/os_common.c"
   1:E:/NeuOrga/Programmieren/c_cpp/github_os/input/src/os_base\os_common.c **** #include "os_firstinc.h"
   2:E:/NeuOrga/Programmieren/c_cpp/github_os/input/src/os_base\os_common.c **** #include "os_task_common.h"
   3:E:/NeuOrga/Programmieren/c_cpp/github_os/input/src/os_base\os_common.c **** 
   4:E:/NeuOrga/Programmieren/c_cpp/github_os/input/src/os_base\os_common.c **** void OS_SetSwBug(os_sw_bugs_t bug_nr, os_sw_bugs_function_t task_func_nr)
   5:E:/NeuOrga/Programmieren/c_cpp/github_os/input/src/os_base\os_common.c **** {
   9              		.loc 1 5 0
  10              		.cfi_startproc
  11 0000 55       		pushl	%ebp
  12              		.cfi_def_cfa_offset 8
  13              		.cfi_offset 5, -8
  14 0001 89E5     		movl	%esp, %ebp
  15              		.cfi_def_cfa_register 5
   6:E:/NeuOrga/Programmieren/c_cpp/github_os/input/src/os_base\os_common.c ****    OS_SW_BUG[task_func_nr] = bug_nr;
  16              		.loc 1 6 0
  17 0003 8B450C   		movl	12(%ebp), %eax
  18 0006 8B5508   		movl	8(%ebp), %edx
  19 0009 89148500 		movl	%edx, _OS_SW_BUG(,%eax,4)
  19      000000
   7:E:/NeuOrga/Programmieren/c_cpp/github_os/input/src/os_base\os_common.c **** }
  20              		.loc 1 7 0
  21 0010 5D       		popl	%ebp
  22              		.cfi_restore 5
  23              		.cfi_def_cfa 4, 4
  24 0011 C3       		ret
  25              		.cfi_endproc
  26              	LFE0:
  27              		.globl	_OS_GetCurrentTime
  29              	_OS_GetCurrentTime:
  30              	LFB1:
   8:E:/NeuOrga/Programmieren/c_cpp/github_os/input/src/os_base\os_common.c **** #define DWT_CTRL   ((volatile uint32*)0xE0001000)
   9:E:/NeuOrga/Programmieren/c_cpp/github_os/input/src/os_base\os_common.c **** #define DWT_CYCCNT ((volatile uint32*)0xE0001004)
  10:E:/NeuOrga/Programmieren/c_cpp/github_os/input/src/os_base\os_common.c **** 
  11:E:/NeuOrga/Programmieren/c_cpp/github_os/input/src/os_base\os_common.c **** #define DWT_LAR     ((volatile uint32*)0xE0001FB0)
  12:E:/NeuOrga/Programmieren/c_cpp/github_os/input/src/os_base\os_common.c **** #define SCB_DEMCR   ((volatile uint32*)0xE000EDFC)
  13:E:/NeuOrga/Programmieren/c_cpp/github_os/input/src/os_base\os_common.c **** 
  14:E:/NeuOrga/Programmieren/c_cpp/github_os/input/src/os_base\os_common.c **** 
  15:E:/NeuOrga/Programmieren/c_cpp/github_os/input/src/os_base\os_common.c **** unsigned_int32_t OS_GetCurrentTime(void)
  16:E:/NeuOrga/Programmieren/c_cpp/github_os/input/src/os_base\os_common.c **** {
  31              		.loc 1 16 0
  32              		.cfi_startproc
  33 0012 55       		pushl	%ebp
  34              		.cfi_def_cfa_offset 8
  35              		.cfi_offset 5, -8
  36 0013 89E5     		movl	%esp, %ebp
  37              		.cfi_def_cfa_register 5
  17:E:/NeuOrga/Programmieren/c_cpp/github_os/input/src/os_base\os_common.c ****    /* the only free running counter on STM32F4 is the DWT counter DWT_CYCCNT
  18:E:/NeuOrga/Programmieren/c_cpp/github_os/input/src/os_base\os_common.c ****    The counter will overflow every 25sec -> provide function OS_ClearCurrentTime to reset the value
  19:E:/NeuOrga/Programmieren/c_cpp/github_os/input/src/os_base\os_common.c ****    */
  20:E:/NeuOrga/Programmieren/c_cpp/github_os/input/src/os_base\os_common.c ****    return *DWT_CYCCNT;
  38              		.loc 1 20 0
GAS LISTING C:\Users\PRESID~1\AppData\Local\Temp\ccLOX7Wh.s 			page 2


  39 0015 B8041000 		movl	$-536866812, %eax
  39      E0
  40 001a 8B00     		movl	(%eax), %eax
  21:E:/NeuOrga/Programmieren/c_cpp/github_os/input/src/os_base\os_common.c **** }
  41              		.loc 1 21 0
  42 001c 5D       		popl	%ebp
  43              		.cfi_restore 5
  44              		.cfi_def_cfa 4, 4
  45 001d C3       		ret
  46              		.cfi_endproc
  47              	LFE1:
  48              		.globl	_OS_ResetCurrentTime
  50              	_OS_ResetCurrentTime:
  51              	LFB2:
  22:E:/NeuOrga/Programmieren/c_cpp/github_os/input/src/os_base\os_common.c **** 
  23:E:/NeuOrga/Programmieren/c_cpp/github_os/input/src/os_base\os_common.c **** void OS_ResetCurrentTime(void)
  24:E:/NeuOrga/Programmieren/c_cpp/github_os/input/src/os_base\os_common.c **** {
  52              		.loc 1 24 0
  53              		.cfi_startproc
  54 001e 55       		pushl	%ebp
  55              		.cfi_def_cfa_offset 8
  56              		.cfi_offset 5, -8
  57 001f 89E5     		movl	%esp, %ebp
  58              		.cfi_def_cfa_register 5
  25:E:/NeuOrga/Programmieren/c_cpp/github_os/input/src/os_base\os_common.c ****    /* unlock the CoreSight (CM4) */
  26:E:/NeuOrga/Programmieren/c_cpp/github_os/input/src/os_base\os_common.c ****    *DWT_LAR = 0xC5ACCE55; 
  59              		.loc 1 26 0
  60 0021 B8B01F00 		movl	$-536862800, %eax
  60      E0
  61 0026 C70055CE 		movl	$-978530731, (%eax)
  61      ACC5
  27:E:/NeuOrga/Programmieren/c_cpp/github_os/input/src/os_base\os_common.c ****    
  28:E:/NeuOrga/Programmieren/c_cpp/github_os/input/src/os_base\os_common.c ****    /* enable trace/debug block TRCENA */
  29:E:/NeuOrga/Programmieren/c_cpp/github_os/input/src/os_base\os_common.c ****    *SCB_DEMCR |= 0x01000000; 
  62              		.loc 1 29 0
  63 002c B8FCED00 		movl	$-536809988, %eax
  63      E0
  64 0031 BAFCED00 		movl	$-536809988, %edx
  64      E0
  65 0036 8B12     		movl	(%edx), %edx
  66 0038 81CA0000 		orl	$16777216, %edx
  66      0001
  67 003e 8910     		movl	%edx, (%eax)
  30:E:/NeuOrga/Programmieren/c_cpp/github_os/input/src/os_base\os_common.c ****    
  31:E:/NeuOrga/Programmieren/c_cpp/github_os/input/src/os_base\os_common.c ****    /* reset the counter to 0 cycle */
  32:E:/NeuOrga/Programmieren/c_cpp/github_os/input/src/os_base\os_common.c ****    *DWT_CYCCNT = 0;
  68              		.loc 1 32 0
  69 0040 B8041000 		movl	$-536866812, %eax
  69      E0
  70 0045 C7000000 		movl	$0, (%eax)
  70      0000
  33:E:/NeuOrga/Programmieren/c_cpp/github_os/input/src/os_base\os_common.c ****    
  34:E:/NeuOrga/Programmieren/c_cpp/github_os/input/src/os_base\os_common.c ****    /* enable the counter */   
  35:E:/NeuOrga/Programmieren/c_cpp/github_os/input/src/os_base\os_common.c ****    *DWT_CTRL |= 1; 
  71              		.loc 1 35 0
  72 004b B8001000 		movl	$-536866816, %eax
  72      E0
GAS LISTING C:\Users\PRESID~1\AppData\Local\Temp\ccLOX7Wh.s 			page 3


  73 0050 BA001000 		movl	$-536866816, %edx
  73      E0
  74 0055 8B12     		movl	(%edx), %edx
  75 0057 83CA01   		orl	$1, %edx
  76 005a 8910     		movl	%edx, (%eax)
  36:E:/NeuOrga/Programmieren/c_cpp/github_os/input/src/os_base\os_common.c **** }
  77              		.loc 1 36 0
  78 005c 5D       		popl	%ebp
  79              		.cfi_restore 5
  80              		.cfi_def_cfa 4, 4
  81 005d C3       		ret
  82              		.cfi_endproc
  83              	LFE2:
  84              		.globl	_IntAdd
  86              	_IntAdd:
  87              	LFB3:
  37:E:/NeuOrga/Programmieren/c_cpp/github_os/input/src/os_base\os_common.c **** 
  38:E:/NeuOrga/Programmieren/c_cpp/github_os/input/src/os_base\os_common.c **** 
  39:E:/NeuOrga/Programmieren/c_cpp/github_os/input/src/os_base\os_common.c **** 
  40:E:/NeuOrga/Programmieren/c_cpp/github_os/input/src/os_base\os_common.c **** void IntAdd(BigInt* Summe, BigInt* ErsterSummand, BigInt* ZweiterSummand)
  41:E:/NeuOrga/Programmieren/c_cpp/github_os/input/src/os_base\os_common.c **** {
  88              		.loc 1 41 0
  89              		.cfi_startproc
  90 005e 55       		pushl	%ebp
  91              		.cfi_def_cfa_offset 8
  92              		.cfi_offset 5, -8
  93 005f 89E5     		movl	%esp, %ebp
  94              		.cfi_def_cfa_register 5
  95 0061 83EC10   		subl	$16, %esp
  42:E:/NeuOrga/Programmieren/c_cpp/github_os/input/src/os_base\os_common.c ****    sint8 pos;
  43:E:/NeuOrga/Programmieren/c_cpp/github_os/input/src/os_base\os_common.c ****    uint16 carry  = 0;
  96              		.loc 1 43 0
  97 0064 66C745FC 		movw	$0, -4(%ebp)
  97      0000
  44:E:/NeuOrga/Programmieren/c_cpp/github_os/input/src/os_base\os_common.c **** 
  45:E:/NeuOrga/Programmieren/c_cpp/github_os/input/src/os_base\os_common.c ****    for(pos = BigIntSize-1; pos >= 0; pos--)
  98              		.loc 1 45 0
  99 006a C645FF0F 		movb	$15, -1(%ebp)
 100 006e EB46     		jmp	L6
 101              	L7:
 102              	LBB2:
  46:E:/NeuOrga/Programmieren/c_cpp/github_os/input/src/os_base\os_common.c ****    {
  47:E:/NeuOrga/Programmieren/c_cpp/github_os/input/src/os_base\os_common.c ****       uint16 tmpSum = (uint16)ErsterSummand->Number[pos] +(uint16)ZweiterSummand->Number[pos] + car
 103              		.loc 1 47 0 discriminator 3
 104 0070 0FBE45FF 		movsbl	-1(%ebp), %eax
 105 0074 8B550C   		movl	12(%ebp), %edx
 106 0077 8A0402   		movb	(%edx,%eax), %al
 107 007a 0FB6D0   		movzbl	%al, %edx
 108 007d 0FBE45FF 		movsbl	-1(%ebp), %eax
 109 0081 8B4D10   		movl	16(%ebp), %ecx
 110 0084 8A0401   		movb	(%ecx,%eax), %al
 111 0087 0FB6C0   		movzbl	%al, %eax
 112 008a 01C2     		addl	%eax, %edx
 113 008c 8B45FC   		movl	-4(%ebp), %eax
 114 008f 01D0     		addl	%edx, %eax
 115 0091 668945FA 		movw	%ax, -6(%ebp)
  48:E:/NeuOrga/Programmieren/c_cpp/github_os/input/src/os_base\os_common.c ****       Summe->Number[pos] = tmpSum & 0xFFu;
GAS LISTING C:\Users\PRESID~1\AppData\Local\Temp\ccLOX7Wh.s 			page 4


 116              		.loc 1 48 0 discriminator 3
 117 0095 0FBE55FF 		movsbl	-1(%ebp), %edx
 118 0099 668B45FA 		movw	-6(%ebp), %ax
 119 009d 88C1     		movb	%al, %cl
 120 009f 8B4508   		movl	8(%ebp), %eax
 121 00a2 880C10   		movb	%cl, (%eax,%edx)
  49:E:/NeuOrga/Programmieren/c_cpp/github_os/input/src/os_base\os_common.c ****       carry = tmpSum & 0xFF00u;      
 122              		.loc 1 49 0 discriminator 3
 123 00a5 668B45FA 		movw	-6(%ebp), %ax
 124 00a9 B000     		movb	$0, %al
 125 00ab 668945FC 		movw	%ax, -4(%ebp)
 126              	LBE2:
  45:E:/NeuOrga/Programmieren/c_cpp/github_os/input/src/os_base\os_common.c ****    {
 127              		.loc 1 45 0 discriminator 3
 128 00af 8A45FF   		movb	-1(%ebp), %al
 129 00b2 48       		decl	%eax
 130 00b3 8845FF   		movb	%al, -1(%ebp)
 131              	L6:
  45:E:/NeuOrga/Programmieren/c_cpp/github_os/input/src/os_base\os_common.c ****    {
 132              		.loc 1 45 0 is_stmt 0 discriminator 1
 133 00b6 807DFF00 		cmpb	$0, -1(%ebp)
 134 00ba 79B4     		jns	L7
  50:E:/NeuOrga/Programmieren/c_cpp/github_os/input/src/os_base\os_common.c ****    }   
  51:E:/NeuOrga/Programmieren/c_cpp/github_os/input/src/os_base\os_common.c **** }
 135              		.loc 1 51 0 is_stmt 1
 136 00bc C9       		leave
 137              		.cfi_restore 5
 138              		.cfi_def_cfa 4, 4
 139 00bd C3       		ret
 140              		.cfi_endproc
 141              	LFE3:
 142              		.globl	_IntSub
 144              	_IntSub:
 145              	LFB4:
  52:E:/NeuOrga/Programmieren/c_cpp/github_os/input/src/os_base\os_common.c **** void IntSub(BigInt* Differenz, BigInt* Minuend, BigInt* Subtrahend)
  53:E:/NeuOrga/Programmieren/c_cpp/github_os/input/src/os_base\os_common.c **** {
 146              		.loc 1 53 0
 147              		.cfi_startproc
 148 00be 55       		pushl	%ebp
 149              		.cfi_def_cfa_offset 8
 150              		.cfi_offset 5, -8
 151 00bf 89E5     		movl	%esp, %ebp
 152              		.cfi_def_cfa_register 5
 153 00c1 83EC10   		subl	$16, %esp
  54:E:/NeuOrga/Programmieren/c_cpp/github_os/input/src/os_base\os_common.c ****    sint8 pos;
  55:E:/NeuOrga/Programmieren/c_cpp/github_os/input/src/os_base\os_common.c ****    uint16 carry  = 0;
 154              		.loc 1 55 0
 155 00c4 66C745FC 		movw	$0, -4(%ebp)
 155      0000
  56:E:/NeuOrga/Programmieren/c_cpp/github_os/input/src/os_base\os_common.c ****    
  57:E:/NeuOrga/Programmieren/c_cpp/github_os/input/src/os_base\os_common.c ****    for(pos = BigIntSize-1; pos >= 0; pos--)
 156              		.loc 1 57 0
 157 00ca C645FF0F 		movb	$15, -1(%ebp)
 158 00ce E9A60000 		jmp	L9
 158      00
 159              	L12:
 160              	LBB3:
GAS LISTING C:\Users\PRESID~1\AppData\Local\Temp\ccLOX7Wh.s 			page 5


  58:E:/NeuOrga/Programmieren/c_cpp/github_os/input/src/os_base\os_common.c ****    {
  59:E:/NeuOrga/Programmieren/c_cpp/github_os/input/src/os_base\os_common.c ****       uint16 tmpDiff;
  60:E:/NeuOrga/Programmieren/c_cpp/github_os/input/src/os_base\os_common.c ****       if(Minuend->Number[pos]  >= (Subtrahend->Number[pos] + carry))
 161              		.loc 1 60 0
 162 00d3 0FBE45FF 		movsbl	-1(%ebp), %eax
 163 00d7 8B550C   		movl	12(%ebp), %edx
 164 00da 8A0402   		movb	(%edx,%eax), %al
 165 00dd 0FB6C8   		movzbl	%al, %ecx
 166 00e0 0FBE45FF 		movsbl	-1(%ebp), %eax
 167 00e4 8B5510   		movl	16(%ebp), %edx
 168 00e7 8A0402   		movb	(%edx,%eax), %al
 169 00ea 0FB6D0   		movzbl	%al, %edx
 170 00ed 0FB745FC 		movzwl	-4(%ebp), %eax
 171 00f1 01D0     		addl	%edx, %eax
 172 00f3 39C1     		cmpl	%eax, %ecx
 173 00f5 7C27     		jl	L10
  61:E:/NeuOrga/Programmieren/c_cpp/github_os/input/src/os_base\os_common.c ****       {
  62:E:/NeuOrga/Programmieren/c_cpp/github_os/input/src/os_base\os_common.c ****          tmpDiff = (uint16)Minuend->Number[pos] - (uint16)Subtrahend->Number[pos] - carry;   
 174              		.loc 1 62 0
 175 00f7 0FBE45FF 		movsbl	-1(%ebp), %eax
 176 00fb 8B550C   		movl	12(%ebp), %edx
 177 00fe 8A0402   		movb	(%edx,%eax), %al
 178 0101 0FB6D0   		movzbl	%al, %edx
 179 0104 0FBE45FF 		movsbl	-1(%ebp), %eax
 180 0108 8B4D10   		movl	16(%ebp), %ecx
 181 010b 8A0401   		movb	(%ecx,%eax), %al
 182 010e 0FB6C0   		movzbl	%al, %eax
 183 0111 29C2     		subl	%eax, %edx
 184 0113 89D0     		movl	%edx, %eax
 185 0115 2B45FC   		subl	-4(%ebp), %eax
 186 0118 668945FA 		movw	%ax, -6(%ebp)
 187 011c EB54     		jmp	L11
 188              	L10:
  63:E:/NeuOrga/Programmieren/c_cpp/github_os/input/src/os_base\os_common.c ****       }
  64:E:/NeuOrga/Programmieren/c_cpp/github_os/input/src/os_base\os_common.c ****       else if((Minuend->Number[pos]+0x100)  >= (Subtrahend->Number[pos] + carry))
 189              		.loc 1 64 0
 190 011e 0FBE45FF 		movsbl	-1(%ebp), %eax
 191 0122 8B550C   		movl	12(%ebp), %edx
 192 0125 8A0402   		movb	(%edx,%eax), %al
 193 0128 0FB6C0   		movzbl	%al, %eax
 194 012b 8D880001 		leal	256(%eax), %ecx
 194      0000
 195 0131 0FBE45FF 		movsbl	-1(%ebp), %eax
 196 0135 8B5510   		movl	16(%ebp), %edx
 197 0138 8A0402   		movb	(%edx,%eax), %al
 198 013b 0FB6D0   		movzbl	%al, %edx
 199 013e 0FB745FC 		movzwl	-4(%ebp), %eax
 200 0142 01D0     		addl	%edx, %eax
 201 0144 39C1     		cmpl	%eax, %ecx
 202 0146 7C2A     		jl	L11
  65:E:/NeuOrga/Programmieren/c_cpp/github_os/input/src/os_base\os_common.c ****       {
  66:E:/NeuOrga/Programmieren/c_cpp/github_os/input/src/os_base\os_common.c ****          tmpDiff = 0x100+(uint16)Minuend->Number[pos] - (uint16)Subtrahend->Number[pos] - (uint16)c
 203              		.loc 1 66 0
 204 0148 0FBE45FF 		movsbl	-1(%ebp), %eax
 205 014c 8B550C   		movl	12(%ebp), %edx
 206 014f 8A0402   		movb	(%edx,%eax), %al
 207 0152 0FB6D0   		movzbl	%al, %edx
GAS LISTING C:\Users\PRESID~1\AppData\Local\Temp\ccLOX7Wh.s 			page 6


 208 0155 0FBE45FF 		movsbl	-1(%ebp), %eax
 209 0159 8B4D10   		movl	16(%ebp), %ecx
 210 015c 8A0401   		movb	(%ecx,%eax), %al
 211 015f 0FB6C0   		movzbl	%al, %eax
 212 0162 29C2     		subl	%eax, %edx
 213 0164 89D0     		movl	%edx, %eax
 214 0166 2B45FC   		subl	-4(%ebp), %eax
 215 0169 05000100 		addl	$256, %eax
 215      00
 216 016e 668945FA 		movw	%ax, -6(%ebp)
 217              	L11:
 218              	LBE3:
  57:E:/NeuOrga/Programmieren/c_cpp/github_os/input/src/os_base\os_common.c ****    {
 219              		.loc 1 57 0 discriminator 2
 220 0172 8A45FF   		movb	-1(%ebp), %al
 221 0175 48       		decl	%eax
 222 0176 8845FF   		movb	%al, -1(%ebp)
 223              	L9:
  57:E:/NeuOrga/Programmieren/c_cpp/github_os/input/src/os_base\os_common.c ****    {
 224              		.loc 1 57 0 is_stmt 0 discriminator 1
 225 0179 807DFF00 		cmpb	$0, -1(%ebp)
 226 017d 0F8950FF 		jns	L12
 226      FFFF
  67:E:/NeuOrga/Programmieren/c_cpp/github_os/input/src/os_base\os_common.c ****       }
  68:E:/NeuOrga/Programmieren/c_cpp/github_os/input/src/os_base\os_common.c ****       else      
  69:E:/NeuOrga/Programmieren/c_cpp/github_os/input/src/os_base\os_common.c ****       {
  70:E:/NeuOrga/Programmieren/c_cpp/github_os/input/src/os_base\os_common.c ****          /* not possible */
  71:E:/NeuOrga/Programmieren/c_cpp/github_os/input/src/os_base\os_common.c ****       }   
  72:E:/NeuOrga/Programmieren/c_cpp/github_os/input/src/os_base\os_common.c ****    }      
  73:E:/NeuOrga/Programmieren/c_cpp/github_os/input/src/os_base\os_common.c **** }
 227              		.loc 1 73 0 is_stmt 1
 228 0183 C9       		leave
 229              		.cfi_restore 5
 230              		.cfi_def_cfa 4, 4
 231 0184 C3       		ret
 232              		.cfi_endproc
 233              	LFE4:
 234              		.globl	_IsLess
 236              	_IsLess:
 237              	LFB5:
  74:E:/NeuOrga/Programmieren/c_cpp/github_os/input/src/os_base\os_common.c **** #if(0)
  75:E:/NeuOrga/Programmieren/c_cpp/github_os/input/src/os_base\os_common.c **** void IntMul(BigInt* Produkt, BigInt* Faktor1, BigInt* Faktor2)
  76:E:/NeuOrga/Programmieren/c_cpp/github_os/input/src/os_base\os_common.c **** {
  77:E:/NeuOrga/Programmieren/c_cpp/github_os/input/src/os_base\os_common.c ****    BigInt tmpBigInt;
  78:E:/NeuOrga/Programmieren/c_cpp/github_os/input/src/os_base\os_common.c ****    uint8 i1, i2;
  79:E:/NeuOrga/Programmieren/c_cpp/github_os/input/src/os_base\os_common.c ****    /* clear output */
  80:E:/NeuOrga/Programmieren/c_cpp/github_os/input/src/os_base\os_common.c ****    AssignNull(Produkt);
  81:E:/NeuOrga/Programmieren/c_cpp/github_os/input/src/os_base\os_common.c ****    
  82:E:/NeuOrga/Programmieren/c_cpp/github_os/input/src/os_base\os_common.c ****    for(i1 = 0; i1 < BigIntSize; i1++)
  83:E:/NeuOrga/Programmieren/c_cpp/github_os/input/src/os_base\os_common.c ****    {
  84:E:/NeuOrga/Programmieren/c_cpp/github_os/input/src/os_base\os_common.c ****       for(i2 = 0; i2 < BigIntSize; i2++)
  85:E:/NeuOrga/Programmieren/c_cpp/github_os/input/src/os_base\os_common.c ****       {         
  86:E:/NeuOrga/Programmieren/c_cpp/github_os/input/src/os_base\os_common.c ****          tmpProdukt = (uint16)Faktor1->Number[i1] * (uint16)Faktor2->Number[i2];      
  87:E:/NeuOrga/Programmieren/c_cpp/github_os/input/src/os_base\os_common.c ****          tmpShift = i1+i2;
  88:E:/NeuOrga/Programmieren/c_cpp/github_os/input/src/os_base\os_common.c ****          
  89:E:/NeuOrga/Programmieren/c_cpp/github_os/input/src/os_base\os_common.c ****          /* store the number in an temporary BigInt variable ...*/
  90:E:/NeuOrga/Programmieren/c_cpp/github_os/input/src/os_base\os_common.c ****          tmpBigInt->Number[BigIntSize-1] = tmpProdukt & 0xFFu;
GAS LISTING C:\Users\PRESID~1\AppData\Local\Temp\ccLOX7Wh.s 			page 7


  91:E:/NeuOrga/Programmieren/c_cpp/github_os/input/src/os_base\os_common.c ****          tmpBigInt->Number[BigIntSize-2] = (tmpProdukt & 0x100u)>>8;
  92:E:/NeuOrga/Programmieren/c_cpp/github_os/input/src/os_base\os_common.c ****          /* add tmpBigInt to Produkt*/
  93:E:/NeuOrga/Programmieren/c_cpp/github_os/input/src/os_base\os_common.c ****          IntAdd(Produkt, Produkt, tmpBigInt);         
  94:E:/NeuOrga/Programmieren/c_cpp/github_os/input/src/os_base\os_common.c ****          /*TODO*/   
  95:E:/NeuOrga/Programmieren/c_cpp/github_os/input/src/os_base\os_common.c ****       }   
  96:E:/NeuOrga/Programmieren/c_cpp/github_os/input/src/os_base\os_common.c ****    }   
  97:E:/NeuOrga/Programmieren/c_cpp/github_os/input/src/os_base\os_common.c ****    
  98:E:/NeuOrga/Programmieren/c_cpp/github_os/input/src/os_base\os_common.c **** }
  99:E:/NeuOrga/Programmieren/c_cpp/github_os/input/src/os_base\os_common.c **** void IntDiv(BigInt* Quotient, BigInt* Dividend, BigInt* Divisor)
 100:E:/NeuOrga/Programmieren/c_cpp/github_os/input/src/os_base\os_common.c **** {
 101:E:/NeuOrga/Programmieren/c_cpp/github_os/input/src/os_base\os_common.c ****    BigInt tmpBigInt;
 102:E:/NeuOrga/Programmieren/c_cpp/github_os/input/src/os_base\os_common.c ****    uint8 i1, i2;
 103:E:/NeuOrga/Programmieren/c_cpp/github_os/input/src/os_base\os_common.c ****    /* clear output */
 104:E:/NeuOrga/Programmieren/c_cpp/github_os/input/src/os_base\os_common.c ****    AssignNull(Quotient);
 105:E:/NeuOrga/Programmieren/c_cpp/github_os/input/src/os_base\os_common.c ****    
 106:E:/NeuOrga/Programmieren/c_cpp/github_os/input/src/os_base\os_common.c ****    for(i1 = 0; i1 < BigIntSize; i1++)
 107:E:/NeuOrga/Programmieren/c_cpp/github_os/input/src/os_base\os_common.c ****    {
 108:E:/NeuOrga/Programmieren/c_cpp/github_os/input/src/os_base\os_common.c ****       for(i2 = 0; i2 < BigIntSize; i2++)
 109:E:/NeuOrga/Programmieren/c_cpp/github_os/input/src/os_base\os_common.c ****       {         
 110:E:/NeuOrga/Programmieren/c_cpp/github_os/input/src/os_base\os_common.c ****          tmpQuotient = (uint16)Dividend->Number[i1] / (uint16)Divisor->Number[i2];      
 111:E:/NeuOrga/Programmieren/c_cpp/github_os/input/src/os_base\os_common.c ****          tmpShift = i1+i2;
 112:E:/NeuOrga/Programmieren/c_cpp/github_os/input/src/os_base\os_common.c ****          
 113:E:/NeuOrga/Programmieren/c_cpp/github_os/input/src/os_base\os_common.c ****          /* store the number in an temporary BigInt variable ...*/
 114:E:/NeuOrga/Programmieren/c_cpp/github_os/input/src/os_base\os_common.c ****          tmpBigInt->Number[BigIntSize-1] = tmpQuotient & 0xFFu;
 115:E:/NeuOrga/Programmieren/c_cpp/github_os/input/src/os_base\os_common.c ****          tmpBigInt->Number[BigIntSize-2] = (tmpQuotient & 0x100u)>>8;
 116:E:/NeuOrga/Programmieren/c_cpp/github_os/input/src/os_base\os_common.c ****          /* add tmpBigInt to Quotient*/
 117:E:/NeuOrga/Programmieren/c_cpp/github_os/input/src/os_base\os_common.c ****          IntAdd(Quotient, Quotient, tmpBigInt);       
 118:E:/NeuOrga/Programmieren/c_cpp/github_os/input/src/os_base\os_common.c ****          /*TODO*/            
 119:E:/NeuOrga/Programmieren/c_cpp/github_os/input/src/os_base\os_common.c ****       }   
 120:E:/NeuOrga/Programmieren/c_cpp/github_os/input/src/os_base\os_common.c ****    }          
 121:E:/NeuOrga/Programmieren/c_cpp/github_os/input/src/os_base\os_common.c **** }
 122:E:/NeuOrga/Programmieren/c_cpp/github_os/input/src/os_base\os_common.c **** #endif
 123:E:/NeuOrga/Programmieren/c_cpp/github_os/input/src/os_base\os_common.c **** boolean_t IsLess(BigInt* Operand1, BigInt* Operand2)
 124:E:/NeuOrga/Programmieren/c_cpp/github_os/input/src/os_base\os_common.c **** {
 238              		.loc 1 124 0
 239              		.cfi_startproc
 240 0185 55       		pushl	%ebp
 241              		.cfi_def_cfa_offset 8
 242              		.cfi_offset 5, -8
 243 0186 89E5     		movl	%esp, %ebp
 244              		.cfi_def_cfa_register 5
 245 0188 83EC10   		subl	$16, %esp
 125:E:/NeuOrga/Programmieren/c_cpp/github_os/input/src/os_base\os_common.c ****    uint8 pos;
 126:E:/NeuOrga/Programmieren/c_cpp/github_os/input/src/os_base\os_common.c ****    boolean_t IsLess = False;/* in case no if was entered, the numbers are equal -> return False */
 246              		.loc 1 126 0
 247 018b C645FE00 		movb	$0, -2(%ebp)
 127:E:/NeuOrga/Programmieren/c_cpp/github_os/input/src/os_base\os_common.c ****    for(pos = 0; pos < BigIntSize; pos++)
 248              		.loc 1 127 0
 249 018f C645FF00 		movb	$0, -1(%ebp)
 250 0193 EB43     		jmp	L14
 251              	L18:
 128:E:/NeuOrga/Programmieren/c_cpp/github_os/input/src/os_base\os_common.c ****    {
 129:E:/NeuOrga/Programmieren/c_cpp/github_os/input/src/os_base\os_common.c ****       if(Operand1->Number[pos] < Operand2->Number[pos])
 252              		.loc 1 129 0
 253 0195 0FB645FF 		movzbl	-1(%ebp), %eax
 254 0199 8B5508   		movl	8(%ebp), %edx
 255 019c 8A0C02   		movb	(%edx,%eax), %cl
GAS LISTING C:\Users\PRESID~1\AppData\Local\Temp\ccLOX7Wh.s 			page 8


 256 019f 0FB645FF 		movzbl	-1(%ebp), %eax
 257 01a3 8B550C   		movl	12(%ebp), %edx
 258 01a6 8A0402   		movb	(%edx,%eax), %al
 259 01a9 38C1     		cmpb	%al, %cl
 260 01ab 7306     		jnb	L15
 130:E:/NeuOrga/Programmieren/c_cpp/github_os/input/src/os_base\os_common.c ****       {
 131:E:/NeuOrga/Programmieren/c_cpp/github_os/input/src/os_base\os_common.c ****          IsLess = True;
 261              		.loc 1 131 0
 262 01ad C645FE01 		movb	$1, -2(%ebp)
 132:E:/NeuOrga/Programmieren/c_cpp/github_os/input/src/os_base\os_common.c ****          break;
 263              		.loc 1 132 0
 264 01b1 EB2B     		jmp	L16
 265              	L15:
 133:E:/NeuOrga/Programmieren/c_cpp/github_os/input/src/os_base\os_common.c ****       }
 134:E:/NeuOrga/Programmieren/c_cpp/github_os/input/src/os_base\os_common.c ****       else if (Operand1->Number[pos] > Operand2->Number[pos])
 266              		.loc 1 134 0
 267 01b3 0FB645FF 		movzbl	-1(%ebp), %eax
 268 01b7 8B5508   		movl	8(%ebp), %edx
 269 01ba 8A0C02   		movb	(%edx,%eax), %cl
 270 01bd 0FB645FF 		movzbl	-1(%ebp), %eax
 271 01c1 8B550C   		movl	12(%ebp), %edx
 272 01c4 8A0402   		movb	(%edx,%eax), %al
 273 01c7 38C1     		cmpb	%al, %cl
 274 01c9 7606     		jbe	L17
 135:E:/NeuOrga/Programmieren/c_cpp/github_os/input/src/os_base\os_common.c ****       {
 136:E:/NeuOrga/Programmieren/c_cpp/github_os/input/src/os_base\os_common.c ****          IsLess = False;
 275              		.loc 1 136 0
 276 01cb C645FE00 		movb	$0, -2(%ebp)
 137:E:/NeuOrga/Programmieren/c_cpp/github_os/input/src/os_base\os_common.c ****          break;
 277              		.loc 1 137 0
 278 01cf EB0D     		jmp	L16
 279              	L17:
 127:E:/NeuOrga/Programmieren/c_cpp/github_os/input/src/os_base\os_common.c ****    {
 280              		.loc 1 127 0 discriminator 2
 281 01d1 8A45FF   		movb	-1(%ebp), %al
 282 01d4 40       		incl	%eax
 283 01d5 8845FF   		movb	%al, -1(%ebp)
 284              	L14:
 127:E:/NeuOrga/Programmieren/c_cpp/github_os/input/src/os_base\os_common.c ****    {
 285              		.loc 1 127 0 is_stmt 0 discriminator 1
 286 01d8 807DFF0F 		cmpb	$15, -1(%ebp)
 287 01dc 76B7     		jbe	L18
 288              	L16:
 138:E:/NeuOrga/Programmieren/c_cpp/github_os/input/src/os_base\os_common.c ****       }
 139:E:/NeuOrga/Programmieren/c_cpp/github_os/input/src/os_base\os_common.c ****       else
 140:E:/NeuOrga/Programmieren/c_cpp/github_os/input/src/os_base\os_common.c ****       {
 141:E:/NeuOrga/Programmieren/c_cpp/github_os/input/src/os_base\os_common.c ****          /* don't break, but continue with next position */
 142:E:/NeuOrga/Programmieren/c_cpp/github_os/input/src/os_base\os_common.c ****       }        
 143:E:/NeuOrga/Programmieren/c_cpp/github_os/input/src/os_base\os_common.c ****    }  
 144:E:/NeuOrga/Programmieren/c_cpp/github_os/input/src/os_base\os_common.c ****    return IsEqual;   
 289              		.loc 1 144 0 is_stmt 1
 290 01de B8250200 		movl	$_IsEqual, %eax
 290      00
 145:E:/NeuOrga/Programmieren/c_cpp/github_os/input/src/os_base\os_common.c **** }
 291              		.loc 1 145 0
 292 01e3 C9       		leave
 293              		.cfi_restore 5
GAS LISTING C:\Users\PRESID~1\AppData\Local\Temp\ccLOX7Wh.s 			page 9


 294              		.cfi_def_cfa 4, 4
 295 01e4 C3       		ret
 296              		.cfi_endproc
 297              	LFE5:
 298              		.globl	_IsLessOrEqual
 300              	_IsLessOrEqual:
 301              	LFB6:
 146:E:/NeuOrga/Programmieren/c_cpp/github_os/input/src/os_base\os_common.c **** boolean_t IsLessOrEqual(BigInt* Operand1, BigInt* Operand2)
 147:E:/NeuOrga/Programmieren/c_cpp/github_os/input/src/os_base\os_common.c **** {
 302              		.loc 1 147 0
 303              		.cfi_startproc
 304 01e5 55       		pushl	%ebp
 305              		.cfi_def_cfa_offset 8
 306              		.cfi_offset 5, -8
 307 01e6 89E5     		movl	%esp, %ebp
 308              		.cfi_def_cfa_register 5
 309 01e8 83EC18   		subl	$24, %esp
 148:E:/NeuOrga/Programmieren/c_cpp/github_os/input/src/os_base\os_common.c ****    return IsLess(Operand1,Operand2) || IsEqual(Operand1,Operand2);   
 310              		.loc 1 148 0
 311 01eb 8B450C   		movl	12(%ebp), %eax
 312 01ee 89442404 		movl	%eax, 4(%esp)
 313 01f2 8B4508   		movl	8(%ebp), %eax
 314 01f5 890424   		movl	%eax, (%esp)
 315 01f8 E888FFFF 		call	_IsLess
 315      FF
 316 01fd 84C0     		testb	%al, %al
 317 01ff 7516     		jne	L21
 318              		.loc 1 148 0 is_stmt 0 discriminator 2
 319 0201 8B450C   		movl	12(%ebp), %eax
 320 0204 89442404 		movl	%eax, 4(%esp)
 321 0208 8B4508   		movl	8(%ebp), %eax
 322 020b 890424   		movl	%eax, (%esp)
 323 020e E8120000 		call	_IsEqual
 323      00
 324 0213 84C0     		testb	%al, %al
 325 0215 7407     		je	L22
 326              	L21:
 327              		.loc 1 148 0 discriminator 3
 328 0217 B8010000 		movl	$1, %eax
 328      00
 329 021c EB05     		jmp	L23
 330              	L22:
 331              		.loc 1 148 0 discriminator 4
 332 021e B8000000 		movl	$0, %eax
 332      00
 333              	L23:
 149:E:/NeuOrga/Programmieren/c_cpp/github_os/input/src/os_base\os_common.c **** }
 334              		.loc 1 149 0 is_stmt 1 discriminator 6
 335 0223 C9       		leave
 336              		.cfi_restore 5
 337              		.cfi_def_cfa 4, 4
 338 0224 C3       		ret
 339              		.cfi_endproc
 340              	LFE6:
 341              		.globl	_IsEqual
 343              	_IsEqual:
 344              	LFB7:
GAS LISTING C:\Users\PRESID~1\AppData\Local\Temp\ccLOX7Wh.s 			page 10


 150:E:/NeuOrga/Programmieren/c_cpp/github_os/input/src/os_base\os_common.c **** boolean_t IsEqual(BigInt* Operand1, BigInt* Operand2)
 151:E:/NeuOrga/Programmieren/c_cpp/github_os/input/src/os_base\os_common.c **** {
 345              		.loc 1 151 0
 346              		.cfi_startproc
 347 0225 55       		pushl	%ebp
 348              		.cfi_def_cfa_offset 8
 349              		.cfi_offset 5, -8
 350 0226 89E5     		movl	%esp, %ebp
 351              		.cfi_def_cfa_register 5
 352 0228 83EC10   		subl	$16, %esp
 152:E:/NeuOrga/Programmieren/c_cpp/github_os/input/src/os_base\os_common.c ****    uint8 pos;
 153:E:/NeuOrga/Programmieren/c_cpp/github_os/input/src/os_base\os_common.c ****    boolean_t IsEqual = True;/* in case no if/elseif) was entered, the numbers are equal -> return T
 353              		.loc 1 153 0
 354 022b C645FE01 		movb	$1, -2(%ebp)
 154:E:/NeuOrga/Programmieren/c_cpp/github_os/input/src/os_base\os_common.c ****    for(pos = 0; pos < BigIntSize; pos++)
 355              		.loc 1 154 0
 356 022f C645FF00 		movb	$0, -1(%ebp)
 357 0233 EB25     		jmp	L26
 358              	L29:
 155:E:/NeuOrga/Programmieren/c_cpp/github_os/input/src/os_base\os_common.c ****    {
 156:E:/NeuOrga/Programmieren/c_cpp/github_os/input/src/os_base\os_common.c ****       if(Operand1->Number[pos] != Operand2->Number[pos])
 359              		.loc 1 156 0
 360 0235 0FB645FF 		movzbl	-1(%ebp), %eax
 361 0239 8B5508   		movl	8(%ebp), %edx
 362 023c 8A0C02   		movb	(%edx,%eax), %cl
 363 023f 0FB645FF 		movzbl	-1(%ebp), %eax
 364 0243 8B550C   		movl	12(%ebp), %edx
 365 0246 8A0402   		movb	(%edx,%eax), %al
 366 0249 38C1     		cmpb	%al, %cl
 367 024b 7406     		je	L27
 157:E:/NeuOrga/Programmieren/c_cpp/github_os/input/src/os_base\os_common.c ****       {
 158:E:/NeuOrga/Programmieren/c_cpp/github_os/input/src/os_base\os_common.c ****          IsEqual = False;
 368              		.loc 1 158 0
 369 024d C645FE00 		movb	$0, -2(%ebp)
 159:E:/NeuOrga/Programmieren/c_cpp/github_os/input/src/os_base\os_common.c ****          break;
 370              		.loc 1 159 0
 371 0251 EB0D     		jmp	L28
 372              	L27:
 154:E:/NeuOrga/Programmieren/c_cpp/github_os/input/src/os_base\os_common.c ****    {
 373              		.loc 1 154 0 discriminator 2
 374 0253 8A45FF   		movb	-1(%ebp), %al
 375 0256 40       		incl	%eax
 376 0257 8845FF   		movb	%al, -1(%ebp)
 377              	L26:
 154:E:/NeuOrga/Programmieren/c_cpp/github_os/input/src/os_base\os_common.c ****    {
 378              		.loc 1 154 0 is_stmt 0 discriminator 1
 379 025a 807DFF0F 		cmpb	$15, -1(%ebp)
 380 025e 76D5     		jbe	L29
 381              	L28:
 160:E:/NeuOrga/Programmieren/c_cpp/github_os/input/src/os_base\os_common.c ****       }
 161:E:/NeuOrga/Programmieren/c_cpp/github_os/input/src/os_base\os_common.c ****       else
 162:E:/NeuOrga/Programmieren/c_cpp/github_os/input/src/os_base\os_common.c ****       {
 163:E:/NeuOrga/Programmieren/c_cpp/github_os/input/src/os_base\os_common.c ****          /* don't break, but continue with next position */
 164:E:/NeuOrga/Programmieren/c_cpp/github_os/input/src/os_base\os_common.c ****       }        
 165:E:/NeuOrga/Programmieren/c_cpp/github_os/input/src/os_base\os_common.c ****    }
 166:E:/NeuOrga/Programmieren/c_cpp/github_os/input/src/os_base\os_common.c ****    return IsEqual;   
 382              		.loc 1 166 0 is_stmt 1
GAS LISTING C:\Users\PRESID~1\AppData\Local\Temp\ccLOX7Wh.s 			page 11


 383 0260 8A45FE   		movb	-2(%ebp), %al
 167:E:/NeuOrga/Programmieren/c_cpp/github_os/input/src/os_base\os_common.c **** }
 384              		.loc 1 167 0
 385 0263 C9       		leave
 386              		.cfi_restore 5
 387              		.cfi_def_cfa 4, 4
 388 0264 C3       		ret
 389              		.cfi_endproc
 390              	LFE7:
 391              		.globl	_IsGreater
 393              	_IsGreater:
 394              	LFB8:
 168:E:/NeuOrga/Programmieren/c_cpp/github_os/input/src/os_base\os_common.c **** boolean_t IsGreater(BigInt* Operand1, BigInt* Operand2)
 169:E:/NeuOrga/Programmieren/c_cpp/github_os/input/src/os_base\os_common.c **** {
 395              		.loc 1 169 0
 396              		.cfi_startproc
 397 0265 55       		pushl	%ebp
 398              		.cfi_def_cfa_offset 8
 399              		.cfi_offset 5, -8
 400 0266 89E5     		movl	%esp, %ebp
 401              		.cfi_def_cfa_register 5
 402 0268 83EC10   		subl	$16, %esp
 170:E:/NeuOrga/Programmieren/c_cpp/github_os/input/src/os_base\os_common.c ****    uint8 pos;
 171:E:/NeuOrga/Programmieren/c_cpp/github_os/input/src/os_base\os_common.c ****    boolean_t IsLess = False;/* in case no if was entered, the numbers are equal -> return False */
 403              		.loc 1 171 0
 404 026b C645FE00 		movb	$0, -2(%ebp)
 172:E:/NeuOrga/Programmieren/c_cpp/github_os/input/src/os_base\os_common.c ****    for(pos = 0; pos < BigIntSize; pos++)
 405              		.loc 1 172 0
 406 026f C645FF00 		movb	$0, -1(%ebp)
 407 0273 EB43     		jmp	L32
 408              	L36:
 173:E:/NeuOrga/Programmieren/c_cpp/github_os/input/src/os_base\os_common.c ****    {
 174:E:/NeuOrga/Programmieren/c_cpp/github_os/input/src/os_base\os_common.c ****       if(Operand1->Number[pos] < Operand2->Number[pos])
 409              		.loc 1 174 0
 410 0275 0FB645FF 		movzbl	-1(%ebp), %eax
 411 0279 8B5508   		movl	8(%ebp), %edx
 412 027c 8A0C02   		movb	(%edx,%eax), %cl
 413 027f 0FB645FF 		movzbl	-1(%ebp), %eax
 414 0283 8B550C   		movl	12(%ebp), %edx
 415 0286 8A0402   		movb	(%edx,%eax), %al
 416 0289 38C1     		cmpb	%al, %cl
 417 028b 7306     		jnb	L33
 175:E:/NeuOrga/Programmieren/c_cpp/github_os/input/src/os_base\os_common.c ****       {
 176:E:/NeuOrga/Programmieren/c_cpp/github_os/input/src/os_base\os_common.c ****          IsLess = True;
 418              		.loc 1 176 0
 419 028d C645FE01 		movb	$1, -2(%ebp)
 177:E:/NeuOrga/Programmieren/c_cpp/github_os/input/src/os_base\os_common.c ****          break;
 420              		.loc 1 177 0
 421 0291 EB2B     		jmp	L34
 422              	L33:
 178:E:/NeuOrga/Programmieren/c_cpp/github_os/input/src/os_base\os_common.c ****       }
 179:E:/NeuOrga/Programmieren/c_cpp/github_os/input/src/os_base\os_common.c ****       else if (Operand1->Number[pos] > Operand2->Number[pos])
 423              		.loc 1 179 0
 424 0293 0FB645FF 		movzbl	-1(%ebp), %eax
 425 0297 8B5508   		movl	8(%ebp), %edx
 426 029a 8A0C02   		movb	(%edx,%eax), %cl
 427 029d 0FB645FF 		movzbl	-1(%ebp), %eax
GAS LISTING C:\Users\PRESID~1\AppData\Local\Temp\ccLOX7Wh.s 			page 12


 428 02a1 8B550C   		movl	12(%ebp), %edx
 429 02a4 8A0402   		movb	(%edx,%eax), %al
 430 02a7 38C1     		cmpb	%al, %cl
 431 02a9 7606     		jbe	L35
 180:E:/NeuOrga/Programmieren/c_cpp/github_os/input/src/os_base\os_common.c ****       {
 181:E:/NeuOrga/Programmieren/c_cpp/github_os/input/src/os_base\os_common.c ****          IsLess = False;
 432              		.loc 1 181 0
 433 02ab C645FE00 		movb	$0, -2(%ebp)
 182:E:/NeuOrga/Programmieren/c_cpp/github_os/input/src/os_base\os_common.c ****          break;
 434              		.loc 1 182 0
 435 02af EB0D     		jmp	L34
 436              	L35:
 172:E:/NeuOrga/Programmieren/c_cpp/github_os/input/src/os_base\os_common.c ****    {
 437              		.loc 1 172 0 discriminator 2
 438 02b1 8A45FF   		movb	-1(%ebp), %al
 439 02b4 40       		incl	%eax
 440 02b5 8845FF   		movb	%al, -1(%ebp)
 441              	L32:
 172:E:/NeuOrga/Programmieren/c_cpp/github_os/input/src/os_base\os_common.c ****    {
 442              		.loc 1 172 0 is_stmt 0 discriminator 1
 443 02b8 807DFF0F 		cmpb	$15, -1(%ebp)
 444 02bc 76B7     		jbe	L36
 445              	L34:
 183:E:/NeuOrga/Programmieren/c_cpp/github_os/input/src/os_base\os_common.c ****       }
 184:E:/NeuOrga/Programmieren/c_cpp/github_os/input/src/os_base\os_common.c ****       else
 185:E:/NeuOrga/Programmieren/c_cpp/github_os/input/src/os_base\os_common.c ****       {
 186:E:/NeuOrga/Programmieren/c_cpp/github_os/input/src/os_base\os_common.c ****          /* don't break, but continue with next position */
 187:E:/NeuOrga/Programmieren/c_cpp/github_os/input/src/os_base\os_common.c ****       }        
 188:E:/NeuOrga/Programmieren/c_cpp/github_os/input/src/os_base\os_common.c ****    }      
 189:E:/NeuOrga/Programmieren/c_cpp/github_os/input/src/os_base\os_common.c ****    return IsEqual;
 446              		.loc 1 189 0 is_stmt 1
 447 02be B8250200 		movl	$_IsEqual, %eax
 447      00
 190:E:/NeuOrga/Programmieren/c_cpp/github_os/input/src/os_base\os_common.c **** }
 448              		.loc 1 190 0
 449 02c3 C9       		leave
 450              		.cfi_restore 5
 451              		.cfi_def_cfa 4, 4
 452 02c4 C3       		ret
 453              		.cfi_endproc
 454              	LFE8:
 455              		.globl	_IsGreaterOrEqual
 457              	_IsGreaterOrEqual:
 458              	LFB9:
 191:E:/NeuOrga/Programmieren/c_cpp/github_os/input/src/os_base\os_common.c **** boolean_t IsGreaterOrEqual(BigInt* Operand1, BigInt* Operand2)
 192:E:/NeuOrga/Programmieren/c_cpp/github_os/input/src/os_base\os_common.c **** {
 459              		.loc 1 192 0
 460              		.cfi_startproc
 461 02c5 55       		pushl	%ebp
 462              		.cfi_def_cfa_offset 8
 463              		.cfi_offset 5, -8
 464 02c6 89E5     		movl	%esp, %ebp
 465              		.cfi_def_cfa_register 5
 466 02c8 83EC08   		subl	$8, %esp
 193:E:/NeuOrga/Programmieren/c_cpp/github_os/input/src/os_base\os_common.c ****    return IsGreater(Operand1,Operand2) || IsEqual(Operand1,Operand2);
 467              		.loc 1 193 0
 468 02cb 8B450C   		movl	12(%ebp), %eax
GAS LISTING C:\Users\PRESID~1\AppData\Local\Temp\ccLOX7Wh.s 			page 13


 469 02ce 89442404 		movl	%eax, 4(%esp)
 470 02d2 8B4508   		movl	8(%ebp), %eax
 471 02d5 890424   		movl	%eax, (%esp)
 472 02d8 E888FFFF 		call	_IsGreater
 472      FF
 473 02dd 84C0     		testb	%al, %al
 474 02df 7516     		jne	L39
 475              		.loc 1 193 0 is_stmt 0 discriminator 2
 476 02e1 8B450C   		movl	12(%ebp), %eax
 477 02e4 89442404 		movl	%eax, 4(%esp)
 478 02e8 8B4508   		movl	8(%ebp), %eax
 479 02eb 890424   		movl	%eax, (%esp)
 480 02ee E832FFFF 		call	_IsEqual
 480      FF
 481 02f3 84C0     		testb	%al, %al
 482 02f5 7407     		je	L40
 483              	L39:
 484              		.loc 1 193 0 discriminator 3
 485 02f7 B8010000 		movl	$1, %eax
 485      00
 486 02fc EB05     		jmp	L41
 487              	L40:
 488              		.loc 1 193 0 discriminator 4
 489 02fe B8000000 		movl	$0, %eax
 489      00
 490              	L41:
 194:E:/NeuOrga/Programmieren/c_cpp/github_os/input/src/os_base\os_common.c **** }
 491              		.loc 1 194 0 is_stmt 1 discriminator 6
 492 0303 C9       		leave
 493              		.cfi_restore 5
 494              		.cfi_def_cfa 4, 4
 495 0304 C3       		ret
 496              		.cfi_endproc
 497              	LFE9:
 498              		.globl	_Assign
 500              	_Assign:
 501              	LFB10:
 195:E:/NeuOrga/Programmieren/c_cpp/github_os/input/src/os_base\os_common.c **** void Assign(BigInt* leftOperand, BigInt* rightOperand)
 196:E:/NeuOrga/Programmieren/c_cpp/github_os/input/src/os_base\os_common.c **** {
 502              		.loc 1 196 0
 503              		.cfi_startproc
 504 0305 55       		pushl	%ebp
 505              		.cfi_def_cfa_offset 8
 506              		.cfi_offset 5, -8
 507 0306 89E5     		movl	%esp, %ebp
 508              		.cfi_def_cfa_register 5
 509 0308 83EC10   		subl	$16, %esp
 197:E:/NeuOrga/Programmieren/c_cpp/github_os/input/src/os_base\os_common.c ****    uint8 pos;
 198:E:/NeuOrga/Programmieren/c_cpp/github_os/input/src/os_base\os_common.c ****    for (pos = 0; pos < BigIntSize; pos++)
 510              		.loc 1 198 0
 511 030b C645FF00 		movb	$0, -1(%ebp)
 512 030f EB1B     		jmp	L44
 513              	L45:
 199:E:/NeuOrga/Programmieren/c_cpp/github_os/input/src/os_base\os_common.c ****    {
 200:E:/NeuOrga/Programmieren/c_cpp/github_os/input/src/os_base\os_common.c ****       leftOperand->Number[pos] = rightOperand->Number[pos];
 514              		.loc 1 200 0 discriminator 3
 515 0311 0FB645FF 		movzbl	-1(%ebp), %eax
GAS LISTING C:\Users\PRESID~1\AppData\Local\Temp\ccLOX7Wh.s 			page 14


 516 0315 0FB655FF 		movzbl	-1(%ebp), %edx
 517 0319 8B4D0C   		movl	12(%ebp), %ecx
 518 031c 8A0C11   		movb	(%ecx,%edx), %cl
 519 031f 8B5508   		movl	8(%ebp), %edx
 520 0322 880C02   		movb	%cl, (%edx,%eax)
 198:E:/NeuOrga/Programmieren/c_cpp/github_os/input/src/os_base\os_common.c ****    {
 521              		.loc 1 198 0 discriminator 3
 522 0325 8A45FF   		movb	-1(%ebp), %al
 523 0328 40       		incl	%eax
 524 0329 8845FF   		movb	%al, -1(%ebp)
 525              	L44:
 198:E:/NeuOrga/Programmieren/c_cpp/github_os/input/src/os_base\os_common.c ****    {
 526              		.loc 1 198 0 is_stmt 0 discriminator 1
 527 032c 807DFF0F 		cmpb	$15, -1(%ebp)
 528 0330 76DF     		jbe	L45
 201:E:/NeuOrga/Programmieren/c_cpp/github_os/input/src/os_base\os_common.c ****    }
 202:E:/NeuOrga/Programmieren/c_cpp/github_os/input/src/os_base\os_common.c **** }
 529              		.loc 1 202 0 is_stmt 1
 530 0332 C9       		leave
 531              		.cfi_restore 5
 532              		.cfi_def_cfa 4, 4
 533 0333 C3       		ret
 534              		.cfi_endproc
 535              	LFE10:
 536              		.globl	_AssignNull
 538              	_AssignNull:
 539              	LFB11:
 203:E:/NeuOrga/Programmieren/c_cpp/github_os/input/src/os_base\os_common.c **** void AssignNull(BigInt* leftOperand)
 204:E:/NeuOrga/Programmieren/c_cpp/github_os/input/src/os_base\os_common.c **** {
 540              		.loc 1 204 0
 541              		.cfi_startproc
 542 0334 55       		pushl	%ebp
 543              		.cfi_def_cfa_offset 8
 544              		.cfi_offset 5, -8
 545 0335 89E5     		movl	%esp, %ebp
 546              		.cfi_def_cfa_register 5
 547 0337 83EC10   		subl	$16, %esp
 205:E:/NeuOrga/Programmieren/c_cpp/github_os/input/src/os_base\os_common.c ****    uint8 pos;
 206:E:/NeuOrga/Programmieren/c_cpp/github_os/input/src/os_base\os_common.c ****    for (pos = 0; pos < BigIntSize; pos++)
 548              		.loc 1 206 0
 549 033a C645FF00 		movb	$0, -1(%ebp)
 550 033e EB12     		jmp	L47
 551              	L48:
 207:E:/NeuOrga/Programmieren/c_cpp/github_os/input/src/os_base\os_common.c ****    {
 208:E:/NeuOrga/Programmieren/c_cpp/github_os/input/src/os_base\os_common.c ****       leftOperand->Number[pos] = 0x00;
 552              		.loc 1 208 0 discriminator 3
 553 0340 0FB645FF 		movzbl	-1(%ebp), %eax
 554 0344 8B5508   		movl	8(%ebp), %edx
 555 0347 C6040200 		movb	$0, (%edx,%eax)
 206:E:/NeuOrga/Programmieren/c_cpp/github_os/input/src/os_base\os_common.c ****    {
 556              		.loc 1 206 0 discriminator 3
 557 034b 8A45FF   		movb	-1(%ebp), %al
 558 034e 40       		incl	%eax
 559 034f 8845FF   		movb	%al, -1(%ebp)
 560              	L47:
 206:E:/NeuOrga/Programmieren/c_cpp/github_os/input/src/os_base\os_common.c ****    {
 561              		.loc 1 206 0 is_stmt 0 discriminator 1
GAS LISTING C:\Users\PRESID~1\AppData\Local\Temp\ccLOX7Wh.s 			page 15


 562 0352 807DFF0F 		cmpb	$15, -1(%ebp)
 563 0356 76E8     		jbe	L48
 209:E:/NeuOrga/Programmieren/c_cpp/github_os/input/src/os_base\os_common.c ****    }
 210:E:/NeuOrga/Programmieren/c_cpp/github_os/input/src/os_base\os_common.c **** }...
 564              		.loc 1 210 0 is_stmt 1
 565 0358 C9       		leave
 566              		.cfi_restore 5
 567              		.cfi_def_cfa 4, 4
 568 0359 C3       		ret
 569              		.cfi_endproc
 570              	LFE11:
 571              	Letext0:
 572              		.file 2 "E:/NeuOrga/Programmieren/c_cpp/github_os/input/src/os_base/../os_base/os_base_types.h"
 573              		.file 3 "E:/NeuOrga/Programmieren/c_cpp/github_os/input/src/os_base/../os_base/os_common.h"
 574              		.file 4 "E:/NeuOrga/Programmieren/c_cpp/github_os/input/src/os_base/../os_base/os_ram.h"
 575 035a 9090     		.section	.debug_info,"dr"
 576              	Ldebug_info0:
 577 0000 A4080000 		.long	0x8a4
 578 0004 0400     		.word	0x4
 579 0006 00000000 		.secrel32	Ldebug_abbrev0
 580 000a 04       		.byte	0x4
 581 000b 01       		.uleb128 0x1
 582 000c 474E5520 		.ascii "GNU C 4.9.3 -march=i386 -g3 -O0 -std=c90\0"
 582      4320342E 
 582      392E3320 
 582      2D6D6172 
 582      63683D69 
 583 0035 01       		.byte	0x1
 584 0036 453A5C4E 		.ascii "E:\\NeuOrga\\Programmieren\\c_cpp\\github_os\\input\\src\\os_base\\os_common.c\0"
 584      65754F72 
 584      67615C50 
 584      726F6772 
 584      616D6D69 
 585 007d 00000000 		.long	Ltext0
 586 0081 5A030000 		.long	Letext0-Ltext0
 587 0085 00000000 		.secrel32	Ldebug_line0
 588 0089 00000000 		.secrel32	Ldebug_macro0
 589 008d 02       		.uleb128 0x2
 590 008e 01       		.byte	0x1
 591 008f 08       		.byte	0x8
 592 0090 756E7369 		.ascii "unsigned char\0"
 592      676E6564 
 592      20636861 
 592      7200
 593 009e 02       		.uleb128 0x2
 594 009f 01       		.byte	0x1
 595 00a0 06       		.byte	0x6
 596 00a1 7369676E 		.ascii "signed char\0"
 596      65642063 
 596      68617200 
 597 00ad 03       		.uleb128 0x3
 598 00ae 75696E74 		.ascii "uint8\0"
 598      3800
 599 00b4 02       		.byte	0x2
 600 00b5 21       		.byte	0x21
 601 00b6 8D000000 		.long	0x8d
 602 00ba 03       		.uleb128 0x3
GAS LISTING C:\Users\PRESID~1\AppData\Local\Temp\ccLOX7Wh.s 			page 16


 603 00bb 73696E74 		.ascii "sint8\0"
 603      3800
 604 00c1 02       		.byte	0x2
 605 00c2 22       		.byte	0x22
 606 00c3 9E000000 		.long	0x9e
 607 00c7 02       		.uleb128 0x2
 608 00c8 02       		.byte	0x2
 609 00c9 07       		.byte	0x7
 610 00ca 73686F72 		.ascii "short unsigned int\0"
 610      7420756E 
 610      7369676E 
 610      65642069 
 610      6E7400
 611 00dd 02       		.uleb128 0x2
 612 00de 02       		.byte	0x2
 613 00df 05       		.byte	0x5
 614 00e0 73686F72 		.ascii "short int\0"
 614      7420696E 
 614      7400
 615 00ea 03       		.uleb128 0x3
 616 00eb 75696E74 		.ascii "uint16\0"
 616      313600
 617 00f2 02       		.byte	0x2
 618 00f3 25       		.byte	0x25
 619 00f4 C7000000 		.long	0xc7
 620 00f8 03       		.uleb128 0x3
 621 00f9 756E7369 		.ascii "unsigned_int32_t\0"
 621      676E6564 
 621      5F696E74 
 621      33325F74 
 621      00
 622 010a 02       		.byte	0x2
 623 010b 27       		.byte	0x27
 624 010c 10010000 		.long	0x110
 625 0110 02       		.uleb128 0x2
 626 0111 04       		.byte	0x4
 627 0112 07       		.byte	0x7
 628 0113 6C6F6E67 		.ascii "long unsigned int\0"
 628      20756E73 
 628      69676E65 
 628      6420696E 
 628      7400
 629 0125 02       		.uleb128 0x2
 630 0126 04       		.byte	0x4
 631 0127 05       		.byte	0x5
 632 0128 6C6F6E67 		.ascii "long int\0"
 632      20696E74 
 632      00
 633 0131 03       		.uleb128 0x3
 634 0132 75696E74 		.ascii "uint32\0"
 634      333200
 635 0139 02       		.byte	0x2
 636 013a 29       		.byte	0x29
 637 013b 10010000 		.long	0x110
 638 013f 04       		.uleb128 0x4
 639 0140 6F735F73 		.ascii "os_sw_bugs_e\0"
 639      775F6275 
GAS LISTING C:\Users\PRESID~1\AppData\Local\Temp\ccLOX7Wh.s 			page 17


 639      67735F65 
 639      00
 640 014d 04       		.byte	0x4
 641 014e 03       		.byte	0x3
 642 014f 2B       		.byte	0x2b
 643 0150 82020000 		.long	0x282
 644 0154 05       		.uleb128 0x5
 645 0155 6F735F62 		.ascii "os_bug_no_bug\0"
 645      75675F6E 
 645      6F5F6275 
 645      6700
 646 0163 00       		.sleb128 0
 647 0164 05       		.uleb128 0x5
 648 0165 6F735F62 		.ascii "os_bug_taskstate_request_denied\0"
 648      75675F74 
 648      61736B73 
 648      74617465 
 648      5F726571 
 649 0185 01       		.sleb128 1
 650 0186 05       		.uleb128 0x5
 651 0187 6F735F62 		.ascii "os_bug_null_pointer\0"
 651      75675F6E 
 651      756C6C5F 
 651      706F696E 
 651      74657200 
 652 019b 02       		.sleb128 2
 653 019c 05       		.uleb128 0x5
 654 019d 6F735F62 		.ascii "os_bug_task_max_wait_time_reached\0"
 654      75675F74 
 654      61736B5F 
 654      6D61785F 
 654      77616974 
 655 01bf 03       		.sleb128 3
 656 01c0 05       		.uleb128 0x5
 657 01c1 6F735F62 		.ascii "os_bug_Task_unspecified\0"
 657      75675F54 
 657      61736B5F 
 657      756E7370 
 657      65636966 
 658 01d9 04       		.sleb128 4
 659 01da 05       		.uleb128 0x5
 660 01db 6F735F62 		.ascii "os_bug_exception_UndefInstruction\0"
 660      75675F65 
 660      78636570 
 660      74696F6E 
 660      5F556E64 
 661 01fd 05       		.sleb128 5
 662 01fe 05       		.uleb128 0x5
 663 01ff 6F735F62 		.ascii "os_bug_exception_AbortPrefetch\0"
 663      75675F65 
 663      78636570 
 663      74696F6E 
 663      5F41626F 
 664 021e 06       		.sleb128 6
 665 021f 05       		.uleb128 0x5
 666 0220 6F735F62 		.ascii "os_bug_exception_AbortData\0"
 666      75675F65 
GAS LISTING C:\Users\PRESID~1\AppData\Local\Temp\ccLOX7Wh.s 			page 18


 666      78636570 
 666      74696F6E 
 666      5F41626F 
 667 023b 07       		.sleb128 7
 668 023c 05       		.uleb128 0x5
 669 023d 6F735F62 		.ascii "os_bug_reset_exit_or_shutdown_failed\0"
 669      75675F72 
 669      65736574 
 669      5F657869 
 669      745F6F72 
 670 0262 08       		.sleb128 8
 671 0263 05       		.uleb128 0x5
 672 0264 6F735F62 		.ascii "os_bug_critical_stack_usage\0"
 672      75675F63 
 672      72697469 
 672      63616C5F 
 672      73746163 
 673 0280 09       		.sleb128 9
 674 0281 00       		.byte	0
 675 0282 03       		.uleb128 0x3
 676 0283 6F735F73 		.ascii "os_sw_bugs_t\0"
 676      775F6275 
 676      67735F74 
 676      00
 677 0290 03       		.byte	0x3
 678 0291 38       		.byte	0x38
 679 0292 3F010000 		.long	0x13f
 680 0296 03       		.uleb128 0x3
 681 0297 626F6F6C 		.ascii "boolean_t\0"
 681      65616E5F 
 681      7400
 682 02a1 03       		.byte	0x3
 683 02a2 39       		.byte	0x39
 684 02a3 AD000000 		.long	0xad
 685 02a7 04       		.uleb128 0x4
 686 02a8 6F735F73 		.ascii "os_sw_bugs_function_e\0"
 686      775F6275 
 686      67735F66 
 686      756E6374 
 686      696F6E5F 
 687 02be 04       		.byte	0x4
 688 02bf 03       		.byte	0x3
 689 02c0 3A       		.byte	0x3a
 690 02c1 4C040000 		.long	0x44c
 691 02c5 05       		.uleb128 0x5
 692 02c6 46756E63 		.ascii "Func_NoFunction\0"
 692      5F4E6F46 
 692      756E6374 
 692      696F6E00 
 693 02d6 00       		.sleb128 0
 694 02d7 05       		.uleb128 0x5
 695 02d8 46756E63 		.ascii "Func_SaveTaskEnvironment\0"
 695      5F536176 
 695      65546173 
 695      6B456E76 
 695      69726F6E 
 696 02f1 01       		.sleb128 1
GAS LISTING C:\Users\PRESID~1\AppData\Local\Temp\ccLOX7Wh.s 			page 19


 697 02f2 05       		.uleb128 0x5
 698 02f3 46756E63 		.ascii "Func_RestoreTaskEnvironment\0"
 698      5F526573 
 698      746F7265 
 698      5461736B 
 698      456E7669 
 699 030f 02       		.sleb128 2
 700 0310 05       		.uleb128 0x5
 701 0311 46756E63 		.ascii "Func_CreateTaskEnvironment\0"
 701      5F437265 
 701      61746554 
 701      61736B45 
 701      6E766972 
 702 032c 03       		.sleb128 3
 703 032d 05       		.uleb128 0x5
 704 032e 46756E63 		.ascii "Func_DeleteTaskEnvironment\0"
 704      5F44656C 
 704      65746554 
 704      61736B45 
 704      6E766972 
 705 0349 04       		.sleb128 4
 706 034a 05       		.uleb128 0x5
 707 034b 46756E63 		.ascii "Func_InitTaskEnvironment\0"
 707      5F496E69 
 707      74546173 
 707      6B456E76 
 707      69726F6E 
 708 0364 05       		.sleb128 5
 709 0365 05       		.uleb128 0x5
 710 0366 46756E63 		.ascii "Func_StartTask\0"
 710      5F537461 
 710      72745461 
 710      736B00
 711 0375 06       		.sleb128 6
 712 0376 05       		.uleb128 0x5
 713 0377 46756E63 		.ascii "Func_PreemptTask\0"
 713      5F507265 
 713      656D7074 
 713      5461736B 
 713      00
 714 0388 07       		.sleb128 7
 715 0389 05       		.uleb128 0x5
 716 038a 46756E63 		.ascii "Func_TerminateTask\0"
 716      5F546572 
 716      6D696E61 
 716      74655461 
 716      736B00
 717 039d 08       		.sleb128 8
 718 039e 05       		.uleb128 0x5
 719 039f 46756E63 		.ascii "Func_TaskScheduler\0"
 719      5F546173 
 719      6B536368 
 719      6564756C 
 719      657200
 720 03b2 09       		.sleb128 9
 721 03b3 05       		.uleb128 0x5
 722 03b4 46756E63 		.ascii "Func_InitTask\0"
GAS LISTING C:\Users\PRESID~1\AppData\Local\Temp\ccLOX7Wh.s 			page 20


 722      5F496E69 
 722      74546173 
 722      6B00
 723 03c2 0A       		.sleb128 10
 724 03c3 05       		.uleb128 0x5
 725 03c4 46756E63 		.ascii "Func_ActivateTask\0"
 725      5F416374 
 725      69766174 
 725      65546173 
 725      6B00
 726 03d6 0B       		.sleb128 11
 727 03d7 05       		.uleb128 0x5
 728 03d8 46756E63 		.ascii "Func_TaskStateRequest\0"
 728      5F546173 
 728      6B537461 
 728      74655265 
 728      71756573 
 729 03ee 0C       		.sleb128 12
 730 03ef 05       		.uleb128 0x5
 731 03f0 46756E63 		.ascii "Func_Preempt_Task\0"
 731      5F507265 
 731      656D7074 
 731      5F546173 
 731      6B00
 732 0402 0D       		.sleb128 13
 733 0403 05       		.uleb128 0x5
 734 0404 46756E63 		.ascii "Func_os_exception\0"
 734      5F6F735F 
 734      65786365 
 734      7074696F 
 734      6E00
 735 0416 0E       		.sleb128 14
 736 0417 05       		.uleb128 0x5
 737 0418 46756E63 		.ascii "Func_CreateTask\0"
 737      5F437265 
 737      61746554 
 737      61736B00 
 738 0428 0F       		.sleb128 15
 739 0429 05       		.uleb128 0x5
 740 042a 46756E63 		.ascii "Func_Shutdown\0"
 740      5F536875 
 740      74646F77 
 740      6E00
 741 0438 10       		.sleb128 16
 742 0439 05       		.uleb128 0x5
 743 043a 46756E63 		.ascii "Func_StackCheck\0"
 743      5F537461 
 743      636B4368 
 743      65636B00 
 744 044a 11       		.sleb128 17
 745 044b 00       		.byte	0
 746 044c 03       		.uleb128 0x3
 747 044d 6F735F73 		.ascii "os_sw_bugs_function_t\0"
 747      775F6275 
 747      67735F66 
 747      756E6374 
 747      696F6E5F 
GAS LISTING C:\Users\PRESID~1\AppData\Local\Temp\ccLOX7Wh.s 			page 21


 748 0463 03       		.byte	0x3
 749 0464 4F       		.byte	0x4f
 750 0465 A7020000 		.long	0x2a7
 751 0469 06       		.uleb128 0x6
 752 046a 42696749 		.ascii "BigInt_s\0"
 752      6E745F73 
 752      00
 753 0473 10       		.byte	0x10
 754 0474 03       		.byte	0x3
 755 0475 59       		.byte	0x59
 756 0476 8A040000 		.long	0x48a
 757 047a 07       		.uleb128 0x7
 758 047b 4E756D62 		.ascii "Number\0"
 758      657200
 759 0482 03       		.byte	0x3
 760 0483 62       		.byte	0x62
 761 0484 8A040000 		.long	0x48a
 762 0488 00       		.byte	0
 763 0489 00       		.byte	0
 764 048a 08       		.uleb128 0x8
 765 048b AD000000 		.long	0xad
 766 048f 9A040000 		.long	0x49a
 767 0493 09       		.uleb128 0x9
 768 0494 9A040000 		.long	0x49a
 769 0498 0F       		.byte	0xf
 770 0499 00       		.byte	0
 771 049a 02       		.uleb128 0x2
 772 049b 04       		.byte	0x4
 773 049c 07       		.byte	0x7
 774 049d 73697A65 		.ascii "sizetype\0"
 774      74797065 
 774      00
 775 04a6 03       		.uleb128 0x3
 776 04a7 42696749 		.ascii "BigInt\0"
 776      6E7400
 777 04ae 03       		.byte	0x3
 778 04af 63       		.byte	0x63
 779 04b0 69040000 		.long	0x469
 780 04b4 02       		.uleb128 0x2
 781 04b5 04       		.byte	0x4
 782 04b6 07       		.byte	0x7
 783 04b7 756E7369 		.ascii "unsigned int\0"
 783      676E6564 
 783      20696E74 
 783      00
 784 04c4 0A       		.uleb128 0xa
 785 04c5 4F535F53 		.ascii "OS_SetSwBug\0"
 785      65745377 
 785      42756700 
 786 04d1 01       		.byte	0x1
 787 04d2 04       		.byte	0x4
 788 04d3 00000000 		.long	LFB0
 789 04d7 12000000 		.long	LFE0-LFB0
 790 04db 01       		.uleb128 0x1
 791 04dc 9C       		.byte	0x9c
 792 04dd 0A050000 		.long	0x50a
 793 04e1 0B       		.uleb128 0xb
GAS LISTING C:\Users\PRESID~1\AppData\Local\Temp\ccLOX7Wh.s 			page 22


 794 04e2 6275675F 		.ascii "bug_nr\0"
 794      6E7200
 795 04e9 01       		.byte	0x1
 796 04ea 04       		.byte	0x4
 797 04eb 82020000 		.long	0x282
 798 04ef 02       		.uleb128 0x2
 799 04f0 91       		.byte	0x91
 800 04f1 00       		.sleb128 0
 801 04f2 0B       		.uleb128 0xb
 802 04f3 7461736B 		.ascii "task_func_nr\0"
 802      5F66756E 
 802      635F6E72 
 802      00
 803 0500 01       		.byte	0x1
 804 0501 04       		.byte	0x4
 805 0502 4C040000 		.long	0x44c
 806 0506 02       		.uleb128 0x2
 807 0507 91       		.byte	0x91
 808 0508 04       		.sleb128 4
 809 0509 00       		.byte	0
 810 050a 0C       		.uleb128 0xc
 811 050b 4F535F47 		.ascii "OS_GetCurrentTime\0"
 811      65744375 
 811      7272656E 
 811      7454696D 
 811      6500
 812 051d 01       		.byte	0x1
 813 051e 0F       		.byte	0xf
 814 051f F8000000 		.long	0xf8
 815 0523 12000000 		.long	LFB1
 816 0527 0C000000 		.long	LFE1-LFB1
 817 052b 01       		.uleb128 0x1
 818 052c 9C       		.byte	0x9c
 819 052d 0D       		.uleb128 0xd
 820 052e 4F535F52 		.ascii "OS_ResetCurrentTime\0"
 820      65736574 
 820      43757272 
 820      656E7454 
 820      696D6500 
 821 0542 01       		.byte	0x1
 822 0543 17       		.byte	0x17
 823 0544 1E000000 		.long	LFB2
 824 0548 40000000 		.long	LFE2-LFB2
 825 054c 01       		.uleb128 0x1
 826 054d 9C       		.byte	0x9c
 827 054e 0A       		.uleb128 0xa
 828 054f 496E7441 		.ascii "IntAdd\0"
 828      646400
 829 0556 01       		.byte	0x1
 830 0557 28       		.byte	0x28
 831 0558 5E000000 		.long	LFB3
 832 055c 60000000 		.long	LFE3-LFB3
 833 0560 01       		.uleb128 0x1
 834 0561 9C       		.byte	0x9c
 835 0562 E1050000 		.long	0x5e1
 836 0566 0B       		.uleb128 0xb
 837 0567 53756D6D 		.ascii "Summe\0"
GAS LISTING C:\Users\PRESID~1\AppData\Local\Temp\ccLOX7Wh.s 			page 23


 837      6500
 838 056d 01       		.byte	0x1
 839 056e 28       		.byte	0x28
 840 056f E1050000 		.long	0x5e1
 841 0573 02       		.uleb128 0x2
 842 0574 91       		.byte	0x91
 843 0575 00       		.sleb128 0
 844 0576 0B       		.uleb128 0xb
 845 0577 45727374 		.ascii "ErsterSummand\0"
 845      65725375 
 845      6D6D616E 
 845      6400
 846 0585 01       		.byte	0x1
 847 0586 28       		.byte	0x28
 848 0587 E1050000 		.long	0x5e1
 849 058b 02       		.uleb128 0x2
 850 058c 91       		.byte	0x91
 851 058d 04       		.sleb128 4
 852 058e 0B       		.uleb128 0xb
 853 058f 5A776569 		.ascii "ZweiterSummand\0"
 853      74657253 
 853      756D6D61 
 853      6E6400
 854 059e 01       		.byte	0x1
 855 059f 28       		.byte	0x28
 856 05a0 E1050000 		.long	0x5e1
 857 05a4 02       		.uleb128 0x2
 858 05a5 91       		.byte	0x91
 859 05a6 08       		.sleb128 8
 860 05a7 0E       		.uleb128 0xe
 861 05a8 706F7300 		.ascii "pos\0"
 862 05ac 01       		.byte	0x1
 863 05ad 2A       		.byte	0x2a
 864 05ae BA000000 		.long	0xba
 865 05b2 02       		.uleb128 0x2
 866 05b3 91       		.byte	0x91
 867 05b4 77       		.sleb128 -9
 868 05b5 0E       		.uleb128 0xe
 869 05b6 63617272 		.ascii "carry\0"
 869      7900
 870 05bc 01       		.byte	0x1
 871 05bd 2B       		.byte	0x2b
 872 05be EA000000 		.long	0xea
 873 05c2 02       		.uleb128 0x2
 874 05c3 91       		.byte	0x91
 875 05c4 74       		.sleb128 -12
 876 05c5 0F       		.uleb128 0xf
 877 05c6 70000000 		.long	LBB2
 878 05ca 3F000000 		.long	LBE2-LBB2
 879 05ce 0E       		.uleb128 0xe
 880 05cf 746D7053 		.ascii "tmpSum\0"
 880      756D00
 881 05d6 01       		.byte	0x1
 882 05d7 2F       		.byte	0x2f
 883 05d8 EA000000 		.long	0xea
 884 05dc 02       		.uleb128 0x2
 885 05dd 91       		.byte	0x91
GAS LISTING C:\Users\PRESID~1\AppData\Local\Temp\ccLOX7Wh.s 			page 24


 886 05de 72       		.sleb128 -14
 887 05df 00       		.byte	0
 888 05e0 00       		.byte	0
 889 05e1 10       		.uleb128 0x10
 890 05e2 04       		.byte	0x4
 891 05e3 A6040000 		.long	0x4a6
 892 05e7 0A       		.uleb128 0xa
 893 05e8 496E7453 		.ascii "IntSub\0"
 893      756200
 894 05ef 01       		.byte	0x1
 895 05f0 34       		.byte	0x34
 896 05f1 BE000000 		.long	LFB4
 897 05f5 C7000000 		.long	LFE4-LFB4
 898 05f9 01       		.uleb128 0x1
 899 05fa 9C       		.byte	0x9c
 900 05fb 75060000 		.long	0x675
 901 05ff 0B       		.uleb128 0xb
 902 0600 44696666 		.ascii "Differenz\0"
 902      6572656E 
 902      7A00
 903 060a 01       		.byte	0x1
 904 060b 34       		.byte	0x34
 905 060c E1050000 		.long	0x5e1
 906 0610 02       		.uleb128 0x2
 907 0611 91       		.byte	0x91
 908 0612 00       		.sleb128 0
 909 0613 0B       		.uleb128 0xb
 910 0614 4D696E75 		.ascii "Minuend\0"
 910      656E6400 
 911 061c 01       		.byte	0x1
 912 061d 34       		.byte	0x34
 913 061e E1050000 		.long	0x5e1
 914 0622 02       		.uleb128 0x2
 915 0623 91       		.byte	0x91
 916 0624 04       		.sleb128 4
 917 0625 0B       		.uleb128 0xb
 918 0626 53756274 		.ascii "Subtrahend\0"
 918      72616865 
 918      6E6400
 919 0631 01       		.byte	0x1
 920 0632 34       		.byte	0x34
 921 0633 E1050000 		.long	0x5e1
 922 0637 02       		.uleb128 0x2
 923 0638 91       		.byte	0x91
 924 0639 08       		.sleb128 8
 925 063a 0E       		.uleb128 0xe
 926 063b 706F7300 		.ascii "pos\0"
 927 063f 01       		.byte	0x1
 928 0640 36       		.byte	0x36
 929 0641 BA000000 		.long	0xba
 930 0645 02       		.uleb128 0x2
 931 0646 91       		.byte	0x91
 932 0647 77       		.sleb128 -9
 933 0648 0E       		.uleb128 0xe
 934 0649 63617272 		.ascii "carry\0"
 934      7900
 935 064f 01       		.byte	0x1
GAS LISTING C:\Users\PRESID~1\AppData\Local\Temp\ccLOX7Wh.s 			page 25


 936 0650 37       		.byte	0x37
 937 0651 EA000000 		.long	0xea
 938 0655 02       		.uleb128 0x2
 939 0656 91       		.byte	0x91
 940 0657 74       		.sleb128 -12
 941 0658 0F       		.uleb128 0xf
 942 0659 D3000000 		.long	LBB3
 943 065d 9F000000 		.long	LBE3-LBB3
 944 0661 0E       		.uleb128 0xe
 945 0662 746D7044 		.ascii "tmpDiff\0"
 945      69666600 
 946 066a 01       		.byte	0x1
 947 066b 3B       		.byte	0x3b
 948 066c EA000000 		.long	0xea
 949 0670 02       		.uleb128 0x2
 950 0671 91       		.byte	0x91
 951 0672 72       		.sleb128 -14
 952 0673 00       		.byte	0
 953 0674 00       		.byte	0
 954 0675 11       		.uleb128 0x11
 955 0676 00000000 		.secrel32	LASF2
 956 067a 01       		.byte	0x1
 957 067b 7B       		.byte	0x7b
 958 067c 96020000 		.long	0x296
 959 0680 85010000 		.long	LFB5
 960 0684 60000000 		.long	LFE5-LFB5
 961 0688 01       		.uleb128 0x1
 962 0689 9C       		.byte	0x9c
 963 068a C7060000 		.long	0x6c7
 964 068e 12       		.uleb128 0x12
 965 068f 13000000 		.secrel32	LASF0
 966 0693 01       		.byte	0x1
 967 0694 7B       		.byte	0x7b
 968 0695 E1050000 		.long	0x5e1
 969 0699 02       		.uleb128 0x2
 970 069a 91       		.byte	0x91
 971 069b 00       		.sleb128 0
 972 069c 12       		.uleb128 0x12
 973 069d 1C000000 		.secrel32	LASF1
 974 06a1 01       		.byte	0x1
 975 06a2 7B       		.byte	0x7b
 976 06a3 E1050000 		.long	0x5e1
 977 06a7 02       		.uleb128 0x2
 978 06a8 91       		.byte	0x91
 979 06a9 04       		.sleb128 4
 980 06aa 0E       		.uleb128 0xe
 981 06ab 706F7300 		.ascii "pos\0"
 982 06af 01       		.byte	0x1
 983 06b0 7D       		.byte	0x7d
 984 06b1 AD000000 		.long	0xad
 985 06b5 02       		.uleb128 0x2
 986 06b6 91       		.byte	0x91
 987 06b7 77       		.sleb128 -9
 988 06b8 13       		.uleb128 0x13
 989 06b9 00000000 		.secrel32	LASF2
 990 06bd 01       		.byte	0x1
 991 06be 7E       		.byte	0x7e
GAS LISTING C:\Users\PRESID~1\AppData\Local\Temp\ccLOX7Wh.s 			page 26


 992 06bf 96020000 		.long	0x296
 993 06c3 02       		.uleb128 0x2
 994 06c4 91       		.byte	0x91
 995 06c5 76       		.sleb128 -10
 996 06c6 00       		.byte	0
 997 06c7 14       		.uleb128 0x14
 998 06c8 49734C65 		.ascii "IsLessOrEqual\0"
 998      73734F72 
 998      45717561 
 998      6C00
 999 06d6 01       		.byte	0x1
 1000 06d7 92       		.byte	0x92
 1001 06d8 96020000 		.long	0x296
 1002 06dc E5010000 		.long	LFB6
 1003 06e0 40000000 		.long	LFE6-LFB6
 1004 06e4 01       		.uleb128 0x1
 1005 06e5 9C       		.byte	0x9c
 1006 06e6 07070000 		.long	0x707
 1007 06ea 12       		.uleb128 0x12
 1008 06eb 13000000 		.secrel32	LASF0
 1009 06ef 01       		.byte	0x1
 1010 06f0 92       		.byte	0x92
 1011 06f1 E1050000 		.long	0x5e1
 1012 06f5 02       		.uleb128 0x2
 1013 06f6 91       		.byte	0x91
 1014 06f7 00       		.sleb128 0
 1015 06f8 12       		.uleb128 0x12
 1016 06f9 1C000000 		.secrel32	LASF1
 1017 06fd 01       		.byte	0x1
 1018 06fe 92       		.byte	0x92
 1019 06ff E1050000 		.long	0x5e1
 1020 0703 02       		.uleb128 0x2
 1021 0704 91       		.byte	0x91
 1022 0705 04       		.sleb128 4
 1023 0706 00       		.byte	0
 1024 0707 15       		.uleb128 0x15
 1025 0708 49734571 		.ascii "IsEqual\0"
 1025      75616C00 
 1026 0710 01       		.byte	0x1
 1027 0711 96       		.byte	0x96
 1028 0712 96020000 		.long	0x296
 1029 0716 25020000 		.long	LFB7
 1030 071a 40000000 		.long	LFE7-LFB7
 1031 071e 01       		.uleb128 0x1
 1032 071f 9C       		.byte	0x9c
 1033 0720 61070000 		.long	0x761
 1034 0724 12       		.uleb128 0x12
 1035 0725 13000000 		.secrel32	LASF0
 1036 0729 01       		.byte	0x1
 1037 072a 96       		.byte	0x96
 1038 072b E1050000 		.long	0x5e1
 1039 072f 02       		.uleb128 0x2
 1040 0730 91       		.byte	0x91
 1041 0731 00       		.sleb128 0
 1042 0732 12       		.uleb128 0x12
 1043 0733 1C000000 		.secrel32	LASF1
 1044 0737 01       		.byte	0x1
GAS LISTING C:\Users\PRESID~1\AppData\Local\Temp\ccLOX7Wh.s 			page 27


 1045 0738 96       		.byte	0x96
 1046 0739 E1050000 		.long	0x5e1
 1047 073d 02       		.uleb128 0x2
 1048 073e 91       		.byte	0x91
 1049 073f 04       		.sleb128 4
 1050 0740 0E       		.uleb128 0xe
 1051 0741 706F7300 		.ascii "pos\0"
 1052 0745 01       		.byte	0x1
 1053 0746 98       		.byte	0x98
 1054 0747 AD000000 		.long	0xad
 1055 074b 02       		.uleb128 0x2
 1056 074c 91       		.byte	0x91
 1057 074d 77       		.sleb128 -9
 1058 074e 0E       		.uleb128 0xe
 1059 074f 49734571 		.ascii "IsEqual\0"
 1059      75616C00 
 1060 0757 01       		.byte	0x1
 1061 0758 99       		.byte	0x99
 1062 0759 96020000 		.long	0x296
 1063 075d 02       		.uleb128 0x2
 1064 075e 91       		.byte	0x91
 1065 075f 76       		.sleb128 -10
 1066 0760 00       		.byte	0
 1067 0761 15       		.uleb128 0x15
 1068 0762 49734772 		.ascii "IsGreater\0"
 1068      65617465 
 1068      7200
 1069 076c 01       		.byte	0x1
 1070 076d A8       		.byte	0xa8
 1071 076e 96020000 		.long	0x296
 1072 0772 65020000 		.long	LFB8
 1073 0776 60000000 		.long	LFE8-LFB8
 1074 077a 01       		.uleb128 0x1
 1075 077b 9C       		.byte	0x9c
 1076 077c B9070000 		.long	0x7b9
 1077 0780 12       		.uleb128 0x12
 1078 0781 13000000 		.secrel32	LASF0
 1079 0785 01       		.byte	0x1
 1080 0786 A8       		.byte	0xa8
 1081 0787 E1050000 		.long	0x5e1
 1082 078b 02       		.uleb128 0x2
 1083 078c 91       		.byte	0x91
 1084 078d 00       		.sleb128 0
 1085 078e 12       		.uleb128 0x12
 1086 078f 1C000000 		.secrel32	LASF1
 1087 0793 01       		.byte	0x1
 1088 0794 A8       		.byte	0xa8
 1089 0795 E1050000 		.long	0x5e1
 1090 0799 02       		.uleb128 0x2
 1091 079a 91       		.byte	0x91
 1092 079b 04       		.sleb128 4
 1093 079c 0E       		.uleb128 0xe
 1094 079d 706F7300 		.ascii "pos\0"
 1095 07a1 01       		.byte	0x1
 1096 07a2 AA       		.byte	0xaa
 1097 07a3 AD000000 		.long	0xad
 1098 07a7 02       		.uleb128 0x2
GAS LISTING C:\Users\PRESID~1\AppData\Local\Temp\ccLOX7Wh.s 			page 28


 1099 07a8 91       		.byte	0x91
 1100 07a9 77       		.sleb128 -9
 1101 07aa 13       		.uleb128 0x13
 1102 07ab 00000000 		.secrel32	LASF2
 1103 07af 01       		.byte	0x1
 1104 07b0 AB       		.byte	0xab
 1105 07b1 96020000 		.long	0x296
 1106 07b5 02       		.uleb128 0x2
 1107 07b6 91       		.byte	0x91
 1108 07b7 76       		.sleb128 -10
 1109 07b8 00       		.byte	0
 1110 07b9 14       		.uleb128 0x14
 1111 07ba 49734772 		.ascii "IsGreaterOrEqual\0"
 1111      65617465 
 1111      724F7245 
 1111      7175616C 
 1111      00
 1112 07cb 01       		.byte	0x1
 1113 07cc BF       		.byte	0xbf
 1114 07cd 96020000 		.long	0x296
 1115 07d1 C5020000 		.long	LFB9
 1116 07d5 40000000 		.long	LFE9-LFB9
 1117 07d9 01       		.uleb128 0x1
 1118 07da 9C       		.byte	0x9c
 1119 07db FC070000 		.long	0x7fc
 1120 07df 12       		.uleb128 0x12
 1121 07e0 13000000 		.secrel32	LASF0
 1122 07e4 01       		.byte	0x1
 1123 07e5 BF       		.byte	0xbf
 1124 07e6 E1050000 		.long	0x5e1
 1125 07ea 02       		.uleb128 0x2
 1126 07eb 91       		.byte	0x91
 1127 07ec 00       		.sleb128 0
 1128 07ed 12       		.uleb128 0x12
 1129 07ee 1C000000 		.secrel32	LASF1
 1130 07f2 01       		.byte	0x1
 1131 07f3 BF       		.byte	0xbf
 1132 07f4 E1050000 		.long	0x5e1
 1133 07f8 02       		.uleb128 0x2
 1134 07f9 91       		.byte	0x91
 1135 07fa 04       		.sleb128 4
 1136 07fb 00       		.byte	0
 1137 07fc 0A       		.uleb128 0xa
 1138 07fd 41737369 		.ascii "Assign\0"
 1138      676E00
 1139 0804 01       		.byte	0x1
 1140 0805 C3       		.byte	0xc3
 1141 0806 05030000 		.long	LFB10
 1142 080a 2F000000 		.long	LFE10-LFB10
 1143 080e 01       		.uleb128 0x1
 1144 080f 9C       		.byte	0x9c
 1145 0810 48080000 		.long	0x848
 1146 0814 12       		.uleb128 0x12
 1147 0815 07000000 		.secrel32	LASF3
 1148 0819 01       		.byte	0x1
 1149 081a C3       		.byte	0xc3
 1150 081b E1050000 		.long	0x5e1
GAS LISTING C:\Users\PRESID~1\AppData\Local\Temp\ccLOX7Wh.s 			page 29


 1151 081f 02       		.uleb128 0x2
 1152 0820 91       		.byte	0x91
 1153 0821 00       		.sleb128 0
 1154 0822 0B       		.uleb128 0xb
 1155 0823 72696768 		.ascii "rightOperand\0"
 1155      744F7065 
 1155      72616E64 
 1155      00
 1156 0830 01       		.byte	0x1
 1157 0831 C3       		.byte	0xc3
 1158 0832 E1050000 		.long	0x5e1
 1159 0836 02       		.uleb128 0x2
 1160 0837 91       		.byte	0x91
 1161 0838 04       		.sleb128 4
 1162 0839 0E       		.uleb128 0xe
 1163 083a 706F7300 		.ascii "pos\0"
 1164 083e 01       		.byte	0x1
 1165 083f C5       		.byte	0xc5
 1166 0840 AD000000 		.long	0xad
 1167 0844 02       		.uleb128 0x2
 1168 0845 91       		.byte	0x91
 1169 0846 77       		.sleb128 -9
 1170 0847 00       		.byte	0
 1171 0848 0A       		.uleb128 0xa
 1172 0849 41737369 		.ascii "AssignNull\0"
 1172      676E4E75 
 1172      6C6C00
 1173 0854 01       		.byte	0x1
 1174 0855 CB       		.byte	0xcb
 1175 0856 34030000 		.long	LFB11
 1176 085a 26000000 		.long	LFE11-LFB11
 1177 085e 01       		.uleb128 0x1
 1178 085f 9C       		.byte	0x9c
 1179 0860 81080000 		.long	0x881
 1180 0864 12       		.uleb128 0x12
 1181 0865 07000000 		.secrel32	LASF3
 1182 0869 01       		.byte	0x1
 1183 086a CB       		.byte	0xcb
 1184 086b E1050000 		.long	0x5e1
 1185 086f 02       		.uleb128 0x2
 1186 0870 91       		.byte	0x91
 1187 0871 00       		.sleb128 0
 1188 0872 0E       		.uleb128 0xe
 1189 0873 706F7300 		.ascii "pos\0"
 1190 0877 01       		.byte	0x1
 1191 0878 CD       		.byte	0xcd
 1192 0879 AD000000 		.long	0xad
 1193 087d 02       		.uleb128 0x2
 1194 087e 91       		.byte	0x91
 1195 087f 77       		.sleb128 -9
 1196 0880 00       		.byte	0
 1197 0881 08       		.uleb128 0x8
 1198 0882 82020000 		.long	0x282
 1199 0886 91080000 		.long	0x891
 1200 088a 09       		.uleb128 0x9
 1201 088b 9A040000 		.long	0x49a
 1202 088f 0E       		.byte	0xe
GAS LISTING C:\Users\PRESID~1\AppData\Local\Temp\ccLOX7Wh.s 			page 30


 1203 0890 00       		.byte	0
 1204 0891 16       		.uleb128 0x16
 1205 0892 4F535F53 		.ascii "OS_SW_BUG\0"
 1205      575F4255 
 1205      4700
 1206 089c 04       		.byte	0x4
 1207 089d 10       		.byte	0x10
 1208 089e A2080000 		.long	0x8a2
 1209 08a2 17       		.uleb128 0x17
 1210 08a3 81080000 		.long	0x881
 1211 08a7 00       		.byte	0
 1212              		.section	.debug_abbrev,"dr"
 1213              	Ldebug_abbrev0:
 1214 0000 01       		.uleb128 0x1
 1215 0001 11       		.uleb128 0x11
 1216 0002 01       		.byte	0x1
 1217 0003 25       		.uleb128 0x25
 1218 0004 08       		.uleb128 0x8
 1219 0005 13       		.uleb128 0x13
 1220 0006 0B       		.uleb128 0xb
 1221 0007 03       		.uleb128 0x3
 1222 0008 08       		.uleb128 0x8
 1223 0009 11       		.uleb128 0x11
 1224 000a 01       		.uleb128 0x1
 1225 000b 12       		.uleb128 0x12
 1226 000c 06       		.uleb128 0x6
 1227 000d 10       		.uleb128 0x10
 1228 000e 17       		.uleb128 0x17
 1229 000f 9942     		.uleb128 0x2119
 1230 0011 17       		.uleb128 0x17
 1231 0012 00       		.byte	0
 1232 0013 00       		.byte	0
 1233 0014 02       		.uleb128 0x2
 1234 0015 24       		.uleb128 0x24
 1235 0016 00       		.byte	0
 1236 0017 0B       		.uleb128 0xb
 1237 0018 0B       		.uleb128 0xb
 1238 0019 3E       		.uleb128 0x3e
 1239 001a 0B       		.uleb128 0xb
 1240 001b 03       		.uleb128 0x3
 1241 001c 08       		.uleb128 0x8
 1242 001d 00       		.byte	0
 1243 001e 00       		.byte	0
 1244 001f 03       		.uleb128 0x3
 1245 0020 16       		.uleb128 0x16
 1246 0021 00       		.byte	0
 1247 0022 03       		.uleb128 0x3
 1248 0023 08       		.uleb128 0x8
 1249 0024 3A       		.uleb128 0x3a
 1250 0025 0B       		.uleb128 0xb
 1251 0026 3B       		.uleb128 0x3b
 1252 0027 0B       		.uleb128 0xb
 1253 0028 49       		.uleb128 0x49
 1254 0029 13       		.uleb128 0x13
 1255 002a 00       		.byte	0
 1256 002b 00       		.byte	0
 1257 002c 04       		.uleb128 0x4
GAS LISTING C:\Users\PRESID~1\AppData\Local\Temp\ccLOX7Wh.s 			page 31


 1258 002d 04       		.uleb128 0x4
 1259 002e 01       		.byte	0x1
 1260 002f 03       		.uleb128 0x3
 1261 0030 08       		.uleb128 0x8
 1262 0031 0B       		.uleb128 0xb
 1263 0032 0B       		.uleb128 0xb
 1264 0033 3A       		.uleb128 0x3a
 1265 0034 0B       		.uleb128 0xb
 1266 0035 3B       		.uleb128 0x3b
 1267 0036 0B       		.uleb128 0xb
 1268 0037 01       		.uleb128 0x1
 1269 0038 13       		.uleb128 0x13
 1270 0039 00       		.byte	0
 1271 003a 00       		.byte	0
 1272 003b 05       		.uleb128 0x5
 1273 003c 28       		.uleb128 0x28
 1274 003d 00       		.byte	0
 1275 003e 03       		.uleb128 0x3
 1276 003f 08       		.uleb128 0x8
 1277 0040 1C       		.uleb128 0x1c
 1278 0041 0D       		.uleb128 0xd
 1279 0042 00       		.byte	0
 1280 0043 00       		.byte	0
 1281 0044 06       		.uleb128 0x6
 1282 0045 13       		.uleb128 0x13
 1283 0046 01       		.byte	0x1
 1284 0047 03       		.uleb128 0x3
 1285 0048 08       		.uleb128 0x8
 1286 0049 0B       		.uleb128 0xb
 1287 004a 0B       		.uleb128 0xb
 1288 004b 3A       		.uleb128 0x3a
 1289 004c 0B       		.uleb128 0xb
 1290 004d 3B       		.uleb128 0x3b
 1291 004e 0B       		.uleb128 0xb
 1292 004f 01       		.uleb128 0x1
 1293 0050 13       		.uleb128 0x13
 1294 0051 00       		.byte	0
 1295 0052 00       		.byte	0
 1296 0053 07       		.uleb128 0x7
 1297 0054 0D       		.uleb128 0xd
 1298 0055 00       		.byte	0
 1299 0056 03       		.uleb128 0x3
 1300 0057 08       		.uleb128 0x8
 1301 0058 3A       		.uleb128 0x3a
 1302 0059 0B       		.uleb128 0xb
 1303 005a 3B       		.uleb128 0x3b
 1304 005b 0B       		.uleb128 0xb
 1305 005c 49       		.uleb128 0x49
 1306 005d 13       		.uleb128 0x13
 1307 005e 38       		.uleb128 0x38
 1308 005f 0B       		.uleb128 0xb
 1309 0060 00       		.byte	0
 1310 0061 00       		.byte	0
 1311 0062 08       		.uleb128 0x8
 1312 0063 01       		.uleb128 0x1
 1313 0064 01       		.byte	0x1
 1314 0065 49       		.uleb128 0x49
GAS LISTING C:\Users\PRESID~1\AppData\Local\Temp\ccLOX7Wh.s 			page 32


 1315 0066 13       		.uleb128 0x13
 1316 0067 01       		.uleb128 0x1
 1317 0068 13       		.uleb128 0x13
 1318 0069 00       		.byte	0
 1319 006a 00       		.byte	0
 1320 006b 09       		.uleb128 0x9
 1321 006c 21       		.uleb128 0x21
 1322 006d 00       		.byte	0
 1323 006e 49       		.uleb128 0x49
 1324 006f 13       		.uleb128 0x13
 1325 0070 2F       		.uleb128 0x2f
 1326 0071 0B       		.uleb128 0xb
 1327 0072 00       		.byte	0
 1328 0073 00       		.byte	0
 1329 0074 0A       		.uleb128 0xa
 1330 0075 2E       		.uleb128 0x2e
 1331 0076 01       		.byte	0x1
 1332 0077 3F       		.uleb128 0x3f
 1333 0078 19       		.uleb128 0x19
 1334 0079 03       		.uleb128 0x3
 1335 007a 08       		.uleb128 0x8
 1336 007b 3A       		.uleb128 0x3a
 1337 007c 0B       		.uleb128 0xb
 1338 007d 3B       		.uleb128 0x3b
 1339 007e 0B       		.uleb128 0xb
 1340 007f 27       		.uleb128 0x27
 1341 0080 19       		.uleb128 0x19
 1342 0081 11       		.uleb128 0x11
 1343 0082 01       		.uleb128 0x1
 1344 0083 12       		.uleb128 0x12
 1345 0084 06       		.uleb128 0x6
 1346 0085 40       		.uleb128 0x40
 1347 0086 18       		.uleb128 0x18
 1348 0087 9742     		.uleb128 0x2117
 1349 0089 19       		.uleb128 0x19
 1350 008a 01       		.uleb128 0x1
 1351 008b 13       		.uleb128 0x13
 1352 008c 00       		.byte	0
 1353 008d 00       		.byte	0
 1354 008e 0B       		.uleb128 0xb
 1355 008f 05       		.uleb128 0x5
 1356 0090 00       		.byte	0
 1357 0091 03       		.uleb128 0x3
 1358 0092 08       		.uleb128 0x8
 1359 0093 3A       		.uleb128 0x3a
 1360 0094 0B       		.uleb128 0xb
 1361 0095 3B       		.uleb128 0x3b
 1362 0096 0B       		.uleb128 0xb
 1363 0097 49       		.uleb128 0x49
 1364 0098 13       		.uleb128 0x13
 1365 0099 02       		.uleb128 0x2
 1366 009a 18       		.uleb128 0x18
 1367 009b 00       		.byte	0
 1368 009c 00       		.byte	0
 1369 009d 0C       		.uleb128 0xc
 1370 009e 2E       		.uleb128 0x2e
 1371 009f 00       		.byte	0
GAS LISTING C:\Users\PRESID~1\AppData\Local\Temp\ccLOX7Wh.s 			page 33


 1372 00a0 3F       		.uleb128 0x3f
 1373 00a1 19       		.uleb128 0x19
 1374 00a2 03       		.uleb128 0x3
 1375 00a3 08       		.uleb128 0x8
 1376 00a4 3A       		.uleb128 0x3a
 1377 00a5 0B       		.uleb128 0xb
 1378 00a6 3B       		.uleb128 0x3b
 1379 00a7 0B       		.uleb128 0xb
 1380 00a8 27       		.uleb128 0x27
 1381 00a9 19       		.uleb128 0x19
 1382 00aa 49       		.uleb128 0x49
 1383 00ab 13       		.uleb128 0x13
 1384 00ac 11       		.uleb128 0x11
 1385 00ad 01       		.uleb128 0x1
 1386 00ae 12       		.uleb128 0x12
 1387 00af 06       		.uleb128 0x6
 1388 00b0 40       		.uleb128 0x40
 1389 00b1 18       		.uleb128 0x18
 1390 00b2 9742     		.uleb128 0x2117
 1391 00b4 19       		.uleb128 0x19
 1392 00b5 00       		.byte	0
 1393 00b6 00       		.byte	0
 1394 00b7 0D       		.uleb128 0xd
 1395 00b8 2E       		.uleb128 0x2e
 1396 00b9 00       		.byte	0
 1397 00ba 3F       		.uleb128 0x3f
 1398 00bb 19       		.uleb128 0x19
 1399 00bc 03       		.uleb128 0x3
 1400 00bd 08       		.uleb128 0x8
 1401 00be 3A       		.uleb128 0x3a
 1402 00bf 0B       		.uleb128 0xb
 1403 00c0 3B       		.uleb128 0x3b
 1404 00c1 0B       		.uleb128 0xb
 1405 00c2 27       		.uleb128 0x27
 1406 00c3 19       		.uleb128 0x19
 1407 00c4 11       		.uleb128 0x11
 1408 00c5 01       		.uleb128 0x1
 1409 00c6 12       		.uleb128 0x12
 1410 00c7 06       		.uleb128 0x6
 1411 00c8 40       		.uleb128 0x40
 1412 00c9 18       		.uleb128 0x18
 1413 00ca 9742     		.uleb128 0x2117
 1414 00cc 19       		.uleb128 0x19
 1415 00cd 00       		.byte	0
 1416 00ce 00       		.byte	0
 1417 00cf 0E       		.uleb128 0xe
 1418 00d0 34       		.uleb128 0x34
 1419 00d1 00       		.byte	0
 1420 00d2 03       		.uleb128 0x3
 1421 00d3 08       		.uleb128 0x8
 1422 00d4 3A       		.uleb128 0x3a
 1423 00d5 0B       		.uleb128 0xb
 1424 00d6 3B       		.uleb128 0x3b
 1425 00d7 0B       		.uleb128 0xb
 1426 00d8 49       		.uleb128 0x49
 1427 00d9 13       		.uleb128 0x13
 1428 00da 02       		.uleb128 0x2
GAS LISTING C:\Users\PRESID~1\AppData\Local\Temp\ccLOX7Wh.s 			page 34


 1429 00db 18       		.uleb128 0x18
 1430 00dc 00       		.byte	0
 1431 00dd 00       		.byte	0
 1432 00de 0F       		.uleb128 0xf
 1433 00df 0B       		.uleb128 0xb
 1434 00e0 01       		.byte	0x1
 1435 00e1 11       		.uleb128 0x11
 1436 00e2 01       		.uleb128 0x1
 1437 00e3 12       		.uleb128 0x12
 1438 00e4 06       		.uleb128 0x6
 1439 00e5 00       		.byte	0
 1440 00e6 00       		.byte	0
 1441 00e7 10       		.uleb128 0x10
 1442 00e8 0F       		.uleb128 0xf
 1443 00e9 00       		.byte	0
 1444 00ea 0B       		.uleb128 0xb
 1445 00eb 0B       		.uleb128 0xb
 1446 00ec 49       		.uleb128 0x49
 1447 00ed 13       		.uleb128 0x13
 1448 00ee 00       		.byte	0
 1449 00ef 00       		.byte	0
 1450 00f0 11       		.uleb128 0x11
 1451 00f1 2E       		.uleb128 0x2e
 1452 00f2 01       		.byte	0x1
 1453 00f3 3F       		.uleb128 0x3f
 1454 00f4 19       		.uleb128 0x19
 1455 00f5 03       		.uleb128 0x3
 1456 00f6 0E       		.uleb128 0xe
 1457 00f7 3A       		.uleb128 0x3a
 1458 00f8 0B       		.uleb128 0xb
 1459 00f9 3B       		.uleb128 0x3b
 1460 00fa 0B       		.uleb128 0xb
 1461 00fb 27       		.uleb128 0x27
 1462 00fc 19       		.uleb128 0x19
 1463 00fd 49       		.uleb128 0x49
 1464 00fe 13       		.uleb128 0x13
 1465 00ff 11       		.uleb128 0x11
 1466 0100 01       		.uleb128 0x1
 1467 0101 12       		.uleb128 0x12
 1468 0102 06       		.uleb128 0x6
 1469 0103 40       		.uleb128 0x40
 1470 0104 18       		.uleb128 0x18
 1471 0105 9742     		.uleb128 0x2117
 1472 0107 19       		.uleb128 0x19
 1473 0108 01       		.uleb128 0x1
 1474 0109 13       		.uleb128 0x13
 1475 010a 00       		.byte	0
 1476 010b 00       		.byte	0
 1477 010c 12       		.uleb128 0x12
 1478 010d 05       		.uleb128 0x5
 1479 010e 00       		.byte	0
 1480 010f 03       		.uleb128 0x3
 1481 0110 0E       		.uleb128 0xe
 1482 0111 3A       		.uleb128 0x3a
 1483 0112 0B       		.uleb128 0xb
 1484 0113 3B       		.uleb128 0x3b
 1485 0114 0B       		.uleb128 0xb
GAS LISTING C:\Users\PRESID~1\AppData\Local\Temp\ccLOX7Wh.s 			page 35


 1486 0115 49       		.uleb128 0x49
 1487 0116 13       		.uleb128 0x13
 1488 0117 02       		.uleb128 0x2
 1489 0118 18       		.uleb128 0x18
 1490 0119 00       		.byte	0
 1491 011a 00       		.byte	0
 1492 011b 13       		.uleb128 0x13
 1493 011c 34       		.uleb128 0x34
 1494 011d 00       		.byte	0
 1495 011e 03       		.uleb128 0x3
 1496 011f 0E       		.uleb128 0xe
 1497 0120 3A       		.uleb128 0x3a
 1498 0121 0B       		.uleb128 0xb
 1499 0122 3B       		.uleb128 0x3b
 1500 0123 0B       		.uleb128 0xb
 1501 0124 49       		.uleb128 0x49
 1502 0125 13       		.uleb128 0x13
 1503 0126 02       		.uleb128 0x2
 1504 0127 18       		.uleb128 0x18
 1505 0128 00       		.byte	0
 1506 0129 00       		.byte	0
 1507 012a 14       		.uleb128 0x14
 1508 012b 2E       		.uleb128 0x2e
 1509 012c 01       		.byte	0x1
 1510 012d 3F       		.uleb128 0x3f
 1511 012e 19       		.uleb128 0x19
 1512 012f 03       		.uleb128 0x3
 1513 0130 08       		.uleb128 0x8
 1514 0131 3A       		.uleb128 0x3a
 1515 0132 0B       		.uleb128 0xb
 1516 0133 3B       		.uleb128 0x3b
 1517 0134 0B       		.uleb128 0xb
 1518 0135 27       		.uleb128 0x27
 1519 0136 19       		.uleb128 0x19
 1520 0137 49       		.uleb128 0x49
 1521 0138 13       		.uleb128 0x13
 1522 0139 11       		.uleb128 0x11
 1523 013a 01       		.uleb128 0x1
 1524 013b 12       		.uleb128 0x12
 1525 013c 06       		.uleb128 0x6
 1526 013d 40       		.uleb128 0x40
 1527 013e 18       		.uleb128 0x18
 1528 013f 9642     		.uleb128 0x2116
 1529 0141 19       		.uleb128 0x19
 1530 0142 01       		.uleb128 0x1
 1531 0143 13       		.uleb128 0x13
 1532 0144 00       		.byte	0
 1533 0145 00       		.byte	0
 1534 0146 15       		.uleb128 0x15
 1535 0147 2E       		.uleb128 0x2e
 1536 0148 01       		.byte	0x1
 1537 0149 3F       		.uleb128 0x3f
 1538 014a 19       		.uleb128 0x19
 1539 014b 03       		.uleb128 0x3
 1540 014c 08       		.uleb128 0x8
 1541 014d 3A       		.uleb128 0x3a
 1542 014e 0B       		.uleb128 0xb
GAS LISTING C:\Users\PRESID~1\AppData\Local\Temp\ccLOX7Wh.s 			page 36


 1543 014f 3B       		.uleb128 0x3b
 1544 0150 0B       		.uleb128 0xb
 1545 0151 27       		.uleb128 0x27
 1546 0152 19       		.uleb128 0x19
 1547 0153 49       		.uleb128 0x49
 1548 0154 13       		.uleb128 0x13
 1549 0155 11       		.uleb128 0x11
 1550 0156 01       		.uleb128 0x1
 1551 0157 12       		.uleb128 0x12
 1552 0158 06       		.uleb128 0x6
 1553 0159 40       		.uleb128 0x40
 1554 015a 18       		.uleb128 0x18
 1555 015b 9742     		.uleb128 0x2117
 1556 015d 19       		.uleb128 0x19
 1557 015e 01       		.uleb128 0x1
 1558 015f 13       		.uleb128 0x13
 1559 0160 00       		.byte	0
 1560 0161 00       		.byte	0
 1561 0162 16       		.uleb128 0x16
 1562 0163 34       		.uleb128 0x34
 1563 0164 00       		.byte	0
 1564 0165 03       		.uleb128 0x3
 1565 0166 08       		.uleb128 0x8
 1566 0167 3A       		.uleb128 0x3a
 1567 0168 0B       		.uleb128 0xb
 1568 0169 3B       		.uleb128 0x3b
 1569 016a 0B       		.uleb128 0xb
 1570 016b 49       		.uleb128 0x49
 1571 016c 13       		.uleb128 0x13
 1572 016d 3F       		.uleb128 0x3f
 1573 016e 19       		.uleb128 0x19
 1574 016f 3C       		.uleb128 0x3c
 1575 0170 19       		.uleb128 0x19
 1576 0171 00       		.byte	0
 1577 0172 00       		.byte	0
 1578 0173 17       		.uleb128 0x17
 1579 0174 35       		.uleb128 0x35
 1580 0175 00       		.byte	0
 1581 0176 49       		.uleb128 0x49
 1582 0177 13       		.uleb128 0x13
 1583 0178 00       		.byte	0
 1584 0179 00       		.byte	0
 1585 017a 00       		.byte	0
 1586              		.section	.debug_aranges,"dr"
 1587 0000 1C000000 		.long	0x1c
 1588 0004 0200     		.word	0x2
 1589 0006 00000000 		.secrel32	Ldebug_info0
 1590 000a 04       		.byte	0x4
 1591 000b 00       		.byte	0
 1592 000c 0000     		.word	0
 1593 000e 0000     		.word	0
 1594 0010 00000000 		.long	Ltext0
 1595 0014 5A030000 		.long	Letext0-Ltext0
 1596 0018 00000000 		.long	0
 1597 001c 00000000 		.long	0
 1598              		.section	.debug_macro,"dr"
 1599              	Ldebug_macro0:
GAS LISTING C:\Users\PRESID~1\AppData\Local\Temp\ccLOX7Wh.s 			page 37


 1600 0000 0400     		.word	0x4
 1601 0002 02       		.byte	0x2
 1602 0003 00000000 		.secrel32	Ldebug_line0
 1603 0007 01       		.byte	0x1
 1604 0008 00       		.uleb128 0
 1605 0009 5F5F5354 		.ascii "__STDC__ 1\0"
 1605      44435F5F 
 1605      203100
 1606 0014 01       		.byte	0x1
 1607 0015 00       		.uleb128 0
 1608 0016 5F5F5354 		.ascii "__STDC_HOSTED__ 1\0"
 1608      44435F48 
 1608      4F535445 
 1608      445F5F20 
 1608      3100
 1609 0028 01       		.byte	0x1
 1610 0029 00       		.uleb128 0
 1611 002a 5F5F474E 		.ascii "__GNUC__ 4\0"
 1611      55435F5F 
 1611      203400
 1612 0035 01       		.byte	0x1
 1613 0036 00       		.uleb128 0
 1614 0037 5F5F474E 		.ascii "__GNUC_MINOR__ 9\0"
 1614      55435F4D 
 1614      494E4F52 
 1614      5F5F2039 
 1614      00
 1615 0048 01       		.byte	0x1
 1616 0049 00       		.uleb128 0
 1617 004a 5F5F474E 		.ascii "__GNUC_PATCHLEVEL__ 3\0"
 1617      55435F50 
 1617      41544348 
 1617      4C455645 
 1617      4C5F5F20 
 1618 0060 01       		.byte	0x1
 1619 0061 00       		.uleb128 0
 1620 0062 5F5F5645 		.ascii "__VERSION__ \"4.9.3\"\0"
 1620      5253494F 
 1620      4E5F5F20 
 1620      22342E39 
 1620      2E332200 
 1621 0076 01       		.byte	0x1
 1622 0077 00       		.uleb128 0
 1623 0078 5F5F4154 		.ascii "__ATOMIC_RELAXED 0\0"
 1623      4F4D4943 
 1623      5F52454C 
 1623      41584544 
 1623      203000
 1624 008b 01       		.byte	0x1
 1625 008c 00       		.uleb128 0
 1626 008d 5F5F4154 		.ascii "__ATOMIC_SEQ_CST 5\0"
 1626      4F4D4943 
 1626      5F534551 
 1626      5F435354 
 1626      203500
 1627 00a0 01       		.byte	0x1
 1628 00a1 00       		.uleb128 0
GAS LISTING C:\Users\PRESID~1\AppData\Local\Temp\ccLOX7Wh.s 			page 38


 1629 00a2 5F5F4154 		.ascii "__ATOMIC_ACQUIRE 2\0"
 1629      4F4D4943 
 1629      5F414351 
 1629      55495245 
 1629      203200
 1630 00b5 01       		.byte	0x1
 1631 00b6 00       		.uleb128 0
 1632 00b7 5F5F4154 		.ascii "__ATOMIC_RELEASE 3\0"
 1632      4F4D4943 
 1632      5F52454C 
 1632      45415345 
 1632      203300
 1633 00ca 01       		.byte	0x1
 1634 00cb 00       		.uleb128 0
 1635 00cc 5F5F4154 		.ascii "__ATOMIC_ACQ_REL 4\0"
 1635      4F4D4943 
 1635      5F414351 
 1635      5F52454C 
 1635      203400
 1636 00df 01       		.byte	0x1
 1637 00e0 00       		.uleb128 0
 1638 00e1 5F5F4154 		.ascii "__ATOMIC_CONSUME 1\0"
 1638      4F4D4943 
 1638      5F434F4E 
 1638      53554D45 
 1638      203100
 1639 00f4 01       		.byte	0x1
 1640 00f5 00       		.uleb128 0
 1641 00f6 5F5F4649 		.ascii "__FINITE_MATH_ONLY__ 0\0"
 1641      4E495445 
 1641      5F4D4154 
 1641      485F4F4E 
 1641      4C595F5F 
 1642 010d 01       		.byte	0x1
 1643 010e 00       		.uleb128 0
 1644 010f 5F5F5349 		.ascii "__SIZEOF_INT__ 4\0"
 1644      5A454F46 
 1644      5F494E54 
 1644      5F5F2034 
 1644      00
 1645 0120 01       		.byte	0x1
 1646 0121 00       		.uleb128 0
 1647 0122 5F5F5349 		.ascii "__SIZEOF_LONG__ 4\0"
 1647      5A454F46 
 1647      5F4C4F4E 
 1647      475F5F20 
 1647      3400
 1648 0134 01       		.byte	0x1
 1649 0135 00       		.uleb128 0
 1650 0136 5F5F5349 		.ascii "__SIZEOF_LONG_LONG__ 8\0"
 1650      5A454F46 
 1650      5F4C4F4E 
 1650      475F4C4F 
 1650      4E475F5F 
 1651 014d 01       		.byte	0x1
 1652 014e 00       		.uleb128 0
 1653 014f 5F5F5349 		.ascii "__SIZEOF_SHORT__ 2\0"
GAS LISTING C:\Users\PRESID~1\AppData\Local\Temp\ccLOX7Wh.s 			page 39


 1653      5A454F46 
 1653      5F53484F 
 1653      52545F5F 
 1653      203200
 1654 0162 01       		.byte	0x1
 1655 0163 00       		.uleb128 0
 1656 0164 5F5F5349 		.ascii "__SIZEOF_FLOAT__ 4\0"
 1656      5A454F46 
 1656      5F464C4F 
 1656      41545F5F 
 1656      203400
 1657 0177 01       		.byte	0x1
 1658 0178 00       		.uleb128 0
 1659 0179 5F5F5349 		.ascii "__SIZEOF_DOUBLE__ 8\0"
 1659      5A454F46 
 1659      5F444F55 
 1659      424C455F 
 1659      5F203800 
 1660 018d 01       		.byte	0x1
 1661 018e 00       		.uleb128 0
 1662 018f 5F5F5349 		.ascii "__SIZEOF_LONG_DOUBLE__ 12\0"
 1662      5A454F46 
 1662      5F4C4F4E 
 1662      475F444F 
 1662      55424C45 
 1663 01a9 01       		.byte	0x1
 1664 01aa 00       		.uleb128 0
 1665 01ab 5F5F5349 		.ascii "__SIZEOF_SIZE_T__ 4\0"
 1665      5A454F46 
 1665      5F53495A 
 1665      455F545F 
 1665      5F203400 
 1666 01bf 01       		.byte	0x1
 1667 01c0 00       		.uleb128 0
 1668 01c1 5F5F4348 		.ascii "__CHAR_BIT__ 8\0"
 1668      41525F42 
 1668      49545F5F 
 1668      203800
 1669 01d0 01       		.byte	0x1
 1670 01d1 00       		.uleb128 0
 1671 01d2 5F5F4249 		.ascii "__BIGGEST_ALIGNMENT__ 16\0"
 1671      47474553 
 1671      545F414C 
 1671      49474E4D 
 1671      454E545F 
 1672 01eb 01       		.byte	0x1
 1673 01ec 00       		.uleb128 0
 1674 01ed 5F5F4F52 		.ascii "__ORDER_LITTLE_ENDIAN__ 1234\0"
 1674      4445525F 
 1674      4C495454 
 1674      4C455F45 
 1674      4E444941 
 1675 020a 01       		.byte	0x1
 1676 020b 00       		.uleb128 0
 1677 020c 5F5F4F52 		.ascii "__ORDER_BIG_ENDIAN__ 4321\0"
 1677      4445525F 
 1677      4249475F 
GAS LISTING C:\Users\PRESID~1\AppData\Local\Temp\ccLOX7Wh.s 			page 40


 1677      454E4449 
 1677      414E5F5F 
 1678 0226 01       		.byte	0x1
 1679 0227 00       		.uleb128 0
 1680 0228 5F5F4F52 		.ascii "__ORDER_PDP_ENDIAN__ 3412\0"
 1680      4445525F 
 1680      5044505F 
 1680      454E4449 
 1680      414E5F5F 
 1681 0242 01       		.byte	0x1
 1682 0243 00       		.uleb128 0
 1683 0244 5F5F4259 		.ascii "__BYTE_ORDER__ __ORDER_LITTLE_ENDIAN__\0"
 1683      54455F4F 
 1683      52444552 
 1683      5F5F205F 
 1683      5F4F5244 
 1684 026b 01       		.byte	0x1
 1685 026c 00       		.uleb128 0
 1686 026d 5F5F464C 		.ascii "__FLOAT_WORD_ORDER__ __ORDER_LITTLE_ENDIAN__\0"
 1686      4F41545F 
 1686      574F5244 
 1686      5F4F5244 
 1686      45525F5F 
 1687 029a 01       		.byte	0x1
 1688 029b 00       		.uleb128 0
 1689 029c 5F5F5349 		.ascii "__SIZEOF_POINTER__ 4\0"
 1689      5A454F46 
 1689      5F504F49 
 1689      4E544552 
 1689      5F5F2034 
 1690 02b1 01       		.byte	0x1
 1691 02b2 00       		.uleb128 0
 1692 02b3 5F5F5349 		.ascii "__SIZE_TYPE__ unsigned int\0"
 1692      5A455F54 
 1692      5950455F 
 1692      5F20756E 
 1692      7369676E 
 1693 02ce 01       		.byte	0x1
 1694 02cf 00       		.uleb128 0
 1695 02d0 5F5F5054 		.ascii "__PTRDIFF_TYPE__ int\0"
 1695      52444946 
 1695      465F5459 
 1695      50455F5F 
 1695      20696E74 
 1696 02e5 01       		.byte	0x1
 1697 02e6 00       		.uleb128 0
 1698 02e7 5F5F5743 		.ascii "__WCHAR_TYPE__ short unsigned int\0"
 1698      4841525F 
 1698      54595045 
 1698      5F5F2073 
 1698      686F7274 
 1699 0309 01       		.byte	0x1
 1700 030a 00       		.uleb128 0
 1701 030b 5F5F5749 		.ascii "__WINT_TYPE__ short unsigned int\0"
 1701      4E545F54 
 1701      5950455F 
 1701      5F207368 
GAS LISTING C:\Users\PRESID~1\AppData\Local\Temp\ccLOX7Wh.s 			page 41


 1701      6F727420 
 1702 032c 01       		.byte	0x1
 1703 032d 00       		.uleb128 0
 1704 032e 5F5F494E 		.ascii "__INTMAX_TYPE__ long long int\0"
 1704      544D4158 
 1704      5F545950 
 1704      455F5F20 
 1704      6C6F6E67 
 1705 034c 01       		.byte	0x1
 1706 034d 00       		.uleb128 0
 1707 034e 5F5F5549 		.ascii "__UINTMAX_TYPE__ long long unsigned int\0"
 1707      4E544D41 
 1707      585F5459 
 1707      50455F5F 
 1707      206C6F6E 
 1708 0376 01       		.byte	0x1
 1709 0377 00       		.uleb128 0
 1710 0378 5F5F4348 		.ascii "__CHAR16_TYPE__ short unsigned int\0"
 1710      41523136 
 1710      5F545950 
 1710      455F5F20 
 1710      73686F72 
 1711 039b 01       		.byte	0x1
 1712 039c 00       		.uleb128 0
 1713 039d 5F5F4348 		.ascii "__CHAR32_TYPE__ unsigned int\0"
 1713      41523332 
 1713      5F545950 
 1713      455F5F20 
 1713      756E7369 
 1714 03ba 01       		.byte	0x1
 1715 03bb 00       		.uleb128 0
 1716 03bc 5F5F5349 		.ascii "__SIG_ATOMIC_TYPE__ int\0"
 1716      475F4154 
 1716      4F4D4943 
 1716      5F545950 
 1716      455F5F20 
 1717 03d4 01       		.byte	0x1
 1718 03d5 00       		.uleb128 0
 1719 03d6 5F5F494E 		.ascii "__INT8_TYPE__ signed char\0"
 1719      54385F54 
 1719      5950455F 
 1719      5F207369 
 1719      676E6564 
 1720 03f0 01       		.byte	0x1
 1721 03f1 00       		.uleb128 0
 1722 03f2 5F5F494E 		.ascii "__INT16_TYPE__ short int\0"
 1722      5431365F 
 1722      54595045 
 1722      5F5F2073 
 1722      686F7274 
 1723 040b 01       		.byte	0x1
 1724 040c 00       		.uleb128 0
 1725 040d 5F5F494E 		.ascii "__INT32_TYPE__ int\0"
 1725      5433325F 
 1725      54595045 
 1725      5F5F2069 
 1725      6E7400
GAS LISTING C:\Users\PRESID~1\AppData\Local\Temp\ccLOX7Wh.s 			page 42


 1726 0420 01       		.byte	0x1
 1727 0421 00       		.uleb128 0
 1728 0422 5F5F494E 		.ascii "__INT64_TYPE__ long long int\0"
 1728      5436345F 
 1728      54595045 
 1728      5F5F206C 
 1728      6F6E6720 
 1729 043f 01       		.byte	0x1
 1730 0440 00       		.uleb128 0
 1731 0441 5F5F5549 		.ascii "__UINT8_TYPE__ unsigned char\0"
 1731      4E54385F 
 1731      54595045 
 1731      5F5F2075 
 1731      6E736967 
 1732 045e 01       		.byte	0x1
 1733 045f 00       		.uleb128 0
 1734 0460 5F5F5549 		.ascii "__UINT16_TYPE__ short unsigned int\0"
 1734      4E543136 
 1734      5F545950 
 1734      455F5F20 
 1734      73686F72 
 1735 0483 01       		.byte	0x1
 1736 0484 00       		.uleb128 0
 1737 0485 5F5F5549 		.ascii "__UINT32_TYPE__ unsigned int\0"
 1737      4E543332 
 1737      5F545950 
 1737      455F5F20 
 1737      756E7369 
 1738 04a2 01       		.byte	0x1
 1739 04a3 00       		.uleb128 0
 1740 04a4 5F5F5549 		.ascii "__UINT64_TYPE__ long long unsigned int\0"
 1740      4E543634 
 1740      5F545950 
 1740      455F5F20 
 1740      6C6F6E67 
 1741 04cb 01       		.byte	0x1
 1742 04cc 00       		.uleb128 0
 1743 04cd 5F5F494E 		.ascii "__INT_LEAST8_TYPE__ signed char\0"
 1743      545F4C45 
 1743      41535438 
 1743      5F545950 
 1743      455F5F20 
 1744 04ed 01       		.byte	0x1
 1745 04ee 00       		.uleb128 0
 1746 04ef 5F5F494E 		.ascii "__INT_LEAST16_TYPE__ short int\0"
 1746      545F4C45 
 1746      41535431 
 1746      365F5459 
 1746      50455F5F 
 1747 050e 01       		.byte	0x1
 1748 050f 00       		.uleb128 0
 1749 0510 5F5F494E 		.ascii "__INT_LEAST32_TYPE__ int\0"
 1749      545F4C45 
 1749      41535433 
 1749      325F5459 
 1749      50455F5F 
 1750 0529 01       		.byte	0x1
GAS LISTING C:\Users\PRESID~1\AppData\Local\Temp\ccLOX7Wh.s 			page 43


 1751 052a 00       		.uleb128 0
 1752 052b 5F5F494E 		.ascii "__INT_LEAST64_TYPE__ long long int\0"
 1752      545F4C45 
 1752      41535436 
 1752      345F5459 
 1752      50455F5F 
 1753 054e 01       		.byte	0x1
 1754 054f 00       		.uleb128 0
 1755 0550 5F5F5549 		.ascii "__UINT_LEAST8_TYPE__ unsigned char\0"
 1755      4E545F4C 
 1755      45415354 
 1755      385F5459 
 1755      50455F5F 
 1756 0573 01       		.byte	0x1
 1757 0574 00       		.uleb128 0
 1758 0575 5F5F5549 		.ascii "__UINT_LEAST16_TYPE__ short unsigned int\0"
 1758      4E545F4C 
 1758      45415354 
 1758      31365F54 
 1758      5950455F 
 1759 059e 01       		.byte	0x1
 1760 059f 00       		.uleb128 0
 1761 05a0 5F5F5549 		.ascii "__UINT_LEAST32_TYPE__ unsigned int\0"
 1761      4E545F4C 
 1761      45415354 
 1761      33325F54 
 1761      5950455F 
 1762 05c3 01       		.byte	0x1
 1763 05c4 00       		.uleb128 0
 1764 05c5 5F5F5549 		.ascii "__UINT_LEAST64_TYPE__ long long unsigned int\0"
 1764      4E545F4C 
 1764      45415354 
 1764      36345F54 
 1764      5950455F 
 1765 05f2 01       		.byte	0x1
 1766 05f3 00       		.uleb128 0
 1767 05f4 5F5F494E 		.ascii "__INT_FAST8_TYPE__ signed char\0"
 1767      545F4641 
 1767      5354385F 
 1767      54595045 
 1767      5F5F2073 
 1768 0613 01       		.byte	0x1
 1769 0614 00       		.uleb128 0
 1770 0615 5F5F494E 		.ascii "__INT_FAST16_TYPE__ short int\0"
 1770      545F4641 
 1770      53543136 
 1770      5F545950 
 1770      455F5F20 
 1771 0633 01       		.byte	0x1
 1772 0634 00       		.uleb128 0
 1773 0635 5F5F494E 		.ascii "__INT_FAST32_TYPE__ int\0"
 1773      545F4641 
 1773      53543332 
 1773      5F545950 
 1773      455F5F20 
 1774 064d 01       		.byte	0x1
 1775 064e 00       		.uleb128 0
GAS LISTING C:\Users\PRESID~1\AppData\Local\Temp\ccLOX7Wh.s 			page 44


 1776 064f 5F5F494E 		.ascii "__INT_FAST64_TYPE__ long long int\0"
 1776      545F4641 
 1776      53543634 
 1776      5F545950 
 1776      455F5F20 
 1777 0671 01       		.byte	0x1
 1778 0672 00       		.uleb128 0
 1779 0673 5F5F5549 		.ascii "__UINT_FAST8_TYPE__ unsigned char\0"
 1779      4E545F46 
 1779      41535438 
 1779      5F545950 
 1779      455F5F20 
 1780 0695 01       		.byte	0x1
 1781 0696 00       		.uleb128 0
 1782 0697 5F5F5549 		.ascii "__UINT_FAST16_TYPE__ short unsigned int\0"
 1782      4E545F46 
 1782      41535431 
 1782      365F5459 
 1782      50455F5F 
 1783 06bf 01       		.byte	0x1
 1784 06c0 00       		.uleb128 0
 1785 06c1 5F5F5549 		.ascii "__UINT_FAST32_TYPE__ unsigned int\0"
 1785      4E545F46 
 1785      41535433 
 1785      325F5459 
 1785      50455F5F 
 1786 06e3 01       		.byte	0x1
 1787 06e4 00       		.uleb128 0
 1788 06e5 5F5F5549 		.ascii "__UINT_FAST64_TYPE__ long long unsigned int\0"
 1788      4E545F46 
 1788      41535436 
 1788      345F5459 
 1788      50455F5F 
 1789 0711 01       		.byte	0x1
 1790 0712 00       		.uleb128 0
 1791 0713 5F5F494E 		.ascii "__INTPTR_TYPE__ int\0"
 1791      54505452 
 1791      5F545950 
 1791      455F5F20 
 1791      696E7400 
 1792 0727 01       		.byte	0x1
 1793 0728 00       		.uleb128 0
 1794 0729 5F5F5549 		.ascii "__UINTPTR_TYPE__ unsigned int\0"
 1794      4E545054 
 1794      525F5459 
 1794      50455F5F 
 1794      20756E73 
 1795 0747 01       		.byte	0x1
 1796 0748 00       		.uleb128 0
 1797 0749 5F5F6861 		.ascii "__has_include(STR) __has_include__(STR)\0"
 1797      735F696E 
 1797      636C7564 
 1797      65285354 
 1797      5229205F 
 1798 0771 01       		.byte	0x1
 1799 0772 00       		.uleb128 0
 1800 0773 5F5F6861 		.ascii "__has_include_next(STR) __has_include_next__(STR)\0"
GAS LISTING C:\Users\PRESID~1\AppData\Local\Temp\ccLOX7Wh.s 			page 45


 1800      735F696E 
 1800      636C7564 
 1800      655F6E65 
 1800      78742853 
 1801 07a5 01       		.byte	0x1
 1802 07a6 00       		.uleb128 0
 1803 07a7 5F5F4758 		.ascii "__GXX_ABI_VERSION 1002\0"
 1803      585F4142 
 1803      495F5645 
 1803      5253494F 
 1803      4E203130 
 1804 07be 01       		.byte	0x1
 1805 07bf 00       		.uleb128 0
 1806 07c0 5F5F5343 		.ascii "__SCHAR_MAX__ 127\0"
 1806      4841525F 
 1806      4D41585F 
 1806      5F203132 
 1806      3700
 1807 07d2 01       		.byte	0x1
 1808 07d3 00       		.uleb128 0
 1809 07d4 5F5F5348 		.ascii "__SHRT_MAX__ 32767\0"
 1809      52545F4D 
 1809      41585F5F 
 1809      20333237 
 1809      363700
 1810 07e7 01       		.byte	0x1
 1811 07e8 00       		.uleb128 0
 1812 07e9 5F5F494E 		.ascii "__INT_MAX__ 2147483647\0"
 1812      545F4D41 
 1812      585F5F20 
 1812      32313437 
 1812      34383336 
 1813 0800 01       		.byte	0x1
 1814 0801 00       		.uleb128 0
 1815 0802 5F5F4C4F 		.ascii "__LONG_MAX__ 2147483647L\0"
 1815      4E475F4D 
 1815      41585F5F 
 1815      20323134 
 1815      37343833 
 1816 081b 01       		.byte	0x1
 1817 081c 00       		.uleb128 0
 1818 081d 5F5F4C4F 		.ascii "__LONG_LONG_MAX__ 9223372036854775807LL\0"
 1818      4E475F4C 
 1818      4F4E475F 
 1818      4D41585F 
 1818      5F203932 
 1819 0845 01       		.byte	0x1
 1820 0846 00       		.uleb128 0
 1821 0847 5F5F5743 		.ascii "__WCHAR_MAX__ 65535\0"
 1821      4841525F 
 1821      4D41585F 
 1821      5F203635 
 1821      35333500 
 1822 085b 01       		.byte	0x1
 1823 085c 00       		.uleb128 0
 1824 085d 5F5F5743 		.ascii "__WCHAR_MIN__ 0\0"
 1824      4841525F 
GAS LISTING C:\Users\PRESID~1\AppData\Local\Temp\ccLOX7Wh.s 			page 46


 1824      4D494E5F 
 1824      5F203000 
 1825 086d 01       		.byte	0x1
 1826 086e 00       		.uleb128 0
 1827 086f 5F5F5749 		.ascii "__WINT_MAX__ 65535\0"
 1827      4E545F4D 
 1827      41585F5F 
 1827      20363535 
 1827      333500
 1828 0882 01       		.byte	0x1
 1829 0883 00       		.uleb128 0
 1830 0884 5F5F5749 		.ascii "__WINT_MIN__ 0\0"
 1830      4E545F4D 
 1830      494E5F5F 
 1830      203000
 1831 0893 01       		.byte	0x1
 1832 0894 00       		.uleb128 0
 1833 0895 5F5F5054 		.ascii "__PTRDIFF_MAX__ 2147483647\0"
 1833      52444946 
 1833      465F4D41 
 1833      585F5F20 
 1833      32313437 
 1834 08b0 01       		.byte	0x1
 1835 08b1 00       		.uleb128 0
 1836 08b2 5F5F5349 		.ascii "__SIZE_MAX__ 4294967295U\0"
 1836      5A455F4D 
 1836      41585F5F 
 1836      20343239 
 1836      34393637 
 1837 08cb 01       		.byte	0x1
 1838 08cc 00       		.uleb128 0
 1839 08cd 5F5F494E 		.ascii "__INTMAX_MAX__ 9223372036854775807LL\0"
 1839      544D4158 
 1839      5F4D4158 
 1839      5F5F2039 
 1839      32323333 
 1840 08f2 01       		.byte	0x1
 1841 08f3 00       		.uleb128 0
 1842 08f4 5F5F494E 		.ascii "__INTMAX_C(c) c ## LL\0"
 1842      544D4158 
 1842      5F432863 
 1842      29206320 
 1842      2323204C 
 1843 090a 01       		.byte	0x1
 1844 090b 00       		.uleb128 0
 1845 090c 5F5F5549 		.ascii "__UINTMAX_MAX__ 18446744073709551615ULL\0"
 1845      4E544D41 
 1845      585F4D41 
 1845      585F5F20 
 1845      31383434 
 1846 0934 01       		.byte	0x1
 1847 0935 00       		.uleb128 0
 1848 0936 5F5F5549 		.ascii "__UINTMAX_C(c) c ## ULL\0"
 1848      4E544D41 
 1848      585F4328 
 1848      63292063 
 1848      20232320 
GAS LISTING C:\Users\PRESID~1\AppData\Local\Temp\ccLOX7Wh.s 			page 47


 1849 094e 01       		.byte	0x1
 1850 094f 00       		.uleb128 0
 1851 0950 5F5F5349 		.ascii "__SIG_ATOMIC_MAX__ 2147483647\0"
 1851      475F4154 
 1851      4F4D4943 
 1851      5F4D4158 
 1851      5F5F2032 
 1852 096e 01       		.byte	0x1
 1853 096f 00       		.uleb128 0
 1854 0970 5F5F5349 		.ascii "__SIG_ATOMIC_MIN__ (-__SIG_ATOMIC_MAX__ - 1)\0"
 1854      475F4154 
 1854      4F4D4943 
 1854      5F4D494E 
 1854      5F5F2028 
 1855 099d 01       		.byte	0x1
 1856 099e 00       		.uleb128 0
 1857 099f 5F5F494E 		.ascii "__INT8_MAX__ 127\0"
 1857      54385F4D 
 1857      41585F5F 
 1857      20313237 
 1857      00
 1858 09b0 01       		.byte	0x1
 1859 09b1 00       		.uleb128 0
 1860 09b2 5F5F494E 		.ascii "__INT16_MAX__ 32767\0"
 1860      5431365F 
 1860      4D41585F 
 1860      5F203332 
 1860      37363700 
 1861 09c6 01       		.byte	0x1
 1862 09c7 00       		.uleb128 0
 1863 09c8 5F5F494E 		.ascii "__INT32_MAX__ 2147483647\0"
 1863      5433325F 
 1863      4D41585F 
 1863      5F203231 
 1863      34373438 
 1864 09e1 01       		.byte	0x1
 1865 09e2 00       		.uleb128 0
 1866 09e3 5F5F494E 		.ascii "__INT64_MAX__ 9223372036854775807LL\0"
 1866      5436345F 
 1866      4D41585F 
 1866      5F203932 
 1866      32333337 
 1867 0a07 01       		.byte	0x1
 1868 0a08 00       		.uleb128 0
 1869 0a09 5F5F5549 		.ascii "__UINT8_MAX__ 255\0"
 1869      4E54385F 
 1869      4D41585F 
 1869      5F203235 
 1869      3500
 1870 0a1b 01       		.byte	0x1
 1871 0a1c 00       		.uleb128 0
 1872 0a1d 5F5F5549 		.ascii "__UINT16_MAX__ 65535\0"
 1872      4E543136 
 1872      5F4D4158 
 1872      5F5F2036 
 1872      35353335 
 1873 0a32 01       		.byte	0x1
GAS LISTING C:\Users\PRESID~1\AppData\Local\Temp\ccLOX7Wh.s 			page 48


 1874 0a33 00       		.uleb128 0
 1875 0a34 5F5F5549 		.ascii "__UINT32_MAX__ 4294967295U\0"
 1875      4E543332 
 1875      5F4D4158 
 1875      5F5F2034 
 1875      32393439 
 1876 0a4f 01       		.byte	0x1
 1877 0a50 00       		.uleb128 0
 1878 0a51 5F5F5549 		.ascii "__UINT64_MAX__ 18446744073709551615ULL\0"
 1878      4E543634 
 1878      5F4D4158 
 1878      5F5F2031 
 1878      38343436 
 1879 0a78 01       		.byte	0x1
 1880 0a79 00       		.uleb128 0
 1881 0a7a 5F5F494E 		.ascii "__INT_LEAST8_MAX__ 127\0"
 1881      545F4C45 
 1881      41535438 
 1881      5F4D4158 
 1881      5F5F2031 
 1882 0a91 01       		.byte	0x1
 1883 0a92 00       		.uleb128 0
 1884 0a93 5F5F494E 		.ascii "__INT8_C(c) c\0"
 1884      54385F43 
 1884      28632920 
 1884      6300
 1885 0aa1 01       		.byte	0x1
 1886 0aa2 00       		.uleb128 0
 1887 0aa3 5F5F494E 		.ascii "__INT_LEAST16_MAX__ 32767\0"
 1887      545F4C45 
 1887      41535431 
 1887      365F4D41 
 1887      585F5F20 
 1888 0abd 01       		.byte	0x1
 1889 0abe 00       		.uleb128 0
 1890 0abf 5F5F494E 		.ascii "__INT16_C(c) c\0"
 1890      5431365F 
 1890      43286329 
 1890      206300
 1891 0ace 01       		.byte	0x1
 1892 0acf 00       		.uleb128 0
 1893 0ad0 5F5F494E 		.ascii "__INT_LEAST32_MAX__ 2147483647\0"
 1893      545F4C45 
 1893      41535433 
 1893      325F4D41 
 1893      585F5F20 
 1894 0aef 01       		.byte	0x1
 1895 0af0 00       		.uleb128 0
 1896 0af1 5F5F494E 		.ascii "__INT32_C(c) c\0"
 1896      5433325F 
 1896      43286329 
 1896      206300
 1897 0b00 01       		.byte	0x1
 1898 0b01 00       		.uleb128 0
 1899 0b02 5F5F494E 		.ascii "__INT_LEAST64_MAX__ 9223372036854775807LL\0"
 1899      545F4C45 
 1899      41535436 
GAS LISTING C:\Users\PRESID~1\AppData\Local\Temp\ccLOX7Wh.s 			page 49


 1899      345F4D41 
 1899      585F5F20 
 1900 0b2c 01       		.byte	0x1
 1901 0b2d 00       		.uleb128 0
 1902 0b2e 5F5F494E 		.ascii "__INT64_C(c) c ## LL\0"
 1902      5436345F 
 1902      43286329 
 1902      20632023 
 1902      23204C4C 
 1903 0b43 01       		.byte	0x1
 1904 0b44 00       		.uleb128 0
 1905 0b45 5F5F5549 		.ascii "__UINT_LEAST8_MAX__ 255\0"
 1905      4E545F4C 
 1905      45415354 
 1905      385F4D41 
 1905      585F5F20 
 1906 0b5d 01       		.byte	0x1
 1907 0b5e 00       		.uleb128 0
 1908 0b5f 5F5F5549 		.ascii "__UINT8_C(c) c\0"
 1908      4E54385F 
 1908      43286329 
 1908      206300
 1909 0b6e 01       		.byte	0x1
 1910 0b6f 00       		.uleb128 0
 1911 0b70 5F5F5549 		.ascii "__UINT_LEAST16_MAX__ 65535\0"
 1911      4E545F4C 
 1911      45415354 
 1911      31365F4D 
 1911      41585F5F 
 1912 0b8b 01       		.byte	0x1
 1913 0b8c 00       		.uleb128 0
 1914 0b8d 5F5F5549 		.ascii "__UINT16_C(c) c\0"
 1914      4E543136 
 1914      5F432863 
 1914      29206300 
 1915 0b9d 01       		.byte	0x1
 1916 0b9e 00       		.uleb128 0
 1917 0b9f 5F5F5549 		.ascii "__UINT_LEAST32_MAX__ 4294967295U\0"
 1917      4E545F4C 
 1917      45415354 
 1917      33325F4D 
 1917      41585F5F 
 1918 0bc0 01       		.byte	0x1
 1919 0bc1 00       		.uleb128 0
 1920 0bc2 5F5F5549 		.ascii "__UINT32_C(c) c ## U\0"
 1920      4E543332 
 1920      5F432863 
 1920      29206320 
 1920      23232055 
 1921 0bd7 01       		.byte	0x1
 1922 0bd8 00       		.uleb128 0
 1923 0bd9 5F5F5549 		.ascii "__UINT_LEAST64_MAX__ 18446744073709551615ULL\0"
 1923      4E545F4C 
 1923      45415354 
 1923      36345F4D 
 1923      41585F5F 
 1924 0c06 01       		.byte	0x1
GAS LISTING C:\Users\PRESID~1\AppData\Local\Temp\ccLOX7Wh.s 			page 50


 1925 0c07 00       		.uleb128 0
 1926 0c08 5F5F5549 		.ascii "__UINT64_C(c) c ## ULL\0"
 1926      4E543634 
 1926      5F432863 
 1926      29206320 
 1926      23232055 
 1927 0c1f 01       		.byte	0x1
 1928 0c20 00       		.uleb128 0
 1929 0c21 5F5F494E 		.ascii "__INT_FAST8_MAX__ 127\0"
 1929      545F4641 
 1929      5354385F 
 1929      4D41585F 
 1929      5F203132 
 1930 0c37 01       		.byte	0x1
 1931 0c38 00       		.uleb128 0
 1932 0c39 5F5F494E 		.ascii "__INT_FAST16_MAX__ 32767\0"
 1932      545F4641 
 1932      53543136 
 1932      5F4D4158 
 1932      5F5F2033 
 1933 0c52 01       		.byte	0x1
 1934 0c53 00       		.uleb128 0
 1935 0c54 5F5F494E 		.ascii "__INT_FAST32_MAX__ 2147483647\0"
 1935      545F4641 
 1935      53543332 
 1935      5F4D4158 
 1935      5F5F2032 
 1936 0c72 01       		.byte	0x1
 1937 0c73 00       		.uleb128 0
 1938 0c74 5F5F494E 		.ascii "__INT_FAST64_MAX__ 9223372036854775807LL\0"
 1938      545F4641 
 1938      53543634 
 1938      5F4D4158 
 1938      5F5F2039 
 1939 0c9d 01       		.byte	0x1
 1940 0c9e 00       		.uleb128 0
 1941 0c9f 5F5F5549 		.ascii "__UINT_FAST8_MAX__ 255\0"
 1941      4E545F46 
 1941      41535438 
 1941      5F4D4158 
 1941      5F5F2032 
 1942 0cb6 01       		.byte	0x1
 1943 0cb7 00       		.uleb128 0
 1944 0cb8 5F5F5549 		.ascii "__UINT_FAST16_MAX__ 65535\0"
 1944      4E545F46 
 1944      41535431 
 1944      365F4D41 
 1944      585F5F20 
 1945 0cd2 01       		.byte	0x1
 1946 0cd3 00       		.uleb128 0
 1947 0cd4 5F5F5549 		.ascii "__UINT_FAST32_MAX__ 4294967295U\0"
 1947      4E545F46 
 1947      41535433 
 1947      325F4D41 
 1947      585F5F20 
 1948 0cf4 01       		.byte	0x1
 1949 0cf5 00       		.uleb128 0
GAS LISTING C:\Users\PRESID~1\AppData\Local\Temp\ccLOX7Wh.s 			page 51


 1950 0cf6 5F5F5549 		.ascii "__UINT_FAST64_MAX__ 18446744073709551615ULL\0"
 1950      4E545F46 
 1950      41535436 
 1950      345F4D41 
 1950      585F5F20 
 1951 0d22 01       		.byte	0x1
 1952 0d23 00       		.uleb128 0
 1953 0d24 5F5F494E 		.ascii "__INTPTR_MAX__ 2147483647\0"
 1953      54505452 
 1953      5F4D4158 
 1953      5F5F2032 
 1953      31343734 
 1954 0d3e 01       		.byte	0x1
 1955 0d3f 00       		.uleb128 0
 1956 0d40 5F5F5549 		.ascii "__UINTPTR_MAX__ 4294967295U\0"
 1956      4E545054 
 1956      525F4D41 
 1956      585F5F20 
 1956      34323934 
 1957 0d5c 01       		.byte	0x1
 1958 0d5d 00       		.uleb128 0
 1959 0d5e 5F5F4743 		.ascii "__GCC_IEC_559 2\0"
 1959      435F4945 
 1959      435F3535 
 1959      39203200 
 1960 0d6e 01       		.byte	0x1
 1961 0d6f 00       		.uleb128 0
 1962 0d70 5F5F4743 		.ascii "__GCC_IEC_559_COMPLEX 2\0"
 1962      435F4945 
 1962      435F3535 
 1962      395F434F 
 1962      4D504C45 
 1963 0d88 01       		.byte	0x1
 1964 0d89 00       		.uleb128 0
 1965 0d8a 5F5F464C 		.ascii "__FLT_EVAL_METHOD__ 2\0"
 1965      545F4556 
 1965      414C5F4D 
 1965      4554484F 
 1965      445F5F20 
 1966 0da0 01       		.byte	0x1
 1967 0da1 00       		.uleb128 0
 1968 0da2 5F5F4445 		.ascii "__DEC_EVAL_METHOD__ 2\0"
 1968      435F4556 
 1968      414C5F4D 
 1968      4554484F 
 1968      445F5F20 
 1969 0db8 01       		.byte	0x1
 1970 0db9 00       		.uleb128 0
 1971 0dba 5F5F464C 		.ascii "__FLT_RADIX__ 2\0"
 1971      545F5241 
 1971      4449585F 
 1971      5F203200 
 1972 0dca 01       		.byte	0x1
 1973 0dcb 00       		.uleb128 0
 1974 0dcc 5F5F464C 		.ascii "__FLT_MANT_DIG__ 24\0"
 1974      545F4D41 
 1974      4E545F44 
GAS LISTING C:\Users\PRESID~1\AppData\Local\Temp\ccLOX7Wh.s 			page 52


 1974      49475F5F 
 1974      20323400 
 1975 0de0 01       		.byte	0x1
 1976 0de1 00       		.uleb128 0
 1977 0de2 5F5F464C 		.ascii "__FLT_DIG__ 6\0"
 1977      545F4449 
 1977      475F5F20 
 1977      3600
 1978 0df0 01       		.byte	0x1
 1979 0df1 00       		.uleb128 0
 1980 0df2 5F5F464C 		.ascii "__FLT_MIN_EXP__ (-125)\0"
 1980      545F4D49 
 1980      4E5F4558 
 1980      505F5F20 
 1980      282D3132 
 1981 0e09 01       		.byte	0x1
 1982 0e0a 00       		.uleb128 0
 1983 0e0b 5F5F464C 		.ascii "__FLT_MIN_10_EXP__ (-37)\0"
 1983      545F4D49 
 1983      4E5F3130 
 1983      5F455850 
 1983      5F5F2028 
 1984 0e24 01       		.byte	0x1
 1985 0e25 00       		.uleb128 0
 1986 0e26 5F5F464C 		.ascii "__FLT_MAX_EXP__ 128\0"
 1986      545F4D41 
 1986      585F4558 
 1986      505F5F20 
 1986      31323800 
 1987 0e3a 01       		.byte	0x1
 1988 0e3b 00       		.uleb128 0
 1989 0e3c 5F5F464C 		.ascii "__FLT_MAX_10_EXP__ 38\0"
 1989      545F4D41 
 1989      585F3130 
 1989      5F455850 
 1989      5F5F2033 
 1990 0e52 01       		.byte	0x1
 1991 0e53 00       		.uleb128 0
 1992 0e54 5F5F464C 		.ascii "__FLT_DECIMAL_DIG__ 9\0"
 1992      545F4445 
 1992      43494D41 
 1992      4C5F4449 
 1992      475F5F20 
 1993 0e6a 01       		.byte	0x1
 1994 0e6b 00       		.uleb128 0
 1995 0e6c 5F5F464C 		.ascii "__FLT_MAX__ 3.40282346638528859812e+38F\0"
 1995      545F4D41 
 1995      585F5F20 
 1995      332E3430 
 1995      32383233 
 1996 0e94 01       		.byte	0x1
 1997 0e95 00       		.uleb128 0
 1998 0e96 5F5F464C 		.ascii "__FLT_MIN__ 1.17549435082228750797e-38F\0"
 1998      545F4D49 
 1998      4E5F5F20 
 1998      312E3137 
 1998      35343934 
GAS LISTING C:\Users\PRESID~1\AppData\Local\Temp\ccLOX7Wh.s 			page 53


 1999 0ebe 01       		.byte	0x1
 2000 0ebf 00       		.uleb128 0
 2001 0ec0 5F5F464C 		.ascii "__FLT_EPSILON__ 1.19209289550781250000e-7F\0"
 2001      545F4550 
 2001      53494C4F 
 2001      4E5F5F20 
 2001      312E3139 
 2002 0eeb 01       		.byte	0x1
 2003 0eec 00       		.uleb128 0
 2004 0eed 5F5F464C 		.ascii "__FLT_DENORM_MIN__ 1.40129846432481707092e-45F\0"
 2004      545F4445 
 2004      4E4F524D 
 2004      5F4D494E 
 2004      5F5F2031 
 2005 0f1c 01       		.byte	0x1
 2006 0f1d 00       		.uleb128 0
 2007 0f1e 5F5F464C 		.ascii "__FLT_HAS_DENORM__ 1\0"
 2007      545F4841 
 2007      535F4445 
 2007      4E4F524D 
 2007      5F5F2031 
 2008 0f33 01       		.byte	0x1
 2009 0f34 00       		.uleb128 0
 2010 0f35 5F5F464C 		.ascii "__FLT_HAS_INFINITY__ 1\0"
 2010      545F4841 
 2010      535F494E 
 2010      46494E49 
 2010      54595F5F 
 2011 0f4c 01       		.byte	0x1
 2012 0f4d 00       		.uleb128 0
 2013 0f4e 5F5F464C 		.ascii "__FLT_HAS_QUIET_NAN__ 1\0"
 2013      545F4841 
 2013      535F5155 
 2013      4945545F 
 2013      4E414E5F 
 2014 0f66 01       		.byte	0x1
 2015 0f67 00       		.uleb128 0
 2016 0f68 5F5F4442 		.ascii "__DBL_MANT_DIG__ 53\0"
 2016      4C5F4D41 
 2016      4E545F44 
 2016      49475F5F 
 2016      20353300 
 2017 0f7c 01       		.byte	0x1
 2018 0f7d 00       		.uleb128 0
 2019 0f7e 5F5F4442 		.ascii "__DBL_DIG__ 15\0"
 2019      4C5F4449 
 2019      475F5F20 
 2019      313500
 2020 0f8d 01       		.byte	0x1
 2021 0f8e 00       		.uleb128 0
 2022 0f8f 5F5F4442 		.ascii "__DBL_MIN_EXP__ (-1021)\0"
 2022      4C5F4D49 
 2022      4E5F4558 
 2022      505F5F20 
 2022      282D3130 
 2023 0fa7 01       		.byte	0x1
 2024 0fa8 00       		.uleb128 0
GAS LISTING C:\Users\PRESID~1\AppData\Local\Temp\ccLOX7Wh.s 			page 54


 2025 0fa9 5F5F4442 		.ascii "__DBL_MIN_10_EXP__ (-307)\0"
 2025      4C5F4D49 
 2025      4E5F3130 
 2025      5F455850 
 2025      5F5F2028 
 2026 0fc3 01       		.byte	0x1
 2027 0fc4 00       		.uleb128 0
 2028 0fc5 5F5F4442 		.ascii "__DBL_MAX_EXP__ 1024\0"
 2028      4C5F4D41 
 2028      585F4558 
 2028      505F5F20 
 2028      31303234 
 2029 0fda 01       		.byte	0x1
 2030 0fdb 00       		.uleb128 0
 2031 0fdc 5F5F4442 		.ascii "__DBL_MAX_10_EXP__ 308\0"
 2031      4C5F4D41 
 2031      585F3130 
 2031      5F455850 
 2031      5F5F2033 
 2032 0ff3 01       		.byte	0x1
 2033 0ff4 00       		.uleb128 0
 2034 0ff5 5F5F4442 		.ascii "__DBL_DECIMAL_DIG__ 17\0"
 2034      4C5F4445 
 2034      43494D41 
 2034      4C5F4449 
 2034      475F5F20 
 2035 100c 01       		.byte	0x1
 2036 100d 00       		.uleb128 0
 2037 100e 5F5F4442 		.ascii "__DBL_MAX__ ((double)1.79769313486231570815e+308L)\0"
 2037      4C5F4D41 
 2037      585F5F20 
 2037      2828646F 
 2037      75626C65 
 2038 1041 01       		.byte	0x1
 2039 1042 00       		.uleb128 0
 2040 1043 5F5F4442 		.ascii "__DBL_MIN__ ((double)2.22507385850720138309e-308L)\0"
 2040      4C5F4D49 
 2040      4E5F5F20 
 2040      2828646F 
 2040      75626C65 
 2041 1076 01       		.byte	0x1
 2042 1077 00       		.uleb128 0
 2043 1078 5F5F4442 		.ascii "__DBL_EPSILON__ ((double)2.22044604925031308085e-16L)\0"
 2043      4C5F4550 
 2043      53494C4F 
 2043      4E5F5F20 
 2043      2828646F 
 2044 10ae 01       		.byte	0x1
 2045 10af 00       		.uleb128 0
 2046 10b0 5F5F4442 		.ascii "__DBL_DENORM_MIN__ ((double)4.94065645841246544177e-324L)\0"
 2046      4C5F4445 
 2046      4E4F524D 
 2046      5F4D494E 
 2046      5F5F2028 
 2047 10ea 01       		.byte	0x1
 2048 10eb 00       		.uleb128 0
 2049 10ec 5F5F4442 		.ascii "__DBL_HAS_DENORM__ 1\0"
GAS LISTING C:\Users\PRESID~1\AppData\Local\Temp\ccLOX7Wh.s 			page 55


 2049      4C5F4841 
 2049      535F4445 
 2049      4E4F524D 
 2049      5F5F2031 
 2050 1101 01       		.byte	0x1
 2051 1102 00       		.uleb128 0
 2052 1103 5F5F4442 		.ascii "__DBL_HAS_INFINITY__ 1\0"
 2052      4C5F4841 
 2052      535F494E 
 2052      46494E49 
 2052      54595F5F 
 2053 111a 01       		.byte	0x1
 2054 111b 00       		.uleb128 0
 2055 111c 5F5F4442 		.ascii "__DBL_HAS_QUIET_NAN__ 1\0"
 2055      4C5F4841 
 2055      535F5155 
 2055      4945545F 
 2055      4E414E5F 
 2056 1134 01       		.byte	0x1
 2057 1135 00       		.uleb128 0
 2058 1136 5F5F4C44 		.ascii "__LDBL_MANT_DIG__ 64\0"
 2058      424C5F4D 
 2058      414E545F 
 2058      4449475F 
 2058      5F203634 
 2059 114b 01       		.byte	0x1
 2060 114c 00       		.uleb128 0
 2061 114d 5F5F4C44 		.ascii "__LDBL_DIG__ 18\0"
 2061      424C5F44 
 2061      49475F5F 
 2061      20313800 
 2062 115d 01       		.byte	0x1
 2063 115e 00       		.uleb128 0
 2064 115f 5F5F4C44 		.ascii "__LDBL_MIN_EXP__ (-16381)\0"
 2064      424C5F4D 
 2064      494E5F45 
 2064      58505F5F 
 2064      20282D31 
 2065 1179 01       		.byte	0x1
 2066 117a 00       		.uleb128 0
 2067 117b 5F5F4C44 		.ascii "__LDBL_MIN_10_EXP__ (-4931)\0"
 2067      424C5F4D 
 2067      494E5F31 
 2067      305F4558 
 2067      505F5F20 
 2068 1197 01       		.byte	0x1
 2069 1198 00       		.uleb128 0
 2070 1199 5F5F4C44 		.ascii "__LDBL_MAX_EXP__ 16384\0"
 2070      424C5F4D 
 2070      41585F45 
 2070      58505F5F 
 2070      20313633 
 2071 11b0 01       		.byte	0x1
 2072 11b1 00       		.uleb128 0
 2073 11b2 5F5F4C44 		.ascii "__LDBL_MAX_10_EXP__ 4932\0"
 2073      424C5F4D 
 2073      41585F31 
GAS LISTING C:\Users\PRESID~1\AppData\Local\Temp\ccLOX7Wh.s 			page 56


 2073      305F4558 
 2073      505F5F20 
 2074 11cb 01       		.byte	0x1
 2075 11cc 00       		.uleb128 0
 2076 11cd 5F5F4445 		.ascii "__DECIMAL_DIG__ 21\0"
 2076      43494D41 
 2076      4C5F4449 
 2076      475F5F20 
 2076      323100
 2077 11e0 01       		.byte	0x1
 2078 11e1 00       		.uleb128 0
 2079 11e2 5F5F4C44 		.ascii "__LDBL_MAX__ 1.18973149535723176502e+4932L\0"
 2079      424C5F4D 
 2079      41585F5F 
 2079      20312E31 
 2079      38393733 
 2080 120d 01       		.byte	0x1
 2081 120e 00       		.uleb128 0
 2082 120f 5F5F4C44 		.ascii "__LDBL_MIN__ 3.36210314311209350626e-4932L\0"
 2082      424C5F4D 
 2082      494E5F5F 
 2082      20332E33 
 2082      36323130 
 2083 123a 01       		.byte	0x1
 2084 123b 00       		.uleb128 0
 2085 123c 5F5F4C44 		.ascii "__LDBL_EPSILON__ 1.08420217248550443401e-19L\0"
 2085      424C5F45 
 2085      5053494C 
 2085      4F4E5F5F 
 2085      20312E30 
 2086 1269 01       		.byte	0x1
 2087 126a 00       		.uleb128 0
 2088 126b 5F5F4C44 		.ascii "__LDBL_DENORM_MIN__ 3.64519953188247460253e-4951L\0"
 2088      424C5F44 
 2088      454E4F52 
 2088      4D5F4D49 
 2088      4E5F5F20 
 2089 129d 01       		.byte	0x1
 2090 129e 00       		.uleb128 0
 2091 129f 5F5F4C44 		.ascii "__LDBL_HAS_DENORM__ 1\0"
 2091      424C5F48 
 2091      41535F44 
 2091      454E4F52 
 2091      4D5F5F20 
 2092 12b5 01       		.byte	0x1
 2093 12b6 00       		.uleb128 0
 2094 12b7 5F5F4C44 		.ascii "__LDBL_HAS_INFINITY__ 1\0"
 2094      424C5F48 
 2094      41535F49 
 2094      4E46494E 
 2094      4954595F 
 2095 12cf 01       		.byte	0x1
 2096 12d0 00       		.uleb128 0
 2097 12d1 5F5F4C44 		.ascii "__LDBL_HAS_QUIET_NAN__ 1\0"
 2097      424C5F48 
 2097      41535F51 
 2097      55494554 
GAS LISTING C:\Users\PRESID~1\AppData\Local\Temp\ccLOX7Wh.s 			page 57


 2097      5F4E414E 
 2098 12ea 01       		.byte	0x1
 2099 12eb 00       		.uleb128 0
 2100 12ec 5F5F4445 		.ascii "__DEC32_MANT_DIG__ 7\0"
 2100      4333325F 
 2100      4D414E54 
 2100      5F444947 
 2100      5F5F2037 
 2101 1301 01       		.byte	0x1
 2102 1302 00       		.uleb128 0
 2103 1303 5F5F4445 		.ascii "__DEC32_MIN_EXP__ (-94)\0"
 2103      4333325F 
 2103      4D494E5F 
 2103      4558505F 
 2103      5F20282D 
 2104 131b 01       		.byte	0x1
 2105 131c 00       		.uleb128 0
 2106 131d 5F5F4445 		.ascii "__DEC32_MAX_EXP__ 97\0"
 2106      4333325F 
 2106      4D41585F 
 2106      4558505F 
 2106      5F203937 
 2107 1332 01       		.byte	0x1
 2108 1333 00       		.uleb128 0
 2109 1334 5F5F4445 		.ascii "__DEC32_MIN__ 1E-95DF\0"
 2109      4333325F 
 2109      4D494E5F 
 2109      5F203145 
 2109      2D393544 
 2110 134a 01       		.byte	0x1
 2111 134b 00       		.uleb128 0
 2112 134c 5F5F4445 		.ascii "__DEC32_MAX__ 9.999999E96DF\0"
 2112      4333325F 
 2112      4D41585F 
 2112      5F20392E 
 2112      39393939 
 2113 1368 01       		.byte	0x1
 2114 1369 00       		.uleb128 0
 2115 136a 5F5F4445 		.ascii "__DEC32_EPSILON__ 1E-6DF\0"
 2115      4333325F 
 2115      45505349 
 2115      4C4F4E5F 
 2115      5F203145 
 2116 1383 01       		.byte	0x1
 2117 1384 00       		.uleb128 0
 2118 1385 5F5F4445 		.ascii "__DEC32_SUBNORMAL_MIN__ 0.000001E-95DF\0"
 2118      4333325F 
 2118      5355424E 
 2118      4F524D41 
 2118      4C5F4D49 
 2119 13ac 01       		.byte	0x1
 2120 13ad 00       		.uleb128 0
 2121 13ae 5F5F4445 		.ascii "__DEC64_MANT_DIG__ 16\0"
 2121      4336345F 
 2121      4D414E54 
 2121      5F444947 
 2121      5F5F2031 
GAS LISTING C:\Users\PRESID~1\AppData\Local\Temp\ccLOX7Wh.s 			page 58


 2122 13c4 01       		.byte	0x1
 2123 13c5 00       		.uleb128 0
 2124 13c6 5F5F4445 		.ascii "__DEC64_MIN_EXP__ (-382)\0"
 2124      4336345F 
 2124      4D494E5F 
 2124      4558505F 
 2124      5F20282D 
 2125 13df 01       		.byte	0x1
 2126 13e0 00       		.uleb128 0
 2127 13e1 5F5F4445 		.ascii "__DEC64_MAX_EXP__ 385\0"
 2127      4336345F 
 2127      4D41585F 
 2127      4558505F 
 2127      5F203338 
 2128 13f7 01       		.byte	0x1
 2129 13f8 00       		.uleb128 0
 2130 13f9 5F5F4445 		.ascii "__DEC64_MIN__ 1E-383DD\0"
 2130      4336345F 
 2130      4D494E5F 
 2130      5F203145 
 2130      2D333833 
 2131 1410 01       		.byte	0x1
 2132 1411 00       		.uleb128 0
 2133 1412 5F5F4445 		.ascii "__DEC64_MAX__ 9.999999999999999E384DD\0"
 2133      4336345F 
 2133      4D41585F 
 2133      5F20392E 
 2133      39393939 
 2134 1438 01       		.byte	0x1
 2135 1439 00       		.uleb128 0
 2136 143a 5F5F4445 		.ascii "__DEC64_EPSILON__ 1E-15DD\0"
 2136      4336345F 
 2136      45505349 
 2136      4C4F4E5F 
 2136      5F203145 
 2137 1454 01       		.byte	0x1
 2138 1455 00       		.uleb128 0
 2139 1456 5F5F4445 		.ascii "__DEC64_SUBNORMAL_MIN__ 0.000000000000001E-383DD\0"
 2139      4336345F 
 2139      5355424E 
 2139      4F524D41 
 2139      4C5F4D49 
 2140 1487 01       		.byte	0x1
 2141 1488 00       		.uleb128 0
 2142 1489 5F5F4445 		.ascii "__DEC128_MANT_DIG__ 34\0"
 2142      43313238 
 2142      5F4D414E 
 2142      545F4449 
 2142      475F5F20 
 2143 14a0 01       		.byte	0x1
 2144 14a1 00       		.uleb128 0
 2145 14a2 5F5F4445 		.ascii "__DEC128_MIN_EXP__ (-6142)\0"
 2145      43313238 
 2145      5F4D494E 
 2145      5F455850 
 2145      5F5F2028 
 2146 14bd 01       		.byte	0x1
GAS LISTING C:\Users\PRESID~1\AppData\Local\Temp\ccLOX7Wh.s 			page 59


 2147 14be 00       		.uleb128 0
 2148 14bf 5F5F4445 		.ascii "__DEC128_MAX_EXP__ 6145\0"
 2148      43313238 
 2148      5F4D4158 
 2148      5F455850 
 2148      5F5F2036 
 2149 14d7 01       		.byte	0x1
 2150 14d8 00       		.uleb128 0
 2151 14d9 5F5F4445 		.ascii "__DEC128_MIN__ 1E-6143DL\0"
 2151      43313238 
 2151      5F4D494E 
 2151      5F5F2031 
 2151      452D3631 
 2152 14f2 01       		.byte	0x1
 2153 14f3 00       		.uleb128 0
 2154 14f4 5F5F4445 		.ascii "__DEC128_MAX__ 9.999999999999999999999999999999999E6144DL\0"
 2154      43313238 
 2154      5F4D4158 
 2154      5F5F2039 
 2154      2E393939 
 2155 152e 01       		.byte	0x1
 2156 152f 00       		.uleb128 0
 2157 1530 5F5F4445 		.ascii "__DEC128_EPSILON__ 1E-33DL\0"
 2157      43313238 
 2157      5F455053 
 2157      494C4F4E 
 2157      5F5F2031 
 2158 154b 01       		.byte	0x1
 2159 154c 00       		.uleb128 0
 2160 154d 5F5F4445 		.ascii "__DEC128_SUBNORMAL_MIN__ 0.000000000000000000000000000000001E-6143DL\0"
 2160      43313238 
 2160      5F535542 
 2160      4E4F524D 
 2160      414C5F4D 
 2161 1592 01       		.byte	0x1
 2162 1593 00       		.uleb128 0
 2163 1594 5F5F5245 		.ascii "__REGISTER_PREFIX__ \0"
 2163      47495354 
 2163      45525F50 
 2163      52454649 
 2163      585F5F20 
 2164 15a9 01       		.byte	0x1
 2165 15aa 00       		.uleb128 0
 2166 15ab 5F5F5553 		.ascii "__USER_LABEL_PREFIX__ _\0"
 2166      45525F4C 
 2166      4142454C 
 2166      5F505245 
 2166      4649585F 
 2167 15c3 01       		.byte	0x1
 2168 15c4 00       		.uleb128 0
 2169 15c5 5F5F474E 		.ascii "__GNUC_GNU_INLINE__ 1\0"
 2169      55435F47 
 2169      4E555F49 
 2169      4E4C494E 
 2169      455F5F20 
 2170 15db 01       		.byte	0x1
 2171 15dc 00       		.uleb128 0
GAS LISTING C:\Users\PRESID~1\AppData\Local\Temp\ccLOX7Wh.s 			page 60


 2172 15dd 5F5F4E4F 		.ascii "__NO_INLINE__ 1\0"
 2172      5F494E4C 
 2172      494E455F 
 2172      5F203100 
 2173 15ed 01       		.byte	0x1
 2174 15ee 00       		.uleb128 0
 2175 15ef 5F5F5354 		.ascii "__STRICT_ANSI__ 1\0"
 2175      52494354 
 2175      5F414E53 
 2175      495F5F20 
 2175      3100
 2176 1601 01       		.byte	0x1
 2177 1602 00       		.uleb128 0
 2178 1603 5F5F4743 		.ascii "__GCC_ATOMIC_BOOL_LOCK_FREE 1\0"
 2178      435F4154 
 2178      4F4D4943 
 2178      5F424F4F 
 2178      4C5F4C4F 
 2179 1621 01       		.byte	0x1
 2180 1622 00       		.uleb128 0
 2181 1623 5F5F4743 		.ascii "__GCC_ATOMIC_CHAR_LOCK_FREE 1\0"
 2181      435F4154 
 2181      4F4D4943 
 2181      5F434841 
 2181      525F4C4F 
 2182 1641 01       		.byte	0x1
 2183 1642 00       		.uleb128 0
 2184 1643 5F5F4743 		.ascii "__GCC_ATOMIC_CHAR16_T_LOCK_FREE 1\0"
 2184      435F4154 
 2184      4F4D4943 
 2184      5F434841 
 2184      5231365F 
 2185 1665 01       		.byte	0x1
 2186 1666 00       		.uleb128 0
 2187 1667 5F5F4743 		.ascii "__GCC_ATOMIC_CHAR32_T_LOCK_FREE 1\0"
 2187      435F4154 
 2187      4F4D4943 
 2187      5F434841 
 2187      5233325F 
 2188 1689 01       		.byte	0x1
 2189 168a 00       		.uleb128 0
 2190 168b 5F5F4743 		.ascii "__GCC_ATOMIC_WCHAR_T_LOCK_FREE 1\0"
 2190      435F4154 
 2190      4F4D4943 
 2190      5F574348 
 2190      41525F54 
 2191 16ac 01       		.byte	0x1
 2192 16ad 00       		.uleb128 0
 2193 16ae 5F5F4743 		.ascii "__GCC_ATOMIC_SHORT_LOCK_FREE 1\0"
 2193      435F4154 
 2193      4F4D4943 
 2193      5F53484F 
 2193      52545F4C 
 2194 16cd 01       		.byte	0x1
 2195 16ce 00       		.uleb128 0
 2196 16cf 5F5F4743 		.ascii "__GCC_ATOMIC_INT_LOCK_FREE 1\0"
 2196      435F4154 
GAS LISTING C:\Users\PRESID~1\AppData\Local\Temp\ccLOX7Wh.s 			page 61


 2196      4F4D4943 
 2196      5F494E54 
 2196      5F4C4F43 
 2197 16ec 01       		.byte	0x1
 2198 16ed 00       		.uleb128 0
 2199 16ee 5F5F4743 		.ascii "__GCC_ATOMIC_LONG_LOCK_FREE 1\0"
 2199      435F4154 
 2199      4F4D4943 
 2199      5F4C4F4E 
 2199      475F4C4F 
 2200 170c 01       		.byte	0x1
 2201 170d 00       		.uleb128 0
 2202 170e 5F5F4743 		.ascii "__GCC_ATOMIC_LLONG_LOCK_FREE 1\0"
 2202      435F4154 
 2202      4F4D4943 
 2202      5F4C4C4F 
 2202      4E475F4C 
 2203 172d 01       		.byte	0x1
 2204 172e 00       		.uleb128 0
 2205 172f 5F5F4743 		.ascii "__GCC_ATOMIC_TEST_AND_SET_TRUEVAL 1\0"
 2205      435F4154 
 2205      4F4D4943 
 2205      5F544553 
 2205      545F414E 
 2206 1753 01       		.byte	0x1
 2207 1754 00       		.uleb128 0
 2208 1755 5F5F4743 		.ascii "__GCC_ATOMIC_POINTER_LOCK_FREE 1\0"
 2208      435F4154 
 2208      4F4D4943 
 2208      5F504F49 
 2208      4E544552 
 2209 1776 01       		.byte	0x1
 2210 1777 00       		.uleb128 0
 2211 1778 5F5F4743 		.ascii "__GCC_HAVE_DWARF2_CFI_ASM 1\0"
 2211      435F4841 
 2211      56455F44 
 2211      57415246 
 2211      325F4346 
 2212 1794 01       		.byte	0x1
 2213 1795 00       		.uleb128 0
 2214 1796 5F5F5052 		.ascii "__PRAGMA_REDEFINE_EXTNAME 1\0"
 2214      41474D41 
 2214      5F524544 
 2214      4546494E 
 2214      455F4558 
 2215 17b2 01       		.byte	0x1
 2216 17b3 00       		.uleb128 0
 2217 17b4 5F5F5349 		.ascii "__SIZEOF_WCHAR_T__ 2\0"
 2217      5A454F46 
 2217      5F574348 
 2217      41525F54 
 2217      5F5F2032 
 2218 17c9 01       		.byte	0x1
 2219 17ca 00       		.uleb128 0
 2220 17cb 5F5F5349 		.ascii "__SIZEOF_WINT_T__ 2\0"
 2220      5A454F46 
 2220      5F57494E 
GAS LISTING C:\Users\PRESID~1\AppData\Local\Temp\ccLOX7Wh.s 			page 62


 2220      545F545F 
 2220      5F203200 
 2221 17df 01       		.byte	0x1
 2222 17e0 00       		.uleb128 0
 2223 17e1 5F5F5349 		.ascii "__SIZEOF_PTRDIFF_T__ 4\0"
 2223      5A454F46 
 2223      5F505452 
 2223      44494646 
 2223      5F545F5F 
 2224 17f8 01       		.byte	0x1
 2225 17f9 00       		.uleb128 0
 2226 17fa 5F5F6933 		.ascii "__i386 1\0"
 2226      38362031 
 2226      00
 2227 1803 01       		.byte	0x1
 2228 1804 00       		.uleb128 0
 2229 1805 5F5F6933 		.ascii "__i386__ 1\0"
 2229      38365F5F 
 2229      203100
 2230 1810 01       		.byte	0x1
 2231 1811 00       		.uleb128 0
 2232 1812 5F5F4154 		.ascii "__ATOMIC_HLE_ACQUIRE 65536\0"
 2232      4F4D4943 
 2232      5F484C45 
 2232      5F414351 
 2232      55495245 
 2233 182d 01       		.byte	0x1
 2234 182e 00       		.uleb128 0
 2235 182f 5F5F4154 		.ascii "__ATOMIC_HLE_RELEASE 131072\0"
 2235      4F4D4943 
 2235      5F484C45 
 2235      5F52454C 
 2235      45415345 
 2236 184b 01       		.byte	0x1
 2237 184c 00       		.uleb128 0
 2238 184d 5F5F7475 		.ascii "__tune_i386__ 1\0"
 2238      6E655F69 
 2238      3338365F 
 2238      5F203100 
 2239 185d 01       		.byte	0x1
 2240 185e 00       		.uleb128 0
 2241 185f 5F5F636F 		.ascii "__code_model_32__ 1\0"
 2241      64655F6D 
 2241      6F64656C 
 2241      5F33325F 
 2241      5F203100 
 2242 1873 01       		.byte	0x1
 2243 1874 00       		.uleb128 0
 2244 1875 5F583836 		.ascii "_X86_ 1\0"
 2244      5F203100 
 2245 187d 01       		.byte	0x1
 2246 187e 00       		.uleb128 0
 2247 187f 5F5F7374 		.ascii "__stdcall __attribute__((__stdcall__))\0"
 2247      6463616C 
 2247      6C205F5F 
 2247      61747472 
 2247      69627574 
GAS LISTING C:\Users\PRESID~1\AppData\Local\Temp\ccLOX7Wh.s 			page 63


 2248 18a6 01       		.byte	0x1
 2249 18a7 00       		.uleb128 0
 2250 18a8 5F5F6661 		.ascii "__fastcall __attribute__((__fastcall__))\0"
 2250      73746361 
 2250      6C6C205F 
 2250      5F617474 
 2250      72696275 
 2251 18d1 01       		.byte	0x1
 2252 18d2 00       		.uleb128 0
 2253 18d3 5F5F7468 		.ascii "__thiscall __attribute__((__thiscall__))\0"
 2253      69736361 
 2253      6C6C205F 
 2253      5F617474 
 2253      72696275 
 2254 18fc 01       		.byte	0x1
 2255 18fd 00       		.uleb128 0
 2256 18fe 5F5F6364 		.ascii "__cdecl __attribute__((__cdecl__))\0"
 2256      65636C20 
 2256      5F5F6174 
 2256      74726962 
 2256      7574655F 
 2257 1921 01       		.byte	0x1
 2258 1922 00       		.uleb128 0
 2259 1923 5F5F4758 		.ascii "__GXX_MERGED_TYPEINFO_NAMES 0\0"
 2259      585F4D45 
 2259      52474544 
 2259      5F545950 
 2259      45494E46 
 2260 1941 01       		.byte	0x1
 2261 1942 00       		.uleb128 0
 2262 1943 5F5F4758 		.ascii "__GXX_TYPEINFO_EQUALITY_INLINE 0\0"
 2262      585F5459 
 2262      5045494E 
 2262      464F5F45 
 2262      5155414C 
 2263 1964 01       		.byte	0x1
 2264 1965 00       		.uleb128 0
 2265 1966 5F5F4D53 		.ascii "__MSVCRT__ 1\0"
 2265      56435254 
 2265      5F5F2031 
 2265      00
 2266 1973 01       		.byte	0x1
 2267 1974 00       		.uleb128 0
 2268 1975 5F5F4D49 		.ascii "__MINGW32__ 1\0"
 2268      4E475733 
 2268      325F5F20 
 2268      3100
 2269 1983 01       		.byte	0x1
 2270 1984 00       		.uleb128 0
 2271 1985 5F57494E 		.ascii "_WIN32 1\0"
 2271      33322031 
 2271      00
 2272 198e 01       		.byte	0x1
 2273 198f 00       		.uleb128 0
 2274 1990 5F5F5749 		.ascii "__WIN32 1\0"
 2274      4E333220 
 2274      3100
GAS LISTING C:\Users\PRESID~1\AppData\Local\Temp\ccLOX7Wh.s 			page 64


 2275 199a 01       		.byte	0x1
 2276 199b 00       		.uleb128 0
 2277 199c 5F5F5749 		.ascii "__WIN32__ 1\0"
 2277      4E33325F 
 2277      5F203100 
 2278 19a8 01       		.byte	0x1
 2279 19a9 00       		.uleb128 0
 2280 19aa 5F5F5749 		.ascii "__WINNT 1\0"
 2280      4E4E5420 
 2280      3100
 2281 19b4 01       		.byte	0x1
 2282 19b5 00       		.uleb128 0
 2283 19b6 5F5F5749 		.ascii "__WINNT__ 1\0"
 2283      4E4E545F 
 2283      5F203100 
 2284 19c2 01       		.byte	0x1
 2285 19c3 00       		.uleb128 0
 2286 19c4 5F494E54 		.ascii "_INTEGRAL_MAX_BITS 64\0"
 2286      45475241 
 2286      4C5F4D41 
 2286      585F4249 
 2286      54532036 
 2287 19da 01       		.byte	0x1
 2288 19db 00       		.uleb128 0
 2289 19dc 5F5F6465 		.ascii "__declspec(x) __attribute__((x))\0"
 2289      636C7370 
 2289      65632878 
 2289      29205F5F 
 2289      61747472 
 2290 19fd 01       		.byte	0x1
 2291 19fe 00       		.uleb128 0
 2292 19ff 5F5F4445 		.ascii "__DECIMAL_BID_FORMAT__ 1\0"
 2292      43494D41 
 2292      4C5F4249 
 2292      445F464F 
 2292      524D4154 
 2293 1a18 01       		.byte	0x1
 2294 1a19 00       		.uleb128 0
 2295 1a1a 4346475F 		.ascii "CFG_PROCESSOR 3\0"
 2295      50524F43 
 2295      4553534F 
 2295      52203300 
 2296 1a2a 03       		.byte	0x3
 2297 1a2b 00       		.uleb128 0
 2298 1a2c 01       		.uleb128 0x1
 2299              		.file 5 "E:/NeuOrga/Programmieren/c_cpp/github_os/input/src/os_base/os_firstinc.h"
 2300 1a2d 03       		.byte	0x3
 2301 1a2e 01       		.uleb128 0x1
 2302 1a2f 05       		.uleb128 0x5
 2303 1a30 01       		.byte	0x1
 2304 1a31 02       		.uleb128 0x2
 2305 1a32 5F6F735F 		.ascii "_os_firstinc_h_ \0"
 2305      66697273 
 2305      74696E63 
 2305      5F685F20 
 2305      00
 2306 1a43 03       		.byte	0x3
GAS LISTING C:\Users\PRESID~1\AppData\Local\Temp\ccLOX7Wh.s 			page 65


 2307 1a44 04       		.uleb128 0x4
 2308 1a45 02       		.uleb128 0x2
 2309 1a46 01       		.byte	0x1
 2310 1a47 02       		.uleb128 0x2
 2311 1a48 5F424153 		.ascii "_BASE_TYPES_H_ \0"
 2311      455F5459 
 2311      5045535F 
 2311      485F2000 
 2312 1a58 01       		.byte	0x1
 2313 1a59 04       		.uleb128 0x4
 2314 1a5a 494E5445 		.ascii "INTEGER_LLP64_IL32P64 1\0"
 2314      4745525F 
 2314      4C4C5036 
 2314      345F494C 
 2314      33325036 
 2315 1a72 01       		.byte	0x1
 2316 1a73 05       		.uleb128 0x5
 2317 1a74 494E5445 		.ascii "INTEGER_LP64_I32LP64 2\0"
 2317      4745525F 
 2317      4C503634 
 2317      5F493332 
 2317      4C503634 
 2318 1a8b 01       		.byte	0x1
 2319 1a8c 06       		.uleb128 0x6
 2320 1a8d 494E5445 		.ascii "INTEGER_ILP64 3\0"
 2320      4745525F 
 2320      494C5036 
 2320      34203300 
 2321 1a9d 01       		.byte	0x1
 2322 1a9e 07       		.uleb128 0x7
 2323 1a9f 494E5445 		.ascii "INTEGER_SILP64 4\0"
 2323      4745525F 
 2323      53494C50 
 2323      36342034 
 2323      00
 2324 1ab0 01       		.byte	0x1
 2325 1ab1 09       		.uleb128 0x9
 2326 1ab2 4350505F 		.ascii "CPP_VERSION_NONE 0\0"
 2326      56455253 
 2326      494F4E5F 
 2326      4E4F4E45 
 2326      203000
 2327 1ac5 01       		.byte	0x1
 2328 1ac6 0A       		.uleb128 0xa
 2329 1ac7 4350505F 		.ascii "CPP_VERSION_1998 1\0"
 2329      56455253 
 2329      494F4E5F 
 2329      31393938 
 2329      203100
 2330 1ada 01       		.byte	0x1
 2331 1adb 0B       		.uleb128 0xb
 2332 1adc 4350505F 		.ascii "CPP_VERSION_2003 2\0"
 2332      56455253 
 2332      494F4E5F 
 2332      32303033 
 2332      203200
 2333 1aef 01       		.byte	0x1
GAS LISTING C:\Users\PRESID~1\AppData\Local\Temp\ccLOX7Wh.s 			page 66


 2334 1af0 0C       		.uleb128 0xc
 2335 1af1 4350505F 		.ascii "CPP_VERSION_2007 3\0"
 2335      56455253 
 2335      494F4E5F 
 2335      32303037 
 2335      203300
 2336 1b04 01       		.byte	0x1
 2337 1b05 0D       		.uleb128 0xd
 2338 1b06 4350505F 		.ascii "CPP_VERSION_2011 4\0"
 2338      56455253 
 2338      494F4E5F 
 2338      32303131 
 2338      203400
 2339 1b19 01       		.byte	0x1
 2340 1b1a 0E       		.uleb128 0xe
 2341 1b1b 49534F5F 		.ascii "ISO_CPP_VERSION CPP_VERSION_1998\0"
 2341      4350505F 
 2341      56455253 
 2341      494F4E20 
 2341      4350505F 
 2342 1b3c 01       		.byte	0x1
 2343 1b3d 10       		.uleb128 0x10
 2344 1b3e 494E5445 		.ascii "INTEGER_MODEL INTEGER_LLP64_IL32P64\0"
 2344      4745525F 
 2344      4D4F4445 
 2344      4C20494E 
 2344      54454745 
 2345 1b62 04       		.byte	0x4
 2346 1b63 03       		.byte	0x3
 2347 1b64 05       		.uleb128 0x5
 2348 1b65 03       		.uleb128 0x3
 2349 1b66 01       		.byte	0x1
 2350 1b67 02       		.uleb128 0x2
 2351 1b68 5F6F735F 		.ascii "_os_common_h_ \0"
 2351      636F6D6D 
 2351      6F6E5F68 
 2351      5F2000
 2352 1b77 01       		.byte	0x1
 2353 1b78 06       		.uleb128 0x6
 2354 1b79 46616C73 		.ascii "False 0\0"
 2354      65203000 
 2355 1b81 01       		.byte	0x1
 2356 1b82 07       		.uleb128 0x7
 2357 1b83 54727565 		.ascii "True 1\0"
 2357      203100
 2358 1b8a 01       		.byte	0x1
 2359 1b8b 08       		.uleb128 0x8
 2360 1b8c 46414C53 		.ascii "FALSE False\0"
 2360      45204661 
 2360      6C736500 
 2361 1b98 01       		.byte	0x1
 2362 1b99 09       		.uleb128 0x9
 2363 1b9a 54525545 		.ascii "TRUE True\0"
 2363      20547275 
 2363      6500
 2364 1ba4 01       		.byte	0x1
 2365 1ba5 0A       		.uleb128 0xa
GAS LISTING C:\Users\PRESID~1\AppData\Local\Temp\ccLOX7Wh.s 			page 67


 2366 1ba6 41636365 		.ascii "Accepted 1\0"
 2366      70746564 
 2366      203100
 2367 1bb1 01       		.byte	0x1
 2368 1bb2 0B       		.uleb128 0xb
 2369 1bb3 52656A65 		.ascii "Rejected 0\0"
 2369      63746564 
 2369      203000
 2370 1bbe 01       		.byte	0x1
 2371 1bbf 0C       		.uleb128 0xc
 2372 1bc0 4C6F6361 		.ascii "Local static\0"
 2372      6C207374 
 2372      61746963 
 2372      00
 2373 1bcd 01       		.byte	0x1
 2374 1bce 0D       		.uleb128 0xd
 2375 1bcf 4C6F6361 		.ascii "Local_inline static __inline__\0"
 2375      6C5F696E 
 2375      6C696E65 
 2375      20737461 
 2375      74696320 
 2376 1bee 01       		.byte	0x1
 2377 1bef 0E       		.uleb128 0xe
 2378 1bf0 476C6F62 		.ascii "Global_inline __inline__\0"
 2378      616C5F69 
 2378      6E6C696E 
 2378      65205F5F 
 2378      696E6C69 
 2379 1c09 01       		.byte	0x1
 2380 1c0a 0F       		.uleb128 0xf
 2381 1c0b 52656665 		.ascii "ReferenceUnusedParameter(x) ((x) = (x))\0"
 2381      72656E63 
 2381      65556E75 
 2381      73656450 
 2381      6172616D 
 2382 1c33 01       		.byte	0x1
 2383 1c34 10       		.uleb128 0x10
 2384 1c35 44796E61 		.ascii "DynamicMemoryUsed False\0"
 2384      6D69634D 
 2384      656D6F72 
 2384      79557365 
 2384      64204661 
 2385 1c4d 01       		.byte	0x1
 2386 1c4e 13       		.uleb128 0x13
 2387 1c4f 634D4355 		.ascii "cMCU_X86 3\0"
 2387      5F583836 
 2387      203300
 2388 1c5a 01       		.byte	0x1
 2389 1c5b 14       		.uleb128 0x14
 2390 1c5c 634D4355 		.ascii "cMCU_CORTEX_M4 4\0"
 2390      5F434F52 
 2390      5445585F 
 2390      4D342034 
 2390      00
 2391 1c6d 01       		.byte	0x1
 2392 1c6e 17       		.uleb128 0x17
 2393 1c6f 4E525F4F 		.ascii "NR_OF_CORES 1\0"
GAS LISTING C:\Users\PRESID~1\AppData\Local\Temp\ccLOX7Wh.s 			page 68


 2393      465F434F 
 2393      52455320 
 2393      3100
 2394 1c7d 01       		.byte	0x1
 2395 1c7e 19       		.uleb128 0x19
 2396 1c7f 4D43555F 		.ascii "MCU_CLOCK_IN_HZ ((uint32)168000000u)\0"
 2396      434C4F43 
 2396      4B5F494E 
 2396      5F485A20 
 2396      28287569 
 2397 1ca4 01       		.byte	0x1
 2398 1ca5 1D       		.uleb128 0x1d
 2399 1ca6 44697361 		.ascii "DisableInterrupts() \0"
 2399      626C6549 
 2399      6E746572 
 2399      72757074 
 2399      73282920 
 2400 1cbb 01       		.byte	0x1
 2401 1cbc 1E       		.uleb128 0x1e
 2402 1cbd 456E6162 		.ascii "EnableInterrupts() \0"
 2402      6C65496E 
 2402      74657272 
 2402      75707473 
 2402      28292000 
 2403 1cd1 01       		.byte	0x1
 2404 1cd2 1F       		.uleb128 0x1f
 2405 1cd3 50726976 		.ascii "Privilige_level_save_current() \0"
 2405      696C6967 
 2405      655F6C65 
 2405      76656C5F 
 2405      73617665 
 2406 1cf3 01       		.byte	0x1
 2407 1cf4 20       		.uleb128 0x20
 2408 1cf5 50726976 		.ascii "Privilige_level_enter_kernel_mode() \0"
 2408      696C6967 
 2408      655F6C65 
 2408      76656C5F 
 2408      656E7465 
 2409 1d1a 01       		.byte	0x1
 2410 1d1b 21       		.uleb128 0x21
 2411 1d1c 50726976 		.ascii "Privilige_level_restore_saved() \0"
 2411      696C6967 
 2411      655F6C65 
 2411      76656C5F 
 2411      72657374 
 2412 1d3d 01       		.byte	0x1
 2413 1d3e 22       		.uleb128 0x22
 2414 1d3f 48616C74 		.ascii "HaltMcu() \0"
 2414      4D637528 
 2414      292000
 2415 1d4a 01       		.byte	0x1
 2416 1d4b 58       		.uleb128 0x58
 2417 1d4c 42696749 		.ascii "BigIntSize 16\0"
 2417      6E745369 
 2417      7A652031 
 2417      3600
 2418 1d5a 04       		.byte	0x4
GAS LISTING C:\Users\PRESID~1\AppData\Local\Temp\ccLOX7Wh.s 			page 69


 2419              		.file 6 "E:/NeuOrga/Programmieren/c_cpp/github_os/input/src/os_base/../os_sim/lld_global.h"
 2420 1d5b 03       		.byte	0x3
 2421 1d5c 08       		.uleb128 0x8
 2422 1d5d 06       		.uleb128 0x6
 2423 1d5e 01       		.byte	0x1
 2424 1d5f 02       		.uleb128 0x2
 2425 1d60 5F6C6C64 		.ascii "_lld_global_h_ \0"
 2425      5F676C6F 
 2425      62616C5F 
 2425      685F2000 
 2426              		.file 7 "E:/NeuOrga/Programmieren/c_cpp/github_os/input/src/os_base/../os_sim/lld_core.h"
 2427 1d70 03       		.byte	0x3
 2428 1d71 04       		.uleb128 0x4
 2429 1d72 07       		.uleb128 0x7
 2430 1d73 01       		.byte	0x1
 2431 1d74 02       		.uleb128 0x2
 2432 1d75 5F6C6C64 		.ascii "_lld_core_h_ \0"
 2432      5F636F72 
 2432      655F685F 
 2432      2000
 2433              		.file 8 "E:/NeuOrga/Programmieren/c_cpp/github_os/input/src/os_base/../os_sim/../os_base/os_firsti
 2434 1d83 03       		.byte	0x3
 2435 1d84 03       		.uleb128 0x3
 2436 1d85 08       		.uleb128 0x8
 2437 1d86 04       		.byte	0x4
 2438 1d87 04       		.byte	0x4
 2439              		.file 9 "E:/NeuOrga/Programmieren/c_cpp/github_os/input/src/os_base/../os_sim/lld_interrupt.h"
 2440 1d88 03       		.byte	0x3
 2441 1d89 05       		.uleb128 0x5
 2442 1d8a 09       		.uleb128 0x9
 2443 1d8b 01       		.byte	0x1
 2444 1d8c 02       		.uleb128 0x2
 2445 1d8d 5F6C6C64 		.ascii "_lld_interrupt_h_ \0"
 2445      5F696E74 
 2445      65727275 
 2445      70745F68 
 2445      5F2000
 2446 1da0 01       		.byte	0x1
 2447 1da1 05       		.uleb128 0x5
 2448 1da2 6F735F69 		.ascii "os_interrupt_swi_1 asm(\"swi 1\")\0"
 2448      6E746572 
 2448      72757074 
 2448      5F737769 
 2448      5F312061 
 2449 1dc2 01       		.byte	0x1
 2450 1dc3 06       		.uleb128 0x6
 2451 1dc4 6F735F69 		.ascii "os_interrupt_swi_2 asm(\"swi 2\")\0"
 2451      6E746572 
 2451      72757074 
 2451      5F737769 
 2451      5F322061 
 2452 1de4 01       		.byte	0x1
 2453 1de5 07       		.uleb128 0x7
 2454 1de6 6F735F69 		.ascii "os_interrupt_swi_3 asm(\"swi 3\")\0"
 2454      6E746572 
 2454      72757074 
 2454      5F737769 
GAS LISTING C:\Users\PRESID~1\AppData\Local\Temp\ccLOX7Wh.s 			page 70


 2454      5F332061 
 2455 1e06 01       		.byte	0x1
 2456 1e07 08       		.uleb128 0x8
 2457 1e08 6F735F69 		.ascii "os_interrupt_swi_4 asm(\"swi 4\")\0"
 2457      6E746572 
 2457      72757074 
 2457      5F737769 
 2457      5F342061 
 2458 1e28 01       		.byte	0x1
 2459 1e29 09       		.uleb128 0x9
 2460 1e2a 6F735F69 		.ascii "os_interrupt_swi_5 asm(\"swi 5\")\0"
 2460      6E746572 
 2460      72757074 
 2460      5F737769 
 2460      5F352061 
 2461 1e4a 04       		.byte	0x4
 2462              		.file 10 "E:/NeuOrga/Programmieren/c_cpp/github_os/input/src/os_base/../os_sim/lld_mmu.h"
 2463 1e4b 03       		.byte	0x3
 2464 1e4c 06       		.uleb128 0x6
 2465 1e4d 0A       		.uleb128 0xa
 2466 1e4e 01       		.byte	0x1
 2467 1e4f 02       		.uleb128 0x2
 2468 1e50 5F6C6C64 		.ascii "_lld_mmu_h_ \0"
 2468      5F6D6D75 
 2468      5F685F20 
 2468      00
 2469 1e5d 04       		.byte	0x4
 2470              		.file 11 "E:/NeuOrga/Programmieren/c_cpp/github_os/input/src/os_base/../os_sim/lld_timer.h"
 2471 1e5e 03       		.byte	0x3
 2472 1e5f 07       		.uleb128 0x7
 2473 1e60 0B       		.uleb128 0xb
 2474 1e61 01       		.byte	0x1
 2475 1e62 02       		.uleb128 0x2
 2476 1e63 5F6C6C64 		.ascii "_lld_timer_h_ \0"
 2476      5F74696D 
 2476      65725F68 
 2476      5F2000
 2477 1e72 04       		.byte	0x4
 2478              		.file 12 "E:/NeuOrga/Programmieren/c_cpp/github_os/input/src/os_base/../os_sim/lld_power.h"
 2479 1e73 03       		.byte	0x3
 2480 1e74 08       		.uleb128 0x8
 2481 1e75 0C       		.uleb128 0xc
 2482 1e76 01       		.byte	0x1
 2483 1e77 02       		.uleb128 0x2
 2484 1e78 5F6C6C64 		.ascii "_lld_power_h_ \0"
 2484      5F706F77 
 2484      65725F68 
 2484      5F2000
 2485 1e87 04       		.byte	0x4
 2486              		.file 13 "E:/NeuOrga/Programmieren/c_cpp/github_os/input/src/os_base/../os_sim/lld_ram.h"
 2487 1e88 03       		.byte	0x3
 2488 1e89 09       		.uleb128 0x9
 2489 1e8a 0D       		.uleb128 0xd
 2490 1e8b 01       		.byte	0x1
 2491 1e8c 02       		.uleb128 0x2
 2492 1e8d 5F6C6C64 		.ascii "_lld_ram_h_ \0"
 2492      5F72616D 
GAS LISTING C:\Users\PRESID~1\AppData\Local\Temp\ccLOX7Wh.s 			page 71


 2492      5F685F20 
 2492      00
 2493 1e9a 04       		.byte	0x4
 2494              		.file 14 "E:/NeuOrga/Programmieren/c_cpp/github_os/input/src/os_base/../os_sim/../os_base/os_task_
 2495 1e9b 03       		.byte	0x3
 2496 1e9c 0A       		.uleb128 0xa
 2497 1e9d 0E       		.uleb128 0xe
 2498 1e9e 01       		.byte	0x1
 2499 1e9f 02       		.uleb128 0x2
 2500 1ea0 5F6F735F 		.ascii "_os_task_common_h_ \0"
 2500      7461736B 
 2500      5F636F6D 
 2500      6D6F6E5F 
 2500      685F2000 
 2501 1eb4 03       		.byte	0x3
 2502 1eb5 03       		.uleb128 0x3
 2503 1eb6 08       		.uleb128 0x8
 2504 1eb7 04       		.byte	0x4
 2505              		.file 15 "E:/NeuOrga/Programmieren/c_cpp/github_os/input/src/os_base/../os_sim/../os_base/os_task_
 2506 1eb8 03       		.byte	0x3
 2507 1eb9 04       		.uleb128 0x4
 2508 1eba 0F       		.uleb128 0xf
 2509 1ebb 01       		.byte	0x1
 2510 1ebc 02       		.uleb128 0x2
 2511 1ebd 5F6F735F 		.ascii "_os_task_config_h_ \0"
 2511      7461736B 
 2511      5F636F6E 
 2511      6669675F 
 2511      685F2000 
 2512 1ed1 01       		.byte	0x1
 2513 1ed2 05       		.uleb128 0x5
 2514 1ed3 53636865 		.ascii "SchedulerFrequency (1.0e3)\0"
 2514      64756C65 
 2514      72467265 
 2514      7175656E 
 2514      63792028 
 2515 1eee 01       		.byte	0x1
 2516 1eef 06       		.uleb128 0x6
 2517 1ef0 4D696E54 		.ascii "MinTimeSlice_s (1.0/SchedulerFrequency)\0"
 2517      696D6553 
 2517      6C696365 
 2517      5F732028 
 2517      312E302F 
 2518 1f18 01       		.byte	0x1
 2519 1f19 07       		.uleb128 0x7
 2520 1f1a 4D696E54 		.ascii "MinTimeSlice_us ((1.0/SchedulerFrequency)*1e6)\0"
 2520      696D6553 
 2520      6C696365 
 2520      5F757320 
 2520      2828312E 
 2521 1f49 01       		.byte	0x1
 2522 1f4a 08       		.uleb128 0x8
 2523 1f4b 5461736B 		.ascii "Task_min_time (1e0)\0"
 2523      5F6D696E 
 2523      5F74696D 
 2523      65202831 
 2523      65302900 
GAS LISTING C:\Users\PRESID~1\AppData\Local\Temp\ccLOX7Wh.s 			page 72


 2524 1f5f 01       		.byte	0x1
 2525 1f60 09       		.uleb128 0x9
 2526 1f61 4E554D42 		.ascii "NUMBER_OF_TASKS 10\0"
 2526      45525F4F 
 2526      465F5441 
 2526      534B5320 
 2526      313000
 2527 1f74 01       		.byte	0x1
 2528 1f75 0A       		.uleb128 0xa
 2529 1f76 4D41585F 		.ascii "MAX_RUN_QUEUE_SIZE (NUMBER_OF_TASKS)\0"
 2529      52554E5F 
 2529      51554555 
 2529      455F5349 
 2529      5A452028 
 2530 1f9b 01       		.byte	0x1
 2531 1f9c 0B       		.uleb128 0xb
 2532 1f9d 4D41585F 		.ascii "MAX_RUN_PQUEUE_SIZE MAX_RUN_QUEUE_SIZE\0"
 2532      52554E5F 
 2532      50515545 
 2532      55455F53 
 2532      495A4520 
 2533 1fc4 01       		.byte	0x1
 2534 1fc5 0D       		.uleb128 0xd
 2535 1fc6 5441534B 		.ascii "TASK_STACK_SIZE 2000\0"
 2535      5F535441 
 2535      434B5F53 
 2535      495A4520 
 2535      32303030 
 2536 1fdb 01       		.byte	0x1
 2537 1fdc 10       		.uleb128 0x10
 2538 1fdd 4D535F50 		.ascii "MS_PER_SEC (1000)\0"
 2538      45525F53 
 2538      45432028 
 2538      31303030 
 2538      2900
 2539 1fef 01       		.byte	0x1
 2540 1ff0 11       		.uleb128 0x11
 2541 1ff1 5553455F 		.ascii "USE_STATIC_CREATED_TASKS True\0"
 2541      53544154 
 2541      49435F43 
 2541      52454154 
 2541      45445F54 
 2542 200f 04       		.byte	0x4
 2543              		.file 16 "E:/NeuOrga/Programmieren/c_cpp/github_os/input/src/os_base/../os_sim/../os_base/os_init_
 2544 2010 03       		.byte	0x3
 2545 2011 05       		.uleb128 0x5
 2546 2012 10       		.uleb128 0x10
 2547 2013 01       		.byte	0x1
 2548 2014 02       		.uleb128 0x2
 2549 2015 5F6F735F 		.ascii "_os_init_task_system_h_ \0"
 2549      696E6974 
 2549      5F746173 
 2549      6B5F7379 
 2549      7374656D 
 2550 202e 04       		.byte	0x4
 2551 202f 01       		.byte	0x1
 2552 2030 5F       		.uleb128 0x5f
GAS LISTING C:\Users\PRESID~1\AppData\Local\Temp\ccLOX7Wh.s 			page 73


 2553 2031 6F735F53 		.ascii "os_SaveTaskPtr(task_ptr,task_name) (TASK_PTR[(task_name)] = (task_ptr))\0"
 2553      61766554 
 2553      61736B50 
 2553      74722874 
 2553      61736B5F 
 2554 2079 01       		.byte	0x1
 2555 207a 60       		.uleb128 0x60
 2556 207b 6F735F47 		.ascii "os_GetTaskPtr(task_name) ((task_t*) TASK_PTR[(task_name)])\0"
 2556      65745461 
 2556      736B5074 
 2556      72287461 
 2556      736B5F6E 
 2557 20b6 04       		.byte	0x4
 2558 20b7 04       		.byte	0x4
 2559              		.file 17 "E:/NeuOrga/Programmieren/c_cpp/github_os/input/src/os_base/../os_user_code/led.h"
 2560 20b8 03       		.byte	0x3
 2561 20b9 0C       		.uleb128 0xc
 2562 20ba 11       		.uleb128 0x11
 2563 20bb 01       		.byte	0x1
 2564 20bc 02       		.uleb128 0x2
 2565 20bd 5F4C4544 		.ascii "_LED_H_ \0"
 2565      5F485F20 
 2565      00
 2566 20c6 04       		.byte	0x4
 2567 20c7 03       		.byte	0x3
 2568 20c8 0E       		.uleb128 0xe
 2569 20c9 04       		.uleb128 0x4
 2570 20ca 01       		.byte	0x1
 2571 20cb 02       		.uleb128 0x2
 2572 20cc 5F4F535F 		.ascii "_OS_RAM_H_ \0"
 2572      52414D5F 
 2572      485F2000 
 2573              		.file 18 "E:/NeuOrga/Programmieren/c_cpp/github_os/input/src/os_base/../os_base/os_firstinc.h"
 2574 20d8 03       		.byte	0x3
 2575 20d9 04       		.uleb128 0x4
 2576 20da 12       		.uleb128 0x12
 2577 20db 04       		.byte	0x4
 2578              		.file 19 "E:/NeuOrga/Programmieren/c_cpp/github_os/input/src/os_base/../os_base/os_stack.h"
 2579 20dc 03       		.byte	0x3
 2580 20dd 05       		.uleb128 0x5
 2581 20de 13       		.uleb128 0x13
 2582 20df 01       		.byte	0x1
 2583 20e0 02       		.uleb128 0x2
 2584 20e1 5F6F735F 		.ascii "_os_stack_h_ \0"
 2584      73746163 
 2584      6B5F685F 
 2584      2000
 2585 20ef 01       		.byte	0x1
 2586 20f0 04       		.uleb128 0x4
 2587 20f1 4F535F53 		.ascii "OS_STACK_SIZE 0x5000u\0"
 2587      5441434B 
 2587      5F53495A 
 2587      45203078 
 2587      35303030 
 2588 2107 04       		.byte	0x4
 2589              		.file 20 "E:/NeuOrga/Programmieren/c_cpp/github_os/input/src/os_base/../os_base/os_heap.h"
 2590 2108 03       		.byte	0x3
GAS LISTING C:\Users\PRESID~1\AppData\Local\Temp\ccLOX7Wh.s 			page 74


 2591 2109 06       		.uleb128 0x6
 2592 210a 14       		.uleb128 0x14
 2593 210b 01       		.byte	0x1
 2594 210c 02       		.uleb128 0x2
 2595 210d 5F6F735F 		.ascii "_os_heap_h_ \0"
 2595      68656170 
 2595      5F685F20 
 2595      00
 2596 211a 01       		.byte	0x1
 2597 211b 05       		.uleb128 0x5
 2598 211c 48454150 		.ascii "HEAP_SIZE 10000\0"
 2598      5F53495A 
 2598      45203130 
 2598      30303000 
 2599 212c 01       		.byte	0x1
 2600 212d 06       		.uleb128 0x6
 2601 212e 4D494E5F 		.ascii "MIN_BLOCK_SIZE_HEAP 8\0"
 2601      424C4F43 
 2601      4B5F5349 
 2601      5A455F48 
 2601      45415020 
 2602 2144 01       		.byte	0x1
 2603 2145 09       		.uleb128 0x9
 2604 2146 48454150 		.ascii "HEAP_OFFSET_FOR_SIZE 0\0"
 2604      5F4F4646 
 2604      5345545F 
 2604      464F525F 
 2604      53495A45 
 2605 215d 01       		.byte	0x1
 2606 215e 0A       		.uleb128 0xa
 2607 215f 48454150 		.ascii "HEAP_OFFSET_FOR_USED_SIZE 4\0"
 2607      5F4F4646 
 2607      5345545F 
 2607      464F525F 
 2607      55534544 
 2608 217b 01       		.byte	0x1
 2609 217c 0B       		.uleb128 0xb
 2610 217d 48454150 		.ascii "HEAP_OFFSET_FOR_CHUNK 8\0"
 2610      5F4F4646 
 2610      5345545F 
 2610      464F525F 
 2610      4348554E 
 2611 2195 04       		.byte	0x4
 2612              		.file 21 "E:/NeuOrga/Programmieren/c_cpp/github_os/input/src/os_base/../os_base/os_main.h"
 2613 2196 03       		.byte	0x3
 2614 2197 07       		.uleb128 0x7
 2615 2198 15       		.uleb128 0x15
 2616 2199 01       		.byte	0x1
 2617 219a 02       		.uleb128 0x2
 2618 219b 5F6F735F 		.ascii "_os_main_h_ \0"
 2618      6D61696E 
 2618      5F685F20 
 2618      00
 2619 21a8 01       		.byte	0x1
 2620 21a9 03       		.uleb128 0x3
 2621 21aa 6F735F69 		.ascii "os_init 0\0"
 2621      6E697420 
GAS LISTING C:\Users\PRESID~1\AppData\Local\Temp\ccLOX7Wh.s 			page 75


 2621      3000
 2622 21b4 01       		.byte	0x1
 2623 21b5 04       		.uleb128 0x4
 2624 21b6 6F735F72 		.ascii "os_running 1\0"
 2624      756E6E69 
 2624      6E672031 
 2624      00
 2625 21c3 01       		.byte	0x1
 2626 21c4 05       		.uleb128 0x5
 2627 21c5 6F735F73 		.ascii "os_shutdown 2\0"
 2627      68757464 
 2627      6F776E20 
 2627      3200
 2628 21d3 04       		.byte	0x4
 2629              		.file 22 "E:/NeuOrga/Programmieren/c_cpp/github_os/input/src/os_base/../os_base/os_task_config.h"
 2630 21d4 03       		.byte	0x3
 2631 21d5 08       		.uleb128 0x8
 2632 21d6 16       		.uleb128 0x16
 2633 21d7 04       		.byte	0x4
 2634              		.file 23 "E:/NeuOrga/Programmieren/c_cpp/github_os/input/src/os_base/../os_base/os_task_common.h"
 2635 21d8 03       		.byte	0x3
 2636 21d9 09       		.uleb128 0x9
 2637 21da 17       		.uleb128 0x17
 2638 21db 04       		.byte	0x4
 2639 21dc 04       		.byte	0x4
 2640 21dd 04       		.byte	0x4
 2641              		.file 24 "E:/NeuOrga/Programmieren/c_cpp/github_os/input/src/os_base/os_task_common.h"
 2642 21de 03       		.byte	0x3
 2643 21df 02       		.uleb128 0x2
 2644 21e0 18       		.uleb128 0x18
 2645 21e1 04       		.byte	0x4
 2646 21e2 01       		.byte	0x1
 2647 21e3 08       		.uleb128 0x8
 2648 21e4 4457545F 		.ascii "DWT_CTRL ((volatile uint32*)0xE0001000)\0"
 2648      4354524C 
 2648      20282876 
 2648      6F6C6174 
 2648      696C6520 
 2649 220c 01       		.byte	0x1
 2650 220d 09       		.uleb128 0x9
 2651 220e 4457545F 		.ascii "DWT_CYCCNT ((volatile uint32*)0xE0001004)\0"
 2651      43594343 
 2651      4E542028 
 2651      28766F6C 
 2651      6174696C 
 2652 2238 01       		.byte	0x1
 2653 2239 0B       		.uleb128 0xb
 2654 223a 4457545F 		.ascii "DWT_LAR ((volatile uint32*)0xE0001FB0)\0"
 2654      4C415220 
 2654      2828766F 
 2654      6C617469 
 2654      6C652075 
 2655 2261 01       		.byte	0x1
 2656 2262 0C       		.uleb128 0xc
 2657 2263 5343425F 		.ascii "SCB_DEMCR ((volatile uint32*)0xE000EDFC)\0"
 2657      44454D43 
 2657      52202828 
GAS LISTING C:\Users\PRESID~1\AppData\Local\Temp\ccLOX7Wh.s 			page 76


 2657      766F6C61 
 2657      74696C65 
 2658 228c 04       		.byte	0x4
 2659 228d 00       		.byte	0
 2660              		.section	.debug_line,"dr"
 2661              	Ldebug_line0:
 2662 0000 0E040000 		.section	.debug_str,"dr"
 2662      0200FB02 
 2662      00000101 
 2662      FB0E0D00 
 2662      01010101 
 2663              	LASF2:
 2664 0000 49734C65 		.ascii "IsLess\0"
 2664      737300
 2665              	LASF3:
 2666 0007 6C656674 		.ascii "leftOperand\0"
 2666      4F706572 
 2666      616E6400 
 2667              	LASF0:
 2668 0013 4F706572 		.ascii "Operand1\0"
 2668      616E6431 
 2668      00
 2669              	LASF1:
 2670 001c 4F706572 		.ascii "Operand2\0"
 2670      616E6432 
 2670      00
 2671              		.ident	"GCC: (GNU) 4.9.3"
GAS LISTING C:\Users\PRESID~1\AppData\Local\Temp\ccLOX7Wh.s 			page 77


DEFINED SYMBOLS
                            *ABS*:00000000 os_common.c
C:\Users\PRESID~1\AppData\Local\Temp\ccLOX7Wh.s:6      .text:00000000 _OS_SetSwBug
C:\Users\PRESID~1\AppData\Local\Temp\ccLOX7Wh.s:29     .text:00000012 _OS_GetCurrentTime
C:\Users\PRESID~1\AppData\Local\Temp\ccLOX7Wh.s:50     .text:0000001e _OS_ResetCurrentTime
C:\Users\PRESID~1\AppData\Local\Temp\ccLOX7Wh.s:86     .text:0000005e _IntAdd
C:\Users\PRESID~1\AppData\Local\Temp\ccLOX7Wh.s:144    .text:000000be _IntSub
C:\Users\PRESID~1\AppData\Local\Temp\ccLOX7Wh.s:236    .text:00000185 _IsLess
C:\Users\PRESID~1\AppData\Local\Temp\ccLOX7Wh.s:300    .text:000001e5 _IsLessOrEqual
C:\Users\PRESID~1\AppData\Local\Temp\ccLOX7Wh.s:343    .text:00000225 _IsEqual
C:\Users\PRESID~1\AppData\Local\Temp\ccLOX7Wh.s:393    .text:00000265 _IsGreater
C:\Users\PRESID~1\AppData\Local\Temp\ccLOX7Wh.s:457    .text:000002c5 _IsGreaterOrEqual
C:\Users\PRESID~1\AppData\Local\Temp\ccLOX7Wh.s:500    .text:00000305 _Assign
C:\Users\PRESID~1\AppData\Local\Temp\ccLOX7Wh.s:538    .text:00000334 _AssignNull

UNDEFINED SYMBOLS
_OS_SW_BUG
