GAS LISTING C:\Users\PRESID~1\AppData\Local\Temp\cccQu4Io.s 			page 1


   1              		.file	"os_common.c"
   2              		.text
   3              	Ltext0:
   4              		.globl	_OS_SetSwBug
   6              	_OS_SetSwBug:
   7              	LFB0:
   8              		.file 1 "E:/NeuOrga/Programmieren/c_cpp/github_os/input/src/os_base/os_common.c"
   1:E:/NeuOrga/Programmieren/c_cpp/github_os/input/src/os_base\os_common.c **** #include "os_firstinc.h"
   2:E:/NeuOrga/Programmieren/c_cpp/github_os/input/src/os_base\os_common.c **** #include "os_task_common.h"
   3:E:/NeuOrga/Programmieren/c_cpp/github_os/input/src/os_base\os_common.c **** 
   4:E:/NeuOrga/Programmieren/c_cpp/github_os/input/src/os_base\os_common.c **** void OS_SetSwBug(os_sw_bugs_t bug_nr, os_sw_bugs_function_t task_func_nr)
   5:E:/NeuOrga/Programmieren/c_cpp/github_os/input/src/os_base\os_common.c **** {
   9              		.loc 1 5 0
  10              		.cfi_startproc
  11 0000 55       		pushl	%ebp
  12              		.cfi_def_cfa_offset 8
  13              		.cfi_offset 5, -8
  14 0001 89E5     		movl	%esp, %ebp
  15              		.cfi_def_cfa_register 5
   6:E:/NeuOrga/Programmieren/c_cpp/github_os/input/src/os_base\os_common.c ****    OS_SW_BUG[task_func_nr] = bug_nr;
  16              		.loc 1 6 0
  17 0003 8B450C   		movl	12(%ebp), %eax
  18 0006 8B5508   		movl	8(%ebp), %edx
  19 0009 89148500 		movl	%edx, _OS_SW_BUG(,%eax,4)
  19      000000
   7:E:/NeuOrga/Programmieren/c_cpp/github_os/input/src/os_base\os_common.c **** }
  20              		.loc 1 7 0
  21 0010 5D       		popl	%ebp
  22              		.cfi_restore 5
  23              		.cfi_def_cfa 4, 4
  24 0011 C3       		ret
  25              		.cfi_endproc
  26              	LFE0:
  27              		.globl	_OS_GetCurrentTime
  29              	_OS_GetCurrentTime:
  30              	LFB1:
   8:E:/NeuOrga/Programmieren/c_cpp/github_os/input/src/os_base\os_common.c **** #define DWT_CTRL   ((volatile uint32*)0xE0001000)
   9:E:/NeuOrga/Programmieren/c_cpp/github_os/input/src/os_base\os_common.c **** #define DWT_CYCCNT ((volatile uint32*)0xE0001004)
  10:E:/NeuOrga/Programmieren/c_cpp/github_os/input/src/os_base\os_common.c **** 
  11:E:/NeuOrga/Programmieren/c_cpp/github_os/input/src/os_base\os_common.c **** #define DWT_LAR     ((volatile uint32*)0xE0001FB0)
  12:E:/NeuOrga/Programmieren/c_cpp/github_os/input/src/os_base\os_common.c **** #define SCB_DEMCR   ((volatile uint32*)0xE000EDFC)
  13:E:/NeuOrga/Programmieren/c_cpp/github_os/input/src/os_base\os_common.c **** 
  14:E:/NeuOrga/Programmieren/c_cpp/github_os/input/src/os_base\os_common.c **** 
  15:E:/NeuOrga/Programmieren/c_cpp/github_os/input/src/os_base\os_common.c **** unsigned_int32_t OS_GetCurrentTime(void)
  16:E:/NeuOrga/Programmieren/c_cpp/github_os/input/src/os_base\os_common.c **** {
  31              		.loc 1 16 0
  32              		.cfi_startproc
  33 0012 55       		pushl	%ebp
  34              		.cfi_def_cfa_offset 8
  35              		.cfi_offset 5, -8
  36 0013 89E5     		movl	%esp, %ebp
  37              		.cfi_def_cfa_register 5
  17:E:/NeuOrga/Programmieren/c_cpp/github_os/input/src/os_base\os_common.c ****    /* the only free running counter on STM32F4 is the DWT counter DWT_CYCCNT
  18:E:/NeuOrga/Programmieren/c_cpp/github_os/input/src/os_base\os_common.c ****    The counter will overflow every 25sec -> provide function OS_ClearCurrentTime to reset the value
  19:E:/NeuOrga/Programmieren/c_cpp/github_os/input/src/os_base\os_common.c ****    */
  20:E:/NeuOrga/Programmieren/c_cpp/github_os/input/src/os_base\os_common.c ****    #if(CFG_PROCESSOR == cMCU_CORTEX_M4)
  21:E:/NeuOrga/Programmieren/c_cpp/github_os/input/src/os_base\os_common.c ****    return *DWT_CYCCNT;
GAS LISTING C:\Users\PRESID~1\AppData\Local\Temp\cccQu4Io.s 			page 2


  22:E:/NeuOrga/Programmieren/c_cpp/github_os/input/src/os_base\os_common.c ****    #else
  23:E:/NeuOrga/Programmieren/c_cpp/github_os/input/src/os_base\os_common.c ****    static uint32 time = 0;
  24:E:/NeuOrga/Programmieren/c_cpp/github_os/input/src/os_base\os_common.c ****    return time++;
  38              		.loc 1 24 0
  39 0015 A1000000 		movl	_time.1315, %eax
  39      00
  40 001a 8D5001   		leal	1(%eax), %edx
  41 001d 89150000 		movl	%edx, _time.1315
  41      0000
  25:E:/NeuOrga/Programmieren/c_cpp/github_os/input/src/os_base\os_common.c ****    #endif
  26:E:/NeuOrga/Programmieren/c_cpp/github_os/input/src/os_base\os_common.c **** 
  27:E:/NeuOrga/Programmieren/c_cpp/github_os/input/src/os_base\os_common.c **** }
  42              		.loc 1 27 0
  43 0023 5D       		popl	%ebp
  44              		.cfi_restore 5
  45              		.cfi_def_cfa 4, 4
  46 0024 C3       		ret
  47              		.cfi_endproc
  48              	LFE1:
  49              		.globl	_OS_ResetCurrentTime
  51              	_OS_ResetCurrentTime:
  52              	LFB2:
  28:E:/NeuOrga/Programmieren/c_cpp/github_os/input/src/os_base\os_common.c **** 
  29:E:/NeuOrga/Programmieren/c_cpp/github_os/input/src/os_base\os_common.c **** void OS_ResetCurrentTime(void)
  30:E:/NeuOrga/Programmieren/c_cpp/github_os/input/src/os_base\os_common.c **** {
  53              		.loc 1 30 0
  54              		.cfi_startproc
  55 0025 55       		pushl	%ebp
  56              		.cfi_def_cfa_offset 8
  57              		.cfi_offset 5, -8
  58 0026 89E5     		movl	%esp, %ebp
  59              		.cfi_def_cfa_register 5
  31:E:/NeuOrga/Programmieren/c_cpp/github_os/input/src/os_base\os_common.c ****    /* unlock the CoreSight (CM4) */
  32:E:/NeuOrga/Programmieren/c_cpp/github_os/input/src/os_base\os_common.c ****    *DWT_LAR = 0xC5ACCE55;
  60              		.loc 1 32 0
  61 0028 B8B01F00 		movl	$-536862800, %eax
  61      E0
  62 002d C70055CE 		movl	$-978530731, (%eax)
  62      ACC5
  33:E:/NeuOrga/Programmieren/c_cpp/github_os/input/src/os_base\os_common.c **** 
  34:E:/NeuOrga/Programmieren/c_cpp/github_os/input/src/os_base\os_common.c ****    /* enable trace/debug block TRCENA */
  35:E:/NeuOrga/Programmieren/c_cpp/github_os/input/src/os_base\os_common.c ****    *SCB_DEMCR |= 0x01000000;
  63              		.loc 1 35 0
  64 0033 B8FCED00 		movl	$-536809988, %eax
  64      E0
  65 0038 BAFCED00 		movl	$-536809988, %edx
  65      E0
  66 003d 8B12     		movl	(%edx), %edx
  67 003f 81CA0000 		orl	$16777216, %edx
  67      0001
  68 0045 8910     		movl	%edx, (%eax)
  36:E:/NeuOrga/Programmieren/c_cpp/github_os/input/src/os_base\os_common.c **** 
  37:E:/NeuOrga/Programmieren/c_cpp/github_os/input/src/os_base\os_common.c ****    /* reset the counter to 0 cycle */
  38:E:/NeuOrga/Programmieren/c_cpp/github_os/input/src/os_base\os_common.c ****    *DWT_CYCCNT = 0;
  69              		.loc 1 38 0
  70 0047 B8041000 		movl	$-536866812, %eax
  70      E0
GAS LISTING C:\Users\PRESID~1\AppData\Local\Temp\cccQu4Io.s 			page 3


  71 004c C7000000 		movl	$0, (%eax)
  71      0000
  39:E:/NeuOrga/Programmieren/c_cpp/github_os/input/src/os_base\os_common.c **** 
  40:E:/NeuOrga/Programmieren/c_cpp/github_os/input/src/os_base\os_common.c ****    /* enable the counter */
  41:E:/NeuOrga/Programmieren/c_cpp/github_os/input/src/os_base\os_common.c ****    *DWT_CTRL |= 1;
  72              		.loc 1 41 0
  73 0052 B8001000 		movl	$-536866816, %eax
  73      E0
  74 0057 BA001000 		movl	$-536866816, %edx
  74      E0
  75 005c 8B12     		movl	(%edx), %edx
  76 005e 83CA01   		orl	$1, %edx
  77 0061 8910     		movl	%edx, (%eax)
  42:E:/NeuOrga/Programmieren/c_cpp/github_os/input/src/os_base\os_common.c **** }
  78              		.loc 1 42 0
  79 0063 5D       		popl	%ebp
  80              		.cfi_restore 5
  81              		.cfi_def_cfa 4, 4
  82 0064 C3       		ret
  83              		.cfi_endproc
  84              	LFE2:
  85              		.globl	_IntAdd
  87              	_IntAdd:
  88              	LFB3:
  43:E:/NeuOrga/Programmieren/c_cpp/github_os/input/src/os_base\os_common.c **** 
  44:E:/NeuOrga/Programmieren/c_cpp/github_os/input/src/os_base\os_common.c **** 
  45:E:/NeuOrga/Programmieren/c_cpp/github_os/input/src/os_base\os_common.c **** 
  46:E:/NeuOrga/Programmieren/c_cpp/github_os/input/src/os_base\os_common.c **** void IntAdd(BigInt* Summe, BigInt* ErsterSummand, BigInt* ZweiterSummand)
  47:E:/NeuOrga/Programmieren/c_cpp/github_os/input/src/os_base\os_common.c **** {
  89              		.loc 1 47 0
  90              		.cfi_startproc
  91 0065 55       		pushl	%ebp
  92              		.cfi_def_cfa_offset 8
  93              		.cfi_offset 5, -8
  94 0066 89E5     		movl	%esp, %ebp
  95              		.cfi_def_cfa_register 5
  96 0068 83EC10   		subl	$16, %esp
  48:E:/NeuOrga/Programmieren/c_cpp/github_os/input/src/os_base\os_common.c ****    sint8 pos;
  49:E:/NeuOrga/Programmieren/c_cpp/github_os/input/src/os_base\os_common.c ****    uint16 carry  = 0;
  97              		.loc 1 49 0
  98 006b 66C745FC 		movw	$0, -4(%ebp)
  98      0000
  50:E:/NeuOrga/Programmieren/c_cpp/github_os/input/src/os_base\os_common.c **** 
  51:E:/NeuOrga/Programmieren/c_cpp/github_os/input/src/os_base\os_common.c ****    for(pos = BigIntSize-1; pos >= 0; pos--)
  99              		.loc 1 51 0
 100 0071 C645FF0F 		movb	$15, -1(%ebp)
 101 0075 EB46     		jmp	L6
 102              	L7:
 103              	LBB2:
  52:E:/NeuOrga/Programmieren/c_cpp/github_os/input/src/os_base\os_common.c ****    {
  53:E:/NeuOrga/Programmieren/c_cpp/github_os/input/src/os_base\os_common.c ****       uint16 tmpSum = (uint16)ErsterSummand->Number[pos] +(uint16)ZweiterSummand->Number[pos] + car
 104              		.loc 1 53 0 discriminator 3
 105 0077 0FBE45FF 		movsbl	-1(%ebp), %eax
 106 007b 8B550C   		movl	12(%ebp), %edx
 107 007e 8A0402   		movb	(%edx,%eax), %al
 108 0081 0FB6D0   		movzbl	%al, %edx
 109 0084 0FBE45FF 		movsbl	-1(%ebp), %eax
GAS LISTING C:\Users\PRESID~1\AppData\Local\Temp\cccQu4Io.s 			page 4


 110 0088 8B4D10   		movl	16(%ebp), %ecx
 111 008b 8A0401   		movb	(%ecx,%eax), %al
 112 008e 0FB6C0   		movzbl	%al, %eax
 113 0091 01C2     		addl	%eax, %edx
 114 0093 8B45FC   		movl	-4(%ebp), %eax
 115 0096 01D0     		addl	%edx, %eax
 116 0098 668945FA 		movw	%ax, -6(%ebp)
  54:E:/NeuOrga/Programmieren/c_cpp/github_os/input/src/os_base\os_common.c ****       Summe->Number[pos] = tmpSum & 0xFFu;
 117              		.loc 1 54 0 discriminator 3
 118 009c 0FBE55FF 		movsbl	-1(%ebp), %edx
 119 00a0 668B45FA 		movw	-6(%ebp), %ax
 120 00a4 88C1     		movb	%al, %cl
 121 00a6 8B4508   		movl	8(%ebp), %eax
 122 00a9 880C10   		movb	%cl, (%eax,%edx)
  55:E:/NeuOrga/Programmieren/c_cpp/github_os/input/src/os_base\os_common.c ****       carry = tmpSum & 0xFF00u;
 123              		.loc 1 55 0 discriminator 3
 124 00ac 668B45FA 		movw	-6(%ebp), %ax
 125 00b0 B000     		movb	$0, %al
 126 00b2 668945FC 		movw	%ax, -4(%ebp)
 127              	LBE2:
  51:E:/NeuOrga/Programmieren/c_cpp/github_os/input/src/os_base\os_common.c ****    {
 128              		.loc 1 51 0 discriminator 3
 129 00b6 8A45FF   		movb	-1(%ebp), %al
 130 00b9 48       		decl	%eax
 131 00ba 8845FF   		movb	%al, -1(%ebp)
 132              	L6:
  51:E:/NeuOrga/Programmieren/c_cpp/github_os/input/src/os_base\os_common.c ****    {
 133              		.loc 1 51 0 is_stmt 0 discriminator 1
 134 00bd 807DFF00 		cmpb	$0, -1(%ebp)
 135 00c1 79B4     		jns	L7
  56:E:/NeuOrga/Programmieren/c_cpp/github_os/input/src/os_base\os_common.c ****    }
  57:E:/NeuOrga/Programmieren/c_cpp/github_os/input/src/os_base\os_common.c **** }
 136              		.loc 1 57 0 is_stmt 1
 137 00c3 C9       		leave
 138              		.cfi_restore 5
 139              		.cfi_def_cfa 4, 4
 140 00c4 C3       		ret
 141              		.cfi_endproc
 142              	LFE3:
 143              		.globl	_IntSub
 145              	_IntSub:
 146              	LFB4:
  58:E:/NeuOrga/Programmieren/c_cpp/github_os/input/src/os_base\os_common.c **** void IntSub(BigInt* Differenz, BigInt* Minuend, BigInt* Subtrahend)
  59:E:/NeuOrga/Programmieren/c_cpp/github_os/input/src/os_base\os_common.c **** {
 147              		.loc 1 59 0
 148              		.cfi_startproc
 149 00c5 55       		pushl	%ebp
 150              		.cfi_def_cfa_offset 8
 151              		.cfi_offset 5, -8
 152 00c6 89E5     		movl	%esp, %ebp
 153              		.cfi_def_cfa_register 5
 154 00c8 83EC10   		subl	$16, %esp
  60:E:/NeuOrga/Programmieren/c_cpp/github_os/input/src/os_base\os_common.c ****    sint8 pos;
  61:E:/NeuOrga/Programmieren/c_cpp/github_os/input/src/os_base\os_common.c ****    uint16 carry  = 0;
 155              		.loc 1 61 0
 156 00cb 66C745FA 		movw	$0, -6(%ebp)
 156      0000
GAS LISTING C:\Users\PRESID~1\AppData\Local\Temp\cccQu4Io.s 			page 5


  62:E:/NeuOrga/Programmieren/c_cpp/github_os/input/src/os_base\os_common.c **** 
  63:E:/NeuOrga/Programmieren/c_cpp/github_os/input/src/os_base\os_common.c ****    for(pos = BigIntSize-1; pos >= 0; pos--)
 157              		.loc 1 63 0
 158 00d1 C645FF0F 		movb	$15, -1(%ebp)
 159 00d5 E9BD0000 		jmp	L9
 159      00
 160              	L12:
 161              	LBB3:
  64:E:/NeuOrga/Programmieren/c_cpp/github_os/input/src/os_base\os_common.c ****    {
  65:E:/NeuOrga/Programmieren/c_cpp/github_os/input/src/os_base\os_common.c ****       uint16 tmpDiff = 0u;
 162              		.loc 1 65 0
 163 00da 66C745FC 		movw	$0, -4(%ebp)
 163      0000
  66:E:/NeuOrga/Programmieren/c_cpp/github_os/input/src/os_base\os_common.c ****       if(Minuend->Number[pos]  >= (Subtrahend->Number[pos] + carry))
 164              		.loc 1 66 0
 165 00e0 0FBE45FF 		movsbl	-1(%ebp), %eax
 166 00e4 8B550C   		movl	12(%ebp), %edx
 167 00e7 8A0402   		movb	(%edx,%eax), %al
 168 00ea 0FB6C8   		movzbl	%al, %ecx
 169 00ed 0FBE45FF 		movsbl	-1(%ebp), %eax
 170 00f1 8B5510   		movl	16(%ebp), %edx
 171 00f4 8A0402   		movb	(%edx,%eax), %al
 172 00f7 0FB6D0   		movzbl	%al, %edx
 173 00fa 0FB745FA 		movzwl	-6(%ebp), %eax
 174 00fe 01D0     		addl	%edx, %eax
 175 0100 39C1     		cmpl	%eax, %ecx
 176 0102 7C28     		jl	L10
  67:E:/NeuOrga/Programmieren/c_cpp/github_os/input/src/os_base\os_common.c ****       {
  68:E:/NeuOrga/Programmieren/c_cpp/github_os/input/src/os_base\os_common.c ****          tmpDiff = (uint16)Minuend->Number[pos] - (uint16)Subtrahend->Number[pos] - carry;
 177              		.loc 1 68 0
 178 0104 0FBE45FF 		movsbl	-1(%ebp), %eax
 179 0108 8B550C   		movl	12(%ebp), %edx
 180 010b 8A0402   		movb	(%edx,%eax), %al
 181 010e 0FB6D0   		movzbl	%al, %edx
 182 0111 0FBE45FF 		movsbl	-1(%ebp), %eax
 183 0115 8B4D10   		movl	16(%ebp), %ecx
 184 0118 8A0401   		movb	(%ecx,%eax), %al
 185 011b 0FB6C0   		movzbl	%al, %eax
 186 011e 29C2     		subl	%eax, %edx
 187 0120 89D0     		movl	%edx, %eax
 188 0122 662B45FA 		subw	-6(%ebp), %ax
 189 0126 668945FC 		movw	%ax, -4(%ebp)
 190 012a EB55     		jmp	L11
 191              	L10:
  69:E:/NeuOrga/Programmieren/c_cpp/github_os/input/src/os_base\os_common.c ****       }
  70:E:/NeuOrga/Programmieren/c_cpp/github_os/input/src/os_base\os_common.c ****       else if((Minuend->Number[pos]+0x100)  >= (Subtrahend->Number[pos] + carry))
 192              		.loc 1 70 0
 193 012c 0FBE45FF 		movsbl	-1(%ebp), %eax
 194 0130 8B550C   		movl	12(%ebp), %edx
 195 0133 8A0402   		movb	(%edx,%eax), %al
 196 0136 0FB6C0   		movzbl	%al, %eax
 197 0139 8D880001 		leal	256(%eax), %ecx
 197      0000
 198 013f 0FBE45FF 		movsbl	-1(%ebp), %eax
 199 0143 8B5510   		movl	16(%ebp), %edx
 200 0146 8A0402   		movb	(%edx,%eax), %al
 201 0149 0FB6D0   		movzbl	%al, %edx
GAS LISTING C:\Users\PRESID~1\AppData\Local\Temp\cccQu4Io.s 			page 6


 202 014c 0FB745FA 		movzwl	-6(%ebp), %eax
 203 0150 01D0     		addl	%edx, %eax
 204 0152 39C1     		cmpl	%eax, %ecx
 205 0154 7C2B     		jl	L11
  71:E:/NeuOrga/Programmieren/c_cpp/github_os/input/src/os_base\os_common.c ****       {
  72:E:/NeuOrga/Programmieren/c_cpp/github_os/input/src/os_base\os_common.c ****          tmpDiff = 0x100+(uint16)Minuend->Number[pos] - (uint16)Subtrahend->Number[pos] - (uint16)c
 206              		.loc 1 72 0
 207 0156 0FBE45FF 		movsbl	-1(%ebp), %eax
 208 015a 8B550C   		movl	12(%ebp), %edx
 209 015d 8A0402   		movb	(%edx,%eax), %al
 210 0160 0FB6D0   		movzbl	%al, %edx
 211 0163 0FBE45FF 		movsbl	-1(%ebp), %eax
 212 0167 8B4D10   		movl	16(%ebp), %ecx
 213 016a 8A0401   		movb	(%ecx,%eax), %al
 214 016d 0FB6C0   		movzbl	%al, %eax
 215 0170 29C2     		subl	%eax, %edx
 216 0172 89D0     		movl	%edx, %eax
 217 0174 662B45FA 		subw	-6(%ebp), %ax
 218 0178 05000100 		addl	$256, %eax
 218      00
 219 017d 668945FC 		movw	%ax, -4(%ebp)
 220              	L11:
  73:E:/NeuOrga/Programmieren/c_cpp/github_os/input/src/os_base\os_common.c ****       }
  74:E:/NeuOrga/Programmieren/c_cpp/github_os/input/src/os_base\os_common.c ****       else
  75:E:/NeuOrga/Programmieren/c_cpp/github_os/input/src/os_base\os_common.c ****       {
  76:E:/NeuOrga/Programmieren/c_cpp/github_os/input/src/os_base\os_common.c ****          /* not possible */
  77:E:/NeuOrga/Programmieren/c_cpp/github_os/input/src/os_base\os_common.c ****       }
  78:E:/NeuOrga/Programmieren/c_cpp/github_os/input/src/os_base\os_common.c ****       Differenz->Number[pos] = tmpDiff;
 221              		.loc 1 78 0 discriminator 2
 222 0181 0FBE55FF 		movsbl	-1(%ebp), %edx
 223 0185 8B45FC   		movl	-4(%ebp), %eax
 224 0188 88C1     		movb	%al, %cl
 225 018a 8B4508   		movl	8(%ebp), %eax
 226 018d 880C10   		movb	%cl, (%eax,%edx)
 227              	LBE3:
  63:E:/NeuOrga/Programmieren/c_cpp/github_os/input/src/os_base\os_common.c ****    {
 228              		.loc 1 63 0 discriminator 2
 229 0190 8A45FF   		movb	-1(%ebp), %al
 230 0193 48       		decl	%eax
 231 0194 8845FF   		movb	%al, -1(%ebp)
 232              	L9:
  63:E:/NeuOrga/Programmieren/c_cpp/github_os/input/src/os_base\os_common.c ****    {
 233              		.loc 1 63 0 is_stmt 0 discriminator 1
 234 0197 807DFF00 		cmpb	$0, -1(%ebp)
 235 019b 0F8939FF 		jns	L12
 235      FFFF
  79:E:/NeuOrga/Programmieren/c_cpp/github_os/input/src/os_base\os_common.c ****    }
  80:E:/NeuOrga/Programmieren/c_cpp/github_os/input/src/os_base\os_common.c **** }
 236              		.loc 1 80 0 is_stmt 1
 237 01a1 C9       		leave
 238              		.cfi_restore 5
 239              		.cfi_def_cfa 4, 4
 240 01a2 C3       		ret
 241              		.cfi_endproc
 242              	LFE4:
 243              		.globl	_IsLess
 245              	_IsLess:
GAS LISTING C:\Users\PRESID~1\AppData\Local\Temp\cccQu4Io.s 			page 7


 246              	LFB5:
  81:E:/NeuOrga/Programmieren/c_cpp/github_os/input/src/os_base\os_common.c **** #if(0)
  82:E:/NeuOrga/Programmieren/c_cpp/github_os/input/src/os_base\os_common.c **** void IntMul(BigInt* Produkt, BigInt* Faktor1, BigInt* Faktor2)
  83:E:/NeuOrga/Programmieren/c_cpp/github_os/input/src/os_base\os_common.c **** {
  84:E:/NeuOrga/Programmieren/c_cpp/github_os/input/src/os_base\os_common.c ****    BigInt tmpBigInt;
  85:E:/NeuOrga/Programmieren/c_cpp/github_os/input/src/os_base\os_common.c ****    uint8 i1, i2;
  86:E:/NeuOrga/Programmieren/c_cpp/github_os/input/src/os_base\os_common.c ****    /* clear output */
  87:E:/NeuOrga/Programmieren/c_cpp/github_os/input/src/os_base\os_common.c ****    AssignNull(Produkt);
  88:E:/NeuOrga/Programmieren/c_cpp/github_os/input/src/os_base\os_common.c **** 
  89:E:/NeuOrga/Programmieren/c_cpp/github_os/input/src/os_base\os_common.c ****    for(i1 = 0; i1 < BigIntSize; i1++)
  90:E:/NeuOrga/Programmieren/c_cpp/github_os/input/src/os_base\os_common.c ****    {
  91:E:/NeuOrga/Programmieren/c_cpp/github_os/input/src/os_base\os_common.c ****       for(i2 = 0; i2 < BigIntSize; i2++)
  92:E:/NeuOrga/Programmieren/c_cpp/github_os/input/src/os_base\os_common.c ****       {
  93:E:/NeuOrga/Programmieren/c_cpp/github_os/input/src/os_base\os_common.c ****          tmpProdukt = (uint16)Faktor1->Number[i1] * (uint16)Faktor2->Number[i2];
  94:E:/NeuOrga/Programmieren/c_cpp/github_os/input/src/os_base\os_common.c ****          tmpShift = i1+i2;
  95:E:/NeuOrga/Programmieren/c_cpp/github_os/input/src/os_base\os_common.c **** 
  96:E:/NeuOrga/Programmieren/c_cpp/github_os/input/src/os_base\os_common.c ****          /* store the number in an temporary BigInt variable ...*/
  97:E:/NeuOrga/Programmieren/c_cpp/github_os/input/src/os_base\os_common.c ****          tmpBigInt->Number[BigIntSize-1] = tmpProdukt & 0xFFu;
  98:E:/NeuOrga/Programmieren/c_cpp/github_os/input/src/os_base\os_common.c ****          tmpBigInt->Number[BigIntSize-2] = (tmpProdukt & 0x100u)>>8;
  99:E:/NeuOrga/Programmieren/c_cpp/github_os/input/src/os_base\os_common.c ****          /* add tmpBigInt to Produkt*/
 100:E:/NeuOrga/Programmieren/c_cpp/github_os/input/src/os_base\os_common.c ****          IntAdd(Produkt, Produkt, tmpBigInt);
 101:E:/NeuOrga/Programmieren/c_cpp/github_os/input/src/os_base\os_common.c ****          /*TODO*/
 102:E:/NeuOrga/Programmieren/c_cpp/github_os/input/src/os_base\os_common.c ****       }
 103:E:/NeuOrga/Programmieren/c_cpp/github_os/input/src/os_base\os_common.c ****    }
 104:E:/NeuOrga/Programmieren/c_cpp/github_os/input/src/os_base\os_common.c **** 
 105:E:/NeuOrga/Programmieren/c_cpp/github_os/input/src/os_base\os_common.c **** }
 106:E:/NeuOrga/Programmieren/c_cpp/github_os/input/src/os_base\os_common.c **** void IntDiv(BigInt* Quotient, BigInt* Dividend, BigInt* Divisor)
 107:E:/NeuOrga/Programmieren/c_cpp/github_os/input/src/os_base\os_common.c **** {
 108:E:/NeuOrga/Programmieren/c_cpp/github_os/input/src/os_base\os_common.c ****    BigInt tmpBigInt;
 109:E:/NeuOrga/Programmieren/c_cpp/github_os/input/src/os_base\os_common.c ****    uint8 i1, i2;
 110:E:/NeuOrga/Programmieren/c_cpp/github_os/input/src/os_base\os_common.c ****    /* clear output */
 111:E:/NeuOrga/Programmieren/c_cpp/github_os/input/src/os_base\os_common.c ****    AssignNull(Quotient);
 112:E:/NeuOrga/Programmieren/c_cpp/github_os/input/src/os_base\os_common.c **** 
 113:E:/NeuOrga/Programmieren/c_cpp/github_os/input/src/os_base\os_common.c ****    for(i1 = 0; i1 < BigIntSize; i1++)
 114:E:/NeuOrga/Programmieren/c_cpp/github_os/input/src/os_base\os_common.c ****    {
 115:E:/NeuOrga/Programmieren/c_cpp/github_os/input/src/os_base\os_common.c ****       for(i2 = 0; i2 < BigIntSize; i2++)
 116:E:/NeuOrga/Programmieren/c_cpp/github_os/input/src/os_base\os_common.c ****       {
 117:E:/NeuOrga/Programmieren/c_cpp/github_os/input/src/os_base\os_common.c ****          tmpQuotient = (uint16)Dividend->Number[i1] / (uint16)Divisor->Number[i2];
 118:E:/NeuOrga/Programmieren/c_cpp/github_os/input/src/os_base\os_common.c ****          tmpShift = i1+i2;
 119:E:/NeuOrga/Programmieren/c_cpp/github_os/input/src/os_base\os_common.c **** 
 120:E:/NeuOrga/Programmieren/c_cpp/github_os/input/src/os_base\os_common.c ****          /* store the number in an temporary BigInt variable ...*/
 121:E:/NeuOrga/Programmieren/c_cpp/github_os/input/src/os_base\os_common.c ****          tmpBigInt->Number[BigIntSize-1] = tmpQuotient & 0xFFu;
 122:E:/NeuOrga/Programmieren/c_cpp/github_os/input/src/os_base\os_common.c ****          tmpBigInt->Number[BigIntSize-2] = (tmpQuotient & 0x100u)>>8;
 123:E:/NeuOrga/Programmieren/c_cpp/github_os/input/src/os_base\os_common.c ****          /* add tmpBigInt to Quotient*/
 124:E:/NeuOrga/Programmieren/c_cpp/github_os/input/src/os_base\os_common.c ****          IntAdd(Quotient, Quotient, tmpBigInt);
 125:E:/NeuOrga/Programmieren/c_cpp/github_os/input/src/os_base\os_common.c ****          /*TODO*/
 126:E:/NeuOrga/Programmieren/c_cpp/github_os/input/src/os_base\os_common.c ****       }
 127:E:/NeuOrga/Programmieren/c_cpp/github_os/input/src/os_base\os_common.c ****    }
 128:E:/NeuOrga/Programmieren/c_cpp/github_os/input/src/os_base\os_common.c **** }
 129:E:/NeuOrga/Programmieren/c_cpp/github_os/input/src/os_base\os_common.c **** #endif
 130:E:/NeuOrga/Programmieren/c_cpp/github_os/input/src/os_base\os_common.c **** boolean_t IsLess(BigInt* Operand1, BigInt* Operand2)
 131:E:/NeuOrga/Programmieren/c_cpp/github_os/input/src/os_base\os_common.c **** {
 247              		.loc 1 131 0
 248              		.cfi_startproc
 249 01a3 55       		pushl	%ebp
 250              		.cfi_def_cfa_offset 8
 251              		.cfi_offset 5, -8
GAS LISTING C:\Users\PRESID~1\AppData\Local\Temp\cccQu4Io.s 			page 8


 252 01a4 89E5     		movl	%esp, %ebp
 253              		.cfi_def_cfa_register 5
 254 01a6 83EC10   		subl	$16, %esp
 132:E:/NeuOrga/Programmieren/c_cpp/github_os/input/src/os_base\os_common.c ****    uint8 pos;
 133:E:/NeuOrga/Programmieren/c_cpp/github_os/input/src/os_base\os_common.c ****    boolean_t IsLess = False;/* in case no if was entered, the numbers are equal -> return False */
 255              		.loc 1 133 0
 256 01a9 C645FE00 		movb	$0, -2(%ebp)
 134:E:/NeuOrga/Programmieren/c_cpp/github_os/input/src/os_base\os_common.c ****    for(pos = 0; pos < BigIntSize; pos++)
 257              		.loc 1 134 0
 258 01ad C645FF00 		movb	$0, -1(%ebp)
 259 01b1 EB43     		jmp	L14
 260              	L18:
 135:E:/NeuOrga/Programmieren/c_cpp/github_os/input/src/os_base\os_common.c ****    {
 136:E:/NeuOrga/Programmieren/c_cpp/github_os/input/src/os_base\os_common.c ****       if(Operand1->Number[pos] < Operand2->Number[pos])
 261              		.loc 1 136 0
 262 01b3 0FB645FF 		movzbl	-1(%ebp), %eax
 263 01b7 8B5508   		movl	8(%ebp), %edx
 264 01ba 8A0C02   		movb	(%edx,%eax), %cl
 265 01bd 0FB645FF 		movzbl	-1(%ebp), %eax
 266 01c1 8B550C   		movl	12(%ebp), %edx
 267 01c4 8A0402   		movb	(%edx,%eax), %al
 268 01c7 38C1     		cmpb	%al, %cl
 269 01c9 7306     		jnb	L15
 137:E:/NeuOrga/Programmieren/c_cpp/github_os/input/src/os_base\os_common.c ****       {
 138:E:/NeuOrga/Programmieren/c_cpp/github_os/input/src/os_base\os_common.c ****          IsLess = True;
 270              		.loc 1 138 0
 271 01cb C645FE01 		movb	$1, -2(%ebp)
 139:E:/NeuOrga/Programmieren/c_cpp/github_os/input/src/os_base\os_common.c ****          break;
 272              		.loc 1 139 0
 273 01cf EB2B     		jmp	L16
 274              	L15:
 140:E:/NeuOrga/Programmieren/c_cpp/github_os/input/src/os_base\os_common.c ****       }
 141:E:/NeuOrga/Programmieren/c_cpp/github_os/input/src/os_base\os_common.c ****       else if (Operand1->Number[pos] > Operand2->Number[pos])
 275              		.loc 1 141 0
 276 01d1 0FB645FF 		movzbl	-1(%ebp), %eax
 277 01d5 8B5508   		movl	8(%ebp), %edx
 278 01d8 8A0C02   		movb	(%edx,%eax), %cl
 279 01db 0FB645FF 		movzbl	-1(%ebp), %eax
 280 01df 8B550C   		movl	12(%ebp), %edx
 281 01e2 8A0402   		movb	(%edx,%eax), %al
 282 01e5 38C1     		cmpb	%al, %cl
 283 01e7 7606     		jbe	L17
 142:E:/NeuOrga/Programmieren/c_cpp/github_os/input/src/os_base\os_common.c ****       {
 143:E:/NeuOrga/Programmieren/c_cpp/github_os/input/src/os_base\os_common.c ****          IsLess = False;
 284              		.loc 1 143 0
 285 01e9 C645FE00 		movb	$0, -2(%ebp)
 144:E:/NeuOrga/Programmieren/c_cpp/github_os/input/src/os_base\os_common.c ****          break;
 286              		.loc 1 144 0
 287 01ed EB0D     		jmp	L16
 288              	L17:
 134:E:/NeuOrga/Programmieren/c_cpp/github_os/input/src/os_base\os_common.c ****    {
 289              		.loc 1 134 0 discriminator 2
 290 01ef 8A45FF   		movb	-1(%ebp), %al
 291 01f2 40       		incl	%eax
 292 01f3 8845FF   		movb	%al, -1(%ebp)
 293              	L14:
 134:E:/NeuOrga/Programmieren/c_cpp/github_os/input/src/os_base\os_common.c ****    {
GAS LISTING C:\Users\PRESID~1\AppData\Local\Temp\cccQu4Io.s 			page 9


 294              		.loc 1 134 0 is_stmt 0 discriminator 1
 295 01f6 807DFF0F 		cmpb	$15, -1(%ebp)
 296 01fa 76B7     		jbe	L18
 297              	L16:
 145:E:/NeuOrga/Programmieren/c_cpp/github_os/input/src/os_base\os_common.c ****       }
 146:E:/NeuOrga/Programmieren/c_cpp/github_os/input/src/os_base\os_common.c ****       else
 147:E:/NeuOrga/Programmieren/c_cpp/github_os/input/src/os_base\os_common.c ****       {
 148:E:/NeuOrga/Programmieren/c_cpp/github_os/input/src/os_base\os_common.c ****          /* don't break, but continue with next position */
 149:E:/NeuOrga/Programmieren/c_cpp/github_os/input/src/os_base\os_common.c ****       }
 150:E:/NeuOrga/Programmieren/c_cpp/github_os/input/src/os_base\os_common.c ****    }
 151:E:/NeuOrga/Programmieren/c_cpp/github_os/input/src/os_base\os_common.c ****    return IsLess;
 298              		.loc 1 151 0 is_stmt 1
 299 01fc 8A45FE   		movb	-2(%ebp), %al
 152:E:/NeuOrga/Programmieren/c_cpp/github_os/input/src/os_base\os_common.c **** }
 300              		.loc 1 152 0
 301 01ff C9       		leave
 302              		.cfi_restore 5
 303              		.cfi_def_cfa 4, 4
 304 0200 C3       		ret
 305              		.cfi_endproc
 306              	LFE5:
 307              		.globl	_IsLessOrEqual
 309              	_IsLessOrEqual:
 310              	LFB6:
 153:E:/NeuOrga/Programmieren/c_cpp/github_os/input/src/os_base\os_common.c **** boolean_t IsLessOrEqual(BigInt* Operand1, BigInt* Operand2)
 154:E:/NeuOrga/Programmieren/c_cpp/github_os/input/src/os_base\os_common.c **** {
 311              		.loc 1 154 0
 312              		.cfi_startproc
 313 0201 55       		pushl	%ebp
 314              		.cfi_def_cfa_offset 8
 315              		.cfi_offset 5, -8
 316 0202 89E5     		movl	%esp, %ebp
 317              		.cfi_def_cfa_register 5
 318 0204 83EC18   		subl	$24, %esp
 155:E:/NeuOrga/Programmieren/c_cpp/github_os/input/src/os_base\os_common.c ****    return IsLess(Operand1,Operand2) || IsEqual(Operand1,Operand2);
 319              		.loc 1 155 0
 320 0207 8B450C   		movl	12(%ebp), %eax
 321 020a 89442404 		movl	%eax, 4(%esp)
 322 020e 8B4508   		movl	8(%ebp), %eax
 323 0211 890424   		movl	%eax, (%esp)
 324 0214 E88AFFFF 		call	_IsLess
 324      FF
 325 0219 84C0     		testb	%al, %al
 326 021b 7516     		jne	L21
 327              		.loc 1 155 0 is_stmt 0 discriminator 2
 328 021d 8B450C   		movl	12(%ebp), %eax
 329 0220 89442404 		movl	%eax, 4(%esp)
 330 0224 8B4508   		movl	8(%ebp), %eax
 331 0227 890424   		movl	%eax, (%esp)
 332 022a E8120000 		call	_IsEqual
 332      00
 333 022f 84C0     		testb	%al, %al
 334 0231 7407     		je	L22
 335              	L21:
 336              		.loc 1 155 0 discriminator 3
 337 0233 B8010000 		movl	$1, %eax
 337      00
GAS LISTING C:\Users\PRESID~1\AppData\Local\Temp\cccQu4Io.s 			page 10


 338 0238 EB05     		jmp	L23
 339              	L22:
 340              		.loc 1 155 0 discriminator 4
 341 023a B8000000 		movl	$0, %eax
 341      00
 342              	L23:
 156:E:/NeuOrga/Programmieren/c_cpp/github_os/input/src/os_base\os_common.c **** }
 343              		.loc 1 156 0 is_stmt 1 discriminator 6
 344 023f C9       		leave
 345              		.cfi_restore 5
 346              		.cfi_def_cfa 4, 4
 347 0240 C3       		ret
 348              		.cfi_endproc
 349              	LFE6:
 350              		.globl	_IsEqual
 352              	_IsEqual:
 353              	LFB7:
 157:E:/NeuOrga/Programmieren/c_cpp/github_os/input/src/os_base\os_common.c **** boolean_t IsEqual(BigInt* Operand1, BigInt* Operand2)
 158:E:/NeuOrga/Programmieren/c_cpp/github_os/input/src/os_base\os_common.c **** {
 354              		.loc 1 158 0
 355              		.cfi_startproc
 356 0241 55       		pushl	%ebp
 357              		.cfi_def_cfa_offset 8
 358              		.cfi_offset 5, -8
 359 0242 89E5     		movl	%esp, %ebp
 360              		.cfi_def_cfa_register 5
 361 0244 83EC10   		subl	$16, %esp
 159:E:/NeuOrga/Programmieren/c_cpp/github_os/input/src/os_base\os_common.c ****    uint8 pos;
 160:E:/NeuOrga/Programmieren/c_cpp/github_os/input/src/os_base\os_common.c ****    boolean_t IsEqual = True;/* in case no if/elseif) was entered, the numbers are equal -> return T
 362              		.loc 1 160 0
 363 0247 C645FE01 		movb	$1, -2(%ebp)
 161:E:/NeuOrga/Programmieren/c_cpp/github_os/input/src/os_base\os_common.c ****    for(pos = 0; pos < BigIntSize; pos++)
 364              		.loc 1 161 0
 365 024b C645FF00 		movb	$0, -1(%ebp)
 366 024f EB25     		jmp	L26
 367              	L29:
 162:E:/NeuOrga/Programmieren/c_cpp/github_os/input/src/os_base\os_common.c ****    {
 163:E:/NeuOrga/Programmieren/c_cpp/github_os/input/src/os_base\os_common.c ****       if(Operand1->Number[pos] != Operand2->Number[pos])
 368              		.loc 1 163 0
 369 0251 0FB645FF 		movzbl	-1(%ebp), %eax
 370 0255 8B5508   		movl	8(%ebp), %edx
 371 0258 8A0C02   		movb	(%edx,%eax), %cl
 372 025b 0FB645FF 		movzbl	-1(%ebp), %eax
 373 025f 8B550C   		movl	12(%ebp), %edx
 374 0262 8A0402   		movb	(%edx,%eax), %al
 375 0265 38C1     		cmpb	%al, %cl
 376 0267 7406     		je	L27
 164:E:/NeuOrga/Programmieren/c_cpp/github_os/input/src/os_base\os_common.c ****       {
 165:E:/NeuOrga/Programmieren/c_cpp/github_os/input/src/os_base\os_common.c ****          IsEqual = False;
 377              		.loc 1 165 0
 378 0269 C645FE00 		movb	$0, -2(%ebp)
 166:E:/NeuOrga/Programmieren/c_cpp/github_os/input/src/os_base\os_common.c ****          break;
 379              		.loc 1 166 0
 380 026d EB0D     		jmp	L28
 381              	L27:
 161:E:/NeuOrga/Programmieren/c_cpp/github_os/input/src/os_base\os_common.c ****    {
 382              		.loc 1 161 0 discriminator 2
GAS LISTING C:\Users\PRESID~1\AppData\Local\Temp\cccQu4Io.s 			page 11


 383 026f 8A45FF   		movb	-1(%ebp), %al
 384 0272 40       		incl	%eax
 385 0273 8845FF   		movb	%al, -1(%ebp)
 386              	L26:
 161:E:/NeuOrga/Programmieren/c_cpp/github_os/input/src/os_base\os_common.c ****    {
 387              		.loc 1 161 0 is_stmt 0 discriminator 1
 388 0276 807DFF0F 		cmpb	$15, -1(%ebp)
 389 027a 76D5     		jbe	L29
 390              	L28:
 167:E:/NeuOrga/Programmieren/c_cpp/github_os/input/src/os_base\os_common.c ****       }
 168:E:/NeuOrga/Programmieren/c_cpp/github_os/input/src/os_base\os_common.c ****       else
 169:E:/NeuOrga/Programmieren/c_cpp/github_os/input/src/os_base\os_common.c ****       {
 170:E:/NeuOrga/Programmieren/c_cpp/github_os/input/src/os_base\os_common.c ****          /* don't break, but continue with next position */
 171:E:/NeuOrga/Programmieren/c_cpp/github_os/input/src/os_base\os_common.c ****       }
 172:E:/NeuOrga/Programmieren/c_cpp/github_os/input/src/os_base\os_common.c ****    }
 173:E:/NeuOrga/Programmieren/c_cpp/github_os/input/src/os_base\os_common.c ****    return IsEqual;
 391              		.loc 1 173 0 is_stmt 1
 392 027c 8A45FE   		movb	-2(%ebp), %al
 174:E:/NeuOrga/Programmieren/c_cpp/github_os/input/src/os_base\os_common.c **** }
 393              		.loc 1 174 0
 394 027f C9       		leave
 395              		.cfi_restore 5
 396              		.cfi_def_cfa 4, 4
 397 0280 C3       		ret
 398              		.cfi_endproc
 399              	LFE7:
 400              		.globl	_IsGreater
 402              	_IsGreater:
 403              	LFB8:
 175:E:/NeuOrga/Programmieren/c_cpp/github_os/input/src/os_base\os_common.c **** boolean_t IsGreater(BigInt* Operand1, BigInt* Operand2)
 176:E:/NeuOrga/Programmieren/c_cpp/github_os/input/src/os_base\os_common.c **** {
 404              		.loc 1 176 0
 405              		.cfi_startproc
 406 0281 55       		pushl	%ebp
 407              		.cfi_def_cfa_offset 8
 408              		.cfi_offset 5, -8
 409 0282 89E5     		movl	%esp, %ebp
 410              		.cfi_def_cfa_register 5
 411 0284 83EC10   		subl	$16, %esp
 177:E:/NeuOrga/Programmieren/c_cpp/github_os/input/src/os_base\os_common.c ****    uint8 pos;
 178:E:/NeuOrga/Programmieren/c_cpp/github_os/input/src/os_base\os_common.c ****    boolean_t IsGreater = False;/* in case no if was entered, the numbers are equal -> return False 
 412              		.loc 1 178 0
 413 0287 C645FE00 		movb	$0, -2(%ebp)
 179:E:/NeuOrga/Programmieren/c_cpp/github_os/input/src/os_base\os_common.c ****    for(pos = 0; pos < BigIntSize; pos++)
 414              		.loc 1 179 0
 415 028b C645FF00 		movb	$0, -1(%ebp)
 416 028f EB43     		jmp	L32
 417              	L36:
 180:E:/NeuOrga/Programmieren/c_cpp/github_os/input/src/os_base\os_common.c ****    {
 181:E:/NeuOrga/Programmieren/c_cpp/github_os/input/src/os_base\os_common.c ****       if(Operand1->Number[pos] < Operand2->Number[pos])
 418              		.loc 1 181 0
 419 0291 0FB645FF 		movzbl	-1(%ebp), %eax
 420 0295 8B5508   		movl	8(%ebp), %edx
 421 0298 8A0C02   		movb	(%edx,%eax), %cl
 422 029b 0FB645FF 		movzbl	-1(%ebp), %eax
 423 029f 8B550C   		movl	12(%ebp), %edx
 424 02a2 8A0402   		movb	(%edx,%eax), %al
GAS LISTING C:\Users\PRESID~1\AppData\Local\Temp\cccQu4Io.s 			page 12


 425 02a5 38C1     		cmpb	%al, %cl
 426 02a7 7306     		jnb	L33
 182:E:/NeuOrga/Programmieren/c_cpp/github_os/input/src/os_base\os_common.c ****       {
 183:E:/NeuOrga/Programmieren/c_cpp/github_os/input/src/os_base\os_common.c ****          IsGreater = False;
 427              		.loc 1 183 0
 428 02a9 C645FE00 		movb	$0, -2(%ebp)
 184:E:/NeuOrga/Programmieren/c_cpp/github_os/input/src/os_base\os_common.c ****          break;
 429              		.loc 1 184 0
 430 02ad EB2B     		jmp	L34
 431              	L33:
 185:E:/NeuOrga/Programmieren/c_cpp/github_os/input/src/os_base\os_common.c ****       }
 186:E:/NeuOrga/Programmieren/c_cpp/github_os/input/src/os_base\os_common.c ****       else if (Operand1->Number[pos] > Operand2->Number[pos])
 432              		.loc 1 186 0
 433 02af 0FB645FF 		movzbl	-1(%ebp), %eax
 434 02b3 8B5508   		movl	8(%ebp), %edx
 435 02b6 8A0C02   		movb	(%edx,%eax), %cl
 436 02b9 0FB645FF 		movzbl	-1(%ebp), %eax
 437 02bd 8B550C   		movl	12(%ebp), %edx
 438 02c0 8A0402   		movb	(%edx,%eax), %al
 439 02c3 38C1     		cmpb	%al, %cl
 440 02c5 7606     		jbe	L35
 187:E:/NeuOrga/Programmieren/c_cpp/github_os/input/src/os_base\os_common.c ****       {
 188:E:/NeuOrga/Programmieren/c_cpp/github_os/input/src/os_base\os_common.c ****          IsGreater = True;
 441              		.loc 1 188 0
 442 02c7 C645FE01 		movb	$1, -2(%ebp)
 189:E:/NeuOrga/Programmieren/c_cpp/github_os/input/src/os_base\os_common.c ****          break;
 443              		.loc 1 189 0
 444 02cb EB0D     		jmp	L34
 445              	L35:
 179:E:/NeuOrga/Programmieren/c_cpp/github_os/input/src/os_base\os_common.c ****    {
 446              		.loc 1 179 0 discriminator 2
 447 02cd 8A45FF   		movb	-1(%ebp), %al
 448 02d0 40       		incl	%eax
 449 02d1 8845FF   		movb	%al, -1(%ebp)
 450              	L32:
 179:E:/NeuOrga/Programmieren/c_cpp/github_os/input/src/os_base\os_common.c ****    {
 451              		.loc 1 179 0 is_stmt 0 discriminator 1
 452 02d4 807DFF0F 		cmpb	$15, -1(%ebp)
 453 02d8 76B7     		jbe	L36
 454              	L34:
 190:E:/NeuOrga/Programmieren/c_cpp/github_os/input/src/os_base\os_common.c ****       }
 191:E:/NeuOrga/Programmieren/c_cpp/github_os/input/src/os_base\os_common.c ****       else
 192:E:/NeuOrga/Programmieren/c_cpp/github_os/input/src/os_base\os_common.c ****       {
 193:E:/NeuOrga/Programmieren/c_cpp/github_os/input/src/os_base\os_common.c ****          /* don't break, but continue with next position */
 194:E:/NeuOrga/Programmieren/c_cpp/github_os/input/src/os_base\os_common.c ****       }
 195:E:/NeuOrga/Programmieren/c_cpp/github_os/input/src/os_base\os_common.c ****    }
 196:E:/NeuOrga/Programmieren/c_cpp/github_os/input/src/os_base\os_common.c ****    return IsGreater;
 455              		.loc 1 196 0 is_stmt 1
 456 02da 8A45FE   		movb	-2(%ebp), %al
 197:E:/NeuOrga/Programmieren/c_cpp/github_os/input/src/os_base\os_common.c **** }
 457              		.loc 1 197 0
 458 02dd C9       		leave
 459              		.cfi_restore 5
 460              		.cfi_def_cfa 4, 4
 461 02de C3       		ret
 462              		.cfi_endproc
 463              	LFE8:
GAS LISTING C:\Users\PRESID~1\AppData\Local\Temp\cccQu4Io.s 			page 13


 464              		.globl	_IsGreaterOrEqual
 466              	_IsGreaterOrEqual:
 467              	LFB9:
 198:E:/NeuOrga/Programmieren/c_cpp/github_os/input/src/os_base\os_common.c **** boolean_t IsGreaterOrEqual(BigInt* Operand1, BigInt* Operand2)
 199:E:/NeuOrga/Programmieren/c_cpp/github_os/input/src/os_base\os_common.c **** {
 468              		.loc 1 199 0
 469              		.cfi_startproc
 470 02df 55       		pushl	%ebp
 471              		.cfi_def_cfa_offset 8
 472              		.cfi_offset 5, -8
 473 02e0 89E5     		movl	%esp, %ebp
 474              		.cfi_def_cfa_register 5
 475 02e2 83EC08   		subl	$8, %esp
 200:E:/NeuOrga/Programmieren/c_cpp/github_os/input/src/os_base\os_common.c ****    return IsGreater(Operand1,Operand2) || IsEqual(Operand1,Operand2);
 476              		.loc 1 200 0
 477 02e5 8B450C   		movl	12(%ebp), %eax
 478 02e8 89442404 		movl	%eax, 4(%esp)
 479 02ec 8B4508   		movl	8(%ebp), %eax
 480 02ef 890424   		movl	%eax, (%esp)
 481 02f2 E88AFFFF 		call	_IsGreater
 481      FF
 482 02f7 84C0     		testb	%al, %al
 483 02f9 7516     		jne	L39
 484              		.loc 1 200 0 is_stmt 0 discriminator 2
 485 02fb 8B450C   		movl	12(%ebp), %eax
 486 02fe 89442404 		movl	%eax, 4(%esp)
 487 0302 8B4508   		movl	8(%ebp), %eax
 488 0305 890424   		movl	%eax, (%esp)
 489 0308 E834FFFF 		call	_IsEqual
 489      FF
 490 030d 84C0     		testb	%al, %al
 491 030f 7407     		je	L40
 492              	L39:
 493              		.loc 1 200 0 discriminator 3
 494 0311 B8010000 		movl	$1, %eax
 494      00
 495 0316 EB05     		jmp	L41
 496              	L40:
 497              		.loc 1 200 0 discriminator 4
 498 0318 B8000000 		movl	$0, %eax
 498      00
 499              	L41:
 201:E:/NeuOrga/Programmieren/c_cpp/github_os/input/src/os_base\os_common.c **** }
 500              		.loc 1 201 0 is_stmt 1 discriminator 6
 501 031d C9       		leave
 502              		.cfi_restore 5
 503              		.cfi_def_cfa 4, 4
 504 031e C3       		ret
 505              		.cfi_endproc
 506              	LFE9:
 507              		.globl	_Assign
 509              	_Assign:
 510              	LFB10:
 202:E:/NeuOrga/Programmieren/c_cpp/github_os/input/src/os_base\os_common.c **** void Assign(BigInt* leftOperand, BigInt* rightOperand)
 203:E:/NeuOrga/Programmieren/c_cpp/github_os/input/src/os_base\os_common.c **** {
 511              		.loc 1 203 0
 512              		.cfi_startproc
GAS LISTING C:\Users\PRESID~1\AppData\Local\Temp\cccQu4Io.s 			page 14


 513 031f 55       		pushl	%ebp
 514              		.cfi_def_cfa_offset 8
 515              		.cfi_offset 5, -8
 516 0320 89E5     		movl	%esp, %ebp
 517              		.cfi_def_cfa_register 5
 518 0322 83EC10   		subl	$16, %esp
 204:E:/NeuOrga/Programmieren/c_cpp/github_os/input/src/os_base\os_common.c ****    uint8 pos;
 205:E:/NeuOrga/Programmieren/c_cpp/github_os/input/src/os_base\os_common.c ****    for (pos = 0; pos < BigIntSize; pos++)
 519              		.loc 1 205 0
 520 0325 C645FF00 		movb	$0, -1(%ebp)
 521 0329 EB1B     		jmp	L44
 522              	L45:
 206:E:/NeuOrga/Programmieren/c_cpp/github_os/input/src/os_base\os_common.c ****    {
 207:E:/NeuOrga/Programmieren/c_cpp/github_os/input/src/os_base\os_common.c ****       leftOperand->Number[pos] = rightOperand->Number[pos];
 523              		.loc 1 207 0 discriminator 3
 524 032b 0FB645FF 		movzbl	-1(%ebp), %eax
 525 032f 0FB655FF 		movzbl	-1(%ebp), %edx
 526 0333 8B4D0C   		movl	12(%ebp), %ecx
 527 0336 8A0C11   		movb	(%ecx,%edx), %cl
 528 0339 8B5508   		movl	8(%ebp), %edx
 529 033c 880C02   		movb	%cl, (%edx,%eax)
 205:E:/NeuOrga/Programmieren/c_cpp/github_os/input/src/os_base\os_common.c ****    {
 530              		.loc 1 205 0 discriminator 3
 531 033f 8A45FF   		movb	-1(%ebp), %al
 532 0342 40       		incl	%eax
 533 0343 8845FF   		movb	%al, -1(%ebp)
 534              	L44:
 205:E:/NeuOrga/Programmieren/c_cpp/github_os/input/src/os_base\os_common.c ****    {
 535              		.loc 1 205 0 is_stmt 0 discriminator 1
 536 0346 807DFF0F 		cmpb	$15, -1(%ebp)
 537 034a 76DF     		jbe	L45
 208:E:/NeuOrga/Programmieren/c_cpp/github_os/input/src/os_base\os_common.c ****    }
 209:E:/NeuOrga/Programmieren/c_cpp/github_os/input/src/os_base\os_common.c **** }
 538              		.loc 1 209 0 is_stmt 1
 539 034c C9       		leave
 540              		.cfi_restore 5
 541              		.cfi_def_cfa 4, 4
 542 034d C3       		ret
 543              		.cfi_endproc
 544              	LFE10:
 545              		.globl	_AssignNull
 547              	_AssignNull:
 548              	LFB11:
 210:E:/NeuOrga/Programmieren/c_cpp/github_os/input/src/os_base\os_common.c **** void AssignNull(BigInt* leftOperand)
 211:E:/NeuOrga/Programmieren/c_cpp/github_os/input/src/os_base\os_common.c **** {
 549              		.loc 1 211 0
 550              		.cfi_startproc
 551 034e 55       		pushl	%ebp
 552              		.cfi_def_cfa_offset 8
 553              		.cfi_offset 5, -8
 554 034f 89E5     		movl	%esp, %ebp
 555              		.cfi_def_cfa_register 5
 556 0351 83EC10   		subl	$16, %esp
 212:E:/NeuOrga/Programmieren/c_cpp/github_os/input/src/os_base\os_common.c ****    uint8 pos;
 213:E:/NeuOrga/Programmieren/c_cpp/github_os/input/src/os_base\os_common.c ****    for (pos = 0; pos < BigIntSize; pos++)
 557              		.loc 1 213 0
 558 0354 C645FF00 		movb	$0, -1(%ebp)
GAS LISTING C:\Users\PRESID~1\AppData\Local\Temp\cccQu4Io.s 			page 15


 559 0358 EB12     		jmp	L47
 560              	L48:
 214:E:/NeuOrga/Programmieren/c_cpp/github_os/input/src/os_base\os_common.c ****    {
 215:E:/NeuOrga/Programmieren/c_cpp/github_os/input/src/os_base\os_common.c ****       leftOperand->Number[pos] = 0x00;
 561              		.loc 1 215 0 discriminator 3
 562 035a 0FB645FF 		movzbl	-1(%ebp), %eax
 563 035e 8B5508   		movl	8(%ebp), %edx
 564 0361 C6040200 		movb	$0, (%edx,%eax)
 213:E:/NeuOrga/Programmieren/c_cpp/github_os/input/src/os_base\os_common.c ****    {
 565              		.loc 1 213 0 discriminator 3
 566 0365 8A45FF   		movb	-1(%ebp), %al
 567 0368 40       		incl	%eax
 568 0369 8845FF   		movb	%al, -1(%ebp)
 569              	L47:
 213:E:/NeuOrga/Programmieren/c_cpp/github_os/input/src/os_base\os_common.c ****    {
 570              		.loc 1 213 0 is_stmt 0 discriminator 1
 571 036c 807DFF0F 		cmpb	$15, -1(%ebp)
 572 0370 76E8     		jbe	L48
 216:E:/NeuOrga/Programmieren/c_cpp/github_os/input/src/os_base\os_common.c ****    }
 217:E:/NeuOrga/Programmieren/c_cpp/github_os/input/src/os_base\os_common.c **** }
 573              		.loc 1 217 0 is_stmt 1
 574 0372 C9       		leave
 575              		.cfi_restore 5
 576              		.cfi_def_cfa 4, 4
 577 0373 C3       		ret
 578              		.cfi_endproc
 579              	LFE11:
 580              	.lcomm _time.1315,4,4
 581              	Letext0:
 582              		.file 2 "E:/NeuOrga/Programmieren/c_cpp/github_os/input/src/os_base/../os_base/os_base_types.h"
 583              		.file 3 "E:/NeuOrga/Programmieren/c_cpp/github_os/input/src/os_base/../os_base/os_common.h"
 584              		.file 4 "E:/NeuOrga/Programmieren/c_cpp/github_os/input/src/os_base/../os_base/os_ram.h"
 585              		.section	.debug_info,"dr"
 586              	Ldebug_info0:
 587 0000 BB080000 		.long	0x8bb
 588 0004 0400     		.word	0x4
 589 0006 00000000 		.secrel32	Ldebug_abbrev0
 590 000a 04       		.byte	0x4
 591 000b 01       		.uleb128 0x1
 592 000c 474E5520 		.ascii "GNU C 4.9.3 -march=i386 -g3 -O0 -std=c90\0"
 592      4320342E 
 592      392E3320 
 592      2D6D6172 
 592      63683D69 
 593 0035 01       		.byte	0x1
 594 0036 453A5C4E 		.ascii "E:\\NeuOrga\\Programmieren\\c_cpp\\github_os\\input\\src\\os_base\\os_common.c\0"
 594      65754F72 
 594      67615C50 
 594      726F6772 
 594      616D6D69 
 595 007d 00000000 		.long	Ltext0
 596 0081 74030000 		.long	Letext0-Ltext0
 597 0085 00000000 		.secrel32	Ldebug_line0
 598 0089 00000000 		.secrel32	Ldebug_macro0
 599 008d 02       		.uleb128 0x2
 600 008e 01       		.byte	0x1
 601 008f 08       		.byte	0x8
GAS LISTING C:\Users\PRESID~1\AppData\Local\Temp\cccQu4Io.s 			page 16


 602 0090 756E7369 		.ascii "unsigned char\0"
 602      676E6564 
 602      20636861 
 602      7200
 603 009e 02       		.uleb128 0x2
 604 009f 01       		.byte	0x1
 605 00a0 06       		.byte	0x6
 606 00a1 7369676E 		.ascii "signed char\0"
 606      65642063 
 606      68617200 
 607 00ad 03       		.uleb128 0x3
 608 00ae 75696E74 		.ascii "uint8\0"
 608      3800
 609 00b4 02       		.byte	0x2
 610 00b5 21       		.byte	0x21
 611 00b6 8D000000 		.long	0x8d
 612 00ba 03       		.uleb128 0x3
 613 00bb 73696E74 		.ascii "sint8\0"
 613      3800
 614 00c1 02       		.byte	0x2
 615 00c2 22       		.byte	0x22
 616 00c3 9E000000 		.long	0x9e
 617 00c7 02       		.uleb128 0x2
 618 00c8 02       		.byte	0x2
 619 00c9 07       		.byte	0x7
 620 00ca 73686F72 		.ascii "short unsigned int\0"
 620      7420756E 
 620      7369676E 
 620      65642069 
 620      6E7400
 621 00dd 02       		.uleb128 0x2
 622 00de 02       		.byte	0x2
 623 00df 05       		.byte	0x5
 624 00e0 73686F72 		.ascii "short int\0"
 624      7420696E 
 624      7400
 625 00ea 03       		.uleb128 0x3
 626 00eb 75696E74 		.ascii "uint16\0"
 626      313600
 627 00f2 02       		.byte	0x2
 628 00f3 25       		.byte	0x25
 629 00f4 C7000000 		.long	0xc7
 630 00f8 03       		.uleb128 0x3
 631 00f9 756E7369 		.ascii "unsigned_int32_t\0"
 631      676E6564 
 631      5F696E74 
 631      33325F74 
 631      00
 632 010a 02       		.byte	0x2
 633 010b 27       		.byte	0x27
 634 010c 10010000 		.long	0x110
 635 0110 02       		.uleb128 0x2
 636 0111 04       		.byte	0x4
 637 0112 07       		.byte	0x7
 638 0113 6C6F6E67 		.ascii "long unsigned int\0"
 638      20756E73 
 638      69676E65 
GAS LISTING C:\Users\PRESID~1\AppData\Local\Temp\cccQu4Io.s 			page 17


 638      6420696E 
 638      7400
 639 0125 02       		.uleb128 0x2
 640 0126 04       		.byte	0x4
 641 0127 05       		.byte	0x5
 642 0128 6C6F6E67 		.ascii "long int\0"
 642      20696E74 
 642      00
 643 0131 03       		.uleb128 0x3
 644 0132 75696E74 		.ascii "uint32\0"
 644      333200
 645 0139 02       		.byte	0x2
 646 013a 29       		.byte	0x29
 647 013b 10010000 		.long	0x110
 648 013f 04       		.uleb128 0x4
 649 0140 6F735F73 		.ascii "os_sw_bugs_e\0"
 649      775F6275 
 649      67735F65 
 649      00
 650 014d 04       		.byte	0x4
 651 014e 03       		.byte	0x3
 652 014f 2B       		.byte	0x2b
 653 0150 82020000 		.long	0x282
 654 0154 05       		.uleb128 0x5
 655 0155 6F735F62 		.ascii "os_bug_no_bug\0"
 655      75675F6E 
 655      6F5F6275 
 655      6700
 656 0163 00       		.sleb128 0
 657 0164 05       		.uleb128 0x5
 658 0165 6F735F62 		.ascii "os_bug_taskstate_request_denied\0"
 658      75675F74 
 658      61736B73 
 658      74617465 
 658      5F726571 
 659 0185 01       		.sleb128 1
 660 0186 05       		.uleb128 0x5
 661 0187 6F735F62 		.ascii "os_bug_null_pointer\0"
 661      75675F6E 
 661      756C6C5F 
 661      706F696E 
 661      74657200 
 662 019b 02       		.sleb128 2
 663 019c 05       		.uleb128 0x5
 664 019d 6F735F62 		.ascii "os_bug_task_max_wait_time_reached\0"
 664      75675F74 
 664      61736B5F 
 664      6D61785F 
 664      77616974 
 665 01bf 03       		.sleb128 3
 666 01c0 05       		.uleb128 0x5
 667 01c1 6F735F62 		.ascii "os_bug_Task_unspecified\0"
 667      75675F54 
 667      61736B5F 
 667      756E7370 
 667      65636966 
 668 01d9 04       		.sleb128 4
GAS LISTING C:\Users\PRESID~1\AppData\Local\Temp\cccQu4Io.s 			page 18


 669 01da 05       		.uleb128 0x5
 670 01db 6F735F62 		.ascii "os_bug_exception_UndefInstruction\0"
 670      75675F65 
 670      78636570 
 670      74696F6E 
 670      5F556E64 
 671 01fd 05       		.sleb128 5
 672 01fe 05       		.uleb128 0x5
 673 01ff 6F735F62 		.ascii "os_bug_exception_AbortPrefetch\0"
 673      75675F65 
 673      78636570 
 673      74696F6E 
 673      5F41626F 
 674 021e 06       		.sleb128 6
 675 021f 05       		.uleb128 0x5
 676 0220 6F735F62 		.ascii "os_bug_exception_AbortData\0"
 676      75675F65 
 676      78636570 
 676      74696F6E 
 676      5F41626F 
 677 023b 07       		.sleb128 7
 678 023c 05       		.uleb128 0x5
 679 023d 6F735F62 		.ascii "os_bug_reset_exit_or_shutdown_failed\0"
 679      75675F72 
 679      65736574 
 679      5F657869 
 679      745F6F72 
 680 0262 08       		.sleb128 8
 681 0263 05       		.uleb128 0x5
 682 0264 6F735F62 		.ascii "os_bug_critical_stack_usage\0"
 682      75675F63 
 682      72697469 
 682      63616C5F 
 682      73746163 
 683 0280 09       		.sleb128 9
 684 0281 00       		.byte	0
 685 0282 03       		.uleb128 0x3
 686 0283 6F735F73 		.ascii "os_sw_bugs_t\0"
 686      775F6275 
 686      67735F74 
 686      00
 687 0290 03       		.byte	0x3
 688 0291 38       		.byte	0x38
 689 0292 3F010000 		.long	0x13f
 690 0296 03       		.uleb128 0x3
 691 0297 626F6F6C 		.ascii "boolean_t\0"
 691      65616E5F 
 691      7400
 692 02a1 03       		.byte	0x3
 693 02a2 39       		.byte	0x39
 694 02a3 AD000000 		.long	0xad
 695 02a7 04       		.uleb128 0x4
 696 02a8 6F735F73 		.ascii "os_sw_bugs_function_e\0"
 696      775F6275 
 696      67735F66 
 696      756E6374 
 696      696F6E5F 
GAS LISTING C:\Users\PRESID~1\AppData\Local\Temp\cccQu4Io.s 			page 19


 697 02be 04       		.byte	0x4
 698 02bf 03       		.byte	0x3
 699 02c0 3A       		.byte	0x3a
 700 02c1 4C040000 		.long	0x44c
 701 02c5 05       		.uleb128 0x5
 702 02c6 46756E63 		.ascii "Func_NoFunction\0"
 702      5F4E6F46 
 702      756E6374 
 702      696F6E00 
 703 02d6 00       		.sleb128 0
 704 02d7 05       		.uleb128 0x5
 705 02d8 46756E63 		.ascii "Func_SaveTaskEnvironment\0"
 705      5F536176 
 705      65546173 
 705      6B456E76 
 705      69726F6E 
 706 02f1 01       		.sleb128 1
 707 02f2 05       		.uleb128 0x5
 708 02f3 46756E63 		.ascii "Func_RestoreTaskEnvironment\0"
 708      5F526573 
 708      746F7265 
 708      5461736B 
 708      456E7669 
 709 030f 02       		.sleb128 2
 710 0310 05       		.uleb128 0x5
 711 0311 46756E63 		.ascii "Func_CreateTaskEnvironment\0"
 711      5F437265 
 711      61746554 
 711      61736B45 
 711      6E766972 
 712 032c 03       		.sleb128 3
 713 032d 05       		.uleb128 0x5
 714 032e 46756E63 		.ascii "Func_DeleteTaskEnvironment\0"
 714      5F44656C 
 714      65746554 
 714      61736B45 
 714      6E766972 
 715 0349 04       		.sleb128 4
 716 034a 05       		.uleb128 0x5
 717 034b 46756E63 		.ascii "Func_InitTaskEnvironment\0"
 717      5F496E69 
 717      74546173 
 717      6B456E76 
 717      69726F6E 
 718 0364 05       		.sleb128 5
 719 0365 05       		.uleb128 0x5
 720 0366 46756E63 		.ascii "Func_StartTask\0"
 720      5F537461 
 720      72745461 
 720      736B00
 721 0375 06       		.sleb128 6
 722 0376 05       		.uleb128 0x5
 723 0377 46756E63 		.ascii "Func_PreemptTask\0"
 723      5F507265 
 723      656D7074 
 723      5461736B 
 723      00
GAS LISTING C:\Users\PRESID~1\AppData\Local\Temp\cccQu4Io.s 			page 20


 724 0388 07       		.sleb128 7
 725 0389 05       		.uleb128 0x5
 726 038a 46756E63 		.ascii "Func_TerminateTask\0"
 726      5F546572 
 726      6D696E61 
 726      74655461 
 726      736B00
 727 039d 08       		.sleb128 8
 728 039e 05       		.uleb128 0x5
 729 039f 46756E63 		.ascii "Func_TaskScheduler\0"
 729      5F546173 
 729      6B536368 
 729      6564756C 
 729      657200
 730 03b2 09       		.sleb128 9
 731 03b3 05       		.uleb128 0x5
 732 03b4 46756E63 		.ascii "Func_InitTask\0"
 732      5F496E69 
 732      74546173 
 732      6B00
 733 03c2 0A       		.sleb128 10
 734 03c3 05       		.uleb128 0x5
 735 03c4 46756E63 		.ascii "Func_ActivateTask\0"
 735      5F416374 
 735      69766174 
 735      65546173 
 735      6B00
 736 03d6 0B       		.sleb128 11
 737 03d7 05       		.uleb128 0x5
 738 03d8 46756E63 		.ascii "Func_TaskStateRequest\0"
 738      5F546173 
 738      6B537461 
 738      74655265 
 738      71756573 
 739 03ee 0C       		.sleb128 12
 740 03ef 05       		.uleb128 0x5
 741 03f0 46756E63 		.ascii "Func_Preempt_Task\0"
 741      5F507265 
 741      656D7074 
 741      5F546173 
 741      6B00
 742 0402 0D       		.sleb128 13
 743 0403 05       		.uleb128 0x5
 744 0404 46756E63 		.ascii "Func_os_exception\0"
 744      5F6F735F 
 744      65786365 
 744      7074696F 
 744      6E00
 745 0416 0E       		.sleb128 14
 746 0417 05       		.uleb128 0x5
 747 0418 46756E63 		.ascii "Func_CreateTask\0"
 747      5F437265 
 747      61746554 
 747      61736B00 
 748 0428 0F       		.sleb128 15
 749 0429 05       		.uleb128 0x5
 750 042a 46756E63 		.ascii "Func_Shutdown\0"
GAS LISTING C:\Users\PRESID~1\AppData\Local\Temp\cccQu4Io.s 			page 21


 750      5F536875 
 750      74646F77 
 750      6E00
 751 0438 10       		.sleb128 16
 752 0439 05       		.uleb128 0x5
 753 043a 46756E63 		.ascii "Func_StackCheck\0"
 753      5F537461 
 753      636B4368 
 753      65636B00 
 754 044a 11       		.sleb128 17
 755 044b 00       		.byte	0
 756 044c 03       		.uleb128 0x3
 757 044d 6F735F73 		.ascii "os_sw_bugs_function_t\0"
 757      775F6275 
 757      67735F66 
 757      756E6374 
 757      696F6E5F 
 758 0463 03       		.byte	0x3
 759 0464 4F       		.byte	0x4f
 760 0465 A7020000 		.long	0x2a7
 761 0469 06       		.uleb128 0x6
 762 046a 42696749 		.ascii "BigInt_s\0"
 762      6E745F73 
 762      00
 763 0473 10       		.byte	0x10
 764 0474 03       		.byte	0x3
 765 0475 59       		.byte	0x59
 766 0476 8A040000 		.long	0x48a
 767 047a 07       		.uleb128 0x7
 768 047b 4E756D62 		.ascii "Number\0"
 768      657200
 769 0482 03       		.byte	0x3
 770 0483 62       		.byte	0x62
 771 0484 8A040000 		.long	0x48a
 772 0488 00       		.byte	0
 773 0489 00       		.byte	0
 774 048a 08       		.uleb128 0x8
 775 048b AD000000 		.long	0xad
 776 048f 9A040000 		.long	0x49a
 777 0493 09       		.uleb128 0x9
 778 0494 9A040000 		.long	0x49a
 779 0498 0F       		.byte	0xf
 780 0499 00       		.byte	0
 781 049a 02       		.uleb128 0x2
 782 049b 04       		.byte	0x4
 783 049c 07       		.byte	0x7
 784 049d 73697A65 		.ascii "sizetype\0"
 784      74797065 
 784      00
 785 04a6 03       		.uleb128 0x3
 786 04a7 42696749 		.ascii "BigInt\0"
 786      6E7400
 787 04ae 03       		.byte	0x3
 788 04af 63       		.byte	0x63
 789 04b0 69040000 		.long	0x469
 790 04b4 02       		.uleb128 0x2
 791 04b5 04       		.byte	0x4
GAS LISTING C:\Users\PRESID~1\AppData\Local\Temp\cccQu4Io.s 			page 22


 792 04b6 07       		.byte	0x7
 793 04b7 756E7369 		.ascii "unsigned int\0"
 793      676E6564 
 793      20696E74 
 793      00
 794 04c4 0A       		.uleb128 0xa
 795 04c5 4F535F53 		.ascii "OS_SetSwBug\0"
 795      65745377 
 795      42756700 
 796 04d1 01       		.byte	0x1
 797 04d2 04       		.byte	0x4
 798 04d3 00000000 		.long	LFB0
 799 04d7 12000000 		.long	LFE0-LFB0
 800 04db 01       		.uleb128 0x1
 801 04dc 9C       		.byte	0x9c
 802 04dd 0A050000 		.long	0x50a
 803 04e1 0B       		.uleb128 0xb
 804 04e2 6275675F 		.ascii "bug_nr\0"
 804      6E7200
 805 04e9 01       		.byte	0x1
 806 04ea 04       		.byte	0x4
 807 04eb 82020000 		.long	0x282
 808 04ef 02       		.uleb128 0x2
 809 04f0 91       		.byte	0x91
 810 04f1 00       		.sleb128 0
 811 04f2 0B       		.uleb128 0xb
 812 04f3 7461736B 		.ascii "task_func_nr\0"
 812      5F66756E 
 812      635F6E72 
 812      00
 813 0500 01       		.byte	0x1
 814 0501 04       		.byte	0x4
 815 0502 4C040000 		.long	0x44c
 816 0506 02       		.uleb128 0x2
 817 0507 91       		.byte	0x91
 818 0508 04       		.sleb128 4
 819 0509 00       		.byte	0
 820 050a 0C       		.uleb128 0xc
 821 050b 4F535F47 		.ascii "OS_GetCurrentTime\0"
 821      65744375 
 821      7272656E 
 821      7454696D 
 821      6500
 822 051d 01       		.byte	0x1
 823 051e 0F       		.byte	0xf
 824 051f F8000000 		.long	0xf8
 825 0523 12000000 		.long	LFB1
 826 0527 13000000 		.long	LFE1-LFB1
 827 052b 01       		.uleb128 0x1
 828 052c 9C       		.byte	0x9c
 829 052d 44050000 		.long	0x544
 830 0531 0D       		.uleb128 0xd
 831 0532 74696D65 		.ascii "time\0"
 831      00
 832 0537 01       		.byte	0x1
 833 0538 17       		.byte	0x17
 834 0539 31010000 		.long	0x131
GAS LISTING C:\Users\PRESID~1\AppData\Local\Temp\cccQu4Io.s 			page 23


 835 053d 05       		.uleb128 0x5
 836 053e 03       		.byte	0x3
 837 053f 00000000 		.long	_time.1315
 838 0543 00       		.byte	0
 839 0544 0E       		.uleb128 0xe
 840 0545 4F535F52 		.ascii "OS_ResetCurrentTime\0"
 840      65736574 
 840      43757272 
 840      656E7454 
 840      696D6500 
 841 0559 01       		.byte	0x1
 842 055a 1D       		.byte	0x1d
 843 055b 25000000 		.long	LFB2
 844 055f 40000000 		.long	LFE2-LFB2
 845 0563 01       		.uleb128 0x1
 846 0564 9C       		.byte	0x9c
 847 0565 0A       		.uleb128 0xa
 848 0566 496E7441 		.ascii "IntAdd\0"
 848      646400
 849 056d 01       		.byte	0x1
 850 056e 2E       		.byte	0x2e
 851 056f 65000000 		.long	LFB3
 852 0573 60000000 		.long	LFE3-LFB3
 853 0577 01       		.uleb128 0x1
 854 0578 9C       		.byte	0x9c
 855 0579 F8050000 		.long	0x5f8
 856 057d 0B       		.uleb128 0xb
 857 057e 53756D6D 		.ascii "Summe\0"
 857      6500
 858 0584 01       		.byte	0x1
 859 0585 2E       		.byte	0x2e
 860 0586 F8050000 		.long	0x5f8
 861 058a 02       		.uleb128 0x2
 862 058b 91       		.byte	0x91
 863 058c 00       		.sleb128 0
 864 058d 0B       		.uleb128 0xb
 865 058e 45727374 		.ascii "ErsterSummand\0"
 865      65725375 
 865      6D6D616E 
 865      6400
 866 059c 01       		.byte	0x1
 867 059d 2E       		.byte	0x2e
 868 059e F8050000 		.long	0x5f8
 869 05a2 02       		.uleb128 0x2
 870 05a3 91       		.byte	0x91
 871 05a4 04       		.sleb128 4
 872 05a5 0B       		.uleb128 0xb
 873 05a6 5A776569 		.ascii "ZweiterSummand\0"
 873      74657253 
 873      756D6D61 
 873      6E6400
 874 05b5 01       		.byte	0x1
 875 05b6 2E       		.byte	0x2e
 876 05b7 F8050000 		.long	0x5f8
 877 05bb 02       		.uleb128 0x2
 878 05bc 91       		.byte	0x91
 879 05bd 08       		.sleb128 8
GAS LISTING C:\Users\PRESID~1\AppData\Local\Temp\cccQu4Io.s 			page 24


 880 05be 0D       		.uleb128 0xd
 881 05bf 706F7300 		.ascii "pos\0"
 882 05c3 01       		.byte	0x1
 883 05c4 30       		.byte	0x30
 884 05c5 BA000000 		.long	0xba
 885 05c9 02       		.uleb128 0x2
 886 05ca 91       		.byte	0x91
 887 05cb 77       		.sleb128 -9
 888 05cc 0D       		.uleb128 0xd
 889 05cd 63617272 		.ascii "carry\0"
 889      7900
 890 05d3 01       		.byte	0x1
 891 05d4 31       		.byte	0x31
 892 05d5 EA000000 		.long	0xea
 893 05d9 02       		.uleb128 0x2
 894 05da 91       		.byte	0x91
 895 05db 74       		.sleb128 -12
 896 05dc 0F       		.uleb128 0xf
 897 05dd 77000000 		.long	LBB2
 898 05e1 3F000000 		.long	LBE2-LBB2
 899 05e5 0D       		.uleb128 0xd
 900 05e6 746D7053 		.ascii "tmpSum\0"
 900      756D00
 901 05ed 01       		.byte	0x1
 902 05ee 35       		.byte	0x35
 903 05ef EA000000 		.long	0xea
 904 05f3 02       		.uleb128 0x2
 905 05f4 91       		.byte	0x91
 906 05f5 72       		.sleb128 -14
 907 05f6 00       		.byte	0
 908 05f7 00       		.byte	0
 909 05f8 10       		.uleb128 0x10
 910 05f9 04       		.byte	0x4
 911 05fa A6040000 		.long	0x4a6
 912 05fe 0A       		.uleb128 0xa
 913 05ff 496E7453 		.ascii "IntSub\0"
 913      756200
 914 0606 01       		.byte	0x1
 915 0607 3A       		.byte	0x3a
 916 0608 C5000000 		.long	LFB4
 917 060c DE000000 		.long	LFE4-LFB4
 918 0610 01       		.uleb128 0x1
 919 0611 9C       		.byte	0x9c
 920 0612 8C060000 		.long	0x68c
 921 0616 0B       		.uleb128 0xb
 922 0617 44696666 		.ascii "Differenz\0"
 922      6572656E 
 922      7A00
 923 0621 01       		.byte	0x1
 924 0622 3A       		.byte	0x3a
 925 0623 F8050000 		.long	0x5f8
 926 0627 02       		.uleb128 0x2
 927 0628 91       		.byte	0x91
 928 0629 00       		.sleb128 0
 929 062a 0B       		.uleb128 0xb
 930 062b 4D696E75 		.ascii "Minuend\0"
 930      656E6400 
GAS LISTING C:\Users\PRESID~1\AppData\Local\Temp\cccQu4Io.s 			page 25


 931 0633 01       		.byte	0x1
 932 0634 3A       		.byte	0x3a
 933 0635 F8050000 		.long	0x5f8
 934 0639 02       		.uleb128 0x2
 935 063a 91       		.byte	0x91
 936 063b 04       		.sleb128 4
 937 063c 0B       		.uleb128 0xb
 938 063d 53756274 		.ascii "Subtrahend\0"
 938      72616865 
 938      6E6400
 939 0648 01       		.byte	0x1
 940 0649 3A       		.byte	0x3a
 941 064a F8050000 		.long	0x5f8
 942 064e 02       		.uleb128 0x2
 943 064f 91       		.byte	0x91
 944 0650 08       		.sleb128 8
 945 0651 0D       		.uleb128 0xd
 946 0652 706F7300 		.ascii "pos\0"
 947 0656 01       		.byte	0x1
 948 0657 3C       		.byte	0x3c
 949 0658 BA000000 		.long	0xba
 950 065c 02       		.uleb128 0x2
 951 065d 91       		.byte	0x91
 952 065e 77       		.sleb128 -9
 953 065f 0D       		.uleb128 0xd
 954 0660 63617272 		.ascii "carry\0"
 954      7900
 955 0666 01       		.byte	0x1
 956 0667 3D       		.byte	0x3d
 957 0668 EA000000 		.long	0xea
 958 066c 02       		.uleb128 0x2
 959 066d 91       		.byte	0x91
 960 066e 72       		.sleb128 -14
 961 066f 0F       		.uleb128 0xf
 962 0670 DA000000 		.long	LBB3
 963 0674 B6000000 		.long	LBE3-LBB3
 964 0678 0D       		.uleb128 0xd
 965 0679 746D7044 		.ascii "tmpDiff\0"
 965      69666600 
 966 0681 01       		.byte	0x1
 967 0682 41       		.byte	0x41
 968 0683 EA000000 		.long	0xea
 969 0687 02       		.uleb128 0x2
 970 0688 91       		.byte	0x91
 971 0689 74       		.sleb128 -12
 972 068a 00       		.byte	0
 973 068b 00       		.byte	0
 974 068c 0C       		.uleb128 0xc
 975 068d 49734C65 		.ascii "IsLess\0"
 975      737300
 976 0694 01       		.byte	0x1
 977 0695 82       		.byte	0x82
 978 0696 96020000 		.long	0x296
 979 069a A3010000 		.long	LFB5
 980 069e 5E000000 		.long	LFE5-LFB5
 981 06a2 01       		.uleb128 0x1
 982 06a3 9C       		.byte	0x9c
GAS LISTING C:\Users\PRESID~1\AppData\Local\Temp\cccQu4Io.s 			page 26


 983 06a4 E4060000 		.long	0x6e4
 984 06a8 11       		.uleb128 0x11
 985 06a9 15000000 		.secrel32	LASF0
 986 06ad 01       		.byte	0x1
 987 06ae 82       		.byte	0x82
 988 06af F8050000 		.long	0x5f8
 989 06b3 02       		.uleb128 0x2
 990 06b4 91       		.byte	0x91
 991 06b5 00       		.sleb128 0
 992 06b6 11       		.uleb128 0x11
 993 06b7 00000000 		.secrel32	LASF1
 994 06bb 01       		.byte	0x1
 995 06bc 82       		.byte	0x82
 996 06bd F8050000 		.long	0x5f8
 997 06c1 02       		.uleb128 0x2
 998 06c2 91       		.byte	0x91
 999 06c3 04       		.sleb128 4
 1000 06c4 0D       		.uleb128 0xd
 1001 06c5 706F7300 		.ascii "pos\0"
 1002 06c9 01       		.byte	0x1
 1003 06ca 84       		.byte	0x84
 1004 06cb AD000000 		.long	0xad
 1005 06cf 02       		.uleb128 0x2
 1006 06d0 91       		.byte	0x91
 1007 06d1 77       		.sleb128 -9
 1008 06d2 0D       		.uleb128 0xd
 1009 06d3 49734C65 		.ascii "IsLess\0"
 1009      737300
 1010 06da 01       		.byte	0x1
 1011 06db 85       		.byte	0x85
 1012 06dc 96020000 		.long	0x296
 1013 06e0 02       		.uleb128 0x2
 1014 06e1 91       		.byte	0x91
 1015 06e2 76       		.sleb128 -10
 1016 06e3 00       		.byte	0
 1017 06e4 12       		.uleb128 0x12
 1018 06e5 49734C65 		.ascii "IsLessOrEqual\0"
 1018      73734F72 
 1018      45717561 
 1018      6C00
 1019 06f3 01       		.byte	0x1
 1020 06f4 99       		.byte	0x99
 1021 06f5 96020000 		.long	0x296
 1022 06f9 01020000 		.long	LFB6
 1023 06fd 40000000 		.long	LFE6-LFB6
 1024 0701 01       		.uleb128 0x1
 1025 0702 9C       		.byte	0x9c
 1026 0703 24070000 		.long	0x724
 1027 0707 11       		.uleb128 0x11
 1028 0708 15000000 		.secrel32	LASF0
 1029 070c 01       		.byte	0x1
 1030 070d 99       		.byte	0x99
 1031 070e F8050000 		.long	0x5f8
 1032 0712 02       		.uleb128 0x2
 1033 0713 91       		.byte	0x91
 1034 0714 00       		.sleb128 0
 1035 0715 11       		.uleb128 0x11
GAS LISTING C:\Users\PRESID~1\AppData\Local\Temp\cccQu4Io.s 			page 27


 1036 0716 00000000 		.secrel32	LASF1
 1037 071a 01       		.byte	0x1
 1038 071b 99       		.byte	0x99
 1039 071c F8050000 		.long	0x5f8
 1040 0720 02       		.uleb128 0x2
 1041 0721 91       		.byte	0x91
 1042 0722 04       		.sleb128 4
 1043 0723 00       		.byte	0
 1044 0724 0C       		.uleb128 0xc
 1045 0725 49734571 		.ascii "IsEqual\0"
 1045      75616C00 
 1046 072d 01       		.byte	0x1
 1047 072e 9D       		.byte	0x9d
 1048 072f 96020000 		.long	0x296
 1049 0733 41020000 		.long	LFB7
 1050 0737 40000000 		.long	LFE7-LFB7
 1051 073b 01       		.uleb128 0x1
 1052 073c 9C       		.byte	0x9c
 1053 073d 7E070000 		.long	0x77e
 1054 0741 11       		.uleb128 0x11
 1055 0742 15000000 		.secrel32	LASF0
 1056 0746 01       		.byte	0x1
 1057 0747 9D       		.byte	0x9d
 1058 0748 F8050000 		.long	0x5f8
 1059 074c 02       		.uleb128 0x2
 1060 074d 91       		.byte	0x91
 1061 074e 00       		.sleb128 0
 1062 074f 11       		.uleb128 0x11
 1063 0750 00000000 		.secrel32	LASF1
 1064 0754 01       		.byte	0x1
 1065 0755 9D       		.byte	0x9d
 1066 0756 F8050000 		.long	0x5f8
 1067 075a 02       		.uleb128 0x2
 1068 075b 91       		.byte	0x91
 1069 075c 04       		.sleb128 4
 1070 075d 0D       		.uleb128 0xd
 1071 075e 706F7300 		.ascii "pos\0"
 1072 0762 01       		.byte	0x1
 1073 0763 9F       		.byte	0x9f
 1074 0764 AD000000 		.long	0xad
 1075 0768 02       		.uleb128 0x2
 1076 0769 91       		.byte	0x91
 1077 076a 77       		.sleb128 -9
 1078 076b 0D       		.uleb128 0xd
 1079 076c 49734571 		.ascii "IsEqual\0"
 1079      75616C00 
 1080 0774 01       		.byte	0x1
 1081 0775 A0       		.byte	0xa0
 1082 0776 96020000 		.long	0x296
 1083 077a 02       		.uleb128 0x2
 1084 077b 91       		.byte	0x91
 1085 077c 76       		.sleb128 -10
 1086 077d 00       		.byte	0
 1087 077e 13       		.uleb128 0x13
 1088 077f 1E000000 		.secrel32	LASF2
 1089 0783 01       		.byte	0x1
 1090 0784 AF       		.byte	0xaf
GAS LISTING C:\Users\PRESID~1\AppData\Local\Temp\cccQu4Io.s 			page 28


 1091 0785 96020000 		.long	0x296
 1092 0789 81020000 		.long	LFB8
 1093 078d 5E000000 		.long	LFE8-LFB8
 1094 0791 01       		.uleb128 0x1
 1095 0792 9C       		.byte	0x9c
 1096 0793 D0070000 		.long	0x7d0
 1097 0797 11       		.uleb128 0x11
 1098 0798 15000000 		.secrel32	LASF0
 1099 079c 01       		.byte	0x1
 1100 079d AF       		.byte	0xaf
 1101 079e F8050000 		.long	0x5f8
 1102 07a2 02       		.uleb128 0x2
 1103 07a3 91       		.byte	0x91
 1104 07a4 00       		.sleb128 0
 1105 07a5 11       		.uleb128 0x11
 1106 07a6 00000000 		.secrel32	LASF1
 1107 07aa 01       		.byte	0x1
 1108 07ab AF       		.byte	0xaf
 1109 07ac F8050000 		.long	0x5f8
 1110 07b0 02       		.uleb128 0x2
 1111 07b1 91       		.byte	0x91
 1112 07b2 04       		.sleb128 4
 1113 07b3 0D       		.uleb128 0xd
 1114 07b4 706F7300 		.ascii "pos\0"
 1115 07b8 01       		.byte	0x1
 1116 07b9 B1       		.byte	0xb1
 1117 07ba AD000000 		.long	0xad
 1118 07be 02       		.uleb128 0x2
 1119 07bf 91       		.byte	0x91
 1120 07c0 77       		.sleb128 -9
 1121 07c1 14       		.uleb128 0x14
 1122 07c2 1E000000 		.secrel32	LASF2
 1123 07c6 01       		.byte	0x1
 1124 07c7 B2       		.byte	0xb2
 1125 07c8 96020000 		.long	0x296
 1126 07cc 02       		.uleb128 0x2
 1127 07cd 91       		.byte	0x91
 1128 07ce 76       		.sleb128 -10
 1129 07cf 00       		.byte	0
 1130 07d0 12       		.uleb128 0x12
 1131 07d1 49734772 		.ascii "IsGreaterOrEqual\0"
 1131      65617465 
 1131      724F7245 
 1131      7175616C 
 1131      00
 1132 07e2 01       		.byte	0x1
 1133 07e3 C6       		.byte	0xc6
 1134 07e4 96020000 		.long	0x296
 1135 07e8 DF020000 		.long	LFB9
 1136 07ec 40000000 		.long	LFE9-LFB9
 1137 07f0 01       		.uleb128 0x1
 1138 07f1 9C       		.byte	0x9c
 1139 07f2 13080000 		.long	0x813
 1140 07f6 11       		.uleb128 0x11
 1141 07f7 15000000 		.secrel32	LASF0
 1142 07fb 01       		.byte	0x1
 1143 07fc C6       		.byte	0xc6
GAS LISTING C:\Users\PRESID~1\AppData\Local\Temp\cccQu4Io.s 			page 29


 1144 07fd F8050000 		.long	0x5f8
 1145 0801 02       		.uleb128 0x2
 1146 0802 91       		.byte	0x91
 1147 0803 00       		.sleb128 0
 1148 0804 11       		.uleb128 0x11
 1149 0805 00000000 		.secrel32	LASF1
 1150 0809 01       		.byte	0x1
 1151 080a C6       		.byte	0xc6
 1152 080b F8050000 		.long	0x5f8
 1153 080f 02       		.uleb128 0x2
 1154 0810 91       		.byte	0x91
 1155 0811 04       		.sleb128 4
 1156 0812 00       		.byte	0
 1157 0813 0A       		.uleb128 0xa
 1158 0814 41737369 		.ascii "Assign\0"
 1158      676E00
 1159 081b 01       		.byte	0x1
 1160 081c CA       		.byte	0xca
 1161 081d 1F030000 		.long	LFB10
 1162 0821 2F000000 		.long	LFE10-LFB10
 1163 0825 01       		.uleb128 0x1
 1164 0826 9C       		.byte	0x9c
 1165 0827 5F080000 		.long	0x85f
 1166 082b 11       		.uleb128 0x11
 1167 082c 09000000 		.secrel32	LASF3
 1168 0830 01       		.byte	0x1
 1169 0831 CA       		.byte	0xca
 1170 0832 F8050000 		.long	0x5f8
 1171 0836 02       		.uleb128 0x2
 1172 0837 91       		.byte	0x91
 1173 0838 00       		.sleb128 0
 1174 0839 0B       		.uleb128 0xb
 1175 083a 72696768 		.ascii "rightOperand\0"
 1175      744F7065 
 1175      72616E64 
 1175      00
 1176 0847 01       		.byte	0x1
 1177 0848 CA       		.byte	0xca
 1178 0849 F8050000 		.long	0x5f8
 1179 084d 02       		.uleb128 0x2
 1180 084e 91       		.byte	0x91
 1181 084f 04       		.sleb128 4
 1182 0850 0D       		.uleb128 0xd
 1183 0851 706F7300 		.ascii "pos\0"
 1184 0855 01       		.byte	0x1
 1185 0856 CC       		.byte	0xcc
 1186 0857 AD000000 		.long	0xad
 1187 085b 02       		.uleb128 0x2
 1188 085c 91       		.byte	0x91
 1189 085d 77       		.sleb128 -9
 1190 085e 00       		.byte	0
 1191 085f 0A       		.uleb128 0xa
 1192 0860 41737369 		.ascii "AssignNull\0"
 1192      676E4E75 
 1192      6C6C00
 1193 086b 01       		.byte	0x1
 1194 086c D2       		.byte	0xd2
GAS LISTING C:\Users\PRESID~1\AppData\Local\Temp\cccQu4Io.s 			page 30


 1195 086d 4E030000 		.long	LFB11
 1196 0871 26000000 		.long	LFE11-LFB11
 1197 0875 01       		.uleb128 0x1
 1198 0876 9C       		.byte	0x9c
 1199 0877 98080000 		.long	0x898
 1200 087b 11       		.uleb128 0x11
 1201 087c 09000000 		.secrel32	LASF3
 1202 0880 01       		.byte	0x1
 1203 0881 D2       		.byte	0xd2
 1204 0882 F8050000 		.long	0x5f8
 1205 0886 02       		.uleb128 0x2
 1206 0887 91       		.byte	0x91
 1207 0888 00       		.sleb128 0
 1208 0889 0D       		.uleb128 0xd
 1209 088a 706F7300 		.ascii "pos\0"
 1210 088e 01       		.byte	0x1
 1211 088f D4       		.byte	0xd4
 1212 0890 AD000000 		.long	0xad
 1213 0894 02       		.uleb128 0x2
 1214 0895 91       		.byte	0x91
 1215 0896 77       		.sleb128 -9
 1216 0897 00       		.byte	0
 1217 0898 08       		.uleb128 0x8
 1218 0899 82020000 		.long	0x282
 1219 089d A8080000 		.long	0x8a8
 1220 08a1 09       		.uleb128 0x9
 1221 08a2 9A040000 		.long	0x49a
 1222 08a6 0E       		.byte	0xe
 1223 08a7 00       		.byte	0
 1224 08a8 15       		.uleb128 0x15
 1225 08a9 4F535F53 		.ascii "OS_SW_BUG\0"
 1225      575F4255 
 1225      4700
 1226 08b3 04       		.byte	0x4
 1227 08b4 10       		.byte	0x10
 1228 08b5 B9080000 		.long	0x8b9
 1229 08b9 16       		.uleb128 0x16
 1230 08ba 98080000 		.long	0x898
 1231 08be 00       		.byte	0
 1232              		.section	.debug_abbrev,"dr"
 1233              	Ldebug_abbrev0:
 1234 0000 01       		.uleb128 0x1
 1235 0001 11       		.uleb128 0x11
 1236 0002 01       		.byte	0x1
 1237 0003 25       		.uleb128 0x25
 1238 0004 08       		.uleb128 0x8
 1239 0005 13       		.uleb128 0x13
 1240 0006 0B       		.uleb128 0xb
 1241 0007 03       		.uleb128 0x3
 1242 0008 08       		.uleb128 0x8
 1243 0009 11       		.uleb128 0x11
 1244 000a 01       		.uleb128 0x1
 1245 000b 12       		.uleb128 0x12
 1246 000c 06       		.uleb128 0x6
 1247 000d 10       		.uleb128 0x10
 1248 000e 17       		.uleb128 0x17
 1249 000f 9942     		.uleb128 0x2119
GAS LISTING C:\Users\PRESID~1\AppData\Local\Temp\cccQu4Io.s 			page 31


 1250 0011 17       		.uleb128 0x17
 1251 0012 00       		.byte	0
 1252 0013 00       		.byte	0
 1253 0014 02       		.uleb128 0x2
 1254 0015 24       		.uleb128 0x24
 1255 0016 00       		.byte	0
 1256 0017 0B       		.uleb128 0xb
 1257 0018 0B       		.uleb128 0xb
 1258 0019 3E       		.uleb128 0x3e
 1259 001a 0B       		.uleb128 0xb
 1260 001b 03       		.uleb128 0x3
 1261 001c 08       		.uleb128 0x8
 1262 001d 00       		.byte	0
 1263 001e 00       		.byte	0
 1264 001f 03       		.uleb128 0x3
 1265 0020 16       		.uleb128 0x16
 1266 0021 00       		.byte	0
 1267 0022 03       		.uleb128 0x3
 1268 0023 08       		.uleb128 0x8
 1269 0024 3A       		.uleb128 0x3a
 1270 0025 0B       		.uleb128 0xb
 1271 0026 3B       		.uleb128 0x3b
 1272 0027 0B       		.uleb128 0xb
 1273 0028 49       		.uleb128 0x49
 1274 0029 13       		.uleb128 0x13
 1275 002a 00       		.byte	0
 1276 002b 00       		.byte	0
 1277 002c 04       		.uleb128 0x4
 1278 002d 04       		.uleb128 0x4
 1279 002e 01       		.byte	0x1
 1280 002f 03       		.uleb128 0x3
 1281 0030 08       		.uleb128 0x8
 1282 0031 0B       		.uleb128 0xb
 1283 0032 0B       		.uleb128 0xb
 1284 0033 3A       		.uleb128 0x3a
 1285 0034 0B       		.uleb128 0xb
 1286 0035 3B       		.uleb128 0x3b
 1287 0036 0B       		.uleb128 0xb
 1288 0037 01       		.uleb128 0x1
 1289 0038 13       		.uleb128 0x13
 1290 0039 00       		.byte	0
 1291 003a 00       		.byte	0
 1292 003b 05       		.uleb128 0x5
 1293 003c 28       		.uleb128 0x28
 1294 003d 00       		.byte	0
 1295 003e 03       		.uleb128 0x3
 1296 003f 08       		.uleb128 0x8
 1297 0040 1C       		.uleb128 0x1c
 1298 0041 0D       		.uleb128 0xd
 1299 0042 00       		.byte	0
 1300 0043 00       		.byte	0
 1301 0044 06       		.uleb128 0x6
 1302 0045 13       		.uleb128 0x13
 1303 0046 01       		.byte	0x1
 1304 0047 03       		.uleb128 0x3
 1305 0048 08       		.uleb128 0x8
 1306 0049 0B       		.uleb128 0xb
GAS LISTING C:\Users\PRESID~1\AppData\Local\Temp\cccQu4Io.s 			page 32


 1307 004a 0B       		.uleb128 0xb
 1308 004b 3A       		.uleb128 0x3a
 1309 004c 0B       		.uleb128 0xb
 1310 004d 3B       		.uleb128 0x3b
 1311 004e 0B       		.uleb128 0xb
 1312 004f 01       		.uleb128 0x1
 1313 0050 13       		.uleb128 0x13
 1314 0051 00       		.byte	0
 1315 0052 00       		.byte	0
 1316 0053 07       		.uleb128 0x7
 1317 0054 0D       		.uleb128 0xd
 1318 0055 00       		.byte	0
 1319 0056 03       		.uleb128 0x3
 1320 0057 08       		.uleb128 0x8
 1321 0058 3A       		.uleb128 0x3a
 1322 0059 0B       		.uleb128 0xb
 1323 005a 3B       		.uleb128 0x3b
 1324 005b 0B       		.uleb128 0xb
 1325 005c 49       		.uleb128 0x49
 1326 005d 13       		.uleb128 0x13
 1327 005e 38       		.uleb128 0x38
 1328 005f 0B       		.uleb128 0xb
 1329 0060 00       		.byte	0
 1330 0061 00       		.byte	0
 1331 0062 08       		.uleb128 0x8
 1332 0063 01       		.uleb128 0x1
 1333 0064 01       		.byte	0x1
 1334 0065 49       		.uleb128 0x49
 1335 0066 13       		.uleb128 0x13
 1336 0067 01       		.uleb128 0x1
 1337 0068 13       		.uleb128 0x13
 1338 0069 00       		.byte	0
 1339 006a 00       		.byte	0
 1340 006b 09       		.uleb128 0x9
 1341 006c 21       		.uleb128 0x21
 1342 006d 00       		.byte	0
 1343 006e 49       		.uleb128 0x49
 1344 006f 13       		.uleb128 0x13
 1345 0070 2F       		.uleb128 0x2f
 1346 0071 0B       		.uleb128 0xb
 1347 0072 00       		.byte	0
 1348 0073 00       		.byte	0
 1349 0074 0A       		.uleb128 0xa
 1350 0075 2E       		.uleb128 0x2e
 1351 0076 01       		.byte	0x1
 1352 0077 3F       		.uleb128 0x3f
 1353 0078 19       		.uleb128 0x19
 1354 0079 03       		.uleb128 0x3
 1355 007a 08       		.uleb128 0x8
 1356 007b 3A       		.uleb128 0x3a
 1357 007c 0B       		.uleb128 0xb
 1358 007d 3B       		.uleb128 0x3b
 1359 007e 0B       		.uleb128 0xb
 1360 007f 27       		.uleb128 0x27
 1361 0080 19       		.uleb128 0x19
 1362 0081 11       		.uleb128 0x11
 1363 0082 01       		.uleb128 0x1
GAS LISTING C:\Users\PRESID~1\AppData\Local\Temp\cccQu4Io.s 			page 33


 1364 0083 12       		.uleb128 0x12
 1365 0084 06       		.uleb128 0x6
 1366 0085 40       		.uleb128 0x40
 1367 0086 18       		.uleb128 0x18
 1368 0087 9742     		.uleb128 0x2117
 1369 0089 19       		.uleb128 0x19
 1370 008a 01       		.uleb128 0x1
 1371 008b 13       		.uleb128 0x13
 1372 008c 00       		.byte	0
 1373 008d 00       		.byte	0
 1374 008e 0B       		.uleb128 0xb
 1375 008f 05       		.uleb128 0x5
 1376 0090 00       		.byte	0
 1377 0091 03       		.uleb128 0x3
 1378 0092 08       		.uleb128 0x8
 1379 0093 3A       		.uleb128 0x3a
 1380 0094 0B       		.uleb128 0xb
 1381 0095 3B       		.uleb128 0x3b
 1382 0096 0B       		.uleb128 0xb
 1383 0097 49       		.uleb128 0x49
 1384 0098 13       		.uleb128 0x13
 1385 0099 02       		.uleb128 0x2
 1386 009a 18       		.uleb128 0x18
 1387 009b 00       		.byte	0
 1388 009c 00       		.byte	0
 1389 009d 0C       		.uleb128 0xc
 1390 009e 2E       		.uleb128 0x2e
 1391 009f 01       		.byte	0x1
 1392 00a0 3F       		.uleb128 0x3f
 1393 00a1 19       		.uleb128 0x19
 1394 00a2 03       		.uleb128 0x3
 1395 00a3 08       		.uleb128 0x8
 1396 00a4 3A       		.uleb128 0x3a
 1397 00a5 0B       		.uleb128 0xb
 1398 00a6 3B       		.uleb128 0x3b
 1399 00a7 0B       		.uleb128 0xb
 1400 00a8 27       		.uleb128 0x27
 1401 00a9 19       		.uleb128 0x19
 1402 00aa 49       		.uleb128 0x49
 1403 00ab 13       		.uleb128 0x13
 1404 00ac 11       		.uleb128 0x11
 1405 00ad 01       		.uleb128 0x1
 1406 00ae 12       		.uleb128 0x12
 1407 00af 06       		.uleb128 0x6
 1408 00b0 40       		.uleb128 0x40
 1409 00b1 18       		.uleb128 0x18
 1410 00b2 9742     		.uleb128 0x2117
 1411 00b4 19       		.uleb128 0x19
 1412 00b5 01       		.uleb128 0x1
 1413 00b6 13       		.uleb128 0x13
 1414 00b7 00       		.byte	0
 1415 00b8 00       		.byte	0
 1416 00b9 0D       		.uleb128 0xd
 1417 00ba 34       		.uleb128 0x34
 1418 00bb 00       		.byte	0
 1419 00bc 03       		.uleb128 0x3
 1420 00bd 08       		.uleb128 0x8
GAS LISTING C:\Users\PRESID~1\AppData\Local\Temp\cccQu4Io.s 			page 34


 1421 00be 3A       		.uleb128 0x3a
 1422 00bf 0B       		.uleb128 0xb
 1423 00c0 3B       		.uleb128 0x3b
 1424 00c1 0B       		.uleb128 0xb
 1425 00c2 49       		.uleb128 0x49
 1426 00c3 13       		.uleb128 0x13
 1427 00c4 02       		.uleb128 0x2
 1428 00c5 18       		.uleb128 0x18
 1429 00c6 00       		.byte	0
 1430 00c7 00       		.byte	0
 1431 00c8 0E       		.uleb128 0xe
 1432 00c9 2E       		.uleb128 0x2e
 1433 00ca 00       		.byte	0
 1434 00cb 3F       		.uleb128 0x3f
 1435 00cc 19       		.uleb128 0x19
 1436 00cd 03       		.uleb128 0x3
 1437 00ce 08       		.uleb128 0x8
 1438 00cf 3A       		.uleb128 0x3a
 1439 00d0 0B       		.uleb128 0xb
 1440 00d1 3B       		.uleb128 0x3b
 1441 00d2 0B       		.uleb128 0xb
 1442 00d3 27       		.uleb128 0x27
 1443 00d4 19       		.uleb128 0x19
 1444 00d5 11       		.uleb128 0x11
 1445 00d6 01       		.uleb128 0x1
 1446 00d7 12       		.uleb128 0x12
 1447 00d8 06       		.uleb128 0x6
 1448 00d9 40       		.uleb128 0x40
 1449 00da 18       		.uleb128 0x18
 1450 00db 9742     		.uleb128 0x2117
 1451 00dd 19       		.uleb128 0x19
 1452 00de 00       		.byte	0
 1453 00df 00       		.byte	0
 1454 00e0 0F       		.uleb128 0xf
 1455 00e1 0B       		.uleb128 0xb
 1456 00e2 01       		.byte	0x1
 1457 00e3 11       		.uleb128 0x11
 1458 00e4 01       		.uleb128 0x1
 1459 00e5 12       		.uleb128 0x12
 1460 00e6 06       		.uleb128 0x6
 1461 00e7 00       		.byte	0
 1462 00e8 00       		.byte	0
 1463 00e9 10       		.uleb128 0x10
 1464 00ea 0F       		.uleb128 0xf
 1465 00eb 00       		.byte	0
 1466 00ec 0B       		.uleb128 0xb
 1467 00ed 0B       		.uleb128 0xb
 1468 00ee 49       		.uleb128 0x49
 1469 00ef 13       		.uleb128 0x13
 1470 00f0 00       		.byte	0
 1471 00f1 00       		.byte	0
 1472 00f2 11       		.uleb128 0x11
 1473 00f3 05       		.uleb128 0x5
 1474 00f4 00       		.byte	0
 1475 00f5 03       		.uleb128 0x3
 1476 00f6 0E       		.uleb128 0xe
 1477 00f7 3A       		.uleb128 0x3a
GAS LISTING C:\Users\PRESID~1\AppData\Local\Temp\cccQu4Io.s 			page 35


 1478 00f8 0B       		.uleb128 0xb
 1479 00f9 3B       		.uleb128 0x3b
 1480 00fa 0B       		.uleb128 0xb
 1481 00fb 49       		.uleb128 0x49
 1482 00fc 13       		.uleb128 0x13
 1483 00fd 02       		.uleb128 0x2
 1484 00fe 18       		.uleb128 0x18
 1485 00ff 00       		.byte	0
 1486 0100 00       		.byte	0
 1487 0101 12       		.uleb128 0x12
 1488 0102 2E       		.uleb128 0x2e
 1489 0103 01       		.byte	0x1
 1490 0104 3F       		.uleb128 0x3f
 1491 0105 19       		.uleb128 0x19
 1492 0106 03       		.uleb128 0x3
 1493 0107 08       		.uleb128 0x8
 1494 0108 3A       		.uleb128 0x3a
 1495 0109 0B       		.uleb128 0xb
 1496 010a 3B       		.uleb128 0x3b
 1497 010b 0B       		.uleb128 0xb
 1498 010c 27       		.uleb128 0x27
 1499 010d 19       		.uleb128 0x19
 1500 010e 49       		.uleb128 0x49
 1501 010f 13       		.uleb128 0x13
 1502 0110 11       		.uleb128 0x11
 1503 0111 01       		.uleb128 0x1
 1504 0112 12       		.uleb128 0x12
 1505 0113 06       		.uleb128 0x6
 1506 0114 40       		.uleb128 0x40
 1507 0115 18       		.uleb128 0x18
 1508 0116 9642     		.uleb128 0x2116
 1509 0118 19       		.uleb128 0x19
 1510 0119 01       		.uleb128 0x1
 1511 011a 13       		.uleb128 0x13
 1512 011b 00       		.byte	0
 1513 011c 00       		.byte	0
 1514 011d 13       		.uleb128 0x13
 1515 011e 2E       		.uleb128 0x2e
 1516 011f 01       		.byte	0x1
 1517 0120 3F       		.uleb128 0x3f
 1518 0121 19       		.uleb128 0x19
 1519 0122 03       		.uleb128 0x3
 1520 0123 0E       		.uleb128 0xe
 1521 0124 3A       		.uleb128 0x3a
 1522 0125 0B       		.uleb128 0xb
 1523 0126 3B       		.uleb128 0x3b
 1524 0127 0B       		.uleb128 0xb
 1525 0128 27       		.uleb128 0x27
 1526 0129 19       		.uleb128 0x19
 1527 012a 49       		.uleb128 0x49
 1528 012b 13       		.uleb128 0x13
 1529 012c 11       		.uleb128 0x11
 1530 012d 01       		.uleb128 0x1
 1531 012e 12       		.uleb128 0x12
 1532 012f 06       		.uleb128 0x6
 1533 0130 40       		.uleb128 0x40
 1534 0131 18       		.uleb128 0x18
GAS LISTING C:\Users\PRESID~1\AppData\Local\Temp\cccQu4Io.s 			page 36


 1535 0132 9742     		.uleb128 0x2117
 1536 0134 19       		.uleb128 0x19
 1537 0135 01       		.uleb128 0x1
 1538 0136 13       		.uleb128 0x13
 1539 0137 00       		.byte	0
 1540 0138 00       		.byte	0
 1541 0139 14       		.uleb128 0x14
 1542 013a 34       		.uleb128 0x34
 1543 013b 00       		.byte	0
 1544 013c 03       		.uleb128 0x3
 1545 013d 0E       		.uleb128 0xe
 1546 013e 3A       		.uleb128 0x3a
 1547 013f 0B       		.uleb128 0xb
 1548 0140 3B       		.uleb128 0x3b
 1549 0141 0B       		.uleb128 0xb
 1550 0142 49       		.uleb128 0x49
 1551 0143 13       		.uleb128 0x13
 1552 0144 02       		.uleb128 0x2
 1553 0145 18       		.uleb128 0x18
 1554 0146 00       		.byte	0
 1555 0147 00       		.byte	0
 1556 0148 15       		.uleb128 0x15
 1557 0149 34       		.uleb128 0x34
 1558 014a 00       		.byte	0
 1559 014b 03       		.uleb128 0x3
 1560 014c 08       		.uleb128 0x8
 1561 014d 3A       		.uleb128 0x3a
 1562 014e 0B       		.uleb128 0xb
 1563 014f 3B       		.uleb128 0x3b
 1564 0150 0B       		.uleb128 0xb
 1565 0151 49       		.uleb128 0x49
 1566 0152 13       		.uleb128 0x13
 1567 0153 3F       		.uleb128 0x3f
 1568 0154 19       		.uleb128 0x19
 1569 0155 3C       		.uleb128 0x3c
 1570 0156 19       		.uleb128 0x19
 1571 0157 00       		.byte	0
 1572 0158 00       		.byte	0
 1573 0159 16       		.uleb128 0x16
 1574 015a 35       		.uleb128 0x35
 1575 015b 00       		.byte	0
 1576 015c 49       		.uleb128 0x49
 1577 015d 13       		.uleb128 0x13
 1578 015e 00       		.byte	0
 1579 015f 00       		.byte	0
 1580 0160 00       		.byte	0
 1581              		.section	.debug_aranges,"dr"
 1582 0000 1C000000 		.long	0x1c
 1583 0004 0200     		.word	0x2
 1584 0006 00000000 		.secrel32	Ldebug_info0
 1585 000a 04       		.byte	0x4
 1586 000b 00       		.byte	0
 1587 000c 0000     		.word	0
 1588 000e 0000     		.word	0
 1589 0010 00000000 		.long	Ltext0
 1590 0014 74030000 		.long	Letext0-Ltext0
 1591 0018 00000000 		.long	0
GAS LISTING C:\Users\PRESID~1\AppData\Local\Temp\cccQu4Io.s 			page 37


 1592 001c 00000000 		.long	0
 1593              		.section	.debug_macro,"dr"
 1594              	Ldebug_macro0:
 1595 0000 0400     		.word	0x4
 1596 0002 02       		.byte	0x2
 1597 0003 00000000 		.secrel32	Ldebug_line0
 1598 0007 01       		.byte	0x1
 1599 0008 00       		.uleb128 0
 1600 0009 5F5F5354 		.ascii "__STDC__ 1\0"
 1600      44435F5F 
 1600      203100
 1601 0014 01       		.byte	0x1
 1602 0015 00       		.uleb128 0
 1603 0016 5F5F5354 		.ascii "__STDC_HOSTED__ 1\0"
 1603      44435F48 
 1603      4F535445 
 1603      445F5F20 
 1603      3100
 1604 0028 01       		.byte	0x1
 1605 0029 00       		.uleb128 0
 1606 002a 5F5F474E 		.ascii "__GNUC__ 4\0"
 1606      55435F5F 
 1606      203400
 1607 0035 01       		.byte	0x1
 1608 0036 00       		.uleb128 0
 1609 0037 5F5F474E 		.ascii "__GNUC_MINOR__ 9\0"
 1609      55435F4D 
 1609      494E4F52 
 1609      5F5F2039 
 1609      00
 1610 0048 01       		.byte	0x1
 1611 0049 00       		.uleb128 0
 1612 004a 5F5F474E 		.ascii "__GNUC_PATCHLEVEL__ 3\0"
 1612      55435F50 
 1612      41544348 
 1612      4C455645 
 1612      4C5F5F20 
 1613 0060 01       		.byte	0x1
 1614 0061 00       		.uleb128 0
 1615 0062 5F5F5645 		.ascii "__VERSION__ \"4.9.3\"\0"
 1615      5253494F 
 1615      4E5F5F20 
 1615      22342E39 
 1615      2E332200 
 1616 0076 01       		.byte	0x1
 1617 0077 00       		.uleb128 0
 1618 0078 5F5F4154 		.ascii "__ATOMIC_RELAXED 0\0"
 1618      4F4D4943 
 1618      5F52454C 
 1618      41584544 
 1618      203000
 1619 008b 01       		.byte	0x1
 1620 008c 00       		.uleb128 0
 1621 008d 5F5F4154 		.ascii "__ATOMIC_SEQ_CST 5\0"
 1621      4F4D4943 
 1621      5F534551 
 1621      5F435354 
GAS LISTING C:\Users\PRESID~1\AppData\Local\Temp\cccQu4Io.s 			page 38


 1621      203500
 1622 00a0 01       		.byte	0x1
 1623 00a1 00       		.uleb128 0
 1624 00a2 5F5F4154 		.ascii "__ATOMIC_ACQUIRE 2\0"
 1624      4F4D4943 
 1624      5F414351 
 1624      55495245 
 1624      203200
 1625 00b5 01       		.byte	0x1
 1626 00b6 00       		.uleb128 0
 1627 00b7 5F5F4154 		.ascii "__ATOMIC_RELEASE 3\0"
 1627      4F4D4943 
 1627      5F52454C 
 1627      45415345 
 1627      203300
 1628 00ca 01       		.byte	0x1
 1629 00cb 00       		.uleb128 0
 1630 00cc 5F5F4154 		.ascii "__ATOMIC_ACQ_REL 4\0"
 1630      4F4D4943 
 1630      5F414351 
 1630      5F52454C 
 1630      203400
 1631 00df 01       		.byte	0x1
 1632 00e0 00       		.uleb128 0
 1633 00e1 5F5F4154 		.ascii "__ATOMIC_CONSUME 1\0"
 1633      4F4D4943 
 1633      5F434F4E 
 1633      53554D45 
 1633      203100
 1634 00f4 01       		.byte	0x1
 1635 00f5 00       		.uleb128 0
 1636 00f6 5F5F4649 		.ascii "__FINITE_MATH_ONLY__ 0\0"
 1636      4E495445 
 1636      5F4D4154 
 1636      485F4F4E 
 1636      4C595F5F 
 1637 010d 01       		.byte	0x1
 1638 010e 00       		.uleb128 0
 1639 010f 5F5F5349 		.ascii "__SIZEOF_INT__ 4\0"
 1639      5A454F46 
 1639      5F494E54 
 1639      5F5F2034 
 1639      00
 1640 0120 01       		.byte	0x1
 1641 0121 00       		.uleb128 0
 1642 0122 5F5F5349 		.ascii "__SIZEOF_LONG__ 4\0"
 1642      5A454F46 
 1642      5F4C4F4E 
 1642      475F5F20 
 1642      3400
 1643 0134 01       		.byte	0x1
 1644 0135 00       		.uleb128 0
 1645 0136 5F5F5349 		.ascii "__SIZEOF_LONG_LONG__ 8\0"
 1645      5A454F46 
 1645      5F4C4F4E 
 1645      475F4C4F 
 1645      4E475F5F 
GAS LISTING C:\Users\PRESID~1\AppData\Local\Temp\cccQu4Io.s 			page 39


 1646 014d 01       		.byte	0x1
 1647 014e 00       		.uleb128 0
 1648 014f 5F5F5349 		.ascii "__SIZEOF_SHORT__ 2\0"
 1648      5A454F46 
 1648      5F53484F 
 1648      52545F5F 
 1648      203200
 1649 0162 01       		.byte	0x1
 1650 0163 00       		.uleb128 0
 1651 0164 5F5F5349 		.ascii "__SIZEOF_FLOAT__ 4\0"
 1651      5A454F46 
 1651      5F464C4F 
 1651      41545F5F 
 1651      203400
 1652 0177 01       		.byte	0x1
 1653 0178 00       		.uleb128 0
 1654 0179 5F5F5349 		.ascii "__SIZEOF_DOUBLE__ 8\0"
 1654      5A454F46 
 1654      5F444F55 
 1654      424C455F 
 1654      5F203800 
 1655 018d 01       		.byte	0x1
 1656 018e 00       		.uleb128 0
 1657 018f 5F5F5349 		.ascii "__SIZEOF_LONG_DOUBLE__ 12\0"
 1657      5A454F46 
 1657      5F4C4F4E 
 1657      475F444F 
 1657      55424C45 
 1658 01a9 01       		.byte	0x1
 1659 01aa 00       		.uleb128 0
 1660 01ab 5F5F5349 		.ascii "__SIZEOF_SIZE_T__ 4\0"
 1660      5A454F46 
 1660      5F53495A 
 1660      455F545F 
 1660      5F203400 
 1661 01bf 01       		.byte	0x1
 1662 01c0 00       		.uleb128 0
 1663 01c1 5F5F4348 		.ascii "__CHAR_BIT__ 8\0"
 1663      41525F42 
 1663      49545F5F 
 1663      203800
 1664 01d0 01       		.byte	0x1
 1665 01d1 00       		.uleb128 0
 1666 01d2 5F5F4249 		.ascii "__BIGGEST_ALIGNMENT__ 16\0"
 1666      47474553 
 1666      545F414C 
 1666      49474E4D 
 1666      454E545F 
 1667 01eb 01       		.byte	0x1
 1668 01ec 00       		.uleb128 0
 1669 01ed 5F5F4F52 		.ascii "__ORDER_LITTLE_ENDIAN__ 1234\0"
 1669      4445525F 
 1669      4C495454 
 1669      4C455F45 
 1669      4E444941 
 1670 020a 01       		.byte	0x1
 1671 020b 00       		.uleb128 0
GAS LISTING C:\Users\PRESID~1\AppData\Local\Temp\cccQu4Io.s 			page 40


 1672 020c 5F5F4F52 		.ascii "__ORDER_BIG_ENDIAN__ 4321\0"
 1672      4445525F 
 1672      4249475F 
 1672      454E4449 
 1672      414E5F5F 
 1673 0226 01       		.byte	0x1
 1674 0227 00       		.uleb128 0
 1675 0228 5F5F4F52 		.ascii "__ORDER_PDP_ENDIAN__ 3412\0"
 1675      4445525F 
 1675      5044505F 
 1675      454E4449 
 1675      414E5F5F 
 1676 0242 01       		.byte	0x1
 1677 0243 00       		.uleb128 0
 1678 0244 5F5F4259 		.ascii "__BYTE_ORDER__ __ORDER_LITTLE_ENDIAN__\0"
 1678      54455F4F 
 1678      52444552 
 1678      5F5F205F 
 1678      5F4F5244 
 1679 026b 01       		.byte	0x1
 1680 026c 00       		.uleb128 0
 1681 026d 5F5F464C 		.ascii "__FLOAT_WORD_ORDER__ __ORDER_LITTLE_ENDIAN__\0"
 1681      4F41545F 
 1681      574F5244 
 1681      5F4F5244 
 1681      45525F5F 
 1682 029a 01       		.byte	0x1
 1683 029b 00       		.uleb128 0
 1684 029c 5F5F5349 		.ascii "__SIZEOF_POINTER__ 4\0"
 1684      5A454F46 
 1684      5F504F49 
 1684      4E544552 
 1684      5F5F2034 
 1685 02b1 01       		.byte	0x1
 1686 02b2 00       		.uleb128 0
 1687 02b3 5F5F5349 		.ascii "__SIZE_TYPE__ unsigned int\0"
 1687      5A455F54 
 1687      5950455F 
 1687      5F20756E 
 1687      7369676E 
 1688 02ce 01       		.byte	0x1
 1689 02cf 00       		.uleb128 0
 1690 02d0 5F5F5054 		.ascii "__PTRDIFF_TYPE__ int\0"
 1690      52444946 
 1690      465F5459 
 1690      50455F5F 
 1690      20696E74 
 1691 02e5 01       		.byte	0x1
 1692 02e6 00       		.uleb128 0
 1693 02e7 5F5F5743 		.ascii "__WCHAR_TYPE__ short unsigned int\0"
 1693      4841525F 
 1693      54595045 
 1693      5F5F2073 
 1693      686F7274 
 1694 0309 01       		.byte	0x1
 1695 030a 00       		.uleb128 0
 1696 030b 5F5F5749 		.ascii "__WINT_TYPE__ short unsigned int\0"
GAS LISTING C:\Users\PRESID~1\AppData\Local\Temp\cccQu4Io.s 			page 41


 1696      4E545F54 
 1696      5950455F 
 1696      5F207368 
 1696      6F727420 
 1697 032c 01       		.byte	0x1
 1698 032d 00       		.uleb128 0
 1699 032e 5F5F494E 		.ascii "__INTMAX_TYPE__ long long int\0"
 1699      544D4158 
 1699      5F545950 
 1699      455F5F20 
 1699      6C6F6E67 
 1700 034c 01       		.byte	0x1
 1701 034d 00       		.uleb128 0
 1702 034e 5F5F5549 		.ascii "__UINTMAX_TYPE__ long long unsigned int\0"
 1702      4E544D41 
 1702      585F5459 
 1702      50455F5F 
 1702      206C6F6E 
 1703 0376 01       		.byte	0x1
 1704 0377 00       		.uleb128 0
 1705 0378 5F5F4348 		.ascii "__CHAR16_TYPE__ short unsigned int\0"
 1705      41523136 
 1705      5F545950 
 1705      455F5F20 
 1705      73686F72 
 1706 039b 01       		.byte	0x1
 1707 039c 00       		.uleb128 0
 1708 039d 5F5F4348 		.ascii "__CHAR32_TYPE__ unsigned int\0"
 1708      41523332 
 1708      5F545950 
 1708      455F5F20 
 1708      756E7369 
 1709 03ba 01       		.byte	0x1
 1710 03bb 00       		.uleb128 0
 1711 03bc 5F5F5349 		.ascii "__SIG_ATOMIC_TYPE__ int\0"
 1711      475F4154 
 1711      4F4D4943 
 1711      5F545950 
 1711      455F5F20 
 1712 03d4 01       		.byte	0x1
 1713 03d5 00       		.uleb128 0
 1714 03d6 5F5F494E 		.ascii "__INT8_TYPE__ signed char\0"
 1714      54385F54 
 1714      5950455F 
 1714      5F207369 
 1714      676E6564 
 1715 03f0 01       		.byte	0x1
 1716 03f1 00       		.uleb128 0
 1717 03f2 5F5F494E 		.ascii "__INT16_TYPE__ short int\0"
 1717      5431365F 
 1717      54595045 
 1717      5F5F2073 
 1717      686F7274 
 1718 040b 01       		.byte	0x1
 1719 040c 00       		.uleb128 0
 1720 040d 5F5F494E 		.ascii "__INT32_TYPE__ int\0"
 1720      5433325F 
GAS LISTING C:\Users\PRESID~1\AppData\Local\Temp\cccQu4Io.s 			page 42


 1720      54595045 
 1720      5F5F2069 
 1720      6E7400
 1721 0420 01       		.byte	0x1
 1722 0421 00       		.uleb128 0
 1723 0422 5F5F494E 		.ascii "__INT64_TYPE__ long long int\0"
 1723      5436345F 
 1723      54595045 
 1723      5F5F206C 
 1723      6F6E6720 
 1724 043f 01       		.byte	0x1
 1725 0440 00       		.uleb128 0
 1726 0441 5F5F5549 		.ascii "__UINT8_TYPE__ unsigned char\0"
 1726      4E54385F 
 1726      54595045 
 1726      5F5F2075 
 1726      6E736967 
 1727 045e 01       		.byte	0x1
 1728 045f 00       		.uleb128 0
 1729 0460 5F5F5549 		.ascii "__UINT16_TYPE__ short unsigned int\0"
 1729      4E543136 
 1729      5F545950 
 1729      455F5F20 
 1729      73686F72 
 1730 0483 01       		.byte	0x1
 1731 0484 00       		.uleb128 0
 1732 0485 5F5F5549 		.ascii "__UINT32_TYPE__ unsigned int\0"
 1732      4E543332 
 1732      5F545950 
 1732      455F5F20 
 1732      756E7369 
 1733 04a2 01       		.byte	0x1
 1734 04a3 00       		.uleb128 0
 1735 04a4 5F5F5549 		.ascii "__UINT64_TYPE__ long long unsigned int\0"
 1735      4E543634 
 1735      5F545950 
 1735      455F5F20 
 1735      6C6F6E67 
 1736 04cb 01       		.byte	0x1
 1737 04cc 00       		.uleb128 0
 1738 04cd 5F5F494E 		.ascii "__INT_LEAST8_TYPE__ signed char\0"
 1738      545F4C45 
 1738      41535438 
 1738      5F545950 
 1738      455F5F20 
 1739 04ed 01       		.byte	0x1
 1740 04ee 00       		.uleb128 0
 1741 04ef 5F5F494E 		.ascii "__INT_LEAST16_TYPE__ short int\0"
 1741      545F4C45 
 1741      41535431 
 1741      365F5459 
 1741      50455F5F 
 1742 050e 01       		.byte	0x1
 1743 050f 00       		.uleb128 0
 1744 0510 5F5F494E 		.ascii "__INT_LEAST32_TYPE__ int\0"
 1744      545F4C45 
 1744      41535433 
GAS LISTING C:\Users\PRESID~1\AppData\Local\Temp\cccQu4Io.s 			page 43


 1744      325F5459 
 1744      50455F5F 
 1745 0529 01       		.byte	0x1
 1746 052a 00       		.uleb128 0
 1747 052b 5F5F494E 		.ascii "__INT_LEAST64_TYPE__ long long int\0"
 1747      545F4C45 
 1747      41535436 
 1747      345F5459 
 1747      50455F5F 
 1748 054e 01       		.byte	0x1
 1749 054f 00       		.uleb128 0
 1750 0550 5F5F5549 		.ascii "__UINT_LEAST8_TYPE__ unsigned char\0"
 1750      4E545F4C 
 1750      45415354 
 1750      385F5459 
 1750      50455F5F 
 1751 0573 01       		.byte	0x1
 1752 0574 00       		.uleb128 0
 1753 0575 5F5F5549 		.ascii "__UINT_LEAST16_TYPE__ short unsigned int\0"
 1753      4E545F4C 
 1753      45415354 
 1753      31365F54 
 1753      5950455F 
 1754 059e 01       		.byte	0x1
 1755 059f 00       		.uleb128 0
 1756 05a0 5F5F5549 		.ascii "__UINT_LEAST32_TYPE__ unsigned int\0"
 1756      4E545F4C 
 1756      45415354 
 1756      33325F54 
 1756      5950455F 
 1757 05c3 01       		.byte	0x1
 1758 05c4 00       		.uleb128 0
 1759 05c5 5F5F5549 		.ascii "__UINT_LEAST64_TYPE__ long long unsigned int\0"
 1759      4E545F4C 
 1759      45415354 
 1759      36345F54 
 1759      5950455F 
 1760 05f2 01       		.byte	0x1
 1761 05f3 00       		.uleb128 0
 1762 05f4 5F5F494E 		.ascii "__INT_FAST8_TYPE__ signed char\0"
 1762      545F4641 
 1762      5354385F 
 1762      54595045 
 1762      5F5F2073 
 1763 0613 01       		.byte	0x1
 1764 0614 00       		.uleb128 0
 1765 0615 5F5F494E 		.ascii "__INT_FAST16_TYPE__ short int\0"
 1765      545F4641 
 1765      53543136 
 1765      5F545950 
 1765      455F5F20 
 1766 0633 01       		.byte	0x1
 1767 0634 00       		.uleb128 0
 1768 0635 5F5F494E 		.ascii "__INT_FAST32_TYPE__ int\0"
 1768      545F4641 
 1768      53543332 
 1768      5F545950 
GAS LISTING C:\Users\PRESID~1\AppData\Local\Temp\cccQu4Io.s 			page 44


 1768      455F5F20 
 1769 064d 01       		.byte	0x1
 1770 064e 00       		.uleb128 0
 1771 064f 5F5F494E 		.ascii "__INT_FAST64_TYPE__ long long int\0"
 1771      545F4641 
 1771      53543634 
 1771      5F545950 
 1771      455F5F20 
 1772 0671 01       		.byte	0x1
 1773 0672 00       		.uleb128 0
 1774 0673 5F5F5549 		.ascii "__UINT_FAST8_TYPE__ unsigned char\0"
 1774      4E545F46 
 1774      41535438 
 1774      5F545950 
 1774      455F5F20 
 1775 0695 01       		.byte	0x1
 1776 0696 00       		.uleb128 0
 1777 0697 5F5F5549 		.ascii "__UINT_FAST16_TYPE__ short unsigned int\0"
 1777      4E545F46 
 1777      41535431 
 1777      365F5459 
 1777      50455F5F 
 1778 06bf 01       		.byte	0x1
 1779 06c0 00       		.uleb128 0
 1780 06c1 5F5F5549 		.ascii "__UINT_FAST32_TYPE__ unsigned int\0"
 1780      4E545F46 
 1780      41535433 
 1780      325F5459 
 1780      50455F5F 
 1781 06e3 01       		.byte	0x1
 1782 06e4 00       		.uleb128 0
 1783 06e5 5F5F5549 		.ascii "__UINT_FAST64_TYPE__ long long unsigned int\0"
 1783      4E545F46 
 1783      41535436 
 1783      345F5459 
 1783      50455F5F 
 1784 0711 01       		.byte	0x1
 1785 0712 00       		.uleb128 0
 1786 0713 5F5F494E 		.ascii "__INTPTR_TYPE__ int\0"
 1786      54505452 
 1786      5F545950 
 1786      455F5F20 
 1786      696E7400 
 1787 0727 01       		.byte	0x1
 1788 0728 00       		.uleb128 0
 1789 0729 5F5F5549 		.ascii "__UINTPTR_TYPE__ unsigned int\0"
 1789      4E545054 
 1789      525F5459 
 1789      50455F5F 
 1789      20756E73 
 1790 0747 01       		.byte	0x1
 1791 0748 00       		.uleb128 0
 1792 0749 5F5F6861 		.ascii "__has_include(STR) __has_include__(STR)\0"
 1792      735F696E 
 1792      636C7564 
 1792      65285354 
 1792      5229205F 
GAS LISTING C:\Users\PRESID~1\AppData\Local\Temp\cccQu4Io.s 			page 45


 1793 0771 01       		.byte	0x1
 1794 0772 00       		.uleb128 0
 1795 0773 5F5F6861 		.ascii "__has_include_next(STR) __has_include_next__(STR)\0"
 1795      735F696E 
 1795      636C7564 
 1795      655F6E65 
 1795      78742853 
 1796 07a5 01       		.byte	0x1
 1797 07a6 00       		.uleb128 0
 1798 07a7 5F5F4758 		.ascii "__GXX_ABI_VERSION 1002\0"
 1798      585F4142 
 1798      495F5645 
 1798      5253494F 
 1798      4E203130 
 1799 07be 01       		.byte	0x1
 1800 07bf 00       		.uleb128 0
 1801 07c0 5F5F5343 		.ascii "__SCHAR_MAX__ 127\0"
 1801      4841525F 
 1801      4D41585F 
 1801      5F203132 
 1801      3700
 1802 07d2 01       		.byte	0x1
 1803 07d3 00       		.uleb128 0
 1804 07d4 5F5F5348 		.ascii "__SHRT_MAX__ 32767\0"
 1804      52545F4D 
 1804      41585F5F 
 1804      20333237 
 1804      363700
 1805 07e7 01       		.byte	0x1
 1806 07e8 00       		.uleb128 0
 1807 07e9 5F5F494E 		.ascii "__INT_MAX__ 2147483647\0"
 1807      545F4D41 
 1807      585F5F20 
 1807      32313437 
 1807      34383336 
 1808 0800 01       		.byte	0x1
 1809 0801 00       		.uleb128 0
 1810 0802 5F5F4C4F 		.ascii "__LONG_MAX__ 2147483647L\0"
 1810      4E475F4D 
 1810      41585F5F 
 1810      20323134 
 1810      37343833 
 1811 081b 01       		.byte	0x1
 1812 081c 00       		.uleb128 0
 1813 081d 5F5F4C4F 		.ascii "__LONG_LONG_MAX__ 9223372036854775807LL\0"
 1813      4E475F4C 
 1813      4F4E475F 
 1813      4D41585F 
 1813      5F203932 
 1814 0845 01       		.byte	0x1
 1815 0846 00       		.uleb128 0
 1816 0847 5F5F5743 		.ascii "__WCHAR_MAX__ 65535\0"
 1816      4841525F 
 1816      4D41585F 
 1816      5F203635 
 1816      35333500 
 1817 085b 01       		.byte	0x1
GAS LISTING C:\Users\PRESID~1\AppData\Local\Temp\cccQu4Io.s 			page 46


 1818 085c 00       		.uleb128 0
 1819 085d 5F5F5743 		.ascii "__WCHAR_MIN__ 0\0"
 1819      4841525F 
 1819      4D494E5F 
 1819      5F203000 
 1820 086d 01       		.byte	0x1
 1821 086e 00       		.uleb128 0
 1822 086f 5F5F5749 		.ascii "__WINT_MAX__ 65535\0"
 1822      4E545F4D 
 1822      41585F5F 
 1822      20363535 
 1822      333500
 1823 0882 01       		.byte	0x1
 1824 0883 00       		.uleb128 0
 1825 0884 5F5F5749 		.ascii "__WINT_MIN__ 0\0"
 1825      4E545F4D 
 1825      494E5F5F 
 1825      203000
 1826 0893 01       		.byte	0x1
 1827 0894 00       		.uleb128 0
 1828 0895 5F5F5054 		.ascii "__PTRDIFF_MAX__ 2147483647\0"
 1828      52444946 
 1828      465F4D41 
 1828      585F5F20 
 1828      32313437 
 1829 08b0 01       		.byte	0x1
 1830 08b1 00       		.uleb128 0
 1831 08b2 5F5F5349 		.ascii "__SIZE_MAX__ 4294967295U\0"
 1831      5A455F4D 
 1831      41585F5F 
 1831      20343239 
 1831      34393637 
 1832 08cb 01       		.byte	0x1
 1833 08cc 00       		.uleb128 0
 1834 08cd 5F5F494E 		.ascii "__INTMAX_MAX__ 9223372036854775807LL\0"
 1834      544D4158 
 1834      5F4D4158 
 1834      5F5F2039 
 1834      32323333 
 1835 08f2 01       		.byte	0x1
 1836 08f3 00       		.uleb128 0
 1837 08f4 5F5F494E 		.ascii "__INTMAX_C(c) c ## LL\0"
 1837      544D4158 
 1837      5F432863 
 1837      29206320 
 1837      2323204C 
 1838 090a 01       		.byte	0x1
 1839 090b 00       		.uleb128 0
 1840 090c 5F5F5549 		.ascii "__UINTMAX_MAX__ 18446744073709551615ULL\0"
 1840      4E544D41 
 1840      585F4D41 
 1840      585F5F20 
 1840      31383434 
 1841 0934 01       		.byte	0x1
 1842 0935 00       		.uleb128 0
 1843 0936 5F5F5549 		.ascii "__UINTMAX_C(c) c ## ULL\0"
 1843      4E544D41 
GAS LISTING C:\Users\PRESID~1\AppData\Local\Temp\cccQu4Io.s 			page 47


 1843      585F4328 
 1843      63292063 
 1843      20232320 
 1844 094e 01       		.byte	0x1
 1845 094f 00       		.uleb128 0
 1846 0950 5F5F5349 		.ascii "__SIG_ATOMIC_MAX__ 2147483647\0"
 1846      475F4154 
 1846      4F4D4943 
 1846      5F4D4158 
 1846      5F5F2032 
 1847 096e 01       		.byte	0x1
 1848 096f 00       		.uleb128 0
 1849 0970 5F5F5349 		.ascii "__SIG_ATOMIC_MIN__ (-__SIG_ATOMIC_MAX__ - 1)\0"
 1849      475F4154 
 1849      4F4D4943 
 1849      5F4D494E 
 1849      5F5F2028 
 1850 099d 01       		.byte	0x1
 1851 099e 00       		.uleb128 0
 1852 099f 5F5F494E 		.ascii "__INT8_MAX__ 127\0"
 1852      54385F4D 
 1852      41585F5F 
 1852      20313237 
 1852      00
 1853 09b0 01       		.byte	0x1
 1854 09b1 00       		.uleb128 0
 1855 09b2 5F5F494E 		.ascii "__INT16_MAX__ 32767\0"
 1855      5431365F 
 1855      4D41585F 
 1855      5F203332 
 1855      37363700 
 1856 09c6 01       		.byte	0x1
 1857 09c7 00       		.uleb128 0
 1858 09c8 5F5F494E 		.ascii "__INT32_MAX__ 2147483647\0"
 1858      5433325F 
 1858      4D41585F 
 1858      5F203231 
 1858      34373438 
 1859 09e1 01       		.byte	0x1
 1860 09e2 00       		.uleb128 0
 1861 09e3 5F5F494E 		.ascii "__INT64_MAX__ 9223372036854775807LL\0"
 1861      5436345F 
 1861      4D41585F 
 1861      5F203932 
 1861      32333337 
 1862 0a07 01       		.byte	0x1
 1863 0a08 00       		.uleb128 0
 1864 0a09 5F5F5549 		.ascii "__UINT8_MAX__ 255\0"
 1864      4E54385F 
 1864      4D41585F 
 1864      5F203235 
 1864      3500
 1865 0a1b 01       		.byte	0x1
 1866 0a1c 00       		.uleb128 0
 1867 0a1d 5F5F5549 		.ascii "__UINT16_MAX__ 65535\0"
 1867      4E543136 
 1867      5F4D4158 
GAS LISTING C:\Users\PRESID~1\AppData\Local\Temp\cccQu4Io.s 			page 48


 1867      5F5F2036 
 1867      35353335 
 1868 0a32 01       		.byte	0x1
 1869 0a33 00       		.uleb128 0
 1870 0a34 5F5F5549 		.ascii "__UINT32_MAX__ 4294967295U\0"
 1870      4E543332 
 1870      5F4D4158 
 1870      5F5F2034 
 1870      32393439 
 1871 0a4f 01       		.byte	0x1
 1872 0a50 00       		.uleb128 0
 1873 0a51 5F5F5549 		.ascii "__UINT64_MAX__ 18446744073709551615ULL\0"
 1873      4E543634 
 1873      5F4D4158 
 1873      5F5F2031 
 1873      38343436 
 1874 0a78 01       		.byte	0x1
 1875 0a79 00       		.uleb128 0
 1876 0a7a 5F5F494E 		.ascii "__INT_LEAST8_MAX__ 127\0"
 1876      545F4C45 
 1876      41535438 
 1876      5F4D4158 
 1876      5F5F2031 
 1877 0a91 01       		.byte	0x1
 1878 0a92 00       		.uleb128 0
 1879 0a93 5F5F494E 		.ascii "__INT8_C(c) c\0"
 1879      54385F43 
 1879      28632920 
 1879      6300
 1880 0aa1 01       		.byte	0x1
 1881 0aa2 00       		.uleb128 0
 1882 0aa3 5F5F494E 		.ascii "__INT_LEAST16_MAX__ 32767\0"
 1882      545F4C45 
 1882      41535431 
 1882      365F4D41 
 1882      585F5F20 
 1883 0abd 01       		.byte	0x1
 1884 0abe 00       		.uleb128 0
 1885 0abf 5F5F494E 		.ascii "__INT16_C(c) c\0"
 1885      5431365F 
 1885      43286329 
 1885      206300
 1886 0ace 01       		.byte	0x1
 1887 0acf 00       		.uleb128 0
 1888 0ad0 5F5F494E 		.ascii "__INT_LEAST32_MAX__ 2147483647\0"
 1888      545F4C45 
 1888      41535433 
 1888      325F4D41 
 1888      585F5F20 
 1889 0aef 01       		.byte	0x1
 1890 0af0 00       		.uleb128 0
 1891 0af1 5F5F494E 		.ascii "__INT32_C(c) c\0"
 1891      5433325F 
 1891      43286329 
 1891      206300
 1892 0b00 01       		.byte	0x1
 1893 0b01 00       		.uleb128 0
GAS LISTING C:\Users\PRESID~1\AppData\Local\Temp\cccQu4Io.s 			page 49


 1894 0b02 5F5F494E 		.ascii "__INT_LEAST64_MAX__ 9223372036854775807LL\0"
 1894      545F4C45 
 1894      41535436 
 1894      345F4D41 
 1894      585F5F20 
 1895 0b2c 01       		.byte	0x1
 1896 0b2d 00       		.uleb128 0
 1897 0b2e 5F5F494E 		.ascii "__INT64_C(c) c ## LL\0"
 1897      5436345F 
 1897      43286329 
 1897      20632023 
 1897      23204C4C 
 1898 0b43 01       		.byte	0x1
 1899 0b44 00       		.uleb128 0
 1900 0b45 5F5F5549 		.ascii "__UINT_LEAST8_MAX__ 255\0"
 1900      4E545F4C 
 1900      45415354 
 1900      385F4D41 
 1900      585F5F20 
 1901 0b5d 01       		.byte	0x1
 1902 0b5e 00       		.uleb128 0
 1903 0b5f 5F5F5549 		.ascii "__UINT8_C(c) c\0"
 1903      4E54385F 
 1903      43286329 
 1903      206300
 1904 0b6e 01       		.byte	0x1
 1905 0b6f 00       		.uleb128 0
 1906 0b70 5F5F5549 		.ascii "__UINT_LEAST16_MAX__ 65535\0"
 1906      4E545F4C 
 1906      45415354 
 1906      31365F4D 
 1906      41585F5F 
 1907 0b8b 01       		.byte	0x1
 1908 0b8c 00       		.uleb128 0
 1909 0b8d 5F5F5549 		.ascii "__UINT16_C(c) c\0"
 1909      4E543136 
 1909      5F432863 
 1909      29206300 
 1910 0b9d 01       		.byte	0x1
 1911 0b9e 00       		.uleb128 0
 1912 0b9f 5F5F5549 		.ascii "__UINT_LEAST32_MAX__ 4294967295U\0"
 1912      4E545F4C 
 1912      45415354 
 1912      33325F4D 
 1912      41585F5F 
 1913 0bc0 01       		.byte	0x1
 1914 0bc1 00       		.uleb128 0
 1915 0bc2 5F5F5549 		.ascii "__UINT32_C(c) c ## U\0"
 1915      4E543332 
 1915      5F432863 
 1915      29206320 
 1915      23232055 
 1916 0bd7 01       		.byte	0x1
 1917 0bd8 00       		.uleb128 0
 1918 0bd9 5F5F5549 		.ascii "__UINT_LEAST64_MAX__ 18446744073709551615ULL\0"
 1918      4E545F4C 
 1918      45415354 
GAS LISTING C:\Users\PRESID~1\AppData\Local\Temp\cccQu4Io.s 			page 50


 1918      36345F4D 
 1918      41585F5F 
 1919 0c06 01       		.byte	0x1
 1920 0c07 00       		.uleb128 0
 1921 0c08 5F5F5549 		.ascii "__UINT64_C(c) c ## ULL\0"
 1921      4E543634 
 1921      5F432863 
 1921      29206320 
 1921      23232055 
 1922 0c1f 01       		.byte	0x1
 1923 0c20 00       		.uleb128 0
 1924 0c21 5F5F494E 		.ascii "__INT_FAST8_MAX__ 127\0"
 1924      545F4641 
 1924      5354385F 
 1924      4D41585F 
 1924      5F203132 
 1925 0c37 01       		.byte	0x1
 1926 0c38 00       		.uleb128 0
 1927 0c39 5F5F494E 		.ascii "__INT_FAST16_MAX__ 32767\0"
 1927      545F4641 
 1927      53543136 
 1927      5F4D4158 
 1927      5F5F2033 
 1928 0c52 01       		.byte	0x1
 1929 0c53 00       		.uleb128 0
 1930 0c54 5F5F494E 		.ascii "__INT_FAST32_MAX__ 2147483647\0"
 1930      545F4641 
 1930      53543332 
 1930      5F4D4158 
 1930      5F5F2032 
 1931 0c72 01       		.byte	0x1
 1932 0c73 00       		.uleb128 0
 1933 0c74 5F5F494E 		.ascii "__INT_FAST64_MAX__ 9223372036854775807LL\0"
 1933      545F4641 
 1933      53543634 
 1933      5F4D4158 
 1933      5F5F2039 
 1934 0c9d 01       		.byte	0x1
 1935 0c9e 00       		.uleb128 0
 1936 0c9f 5F5F5549 		.ascii "__UINT_FAST8_MAX__ 255\0"
 1936      4E545F46 
 1936      41535438 
 1936      5F4D4158 
 1936      5F5F2032 
 1937 0cb6 01       		.byte	0x1
 1938 0cb7 00       		.uleb128 0
 1939 0cb8 5F5F5549 		.ascii "__UINT_FAST16_MAX__ 65535\0"
 1939      4E545F46 
 1939      41535431 
 1939      365F4D41 
 1939      585F5F20 
 1940 0cd2 01       		.byte	0x1
 1941 0cd3 00       		.uleb128 0
 1942 0cd4 5F5F5549 		.ascii "__UINT_FAST32_MAX__ 4294967295U\0"
 1942      4E545F46 
 1942      41535433 
 1942      325F4D41 
GAS LISTING C:\Users\PRESID~1\AppData\Local\Temp\cccQu4Io.s 			page 51


 1942      585F5F20 
 1943 0cf4 01       		.byte	0x1
 1944 0cf5 00       		.uleb128 0
 1945 0cf6 5F5F5549 		.ascii "__UINT_FAST64_MAX__ 18446744073709551615ULL\0"
 1945      4E545F46 
 1945      41535436 
 1945      345F4D41 
 1945      585F5F20 
 1946 0d22 01       		.byte	0x1
 1947 0d23 00       		.uleb128 0
 1948 0d24 5F5F494E 		.ascii "__INTPTR_MAX__ 2147483647\0"
 1948      54505452 
 1948      5F4D4158 
 1948      5F5F2032 
 1948      31343734 
 1949 0d3e 01       		.byte	0x1
 1950 0d3f 00       		.uleb128 0
 1951 0d40 5F5F5549 		.ascii "__UINTPTR_MAX__ 4294967295U\0"
 1951      4E545054 
 1951      525F4D41 
 1951      585F5F20 
 1951      34323934 
 1952 0d5c 01       		.byte	0x1
 1953 0d5d 00       		.uleb128 0
 1954 0d5e 5F5F4743 		.ascii "__GCC_IEC_559 2\0"
 1954      435F4945 
 1954      435F3535 
 1954      39203200 
 1955 0d6e 01       		.byte	0x1
 1956 0d6f 00       		.uleb128 0
 1957 0d70 5F5F4743 		.ascii "__GCC_IEC_559_COMPLEX 2\0"
 1957      435F4945 
 1957      435F3535 
 1957      395F434F 
 1957      4D504C45 
 1958 0d88 01       		.byte	0x1
 1959 0d89 00       		.uleb128 0
 1960 0d8a 5F5F464C 		.ascii "__FLT_EVAL_METHOD__ 2\0"
 1960      545F4556 
 1960      414C5F4D 
 1960      4554484F 
 1960      445F5F20 
 1961 0da0 01       		.byte	0x1
 1962 0da1 00       		.uleb128 0
 1963 0da2 5F5F4445 		.ascii "__DEC_EVAL_METHOD__ 2\0"
 1963      435F4556 
 1963      414C5F4D 
 1963      4554484F 
 1963      445F5F20 
 1964 0db8 01       		.byte	0x1
 1965 0db9 00       		.uleb128 0
 1966 0dba 5F5F464C 		.ascii "__FLT_RADIX__ 2\0"
 1966      545F5241 
 1966      4449585F 
 1966      5F203200 
 1967 0dca 01       		.byte	0x1
 1968 0dcb 00       		.uleb128 0
GAS LISTING C:\Users\PRESID~1\AppData\Local\Temp\cccQu4Io.s 			page 52


 1969 0dcc 5F5F464C 		.ascii "__FLT_MANT_DIG__ 24\0"
 1969      545F4D41 
 1969      4E545F44 
 1969      49475F5F 
 1969      20323400 
 1970 0de0 01       		.byte	0x1
 1971 0de1 00       		.uleb128 0
 1972 0de2 5F5F464C 		.ascii "__FLT_DIG__ 6\0"
 1972      545F4449 
 1972      475F5F20 
 1972      3600
 1973 0df0 01       		.byte	0x1
 1974 0df1 00       		.uleb128 0
 1975 0df2 5F5F464C 		.ascii "__FLT_MIN_EXP__ (-125)\0"
 1975      545F4D49 
 1975      4E5F4558 
 1975      505F5F20 
 1975      282D3132 
 1976 0e09 01       		.byte	0x1
 1977 0e0a 00       		.uleb128 0
 1978 0e0b 5F5F464C 		.ascii "__FLT_MIN_10_EXP__ (-37)\0"
 1978      545F4D49 
 1978      4E5F3130 
 1978      5F455850 
 1978      5F5F2028 
 1979 0e24 01       		.byte	0x1
 1980 0e25 00       		.uleb128 0
 1981 0e26 5F5F464C 		.ascii "__FLT_MAX_EXP__ 128\0"
 1981      545F4D41 
 1981      585F4558 
 1981      505F5F20 
 1981      31323800 
 1982 0e3a 01       		.byte	0x1
 1983 0e3b 00       		.uleb128 0
 1984 0e3c 5F5F464C 		.ascii "__FLT_MAX_10_EXP__ 38\0"
 1984      545F4D41 
 1984      585F3130 
 1984      5F455850 
 1984      5F5F2033 
 1985 0e52 01       		.byte	0x1
 1986 0e53 00       		.uleb128 0
 1987 0e54 5F5F464C 		.ascii "__FLT_DECIMAL_DIG__ 9\0"
 1987      545F4445 
 1987      43494D41 
 1987      4C5F4449 
 1987      475F5F20 
 1988 0e6a 01       		.byte	0x1
 1989 0e6b 00       		.uleb128 0
 1990 0e6c 5F5F464C 		.ascii "__FLT_MAX__ 3.40282346638528859812e+38F\0"
 1990      545F4D41 
 1990      585F5F20 
 1990      332E3430 
 1990      32383233 
 1991 0e94 01       		.byte	0x1
 1992 0e95 00       		.uleb128 0
 1993 0e96 5F5F464C 		.ascii "__FLT_MIN__ 1.17549435082228750797e-38F\0"
 1993      545F4D49 
GAS LISTING C:\Users\PRESID~1\AppData\Local\Temp\cccQu4Io.s 			page 53


 1993      4E5F5F20 
 1993      312E3137 
 1993      35343934 
 1994 0ebe 01       		.byte	0x1
 1995 0ebf 00       		.uleb128 0
 1996 0ec0 5F5F464C 		.ascii "__FLT_EPSILON__ 1.19209289550781250000e-7F\0"
 1996      545F4550 
 1996      53494C4F 
 1996      4E5F5F20 
 1996      312E3139 
 1997 0eeb 01       		.byte	0x1
 1998 0eec 00       		.uleb128 0
 1999 0eed 5F5F464C 		.ascii "__FLT_DENORM_MIN__ 1.40129846432481707092e-45F\0"
 1999      545F4445 
 1999      4E4F524D 
 1999      5F4D494E 
 1999      5F5F2031 
 2000 0f1c 01       		.byte	0x1
 2001 0f1d 00       		.uleb128 0
 2002 0f1e 5F5F464C 		.ascii "__FLT_HAS_DENORM__ 1\0"
 2002      545F4841 
 2002      535F4445 
 2002      4E4F524D 
 2002      5F5F2031 
 2003 0f33 01       		.byte	0x1
 2004 0f34 00       		.uleb128 0
 2005 0f35 5F5F464C 		.ascii "__FLT_HAS_INFINITY__ 1\0"
 2005      545F4841 
 2005      535F494E 
 2005      46494E49 
 2005      54595F5F 
 2006 0f4c 01       		.byte	0x1
 2007 0f4d 00       		.uleb128 0
 2008 0f4e 5F5F464C 		.ascii "__FLT_HAS_QUIET_NAN__ 1\0"
 2008      545F4841 
 2008      535F5155 
 2008      4945545F 
 2008      4E414E5F 
 2009 0f66 01       		.byte	0x1
 2010 0f67 00       		.uleb128 0
 2011 0f68 5F5F4442 		.ascii "__DBL_MANT_DIG__ 53\0"
 2011      4C5F4D41 
 2011      4E545F44 
 2011      49475F5F 
 2011      20353300 
 2012 0f7c 01       		.byte	0x1
 2013 0f7d 00       		.uleb128 0
 2014 0f7e 5F5F4442 		.ascii "__DBL_DIG__ 15\0"
 2014      4C5F4449 
 2014      475F5F20 
 2014      313500
 2015 0f8d 01       		.byte	0x1
 2016 0f8e 00       		.uleb128 0
 2017 0f8f 5F5F4442 		.ascii "__DBL_MIN_EXP__ (-1021)\0"
 2017      4C5F4D49 
 2017      4E5F4558 
 2017      505F5F20 
GAS LISTING C:\Users\PRESID~1\AppData\Local\Temp\cccQu4Io.s 			page 54


 2017      282D3130 
 2018 0fa7 01       		.byte	0x1
 2019 0fa8 00       		.uleb128 0
 2020 0fa9 5F5F4442 		.ascii "__DBL_MIN_10_EXP__ (-307)\0"
 2020      4C5F4D49 
 2020      4E5F3130 
 2020      5F455850 
 2020      5F5F2028 
 2021 0fc3 01       		.byte	0x1
 2022 0fc4 00       		.uleb128 0
 2023 0fc5 5F5F4442 		.ascii "__DBL_MAX_EXP__ 1024\0"
 2023      4C5F4D41 
 2023      585F4558 
 2023      505F5F20 
 2023      31303234 
 2024 0fda 01       		.byte	0x1
 2025 0fdb 00       		.uleb128 0
 2026 0fdc 5F5F4442 		.ascii "__DBL_MAX_10_EXP__ 308\0"
 2026      4C5F4D41 
 2026      585F3130 
 2026      5F455850 
 2026      5F5F2033 
 2027 0ff3 01       		.byte	0x1
 2028 0ff4 00       		.uleb128 0
 2029 0ff5 5F5F4442 		.ascii "__DBL_DECIMAL_DIG__ 17\0"
 2029      4C5F4445 
 2029      43494D41 
 2029      4C5F4449 
 2029      475F5F20 
 2030 100c 01       		.byte	0x1
 2031 100d 00       		.uleb128 0
 2032 100e 5F5F4442 		.ascii "__DBL_MAX__ ((double)1.79769313486231570815e+308L)\0"
 2032      4C5F4D41 
 2032      585F5F20 
 2032      2828646F 
 2032      75626C65 
 2033 1041 01       		.byte	0x1
 2034 1042 00       		.uleb128 0
 2035 1043 5F5F4442 		.ascii "__DBL_MIN__ ((double)2.22507385850720138309e-308L)\0"
 2035      4C5F4D49 
 2035      4E5F5F20 
 2035      2828646F 
 2035      75626C65 
 2036 1076 01       		.byte	0x1
 2037 1077 00       		.uleb128 0
 2038 1078 5F5F4442 		.ascii "__DBL_EPSILON__ ((double)2.22044604925031308085e-16L)\0"
 2038      4C5F4550 
 2038      53494C4F 
 2038      4E5F5F20 
 2038      2828646F 
 2039 10ae 01       		.byte	0x1
 2040 10af 00       		.uleb128 0
 2041 10b0 5F5F4442 		.ascii "__DBL_DENORM_MIN__ ((double)4.94065645841246544177e-324L)\0"
 2041      4C5F4445 
 2041      4E4F524D 
 2041      5F4D494E 
 2041      5F5F2028 
GAS LISTING C:\Users\PRESID~1\AppData\Local\Temp\cccQu4Io.s 			page 55


 2042 10ea 01       		.byte	0x1
 2043 10eb 00       		.uleb128 0
 2044 10ec 5F5F4442 		.ascii "__DBL_HAS_DENORM__ 1\0"
 2044      4C5F4841 
 2044      535F4445 
 2044      4E4F524D 
 2044      5F5F2031 
 2045 1101 01       		.byte	0x1
 2046 1102 00       		.uleb128 0
 2047 1103 5F5F4442 		.ascii "__DBL_HAS_INFINITY__ 1\0"
 2047      4C5F4841 
 2047      535F494E 
 2047      46494E49 
 2047      54595F5F 
 2048 111a 01       		.byte	0x1
 2049 111b 00       		.uleb128 0
 2050 111c 5F5F4442 		.ascii "__DBL_HAS_QUIET_NAN__ 1\0"
 2050      4C5F4841 
 2050      535F5155 
 2050      4945545F 
 2050      4E414E5F 
 2051 1134 01       		.byte	0x1
 2052 1135 00       		.uleb128 0
 2053 1136 5F5F4C44 		.ascii "__LDBL_MANT_DIG__ 64\0"
 2053      424C5F4D 
 2053      414E545F 
 2053      4449475F 
 2053      5F203634 
 2054 114b 01       		.byte	0x1
 2055 114c 00       		.uleb128 0
 2056 114d 5F5F4C44 		.ascii "__LDBL_DIG__ 18\0"
 2056      424C5F44 
 2056      49475F5F 
 2056      20313800 
 2057 115d 01       		.byte	0x1
 2058 115e 00       		.uleb128 0
 2059 115f 5F5F4C44 		.ascii "__LDBL_MIN_EXP__ (-16381)\0"
 2059      424C5F4D 
 2059      494E5F45 
 2059      58505F5F 
 2059      20282D31 
 2060 1179 01       		.byte	0x1
 2061 117a 00       		.uleb128 0
 2062 117b 5F5F4C44 		.ascii "__LDBL_MIN_10_EXP__ (-4931)\0"
 2062      424C5F4D 
 2062      494E5F31 
 2062      305F4558 
 2062      505F5F20 
 2063 1197 01       		.byte	0x1
 2064 1198 00       		.uleb128 0
 2065 1199 5F5F4C44 		.ascii "__LDBL_MAX_EXP__ 16384\0"
 2065      424C5F4D 
 2065      41585F45 
 2065      58505F5F 
 2065      20313633 
 2066 11b0 01       		.byte	0x1
 2067 11b1 00       		.uleb128 0
GAS LISTING C:\Users\PRESID~1\AppData\Local\Temp\cccQu4Io.s 			page 56


 2068 11b2 5F5F4C44 		.ascii "__LDBL_MAX_10_EXP__ 4932\0"
 2068      424C5F4D 
 2068      41585F31 
 2068      305F4558 
 2068      505F5F20 
 2069 11cb 01       		.byte	0x1
 2070 11cc 00       		.uleb128 0
 2071 11cd 5F5F4445 		.ascii "__DECIMAL_DIG__ 21\0"
 2071      43494D41 
 2071      4C5F4449 
 2071      475F5F20 
 2071      323100
 2072 11e0 01       		.byte	0x1
 2073 11e1 00       		.uleb128 0
 2074 11e2 5F5F4C44 		.ascii "__LDBL_MAX__ 1.18973149535723176502e+4932L\0"
 2074      424C5F4D 
 2074      41585F5F 
 2074      20312E31 
 2074      38393733 
 2075 120d 01       		.byte	0x1
 2076 120e 00       		.uleb128 0
 2077 120f 5F5F4C44 		.ascii "__LDBL_MIN__ 3.36210314311209350626e-4932L\0"
 2077      424C5F4D 
 2077      494E5F5F 
 2077      20332E33 
 2077      36323130 
 2078 123a 01       		.byte	0x1
 2079 123b 00       		.uleb128 0
 2080 123c 5F5F4C44 		.ascii "__LDBL_EPSILON__ 1.08420217248550443401e-19L\0"
 2080      424C5F45 
 2080      5053494C 
 2080      4F4E5F5F 
 2080      20312E30 
 2081 1269 01       		.byte	0x1
 2082 126a 00       		.uleb128 0
 2083 126b 5F5F4C44 		.ascii "__LDBL_DENORM_MIN__ 3.64519953188247460253e-4951L\0"
 2083      424C5F44 
 2083      454E4F52 
 2083      4D5F4D49 
 2083      4E5F5F20 
 2084 129d 01       		.byte	0x1
 2085 129e 00       		.uleb128 0
 2086 129f 5F5F4C44 		.ascii "__LDBL_HAS_DENORM__ 1\0"
 2086      424C5F48 
 2086      41535F44 
 2086      454E4F52 
 2086      4D5F5F20 
 2087 12b5 01       		.byte	0x1
 2088 12b6 00       		.uleb128 0
 2089 12b7 5F5F4C44 		.ascii "__LDBL_HAS_INFINITY__ 1\0"
 2089      424C5F48 
 2089      41535F49 
 2089      4E46494E 
 2089      4954595F 
 2090 12cf 01       		.byte	0x1
 2091 12d0 00       		.uleb128 0
 2092 12d1 5F5F4C44 		.ascii "__LDBL_HAS_QUIET_NAN__ 1\0"
GAS LISTING C:\Users\PRESID~1\AppData\Local\Temp\cccQu4Io.s 			page 57


 2092      424C5F48 
 2092      41535F51 
 2092      55494554 
 2092      5F4E414E 
 2093 12ea 01       		.byte	0x1
 2094 12eb 00       		.uleb128 0
 2095 12ec 5F5F4445 		.ascii "__DEC32_MANT_DIG__ 7\0"
 2095      4333325F 
 2095      4D414E54 
 2095      5F444947 
 2095      5F5F2037 
 2096 1301 01       		.byte	0x1
 2097 1302 00       		.uleb128 0
 2098 1303 5F5F4445 		.ascii "__DEC32_MIN_EXP__ (-94)\0"
 2098      4333325F 
 2098      4D494E5F 
 2098      4558505F 
 2098      5F20282D 
 2099 131b 01       		.byte	0x1
 2100 131c 00       		.uleb128 0
 2101 131d 5F5F4445 		.ascii "__DEC32_MAX_EXP__ 97\0"
 2101      4333325F 
 2101      4D41585F 
 2101      4558505F 
 2101      5F203937 
 2102 1332 01       		.byte	0x1
 2103 1333 00       		.uleb128 0
 2104 1334 5F5F4445 		.ascii "__DEC32_MIN__ 1E-95DF\0"
 2104      4333325F 
 2104      4D494E5F 
 2104      5F203145 
 2104      2D393544 
 2105 134a 01       		.byte	0x1
 2106 134b 00       		.uleb128 0
 2107 134c 5F5F4445 		.ascii "__DEC32_MAX__ 9.999999E96DF\0"
 2107      4333325F 
 2107      4D41585F 
 2107      5F20392E 
 2107      39393939 
 2108 1368 01       		.byte	0x1
 2109 1369 00       		.uleb128 0
 2110 136a 5F5F4445 		.ascii "__DEC32_EPSILON__ 1E-6DF\0"
 2110      4333325F 
 2110      45505349 
 2110      4C4F4E5F 
 2110      5F203145 
 2111 1383 01       		.byte	0x1
 2112 1384 00       		.uleb128 0
 2113 1385 5F5F4445 		.ascii "__DEC32_SUBNORMAL_MIN__ 0.000001E-95DF\0"
 2113      4333325F 
 2113      5355424E 
 2113      4F524D41 
 2113      4C5F4D49 
 2114 13ac 01       		.byte	0x1
 2115 13ad 00       		.uleb128 0
 2116 13ae 5F5F4445 		.ascii "__DEC64_MANT_DIG__ 16\0"
 2116      4336345F 
GAS LISTING C:\Users\PRESID~1\AppData\Local\Temp\cccQu4Io.s 			page 58


 2116      4D414E54 
 2116      5F444947 
 2116      5F5F2031 
 2117 13c4 01       		.byte	0x1
 2118 13c5 00       		.uleb128 0
 2119 13c6 5F5F4445 		.ascii "__DEC64_MIN_EXP__ (-382)\0"
 2119      4336345F 
 2119      4D494E5F 
 2119      4558505F 
 2119      5F20282D 
 2120 13df 01       		.byte	0x1
 2121 13e0 00       		.uleb128 0
 2122 13e1 5F5F4445 		.ascii "__DEC64_MAX_EXP__ 385\0"
 2122      4336345F 
 2122      4D41585F 
 2122      4558505F 
 2122      5F203338 
 2123 13f7 01       		.byte	0x1
 2124 13f8 00       		.uleb128 0
 2125 13f9 5F5F4445 		.ascii "__DEC64_MIN__ 1E-383DD\0"
 2125      4336345F 
 2125      4D494E5F 
 2125      5F203145 
 2125      2D333833 
 2126 1410 01       		.byte	0x1
 2127 1411 00       		.uleb128 0
 2128 1412 5F5F4445 		.ascii "__DEC64_MAX__ 9.999999999999999E384DD\0"
 2128      4336345F 
 2128      4D41585F 
 2128      5F20392E 
 2128      39393939 
 2129 1438 01       		.byte	0x1
 2130 1439 00       		.uleb128 0
 2131 143a 5F5F4445 		.ascii "__DEC64_EPSILON__ 1E-15DD\0"
 2131      4336345F 
 2131      45505349 
 2131      4C4F4E5F 
 2131      5F203145 
 2132 1454 01       		.byte	0x1
 2133 1455 00       		.uleb128 0
 2134 1456 5F5F4445 		.ascii "__DEC64_SUBNORMAL_MIN__ 0.000000000000001E-383DD\0"
 2134      4336345F 
 2134      5355424E 
 2134      4F524D41 
 2134      4C5F4D49 
 2135 1487 01       		.byte	0x1
 2136 1488 00       		.uleb128 0
 2137 1489 5F5F4445 		.ascii "__DEC128_MANT_DIG__ 34\0"
 2137      43313238 
 2137      5F4D414E 
 2137      545F4449 
 2137      475F5F20 
 2138 14a0 01       		.byte	0x1
 2139 14a1 00       		.uleb128 0
 2140 14a2 5F5F4445 		.ascii "__DEC128_MIN_EXP__ (-6142)\0"
 2140      43313238 
 2140      5F4D494E 
GAS LISTING C:\Users\PRESID~1\AppData\Local\Temp\cccQu4Io.s 			page 59


 2140      5F455850 
 2140      5F5F2028 
 2141 14bd 01       		.byte	0x1
 2142 14be 00       		.uleb128 0
 2143 14bf 5F5F4445 		.ascii "__DEC128_MAX_EXP__ 6145\0"
 2143      43313238 
 2143      5F4D4158 
 2143      5F455850 
 2143      5F5F2036 
 2144 14d7 01       		.byte	0x1
 2145 14d8 00       		.uleb128 0
 2146 14d9 5F5F4445 		.ascii "__DEC128_MIN__ 1E-6143DL\0"
 2146      43313238 
 2146      5F4D494E 
 2146      5F5F2031 
 2146      452D3631 
 2147 14f2 01       		.byte	0x1
 2148 14f3 00       		.uleb128 0
 2149 14f4 5F5F4445 		.ascii "__DEC128_MAX__ 9.999999999999999999999999999999999E6144DL\0"
 2149      43313238 
 2149      5F4D4158 
 2149      5F5F2039 
 2149      2E393939 
 2150 152e 01       		.byte	0x1
 2151 152f 00       		.uleb128 0
 2152 1530 5F5F4445 		.ascii "__DEC128_EPSILON__ 1E-33DL\0"
 2152      43313238 
 2152      5F455053 
 2152      494C4F4E 
 2152      5F5F2031 
 2153 154b 01       		.byte	0x1
 2154 154c 00       		.uleb128 0
 2155 154d 5F5F4445 		.ascii "__DEC128_SUBNORMAL_MIN__ 0.000000000000000000000000000000001E-6143DL\0"
 2155      43313238 
 2155      5F535542 
 2155      4E4F524D 
 2155      414C5F4D 
 2156 1592 01       		.byte	0x1
 2157 1593 00       		.uleb128 0
 2158 1594 5F5F5245 		.ascii "__REGISTER_PREFIX__ \0"
 2158      47495354 
 2158      45525F50 
 2158      52454649 
 2158      585F5F20 
 2159 15a9 01       		.byte	0x1
 2160 15aa 00       		.uleb128 0
 2161 15ab 5F5F5553 		.ascii "__USER_LABEL_PREFIX__ _\0"
 2161      45525F4C 
 2161      4142454C 
 2161      5F505245 
 2161      4649585F 
 2162 15c3 01       		.byte	0x1
 2163 15c4 00       		.uleb128 0
 2164 15c5 5F5F474E 		.ascii "__GNUC_GNU_INLINE__ 1\0"
 2164      55435F47 
 2164      4E555F49 
 2164      4E4C494E 
GAS LISTING C:\Users\PRESID~1\AppData\Local\Temp\cccQu4Io.s 			page 60


 2164      455F5F20 
 2165 15db 01       		.byte	0x1
 2166 15dc 00       		.uleb128 0
 2167 15dd 5F5F4E4F 		.ascii "__NO_INLINE__ 1\0"
 2167      5F494E4C 
 2167      494E455F 
 2167      5F203100 
 2168 15ed 01       		.byte	0x1
 2169 15ee 00       		.uleb128 0
 2170 15ef 5F5F5354 		.ascii "__STRICT_ANSI__ 1\0"
 2170      52494354 
 2170      5F414E53 
 2170      495F5F20 
 2170      3100
 2171 1601 01       		.byte	0x1
 2172 1602 00       		.uleb128 0
 2173 1603 5F5F4743 		.ascii "__GCC_ATOMIC_BOOL_LOCK_FREE 1\0"
 2173      435F4154 
 2173      4F4D4943 
 2173      5F424F4F 
 2173      4C5F4C4F 
 2174 1621 01       		.byte	0x1
 2175 1622 00       		.uleb128 0
 2176 1623 5F5F4743 		.ascii "__GCC_ATOMIC_CHAR_LOCK_FREE 1\0"
 2176      435F4154 
 2176      4F4D4943 
 2176      5F434841 
 2176      525F4C4F 
 2177 1641 01       		.byte	0x1
 2178 1642 00       		.uleb128 0
 2179 1643 5F5F4743 		.ascii "__GCC_ATOMIC_CHAR16_T_LOCK_FREE 1\0"
 2179      435F4154 
 2179      4F4D4943 
 2179      5F434841 
 2179      5231365F 
 2180 1665 01       		.byte	0x1
 2181 1666 00       		.uleb128 0
 2182 1667 5F5F4743 		.ascii "__GCC_ATOMIC_CHAR32_T_LOCK_FREE 1\0"
 2182      435F4154 
 2182      4F4D4943 
 2182      5F434841 
 2182      5233325F 
 2183 1689 01       		.byte	0x1
 2184 168a 00       		.uleb128 0
 2185 168b 5F5F4743 		.ascii "__GCC_ATOMIC_WCHAR_T_LOCK_FREE 1\0"
 2185      435F4154 
 2185      4F4D4943 
 2185      5F574348 
 2185      41525F54 
 2186 16ac 01       		.byte	0x1
 2187 16ad 00       		.uleb128 0
 2188 16ae 5F5F4743 		.ascii "__GCC_ATOMIC_SHORT_LOCK_FREE 1\0"
 2188      435F4154 
 2188      4F4D4943 
 2188      5F53484F 
 2188      52545F4C 
 2189 16cd 01       		.byte	0x1
GAS LISTING C:\Users\PRESID~1\AppData\Local\Temp\cccQu4Io.s 			page 61


 2190 16ce 00       		.uleb128 0
 2191 16cf 5F5F4743 		.ascii "__GCC_ATOMIC_INT_LOCK_FREE 1\0"
 2191      435F4154 
 2191      4F4D4943 
 2191      5F494E54 
 2191      5F4C4F43 
 2192 16ec 01       		.byte	0x1
 2193 16ed 00       		.uleb128 0
 2194 16ee 5F5F4743 		.ascii "__GCC_ATOMIC_LONG_LOCK_FREE 1\0"
 2194      435F4154 
 2194      4F4D4943 
 2194      5F4C4F4E 
 2194      475F4C4F 
 2195 170c 01       		.byte	0x1
 2196 170d 00       		.uleb128 0
 2197 170e 5F5F4743 		.ascii "__GCC_ATOMIC_LLONG_LOCK_FREE 1\0"
 2197      435F4154 
 2197      4F4D4943 
 2197      5F4C4C4F 
 2197      4E475F4C 
 2198 172d 01       		.byte	0x1
 2199 172e 00       		.uleb128 0
 2200 172f 5F5F4743 		.ascii "__GCC_ATOMIC_TEST_AND_SET_TRUEVAL 1\0"
 2200      435F4154 
 2200      4F4D4943 
 2200      5F544553 
 2200      545F414E 
 2201 1753 01       		.byte	0x1
 2202 1754 00       		.uleb128 0
 2203 1755 5F5F4743 		.ascii "__GCC_ATOMIC_POINTER_LOCK_FREE 1\0"
 2203      435F4154 
 2203      4F4D4943 
 2203      5F504F49 
 2203      4E544552 
 2204 1776 01       		.byte	0x1
 2205 1777 00       		.uleb128 0
 2206 1778 5F5F4743 		.ascii "__GCC_HAVE_DWARF2_CFI_ASM 1\0"
 2206      435F4841 
 2206      56455F44 
 2206      57415246 
 2206      325F4346 
 2207 1794 01       		.byte	0x1
 2208 1795 00       		.uleb128 0
 2209 1796 5F5F5052 		.ascii "__PRAGMA_REDEFINE_EXTNAME 1\0"
 2209      41474D41 
 2209      5F524544 
 2209      4546494E 
 2209      455F4558 
 2210 17b2 01       		.byte	0x1
 2211 17b3 00       		.uleb128 0
 2212 17b4 5F5F5349 		.ascii "__SIZEOF_WCHAR_T__ 2\0"
 2212      5A454F46 
 2212      5F574348 
 2212      41525F54 
 2212      5F5F2032 
 2213 17c9 01       		.byte	0x1
 2214 17ca 00       		.uleb128 0
GAS LISTING C:\Users\PRESID~1\AppData\Local\Temp\cccQu4Io.s 			page 62


 2215 17cb 5F5F5349 		.ascii "__SIZEOF_WINT_T__ 2\0"
 2215      5A454F46 
 2215      5F57494E 
 2215      545F545F 
 2215      5F203200 
 2216 17df 01       		.byte	0x1
 2217 17e0 00       		.uleb128 0
 2218 17e1 5F5F5349 		.ascii "__SIZEOF_PTRDIFF_T__ 4\0"
 2218      5A454F46 
 2218      5F505452 
 2218      44494646 
 2218      5F545F5F 
 2219 17f8 01       		.byte	0x1
 2220 17f9 00       		.uleb128 0
 2221 17fa 5F5F6933 		.ascii "__i386 1\0"
 2221      38362031 
 2221      00
 2222 1803 01       		.byte	0x1
 2223 1804 00       		.uleb128 0
 2224 1805 5F5F6933 		.ascii "__i386__ 1\0"
 2224      38365F5F 
 2224      203100
 2225 1810 01       		.byte	0x1
 2226 1811 00       		.uleb128 0
 2227 1812 5F5F4154 		.ascii "__ATOMIC_HLE_ACQUIRE 65536\0"
 2227      4F4D4943 
 2227      5F484C45 
 2227      5F414351 
 2227      55495245 
 2228 182d 01       		.byte	0x1
 2229 182e 00       		.uleb128 0
 2230 182f 5F5F4154 		.ascii "__ATOMIC_HLE_RELEASE 131072\0"
 2230      4F4D4943 
 2230      5F484C45 
 2230      5F52454C 
 2230      45415345 
 2231 184b 01       		.byte	0x1
 2232 184c 00       		.uleb128 0
 2233 184d 5F5F7475 		.ascii "__tune_i386__ 1\0"
 2233      6E655F69 
 2233      3338365F 
 2233      5F203100 
 2234 185d 01       		.byte	0x1
 2235 185e 00       		.uleb128 0
 2236 185f 5F5F636F 		.ascii "__code_model_32__ 1\0"
 2236      64655F6D 
 2236      6F64656C 
 2236      5F33325F 
 2236      5F203100 
 2237 1873 01       		.byte	0x1
 2238 1874 00       		.uleb128 0
 2239 1875 5F583836 		.ascii "_X86_ 1\0"
 2239      5F203100 
 2240 187d 01       		.byte	0x1
 2241 187e 00       		.uleb128 0
 2242 187f 5F5F7374 		.ascii "__stdcall __attribute__((__stdcall__))\0"
 2242      6463616C 
GAS LISTING C:\Users\PRESID~1\AppData\Local\Temp\cccQu4Io.s 			page 63


 2242      6C205F5F 
 2242      61747472 
 2242      69627574 
 2243 18a6 01       		.byte	0x1
 2244 18a7 00       		.uleb128 0
 2245 18a8 5F5F6661 		.ascii "__fastcall __attribute__((__fastcall__))\0"
 2245      73746361 
 2245      6C6C205F 
 2245      5F617474 
 2245      72696275 
 2246 18d1 01       		.byte	0x1
 2247 18d2 00       		.uleb128 0
 2248 18d3 5F5F7468 		.ascii "__thiscall __attribute__((__thiscall__))\0"
 2248      69736361 
 2248      6C6C205F 
 2248      5F617474 
 2248      72696275 
 2249 18fc 01       		.byte	0x1
 2250 18fd 00       		.uleb128 0
 2251 18fe 5F5F6364 		.ascii "__cdecl __attribute__((__cdecl__))\0"
 2251      65636C20 
 2251      5F5F6174 
 2251      74726962 
 2251      7574655F 
 2252 1921 01       		.byte	0x1
 2253 1922 00       		.uleb128 0
 2254 1923 5F5F4758 		.ascii "__GXX_MERGED_TYPEINFO_NAMES 0\0"
 2254      585F4D45 
 2254      52474544 
 2254      5F545950 
 2254      45494E46 
 2255 1941 01       		.byte	0x1
 2256 1942 00       		.uleb128 0
 2257 1943 5F5F4758 		.ascii "__GXX_TYPEINFO_EQUALITY_INLINE 0\0"
 2257      585F5459 
 2257      5045494E 
 2257      464F5F45 
 2257      5155414C 
 2258 1964 01       		.byte	0x1
 2259 1965 00       		.uleb128 0
 2260 1966 5F5F4D53 		.ascii "__MSVCRT__ 1\0"
 2260      56435254 
 2260      5F5F2031 
 2260      00
 2261 1973 01       		.byte	0x1
 2262 1974 00       		.uleb128 0
 2263 1975 5F5F4D49 		.ascii "__MINGW32__ 1\0"
 2263      4E475733 
 2263      325F5F20 
 2263      3100
 2264 1983 01       		.byte	0x1
 2265 1984 00       		.uleb128 0
 2266 1985 5F57494E 		.ascii "_WIN32 1\0"
 2266      33322031 
 2266      00
 2267 198e 01       		.byte	0x1
 2268 198f 00       		.uleb128 0
GAS LISTING C:\Users\PRESID~1\AppData\Local\Temp\cccQu4Io.s 			page 64


 2269 1990 5F5F5749 		.ascii "__WIN32 1\0"
 2269      4E333220 
 2269      3100
 2270 199a 01       		.byte	0x1
 2271 199b 00       		.uleb128 0
 2272 199c 5F5F5749 		.ascii "__WIN32__ 1\0"
 2272      4E33325F 
 2272      5F203100 
 2273 19a8 01       		.byte	0x1
 2274 19a9 00       		.uleb128 0
 2275 19aa 5F5F5749 		.ascii "__WINNT 1\0"
 2275      4E4E5420 
 2275      3100
 2276 19b4 01       		.byte	0x1
 2277 19b5 00       		.uleb128 0
 2278 19b6 5F5F5749 		.ascii "__WINNT__ 1\0"
 2278      4E4E545F 
 2278      5F203100 
 2279 19c2 01       		.byte	0x1
 2280 19c3 00       		.uleb128 0
 2281 19c4 5F494E54 		.ascii "_INTEGRAL_MAX_BITS 64\0"
 2281      45475241 
 2281      4C5F4D41 
 2281      585F4249 
 2281      54532036 
 2282 19da 01       		.byte	0x1
 2283 19db 00       		.uleb128 0
 2284 19dc 5F5F6465 		.ascii "__declspec(x) __attribute__((x))\0"
 2284      636C7370 
 2284      65632878 
 2284      29205F5F 
 2284      61747472 
 2285 19fd 01       		.byte	0x1
 2286 19fe 00       		.uleb128 0
 2287 19ff 5F5F4445 		.ascii "__DECIMAL_BID_FORMAT__ 1\0"
 2287      43494D41 
 2287      4C5F4249 
 2287      445F464F 
 2287      524D4154 
 2288 1a18 01       		.byte	0x1
 2289 1a19 00       		.uleb128 0
 2290 1a1a 4346475F 		.ascii "CFG_PROCESSOR 3\0"
 2290      50524F43 
 2290      4553534F 
 2290      52203300 
 2291 1a2a 03       		.byte	0x3
 2292 1a2b 00       		.uleb128 0
 2293 1a2c 01       		.uleb128 0x1
 2294              		.file 5 "E:/NeuOrga/Programmieren/c_cpp/github_os/input/src/os_base/os_firstinc.h"
 2295 1a2d 03       		.byte	0x3
 2296 1a2e 01       		.uleb128 0x1
 2297 1a2f 05       		.uleb128 0x5
 2298 1a30 01       		.byte	0x1
 2299 1a31 02       		.uleb128 0x2
 2300 1a32 5F6F735F 		.ascii "_os_firstinc_h_ \0"
 2300      66697273 
 2300      74696E63 
GAS LISTING C:\Users\PRESID~1\AppData\Local\Temp\cccQu4Io.s 			page 65


 2300      5F685F20 
 2300      00
 2301 1a43 03       		.byte	0x3
 2302 1a44 04       		.uleb128 0x4
 2303 1a45 02       		.uleb128 0x2
 2304 1a46 01       		.byte	0x1
 2305 1a47 02       		.uleb128 0x2
 2306 1a48 5F424153 		.ascii "_BASE_TYPES_H_ \0"
 2306      455F5459 
 2306      5045535F 
 2306      485F2000 
 2307 1a58 01       		.byte	0x1
 2308 1a59 04       		.uleb128 0x4
 2309 1a5a 494E5445 		.ascii "INTEGER_LLP64_IL32P64 1\0"
 2309      4745525F 
 2309      4C4C5036 
 2309      345F494C 
 2309      33325036 
 2310 1a72 01       		.byte	0x1
 2311 1a73 05       		.uleb128 0x5
 2312 1a74 494E5445 		.ascii "INTEGER_LP64_I32LP64 2\0"
 2312      4745525F 
 2312      4C503634 
 2312      5F493332 
 2312      4C503634 
 2313 1a8b 01       		.byte	0x1
 2314 1a8c 06       		.uleb128 0x6
 2315 1a8d 494E5445 		.ascii "INTEGER_ILP64 3\0"
 2315      4745525F 
 2315      494C5036 
 2315      34203300 
 2316 1a9d 01       		.byte	0x1
 2317 1a9e 07       		.uleb128 0x7
 2318 1a9f 494E5445 		.ascii "INTEGER_SILP64 4\0"
 2318      4745525F 
 2318      53494C50 
 2318      36342034 
 2318      00
 2319 1ab0 01       		.byte	0x1
 2320 1ab1 09       		.uleb128 0x9
 2321 1ab2 4350505F 		.ascii "CPP_VERSION_NONE 0\0"
 2321      56455253 
 2321      494F4E5F 
 2321      4E4F4E45 
 2321      203000
 2322 1ac5 01       		.byte	0x1
 2323 1ac6 0A       		.uleb128 0xa
 2324 1ac7 4350505F 		.ascii "CPP_VERSION_1998 1\0"
 2324      56455253 
 2324      494F4E5F 
 2324      31393938 
 2324      203100
 2325 1ada 01       		.byte	0x1
 2326 1adb 0B       		.uleb128 0xb
 2327 1adc 4350505F 		.ascii "CPP_VERSION_2003 2\0"
 2327      56455253 
 2327      494F4E5F 
GAS LISTING C:\Users\PRESID~1\AppData\Local\Temp\cccQu4Io.s 			page 66


 2327      32303033 
 2327      203200
 2328 1aef 01       		.byte	0x1
 2329 1af0 0C       		.uleb128 0xc
 2330 1af1 4350505F 		.ascii "CPP_VERSION_2007 3\0"
 2330      56455253 
 2330      494F4E5F 
 2330      32303037 
 2330      203300
 2331 1b04 01       		.byte	0x1
 2332 1b05 0D       		.uleb128 0xd
 2333 1b06 4350505F 		.ascii "CPP_VERSION_2011 4\0"
 2333      56455253 
 2333      494F4E5F 
 2333      32303131 
 2333      203400
 2334 1b19 01       		.byte	0x1
 2335 1b1a 0E       		.uleb128 0xe
 2336 1b1b 49534F5F 		.ascii "ISO_CPP_VERSION CPP_VERSION_1998\0"
 2336      4350505F 
 2336      56455253 
 2336      494F4E20 
 2336      4350505F 
 2337 1b3c 01       		.byte	0x1
 2338 1b3d 10       		.uleb128 0x10
 2339 1b3e 494E5445 		.ascii "INTEGER_MODEL INTEGER_LLP64_IL32P64\0"
 2339      4745525F 
 2339      4D4F4445 
 2339      4C20494E 
 2339      54454745 
 2340 1b62 04       		.byte	0x4
 2341 1b63 03       		.byte	0x3
 2342 1b64 05       		.uleb128 0x5
 2343 1b65 03       		.uleb128 0x3
 2344 1b66 01       		.byte	0x1
 2345 1b67 02       		.uleb128 0x2
 2346 1b68 5F6F735F 		.ascii "_os_common_h_ \0"
 2346      636F6D6D 
 2346      6F6E5F68 
 2346      5F2000
 2347 1b77 01       		.byte	0x1
 2348 1b78 06       		.uleb128 0x6
 2349 1b79 46616C73 		.ascii "False 0\0"
 2349      65203000 
 2350 1b81 01       		.byte	0x1
 2351 1b82 07       		.uleb128 0x7
 2352 1b83 54727565 		.ascii "True 1\0"
 2352      203100
 2353 1b8a 01       		.byte	0x1
 2354 1b8b 08       		.uleb128 0x8
 2355 1b8c 46414C53 		.ascii "FALSE False\0"
 2355      45204661 
 2355      6C736500 
 2356 1b98 01       		.byte	0x1
 2357 1b99 09       		.uleb128 0x9
 2358 1b9a 54525545 		.ascii "TRUE True\0"
 2358      20547275 
GAS LISTING C:\Users\PRESID~1\AppData\Local\Temp\cccQu4Io.s 			page 67


 2358      6500
 2359 1ba4 01       		.byte	0x1
 2360 1ba5 0A       		.uleb128 0xa
 2361 1ba6 41636365 		.ascii "Accepted 1\0"
 2361      70746564 
 2361      203100
 2362 1bb1 01       		.byte	0x1
 2363 1bb2 0B       		.uleb128 0xb
 2364 1bb3 52656A65 		.ascii "Rejected 0\0"
 2364      63746564 
 2364      203000
 2365 1bbe 01       		.byte	0x1
 2366 1bbf 0C       		.uleb128 0xc
 2367 1bc0 4C6F6361 		.ascii "Local static\0"
 2367      6C207374 
 2367      61746963 
 2367      00
 2368 1bcd 01       		.byte	0x1
 2369 1bce 0D       		.uleb128 0xd
 2370 1bcf 4C6F6361 		.ascii "Local_inline static __inline__\0"
 2370      6C5F696E 
 2370      6C696E65 
 2370      20737461 
 2370      74696320 
 2371 1bee 01       		.byte	0x1
 2372 1bef 0E       		.uleb128 0xe
 2373 1bf0 476C6F62 		.ascii "Global_inline __inline__\0"
 2373      616C5F69 
 2373      6E6C696E 
 2373      65205F5F 
 2373      696E6C69 
 2374 1c09 01       		.byte	0x1
 2375 1c0a 0F       		.uleb128 0xf
 2376 1c0b 52656665 		.ascii "ReferenceUnusedParameter(x) ((x) = (x))\0"
 2376      72656E63 
 2376      65556E75 
 2376      73656450 
 2376      6172616D 
 2377 1c33 01       		.byte	0x1
 2378 1c34 10       		.uleb128 0x10
 2379 1c35 44796E61 		.ascii "DynamicMemoryUsed False\0"
 2379      6D69634D 
 2379      656D6F72 
 2379      79557365 
 2379      64204661 
 2380 1c4d 01       		.byte	0x1
 2381 1c4e 13       		.uleb128 0x13
 2382 1c4f 634D4355 		.ascii "cMCU_X86 3\0"
 2382      5F583836 
 2382      203300
 2383 1c5a 01       		.byte	0x1
 2384 1c5b 14       		.uleb128 0x14
 2385 1c5c 634D4355 		.ascii "cMCU_CORTEX_M4 4\0"
 2385      5F434F52 
 2385      5445585F 
 2385      4D342034 
 2385      00
GAS LISTING C:\Users\PRESID~1\AppData\Local\Temp\cccQu4Io.s 			page 68


 2386 1c6d 01       		.byte	0x1
 2387 1c6e 17       		.uleb128 0x17
 2388 1c6f 4E525F4F 		.ascii "NR_OF_CORES 1\0"
 2388      465F434F 
 2388      52455320 
 2388      3100
 2389 1c7d 01       		.byte	0x1
 2390 1c7e 19       		.uleb128 0x19
 2391 1c7f 4D43555F 		.ascii "MCU_CLOCK_IN_HZ ((uint32)168000000u)\0"
 2391      434C4F43 
 2391      4B5F494E 
 2391      5F485A20 
 2391      28287569 
 2392 1ca4 01       		.byte	0x1
 2393 1ca5 1D       		.uleb128 0x1d
 2394 1ca6 44697361 		.ascii "DisableInterrupts() \0"
 2394      626C6549 
 2394      6E746572 
 2394      72757074 
 2394      73282920 
 2395 1cbb 01       		.byte	0x1
 2396 1cbc 1E       		.uleb128 0x1e
 2397 1cbd 456E6162 		.ascii "EnableInterrupts() \0"
 2397      6C65496E 
 2397      74657272 
 2397      75707473 
 2397      28292000 
 2398 1cd1 01       		.byte	0x1
 2399 1cd2 1F       		.uleb128 0x1f
 2400 1cd3 50726976 		.ascii "Privilige_level_save_current() \0"
 2400      696C6967 
 2400      655F6C65 
 2400      76656C5F 
 2400      73617665 
 2401 1cf3 01       		.byte	0x1
 2402 1cf4 20       		.uleb128 0x20
 2403 1cf5 50726976 		.ascii "Privilige_level_enter_kernel_mode() \0"
 2403      696C6967 
 2403      655F6C65 
 2403      76656C5F 
 2403      656E7465 
 2404 1d1a 01       		.byte	0x1
 2405 1d1b 21       		.uleb128 0x21
 2406 1d1c 50726976 		.ascii "Privilige_level_restore_saved() \0"
 2406      696C6967 
 2406      655F6C65 
 2406      76656C5F 
 2406      72657374 
 2407 1d3d 01       		.byte	0x1
 2408 1d3e 22       		.uleb128 0x22
 2409 1d3f 48616C74 		.ascii "HaltMcu() \0"
 2409      4D637528 
 2409      292000
 2410 1d4a 01       		.byte	0x1
 2411 1d4b 58       		.uleb128 0x58
 2412 1d4c 42696749 		.ascii "BigIntSize 16\0"
 2412      6E745369 
GAS LISTING C:\Users\PRESID~1\AppData\Local\Temp\cccQu4Io.s 			page 69


 2412      7A652031 
 2412      3600
 2413 1d5a 04       		.byte	0x4
 2414              		.file 6 "E:/NeuOrga/Programmieren/c_cpp/github_os/input/src/os_base/../os_sim/lld_global.h"
 2415 1d5b 03       		.byte	0x3
 2416 1d5c 08       		.uleb128 0x8
 2417 1d5d 06       		.uleb128 0x6
 2418 1d5e 01       		.byte	0x1
 2419 1d5f 02       		.uleb128 0x2
 2420 1d60 5F6C6C64 		.ascii "_lld_global_h_ \0"
 2420      5F676C6F 
 2420      62616C5F 
 2420      685F2000 
 2421              		.file 7 "E:/NeuOrga/Programmieren/c_cpp/github_os/input/src/os_base/../os_sim/lld_core.h"
 2422 1d70 03       		.byte	0x3
 2423 1d71 04       		.uleb128 0x4
 2424 1d72 07       		.uleb128 0x7
 2425 1d73 01       		.byte	0x1
 2426 1d74 02       		.uleb128 0x2
 2427 1d75 5F6C6C64 		.ascii "_lld_core_h_ \0"
 2427      5F636F72 
 2427      655F685F 
 2427      2000
 2428              		.file 8 "E:/NeuOrga/Programmieren/c_cpp/github_os/input/src/os_base/../os_sim/../os_base/os_firsti
 2429 1d83 03       		.byte	0x3
 2430 1d84 03       		.uleb128 0x3
 2431 1d85 08       		.uleb128 0x8
 2432 1d86 04       		.byte	0x4
 2433 1d87 04       		.byte	0x4
 2434              		.file 9 "E:/NeuOrga/Programmieren/c_cpp/github_os/input/src/os_base/../os_sim/lld_interrupt.h"
 2435 1d88 03       		.byte	0x3
 2436 1d89 05       		.uleb128 0x5
 2437 1d8a 09       		.uleb128 0x9
 2438 1d8b 01       		.byte	0x1
 2439 1d8c 02       		.uleb128 0x2
 2440 1d8d 5F6C6C64 		.ascii "_lld_interrupt_h_ \0"
 2440      5F696E74 
 2440      65727275 
 2440      70745F68 
 2440      5F2000
 2441 1da0 01       		.byte	0x1
 2442 1da1 05       		.uleb128 0x5
 2443 1da2 6F735F69 		.ascii "os_interrupt_swi_1 asm(\"swi 1\")\0"
 2443      6E746572 
 2443      72757074 
 2443      5F737769 
 2443      5F312061 
 2444 1dc2 01       		.byte	0x1
 2445 1dc3 06       		.uleb128 0x6
 2446 1dc4 6F735F69 		.ascii "os_interrupt_swi_2 asm(\"swi 2\")\0"
 2446      6E746572 
 2446      72757074 
 2446      5F737769 
 2446      5F322061 
 2447 1de4 01       		.byte	0x1
 2448 1de5 07       		.uleb128 0x7
 2449 1de6 6F735F69 		.ascii "os_interrupt_swi_3 asm(\"swi 3\")\0"
GAS LISTING C:\Users\PRESID~1\AppData\Local\Temp\cccQu4Io.s 			page 70


 2449      6E746572 
 2449      72757074 
 2449      5F737769 
 2449      5F332061 
 2450 1e06 01       		.byte	0x1
 2451 1e07 08       		.uleb128 0x8
 2452 1e08 6F735F69 		.ascii "os_interrupt_swi_4 asm(\"swi 4\")\0"
 2452      6E746572 
 2452      72757074 
 2452      5F737769 
 2452      5F342061 
 2453 1e28 01       		.byte	0x1
 2454 1e29 09       		.uleb128 0x9
 2455 1e2a 6F735F69 		.ascii "os_interrupt_swi_5 asm(\"swi 5\")\0"
 2455      6E746572 
 2455      72757074 
 2455      5F737769 
 2455      5F352061 
 2456 1e4a 04       		.byte	0x4
 2457              		.file 10 "E:/NeuOrga/Programmieren/c_cpp/github_os/input/src/os_base/../os_sim/lld_mmu.h"
 2458 1e4b 03       		.byte	0x3
 2459 1e4c 06       		.uleb128 0x6
 2460 1e4d 0A       		.uleb128 0xa
 2461 1e4e 01       		.byte	0x1
 2462 1e4f 02       		.uleb128 0x2
 2463 1e50 5F6C6C64 		.ascii "_lld_mmu_h_ \0"
 2463      5F6D6D75 
 2463      5F685F20 
 2463      00
 2464 1e5d 04       		.byte	0x4
 2465              		.file 11 "E:/NeuOrga/Programmieren/c_cpp/github_os/input/src/os_base/../os_sim/lld_timer.h"
 2466 1e5e 03       		.byte	0x3
 2467 1e5f 07       		.uleb128 0x7
 2468 1e60 0B       		.uleb128 0xb
 2469 1e61 01       		.byte	0x1
 2470 1e62 02       		.uleb128 0x2
 2471 1e63 5F6C6C64 		.ascii "_lld_timer_h_ \0"
 2471      5F74696D 
 2471      65725F68 
 2471      5F2000
 2472 1e72 04       		.byte	0x4
 2473              		.file 12 "E:/NeuOrga/Programmieren/c_cpp/github_os/input/src/os_base/../os_sim/lld_power.h"
 2474 1e73 03       		.byte	0x3
 2475 1e74 08       		.uleb128 0x8
 2476 1e75 0C       		.uleb128 0xc
 2477 1e76 01       		.byte	0x1
 2478 1e77 02       		.uleb128 0x2
 2479 1e78 5F6C6C64 		.ascii "_lld_power_h_ \0"
 2479      5F706F77 
 2479      65725F68 
 2479      5F2000
 2480 1e87 04       		.byte	0x4
 2481              		.file 13 "E:/NeuOrga/Programmieren/c_cpp/github_os/input/src/os_base/../os_sim/lld_ram.h"
 2482 1e88 03       		.byte	0x3
 2483 1e89 09       		.uleb128 0x9
 2484 1e8a 0D       		.uleb128 0xd
 2485 1e8b 01       		.byte	0x1
GAS LISTING C:\Users\PRESID~1\AppData\Local\Temp\cccQu4Io.s 			page 71


 2486 1e8c 02       		.uleb128 0x2
 2487 1e8d 5F6C6C64 		.ascii "_lld_ram_h_ \0"
 2487      5F72616D 
 2487      5F685F20 
 2487      00
 2488 1e9a 04       		.byte	0x4
 2489              		.file 14 "E:/NeuOrga/Programmieren/c_cpp/github_os/input/src/os_base/../os_sim/../os_base/os_task_
 2490 1e9b 03       		.byte	0x3
 2491 1e9c 0A       		.uleb128 0xa
 2492 1e9d 0E       		.uleb128 0xe
 2493 1e9e 01       		.byte	0x1
 2494 1e9f 02       		.uleb128 0x2
 2495 1ea0 5F6F735F 		.ascii "_os_task_common_h_ \0"
 2495      7461736B 
 2495      5F636F6D 
 2495      6D6F6E5F 
 2495      685F2000 
 2496 1eb4 03       		.byte	0x3
 2497 1eb5 03       		.uleb128 0x3
 2498 1eb6 08       		.uleb128 0x8
 2499 1eb7 04       		.byte	0x4
 2500              		.file 15 "E:/NeuOrga/Programmieren/c_cpp/github_os/input/src/os_base/../os_sim/../os_base/os_task_
 2501 1eb8 03       		.byte	0x3
 2502 1eb9 04       		.uleb128 0x4
 2503 1eba 0F       		.uleb128 0xf
 2504 1ebb 01       		.byte	0x1
 2505 1ebc 02       		.uleb128 0x2
 2506 1ebd 5F6F735F 		.ascii "_os_task_config_h_ \0"
 2506      7461736B 
 2506      5F636F6E 
 2506      6669675F 
 2506      685F2000 
 2507 1ed1 01       		.byte	0x1
 2508 1ed2 05       		.uleb128 0x5
 2509 1ed3 53636865 		.ascii "SchedulerFrequency (1.0e3)\0"
 2509      64756C65 
 2509      72467265 
 2509      7175656E 
 2509      63792028 
 2510 1eee 01       		.byte	0x1
 2511 1eef 06       		.uleb128 0x6
 2512 1ef0 4D696E54 		.ascii "MinTimeSlice_s (1.0/SchedulerFrequency)\0"
 2512      696D6553 
 2512      6C696365 
 2512      5F732028 
 2512      312E302F 
 2513 1f18 01       		.byte	0x1
 2514 1f19 07       		.uleb128 0x7
 2515 1f1a 4D696E54 		.ascii "MinTimeSlice_us ((1.0/SchedulerFrequency)*1e6)\0"
 2515      696D6553 
 2515      6C696365 
 2515      5F757320 
 2515      2828312E 
 2516 1f49 01       		.byte	0x1
 2517 1f4a 08       		.uleb128 0x8
 2518 1f4b 5461736B 		.ascii "Task_min_time (1e0)\0"
 2518      5F6D696E 
GAS LISTING C:\Users\PRESID~1\AppData\Local\Temp\cccQu4Io.s 			page 72


 2518      5F74696D 
 2518      65202831 
 2518      65302900 
 2519 1f5f 01       		.byte	0x1
 2520 1f60 09       		.uleb128 0x9
 2521 1f61 4E554D42 		.ascii "NUMBER_OF_TASKS 10\0"
 2521      45525F4F 
 2521      465F5441 
 2521      534B5320 
 2521      313000
 2522 1f74 01       		.byte	0x1
 2523 1f75 0A       		.uleb128 0xa
 2524 1f76 4D41585F 		.ascii "MAX_RUN_QUEUE_SIZE (NUMBER_OF_TASKS)\0"
 2524      52554E5F 
 2524      51554555 
 2524      455F5349 
 2524      5A452028 
 2525 1f9b 01       		.byte	0x1
 2526 1f9c 0B       		.uleb128 0xb
 2527 1f9d 4D41585F 		.ascii "MAX_RUN_PQUEUE_SIZE MAX_RUN_QUEUE_SIZE\0"
 2527      52554E5F 
 2527      50515545 
 2527      55455F53 
 2527      495A4520 
 2528 1fc4 01       		.byte	0x1
 2529 1fc5 0D       		.uleb128 0xd
 2530 1fc6 5441534B 		.ascii "TASK_STACK_SIZE 2000\0"
 2530      5F535441 
 2530      434B5F53 
 2530      495A4520 
 2530      32303030 
 2531 1fdb 01       		.byte	0x1
 2532 1fdc 10       		.uleb128 0x10
 2533 1fdd 4D535F50 		.ascii "MS_PER_SEC (1000)\0"
 2533      45525F53 
 2533      45432028 
 2533      31303030 
 2533      2900
 2534 1fef 01       		.byte	0x1
 2535 1ff0 11       		.uleb128 0x11
 2536 1ff1 5553455F 		.ascii "USE_STATIC_CREATED_TASKS True\0"
 2536      53544154 
 2536      49435F43 
 2536      52454154 
 2536      45445F54 
 2537 200f 04       		.byte	0x4
 2538              		.file 16 "E:/NeuOrga/Programmieren/c_cpp/github_os/input/src/os_base/../os_sim/../os_base/os_init_
 2539 2010 03       		.byte	0x3
 2540 2011 05       		.uleb128 0x5
 2541 2012 10       		.uleb128 0x10
 2542 2013 01       		.byte	0x1
 2543 2014 02       		.uleb128 0x2
 2544 2015 5F6F735F 		.ascii "_os_init_task_system_h_ \0"
 2544      696E6974 
 2544      5F746173 
 2544      6B5F7379 
 2544      7374656D 
GAS LISTING C:\Users\PRESID~1\AppData\Local\Temp\cccQu4Io.s 			page 73


 2545 202e 04       		.byte	0x4
 2546 202f 01       		.byte	0x1
 2547 2030 5F       		.uleb128 0x5f
 2548 2031 6F735F53 		.ascii "os_SaveTaskPtr(task_ptr,task_name) (TASK_PTR[(task_name)] = (task_ptr))\0"
 2548      61766554 
 2548      61736B50 
 2548      74722874 
 2548      61736B5F 
 2549 2079 01       		.byte	0x1
 2550 207a 60       		.uleb128 0x60
 2551 207b 6F735F47 		.ascii "os_GetTaskPtr(task_name) ((task_t*) TASK_PTR[(task_name)])\0"
 2551      65745461 
 2551      736B5074 
 2551      72287461 
 2551      736B5F6E 
 2552 20b6 04       		.byte	0x4
 2553 20b7 04       		.byte	0x4
 2554              		.file 17 "E:/NeuOrga/Programmieren/c_cpp/github_os/input/src/os_base/../os_user_code/led.h"
 2555 20b8 03       		.byte	0x3
 2556 20b9 0C       		.uleb128 0xc
 2557 20ba 11       		.uleb128 0x11
 2558 20bb 01       		.byte	0x1
 2559 20bc 02       		.uleb128 0x2
 2560 20bd 5F4C4544 		.ascii "_LED_H_ \0"
 2560      5F485F20 
 2560      00
 2561 20c6 04       		.byte	0x4
 2562 20c7 03       		.byte	0x3
 2563 20c8 0E       		.uleb128 0xe
 2564 20c9 04       		.uleb128 0x4
 2565 20ca 01       		.byte	0x1
 2566 20cb 02       		.uleb128 0x2
 2567 20cc 5F4F535F 		.ascii "_OS_RAM_H_ \0"
 2567      52414D5F 
 2567      485F2000 
 2568              		.file 18 "E:/NeuOrga/Programmieren/c_cpp/github_os/input/src/os_base/../os_base/os_firstinc.h"
 2569 20d8 03       		.byte	0x3
 2570 20d9 04       		.uleb128 0x4
 2571 20da 12       		.uleb128 0x12
 2572 20db 04       		.byte	0x4
 2573              		.file 19 "E:/NeuOrga/Programmieren/c_cpp/github_os/input/src/os_base/../os_base/os_stack.h"
 2574 20dc 03       		.byte	0x3
 2575 20dd 05       		.uleb128 0x5
 2576 20de 13       		.uleb128 0x13
 2577 20df 01       		.byte	0x1
 2578 20e0 02       		.uleb128 0x2
 2579 20e1 5F6F735F 		.ascii "_os_stack_h_ \0"
 2579      73746163 
 2579      6B5F685F 
 2579      2000
 2580 20ef 01       		.byte	0x1
 2581 20f0 04       		.uleb128 0x4
 2582 20f1 4F535F53 		.ascii "OS_STACK_SIZE 0x5000u\0"
 2582      5441434B 
 2582      5F53495A 
 2582      45203078 
 2582      35303030 
GAS LISTING C:\Users\PRESID~1\AppData\Local\Temp\cccQu4Io.s 			page 74


 2583 2107 04       		.byte	0x4
 2584              		.file 20 "E:/NeuOrga/Programmieren/c_cpp/github_os/input/src/os_base/../os_base/os_heap.h"
 2585 2108 03       		.byte	0x3
 2586 2109 06       		.uleb128 0x6
 2587 210a 14       		.uleb128 0x14
 2588 210b 01       		.byte	0x1
 2589 210c 02       		.uleb128 0x2
 2590 210d 5F6F735F 		.ascii "_os_heap_h_ \0"
 2590      68656170 
 2590      5F685F20 
 2590      00
 2591 211a 01       		.byte	0x1
 2592 211b 05       		.uleb128 0x5
 2593 211c 48454150 		.ascii "HEAP_SIZE 10000\0"
 2593      5F53495A 
 2593      45203130 
 2593      30303000 
 2594 212c 01       		.byte	0x1
 2595 212d 06       		.uleb128 0x6
 2596 212e 4D494E5F 		.ascii "MIN_BLOCK_SIZE_HEAP 8\0"
 2596      424C4F43 
 2596      4B5F5349 
 2596      5A455F48 
 2596      45415020 
 2597 2144 01       		.byte	0x1
 2598 2145 09       		.uleb128 0x9
 2599 2146 48454150 		.ascii "HEAP_OFFSET_FOR_SIZE 0\0"
 2599      5F4F4646 
 2599      5345545F 
 2599      464F525F 
 2599      53495A45 
 2600 215d 01       		.byte	0x1
 2601 215e 0A       		.uleb128 0xa
 2602 215f 48454150 		.ascii "HEAP_OFFSET_FOR_USED_SIZE 4\0"
 2602      5F4F4646 
 2602      5345545F 
 2602      464F525F 
 2602      55534544 
 2603 217b 01       		.byte	0x1
 2604 217c 0B       		.uleb128 0xb
 2605 217d 48454150 		.ascii "HEAP_OFFSET_FOR_CHUNK 8\0"
 2605      5F4F4646 
 2605      5345545F 
 2605      464F525F 
 2605      4348554E 
 2606 2195 04       		.byte	0x4
 2607              		.file 21 "E:/NeuOrga/Programmieren/c_cpp/github_os/input/src/os_base/../os_base/os_main.h"
 2608 2196 03       		.byte	0x3
 2609 2197 07       		.uleb128 0x7
 2610 2198 15       		.uleb128 0x15
 2611 2199 01       		.byte	0x1
 2612 219a 02       		.uleb128 0x2
 2613 219b 5F6F735F 		.ascii "_os_main_h_ \0"
 2613      6D61696E 
 2613      5F685F20 
 2613      00
 2614 21a8 01       		.byte	0x1
GAS LISTING C:\Users\PRESID~1\AppData\Local\Temp\cccQu4Io.s 			page 75


 2615 21a9 03       		.uleb128 0x3
 2616 21aa 6F735F69 		.ascii "os_init 0\0"
 2616      6E697420 
 2616      3000
 2617 21b4 01       		.byte	0x1
 2618 21b5 04       		.uleb128 0x4
 2619 21b6 6F735F72 		.ascii "os_running 1\0"
 2619      756E6E69 
 2619      6E672031 
 2619      00
 2620 21c3 01       		.byte	0x1
 2621 21c4 05       		.uleb128 0x5
 2622 21c5 6F735F73 		.ascii "os_shutdown 2\0"
 2622      68757464 
 2622      6F776E20 
 2622      3200
 2623 21d3 04       		.byte	0x4
 2624              		.file 22 "E:/NeuOrga/Programmieren/c_cpp/github_os/input/src/os_base/../os_base/os_task_config.h"
 2625 21d4 03       		.byte	0x3
 2626 21d5 08       		.uleb128 0x8
 2627 21d6 16       		.uleb128 0x16
 2628 21d7 04       		.byte	0x4
 2629              		.file 23 "E:/NeuOrga/Programmieren/c_cpp/github_os/input/src/os_base/../os_base/os_task_common.h"
 2630 21d8 03       		.byte	0x3
 2631 21d9 09       		.uleb128 0x9
 2632 21da 17       		.uleb128 0x17
 2633 21db 04       		.byte	0x4
 2634 21dc 04       		.byte	0x4
 2635 21dd 04       		.byte	0x4
 2636              		.file 24 "E:/NeuOrga/Programmieren/c_cpp/github_os/input/src/os_base/os_task_common.h"
 2637 21de 03       		.byte	0x3
 2638 21df 02       		.uleb128 0x2
 2639 21e0 18       		.uleb128 0x18
 2640 21e1 04       		.byte	0x4
 2641 21e2 01       		.byte	0x1
 2642 21e3 08       		.uleb128 0x8
 2643 21e4 4457545F 		.ascii "DWT_CTRL ((volatile uint32*)0xE0001000)\0"
 2643      4354524C 
 2643      20282876 
 2643      6F6C6174 
 2643      696C6520 
 2644 220c 01       		.byte	0x1
 2645 220d 09       		.uleb128 0x9
 2646 220e 4457545F 		.ascii "DWT_CYCCNT ((volatile uint32*)0xE0001004)\0"
 2646      43594343 
 2646      4E542028 
 2646      28766F6C 
 2646      6174696C 
 2647 2238 01       		.byte	0x1
 2648 2239 0B       		.uleb128 0xb
 2649 223a 4457545F 		.ascii "DWT_LAR ((volatile uint32*)0xE0001FB0)\0"
 2649      4C415220 
 2649      2828766F 
 2649      6C617469 
 2649      6C652075 
 2650 2261 01       		.byte	0x1
 2651 2262 0C       		.uleb128 0xc
GAS LISTING C:\Users\PRESID~1\AppData\Local\Temp\cccQu4Io.s 			page 76


 2652 2263 5343425F 		.ascii "SCB_DEMCR ((volatile uint32*)0xE000EDFC)\0"
 2652      44454D43 
 2652      52202828 
 2652      766F6C61 
 2652      74696C65 
 2653 228c 04       		.byte	0x4
 2654 228d 00       		.byte	0
 2655              		.section	.debug_line,"dr"
 2656              	Ldebug_line0:
 2657 0000 14040000 		.section	.debug_str,"dr"
 2657      0200FB02 
 2657      00000101 
 2657      FB0E0D00 
 2657      01010101 
 2658              	LASF1:
 2659 0000 4F706572 		.ascii "Operand2\0"
 2659      616E6432 
 2659      00
 2660              	LASF3:
 2661 0009 6C656674 		.ascii "leftOperand\0"
 2661      4F706572 
 2661      616E6400 
 2662              	LASF0:
 2663 0015 4F706572 		.ascii "Operand1\0"
 2663      616E6431 
 2663      00
 2664              	LASF2:
 2665 001e 49734772 		.ascii "IsGreater\0"
 2665      65617465 
 2665      7200
 2666              		.ident	"GCC: (GNU) 4.9.3"
GAS LISTING C:\Users\PRESID~1\AppData\Local\Temp\cccQu4Io.s 			page 77


DEFINED SYMBOLS
                            *ABS*:00000000 os_common.c
C:\Users\PRESID~1\AppData\Local\Temp\cccQu4Io.s:6      .text:00000000 _OS_SetSwBug
C:\Users\PRESID~1\AppData\Local\Temp\cccQu4Io.s:29     .text:00000012 _OS_GetCurrentTime
C:\Users\PRESID~1\AppData\Local\Temp\cccQu4Io.s:580    .bss:00000000 _time.1315
C:\Users\PRESID~1\AppData\Local\Temp\cccQu4Io.s:51     .text:00000025 _OS_ResetCurrentTime
C:\Users\PRESID~1\AppData\Local\Temp\cccQu4Io.s:87     .text:00000065 _IntAdd
C:\Users\PRESID~1\AppData\Local\Temp\cccQu4Io.s:145    .text:000000c5 _IntSub
C:\Users\PRESID~1\AppData\Local\Temp\cccQu4Io.s:245    .text:000001a3 _IsLess
C:\Users\PRESID~1\AppData\Local\Temp\cccQu4Io.s:309    .text:00000201 _IsLessOrEqual
C:\Users\PRESID~1\AppData\Local\Temp\cccQu4Io.s:352    .text:00000241 _IsEqual
C:\Users\PRESID~1\AppData\Local\Temp\cccQu4Io.s:402    .text:00000281 _IsGreater
C:\Users\PRESID~1\AppData\Local\Temp\cccQu4Io.s:466    .text:000002df _IsGreaterOrEqual
C:\Users\PRESID~1\AppData\Local\Temp\cccQu4Io.s:509    .text:0000031f _Assign
C:\Users\PRESID~1\AppData\Local\Temp\cccQu4Io.s:547    .text:0000034e _AssignNull

UNDEFINED SYMBOLS
_OS_SW_BUG
