GAS LISTING C:\Users\PRESID~1\AppData\Local\Temp\cc9JIKYb.s 			page 1


   1              		.file	"os_exception.c"
   2              		.text
   3              	Ltext0:
   4              		.globl	_OS_Exception_HARDFAULT
   6              	_OS_Exception_HARDFAULT:
   7              	LFB0:
   8              		.file 1 "E:/NeuOrga/Programmieren/c_cpp/github_os/input/src/os_base/os_exception.c"
   1:E:/NeuOrga/Programmieren/c_cpp/github_os/input/src/os_base\os_exception.c **** #include "os_firstinc.h"
   2:E:/NeuOrga/Programmieren/c_cpp/github_os/input/src/os_base\os_exception.c **** #include "os_exception_isr_handler.h"
   3:E:/NeuOrga/Programmieren/c_cpp/github_os/input/src/os_base\os_exception.c **** #include "os_shutdown.h"
   4:E:/NeuOrga/Programmieren/c_cpp/github_os/input/src/os_base\os_exception.c **** #include "os_start_os.h"
   5:E:/NeuOrga/Programmieren/c_cpp/github_os/input/src/os_base\os_exception.c **** #include "os_ram.h"
   6:E:/NeuOrga/Programmieren/c_cpp/github_os/input/src/os_base\os_exception.c **** 
   7:E:/NeuOrga/Programmieren/c_cpp/github_os/input/src/os_base\os_exception.c **** /* the Interrupt table is set via the code linked to 0x00 and following ...   */
   8:E:/NeuOrga/Programmieren/c_cpp/github_os/input/src/os_base\os_exception.c **** /* interrupts are disabled during RESET exception and will be enabled by task system */
   9:E:/NeuOrga/Programmieren/c_cpp/github_os/input/src/os_base\os_exception.c **** void OS_Exception_HARDFAULT(void)
  10:E:/NeuOrga/Programmieren/c_cpp/github_os/input/src/os_base\os_exception.c **** {
   9              		.loc 1 10 0
  10              		.cfi_startproc
  11 0000 55       		pushl	%ebp
  12              		.cfi_def_cfa_offset 8
  13              		.cfi_offset 5, -8
  14 0001 89E5     		movl	%esp, %ebp
  15              		.cfi_def_cfa_register 5
  16              	L2:
  11:E:/NeuOrga/Programmieren/c_cpp/github_os/input/src/os_base\os_exception.c ****    while(1){}
  17              		.loc 1 11 0 discriminator 1
  18 0003 EBFE     		jmp	L2
  19              		.cfi_endproc
  20              	LFE0:
  21              		.globl	_OS_Exception_UNDEFINST
  23              	_OS_Exception_UNDEFINST:
  24              	LFB1:
  12:E:/NeuOrga/Programmieren/c_cpp/github_os/input/src/os_base\os_exception.c **** }
  13:E:/NeuOrga/Programmieren/c_cpp/github_os/input/src/os_base\os_exception.c **** 
  14:E:/NeuOrga/Programmieren/c_cpp/github_os/input/src/os_base\os_exception.c **** 
  15:E:/NeuOrga/Programmieren/c_cpp/github_os/input/src/os_base\os_exception.c **** void OS_Exception_UNDEFINST(void)
  16:E:/NeuOrga/Programmieren/c_cpp/github_os/input/src/os_base\os_exception.c **** {
  25              		.loc 1 16 0
  26              		.cfi_startproc
  27 0005 55       		pushl	%ebp
  28              		.cfi_def_cfa_offset 8
  29              		.cfi_offset 5, -8
  30 0006 89E5     		movl	%esp, %ebp
  31              		.cfi_def_cfa_register 5
  32              	L4:
  17:E:/NeuOrga/Programmieren/c_cpp/github_os/input/src/os_base\os_exception.c ****    while(1){}
  33              		.loc 1 17 0 discriminator 1
  34 0008 EBFE     		jmp	L4
  35              		.cfi_endproc
  36              	LFE1:
  37              		.globl	_OS_Exception_SWI
  39              	_OS_Exception_SWI:
  40              	LFB2:
  18:E:/NeuOrga/Programmieren/c_cpp/github_os/input/src/os_base\os_exception.c ****    OS_SET_SW_BUG(os_bug_exception_UndefInstruction, Func_os_exception);
  19:E:/NeuOrga/Programmieren/c_cpp/github_os/input/src/os_base\os_exception.c ****    OS_SHUTDOWN(os_reset_hardreset);
  20:E:/NeuOrga/Programmieren/c_cpp/github_os/input/src/os_base\os_exception.c **** }
GAS LISTING C:\Users\PRESID~1\AppData\Local\Temp\cc9JIKYb.s 			page 2


  21:E:/NeuOrga/Programmieren/c_cpp/github_os/input/src/os_base\os_exception.c **** void OS_Exception_SWI(void)
  22:E:/NeuOrga/Programmieren/c_cpp/github_os/input/src/os_base\os_exception.c **** {
  41              		.loc 1 22 0
  42              		.cfi_startproc
  43 000a 55       		pushl	%ebp
  44              		.cfi_def_cfa_offset 8
  45              		.cfi_offset 5, -8
  46 000b 89E5     		movl	%esp, %ebp
  47              		.cfi_def_cfa_register 5
  48 000d 83EC08   		subl	$8, %esp
  23:E:/NeuOrga/Programmieren/c_cpp/github_os/input/src/os_base\os_exception.c ****    /* Mode: Supervisor:
  24:E:/NeuOrga/Programmieren/c_cpp/github_os/input/src/os_base\os_exception.c ****      Exception SWI is entered, in case a user mode program executed the assembler code "SWI" (SoftW
  25:E:/NeuOrga/Programmieren/c_cpp/github_os/input/src/os_base\os_exception.c ****    OS_ISRHANDLERC0();
  49              		.loc 1 25 0
  50 0010 E8000000 		call	_OS_ISRHANDLERC0
  50      00
  26:E:/NeuOrga/Programmieren/c_cpp/github_os/input/src/os_base\os_exception.c **** }
  51              		.loc 1 26 0
  52 0015 C9       		leave
  53              		.cfi_restore 5
  54              		.cfi_def_cfa 4, 4
  55 0016 C3       		ret
  56              		.cfi_endproc
  57              	LFE2:
  58              		.globl	_OS_Exception_ABORT_PREFETCH
  60              	_OS_Exception_ABORT_PREFETCH:
  61              	LFB3:
  27:E:/NeuOrga/Programmieren/c_cpp/github_os/input/src/os_base\os_exception.c **** void OS_Exception_ABORT_PREFETCH(void)
  28:E:/NeuOrga/Programmieren/c_cpp/github_os/input/src/os_base\os_exception.c **** {
  62              		.loc 1 28 0
  63              		.cfi_startproc
  64 0017 55       		pushl	%ebp
  65              		.cfi_def_cfa_offset 8
  66              		.cfi_offset 5, -8
  67 0018 89E5     		movl	%esp, %ebp
  68              		.cfi_def_cfa_register 5
  69              	L7:
  29:E:/NeuOrga/Programmieren/c_cpp/github_os/input/src/os_base\os_exception.c ****    while(1){}
  70              		.loc 1 29 0 discriminator 1
  71 001a EBFE     		jmp	L7
  72              		.cfi_endproc
  73              	LFE3:
  74              		.globl	_OS_Exception_ABORT_DATA
  76              	_OS_Exception_ABORT_DATA:
  77              	LFB4:
  30:E:/NeuOrga/Programmieren/c_cpp/github_os/input/src/os_base\os_exception.c ****    OS_SET_SW_BUG(os_bug_exception_AbortPrefetch,Func_os_exception);
  31:E:/NeuOrga/Programmieren/c_cpp/github_os/input/src/os_base\os_exception.c ****    OS_SHUTDOWN(os_reset_hardreset);
  32:E:/NeuOrga/Programmieren/c_cpp/github_os/input/src/os_base\os_exception.c **** }
  33:E:/NeuOrga/Programmieren/c_cpp/github_os/input/src/os_base\os_exception.c **** void OS_Exception_ABORT_DATA(void)
  34:E:/NeuOrga/Programmieren/c_cpp/github_os/input/src/os_base\os_exception.c **** {
  78              		.loc 1 34 0
  79              		.cfi_startproc
  80 001c 55       		pushl	%ebp
  81              		.cfi_def_cfa_offset 8
  82              		.cfi_offset 5, -8
  83 001d 89E5     		movl	%esp, %ebp
  84              		.cfi_def_cfa_register 5
GAS LISTING C:\Users\PRESID~1\AppData\Local\Temp\cc9JIKYb.s 			page 3


  85              	L9:
  35:E:/NeuOrga/Programmieren/c_cpp/github_os/input/src/os_base\os_exception.c ****    while(1){}
  86              		.loc 1 35 0 discriminator 1
  87 001f EBFE     		jmp	L9
  88              		.cfi_endproc
  89              	LFE4:
  90              		.globl	_OS_Exception_IRQ
  92              	_OS_Exception_IRQ:
  93              	LFB5:
  36:E:/NeuOrga/Programmieren/c_cpp/github_os/input/src/os_base\os_exception.c ****    OS_SET_SW_BUG(os_bug_exception_AbortData,Func_os_exception);
  37:E:/NeuOrga/Programmieren/c_cpp/github_os/input/src/os_base\os_exception.c ****    OS_SHUTDOWN(os_reset_hardreset);
  38:E:/NeuOrga/Programmieren/c_cpp/github_os/input/src/os_base\os_exception.c **** }
  39:E:/NeuOrga/Programmieren/c_cpp/github_os/input/src/os_base\os_exception.c **** void OS_Exception_IRQ(void)
  40:E:/NeuOrga/Programmieren/c_cpp/github_os/input/src/os_base\os_exception.c **** {
  94              		.loc 1 40 0
  95              		.cfi_startproc
  96 0021 55       		pushl	%ebp
  97              		.cfi_def_cfa_offset 8
  98              		.cfi_offset 5, -8
  99 0022 89E5     		movl	%esp, %ebp
 100              		.cfi_def_cfa_register 5
 101 0024 83EC08   		subl	$8, %esp
  41:E:/NeuOrga/Programmieren/c_cpp/github_os/input/src/os_base\os_exception.c ****    OS_ISRHANDLERC0();
 102              		.loc 1 41 0
 103 0027 E8000000 		call	_OS_ISRHANDLERC0
 103      00
  42:E:/NeuOrga/Programmieren/c_cpp/github_os/input/src/os_base\os_exception.c **** }
 104              		.loc 1 42 0
 105 002c C9       		leave
 106              		.cfi_restore 5
 107              		.cfi_def_cfa 4, 4
 108 002d C3       		ret
 109              		.cfi_endproc
 110              	LFE5:
 111              		.globl	_OS_Exception_FIQ
 113              	_OS_Exception_FIQ:
 114              	LFB6:
  43:E:/NeuOrga/Programmieren/c_cpp/github_os/input/src/os_base\os_exception.c **** void OS_Exception_FIQ(void)
  44:E:/NeuOrga/Programmieren/c_cpp/github_os/input/src/os_base\os_exception.c **** {
 115              		.loc 1 44 0
 116              		.cfi_startproc
 117 002e 55       		pushl	%ebp
 118              		.cfi_def_cfa_offset 8
 119              		.cfi_offset 5, -8
 120 002f 89E5     		movl	%esp, %ebp
 121              		.cfi_def_cfa_register 5
 122 0031 83EC08   		subl	$8, %esp
  45:E:/NeuOrga/Programmieren/c_cpp/github_os/input/src/os_base\os_exception.c ****    OS_ISRHANDLERC0();
 123              		.loc 1 45 0
 124 0034 E8000000 		call	_OS_ISRHANDLERC0
 124      00
  46:E:/NeuOrga/Programmieren/c_cpp/github_os/input/src/os_base\os_exception.c **** }
 125              		.loc 1 46 0
 126 0039 C9       		leave
 127              		.cfi_restore 5
 128              		.cfi_def_cfa 4, 4
 129 003a C3       		ret
GAS LISTING C:\Users\PRESID~1\AppData\Local\Temp\cc9JIKYb.s 			page 4


 130              		.cfi_endproc
 131              	LFE6:
 132              		.globl	_TCMP1
 134              	_TCMP1:
 135              	LFB7:
  47:E:/NeuOrga/Programmieren/c_cpp/github_os/input/src/os_base\os_exception.c **** 
  48:E:/NeuOrga/Programmieren/c_cpp/github_os/input/src/os_base\os_exception.c **** 
  49:E:/NeuOrga/Programmieren/c_cpp/github_os/input/src/os_base\os_exception.c **** ISR TCMP1(void)
  50:E:/NeuOrga/Programmieren/c_cpp/github_os/input/src/os_base\os_exception.c **** {
 136              		.loc 1 50 0
 137              		.cfi_startproc
 138 003b 55       		pushl	%ebp
 139              		.cfi_def_cfa_offset 8
 140              		.cfi_offset 5, -8
 141 003c 89E5     		movl	%esp, %ebp
 142              		.cfi_def_cfa_register 5
 143 003e 83EC08   		subl	$8, %esp
  51:E:/NeuOrga/Programmieren/c_cpp/github_os/input/src/os_base\os_exception.c ****    OS_ISRHANDLERC0();
 144              		.loc 1 51 0
 145 0041 E8000000 		call	_OS_ISRHANDLERC0
 145      00
  52:E:/NeuOrga/Programmieren/c_cpp/github_os/input/src/os_base\os_exception.c **** }
 146              		.loc 1 52 0
 147 0046 C9       		leave
 148              		.cfi_restore 5
 149              		.cfi_def_cfa 4, 4
 150 0047 C3       		ret
 151              		.cfi_endproc
 152              	LFE7:
 153              		.globl	_TCMP2
 155              	_TCMP2:
 156              	LFB8:
  53:E:/NeuOrga/Programmieren/c_cpp/github_os/input/src/os_base\os_exception.c **** ISR TCMP2(void)
  54:E:/NeuOrga/Programmieren/c_cpp/github_os/input/src/os_base\os_exception.c **** {
 157              		.loc 1 54 0
 158              		.cfi_startproc
 159 0048 55       		pushl	%ebp
 160              		.cfi_def_cfa_offset 8
 161              		.cfi_offset 5, -8
 162 0049 89E5     		movl	%esp, %ebp
 163              		.cfi_def_cfa_register 5
 164 004b 83EC08   		subl	$8, %esp
  55:E:/NeuOrga/Programmieren/c_cpp/github_os/input/src/os_base\os_exception.c ****    OS_ISRHANDLERC1();
 165              		.loc 1 55 0
 166 004e E8000000 		call	_OS_ISRHANDLERC1
 166      00
  56:E:/NeuOrga/Programmieren/c_cpp/github_os/input/src/os_base\os_exception.c **** }
 167              		.loc 1 56 0
 168 0053 C9       		leave
 169              		.cfi_restore 5
 170              		.cfi_def_cfa 4, 4
 171 0054 C3       		ret
 172              		.cfi_endproc
 173              	LFE8:
 174              		.globl	_TCMP3
 176              	_TCMP3:
 177              	LFB9:
GAS LISTING C:\Users\PRESID~1\AppData\Local\Temp\cc9JIKYb.s 			page 5


  57:E:/NeuOrga/Programmieren/c_cpp/github_os/input/src/os_base\os_exception.c **** ISR TCMP3(void)
  58:E:/NeuOrga/Programmieren/c_cpp/github_os/input/src/os_base\os_exception.c **** {
 178              		.loc 1 58 0
 179              		.cfi_startproc
 180 0055 55       		pushl	%ebp
 181              		.cfi_def_cfa_offset 8
 182              		.cfi_offset 5, -8
 183 0056 89E5     		movl	%esp, %ebp
 184              		.cfi_def_cfa_register 5
 185 0058 83EC08   		subl	$8, %esp
  59:E:/NeuOrga/Programmieren/c_cpp/github_os/input/src/os_base\os_exception.c ****    OS_ISRHANDLERC2();
 186              		.loc 1 59 0
 187 005b E8000000 		call	_OS_ISRHANDLERC2
 187      00
  60:E:/NeuOrga/Programmieren/c_cpp/github_os/input/src/os_base\os_exception.c **** }
 188              		.loc 1 60 0
 189 0060 C9       		leave
 190              		.cfi_restore 5
 191              		.cfi_def_cfa 4, 4
 192 0061 C3       		ret
 193              		.cfi_endproc
 194              	LFE9:
 195              		.globl	_TCMP4
 197              	_TCMP4:
 198              	LFB10:
  61:E:/NeuOrga/Programmieren/c_cpp/github_os/input/src/os_base\os_exception.c **** ISR TCMP4(void)
  62:E:/NeuOrga/Programmieren/c_cpp/github_os/input/src/os_base\os_exception.c **** {
 199              		.loc 1 62 0
 200              		.cfi_startproc
 201 0062 55       		pushl	%ebp
 202              		.cfi_def_cfa_offset 8
 203              		.cfi_offset 5, -8
 204 0063 89E5     		movl	%esp, %ebp
 205              		.cfi_def_cfa_register 5
 206 0065 83EC08   		subl	$8, %esp
  63:E:/NeuOrga/Programmieren/c_cpp/github_os/input/src/os_base\os_exception.c ****    OS_ISRHANDLERC3();
 207              		.loc 1 63 0
 208 0068 E8000000 		call	_OS_ISRHANDLERC3
 208      00
  64:E:/NeuOrga/Programmieren/c_cpp/github_os/input/src/os_base\os_exception.c **** }
 209              		.loc 1 64 0
 210 006d C9       		leave
 211              		.cfi_restore 5
 212              		.cfi_def_cfa 4, 4
 213 006e C3       		ret
 214              		.cfi_endproc
 215              	LFE10:
 216              	Letext0:
 217              		.file 2 "E:/NeuOrga/Programmieren/c_cpp/github_os/input/src/os_base/../os_base/os_common.h"
 218              		.file 3 "E:/NeuOrga/Programmieren/c_cpp/github_os/input/src/os_base/os_shutdown.h"