GAS LISTING C:\Users\PRESID~1\AppData\Local\Temp\ccWfuJY7.s 			page 1


   1              		.file	"os_exception.c"
   2              		.text
   3              	Ltext0:
   5              	_OS_Exception_Read_Status_Registers:
   6              	LFB0:
   7              		.file 1 "E:/NeuOrga/Programmieren/c_cpp/github_os/input/src/os_base/os_exception.c"
   1:E:/NeuOrga/Programmieren/c_cpp/github_os/input/src/os_base\os_exception.c **** #include "os_firstinc.h"
   2:E:/NeuOrga/Programmieren/c_cpp/github_os/input/src/os_base\os_exception.c **** #include "os_exception_isr_handler.h"
   3:E:/NeuOrga/Programmieren/c_cpp/github_os/input/src/os_base\os_exception.c **** #include "os_shutdown.h"
   4:E:/NeuOrga/Programmieren/c_cpp/github_os/input/src/os_base\os_exception.c **** #include "os_start_os.h"
   5:E:/NeuOrga/Programmieren/c_cpp/github_os/input/src/os_base\os_exception.c **** #include "os_ram.h"
   6:E:/NeuOrga/Programmieren/c_cpp/github_os/input/src/os_base\os_exception.c **** 
   7:E:/NeuOrga/Programmieren/c_cpp/github_os/input/src/os_base\os_exception.c **** /* the Interrupt table is set via the code linked to 0x00 and following ...   */
   8:E:/NeuOrga/Programmieren/c_cpp/github_os/input/src/os_base\os_exception.c **** /* interrupts are disabled during RESET exception and will be enabled by task system */
   9:E:/NeuOrga/Programmieren/c_cpp/github_os/input/src/os_base\os_exception.c **** Local void OS_Exception_Read_Status_Registers(void)
  10:E:/NeuOrga/Programmieren/c_cpp/github_os/input/src/os_base\os_exception.c **** {
   8              		.loc 1 10 0
   9              		.cfi_startproc
  10 0000 55       		pushl	%ebp
  11              		.cfi_def_cfa_offset 8
  12              		.cfi_offset 5, -8
  13 0001 89E5     		movl	%esp, %ebp
  14              		.cfi_def_cfa_register 5
  11:E:/NeuOrga/Programmieren/c_cpp/github_os/input/src/os_base\os_exception.c ****    #define HARDFAULT_STATUS_REG ((volatile uint32*)0xE000ED2Cu)
  12:E:/NeuOrga/Programmieren/c_cpp/github_os/input/src/os_base\os_exception.c ****    #define MEM_MANAG_FAULT_STATUS_REG     ((volatile uint8*)0xE000ED28u)
  13:E:/NeuOrga/Programmieren/c_cpp/github_os/input/src/os_base\os_exception.c ****    #define BUS_FAULT_STATUS_REG     ((volatile uint8*)0xE000ED29u)
  14:E:/NeuOrga/Programmieren/c_cpp/github_os/input/src/os_base\os_exception.c ****    #define USAGE_FAULT_STATUS_REG     ((volatile uint16*)0xE000ED2Au)
  15:E:/NeuOrga/Programmieren/c_cpp/github_os/input/src/os_base\os_exception.c ****    #define MEM_FAULT_ADDR_REG   ((volatile uint32*)0xE000ED34u) 
  16:E:/NeuOrga/Programmieren/c_cpp/github_os/input/src/os_base\os_exception.c ****    #define BUS_FAULT_ADDR_REG   ((volatile uint32*)0xE000ED38u)
  17:E:/NeuOrga/Programmieren/c_cpp/github_os/input/src/os_base\os_exception.c ****    #define AUX_FAULT_STATUS_REG ((volatile uint32*)0xE000ED3Cu)
  18:E:/NeuOrga/Programmieren/c_cpp/github_os/input/src/os_base\os_exception.c ****    VAR_HARDFAULT_STATUS_REG = *HARDFAULT_STATUS_REG;
  15              		.loc 1 18 0
  16 0003 B82CED00 		movl	$-536810196, %eax
  16      E0
  17 0008 8B00     		movl	(%eax), %eax
  18 000a A3000000 		movl	%eax, _VAR_HARDFAULT_STATUS_REG
  18      00
  19:E:/NeuOrga/Programmieren/c_cpp/github_os/input/src/os_base\os_exception.c ****    VAR_MEM_MANAG_FAULT_STATUS_REG     = *MEM_MANAG_FAULT_STATUS_REG;
  19              		.loc 1 19 0
  20 000f B828ED00 		movl	$-536810200, %eax
  20      E0
  21 0014 8A00     		movb	(%eax), %al
  22 0016 0FB6C0   		movzbl	%al, %eax
  23 0019 A3000000 		movl	%eax, _VAR_MEM_MANAG_FAULT_STATUS_REG
  23      00
  20:E:/NeuOrga/Programmieren/c_cpp/github_os/input/src/os_base\os_exception.c ****    VAR_BUS_FAULT_STATUS_REG   = *BUS_FAULT_STATUS_REG;
  24              		.loc 1 20 0
  25 001e B829ED00 		movl	$-536810199, %eax
  25      E0
  26 0023 8A00     		movb	(%eax), %al
  27 0025 0FB6C0   		movzbl	%al, %eax
  28 0028 A3000000 		movl	%eax, _VAR_BUS_FAULT_STATUS_REG
  28      00
  21:E:/NeuOrga/Programmieren/c_cpp/github_os/input/src/os_base\os_exception.c ****    VAR_USAGE_FAULT_STATUS_REG = *USAGE_FAULT_STATUS_REG;
  29              		.loc 1 21 0
  30 002d B82AED00 		movl	$-536810198, %eax
  30      E0
GAS LISTING C:\Users\PRESID~1\AppData\Local\Temp\ccWfuJY7.s 			page 2


  31 0032 668B00   		movw	(%eax), %ax
  32 0035 0FB7C0   		movzwl	%ax, %eax
  33 0038 A3000000 		movl	%eax, _VAR_USAGE_FAULT_STATUS_REG
  33      00
  22:E:/NeuOrga/Programmieren/c_cpp/github_os/input/src/os_base\os_exception.c ****    VAR_MEM_FAULT_ADDR_REG   = *MEM_FAULT_ADDR_REG;
  34              		.loc 1 22 0
  35 003d B834ED00 		movl	$-536810188, %eax
  35      E0
  36 0042 8B00     		movl	(%eax), %eax
  37 0044 A3000000 		movl	%eax, _VAR_MEM_FAULT_ADDR_REG
  37      00
  23:E:/NeuOrga/Programmieren/c_cpp/github_os/input/src/os_base\os_exception.c ****    VAR_BUS_FAULT_ADDR_REG   = *BUS_FAULT_ADDR_REG;
  38              		.loc 1 23 0
  39 0049 B838ED00 		movl	$-536810184, %eax
  39      E0
  40 004e 8B00     		movl	(%eax), %eax
  41 0050 A3000000 		movl	%eax, _VAR_BUS_FAULT_ADDR_REG
  41      00
  24:E:/NeuOrga/Programmieren/c_cpp/github_os/input/src/os_base\os_exception.c ****    VAR_AUX_FAULT_STATUS_REG = *AUX_FAULT_STATUS_REG; 
  42              		.loc 1 24 0
  43 0055 B83CED00 		movl	$-536810180, %eax
  43      E0
  44 005a 8B00     		movl	(%eax), %eax
  45 005c A3000000 		movl	%eax, _VAR_AUX_FAULT_STATUS_REG
  45      00
  25:E:/NeuOrga/Programmieren/c_cpp/github_os/input/src/os_base\os_exception.c **** }
  46              		.loc 1 25 0
  47 0061 5D       		popl	%ebp
  48              		.cfi_restore 5
  49              		.cfi_def_cfa 4, 4
  50 0062 C3       		ret
  51              		.cfi_endproc
  52              	LFE0:
  53              		.globl	_OS_Exception_HARDFAULT
  55              	_OS_Exception_HARDFAULT:
  56              	LFB1:
  26:E:/NeuOrga/Programmieren/c_cpp/github_os/input/src/os_base\os_exception.c **** 
  27:E:/NeuOrga/Programmieren/c_cpp/github_os/input/src/os_base\os_exception.c **** 
  28:E:/NeuOrga/Programmieren/c_cpp/github_os/input/src/os_base\os_exception.c **** void OS_Exception_HARDFAULT(void)
  29:E:/NeuOrga/Programmieren/c_cpp/github_os/input/src/os_base\os_exception.c **** {
  57              		.loc 1 29 0
  58              		.cfi_startproc
  59 0063 55       		pushl	%ebp
  60              		.cfi_def_cfa_offset 8
  61              		.cfi_offset 5, -8
  62 0064 89E5     		movl	%esp, %ebp
  63              		.cfi_def_cfa_register 5
  30:E:/NeuOrga/Programmieren/c_cpp/github_os/input/src/os_base\os_exception.c ****    OS_Exception_Read_Status_Registers();
  64              		.loc 1 30 0
  65 0066 E895FFFF 		call	_OS_Exception_Read_Status_Registers
  65      FF
  66              	L3:
  31:E:/NeuOrga/Programmieren/c_cpp/github_os/input/src/os_base\os_exception.c ****    while(1){}
  67              		.loc 1 31 0 discriminator 1
  68 006b EBFE     		jmp	L3
  69              		.cfi_endproc
  70              	LFE1:
GAS LISTING C:\Users\PRESID~1\AppData\Local\Temp\ccWfuJY7.s 			page 3


  71              		.globl	_OS_Exception_NMI
  73              	_OS_Exception_NMI:
  74              	LFB2:
  32:E:/NeuOrga/Programmieren/c_cpp/github_os/input/src/os_base\os_exception.c ****    OS_SHUTDOWN(os_reset_hardreset);
  33:E:/NeuOrga/Programmieren/c_cpp/github_os/input/src/os_base\os_exception.c **** }
  34:E:/NeuOrga/Programmieren/c_cpp/github_os/input/src/os_base\os_exception.c **** 
  35:E:/NeuOrga/Programmieren/c_cpp/github_os/input/src/os_base\os_exception.c **** 
  36:E:/NeuOrga/Programmieren/c_cpp/github_os/input/src/os_base\os_exception.c **** void OS_Exception_NMI(void)
  37:E:/NeuOrga/Programmieren/c_cpp/github_os/input/src/os_base\os_exception.c **** {
  75              		.loc 1 37 0
  76              		.cfi_startproc
  77 006d 55       		pushl	%ebp
  78              		.cfi_def_cfa_offset 8
  79              		.cfi_offset 5, -8
  80 006e 89E5     		movl	%esp, %ebp
  81              		.cfi_def_cfa_register 5
  38:E:/NeuOrga/Programmieren/c_cpp/github_os/input/src/os_base\os_exception.c ****    OS_Exception_Read_Status_Registers();
  82              		.loc 1 38 0
  83 0070 E88BFFFF 		call	_OS_Exception_Read_Status_Registers
  83      FF
  84              	L5:
  39:E:/NeuOrga/Programmieren/c_cpp/github_os/input/src/os_base\os_exception.c ****    while(1){}
  85              		.loc 1 39 0 discriminator 1
  86 0075 EBFE     		jmp	L5
  87              		.cfi_endproc
  88              	LFE2:
  89              		.globl	_OS_Exception_SWI
  91              	_OS_Exception_SWI:
  92              	LFB3:
  40:E:/NeuOrga/Programmieren/c_cpp/github_os/input/src/os_base\os_exception.c ****    OS_SHUTDOWN(os_reset_hardreset);
  41:E:/NeuOrga/Programmieren/c_cpp/github_os/input/src/os_base\os_exception.c **** }
  42:E:/NeuOrga/Programmieren/c_cpp/github_os/input/src/os_base\os_exception.c **** void OS_Exception_SWI(void)
  43:E:/NeuOrga/Programmieren/c_cpp/github_os/input/src/os_base\os_exception.c **** {
  93              		.loc 1 43 0
  94              		.cfi_startproc
  95 0077 55       		pushl	%ebp
  96              		.cfi_def_cfa_offset 8
  97              		.cfi_offset 5, -8
  98 0078 89E5     		movl	%esp, %ebp
  99              		.cfi_def_cfa_register 5
 100 007a 83EC08   		subl	$8, %esp
  44:E:/NeuOrga/Programmieren/c_cpp/github_os/input/src/os_base\os_exception.c ****    /* Mode: Supervisor:
  45:E:/NeuOrga/Programmieren/c_cpp/github_os/input/src/os_base\os_exception.c ****      Exception SWI is entered, in case a user mode program executed the assembler code "SWI" (SoftW
  46:E:/NeuOrga/Programmieren/c_cpp/github_os/input/src/os_base\os_exception.c ****    OS_ISRHANDLERC0();
 101              		.loc 1 46 0
 102 007d E8000000 		call	_OS_ISRHANDLERC0
 102      00
  47:E:/NeuOrga/Programmieren/c_cpp/github_os/input/src/os_base\os_exception.c **** }
 103              		.loc 1 47 0
 104 0082 C9       		leave
 105              		.cfi_restore 5
 106              		.cfi_def_cfa 4, 4
 107 0083 C3       		ret
 108              		.cfi_endproc
 109              	LFE3:
 110              		.globl	_OS_Exception_BUS_FAULT
 112              	_OS_Exception_BUS_FAULT:
GAS LISTING C:\Users\PRESID~1\AppData\Local\Temp\ccWfuJY7.s 			page 4


 113              	LFB4:
  48:E:/NeuOrga/Programmieren/c_cpp/github_os/input/src/os_base\os_exception.c **** void OS_Exception_BUS_FAULT(void)
  49:E:/NeuOrga/Programmieren/c_cpp/github_os/input/src/os_base\os_exception.c **** {
 114              		.loc 1 49 0
 115              		.cfi_startproc
 116 0084 55       		pushl	%ebp
 117              		.cfi_def_cfa_offset 8
 118              		.cfi_offset 5, -8
 119 0085 89E5     		movl	%esp, %ebp
 120              		.cfi_def_cfa_register 5
  50:E:/NeuOrga/Programmieren/c_cpp/github_os/input/src/os_base\os_exception.c ****    OS_Exception_Read_Status_Registers();
 121              		.loc 1 50 0
 122 0087 E874FFFF 		call	_OS_Exception_Read_Status_Registers
 122      FF
 123              	L8:
  51:E:/NeuOrga/Programmieren/c_cpp/github_os/input/src/os_base\os_exception.c ****    while(1){}
 124              		.loc 1 51 0 discriminator 1
 125 008c EBFE     		jmp	L8
 126              		.cfi_endproc
 127              	LFE4:
 128              		.globl	_OS_Exception_DEBUG
 130              	_OS_Exception_DEBUG:
 131              	LFB5:
  52:E:/NeuOrga/Programmieren/c_cpp/github_os/input/src/os_base\os_exception.c ****    OS_SHUTDOWN(os_reset_hardreset);
  53:E:/NeuOrga/Programmieren/c_cpp/github_os/input/src/os_base\os_exception.c **** }
  54:E:/NeuOrga/Programmieren/c_cpp/github_os/input/src/os_base\os_exception.c **** 
  55:E:/NeuOrga/Programmieren/c_cpp/github_os/input/src/os_base\os_exception.c **** void OS_Exception_DEBUG(void)
  56:E:/NeuOrga/Programmieren/c_cpp/github_os/input/src/os_base\os_exception.c **** {
 132              		.loc 1 56 0
 133              		.cfi_startproc
 134 008e 55       		pushl	%ebp
 135              		.cfi_def_cfa_offset 8
 136              		.cfi_offset 5, -8
 137 008f 89E5     		movl	%esp, %ebp
 138              		.cfi_def_cfa_register 5
  57:E:/NeuOrga/Programmieren/c_cpp/github_os/input/src/os_base\os_exception.c ****    OS_Exception_Read_Status_Registers();
 139              		.loc 1 57 0
 140 0091 E86AFFFF 		call	_OS_Exception_Read_Status_Registers
 140      FF
 141              	L10:
  58:E:/NeuOrga/Programmieren/c_cpp/github_os/input/src/os_base\os_exception.c ****    while(1){}
 142              		.loc 1 58 0 discriminator 1
 143 0096 EBFE     		jmp	L10
 144              		.cfi_endproc
 145              	LFE5:
 146              		.globl	_OS_Exception_MEM_MANAG_FAULT
 148              	_OS_Exception_MEM_MANAG_FAULT:
 149              	LFB6:
  59:E:/NeuOrga/Programmieren/c_cpp/github_os/input/src/os_base\os_exception.c ****    OS_SHUTDOWN(os_reset_hardreset);
  60:E:/NeuOrga/Programmieren/c_cpp/github_os/input/src/os_base\os_exception.c **** }
  61:E:/NeuOrga/Programmieren/c_cpp/github_os/input/src/os_base\os_exception.c **** 
  62:E:/NeuOrga/Programmieren/c_cpp/github_os/input/src/os_base\os_exception.c **** void OS_Exception_MEM_MANAG_FAULT(void)
  63:E:/NeuOrga/Programmieren/c_cpp/github_os/input/src/os_base\os_exception.c **** {
 150              		.loc 1 63 0
 151              		.cfi_startproc
 152 0098 55       		pushl	%ebp
 153              		.cfi_def_cfa_offset 8
GAS LISTING C:\Users\PRESID~1\AppData\Local\Temp\ccWfuJY7.s 			page 5


 154              		.cfi_offset 5, -8
 155 0099 89E5     		movl	%esp, %ebp
 156              		.cfi_def_cfa_register 5
  64:E:/NeuOrga/Programmieren/c_cpp/github_os/input/src/os_base\os_exception.c ****    OS_Exception_Read_Status_Registers();
 157              		.loc 1 64 0
 158 009b E860FFFF 		call	_OS_Exception_Read_Status_Registers
 158      FF
 159              	L12:
  65:E:/NeuOrga/Programmieren/c_cpp/github_os/input/src/os_base\os_exception.c ****    while(1){}
 160              		.loc 1 65 0 discriminator 1
 161 00a0 EBFE     		jmp	L12
 162              		.cfi_endproc
 163              	LFE6:
 164              		.globl	_OS_Exception_USAGE_FAULT
 166              	_OS_Exception_USAGE_FAULT:
 167              	LFB7:
  66:E:/NeuOrga/Programmieren/c_cpp/github_os/input/src/os_base\os_exception.c ****    OS_SHUTDOWN(os_reset_hardreset);
  67:E:/NeuOrga/Programmieren/c_cpp/github_os/input/src/os_base\os_exception.c **** }
  68:E:/NeuOrga/Programmieren/c_cpp/github_os/input/src/os_base\os_exception.c **** 
  69:E:/NeuOrga/Programmieren/c_cpp/github_os/input/src/os_base\os_exception.c **** void OS_Exception_USAGE_FAULT(void)
  70:E:/NeuOrga/Programmieren/c_cpp/github_os/input/src/os_base\os_exception.c **** {
 168              		.loc 1 70 0
 169              		.cfi_startproc
 170 00a2 55       		pushl	%ebp
 171              		.cfi_def_cfa_offset 8
 172              		.cfi_offset 5, -8
 173 00a3 89E5     		movl	%esp, %ebp
 174              		.cfi_def_cfa_register 5
  71:E:/NeuOrga/Programmieren/c_cpp/github_os/input/src/os_base\os_exception.c ****    OS_Exception_Read_Status_Registers();
 175              		.loc 1 71 0
 176 00a5 E856FFFF 		call	_OS_Exception_Read_Status_Registers
 176      FF
 177              	L14:
  72:E:/NeuOrga/Programmieren/c_cpp/github_os/input/src/os_base\os_exception.c ****    while(1){}
 178              		.loc 1 72 0 discriminator 1
 179 00aa EBFE     		jmp	L14
 180              		.cfi_endproc
 181              	LFE7:
 182              		.globl	_OS_Exception_PendSV
 184              	_OS_Exception_PendSV:
 185              	LFB8:
  73:E:/NeuOrga/Programmieren/c_cpp/github_os/input/src/os_base\os_exception.c ****    OS_SHUTDOWN(os_reset_hardreset);
  74:E:/NeuOrga/Programmieren/c_cpp/github_os/input/src/os_base\os_exception.c **** }
  75:E:/NeuOrga/Programmieren/c_cpp/github_os/input/src/os_base\os_exception.c **** 
  76:E:/NeuOrga/Programmieren/c_cpp/github_os/input/src/os_base\os_exception.c **** void OS_Exception_PendSV(void)
  77:E:/NeuOrga/Programmieren/c_cpp/github_os/input/src/os_base\os_exception.c **** {
 186              		.loc 1 77 0
 187              		.cfi_startproc
 188 00ac 55       		pushl	%ebp
 189              		.cfi_def_cfa_offset 8
 190              		.cfi_offset 5, -8
 191 00ad 89E5     		movl	%esp, %ebp
 192              		.cfi_def_cfa_register 5
 193              	L16:
  78:E:/NeuOrga/Programmieren/c_cpp/github_os/input/src/os_base\os_exception.c ****    while(1){}
 194              		.loc 1 78 0 discriminator 1
 195 00af EBFE     		jmp	L16
GAS LISTING C:\Users\PRESID~1\AppData\Local\Temp\ccWfuJY7.s 			page 6


 196              		.cfi_endproc
 197              	LFE8:
 198              		.globl	_OS_Exception_Systick
 200              	_OS_Exception_Systick:
 201              	LFB9:
  79:E:/NeuOrga/Programmieren/c_cpp/github_os/input/src/os_base\os_exception.c ****    OS_SHUTDOWN(os_reset_hardreset);
  80:E:/NeuOrga/Programmieren/c_cpp/github_os/input/src/os_base\os_exception.c **** }
  81:E:/NeuOrga/Programmieren/c_cpp/github_os/input/src/os_base\os_exception.c **** 
  82:E:/NeuOrga/Programmieren/c_cpp/github_os/input/src/os_base\os_exception.c **** void OS_Exception_Systick(void)
  83:E:/NeuOrga/Programmieren/c_cpp/github_os/input/src/os_base\os_exception.c **** {
 202              		.loc 1 83 0
 203              		.cfi_startproc
 204 00b1 55       		pushl	%ebp
 205              		.cfi_def_cfa_offset 8
 206              		.cfi_offset 5, -8
 207 00b2 89E5     		movl	%esp, %ebp
 208              		.cfi_def_cfa_register 5
 209              	L18:
  84:E:/NeuOrga/Programmieren/c_cpp/github_os/input/src/os_base\os_exception.c ****    while(1){}
 210              		.loc 1 84 0 discriminator 1
 211 00b4 EBFE     		jmp	L18
 212              		.cfi_endproc
 213              	LFE9:
 214              		.globl	_OS_Exception_IRQ
 216              	_OS_Exception_IRQ:
 217              	LFB10:
  85:E:/NeuOrga/Programmieren/c_cpp/github_os/input/src/os_base\os_exception.c ****    OS_SHUTDOWN(os_reset_hardreset);
  86:E:/NeuOrga/Programmieren/c_cpp/github_os/input/src/os_base\os_exception.c **** }
  87:E:/NeuOrga/Programmieren/c_cpp/github_os/input/src/os_base\os_exception.c **** 
  88:E:/NeuOrga/Programmieren/c_cpp/github_os/input/src/os_base\os_exception.c **** void OS_Exception_IRQ(void)
  89:E:/NeuOrga/Programmieren/c_cpp/github_os/input/src/os_base\os_exception.c **** {
 218              		.loc 1 89 0
 219              		.cfi_startproc
 220 00b6 55       		pushl	%ebp
 221              		.cfi_def_cfa_offset 8
 222              		.cfi_offset 5, -8
 223 00b7 89E5     		movl	%esp, %ebp
 224              		.cfi_def_cfa_register 5
 225 00b9 83EC08   		subl	$8, %esp
  90:E:/NeuOrga/Programmieren/c_cpp/github_os/input/src/os_base\os_exception.c ****    OS_ISRHANDLERC0();
 226              		.loc 1 90 0
 227 00bc E8000000 		call	_OS_ISRHANDLERC0
 227      00
  91:E:/NeuOrga/Programmieren/c_cpp/github_os/input/src/os_base\os_exception.c **** }
 228              		.loc 1 91 0
 229 00c1 C9       		leave
 230              		.cfi_restore 5
 231              		.cfi_def_cfa 4, 4
 232 00c2 C3       		ret
 233              		.cfi_endproc
 234              	LFE10:
 235              		.globl	_OS_Exception_FIQ
 237              	_OS_Exception_FIQ:
 238              	LFB11:
  92:E:/NeuOrga/Programmieren/c_cpp/github_os/input/src/os_base\os_exception.c **** void OS_Exception_FIQ(void)
  93:E:/NeuOrga/Programmieren/c_cpp/github_os/input/src/os_base\os_exception.c **** {
 239              		.loc 1 93 0
GAS LISTING C:\Users\PRESID~1\AppData\Local\Temp\ccWfuJY7.s 			page 7


 240              		.cfi_startproc
 241 00c3 55       		pushl	%ebp
 242              		.cfi_def_cfa_offset 8
 243              		.cfi_offset 5, -8
 244 00c4 89E5     		movl	%esp, %ebp
 245              		.cfi_def_cfa_register 5
 246 00c6 83EC08   		subl	$8, %esp
  94:E:/NeuOrga/Programmieren/c_cpp/github_os/input/src/os_base\os_exception.c ****    OS_ISRHANDLERC0();
 247              		.loc 1 94 0
 248 00c9 E8000000 		call	_OS_ISRHANDLERC0
 248      00
  95:E:/NeuOrga/Programmieren/c_cpp/github_os/input/src/os_base\os_exception.c **** }
 249              		.loc 1 95 0
 250 00ce C9       		leave
 251              		.cfi_restore 5
 252              		.cfi_def_cfa 4, 4
 253 00cf C3       		ret
 254              		.cfi_endproc
 255              	LFE11:
 256              		.globl	_TCMP1
 258              	_TCMP1:
 259              	LFB12:
  96:E:/NeuOrga/Programmieren/c_cpp/github_os/input/src/os_base\os_exception.c **** 
  97:E:/NeuOrga/Programmieren/c_cpp/github_os/input/src/os_base\os_exception.c **** 
  98:E:/NeuOrga/Programmieren/c_cpp/github_os/input/src/os_base\os_exception.c **** ISR TCMP1(void)
  99:E:/NeuOrga/Programmieren/c_cpp/github_os/input/src/os_base\os_exception.c **** {
 260              		.loc 1 99 0
 261              		.cfi_startproc
 262 00d0 55       		pushl	%ebp
 263              		.cfi_def_cfa_offset 8
 264              		.cfi_offset 5, -8
 265 00d1 89E5     		movl	%esp, %ebp
 266              		.cfi_def_cfa_register 5
 267 00d3 83EC08   		subl	$8, %esp
 100:E:/NeuOrga/Programmieren/c_cpp/github_os/input/src/os_base\os_exception.c ****    OS_ISRHANDLERC0();
 268              		.loc 1 100 0
 269 00d6 E8000000 		call	_OS_ISRHANDLERC0
 269      00
 101:E:/NeuOrga/Programmieren/c_cpp/github_os/input/src/os_base\os_exception.c **** }
 270              		.loc 1 101 0
 271 00db C9       		leave
 272              		.cfi_restore 5
 273              		.cfi_def_cfa 4, 4
 274 00dc C3       		ret
 275              		.cfi_endproc
 276              	LFE12:
 277              		.globl	_TCMP2
 279              	_TCMP2:
 280              	LFB13:
 102:E:/NeuOrga/Programmieren/c_cpp/github_os/input/src/os_base\os_exception.c **** ISR TCMP2(void)
 103:E:/NeuOrga/Programmieren/c_cpp/github_os/input/src/os_base\os_exception.c **** {
 281              		.loc 1 103 0
 282              		.cfi_startproc
 283 00dd 55       		pushl	%ebp
 284              		.cfi_def_cfa_offset 8
 285              		.cfi_offset 5, -8
 286 00de 89E5     		movl	%esp, %ebp
GAS LISTING C:\Users\PRESID~1\AppData\Local\Temp\ccWfuJY7.s 			page 8


 287              		.cfi_def_cfa_register 5
 288 00e0 83EC08   		subl	$8, %esp
 104:E:/NeuOrga/Programmieren/c_cpp/github_os/input/src/os_base\os_exception.c ****    OS_ISRHANDLERC1();
 289              		.loc 1 104 0
 290 00e3 E8000000 		call	_OS_ISRHANDLERC1
 290      00
 105:E:/NeuOrga/Programmieren/c_cpp/github_os/input/src/os_base\os_exception.c **** }
 291              		.loc 1 105 0
 292 00e8 C9       		leave
 293              		.cfi_restore 5
 294              		.cfi_def_cfa 4, 4
 295 00e9 C3       		ret
 296              		.cfi_endproc
 297              	LFE13:
 298              		.globl	_TCMP3
 300              	_TCMP3:
 301              	LFB14:
 106:E:/NeuOrga/Programmieren/c_cpp/github_os/input/src/os_base\os_exception.c **** ISR TCMP3(void)
 107:E:/NeuOrga/Programmieren/c_cpp/github_os/input/src/os_base\os_exception.c **** {
 302              		.loc 1 107 0
 303              		.cfi_startproc
 304 00ea 55       		pushl	%ebp
 305              		.cfi_def_cfa_offset 8
 306              		.cfi_offset 5, -8
 307 00eb 89E5     		movl	%esp, %ebp
 308              		.cfi_def_cfa_register 5
 309 00ed 83EC08   		subl	$8, %esp
 108:E:/NeuOrga/Programmieren/c_cpp/github_os/input/src/os_base\os_exception.c ****    OS_ISRHANDLERC2();
 310              		.loc 1 108 0
 311 00f0 E8000000 		call	_OS_ISRHANDLERC2
 311      00
 109:E:/NeuOrga/Programmieren/c_cpp/github_os/input/src/os_base\os_exception.c **** }
 312              		.loc 1 109 0
 313 00f5 C9       		leave
 314              		.cfi_restore 5
 315              		.cfi_def_cfa 4, 4
 316 00f6 C3       		ret
 317              		.cfi_endproc
 318              	LFE14:
 319              		.globl	_TCMP4
 321              	_TCMP4:
 322              	LFB15:
 110:E:/NeuOrga/Programmieren/c_cpp/github_os/input/src/os_base\os_exception.c **** ISR TCMP4(void)
 111:E:/NeuOrga/Programmieren/c_cpp/github_os/input/src/os_base\os_exception.c **** {
 323              		.loc 1 111 0
 324              		.cfi_startproc
 325 00f7 55       		pushl	%ebp
 326              		.cfi_def_cfa_offset 8
 327              		.cfi_offset 5, -8
 328 00f8 89E5     		movl	%esp, %ebp
 329              		.cfi_def_cfa_register 5
 330 00fa 83EC08   		subl	$8, %esp
 112:E:/NeuOrga/Programmieren/c_cpp/github_os/input/src/os_base\os_exception.c ****    OS_ISRHANDLERC3();
 331              		.loc 1 112 0
 332 00fd E8000000 		call	_OS_ISRHANDLERC3
 332      00
 113:E:/NeuOrga/Programmieren/c_cpp/github_os/input/src/os_base\os_exception.c **** }
GAS LISTING C:\Users\PRESID~1\AppData\Local\Temp\ccWfuJY7.s 			page 9


 333              		.loc 1 113 0
 334 0102 C9       		leave
 335              		.cfi_restore 5
 336              		.cfi_def_cfa 4, 4
 337 0103 C3       		ret
 338              		.cfi_endproc
 339              	LFE15:
 340              	Letext0:
 341              		.file 2 "E:/NeuOrga/Programmieren/c_cpp/github_os/input/src/os_base/../os_base/os_base_types.h"
 342              		.file 3 "E:/NeuOrga/Programmieren/c_cpp/github_os/input/src/os_base/../os_base/os_ram.h"
 343              		.file 4 "E:/NeuOrga/Programmieren/c_cpp/github_os/input/src/os_base/os_shutdown.h"
 344              		.section	.debug_info,"dr"
 345              	Ldebug_info0:
 346 0000 1D040000 		.long	0x41d
 347 0004 0400     		.word	0x4
 348 0006 00000000 		.secrel32	Ldebug_abbrev0
 349 000a 04       		.byte	0x4
 350 000b 01       		.uleb128 0x1
 351 000c 474E5520 		.ascii "GNU C 4.9.3 -march=i386 -g3 -O0 -std=c90\0"
 351      4320342E 
 351      392E3320 
 351      2D6D6172 
 351      63683D69 
 352 0035 01       		.byte	0x1
 353 0036 453A5C4E 		.ascii "E:\\NeuOrga\\Programmieren\\c_cpp\\github_os\\input\\src\\os_base\\os_exception.c\0"
 353      65754F72 
 353      67615C50 
 353      726F6772 
 353      616D6D69 
 354 0080 00000000 		.long	Ltext0
 355 0084 04010000 		.long	Letext0-Ltext0
 356 0088 00000000 		.secrel32	Ldebug_line0
 357 008c 00000000 		.secrel32	Ldebug_macro0
 358 0090 02       		.uleb128 0x2
 359 0091 01       		.byte	0x1
 360 0092 08       		.byte	0x8
 361 0093 756E7369 		.ascii "unsigned char\0"
 361      676E6564 
 361      20636861 
 361      7200
 362 00a1 03       		.uleb128 0x3
 363 00a2 75696E74 		.ascii "uint8\0"
 363      3800
 364 00a8 02       		.byte	0x2
 365 00a9 1F       		.byte	0x1f
 366 00aa 90000000 		.long	0x90
 367 00ae 02       		.uleb128 0x2
 368 00af 02       		.byte	0x2
 369 00b0 07       		.byte	0x7
 370 00b1 73686F72 		.ascii "short unsigned int\0"
 370      7420756E 
 370      7369676E 
 370      65642069 
 370      6E7400
 371 00c4 03       		.uleb128 0x3
 372 00c5 75696E74 		.ascii "uint16\0"
 372      313600
GAS LISTING C:\Users\PRESID~1\AppData\Local\Temp\ccWfuJY7.s 			page 10


 373 00cc 02       		.byte	0x2
 374 00cd 21       		.byte	0x21
 375 00ce AE000000 		.long	0xae
 376 00d2 02       		.uleb128 0x2
 377 00d3 04       		.byte	0x4
 378 00d4 07       		.byte	0x7
 379 00d5 6C6F6E67 		.ascii "long unsigned int\0"
 379      20756E73 
 379      69676E65 
 379      6420696E 
 379      7400
 380 00e7 03       		.uleb128 0x3
 381 00e8 75696E74 		.ascii "uint32\0"
 381      333200
 382 00ef 02       		.byte	0x2
 383 00f0 23       		.byte	0x23
 384 00f1 D2000000 		.long	0xd2
 385 00f5 02       		.uleb128 0x2
 386 00f6 04       		.byte	0x4
 387 00f7 07       		.byte	0x7
 388 00f8 756E7369 		.ascii "unsigned int\0"
 388      676E6564 
 388      20696E74 
 388      00
 389 0105 04       		.uleb128 0x4
 390 0106 6F735F72 		.ascii "os_reset_type_s\0"
 390      65736574 
 390      5F747970 
 390      655F7300 
 391 0116 04       		.byte	0x4
 392 0117 04       		.byte	0x4
 393 0118 03       		.byte	0x3
 394 0119 48010000 		.long	0x148
 395 011d 05       		.uleb128 0x5
 396 011e 6F735F72 		.ascii "os_reset_hardreset\0"
 396      65736574 
 396      5F686172 
 396      64726573 
 396      657400
 397 0131 00       		.sleb128 0
 398 0132 05       		.uleb128 0x5
 399 0133 6F735F72 		.ascii "os_reset_powerdown\0"
 399      65736574 
 399      5F706F77 
 399      6572646F 
 399      776E00
 400 0146 01       		.sleb128 1
 401 0147 00       		.byte	0
 402 0148 06       		.uleb128 0x6
 403 0149 4F535F45 		.ascii "OS_Exception_Read_Status_Registers\0"
 403      78636570 
 403      74696F6E 
 403      5F526561 
 403      645F5374 
 404 016c 01       		.byte	0x1
 405 016d 09       		.byte	0x9
 406 016e 00000000 		.long	LFB0
GAS LISTING C:\Users\PRESID~1\AppData\Local\Temp\ccWfuJY7.s 			page 11


 407 0172 63000000 		.long	LFE0-LFB0
 408 0176 01       		.uleb128 0x1
 409 0177 9C       		.byte	0x9c
 410 0178 07       		.uleb128 0x7
 411 0179 4F535F45 		.ascii "OS_Exception_HARDFAULT\0"
 411      78636570 
 411      74696F6E 
 411      5F484152 
 411      44464155 
 412 0190 01       		.byte	0x1
 413 0191 1C       		.byte	0x1c
 414 0192 63000000 		.long	LFB1
 415 0196 0A000000 		.long	LFE1-LFB1
 416 019a 01       		.uleb128 0x1
 417 019b 9C       		.byte	0x9c
 418 019c 07       		.uleb128 0x7
 419 019d 4F535F45 		.ascii "OS_Exception_NMI\0"
 419      78636570 
 419      74696F6E 
 419      5F4E4D49 
 419      00
 420 01ae 01       		.byte	0x1
 421 01af 24       		.byte	0x24
 422 01b0 6D000000 		.long	LFB2
 423 01b4 0A000000 		.long	LFE2-LFB2
 424 01b8 01       		.uleb128 0x1
 425 01b9 9C       		.byte	0x9c
 426 01ba 07       		.uleb128 0x7
 427 01bb 4F535F45 		.ascii "OS_Exception_SWI\0"
 427      78636570 
 427      74696F6E 
 427      5F535749 
 427      00
 428 01cc 01       		.byte	0x1
 429 01cd 2A       		.byte	0x2a
 430 01ce 77000000 		.long	LFB3
 431 01d2 0D000000 		.long	LFE3-LFB3
 432 01d6 01       		.uleb128 0x1
 433 01d7 9C       		.byte	0x9c
 434 01d8 07       		.uleb128 0x7
 435 01d9 4F535F45 		.ascii "OS_Exception_BUS_FAULT\0"
 435      78636570 
 435      74696F6E 
 435      5F425553 
 435      5F464155 
 436 01f0 01       		.byte	0x1
 437 01f1 30       		.byte	0x30
 438 01f2 84000000 		.long	LFB4
 439 01f6 0A000000 		.long	LFE4-LFB4
 440 01fa 01       		.uleb128 0x1
 441 01fb 9C       		.byte	0x9c
 442 01fc 07       		.uleb128 0x7
 443 01fd 4F535F45 		.ascii "OS_Exception_DEBUG\0"
 443      78636570 
 443      74696F6E 
 443      5F444542 
 443      554700
GAS LISTING C:\Users\PRESID~1\AppData\Local\Temp\ccWfuJY7.s 			page 12


 444 0210 01       		.byte	0x1
 445 0211 37       		.byte	0x37
 446 0212 8E000000 		.long	LFB5
 447 0216 0A000000 		.long	LFE5-LFB5
 448 021a 01       		.uleb128 0x1
 449 021b 9C       		.byte	0x9c
 450 021c 07       		.uleb128 0x7
 451 021d 4F535F45 		.ascii "OS_Exception_MEM_MANAG_FAULT\0"
 451      78636570 
 451      74696F6E 
 451      5F4D454D 
 451      5F4D414E 
 452 023a 01       		.byte	0x1
 453 023b 3E       		.byte	0x3e
 454 023c 98000000 		.long	LFB6
 455 0240 0A000000 		.long	LFE6-LFB6
 456 0244 01       		.uleb128 0x1
 457 0245 9C       		.byte	0x9c
 458 0246 07       		.uleb128 0x7
 459 0247 4F535F45 		.ascii "OS_Exception_USAGE_FAULT\0"
 459      78636570 
 459      74696F6E 
 459      5F555341 
 459      47455F46 
 460 0260 01       		.byte	0x1
 461 0261 45       		.byte	0x45
 462 0262 A2000000 		.long	LFB7
 463 0266 0A000000 		.long	LFE7-LFB7
 464 026a 01       		.uleb128 0x1
 465 026b 9C       		.byte	0x9c
 466 026c 08       		.uleb128 0x8
 467 026d 4F535F45 		.ascii "OS_Exception_PendSV\0"
 467      78636570 
 467      74696F6E 
 467      5F50656E 
 467      64535600 
 468 0281 01       		.byte	0x1
 469 0282 4C       		.byte	0x4c
 470 0283 AC000000 		.long	LFB8
 471 0287 05000000 		.long	LFE8-LFB8
 472 028b 01       		.uleb128 0x1
 473 028c 9C       		.byte	0x9c
 474 028d 08       		.uleb128 0x8
 475 028e 4F535F45 		.ascii "OS_Exception_Systick\0"
 475      78636570 
 475      74696F6E 
 475      5F537973 
 475      7469636B 
 476 02a3 01       		.byte	0x1
 477 02a4 52       		.byte	0x52
 478 02a5 B1000000 		.long	LFB9
 479 02a9 05000000 		.long	LFE9-LFB9
 480 02ad 01       		.uleb128 0x1
 481 02ae 9C       		.byte	0x9c
 482 02af 07       		.uleb128 0x7
 483 02b0 4F535F45 		.ascii "OS_Exception_IRQ\0"
 483      78636570 
GAS LISTING C:\Users\PRESID~1\AppData\Local\Temp\ccWfuJY7.s 			page 13


 483      74696F6E 
 483      5F495251 
 483      00
 484 02c1 01       		.byte	0x1
 485 02c2 58       		.byte	0x58
 486 02c3 B6000000 		.long	LFB10
 487 02c7 0D000000 		.long	LFE10-LFB10
 488 02cb 01       		.uleb128 0x1
 489 02cc 9C       		.byte	0x9c
 490 02cd 07       		.uleb128 0x7
 491 02ce 4F535F45 		.ascii "OS_Exception_FIQ\0"
 491      78636570 
 491      74696F6E 
 491      5F464951 
 491      00
 492 02df 01       		.byte	0x1
 493 02e0 5C       		.byte	0x5c
 494 02e1 C3000000 		.long	LFB11
 495 02e5 0D000000 		.long	LFE11-LFB11
 496 02e9 01       		.uleb128 0x1
 497 02ea 9C       		.byte	0x9c
 498 02eb 07       		.uleb128 0x7
 499 02ec 54434D50 		.ascii "TCMP1\0"
 499      3100
 500 02f2 01       		.byte	0x1
 501 02f3 62       		.byte	0x62
 502 02f4 D0000000 		.long	LFB12
 503 02f8 0D000000 		.long	LFE12-LFB12
 504 02fc 01       		.uleb128 0x1
 505 02fd 9C       		.byte	0x9c
 506 02fe 07       		.uleb128 0x7
 507 02ff 54434D50 		.ascii "TCMP2\0"
 507      3200
 508 0305 01       		.byte	0x1
 509 0306 66       		.byte	0x66
 510 0307 DD000000 		.long	LFB13
 511 030b 0D000000 		.long	LFE13-LFB13
 512 030f 01       		.uleb128 0x1
 513 0310 9C       		.byte	0x9c
 514 0311 07       		.uleb128 0x7
 515 0312 54434D50 		.ascii "TCMP3\0"
 515      3300
 516 0318 01       		.byte	0x1
 517 0319 6A       		.byte	0x6a
 518 031a EA000000 		.long	LFB14
 519 031e 0D000000 		.long	LFE14-LFB14
 520 0322 01       		.uleb128 0x1
 521 0323 9C       		.byte	0x9c
 522 0324 07       		.uleb128 0x7
 523 0325 54434D50 		.ascii "TCMP4\0"
 523      3400
 524 032b 01       		.byte	0x1
 525 032c 6E       		.byte	0x6e
 526 032d F7000000 		.long	LFB15
 527 0331 0D000000 		.long	LFE15-LFB15
 528 0335 01       		.uleb128 0x1
 529 0336 9C       		.byte	0x9c
GAS LISTING C:\Users\PRESID~1\AppData\Local\Temp\ccWfuJY7.s 			page 14


 530 0337 09       		.uleb128 0x9
 531 0338 5641525F 		.ascii "VAR_HARDFAULT_STATUS_REG\0"
 531      48415244 
 531      4641554C 
 531      545F5354 
 531      41545553 
 532 0351 03       		.byte	0x3
 533 0352 0E       		.byte	0xe
 534 0353 57030000 		.long	0x357
 535 0357 0A       		.uleb128 0xa
 536 0358 E7000000 		.long	0xe7
 537 035c 09       		.uleb128 0x9
 538 035d 5641525F 		.ascii "VAR_MEM_MANAG_FAULT_STATUS_REG\0"
 538      4D454D5F 
 538      4D414E41 
 538      475F4641 
 538      554C545F 
 539 037c 03       		.byte	0x3
 540 037d 0F       		.byte	0xf
 541 037e 57030000 		.long	0x357
 542 0382 09       		.uleb128 0x9
 543 0383 5641525F 		.ascii "VAR_USAGE_FAULT_STATUS_REG\0"
 543      55534147 
 543      455F4641 
 543      554C545F 
 543      53544154 
 544 039e 03       		.byte	0x3
 545 039f 10       		.byte	0x10
 546 03a0 57030000 		.long	0x357
 547 03a4 09       		.uleb128 0x9
 548 03a5 5641525F 		.ascii "VAR_MEM_FAULT_ADDR_REG\0"
 548      4D454D5F 
 548      4641554C 
 548      545F4144 
 548      44525F52 
 549 03bc 03       		.byte	0x3
 550 03bd 12       		.byte	0x12
 551 03be 57030000 		.long	0x357
 552 03c2 09       		.uleb128 0x9
 553 03c3 5641525F 		.ascii "VAR_BUS_FAULT_ADDR_REG\0"
 553      4255535F 
 553      4641554C 
 553      545F4144 
 553      44525F52 
 554 03da 03       		.byte	0x3
 555 03db 13       		.byte	0x13
 556 03dc 57030000 		.long	0x357
 557 03e0 09       		.uleb128 0x9
 558 03e1 5641525F 		.ascii "VAR_AUX_FAULT_STATUS_REG\0"
 558      4155585F 
 558      4641554C 
 558      545F5354 
 558      41545553 
 559 03fa 03       		.byte	0x3
 560 03fb 14       		.byte	0x14
 561 03fc 57030000 		.long	0x357
 562 0400 09       		.uleb128 0x9
GAS LISTING C:\Users\PRESID~1\AppData\Local\Temp\ccWfuJY7.s 			page 15


 563 0401 5641525F 		.ascii "VAR_BUS_FAULT_STATUS_REG\0"
 563      4255535F 
 563      4641554C 
 563      545F5354 
 563      41545553 
 564 041a 03       		.byte	0x3
 565 041b 15       		.byte	0x15
 566 041c 57030000 		.long	0x357
 567 0420 00       		.byte	0
 568              		.section	.debug_abbrev,"dr"
 569              	Ldebug_abbrev0:
 570 0000 01       		.uleb128 0x1
 571 0001 11       		.uleb128 0x11
 572 0002 01       		.byte	0x1
 573 0003 25       		.uleb128 0x25
 574 0004 08       		.uleb128 0x8
 575 0005 13       		.uleb128 0x13
 576 0006 0B       		.uleb128 0xb
 577 0007 03       		.uleb128 0x3
 578 0008 08       		.uleb128 0x8
 579 0009 11       		.uleb128 0x11
 580 000a 01       		.uleb128 0x1
 581 000b 12       		.uleb128 0x12
 582 000c 06       		.uleb128 0x6
 583 000d 10       		.uleb128 0x10
 584 000e 17       		.uleb128 0x17
 585 000f 9942     		.uleb128 0x2119
 586 0011 17       		.uleb128 0x17
 587 0012 00       		.byte	0
 588 0013 00       		.byte	0
 589 0014 02       		.uleb128 0x2
 590 0015 24       		.uleb128 0x24
 591 0016 00       		.byte	0
 592 0017 0B       		.uleb128 0xb
 593 0018 0B       		.uleb128 0xb
 594 0019 3E       		.uleb128 0x3e
 595 001a 0B       		.uleb128 0xb
 596 001b 03       		.uleb128 0x3
 597 001c 08       		.uleb128 0x8
 598 001d 00       		.byte	0
 599 001e 00       		.byte	0
 600 001f 03       		.uleb128 0x3
 601 0020 16       		.uleb128 0x16
 602 0021 00       		.byte	0
 603 0022 03       		.uleb128 0x3
 604 0023 08       		.uleb128 0x8
 605 0024 3A       		.uleb128 0x3a
 606 0025 0B       		.uleb128 0xb
 607 0026 3B       		.uleb128 0x3b
 608 0027 0B       		.uleb128 0xb
 609 0028 49       		.uleb128 0x49
 610 0029 13       		.uleb128 0x13
 611 002a 00       		.byte	0
 612 002b 00       		.byte	0
 613 002c 04       		.uleb128 0x4
 614 002d 04       		.uleb128 0x4
 615 002e 01       		.byte	0x1
GAS LISTING C:\Users\PRESID~1\AppData\Local\Temp\ccWfuJY7.s 			page 16


 616 002f 03       		.uleb128 0x3
 617 0030 08       		.uleb128 0x8
 618 0031 0B       		.uleb128 0xb
 619 0032 0B       		.uleb128 0xb
 620 0033 3A       		.uleb128 0x3a
 621 0034 0B       		.uleb128 0xb
 622 0035 3B       		.uleb128 0x3b
 623 0036 0B       		.uleb128 0xb
 624 0037 01       		.uleb128 0x1
 625 0038 13       		.uleb128 0x13
 626 0039 00       		.byte	0
 627 003a 00       		.byte	0
 628 003b 05       		.uleb128 0x5
 629 003c 28       		.uleb128 0x28
 630 003d 00       		.byte	0
 631 003e 03       		.uleb128 0x3
 632 003f 08       		.uleb128 0x8
 633 0040 1C       		.uleb128 0x1c
 634 0041 0D       		.uleb128 0xd
 635 0042 00       		.byte	0
 636 0043 00       		.byte	0
 637 0044 06       		.uleb128 0x6
 638 0045 2E       		.uleb128 0x2e
 639 0046 00       		.byte	0
 640 0047 03       		.uleb128 0x3
 641 0048 08       		.uleb128 0x8
 642 0049 3A       		.uleb128 0x3a
 643 004a 0B       		.uleb128 0xb
 644 004b 3B       		.uleb128 0x3b
 645 004c 0B       		.uleb128 0xb
 646 004d 27       		.uleb128 0x27
 647 004e 19       		.uleb128 0x19
 648 004f 11       		.uleb128 0x11
 649 0050 01       		.uleb128 0x1
 650 0051 12       		.uleb128 0x12
 651 0052 06       		.uleb128 0x6
 652 0053 40       		.uleb128 0x40
 653 0054 18       		.uleb128 0x18
 654 0055 9742     		.uleb128 0x2117
 655 0057 19       		.uleb128 0x19
 656 0058 00       		.byte	0
 657 0059 00       		.byte	0
 658 005a 07       		.uleb128 0x7
 659 005b 2E       		.uleb128 0x2e
 660 005c 00       		.byte	0
 661 005d 3F       		.uleb128 0x3f
 662 005e 19       		.uleb128 0x19
 663 005f 03       		.uleb128 0x3
 664 0060 08       		.uleb128 0x8
 665 0061 3A       		.uleb128 0x3a
 666 0062 0B       		.uleb128 0xb
 667 0063 3B       		.uleb128 0x3b
 668 0064 0B       		.uleb128 0xb
 669 0065 27       		.uleb128 0x27
 670 0066 19       		.uleb128 0x19
 671 0067 11       		.uleb128 0x11
 672 0068 01       		.uleb128 0x1
GAS LISTING C:\Users\PRESID~1\AppData\Local\Temp\ccWfuJY7.s 			page 17


 673 0069 12       		.uleb128 0x12
 674 006a 06       		.uleb128 0x6
 675 006b 40       		.uleb128 0x40
 676 006c 18       		.uleb128 0x18
 677 006d 9642     		.uleb128 0x2116
 678 006f 19       		.uleb128 0x19
 679 0070 00       		.byte	0
 680 0071 00       		.byte	0
 681 0072 08       		.uleb128 0x8
 682 0073 2E       		.uleb128 0x2e
 683 0074 00       		.byte	0
 684 0075 3F       		.uleb128 0x3f
 685 0076 19       		.uleb128 0x19
 686 0077 03       		.uleb128 0x3
 687 0078 08       		.uleb128 0x8
 688 0079 3A       		.uleb128 0x3a
 689 007a 0B       		.uleb128 0xb
 690 007b 3B       		.uleb128 0x3b
 691 007c 0B       		.uleb128 0xb
 692 007d 27       		.uleb128 0x27
 693 007e 19       		.uleb128 0x19
 694 007f 11       		.uleb128 0x11
 695 0080 01       		.uleb128 0x1
 696 0081 12       		.uleb128 0x12
 697 0082 06       		.uleb128 0x6
 698 0083 40       		.uleb128 0x40
 699 0084 18       		.uleb128 0x18
 700 0085 9742     		.uleb128 0x2117
 701 0087 19       		.uleb128 0x19
 702 0088 00       		.byte	0
 703 0089 00       		.byte	0
 704 008a 09       		.uleb128 0x9
 705 008b 34       		.uleb128 0x34
 706 008c 00       		.byte	0
 707 008d 03       		.uleb128 0x3
 708 008e 08       		.uleb128 0x8
 709 008f 3A       		.uleb128 0x3a
 710 0090 0B       		.uleb128 0xb
 711 0091 3B       		.uleb128 0x3b
 712 0092 0B       		.uleb128 0xb
 713 0093 49       		.uleb128 0x49
 714 0094 13       		.uleb128 0x13
 715 0095 3F       		.uleb128 0x3f
 716 0096 19       		.uleb128 0x19
 717 0097 3C       		.uleb128 0x3c
 718 0098 19       		.uleb128 0x19
 719 0099 00       		.byte	0
 720 009a 00       		.byte	0
 721 009b 0A       		.uleb128 0xa
 722 009c 35       		.uleb128 0x35
 723 009d 00       		.byte	0
 724 009e 49       		.uleb128 0x49
 725 009f 13       		.uleb128 0x13
 726 00a0 00       		.byte	0
 727 00a1 00       		.byte	0
 728 00a2 00       		.byte	0
 729              		.section	.debug_aranges,"dr"
GAS LISTING C:\Users\PRESID~1\AppData\Local\Temp\ccWfuJY7.s 			page 18


 730 0000 1C000000 		.long	0x1c
 731 0004 0200     		.word	0x2
 732 0006 00000000 		.secrel32	Ldebug_info0
 733 000a 04       		.byte	0x4
 734 000b 00       		.byte	0
 735 000c 0000     		.word	0
 736 000e 0000     		.word	0
 737 0010 00000000 		.long	Ltext0
 738 0014 04010000 		.long	Letext0-Ltext0
 739 0018 00000000 		.long	0
 740 001c 00000000 		.long	0
 741              		.section	.debug_macro,"dr"
 742              	Ldebug_macro0:
 743 0000 0400     		.word	0x4
 744 0002 02       		.byte	0x2
 745 0003 00000000 		.secrel32	Ldebug_line0
 746 0007 01       		.byte	0x1
 747 0008 00       		.uleb128 0
 748 0009 5F5F5354 		.ascii "__STDC__ 1\0"
 748      44435F5F 
 748      203100
 749 0014 01       		.byte	0x1
 750 0015 00       		.uleb128 0
 751 0016 5F5F5354 		.ascii "__STDC_HOSTED__ 1\0"
 751      44435F48 
 751      4F535445 
 751      445F5F20 
 751      3100
 752 0028 01       		.byte	0x1
 753 0029 00       		.uleb128 0
 754 002a 5F5F474E 		.ascii "__GNUC__ 4\0"
 754      55435F5F 
 754      203400
 755 0035 01       		.byte	0x1
 756 0036 00       		.uleb128 0
 757 0037 5F5F474E 		.ascii "__GNUC_MINOR__ 9\0"
 757      55435F4D 
 757      494E4F52 
 757      5F5F2039 
 757      00
 758 0048 01       		.byte	0x1
 759 0049 00       		.uleb128 0
 760 004a 5F5F474E 		.ascii "__GNUC_PATCHLEVEL__ 3\0"
 760      55435F50 
 760      41544348 
 760      4C455645 
 760      4C5F5F20 
 761 0060 01       		.byte	0x1
 762 0061 00       		.uleb128 0
 763 0062 5F5F5645 		.ascii "__VERSION__ \"4.9.3\"\0"
 763      5253494F 
 763      4E5F5F20 
 763      22342E39 
 763      2E332200 
 764 0076 01       		.byte	0x1
 765 0077 00       		.uleb128 0
 766 0078 5F5F4154 		.ascii "__ATOMIC_RELAXED 0\0"
GAS LISTING C:\Users\PRESID~1\AppData\Local\Temp\ccWfuJY7.s 			page 19


 766      4F4D4943 
 766      5F52454C 
 766      41584544 
 766      203000
 767 008b 01       		.byte	0x1
 768 008c 00       		.uleb128 0
 769 008d 5F5F4154 		.ascii "__ATOMIC_SEQ_CST 5\0"
 769      4F4D4943 
 769      5F534551 
 769      5F435354 
 769      203500
 770 00a0 01       		.byte	0x1
 771 00a1 00       		.uleb128 0
 772 00a2 5F5F4154 		.ascii "__ATOMIC_ACQUIRE 2\0"
 772      4F4D4943 
 772      5F414351 
 772      55495245 
 772      203200
 773 00b5 01       		.byte	0x1
 774 00b6 00       		.uleb128 0
 775 00b7 5F5F4154 		.ascii "__ATOMIC_RELEASE 3\0"
 775      4F4D4943 
 775      5F52454C 
 775      45415345 
 775      203300
 776 00ca 01       		.byte	0x1
 777 00cb 00       		.uleb128 0
 778 00cc 5F5F4154 		.ascii "__ATOMIC_ACQ_REL 4\0"
 778      4F4D4943 
 778      5F414351 
 778      5F52454C 
 778      203400
 779 00df 01       		.byte	0x1
 780 00e0 00       		.uleb128 0
 781 00e1 5F5F4154 		.ascii "__ATOMIC_CONSUME 1\0"
 781      4F4D4943 
 781      5F434F4E 
 781      53554D45 
 781      203100
 782 00f4 01       		.byte	0x1
 783 00f5 00       		.uleb128 0
 784 00f6 5F5F4649 		.ascii "__FINITE_MATH_ONLY__ 0\0"
 784      4E495445 
 784      5F4D4154 
 784      485F4F4E 
 784      4C595F5F 
 785 010d 01       		.byte	0x1
 786 010e 00       		.uleb128 0
 787 010f 5F5F5349 		.ascii "__SIZEOF_INT__ 4\0"
 787      5A454F46 
 787      5F494E54 
 787      5F5F2034 
 787      00
 788 0120 01       		.byte	0x1
 789 0121 00       		.uleb128 0
 790 0122 5F5F5349 		.ascii "__SIZEOF_LONG__ 4\0"
 790      5A454F46 
GAS LISTING C:\Users\PRESID~1\AppData\Local\Temp\ccWfuJY7.s 			page 20


 790      5F4C4F4E 
 790      475F5F20 
 790      3400
 791 0134 01       		.byte	0x1
 792 0135 00       		.uleb128 0
 793 0136 5F5F5349 		.ascii "__SIZEOF_LONG_LONG__ 8\0"
 793      5A454F46 
 793      5F4C4F4E 
 793      475F4C4F 
 793      4E475F5F 
 794 014d 01       		.byte	0x1
 795 014e 00       		.uleb128 0
 796 014f 5F5F5349 		.ascii "__SIZEOF_SHORT__ 2\0"
 796      5A454F46 
 796      5F53484F 
 796      52545F5F 
 796      203200
 797 0162 01       		.byte	0x1
 798 0163 00       		.uleb128 0
 799 0164 5F5F5349 		.ascii "__SIZEOF_FLOAT__ 4\0"
 799      5A454F46 
 799      5F464C4F 
 799      41545F5F 
 799      203400
 800 0177 01       		.byte	0x1
 801 0178 00       		.uleb128 0
 802 0179 5F5F5349 		.ascii "__SIZEOF_DOUBLE__ 8\0"
 802      5A454F46 
 802      5F444F55 
 802      424C455F 
 802      5F203800 
 803 018d 01       		.byte	0x1
 804 018e 00       		.uleb128 0
 805 018f 5F5F5349 		.ascii "__SIZEOF_LONG_DOUBLE__ 12\0"
 805      5A454F46 
 805      5F4C4F4E 
 805      475F444F 
 805      55424C45 
 806 01a9 01       		.byte	0x1
 807 01aa 00       		.uleb128 0
 808 01ab 5F5F5349 		.ascii "__SIZEOF_SIZE_T__ 4\0"
 808      5A454F46 
 808      5F53495A 
 808      455F545F 
 808      5F203400 
 809 01bf 01       		.byte	0x1
 810 01c0 00       		.uleb128 0
 811 01c1 5F5F4348 		.ascii "__CHAR_BIT__ 8\0"
 811      41525F42 
 811      49545F5F 
 811      203800
 812 01d0 01       		.byte	0x1
 813 01d1 00       		.uleb128 0
 814 01d2 5F5F4249 		.ascii "__BIGGEST_ALIGNMENT__ 16\0"
 814      47474553 
 814      545F414C 
 814      49474E4D 
GAS LISTING C:\Users\PRESID~1\AppData\Local\Temp\ccWfuJY7.s 			page 21


 814      454E545F 
 815 01eb 01       		.byte	0x1
 816 01ec 00       		.uleb128 0
 817 01ed 5F5F4F52 		.ascii "__ORDER_LITTLE_ENDIAN__ 1234\0"
 817      4445525F 
 817      4C495454 
 817      4C455F45 
 817      4E444941 
 818 020a 01       		.byte	0x1
 819 020b 00       		.uleb128 0
 820 020c 5F5F4F52 		.ascii "__ORDER_BIG_ENDIAN__ 4321\0"
 820      4445525F 
 820      4249475F 
 820      454E4449 
 820      414E5F5F 
 821 0226 01       		.byte	0x1
 822 0227 00       		.uleb128 0
 823 0228 5F5F4F52 		.ascii "__ORDER_PDP_ENDIAN__ 3412\0"
 823      4445525F 
 823      5044505F 
 823      454E4449 
 823      414E5F5F 
 824 0242 01       		.byte	0x1
 825 0243 00       		.uleb128 0
 826 0244 5F5F4259 		.ascii "__BYTE_ORDER__ __ORDER_LITTLE_ENDIAN__\0"
 826      54455F4F 
 826      52444552 
 826      5F5F205F 
 826      5F4F5244 
 827 026b 01       		.byte	0x1
 828 026c 00       		.uleb128 0
 829 026d 5F5F464C 		.ascii "__FLOAT_WORD_ORDER__ __ORDER_LITTLE_ENDIAN__\0"
 829      4F41545F 
 829      574F5244 
 829      5F4F5244 
 829      45525F5F 
 830 029a 01       		.byte	0x1
 831 029b 00       		.uleb128 0
 832 029c 5F5F5349 		.ascii "__SIZEOF_POINTER__ 4\0"
 832      5A454F46 
 832      5F504F49 
 832      4E544552 
 832      5F5F2034 
 833 02b1 01       		.byte	0x1
 834 02b2 00       		.uleb128 0
 835 02b3 5F5F5349 		.ascii "__SIZE_TYPE__ unsigned int\0"
 835      5A455F54 
 835      5950455F 
 835      5F20756E 
 835      7369676E 
 836 02ce 01       		.byte	0x1
 837 02cf 00       		.uleb128 0
 838 02d0 5F5F5054 		.ascii "__PTRDIFF_TYPE__ int\0"
 838      52444946 
 838      465F5459 
 838      50455F5F 
 838      20696E74 
GAS LISTING C:\Users\PRESID~1\AppData\Local\Temp\ccWfuJY7.s 			page 22


 839 02e5 01       		.byte	0x1
 840 02e6 00       		.uleb128 0
 841 02e7 5F5F5743 		.ascii "__WCHAR_TYPE__ short unsigned int\0"
 841      4841525F 
 841      54595045 
 841      5F5F2073 
 841      686F7274 
 842 0309 01       		.byte	0x1
 843 030a 00       		.uleb128 0
 844 030b 5F5F5749 		.ascii "__WINT_TYPE__ short unsigned int\0"
 844      4E545F54 
 844      5950455F 
 844      5F207368 
 844      6F727420 
 845 032c 01       		.byte	0x1
 846 032d 00       		.uleb128 0
 847 032e 5F5F494E 		.ascii "__INTMAX_TYPE__ long long int\0"
 847      544D4158 
 847      5F545950 
 847      455F5F20 
 847      6C6F6E67 
 848 034c 01       		.byte	0x1
 849 034d 00       		.uleb128 0
 850 034e 5F5F5549 		.ascii "__UINTMAX_TYPE__ long long unsigned int\0"
 850      4E544D41 
 850      585F5459 
 850      50455F5F 
 850      206C6F6E 
 851 0376 01       		.byte	0x1
 852 0377 00       		.uleb128 0
 853 0378 5F5F4348 		.ascii "__CHAR16_TYPE__ short unsigned int\0"
 853      41523136 
 853      5F545950 
 853      455F5F20 
 853      73686F72 
 854 039b 01       		.byte	0x1
 855 039c 00       		.uleb128 0
 856 039d 5F5F4348 		.ascii "__CHAR32_TYPE__ unsigned int\0"
 856      41523332 
 856      5F545950 
 856      455F5F20 
 856      756E7369 
 857 03ba 01       		.byte	0x1
 858 03bb 00       		.uleb128 0
 859 03bc 5F5F5349 		.ascii "__SIG_ATOMIC_TYPE__ int\0"
 859      475F4154 
 859      4F4D4943 
 859      5F545950 
 859      455F5F20 
 860 03d4 01       		.byte	0x1
 861 03d5 00       		.uleb128 0
 862 03d6 5F5F494E 		.ascii "__INT8_TYPE__ signed char\0"
 862      54385F54 
 862      5950455F 
 862      5F207369 
 862      676E6564 
 863 03f0 01       		.byte	0x1
GAS LISTING C:\Users\PRESID~1\AppData\Local\Temp\ccWfuJY7.s 			page 23


 864 03f1 00       		.uleb128 0
 865 03f2 5F5F494E 		.ascii "__INT16_TYPE__ short int\0"
 865      5431365F 
 865      54595045 
 865      5F5F2073 
 865      686F7274 
 866 040b 01       		.byte	0x1
 867 040c 00       		.uleb128 0
 868 040d 5F5F494E 		.ascii "__INT32_TYPE__ int\0"
 868      5433325F 
 868      54595045 
 868      5F5F2069 
 868      6E7400
 869 0420 01       		.byte	0x1
 870 0421 00       		.uleb128 0
 871 0422 5F5F494E 		.ascii "__INT64_TYPE__ long long int\0"
 871      5436345F 
 871      54595045 
 871      5F5F206C 
 871      6F6E6720 
 872 043f 01       		.byte	0x1
 873 0440 00       		.uleb128 0
 874 0441 5F5F5549 		.ascii "__UINT8_TYPE__ unsigned char\0"
 874      4E54385F 
 874      54595045 
 874      5F5F2075 
 874      6E736967 
 875 045e 01       		.byte	0x1
 876 045f 00       		.uleb128 0
 877 0460 5F5F5549 		.ascii "__UINT16_TYPE__ short unsigned int\0"
 877      4E543136 
 877      5F545950 
 877      455F5F20 
 877      73686F72 
 878 0483 01       		.byte	0x1
 879 0484 00       		.uleb128 0
 880 0485 5F5F5549 		.ascii "__UINT32_TYPE__ unsigned int\0"
 880      4E543332 
 880      5F545950 
 880      455F5F20 
 880      756E7369 
 881 04a2 01       		.byte	0x1
 882 04a3 00       		.uleb128 0
 883 04a4 5F5F5549 		.ascii "__UINT64_TYPE__ long long unsigned int\0"
 883      4E543634 
 883      5F545950 
 883      455F5F20 
 883      6C6F6E67 
 884 04cb 01       		.byte	0x1
 885 04cc 00       		.uleb128 0
 886 04cd 5F5F494E 		.ascii "__INT_LEAST8_TYPE__ signed char\0"
 886      545F4C45 
 886      41535438 
 886      5F545950 
 886      455F5F20 
 887 04ed 01       		.byte	0x1
 888 04ee 00       		.uleb128 0
GAS LISTING C:\Users\PRESID~1\AppData\Local\Temp\ccWfuJY7.s 			page 24


 889 04ef 5F5F494E 		.ascii "__INT_LEAST16_TYPE__ short int\0"
 889      545F4C45 
 889      41535431 
 889      365F5459 
 889      50455F5F 
 890 050e 01       		.byte	0x1
 891 050f 00       		.uleb128 0
 892 0510 5F5F494E 		.ascii "__INT_LEAST32_TYPE__ int\0"
 892      545F4C45 
 892      41535433 
 892      325F5459 
 892      50455F5F 
 893 0529 01       		.byte	0x1
 894 052a 00       		.uleb128 0
 895 052b 5F5F494E 		.ascii "__INT_LEAST64_TYPE__ long long int\0"
 895      545F4C45 
 895      41535436 
 895      345F5459 
 895      50455F5F 
 896 054e 01       		.byte	0x1
 897 054f 00       		.uleb128 0
 898 0550 5F5F5549 		.ascii "__UINT_LEAST8_TYPE__ unsigned char\0"
 898      4E545F4C 
 898      45415354 
 898      385F5459 
 898      50455F5F 
 899 0573 01       		.byte	0x1
 900 0574 00       		.uleb128 0
 901 0575 5F5F5549 		.ascii "__UINT_LEAST16_TYPE__ short unsigned int\0"
 901      4E545F4C 
 901      45415354 
 901      31365F54 
 901      5950455F 
 902 059e 01       		.byte	0x1
 903 059f 00       		.uleb128 0
 904 05a0 5F5F5549 		.ascii "__UINT_LEAST32_TYPE__ unsigned int\0"
 904      4E545F4C 
 904      45415354 
 904      33325F54 
 904      5950455F 
 905 05c3 01       		.byte	0x1
 906 05c4 00       		.uleb128 0
 907 05c5 5F5F5549 		.ascii "__UINT_LEAST64_TYPE__ long long unsigned int\0"
 907      4E545F4C 
 907      45415354 
 907      36345F54 
 907      5950455F 
 908 05f2 01       		.byte	0x1
 909 05f3 00       		.uleb128 0
 910 05f4 5F5F494E 		.ascii "__INT_FAST8_TYPE__ signed char\0"
 910      545F4641 
 910      5354385F 
 910      54595045 
 910      5F5F2073 
 911 0613 01       		.byte	0x1
 912 0614 00       		.uleb128 0
 913 0615 5F5F494E 		.ascii "__INT_FAST16_TYPE__ short int\0"
GAS LISTING C:\Users\PRESID~1\AppData\Local\Temp\ccWfuJY7.s 			page 25


 913      545F4641 
 913      53543136 
 913      5F545950 
 913      455F5F20 
 914 0633 01       		.byte	0x1
 915 0634 00       		.uleb128 0
 916 0635 5F5F494E 		.ascii "__INT_FAST32_TYPE__ int\0"
 916      545F4641 
 916      53543332 
 916      5F545950 
 916      455F5F20 
 917 064d 01       		.byte	0x1
 918 064e 00       		.uleb128 0
 919 064f 5F5F494E 		.ascii "__INT_FAST64_TYPE__ long long int\0"
 919      545F4641 
 919      53543634 
 919      5F545950 
 919      455F5F20 
 920 0671 01       		.byte	0x1
 921 0672 00       		.uleb128 0
 922 0673 5F5F5549 		.ascii "__UINT_FAST8_TYPE__ unsigned char\0"
 922      4E545F46 
 922      41535438 
 922      5F545950 
 922      455F5F20 
 923 0695 01       		.byte	0x1
 924 0696 00       		.uleb128 0
 925 0697 5F5F5549 		.ascii "__UINT_FAST16_TYPE__ short unsigned int\0"
 925      4E545F46 
 925      41535431 
 925      365F5459 
 925      50455F5F 
 926 06bf 01       		.byte	0x1
 927 06c0 00       		.uleb128 0
 928 06c1 5F5F5549 		.ascii "__UINT_FAST32_TYPE__ unsigned int\0"
 928      4E545F46 
 928      41535433 
 928      325F5459 
 928      50455F5F 
 929 06e3 01       		.byte	0x1
 930 06e4 00       		.uleb128 0
 931 06e5 5F5F5549 		.ascii "__UINT_FAST64_TYPE__ long long unsigned int\0"
 931      4E545F46 
 931      41535436 
 931      345F5459 
 931      50455F5F 
 932 0711 01       		.byte	0x1
 933 0712 00       		.uleb128 0
 934 0713 5F5F494E 		.ascii "__INTPTR_TYPE__ int\0"
 934      54505452 
 934      5F545950 
 934      455F5F20 
 934      696E7400 
 935 0727 01       		.byte	0x1
 936 0728 00       		.uleb128 0
 937 0729 5F5F5549 		.ascii "__UINTPTR_TYPE__ unsigned int\0"
 937      4E545054 
GAS LISTING C:\Users\PRESID~1\AppData\Local\Temp\ccWfuJY7.s 			page 26


 937      525F5459 
 937      50455F5F 
 937      20756E73 
 938 0747 01       		.byte	0x1
 939 0748 00       		.uleb128 0
 940 0749 5F5F6861 		.ascii "__has_include(STR) __has_include__(STR)\0"
 940      735F696E 
 940      636C7564 
 940      65285354 
 940      5229205F 
 941 0771 01       		.byte	0x1
 942 0772 00       		.uleb128 0
 943 0773 5F5F6861 		.ascii "__has_include_next(STR) __has_include_next__(STR)\0"
 943      735F696E 
 943      636C7564 
 943      655F6E65 
 943      78742853 
 944 07a5 01       		.byte	0x1
 945 07a6 00       		.uleb128 0
 946 07a7 5F5F4758 		.ascii "__GXX_ABI_VERSION 1002\0"
 946      585F4142 
 946      495F5645 
 946      5253494F 
 946      4E203130 
 947 07be 01       		.byte	0x1
 948 07bf 00       		.uleb128 0
 949 07c0 5F5F5343 		.ascii "__SCHAR_MAX__ 127\0"
 949      4841525F 
 949      4D41585F 
 949      5F203132 
 949      3700
 950 07d2 01       		.byte	0x1
 951 07d3 00       		.uleb128 0
 952 07d4 5F5F5348 		.ascii "__SHRT_MAX__ 32767\0"
 952      52545F4D 
 952      41585F5F 
 952      20333237 
 952      363700
 953 07e7 01       		.byte	0x1
 954 07e8 00       		.uleb128 0
 955 07e9 5F5F494E 		.ascii "__INT_MAX__ 2147483647\0"
 955      545F4D41 
 955      585F5F20 
 955      32313437 
 955      34383336 
 956 0800 01       		.byte	0x1
 957 0801 00       		.uleb128 0
 958 0802 5F5F4C4F 		.ascii "__LONG_MAX__ 2147483647L\0"
 958      4E475F4D 
 958      41585F5F 
 958      20323134 
 958      37343833 
 959 081b 01       		.byte	0x1
 960 081c 00       		.uleb128 0
 961 081d 5F5F4C4F 		.ascii "__LONG_LONG_MAX__ 9223372036854775807LL\0"
 961      4E475F4C 
 961      4F4E475F 
GAS LISTING C:\Users\PRESID~1\AppData\Local\Temp\ccWfuJY7.s 			page 27


 961      4D41585F 
 961      5F203932 
 962 0845 01       		.byte	0x1
 963 0846 00       		.uleb128 0
 964 0847 5F5F5743 		.ascii "__WCHAR_MAX__ 65535\0"
 964      4841525F 
 964      4D41585F 
 964      5F203635 
 964      35333500 
 965 085b 01       		.byte	0x1
 966 085c 00       		.uleb128 0
 967 085d 5F5F5743 		.ascii "__WCHAR_MIN__ 0\0"
 967      4841525F 
 967      4D494E5F 
 967      5F203000 
 968 086d 01       		.byte	0x1
 969 086e 00       		.uleb128 0
 970 086f 5F5F5749 		.ascii "__WINT_MAX__ 65535\0"
 970      4E545F4D 
 970      41585F5F 
 970      20363535 
 970      333500
 971 0882 01       		.byte	0x1
 972 0883 00       		.uleb128 0
 973 0884 5F5F5749 		.ascii "__WINT_MIN__ 0\0"
 973      4E545F4D 
 973      494E5F5F 
 973      203000
 974 0893 01       		.byte	0x1
 975 0894 00       		.uleb128 0
 976 0895 5F5F5054 		.ascii "__PTRDIFF_MAX__ 2147483647\0"
 976      52444946 
 976      465F4D41 
 976      585F5F20 
 976      32313437 
 977 08b0 01       		.byte	0x1
 978 08b1 00       		.uleb128 0
 979 08b2 5F5F5349 		.ascii "__SIZE_MAX__ 4294967295U\0"
 979      5A455F4D 
 979      41585F5F 
 979      20343239 
 979      34393637 
 980 08cb 01       		.byte	0x1
 981 08cc 00       		.uleb128 0
 982 08cd 5F5F494E 		.ascii "__INTMAX_MAX__ 9223372036854775807LL\0"
 982      544D4158 
 982      5F4D4158 
 982      5F5F2039 
 982      32323333 
 983 08f2 01       		.byte	0x1
 984 08f3 00       		.uleb128 0
 985 08f4 5F5F494E 		.ascii "__INTMAX_C(c) c ## LL\0"
 985      544D4158 
 985      5F432863 
 985      29206320 
 985      2323204C 
 986 090a 01       		.byte	0x1
GAS LISTING C:\Users\PRESID~1\AppData\Local\Temp\ccWfuJY7.s 			page 28


 987 090b 00       		.uleb128 0
 988 090c 5F5F5549 		.ascii "__UINTMAX_MAX__ 18446744073709551615ULL\0"
 988      4E544D41 
 988      585F4D41 
 988      585F5F20 
 988      31383434 
 989 0934 01       		.byte	0x1
 990 0935 00       		.uleb128 0
 991 0936 5F5F5549 		.ascii "__UINTMAX_C(c) c ## ULL\0"
 991      4E544D41 
 991      585F4328 
 991      63292063 
 991      20232320 
 992 094e 01       		.byte	0x1
 993 094f 00       		.uleb128 0
 994 0950 5F5F5349 		.ascii "__SIG_ATOMIC_MAX__ 2147483647\0"
 994      475F4154 
 994      4F4D4943 
 994      5F4D4158 
 994      5F5F2032 
 995 096e 01       		.byte	0x1
 996 096f 00       		.uleb128 0
 997 0970 5F5F5349 		.ascii "__SIG_ATOMIC_MIN__ (-__SIG_ATOMIC_MAX__ - 1)\0"
 997      475F4154 
 997      4F4D4943 
 997      5F4D494E 
 997      5F5F2028 
 998 099d 01       		.byte	0x1
 999 099e 00       		.uleb128 0
 1000 099f 5F5F494E 		.ascii "__INT8_MAX__ 127\0"
 1000      54385F4D 
 1000      41585F5F 
 1000      20313237 
 1000      00
 1001 09b0 01       		.byte	0x1
 1002 09b1 00       		.uleb128 0
 1003 09b2 5F5F494E 		.ascii "__INT16_MAX__ 32767\0"
 1003      5431365F 
 1003      4D41585F 
 1003      5F203332 
 1003      37363700 
 1004 09c6 01       		.byte	0x1
 1005 09c7 00       		.uleb128 0
 1006 09c8 5F5F494E 		.ascii "__INT32_MAX__ 2147483647\0"
 1006      5433325F 
 1006      4D41585F 
 1006      5F203231 
 1006      34373438 
 1007 09e1 01       		.byte	0x1
 1008 09e2 00       		.uleb128 0
 1009 09e3 5F5F494E 		.ascii "__INT64_MAX__ 9223372036854775807LL\0"
 1009      5436345F 
 1009      4D41585F 
 1009      5F203932 
 1009      32333337 
 1010 0a07 01       		.byte	0x1
 1011 0a08 00       		.uleb128 0
GAS LISTING C:\Users\PRESID~1\AppData\Local\Temp\ccWfuJY7.s 			page 29


 1012 0a09 5F5F5549 		.ascii "__UINT8_MAX__ 255\0"
 1012      4E54385F 
 1012      4D41585F 
 1012      5F203235 
 1012      3500
 1013 0a1b 01       		.byte	0x1
 1014 0a1c 00       		.uleb128 0
 1015 0a1d 5F5F5549 		.ascii "__UINT16_MAX__ 65535\0"
 1015      4E543136 
 1015      5F4D4158 
 1015      5F5F2036 
 1015      35353335 
 1016 0a32 01       		.byte	0x1
 1017 0a33 00       		.uleb128 0
 1018 0a34 5F5F5549 		.ascii "__UINT32_MAX__ 4294967295U\0"
 1018      4E543332 
 1018      5F4D4158 
 1018      5F5F2034 
 1018      32393439 
 1019 0a4f 01       		.byte	0x1
 1020 0a50 00       		.uleb128 0
 1021 0a51 5F5F5549 		.ascii "__UINT64_MAX__ 18446744073709551615ULL\0"
 1021      4E543634 
 1021      5F4D4158 
 1021      5F5F2031 
 1021      38343436 
 1022 0a78 01       		.byte	0x1
 1023 0a79 00       		.uleb128 0
 1024 0a7a 5F5F494E 		.ascii "__INT_LEAST8_MAX__ 127\0"
 1024      545F4C45 
 1024      41535438 
 1024      5F4D4158 
 1024      5F5F2031 
 1025 0a91 01       		.byte	0x1
 1026 0a92 00       		.uleb128 0
 1027 0a93 5F5F494E 		.ascii "__INT8_C(c) c\0"
 1027      54385F43 
 1027      28632920 
 1027      6300
 1028 0aa1 01       		.byte	0x1
 1029 0aa2 00       		.uleb128 0
 1030 0aa3 5F5F494E 		.ascii "__INT_LEAST16_MAX__ 32767\0"
 1030      545F4C45 
 1030      41535431 
 1030      365F4D41 
 1030      585F5F20 
 1031 0abd 01       		.byte	0x1
 1032 0abe 00       		.uleb128 0
 1033 0abf 5F5F494E 		.ascii "__INT16_C(c) c\0"
 1033      5431365F 
 1033      43286329 
 1033      206300
 1034 0ace 01       		.byte	0x1
 1035 0acf 00       		.uleb128 0
 1036 0ad0 5F5F494E 		.ascii "__INT_LEAST32_MAX__ 2147483647\0"
 1036      545F4C45 
 1036      41535433 
GAS LISTING C:\Users\PRESID~1\AppData\Local\Temp\ccWfuJY7.s 			page 30


 1036      325F4D41 
 1036      585F5F20 
 1037 0aef 01       		.byte	0x1
 1038 0af0 00       		.uleb128 0
 1039 0af1 5F5F494E 		.ascii "__INT32_C(c) c\0"
 1039      5433325F 
 1039      43286329 
 1039      206300
 1040 0b00 01       		.byte	0x1
 1041 0b01 00       		.uleb128 0
 1042 0b02 5F5F494E 		.ascii "__INT_LEAST64_MAX__ 9223372036854775807LL\0"
 1042      545F4C45 
 1042      41535436 
 1042      345F4D41 
 1042      585F5F20 
 1043 0b2c 01       		.byte	0x1
 1044 0b2d 00       		.uleb128 0
 1045 0b2e 5F5F494E 		.ascii "__INT64_C(c) c ## LL\0"
 1045      5436345F 
 1045      43286329 
 1045      20632023 
 1045      23204C4C 
 1046 0b43 01       		.byte	0x1
 1047 0b44 00       		.uleb128 0
 1048 0b45 5F5F5549 		.ascii "__UINT_LEAST8_MAX__ 255\0"
 1048      4E545F4C 
 1048      45415354 
 1048      385F4D41 
 1048      585F5F20 
 1049 0b5d 01       		.byte	0x1
 1050 0b5e 00       		.uleb128 0
 1051 0b5f 5F5F5549 		.ascii "__UINT8_C(c) c\0"
 1051      4E54385F 
 1051      43286329 
 1051      206300
 1052 0b6e 01       		.byte	0x1
 1053 0b6f 00       		.uleb128 0
 1054 0b70 5F5F5549 		.ascii "__UINT_LEAST16_MAX__ 65535\0"
 1054      4E545F4C 
 1054      45415354 
 1054      31365F4D 
 1054      41585F5F 
 1055 0b8b 01       		.byte	0x1
 1056 0b8c 00       		.uleb128 0
 1057 0b8d 5F5F5549 		.ascii "__UINT16_C(c) c\0"
 1057      4E543136 
 1057      5F432863 
 1057      29206300 
 1058 0b9d 01       		.byte	0x1
 1059 0b9e 00       		.uleb128 0
 1060 0b9f 5F5F5549 		.ascii "__UINT_LEAST32_MAX__ 4294967295U\0"
 1060      4E545F4C 
 1060      45415354 
 1060      33325F4D 
 1060      41585F5F 
 1061 0bc0 01       		.byte	0x1
 1062 0bc1 00       		.uleb128 0
GAS LISTING C:\Users\PRESID~1\AppData\Local\Temp\ccWfuJY7.s 			page 31


 1063 0bc2 5F5F5549 		.ascii "__UINT32_C(c) c ## U\0"
 1063      4E543332 
 1063      5F432863 
 1063      29206320 
 1063      23232055 
 1064 0bd7 01       		.byte	0x1
 1065 0bd8 00       		.uleb128 0
 1066 0bd9 5F5F5549 		.ascii "__UINT_LEAST64_MAX__ 18446744073709551615ULL\0"
 1066      4E545F4C 
 1066      45415354 
 1066      36345F4D 
 1066      41585F5F 
 1067 0c06 01       		.byte	0x1
 1068 0c07 00       		.uleb128 0
 1069 0c08 5F5F5549 		.ascii "__UINT64_C(c) c ## ULL\0"
 1069      4E543634 
 1069      5F432863 
 1069      29206320 
 1069      23232055 
 1070 0c1f 01       		.byte	0x1
 1071 0c20 00       		.uleb128 0
 1072 0c21 5F5F494E 		.ascii "__INT_FAST8_MAX__ 127\0"
 1072      545F4641 
 1072      5354385F 
 1072      4D41585F 
 1072      5F203132 
 1073 0c37 01       		.byte	0x1
 1074 0c38 00       		.uleb128 0
 1075 0c39 5F5F494E 		.ascii "__INT_FAST16_MAX__ 32767\0"
 1075      545F4641 
 1075      53543136 
 1075      5F4D4158 
 1075      5F5F2033 
 1076 0c52 01       		.byte	0x1
 1077 0c53 00       		.uleb128 0
 1078 0c54 5F5F494E 		.ascii "__INT_FAST32_MAX__ 2147483647\0"
 1078      545F4641 
 1078      53543332 
 1078      5F4D4158 
 1078      5F5F2032 
 1079 0c72 01       		.byte	0x1
 1080 0c73 00       		.uleb128 0
 1081 0c74 5F5F494E 		.ascii "__INT_FAST64_MAX__ 9223372036854775807LL\0"
 1081      545F4641 
 1081      53543634 
 1081      5F4D4158 
 1081      5F5F2039 
 1082 0c9d 01       		.byte	0x1
 1083 0c9e 00       		.uleb128 0
 1084 0c9f 5F5F5549 		.ascii "__UINT_FAST8_MAX__ 255\0"
 1084      4E545F46 
 1084      41535438 
 1084      5F4D4158 
 1084      5F5F2032 
 1085 0cb6 01       		.byte	0x1
 1086 0cb7 00       		.uleb128 0
 1087 0cb8 5F5F5549 		.ascii "__UINT_FAST16_MAX__ 65535\0"
GAS LISTING C:\Users\PRESID~1\AppData\Local\Temp\ccWfuJY7.s 			page 32


 1087      4E545F46 
 1087      41535431 
 1087      365F4D41 
 1087      585F5F20 
 1088 0cd2 01       		.byte	0x1
 1089 0cd3 00       		.uleb128 0
 1090 0cd4 5F5F5549 		.ascii "__UINT_FAST32_MAX__ 4294967295U\0"
 1090      4E545F46 
 1090      41535433 
 1090      325F4D41 
 1090      585F5F20 
 1091 0cf4 01       		.byte	0x1
 1092 0cf5 00       		.uleb128 0
 1093 0cf6 5F5F5549 		.ascii "__UINT_FAST64_MAX__ 18446744073709551615ULL\0"
 1093      4E545F46 
 1093      41535436 
 1093      345F4D41 
 1093      585F5F20 
 1094 0d22 01       		.byte	0x1
 1095 0d23 00       		.uleb128 0
 1096 0d24 5F5F494E 		.ascii "__INTPTR_MAX__ 2147483647\0"
 1096      54505452 
 1096      5F4D4158 
 1096      5F5F2032 
 1096      31343734 
 1097 0d3e 01       		.byte	0x1
 1098 0d3f 00       		.uleb128 0
 1099 0d40 5F5F5549 		.ascii "__UINTPTR_MAX__ 4294967295U\0"
 1099      4E545054 
 1099      525F4D41 
 1099      585F5F20 
 1099      34323934 
 1100 0d5c 01       		.byte	0x1
 1101 0d5d 00       		.uleb128 0
 1102 0d5e 5F5F4743 		.ascii "__GCC_IEC_559 2\0"
 1102      435F4945 
 1102      435F3535 
 1102      39203200 
 1103 0d6e 01       		.byte	0x1
 1104 0d6f 00       		.uleb128 0
 1105 0d70 5F5F4743 		.ascii "__GCC_IEC_559_COMPLEX 2\0"
 1105      435F4945 
 1105      435F3535 
 1105      395F434F 
 1105      4D504C45 
 1106 0d88 01       		.byte	0x1
 1107 0d89 00       		.uleb128 0
 1108 0d8a 5F5F464C 		.ascii "__FLT_EVAL_METHOD__ 2\0"
 1108      545F4556 
 1108      414C5F4D 
 1108      4554484F 
 1108      445F5F20 
 1109 0da0 01       		.byte	0x1
 1110 0da1 00       		.uleb128 0
 1111 0da2 5F5F4445 		.ascii "__DEC_EVAL_METHOD__ 2\0"
 1111      435F4556 
 1111      414C5F4D 
GAS LISTING C:\Users\PRESID~1\AppData\Local\Temp\ccWfuJY7.s 			page 33


 1111      4554484F 
 1111      445F5F20 
 1112 0db8 01       		.byte	0x1
 1113 0db9 00       		.uleb128 0
 1114 0dba 5F5F464C 		.ascii "__FLT_RADIX__ 2\0"
 1114      545F5241 
 1114      4449585F 
 1114      5F203200 
 1115 0dca 01       		.byte	0x1
 1116 0dcb 00       		.uleb128 0
 1117 0dcc 5F5F464C 		.ascii "__FLT_MANT_DIG__ 24\0"
 1117      545F4D41 
 1117      4E545F44 
 1117      49475F5F 
 1117      20323400 
 1118 0de0 01       		.byte	0x1
 1119 0de1 00       		.uleb128 0
 1120 0de2 5F5F464C 		.ascii "__FLT_DIG__ 6\0"
 1120      545F4449 
 1120      475F5F20 
 1120      3600
 1121 0df0 01       		.byte	0x1
 1122 0df1 00       		.uleb128 0
 1123 0df2 5F5F464C 		.ascii "__FLT_MIN_EXP__ (-125)\0"
 1123      545F4D49 
 1123      4E5F4558 
 1123      505F5F20 
 1123      282D3132 
 1124 0e09 01       		.byte	0x1
 1125 0e0a 00       		.uleb128 0
 1126 0e0b 5F5F464C 		.ascii "__FLT_MIN_10_EXP__ (-37)\0"
 1126      545F4D49 
 1126      4E5F3130 
 1126      5F455850 
 1126      5F5F2028 
 1127 0e24 01       		.byte	0x1
 1128 0e25 00       		.uleb128 0
 1129 0e26 5F5F464C 		.ascii "__FLT_MAX_EXP__ 128\0"
 1129      545F4D41 
 1129      585F4558 
 1129      505F5F20 
 1129      31323800 
 1130 0e3a 01       		.byte	0x1
 1131 0e3b 00       		.uleb128 0
 1132 0e3c 5F5F464C 		.ascii "__FLT_MAX_10_EXP__ 38\0"
 1132      545F4D41 
 1132      585F3130 
 1132      5F455850 
 1132      5F5F2033 
 1133 0e52 01       		.byte	0x1
 1134 0e53 00       		.uleb128 0
 1135 0e54 5F5F464C 		.ascii "__FLT_DECIMAL_DIG__ 9\0"
 1135      545F4445 
 1135      43494D41 
 1135      4C5F4449 
 1135      475F5F20 
 1136 0e6a 01       		.byte	0x1
GAS LISTING C:\Users\PRESID~1\AppData\Local\Temp\ccWfuJY7.s 			page 34


 1137 0e6b 00       		.uleb128 0
 1138 0e6c 5F5F464C 		.ascii "__FLT_MAX__ 3.40282346638528859812e+38F\0"
 1138      545F4D41 
 1138      585F5F20 
 1138      332E3430 
 1138      32383233 
 1139 0e94 01       		.byte	0x1
 1140 0e95 00       		.uleb128 0
 1141 0e96 5F5F464C 		.ascii "__FLT_MIN__ 1.17549435082228750797e-38F\0"
 1141      545F4D49 
 1141      4E5F5F20 
 1141      312E3137 
 1141      35343934 
 1142 0ebe 01       		.byte	0x1
 1143 0ebf 00       		.uleb128 0
 1144 0ec0 5F5F464C 		.ascii "__FLT_EPSILON__ 1.19209289550781250000e-7F\0"
 1144      545F4550 
 1144      53494C4F 
 1144      4E5F5F20 
 1144      312E3139 
 1145 0eeb 01       		.byte	0x1
 1146 0eec 00       		.uleb128 0
 1147 0eed 5F5F464C 		.ascii "__FLT_DENORM_MIN__ 1.40129846432481707092e-45F\0"
 1147      545F4445 
 1147      4E4F524D 
 1147      5F4D494E 
 1147      5F5F2031 
 1148 0f1c 01       		.byte	0x1
 1149 0f1d 00       		.uleb128 0
 1150 0f1e 5F5F464C 		.ascii "__FLT_HAS_DENORM__ 1\0"
 1150      545F4841 
 1150      535F4445 
 1150      4E4F524D 
 1150      5F5F2031 
 1151 0f33 01       		.byte	0x1
 1152 0f34 00       		.uleb128 0
 1153 0f35 5F5F464C 		.ascii "__FLT_HAS_INFINITY__ 1\0"
 1153      545F4841 
 1153      535F494E 
 1153      46494E49 
 1153      54595F5F 
 1154 0f4c 01       		.byte	0x1
 1155 0f4d 00       		.uleb128 0
 1156 0f4e 5F5F464C 		.ascii "__FLT_HAS_QUIET_NAN__ 1\0"
 1156      545F4841 
 1156      535F5155 
 1156      4945545F 
 1156      4E414E5F 
 1157 0f66 01       		.byte	0x1
 1158 0f67 00       		.uleb128 0
 1159 0f68 5F5F4442 		.ascii "__DBL_MANT_DIG__ 53\0"
 1159      4C5F4D41 
 1159      4E545F44 
 1159      49475F5F 
 1159      20353300 
 1160 0f7c 01       		.byte	0x1
 1161 0f7d 00       		.uleb128 0
GAS LISTING C:\Users\PRESID~1\AppData\Local\Temp\ccWfuJY7.s 			page 35


 1162 0f7e 5F5F4442 		.ascii "__DBL_DIG__ 15\0"
 1162      4C5F4449 
 1162      475F5F20 
 1162      313500
 1163 0f8d 01       		.byte	0x1
 1164 0f8e 00       		.uleb128 0
 1165 0f8f 5F5F4442 		.ascii "__DBL_MIN_EXP__ (-1021)\0"
 1165      4C5F4D49 
 1165      4E5F4558 
 1165      505F5F20 
 1165      282D3130 
 1166 0fa7 01       		.byte	0x1
 1167 0fa8 00       		.uleb128 0
 1168 0fa9 5F5F4442 		.ascii "__DBL_MIN_10_EXP__ (-307)\0"
 1168      4C5F4D49 
 1168      4E5F3130 
 1168      5F455850 
 1168      5F5F2028 
 1169 0fc3 01       		.byte	0x1
 1170 0fc4 00       		.uleb128 0
 1171 0fc5 5F5F4442 		.ascii "__DBL_MAX_EXP__ 1024\0"
 1171      4C5F4D41 
 1171      585F4558 
 1171      505F5F20 
 1171      31303234 
 1172 0fda 01       		.byte	0x1
 1173 0fdb 00       		.uleb128 0
 1174 0fdc 5F5F4442 		.ascii "__DBL_MAX_10_EXP__ 308\0"
 1174      4C5F4D41 
 1174      585F3130 
 1174      5F455850 
 1174      5F5F2033 
 1175 0ff3 01       		.byte	0x1
 1176 0ff4 00       		.uleb128 0
 1177 0ff5 5F5F4442 		.ascii "__DBL_DECIMAL_DIG__ 17\0"
 1177      4C5F4445 
 1177      43494D41 
 1177      4C5F4449 
 1177      475F5F20 
 1178 100c 01       		.byte	0x1
 1179 100d 00       		.uleb128 0
 1180 100e 5F5F4442 		.ascii "__DBL_MAX__ ((double)1.79769313486231570815e+308L)\0"
 1180      4C5F4D41 
 1180      585F5F20 
 1180      2828646F 
 1180      75626C65 
 1181 1041 01       		.byte	0x1
 1182 1042 00       		.uleb128 0
 1183 1043 5F5F4442 		.ascii "__DBL_MIN__ ((double)2.22507385850720138309e-308L)\0"
 1183      4C5F4D49 
 1183      4E5F5F20 
 1183      2828646F 
 1183      75626C65 
 1184 1076 01       		.byte	0x1
 1185 1077 00       		.uleb128 0
 1186 1078 5F5F4442 		.ascii "__DBL_EPSILON__ ((double)2.22044604925031308085e-16L)\0"
 1186      4C5F4550 
GAS LISTING C:\Users\PRESID~1\AppData\Local\Temp\ccWfuJY7.s 			page 36


 1186      53494C4F 
 1186      4E5F5F20 
 1186      2828646F 
 1187 10ae 01       		.byte	0x1
 1188 10af 00       		.uleb128 0
 1189 10b0 5F5F4442 		.ascii "__DBL_DENORM_MIN__ ((double)4.94065645841246544177e-324L)\0"
 1189      4C5F4445 
 1189      4E4F524D 
 1189      5F4D494E 
 1189      5F5F2028 
 1190 10ea 01       		.byte	0x1
 1191 10eb 00       		.uleb128 0
 1192 10ec 5F5F4442 		.ascii "__DBL_HAS_DENORM__ 1\0"
 1192      4C5F4841 
 1192      535F4445 
 1192      4E4F524D 
 1192      5F5F2031 
 1193 1101 01       		.byte	0x1
 1194 1102 00       		.uleb128 0
 1195 1103 5F5F4442 		.ascii "__DBL_HAS_INFINITY__ 1\0"
 1195      4C5F4841 
 1195      535F494E 
 1195      46494E49 
 1195      54595F5F 
 1196 111a 01       		.byte	0x1
 1197 111b 00       		.uleb128 0
 1198 111c 5F5F4442 		.ascii "__DBL_HAS_QUIET_NAN__ 1\0"
 1198      4C5F4841 
 1198      535F5155 
 1198      4945545F 
 1198      4E414E5F 
 1199 1134 01       		.byte	0x1
 1200 1135 00       		.uleb128 0
 1201 1136 5F5F4C44 		.ascii "__LDBL_MANT_DIG__ 64\0"
 1201      424C5F4D 
 1201      414E545F 
 1201      4449475F 
 1201      5F203634 
 1202 114b 01       		.byte	0x1
 1203 114c 00       		.uleb128 0
 1204 114d 5F5F4C44 		.ascii "__LDBL_DIG__ 18\0"
 1204      424C5F44 
 1204      49475F5F 
 1204      20313800 
 1205 115d 01       		.byte	0x1
 1206 115e 00       		.uleb128 0
 1207 115f 5F5F4C44 		.ascii "__LDBL_MIN_EXP__ (-16381)\0"
 1207      424C5F4D 
 1207      494E5F45 
 1207      58505F5F 
 1207      20282D31 
 1208 1179 01       		.byte	0x1
 1209 117a 00       		.uleb128 0
 1210 117b 5F5F4C44 		.ascii "__LDBL_MIN_10_EXP__ (-4931)\0"
 1210      424C5F4D 
 1210      494E5F31 
 1210      305F4558 
GAS LISTING C:\Users\PRESID~1\AppData\Local\Temp\ccWfuJY7.s 			page 37


 1210      505F5F20 
 1211 1197 01       		.byte	0x1
 1212 1198 00       		.uleb128 0
 1213 1199 5F5F4C44 		.ascii "__LDBL_MAX_EXP__ 16384\0"
 1213      424C5F4D 
 1213      41585F45 
 1213      58505F5F 
 1213      20313633 
 1214 11b0 01       		.byte	0x1
 1215 11b1 00       		.uleb128 0
 1216 11b2 5F5F4C44 		.ascii "__LDBL_MAX_10_EXP__ 4932\0"
 1216      424C5F4D 
 1216      41585F31 
 1216      305F4558 
 1216      505F5F20 
 1217 11cb 01       		.byte	0x1
 1218 11cc 00       		.uleb128 0
 1219 11cd 5F5F4445 		.ascii "__DECIMAL_DIG__ 21\0"
 1219      43494D41 
 1219      4C5F4449 
 1219      475F5F20 
 1219      323100
 1220 11e0 01       		.byte	0x1
 1221 11e1 00       		.uleb128 0
 1222 11e2 5F5F4C44 		.ascii "__LDBL_MAX__ 1.18973149535723176502e+4932L\0"
 1222      424C5F4D 
 1222      41585F5F 
 1222      20312E31 
 1222      38393733 
 1223 120d 01       		.byte	0x1
 1224 120e 00       		.uleb128 0
 1225 120f 5F5F4C44 		.ascii "__LDBL_MIN__ 3.36210314311209350626e-4932L\0"
 1225      424C5F4D 
 1225      494E5F5F 
 1225      20332E33 
 1225      36323130 
 1226 123a 01       		.byte	0x1
 1227 123b 00       		.uleb128 0
 1228 123c 5F5F4C44 		.ascii "__LDBL_EPSILON__ 1.08420217248550443401e-19L\0"
 1228      424C5F45 
 1228      5053494C 
 1228      4F4E5F5F 
 1228      20312E30 
 1229 1269 01       		.byte	0x1
 1230 126a 00       		.uleb128 0
 1231 126b 5F5F4C44 		.ascii "__LDBL_DENORM_MIN__ 3.64519953188247460253e-4951L\0"
 1231      424C5F44 
 1231      454E4F52 
 1231      4D5F4D49 
 1231      4E5F5F20 
 1232 129d 01       		.byte	0x1
 1233 129e 00       		.uleb128 0
 1234 129f 5F5F4C44 		.ascii "__LDBL_HAS_DENORM__ 1\0"
 1234      424C5F48 
 1234      41535F44 
 1234      454E4F52 
 1234      4D5F5F20 
GAS LISTING C:\Users\PRESID~1\AppData\Local\Temp\ccWfuJY7.s 			page 38


 1235 12b5 01       		.byte	0x1
 1236 12b6 00       		.uleb128 0
 1237 12b7 5F5F4C44 		.ascii "__LDBL_HAS_INFINITY__ 1\0"
 1237      424C5F48 
 1237      41535F49 
 1237      4E46494E 
 1237      4954595F 
 1238 12cf 01       		.byte	0x1
 1239 12d0 00       		.uleb128 0
 1240 12d1 5F5F4C44 		.ascii "__LDBL_HAS_QUIET_NAN__ 1\0"
 1240      424C5F48 
 1240      41535F51 
 1240      55494554 
 1240      5F4E414E 
 1241 12ea 01       		.byte	0x1
 1242 12eb 00       		.uleb128 0
 1243 12ec 5F5F4445 		.ascii "__DEC32_MANT_DIG__ 7\0"
 1243      4333325F 
 1243      4D414E54 
 1243      5F444947 
 1243      5F5F2037 
 1244 1301 01       		.byte	0x1
 1245 1302 00       		.uleb128 0
 1246 1303 5F5F4445 		.ascii "__DEC32_MIN_EXP__ (-94)\0"
 1246      4333325F 
 1246      4D494E5F 
 1246      4558505F 
 1246      5F20282D 
 1247 131b 01       		.byte	0x1
 1248 131c 00       		.uleb128 0
 1249 131d 5F5F4445 		.ascii "__DEC32_MAX_EXP__ 97\0"
 1249      4333325F 
 1249      4D41585F 
 1249      4558505F 
 1249      5F203937 
 1250 1332 01       		.byte	0x1
 1251 1333 00       		.uleb128 0
 1252 1334 5F5F4445 		.ascii "__DEC32_MIN__ 1E-95DF\0"
 1252      4333325F 
 1252      4D494E5F 
 1252      5F203145 
 1252      2D393544 
 1253 134a 01       		.byte	0x1
 1254 134b 00       		.uleb128 0
 1255 134c 5F5F4445 		.ascii "__DEC32_MAX__ 9.999999E96DF\0"
 1255      4333325F 
 1255      4D41585F 
 1255      5F20392E 
 1255      39393939 
 1256 1368 01       		.byte	0x1
 1257 1369 00       		.uleb128 0
 1258 136a 5F5F4445 		.ascii "__DEC32_EPSILON__ 1E-6DF\0"
 1258      4333325F 
 1258      45505349 
 1258      4C4F4E5F 
 1258      5F203145 
 1259 1383 01       		.byte	0x1
GAS LISTING C:\Users\PRESID~1\AppData\Local\Temp\ccWfuJY7.s 			page 39


 1260 1384 00       		.uleb128 0
 1261 1385 5F5F4445 		.ascii "__DEC32_SUBNORMAL_MIN__ 0.000001E-95DF\0"
 1261      4333325F 
 1261      5355424E 
 1261      4F524D41 
 1261      4C5F4D49 
 1262 13ac 01       		.byte	0x1
 1263 13ad 00       		.uleb128 0
 1264 13ae 5F5F4445 		.ascii "__DEC64_MANT_DIG__ 16\0"
 1264      4336345F 
 1264      4D414E54 
 1264      5F444947 
 1264      5F5F2031 
 1265 13c4 01       		.byte	0x1
 1266 13c5 00       		.uleb128 0
 1267 13c6 5F5F4445 		.ascii "__DEC64_MIN_EXP__ (-382)\0"
 1267      4336345F 
 1267      4D494E5F 
 1267      4558505F 
 1267      5F20282D 
 1268 13df 01       		.byte	0x1
 1269 13e0 00       		.uleb128 0
 1270 13e1 5F5F4445 		.ascii "__DEC64_MAX_EXP__ 385\0"
 1270      4336345F 
 1270      4D41585F 
 1270      4558505F 
 1270      5F203338 
 1271 13f7 01       		.byte	0x1
 1272 13f8 00       		.uleb128 0
 1273 13f9 5F5F4445 		.ascii "__DEC64_MIN__ 1E-383DD\0"
 1273      4336345F 
 1273      4D494E5F 
 1273      5F203145 
 1273      2D333833 
 1274 1410 01       		.byte	0x1
 1275 1411 00       		.uleb128 0
 1276 1412 5F5F4445 		.ascii "__DEC64_MAX__ 9.999999999999999E384DD\0"
 1276      4336345F 
 1276      4D41585F 
 1276      5F20392E 
 1276      39393939 
 1277 1438 01       		.byte	0x1
 1278 1439 00       		.uleb128 0
 1279 143a 5F5F4445 		.ascii "__DEC64_EPSILON__ 1E-15DD\0"
 1279      4336345F 
 1279      45505349 
 1279      4C4F4E5F 
 1279      5F203145 
 1280 1454 01       		.byte	0x1
 1281 1455 00       		.uleb128 0
 1282 1456 5F5F4445 		.ascii "__DEC64_SUBNORMAL_MIN__ 0.000000000000001E-383DD\0"
 1282      4336345F 
 1282      5355424E 
 1282      4F524D41 
 1282      4C5F4D49 
 1283 1487 01       		.byte	0x1
 1284 1488 00       		.uleb128 0
GAS LISTING C:\Users\PRESID~1\AppData\Local\Temp\ccWfuJY7.s 			page 40


 1285 1489 5F5F4445 		.ascii "__DEC128_MANT_DIG__ 34\0"
 1285      43313238 
 1285      5F4D414E 
 1285      545F4449 
 1285      475F5F20 
 1286 14a0 01       		.byte	0x1
 1287 14a1 00       		.uleb128 0
 1288 14a2 5F5F4445 		.ascii "__DEC128_MIN_EXP__ (-6142)\0"
 1288      43313238 
 1288      5F4D494E 
 1288      5F455850 
 1288      5F5F2028 
 1289 14bd 01       		.byte	0x1
 1290 14be 00       		.uleb128 0
 1291 14bf 5F5F4445 		.ascii "__DEC128_MAX_EXP__ 6145\0"
 1291      43313238 
 1291      5F4D4158 
 1291      5F455850 
 1291      5F5F2036 
 1292 14d7 01       		.byte	0x1
 1293 14d8 00       		.uleb128 0
 1294 14d9 5F5F4445 		.ascii "__DEC128_MIN__ 1E-6143DL\0"
 1294      43313238 
 1294      5F4D494E 
 1294      5F5F2031 
 1294      452D3631 
 1295 14f2 01       		.byte	0x1
 1296 14f3 00       		.uleb128 0
 1297 14f4 5F5F4445 		.ascii "__DEC128_MAX__ 9.999999999999999999999999999999999E6144DL\0"
 1297      43313238 
 1297      5F4D4158 
 1297      5F5F2039 
 1297      2E393939 
 1298 152e 01       		.byte	0x1
 1299 152f 00       		.uleb128 0
 1300 1530 5F5F4445 		.ascii "__DEC128_EPSILON__ 1E-33DL\0"
 1300      43313238 
 1300      5F455053 
 1300      494C4F4E 
 1300      5F5F2031 
 1301 154b 01       		.byte	0x1
 1302 154c 00       		.uleb128 0
 1303 154d 5F5F4445 		.ascii "__DEC128_SUBNORMAL_MIN__ 0.000000000000000000000000000000001E-6143DL\0"
 1303      43313238 
 1303      5F535542 
 1303      4E4F524D 
 1303      414C5F4D 
 1304 1592 01       		.byte	0x1
 1305 1593 00       		.uleb128 0
 1306 1594 5F5F5245 		.ascii "__REGISTER_PREFIX__ \0"
 1306      47495354 
 1306      45525F50 
 1306      52454649 
 1306      585F5F20 
 1307 15a9 01       		.byte	0x1
 1308 15aa 00       		.uleb128 0
 1309 15ab 5F5F5553 		.ascii "__USER_LABEL_PREFIX__ _\0"
GAS LISTING C:\Users\PRESID~1\AppData\Local\Temp\ccWfuJY7.s 			page 41


 1309      45525F4C 
 1309      4142454C 
 1309      5F505245 
 1309      4649585F 
 1310 15c3 01       		.byte	0x1
 1311 15c4 00       		.uleb128 0
 1312 15c5 5F5F474E 		.ascii "__GNUC_GNU_INLINE__ 1\0"
 1312      55435F47 
 1312      4E555F49 
 1312      4E4C494E 
 1312      455F5F20 
 1313 15db 01       		.byte	0x1
 1314 15dc 00       		.uleb128 0
 1315 15dd 5F5F4E4F 		.ascii "__NO_INLINE__ 1\0"
 1315      5F494E4C 
 1315      494E455F 
 1315      5F203100 
 1316 15ed 01       		.byte	0x1
 1317 15ee 00       		.uleb128 0
 1318 15ef 5F5F5354 		.ascii "__STRICT_ANSI__ 1\0"
 1318      52494354 
 1318      5F414E53 
 1318      495F5F20 
 1318      3100
 1319 1601 01       		.byte	0x1
 1320 1602 00       		.uleb128 0
 1321 1603 5F5F4743 		.ascii "__GCC_ATOMIC_BOOL_LOCK_FREE 1\0"
 1321      435F4154 
 1321      4F4D4943 
 1321      5F424F4F 
 1321      4C5F4C4F 
 1322 1621 01       		.byte	0x1
 1323 1622 00       		.uleb128 0
 1324 1623 5F5F4743 		.ascii "__GCC_ATOMIC_CHAR_LOCK_FREE 1\0"
 1324      435F4154 
 1324      4F4D4943 
 1324      5F434841 
 1324      525F4C4F 
 1325 1641 01       		.byte	0x1
 1326 1642 00       		.uleb128 0
 1327 1643 5F5F4743 		.ascii "__GCC_ATOMIC_CHAR16_T_LOCK_FREE 1\0"
 1327      435F4154 
 1327      4F4D4943 
 1327      5F434841 
 1327      5231365F 
 1328 1665 01       		.byte	0x1
 1329 1666 00       		.uleb128 0
 1330 1667 5F5F4743 		.ascii "__GCC_ATOMIC_CHAR32_T_LOCK_FREE 1\0"
 1330      435F4154 
 1330      4F4D4943 
 1330      5F434841 
 1330      5233325F 
 1331 1689 01       		.byte	0x1
 1332 168a 00       		.uleb128 0
 1333 168b 5F5F4743 		.ascii "__GCC_ATOMIC_WCHAR_T_LOCK_FREE 1\0"
 1333      435F4154 
 1333      4F4D4943 
GAS LISTING C:\Users\PRESID~1\AppData\Local\Temp\ccWfuJY7.s 			page 42


 1333      5F574348 
 1333      41525F54 
 1334 16ac 01       		.byte	0x1
 1335 16ad 00       		.uleb128 0
 1336 16ae 5F5F4743 		.ascii "__GCC_ATOMIC_SHORT_LOCK_FREE 1\0"
 1336      435F4154 
 1336      4F4D4943 
 1336      5F53484F 
 1336      52545F4C 
 1337 16cd 01       		.byte	0x1
 1338 16ce 00       		.uleb128 0
 1339 16cf 5F5F4743 		.ascii "__GCC_ATOMIC_INT_LOCK_FREE 1\0"
 1339      435F4154 
 1339      4F4D4943 
 1339      5F494E54 
 1339      5F4C4F43 
 1340 16ec 01       		.byte	0x1
 1341 16ed 00       		.uleb128 0
 1342 16ee 5F5F4743 		.ascii "__GCC_ATOMIC_LONG_LOCK_FREE 1\0"
 1342      435F4154 
 1342      4F4D4943 
 1342      5F4C4F4E 
 1342      475F4C4F 
 1343 170c 01       		.byte	0x1
 1344 170d 00       		.uleb128 0
 1345 170e 5F5F4743 		.ascii "__GCC_ATOMIC_LLONG_LOCK_FREE 1\0"
 1345      435F4154 
 1345      4F4D4943 
 1345      5F4C4C4F 
 1345      4E475F4C 
 1346 172d 01       		.byte	0x1
 1347 172e 00       		.uleb128 0
 1348 172f 5F5F4743 		.ascii "__GCC_ATOMIC_TEST_AND_SET_TRUEVAL 1\0"
 1348      435F4154 
 1348      4F4D4943 
 1348      5F544553 
 1348      545F414E 
 1349 1753 01       		.byte	0x1
 1350 1754 00       		.uleb128 0
 1351 1755 5F5F4743 		.ascii "__GCC_ATOMIC_POINTER_LOCK_FREE 1\0"
 1351      435F4154 
 1351      4F4D4943 
 1351      5F504F49 
 1351      4E544552 
 1352 1776 01       		.byte	0x1
 1353 1777 00       		.uleb128 0
 1354 1778 5F5F4743 		.ascii "__GCC_HAVE_DWARF2_CFI_ASM 1\0"
 1354      435F4841 
 1354      56455F44 
 1354      57415246 
 1354      325F4346 
 1355 1794 01       		.byte	0x1
 1356 1795 00       		.uleb128 0
 1357 1796 5F5F5052 		.ascii "__PRAGMA_REDEFINE_EXTNAME 1\0"
 1357      41474D41 
 1357      5F524544 
 1357      4546494E 
GAS LISTING C:\Users\PRESID~1\AppData\Local\Temp\ccWfuJY7.s 			page 43


 1357      455F4558 
 1358 17b2 01       		.byte	0x1
 1359 17b3 00       		.uleb128 0
 1360 17b4 5F5F5349 		.ascii "__SIZEOF_WCHAR_T__ 2\0"
 1360      5A454F46 
 1360      5F574348 
 1360      41525F54 
 1360      5F5F2032 
 1361 17c9 01       		.byte	0x1
 1362 17ca 00       		.uleb128 0
 1363 17cb 5F5F5349 		.ascii "__SIZEOF_WINT_T__ 2\0"
 1363      5A454F46 
 1363      5F57494E 
 1363      545F545F 
 1363      5F203200 
 1364 17df 01       		.byte	0x1
 1365 17e0 00       		.uleb128 0
 1366 17e1 5F5F5349 		.ascii "__SIZEOF_PTRDIFF_T__ 4\0"
 1366      5A454F46 
 1366      5F505452 
 1366      44494646 
 1366      5F545F5F 
 1367 17f8 01       		.byte	0x1
 1368 17f9 00       		.uleb128 0
 1369 17fa 5F5F6933 		.ascii "__i386 1\0"
 1369      38362031 
 1369      00
 1370 1803 01       		.byte	0x1
 1371 1804 00       		.uleb128 0
 1372 1805 5F5F6933 		.ascii "__i386__ 1\0"
 1372      38365F5F 
 1372      203100
 1373 1810 01       		.byte	0x1
 1374 1811 00       		.uleb128 0
 1375 1812 5F5F4154 		.ascii "__ATOMIC_HLE_ACQUIRE 65536\0"
 1375      4F4D4943 
 1375      5F484C45 
 1375      5F414351 
 1375      55495245 
 1376 182d 01       		.byte	0x1
 1377 182e 00       		.uleb128 0
 1378 182f 5F5F4154 		.ascii "__ATOMIC_HLE_RELEASE 131072\0"
 1378      4F4D4943 
 1378      5F484C45 
 1378      5F52454C 
 1378      45415345 
 1379 184b 01       		.byte	0x1
 1380 184c 00       		.uleb128 0
 1381 184d 5F5F7475 		.ascii "__tune_i386__ 1\0"
 1381      6E655F69 
 1381      3338365F 
 1381      5F203100 
 1382 185d 01       		.byte	0x1
 1383 185e 00       		.uleb128 0
 1384 185f 5F5F636F 		.ascii "__code_model_32__ 1\0"
 1384      64655F6D 
 1384      6F64656C 
GAS LISTING C:\Users\PRESID~1\AppData\Local\Temp\ccWfuJY7.s 			page 44


 1384      5F33325F 
 1384      5F203100 
 1385 1873 01       		.byte	0x1
 1386 1874 00       		.uleb128 0
 1387 1875 5F583836 		.ascii "_X86_ 1\0"
 1387      5F203100 
 1388 187d 01       		.byte	0x1
 1389 187e 00       		.uleb128 0
 1390 187f 5F5F7374 		.ascii "__stdcall __attribute__((__stdcall__))\0"
 1390      6463616C 
 1390      6C205F5F 
 1390      61747472 
 1390      69627574 
 1391 18a6 01       		.byte	0x1
 1392 18a7 00       		.uleb128 0
 1393 18a8 5F5F6661 		.ascii "__fastcall __attribute__((__fastcall__))\0"
 1393      73746361 
 1393      6C6C205F 
 1393      5F617474 
 1393      72696275 
 1394 18d1 01       		.byte	0x1
 1395 18d2 00       		.uleb128 0
 1396 18d3 5F5F7468 		.ascii "__thiscall __attribute__((__thiscall__))\0"
 1396      69736361 
 1396      6C6C205F 
 1396      5F617474 
 1396      72696275 
 1397 18fc 01       		.byte	0x1
 1398 18fd 00       		.uleb128 0
 1399 18fe 5F5F6364 		.ascii "__cdecl __attribute__((__cdecl__))\0"
 1399      65636C20 
 1399      5F5F6174 
 1399      74726962 
 1399      7574655F 
 1400 1921 01       		.byte	0x1
 1401 1922 00       		.uleb128 0
 1402 1923 5F5F4758 		.ascii "__GXX_MERGED_TYPEINFO_NAMES 0\0"
 1402      585F4D45 
 1402      52474544 
 1402      5F545950 
 1402      45494E46 
 1403 1941 01       		.byte	0x1
 1404 1942 00       		.uleb128 0
 1405 1943 5F5F4758 		.ascii "__GXX_TYPEINFO_EQUALITY_INLINE 0\0"
 1405      585F5459 
 1405      5045494E 
 1405      464F5F45 
 1405      5155414C 
 1406 1964 01       		.byte	0x1
 1407 1965 00       		.uleb128 0
 1408 1966 5F5F4D53 		.ascii "__MSVCRT__ 1\0"
 1408      56435254 
 1408      5F5F2031 
 1408      00
 1409 1973 01       		.byte	0x1
 1410 1974 00       		.uleb128 0
 1411 1975 5F5F4D49 		.ascii "__MINGW32__ 1\0"
GAS LISTING C:\Users\PRESID~1\AppData\Local\Temp\ccWfuJY7.s 			page 45


 1411      4E475733 
 1411      325F5F20 
 1411      3100
 1412 1983 01       		.byte	0x1
 1413 1984 00       		.uleb128 0
 1414 1985 5F57494E 		.ascii "_WIN32 1\0"
 1414      33322031 
 1414      00
 1415 198e 01       		.byte	0x1
 1416 198f 00       		.uleb128 0
 1417 1990 5F5F5749 		.ascii "__WIN32 1\0"
 1417      4E333220 
 1417      3100
 1418 199a 01       		.byte	0x1
 1419 199b 00       		.uleb128 0
 1420 199c 5F5F5749 		.ascii "__WIN32__ 1\0"
 1420      4E33325F 
 1420      5F203100 
 1421 19a8 01       		.byte	0x1
 1422 19a9 00       		.uleb128 0
 1423 19aa 5F5F5749 		.ascii "__WINNT 1\0"
 1423      4E4E5420 
 1423      3100
 1424 19b4 01       		.byte	0x1
 1425 19b5 00       		.uleb128 0
 1426 19b6 5F5F5749 		.ascii "__WINNT__ 1\0"
 1426      4E4E545F 
 1426      5F203100 
 1427 19c2 01       		.byte	0x1
 1428 19c3 00       		.uleb128 0
 1429 19c4 5F494E54 		.ascii "_INTEGRAL_MAX_BITS 64\0"
 1429      45475241 
 1429      4C5F4D41 
 1429      585F4249 
 1429      54532036 
 1430 19da 01       		.byte	0x1
 1431 19db 00       		.uleb128 0
 1432 19dc 5F5F6465 		.ascii "__declspec(x) __attribute__((x))\0"
 1432      636C7370 
 1432      65632878 
 1432      29205F5F 
 1432      61747472 
 1433 19fd 01       		.byte	0x1
 1434 19fe 00       		.uleb128 0
 1435 19ff 5F5F4445 		.ascii "__DECIMAL_BID_FORMAT__ 1\0"
 1435      43494D41 
 1435      4C5F4249 
 1435      445F464F 
 1435      524D4154 
 1436 1a18 01       		.byte	0x1
 1437 1a19 00       		.uleb128 0
 1438 1a1a 4346475F 		.ascii "CFG_PROCESSOR 3\0"
 1438      50524F43 
 1438      4553534F 
 1438      52203300 
 1439 1a2a 03       		.byte	0x3
 1440 1a2b 00       		.uleb128 0
GAS LISTING C:\Users\PRESID~1\AppData\Local\Temp\ccWfuJY7.s 			page 46


 1441 1a2c 01       		.uleb128 0x1
 1442              		.file 5 "E:/NeuOrga/Programmieren/c_cpp/github_os/input/src/os_base/os_firstinc.h"
 1443 1a2d 03       		.byte	0x3
 1444 1a2e 01       		.uleb128 0x1
 1445 1a2f 05       		.uleb128 0x5
 1446 1a30 01       		.byte	0x1
 1447 1a31 02       		.uleb128 0x2
 1448 1a32 5F6F735F 		.ascii "_os_firstinc_h_ \0"
 1448      66697273 
 1448      74696E63 
 1448      5F685F20 
 1448      00
 1449 1a43 03       		.byte	0x3
 1450 1a44 04       		.uleb128 0x4
 1451 1a45 02       		.uleb128 0x2
 1452 1a46 01       		.byte	0x1
 1453 1a47 02       		.uleb128 0x2
 1454 1a48 5F424153 		.ascii "_BASE_TYPES_H_ \0"
 1454      455F5459 
 1454      5045535F 
 1454      485F2000 
 1455 1a58 01       		.byte	0x1
 1456 1a59 04       		.uleb128 0x4
 1457 1a5a 494E5445 		.ascii "INTEGER_LLP64_IL32P64 1\0"
 1457      4745525F 
 1457      4C4C5036 
 1457      345F494C 
 1457      33325036 
 1458 1a72 01       		.byte	0x1
 1459 1a73 05       		.uleb128 0x5
 1460 1a74 494E5445 		.ascii "INTEGER_LP64_I32LP64 2\0"
 1460      4745525F 
 1460      4C503634 
 1460      5F493332 
 1460      4C503634 
 1461 1a8b 01       		.byte	0x1
 1462 1a8c 06       		.uleb128 0x6
 1463 1a8d 494E5445 		.ascii "INTEGER_ILP64 3\0"
 1463      4745525F 
 1463      494C5036 
 1463      34203300 
 1464 1a9d 01       		.byte	0x1
 1465 1a9e 07       		.uleb128 0x7
 1466 1a9f 494E5445 		.ascii "INTEGER_SILP64 4\0"
 1466      4745525F 
 1466      53494C50 
 1466      36342034 
 1466      00
 1467 1ab0 01       		.byte	0x1
 1468 1ab1 09       		.uleb128 0x9
 1469 1ab2 4350505F 		.ascii "CPP_VERSION_NONE 0\0"
 1469      56455253 
 1469      494F4E5F 
 1469      4E4F4E45 
 1469      203000
 1470 1ac5 01       		.byte	0x1
 1471 1ac6 0A       		.uleb128 0xa
GAS LISTING C:\Users\PRESID~1\AppData\Local\Temp\ccWfuJY7.s 			page 47


 1472 1ac7 4350505F 		.ascii "CPP_VERSION_1998 1\0"
 1472      56455253 
 1472      494F4E5F 
 1472      31393938 
 1472      203100
 1473 1ada 01       		.byte	0x1
 1474 1adb 0B       		.uleb128 0xb
 1475 1adc 4350505F 		.ascii "CPP_VERSION_2003 2\0"
 1475      56455253 
 1475      494F4E5F 
 1475      32303033 
 1475      203200
 1476 1aef 01       		.byte	0x1
 1477 1af0 0C       		.uleb128 0xc
 1478 1af1 4350505F 		.ascii "CPP_VERSION_2007 3\0"
 1478      56455253 
 1478      494F4E5F 
 1478      32303037 
 1478      203300
 1479 1b04 01       		.byte	0x1
 1480 1b05 0D       		.uleb128 0xd
 1481 1b06 4350505F 		.ascii "CPP_VERSION_2011 4\0"
 1481      56455253 
 1481      494F4E5F 
 1481      32303131 
 1481      203400
 1482 1b19 01       		.byte	0x1
 1483 1b1a 0E       		.uleb128 0xe
 1484 1b1b 49534F5F 		.ascii "ISO_CPP_VERSION CPP_VERSION_1998\0"
 1484      4350505F 
 1484      56455253 
 1484      494F4E20 
 1484      4350505F 
 1485 1b3c 01       		.byte	0x1
 1486 1b3d 10       		.uleb128 0x10
 1487 1b3e 494E5445 		.ascii "INTEGER_MODEL INTEGER_LLP64_IL32P64\0"
 1487      4745525F 
 1487      4D4F4445 
 1487      4C20494E 
 1487      54454745 
 1488 1b62 04       		.byte	0x4
 1489              		.file 6 "E:/NeuOrga/Programmieren/c_cpp/github_os/input/src/os_base/../os_base/os_common.h"
 1490 1b63 03       		.byte	0x3
 1491 1b64 05       		.uleb128 0x5
 1492 1b65 06       		.uleb128 0x6
 1493 1b66 01       		.byte	0x1
 1494 1b67 02       		.uleb128 0x2
 1495 1b68 5F6F735F 		.ascii "_os_common_h_ \0"
 1495      636F6D6D 
 1495      6F6E5F68 
 1495      5F2000
 1496 1b77 01       		.byte	0x1
 1497 1b78 06       		.uleb128 0x6
 1498 1b79 46616C73 		.ascii "False 0\0"
 1498      65203000 
 1499 1b81 01       		.byte	0x1
 1500 1b82 07       		.uleb128 0x7
GAS LISTING C:\Users\PRESID~1\AppData\Local\Temp\ccWfuJY7.s 			page 48


 1501 1b83 54727565 		.ascii "True 1\0"
 1501      203100
 1502 1b8a 01       		.byte	0x1
 1503 1b8b 08       		.uleb128 0x8
 1504 1b8c 46414C53 		.ascii "FALSE False\0"
 1504      45204661 
 1504      6C736500 
 1505 1b98 01       		.byte	0x1
 1506 1b99 09       		.uleb128 0x9
 1507 1b9a 54525545 		.ascii "TRUE True\0"
 1507      20547275 
 1507      6500
 1508 1ba4 01       		.byte	0x1
 1509 1ba5 0A       		.uleb128 0xa
 1510 1ba6 41636365 		.ascii "Accepted 1\0"
 1510      70746564 
 1510      203100
 1511 1bb1 01       		.byte	0x1
 1512 1bb2 0B       		.uleb128 0xb
 1513 1bb3 52656A65 		.ascii "Rejected 0\0"
 1513      63746564 
 1513      203000
 1514 1bbe 01       		.byte	0x1
 1515 1bbf 0C       		.uleb128 0xc
 1516 1bc0 4C6F6361 		.ascii "Local static\0"
 1516      6C207374 
 1516      61746963 
 1516      00
 1517 1bcd 01       		.byte	0x1
 1518 1bce 0D       		.uleb128 0xd
 1519 1bcf 4C6F6361 		.ascii "Local_inline static __inline__\0"
 1519      6C5F696E 
 1519      6C696E65 
 1519      20737461 
 1519      74696320 
 1520 1bee 01       		.byte	0x1
 1521 1bef 0E       		.uleb128 0xe
 1522 1bf0 476C6F62 		.ascii "Global_inline __inline__\0"
 1522      616C5F69 
 1522      6E6C696E 
 1522      65205F5F 
 1522      696E6C69 
 1523 1c09 01       		.byte	0x1
 1524 1c0a 0F       		.uleb128 0xf
 1525 1c0b 52656665 		.ascii "ReferenceUnusedParameter(x) ((x) = (x))\0"
 1525      72656E63 
 1525      65556E75 
 1525      73656450 
 1525      6172616D 
 1526 1c33 01       		.byte	0x1
 1527 1c34 12       		.uleb128 0x12
 1528 1c35 634D4355 		.ascii "cMCU_SIMULATION 1\0"
 1528      5F53494D 
 1528      554C4154 
 1528      494F4E20 
 1528      3100
 1529 1c47 01       		.byte	0x1
GAS LISTING C:\Users\PRESID~1\AppData\Local\Temp\ccWfuJY7.s 			page 49


 1530 1c48 13       		.uleb128 0x13
 1531 1c49 634D4355 		.ascii "cMCU_POWERPC 2\0"
 1531      5F504F57 
 1531      45525043 
 1531      203200
 1532 1c58 01       		.byte	0x1
 1533 1c59 14       		.uleb128 0x14
 1534 1c5a 634D4355 		.ascii "cMCU_X86 3\0"
 1534      5F583836 
 1534      203300
 1535 1c65 01       		.byte	0x1
 1536 1c66 15       		.uleb128 0x15
 1537 1c67 634D4355 		.ascii "cMCU_CORTEX_M4 4\0"
 1537      5F434F52 
 1537      5445585F 
 1537      4D342034 
 1537      00
 1538 1c78 01       		.byte	0x1
 1539 1c79 18       		.uleb128 0x18
 1540 1c7a 4E525F4F 		.ascii "NR_OF_CORES 1\0"
 1540      465F434F 
 1540      52455320 
 1540      3100
 1541 1c88 01       		.byte	0x1
 1542 1c89 25       		.uleb128 0x25
 1543 1c8a 44697361 		.ascii "DisableInterrupts() \0"
 1543      626C6549 
 1543      6E746572 
 1543      72757074 
 1543      73282920 
 1544 1c9f 01       		.byte	0x1
 1545 1ca0 26       		.uleb128 0x26
 1546 1ca1 456E6162 		.ascii "EnableInterrupts() \0"
 1546      6C65496E 
 1546      74657272 
 1546      75707473 
 1546      28292000 
 1547 1cb5 01       		.byte	0x1
 1548 1cb6 27       		.uleb128 0x27
 1549 1cb7 50726976 		.ascii "Privilige_level_save_current() \0"
 1549      696C6967 
 1549      655F6C65 
 1549      76656C5F 
 1549      73617665 
 1550 1cd7 01       		.byte	0x1
 1551 1cd8 28       		.uleb128 0x28
 1552 1cd9 50726976 		.ascii "Privilige_level_enter_kernel_mode() \0"
 1552      696C6967 
 1552      655F6C65 
 1552      76656C5F 
 1552      656E7465 
 1553 1cfe 01       		.byte	0x1
 1554 1cff 29       		.uleb128 0x29
 1555 1d00 50726976 		.ascii "Privilige_level_restore_saved() \0"
 1555      696C6967 
 1555      655F6C65 
 1555      76656C5F 
GAS LISTING C:\Users\PRESID~1\AppData\Local\Temp\ccWfuJY7.s 			page 50


 1555      72657374 
 1556 1d21 01       		.byte	0x1
 1557 1d22 2A       		.uleb128 0x2a
 1558 1d23 48616C74 		.ascii "HaltMcu() \0"
 1558      4D637528 
 1558      292000
 1559 1d2e 04       		.byte	0x4
 1560 1d2f 03       		.byte	0x3
 1561 1d30 07       		.uleb128 0x7
 1562 1d31 03       		.uleb128 0x3
 1563 1d32 01       		.byte	0x1
 1564 1d33 02       		.uleb128 0x2
 1565 1d34 5F4F535F 		.ascii "_OS_RAM_H_ \0"
 1565      52414D5F 
 1565      485F2000 
 1566              		.file 7 "E:/NeuOrga/Programmieren/c_cpp/github_os/input/src/os_base/../os_base/os_firstinc.h"
 1567 1d40 03       		.byte	0x3
 1568 1d41 04       		.uleb128 0x4
 1569 1d42 07       		.uleb128 0x7
 1570 1d43 04       		.byte	0x4
 1571              		.file 8 "E:/NeuOrga/Programmieren/c_cpp/github_os/input/src/os_base/../os_base/os_stack.h"
 1572 1d44 03       		.byte	0x3
 1573 1d45 05       		.uleb128 0x5
 1574 1d46 08       		.uleb128 0x8
 1575 1d47 01       		.byte	0x1
 1576 1d48 02       		.uleb128 0x2
 1577 1d49 5F6F735F 		.ascii "_os_stack_h_ \0"
 1577      73746163 
 1577      6B5F685F 
 1577      2000
 1578 1d57 01       		.byte	0x1
 1579 1d58 04       		.uleb128 0x4
 1580 1d59 4F535F53 		.ascii "OS_STACK_SIZE 0x100\0"
 1580      5441434B 
 1580      5F53495A 
 1580      45203078 
 1580      31303000 
 1581 1d6d 01       		.byte	0x1
 1582 1d6e 06       		.uleb128 0x6
 1583 1d6f 4F535F53 		.ascii "OS_STACK_SIZE_END 0x01u\0"
 1583      5441434B 
 1583      5F53495A 
 1583      455F454E 
 1583      44203078 
 1584 1d87 04       		.byte	0x4
 1585              		.file 9 "E:/NeuOrga/Programmieren/c_cpp/github_os/input/src/os_base/../os_base/os_heap.h"
 1586 1d88 03       		.byte	0x3
 1587 1d89 06       		.uleb128 0x6
 1588 1d8a 09       		.uleb128 0x9
 1589 1d8b 01       		.byte	0x1
 1590 1d8c 02       		.uleb128 0x2
 1591 1d8d 5F6F735F 		.ascii "_os_heap_h_ \0"
 1591      68656170 
 1591      5F685F20 
 1591      00
 1592 1d9a 01       		.byte	0x1
 1593 1d9b 05       		.uleb128 0x5
GAS LISTING C:\Users\PRESID~1\AppData\Local\Temp\ccWfuJY7.s 			page 51


 1594 1d9c 48454150 		.ascii "HEAP_SIZE 10000\0"
 1594      5F53495A 
 1594      45203130 
 1594      30303000 
 1595 1dac 01       		.byte	0x1
 1596 1dad 06       		.uleb128 0x6
 1597 1dae 4D494E5F 		.ascii "MIN_BLOCK_SIZE_HEAP 8\0"
 1597      424C4F43 
 1597      4B5F5349 
 1597      5A455F48 
 1597      45415020 
 1598 1dc4 01       		.byte	0x1
 1599 1dc5 09       		.uleb128 0x9
 1600 1dc6 48454150 		.ascii "HEAP_OFFSET_FOR_SIZE 0\0"
 1600      5F4F4646 
 1600      5345545F 
 1600      464F525F 
 1600      53495A45 
 1601 1ddd 01       		.byte	0x1
 1602 1dde 0A       		.uleb128 0xa
 1603 1ddf 48454150 		.ascii "HEAP_OFFSET_FOR_USED_SIZE 4\0"
 1603      5F4F4646 
 1603      5345545F 
 1603      464F525F 
 1603      55534544 
 1604 1dfb 01       		.byte	0x1
 1605 1dfc 0B       		.uleb128 0xb
 1606 1dfd 48454150 		.ascii "HEAP_OFFSET_FOR_CHUNK 8\0"
 1606      5F4F4646 
 1606      5345545F 
 1606      464F525F 
 1606      4348554E 
 1607 1e15 04       		.byte	0x4
 1608 1e16 04       		.byte	0x4
 1609              		.file 10 "E:/NeuOrga/Programmieren/c_cpp/github_os/input/src/os_base/../os_sim/lld_global.h"
 1610 1e17 03       		.byte	0x3
 1611 1e18 0A       		.uleb128 0xa
 1612 1e19 0A       		.uleb128 0xa
 1613 1e1a 01       		.byte	0x1
 1614 1e1b 02       		.uleb128 0x2
 1615 1e1c 5F6C6C64 		.ascii "_lld_global_h_ \0"
 1615      5F676C6F 
 1615      62616C5F 
 1615      685F2000 
 1616              		.file 11 "E:/NeuOrga/Programmieren/c_cpp/github_os/input/src/os_base/../os_sim/lld_core.h"
 1617 1e2c 03       		.byte	0x3
 1618 1e2d 04       		.uleb128 0x4
 1619 1e2e 0B       		.uleb128 0xb
 1620 1e2f 01       		.byte	0x1
 1621 1e30 02       		.uleb128 0x2
 1622 1e31 5F6C6C64 		.ascii "_lld_core_h_ \0"
 1622      5F636F72 
 1622      655F685F 
 1622      2000
 1623              		.file 12 "E:/NeuOrga/Programmieren/c_cpp/github_os/input/src/os_base/../os_sim/../os_base/os_first
 1624 1e3f 03       		.byte	0x3
 1625 1e40 03       		.uleb128 0x3
GAS LISTING C:\Users\PRESID~1\AppData\Local\Temp\ccWfuJY7.s 			page 52


 1626 1e41 0C       		.uleb128 0xc
 1627 1e42 04       		.byte	0x4
 1628 1e43 04       		.byte	0x4
 1629              		.file 13 "E:/NeuOrga/Programmieren/c_cpp/github_os/input/src/os_base/../os_sim/lld_interrupt.h"
 1630 1e44 03       		.byte	0x3
 1631 1e45 05       		.uleb128 0x5
 1632 1e46 0D       		.uleb128 0xd
 1633 1e47 01       		.byte	0x1
 1634 1e48 02       		.uleb128 0x2
 1635 1e49 5F6C6C64 		.ascii "_lld_interrupt_h_ \0"
 1635      5F696E74 
 1635      65727275 
 1635      70745F68 
 1635      5F2000
 1636 1e5c 01       		.byte	0x1
 1637 1e5d 05       		.uleb128 0x5
 1638 1e5e 6F735F69 		.ascii "os_interrupt_swi_1 asm(\"swi 1\")\0"
 1638      6E746572 
 1638      72757074 
 1638      5F737769 
 1638      5F312061 
 1639 1e7e 01       		.byte	0x1
 1640 1e7f 06       		.uleb128 0x6
 1641 1e80 6F735F69 		.ascii "os_interrupt_swi_2 asm(\"swi 2\")\0"
 1641      6E746572 
 1641      72757074 
 1641      5F737769 
 1641      5F322061 
 1642 1ea0 01       		.byte	0x1
 1643 1ea1 07       		.uleb128 0x7
 1644 1ea2 6F735F69 		.ascii "os_interrupt_swi_3 asm(\"swi 3\")\0"
 1644      6E746572 
 1644      72757074 
 1644      5F737769 
 1644      5F332061 
 1645 1ec2 01       		.byte	0x1
 1646 1ec3 08       		.uleb128 0x8
 1647 1ec4 6F735F69 		.ascii "os_interrupt_swi_4 asm(\"swi 4\")\0"
 1647      6E746572 
 1647      72757074 
 1647      5F737769 
 1647      5F342061 
 1648 1ee4 01       		.byte	0x1
 1649 1ee5 09       		.uleb128 0x9
 1650 1ee6 6F735F69 		.ascii "os_interrupt_swi_5 asm(\"swi 5\")\0"
 1650      6E746572 
 1650      72757074 
 1650      5F737769 
 1650      5F352061 
 1651 1f06 04       		.byte	0x4
 1652              		.file 14 "E:/NeuOrga/Programmieren/c_cpp/github_os/input/src/os_base/../os_sim/lld_mmu.h"
 1653 1f07 03       		.byte	0x3
 1654 1f08 06       		.uleb128 0x6
 1655 1f09 0E       		.uleb128 0xe
 1656 1f0a 01       		.byte	0x1
 1657 1f0b 02       		.uleb128 0x2
 1658 1f0c 5F6C6C64 		.ascii "_lld_mmu_h_ \0"
GAS LISTING C:\Users\PRESID~1\AppData\Local\Temp\ccWfuJY7.s 			page 53


 1658      5F6D6D75 
 1658      5F685F20 
 1658      00
 1659 1f19 04       		.byte	0x4
 1660              		.file 15 "E:/NeuOrga/Programmieren/c_cpp/github_os/input/src/os_base/../os_sim/lld_timer.h"
 1661 1f1a 03       		.byte	0x3
 1662 1f1b 07       		.uleb128 0x7
 1663 1f1c 0F       		.uleb128 0xf
 1664 1f1d 01       		.byte	0x1
 1665 1f1e 02       		.uleb128 0x2
 1666 1f1f 5F6C6C64 		.ascii "_lld_timer_h_ \0"
 1666      5F74696D 
 1666      65725F68 
 1666      5F2000
 1667 1f2e 04       		.byte	0x4
 1668              		.file 16 "E:/NeuOrga/Programmieren/c_cpp/github_os/input/src/os_base/../os_sim/lld_power.h"
 1669 1f2f 03       		.byte	0x3
 1670 1f30 08       		.uleb128 0x8
 1671 1f31 10       		.uleb128 0x10
 1672 1f32 01       		.byte	0x1
 1673 1f33 02       		.uleb128 0x2
 1674 1f34 5F6C6C64 		.ascii "_lld_power_h_ \0"
 1674      5F706F77 
 1674      65725F68 
 1674      5F2000
 1675 1f43 04       		.byte	0x4
 1676              		.file 17 "E:/NeuOrga/Programmieren/c_cpp/github_os/input/src/os_base/../os_sim/lld_ram.h"
 1677 1f44 03       		.byte	0x3
 1678 1f45 09       		.uleb128 0x9
 1679 1f46 11       		.uleb128 0x11
 1680 1f47 01       		.byte	0x1
 1681 1f48 02       		.uleb128 0x2
 1682 1f49 5F6C6C64 		.ascii "_lld_ram_h_ \0"
 1682      5F72616D 
 1682      5F685F20 
 1682      00
 1683 1f56 04       		.byte	0x4
 1684              		.file 18 "E:/NeuOrga/Programmieren/c_cpp/github_os/input/src/os_base/../os_sim/../os_base/os_task_
 1685 1f57 03       		.byte	0x3
 1686 1f58 0A       		.uleb128 0xa
 1687 1f59 12       		.uleb128 0x12
 1688 1f5a 01       		.byte	0x1
 1689 1f5b 02       		.uleb128 0x2
 1690 1f5c 5F6F735F 		.ascii "_os_task_common_h_ \0"
 1690      7461736B 
 1690      5F636F6D 
 1690      6D6F6E5F 
 1690      685F2000 
 1691              		.file 19 "E:/NeuOrga/Programmieren/c_cpp/github_os/input/src/os_base/../os_sim/../os_base/os_task_
 1692 1f70 03       		.byte	0x3
 1693 1f71 04       		.uleb128 0x4
 1694 1f72 13       		.uleb128 0x13
 1695 1f73 01       		.byte	0x1
 1696 1f74 02       		.uleb128 0x2
 1697 1f75 5F6F735F 		.ascii "_os_task_config_h_ \0"
 1697      7461736B 
 1697      5F636F6E 
GAS LISTING C:\Users\PRESID~1\AppData\Local\Temp\ccWfuJY7.s 			page 54


 1697      6669675F 
 1697      685F2000 
 1698 1f89 01       		.byte	0x1
 1699 1f8a 05       		.uleb128 0x5
 1700 1f8b 53636865 		.ascii "SchedulerFrequency (1.0e3)\0"
 1700      64756C65 
 1700      72467265 
 1700      7175656E 
 1700      63792028 
 1701 1fa6 01       		.byte	0x1
 1702 1fa7 06       		.uleb128 0x6
 1703 1fa8 4D696E54 		.ascii "MinTimeSlice_s (1.0/SchedulerFrequency)\0"
 1703      696D6553 
 1703      6C696365 
 1703      5F732028 
 1703      312E302F 
 1704 1fd0 01       		.byte	0x1
 1705 1fd1 07       		.uleb128 0x7
 1706 1fd2 4D696E54 		.ascii "MinTimeSlice_us ((1.0/SchedulerFrequency)*1e6)\0"
 1706      696D6553 
 1706      6C696365 
 1706      5F757320 
 1706      2828312E 
 1707 2001 01       		.byte	0x1
 1708 2002 08       		.uleb128 0x8
 1709 2003 5461736B 		.ascii "Task_min_time (1e0)\0"
 1709      5F6D696E 
 1709      5F74696D 
 1709      65202831 
 1709      65302900 
 1710 2017 01       		.byte	0x1
 1711 2018 09       		.uleb128 0x9
 1712 2019 4E554D42 		.ascii "NUMBER_OF_TASKS 5\0"
 1712      45525F4F 
 1712      465F5441 
 1712      534B5320 
 1712      3500
 1713 202b 01       		.byte	0x1
 1714 202c 0A       		.uleb128 0xa
 1715 202d 4D41585F 		.ascii "MAX_RUN_QUEUE_SIZE (NUMBER_OF_TASKS)\0"
 1715      52554E5F 
 1715      51554555 
 1715      455F5349 
 1715      5A452028 
 1716 2052 01       		.byte	0x1
 1717 2053 0B       		.uleb128 0xb
 1718 2054 4D41585F 		.ascii "MAX_RUN_PQUEUE_SIZE MAX_RUN_QUEUE_SIZE\0"
 1718      52554E5F 
 1718      50515545 
 1718      55455F53 
 1718      495A4520 
 1719 207b 01       		.byte	0x1
 1720 207c 0D       		.uleb128 0xd
 1721 207d 5441534B 		.ascii "TASK_STACK_SIZE 200\0"
 1721      5F535441 
 1721      434B5F53 
 1721      495A4520 
GAS LISTING C:\Users\PRESID~1\AppData\Local\Temp\ccWfuJY7.s 			page 55


 1721      32303000 
 1722 2091 01       		.byte	0x1
 1723 2092 10       		.uleb128 0x10
 1724 2093 4D535F50 		.ascii "MS_PER_SEC (1000)\0"
 1724      45525F53 
 1724      45432028 
 1724      31303030 
 1724      2900
 1725 20a5 01       		.byte	0x1
 1726 20a6 11       		.uleb128 0x11
 1727 20a7 5553455F 		.ascii "USE_STATIC_CREATED_TASKS True\0"
 1727      53544154 
 1727      49435F43 
 1727      52454154 
 1727      45445F54 
 1728 20c5 04       		.byte	0x4
 1729              		.file 20 "E:/NeuOrga/Programmieren/c_cpp/github_os/input/src/os_base/../os_sim/../os_base/os_init_
 1730 20c6 03       		.byte	0x3
 1731 20c7 05       		.uleb128 0x5
 1732 20c8 14       		.uleb128 0x14
 1733 20c9 01       		.byte	0x1
 1734 20ca 02       		.uleb128 0x2
 1735 20cb 5F6F735F 		.ascii "_os_init_task_system_h_ \0"
 1735      696E6974 
 1735      5F746173 
 1735      6B5F7379 
 1735      7374656D 
 1736 20e4 04       		.byte	0x4
 1737 20e5 01       		.byte	0x1
 1738 20e6 5C       		.uleb128 0x5c
 1739 20e7 6F735F53 		.ascii "os_SaveTaskPtr(task_ptr,task_name) (TASK_PTR[(task_name)] = (task_ptr))\0"
 1739      61766554 
 1739      61736B50 
 1739      74722874 
 1739      61736B5F 
 1740 212f 01       		.byte	0x1
 1741 2130 5D       		.uleb128 0x5d
 1742 2131 6F735F47 		.ascii "os_GetTaskPtr(task_name) ((task_t*) TASK_PTR[(task_name)])\0"
 1742      65745461 
 1742      736B5074 
 1742      72287461 
 1742      736B5F6E 
 1743 216c 04       		.byte	0x4
 1744 216d 04       		.byte	0x4
 1745              		.file 21 "E:/NeuOrga/Programmieren/c_cpp/github_os/input/src/os_base/../os_user_code/led.h"
 1746 216e 03       		.byte	0x3
 1747 216f 0E       		.uleb128 0xe
 1748 2170 15       		.uleb128 0x15
 1749 2171 01       		.byte	0x1
 1750 2172 02       		.uleb128 0x2
 1751 2173 5F4C4544 		.ascii "_LED_H_ \0"
 1751      5F485F20 
 1751      00
 1752 217c 04       		.byte	0x4
 1753 217d 04       		.byte	0x4
 1754              		.file 22 "E:/NeuOrga/Programmieren/c_cpp/github_os/input/src/os_base/os_exception_isr_handler.h"
 1755 217e 03       		.byte	0x3
GAS LISTING C:\Users\PRESID~1\AppData\Local\Temp\ccWfuJY7.s 			page 56


 1756 217f 02       		.uleb128 0x2
 1757 2180 16       		.uleb128 0x16
 1758 2181 01       		.byte	0x1
 1759 2182 02       		.uleb128 0x2
 1760 2183 5F6F735F 		.ascii "_os_exception_isr_handler_h_ \0"
 1760      65786365 
 1760      7074696F 
 1760      6E5F6973 
 1760      725F6861 
 1761 21a1 01       		.byte	0x1
 1762 21a2 04       		.uleb128 0x4
 1763 21a3 49535220 		.ascii "ISR void\0"
 1763      766F6964 
 1763      00
 1764 21ac 04       		.byte	0x4
 1765 21ad 03       		.byte	0x3
 1766 21ae 03       		.uleb128 0x3
 1767 21af 04       		.uleb128 0x4
 1768 21b0 01       		.byte	0x1
 1769 21b1 02       		.uleb128 0x2
 1770 21b2 5F6F735F 		.ascii "_os_shutdown_h_ \0"
 1770      73687574 
 1770      646F776E 
 1770      5F685F20 
 1770      00
 1771 21c3 04       		.byte	0x4
 1772              		.file 23 "E:/NeuOrga/Programmieren/c_cpp/github_os/input/src/os_base/os_start_os.h"
 1773 21c4 03       		.byte	0x3
 1774 21c5 04       		.uleb128 0x4
 1775 21c6 17       		.uleb128 0x17
 1776 21c7 01       		.byte	0x1
 1777 21c8 02       		.uleb128 0x2
 1778 21c9 5F6F735F 		.ascii "_os_start_os_h_ \0"
 1778      73746172 
 1778      745F6F73 
 1778      5F685F20 
 1778      00
 1779 21da 04       		.byte	0x4
 1780              		.file 24 "E:/NeuOrga/Programmieren/c_cpp/github_os/input/src/os_base/os_ram.h"
 1781 21db 03       		.byte	0x3
 1782 21dc 05       		.uleb128 0x5
 1783 21dd 18       		.uleb128 0x18
 1784 21de 04       		.byte	0x4
 1785 21df 01       		.byte	0x1
 1786 21e0 0B       		.uleb128 0xb
 1787 21e1 48415244 		.ascii "HARDFAULT_STATUS_REG ((volatile uint32*)0xE000ED2Cu)\0"
 1787      4641554C 
 1787      545F5354 
 1787      41545553 
 1787      5F524547 
 1788 2216 01       		.byte	0x1
 1789 2217 0C       		.uleb128 0xc
 1790 2218 4D454D5F 		.ascii "MEM_MANAG_FAULT_STATUS_REG ((volatile uint8*)0xE000ED28u)\0"
 1790      4D414E41 
 1790      475F4641 
 1790      554C545F 
 1790      53544154 
GAS LISTING C:\Users\PRESID~1\AppData\Local\Temp\ccWfuJY7.s 			page 57


 1791 2252 01       		.byte	0x1
 1792 2253 0D       		.uleb128 0xd
 1793 2254 4255535F 		.ascii "BUS_FAULT_STATUS_REG ((volatile uint8*)0xE000ED29u)\0"
 1793      4641554C 
 1793      545F5354 
 1793      41545553 
 1793      5F524547 
 1794 2288 01       		.byte	0x1
 1795 2289 0E       		.uleb128 0xe
 1796 228a 55534147 		.ascii "USAGE_FAULT_STATUS_REG ((volatile uint16*)0xE000ED2Au)\0"
 1796      455F4641 
 1796      554C545F 
 1796      53544154 
 1796      55535F52 
 1797 22c1 01       		.byte	0x1
 1798 22c2 0F       		.uleb128 0xf
 1799 22c3 4D454D5F 		.ascii "MEM_FAULT_ADDR_REG ((volatile uint32*)0xE000ED34u)\0"
 1799      4641554C 
 1799      545F4144 
 1799      44525F52 
 1799      45472028 
 1800 22f6 01       		.byte	0x1
 1801 22f7 10       		.uleb128 0x10
 1802 22f8 4255535F 		.ascii "BUS_FAULT_ADDR_REG ((volatile uint32*)0xE000ED38u)\0"
 1802      4641554C 
 1802      545F4144 
 1802      44525F52 
 1802      45472028 
 1803 232b 01       		.byte	0x1
 1804 232c 11       		.uleb128 0x11
 1805 232d 4155585F 		.ascii "AUX_FAULT_STATUS_REG ((volatile uint32*)0xE000ED3Cu)\0"
 1805      4641554C 
 1805      545F5354 
 1805      41545553 
 1805      5F524547 
 1806 2362 04       		.byte	0x4
 1807 2363 00       		.byte	0
 1808              		.section	.debug_line,"dr"
 1809              	Ldebug_line0:
 1810 0000 69030000 		.section	.debug_str,"dr"
 1810      02000103 
 1810      00000101 
 1810      FB0E0D00 
 1810      01010101 
 1811              		.ident	"GCC: (GNU) 4.9.3"
GAS LISTING C:\Users\PRESID~1\AppData\Local\Temp\ccWfuJY7.s 			page 58


DEFINED SYMBOLS
                            *ABS*:00000000 os_exception.c
C:\Users\PRESID~1\AppData\Local\Temp\ccWfuJY7.s:5      .text:00000000 _OS_Exception_Read_Status_Registers
C:\Users\PRESID~1\AppData\Local\Temp\ccWfuJY7.s:55     .text:00000063 _OS_Exception_HARDFAULT
C:\Users\PRESID~1\AppData\Local\Temp\ccWfuJY7.s:73     .text:0000006d _OS_Exception_NMI
C:\Users\PRESID~1\AppData\Local\Temp\ccWfuJY7.s:91     .text:00000077 _OS_Exception_SWI
C:\Users\PRESID~1\AppData\Local\Temp\ccWfuJY7.s:112    .text:00000084 _OS_Exception_BUS_FAULT
C:\Users\PRESID~1\AppData\Local\Temp\ccWfuJY7.s:130    .text:0000008e _OS_Exception_DEBUG
C:\Users\PRESID~1\AppData\Local\Temp\ccWfuJY7.s:148    .text:00000098 _OS_Exception_MEM_MANAG_FAULT
C:\Users\PRESID~1\AppData\Local\Temp\ccWfuJY7.s:166    .text:000000a2 _OS_Exception_USAGE_FAULT
C:\Users\PRESID~1\AppData\Local\Temp\ccWfuJY7.s:184    .text:000000ac _OS_Exception_PendSV
C:\Users\PRESID~1\AppData\Local\Temp\ccWfuJY7.s:200    .text:000000b1 _OS_Exception_Systick
C:\Users\PRESID~1\AppData\Local\Temp\ccWfuJY7.s:216    .text:000000b6 _OS_Exception_IRQ
C:\Users\PRESID~1\AppData\Local\Temp\ccWfuJY7.s:237    .text:000000c3 _OS_Exception_FIQ
C:\Users\PRESID~1\AppData\Local\Temp\ccWfuJY7.s:258    .text:000000d0 _TCMP1
C:\Users\PRESID~1\AppData\Local\Temp\ccWfuJY7.s:279    .text:000000dd _TCMP2
C:\Users\PRESID~1\AppData\Local\Temp\ccWfuJY7.s:300    .text:000000ea _TCMP3
C:\Users\PRESID~1\AppData\Local\Temp\ccWfuJY7.s:321    .text:000000f7 _TCMP4

UNDEFINED SYMBOLS
_VAR_HARDFAULT_STATUS_REG
_VAR_MEM_MANAG_FAULT_STATUS_REG
_VAR_BUS_FAULT_STATUS_REG
_VAR_USAGE_FAULT_STATUS_REG
_VAR_MEM_FAULT_ADDR_REG
_VAR_BUS_FAULT_ADDR_REG
_VAR_AUX_FAULT_STATUS_REG
_OS_ISRHANDLERC0
_OS_ISRHANDLERC1
_OS_ISRHANDLERC2
_OS_ISRHANDLERC3
