GAS LISTING C:\Users\PRESID~1\AppData\Local\Temp\ccHfs0ra.s 			page 1


   1              		.file	"os_exception_isr_handler.c"
   2              		.text
   3              	Ltext0:
   4              		.globl	_OS_ISRHANDLERC0
   6              	_OS_ISRHANDLERC0:
   7              	LFB0:
   8              		.file 1 "E:/NeuOrga/Programmieren/c_cpp/github_os/input/src/os_base/os_exception_isr_handler.c"
   1:E:/NeuOrga/Programmieren/c_cpp/github_os/input/src/os_base\os_exception_isr_handler.c **** #include "os_firstinc.h"
   2:E:/NeuOrga/Programmieren/c_cpp/github_os/input/src/os_base\os_exception_isr_handler.c **** #include "os_task_common.h"
   3:E:/NeuOrga/Programmieren/c_cpp/github_os/input/src/os_base\os_exception_isr_handler.c **** #include "os_task_scheduler.h"
   4:E:/NeuOrga/Programmieren/c_cpp/github_os/input/src/os_base\os_exception_isr_handler.c **** #include "os_shutdown.h"
   5:E:/NeuOrga/Programmieren/c_cpp/github_os/input/src/os_base\os_exception_isr_handler.c **** #include "os_exception_isr_handler.h"
   6:E:/NeuOrga/Programmieren/c_cpp/github_os/input/src/os_base\os_exception_isr_handler.c **** 
   7:E:/NeuOrga/Programmieren/c_cpp/github_os/input/src/os_base\os_exception_isr_handler.c **** 
   8:E:/NeuOrga/Programmieren/c_cpp/github_os/input/src/os_base\os_exception_isr_handler.c **** 
   9:E:/NeuOrga/Programmieren/c_cpp/github_os/input/src/os_base\os_exception_isr_handler.c **** void OS_ISRHANDLERC0(uint32 svc_number)
  10:E:/NeuOrga/Programmieren/c_cpp/github_os/input/src/os_base\os_exception_isr_handler.c **** {
   9              		.loc 1 10 0
  10              		.cfi_startproc
  11 0000 55       		pushl	%ebp
  12              		.cfi_def_cfa_offset 8
  13              		.cfi_offset 5, -8
  14 0001 89E5     		movl	%esp, %ebp
  15              		.cfi_def_cfa_register 5
  16 0003 83EC18   		subl	$24, %esp
  11:E:/NeuOrga/Programmieren/c_cpp/github_os/input/src/os_base\os_exception_isr_handler.c ****    switch(svc_number)/* Implement needed SVC numbers (need for example for user code to access priv
  17              		.loc 1 11 0
  18 0006 8B4508   		movl	8(%ebp), %eax
  19 0009 85C0     		testl	%eax, %eax
  20 000b 742B     		je	L5
  12:E:/NeuOrga/Programmieren/c_cpp/github_os/input/src/os_base\os_exception_isr_handler.c ****    {
  13:E:/NeuOrga/Programmieren/c_cpp/github_os/input/src/os_base\os_exception_isr_handler.c ****    case SVC_00:            /* Handle SVC 00 */
  14:E:/NeuOrga/Programmieren/c_cpp/github_os/input/src/os_base\os_exception_isr_handler.c ****    {
  15:E:/NeuOrga/Programmieren/c_cpp/github_os/input/src/os_base\os_exception_isr_handler.c ****       /* svc_00 implemented as reference only */
  16:E:/NeuOrga/Programmieren/c_cpp/github_os/input/src/os_base\os_exception_isr_handler.c ****       REFERENCE_UNUSED_PARAMETER(svc_number);
  17:E:/NeuOrga/Programmieren/c_cpp/github_os/input/src/os_base\os_exception_isr_handler.c ****       break;
  18:E:/NeuOrga/Programmieren/c_cpp/github_os/input/src/os_base\os_exception_isr_handler.c ****    }
  19:E:/NeuOrga/Programmieren/c_cpp/github_os/input/src/os_base\os_exception_isr_handler.c ****    default:                /* Unknown SVC */
  20:E:/NeuOrga/Programmieren/c_cpp/github_os/input/src/os_base\os_exception_isr_handler.c ****    {
  21:E:/NeuOrga/Programmieren/c_cpp/github_os/input/src/os_base\os_exception_isr_handler.c ****       OS_SET_SW_BUG(E_OS_BUG_SVC_NUMBER_MISSING, E_FUNC_ISRHANDLER);
  21              		.loc 1 21 0
  22 000d C7442404 		movl	$18, 4(%esp)
  22      12000000 
  23 0015 C704240A 		movl	$10, (%esp)
  23      000000
  24 001c E8000000 		call	_OS_SET_SW_BUG
  24      00
  22:E:/NeuOrga/Programmieren/c_cpp/github_os/input/src/os_base\os_exception_isr_handler.c ****       OS_SHUTDOWN(E_OS_RESET_HARDRESET,0u);
  25              		.loc 1 22 0
  26 0021 C7442404 		movl	$0, 4(%esp)
  26      00000000 
  27 0029 C7042400 		movl	$0, (%esp)
  27      000000
  28 0030 E8000000 		call	_OS_SHUTDOWN
  28      00
  23:E:/NeuOrga/Programmieren/c_cpp/github_os/input/src/os_base\os_exception_isr_handler.c ****       break;
  29              		.loc 1 23 0
GAS LISTING C:\Users\PRESID~1\AppData\Local\Temp\ccHfs0ra.s 			page 2


  30 0035 90       		nop
  31 0036 EB01     		jmp	L1
  32              	L5:
  17:E:/NeuOrga/Programmieren/c_cpp/github_os/input/src/os_base\os_exception_isr_handler.c ****    }
  33              		.loc 1 17 0
  34 0038 90       		nop
  35              	L1:
  24:E:/NeuOrga/Programmieren/c_cpp/github_os/input/src/os_base\os_exception_isr_handler.c ****    }
  25:E:/NeuOrga/Programmieren/c_cpp/github_os/input/src/os_base\os_exception_isr_handler.c ****    }
  26:E:/NeuOrga/Programmieren/c_cpp/github_os/input/src/os_base\os_exception_isr_handler.c **** }...
  36              		.loc 1 26 0
  37 0039 C9       		leave
  38              		.cfi_restore 5
  39              		.cfi_def_cfa 4, 4
  40 003a C3       		ret
  41              		.cfi_endproc
  42              	LFE0:
  43              	Letext0:
  44              		.file 2 "E:/NeuOrga/Programmieren/c_cpp/github_os/input/src/os_base/../os_base/os_common.h"
  45              		.file 3 "E:/NeuOrga/Programmieren/c_cpp/github_os/input/src/os_base/os_shutdown.h"
  46              		.file 4 "E:/NeuOrga/Programmieren/c_cpp/github_os/input/src/os_base/../os_base/os_base_types.h"