GAS LISTING C:\Users\PRESID~1\AppData\Local\Temp\ccOK1yOd.s 			page 1


   1              		.file	"os_heap.c"
   2              		.text
   3              	Ltext0:
   4              		.globl	_os_calloc
   6              	_os_calloc:
   7              	LFB0:
   8              		.file 1 "E:/NeuOrga/Programmieren/c_cpp/github_os/input/src/os_base/os_heap.c"
   1:E:/NeuOrga/Programmieren/c_cpp/github_os/input/src/os_base\os_heap.c **** #include "os_firstinc.h"
   2:E:/NeuOrga/Programmieren/c_cpp/github_os/input/src/os_base\os_heap.c **** #include "..\os_base\os_heap.h"
   3:E:/NeuOrga/Programmieren/c_cpp/github_os/input/src/os_base\os_heap.c **** 
   4:E:/NeuOrga/Programmieren/c_cpp/github_os/input/src/os_base\os_heap.c **** Local uint32 GET_UINT32_OF_4UINT8(uint8* ptr);
   5:E:/NeuOrga/Programmieren/c_cpp/github_os/input/src/os_base\os_heap.c **** Local void SET_4UINT8_TO_UINT32(uint8* ptr, uint32 value);
   6:E:/NeuOrga/Programmieren/c_cpp/github_os/input/src/os_base\os_heap.c **** 
   7:E:/NeuOrga/Programmieren/c_cpp/github_os/input/src/os_base\os_heap.c **** /* Allocate and zero-initialize array
   8:E:/NeuOrga/Programmieren/c_cpp/github_os/input/src/os_base\os_heap.c **** --------------------------------------------------------------------
   9:E:/NeuOrga/Programmieren/c_cpp/github_os/input/src/os_base\os_heap.c **** Allocates a block of memory for an array of num elements,
  10:E:/NeuOrga/Programmieren/c_cpp/github_os/input/src/os_base\os_heap.c **** each of them size bytes long, and initializes all its bits to zero. */
  11:E:/NeuOrga/Programmieren/c_cpp/github_os/input/src/os_base\os_heap.c **** void* os_calloc(uint32 num, uint32 size)
  12:E:/NeuOrga/Programmieren/c_cpp/github_os/input/src/os_base\os_heap.c **** {
   9              		.loc 1 12 0
  10              		.cfi_startproc
  11 0000 55       		pushl	%ebp
  12              		.cfi_def_cfa_offset 8
  13              		.cfi_offset 5, -8
  14 0001 89E5     		movl	%esp, %ebp
  15              		.cfi_def_cfa_register 5
  16 0003 83EC28   		subl	$40, %esp
  13:E:/NeuOrga/Programmieren/c_cpp/github_os/input/src/os_base\os_heap.c ****    uint8* ptr = (uint8*) os_malloc(num*size);
  17              		.loc 1 13 0
  18 0006 8B4508   		movl	8(%ebp), %eax
  19 0009 0FAF450C 		imull	12(%ebp), %eax
  20 000d 890424   		movl	%eax, (%esp)
  21 0010 E8AF0000 		call	_os_malloc
  21      00
  22 0015 8945F0   		movl	%eax, -16(%ebp)
  14:E:/NeuOrga/Programmieren/c_cpp/github_os/input/src/os_base\os_heap.c ****    /* zero initialize the RAM*/
  15:E:/NeuOrga/Programmieren/c_cpp/github_os/input/src/os_base\os_heap.c ****    uint32 i;
  16:E:/NeuOrga/Programmieren/c_cpp/github_os/input/src/os_base\os_heap.c ****    for(i = 0u; i < (size*num); i++)
  23              		.loc 1 16 0
  24 0018 C745F400 		movl	$0, -12(%ebp)
  24      000000
  25 001f EB0E     		jmp	L2
  26              	L3:
  17:E:/NeuOrga/Programmieren/c_cpp/github_os/input/src/os_base\os_heap.c ****    {
  18:E:/NeuOrga/Programmieren/c_cpp/github_os/input/src/os_base\os_heap.c ****       *((uint8*)ptr + (uint32)i) = 0x00u;
  27              		.loc 1 18 0 discriminator 3
  28 0021 8B55F0   		movl	-16(%ebp), %edx
  29 0024 8B45F4   		movl	-12(%ebp), %eax
  30 0027 01D0     		addl	%edx, %eax
  31 0029 C60000   		movb	$0, (%eax)
  16:E:/NeuOrga/Programmieren/c_cpp/github_os/input/src/os_base\os_heap.c ****    {
  32              		.loc 1 16 0 discriminator 3
  33 002c FF45F4   		incl	-12(%ebp)
  34              	L2:
  16:E:/NeuOrga/Programmieren/c_cpp/github_os/input/src/os_base\os_heap.c ****    {
  35              		.loc 1 16 0 is_stmt 0 discriminator 1
  36 002f 8B450C   		movl	12(%ebp), %eax
GAS LISTING C:\Users\PRESID~1\AppData\Local\Temp\ccOK1yOd.s 			page 2


  37 0032 0FAF4508 		imull	8(%ebp), %eax
  38 0036 3B45F4   		cmpl	-12(%ebp), %eax
  39 0039 77E6     		ja	L3
  19:E:/NeuOrga/Programmieren/c_cpp/github_os/input/src/os_base\os_heap.c ****    }
  20:E:/NeuOrga/Programmieren/c_cpp/github_os/input/src/os_base\os_heap.c ****    return (void*) ptr;
  40              		.loc 1 20 0 is_stmt 1
  41 003b 8B45F0   		movl	-16(%ebp), %eax
  21:E:/NeuOrga/Programmieren/c_cpp/github_os/input/src/os_base\os_heap.c **** }
  42              		.loc 1 21 0
  43 003e C9       		leave
  44              		.cfi_restore 5
  45              		.cfi_def_cfa 4, 4
  46 003f C3       		ret
  47              		.cfi_endproc
  48              	LFE0:
  49              		.globl	_os_realloc
  51              	_os_realloc:
  52              	LFB1:
  22:E:/NeuOrga/Programmieren/c_cpp/github_os/input/src/os_base\os_heap.c **** /*
  23:E:/NeuOrga/Programmieren/c_cpp/github_os/input/src/os_base\os_heap.c **** Reallocate memory block
  24:E:/NeuOrga/Programmieren/c_cpp/github_os/input/src/os_base\os_heap.c **** --------------------------------------------------------------------
  25:E:/NeuOrga/Programmieren/c_cpp/github_os/input/src/os_base\os_heap.c **** Changes the size of the memory block pointed to by ptr.
  26:E:/NeuOrga/Programmieren/c_cpp/github_os/input/src/os_base\os_heap.c **** The function may move the memory block to a new location
  27:E:/NeuOrga/Programmieren/c_cpp/github_os/input/src/os_base\os_heap.c ****  (whose address is returned by the function). The content of the memory
  28:E:/NeuOrga/Programmieren/c_cpp/github_os/input/src/os_base\os_heap.c ****  block is preserved up to the lesser of the new and old sizes,
  29:E:/NeuOrga/Programmieren/c_cpp/github_os/input/src/os_base\os_heap.c ****  even if the block is moved to a new location. If the new size is larger,
  30:E:/NeuOrga/Programmieren/c_cpp/github_os/input/src/os_base\os_heap.c ****  the value of the newly allocated portion is indeterminate.
  31:E:/NeuOrga/Programmieren/c_cpp/github_os/input/src/os_base\os_heap.c **** In case that ptr is a null pointer, the function behaves like malloc,
  32:E:/NeuOrga/Programmieren/c_cpp/github_os/input/src/os_base\os_heap.c **** assigning a new block of size bytes and returning a pointer to its beginning.
  33:E:/NeuOrga/Programmieren/c_cpp/github_os/input/src/os_base\os_heap.c **** */
  34:E:/NeuOrga/Programmieren/c_cpp/github_os/input/src/os_base\os_heap.c **** void* os_realloc(void* ptr_old, uint32 size_new)
  35:E:/NeuOrga/Programmieren/c_cpp/github_os/input/src/os_base\os_heap.c **** {
  53              		.loc 1 35 0
  54              		.cfi_startproc
  55 0040 55       		pushl	%ebp
  56              		.cfi_def_cfa_offset 8
  57              		.cfi_offset 5, -8
  58 0041 89E5     		movl	%esp, %ebp
  59              		.cfi_def_cfa_register 5
  60 0043 83EC28   		subl	$40, %esp
  36:E:/NeuOrga/Programmieren/c_cpp/github_os/input/src/os_base\os_heap.c ****    uint32 i;
  37:E:/NeuOrga/Programmieren/c_cpp/github_os/input/src/os_base\os_heap.c ****    void* ptr_new = 0u;
  61              		.loc 1 37 0
  62 0046 C745F000 		movl	$0, -16(%ebp)
  62      000000
  38:E:/NeuOrga/Programmieren/c_cpp/github_os/input/src/os_base\os_heap.c ****    if(ptr_old == 0u)/* just allocate the new RAM */
  63              		.loc 1 38 0
  64 004d 837D0800 		cmpl	$0, 8(%ebp)
  65 0051 7510     		jne	L6
  39:E:/NeuOrga/Programmieren/c_cpp/github_os/input/src/os_base\os_heap.c ****    {
  40:E:/NeuOrga/Programmieren/c_cpp/github_os/input/src/os_base\os_heap.c ****       ptr_new = (void*) os_malloc(size_new);
  66              		.loc 1 40 0
  67 0053 8B450C   		movl	12(%ebp), %eax
  68 0056 890424   		movl	%eax, (%esp)
  69 0059 E8660000 		call	_os_malloc
  69      00
  70 005e 8945F0   		movl	%eax, -16(%ebp)
GAS LISTING C:\Users\PRESID~1\AppData\Local\Temp\ccOK1yOd.s 			page 3


  71 0061 EB5C     		jmp	L7
  72              	L6:
  41:E:/NeuOrga/Programmieren/c_cpp/github_os/input/src/os_base\os_heap.c ****    }
  42:E:/NeuOrga/Programmieren/c_cpp/github_os/input/src/os_base\os_heap.c ****    else if(size_new != 0u)/*reallocate*/
  73              		.loc 1 42 0
  74 0063 837D0C00 		cmpl	$0, 12(%ebp)
  75 0067 743E     		je	L8
  76              	LBB2:
  43:E:/NeuOrga/Programmieren/c_cpp/github_os/input/src/os_base\os_heap.c ****    {
  44:E:/NeuOrga/Programmieren/c_cpp/github_os/input/src/os_base\os_heap.c ****       void* ptr_new = (void*) os_malloc(size_new);
  77              		.loc 1 44 0
  78 0069 8B450C   		movl	12(%ebp), %eax
  79 006c 890424   		movl	%eax, (%esp)
  80 006f E8500000 		call	_os_malloc
  80      00
  81 0074 8945EC   		movl	%eax, -20(%ebp)
  45:E:/NeuOrga/Programmieren/c_cpp/github_os/input/src/os_base\os_heap.c ****       if(ptr_new != 0u)/* memory to store the data ok? */
  82              		.loc 1 45 0
  83 0077 837DEC00 		cmpl	$0, -20(%ebp)
  84 007b 7428     		je	L9
  46:E:/NeuOrga/Programmieren/c_cpp/github_os/input/src/os_base\os_heap.c ****       {
  47:E:/NeuOrga/Programmieren/c_cpp/github_os/input/src/os_base\os_heap.c ****          for(i = 0u; i < size_new; i++)
  85              		.loc 1 47 0
  86 007d C745F400 		movl	$0, -12(%ebp)
  86      000000
  87 0084 EB17     		jmp	L10
  88              	L11:
  48:E:/NeuOrga/Programmieren/c_cpp/github_os/input/src/os_base\os_heap.c ****          {
  49:E:/NeuOrga/Programmieren/c_cpp/github_os/input/src/os_base\os_heap.c ****             *((uint8*)ptr_new + (uint32)i) = *((uint8*)ptr_old + (uint32)i);
  89              		.loc 1 49 0 discriminator 3
  90 0086 8B55EC   		movl	-20(%ebp), %edx
  91 0089 8B45F4   		movl	-12(%ebp), %eax
  92 008c 01C2     		addl	%eax, %edx
  93 008e 8B4D08   		movl	8(%ebp), %ecx
  94 0091 8B45F4   		movl	-12(%ebp), %eax
  95 0094 01C8     		addl	%ecx, %eax
  96 0096 8A00     		movb	(%eax), %al
  97 0098 8802     		movb	%al, (%edx)
  47:E:/NeuOrga/Programmieren/c_cpp/github_os/input/src/os_base\os_heap.c ****          {
  98              		.loc 1 47 0 discriminator 3
  99 009a FF45F4   		incl	-12(%ebp)
 100              	L10:
  47:E:/NeuOrga/Programmieren/c_cpp/github_os/input/src/os_base\os_heap.c ****          {
 101              		.loc 1 47 0 is_stmt 0 discriminator 1
 102 009d 8B45F4   		movl	-12(%ebp), %eax
 103 00a0 3B450C   		cmpl	12(%ebp), %eax
 104 00a3 72E1     		jb	L11
 105              	L9:
 106              	LBE2:
 107 00a5 EB18     		jmp	L7
 108              	L8:
  50:E:/NeuOrga/Programmieren/c_cpp/github_os/input/src/os_base\os_heap.c ****          }
  51:E:/NeuOrga/Programmieren/c_cpp/github_os/input/src/os_base\os_heap.c ****       }
  52:E:/NeuOrga/Programmieren/c_cpp/github_os/input/src/os_base\os_heap.c ****    }
  53:E:/NeuOrga/Programmieren/c_cpp/github_os/input/src/os_base\os_heap.c ****    else /*deallocate */
  54:E:/NeuOrga/Programmieren/c_cpp/github_os/input/src/os_base\os_heap.c ****    {
  55:E:/NeuOrga/Programmieren/c_cpp/github_os/input/src/os_base\os_heap.c ****       if(ptr_old != 0u)
GAS LISTING C:\Users\PRESID~1\AppData\Local\Temp\ccOK1yOd.s 			page 4


 109              		.loc 1 55 0 is_stmt 1
 110 00a7 837D0800 		cmpl	$0, 8(%ebp)
 111 00ab 740B     		je	L12
  56:E:/NeuOrga/Programmieren/c_cpp/github_os/input/src/os_base\os_heap.c ****       {
  57:E:/NeuOrga/Programmieren/c_cpp/github_os/input/src/os_base\os_heap.c ****          os_free(ptr_old);
 112              		.loc 1 57 0
 113 00ad 8B4508   		movl	8(%ebp), %eax
 114 00b0 890424   		movl	%eax, (%esp)
 115 00b3 E8820000 		call	_os_free
 115      00
 116              	L12:
  58:E:/NeuOrga/Programmieren/c_cpp/github_os/input/src/os_base\os_heap.c ****       }
  59:E:/NeuOrga/Programmieren/c_cpp/github_os/input/src/os_base\os_heap.c ****       ptr_new = 0u;
 117              		.loc 1 59 0
 118 00b8 C745F000 		movl	$0, -16(%ebp)
 118      000000
 119              	L7:
  60:E:/NeuOrga/Programmieren/c_cpp/github_os/input/src/os_base\os_heap.c ****    }
  61:E:/NeuOrga/Programmieren/c_cpp/github_os/input/src/os_base\os_heap.c ****    return ptr_new;
 120              		.loc 1 61 0
 121 00bf 8B45F0   		movl	-16(%ebp), %eax
  62:E:/NeuOrga/Programmieren/c_cpp/github_os/input/src/os_base\os_heap.c **** }
 122              		.loc 1 62 0
 123 00c2 C9       		leave
 124              		.cfi_restore 5
 125              		.cfi_def_cfa 4, 4
 126 00c3 C3       		ret
 127              		.cfi_endproc
 128              	LFE1:
 129              		.globl	_os_malloc
 131              	_os_malloc:
 132              	LFB2:
  63:E:/NeuOrga/Programmieren/c_cpp/github_os/input/src/os_base\os_heap.c **** 
  64:E:/NeuOrga/Programmieren/c_cpp/github_os/input/src/os_base\os_heap.c **** /* malloc and free shall be the ONLY!!! functions accessing the data structures of the heap directl
  65:E:/NeuOrga/Programmieren/c_cpp/github_os/input/src/os_base\os_heap.c **** void* os_malloc(uint32 size)
  66:E:/NeuOrga/Programmieren/c_cpp/github_os/input/src/os_base\os_heap.c **** {
 133              		.loc 1 66 0
 134              		.cfi_startproc
 135 00c4 55       		pushl	%ebp
 136              		.cfi_def_cfa_offset 8
 137              		.cfi_offset 5, -8
 138 00c5 89E5     		movl	%esp, %ebp
 139              		.cfi_def_cfa_register 5
 140 00c7 83EC28   		subl	$40, %esp
  67:E:/NeuOrga/Programmieren/c_cpp/github_os/input/src/os_base\os_heap.c ****    /*uint32    used_size = 0;*/
  68:E:/NeuOrga/Programmieren/c_cpp/github_os/input/src/os_base\os_heap.c ****    uint8*    chunk_ptr = 0;
 141              		.loc 1 68 0
 142 00ca C745F400 		movl	$0, -12(%ebp)
 142      000000
  69:E:/NeuOrga/Programmieren/c_cpp/github_os/input/src/os_base\os_heap.c ****    uint8*    heap_ptr  = 0; /* current byte of the heap to be accessed */
 143              		.loc 1 69 0
 144 00d1 C745F000 		movl	$0, -16(%ebp)
 144      000000
  70:E:/NeuOrga/Programmieren/c_cpp/github_os/input/src/os_base\os_heap.c ****    uint32    chunk_uint32o_allocate = 0;
 145              		.loc 1 70 0
 146 00d8 C745EC00 		movl	$0, -20(%ebp)
 146      000000
GAS LISTING C:\Users\PRESID~1\AppData\Local\Temp\ccOK1yOd.s 			page 5


  71:E:/NeuOrga/Programmieren/c_cpp/github_os/input/src/os_base\os_heap.c **** 
  72:E:/NeuOrga/Programmieren/c_cpp/github_os/input/src/os_base\os_heap.c ****    /* search through the heap for free chunk ....
  73:E:/NeuOrga/Programmieren/c_cpp/github_os/input/src/os_base\os_heap.c ****    e.g. for memory layout
  74:E:/NeuOrga/Programmieren/c_cpp/github_os/input/src/os_base\os_heap.c **** 
  75:E:/NeuOrga/Programmieren/c_cpp/github_os/input/src/os_base\os_heap.c ****    UINT32 for size of chunk
  76:E:/NeuOrga/Programmieren/c_cpp/github_os/input/src/os_base\os_heap.c ****    0x00000008,
  77:E:/NeuOrga/Programmieren/c_cpp/github_os/input/src/os_base\os_heap.c ****    UINT32 for used size of chunk
  78:E:/NeuOrga/Programmieren/c_cpp/github_os/input/src/os_base\os_heap.c ****    0x00000001,
  79:E:/NeuOrga/Programmieren/c_cpp/github_os/input/src/os_base\os_heap.c ****    chunk (here 8 bytes)
  80:E:/NeuOrga/Programmieren/c_cpp/github_os/input/src/os_base\os_heap.c ****    0x00000000,0x00000000
  81:E:/NeuOrga/Programmieren/c_cpp/github_os/input/src/os_base\os_heap.c ****    UINT32 for size of chunk
  82:E:/NeuOrga/Programmieren/c_cpp/github_os/input/src/os_base\os_heap.c ****    0x00000010,
  83:E:/NeuOrga/Programmieren/c_cpp/github_os/input/src/os_base\os_heap.c ****    UINT32 for used size of chunk
  84:E:/NeuOrga/Programmieren/c_cpp/github_os/input/src/os_base\os_heap.c ****    0x00000009,
  85:E:/NeuOrga/Programmieren/c_cpp/github_os/input/src/os_base\os_heap.c ****    chunk (here 16 bytes)
  86:E:/NeuOrga/Programmieren/c_cpp/github_os/input/src/os_base\os_heap.c ****    0x00000000,0x00000000,
  87:E:/NeuOrga/Programmieren/c_cpp/github_os/input/src/os_base\os_heap.c ****    0x00000000,0x00000000
  88:E:/NeuOrga/Programmieren/c_cpp/github_os/input/src/os_base\os_heap.c ****    */
  89:E:/NeuOrga/Programmieren/c_cpp/github_os/input/src/os_base\os_heap.c **** 
  90:E:/NeuOrga/Programmieren/c_cpp/github_os/input/src/os_base\os_heap.c ****    /* expand the size to MIN_BLOCK_SIZE_HEAP if necessary */
  91:E:/NeuOrga/Programmieren/c_cpp/github_os/input/src/os_base\os_heap.c ****    if(size < MIN_BLOCK_SIZE_HEAP)
 147              		.loc 1 91 0
 148 00df 837D0807 		cmpl	$7, 8(%ebp)
 149 00e3 7709     		ja	L15
  92:E:/NeuOrga/Programmieren/c_cpp/github_os/input/src/os_base\os_heap.c ****    {
  93:E:/NeuOrga/Programmieren/c_cpp/github_os/input/src/os_base\os_heap.c ****       chunk_uint32o_allocate = MIN_BLOCK_SIZE_HEAP;
 150              		.loc 1 93 0
 151 00e5 C745EC08 		movl	$8, -20(%ebp)
 151      000000
 152 00ec EB06     		jmp	L16
 153              	L15:
  94:E:/NeuOrga/Programmieren/c_cpp/github_os/input/src/os_base\os_heap.c ****    }
  95:E:/NeuOrga/Programmieren/c_cpp/github_os/input/src/os_base\os_heap.c ****    else
  96:E:/NeuOrga/Programmieren/c_cpp/github_os/input/src/os_base\os_heap.c ****    {
  97:E:/NeuOrga/Programmieren/c_cpp/github_os/input/src/os_base\os_heap.c ****       chunk_uint32o_allocate = size;
 154              		.loc 1 97 0
 155 00ee 8B4508   		movl	8(%ebp), %eax
 156 00f1 8945EC   		movl	%eax, -20(%ebp)
 157              	L16:
  98:E:/NeuOrga/Programmieren/c_cpp/github_os/input/src/os_base\os_heap.c ****    }
  99:E:/NeuOrga/Programmieren/c_cpp/github_os/input/src/os_base\os_heap.c ****    for( heap_ptr = (uint8*) &HEAP;/* init on the start of the heap */
 158              		.loc 1 99 0
 159 00f4 C745F000 		movl	$_HEAP, -16(%ebp)
 159      000000
 160 00fb EB20     		jmp	L17
 161              	L19:
 100:E:/NeuOrga/Programmieren/c_cpp/github_os/input/src/os_base\os_heap.c ****          ((heap_ptr + (uint32)HEAP_OFFSET_FOR_CHUNK + (uint32)chunk_uint32o_allocate) <= ((uint8*)&
 101:E:/NeuOrga/Programmieren/c_cpp/github_os/input/src/os_base\os_heap.c ****          heap_ptr = heap_ptr + (uint32)HEAP_OFFSET_FOR_CHUNK + size/* set the heap_ptr to the next 
 102:E:/NeuOrga/Programmieren/c_cpp/github_os/input/src/os_base\os_heap.c ****       )
 103:E:/NeuOrga/Programmieren/c_cpp/github_os/input/src/os_base\os_heap.c ****    {
 104:E:/NeuOrga/Programmieren/c_cpp/github_os/input/src/os_base\os_heap.c ****       size      = GET_UINT32_OF_4UINT8(heap_ptr + HEAP_OFFSET_FOR_SIZE);
 162              		.loc 1 104 0
 163 00fd 8B45F0   		movl	-16(%ebp), %eax
 164 0100 890424   		movl	%eax, (%esp)
 165 0103 E8A30000 		call	_GET_UINT32_OF_4UINT8
 165      00
 166 0108 894508   		movl	%eax, 8(%ebp)
GAS LISTING C:\Users\PRESID~1\AppData\Local\Temp\ccOK1yOd.s 			page 6


 105:E:/NeuOrga/Programmieren/c_cpp/github_os/input/src/os_base\os_heap.c ****       /*used_size = GET_UINT32_OF_4UINT8(heap_ptr + HEAP_OFFSET_FOR_USED_SIZE);*/
 106:E:/NeuOrga/Programmieren/c_cpp/github_os/input/src/os_base\os_heap.c **** 
 107:E:/NeuOrga/Programmieren/c_cpp/github_os/input/src/os_base\os_heap.c ****       chunk_ptr     = (heap_ptr + HEAP_OFFSET_FOR_CHUNK);
 167              		.loc 1 107 0
 168 010b 8B45F0   		movl	-16(%ebp), %eax
 169 010e 83C008   		addl	$8, %eax
 170 0111 8945F4   		movl	%eax, -12(%ebp)
 101:E:/NeuOrga/Programmieren/c_cpp/github_os/input/src/os_base\os_heap.c ****       )
 171              		.loc 1 101 0
 172 0114 8B4508   		movl	8(%ebp), %eax
 173 0117 83C008   		addl	$8, %eax
 174 011a 0145F0   		addl	%eax, -16(%ebp)
 175              	L17:
 100:E:/NeuOrga/Programmieren/c_cpp/github_os/input/src/os_base\os_heap.c ****          ((heap_ptr + (uint32)HEAP_OFFSET_FOR_CHUNK + (uint32)chunk_uint32o_allocate) <= ((uint8*)&
 176              		.loc 1 100 0 discriminator 1
 177 011d 8B45EC   		movl	-20(%ebp), %eax
 178 0120 8D5008   		leal	8(%eax), %edx
 179 0123 8B45F0   		movl	-16(%ebp), %eax
 180 0126 01D0     		addl	%edx, %eax
  99:E:/NeuOrga/Programmieren/c_cpp/github_os/input/src/os_base\os_heap.c ****          ((heap_ptr + (uint32)HEAP_OFFSET_FOR_CHUNK + (uint32)chunk_uint32o_allocate) <= ((uint8*)&
 181              		.loc 1 99 0 discriminator 1
 182 0128 3D102700 		cmpl	$_HEAP+10000, %eax
 182      00
 183 012d 7706     		ja	L18
 100:E:/NeuOrga/Programmieren/c_cpp/github_os/input/src/os_base\os_heap.c ****          heap_ptr = heap_ptr + (uint32)HEAP_OFFSET_FOR_CHUNK + size/* set the heap_ptr to the next 
 184              		.loc 1 100 0
 185 012f 837DF400 		cmpl	$0, -12(%ebp)
 186 0133 74C8     		je	L19
 187              	L18:
 108:E:/NeuOrga/Programmieren/c_cpp/github_os/input/src/os_base\os_heap.c ****    }
 109:E:/NeuOrga/Programmieren/c_cpp/github_os/input/src/os_base\os_heap.c ****    return (void*)chunk_ptr;
 188              		.loc 1 109 0
 189 0135 8B45F4   		movl	-12(%ebp), %eax
 110:E:/NeuOrga/Programmieren/c_cpp/github_os/input/src/os_base\os_heap.c **** }
 190              		.loc 1 110 0
 191 0138 C9       		leave
 192              		.cfi_restore 5
 193              		.cfi_def_cfa 4, 4
 194 0139 C3       		ret
 195              		.cfi_endproc
 196              	LFE2:
 197              		.globl	_os_free
 199              	_os_free:
 200              	LFB3:
 111:E:/NeuOrga/Programmieren/c_cpp/github_os/input/src/os_base\os_heap.c **** void os_free(void* ptr)
 112:E:/NeuOrga/Programmieren/c_cpp/github_os/input/src/os_base\os_heap.c **** {
 201              		.loc 1 112 0
 202              		.cfi_startproc
 203 013a 55       		pushl	%ebp
 204              		.cfi_def_cfa_offset 8
 205              		.cfi_offset 5, -8
 206 013b 89E5     		movl	%esp, %ebp
 207              		.cfi_def_cfa_register 5
 208 013d 83EC28   		subl	$40, %esp
 113:E:/NeuOrga/Programmieren/c_cpp/github_os/input/src/os_base\os_heap.c ****    uint32  size = 0;
 209              		.loc 1 113 0
 210 0140 C745F000 		movl	$0, -16(%ebp)
GAS LISTING C:\Users\PRESID~1\AppData\Local\Temp\ccOK1yOd.s 			page 7


 210      000000
 114:E:/NeuOrga/Programmieren/c_cpp/github_os/input/src/os_base\os_heap.c ****    /*uint32  used_size = 0;*/
 115:E:/NeuOrga/Programmieren/c_cpp/github_os/input/src/os_base\os_heap.c ****    uint8* chunk_ptr = 0;
 211              		.loc 1 115 0
 212 0147 C745EC00 		movl	$0, -20(%ebp)
 212      000000
 116:E:/NeuOrga/Programmieren/c_cpp/github_os/input/src/os_base\os_heap.c ****    uint8* heap_ptr  = 0;
 213              		.loc 1 116 0
 214 014e C745F400 		movl	$0, -12(%ebp)
 214      000000
 117:E:/NeuOrga/Programmieren/c_cpp/github_os/input/src/os_base\os_heap.c ****    /* clear used size info in list */
 118:E:/NeuOrga/Programmieren/c_cpp/github_os/input/src/os_base\os_heap.c ****    for( heap_ptr = (uint8*)&HEAP;/* init on the start of the heap */
 215              		.loc 1 118 0
 216 0155 C745F400 		movl	$_HEAP, -12(%ebp)
 216      000000
 217 015c EB3E     		jmp	L22
 218              	L24:
 119:E:/NeuOrga/Programmieren/c_cpp/github_os/input/src/os_base\os_heap.c ****          (heap_ptr + (uint32)HEAP_OFFSET_FOR_CHUNK  <= ((uint8*)&HEAP + (uint32)sizeof(HEAP)));/* a
 120:E:/NeuOrga/Programmieren/c_cpp/github_os/input/src/os_base\os_heap.c ****          heap_ptr = heap_ptr + HEAP_OFFSET_FOR_CHUNK + size/* set the heap_ptr to the next element 
 121:E:/NeuOrga/Programmieren/c_cpp/github_os/input/src/os_base\os_heap.c ****       )
 122:E:/NeuOrga/Programmieren/c_cpp/github_os/input/src/os_base\os_heap.c ****    {
 123:E:/NeuOrga/Programmieren/c_cpp/github_os/input/src/os_base\os_heap.c ****       size      = GET_UINT32_OF_4UINT8(heap_ptr + HEAP_OFFSET_FOR_SIZE);
 219              		.loc 1 123 0
 220 015e 8B45F4   		movl	-12(%ebp), %eax
 221 0161 890424   		movl	%eax, (%esp)
 222 0164 E8420000 		call	_GET_UINT32_OF_4UINT8
 222      00
 223 0169 8945F0   		movl	%eax, -16(%ebp)
 124:E:/NeuOrga/Programmieren/c_cpp/github_os/input/src/os_base\os_heap.c ****       /*used_size = GET_UINT32_OF_4UINT8(heap_ptr + HEAP_OFFSET_FOR_USED_SIZE);*/
 125:E:/NeuOrga/Programmieren/c_cpp/github_os/input/src/os_base\os_heap.c **** 
 126:E:/NeuOrga/Programmieren/c_cpp/github_os/input/src/os_base\os_heap.c ****       chunk_ptr     = (void*) ((uint8*)heap_ptr + (uint32)HEAP_OFFSET_FOR_CHUNK);
 224              		.loc 1 126 0
 225 016c 8B45F4   		movl	-12(%ebp), %eax
 226 016f 83C008   		addl	$8, %eax
 227 0172 8945EC   		movl	%eax, -20(%ebp)
 127:E:/NeuOrga/Programmieren/c_cpp/github_os/input/src/os_base\os_heap.c **** 
 128:E:/NeuOrga/Programmieren/c_cpp/github_os/input/src/os_base\os_heap.c ****       if(chunk_ptr == ptr) /*block found which shall be cleared... */
 228              		.loc 1 128 0
 229 0175 8B45EC   		movl	-20(%ebp), %eax
 230 0178 3B4508   		cmpl	8(%ebp), %eax
 231 017b 7516     		jne	L23
 129:E:/NeuOrga/Programmieren/c_cpp/github_os/input/src/os_base\os_heap.c ****       {
 130:E:/NeuOrga/Programmieren/c_cpp/github_os/input/src/os_base\os_heap.c ****          SET_4UINT8_TO_UINT32((uint8*)heap_ptr + (uint32)HEAP_OFFSET_FOR_USED_SIZE, 0);/* set the u
 232              		.loc 1 130 0
 233 017d 8B45F4   		movl	-12(%ebp), %eax
 234 0180 83C004   		addl	$4, %eax
 235 0183 C7442404 		movl	$0, 4(%esp)
 235      00000000 
 236 018b 890424   		movl	%eax, (%esp)
 237 018e E8680000 		call	_SET_4UINT8_TO_UINT32
 237      00
 238              	L23:
 120:E:/NeuOrga/Programmieren/c_cpp/github_os/input/src/os_base\os_heap.c ****       )
 239              		.loc 1 120 0
 240 0193 8B45F0   		movl	-16(%ebp), %eax
 241 0196 83C008   		addl	$8, %eax
 242 0199 0145F4   		addl	%eax, -12(%ebp)
GAS LISTING C:\Users\PRESID~1\AppData\Local\Temp\ccOK1yOd.s 			page 8


 243              	L22:
 119:E:/NeuOrga/Programmieren/c_cpp/github_os/input/src/os_base\os_heap.c ****          heap_ptr = heap_ptr + HEAP_OFFSET_FOR_CHUNK + size/* set the heap_ptr to the next element 
 244              		.loc 1 119 0 discriminator 1
 245 019c 8B45F4   		movl	-12(%ebp), %eax
 246 019f 83C008   		addl	$8, %eax
 118:E:/NeuOrga/Programmieren/c_cpp/github_os/input/src/os_base\os_heap.c ****          (heap_ptr + (uint32)HEAP_OFFSET_FOR_CHUNK  <= ((uint8*)&HEAP + (uint32)sizeof(HEAP)));/* a
 247              		.loc 1 118 0 discriminator 1
 248 01a2 3D102700 		cmpl	$_HEAP+10000, %eax
 248      00
 249 01a7 76B5     		jbe	L24
 131:E:/NeuOrga/Programmieren/c_cpp/github_os/input/src/os_base\os_heap.c ****       }
 132:E:/NeuOrga/Programmieren/c_cpp/github_os/input/src/os_base\os_heap.c ****    }
 133:E:/NeuOrga/Programmieren/c_cpp/github_os/input/src/os_base\os_heap.c **** }
 250              		.loc 1 133 0
 251 01a9 C9       		leave
 252              		.cfi_restore 5
 253              		.cfi_def_cfa 4, 4
 254 01aa C3       		ret
 255              		.cfi_endproc
 256              	LFE3:
 258              	_GET_UINT32_OF_4UINT8:
 259              	LFB4:
 134:E:/NeuOrga/Programmieren/c_cpp/github_os/input/src/os_base\os_heap.c **** Local uint32 GET_UINT32_OF_4UINT8(uint8* ptr)
 135:E:/NeuOrga/Programmieren/c_cpp/github_os/input/src/os_base\os_heap.c **** {
 260              		.loc 1 135 0
 261              		.cfi_startproc
 262 01ab 55       		pushl	%ebp
 263              		.cfi_def_cfa_offset 8
 264              		.cfi_offset 5, -8
 265 01ac 89E5     		movl	%esp, %ebp
 266              		.cfi_def_cfa_register 5
 267 01ae 83EC10   		subl	$16, %esp
 136:E:/NeuOrga/Programmieren/c_cpp/github_os/input/src/os_base\os_heap.c ****    uint32 ret_val = 0;
 268              		.loc 1 136 0
 269 01b1 C745FC00 		movl	$0, -4(%ebp)
 269      000000
 137:E:/NeuOrga/Programmieren/c_cpp/github_os/input/src/os_base\os_heap.c **** 
 138:E:/NeuOrga/Programmieren/c_cpp/github_os/input/src/os_base\os_heap.c ****    ret_val += ((uint32) *ptr)<< 24;
 270              		.loc 1 138 0
 271 01b8 8B4508   		movl	8(%ebp), %eax
 272 01bb 8A00     		movb	(%eax), %al
 273 01bd 0FB6C0   		movzbl	%al, %eax
 274 01c0 C1E018   		sall	$24, %eax
 275 01c3 0145FC   		addl	%eax, -4(%ebp)
 139:E:/NeuOrga/Programmieren/c_cpp/github_os/input/src/os_base\os_heap.c ****    ptr++;
 276              		.loc 1 139 0
 277 01c6 FF4508   		incl	8(%ebp)
 140:E:/NeuOrga/Programmieren/c_cpp/github_os/input/src/os_base\os_heap.c ****    ret_val += ((uint32) *ptr)<< 16;
 278              		.loc 1 140 0
 279 01c9 8B4508   		movl	8(%ebp), %eax
 280 01cc 8A00     		movb	(%eax), %al
 281 01ce 0FB6C0   		movzbl	%al, %eax
 282 01d1 C1E010   		sall	$16, %eax
 283 01d4 0145FC   		addl	%eax, -4(%ebp)
 141:E:/NeuOrga/Programmieren/c_cpp/github_os/input/src/os_base\os_heap.c ****    ptr++;
 284              		.loc 1 141 0
 285 01d7 FF4508   		incl	8(%ebp)
GAS LISTING C:\Users\PRESID~1\AppData\Local\Temp\ccOK1yOd.s 			page 9


 142:E:/NeuOrga/Programmieren/c_cpp/github_os/input/src/os_base\os_heap.c ****    ret_val += ((uint32) *ptr)<< 8;
 286              		.loc 1 142 0
 287 01da 8B4508   		movl	8(%ebp), %eax
 288 01dd 8A00     		movb	(%eax), %al
 289 01df 0FB6C0   		movzbl	%al, %eax
 290 01e2 C1E008   		sall	$8, %eax
 291 01e5 0145FC   		addl	%eax, -4(%ebp)
 143:E:/NeuOrga/Programmieren/c_cpp/github_os/input/src/os_base\os_heap.c ****    ptr++;
 292              		.loc 1 143 0
 293 01e8 FF4508   		incl	8(%ebp)
 144:E:/NeuOrga/Programmieren/c_cpp/github_os/input/src/os_base\os_heap.c ****    ret_val += ((uint32) *ptr)<< 0;
 294              		.loc 1 144 0
 295 01eb 8B4508   		movl	8(%ebp), %eax
 296 01ee 8A00     		movb	(%eax), %al
 297 01f0 0FB6C0   		movzbl	%al, %eax
 298 01f3 0145FC   		addl	%eax, -4(%ebp)
 145:E:/NeuOrga/Programmieren/c_cpp/github_os/input/src/os_base\os_heap.c **** 
 146:E:/NeuOrga/Programmieren/c_cpp/github_os/input/src/os_base\os_heap.c ****    return ret_val;
 299              		.loc 1 146 0
 300 01f6 8B45FC   		movl	-4(%ebp), %eax
 147:E:/NeuOrga/Programmieren/c_cpp/github_os/input/src/os_base\os_heap.c **** }
 301              		.loc 1 147 0
 302 01f9 C9       		leave
 303              		.cfi_restore 5
 304              		.cfi_def_cfa 4, 4
 305 01fa C3       		ret
 306              		.cfi_endproc
 307              	LFE4:
 309              	_SET_4UINT8_TO_UINT32:
 310              	LFB5:
 148:E:/NeuOrga/Programmieren/c_cpp/github_os/input/src/os_base\os_heap.c **** Local void SET_4UINT8_TO_UINT32(uint8* ptr, uint32 value)
 149:E:/NeuOrga/Programmieren/c_cpp/github_os/input/src/os_base\os_heap.c **** {
 311              		.loc 1 149 0
 312              		.cfi_startproc
 313 01fb 55       		pushl	%ebp
 314              		.cfi_def_cfa_offset 8
 315              		.cfi_offset 5, -8
 316 01fc 89E5     		movl	%esp, %ebp
 317              		.cfi_def_cfa_register 5
 150:E:/NeuOrga/Programmieren/c_cpp/github_os/input/src/os_base\os_heap.c ****    *ptr = (value >>24)&0xFF;
 318              		.loc 1 150 0
 319 01fe 8B450C   		movl	12(%ebp), %eax
 320 0201 C1E818   		shrl	$24, %eax
 321 0204 88C2     		movb	%al, %dl
 322 0206 8B4508   		movl	8(%ebp), %eax
 323 0209 8810     		movb	%dl, (%eax)
 151:E:/NeuOrga/Programmieren/c_cpp/github_os/input/src/os_base\os_heap.c ****    ptr++;
 324              		.loc 1 151 0
 325 020b FF4508   		incl	8(%ebp)
 152:E:/NeuOrga/Programmieren/c_cpp/github_os/input/src/os_base\os_heap.c ****    *ptr = (value >>16)&0xFF;
 326              		.loc 1 152 0
 327 020e 8B450C   		movl	12(%ebp), %eax
 328 0211 C1E810   		shrl	$16, %eax
 329 0214 88C2     		movb	%al, %dl
 330 0216 8B4508   		movl	8(%ebp), %eax
 331 0219 8810     		movb	%dl, (%eax)
 153:E:/NeuOrga/Programmieren/c_cpp/github_os/input/src/os_base\os_heap.c ****    ptr++;
GAS LISTING C:\Users\PRESID~1\AppData\Local\Temp\ccOK1yOd.s 			page 10


 332              		.loc 1 153 0
 333 021b FF4508   		incl	8(%ebp)
 154:E:/NeuOrga/Programmieren/c_cpp/github_os/input/src/os_base\os_heap.c ****    *ptr = (value >>8)&0xFF;
 334              		.loc 1 154 0
 335 021e 8B450C   		movl	12(%ebp), %eax
 336 0221 C1E808   		shrl	$8, %eax
 337 0224 88C2     		movb	%al, %dl
 338 0226 8B4508   		movl	8(%ebp), %eax
 339 0229 8810     		movb	%dl, (%eax)
 155:E:/NeuOrga/Programmieren/c_cpp/github_os/input/src/os_base\os_heap.c ****    ptr++;
 340              		.loc 1 155 0
 341 022b FF4508   		incl	8(%ebp)
 156:E:/NeuOrga/Programmieren/c_cpp/github_os/input/src/os_base\os_heap.c ****    *ptr = (value >>0)&0xFF;
 342              		.loc 1 156 0
 343 022e 8B450C   		movl	12(%ebp), %eax
 344 0231 88C2     		movb	%al, %dl
 345 0233 8B4508   		movl	8(%ebp), %eax
 346 0236 8810     		movb	%dl, (%eax)
 157:E:/NeuOrga/Programmieren/c_cpp/github_os/input/src/os_base\os_heap.c **** }...
 347              		.loc 1 157 0
 348 0238 5D       		popl	%ebp
 349              		.cfi_restore 5
 350              		.cfi_def_cfa 4, 4
 351 0239 C3       		ret
 352              		.cfi_endproc
 353              	LFE5:
 354              	Letext0:
 355              		.file 2 "E:/NeuOrga/Programmieren/c_cpp/github_os/input/src/os_base/../os_base/os_base_types.h"
 356              		.file 3 "E:/NeuOrga/Programmieren/c_cpp/github_os/input/src/os_base/../os_base/os_ram.h"
 357 023a 9090     		.section	.debug_info,"dr"
 358              	Ldebug_info0:
 359 0000 5D030000 		.long	0x35d
 360 0004 0400     		.word	0x4
 361 0006 00000000 		.secrel32	Ldebug_abbrev0
 362 000a 04       		.byte	0x4
 363 000b 01       		.uleb128 0x1
 364 000c 474E5520 		.ascii "GNU C 4.9.3 -march=i386 -g3 -O0 -std=c90\0"
 364      4320342E 
 364      392E3320 
 364      2D6D6172 
 364      63683D69 
 365 0035 01       		.byte	0x1
 366 0036 453A5C4E 		.ascii "E:\\NeuOrga\\Programmieren\\c_cpp\\github_os\\input\\src\\os_base\\os_heap.c\0"
 366      65754F72 
 366      67615C50 
 366      726F6772 
 366      616D6D69 
 367 007b 00000000 		.long	Ltext0
 368 007f 3A020000 		.long	Letext0-Ltext0
 369 0083 00000000 		.secrel32	Ldebug_line0
 370 0087 00000000 		.secrel32	Ldebug_macro0
 371 008b 02       		.uleb128 0x2
 372 008c 756E7369 		.ascii "unsigned_char_t\0"
 372      676E6564 
 372      5F636861 
 372      725F7400 
 373 009c 02       		.byte	0x2
GAS LISTING C:\Users\PRESID~1\AppData\Local\Temp\ccOK1yOd.s 			page 11


 374 009d 1D       		.byte	0x1d
 375 009e A2000000 		.long	0xa2
 376 00a2 03       		.uleb128 0x3
 377 00a3 01       		.byte	0x1
 378 00a4 08       		.byte	0x8
 379 00a5 756E7369 		.ascii "unsigned char\0"
 379      676E6564 
 379      20636861 
 379      7200
 380 00b3 02       		.uleb128 0x2
 381 00b4 75696E74 		.ascii "uint8\0"
 381      3800
 382 00ba 02       		.byte	0x2
 383 00bb 1F       		.byte	0x1f
 384 00bc A2000000 		.long	0xa2
 385 00c0 03       		.uleb128 0x3
 386 00c1 02       		.byte	0x2
 387 00c2 07       		.byte	0x7
 388 00c3 73686F72 		.ascii "short unsigned int\0"
 388      7420756E 
 388      7369676E 
 388      65642069 
 388      6E7400
 389 00d6 03       		.uleb128 0x3
 390 00d7 04       		.byte	0x4
 391 00d8 07       		.byte	0x7
 392 00d9 6C6F6E67 		.ascii "long unsigned int\0"
 392      20756E73 
 392      69676E65 
 392      6420696E 
 392      7400
 393 00eb 02       		.uleb128 0x2
 394 00ec 75696E74 		.ascii "uint32\0"
 394      333200
 395 00f3 02       		.byte	0x2
 396 00f4 23       		.byte	0x23
 397 00f5 D6000000 		.long	0xd6
 398 00f9 04       		.uleb128 0x4
 399 00fa 04       		.byte	0x4
 400 00fb 03       		.uleb128 0x3
 401 00fc 04       		.byte	0x4
 402 00fd 07       		.byte	0x7
 403 00fe 756E7369 		.ascii "unsigned int\0"
 403      676E6564 
 403      20696E74 
 403      00
 404 010b 05       		.uleb128 0x5
 405 010c 6F735F63 		.ascii "os_calloc\0"
 405      616C6C6F 
 405      6300
 406 0116 01       		.byte	0x1
 407 0117 0B       		.byte	0xb
 408 0118 F9000000 		.long	0xf9
 409 011c 00000000 		.long	LFB0
 410 0120 40000000 		.long	LFE0-LFB0
 411 0124 01       		.uleb128 0x1
 412 0125 9C       		.byte	0x9c
GAS LISTING C:\Users\PRESID~1\AppData\Local\Temp\ccOK1yOd.s 			page 12


 413 0126 62010000 		.long	0x162
 414 012a 06       		.uleb128 0x6
 415 012b 6E756D00 		.ascii "num\0"
 416 012f 01       		.byte	0x1
 417 0130 0B       		.byte	0xb
 418 0131 EB000000 		.long	0xeb
 419 0135 02       		.uleb128 0x2
 420 0136 91       		.byte	0x91
 421 0137 00       		.sleb128 0
 422 0138 06       		.uleb128 0x6
 423 0139 73697A65 		.ascii "size\0"
 423      00
 424 013e 01       		.byte	0x1
 425 013f 0B       		.byte	0xb
 426 0140 EB000000 		.long	0xeb
 427 0144 02       		.uleb128 0x2
 428 0145 91       		.byte	0x91
 429 0146 04       		.sleb128 4
 430 0147 07       		.uleb128 0x7
 431 0148 70747200 		.ascii "ptr\0"
 432 014c 01       		.byte	0x1
 433 014d 0D       		.byte	0xd
 434 014e 62010000 		.long	0x162
 435 0152 02       		.uleb128 0x2
 436 0153 91       		.byte	0x91
 437 0154 68       		.sleb128 -24
 438 0155 07       		.uleb128 0x7
 439 0156 6900     		.ascii "i\0"
 440 0158 01       		.byte	0x1
 441 0159 0F       		.byte	0xf
 442 015a EB000000 		.long	0xeb
 443 015e 02       		.uleb128 0x2
 444 015f 91       		.byte	0x91
 445 0160 6C       		.sleb128 -20
 446 0161 00       		.byte	0
 447 0162 08       		.uleb128 0x8
 448 0163 04       		.byte	0x4
 449 0164 B3000000 		.long	0xb3
 450 0168 05       		.uleb128 0x5
 451 0169 6F735F72 		.ascii "os_realloc\0"
 451      65616C6C 
 451      6F6300
 452 0174 01       		.byte	0x1
 453 0175 22       		.byte	0x22
 454 0176 F9000000 		.long	0xf9
 455 017a 40000000 		.long	LFB1
 456 017e 84000000 		.long	LFE1-LFB1
 457 0182 01       		.uleb128 0x1
 458 0183 9C       		.byte	0x9c
 459 0184 E8010000 		.long	0x1e8
 460 0188 06       		.uleb128 0x6
 461 0189 7074725F 		.ascii "ptr_old\0"
 461      6F6C6400 
 462 0191 01       		.byte	0x1
 463 0192 22       		.byte	0x22
 464 0193 F9000000 		.long	0xf9
 465 0197 02       		.uleb128 0x2
GAS LISTING C:\Users\PRESID~1\AppData\Local\Temp\ccOK1yOd.s 			page 13


 466 0198 91       		.byte	0x91
 467 0199 00       		.sleb128 0
 468 019a 06       		.uleb128 0x6
 469 019b 73697A65 		.ascii "size_new\0"
 469      5F6E6577 
 469      00
 470 01a4 01       		.byte	0x1
 471 01a5 22       		.byte	0x22
 472 01a6 EB000000 		.long	0xeb
 473 01aa 02       		.uleb128 0x2
 474 01ab 91       		.byte	0x91
 475 01ac 04       		.sleb128 4
 476 01ad 07       		.uleb128 0x7
 477 01ae 6900     		.ascii "i\0"
 478 01b0 01       		.byte	0x1
 479 01b1 24       		.byte	0x24
 480 01b2 EB000000 		.long	0xeb
 481 01b6 02       		.uleb128 0x2
 482 01b7 91       		.byte	0x91
 483 01b8 6C       		.sleb128 -20
 484 01b9 07       		.uleb128 0x7
 485 01ba 7074725F 		.ascii "ptr_new\0"
 485      6E657700 
 486 01c2 01       		.byte	0x1
 487 01c3 25       		.byte	0x25
 488 01c4 F9000000 		.long	0xf9
 489 01c8 02       		.uleb128 0x2
 490 01c9 91       		.byte	0x91
 491 01ca 68       		.sleb128 -24
 492 01cb 09       		.uleb128 0x9
 493 01cc 69000000 		.long	LBB2
 494 01d0 3C000000 		.long	LBE2-LBB2
 495 01d4 07       		.uleb128 0x7
 496 01d5 7074725F 		.ascii "ptr_new\0"
 496      6E657700 
 497 01dd 01       		.byte	0x1
 498 01de 2C       		.byte	0x2c
 499 01df F9000000 		.long	0xf9
 500 01e3 02       		.uleb128 0x2
 501 01e4 91       		.byte	0x91
 502 01e5 64       		.sleb128 -28
 503 01e6 00       		.byte	0
 504 01e7 00       		.byte	0
 505 01e8 05       		.uleb128 0x5
 506 01e9 6F735F6D 		.ascii "os_malloc\0"
 506      616C6C6F 
 506      6300
 507 01f3 01       		.byte	0x1
 508 01f4 41       		.byte	0x41
 509 01f5 F9000000 		.long	0xf9
 510 01f9 C4000000 		.long	LFB2
 511 01fd 76000000 		.long	LFE2-LFB2
 512 0201 01       		.uleb128 0x1
 513 0202 9C       		.byte	0x9c
 514 0203 54020000 		.long	0x254
 515 0207 06       		.uleb128 0x6
 516 0208 73697A65 		.ascii "size\0"
GAS LISTING C:\Users\PRESID~1\AppData\Local\Temp\ccOK1yOd.s 			page 14


 516      00
 517 020d 01       		.byte	0x1
 518 020e 41       		.byte	0x41
 519 020f EB000000 		.long	0xeb
 520 0213 02       		.uleb128 0x2
 521 0214 91       		.byte	0x91
 522 0215 00       		.sleb128 0
 523 0216 0A       		.uleb128 0xa
 524 0217 09000000 		.secrel32	LASF0
 525 021b 01       		.byte	0x1
 526 021c 44       		.byte	0x44
 527 021d 62010000 		.long	0x162
 528 0221 02       		.uleb128 0x2
 529 0222 91       		.byte	0x91
 530 0223 6C       		.sleb128 -20
 531 0224 0A       		.uleb128 0xa
 532 0225 00000000 		.secrel32	LASF1
 533 0229 01       		.byte	0x1
 534 022a 45       		.byte	0x45
 535 022b 62010000 		.long	0x162
 536 022f 02       		.uleb128 0x2
 537 0230 91       		.byte	0x91
 538 0231 68       		.sleb128 -24
 539 0232 07       		.uleb128 0x7
 540 0233 6368756E 		.ascii "chunk_uint32o_allocate\0"
 540      6B5F7569 
 540      6E743332 
 540      6F5F616C 
 540      6C6F6361 
 541 024a 01       		.byte	0x1
 542 024b 46       		.byte	0x46
 543 024c EB000000 		.long	0xeb
 544 0250 02       		.uleb128 0x2
 545 0251 91       		.byte	0x91
 546 0252 64       		.sleb128 -28
 547 0253 00       		.byte	0
 548 0254 0B       		.uleb128 0xb
 549 0255 6F735F66 		.ascii "os_free\0"
 549      72656500 
 550 025d 01       		.byte	0x1
 551 025e 6F       		.byte	0x6f
 552 025f 3A010000 		.long	LFB3
 553 0263 71000000 		.long	LFE3-LFB3
 554 0267 01       		.uleb128 0x1
 555 0268 9C       		.byte	0x9c
 556 0269 A7020000 		.long	0x2a7
 557 026d 06       		.uleb128 0x6
 558 026e 70747200 		.ascii "ptr\0"
 559 0272 01       		.byte	0x1
 560 0273 6F       		.byte	0x6f
 561 0274 F9000000 		.long	0xf9
 562 0278 02       		.uleb128 0x2
 563 0279 91       		.byte	0x91
 564 027a 00       		.sleb128 0
 565 027b 07       		.uleb128 0x7
 566 027c 73697A65 		.ascii "size\0"
 566      00
GAS LISTING C:\Users\PRESID~1\AppData\Local\Temp\ccOK1yOd.s 			page 15


 567 0281 01       		.byte	0x1
 568 0282 71       		.byte	0x71
 569 0283 EB000000 		.long	0xeb
 570 0287 02       		.uleb128 0x2
 571 0288 91       		.byte	0x91
 572 0289 68       		.sleb128 -24
 573 028a 0A       		.uleb128 0xa
 574 028b 09000000 		.secrel32	LASF0
 575 028f 01       		.byte	0x1
 576 0290 73       		.byte	0x73
 577 0291 62010000 		.long	0x162
 578 0295 02       		.uleb128 0x2
 579 0296 91       		.byte	0x91
 580 0297 64       		.sleb128 -28
 581 0298 0A       		.uleb128 0xa
 582 0299 00000000 		.secrel32	LASF1
 583 029d 01       		.byte	0x1
 584 029e 74       		.byte	0x74
 585 029f 62010000 		.long	0x162
 586 02a3 02       		.uleb128 0x2
 587 02a4 91       		.byte	0x91
 588 02a5 6C       		.sleb128 -20
 589 02a6 00       		.byte	0
 590 02a7 0C       		.uleb128 0xc
 591 02a8 4745545F 		.ascii "GET_UINT32_OF_4UINT8\0"
 591      55494E54 
 591      33325F4F 
 591      465F3455 
 591      494E5438 
 592 02bd 01       		.byte	0x1
 593 02be 86       		.byte	0x86
 594 02bf EB000000 		.long	0xeb
 595 02c3 AB010000 		.long	LFB4
 596 02c7 50000000 		.long	LFE4-LFB4
 597 02cb 01       		.uleb128 0x1
 598 02cc 9C       		.byte	0x9c
 599 02cd F2020000 		.long	0x2f2
 600 02d1 06       		.uleb128 0x6
 601 02d2 70747200 		.ascii "ptr\0"
 602 02d6 01       		.byte	0x1
 603 02d7 86       		.byte	0x86
 604 02d8 62010000 		.long	0x162
 605 02dc 02       		.uleb128 0x2
 606 02dd 91       		.byte	0x91
 607 02de 00       		.sleb128 0
 608 02df 07       		.uleb128 0x7
 609 02e0 7265745F 		.ascii "ret_val\0"
 609      76616C00 
 610 02e8 01       		.byte	0x1
 611 02e9 88       		.byte	0x88
 612 02ea EB000000 		.long	0xeb
 613 02ee 02       		.uleb128 0x2
 614 02ef 91       		.byte	0x91
 615 02f0 74       		.sleb128 -12
 616 02f1 00       		.byte	0
 617 02f2 0D       		.uleb128 0xd
 618 02f3 5345545F 		.ascii "SET_4UINT8_TO_UINT32\0"
GAS LISTING C:\Users\PRESID~1\AppData\Local\Temp\ccOK1yOd.s 			page 16


 618      3455494E 
 618      54385F54 
 618      4F5F5549 
 618      4E543332 
 619 0308 01       		.byte	0x1
 620 0309 94       		.byte	0x94
 621 030a FB010000 		.long	LFB5
 622 030e 3F000000 		.long	LFE5-LFB5
 623 0312 01       		.uleb128 0x1
 624 0313 9C       		.byte	0x9c
 625 0314 37030000 		.long	0x337
 626 0318 06       		.uleb128 0x6
 627 0319 70747200 		.ascii "ptr\0"
 628 031d 01       		.byte	0x1
 629 031e 94       		.byte	0x94
 630 031f 62010000 		.long	0x162
 631 0323 02       		.uleb128 0x2
 632 0324 91       		.byte	0x91
 633 0325 00       		.sleb128 0
 634 0326 06       		.uleb128 0x6
 635 0327 76616C75 		.ascii "value\0"
 635      6500
 636 032d 01       		.byte	0x1
 637 032e 94       		.byte	0x94
 638 032f EB000000 		.long	0xeb
 639 0333 02       		.uleb128 0x2
 640 0334 91       		.byte	0x91
 641 0335 04       		.sleb128 4
 642 0336 00       		.byte	0
 643 0337 0E       		.uleb128 0xe
 644 0338 8B000000 		.long	0x8b
 645 033c 48030000 		.long	0x348
 646 0340 0F       		.uleb128 0xf
 647 0341 48030000 		.long	0x348
 648 0345 0F27     		.word	0x270f
 649 0347 00       		.byte	0
 650 0348 03       		.uleb128 0x3
 651 0349 04       		.byte	0x4
 652 034a 07       		.byte	0x7
 653 034b 73697A65 		.ascii "sizetype\0"
 653      74797065 
 653      00
 654 0354 10       		.uleb128 0x10
 655 0355 48454150 		.ascii "HEAP\0"
 655      00
 656 035a 03       		.byte	0x3
 657 035b 09       		.byte	0x9
 658 035c 37030000 		.long	0x337
 659 0360 00       		.byte	0
 660              		.section	.debug_abbrev,"dr"
 661              	Ldebug_abbrev0:
 662 0000 01       		.uleb128 0x1
 663 0001 11       		.uleb128 0x11
 664 0002 01       		.byte	0x1
 665 0003 25       		.uleb128 0x25
 666 0004 08       		.uleb128 0x8
 667 0005 13       		.uleb128 0x13
GAS LISTING C:\Users\PRESID~1\AppData\Local\Temp\ccOK1yOd.s 			page 17


 668 0006 0B       		.uleb128 0xb
 669 0007 03       		.uleb128 0x3
 670 0008 08       		.uleb128 0x8
 671 0009 11       		.uleb128 0x11
 672 000a 01       		.uleb128 0x1
 673 000b 12       		.uleb128 0x12
 674 000c 06       		.uleb128 0x6
 675 000d 10       		.uleb128 0x10
 676 000e 17       		.uleb128 0x17
 677 000f 9942     		.uleb128 0x2119
 678 0011 17       		.uleb128 0x17
 679 0012 00       		.byte	0
 680 0013 00       		.byte	0
 681 0014 02       		.uleb128 0x2
 682 0015 16       		.uleb128 0x16
 683 0016 00       		.byte	0
 684 0017 03       		.uleb128 0x3
 685 0018 08       		.uleb128 0x8
 686 0019 3A       		.uleb128 0x3a
 687 001a 0B       		.uleb128 0xb
 688 001b 3B       		.uleb128 0x3b
 689 001c 0B       		.uleb128 0xb
 690 001d 49       		.uleb128 0x49
 691 001e 13       		.uleb128 0x13
 692 001f 00       		.byte	0
 693 0020 00       		.byte	0
 694 0021 03       		.uleb128 0x3
 695 0022 24       		.uleb128 0x24
 696 0023 00       		.byte	0
 697 0024 0B       		.uleb128 0xb
 698 0025 0B       		.uleb128 0xb
 699 0026 3E       		.uleb128 0x3e
 700 0027 0B       		.uleb128 0xb
 701 0028 03       		.uleb128 0x3
 702 0029 08       		.uleb128 0x8
 703 002a 00       		.byte	0
 704 002b 00       		.byte	0
 705 002c 04       		.uleb128 0x4
 706 002d 0F       		.uleb128 0xf
 707 002e 00       		.byte	0
 708 002f 0B       		.uleb128 0xb
 709 0030 0B       		.uleb128 0xb
 710 0031 00       		.byte	0
 711 0032 00       		.byte	0
 712 0033 05       		.uleb128 0x5
 713 0034 2E       		.uleb128 0x2e
 714 0035 01       		.byte	0x1
 715 0036 3F       		.uleb128 0x3f
 716 0037 19       		.uleb128 0x19
 717 0038 03       		.uleb128 0x3
 718 0039 08       		.uleb128 0x8
 719 003a 3A       		.uleb128 0x3a
 720 003b 0B       		.uleb128 0xb
 721 003c 3B       		.uleb128 0x3b
 722 003d 0B       		.uleb128 0xb
 723 003e 27       		.uleb128 0x27
 724 003f 19       		.uleb128 0x19
GAS LISTING C:\Users\PRESID~1\AppData\Local\Temp\ccOK1yOd.s 			page 18


 725 0040 49       		.uleb128 0x49
 726 0041 13       		.uleb128 0x13
 727 0042 11       		.uleb128 0x11
 728 0043 01       		.uleb128 0x1
 729 0044 12       		.uleb128 0x12
 730 0045 06       		.uleb128 0x6
 731 0046 40       		.uleb128 0x40
 732 0047 18       		.uleb128 0x18
 733 0048 9642     		.uleb128 0x2116
 734 004a 19       		.uleb128 0x19
 735 004b 01       		.uleb128 0x1
 736 004c 13       		.uleb128 0x13
 737 004d 00       		.byte	0
 738 004e 00       		.byte	0
 739 004f 06       		.uleb128 0x6
 740 0050 05       		.uleb128 0x5
 741 0051 00       		.byte	0
 742 0052 03       		.uleb128 0x3
 743 0053 08       		.uleb128 0x8
 744 0054 3A       		.uleb128 0x3a
 745 0055 0B       		.uleb128 0xb
 746 0056 3B       		.uleb128 0x3b
 747 0057 0B       		.uleb128 0xb
 748 0058 49       		.uleb128 0x49
 749 0059 13       		.uleb128 0x13
 750 005a 02       		.uleb128 0x2
 751 005b 18       		.uleb128 0x18
 752 005c 00       		.byte	0
 753 005d 00       		.byte	0
 754 005e 07       		.uleb128 0x7
 755 005f 34       		.uleb128 0x34
 756 0060 00       		.byte	0
 757 0061 03       		.uleb128 0x3
 758 0062 08       		.uleb128 0x8
 759 0063 3A       		.uleb128 0x3a
 760 0064 0B       		.uleb128 0xb
 761 0065 3B       		.uleb128 0x3b
 762 0066 0B       		.uleb128 0xb
 763 0067 49       		.uleb128 0x49
 764 0068 13       		.uleb128 0x13
 765 0069 02       		.uleb128 0x2
 766 006a 18       		.uleb128 0x18
 767 006b 00       		.byte	0
 768 006c 00       		.byte	0
 769 006d 08       		.uleb128 0x8
 770 006e 0F       		.uleb128 0xf
 771 006f 00       		.byte	0
 772 0070 0B       		.uleb128 0xb
 773 0071 0B       		.uleb128 0xb
 774 0072 49       		.uleb128 0x49
 775 0073 13       		.uleb128 0x13
 776 0074 00       		.byte	0
 777 0075 00       		.byte	0
 778 0076 09       		.uleb128 0x9
 779 0077 0B       		.uleb128 0xb
 780 0078 01       		.byte	0x1
 781 0079 11       		.uleb128 0x11
GAS LISTING C:\Users\PRESID~1\AppData\Local\Temp\ccOK1yOd.s 			page 19


 782 007a 01       		.uleb128 0x1
 783 007b 12       		.uleb128 0x12
 784 007c 06       		.uleb128 0x6
 785 007d 00       		.byte	0
 786 007e 00       		.byte	0
 787 007f 0A       		.uleb128 0xa
 788 0080 34       		.uleb128 0x34
 789 0081 00       		.byte	0
 790 0082 03       		.uleb128 0x3
 791 0083 0E       		.uleb128 0xe
 792 0084 3A       		.uleb128 0x3a
 793 0085 0B       		.uleb128 0xb
 794 0086 3B       		.uleb128 0x3b
 795 0087 0B       		.uleb128 0xb
 796 0088 49       		.uleb128 0x49
 797 0089 13       		.uleb128 0x13
 798 008a 02       		.uleb128 0x2
 799 008b 18       		.uleb128 0x18
 800 008c 00       		.byte	0
 801 008d 00       		.byte	0
 802 008e 0B       		.uleb128 0xb
 803 008f 2E       		.uleb128 0x2e
 804 0090 01       		.byte	0x1
 805 0091 3F       		.uleb128 0x3f
 806 0092 19       		.uleb128 0x19
 807 0093 03       		.uleb128 0x3
 808 0094 08       		.uleb128 0x8
 809 0095 3A       		.uleb128 0x3a
 810 0096 0B       		.uleb128 0xb
 811 0097 3B       		.uleb128 0x3b
 812 0098 0B       		.uleb128 0xb
 813 0099 27       		.uleb128 0x27
 814 009a 19       		.uleb128 0x19
 815 009b 11       		.uleb128 0x11
 816 009c 01       		.uleb128 0x1
 817 009d 12       		.uleb128 0x12
 818 009e 06       		.uleb128 0x6
 819 009f 40       		.uleb128 0x40
 820 00a0 18       		.uleb128 0x18
 821 00a1 9642     		.uleb128 0x2116
 822 00a3 19       		.uleb128 0x19
 823 00a4 01       		.uleb128 0x1
 824 00a5 13       		.uleb128 0x13
 825 00a6 00       		.byte	0
 826 00a7 00       		.byte	0
 827 00a8 0C       		.uleb128 0xc
 828 00a9 2E       		.uleb128 0x2e
 829 00aa 01       		.byte	0x1
 830 00ab 03       		.uleb128 0x3
 831 00ac 08       		.uleb128 0x8
 832 00ad 3A       		.uleb128 0x3a
 833 00ae 0B       		.uleb128 0xb
 834 00af 3B       		.uleb128 0x3b
 835 00b0 0B       		.uleb128 0xb
 836 00b1 27       		.uleb128 0x27
 837 00b2 19       		.uleb128 0x19
 838 00b3 49       		.uleb128 0x49
GAS LISTING C:\Users\PRESID~1\AppData\Local\Temp\ccOK1yOd.s 			page 20


 839 00b4 13       		.uleb128 0x13
 840 00b5 11       		.uleb128 0x11
 841 00b6 01       		.uleb128 0x1
 842 00b7 12       		.uleb128 0x12
 843 00b8 06       		.uleb128 0x6
 844 00b9 40       		.uleb128 0x40
 845 00ba 18       		.uleb128 0x18
 846 00bb 9742     		.uleb128 0x2117
 847 00bd 19       		.uleb128 0x19
 848 00be 01       		.uleb128 0x1
 849 00bf 13       		.uleb128 0x13
 850 00c0 00       		.byte	0
 851 00c1 00       		.byte	0
 852 00c2 0D       		.uleb128 0xd
 853 00c3 2E       		.uleb128 0x2e
 854 00c4 01       		.byte	0x1
 855 00c5 03       		.uleb128 0x3
 856 00c6 08       		.uleb128 0x8
 857 00c7 3A       		.uleb128 0x3a
 858 00c8 0B       		.uleb128 0xb
 859 00c9 3B       		.uleb128 0x3b
 860 00ca 0B       		.uleb128 0xb
 861 00cb 27       		.uleb128 0x27
 862 00cc 19       		.uleb128 0x19
 863 00cd 11       		.uleb128 0x11
 864 00ce 01       		.uleb128 0x1
 865 00cf 12       		.uleb128 0x12
 866 00d0 06       		.uleb128 0x6
 867 00d1 40       		.uleb128 0x40
 868 00d2 18       		.uleb128 0x18
 869 00d3 9742     		.uleb128 0x2117
 870 00d5 19       		.uleb128 0x19
 871 00d6 01       		.uleb128 0x1
 872 00d7 13       		.uleb128 0x13
 873 00d8 00       		.byte	0
 874 00d9 00       		.byte	0
 875 00da 0E       		.uleb128 0xe
 876 00db 01       		.uleb128 0x1
 877 00dc 01       		.byte	0x1
 878 00dd 49       		.uleb128 0x49
 879 00de 13       		.uleb128 0x13
 880 00df 01       		.uleb128 0x1
 881 00e0 13       		.uleb128 0x13
 882 00e1 00       		.byte	0
 883 00e2 00       		.byte	0
 884 00e3 0F       		.uleb128 0xf
 885 00e4 21       		.uleb128 0x21
 886 00e5 00       		.byte	0
 887 00e6 49       		.uleb128 0x49
 888 00e7 13       		.uleb128 0x13
 889 00e8 2F       		.uleb128 0x2f
 890 00e9 05       		.uleb128 0x5
 891 00ea 00       		.byte	0
 892 00eb 00       		.byte	0
 893 00ec 10       		.uleb128 0x10
 894 00ed 34       		.uleb128 0x34
 895 00ee 00       		.byte	0
GAS LISTING C:\Users\PRESID~1\AppData\Local\Temp\ccOK1yOd.s 			page 21


 896 00ef 03       		.uleb128 0x3
 897 00f0 08       		.uleb128 0x8
 898 00f1 3A       		.uleb128 0x3a
 899 00f2 0B       		.uleb128 0xb
 900 00f3 3B       		.uleb128 0x3b
 901 00f4 0B       		.uleb128 0xb
 902 00f5 49       		.uleb128 0x49
 903 00f6 13       		.uleb128 0x13
 904 00f7 3F       		.uleb128 0x3f
 905 00f8 19       		.uleb128 0x19
 906 00f9 3C       		.uleb128 0x3c
 907 00fa 19       		.uleb128 0x19
 908 00fb 00       		.byte	0
 909 00fc 00       		.byte	0
 910 00fd 00       		.byte	0
 911              		.section	.debug_aranges,"dr"
 912 0000 1C000000 		.long	0x1c
 913 0004 0200     		.word	0x2
 914 0006 00000000 		.secrel32	Ldebug_info0
 915 000a 04       		.byte	0x4
 916 000b 00       		.byte	0
 917 000c 0000     		.word	0
 918 000e 0000     		.word	0
 919 0010 00000000 		.long	Ltext0
 920 0014 3A020000 		.long	Letext0-Ltext0
 921 0018 00000000 		.long	0
 922 001c 00000000 		.long	0
 923              		.section	.debug_macro,"dr"
 924              	Ldebug_macro0:
 925 0000 0400     		.word	0x4
 926 0002 02       		.byte	0x2
 927 0003 00000000 		.secrel32	Ldebug_line0
 928 0007 01       		.byte	0x1
 929 0008 00       		.uleb128 0
 930 0009 5F5F5354 		.ascii "__STDC__ 1\0"
 930      44435F5F 
 930      203100
 931 0014 01       		.byte	0x1
 932 0015 00       		.uleb128 0
 933 0016 5F5F5354 		.ascii "__STDC_HOSTED__ 1\0"
 933      44435F48 
 933      4F535445 
 933      445F5F20 
 933      3100
 934 0028 01       		.byte	0x1
 935 0029 00       		.uleb128 0
 936 002a 5F5F474E 		.ascii "__GNUC__ 4\0"
 936      55435F5F 
 936      203400
 937 0035 01       		.byte	0x1
 938 0036 00       		.uleb128 0
 939 0037 5F5F474E 		.ascii "__GNUC_MINOR__ 9\0"
 939      55435F4D 
 939      494E4F52 
 939      5F5F2039 
 939      00
 940 0048 01       		.byte	0x1
GAS LISTING C:\Users\PRESID~1\AppData\Local\Temp\ccOK1yOd.s 			page 22


 941 0049 00       		.uleb128 0
 942 004a 5F5F474E 		.ascii "__GNUC_PATCHLEVEL__ 3\0"
 942      55435F50 
 942      41544348 
 942      4C455645 
 942      4C5F5F20 
 943 0060 01       		.byte	0x1
 944 0061 00       		.uleb128 0
 945 0062 5F5F5645 		.ascii "__VERSION__ \"4.9.3\"\0"
 945      5253494F 
 945      4E5F5F20 
 945      22342E39 
 945      2E332200 
 946 0076 01       		.byte	0x1
 947 0077 00       		.uleb128 0
 948 0078 5F5F4154 		.ascii "__ATOMIC_RELAXED 0\0"
 948      4F4D4943 
 948      5F52454C 
 948      41584544 
 948      203000
 949 008b 01       		.byte	0x1
 950 008c 00       		.uleb128 0
 951 008d 5F5F4154 		.ascii "__ATOMIC_SEQ_CST 5\0"
 951      4F4D4943 
 951      5F534551 
 951      5F435354 
 951      203500
 952 00a0 01       		.byte	0x1
 953 00a1 00       		.uleb128 0
 954 00a2 5F5F4154 		.ascii "__ATOMIC_ACQUIRE 2\0"
 954      4F4D4943 
 954      5F414351 
 954      55495245 
 954      203200
 955 00b5 01       		.byte	0x1
 956 00b6 00       		.uleb128 0
 957 00b7 5F5F4154 		.ascii "__ATOMIC_RELEASE 3\0"
 957      4F4D4943 
 957      5F52454C 
 957      45415345 
 957      203300
 958 00ca 01       		.byte	0x1
 959 00cb 00       		.uleb128 0
 960 00cc 5F5F4154 		.ascii "__ATOMIC_ACQ_REL 4\0"
 960      4F4D4943 
 960      5F414351 
 960      5F52454C 
 960      203400
 961 00df 01       		.byte	0x1
 962 00e0 00       		.uleb128 0
 963 00e1 5F5F4154 		.ascii "__ATOMIC_CONSUME 1\0"
 963      4F4D4943 
 963      5F434F4E 
 963      53554D45 
 963      203100
 964 00f4 01       		.byte	0x1
 965 00f5 00       		.uleb128 0
GAS LISTING C:\Users\PRESID~1\AppData\Local\Temp\ccOK1yOd.s 			page 23


 966 00f6 5F5F4649 		.ascii "__FINITE_MATH_ONLY__ 0\0"
 966      4E495445 
 966      5F4D4154 
 966      485F4F4E 
 966      4C595F5F 
 967 010d 01       		.byte	0x1
 968 010e 00       		.uleb128 0
 969 010f 5F5F5349 		.ascii "__SIZEOF_INT__ 4\0"
 969      5A454F46 
 969      5F494E54 
 969      5F5F2034 
 969      00
 970 0120 01       		.byte	0x1
 971 0121 00       		.uleb128 0
 972 0122 5F5F5349 		.ascii "__SIZEOF_LONG__ 4\0"
 972      5A454F46 
 972      5F4C4F4E 
 972      475F5F20 
 972      3400
 973 0134 01       		.byte	0x1
 974 0135 00       		.uleb128 0
 975 0136 5F5F5349 		.ascii "__SIZEOF_LONG_LONG__ 8\0"
 975      5A454F46 
 975      5F4C4F4E 
 975      475F4C4F 
 975      4E475F5F 
 976 014d 01       		.byte	0x1
 977 014e 00       		.uleb128 0
 978 014f 5F5F5349 		.ascii "__SIZEOF_SHORT__ 2\0"
 978      5A454F46 
 978      5F53484F 
 978      52545F5F 
 978      203200
 979 0162 01       		.byte	0x1
 980 0163 00       		.uleb128 0
 981 0164 5F5F5349 		.ascii "__SIZEOF_FLOAT__ 4\0"
 981      5A454F46 
 981      5F464C4F 
 981      41545F5F 
 981      203400
 982 0177 01       		.byte	0x1
 983 0178 00       		.uleb128 0
 984 0179 5F5F5349 		.ascii "__SIZEOF_DOUBLE__ 8\0"
 984      5A454F46 
 984      5F444F55 
 984      424C455F 
 984      5F203800 
 985 018d 01       		.byte	0x1
 986 018e 00       		.uleb128 0
 987 018f 5F5F5349 		.ascii "__SIZEOF_LONG_DOUBLE__ 12\0"
 987      5A454F46 
 987      5F4C4F4E 
 987      475F444F 
 987      55424C45 
 988 01a9 01       		.byte	0x1
 989 01aa 00       		.uleb128 0
 990 01ab 5F5F5349 		.ascii "__SIZEOF_SIZE_T__ 4\0"
GAS LISTING C:\Users\PRESID~1\AppData\Local\Temp\ccOK1yOd.s 			page 24


 990      5A454F46 
 990      5F53495A 
 990      455F545F 
 990      5F203400 
 991 01bf 01       		.byte	0x1
 992 01c0 00       		.uleb128 0
 993 01c1 5F5F4348 		.ascii "__CHAR_BIT__ 8\0"
 993      41525F42 
 993      49545F5F 
 993      203800
 994 01d0 01       		.byte	0x1
 995 01d1 00       		.uleb128 0
 996 01d2 5F5F4249 		.ascii "__BIGGEST_ALIGNMENT__ 16\0"
 996      47474553 
 996      545F414C 
 996      49474E4D 
 996      454E545F 
 997 01eb 01       		.byte	0x1
 998 01ec 00       		.uleb128 0
 999 01ed 5F5F4F52 		.ascii "__ORDER_LITTLE_ENDIAN__ 1234\0"
 999      4445525F 
 999      4C495454 
 999      4C455F45 
 999      4E444941 
 1000 020a 01       		.byte	0x1
 1001 020b 00       		.uleb128 0
 1002 020c 5F5F4F52 		.ascii "__ORDER_BIG_ENDIAN__ 4321\0"
 1002      4445525F 
 1002      4249475F 
 1002      454E4449 
 1002      414E5F5F 
 1003 0226 01       		.byte	0x1
 1004 0227 00       		.uleb128 0
 1005 0228 5F5F4F52 		.ascii "__ORDER_PDP_ENDIAN__ 3412\0"
 1005      4445525F 
 1005      5044505F 
 1005      454E4449 
 1005      414E5F5F 
 1006 0242 01       		.byte	0x1
 1007 0243 00       		.uleb128 0
 1008 0244 5F5F4259 		.ascii "__BYTE_ORDER__ __ORDER_LITTLE_ENDIAN__\0"
 1008      54455F4F 
 1008      52444552 
 1008      5F5F205F 
 1008      5F4F5244 
 1009 026b 01       		.byte	0x1
 1010 026c 00       		.uleb128 0
 1011 026d 5F5F464C 		.ascii "__FLOAT_WORD_ORDER__ __ORDER_LITTLE_ENDIAN__\0"
 1011      4F41545F 
 1011      574F5244 
 1011      5F4F5244 
 1011      45525F5F 
 1012 029a 01       		.byte	0x1
 1013 029b 00       		.uleb128 0
 1014 029c 5F5F5349 		.ascii "__SIZEOF_POINTER__ 4\0"
 1014      5A454F46 
 1014      5F504F49 
GAS LISTING C:\Users\PRESID~1\AppData\Local\Temp\ccOK1yOd.s 			page 25


 1014      4E544552 
 1014      5F5F2034 
 1015 02b1 01       		.byte	0x1
 1016 02b2 00       		.uleb128 0
 1017 02b3 5F5F5349 		.ascii "__SIZE_TYPE__ unsigned int\0"
 1017      5A455F54 
 1017      5950455F 
 1017      5F20756E 
 1017      7369676E 
 1018 02ce 01       		.byte	0x1
 1019 02cf 00       		.uleb128 0
 1020 02d0 5F5F5054 		.ascii "__PTRDIFF_TYPE__ int\0"
 1020      52444946 
 1020      465F5459 
 1020      50455F5F 
 1020      20696E74 
 1021 02e5 01       		.byte	0x1
 1022 02e6 00       		.uleb128 0
 1023 02e7 5F5F5743 		.ascii "__WCHAR_TYPE__ short unsigned int\0"
 1023      4841525F 
 1023      54595045 
 1023      5F5F2073 
 1023      686F7274 
 1024 0309 01       		.byte	0x1
 1025 030a 00       		.uleb128 0
 1026 030b 5F5F5749 		.ascii "__WINT_TYPE__ short unsigned int\0"
 1026      4E545F54 
 1026      5950455F 
 1026      5F207368 
 1026      6F727420 
 1027 032c 01       		.byte	0x1
 1028 032d 00       		.uleb128 0
 1029 032e 5F5F494E 		.ascii "__INTMAX_TYPE__ long long int\0"
 1029      544D4158 
 1029      5F545950 
 1029      455F5F20 
 1029      6C6F6E67 
 1030 034c 01       		.byte	0x1
 1031 034d 00       		.uleb128 0
 1032 034e 5F5F5549 		.ascii "__UINTMAX_TYPE__ long long unsigned int\0"
 1032      4E544D41 
 1032      585F5459 
 1032      50455F5F 
 1032      206C6F6E 
 1033 0376 01       		.byte	0x1
 1034 0377 00       		.uleb128 0
 1035 0378 5F5F4348 		.ascii "__CHAR16_TYPE__ short unsigned int\0"
 1035      41523136 
 1035      5F545950 
 1035      455F5F20 
 1035      73686F72 
 1036 039b 01       		.byte	0x1
 1037 039c 00       		.uleb128 0
 1038 039d 5F5F4348 		.ascii "__CHAR32_TYPE__ unsigned int\0"
 1038      41523332 
 1038      5F545950 
 1038      455F5F20 
GAS LISTING C:\Users\PRESID~1\AppData\Local\Temp\ccOK1yOd.s 			page 26


 1038      756E7369 
 1039 03ba 01       		.byte	0x1
 1040 03bb 00       		.uleb128 0
 1041 03bc 5F5F5349 		.ascii "__SIG_ATOMIC_TYPE__ int\0"
 1041      475F4154 
 1041      4F4D4943 
 1041      5F545950 
 1041      455F5F20 
 1042 03d4 01       		.byte	0x1
 1043 03d5 00       		.uleb128 0
 1044 03d6 5F5F494E 		.ascii "__INT8_TYPE__ signed char\0"
 1044      54385F54 
 1044      5950455F 
 1044      5F207369 
 1044      676E6564 
 1045 03f0 01       		.byte	0x1
 1046 03f1 00       		.uleb128 0
 1047 03f2 5F5F494E 		.ascii "__INT16_TYPE__ short int\0"
 1047      5431365F 
 1047      54595045 
 1047      5F5F2073 
 1047      686F7274 
 1048 040b 01       		.byte	0x1
 1049 040c 00       		.uleb128 0
 1050 040d 5F5F494E 		.ascii "__INT32_TYPE__ int\0"
 1050      5433325F 
 1050      54595045 
 1050      5F5F2069 
 1050      6E7400
 1051 0420 01       		.byte	0x1
 1052 0421 00       		.uleb128 0
 1053 0422 5F5F494E 		.ascii "__INT64_TYPE__ long long int\0"
 1053      5436345F 
 1053      54595045 
 1053      5F5F206C 
 1053      6F6E6720 
 1054 043f 01       		.byte	0x1
 1055 0440 00       		.uleb128 0
 1056 0441 5F5F5549 		.ascii "__UINT8_TYPE__ unsigned char\0"
 1056      4E54385F 
 1056      54595045 
 1056      5F5F2075 
 1056      6E736967 
 1057 045e 01       		.byte	0x1
 1058 045f 00       		.uleb128 0
 1059 0460 5F5F5549 		.ascii "__UINT16_TYPE__ short unsigned int\0"
 1059      4E543136 
 1059      5F545950 
 1059      455F5F20 
 1059      73686F72 
 1060 0483 01       		.byte	0x1
 1061 0484 00       		.uleb128 0
 1062 0485 5F5F5549 		.ascii "__UINT32_TYPE__ unsigned int\0"
 1062      4E543332 
 1062      5F545950 
 1062      455F5F20 
 1062      756E7369 
GAS LISTING C:\Users\PRESID~1\AppData\Local\Temp\ccOK1yOd.s 			page 27


 1063 04a2 01       		.byte	0x1
 1064 04a3 00       		.uleb128 0
 1065 04a4 5F5F5549 		.ascii "__UINT64_TYPE__ long long unsigned int\0"
 1065      4E543634 
 1065      5F545950 
 1065      455F5F20 
 1065      6C6F6E67 
 1066 04cb 01       		.byte	0x1
 1067 04cc 00       		.uleb128 0
 1068 04cd 5F5F494E 		.ascii "__INT_LEAST8_TYPE__ signed char\0"
 1068      545F4C45 
 1068      41535438 
 1068      5F545950 
 1068      455F5F20 
 1069 04ed 01       		.byte	0x1
 1070 04ee 00       		.uleb128 0
 1071 04ef 5F5F494E 		.ascii "__INT_LEAST16_TYPE__ short int\0"
 1071      545F4C45 
 1071      41535431 
 1071      365F5459 
 1071      50455F5F 
 1072 050e 01       		.byte	0x1
 1073 050f 00       		.uleb128 0
 1074 0510 5F5F494E 		.ascii "__INT_LEAST32_TYPE__ int\0"
 1074      545F4C45 
 1074      41535433 
 1074      325F5459 
 1074      50455F5F 
 1075 0529 01       		.byte	0x1
 1076 052a 00       		.uleb128 0
 1077 052b 5F5F494E 		.ascii "__INT_LEAST64_TYPE__ long long int\0"
 1077      545F4C45 
 1077      41535436 
 1077      345F5459 
 1077      50455F5F 
 1078 054e 01       		.byte	0x1
 1079 054f 00       		.uleb128 0
 1080 0550 5F5F5549 		.ascii "__UINT_LEAST8_TYPE__ unsigned char\0"
 1080      4E545F4C 
 1080      45415354 
 1080      385F5459 
 1080      50455F5F 
 1081 0573 01       		.byte	0x1
 1082 0574 00       		.uleb128 0
 1083 0575 5F5F5549 		.ascii "__UINT_LEAST16_TYPE__ short unsigned int\0"
 1083      4E545F4C 
 1083      45415354 
 1083      31365F54 
 1083      5950455F 
 1084 059e 01       		.byte	0x1
 1085 059f 00       		.uleb128 0
 1086 05a0 5F5F5549 		.ascii "__UINT_LEAST32_TYPE__ unsigned int\0"
 1086      4E545F4C 
 1086      45415354 
 1086      33325F54 
 1086      5950455F 
 1087 05c3 01       		.byte	0x1
GAS LISTING C:\Users\PRESID~1\AppData\Local\Temp\ccOK1yOd.s 			page 28


 1088 05c4 00       		.uleb128 0
 1089 05c5 5F5F5549 		.ascii "__UINT_LEAST64_TYPE__ long long unsigned int\0"
 1089      4E545F4C 
 1089      45415354 
 1089      36345F54 
 1089      5950455F 
 1090 05f2 01       		.byte	0x1
 1091 05f3 00       		.uleb128 0
 1092 05f4 5F5F494E 		.ascii "__INT_FAST8_TYPE__ signed char\0"
 1092      545F4641 
 1092      5354385F 
 1092      54595045 
 1092      5F5F2073 
 1093 0613 01       		.byte	0x1
 1094 0614 00       		.uleb128 0
 1095 0615 5F5F494E 		.ascii "__INT_FAST16_TYPE__ short int\0"
 1095      545F4641 
 1095      53543136 
 1095      5F545950 
 1095      455F5F20 
 1096 0633 01       		.byte	0x1
 1097 0634 00       		.uleb128 0
 1098 0635 5F5F494E 		.ascii "__INT_FAST32_TYPE__ int\0"
 1098      545F4641 
 1098      53543332 
 1098      5F545950 
 1098      455F5F20 
 1099 064d 01       		.byte	0x1
 1100 064e 00       		.uleb128 0
 1101 064f 5F5F494E 		.ascii "__INT_FAST64_TYPE__ long long int\0"
 1101      545F4641 
 1101      53543634 
 1101      5F545950 
 1101      455F5F20 
 1102 0671 01       		.byte	0x1
 1103 0672 00       		.uleb128 0
 1104 0673 5F5F5549 		.ascii "__UINT_FAST8_TYPE__ unsigned char\0"
 1104      4E545F46 
 1104      41535438 
 1104      5F545950 
 1104      455F5F20 
 1105 0695 01       		.byte	0x1
 1106 0696 00       		.uleb128 0
 1107 0697 5F5F5549 		.ascii "__UINT_FAST16_TYPE__ short unsigned int\0"
 1107      4E545F46 
 1107      41535431 
 1107      365F5459 
 1107      50455F5F 
 1108 06bf 01       		.byte	0x1
 1109 06c0 00       		.uleb128 0
 1110 06c1 5F5F5549 		.ascii "__UINT_FAST32_TYPE__ unsigned int\0"
 1110      4E545F46 
 1110      41535433 
 1110      325F5459 
 1110      50455F5F 
 1111 06e3 01       		.byte	0x1
 1112 06e4 00       		.uleb128 0
GAS LISTING C:\Users\PRESID~1\AppData\Local\Temp\ccOK1yOd.s 			page 29


 1113 06e5 5F5F5549 		.ascii "__UINT_FAST64_TYPE__ long long unsigned int\0"
 1113      4E545F46 
 1113      41535436 
 1113      345F5459 
 1113      50455F5F 
 1114 0711 01       		.byte	0x1
 1115 0712 00       		.uleb128 0
 1116 0713 5F5F494E 		.ascii "__INTPTR_TYPE__ int\0"
 1116      54505452 
 1116      5F545950 
 1116      455F5F20 
 1116      696E7400 
 1117 0727 01       		.byte	0x1
 1118 0728 00       		.uleb128 0
 1119 0729 5F5F5549 		.ascii "__UINTPTR_TYPE__ unsigned int\0"
 1119      4E545054 
 1119      525F5459 
 1119      50455F5F 
 1119      20756E73 
 1120 0747 01       		.byte	0x1
 1121 0748 00       		.uleb128 0
 1122 0749 5F5F6861 		.ascii "__has_include(STR) __has_include__(STR)\0"
 1122      735F696E 
 1122      636C7564 
 1122      65285354 
 1122      5229205F 
 1123 0771 01       		.byte	0x1
 1124 0772 00       		.uleb128 0
 1125 0773 5F5F6861 		.ascii "__has_include_next(STR) __has_include_next__(STR)\0"
 1125      735F696E 
 1125      636C7564 
 1125      655F6E65 
 1125      78742853 
 1126 07a5 01       		.byte	0x1
 1127 07a6 00       		.uleb128 0
 1128 07a7 5F5F4758 		.ascii "__GXX_ABI_VERSION 1002\0"
 1128      585F4142 
 1128      495F5645 
 1128      5253494F 
 1128      4E203130 
 1129 07be 01       		.byte	0x1
 1130 07bf 00       		.uleb128 0
 1131 07c0 5F5F5343 		.ascii "__SCHAR_MAX__ 127\0"
 1131      4841525F 
 1131      4D41585F 
 1131      5F203132 
 1131      3700
 1132 07d2 01       		.byte	0x1
 1133 07d3 00       		.uleb128 0
 1134 07d4 5F5F5348 		.ascii "__SHRT_MAX__ 32767\0"
 1134      52545F4D 
 1134      41585F5F 
 1134      20333237 
 1134      363700
 1135 07e7 01       		.byte	0x1
 1136 07e8 00       		.uleb128 0
 1137 07e9 5F5F494E 		.ascii "__INT_MAX__ 2147483647\0"
GAS LISTING C:\Users\PRESID~1\AppData\Local\Temp\ccOK1yOd.s 			page 30


 1137      545F4D41 
 1137      585F5F20 
 1137      32313437 
 1137      34383336 
 1138 0800 01       		.byte	0x1
 1139 0801 00       		.uleb128 0
 1140 0802 5F5F4C4F 		.ascii "__LONG_MAX__ 2147483647L\0"
 1140      4E475F4D 
 1140      41585F5F 
 1140      20323134 
 1140      37343833 
 1141 081b 01       		.byte	0x1
 1142 081c 00       		.uleb128 0
 1143 081d 5F5F4C4F 		.ascii "__LONG_LONG_MAX__ 9223372036854775807LL\0"
 1143      4E475F4C 
 1143      4F4E475F 
 1143      4D41585F 
 1143      5F203932 
 1144 0845 01       		.byte	0x1
 1145 0846 00       		.uleb128 0
 1146 0847 5F5F5743 		.ascii "__WCHAR_MAX__ 65535\0"
 1146      4841525F 
 1146      4D41585F 
 1146      5F203635 
 1146      35333500 
 1147 085b 01       		.byte	0x1
 1148 085c 00       		.uleb128 0
 1149 085d 5F5F5743 		.ascii "__WCHAR_MIN__ 0\0"
 1149      4841525F 
 1149      4D494E5F 
 1149      5F203000 
 1150 086d 01       		.byte	0x1
 1151 086e 00       		.uleb128 0
 1152 086f 5F5F5749 		.ascii "__WINT_MAX__ 65535\0"
 1152      4E545F4D 
 1152      41585F5F 
 1152      20363535 
 1152      333500
 1153 0882 01       		.byte	0x1
 1154 0883 00       		.uleb128 0
 1155 0884 5F5F5749 		.ascii "__WINT_MIN__ 0\0"
 1155      4E545F4D 
 1155      494E5F5F 
 1155      203000
 1156 0893 01       		.byte	0x1
 1157 0894 00       		.uleb128 0
 1158 0895 5F5F5054 		.ascii "__PTRDIFF_MAX__ 2147483647\0"
 1158      52444946 
 1158      465F4D41 
 1158      585F5F20 
 1158      32313437 
 1159 08b0 01       		.byte	0x1
 1160 08b1 00       		.uleb128 0
 1161 08b2 5F5F5349 		.ascii "__SIZE_MAX__ 4294967295U\0"
 1161      5A455F4D 
 1161      41585F5F 
 1161      20343239 
GAS LISTING C:\Users\PRESID~1\AppData\Local\Temp\ccOK1yOd.s 			page 31


 1161      34393637 
 1162 08cb 01       		.byte	0x1
 1163 08cc 00       		.uleb128 0
 1164 08cd 5F5F494E 		.ascii "__INTMAX_MAX__ 9223372036854775807LL\0"
 1164      544D4158 
 1164      5F4D4158 
 1164      5F5F2039 
 1164      32323333 
 1165 08f2 01       		.byte	0x1
 1166 08f3 00       		.uleb128 0
 1167 08f4 5F5F494E 		.ascii "__INTMAX_C(c) c ## LL\0"
 1167      544D4158 
 1167      5F432863 
 1167      29206320 
 1167      2323204C 
 1168 090a 01       		.byte	0x1
 1169 090b 00       		.uleb128 0
 1170 090c 5F5F5549 		.ascii "__UINTMAX_MAX__ 18446744073709551615ULL\0"
 1170      4E544D41 
 1170      585F4D41 
 1170      585F5F20 
 1170      31383434 
 1171 0934 01       		.byte	0x1
 1172 0935 00       		.uleb128 0
 1173 0936 5F5F5549 		.ascii "__UINTMAX_C(c) c ## ULL\0"
 1173      4E544D41 
 1173      585F4328 
 1173      63292063 
 1173      20232320 
 1174 094e 01       		.byte	0x1
 1175 094f 00       		.uleb128 0
 1176 0950 5F5F5349 		.ascii "__SIG_ATOMIC_MAX__ 2147483647\0"
 1176      475F4154 
 1176      4F4D4943 
 1176      5F4D4158 
 1176      5F5F2032 
 1177 096e 01       		.byte	0x1
 1178 096f 00       		.uleb128 0
 1179 0970 5F5F5349 		.ascii "__SIG_ATOMIC_MIN__ (-__SIG_ATOMIC_MAX__ - 1)\0"
 1179      475F4154 
 1179      4F4D4943 
 1179      5F4D494E 
 1179      5F5F2028 
 1180 099d 01       		.byte	0x1
 1181 099e 00       		.uleb128 0
 1182 099f 5F5F494E 		.ascii "__INT8_MAX__ 127\0"
 1182      54385F4D 
 1182      41585F5F 
 1182      20313237 
 1182      00
 1183 09b0 01       		.byte	0x1
 1184 09b1 00       		.uleb128 0
 1185 09b2 5F5F494E 		.ascii "__INT16_MAX__ 32767\0"
 1185      5431365F 
 1185      4D41585F 
 1185      5F203332 
 1185      37363700 
GAS LISTING C:\Users\PRESID~1\AppData\Local\Temp\ccOK1yOd.s 			page 32


 1186 09c6 01       		.byte	0x1
 1187 09c7 00       		.uleb128 0
 1188 09c8 5F5F494E 		.ascii "__INT32_MAX__ 2147483647\0"
 1188      5433325F 
 1188      4D41585F 
 1188      5F203231 
 1188      34373438 
 1189 09e1 01       		.byte	0x1
 1190 09e2 00       		.uleb128 0
 1191 09e3 5F5F494E 		.ascii "__INT64_MAX__ 9223372036854775807LL\0"
 1191      5436345F 
 1191      4D41585F 
 1191      5F203932 
 1191      32333337 
 1192 0a07 01       		.byte	0x1
 1193 0a08 00       		.uleb128 0
 1194 0a09 5F5F5549 		.ascii "__UINT8_MAX__ 255\0"
 1194      4E54385F 
 1194      4D41585F 
 1194      5F203235 
 1194      3500
 1195 0a1b 01       		.byte	0x1
 1196 0a1c 00       		.uleb128 0
 1197 0a1d 5F5F5549 		.ascii "__UINT16_MAX__ 65535\0"
 1197      4E543136 
 1197      5F4D4158 
 1197      5F5F2036 
 1197      35353335 
 1198 0a32 01       		.byte	0x1
 1199 0a33 00       		.uleb128 0
 1200 0a34 5F5F5549 		.ascii "__UINT32_MAX__ 4294967295U\0"
 1200      4E543332 
 1200      5F4D4158 
 1200      5F5F2034 
 1200      32393439 
 1201 0a4f 01       		.byte	0x1
 1202 0a50 00       		.uleb128 0
 1203 0a51 5F5F5549 		.ascii "__UINT64_MAX__ 18446744073709551615ULL\0"
 1203      4E543634 
 1203      5F4D4158 
 1203      5F5F2031 
 1203      38343436 
 1204 0a78 01       		.byte	0x1
 1205 0a79 00       		.uleb128 0
 1206 0a7a 5F5F494E 		.ascii "__INT_LEAST8_MAX__ 127\0"
 1206      545F4C45 
 1206      41535438 
 1206      5F4D4158 
 1206      5F5F2031 
 1207 0a91 01       		.byte	0x1
 1208 0a92 00       		.uleb128 0
 1209 0a93 5F5F494E 		.ascii "__INT8_C(c) c\0"
 1209      54385F43 
 1209      28632920 
 1209      6300
 1210 0aa1 01       		.byte	0x1
 1211 0aa2 00       		.uleb128 0
GAS LISTING C:\Users\PRESID~1\AppData\Local\Temp\ccOK1yOd.s 			page 33


 1212 0aa3 5F5F494E 		.ascii "__INT_LEAST16_MAX__ 32767\0"
 1212      545F4C45 
 1212      41535431 
 1212      365F4D41 
 1212      585F5F20 
 1213 0abd 01       		.byte	0x1
 1214 0abe 00       		.uleb128 0
 1215 0abf 5F5F494E 		.ascii "__INT16_C(c) c\0"
 1215      5431365F 
 1215      43286329 
 1215      206300
 1216 0ace 01       		.byte	0x1
 1217 0acf 00       		.uleb128 0
 1218 0ad0 5F5F494E 		.ascii "__INT_LEAST32_MAX__ 2147483647\0"
 1218      545F4C45 
 1218      41535433 
 1218      325F4D41 
 1218      585F5F20 
 1219 0aef 01       		.byte	0x1
 1220 0af0 00       		.uleb128 0
 1221 0af1 5F5F494E 		.ascii "__INT32_C(c) c\0"
 1221      5433325F 
 1221      43286329 
 1221      206300
 1222 0b00 01       		.byte	0x1
 1223 0b01 00       		.uleb128 0
 1224 0b02 5F5F494E 		.ascii "__INT_LEAST64_MAX__ 9223372036854775807LL\0"
 1224      545F4C45 
 1224      41535436 
 1224      345F4D41 
 1224      585F5F20 
 1225 0b2c 01       		.byte	0x1
 1226 0b2d 00       		.uleb128 0
 1227 0b2e 5F5F494E 		.ascii "__INT64_C(c) c ## LL\0"
 1227      5436345F 
 1227      43286329 
 1227      20632023 
 1227      23204C4C 
 1228 0b43 01       		.byte	0x1
 1229 0b44 00       		.uleb128 0
 1230 0b45 5F5F5549 		.ascii "__UINT_LEAST8_MAX__ 255\0"
 1230      4E545F4C 
 1230      45415354 
 1230      385F4D41 
 1230      585F5F20 
 1231 0b5d 01       		.byte	0x1
 1232 0b5e 00       		.uleb128 0
 1233 0b5f 5F5F5549 		.ascii "__UINT8_C(c) c\0"
 1233      4E54385F 
 1233      43286329 
 1233      206300
 1234 0b6e 01       		.byte	0x1
 1235 0b6f 00       		.uleb128 0
 1236 0b70 5F5F5549 		.ascii "__UINT_LEAST16_MAX__ 65535\0"
 1236      4E545F4C 
 1236      45415354 
 1236      31365F4D 
GAS LISTING C:\Users\PRESID~1\AppData\Local\Temp\ccOK1yOd.s 			page 34


 1236      41585F5F 
 1237 0b8b 01       		.byte	0x1
 1238 0b8c 00       		.uleb128 0
 1239 0b8d 5F5F5549 		.ascii "__UINT16_C(c) c\0"
 1239      4E543136 
 1239      5F432863 
 1239      29206300 
 1240 0b9d 01       		.byte	0x1
 1241 0b9e 00       		.uleb128 0
 1242 0b9f 5F5F5549 		.ascii "__UINT_LEAST32_MAX__ 4294967295U\0"
 1242      4E545F4C 
 1242      45415354 
 1242      33325F4D 
 1242      41585F5F 
 1243 0bc0 01       		.byte	0x1
 1244 0bc1 00       		.uleb128 0
 1245 0bc2 5F5F5549 		.ascii "__UINT32_C(c) c ## U\0"
 1245      4E543332 
 1245      5F432863 
 1245      29206320 
 1245      23232055 
 1246 0bd7 01       		.byte	0x1
 1247 0bd8 00       		.uleb128 0
 1248 0bd9 5F5F5549 		.ascii "__UINT_LEAST64_MAX__ 18446744073709551615ULL\0"
 1248      4E545F4C 
 1248      45415354 
 1248      36345F4D 
 1248      41585F5F 
 1249 0c06 01       		.byte	0x1
 1250 0c07 00       		.uleb128 0
 1251 0c08 5F5F5549 		.ascii "__UINT64_C(c) c ## ULL\0"
 1251      4E543634 
 1251      5F432863 
 1251      29206320 
 1251      23232055 
 1252 0c1f 01       		.byte	0x1
 1253 0c20 00       		.uleb128 0
 1254 0c21 5F5F494E 		.ascii "__INT_FAST8_MAX__ 127\0"
 1254      545F4641 
 1254      5354385F 
 1254      4D41585F 
 1254      5F203132 
 1255 0c37 01       		.byte	0x1
 1256 0c38 00       		.uleb128 0
 1257 0c39 5F5F494E 		.ascii "__INT_FAST16_MAX__ 32767\0"
 1257      545F4641 
 1257      53543136 
 1257      5F4D4158 
 1257      5F5F2033 
 1258 0c52 01       		.byte	0x1
 1259 0c53 00       		.uleb128 0
 1260 0c54 5F5F494E 		.ascii "__INT_FAST32_MAX__ 2147483647\0"
 1260      545F4641 
 1260      53543332 
 1260      5F4D4158 
 1260      5F5F2032 
 1261 0c72 01       		.byte	0x1
GAS LISTING C:\Users\PRESID~1\AppData\Local\Temp\ccOK1yOd.s 			page 35


 1262 0c73 00       		.uleb128 0
 1263 0c74 5F5F494E 		.ascii "__INT_FAST64_MAX__ 9223372036854775807LL\0"
 1263      545F4641 
 1263      53543634 
 1263      5F4D4158 
 1263      5F5F2039 
 1264 0c9d 01       		.byte	0x1
 1265 0c9e 00       		.uleb128 0
 1266 0c9f 5F5F5549 		.ascii "__UINT_FAST8_MAX__ 255\0"
 1266      4E545F46 
 1266      41535438 
 1266      5F4D4158 
 1266      5F5F2032 
 1267 0cb6 01       		.byte	0x1
 1268 0cb7 00       		.uleb128 0
 1269 0cb8 5F5F5549 		.ascii "__UINT_FAST16_MAX__ 65535\0"
 1269      4E545F46 
 1269      41535431 
 1269      365F4D41 
 1269      585F5F20 
 1270 0cd2 01       		.byte	0x1
 1271 0cd3 00       		.uleb128 0
 1272 0cd4 5F5F5549 		.ascii "__UINT_FAST32_MAX__ 4294967295U\0"
 1272      4E545F46 
 1272      41535433 
 1272      325F4D41 
 1272      585F5F20 
 1273 0cf4 01       		.byte	0x1
 1274 0cf5 00       		.uleb128 0
 1275 0cf6 5F5F5549 		.ascii "__UINT_FAST64_MAX__ 18446744073709551615ULL\0"
 1275      4E545F46 
 1275      41535436 
 1275      345F4D41 
 1275      585F5F20 
 1276 0d22 01       		.byte	0x1
 1277 0d23 00       		.uleb128 0
 1278 0d24 5F5F494E 		.ascii "__INTPTR_MAX__ 2147483647\0"
 1278      54505452 
 1278      5F4D4158 
 1278      5F5F2032 
 1278      31343734 
 1279 0d3e 01       		.byte	0x1
 1280 0d3f 00       		.uleb128 0
 1281 0d40 5F5F5549 		.ascii "__UINTPTR_MAX__ 4294967295U\0"
 1281      4E545054 
 1281      525F4D41 
 1281      585F5F20 
 1281      34323934 
 1282 0d5c 01       		.byte	0x1
 1283 0d5d 00       		.uleb128 0
 1284 0d5e 5F5F4743 		.ascii "__GCC_IEC_559 2\0"
 1284      435F4945 
 1284      435F3535 
 1284      39203200 
 1285 0d6e 01       		.byte	0x1
 1286 0d6f 00       		.uleb128 0
 1287 0d70 5F5F4743 		.ascii "__GCC_IEC_559_COMPLEX 2\0"
GAS LISTING C:\Users\PRESID~1\AppData\Local\Temp\ccOK1yOd.s 			page 36


 1287      435F4945 
 1287      435F3535 
 1287      395F434F 
 1287      4D504C45 
 1288 0d88 01       		.byte	0x1
 1289 0d89 00       		.uleb128 0
 1290 0d8a 5F5F464C 		.ascii "__FLT_EVAL_METHOD__ 2\0"
 1290      545F4556 
 1290      414C5F4D 
 1290      4554484F 
 1290      445F5F20 
 1291 0da0 01       		.byte	0x1
 1292 0da1 00       		.uleb128 0
 1293 0da2 5F5F4445 		.ascii "__DEC_EVAL_METHOD__ 2\0"
 1293      435F4556 
 1293      414C5F4D 
 1293      4554484F 
 1293      445F5F20 
 1294 0db8 01       		.byte	0x1
 1295 0db9 00       		.uleb128 0
 1296 0dba 5F5F464C 		.ascii "__FLT_RADIX__ 2\0"
 1296      545F5241 
 1296      4449585F 
 1296      5F203200 
 1297 0dca 01       		.byte	0x1
 1298 0dcb 00       		.uleb128 0
 1299 0dcc 5F5F464C 		.ascii "__FLT_MANT_DIG__ 24\0"
 1299      545F4D41 
 1299      4E545F44 
 1299      49475F5F 
 1299      20323400 
 1300 0de0 01       		.byte	0x1
 1301 0de1 00       		.uleb128 0
 1302 0de2 5F5F464C 		.ascii "__FLT_DIG__ 6\0"
 1302      545F4449 
 1302      475F5F20 
 1302      3600
 1303 0df0 01       		.byte	0x1
 1304 0df1 00       		.uleb128 0
 1305 0df2 5F5F464C 		.ascii "__FLT_MIN_EXP__ (-125)\0"
 1305      545F4D49 
 1305      4E5F4558 
 1305      505F5F20 
 1305      282D3132 
 1306 0e09 01       		.byte	0x1
 1307 0e0a 00       		.uleb128 0
 1308 0e0b 5F5F464C 		.ascii "__FLT_MIN_10_EXP__ (-37)\0"
 1308      545F4D49 
 1308      4E5F3130 
 1308      5F455850 
 1308      5F5F2028 
 1309 0e24 01       		.byte	0x1
 1310 0e25 00       		.uleb128 0
 1311 0e26 5F5F464C 		.ascii "__FLT_MAX_EXP__ 128\0"
 1311      545F4D41 
 1311      585F4558 
 1311      505F5F20 
GAS LISTING C:\Users\PRESID~1\AppData\Local\Temp\ccOK1yOd.s 			page 37


 1311      31323800 
 1312 0e3a 01       		.byte	0x1
 1313 0e3b 00       		.uleb128 0
 1314 0e3c 5F5F464C 		.ascii "__FLT_MAX_10_EXP__ 38\0"
 1314      545F4D41 
 1314      585F3130 
 1314      5F455850 
 1314      5F5F2033 
 1315 0e52 01       		.byte	0x1
 1316 0e53 00       		.uleb128 0
 1317 0e54 5F5F464C 		.ascii "__FLT_DECIMAL_DIG__ 9\0"
 1317      545F4445 
 1317      43494D41 
 1317      4C5F4449 
 1317      475F5F20 
 1318 0e6a 01       		.byte	0x1
 1319 0e6b 00       		.uleb128 0
 1320 0e6c 5F5F464C 		.ascii "__FLT_MAX__ 3.40282346638528859812e+38F\0"
 1320      545F4D41 
 1320      585F5F20 
 1320      332E3430 
 1320      32383233 
 1321 0e94 01       		.byte	0x1
 1322 0e95 00       		.uleb128 0
 1323 0e96 5F5F464C 		.ascii "__FLT_MIN__ 1.17549435082228750797e-38F\0"
 1323      545F4D49 
 1323      4E5F5F20 
 1323      312E3137 
 1323      35343934 
 1324 0ebe 01       		.byte	0x1
 1325 0ebf 00       		.uleb128 0
 1326 0ec0 5F5F464C 		.ascii "__FLT_EPSILON__ 1.19209289550781250000e-7F\0"
 1326      545F4550 
 1326      53494C4F 
 1326      4E5F5F20 
 1326      312E3139 
 1327 0eeb 01       		.byte	0x1
 1328 0eec 00       		.uleb128 0
 1329 0eed 5F5F464C 		.ascii "__FLT_DENORM_MIN__ 1.40129846432481707092e-45F\0"
 1329      545F4445 
 1329      4E4F524D 
 1329      5F4D494E 
 1329      5F5F2031 
 1330 0f1c 01       		.byte	0x1
 1331 0f1d 00       		.uleb128 0
 1332 0f1e 5F5F464C 		.ascii "__FLT_HAS_DENORM__ 1\0"
 1332      545F4841 
 1332      535F4445 
 1332      4E4F524D 
 1332      5F5F2031 
 1333 0f33 01       		.byte	0x1
 1334 0f34 00       		.uleb128 0
 1335 0f35 5F5F464C 		.ascii "__FLT_HAS_INFINITY__ 1\0"
 1335      545F4841 
 1335      535F494E 
 1335      46494E49 
 1335      54595F5F 
GAS LISTING C:\Users\PRESID~1\AppData\Local\Temp\ccOK1yOd.s 			page 38


 1336 0f4c 01       		.byte	0x1
 1337 0f4d 00       		.uleb128 0
 1338 0f4e 5F5F464C 		.ascii "__FLT_HAS_QUIET_NAN__ 1\0"
 1338      545F4841 
 1338      535F5155 
 1338      4945545F 
 1338      4E414E5F 
 1339 0f66 01       		.byte	0x1
 1340 0f67 00       		.uleb128 0
 1341 0f68 5F5F4442 		.ascii "__DBL_MANT_DIG__ 53\0"
 1341      4C5F4D41 
 1341      4E545F44 
 1341      49475F5F 
 1341      20353300 
 1342 0f7c 01       		.byte	0x1
 1343 0f7d 00       		.uleb128 0
 1344 0f7e 5F5F4442 		.ascii "__DBL_DIG__ 15\0"
 1344      4C5F4449 
 1344      475F5F20 
 1344      313500
 1345 0f8d 01       		.byte	0x1
 1346 0f8e 00       		.uleb128 0
 1347 0f8f 5F5F4442 		.ascii "__DBL_MIN_EXP__ (-1021)\0"
 1347      4C5F4D49 
 1347      4E5F4558 
 1347      505F5F20 
 1347      282D3130 
 1348 0fa7 01       		.byte	0x1
 1349 0fa8 00       		.uleb128 0
 1350 0fa9 5F5F4442 		.ascii "__DBL_MIN_10_EXP__ (-307)\0"
 1350      4C5F4D49 
 1350      4E5F3130 
 1350      5F455850 
 1350      5F5F2028 
 1351 0fc3 01       		.byte	0x1
 1352 0fc4 00       		.uleb128 0
 1353 0fc5 5F5F4442 		.ascii "__DBL_MAX_EXP__ 1024\0"
 1353      4C5F4D41 
 1353      585F4558 
 1353      505F5F20 
 1353      31303234 
 1354 0fda 01       		.byte	0x1
 1355 0fdb 00       		.uleb128 0
 1356 0fdc 5F5F4442 		.ascii "__DBL_MAX_10_EXP__ 308\0"
 1356      4C5F4D41 
 1356      585F3130 
 1356      5F455850 
 1356      5F5F2033 
 1357 0ff3 01       		.byte	0x1
 1358 0ff4 00       		.uleb128 0
 1359 0ff5 5F5F4442 		.ascii "__DBL_DECIMAL_DIG__ 17\0"
 1359      4C5F4445 
 1359      43494D41 
 1359      4C5F4449 
 1359      475F5F20 
 1360 100c 01       		.byte	0x1
 1361 100d 00       		.uleb128 0
GAS LISTING C:\Users\PRESID~1\AppData\Local\Temp\ccOK1yOd.s 			page 39


 1362 100e 5F5F4442 		.ascii "__DBL_MAX__ ((double)1.79769313486231570815e+308L)\0"
 1362      4C5F4D41 
 1362      585F5F20 
 1362      2828646F 
 1362      75626C65 
 1363 1041 01       		.byte	0x1
 1364 1042 00       		.uleb128 0
 1365 1043 5F5F4442 		.ascii "__DBL_MIN__ ((double)2.22507385850720138309e-308L)\0"
 1365      4C5F4D49 
 1365      4E5F5F20 
 1365      2828646F 
 1365      75626C65 
 1366 1076 01       		.byte	0x1
 1367 1077 00       		.uleb128 0
 1368 1078 5F5F4442 		.ascii "__DBL_EPSILON__ ((double)2.22044604925031308085e-16L)\0"
 1368      4C5F4550 
 1368      53494C4F 
 1368      4E5F5F20 
 1368      2828646F 
 1369 10ae 01       		.byte	0x1
 1370 10af 00       		.uleb128 0
 1371 10b0 5F5F4442 		.ascii "__DBL_DENORM_MIN__ ((double)4.94065645841246544177e-324L)\0"
 1371      4C5F4445 
 1371      4E4F524D 
 1371      5F4D494E 
 1371      5F5F2028 
 1372 10ea 01       		.byte	0x1
 1373 10eb 00       		.uleb128 0
 1374 10ec 5F5F4442 		.ascii "__DBL_HAS_DENORM__ 1\0"
 1374      4C5F4841 
 1374      535F4445 
 1374      4E4F524D 
 1374      5F5F2031 
 1375 1101 01       		.byte	0x1
 1376 1102 00       		.uleb128 0
 1377 1103 5F5F4442 		.ascii "__DBL_HAS_INFINITY__ 1\0"
 1377      4C5F4841 
 1377      535F494E 
 1377      46494E49 
 1377      54595F5F 
 1378 111a 01       		.byte	0x1
 1379 111b 00       		.uleb128 0
 1380 111c 5F5F4442 		.ascii "__DBL_HAS_QUIET_NAN__ 1\0"
 1380      4C5F4841 
 1380      535F5155 
 1380      4945545F 
 1380      4E414E5F 
 1381 1134 01       		.byte	0x1
 1382 1135 00       		.uleb128 0
 1383 1136 5F5F4C44 		.ascii "__LDBL_MANT_DIG__ 64\0"
 1383      424C5F4D 
 1383      414E545F 
 1383      4449475F 
 1383      5F203634 
 1384 114b 01       		.byte	0x1
 1385 114c 00       		.uleb128 0
 1386 114d 5F5F4C44 		.ascii "__LDBL_DIG__ 18\0"
GAS LISTING C:\Users\PRESID~1\AppData\Local\Temp\ccOK1yOd.s 			page 40


 1386      424C5F44 
 1386      49475F5F 
 1386      20313800 
 1387 115d 01       		.byte	0x1
 1388 115e 00       		.uleb128 0
 1389 115f 5F5F4C44 		.ascii "__LDBL_MIN_EXP__ (-16381)\0"
 1389      424C5F4D 
 1389      494E5F45 
 1389      58505F5F 
 1389      20282D31 
 1390 1179 01       		.byte	0x1
 1391 117a 00       		.uleb128 0
 1392 117b 5F5F4C44 		.ascii "__LDBL_MIN_10_EXP__ (-4931)\0"
 1392      424C5F4D 
 1392      494E5F31 
 1392      305F4558 
 1392      505F5F20 
 1393 1197 01       		.byte	0x1
 1394 1198 00       		.uleb128 0
 1395 1199 5F5F4C44 		.ascii "__LDBL_MAX_EXP__ 16384\0"
 1395      424C5F4D 
 1395      41585F45 
 1395      58505F5F 
 1395      20313633 
 1396 11b0 01       		.byte	0x1
 1397 11b1 00       		.uleb128 0
 1398 11b2 5F5F4C44 		.ascii "__LDBL_MAX_10_EXP__ 4932\0"
 1398      424C5F4D 
 1398      41585F31 
 1398      305F4558 
 1398      505F5F20 
 1399 11cb 01       		.byte	0x1
 1400 11cc 00       		.uleb128 0
 1401 11cd 5F5F4445 		.ascii "__DECIMAL_DIG__ 21\0"
 1401      43494D41 
 1401      4C5F4449 
 1401      475F5F20 
 1401      323100
 1402 11e0 01       		.byte	0x1
 1403 11e1 00       		.uleb128 0
 1404 11e2 5F5F4C44 		.ascii "__LDBL_MAX__ 1.18973149535723176502e+4932L\0"
 1404      424C5F4D 
 1404      41585F5F 
 1404      20312E31 
 1404      38393733 
 1405 120d 01       		.byte	0x1
 1406 120e 00       		.uleb128 0
 1407 120f 5F5F4C44 		.ascii "__LDBL_MIN__ 3.36210314311209350626e-4932L\0"
 1407      424C5F4D 
 1407      494E5F5F 
 1407      20332E33 
 1407      36323130 
 1408 123a 01       		.byte	0x1
 1409 123b 00       		.uleb128 0
 1410 123c 5F5F4C44 		.ascii "__LDBL_EPSILON__ 1.08420217248550443401e-19L\0"
 1410      424C5F45 
 1410      5053494C 
GAS LISTING C:\Users\PRESID~1\AppData\Local\Temp\ccOK1yOd.s 			page 41


 1410      4F4E5F5F 
 1410      20312E30 
 1411 1269 01       		.byte	0x1
 1412 126a 00       		.uleb128 0
 1413 126b 5F5F4C44 		.ascii "__LDBL_DENORM_MIN__ 3.64519953188247460253e-4951L\0"
 1413      424C5F44 
 1413      454E4F52 
 1413      4D5F4D49 
 1413      4E5F5F20 
 1414 129d 01       		.byte	0x1
 1415 129e 00       		.uleb128 0
 1416 129f 5F5F4C44 		.ascii "__LDBL_HAS_DENORM__ 1\0"
 1416      424C5F48 
 1416      41535F44 
 1416      454E4F52 
 1416      4D5F5F20 
 1417 12b5 01       		.byte	0x1
 1418 12b6 00       		.uleb128 0
 1419 12b7 5F5F4C44 		.ascii "__LDBL_HAS_INFINITY__ 1\0"
 1419      424C5F48 
 1419      41535F49 
 1419      4E46494E 
 1419      4954595F 
 1420 12cf 01       		.byte	0x1
 1421 12d0 00       		.uleb128 0
 1422 12d1 5F5F4C44 		.ascii "__LDBL_HAS_QUIET_NAN__ 1\0"
 1422      424C5F48 
 1422      41535F51 
 1422      55494554 
 1422      5F4E414E 
 1423 12ea 01       		.byte	0x1
 1424 12eb 00       		.uleb128 0
 1425 12ec 5F5F4445 		.ascii "__DEC32_MANT_DIG__ 7\0"
 1425      4333325F 
 1425      4D414E54 
 1425      5F444947 
 1425      5F5F2037 
 1426 1301 01       		.byte	0x1
 1427 1302 00       		.uleb128 0
 1428 1303 5F5F4445 		.ascii "__DEC32_MIN_EXP__ (-94)\0"
 1428      4333325F 
 1428      4D494E5F 
 1428      4558505F 
 1428      5F20282D 
 1429 131b 01       		.byte	0x1
 1430 131c 00       		.uleb128 0
 1431 131d 5F5F4445 		.ascii "__DEC32_MAX_EXP__ 97\0"
 1431      4333325F 
 1431      4D41585F 
 1431      4558505F 
 1431      5F203937 
 1432 1332 01       		.byte	0x1
 1433 1333 00       		.uleb128 0
 1434 1334 5F5F4445 		.ascii "__DEC32_MIN__ 1E-95DF\0"
 1434      4333325F 
 1434      4D494E5F 
 1434      5F203145 
GAS LISTING C:\Users\PRESID~1\AppData\Local\Temp\ccOK1yOd.s 			page 42


 1434      2D393544 
 1435 134a 01       		.byte	0x1
 1436 134b 00       		.uleb128 0
 1437 134c 5F5F4445 		.ascii "__DEC32_MAX__ 9.999999E96DF\0"
 1437      4333325F 
 1437      4D41585F 
 1437      5F20392E 
 1437      39393939 
 1438 1368 01       		.byte	0x1
 1439 1369 00       		.uleb128 0
 1440 136a 5F5F4445 		.ascii "__DEC32_EPSILON__ 1E-6DF\0"
 1440      4333325F 
 1440      45505349 
 1440      4C4F4E5F 
 1440      5F203145 
 1441 1383 01       		.byte	0x1
 1442 1384 00       		.uleb128 0
 1443 1385 5F5F4445 		.ascii "__DEC32_SUBNORMAL_MIN__ 0.000001E-95DF\0"
 1443      4333325F 
 1443      5355424E 
 1443      4F524D41 
 1443      4C5F4D49 
 1444 13ac 01       		.byte	0x1
 1445 13ad 00       		.uleb128 0
 1446 13ae 5F5F4445 		.ascii "__DEC64_MANT_DIG__ 16\0"
 1446      4336345F 
 1446      4D414E54 
 1446      5F444947 
 1446      5F5F2031 
 1447 13c4 01       		.byte	0x1
 1448 13c5 00       		.uleb128 0
 1449 13c6 5F5F4445 		.ascii "__DEC64_MIN_EXP__ (-382)\0"
 1449      4336345F 
 1449      4D494E5F 
 1449      4558505F 
 1449      5F20282D 
 1450 13df 01       		.byte	0x1
 1451 13e0 00       		.uleb128 0
 1452 13e1 5F5F4445 		.ascii "__DEC64_MAX_EXP__ 385\0"
 1452      4336345F 
 1452      4D41585F 
 1452      4558505F 
 1452      5F203338 
 1453 13f7 01       		.byte	0x1
 1454 13f8 00       		.uleb128 0
 1455 13f9 5F5F4445 		.ascii "__DEC64_MIN__ 1E-383DD\0"
 1455      4336345F 
 1455      4D494E5F 
 1455      5F203145 
 1455      2D333833 
 1456 1410 01       		.byte	0x1
 1457 1411 00       		.uleb128 0
 1458 1412 5F5F4445 		.ascii "__DEC64_MAX__ 9.999999999999999E384DD\0"
 1458      4336345F 
 1458      4D41585F 
 1458      5F20392E 
 1458      39393939 
GAS LISTING C:\Users\PRESID~1\AppData\Local\Temp\ccOK1yOd.s 			page 43


 1459 1438 01       		.byte	0x1
 1460 1439 00       		.uleb128 0
 1461 143a 5F5F4445 		.ascii "__DEC64_EPSILON__ 1E-15DD\0"
 1461      4336345F 
 1461      45505349 
 1461      4C4F4E5F 
 1461      5F203145 
 1462 1454 01       		.byte	0x1
 1463 1455 00       		.uleb128 0
 1464 1456 5F5F4445 		.ascii "__DEC64_SUBNORMAL_MIN__ 0.000000000000001E-383DD\0"
 1464      4336345F 
 1464      5355424E 
 1464      4F524D41 
 1464      4C5F4D49 
 1465 1487 01       		.byte	0x1
 1466 1488 00       		.uleb128 0
 1467 1489 5F5F4445 		.ascii "__DEC128_MANT_DIG__ 34\0"
 1467      43313238 
 1467      5F4D414E 
 1467      545F4449 
 1467      475F5F20 
 1468 14a0 01       		.byte	0x1
 1469 14a1 00       		.uleb128 0
 1470 14a2 5F5F4445 		.ascii "__DEC128_MIN_EXP__ (-6142)\0"
 1470      43313238 
 1470      5F4D494E 
 1470      5F455850 
 1470      5F5F2028 
 1471 14bd 01       		.byte	0x1
 1472 14be 00       		.uleb128 0
 1473 14bf 5F5F4445 		.ascii "__DEC128_MAX_EXP__ 6145\0"
 1473      43313238 
 1473      5F4D4158 
 1473      5F455850 
 1473      5F5F2036 
 1474 14d7 01       		.byte	0x1
 1475 14d8 00       		.uleb128 0
 1476 14d9 5F5F4445 		.ascii "__DEC128_MIN__ 1E-6143DL\0"
 1476      43313238 
 1476      5F4D494E 
 1476      5F5F2031 
 1476      452D3631 
 1477 14f2 01       		.byte	0x1
 1478 14f3 00       		.uleb128 0
 1479 14f4 5F5F4445 		.ascii "__DEC128_MAX__ 9.999999999999999999999999999999999E6144DL\0"
 1479      43313238 
 1479      5F4D4158 
 1479      5F5F2039 
 1479      2E393939 
 1480 152e 01       		.byte	0x1
 1481 152f 00       		.uleb128 0
 1482 1530 5F5F4445 		.ascii "__DEC128_EPSILON__ 1E-33DL\0"
 1482      43313238 
 1482      5F455053 
 1482      494C4F4E 
 1482      5F5F2031 
 1483 154b 01       		.byte	0x1
GAS LISTING C:\Users\PRESID~1\AppData\Local\Temp\ccOK1yOd.s 			page 44


 1484 154c 00       		.uleb128 0
 1485 154d 5F5F4445 		.ascii "__DEC128_SUBNORMAL_MIN__ 0.000000000000000000000000000000001E-6143DL\0"
 1485      43313238 
 1485      5F535542 
 1485      4E4F524D 
 1485      414C5F4D 
 1486 1592 01       		.byte	0x1
 1487 1593 00       		.uleb128 0
 1488 1594 5F5F5245 		.ascii "__REGISTER_PREFIX__ \0"
 1488      47495354 
 1488      45525F50 
 1488      52454649 
 1488      585F5F20 
 1489 15a9 01       		.byte	0x1
 1490 15aa 00       		.uleb128 0
 1491 15ab 5F5F5553 		.ascii "__USER_LABEL_PREFIX__ _\0"
 1491      45525F4C 
 1491      4142454C 
 1491      5F505245 
 1491      4649585F 
 1492 15c3 01       		.byte	0x1
 1493 15c4 00       		.uleb128 0
 1494 15c5 5F5F474E 		.ascii "__GNUC_GNU_INLINE__ 1\0"
 1494      55435F47 
 1494      4E555F49 
 1494      4E4C494E 
 1494      455F5F20 
 1495 15db 01       		.byte	0x1
 1496 15dc 00       		.uleb128 0
 1497 15dd 5F5F4E4F 		.ascii "__NO_INLINE__ 1\0"
 1497      5F494E4C 
 1497      494E455F 
 1497      5F203100 
 1498 15ed 01       		.byte	0x1
 1499 15ee 00       		.uleb128 0
 1500 15ef 5F5F5354 		.ascii "__STRICT_ANSI__ 1\0"
 1500      52494354 
 1500      5F414E53 
 1500      495F5F20 
 1500      3100
 1501 1601 01       		.byte	0x1
 1502 1602 00       		.uleb128 0
 1503 1603 5F5F4743 		.ascii "__GCC_ATOMIC_BOOL_LOCK_FREE 1\0"
 1503      435F4154 
 1503      4F4D4943 
 1503      5F424F4F 
 1503      4C5F4C4F 
 1504 1621 01       		.byte	0x1
 1505 1622 00       		.uleb128 0
 1506 1623 5F5F4743 		.ascii "__GCC_ATOMIC_CHAR_LOCK_FREE 1\0"
 1506      435F4154 
 1506      4F4D4943 
 1506      5F434841 
 1506      525F4C4F 
 1507 1641 01       		.byte	0x1
 1508 1642 00       		.uleb128 0
 1509 1643 5F5F4743 		.ascii "__GCC_ATOMIC_CHAR16_T_LOCK_FREE 1\0"
GAS LISTING C:\Users\PRESID~1\AppData\Local\Temp\ccOK1yOd.s 			page 45


 1509      435F4154 
 1509      4F4D4943 
 1509      5F434841 
 1509      5231365F 
 1510 1665 01       		.byte	0x1
 1511 1666 00       		.uleb128 0
 1512 1667 5F5F4743 		.ascii "__GCC_ATOMIC_CHAR32_T_LOCK_FREE 1\0"
 1512      435F4154 
 1512      4F4D4943 
 1512      5F434841 
 1512      5233325F 
 1513 1689 01       		.byte	0x1
 1514 168a 00       		.uleb128 0
 1515 168b 5F5F4743 		.ascii "__GCC_ATOMIC_WCHAR_T_LOCK_FREE 1\0"
 1515      435F4154 
 1515      4F4D4943 
 1515      5F574348 
 1515      41525F54 
 1516 16ac 01       		.byte	0x1
 1517 16ad 00       		.uleb128 0
 1518 16ae 5F5F4743 		.ascii "__GCC_ATOMIC_SHORT_LOCK_FREE 1\0"
 1518      435F4154 
 1518      4F4D4943 
 1518      5F53484F 
 1518      52545F4C 
 1519 16cd 01       		.byte	0x1
 1520 16ce 00       		.uleb128 0
 1521 16cf 5F5F4743 		.ascii "__GCC_ATOMIC_INT_LOCK_FREE 1\0"
 1521      435F4154 
 1521      4F4D4943 
 1521      5F494E54 
 1521      5F4C4F43 
 1522 16ec 01       		.byte	0x1
 1523 16ed 00       		.uleb128 0
 1524 16ee 5F5F4743 		.ascii "__GCC_ATOMIC_LONG_LOCK_FREE 1\0"
 1524      435F4154 
 1524      4F4D4943 
 1524      5F4C4F4E 
 1524      475F4C4F 
 1525 170c 01       		.byte	0x1
 1526 170d 00       		.uleb128 0
 1527 170e 5F5F4743 		.ascii "__GCC_ATOMIC_LLONG_LOCK_FREE 1\0"
 1527      435F4154 
 1527      4F4D4943 
 1527      5F4C4C4F 
 1527      4E475F4C 
 1528 172d 01       		.byte	0x1
 1529 172e 00       		.uleb128 0
 1530 172f 5F5F4743 		.ascii "__GCC_ATOMIC_TEST_AND_SET_TRUEVAL 1\0"
 1530      435F4154 
 1530      4F4D4943 
 1530      5F544553 
 1530      545F414E 
 1531 1753 01       		.byte	0x1
 1532 1754 00       		.uleb128 0
 1533 1755 5F5F4743 		.ascii "__GCC_ATOMIC_POINTER_LOCK_FREE 1\0"
 1533      435F4154 
GAS LISTING C:\Users\PRESID~1\AppData\Local\Temp\ccOK1yOd.s 			page 46


 1533      4F4D4943 
 1533      5F504F49 
 1533      4E544552 
 1534 1776 01       		.byte	0x1
 1535 1777 00       		.uleb128 0
 1536 1778 5F5F4743 		.ascii "__GCC_HAVE_DWARF2_CFI_ASM 1\0"
 1536      435F4841 
 1536      56455F44 
 1536      57415246 
 1536      325F4346 
 1537 1794 01       		.byte	0x1
 1538 1795 00       		.uleb128 0
 1539 1796 5F5F5052 		.ascii "__PRAGMA_REDEFINE_EXTNAME 1\0"
 1539      41474D41 
 1539      5F524544 
 1539      4546494E 
 1539      455F4558 
 1540 17b2 01       		.byte	0x1
 1541 17b3 00       		.uleb128 0
 1542 17b4 5F5F5349 		.ascii "__SIZEOF_WCHAR_T__ 2\0"
 1542      5A454F46 
 1542      5F574348 
 1542      41525F54 
 1542      5F5F2032 
 1543 17c9 01       		.byte	0x1
 1544 17ca 00       		.uleb128 0
 1545 17cb 5F5F5349 		.ascii "__SIZEOF_WINT_T__ 2\0"
 1545      5A454F46 
 1545      5F57494E 
 1545      545F545F 
 1545      5F203200 
 1546 17df 01       		.byte	0x1
 1547 17e0 00       		.uleb128 0
 1548 17e1 5F5F5349 		.ascii "__SIZEOF_PTRDIFF_T__ 4\0"
 1548      5A454F46 
 1548      5F505452 
 1548      44494646 
 1548      5F545F5F 
 1549 17f8 01       		.byte	0x1
 1550 17f9 00       		.uleb128 0
 1551 17fa 5F5F6933 		.ascii "__i386 1\0"
 1551      38362031 
 1551      00
 1552 1803 01       		.byte	0x1
 1553 1804 00       		.uleb128 0
 1554 1805 5F5F6933 		.ascii "__i386__ 1\0"
 1554      38365F5F 
 1554      203100
 1555 1810 01       		.byte	0x1
 1556 1811 00       		.uleb128 0
 1557 1812 5F5F4154 		.ascii "__ATOMIC_HLE_ACQUIRE 65536\0"
 1557      4F4D4943 
 1557      5F484C45 
 1557      5F414351 
 1557      55495245 
 1558 182d 01       		.byte	0x1
 1559 182e 00       		.uleb128 0
GAS LISTING C:\Users\PRESID~1\AppData\Local\Temp\ccOK1yOd.s 			page 47


 1560 182f 5F5F4154 		.ascii "__ATOMIC_HLE_RELEASE 131072\0"
 1560      4F4D4943 
 1560      5F484C45 
 1560      5F52454C 
 1560      45415345 
 1561 184b 01       		.byte	0x1
 1562 184c 00       		.uleb128 0
 1563 184d 5F5F7475 		.ascii "__tune_i386__ 1\0"
 1563      6E655F69 
 1563      3338365F 
 1563      5F203100 
 1564 185d 01       		.byte	0x1
 1565 185e 00       		.uleb128 0
 1566 185f 5F5F636F 		.ascii "__code_model_32__ 1\0"
 1566      64655F6D 
 1566      6F64656C 
 1566      5F33325F 
 1566      5F203100 
 1567 1873 01       		.byte	0x1
 1568 1874 00       		.uleb128 0
 1569 1875 5F583836 		.ascii "_X86_ 1\0"
 1569      5F203100 
 1570 187d 01       		.byte	0x1
 1571 187e 00       		.uleb128 0
 1572 187f 5F5F7374 		.ascii "__stdcall __attribute__((__stdcall__))\0"
 1572      6463616C 
 1572      6C205F5F 
 1572      61747472 
 1572      69627574 
 1573 18a6 01       		.byte	0x1
 1574 18a7 00       		.uleb128 0
 1575 18a8 5F5F6661 		.ascii "__fastcall __attribute__((__fastcall__))\0"
 1575      73746361 
 1575      6C6C205F 
 1575      5F617474 
 1575      72696275 
 1576 18d1 01       		.byte	0x1
 1577 18d2 00       		.uleb128 0
 1578 18d3 5F5F7468 		.ascii "__thiscall __attribute__((__thiscall__))\0"
 1578      69736361 
 1578      6C6C205F 
 1578      5F617474 
 1578      72696275 
 1579 18fc 01       		.byte	0x1
 1580 18fd 00       		.uleb128 0
 1581 18fe 5F5F6364 		.ascii "__cdecl __attribute__((__cdecl__))\0"
 1581      65636C20 
 1581      5F5F6174 
 1581      74726962 
 1581      7574655F 
 1582 1921 01       		.byte	0x1
 1583 1922 00       		.uleb128 0
 1584 1923 5F5F4758 		.ascii "__GXX_MERGED_TYPEINFO_NAMES 0\0"
 1584      585F4D45 
 1584      52474544 
 1584      5F545950 
 1584      45494E46 
GAS LISTING C:\Users\PRESID~1\AppData\Local\Temp\ccOK1yOd.s 			page 48


 1585 1941 01       		.byte	0x1
 1586 1942 00       		.uleb128 0
 1587 1943 5F5F4758 		.ascii "__GXX_TYPEINFO_EQUALITY_INLINE 0\0"
 1587      585F5459 
 1587      5045494E 
 1587      464F5F45 
 1587      5155414C 
 1588 1964 01       		.byte	0x1
 1589 1965 00       		.uleb128 0
 1590 1966 5F5F4D53 		.ascii "__MSVCRT__ 1\0"
 1590      56435254 
 1590      5F5F2031 
 1590      00
 1591 1973 01       		.byte	0x1
 1592 1974 00       		.uleb128 0
 1593 1975 5F5F4D49 		.ascii "__MINGW32__ 1\0"
 1593      4E475733 
 1593      325F5F20 
 1593      3100
 1594 1983 01       		.byte	0x1
 1595 1984 00       		.uleb128 0
 1596 1985 5F57494E 		.ascii "_WIN32 1\0"
 1596      33322031 
 1596      00
 1597 198e 01       		.byte	0x1
 1598 198f 00       		.uleb128 0
 1599 1990 5F5F5749 		.ascii "__WIN32 1\0"
 1599      4E333220 
 1599      3100
 1600 199a 01       		.byte	0x1
 1601 199b 00       		.uleb128 0
 1602 199c 5F5F5749 		.ascii "__WIN32__ 1\0"
 1602      4E33325F 
 1602      5F203100 
 1603 19a8 01       		.byte	0x1
 1604 19a9 00       		.uleb128 0
 1605 19aa 5F5F5749 		.ascii "__WINNT 1\0"
 1605      4E4E5420 
 1605      3100
 1606 19b4 01       		.byte	0x1
 1607 19b5 00       		.uleb128 0
 1608 19b6 5F5F5749 		.ascii "__WINNT__ 1\0"
 1608      4E4E545F 
 1608      5F203100 
 1609 19c2 01       		.byte	0x1
 1610 19c3 00       		.uleb128 0
 1611 19c4 5F494E54 		.ascii "_INTEGRAL_MAX_BITS 64\0"
 1611      45475241 
 1611      4C5F4D41 
 1611      585F4249 
 1611      54532036 
 1612 19da 01       		.byte	0x1
 1613 19db 00       		.uleb128 0
 1614 19dc 5F5F6465 		.ascii "__declspec(x) __attribute__((x))\0"
 1614      636C7370 
 1614      65632878 
 1614      29205F5F 
GAS LISTING C:\Users\PRESID~1\AppData\Local\Temp\ccOK1yOd.s 			page 49


 1614      61747472 
 1615 19fd 01       		.byte	0x1
 1616 19fe 00       		.uleb128 0
 1617 19ff 5F5F4445 		.ascii "__DECIMAL_BID_FORMAT__ 1\0"
 1617      43494D41 
 1617      4C5F4249 
 1617      445F464F 
 1617      524D4154 
 1618 1a18 01       		.byte	0x1
 1619 1a19 00       		.uleb128 0
 1620 1a1a 4346475F 		.ascii "CFG_PROCESSOR 3\0"
 1620      50524F43 
 1620      4553534F 
 1620      52203300 
 1621 1a2a 03       		.byte	0x3
 1622 1a2b 00       		.uleb128 0
 1623 1a2c 01       		.uleb128 0x1
 1624              		.file 4 "E:/NeuOrga/Programmieren/c_cpp/github_os/input/src/os_base/os_firstinc.h"
 1625 1a2d 03       		.byte	0x3
 1626 1a2e 01       		.uleb128 0x1
 1627 1a2f 04       		.uleb128 0x4
 1628 1a30 01       		.byte	0x1
 1629 1a31 02       		.uleb128 0x2
 1630 1a32 5F6F735F 		.ascii "_os_firstinc_h_ \0"
 1630      66697273 
 1630      74696E63 
 1630      5F685F20 
 1630      00
 1631 1a43 03       		.byte	0x3
 1632 1a44 04       		.uleb128 0x4
 1633 1a45 02       		.uleb128 0x2
 1634 1a46 01       		.byte	0x1
 1635 1a47 02       		.uleb128 0x2
 1636 1a48 5F424153 		.ascii "_BASE_TYPES_H_ \0"
 1636      455F5459 
 1636      5045535F 
 1636      485F2000 
 1637 1a58 01       		.byte	0x1
 1638 1a59 04       		.uleb128 0x4
 1639 1a5a 494E5445 		.ascii "INTEGER_LLP64_IL32P64 1\0"
 1639      4745525F 
 1639      4C4C5036 
 1639      345F494C 
 1639      33325036 
 1640 1a72 01       		.byte	0x1
 1641 1a73 05       		.uleb128 0x5
 1642 1a74 494E5445 		.ascii "INTEGER_LP64_I32LP64 2\0"
 1642      4745525F 
 1642      4C503634 
 1642      5F493332 
 1642      4C503634 
 1643 1a8b 01       		.byte	0x1
 1644 1a8c 06       		.uleb128 0x6
 1645 1a8d 494E5445 		.ascii "INTEGER_ILP64 3\0"
 1645      4745525F 
 1645      494C5036 
 1645      34203300 
GAS LISTING C:\Users\PRESID~1\AppData\Local\Temp\ccOK1yOd.s 			page 50


 1646 1a9d 01       		.byte	0x1
 1647 1a9e 07       		.uleb128 0x7
 1648 1a9f 494E5445 		.ascii "INTEGER_SILP64 4\0"
 1648      4745525F 
 1648      53494C50 
 1648      36342034 
 1648      00
 1649 1ab0 01       		.byte	0x1
 1650 1ab1 09       		.uleb128 0x9
 1651 1ab2 4350505F 		.ascii "CPP_VERSION_NONE 0\0"
 1651      56455253 
 1651      494F4E5F 
 1651      4E4F4E45 
 1651      203000
 1652 1ac5 01       		.byte	0x1
 1653 1ac6 0A       		.uleb128 0xa
 1654 1ac7 4350505F 		.ascii "CPP_VERSION_1998 1\0"
 1654      56455253 
 1654      494F4E5F 
 1654      31393938 
 1654      203100
 1655 1ada 01       		.byte	0x1
 1656 1adb 0B       		.uleb128 0xb
 1657 1adc 4350505F 		.ascii "CPP_VERSION_2003 2\0"
 1657      56455253 
 1657      494F4E5F 
 1657      32303033 
 1657      203200
 1658 1aef 01       		.byte	0x1
 1659 1af0 0C       		.uleb128 0xc
 1660 1af1 4350505F 		.ascii "CPP_VERSION_2007 3\0"
 1660      56455253 
 1660      494F4E5F 
 1660      32303037 
 1660      203300
 1661 1b04 01       		.byte	0x1
 1662 1b05 0D       		.uleb128 0xd
 1663 1b06 4350505F 		.ascii "CPP_VERSION_2011 4\0"
 1663      56455253 
 1663      494F4E5F 
 1663      32303131 
 1663      203400
 1664 1b19 01       		.byte	0x1
 1665 1b1a 0E       		.uleb128 0xe
 1666 1b1b 49534F5F 		.ascii "ISO_CPP_VERSION CPP_VERSION_1998\0"
 1666      4350505F 
 1666      56455253 
 1666      494F4E20 
 1666      4350505F 
 1667 1b3c 01       		.byte	0x1
 1668 1b3d 10       		.uleb128 0x10
 1669 1b3e 494E5445 		.ascii "INTEGER_MODEL INTEGER_LLP64_IL32P64\0"
 1669      4745525F 
 1669      4D4F4445 
 1669      4C20494E 
 1669      54454745 
 1670 1b62 04       		.byte	0x4
GAS LISTING C:\Users\PRESID~1\AppData\Local\Temp\ccOK1yOd.s 			page 51


 1671              		.file 5 "E:/NeuOrga/Programmieren/c_cpp/github_os/input/src/os_base/../os_base/os_common.h"
 1672 1b63 03       		.byte	0x3
 1673 1b64 05       		.uleb128 0x5
 1674 1b65 05       		.uleb128 0x5
 1675 1b66 01       		.byte	0x1
 1676 1b67 02       		.uleb128 0x2
 1677 1b68 5F6F735F 		.ascii "_os_common_h_ \0"
 1677      636F6D6D 
 1677      6F6E5F68 
 1677      5F2000
 1678 1b77 01       		.byte	0x1
 1679 1b78 06       		.uleb128 0x6
 1680 1b79 46616C73 		.ascii "False 0\0"
 1680      65203000 
 1681 1b81 01       		.byte	0x1
 1682 1b82 07       		.uleb128 0x7
 1683 1b83 54727565 		.ascii "True 1\0"
 1683      203100
 1684 1b8a 01       		.byte	0x1
 1685 1b8b 08       		.uleb128 0x8
 1686 1b8c 46414C53 		.ascii "FALSE False\0"
 1686      45204661 
 1686      6C736500 
 1687 1b98 01       		.byte	0x1
 1688 1b99 09       		.uleb128 0x9
 1689 1b9a 54525545 		.ascii "TRUE True\0"
 1689      20547275 
 1689      6500
 1690 1ba4 01       		.byte	0x1
 1691 1ba5 0A       		.uleb128 0xa
 1692 1ba6 41636365 		.ascii "Accepted 1\0"
 1692      70746564 
 1692      203100
 1693 1bb1 01       		.byte	0x1
 1694 1bb2 0B       		.uleb128 0xb
 1695 1bb3 52656A65 		.ascii "Rejected 0\0"
 1695      63746564 
 1695      203000
 1696 1bbe 01       		.byte	0x1
 1697 1bbf 0C       		.uleb128 0xc
 1698 1bc0 4C6F6361 		.ascii "Local static\0"
 1698      6C207374 
 1698      61746963 
 1698      00
 1699 1bcd 01       		.byte	0x1
 1700 1bce 0D       		.uleb128 0xd
 1701 1bcf 4C6F6361 		.ascii "Local_inline static __inline__\0"
 1701      6C5F696E 
 1701      6C696E65 
 1701      20737461 
 1701      74696320 
 1702 1bee 01       		.byte	0x1
 1703 1bef 0E       		.uleb128 0xe
 1704 1bf0 476C6F62 		.ascii "Global_inline __inline__\0"
 1704      616C5F69 
 1704      6E6C696E 
 1704      65205F5F 
GAS LISTING C:\Users\PRESID~1\AppData\Local\Temp\ccOK1yOd.s 			page 52


 1704      696E6C69 
 1705 1c09 01       		.byte	0x1
 1706 1c0a 0F       		.uleb128 0xf
 1707 1c0b 52656665 		.ascii "ReferenceUnusedParameter(x) ((x) = (x))\0"
 1707      72656E63 
 1707      65556E75 
 1707      73656450 
 1707      6172616D 
 1708 1c33 01       		.byte	0x1
 1709 1c34 12       		.uleb128 0x12
 1710 1c35 634D4355 		.ascii "cMCU_SIMULATION 1\0"
 1710      5F53494D 
 1710      554C4154 
 1710      494F4E20 
 1710      3100
 1711 1c47 01       		.byte	0x1
 1712 1c48 13       		.uleb128 0x13
 1713 1c49 634D4355 		.ascii "cMCU_POWERPC 2\0"
 1713      5F504F57 
 1713      45525043 
 1713      203200
 1714 1c58 01       		.byte	0x1
 1715 1c59 14       		.uleb128 0x14
 1716 1c5a 634D4355 		.ascii "cMCU_X86 3\0"
 1716      5F583836 
 1716      203300
 1717 1c65 01       		.byte	0x1
 1718 1c66 15       		.uleb128 0x15
 1719 1c67 634D4355 		.ascii "cMCU_CORTEX_M4 4\0"
 1719      5F434F52 
 1719      5445585F 
 1719      4D342034 
 1719      00
 1720 1c78 01       		.byte	0x1
 1721 1c79 18       		.uleb128 0x18
 1722 1c7a 4E525F4F 		.ascii "NR_OF_CORES 1\0"
 1722      465F434F 
 1722      52455320 
 1722      3100
 1723 1c88 01       		.byte	0x1
 1724 1c89 25       		.uleb128 0x25
 1725 1c8a 44697361 		.ascii "DisableInterrupts() \0"
 1725      626C6549 
 1725      6E746572 
 1725      72757074 
 1725      73282920 
 1726 1c9f 01       		.byte	0x1
 1727 1ca0 26       		.uleb128 0x26
 1728 1ca1 456E6162 		.ascii "EnableInterrupts() \0"
 1728      6C65496E 
 1728      74657272 
 1728      75707473 
 1728      28292000 
 1729 1cb5 01       		.byte	0x1
 1730 1cb6 27       		.uleb128 0x27
 1731 1cb7 50726976 		.ascii "Privilige_level_save_current() \0"
 1731      696C6967 
GAS LISTING C:\Users\PRESID~1\AppData\Local\Temp\ccOK1yOd.s 			page 53


 1731      655F6C65 
 1731      76656C5F 
 1731      73617665 
 1732 1cd7 01       		.byte	0x1
 1733 1cd8 28       		.uleb128 0x28
 1734 1cd9 50726976 		.ascii "Privilige_level_enter_kernel_mode() \0"
 1734      696C6967 
 1734      655F6C65 
 1734      76656C5F 
 1734      656E7465 
 1735 1cfe 01       		.byte	0x1
 1736 1cff 29       		.uleb128 0x29
 1737 1d00 50726976 		.ascii "Privilige_level_restore_saved() \0"
 1737      696C6967 
 1737      655F6C65 
 1737      76656C5F 
 1737      72657374 
 1738 1d21 01       		.byte	0x1
 1739 1d22 2A       		.uleb128 0x2a
 1740 1d23 48616C74 		.ascii "HaltMcu() \0"
 1740      4D637528 
 1740      292000
 1741 1d2e 04       		.byte	0x4
 1742 1d2f 03       		.byte	0x3
 1743 1d30 07       		.uleb128 0x7
 1744 1d31 03       		.uleb128 0x3
 1745 1d32 01       		.byte	0x1
 1746 1d33 02       		.uleb128 0x2
 1747 1d34 5F4F535F 		.ascii "_OS_RAM_H_ \0"
 1747      52414D5F 
 1747      485F2000 
 1748              		.file 6 "E:/NeuOrga/Programmieren/c_cpp/github_os/input/src/os_base/../os_base/os_firstinc.h"
 1749 1d40 03       		.byte	0x3
 1750 1d41 04       		.uleb128 0x4
 1751 1d42 06       		.uleb128 0x6
 1752 1d43 04       		.byte	0x4
 1753              		.file 7 "E:/NeuOrga/Programmieren/c_cpp/github_os/input/src/os_base/../os_base/os_stack.h"
 1754 1d44 03       		.byte	0x3
 1755 1d45 05       		.uleb128 0x5
 1756 1d46 07       		.uleb128 0x7
 1757 1d47 01       		.byte	0x1
 1758 1d48 02       		.uleb128 0x2
 1759 1d49 5F6F735F 		.ascii "_os_stack_h_ \0"
 1759      73746163 
 1759      6B5F685F 
 1759      2000
 1760 1d57 01       		.byte	0x1
 1761 1d58 04       		.uleb128 0x4
 1762 1d59 4F535F53 		.ascii "OS_STACK_SIZE 0x100\0"
 1762      5441434B 
 1762      5F53495A 
 1762      45203078 
 1762      31303000 
 1763 1d6d 04       		.byte	0x4
 1764              		.file 8 "E:/NeuOrga/Programmieren/c_cpp/github_os/input/src/os_base/../os_base/os_heap.h"
 1765 1d6e 03       		.byte	0x3
 1766 1d6f 06       		.uleb128 0x6
GAS LISTING C:\Users\PRESID~1\AppData\Local\Temp\ccOK1yOd.s 			page 54


 1767 1d70 08       		.uleb128 0x8
 1768 1d71 01       		.byte	0x1
 1769 1d72 02       		.uleb128 0x2
 1770 1d73 5F6F735F 		.ascii "_os_heap_h_ \0"
 1770      68656170 
 1770      5F685F20 
 1770      00
 1771 1d80 01       		.byte	0x1
 1772 1d81 05       		.uleb128 0x5
 1773 1d82 48454150 		.ascii "HEAP_SIZE 10000\0"
 1773      5F53495A 
 1773      45203130 
 1773      30303000 
 1774 1d92 01       		.byte	0x1
 1775 1d93 06       		.uleb128 0x6
 1776 1d94 4D494E5F 		.ascii "MIN_BLOCK_SIZE_HEAP 8\0"
 1776      424C4F43 
 1776      4B5F5349 
 1776      5A455F48 
 1776      45415020 
 1777 1daa 01       		.byte	0x1
 1778 1dab 09       		.uleb128 0x9
 1779 1dac 48454150 		.ascii "HEAP_OFFSET_FOR_SIZE 0\0"
 1779      5F4F4646 
 1779      5345545F 
 1779      464F525F 
 1779      53495A45 
 1780 1dc3 01       		.byte	0x1
 1781 1dc4 0A       		.uleb128 0xa
 1782 1dc5 48454150 		.ascii "HEAP_OFFSET_FOR_USED_SIZE 4\0"
 1782      5F4F4646 
 1782      5345545F 
 1782      464F525F 
 1782      55534544 
 1783 1de1 01       		.byte	0x1
 1784 1de2 0B       		.uleb128 0xb
 1785 1de3 48454150 		.ascii "HEAP_OFFSET_FOR_CHUNK 8\0"
 1785      5F4F4646 
 1785      5345545F 
 1785      464F525F 
 1785      4348554E 
 1786 1dfb 04       		.byte	0x4
 1787 1dfc 04       		.byte	0x4
 1788              		.file 9 "E:/NeuOrga/Programmieren/c_cpp/github_os/input/src/os_base/../os_sim/lld_global.h"
 1789 1dfd 03       		.byte	0x3
 1790 1dfe 0A       		.uleb128 0xa
 1791 1dff 09       		.uleb128 0x9
 1792 1e00 01       		.byte	0x1
 1793 1e01 02       		.uleb128 0x2
 1794 1e02 5F6C6C64 		.ascii "_lld_global_h_ \0"
 1794      5F676C6F 
 1794      62616C5F 
 1794      685F2000 
 1795              		.file 10 "E:/NeuOrga/Programmieren/c_cpp/github_os/input/src/os_base/../os_sim/lld_core.h"
 1796 1e12 03       		.byte	0x3
 1797 1e13 04       		.uleb128 0x4
 1798 1e14 0A       		.uleb128 0xa
GAS LISTING C:\Users\PRESID~1\AppData\Local\Temp\ccOK1yOd.s 			page 55


 1799 1e15 01       		.byte	0x1
 1800 1e16 02       		.uleb128 0x2
 1801 1e17 5F6C6C64 		.ascii "_lld_core_h_ \0"
 1801      5F636F72 
 1801      655F685F 
 1801      2000
 1802              		.file 11 "E:/NeuOrga/Programmieren/c_cpp/github_os/input/src/os_base/../os_sim/../os_base/os_first
 1803 1e25 03       		.byte	0x3
 1804 1e26 03       		.uleb128 0x3
 1805 1e27 0B       		.uleb128 0xb
 1806 1e28 04       		.byte	0x4
 1807 1e29 04       		.byte	0x4
 1808              		.file 12 "E:/NeuOrga/Programmieren/c_cpp/github_os/input/src/os_base/../os_sim/lld_interrupt.h"
 1809 1e2a 03       		.byte	0x3
 1810 1e2b 05       		.uleb128 0x5
 1811 1e2c 0C       		.uleb128 0xc
 1812 1e2d 01       		.byte	0x1
 1813 1e2e 02       		.uleb128 0x2
 1814 1e2f 5F6C6C64 		.ascii "_lld_interrupt_h_ \0"
 1814      5F696E74 
 1814      65727275 
 1814      70745F68 
 1814      5F2000
 1815 1e42 01       		.byte	0x1
 1816 1e43 05       		.uleb128 0x5
 1817 1e44 6F735F69 		.ascii "os_interrupt_swi_1 asm(\"swi 1\")\0"
 1817      6E746572 
 1817      72757074 
 1817      5F737769 
 1817      5F312061 
 1818 1e64 01       		.byte	0x1
 1819 1e65 06       		.uleb128 0x6
 1820 1e66 6F735F69 		.ascii "os_interrupt_swi_2 asm(\"swi 2\")\0"
 1820      6E746572 
 1820      72757074 
 1820      5F737769 
 1820      5F322061 
 1821 1e86 01       		.byte	0x1
 1822 1e87 07       		.uleb128 0x7
 1823 1e88 6F735F69 		.ascii "os_interrupt_swi_3 asm(\"swi 3\")\0"
 1823      6E746572 
 1823      72757074 
 1823      5F737769 
 1823      5F332061 
 1824 1ea8 01       		.byte	0x1
 1825 1ea9 08       		.uleb128 0x8
 1826 1eaa 6F735F69 		.ascii "os_interrupt_swi_4 asm(\"swi 4\")\0"
 1826      6E746572 
 1826      72757074 
 1826      5F737769 
 1826      5F342061 
 1827 1eca 01       		.byte	0x1
 1828 1ecb 09       		.uleb128 0x9
 1829 1ecc 6F735F69 		.ascii "os_interrupt_swi_5 asm(\"swi 5\")\0"
 1829      6E746572 
 1829      72757074 
 1829      5F737769 
GAS LISTING C:\Users\PRESID~1\AppData\Local\Temp\ccOK1yOd.s 			page 56


 1829      5F352061 
 1830 1eec 04       		.byte	0x4
 1831              		.file 13 "E:/NeuOrga/Programmieren/c_cpp/github_os/input/src/os_base/../os_sim/lld_mmu.h"
 1832 1eed 03       		.byte	0x3
 1833 1eee 06       		.uleb128 0x6
 1834 1eef 0D       		.uleb128 0xd
 1835 1ef0 01       		.byte	0x1
 1836 1ef1 02       		.uleb128 0x2
 1837 1ef2 5F6C6C64 		.ascii "_lld_mmu_h_ \0"
 1837      5F6D6D75 
 1837      5F685F20 
 1837      00
 1838 1eff 04       		.byte	0x4
 1839              		.file 14 "E:/NeuOrga/Programmieren/c_cpp/github_os/input/src/os_base/../os_sim/lld_timer.h"
 1840 1f00 03       		.byte	0x3
 1841 1f01 07       		.uleb128 0x7
 1842 1f02 0E       		.uleb128 0xe
 1843 1f03 01       		.byte	0x1
 1844 1f04 02       		.uleb128 0x2
 1845 1f05 5F6C6C64 		.ascii "_lld_timer_h_ \0"
 1845      5F74696D 
 1845      65725F68 
 1845      5F2000
 1846 1f14 04       		.byte	0x4
 1847              		.file 15 "E:/NeuOrga/Programmieren/c_cpp/github_os/input/src/os_base/../os_sim/lld_power.h"
 1848 1f15 03       		.byte	0x3
 1849 1f16 08       		.uleb128 0x8
 1850 1f17 0F       		.uleb128 0xf
 1851 1f18 01       		.byte	0x1
 1852 1f19 02       		.uleb128 0x2
 1853 1f1a 5F6C6C64 		.ascii "_lld_power_h_ \0"
 1853      5F706F77 
 1853      65725F68 
 1853      5F2000
 1854 1f29 04       		.byte	0x4
 1855              		.file 16 "E:/NeuOrga/Programmieren/c_cpp/github_os/input/src/os_base/../os_sim/lld_ram.h"
 1856 1f2a 03       		.byte	0x3
 1857 1f2b 09       		.uleb128 0x9
 1858 1f2c 10       		.uleb128 0x10
 1859 1f2d 01       		.byte	0x1
 1860 1f2e 02       		.uleb128 0x2
 1861 1f2f 5F6C6C64 		.ascii "_lld_ram_h_ \0"
 1861      5F72616D 
 1861      5F685F20 
 1861      00
 1862 1f3c 04       		.byte	0x4
 1863              		.file 17 "E:/NeuOrga/Programmieren/c_cpp/github_os/input/src/os_base/../os_sim/../os_base/os_task_
 1864 1f3d 03       		.byte	0x3
 1865 1f3e 0A       		.uleb128 0xa
 1866 1f3f 11       		.uleb128 0x11
 1867 1f40 01       		.byte	0x1
 1868 1f41 02       		.uleb128 0x2
 1869 1f42 5F6F735F 		.ascii "_os_task_common_h_ \0"
 1869      7461736B 
 1869      5F636F6D 
 1869      6D6F6E5F 
 1869      685F2000 
GAS LISTING C:\Users\PRESID~1\AppData\Local\Temp\ccOK1yOd.s 			page 57


 1870              		.file 18 "E:/NeuOrga/Programmieren/c_cpp/github_os/input/src/os_base/../os_sim/../os_base/os_task_
 1871 1f56 03       		.byte	0x3
 1872 1f57 04       		.uleb128 0x4
 1873 1f58 12       		.uleb128 0x12
 1874 1f59 01       		.byte	0x1
 1875 1f5a 02       		.uleb128 0x2
 1876 1f5b 5F6F735F 		.ascii "_os_task_config_h_ \0"
 1876      7461736B 
 1876      5F636F6E 
 1876      6669675F 
 1876      685F2000 
 1877 1f6f 01       		.byte	0x1
 1878 1f70 05       		.uleb128 0x5
 1879 1f71 53636865 		.ascii "SchedulerFrequency (1.0e3)\0"
 1879      64756C65 
 1879      72467265 
 1879      7175656E 
 1879      63792028 
 1880 1f8c 01       		.byte	0x1
 1881 1f8d 06       		.uleb128 0x6
 1882 1f8e 4D696E54 		.ascii "MinTimeSlice_s (1.0/SchedulerFrequency)\0"
 1882      696D6553 
 1882      6C696365 
 1882      5F732028 
 1882      312E302F 
 1883 1fb6 01       		.byte	0x1
 1884 1fb7 07       		.uleb128 0x7
 1885 1fb8 4D696E54 		.ascii "MinTimeSlice_us ((1.0/SchedulerFrequency)*1e6)\0"
 1885      696D6553 
 1885      6C696365 
 1885      5F757320 
 1885      2828312E 
 1886 1fe7 01       		.byte	0x1
 1887 1fe8 08       		.uleb128 0x8
 1888 1fe9 5461736B 		.ascii "Task_min_time (1e0)\0"
 1888      5F6D696E 
 1888      5F74696D 
 1888      65202831 
 1888      65302900 
 1889 1ffd 01       		.byte	0x1
 1890 1ffe 09       		.uleb128 0x9
 1891 1fff 4E554D42 		.ascii "NUMBER_OF_TASKS 5\0"
 1891      45525F4F 
 1891      465F5441 
 1891      534B5320 
 1891      3500
 1892 2011 01       		.byte	0x1
 1893 2012 0A       		.uleb128 0xa
 1894 2013 4D41585F 		.ascii "MAX_RUN_QUEUE_SIZE (NUMBER_OF_TASKS)\0"
 1894      52554E5F 
 1894      51554555 
 1894      455F5349 
 1894      5A452028 
 1895 2038 01       		.byte	0x1
 1896 2039 0B       		.uleb128 0xb
 1897 203a 4D41585F 		.ascii "MAX_RUN_PQUEUE_SIZE MAX_RUN_QUEUE_SIZE\0"
 1897      52554E5F 
GAS LISTING C:\Users\PRESID~1\AppData\Local\Temp\ccOK1yOd.s 			page 58


 1897      50515545 
 1897      55455F53 
 1897      495A4520 
 1898 2061 01       		.byte	0x1
 1899 2062 0D       		.uleb128 0xd
 1900 2063 5441534B 		.ascii "TASK_STACK_SIZE 200\0"
 1900      5F535441 
 1900      434B5F53 
 1900      495A4520 
 1900      32303000 
 1901 2077 01       		.byte	0x1
 1902 2078 10       		.uleb128 0x10
 1903 2079 4D535F50 		.ascii "MS_PER_SEC (1000)\0"
 1903      45525F53 
 1903      45432028 
 1903      31303030 
 1903      2900
 1904 208b 01       		.byte	0x1
 1905 208c 11       		.uleb128 0x11
 1906 208d 5553455F 		.ascii "USE_STATIC_CREATED_TASKS True\0"
 1906      53544154 
 1906      49435F43 
 1906      52454154 
 1906      45445F54 
 1907 20ab 04       		.byte	0x4
 1908              		.file 19 "E:/NeuOrga/Programmieren/c_cpp/github_os/input/src/os_base/../os_sim/../os_base/os_init_
 1909 20ac 03       		.byte	0x3
 1910 20ad 05       		.uleb128 0x5
 1911 20ae 13       		.uleb128 0x13
 1912 20af 01       		.byte	0x1
 1913 20b0 02       		.uleb128 0x2
 1914 20b1 5F6F735F 		.ascii "_os_init_task_system_h_ \0"
 1914      696E6974 
 1914      5F746173 
 1914      6B5F7379 
 1914      7374656D 
 1915 20ca 04       		.byte	0x4
 1916 20cb 01       		.byte	0x1
 1917 20cc 5C       		.uleb128 0x5c
 1918 20cd 6F735F53 		.ascii "os_SaveTaskPtr(task_ptr,task_name) (TASK_PTR[(task_name)] = (task_ptr))\0"
 1918      61766554 
 1918      61736B50 
 1918      74722874 
 1918      61736B5F 
 1919 2115 01       		.byte	0x1
 1920 2116 5D       		.uleb128 0x5d
 1921 2117 6F735F47 		.ascii "os_GetTaskPtr(task_name) ((task_t*) TASK_PTR[(task_name)])\0"
 1921      65745461 
 1921      736B5074 
 1921      72287461 
 1921      736B5F6E 
 1922 2152 04       		.byte	0x4
 1923 2153 04       		.byte	0x4
 1924              		.file 20 "E:/NeuOrga/Programmieren/c_cpp/github_os/input/src/os_base/../os_user_code/led.h"
 1925 2154 03       		.byte	0x3
 1926 2155 0E       		.uleb128 0xe
 1927 2156 14       		.uleb128 0x14
GAS LISTING C:\Users\PRESID~1\AppData\Local\Temp\ccOK1yOd.s 			page 59


 1928 2157 01       		.byte	0x1
 1929 2158 02       		.uleb128 0x2
 1930 2159 5F4C4544 		.ascii "_LED_H_ \0"
 1930      5F485F20 
 1930      00
 1931 2162 04       		.byte	0x4
 1932 2163 04       		.byte	0x4
 1933 2164 03       		.byte	0x3
 1934 2165 02       		.uleb128 0x2
 1935 2166 08       		.uleb128 0x8
 1936 2167 04       		.byte	0x4
 1937 2168 04       		.byte	0x4
 1938 2169 00       		.byte	0
 1939              		.section	.debug_line,"dr"
 1940              	Ldebug_line0:
 1941 0000 48030000 		.section	.debug_str,"dr"
 1941      0200B002 
 1941      00000101 
 1941      FB0E0D00 
 1941      01010101 
 1942              	LASF1:
 1943 0000 68656170 		.ascii "heap_ptr\0"
 1943      5F707472 
 1943      00
 1944              	LASF0:
 1945 0009 6368756E 		.ascii "chunk_ptr\0"
 1945      6B5F7074 
 1945      7200
 1946              		.ident	"GCC: (GNU) 4.9.3"
GAS LISTING C:\Users\PRESID~1\AppData\Local\Temp\ccOK1yOd.s 			page 60


DEFINED SYMBOLS
                            *ABS*:00000000 os_heap.c
C:\Users\PRESID~1\AppData\Local\Temp\ccOK1yOd.s:6      .text:00000000 _os_calloc
C:\Users\PRESID~1\AppData\Local\Temp\ccOK1yOd.s:51     .text:00000040 _os_realloc
C:\Users\PRESID~1\AppData\Local\Temp\ccOK1yOd.s:131    .text:000000c4 _os_malloc
C:\Users\PRESID~1\AppData\Local\Temp\ccOK1yOd.s:199    .text:0000013a _os_free
C:\Users\PRESID~1\AppData\Local\Temp\ccOK1yOd.s:258    .text:000001ab _GET_UINT32_OF_4UINT8
C:\Users\PRESID~1\AppData\Local\Temp\ccOK1yOd.s:309    .text:000001fb _SET_4UINT8_TO_UINT32

UNDEFINED SYMBOLS
_HEAP
