GAS LISTING C:\Users\PRESID~1\AppData\Local\Temp\ccY5SQaY.s 			page 1


   1              		.file	"os_main.c"
   2              		.text
   3              	Ltext0:
   4              		.globl	_OS_STATE_HANDLER
   6              	_OS_STATE_HANDLER:
   7              	LFB0:
   8              		.file 1 "E:/NeuOrga/Programmieren/c_cpp/github_os/input/src/os_base/os_main.c"
   1:E:/NeuOrga/Programmieren/c_cpp/github_os/input/src/os_base\os_main.c **** #include "os_firstinc.h"
   2:E:/NeuOrga/Programmieren/c_cpp/github_os/input/src/os_base\os_main.c **** #include "os_task_common.h"
   3:E:/NeuOrga/Programmieren/c_cpp/github_os/input/src/os_base\os_main.c **** #include "os_task_scheduler.h"
   4:E:/NeuOrga/Programmieren/c_cpp/github_os/input/src/os_base\os_main.c **** #include "os_shutdown.h"
   5:E:/NeuOrga/Programmieren/c_cpp/github_os/input/src/os_base\os_main.c **** #include "os_start_init_mc.h"
   6:E:/NeuOrga/Programmieren/c_cpp/github_os/input/src/os_base\os_main.c **** #include "os_start_init_hw.h"
   7:E:/NeuOrga/Programmieren/c_cpp/github_os/input/src/os_base\os_main.c **** #include "os_start_init_sw.h"
   8:E:/NeuOrga/Programmieren/c_cpp/github_os/input/src/os_base\os_main.c **** #include "os_task_scheduler.h"
   9:E:/NeuOrga/Programmieren/c_cpp/github_os/input/src/os_base\os_main.c **** 
  10:E:/NeuOrga/Programmieren/c_cpp/github_os/input/src/os_base\os_main.c **** /*
  11:E:/NeuOrga/Programmieren/c_cpp/github_os/input/src/os_base\os_main.c **** OS_State: OS_INIT (Start im Supervisor Mode)
  12:E:/NeuOrga/Programmieren/c_cpp/github_os/input/src/os_base\os_main.c **** - Exception Handler aufsetzen
  13:E:/NeuOrga/Programmieren/c_cpp/github_os/input/src/os_base\os_main.c **** - HW Internal Peripherie, RAM, etc
  14:E:/NeuOrga/Programmieren/c_cpp/github_os/input/src/os_base\os_main.c **** - Tasks konfigurieren
  15:E:/NeuOrga/Programmieren/c_cpp/github_os/input/src/os_base\os_main.c **** --> Stack, MMU_REGION,CoreId, Task-Function, TaskPrio, Interruptable, MultipleActChk, Privilige Lev
  16:E:/NeuOrga/Programmieren/c_cpp/github_os/input/src/os_base\os_main.c **** - TCMP Interrupts für Tasks konfigurieren, Starten vom Dispatcher
  17:E:/NeuOrga/Programmieren/c_cpp/github_os/input/src/os_base\os_main.c **** - MMU konfigurieren
  18:E:/NeuOrga/Programmieren/c_cpp/github_os/input/src/os_base\os_main.c **** - TaskScheduler für Core 0...n starten (jeder Core hat eigenen Scheduler)(User/Supervisor Mode??)
  19:E:/NeuOrga/Programmieren/c_cpp/github_os/input/src/os_base\os_main.c **** - SW mit erhöhtem Rechtebedarf wird mittels Interrupt gestartet (Dispatcher, WD, FMON, Shutdown)(Us
  20:E:/NeuOrga/Programmieren/c_cpp/github_os/input/src/os_base\os_main.c **** - FMON / Watchdog aktivieren
  21:E:/NeuOrga/Programmieren/c_cpp/github_os/input/src/os_base\os_main.c **** - Interrupts aktivieren
  22:E:/NeuOrga/Programmieren/c_cpp/github_os/input/src/os_base\os_main.c **** - Zu UserMode wechseln
  23:E:/NeuOrga/Programmieren/c_cpp/github_os/input/src/os_base\os_main.c **** 
  24:E:/NeuOrga/Programmieren/c_cpp/github_os/input/src/os_base\os_main.c **** OS_State: OS_Running (User Mode)
  25:E:/NeuOrga/Programmieren/c_cpp/github_os/input/src/os_base\os_main.c **** - Starten / Beenden der einzelnen Tasks auf den jeweiligen Cores(User/Supervisor Mode??)
  26:E:/NeuOrga/Programmieren/c_cpp/github_os/input/src/os_base\os_main.c **** - Timer Compare Interrupts
  27:E:/NeuOrga/Programmieren/c_cpp/github_os/input/src/os_base\os_main.c **** - Interrupt Prioritäten von Cat2.(SW) Interrupts und Cat1.(HW) Interrupts
  28:E:/NeuOrga/Programmieren/c_cpp/github_os/input/src/os_base\os_main.c **** 
  29:E:/NeuOrga/Programmieren/c_cpp/github_os/input/src/os_base\os_main.c **** (OS_State: OS_Exception (Supervisor Mode))
  30:E:/NeuOrga/Programmieren/c_cpp/github_os/input/src/os_base\os_main.c **** - Link-Register Adresse im Eeprom abspeichern, an der die Exceptioin erzeugt wurde
  31:E:/NeuOrga/Programmieren/c_cpp/github_os/input/src/os_base\os_main.c **** - OS_Shutdown mit Reset
  32:E:/NeuOrga/Programmieren/c_cpp/github_os/input/src/os_base\os_main.c **** 
  33:E:/NeuOrga/Programmieren/c_cpp/github_os/input/src/os_base\os_main.c **** OS_State: OS_Shutdown (nur erlaubt im Supervisor Mode)
  34:E:/NeuOrga/Programmieren/c_cpp/github_os/input/src/os_base\os_main.c **** - Interrupts deaktivieren
  35:E:/NeuOrga/Programmieren/c_cpp/github_os/input/src/os_base\os_main.c **** - Tasks beenden (Timer Interrupts löschen)
  36:E:/NeuOrga/Programmieren/c_cpp/github_os/input/src/os_base\os_main.c **** - FMON / Watchdog deinitialisieren
  37:E:/NeuOrga/Programmieren/c_cpp/github_os/input/src/os_base\os_main.c **** - MMU deaktivieren / deintialisieren
  38:E:/NeuOrga/Programmieren/c_cpp/github_os/input/src/os_base\os_main.c **** - RAM neu initalisieren
  39:E:/NeuOrga/Programmieren/c_cpp/github_os/input/src/os_base\os_main.c **** - HW Reset auslösen (optional)
  40:E:/NeuOrga/Programmieren/c_cpp/github_os/input/src/os_base\os_main.c **** 
  41:E:/NeuOrga/Programmieren/c_cpp/github_os/input/src/os_base\os_main.c **** */
  42:E:/NeuOrga/Programmieren/c_cpp/github_os/input/src/os_base\os_main.c **** /*#warn "above list implemented??"*/
  43:E:/NeuOrga/Programmieren/c_cpp/github_os/input/src/os_base\os_main.c **** typedef enum os_state_e
  44:E:/NeuOrga/Programmieren/c_cpp/github_os/input/src/os_base\os_main.c **** {
  45:E:/NeuOrga/Programmieren/c_cpp/github_os/input/src/os_base\os_main.c ****    os_init = 0,
  46:E:/NeuOrga/Programmieren/c_cpp/github_os/input/src/os_base\os_main.c ****    os_running,
  47:E:/NeuOrga/Programmieren/c_cpp/github_os/input/src/os_base\os_main.c ****    os_shutdown
  48:E:/NeuOrga/Programmieren/c_cpp/github_os/input/src/os_base\os_main.c **** } os_state_t;
  49:E:/NeuOrga/Programmieren/c_cpp/github_os/input/src/os_base\os_main.c **** 
  50:E:/NeuOrga/Programmieren/c_cpp/github_os/input/src/os_base\os_main.c **** typedef enum os_reset_req_state_e
GAS LISTING C:\Users\PRESID~1\AppData\Local\Temp\ccY5SQaY.s 			page 2


  51:E:/NeuOrga/Programmieren/c_cpp/github_os/input/src/os_base\os_main.c **** {
  52:E:/NeuOrga/Programmieren/c_cpp/github_os/input/src/os_base\os_main.c ****    Reset_powerdown = 0,
  53:E:/NeuOrga/Programmieren/c_cpp/github_os/input/src/os_base\os_main.c ****    Reset_restart
  54:E:/NeuOrga/Programmieren/c_cpp/github_os/input/src/os_base\os_main.c **** } os_reset_req_state_t;
  55:E:/NeuOrga/Programmieren/c_cpp/github_os/input/src/os_base\os_main.c **** 
  56:E:/NeuOrga/Programmieren/c_cpp/github_os/input/src/os_base\os_main.c **** void OS_STATE_HANDLER(void)
  57:E:/NeuOrga/Programmieren/c_cpp/github_os/input/src/os_base\os_main.c **** {
   9              		.loc 1 57 0
  10              		.cfi_startproc
  11 0000 55       		pushl	%ebp
  12              		.cfi_def_cfa_offset 8
  13              		.cfi_offset 5, -8
  14 0001 89E5     		movl	%esp, %ebp
  15              		.cfi_def_cfa_register 5
  16 0003 83EC18   		subl	$24, %esp
  58:E:/NeuOrga/Programmieren/c_cpp/github_os/input/src/os_base\os_main.c ****    /* running in supervisor mode */
  59:E:/NeuOrga/Programmieren/c_cpp/github_os/input/src/os_base\os_main.c ****    Local os_state_t OS_STATE = os_init;
  60:E:/NeuOrga/Programmieren/c_cpp/github_os/input/src/os_base\os_main.c ****    Local os_reset_req_state_t sys_req_reset_state = Reset_powerdown;
  61:E:/NeuOrga/Programmieren/c_cpp/github_os/input/src/os_base\os_main.c **** 
  62:E:/NeuOrga/Programmieren/c_cpp/github_os/input/src/os_base\os_main.c ****    switch(OS_STATE)
  17              		.loc 1 62 0
  18 0006 A1000000 		movl	_OS_STATE.1270, %eax
  18      00
  19 000b 83F801   		cmpl	$1, %eax
  20 000e 7436     		je	L3
  21 0010 83F801   		cmpl	$1, %eax
  22 0013 7207     		jb	L4
  23 0015 83F802   		cmpl	$2, %eax
  24 0018 7433     		je	L5
  63:E:/NeuOrga/Programmieren/c_cpp/github_os/input/src/os_base\os_main.c ****    {
  64:E:/NeuOrga/Programmieren/c_cpp/github_os/input/src/os_base\os_main.c ****    case os_init:
  65:E:/NeuOrga/Programmieren/c_cpp/github_os/input/src/os_base\os_main.c ****    {
  66:E:/NeuOrga/Programmieren/c_cpp/github_os/input/src/os_base\os_main.c ****       /*init the MCU including MMU, RAM, Registers */
  67:E:/NeuOrga/Programmieren/c_cpp/github_os/input/src/os_base\os_main.c ****       OS_INIT_MC();
  68:E:/NeuOrga/Programmieren/c_cpp/github_os/input/src/os_base\os_main.c ****       /* start the task system */
  69:E:/NeuOrga/Programmieren/c_cpp/github_os/input/src/os_base\os_main.c ****       /* initialisation of SW, HW will be done in the tasks, after starting the task system.... */
  70:E:/NeuOrga/Programmieren/c_cpp/github_os/input/src/os_base\os_main.c ****       OS_INIT_HW();
  71:E:/NeuOrga/Programmieren/c_cpp/github_os/input/src/os_base\os_main.c ****       OS_INIT_SW();
  72:E:/NeuOrga/Programmieren/c_cpp/github_os/input/src/os_base\os_main.c ****       OS_INIT_TASK_SYSTEM();
  73:E:/NeuOrga/Programmieren/c_cpp/github_os/input/src/os_base\os_main.c **** 
  74:E:/NeuOrga/Programmieren/c_cpp/github_os/input/src/os_base\os_main.c ****       /* trigger dispatcher */
  75:E:/NeuOrga/Programmieren/c_cpp/github_os/input/src/os_base\os_main.c ****       /* activate the dispatcher, configure TCMP interrupts for tasks */
  76:E:/NeuOrga/Programmieren/c_cpp/github_os/input/src/os_base\os_main.c ****       OS_ACTIVATE_DISPATCHER();
  77:E:/NeuOrga/Programmieren/c_cpp/github_os/input/src/os_base\os_main.c **** 
  78:E:/NeuOrga/Programmieren/c_cpp/github_os/input/src/os_base\os_main.c ****       OS_STATE = os_running;
  79:E:/NeuOrga/Programmieren/c_cpp/github_os/input/src/os_base\os_main.c ****       /* activate the interrupts, tasks will be executed from now on ... */
  80:E:/NeuOrga/Programmieren/c_cpp/github_os/input/src/os_base\os_main.c ****       LLF_INT_ENABLE();
  81:E:/NeuOrga/Programmieren/c_cpp/github_os/input/src/os_base\os_main.c ****       break;
  82:E:/NeuOrga/Programmieren/c_cpp/github_os/input/src/os_base\os_main.c ****    }
  83:E:/NeuOrga/Programmieren/c_cpp/github_os/input/src/os_base\os_main.c ****    case os_running:
  84:E:/NeuOrga/Programmieren/c_cpp/github_os/input/src/os_base\os_main.c ****    {
  85:E:/NeuOrga/Programmieren/c_cpp/github_os/input/src/os_base\os_main.c ****       ISR_TASK_DISPATCH_C0();
  86:E:/NeuOrga/Programmieren/c_cpp/github_os/input/src/os_base\os_main.c ****       break;
  87:E:/NeuOrga/Programmieren/c_cpp/github_os/input/src/os_base\os_main.c ****    }
  88:E:/NeuOrga/Programmieren/c_cpp/github_os/input/src/os_base\os_main.c ****    case os_shutdown:
  89:E:/NeuOrga/Programmieren/c_cpp/github_os/input/src/os_base\os_main.c ****    {
  90:E:/NeuOrga/Programmieren/c_cpp/github_os/input/src/os_base\os_main.c ****       LLF_INT_DISABLE();
GAS LISTING C:\Users\PRESID~1\AppData\Local\Temp\ccY5SQaY.s 			page 3


  91:E:/NeuOrga/Programmieren/c_cpp/github_os/input/src/os_base\os_main.c ****       switch(sys_req_reset_state)
  92:E:/NeuOrga/Programmieren/c_cpp/github_os/input/src/os_base\os_main.c ****       {
  93:E:/NeuOrga/Programmieren/c_cpp/github_os/input/src/os_base\os_main.c ****       case Reset_powerdown:
  94:E:/NeuOrga/Programmieren/c_cpp/github_os/input/src/os_base\os_main.c ****       {
  95:E:/NeuOrga/Programmieren/c_cpp/github_os/input/src/os_base\os_main.c ****          OS_SHUTDOWN(os_reset_powerdown);
  96:E:/NeuOrga/Programmieren/c_cpp/github_os/input/src/os_base\os_main.c ****          break;
  97:E:/NeuOrga/Programmieren/c_cpp/github_os/input/src/os_base\os_main.c ****       }
  98:E:/NeuOrga/Programmieren/c_cpp/github_os/input/src/os_base\os_main.c ****       case Reset_restart:
  99:E:/NeuOrga/Programmieren/c_cpp/github_os/input/src/os_base\os_main.c ****       {
 100:E:/NeuOrga/Programmieren/c_cpp/github_os/input/src/os_base\os_main.c ****          OS_SHUTDOWN(os_reset_hardreset);
 101:E:/NeuOrga/Programmieren/c_cpp/github_os/input/src/os_base\os_main.c ****          break;
 102:E:/NeuOrga/Programmieren/c_cpp/github_os/input/src/os_base\os_main.c ****       }
 103:E:/NeuOrga/Programmieren/c_cpp/github_os/input/src/os_base\os_main.c ****       }
 104:E:/NeuOrga/Programmieren/c_cpp/github_os/input/src/os_base\os_main.c ****       break;
 105:E:/NeuOrga/Programmieren/c_cpp/github_os/input/src/os_base\os_main.c ****    }
 106:E:/NeuOrga/Programmieren/c_cpp/github_os/input/src/os_base\os_main.c ****    default:
 107:E:/NeuOrga/Programmieren/c_cpp/github_os/input/src/os_base\os_main.c ****    {
 108:E:/NeuOrga/Programmieren/c_cpp/github_os/input/src/os_base\os_main.c ****       break;
  25              		.loc 1 108 0
  26 001a EB62     		jmp	L1
  27              	L4:
  67:E:/NeuOrga/Programmieren/c_cpp/github_os/input/src/os_base\os_main.c ****       /* start the task system */
  28              		.loc 1 67 0
  29 001c E8000000 		call	_OS_INIT_MC
  29      00
  70:E:/NeuOrga/Programmieren/c_cpp/github_os/input/src/os_base\os_main.c ****       OS_INIT_SW();
  30              		.loc 1 70 0
  31 0021 E8000000 		call	_OS_INIT_HW
  31      00
  71:E:/NeuOrga/Programmieren/c_cpp/github_os/input/src/os_base\os_main.c ****       OS_INIT_TASK_SYSTEM();
  32              		.loc 1 71 0
  33 0026 E8000000 		call	_OS_INIT_SW
  33      00
  72:E:/NeuOrga/Programmieren/c_cpp/github_os/input/src/os_base\os_main.c **** 
  34              		.loc 1 72 0
  35 002b E8000000 		call	_OS_INIT_TASK_SYSTEM
  35      00
  76:E:/NeuOrga/Programmieren/c_cpp/github_os/input/src/os_base\os_main.c **** 
  36              		.loc 1 76 0
  37 0030 E8000000 		call	_OS_ACTIVATE_DISPATCHER
  37      00
  78:E:/NeuOrga/Programmieren/c_cpp/github_os/input/src/os_base\os_main.c ****       /* activate the interrupts, tasks will be executed from now on ... */
  38              		.loc 1 78 0
  39 0035 C7050000 		movl	$1, _OS_STATE.1270
  39      00000100 
  39      0000
  80:E:/NeuOrga/Programmieren/c_cpp/github_os/input/src/os_base\os_main.c ****       break;
  40              		.loc 1 80 0
  41 003f E8000000 		call	_LLF_INT_ENABLE
  41      00
  81:E:/NeuOrga/Programmieren/c_cpp/github_os/input/src/os_base\os_main.c ****    }
  42              		.loc 1 81 0
  43 0044 EB38     		jmp	L1
  44              	L3:
  85:E:/NeuOrga/Programmieren/c_cpp/github_os/input/src/os_base\os_main.c ****       break;
  45              		.loc 1 85 0
  46 0046 E8000000 		call	_ISR_TASK_DISPATCH_C0
GAS LISTING C:\Users\PRESID~1\AppData\Local\Temp\ccY5SQaY.s 			page 4


  46      00
  86:E:/NeuOrga/Programmieren/c_cpp/github_os/input/src/os_base\os_main.c ****    }
  47              		.loc 1 86 0
  48 004b EB31     		jmp	L1
  49              	L5:
  90:E:/NeuOrga/Programmieren/c_cpp/github_os/input/src/os_base\os_main.c ****       switch(sys_req_reset_state)
  50              		.loc 1 90 0
  51 004d E8000000 		call	_LLF_INT_DISABLE
  51      00
  91:E:/NeuOrga/Programmieren/c_cpp/github_os/input/src/os_base\os_main.c ****       {
  52              		.loc 1 91 0
  53 0052 A1040000 		movl	_sys_req_reset_state.1271, %eax
  53      00
  54 0057 85C0     		testl	%eax, %eax
  55 0059 7407     		je	L8
  56 005b 83F801   		cmpl	$1, %eax
  57 005e 7410     		je	L9
 104:E:/NeuOrga/Programmieren/c_cpp/github_os/input/src/os_base\os_main.c ****    }
  58              		.loc 1 104 0
  59 0060 EB1B     		jmp	L10
  60              	L8:
  95:E:/NeuOrga/Programmieren/c_cpp/github_os/input/src/os_base\os_main.c ****          break;
  61              		.loc 1 95 0
  62 0062 C7042401 		movl	$1, (%esp)
  62      000000
  63 0069 E8000000 		call	_OS_SHUTDOWN
  63      00
  96:E:/NeuOrga/Programmieren/c_cpp/github_os/input/src/os_base\os_main.c ****       }
  64              		.loc 1 96 0
  65 006e EB0D     		jmp	L7
  66              	L9:
 100:E:/NeuOrga/Programmieren/c_cpp/github_os/input/src/os_base\os_main.c ****          break;
  67              		.loc 1 100 0
  68 0070 C7042400 		movl	$0, (%esp)
  68      000000
  69 0077 E8000000 		call	_OS_SHUTDOWN
  69      00
 101:E:/NeuOrga/Programmieren/c_cpp/github_os/input/src/os_base\os_main.c ****       }
  70              		.loc 1 101 0
  71 007c 90       		nop
  72              	L7:
  73              	L10:
 104:E:/NeuOrga/Programmieren/c_cpp/github_os/input/src/os_base\os_main.c ****    }
  74              		.loc 1 104 0
  75 007d 90       		nop
  76              	L1:
 109:E:/NeuOrga/Programmieren/c_cpp/github_os/input/src/os_base\os_main.c ****    }
 110:E:/NeuOrga/Programmieren/c_cpp/github_os/input/src/os_base\os_main.c ****    }
 111:E:/NeuOrga/Programmieren/c_cpp/github_os/input/src/os_base\os_main.c **** }
  77              		.loc 1 111 0
  78 007e C9       		leave
  79              		.cfi_restore 5
  80              		.cfi_def_cfa 4, 4
  81 007f C3       		ret
  82              		.cfi_endproc
  83              	LFE0:
  84              	.lcomm _OS_STATE.1270,4,4
GAS LISTING C:\Users\PRESID~1\AppData\Local\Temp\ccY5SQaY.s 			page 5


  85              	.lcomm _sys_req_reset_state.1271,4,4
  86              	Letext0:
  87              		.file 2 "E:/NeuOrga/Programmieren/c_cpp/github_os/input/src/os_base/os_shutdown.h"
  88              		.section	.debug_info,"dr"
  89              	Ldebug_info0:
  90 0000 14020000 		.long	0x214
  91 0004 0400     		.word	0x4
  92 0006 00000000 		.secrel32	Ldebug_abbrev0
  93 000a 04       		.byte	0x4
  94 000b 01       		.uleb128 0x1
  95 000c 474E5520 		.ascii "GNU C 4.9.3 -march=i386 -g3 -O0 -std=c90\0"
  95      4320342E 
  95      392E3320 
  95      2D6D6172 
  95      63683D69 
  96 0035 01       		.byte	0x1
  97 0036 453A5C4E 		.ascii "E:\\NeuOrga\\Programmieren\\c_cpp\\github_os\\input\\src\\os_base\\os_main.c\0"
  97      65754F72 
  97      67615C50 
  97      726F6772 
  97      616D6D69 
  98 007b 00000000 		.long	Ltext0
  99 007f 80000000 		.long	Letext0-Ltext0
 100 0083 00000000 		.secrel32	Ldebug_line0
 101 0087 00000000 		.secrel32	Ldebug_macro0
 102 008b 02       		.uleb128 0x2
 103 008c 01       		.byte	0x1
 104 008d 08       		.byte	0x8
 105 008e 756E7369 		.ascii "unsigned char\0"
 105      676E6564 
 105      20636861 
 105      7200
 106 009c 02       		.uleb128 0x2
 107 009d 02       		.byte	0x2
 108 009e 07       		.byte	0x7
 109 009f 73686F72 		.ascii "short unsigned int\0"
 109      7420756E 
 109      7369676E 
 109      65642069 
 109      6E7400
 110 00b2 02       		.uleb128 0x2
 111 00b3 04       		.byte	0x4
 112 00b4 07       		.byte	0x7
 113 00b5 6C6F6E67 		.ascii "long unsigned int\0"
 113      20756E73 
 113      69676E65 
 113      6420696E 
 113      7400
 114 00c7 02       		.uleb128 0x2
 115 00c8 04       		.byte	0x4
 116 00c9 07       		.byte	0x7
 117 00ca 756E7369 		.ascii "unsigned int\0"
 117      676E6564 
 117      20696E74 
 117      00
 118 00d7 03       		.uleb128 0x3
 119 00d8 6F735F72 		.ascii "os_reset_type_s\0"
GAS LISTING C:\Users\PRESID~1\AppData\Local\Temp\ccY5SQaY.s 			page 6


 119      65736574 
 119      5F747970 
 119      655F7300 
 120 00e8 04       		.byte	0x4
 121 00e9 02       		.byte	0x2
 122 00ea 03       		.byte	0x3
 123 00eb 1A010000 		.long	0x11a
 124 00ef 04       		.uleb128 0x4
 125 00f0 6F735F72 		.ascii "os_reset_hardreset\0"
 125      65736574 
 125      5F686172 
 125      64726573 
 125      657400
 126 0103 00       		.sleb128 0
 127 0104 04       		.uleb128 0x4
 128 0105 6F735F72 		.ascii "os_reset_powerdown\0"
 128      65736574 
 128      5F706F77 
 128      6572646F 
 128      776E00
 129 0118 01       		.sleb128 1
 130 0119 00       		.byte	0
 131 011a 03       		.uleb128 0x3
 132 011b 6F735F73 		.ascii "os_state_e\0"
 132      74617465 
 132      5F6500
 133 0126 04       		.byte	0x4
 134 0127 01       		.byte	0x1
 135 0128 2B       		.byte	0x2b
 136 0129 53010000 		.long	0x153
 137 012d 04       		.uleb128 0x4
 138 012e 6F735F69 		.ascii "os_init\0"
 138      6E697400 
 139 0136 00       		.sleb128 0
 140 0137 04       		.uleb128 0x4
 141 0138 6F735F72 		.ascii "os_running\0"
 141      756E6E69 
 141      6E6700
 142 0143 01       		.sleb128 1
 143 0144 04       		.uleb128 0x4
 144 0145 6F735F73 		.ascii "os_shutdown\0"
 144      68757464 
 144      6F776E00 
 145 0151 02       		.sleb128 2
 146 0152 00       		.byte	0
 147 0153 05       		.uleb128 0x5
 148 0154 6F735F73 		.ascii "os_state_t\0"
 148      74617465 
 148      5F7400
 149 015f 01       		.byte	0x1
 150 0160 30       		.byte	0x30
 151 0161 1A010000 		.long	0x11a
 152 0165 03       		.uleb128 0x3
 153 0166 6F735F72 		.ascii "os_reset_req_state_e\0"
 153      65736574 
 153      5F726571 
 153      5F737461 
GAS LISTING C:\Users\PRESID~1\AppData\Local\Temp\ccY5SQaY.s 			page 7


 153      74655F65 
 154 017b 04       		.byte	0x4
 155 017c 01       		.byte	0x1
 156 017d 32       		.byte	0x32
 157 017e A5010000 		.long	0x1a5
 158 0182 04       		.uleb128 0x4
 159 0183 52657365 		.ascii "Reset_powerdown\0"
 159      745F706F 
 159      77657264 
 159      6F776E00 
 160 0193 00       		.sleb128 0
 161 0194 04       		.uleb128 0x4
 162 0195 52657365 		.ascii "Reset_restart\0"
 162      745F7265 
 162      73746172 
 162      7400
 163 01a3 01       		.sleb128 1
 164 01a4 00       		.byte	0
 165 01a5 05       		.uleb128 0x5
 166 01a6 6F735F72 		.ascii "os_reset_req_state_t\0"
 166      65736574 
 166      5F726571 
 166      5F737461 
 166      74655F74 
 167 01bb 01       		.byte	0x1
 168 01bc 36       		.byte	0x36
 169 01bd 65010000 		.long	0x165
 170 01c1 06       		.uleb128 0x6
 171 01c2 4F535F53 		.ascii "OS_STATE_HANDLER\0"
 171      54415445 
 171      5F48414E 
 171      444C4552 
 171      00
 172 01d3 01       		.byte	0x1
 173 01d4 38       		.byte	0x38
 174 01d5 00000000 		.long	LFB0
 175 01d9 80000000 		.long	LFE0-LFB0
 176 01dd 01       		.uleb128 0x1
 177 01de 9C       		.byte	0x9c
 178 01df 07       		.uleb128 0x7
 179 01e0 4F535F53 		.ascii "OS_STATE\0"
 179      54415445 
 179      00
 180 01e9 01       		.byte	0x1
 181 01ea 3B       		.byte	0x3b
 182 01eb 53010000 		.long	0x153
 183 01ef 05       		.uleb128 0x5
 184 01f0 03       		.byte	0x3
 185 01f1 00000000 		.long	_OS_STATE.1270
 186 01f5 07       		.uleb128 0x7
 187 01f6 7379735F 		.ascii "sys_req_reset_state\0"
 187      7265715F 
 187      72657365 
 187      745F7374 
 187      61746500 
 188 020a 01       		.byte	0x1
 189 020b 3C       		.byte	0x3c
GAS LISTING C:\Users\PRESID~1\AppData\Local\Temp\ccY5SQaY.s 			page 8


 190 020c A5010000 		.long	0x1a5
 191 0210 05       		.uleb128 0x5
 192 0211 03       		.byte	0x3
 193 0212 04000000 		.long	_sys_req_reset_state.1271
 194 0216 00       		.byte	0
 195 0217 00       		.byte	0
 196              		.section	.debug_abbrev,"dr"
 197              	Ldebug_abbrev0:
 198 0000 01       		.uleb128 0x1
 199 0001 11       		.uleb128 0x11
 200 0002 01       		.byte	0x1
 201 0003 25       		.uleb128 0x25
 202 0004 08       		.uleb128 0x8
 203 0005 13       		.uleb128 0x13
 204 0006 0B       		.uleb128 0xb
 205 0007 03       		.uleb128 0x3
 206 0008 08       		.uleb128 0x8
 207 0009 11       		.uleb128 0x11
 208 000a 01       		.uleb128 0x1
 209 000b 12       		.uleb128 0x12
 210 000c 06       		.uleb128 0x6
 211 000d 10       		.uleb128 0x10
 212 000e 17       		.uleb128 0x17
 213 000f 9942     		.uleb128 0x2119
 214 0011 17       		.uleb128 0x17
 215 0012 00       		.byte	0
 216 0013 00       		.byte	0
 217 0014 02       		.uleb128 0x2
 218 0015 24       		.uleb128 0x24
 219 0016 00       		.byte	0
 220 0017 0B       		.uleb128 0xb
 221 0018 0B       		.uleb128 0xb
 222 0019 3E       		.uleb128 0x3e
 223 001a 0B       		.uleb128 0xb
 224 001b 03       		.uleb128 0x3
 225 001c 08       		.uleb128 0x8
 226 001d 00       		.byte	0
 227 001e 00       		.byte	0
 228 001f 03       		.uleb128 0x3
 229 0020 04       		.uleb128 0x4
 230 0021 01       		.byte	0x1
 231 0022 03       		.uleb128 0x3
 232 0023 08       		.uleb128 0x8
 233 0024 0B       		.uleb128 0xb
 234 0025 0B       		.uleb128 0xb
 235 0026 3A       		.uleb128 0x3a
 236 0027 0B       		.uleb128 0xb
 237 0028 3B       		.uleb128 0x3b
 238 0029 0B       		.uleb128 0xb
 239 002a 01       		.uleb128 0x1
 240 002b 13       		.uleb128 0x13
 241 002c 00       		.byte	0
 242 002d 00       		.byte	0
 243 002e 04       		.uleb128 0x4
 244 002f 28       		.uleb128 0x28
 245 0030 00       		.byte	0
 246 0031 03       		.uleb128 0x3
GAS LISTING C:\Users\PRESID~1\AppData\Local\Temp\ccY5SQaY.s 			page 9


 247 0032 08       		.uleb128 0x8
 248 0033 1C       		.uleb128 0x1c
 249 0034 0D       		.uleb128 0xd
 250 0035 00       		.byte	0
 251 0036 00       		.byte	0
 252 0037 05       		.uleb128 0x5
 253 0038 16       		.uleb128 0x16
 254 0039 00       		.byte	0
 255 003a 03       		.uleb128 0x3
 256 003b 08       		.uleb128 0x8
 257 003c 3A       		.uleb128 0x3a
 258 003d 0B       		.uleb128 0xb
 259 003e 3B       		.uleb128 0x3b
 260 003f 0B       		.uleb128 0xb
 261 0040 49       		.uleb128 0x49
 262 0041 13       		.uleb128 0x13
 263 0042 00       		.byte	0
 264 0043 00       		.byte	0
 265 0044 06       		.uleb128 0x6
 266 0045 2E       		.uleb128 0x2e
 267 0046 01       		.byte	0x1
 268 0047 3F       		.uleb128 0x3f
 269 0048 19       		.uleb128 0x19
 270 0049 03       		.uleb128 0x3
 271 004a 08       		.uleb128 0x8
 272 004b 3A       		.uleb128 0x3a
 273 004c 0B       		.uleb128 0xb
 274 004d 3B       		.uleb128 0x3b
 275 004e 0B       		.uleb128 0xb
 276 004f 27       		.uleb128 0x27
 277 0050 19       		.uleb128 0x19
 278 0051 11       		.uleb128 0x11
 279 0052 01       		.uleb128 0x1
 280 0053 12       		.uleb128 0x12
 281 0054 06       		.uleb128 0x6
 282 0055 40       		.uleb128 0x40
 283 0056 18       		.uleb128 0x18
 284 0057 9642     		.uleb128 0x2116
 285 0059 19       		.uleb128 0x19
 286 005a 00       		.byte	0
 287 005b 00       		.byte	0
 288 005c 07       		.uleb128 0x7
 289 005d 34       		.uleb128 0x34
 290 005e 00       		.byte	0
 291 005f 03       		.uleb128 0x3
 292 0060 08       		.uleb128 0x8
 293 0061 3A       		.uleb128 0x3a
 294 0062 0B       		.uleb128 0xb
 295 0063 3B       		.uleb128 0x3b
 296 0064 0B       		.uleb128 0xb
 297 0065 49       		.uleb128 0x49
 298 0066 13       		.uleb128 0x13
 299 0067 02       		.uleb128 0x2
 300 0068 18       		.uleb128 0x18
 301 0069 00       		.byte	0
 302 006a 00       		.byte	0
 303 006b 00       		.byte	0
GAS LISTING C:\Users\PRESID~1\AppData\Local\Temp\ccY5SQaY.s 			page 10


 304              		.section	.debug_aranges,"dr"
 305 0000 1C000000 		.long	0x1c
 306 0004 0200     		.word	0x2
 307 0006 00000000 		.secrel32	Ldebug_info0
 308 000a 04       		.byte	0x4
 309 000b 00       		.byte	0
 310 000c 0000     		.word	0
 311 000e 0000     		.word	0
 312 0010 00000000 		.long	Ltext0
 313 0014 80000000 		.long	Letext0-Ltext0
 314 0018 00000000 		.long	0
 315 001c 00000000 		.long	0
 316              		.section	.debug_macro,"dr"
 317              	Ldebug_macro0:
 318 0000 0400     		.word	0x4
 319 0002 02       		.byte	0x2
 320 0003 00000000 		.secrel32	Ldebug_line0
 321 0007 01       		.byte	0x1
 322 0008 00       		.uleb128 0
 323 0009 5F5F5354 		.ascii "__STDC__ 1\0"
 323      44435F5F 
 323      203100
 324 0014 01       		.byte	0x1
 325 0015 00       		.uleb128 0
 326 0016 5F5F5354 		.ascii "__STDC_HOSTED__ 1\0"
 326      44435F48 
 326      4F535445 
 326      445F5F20 
 326      3100
 327 0028 01       		.byte	0x1
 328 0029 00       		.uleb128 0
 329 002a 5F5F474E 		.ascii "__GNUC__ 4\0"
 329      55435F5F 
 329      203400
 330 0035 01       		.byte	0x1
 331 0036 00       		.uleb128 0
 332 0037 5F5F474E 		.ascii "__GNUC_MINOR__ 9\0"
 332      55435F4D 
 332      494E4F52 
 332      5F5F2039 
 332      00
 333 0048 01       		.byte	0x1
 334 0049 00       		.uleb128 0
 335 004a 5F5F474E 		.ascii "__GNUC_PATCHLEVEL__ 3\0"
 335      55435F50 
 335      41544348 
 335      4C455645 
 335      4C5F5F20 
 336 0060 01       		.byte	0x1
 337 0061 00       		.uleb128 0
 338 0062 5F5F5645 		.ascii "__VERSION__ \"4.9.3\"\0"
 338      5253494F 
 338      4E5F5F20 
 338      22342E39 
 338      2E332200 
 339 0076 01       		.byte	0x1
 340 0077 00       		.uleb128 0
GAS LISTING C:\Users\PRESID~1\AppData\Local\Temp\ccY5SQaY.s 			page 11


 341 0078 5F5F4154 		.ascii "__ATOMIC_RELAXED 0\0"
 341      4F4D4943 
 341      5F52454C 
 341      41584544 
 341      203000
 342 008b 01       		.byte	0x1
 343 008c 00       		.uleb128 0
 344 008d 5F5F4154 		.ascii "__ATOMIC_SEQ_CST 5\0"
 344      4F4D4943 
 344      5F534551 
 344      5F435354 
 344      203500
 345 00a0 01       		.byte	0x1
 346 00a1 00       		.uleb128 0
 347 00a2 5F5F4154 		.ascii "__ATOMIC_ACQUIRE 2\0"
 347      4F4D4943 
 347      5F414351 
 347      55495245 
 347      203200
 348 00b5 01       		.byte	0x1
 349 00b6 00       		.uleb128 0
 350 00b7 5F5F4154 		.ascii "__ATOMIC_RELEASE 3\0"
 350      4F4D4943 
 350      5F52454C 
 350      45415345 
 350      203300
 351 00ca 01       		.byte	0x1
 352 00cb 00       		.uleb128 0
 353 00cc 5F5F4154 		.ascii "__ATOMIC_ACQ_REL 4\0"
 353      4F4D4943 
 353      5F414351 
 353      5F52454C 
 353      203400
 354 00df 01       		.byte	0x1
 355 00e0 00       		.uleb128 0
 356 00e1 5F5F4154 		.ascii "__ATOMIC_CONSUME 1\0"
 356      4F4D4943 
 356      5F434F4E 
 356      53554D45 
 356      203100
 357 00f4 01       		.byte	0x1
 358 00f5 00       		.uleb128 0
 359 00f6 5F5F4649 		.ascii "__FINITE_MATH_ONLY__ 0\0"
 359      4E495445 
 359      5F4D4154 
 359      485F4F4E 
 359      4C595F5F 
 360 010d 01       		.byte	0x1
 361 010e 00       		.uleb128 0
 362 010f 5F5F5349 		.ascii "__SIZEOF_INT__ 4\0"
 362      5A454F46 
 362      5F494E54 
 362      5F5F2034 
 362      00
 363 0120 01       		.byte	0x1
 364 0121 00       		.uleb128 0
 365 0122 5F5F5349 		.ascii "__SIZEOF_LONG__ 4\0"
GAS LISTING C:\Users\PRESID~1\AppData\Local\Temp\ccY5SQaY.s 			page 12


 365      5A454F46 
 365      5F4C4F4E 
 365      475F5F20 
 365      3400
 366 0134 01       		.byte	0x1
 367 0135 00       		.uleb128 0
 368 0136 5F5F5349 		.ascii "__SIZEOF_LONG_LONG__ 8\0"
 368      5A454F46 
 368      5F4C4F4E 
 368      475F4C4F 
 368      4E475F5F 
 369 014d 01       		.byte	0x1
 370 014e 00       		.uleb128 0
 371 014f 5F5F5349 		.ascii "__SIZEOF_SHORT__ 2\0"
 371      5A454F46 
 371      5F53484F 
 371      52545F5F 
 371      203200
 372 0162 01       		.byte	0x1
 373 0163 00       		.uleb128 0
 374 0164 5F5F5349 		.ascii "__SIZEOF_FLOAT__ 4\0"
 374      5A454F46 
 374      5F464C4F 
 374      41545F5F 
 374      203400
 375 0177 01       		.byte	0x1
 376 0178 00       		.uleb128 0
 377 0179 5F5F5349 		.ascii "__SIZEOF_DOUBLE__ 8\0"
 377      5A454F46 
 377      5F444F55 
 377      424C455F 
 377      5F203800 
 378 018d 01       		.byte	0x1
 379 018e 00       		.uleb128 0
 380 018f 5F5F5349 		.ascii "__SIZEOF_LONG_DOUBLE__ 12\0"
 380      5A454F46 
 380      5F4C4F4E 
 380      475F444F 
 380      55424C45 
 381 01a9 01       		.byte	0x1
 382 01aa 00       		.uleb128 0
 383 01ab 5F5F5349 		.ascii "__SIZEOF_SIZE_T__ 4\0"
 383      5A454F46 
 383      5F53495A 
 383      455F545F 
 383      5F203400 
 384 01bf 01       		.byte	0x1
 385 01c0 00       		.uleb128 0
 386 01c1 5F5F4348 		.ascii "__CHAR_BIT__ 8\0"
 386      41525F42 
 386      49545F5F 
 386      203800
 387 01d0 01       		.byte	0x1
 388 01d1 00       		.uleb128 0
 389 01d2 5F5F4249 		.ascii "__BIGGEST_ALIGNMENT__ 16\0"
 389      47474553 
 389      545F414C 
GAS LISTING C:\Users\PRESID~1\AppData\Local\Temp\ccY5SQaY.s 			page 13


 389      49474E4D 
 389      454E545F 
 390 01eb 01       		.byte	0x1
 391 01ec 00       		.uleb128 0
 392 01ed 5F5F4F52 		.ascii "__ORDER_LITTLE_ENDIAN__ 1234\0"
 392      4445525F 
 392      4C495454 
 392      4C455F45 
 392      4E444941 
 393 020a 01       		.byte	0x1
 394 020b 00       		.uleb128 0
 395 020c 5F5F4F52 		.ascii "__ORDER_BIG_ENDIAN__ 4321\0"
 395      4445525F 
 395      4249475F 
 395      454E4449 
 395      414E5F5F 
 396 0226 01       		.byte	0x1
 397 0227 00       		.uleb128 0
 398 0228 5F5F4F52 		.ascii "__ORDER_PDP_ENDIAN__ 3412\0"
 398      4445525F 
 398      5044505F 
 398      454E4449 
 398      414E5F5F 
 399 0242 01       		.byte	0x1
 400 0243 00       		.uleb128 0
 401 0244 5F5F4259 		.ascii "__BYTE_ORDER__ __ORDER_LITTLE_ENDIAN__\0"
 401      54455F4F 
 401      52444552 
 401      5F5F205F 
 401      5F4F5244 
 402 026b 01       		.byte	0x1
 403 026c 00       		.uleb128 0
 404 026d 5F5F464C 		.ascii "__FLOAT_WORD_ORDER__ __ORDER_LITTLE_ENDIAN__\0"
 404      4F41545F 
 404      574F5244 
 404      5F4F5244 
 404      45525F5F 
 405 029a 01       		.byte	0x1
 406 029b 00       		.uleb128 0
 407 029c 5F5F5349 		.ascii "__SIZEOF_POINTER__ 4\0"
 407      5A454F46 
 407      5F504F49 
 407      4E544552 
 407      5F5F2034 
 408 02b1 01       		.byte	0x1
 409 02b2 00       		.uleb128 0
 410 02b3 5F5F5349 		.ascii "__SIZE_TYPE__ unsigned int\0"
 410      5A455F54 
 410      5950455F 
 410      5F20756E 
 410      7369676E 
 411 02ce 01       		.byte	0x1
 412 02cf 00       		.uleb128 0
 413 02d0 5F5F5054 		.ascii "__PTRDIFF_TYPE__ int\0"
 413      52444946 
 413      465F5459 
 413      50455F5F 
GAS LISTING C:\Users\PRESID~1\AppData\Local\Temp\ccY5SQaY.s 			page 14


 413      20696E74 
 414 02e5 01       		.byte	0x1
 415 02e6 00       		.uleb128 0
 416 02e7 5F5F5743 		.ascii "__WCHAR_TYPE__ short unsigned int\0"
 416      4841525F 
 416      54595045 
 416      5F5F2073 
 416      686F7274 
 417 0309 01       		.byte	0x1
 418 030a 00       		.uleb128 0
 419 030b 5F5F5749 		.ascii "__WINT_TYPE__ short unsigned int\0"
 419      4E545F54 
 419      5950455F 
 419      5F207368 
 419      6F727420 
 420 032c 01       		.byte	0x1
 421 032d 00       		.uleb128 0
 422 032e 5F5F494E 		.ascii "__INTMAX_TYPE__ long long int\0"
 422      544D4158 
 422      5F545950 
 422      455F5F20 
 422      6C6F6E67 
 423 034c 01       		.byte	0x1
 424 034d 00       		.uleb128 0
 425 034e 5F5F5549 		.ascii "__UINTMAX_TYPE__ long long unsigned int\0"
 425      4E544D41 
 425      585F5459 
 425      50455F5F 
 425      206C6F6E 
 426 0376 01       		.byte	0x1
 427 0377 00       		.uleb128 0
 428 0378 5F5F4348 		.ascii "__CHAR16_TYPE__ short unsigned int\0"
 428      41523136 
 428      5F545950 
 428      455F5F20 
 428      73686F72 
 429 039b 01       		.byte	0x1
 430 039c 00       		.uleb128 0
 431 039d 5F5F4348 		.ascii "__CHAR32_TYPE__ unsigned int\0"
 431      41523332 
 431      5F545950 
 431      455F5F20 
 431      756E7369 
 432 03ba 01       		.byte	0x1
 433 03bb 00       		.uleb128 0
 434 03bc 5F5F5349 		.ascii "__SIG_ATOMIC_TYPE__ int\0"
 434      475F4154 
 434      4F4D4943 
 434      5F545950 
 434      455F5F20 
 435 03d4 01       		.byte	0x1
 436 03d5 00       		.uleb128 0
 437 03d6 5F5F494E 		.ascii "__INT8_TYPE__ signed char\0"
 437      54385F54 
 437      5950455F 
 437      5F207369 
 437      676E6564 
GAS LISTING C:\Users\PRESID~1\AppData\Local\Temp\ccY5SQaY.s 			page 15


 438 03f0 01       		.byte	0x1
 439 03f1 00       		.uleb128 0
 440 03f2 5F5F494E 		.ascii "__INT16_TYPE__ short int\0"
 440      5431365F 
 440      54595045 
 440      5F5F2073 
 440      686F7274 
 441 040b 01       		.byte	0x1
 442 040c 00       		.uleb128 0
 443 040d 5F5F494E 		.ascii "__INT32_TYPE__ int\0"
 443      5433325F 
 443      54595045 
 443      5F5F2069 
 443      6E7400
 444 0420 01       		.byte	0x1
 445 0421 00       		.uleb128 0
 446 0422 5F5F494E 		.ascii "__INT64_TYPE__ long long int\0"
 446      5436345F 
 446      54595045 
 446      5F5F206C 
 446      6F6E6720 
 447 043f 01       		.byte	0x1
 448 0440 00       		.uleb128 0
 449 0441 5F5F5549 		.ascii "__UINT8_TYPE__ unsigned char\0"
 449      4E54385F 
 449      54595045 
 449      5F5F2075 
 449      6E736967 
 450 045e 01       		.byte	0x1
 451 045f 00       		.uleb128 0
 452 0460 5F5F5549 		.ascii "__UINT16_TYPE__ short unsigned int\0"
 452      4E543136 
 452      5F545950 
 452      455F5F20 
 452      73686F72 
 453 0483 01       		.byte	0x1
 454 0484 00       		.uleb128 0
 455 0485 5F5F5549 		.ascii "__UINT32_TYPE__ unsigned int\0"
 455      4E543332 
 455      5F545950 
 455      455F5F20 
 455      756E7369 
 456 04a2 01       		.byte	0x1
 457 04a3 00       		.uleb128 0
 458 04a4 5F5F5549 		.ascii "__UINT64_TYPE__ long long unsigned int\0"
 458      4E543634 
 458      5F545950 
 458      455F5F20 
 458      6C6F6E67 
 459 04cb 01       		.byte	0x1
 460 04cc 00       		.uleb128 0
 461 04cd 5F5F494E 		.ascii "__INT_LEAST8_TYPE__ signed char\0"
 461      545F4C45 
 461      41535438 
 461      5F545950 
 461      455F5F20 
 462 04ed 01       		.byte	0x1
GAS LISTING C:\Users\PRESID~1\AppData\Local\Temp\ccY5SQaY.s 			page 16


 463 04ee 00       		.uleb128 0
 464 04ef 5F5F494E 		.ascii "__INT_LEAST16_TYPE__ short int\0"
 464      545F4C45 
 464      41535431 
 464      365F5459 
 464      50455F5F 
 465 050e 01       		.byte	0x1
 466 050f 00       		.uleb128 0
 467 0510 5F5F494E 		.ascii "__INT_LEAST32_TYPE__ int\0"
 467      545F4C45 
 467      41535433 
 467      325F5459 
 467      50455F5F 
 468 0529 01       		.byte	0x1
 469 052a 00       		.uleb128 0
 470 052b 5F5F494E 		.ascii "__INT_LEAST64_TYPE__ long long int\0"
 470      545F4C45 
 470      41535436 
 470      345F5459 
 470      50455F5F 
 471 054e 01       		.byte	0x1
 472 054f 00       		.uleb128 0
 473 0550 5F5F5549 		.ascii "__UINT_LEAST8_TYPE__ unsigned char\0"
 473      4E545F4C 
 473      45415354 
 473      385F5459 
 473      50455F5F 
 474 0573 01       		.byte	0x1
 475 0574 00       		.uleb128 0
 476 0575 5F5F5549 		.ascii "__UINT_LEAST16_TYPE__ short unsigned int\0"
 476      4E545F4C 
 476      45415354 
 476      31365F54 
 476      5950455F 
 477 059e 01       		.byte	0x1
 478 059f 00       		.uleb128 0
 479 05a0 5F5F5549 		.ascii "__UINT_LEAST32_TYPE__ unsigned int\0"
 479      4E545F4C 
 479      45415354 
 479      33325F54 
 479      5950455F 
 480 05c3 01       		.byte	0x1
 481 05c4 00       		.uleb128 0
 482 05c5 5F5F5549 		.ascii "__UINT_LEAST64_TYPE__ long long unsigned int\0"
 482      4E545F4C 
 482      45415354 
 482      36345F54 
 482      5950455F 
 483 05f2 01       		.byte	0x1
 484 05f3 00       		.uleb128 0
 485 05f4 5F5F494E 		.ascii "__INT_FAST8_TYPE__ signed char\0"
 485      545F4641 
 485      5354385F 
 485      54595045 
 485      5F5F2073 
 486 0613 01       		.byte	0x1
 487 0614 00       		.uleb128 0
GAS LISTING C:\Users\PRESID~1\AppData\Local\Temp\ccY5SQaY.s 			page 17


 488 0615 5F5F494E 		.ascii "__INT_FAST16_TYPE__ short int\0"
 488      545F4641 
 488      53543136 
 488      5F545950 
 488      455F5F20 
 489 0633 01       		.byte	0x1
 490 0634 00       		.uleb128 0
 491 0635 5F5F494E 		.ascii "__INT_FAST32_TYPE__ int\0"
 491      545F4641 
 491      53543332 
 491      5F545950 
 491      455F5F20 
 492 064d 01       		.byte	0x1
 493 064e 00       		.uleb128 0
 494 064f 5F5F494E 		.ascii "__INT_FAST64_TYPE__ long long int\0"
 494      545F4641 
 494      53543634 
 494      5F545950 
 494      455F5F20 
 495 0671 01       		.byte	0x1
 496 0672 00       		.uleb128 0
 497 0673 5F5F5549 		.ascii "__UINT_FAST8_TYPE__ unsigned char\0"
 497      4E545F46 
 497      41535438 
 497      5F545950 
 497      455F5F20 
 498 0695 01       		.byte	0x1
 499 0696 00       		.uleb128 0
 500 0697 5F5F5549 		.ascii "__UINT_FAST16_TYPE__ short unsigned int\0"
 500      4E545F46 
 500      41535431 
 500      365F5459 
 500      50455F5F 
 501 06bf 01       		.byte	0x1
 502 06c0 00       		.uleb128 0
 503 06c1 5F5F5549 		.ascii "__UINT_FAST32_TYPE__ unsigned int\0"
 503      4E545F46 
 503      41535433 
 503      325F5459 
 503      50455F5F 
 504 06e3 01       		.byte	0x1
 505 06e4 00       		.uleb128 0
 506 06e5 5F5F5549 		.ascii "__UINT_FAST64_TYPE__ long long unsigned int\0"
 506      4E545F46 
 506      41535436 
 506      345F5459 
 506      50455F5F 
 507 0711 01       		.byte	0x1
 508 0712 00       		.uleb128 0
 509 0713 5F5F494E 		.ascii "__INTPTR_TYPE__ int\0"
 509      54505452 
 509      5F545950 
 509      455F5F20 
 509      696E7400 
 510 0727 01       		.byte	0x1
 511 0728 00       		.uleb128 0
 512 0729 5F5F5549 		.ascii "__UINTPTR_TYPE__ unsigned int\0"
GAS LISTING C:\Users\PRESID~1\AppData\Local\Temp\ccY5SQaY.s 			page 18


 512      4E545054 
 512      525F5459 
 512      50455F5F 
 512      20756E73 
 513 0747 01       		.byte	0x1
 514 0748 00       		.uleb128 0
 515 0749 5F5F6861 		.ascii "__has_include(STR) __has_include__(STR)\0"
 515      735F696E 
 515      636C7564 
 515      65285354 
 515      5229205F 
 516 0771 01       		.byte	0x1
 517 0772 00       		.uleb128 0
 518 0773 5F5F6861 		.ascii "__has_include_next(STR) __has_include_next__(STR)\0"
 518      735F696E 
 518      636C7564 
 518      655F6E65 
 518      78742853 
 519 07a5 01       		.byte	0x1
 520 07a6 00       		.uleb128 0
 521 07a7 5F5F4758 		.ascii "__GXX_ABI_VERSION 1002\0"
 521      585F4142 
 521      495F5645 
 521      5253494F 
 521      4E203130 
 522 07be 01       		.byte	0x1
 523 07bf 00       		.uleb128 0
 524 07c0 5F5F5343 		.ascii "__SCHAR_MAX__ 127\0"
 524      4841525F 
 524      4D41585F 
 524      5F203132 
 524      3700
 525 07d2 01       		.byte	0x1
 526 07d3 00       		.uleb128 0
 527 07d4 5F5F5348 		.ascii "__SHRT_MAX__ 32767\0"
 527      52545F4D 
 527      41585F5F 
 527      20333237 
 527      363700
 528 07e7 01       		.byte	0x1
 529 07e8 00       		.uleb128 0
 530 07e9 5F5F494E 		.ascii "__INT_MAX__ 2147483647\0"
 530      545F4D41 
 530      585F5F20 
 530      32313437 
 530      34383336 
 531 0800 01       		.byte	0x1
 532 0801 00       		.uleb128 0
 533 0802 5F5F4C4F 		.ascii "__LONG_MAX__ 2147483647L\0"
 533      4E475F4D 
 533      41585F5F 
 533      20323134 
 533      37343833 
 534 081b 01       		.byte	0x1
 535 081c 00       		.uleb128 0
 536 081d 5F5F4C4F 		.ascii "__LONG_LONG_MAX__ 9223372036854775807LL\0"
 536      4E475F4C 
GAS LISTING C:\Users\PRESID~1\AppData\Local\Temp\ccY5SQaY.s 			page 19


 536      4F4E475F 
 536      4D41585F 
 536      5F203932 
 537 0845 01       		.byte	0x1
 538 0846 00       		.uleb128 0
 539 0847 5F5F5743 		.ascii "__WCHAR_MAX__ 65535\0"
 539      4841525F 
 539      4D41585F 
 539      5F203635 
 539      35333500 
 540 085b 01       		.byte	0x1
 541 085c 00       		.uleb128 0
 542 085d 5F5F5743 		.ascii "__WCHAR_MIN__ 0\0"
 542      4841525F 
 542      4D494E5F 
 542      5F203000 
 543 086d 01       		.byte	0x1
 544 086e 00       		.uleb128 0
 545 086f 5F5F5749 		.ascii "__WINT_MAX__ 65535\0"
 545      4E545F4D 
 545      41585F5F 
 545      20363535 
 545      333500
 546 0882 01       		.byte	0x1
 547 0883 00       		.uleb128 0
 548 0884 5F5F5749 		.ascii "__WINT_MIN__ 0\0"
 548      4E545F4D 
 548      494E5F5F 
 548      203000
 549 0893 01       		.byte	0x1
 550 0894 00       		.uleb128 0
 551 0895 5F5F5054 		.ascii "__PTRDIFF_MAX__ 2147483647\0"
 551      52444946 
 551      465F4D41 
 551      585F5F20 
 551      32313437 
 552 08b0 01       		.byte	0x1
 553 08b1 00       		.uleb128 0
 554 08b2 5F5F5349 		.ascii "__SIZE_MAX__ 4294967295U\0"
 554      5A455F4D 
 554      41585F5F 
 554      20343239 
 554      34393637 
 555 08cb 01       		.byte	0x1
 556 08cc 00       		.uleb128 0
 557 08cd 5F5F494E 		.ascii "__INTMAX_MAX__ 9223372036854775807LL\0"
 557      544D4158 
 557      5F4D4158 
 557      5F5F2039 
 557      32323333 
 558 08f2 01       		.byte	0x1
 559 08f3 00       		.uleb128 0
 560 08f4 5F5F494E 		.ascii "__INTMAX_C(c) c ## LL\0"
 560      544D4158 
 560      5F432863 
 560      29206320 
 560      2323204C 
GAS LISTING C:\Users\PRESID~1\AppData\Local\Temp\ccY5SQaY.s 			page 20


 561 090a 01       		.byte	0x1
 562 090b 00       		.uleb128 0
 563 090c 5F5F5549 		.ascii "__UINTMAX_MAX__ 18446744073709551615ULL\0"
 563      4E544D41 
 563      585F4D41 
 563      585F5F20 
 563      31383434 
 564 0934 01       		.byte	0x1
 565 0935 00       		.uleb128 0
 566 0936 5F5F5549 		.ascii "__UINTMAX_C(c) c ## ULL\0"
 566      4E544D41 
 566      585F4328 
 566      63292063 
 566      20232320 
 567 094e 01       		.byte	0x1
 568 094f 00       		.uleb128 0
 569 0950 5F5F5349 		.ascii "__SIG_ATOMIC_MAX__ 2147483647\0"
 569      475F4154 
 569      4F4D4943 
 569      5F4D4158 
 569      5F5F2032 
 570 096e 01       		.byte	0x1
 571 096f 00       		.uleb128 0
 572 0970 5F5F5349 		.ascii "__SIG_ATOMIC_MIN__ (-__SIG_ATOMIC_MAX__ - 1)\0"
 572      475F4154 
 572      4F4D4943 
 572      5F4D494E 
 572      5F5F2028 
 573 099d 01       		.byte	0x1
 574 099e 00       		.uleb128 0
 575 099f 5F5F494E 		.ascii "__INT8_MAX__ 127\0"
 575      54385F4D 
 575      41585F5F 
 575      20313237 
 575      00
 576 09b0 01       		.byte	0x1
 577 09b1 00       		.uleb128 0
 578 09b2 5F5F494E 		.ascii "__INT16_MAX__ 32767\0"
 578      5431365F 
 578      4D41585F 
 578      5F203332 
 578      37363700 
 579 09c6 01       		.byte	0x1
 580 09c7 00       		.uleb128 0
 581 09c8 5F5F494E 		.ascii "__INT32_MAX__ 2147483647\0"
 581      5433325F 
 581      4D41585F 
 581      5F203231 
 581      34373438 
 582 09e1 01       		.byte	0x1
 583 09e2 00       		.uleb128 0
 584 09e3 5F5F494E 		.ascii "__INT64_MAX__ 9223372036854775807LL\0"
 584      5436345F 
 584      4D41585F 
 584      5F203932 
 584      32333337 
 585 0a07 01       		.byte	0x1
GAS LISTING C:\Users\PRESID~1\AppData\Local\Temp\ccY5SQaY.s 			page 21


 586 0a08 00       		.uleb128 0
 587 0a09 5F5F5549 		.ascii "__UINT8_MAX__ 255\0"
 587      4E54385F 
 587      4D41585F 
 587      5F203235 
 587      3500
 588 0a1b 01       		.byte	0x1
 589 0a1c 00       		.uleb128 0
 590 0a1d 5F5F5549 		.ascii "__UINT16_MAX__ 65535\0"
 590      4E543136 
 590      5F4D4158 
 590      5F5F2036 
 590      35353335 
 591 0a32 01       		.byte	0x1
 592 0a33 00       		.uleb128 0
 593 0a34 5F5F5549 		.ascii "__UINT32_MAX__ 4294967295U\0"
 593      4E543332 
 593      5F4D4158 
 593      5F5F2034 
 593      32393439 
 594 0a4f 01       		.byte	0x1
 595 0a50 00       		.uleb128 0
 596 0a51 5F5F5549 		.ascii "__UINT64_MAX__ 18446744073709551615ULL\0"
 596      4E543634 
 596      5F4D4158 
 596      5F5F2031 
 596      38343436 
 597 0a78 01       		.byte	0x1
 598 0a79 00       		.uleb128 0
 599 0a7a 5F5F494E 		.ascii "__INT_LEAST8_MAX__ 127\0"
 599      545F4C45 
 599      41535438 
 599      5F4D4158 
 599      5F5F2031 
 600 0a91 01       		.byte	0x1
 601 0a92 00       		.uleb128 0
 602 0a93 5F5F494E 		.ascii "__INT8_C(c) c\0"
 602      54385F43 
 602      28632920 
 602      6300
 603 0aa1 01       		.byte	0x1
 604 0aa2 00       		.uleb128 0
 605 0aa3 5F5F494E 		.ascii "__INT_LEAST16_MAX__ 32767\0"
 605      545F4C45 
 605      41535431 
 605      365F4D41 
 605      585F5F20 
 606 0abd 01       		.byte	0x1
 607 0abe 00       		.uleb128 0
 608 0abf 5F5F494E 		.ascii "__INT16_C(c) c\0"
 608      5431365F 
 608      43286329 
 608      206300
 609 0ace 01       		.byte	0x1
 610 0acf 00       		.uleb128 0
 611 0ad0 5F5F494E 		.ascii "__INT_LEAST32_MAX__ 2147483647\0"
 611      545F4C45 
GAS LISTING C:\Users\PRESID~1\AppData\Local\Temp\ccY5SQaY.s 			page 22


 611      41535433 
 611      325F4D41 
 611      585F5F20 
 612 0aef 01       		.byte	0x1
 613 0af0 00       		.uleb128 0
 614 0af1 5F5F494E 		.ascii "__INT32_C(c) c\0"
 614      5433325F 
 614      43286329 
 614      206300
 615 0b00 01       		.byte	0x1
 616 0b01 00       		.uleb128 0
 617 0b02 5F5F494E 		.ascii "__INT_LEAST64_MAX__ 9223372036854775807LL\0"
 617      545F4C45 
 617      41535436 
 617      345F4D41 
 617      585F5F20 
 618 0b2c 01       		.byte	0x1
 619 0b2d 00       		.uleb128 0
 620 0b2e 5F5F494E 		.ascii "__INT64_C(c) c ## LL\0"
 620      5436345F 
 620      43286329 
 620      20632023 
 620      23204C4C 
 621 0b43 01       		.byte	0x1
 622 0b44 00       		.uleb128 0
 623 0b45 5F5F5549 		.ascii "__UINT_LEAST8_MAX__ 255\0"
 623      4E545F4C 
 623      45415354 
 623      385F4D41 
 623      585F5F20 
 624 0b5d 01       		.byte	0x1
 625 0b5e 00       		.uleb128 0
 626 0b5f 5F5F5549 		.ascii "__UINT8_C(c) c\0"
 626      4E54385F 
 626      43286329 
 626      206300
 627 0b6e 01       		.byte	0x1
 628 0b6f 00       		.uleb128 0
 629 0b70 5F5F5549 		.ascii "__UINT_LEAST16_MAX__ 65535\0"
 629      4E545F4C 
 629      45415354 
 629      31365F4D 
 629      41585F5F 
 630 0b8b 01       		.byte	0x1
 631 0b8c 00       		.uleb128 0
 632 0b8d 5F5F5549 		.ascii "__UINT16_C(c) c\0"
 632      4E543136 
 632      5F432863 
 632      29206300 
 633 0b9d 01       		.byte	0x1
 634 0b9e 00       		.uleb128 0
 635 0b9f 5F5F5549 		.ascii "__UINT_LEAST32_MAX__ 4294967295U\0"
 635      4E545F4C 
 635      45415354 
 635      33325F4D 
 635      41585F5F 
 636 0bc0 01       		.byte	0x1
GAS LISTING C:\Users\PRESID~1\AppData\Local\Temp\ccY5SQaY.s 			page 23


 637 0bc1 00       		.uleb128 0
 638 0bc2 5F5F5549 		.ascii "__UINT32_C(c) c ## U\0"
 638      4E543332 
 638      5F432863 
 638      29206320 
 638      23232055 
 639 0bd7 01       		.byte	0x1
 640 0bd8 00       		.uleb128 0
 641 0bd9 5F5F5549 		.ascii "__UINT_LEAST64_MAX__ 18446744073709551615ULL\0"
 641      4E545F4C 
 641      45415354 
 641      36345F4D 
 641      41585F5F 
 642 0c06 01       		.byte	0x1
 643 0c07 00       		.uleb128 0
 644 0c08 5F5F5549 		.ascii "__UINT64_C(c) c ## ULL\0"
 644      4E543634 
 644      5F432863 
 644      29206320 
 644      23232055 
 645 0c1f 01       		.byte	0x1
 646 0c20 00       		.uleb128 0
 647 0c21 5F5F494E 		.ascii "__INT_FAST8_MAX__ 127\0"
 647      545F4641 
 647      5354385F 
 647      4D41585F 
 647      5F203132 
 648 0c37 01       		.byte	0x1
 649 0c38 00       		.uleb128 0
 650 0c39 5F5F494E 		.ascii "__INT_FAST16_MAX__ 32767\0"
 650      545F4641 
 650      53543136 
 650      5F4D4158 
 650      5F5F2033 
 651 0c52 01       		.byte	0x1
 652 0c53 00       		.uleb128 0
 653 0c54 5F5F494E 		.ascii "__INT_FAST32_MAX__ 2147483647\0"
 653      545F4641 
 653      53543332 
 653      5F4D4158 
 653      5F5F2032 
 654 0c72 01       		.byte	0x1
 655 0c73 00       		.uleb128 0
 656 0c74 5F5F494E 		.ascii "__INT_FAST64_MAX__ 9223372036854775807LL\0"
 656      545F4641 
 656      53543634 
 656      5F4D4158 
 656      5F5F2039 
 657 0c9d 01       		.byte	0x1
 658 0c9e 00       		.uleb128 0
 659 0c9f 5F5F5549 		.ascii "__UINT_FAST8_MAX__ 255\0"
 659      4E545F46 
 659      41535438 
 659      5F4D4158 
 659      5F5F2032 
 660 0cb6 01       		.byte	0x1
 661 0cb7 00       		.uleb128 0
GAS LISTING C:\Users\PRESID~1\AppData\Local\Temp\ccY5SQaY.s 			page 24


 662 0cb8 5F5F5549 		.ascii "__UINT_FAST16_MAX__ 65535\0"
 662      4E545F46 
 662      41535431 
 662      365F4D41 
 662      585F5F20 
 663 0cd2 01       		.byte	0x1
 664 0cd3 00       		.uleb128 0
 665 0cd4 5F5F5549 		.ascii "__UINT_FAST32_MAX__ 4294967295U\0"
 665      4E545F46 
 665      41535433 
 665      325F4D41 
 665      585F5F20 
 666 0cf4 01       		.byte	0x1
 667 0cf5 00       		.uleb128 0
 668 0cf6 5F5F5549 		.ascii "__UINT_FAST64_MAX__ 18446744073709551615ULL\0"
 668      4E545F46 
 668      41535436 
 668      345F4D41 
 668      585F5F20 
 669 0d22 01       		.byte	0x1
 670 0d23 00       		.uleb128 0
 671 0d24 5F5F494E 		.ascii "__INTPTR_MAX__ 2147483647\0"
 671      54505452 
 671      5F4D4158 
 671      5F5F2032 
 671      31343734 
 672 0d3e 01       		.byte	0x1
 673 0d3f 00       		.uleb128 0
 674 0d40 5F5F5549 		.ascii "__UINTPTR_MAX__ 4294967295U\0"
 674      4E545054 
 674      525F4D41 
 674      585F5F20 
 674      34323934 
 675 0d5c 01       		.byte	0x1
 676 0d5d 00       		.uleb128 0
 677 0d5e 5F5F4743 		.ascii "__GCC_IEC_559 2\0"
 677      435F4945 
 677      435F3535 
 677      39203200 
 678 0d6e 01       		.byte	0x1
 679 0d6f 00       		.uleb128 0
 680 0d70 5F5F4743 		.ascii "__GCC_IEC_559_COMPLEX 2\0"
 680      435F4945 
 680      435F3535 
 680      395F434F 
 680      4D504C45 
 681 0d88 01       		.byte	0x1
 682 0d89 00       		.uleb128 0
 683 0d8a 5F5F464C 		.ascii "__FLT_EVAL_METHOD__ 2\0"
 683      545F4556 
 683      414C5F4D 
 683      4554484F 
 683      445F5F20 
 684 0da0 01       		.byte	0x1
 685 0da1 00       		.uleb128 0
 686 0da2 5F5F4445 		.ascii "__DEC_EVAL_METHOD__ 2\0"
 686      435F4556 
GAS LISTING C:\Users\PRESID~1\AppData\Local\Temp\ccY5SQaY.s 			page 25


 686      414C5F4D 
 686      4554484F 
 686      445F5F20 
 687 0db8 01       		.byte	0x1
 688 0db9 00       		.uleb128 0
 689 0dba 5F5F464C 		.ascii "__FLT_RADIX__ 2\0"
 689      545F5241 
 689      4449585F 
 689      5F203200 
 690 0dca 01       		.byte	0x1
 691 0dcb 00       		.uleb128 0
 692 0dcc 5F5F464C 		.ascii "__FLT_MANT_DIG__ 24\0"
 692      545F4D41 
 692      4E545F44 
 692      49475F5F 
 692      20323400 
 693 0de0 01       		.byte	0x1
 694 0de1 00       		.uleb128 0
 695 0de2 5F5F464C 		.ascii "__FLT_DIG__ 6\0"
 695      545F4449 
 695      475F5F20 
 695      3600
 696 0df0 01       		.byte	0x1
 697 0df1 00       		.uleb128 0
 698 0df2 5F5F464C 		.ascii "__FLT_MIN_EXP__ (-125)\0"
 698      545F4D49 
 698      4E5F4558 
 698      505F5F20 
 698      282D3132 
 699 0e09 01       		.byte	0x1
 700 0e0a 00       		.uleb128 0
 701 0e0b 5F5F464C 		.ascii "__FLT_MIN_10_EXP__ (-37)\0"
 701      545F4D49 
 701      4E5F3130 
 701      5F455850 
 701      5F5F2028 
 702 0e24 01       		.byte	0x1
 703 0e25 00       		.uleb128 0
 704 0e26 5F5F464C 		.ascii "__FLT_MAX_EXP__ 128\0"
 704      545F4D41 
 704      585F4558 
 704      505F5F20 
 704      31323800 
 705 0e3a 01       		.byte	0x1
 706 0e3b 00       		.uleb128 0
 707 0e3c 5F5F464C 		.ascii "__FLT_MAX_10_EXP__ 38\0"
 707      545F4D41 
 707      585F3130 
 707      5F455850 
 707      5F5F2033 
 708 0e52 01       		.byte	0x1
 709 0e53 00       		.uleb128 0
 710 0e54 5F5F464C 		.ascii "__FLT_DECIMAL_DIG__ 9\0"
 710      545F4445 
 710      43494D41 
 710      4C5F4449 
 710      475F5F20 
GAS LISTING C:\Users\PRESID~1\AppData\Local\Temp\ccY5SQaY.s 			page 26


 711 0e6a 01       		.byte	0x1
 712 0e6b 00       		.uleb128 0
 713 0e6c 5F5F464C 		.ascii "__FLT_MAX__ 3.40282346638528859812e+38F\0"
 713      545F4D41 
 713      585F5F20 
 713      332E3430 
 713      32383233 
 714 0e94 01       		.byte	0x1
 715 0e95 00       		.uleb128 0
 716 0e96 5F5F464C 		.ascii "__FLT_MIN__ 1.17549435082228750797e-38F\0"
 716      545F4D49 
 716      4E5F5F20 
 716      312E3137 
 716      35343934 
 717 0ebe 01       		.byte	0x1
 718 0ebf 00       		.uleb128 0
 719 0ec0 5F5F464C 		.ascii "__FLT_EPSILON__ 1.19209289550781250000e-7F\0"
 719      545F4550 
 719      53494C4F 
 719      4E5F5F20 
 719      312E3139 
 720 0eeb 01       		.byte	0x1
 721 0eec 00       		.uleb128 0
 722 0eed 5F5F464C 		.ascii "__FLT_DENORM_MIN__ 1.40129846432481707092e-45F\0"
 722      545F4445 
 722      4E4F524D 
 722      5F4D494E 
 722      5F5F2031 
 723 0f1c 01       		.byte	0x1
 724 0f1d 00       		.uleb128 0
 725 0f1e 5F5F464C 		.ascii "__FLT_HAS_DENORM__ 1\0"
 725      545F4841 
 725      535F4445 
 725      4E4F524D 
 725      5F5F2031 
 726 0f33 01       		.byte	0x1
 727 0f34 00       		.uleb128 0
 728 0f35 5F5F464C 		.ascii "__FLT_HAS_INFINITY__ 1\0"
 728      545F4841 
 728      535F494E 
 728      46494E49 
 728      54595F5F 
 729 0f4c 01       		.byte	0x1
 730 0f4d 00       		.uleb128 0
 731 0f4e 5F5F464C 		.ascii "__FLT_HAS_QUIET_NAN__ 1\0"
 731      545F4841 
 731      535F5155 
 731      4945545F 
 731      4E414E5F 
 732 0f66 01       		.byte	0x1
 733 0f67 00       		.uleb128 0
 734 0f68 5F5F4442 		.ascii "__DBL_MANT_DIG__ 53\0"
 734      4C5F4D41 
 734      4E545F44 
 734      49475F5F 
 734      20353300 
 735 0f7c 01       		.byte	0x1
GAS LISTING C:\Users\PRESID~1\AppData\Local\Temp\ccY5SQaY.s 			page 27


 736 0f7d 00       		.uleb128 0
 737 0f7e 5F5F4442 		.ascii "__DBL_DIG__ 15\0"
 737      4C5F4449 
 737      475F5F20 
 737      313500
 738 0f8d 01       		.byte	0x1
 739 0f8e 00       		.uleb128 0
 740 0f8f 5F5F4442 		.ascii "__DBL_MIN_EXP__ (-1021)\0"
 740      4C5F4D49 
 740      4E5F4558 
 740      505F5F20 
 740      282D3130 
 741 0fa7 01       		.byte	0x1
 742 0fa8 00       		.uleb128 0
 743 0fa9 5F5F4442 		.ascii "__DBL_MIN_10_EXP__ (-307)\0"
 743      4C5F4D49 
 743      4E5F3130 
 743      5F455850 
 743      5F5F2028 
 744 0fc3 01       		.byte	0x1
 745 0fc4 00       		.uleb128 0
 746 0fc5 5F5F4442 		.ascii "__DBL_MAX_EXP__ 1024\0"
 746      4C5F4D41 
 746      585F4558 
 746      505F5F20 
 746      31303234 
 747 0fda 01       		.byte	0x1
 748 0fdb 00       		.uleb128 0
 749 0fdc 5F5F4442 		.ascii "__DBL_MAX_10_EXP__ 308\0"
 749      4C5F4D41 
 749      585F3130 
 749      5F455850 
 749      5F5F2033 
 750 0ff3 01       		.byte	0x1
 751 0ff4 00       		.uleb128 0
 752 0ff5 5F5F4442 		.ascii "__DBL_DECIMAL_DIG__ 17\0"
 752      4C5F4445 
 752      43494D41 
 752      4C5F4449 
 752      475F5F20 
 753 100c 01       		.byte	0x1
 754 100d 00       		.uleb128 0
 755 100e 5F5F4442 		.ascii "__DBL_MAX__ ((double)1.79769313486231570815e+308L)\0"
 755      4C5F4D41 
 755      585F5F20 
 755      2828646F 
 755      75626C65 
 756 1041 01       		.byte	0x1
 757 1042 00       		.uleb128 0
 758 1043 5F5F4442 		.ascii "__DBL_MIN__ ((double)2.22507385850720138309e-308L)\0"
 758      4C5F4D49 
 758      4E5F5F20 
 758      2828646F 
 758      75626C65 
 759 1076 01       		.byte	0x1
 760 1077 00       		.uleb128 0
 761 1078 5F5F4442 		.ascii "__DBL_EPSILON__ ((double)2.22044604925031308085e-16L)\0"
GAS LISTING C:\Users\PRESID~1\AppData\Local\Temp\ccY5SQaY.s 			page 28


 761      4C5F4550 
 761      53494C4F 
 761      4E5F5F20 
 761      2828646F 
 762 10ae 01       		.byte	0x1
 763 10af 00       		.uleb128 0
 764 10b0 5F5F4442 		.ascii "__DBL_DENORM_MIN__ ((double)4.94065645841246544177e-324L)\0"
 764      4C5F4445 
 764      4E4F524D 
 764      5F4D494E 
 764      5F5F2028 
 765 10ea 01       		.byte	0x1
 766 10eb 00       		.uleb128 0
 767 10ec 5F5F4442 		.ascii "__DBL_HAS_DENORM__ 1\0"
 767      4C5F4841 
 767      535F4445 
 767      4E4F524D 
 767      5F5F2031 
 768 1101 01       		.byte	0x1
 769 1102 00       		.uleb128 0
 770 1103 5F5F4442 		.ascii "__DBL_HAS_INFINITY__ 1\0"
 770      4C5F4841 
 770      535F494E 
 770      46494E49 
 770      54595F5F 
 771 111a 01       		.byte	0x1
 772 111b 00       		.uleb128 0
 773 111c 5F5F4442 		.ascii "__DBL_HAS_QUIET_NAN__ 1\0"
 773      4C5F4841 
 773      535F5155 
 773      4945545F 
 773      4E414E5F 
 774 1134 01       		.byte	0x1
 775 1135 00       		.uleb128 0
 776 1136 5F5F4C44 		.ascii "__LDBL_MANT_DIG__ 64\0"
 776      424C5F4D 
 776      414E545F 
 776      4449475F 
 776      5F203634 
 777 114b 01       		.byte	0x1
 778 114c 00       		.uleb128 0
 779 114d 5F5F4C44 		.ascii "__LDBL_DIG__ 18\0"
 779      424C5F44 
 779      49475F5F 
 779      20313800 
 780 115d 01       		.byte	0x1
 781 115e 00       		.uleb128 0
 782 115f 5F5F4C44 		.ascii "__LDBL_MIN_EXP__ (-16381)\0"
 782      424C5F4D 
 782      494E5F45 
 782      58505F5F 
 782      20282D31 
 783 1179 01       		.byte	0x1
 784 117a 00       		.uleb128 0
 785 117b 5F5F4C44 		.ascii "__LDBL_MIN_10_EXP__ (-4931)\0"
 785      424C5F4D 
 785      494E5F31 
GAS LISTING C:\Users\PRESID~1\AppData\Local\Temp\ccY5SQaY.s 			page 29


 785      305F4558 
 785      505F5F20 
 786 1197 01       		.byte	0x1
 787 1198 00       		.uleb128 0
 788 1199 5F5F4C44 		.ascii "__LDBL_MAX_EXP__ 16384\0"
 788      424C5F4D 
 788      41585F45 
 788      58505F5F 
 788      20313633 
 789 11b0 01       		.byte	0x1
 790 11b1 00       		.uleb128 0
 791 11b2 5F5F4C44 		.ascii "__LDBL_MAX_10_EXP__ 4932\0"
 791      424C5F4D 
 791      41585F31 
 791      305F4558 
 791      505F5F20 
 792 11cb 01       		.byte	0x1
 793 11cc 00       		.uleb128 0
 794 11cd 5F5F4445 		.ascii "__DECIMAL_DIG__ 21\0"
 794      43494D41 
 794      4C5F4449 
 794      475F5F20 
 794      323100
 795 11e0 01       		.byte	0x1
 796 11e1 00       		.uleb128 0
 797 11e2 5F5F4C44 		.ascii "__LDBL_MAX__ 1.18973149535723176502e+4932L\0"
 797      424C5F4D 
 797      41585F5F 
 797      20312E31 
 797      38393733 
 798 120d 01       		.byte	0x1
 799 120e 00       		.uleb128 0
 800 120f 5F5F4C44 		.ascii "__LDBL_MIN__ 3.36210314311209350626e-4932L\0"
 800      424C5F4D 
 800      494E5F5F 
 800      20332E33 
 800      36323130 
 801 123a 01       		.byte	0x1
 802 123b 00       		.uleb128 0
 803 123c 5F5F4C44 		.ascii "__LDBL_EPSILON__ 1.08420217248550443401e-19L\0"
 803      424C5F45 
 803      5053494C 
 803      4F4E5F5F 
 803      20312E30 
 804 1269 01       		.byte	0x1
 805 126a 00       		.uleb128 0
 806 126b 5F5F4C44 		.ascii "__LDBL_DENORM_MIN__ 3.64519953188247460253e-4951L\0"
 806      424C5F44 
 806      454E4F52 
 806      4D5F4D49 
 806      4E5F5F20 
 807 129d 01       		.byte	0x1
 808 129e 00       		.uleb128 0
 809 129f 5F5F4C44 		.ascii "__LDBL_HAS_DENORM__ 1\0"
 809      424C5F48 
 809      41535F44 
 809      454E4F52 
GAS LISTING C:\Users\PRESID~1\AppData\Local\Temp\ccY5SQaY.s 			page 30


 809      4D5F5F20 
 810 12b5 01       		.byte	0x1
 811 12b6 00       		.uleb128 0
 812 12b7 5F5F4C44 		.ascii "__LDBL_HAS_INFINITY__ 1\0"
 812      424C5F48 
 812      41535F49 
 812      4E46494E 
 812      4954595F 
 813 12cf 01       		.byte	0x1
 814 12d0 00       		.uleb128 0
 815 12d1 5F5F4C44 		.ascii "__LDBL_HAS_QUIET_NAN__ 1\0"
 815      424C5F48 
 815      41535F51 
 815      55494554 
 815      5F4E414E 
 816 12ea 01       		.byte	0x1
 817 12eb 00       		.uleb128 0
 818 12ec 5F5F4445 		.ascii "__DEC32_MANT_DIG__ 7\0"
 818      4333325F 
 818      4D414E54 
 818      5F444947 
 818      5F5F2037 
 819 1301 01       		.byte	0x1
 820 1302 00       		.uleb128 0
 821 1303 5F5F4445 		.ascii "__DEC32_MIN_EXP__ (-94)\0"
 821      4333325F 
 821      4D494E5F 
 821      4558505F 
 821      5F20282D 
 822 131b 01       		.byte	0x1
 823 131c 00       		.uleb128 0
 824 131d 5F5F4445 		.ascii "__DEC32_MAX_EXP__ 97\0"
 824      4333325F 
 824      4D41585F 
 824      4558505F 
 824      5F203937 
 825 1332 01       		.byte	0x1
 826 1333 00       		.uleb128 0
 827 1334 5F5F4445 		.ascii "__DEC32_MIN__ 1E-95DF\0"
 827      4333325F 
 827      4D494E5F 
 827      5F203145 
 827      2D393544 
 828 134a 01       		.byte	0x1
 829 134b 00       		.uleb128 0
 830 134c 5F5F4445 		.ascii "__DEC32_MAX__ 9.999999E96DF\0"
 830      4333325F 
 830      4D41585F 
 830      5F20392E 
 830      39393939 
 831 1368 01       		.byte	0x1
 832 1369 00       		.uleb128 0
 833 136a 5F5F4445 		.ascii "__DEC32_EPSILON__ 1E-6DF\0"
 833      4333325F 
 833      45505349 
 833      4C4F4E5F 
 833      5F203145 
GAS LISTING C:\Users\PRESID~1\AppData\Local\Temp\ccY5SQaY.s 			page 31


 834 1383 01       		.byte	0x1
 835 1384 00       		.uleb128 0
 836 1385 5F5F4445 		.ascii "__DEC32_SUBNORMAL_MIN__ 0.000001E-95DF\0"
 836      4333325F 
 836      5355424E 
 836      4F524D41 
 836      4C5F4D49 
 837 13ac 01       		.byte	0x1
 838 13ad 00       		.uleb128 0
 839 13ae 5F5F4445 		.ascii "__DEC64_MANT_DIG__ 16\0"
 839      4336345F 
 839      4D414E54 
 839      5F444947 
 839      5F5F2031 
 840 13c4 01       		.byte	0x1
 841 13c5 00       		.uleb128 0
 842 13c6 5F5F4445 		.ascii "__DEC64_MIN_EXP__ (-382)\0"
 842      4336345F 
 842      4D494E5F 
 842      4558505F 
 842      5F20282D 
 843 13df 01       		.byte	0x1
 844 13e0 00       		.uleb128 0
 845 13e1 5F5F4445 		.ascii "__DEC64_MAX_EXP__ 385\0"
 845      4336345F 
 845      4D41585F 
 845      4558505F 
 845      5F203338 
 846 13f7 01       		.byte	0x1
 847 13f8 00       		.uleb128 0
 848 13f9 5F5F4445 		.ascii "__DEC64_MIN__ 1E-383DD\0"
 848      4336345F 
 848      4D494E5F 
 848      5F203145 
 848      2D333833 
 849 1410 01       		.byte	0x1
 850 1411 00       		.uleb128 0
 851 1412 5F5F4445 		.ascii "__DEC64_MAX__ 9.999999999999999E384DD\0"
 851      4336345F 
 851      4D41585F 
 851      5F20392E 
 851      39393939 
 852 1438 01       		.byte	0x1
 853 1439 00       		.uleb128 0
 854 143a 5F5F4445 		.ascii "__DEC64_EPSILON__ 1E-15DD\0"
 854      4336345F 
 854      45505349 
 854      4C4F4E5F 
 854      5F203145 
 855 1454 01       		.byte	0x1
 856 1455 00       		.uleb128 0
 857 1456 5F5F4445 		.ascii "__DEC64_SUBNORMAL_MIN__ 0.000000000000001E-383DD\0"
 857      4336345F 
 857      5355424E 
 857      4F524D41 
 857      4C5F4D49 
 858 1487 01       		.byte	0x1
GAS LISTING C:\Users\PRESID~1\AppData\Local\Temp\ccY5SQaY.s 			page 32


 859 1488 00       		.uleb128 0
 860 1489 5F5F4445 		.ascii "__DEC128_MANT_DIG__ 34\0"
 860      43313238 
 860      5F4D414E 
 860      545F4449 
 860      475F5F20 
 861 14a0 01       		.byte	0x1
 862 14a1 00       		.uleb128 0
 863 14a2 5F5F4445 		.ascii "__DEC128_MIN_EXP__ (-6142)\0"
 863      43313238 
 863      5F4D494E 
 863      5F455850 
 863      5F5F2028 
 864 14bd 01       		.byte	0x1
 865 14be 00       		.uleb128 0
 866 14bf 5F5F4445 		.ascii "__DEC128_MAX_EXP__ 6145\0"
 866      43313238 
 866      5F4D4158 
 866      5F455850 
 866      5F5F2036 
 867 14d7 01       		.byte	0x1
 868 14d8 00       		.uleb128 0
 869 14d9 5F5F4445 		.ascii "__DEC128_MIN__ 1E-6143DL\0"
 869      43313238 
 869      5F4D494E 
 869      5F5F2031 
 869      452D3631 
 870 14f2 01       		.byte	0x1
 871 14f3 00       		.uleb128 0
 872 14f4 5F5F4445 		.ascii "__DEC128_MAX__ 9.999999999999999999999999999999999E6144DL\0"
 872      43313238 
 872      5F4D4158 
 872      5F5F2039 
 872      2E393939 
 873 152e 01       		.byte	0x1
 874 152f 00       		.uleb128 0
 875 1530 5F5F4445 		.ascii "__DEC128_EPSILON__ 1E-33DL\0"
 875      43313238 
 875      5F455053 
 875      494C4F4E 
 875      5F5F2031 
 876 154b 01       		.byte	0x1
 877 154c 00       		.uleb128 0
 878 154d 5F5F4445 		.ascii "__DEC128_SUBNORMAL_MIN__ 0.000000000000000000000000000000001E-6143DL\0"
 878      43313238 
 878      5F535542 
 878      4E4F524D 
 878      414C5F4D 
 879 1592 01       		.byte	0x1
 880 1593 00       		.uleb128 0
 881 1594 5F5F5245 		.ascii "__REGISTER_PREFIX__ \0"
 881      47495354 
 881      45525F50 
 881      52454649 
 881      585F5F20 
 882 15a9 01       		.byte	0x1
 883 15aa 00       		.uleb128 0
GAS LISTING C:\Users\PRESID~1\AppData\Local\Temp\ccY5SQaY.s 			page 33


 884 15ab 5F5F5553 		.ascii "__USER_LABEL_PREFIX__ _\0"
 884      45525F4C 
 884      4142454C 
 884      5F505245 
 884      4649585F 
 885 15c3 01       		.byte	0x1
 886 15c4 00       		.uleb128 0
 887 15c5 5F5F474E 		.ascii "__GNUC_GNU_INLINE__ 1\0"
 887      55435F47 
 887      4E555F49 
 887      4E4C494E 
 887      455F5F20 
 888 15db 01       		.byte	0x1
 889 15dc 00       		.uleb128 0
 890 15dd 5F5F4E4F 		.ascii "__NO_INLINE__ 1\0"
 890      5F494E4C 
 890      494E455F 
 890      5F203100 
 891 15ed 01       		.byte	0x1
 892 15ee 00       		.uleb128 0
 893 15ef 5F5F5354 		.ascii "__STRICT_ANSI__ 1\0"
 893      52494354 
 893      5F414E53 
 893      495F5F20 
 893      3100
 894 1601 01       		.byte	0x1
 895 1602 00       		.uleb128 0
 896 1603 5F5F4743 		.ascii "__GCC_ATOMIC_BOOL_LOCK_FREE 1\0"
 896      435F4154 
 896      4F4D4943 
 896      5F424F4F 
 896      4C5F4C4F 
 897 1621 01       		.byte	0x1
 898 1622 00       		.uleb128 0
 899 1623 5F5F4743 		.ascii "__GCC_ATOMIC_CHAR_LOCK_FREE 1\0"
 899      435F4154 
 899      4F4D4943 
 899      5F434841 
 899      525F4C4F 
 900 1641 01       		.byte	0x1
 901 1642 00       		.uleb128 0
 902 1643 5F5F4743 		.ascii "__GCC_ATOMIC_CHAR16_T_LOCK_FREE 1\0"
 902      435F4154 
 902      4F4D4943 
 902      5F434841 
 902      5231365F 
 903 1665 01       		.byte	0x1
 904 1666 00       		.uleb128 0
 905 1667 5F5F4743 		.ascii "__GCC_ATOMIC_CHAR32_T_LOCK_FREE 1\0"
 905      435F4154 
 905      4F4D4943 
 905      5F434841 
 905      5233325F 
 906 1689 01       		.byte	0x1
 907 168a 00       		.uleb128 0
 908 168b 5F5F4743 		.ascii "__GCC_ATOMIC_WCHAR_T_LOCK_FREE 1\0"
 908      435F4154 
GAS LISTING C:\Users\PRESID~1\AppData\Local\Temp\ccY5SQaY.s 			page 34


 908      4F4D4943 
 908      5F574348 
 908      41525F54 
 909 16ac 01       		.byte	0x1
 910 16ad 00       		.uleb128 0
 911 16ae 5F5F4743 		.ascii "__GCC_ATOMIC_SHORT_LOCK_FREE 1\0"
 911      435F4154 
 911      4F4D4943 
 911      5F53484F 
 911      52545F4C 
 912 16cd 01       		.byte	0x1
 913 16ce 00       		.uleb128 0
 914 16cf 5F5F4743 		.ascii "__GCC_ATOMIC_INT_LOCK_FREE 1\0"
 914      435F4154 
 914      4F4D4943 
 914      5F494E54 
 914      5F4C4F43 
 915 16ec 01       		.byte	0x1
 916 16ed 00       		.uleb128 0
 917 16ee 5F5F4743 		.ascii "__GCC_ATOMIC_LONG_LOCK_FREE 1\0"
 917      435F4154 
 917      4F4D4943 
 917      5F4C4F4E 
 917      475F4C4F 
 918 170c 01       		.byte	0x1
 919 170d 00       		.uleb128 0
 920 170e 5F5F4743 		.ascii "__GCC_ATOMIC_LLONG_LOCK_FREE 1\0"
 920      435F4154 
 920      4F4D4943 
 920      5F4C4C4F 
 920      4E475F4C 
 921 172d 01       		.byte	0x1
 922 172e 00       		.uleb128 0
 923 172f 5F5F4743 		.ascii "__GCC_ATOMIC_TEST_AND_SET_TRUEVAL 1\0"
 923      435F4154 
 923      4F4D4943 
 923      5F544553 
 923      545F414E 
 924 1753 01       		.byte	0x1
 925 1754 00       		.uleb128 0
 926 1755 5F5F4743 		.ascii "__GCC_ATOMIC_POINTER_LOCK_FREE 1\0"
 926      435F4154 
 926      4F4D4943 
 926      5F504F49 
 926      4E544552 
 927 1776 01       		.byte	0x1
 928 1777 00       		.uleb128 0
 929 1778 5F5F4743 		.ascii "__GCC_HAVE_DWARF2_CFI_ASM 1\0"
 929      435F4841 
 929      56455F44 
 929      57415246 
 929      325F4346 
 930 1794 01       		.byte	0x1
 931 1795 00       		.uleb128 0
 932 1796 5F5F5052 		.ascii "__PRAGMA_REDEFINE_EXTNAME 1\0"
 932      41474D41 
 932      5F524544 
GAS LISTING C:\Users\PRESID~1\AppData\Local\Temp\ccY5SQaY.s 			page 35


 932      4546494E 
 932      455F4558 
 933 17b2 01       		.byte	0x1
 934 17b3 00       		.uleb128 0
 935 17b4 5F5F5349 		.ascii "__SIZEOF_WCHAR_T__ 2\0"
 935      5A454F46 
 935      5F574348 
 935      41525F54 
 935      5F5F2032 
 936 17c9 01       		.byte	0x1
 937 17ca 00       		.uleb128 0
 938 17cb 5F5F5349 		.ascii "__SIZEOF_WINT_T__ 2\0"
 938      5A454F46 
 938      5F57494E 
 938      545F545F 
 938      5F203200 
 939 17df 01       		.byte	0x1
 940 17e0 00       		.uleb128 0
 941 17e1 5F5F5349 		.ascii "__SIZEOF_PTRDIFF_T__ 4\0"
 941      5A454F46 
 941      5F505452 
 941      44494646 
 941      5F545F5F 
 942 17f8 01       		.byte	0x1
 943 17f9 00       		.uleb128 0
 944 17fa 5F5F6933 		.ascii "__i386 1\0"
 944      38362031 
 944      00
 945 1803 01       		.byte	0x1
 946 1804 00       		.uleb128 0
 947 1805 5F5F6933 		.ascii "__i386__ 1\0"
 947      38365F5F 
 947      203100
 948 1810 01       		.byte	0x1
 949 1811 00       		.uleb128 0
 950 1812 5F5F4154 		.ascii "__ATOMIC_HLE_ACQUIRE 65536\0"
 950      4F4D4943 
 950      5F484C45 
 950      5F414351 
 950      55495245 
 951 182d 01       		.byte	0x1
 952 182e 00       		.uleb128 0
 953 182f 5F5F4154 		.ascii "__ATOMIC_HLE_RELEASE 131072\0"
 953      4F4D4943 
 953      5F484C45 
 953      5F52454C 
 953      45415345 
 954 184b 01       		.byte	0x1
 955 184c 00       		.uleb128 0
 956 184d 5F5F7475 		.ascii "__tune_i386__ 1\0"
 956      6E655F69 
 956      3338365F 
 956      5F203100 
 957 185d 01       		.byte	0x1
 958 185e 00       		.uleb128 0
 959 185f 5F5F636F 		.ascii "__code_model_32__ 1\0"
 959      64655F6D 
GAS LISTING C:\Users\PRESID~1\AppData\Local\Temp\ccY5SQaY.s 			page 36


 959      6F64656C 
 959      5F33325F 
 959      5F203100 
 960 1873 01       		.byte	0x1
 961 1874 00       		.uleb128 0
 962 1875 5F583836 		.ascii "_X86_ 1\0"
 962      5F203100 
 963 187d 01       		.byte	0x1
 964 187e 00       		.uleb128 0
 965 187f 5F5F7374 		.ascii "__stdcall __attribute__((__stdcall__))\0"
 965      6463616C 
 965      6C205F5F 
 965      61747472 
 965      69627574 
 966 18a6 01       		.byte	0x1
 967 18a7 00       		.uleb128 0
 968 18a8 5F5F6661 		.ascii "__fastcall __attribute__((__fastcall__))\0"
 968      73746361 
 968      6C6C205F 
 968      5F617474 
 968      72696275 
 969 18d1 01       		.byte	0x1
 970 18d2 00       		.uleb128 0
 971 18d3 5F5F7468 		.ascii "__thiscall __attribute__((__thiscall__))\0"
 971      69736361 
 971      6C6C205F 
 971      5F617474 
 971      72696275 
 972 18fc 01       		.byte	0x1
 973 18fd 00       		.uleb128 0
 974 18fe 5F5F6364 		.ascii "__cdecl __attribute__((__cdecl__))\0"
 974      65636C20 
 974      5F5F6174 
 974      74726962 
 974      7574655F 
 975 1921 01       		.byte	0x1
 976 1922 00       		.uleb128 0
 977 1923 5F5F4758 		.ascii "__GXX_MERGED_TYPEINFO_NAMES 0\0"
 977      585F4D45 
 977      52474544 
 977      5F545950 
 977      45494E46 
 978 1941 01       		.byte	0x1
 979 1942 00       		.uleb128 0
 980 1943 5F5F4758 		.ascii "__GXX_TYPEINFO_EQUALITY_INLINE 0\0"
 980      585F5459 
 980      5045494E 
 980      464F5F45 
 980      5155414C 
 981 1964 01       		.byte	0x1
 982 1965 00       		.uleb128 0
 983 1966 5F5F4D53 		.ascii "__MSVCRT__ 1\0"
 983      56435254 
 983      5F5F2031 
 983      00
 984 1973 01       		.byte	0x1
 985 1974 00       		.uleb128 0
GAS LISTING C:\Users\PRESID~1\AppData\Local\Temp\ccY5SQaY.s 			page 37


 986 1975 5F5F4D49 		.ascii "__MINGW32__ 1\0"
 986      4E475733 
 986      325F5F20 
 986      3100
 987 1983 01       		.byte	0x1
 988 1984 00       		.uleb128 0
 989 1985 5F57494E 		.ascii "_WIN32 1\0"
 989      33322031 
 989      00
 990 198e 01       		.byte	0x1
 991 198f 00       		.uleb128 0
 992 1990 5F5F5749 		.ascii "__WIN32 1\0"
 992      4E333220 
 992      3100
 993 199a 01       		.byte	0x1
 994 199b 00       		.uleb128 0
 995 199c 5F5F5749 		.ascii "__WIN32__ 1\0"
 995      4E33325F 
 995      5F203100 
 996 19a8 01       		.byte	0x1
 997 19a9 00       		.uleb128 0
 998 19aa 5F5F5749 		.ascii "__WINNT 1\0"
 998      4E4E5420 
 998      3100
 999 19b4 01       		.byte	0x1
 1000 19b5 00       		.uleb128 0
 1001 19b6 5F5F5749 		.ascii "__WINNT__ 1\0"
 1001      4E4E545F 
 1001      5F203100 
 1002 19c2 01       		.byte	0x1
 1003 19c3 00       		.uleb128 0
 1004 19c4 5F494E54 		.ascii "_INTEGRAL_MAX_BITS 64\0"
 1004      45475241 
 1004      4C5F4D41 
 1004      585F4249 
 1004      54532036 
 1005 19da 01       		.byte	0x1
 1006 19db 00       		.uleb128 0
 1007 19dc 5F5F6465 		.ascii "__declspec(x) __attribute__((x))\0"
 1007      636C7370 
 1007      65632878 
 1007      29205F5F 
 1007      61747472 
 1008 19fd 01       		.byte	0x1
 1009 19fe 00       		.uleb128 0
 1010 19ff 5F5F4445 		.ascii "__DECIMAL_BID_FORMAT__ 1\0"
 1010      43494D41 
 1010      4C5F4249 
 1010      445F464F 
 1010      524D4154 
 1011 1a18 01       		.byte	0x1
 1012 1a19 00       		.uleb128 0
 1013 1a1a 4346475F 		.ascii "CFG_PROCESSOR 3\0"
 1013      50524F43 
 1013      4553534F 
 1013      52203300 
 1014 1a2a 03       		.byte	0x3
GAS LISTING C:\Users\PRESID~1\AppData\Local\Temp\ccY5SQaY.s 			page 38


 1015 1a2b 00       		.uleb128 0
 1016 1a2c 01       		.uleb128 0x1
 1017              		.file 3 "E:/NeuOrga/Programmieren/c_cpp/github_os/input/src/os_base/os_firstinc.h"
 1018 1a2d 03       		.byte	0x3
 1019 1a2e 01       		.uleb128 0x1
 1020 1a2f 03       		.uleb128 0x3
 1021 1a30 01       		.byte	0x1
 1022 1a31 02       		.uleb128 0x2
 1023 1a32 5F6F735F 		.ascii "_os_firstinc_h_ \0"
 1023      66697273 
 1023      74696E63 
 1023      5F685F20 
 1023      00
 1024              		.file 4 "E:/NeuOrga/Programmieren/c_cpp/github_os/input/src/os_base/../os_base/os_base_types.h"
 1025 1a43 03       		.byte	0x3
 1026 1a44 04       		.uleb128 0x4
 1027 1a45 04       		.uleb128 0x4
 1028 1a46 01       		.byte	0x1
 1029 1a47 02       		.uleb128 0x2
 1030 1a48 5F424153 		.ascii "_BASE_TYPES_H_ \0"
 1030      455F5459 
 1030      5045535F 
 1030      485F2000 
 1031 1a58 01       		.byte	0x1
 1032 1a59 04       		.uleb128 0x4
 1033 1a5a 494E5445 		.ascii "INTEGER_LLP64_IL32P64 1\0"
 1033      4745525F 
 1033      4C4C5036 
 1033      345F494C 
 1033      33325036 
 1034 1a72 01       		.byte	0x1
 1035 1a73 05       		.uleb128 0x5
 1036 1a74 494E5445 		.ascii "INTEGER_LP64_I32LP64 2\0"
 1036      4745525F 
 1036      4C503634 
 1036      5F493332 
 1036      4C503634 
 1037 1a8b 01       		.byte	0x1
 1038 1a8c 06       		.uleb128 0x6
 1039 1a8d 494E5445 		.ascii "INTEGER_ILP64 3\0"
 1039      4745525F 
 1039      494C5036 
 1039      34203300 
 1040 1a9d 01       		.byte	0x1
 1041 1a9e 07       		.uleb128 0x7
 1042 1a9f 494E5445 		.ascii "INTEGER_SILP64 4\0"
 1042      4745525F 
 1042      53494C50 
 1042      36342034 
 1042      00
 1043 1ab0 01       		.byte	0x1
 1044 1ab1 09       		.uleb128 0x9
 1045 1ab2 4350505F 		.ascii "CPP_VERSION_NONE 0\0"
 1045      56455253 
 1045      494F4E5F 
 1045      4E4F4E45 
 1045      203000
GAS LISTING C:\Users\PRESID~1\AppData\Local\Temp\ccY5SQaY.s 			page 39


 1046 1ac5 01       		.byte	0x1
 1047 1ac6 0A       		.uleb128 0xa
 1048 1ac7 4350505F 		.ascii "CPP_VERSION_1998 1\0"
 1048      56455253 
 1048      494F4E5F 
 1048      31393938 
 1048      203100
 1049 1ada 01       		.byte	0x1
 1050 1adb 0B       		.uleb128 0xb
 1051 1adc 4350505F 		.ascii "CPP_VERSION_2003 2\0"
 1051      56455253 
 1051      494F4E5F 
 1051      32303033 
 1051      203200
 1052 1aef 01       		.byte	0x1
 1053 1af0 0C       		.uleb128 0xc
 1054 1af1 4350505F 		.ascii "CPP_VERSION_2007 3\0"
 1054      56455253 
 1054      494F4E5F 
 1054      32303037 
 1054      203300
 1055 1b04 01       		.byte	0x1
 1056 1b05 0D       		.uleb128 0xd
 1057 1b06 4350505F 		.ascii "CPP_VERSION_2011 4\0"
 1057      56455253 
 1057      494F4E5F 
 1057      32303131 
 1057      203400
 1058 1b19 01       		.byte	0x1
 1059 1b1a 0E       		.uleb128 0xe
 1060 1b1b 49534F5F 		.ascii "ISO_CPP_VERSION CPP_VERSION_1998\0"
 1060      4350505F 
 1060      56455253 
 1060      494F4E20 
 1060      4350505F 
 1061 1b3c 01       		.byte	0x1
 1062 1b3d 10       		.uleb128 0x10
 1063 1b3e 494E5445 		.ascii "INTEGER_MODEL INTEGER_LLP64_IL32P64\0"
 1063      4745525F 
 1063      4D4F4445 
 1063      4C20494E 
 1063      54454745 
 1064 1b62 04       		.byte	0x4
 1065              		.file 5 "E:/NeuOrga/Programmieren/c_cpp/github_os/input/src/os_base/../os_base/os_common.h"
 1066 1b63 03       		.byte	0x3
 1067 1b64 05       		.uleb128 0x5
 1068 1b65 05       		.uleb128 0x5
 1069 1b66 01       		.byte	0x1
 1070 1b67 02       		.uleb128 0x2
 1071 1b68 5F6F735F 		.ascii "_os_common_h_ \0"
 1071      636F6D6D 
 1071      6F6E5F68 
 1071      5F2000
 1072 1b77 01       		.byte	0x1
 1073 1b78 06       		.uleb128 0x6
 1074 1b79 46616C73 		.ascii "False 0\0"
 1074      65203000 
GAS LISTING C:\Users\PRESID~1\AppData\Local\Temp\ccY5SQaY.s 			page 40


 1075 1b81 01       		.byte	0x1
 1076 1b82 07       		.uleb128 0x7
 1077 1b83 54727565 		.ascii "True 1\0"
 1077      203100
 1078 1b8a 01       		.byte	0x1
 1079 1b8b 08       		.uleb128 0x8
 1080 1b8c 46414C53 		.ascii "FALSE False\0"
 1080      45204661 
 1080      6C736500 
 1081 1b98 01       		.byte	0x1
 1082 1b99 09       		.uleb128 0x9
 1083 1b9a 54525545 		.ascii "TRUE True\0"
 1083      20547275 
 1083      6500
 1084 1ba4 01       		.byte	0x1
 1085 1ba5 0A       		.uleb128 0xa
 1086 1ba6 41636365 		.ascii "Accepted 1\0"
 1086      70746564 
 1086      203100
 1087 1bb1 01       		.byte	0x1
 1088 1bb2 0B       		.uleb128 0xb
 1089 1bb3 52656A65 		.ascii "Rejected 0\0"
 1089      63746564 
 1089      203000
 1090 1bbe 01       		.byte	0x1
 1091 1bbf 0C       		.uleb128 0xc
 1092 1bc0 4C6F6361 		.ascii "Local static\0"
 1092      6C207374 
 1092      61746963 
 1092      00
 1093 1bcd 01       		.byte	0x1
 1094 1bce 0D       		.uleb128 0xd
 1095 1bcf 4C6F6361 		.ascii "Local_inline static __inline__\0"
 1095      6C5F696E 
 1095      6C696E65 
 1095      20737461 
 1095      74696320 
 1096 1bee 01       		.byte	0x1
 1097 1bef 0E       		.uleb128 0xe
 1098 1bf0 476C6F62 		.ascii "Global_inline __inline__\0"
 1098      616C5F69 
 1098      6E6C696E 
 1098      65205F5F 
 1098      696E6C69 
 1099 1c09 01       		.byte	0x1
 1100 1c0a 0F       		.uleb128 0xf
 1101 1c0b 52656665 		.ascii "ReferenceUnusedParameter(x) ((x) = (x))\0"
 1101      72656E63 
 1101      65556E75 
 1101      73656450 
 1101      6172616D 
 1102 1c33 01       		.byte	0x1
 1103 1c34 12       		.uleb128 0x12
 1104 1c35 634D4355 		.ascii "cMCU_SIMULATION 1\0"
 1104      5F53494D 
 1104      554C4154 
 1104      494F4E20 
GAS LISTING C:\Users\PRESID~1\AppData\Local\Temp\ccY5SQaY.s 			page 41


 1104      3100
 1105 1c47 01       		.byte	0x1
 1106 1c48 13       		.uleb128 0x13
 1107 1c49 634D4355 		.ascii "cMCU_POWERPC 2\0"
 1107      5F504F57 
 1107      45525043 
 1107      203200
 1108 1c58 01       		.byte	0x1
 1109 1c59 14       		.uleb128 0x14
 1110 1c5a 634D4355 		.ascii "cMCU_X86 3\0"
 1110      5F583836 
 1110      203300
 1111 1c65 01       		.byte	0x1
 1112 1c66 15       		.uleb128 0x15
 1113 1c67 634D4355 		.ascii "cMCU_CORTEX_M4 4\0"
 1113      5F434F52 
 1113      5445585F 
 1113      4D342034 
 1113      00
 1114 1c78 01       		.byte	0x1
 1115 1c79 18       		.uleb128 0x18
 1116 1c7a 4E525F4F 		.ascii "NR_OF_CORES 1\0"
 1116      465F434F 
 1116      52455320 
 1116      3100
 1117 1c88 01       		.byte	0x1
 1118 1c89 25       		.uleb128 0x25
 1119 1c8a 44697361 		.ascii "DisableInterrupts() \0"
 1119      626C6549 
 1119      6E746572 
 1119      72757074 
 1119      73282920 
 1120 1c9f 01       		.byte	0x1
 1121 1ca0 26       		.uleb128 0x26
 1122 1ca1 456E6162 		.ascii "EnableInterrupts() \0"
 1122      6C65496E 
 1122      74657272 
 1122      75707473 
 1122      28292000 
 1123 1cb5 01       		.byte	0x1
 1124 1cb6 27       		.uleb128 0x27
 1125 1cb7 50726976 		.ascii "Privilige_level_save_current() \0"
 1125      696C6967 
 1125      655F6C65 
 1125      76656C5F 
 1125      73617665 
 1126 1cd7 01       		.byte	0x1
 1127 1cd8 28       		.uleb128 0x28
 1128 1cd9 50726976 		.ascii "Privilige_level_enter_kernel_mode() \0"
 1128      696C6967 
 1128      655F6C65 
 1128      76656C5F 
 1128      656E7465 
 1129 1cfe 01       		.byte	0x1
 1130 1cff 29       		.uleb128 0x29
 1131 1d00 50726976 		.ascii "Privilige_level_restore_saved() \0"
 1131      696C6967 
GAS LISTING C:\Users\PRESID~1\AppData\Local\Temp\ccY5SQaY.s 			page 42


 1131      655F6C65 
 1131      76656C5F 
 1131      72657374 
 1132 1d21 01       		.byte	0x1
 1133 1d22 2A       		.uleb128 0x2a
 1134 1d23 48616C74 		.ascii "HaltMcu() \0"
 1134      4D637528 
 1134      292000
 1135 1d2e 04       		.byte	0x4
 1136              		.file 6 "E:/NeuOrga/Programmieren/c_cpp/github_os/input/src/os_base/../os_base/os_ram.h"
 1137 1d2f 03       		.byte	0x3
 1138 1d30 07       		.uleb128 0x7
 1139 1d31 06       		.uleb128 0x6
 1140 1d32 01       		.byte	0x1
 1141 1d33 02       		.uleb128 0x2
 1142 1d34 5F4F535F 		.ascii "_OS_RAM_H_ \0"
 1142      52414D5F 
 1142      485F2000 
 1143              		.file 7 "E:/NeuOrga/Programmieren/c_cpp/github_os/input/src/os_base/../os_base/os_firstinc.h"
 1144 1d40 03       		.byte	0x3
 1145 1d41 04       		.uleb128 0x4
 1146 1d42 07       		.uleb128 0x7
 1147 1d43 04       		.byte	0x4
 1148              		.file 8 "E:/NeuOrga/Programmieren/c_cpp/github_os/input/src/os_base/../os_base/os_stack.h"
 1149 1d44 03       		.byte	0x3
 1150 1d45 05       		.uleb128 0x5
 1151 1d46 08       		.uleb128 0x8
 1152 1d47 01       		.byte	0x1
 1153 1d48 02       		.uleb128 0x2
 1154 1d49 5F6F735F 		.ascii "_os_stack_h_ \0"
 1154      73746163 
 1154      6B5F685F 
 1154      2000
 1155 1d57 01       		.byte	0x1
 1156 1d58 04       		.uleb128 0x4
 1157 1d59 4F535F53 		.ascii "OS_STACK_SIZE 0x100\0"
 1157      5441434B 
 1157      5F53495A 
 1157      45203078 
 1157      31303000 
 1158 1d6d 04       		.byte	0x4
 1159              		.file 9 "E:/NeuOrga/Programmieren/c_cpp/github_os/input/src/os_base/../os_base/os_heap.h"
 1160 1d6e 03       		.byte	0x3
 1161 1d6f 06       		.uleb128 0x6
 1162 1d70 09       		.uleb128 0x9
 1163 1d71 01       		.byte	0x1
 1164 1d72 02       		.uleb128 0x2
 1165 1d73 5F6F735F 		.ascii "_os_heap_h_ \0"
 1165      68656170 
 1165      5F685F20 
 1165      00
 1166 1d80 01       		.byte	0x1
 1167 1d81 05       		.uleb128 0x5
 1168 1d82 48454150 		.ascii "HEAP_SIZE 10000\0"
 1168      5F53495A 
 1168      45203130 
 1168      30303000 
GAS LISTING C:\Users\PRESID~1\AppData\Local\Temp\ccY5SQaY.s 			page 43


 1169 1d92 01       		.byte	0x1
 1170 1d93 06       		.uleb128 0x6
 1171 1d94 4D494E5F 		.ascii "MIN_BLOCK_SIZE_HEAP 8\0"
 1171      424C4F43 
 1171      4B5F5349 
 1171      5A455F48 
 1171      45415020 
 1172 1daa 01       		.byte	0x1
 1173 1dab 09       		.uleb128 0x9
 1174 1dac 48454150 		.ascii "HEAP_OFFSET_FOR_SIZE 0\0"
 1174      5F4F4646 
 1174      5345545F 
 1174      464F525F 
 1174      53495A45 
 1175 1dc3 01       		.byte	0x1
 1176 1dc4 0A       		.uleb128 0xa
 1177 1dc5 48454150 		.ascii "HEAP_OFFSET_FOR_USED_SIZE 4\0"
 1177      5F4F4646 
 1177      5345545F 
 1177      464F525F 
 1177      55534544 
 1178 1de1 01       		.byte	0x1
 1179 1de2 0B       		.uleb128 0xb
 1180 1de3 48454150 		.ascii "HEAP_OFFSET_FOR_CHUNK 8\0"
 1180      5F4F4646 
 1180      5345545F 
 1180      464F525F 
 1180      4348554E 
 1181 1dfb 04       		.byte	0x4
 1182 1dfc 04       		.byte	0x4
 1183              		.file 10 "E:/NeuOrga/Programmieren/c_cpp/github_os/input/src/os_base/../os_sim/lld_global.h"
 1184 1dfd 03       		.byte	0x3
 1185 1dfe 0A       		.uleb128 0xa
 1186 1dff 0A       		.uleb128 0xa
 1187 1e00 01       		.byte	0x1
 1188 1e01 02       		.uleb128 0x2
 1189 1e02 5F6C6C64 		.ascii "_lld_global_h_ \0"
 1189      5F676C6F 
 1189      62616C5F 
 1189      685F2000 
 1190              		.file 11 "E:/NeuOrga/Programmieren/c_cpp/github_os/input/src/os_base/../os_sim/lld_core.h"
 1191 1e12 03       		.byte	0x3
 1192 1e13 04       		.uleb128 0x4
 1193 1e14 0B       		.uleb128 0xb
 1194 1e15 01       		.byte	0x1
 1195 1e16 02       		.uleb128 0x2
 1196 1e17 5F6C6C64 		.ascii "_lld_core_h_ \0"
 1196      5F636F72 
 1196      655F685F 
 1196      2000
 1197              		.file 12 "E:/NeuOrga/Programmieren/c_cpp/github_os/input/src/os_base/../os_sim/../os_base/os_first
 1198 1e25 03       		.byte	0x3
 1199 1e26 03       		.uleb128 0x3
 1200 1e27 0C       		.uleb128 0xc
 1201 1e28 04       		.byte	0x4
 1202 1e29 04       		.byte	0x4
 1203              		.file 13 "E:/NeuOrga/Programmieren/c_cpp/github_os/input/src/os_base/../os_sim/lld_interrupt.h"
GAS LISTING C:\Users\PRESID~1\AppData\Local\Temp\ccY5SQaY.s 			page 44


 1204 1e2a 03       		.byte	0x3
 1205 1e2b 05       		.uleb128 0x5
 1206 1e2c 0D       		.uleb128 0xd
 1207 1e2d 01       		.byte	0x1
 1208 1e2e 02       		.uleb128 0x2
 1209 1e2f 5F6C6C64 		.ascii "_lld_interrupt_h_ \0"
 1209      5F696E74 
 1209      65727275 
 1209      70745F68 
 1209      5F2000
 1210 1e42 01       		.byte	0x1
 1211 1e43 05       		.uleb128 0x5
 1212 1e44 6F735F69 		.ascii "os_interrupt_swi_1 asm(\"swi 1\")\0"
 1212      6E746572 
 1212      72757074 
 1212      5F737769 
 1212      5F312061 
 1213 1e64 01       		.byte	0x1
 1214 1e65 06       		.uleb128 0x6
 1215 1e66 6F735F69 		.ascii "os_interrupt_swi_2 asm(\"swi 2\")\0"
 1215      6E746572 
 1215      72757074 
 1215      5F737769 
 1215      5F322061 
 1216 1e86 01       		.byte	0x1
 1217 1e87 07       		.uleb128 0x7
 1218 1e88 6F735F69 		.ascii "os_interrupt_swi_3 asm(\"swi 3\")\0"
 1218      6E746572 
 1218      72757074 
 1218      5F737769 
 1218      5F332061 
 1219 1ea8 01       		.byte	0x1
 1220 1ea9 08       		.uleb128 0x8
 1221 1eaa 6F735F69 		.ascii "os_interrupt_swi_4 asm(\"swi 4\")\0"
 1221      6E746572 
 1221      72757074 
 1221      5F737769 
 1221      5F342061 
 1222 1eca 01       		.byte	0x1
 1223 1ecb 09       		.uleb128 0x9
 1224 1ecc 6F735F69 		.ascii "os_interrupt_swi_5 asm(\"swi 5\")\0"
 1224      6E746572 
 1224      72757074 
 1224      5F737769 
 1224      5F352061 
 1225 1eec 04       		.byte	0x4
 1226              		.file 14 "E:/NeuOrga/Programmieren/c_cpp/github_os/input/src/os_base/../os_sim/lld_mmu.h"
 1227 1eed 03       		.byte	0x3
 1228 1eee 06       		.uleb128 0x6
 1229 1eef 0E       		.uleb128 0xe
 1230 1ef0 01       		.byte	0x1
 1231 1ef1 02       		.uleb128 0x2
 1232 1ef2 5F6C6C64 		.ascii "_lld_mmu_h_ \0"
 1232      5F6D6D75 
 1232      5F685F20 
 1232      00
 1233 1eff 04       		.byte	0x4
GAS LISTING C:\Users\PRESID~1\AppData\Local\Temp\ccY5SQaY.s 			page 45


 1234              		.file 15 "E:/NeuOrga/Programmieren/c_cpp/github_os/input/src/os_base/../os_sim/lld_timer.h"
 1235 1f00 03       		.byte	0x3
 1236 1f01 07       		.uleb128 0x7
 1237 1f02 0F       		.uleb128 0xf
 1238 1f03 01       		.byte	0x1
 1239 1f04 02       		.uleb128 0x2
 1240 1f05 5F6C6C64 		.ascii "_lld_timer_h_ \0"
 1240      5F74696D 
 1240      65725F68 
 1240      5F2000
 1241 1f14 04       		.byte	0x4
 1242              		.file 16 "E:/NeuOrga/Programmieren/c_cpp/github_os/input/src/os_base/../os_sim/lld_power.h"
 1243 1f15 03       		.byte	0x3
 1244 1f16 08       		.uleb128 0x8
 1245 1f17 10       		.uleb128 0x10
 1246 1f18 01       		.byte	0x1
 1247 1f19 02       		.uleb128 0x2
 1248 1f1a 5F6C6C64 		.ascii "_lld_power_h_ \0"
 1248      5F706F77 
 1248      65725F68 
 1248      5F2000
 1249 1f29 04       		.byte	0x4
 1250              		.file 17 "E:/NeuOrga/Programmieren/c_cpp/github_os/input/src/os_base/../os_sim/lld_ram.h"
 1251 1f2a 03       		.byte	0x3
 1252 1f2b 09       		.uleb128 0x9
 1253 1f2c 11       		.uleb128 0x11
 1254 1f2d 01       		.byte	0x1
 1255 1f2e 02       		.uleb128 0x2
 1256 1f2f 5F6C6C64 		.ascii "_lld_ram_h_ \0"
 1256      5F72616D 
 1256      5F685F20 
 1256      00
 1257 1f3c 04       		.byte	0x4
 1258              		.file 18 "E:/NeuOrga/Programmieren/c_cpp/github_os/input/src/os_base/../os_sim/../os_base/os_task_
 1259 1f3d 03       		.byte	0x3
 1260 1f3e 0A       		.uleb128 0xa
 1261 1f3f 12       		.uleb128 0x12
 1262 1f40 01       		.byte	0x1
 1263 1f41 02       		.uleb128 0x2
 1264 1f42 5F6F735F 		.ascii "_os_task_common_h_ \0"
 1264      7461736B 
 1264      5F636F6D 
 1264      6D6F6E5F 
 1264      685F2000 
 1265              		.file 19 "E:/NeuOrga/Programmieren/c_cpp/github_os/input/src/os_base/../os_sim/../os_base/os_task_
 1266 1f56 03       		.byte	0x3
 1267 1f57 04       		.uleb128 0x4
 1268 1f58 13       		.uleb128 0x13
 1269 1f59 01       		.byte	0x1
 1270 1f5a 02       		.uleb128 0x2
 1271 1f5b 5F6F735F 		.ascii "_os_task_config_h_ \0"
 1271      7461736B 
 1271      5F636F6E 
 1271      6669675F 
 1271      685F2000 
 1272 1f6f 01       		.byte	0x1
 1273 1f70 05       		.uleb128 0x5
GAS LISTING C:\Users\PRESID~1\AppData\Local\Temp\ccY5SQaY.s 			page 46


 1274 1f71 53636865 		.ascii "SchedulerFrequency (1.0e3)\0"
 1274      64756C65 
 1274      72467265 
 1274      7175656E 
 1274      63792028 
 1275 1f8c 01       		.byte	0x1
 1276 1f8d 06       		.uleb128 0x6
 1277 1f8e 4D696E54 		.ascii "MinTimeSlice_s (1.0/SchedulerFrequency)\0"
 1277      696D6553 
 1277      6C696365 
 1277      5F732028 
 1277      312E302F 
 1278 1fb6 01       		.byte	0x1
 1279 1fb7 07       		.uleb128 0x7
 1280 1fb8 4D696E54 		.ascii "MinTimeSlice_us ((1.0/SchedulerFrequency)*1e6)\0"
 1280      696D6553 
 1280      6C696365 
 1280      5F757320 
 1280      2828312E 
 1281 1fe7 01       		.byte	0x1
 1282 1fe8 08       		.uleb128 0x8
 1283 1fe9 5461736B 		.ascii "Task_min_time (1e0)\0"
 1283      5F6D696E 
 1283      5F74696D 
 1283      65202831 
 1283      65302900 
 1284 1ffd 01       		.byte	0x1
 1285 1ffe 09       		.uleb128 0x9
 1286 1fff 4E554D42 		.ascii "NUMBER_OF_TASKS 5\0"
 1286      45525F4F 
 1286      465F5441 
 1286      534B5320 
 1286      3500
 1287 2011 01       		.byte	0x1
 1288 2012 0A       		.uleb128 0xa
 1289 2013 4D41585F 		.ascii "MAX_RUN_QUEUE_SIZE (NUMBER_OF_TASKS)\0"
 1289      52554E5F 
 1289      51554555 
 1289      455F5349 
 1289      5A452028 
 1290 2038 01       		.byte	0x1
 1291 2039 0B       		.uleb128 0xb
 1292 203a 4D41585F 		.ascii "MAX_RUN_PQUEUE_SIZE MAX_RUN_QUEUE_SIZE\0"
 1292      52554E5F 
 1292      50515545 
 1292      55455F53 
 1292      495A4520 
 1293 2061 01       		.byte	0x1
 1294 2062 0D       		.uleb128 0xd
 1295 2063 5441534B 		.ascii "TASK_STACK_SIZE 200\0"
 1295      5F535441 
 1295      434B5F53 
 1295      495A4520 
 1295      32303000 
 1296 2077 01       		.byte	0x1
 1297 2078 10       		.uleb128 0x10
 1298 2079 4D535F50 		.ascii "MS_PER_SEC (1000)\0"
GAS LISTING C:\Users\PRESID~1\AppData\Local\Temp\ccY5SQaY.s 			page 47


 1298      45525F53 
 1298      45432028 
 1298      31303030 
 1298      2900
 1299 208b 01       		.byte	0x1
 1300 208c 11       		.uleb128 0x11
 1301 208d 5553455F 		.ascii "USE_STATIC_CREATED_TASKS True\0"
 1301      53544154 
 1301      49435F43 
 1301      52454154 
 1301      45445F54 
 1302 20ab 04       		.byte	0x4
 1303              		.file 20 "E:/NeuOrga/Programmieren/c_cpp/github_os/input/src/os_base/../os_sim/../os_base/os_init_
 1304 20ac 03       		.byte	0x3
 1305 20ad 05       		.uleb128 0x5
 1306 20ae 14       		.uleb128 0x14
 1307 20af 01       		.byte	0x1
 1308 20b0 02       		.uleb128 0x2
 1309 20b1 5F6F735F 		.ascii "_os_init_task_system_h_ \0"
 1309      696E6974 
 1309      5F746173 
 1309      6B5F7379 
 1309      7374656D 
 1310 20ca 04       		.byte	0x4
 1311 20cb 01       		.byte	0x1
 1312 20cc 5C       		.uleb128 0x5c
 1313 20cd 6F735F53 		.ascii "os_SaveTaskPtr(task_ptr,task_name) (TASK_PTR[(task_name)] = (task_ptr))\0"
 1313      61766554 
 1313      61736B50 
 1313      74722874 
 1313      61736B5F 
 1314 2115 01       		.byte	0x1
 1315 2116 5D       		.uleb128 0x5d
 1316 2117 6F735F47 		.ascii "os_GetTaskPtr(task_name) ((task_t*) TASK_PTR[(task_name)])\0"
 1316      65745461 
 1316      736B5074 
 1316      72287461 
 1316      736B5F6E 
 1317 2152 04       		.byte	0x4
 1318 2153 04       		.byte	0x4
 1319              		.file 21 "E:/NeuOrga/Programmieren/c_cpp/github_os/input/src/os_base/../os_user_code/led.h"
 1320 2154 03       		.byte	0x3
 1321 2155 0E       		.uleb128 0xe
 1322 2156 15       		.uleb128 0x15
 1323 2157 01       		.byte	0x1
 1324 2158 02       		.uleb128 0x2
 1325 2159 5F4C4544 		.ascii "_LED_H_ \0"
 1325      5F485F20 
 1325      00
 1326 2162 04       		.byte	0x4
 1327 2163 04       		.byte	0x4
 1328              		.file 22 "E:/NeuOrga/Programmieren/c_cpp/github_os/input/src/os_base/os_task_common.h"
 1329 2164 03       		.byte	0x3
 1330 2165 02       		.uleb128 0x2
 1331 2166 16       		.uleb128 0x16
 1332 2167 04       		.byte	0x4
 1333              		.file 23 "E:/NeuOrga/Programmieren/c_cpp/github_os/input/src/os_base/os_task_scheduler.h"
GAS LISTING C:\Users\PRESID~1\AppData\Local\Temp\ccY5SQaY.s 			page 48


 1334 2168 03       		.byte	0x3
 1335 2169 03       		.uleb128 0x3
 1336 216a 17       		.uleb128 0x17
 1337 216b 01       		.byte	0x1
 1338 216c 02       		.uleb128 0x2
 1339 216d 5F6F735F 		.ascii "_os_task_scheduler_h_ \0"
 1339      7461736B 
 1339      5F736368 
 1339      6564756C 
 1339      65725F68 
 1340 2184 01       		.byte	0x1
 1341 2185 07       		.uleb128 0x7
 1342 2186 5461736B 		.ascii "Task_0_ptr 0\0"
 1342      5F305F70 
 1342      74722030 
 1342      00
 1343 2193 01       		.byte	0x1
 1344 2194 08       		.uleb128 0x8
 1345 2195 5461736B 		.ascii "Task_1_ptr 1\0"
 1345      5F315F70 
 1345      74722031 
 1345      00
 1346 21a2 01       		.byte	0x1
 1347 21a3 09       		.uleb128 0x9
 1348 21a4 5461736B 		.ascii "Task_2_ptr 2\0"
 1348      5F325F70 
 1348      74722032 
 1348      00
 1349 21b1 01       		.byte	0x1
 1350 21b2 0A       		.uleb128 0xa
 1351 21b3 5461736B 		.ascii "Task_3_ptr 3\0"
 1351      5F335F70 
 1351      74722033 
 1351      00
 1352 21c0 01       		.byte	0x1
 1353 21c1 0C       		.uleb128 0xc
 1354 21c2 4F535F53 		.ascii "OS_SaveTaskPtr(task_ptr,Task_n_ptr) \0"
 1354      61766554 
 1354      61736B50 
 1354      74722874 
 1354      61736B5F 
 1355 21e7 04       		.byte	0x4
 1356 21e8 03       		.byte	0x3
 1357 21e9 04       		.uleb128 0x4
 1358 21ea 02       		.uleb128 0x2
 1359 21eb 01       		.byte	0x1
 1360 21ec 02       		.uleb128 0x2
 1361 21ed 5F6F735F 		.ascii "_os_shutdown_h_ \0"
 1361      73687574 
 1361      646F776E 
 1361      5F685F20 
 1361      00
 1362 21fe 04       		.byte	0x4
 1363              		.file 24 "E:/NeuOrga/Programmieren/c_cpp/github_os/input/src/os_base/os_start_init_mc.h"
 1364 21ff 03       		.byte	0x3
 1365 2200 05       		.uleb128 0x5
 1366 2201 18       		.uleb128 0x18
GAS LISTING C:\Users\PRESID~1\AppData\Local\Temp\ccY5SQaY.s 			page 49


 1367 2202 01       		.byte	0x1
 1368 2203 02       		.uleb128 0x2
 1369 2204 5F6F735F 		.ascii "_os_start_init_mc_h_ \0"
 1369      73746172 
 1369      745F696E 
 1369      69745F6D 
 1369      635F685F 
 1370 221a 04       		.byte	0x4
 1371              		.file 25 "E:/NeuOrga/Programmieren/c_cpp/github_os/input/src/os_base/os_start_init_hw.h"
 1372 221b 03       		.byte	0x3
 1373 221c 06       		.uleb128 0x6
 1374 221d 19       		.uleb128 0x19
 1375 221e 01       		.byte	0x1
 1376 221f 02       		.uleb128 0x2
 1377 2220 5F6F735F 		.ascii "_os_start_init_hw_h_ \0"
 1377      73746172 
 1377      745F696E 
 1377      69745F68 
 1377      775F685F 
 1378 2236 04       		.byte	0x4
 1379              		.file 26 "E:/NeuOrga/Programmieren/c_cpp/github_os/input/src/os_base/os_start_init_sw.h"
 1380 2237 03       		.byte	0x3
 1381 2238 07       		.uleb128 0x7
 1382 2239 1A       		.uleb128 0x1a
 1383 223a 01       		.byte	0x1
 1384 223b 02       		.uleb128 0x2
 1385 223c 5F6F735F 		.ascii "_os_start_init_sw_h_ \0"
 1385      73746172 
 1385      745F696E 
 1385      69745F73 
 1385      775F685F 
 1386 2252 04       		.byte	0x4
 1387 2253 04       		.byte	0x4
 1388 2254 00       		.byte	0
 1389              		.section	.debug_line,"dr"
 1390              	Ldebug_line0:
 1391 0000 61030000 		.section	.debug_str,"dr"
 1391      02002E03 
 1391      00000101 
 1391      FB0E0D00 
 1391      01010101 
 1392              		.ident	"GCC: (GNU) 4.9.3"
GAS LISTING C:\Users\PRESID~1\AppData\Local\Temp\ccY5SQaY.s 			page 50


DEFINED SYMBOLS
                            *ABS*:00000000 os_main.c
C:\Users\PRESID~1\AppData\Local\Temp\ccY5SQaY.s:6      .text:00000000 _OS_STATE_HANDLER
C:\Users\PRESID~1\AppData\Local\Temp\ccY5SQaY.s:84     .bss:00000000 _OS_STATE.1270
C:\Users\PRESID~1\AppData\Local\Temp\ccY5SQaY.s:85     .bss:00000004 _sys_req_reset_state.1271

UNDEFINED SYMBOLS
_OS_INIT_MC
_OS_INIT_HW
_OS_INIT_SW
_OS_INIT_TASK_SYSTEM
_OS_ACTIVATE_DISPATCHER
_LLF_INT_ENABLE
_ISR_TASK_DISPATCH_C0
_LLF_INT_DISABLE
_OS_SHUTDOWN
