GAS LISTING C:\Users\PRESID~1\AppData\Local\Temp\cccpOaUn.s 			page 1


   1              		.file	"os_main.c"
   2              		.text
   3              	Ltext0:
   5              	_os_determine_next_task_activation:
   6              	LFB0:
   7              		.file 1 "E:/NeuOrga/Programmieren/c_cpp/github_os/input/src/os_base/os_main.c"
   1:E:/NeuOrga/Programmieren/c_cpp/github_os/input/src/os_base\os_main.c **** #include "os_firstinc.h"
   2:E:/NeuOrga/Programmieren/c_cpp/github_os/input/src/os_base\os_main.c **** #include "os_task_common.h"
   3:E:/NeuOrga/Programmieren/c_cpp/github_os/input/src/os_base\os_main.c **** #include "os_task_scheduler.h"
   4:E:/NeuOrga/Programmieren/c_cpp/github_os/input/src/os_base\os_main.c **** #include "OS_shutdown.h"
   5:E:/NeuOrga/Programmieren/c_cpp/github_os/input/src/os_base\os_main.c **** #include "os_start_init_mc.h"
   6:E:/NeuOrga/Programmieren/c_cpp/github_os/input/src/os_base\os_main.c **** #include "os_start_init_hw.h"
   7:E:/NeuOrga/Programmieren/c_cpp/github_os/input/src/os_base\os_main.c **** #include "os_start_init_sw.h"
   8:E:/NeuOrga/Programmieren/c_cpp/github_os/input/src/os_base\os_main.c **** #include "os_task_scheduler.h"
   9:E:/NeuOrga/Programmieren/c_cpp/github_os/input/src/os_base\os_main.c **** #include "os_task_queue.h"
  10:E:/NeuOrga/Programmieren/c_cpp/github_os/input/src/os_base\os_main.c **** #include "os_main.h"
  11:E:/NeuOrga/Programmieren/c_cpp/github_os/input/src/os_base\os_main.c **** 
  12:E:/NeuOrga/Programmieren/c_cpp/github_os/input/src/os_base\os_main.c **** /*
  13:E:/NeuOrga/Programmieren/c_cpp/github_os/input/src/os_base\os_main.c **** OS_State: OS_INIT (Start im Supervisor Mode)
  14:E:/NeuOrga/Programmieren/c_cpp/github_os/input/src/os_base\os_main.c **** - Exception Handler aufsetzen  -> Done
  15:E:/NeuOrga/Programmieren/c_cpp/github_os/input/src/os_base\os_main.c **** - HW Internal Peripherie, RAM, etc -> Done
  16:E:/NeuOrga/Programmieren/c_cpp/github_os/input/src/os_base\os_main.c **** - Tasks konfigurieren -> Done via OS_INIT_TASK_SYSTEM()
  17:E:/NeuOrga/Programmieren/c_cpp/github_os/input/src/os_base\os_main.c **** --> Stack -> assigned in function OS_INIT_TASKs / OS_INIT_TASK_SYSTEM -> Done
  18:E:/NeuOrga/Programmieren/c_cpp/github_os/input/src/os_base\os_main.c **** --> MMU_REGION ->NA
  19:E:/NeuOrga/Programmieren/c_cpp/github_os/input/src/os_base\os_main.c **** --> CoreId -> Done
  20:E:/NeuOrga/Programmieren/c_cpp/github_os/input/src/os_base\os_main.c **** --> Task-Function -> assigned in function OS_INIT_TASK / OS_INIT_TASK_SYSTEM -> Done
  21:E:/NeuOrga/Programmieren/c_cpp/github_os/input/src/os_base\os_main.c **** --> TaskPrio -> Done
  22:E:/NeuOrga/Programmieren/c_cpp/github_os/input/src/os_base\os_main.c **** --> MultipleActChk -> Done in OS_ACTIVATE_TASK()
  23:E:/NeuOrga/Programmieren/c_cpp/github_os/input/src/os_base\os_main.c **** --> Privilige Level (Handler mode (priviliged): System Mode, Abort, Undefined, FiQ, IRQ; Thread mod
  24:E:/NeuOrga/Programmieren/c_cpp/github_os/input/src/os_base\os_main.c **** - TCMP Interrupts für Tasks konfigurieren, Starten vom Dispatcher -> Done
  25:E:/NeuOrga/Programmieren/c_cpp/github_os/input/src/os_base\os_main.c **** - MMU konfigurieren -> NA
  26:E:/NeuOrga/Programmieren/c_cpp/github_os/input/src/os_base\os_main.c **** - TaskScheduler für Core 0...n starten (jeder Core hat eigenen Scheduler) -> Not needed for CortexM
  27:E:/NeuOrga/Programmieren/c_cpp/github_os/input/src/os_base\os_main.c **** - SW mit erhöhtem Rechtebedarf wird mittels Interrupt gestartet (Dispatcher, WD, FMON, Shutdown) ->
  28:E:/NeuOrga/Programmieren/c_cpp/github_os/input/src/os_base\os_main.c **** - FMON / Watchdog aktivieren -> NA
  29:E:/NeuOrga/Programmieren/c_cpp/github_os/input/src/os_base\os_main.c **** - Interrupts aktivieren -> Done
  30:E:/NeuOrga/Programmieren/c_cpp/github_os/input/src/os_base\os_main.c **** - Zu UserMode wechseln -> Done
  31:E:/NeuOrga/Programmieren/c_cpp/github_os/input/src/os_base\os_main.c **** 
  32:E:/NeuOrga/Programmieren/c_cpp/github_os/input/src/os_base\os_main.c **** OS_State: OS_Running (User Mode)
  33:E:/NeuOrga/Programmieren/c_cpp/github_os/input/src/os_base\os_main.c **** - Starten / Beenden der einzelnen Tasks auf den jeweiligen Cores(User/Supervisor Mode??) -> Done
  34:E:/NeuOrga/Programmieren/c_cpp/github_os/input/src/os_base\os_main.c **** - Timer Compare Interrupts -> not needed  -> Systick used instead
  35:E:/NeuOrga/Programmieren/c_cpp/github_os/input/src/os_base\os_main.c **** - Interrupt Prioritäten von Cat2.(SW) Interrupts und Cat1.(HW) Interrupts -> NA
  36:E:/NeuOrga/Programmieren/c_cpp/github_os/input/src/os_base\os_main.c **** 
  37:E:/NeuOrga/Programmieren/c_cpp/github_os/input/src/os_base\os_main.c **** (OS_State: OS_Exception (Supervisor Mode))
  38:E:/NeuOrga/Programmieren/c_cpp/github_os/input/src/os_base\os_main.c **** - Link-Register Adresse im Eeprom abspeichern, an der die Exceptioin erzeugt wurde -> NA (no EEPROM
  39:E:/NeuOrga/Programmieren/c_cpp/github_os/input/src/os_base\os_main.c **** - OS_SHUTDOWN mit Reset -> Done in handler functions via call of "OS_SHUTDOWN(E_OS_RESET_HARDRESET)
  40:E:/NeuOrga/Programmieren/c_cpp/github_os/input/src/os_base\os_main.c **** 
  41:E:/NeuOrga/Programmieren/c_cpp/github_os/input/src/os_base\os_main.c **** OS_State: OS_SHUTDOWN (nur erlaubt im Supervisor Mode)
  42:E:/NeuOrga/Programmieren/c_cpp/github_os/input/src/os_base\os_main.c **** - Interrupts deaktivieren -> Done
  43:E:/NeuOrga/Programmieren/c_cpp/github_os/input/src/os_base\os_main.c **** - Tasks beenden (Timer Interrupts löschen) -> Done OS_SHUTDOWN(E_OS_RESET_HARDRESET
  44:E:/NeuOrga/Programmieren/c_cpp/github_os/input/src/os_base\os_main.c **** - FMON / Watchdog deinitialisieren -> NA
  45:E:/NeuOrga/Programmieren/c_cpp/github_os/input/src/os_base\os_main.c **** - MMU deaktivieren / deintialisieren -> NA
  46:E:/NeuOrga/Programmieren/c_cpp/github_os/input/src/os_base\os_main.c **** - HW Reset auslösen -> Done
  47:E:/NeuOrga/Programmieren/c_cpp/github_os/input/src/os_base\os_main.c **** 
  48:E:/NeuOrga/Programmieren/c_cpp/github_os/input/src/os_base\os_main.c **** */
  49:E:/NeuOrga/Programmieren/c_cpp/github_os/input/src/os_base\os_main.c **** 
  50:E:/NeuOrga/Programmieren/c_cpp/github_os/input/src/os_base\os_main.c **** LOCAL void os_determine_next_task_activation(void)
  51:E:/NeuOrga/Programmieren/c_cpp/github_os/input/src/os_base\os_main.c **** {
GAS LISTING C:\Users\PRESID~1\AppData\Local\Temp\cccpOaUn.s 			page 2


   8              		.loc 1 51 0
   9              		.cfi_startproc
  10 0000 55       		pushl	%ebp
  11              		.cfi_def_cfa_offset 8
  12              		.cfi_offset 5, -8
  13 0001 89E5     		movl	%esp, %ebp
  14              		.cfi_def_cfa_register 5
  15 0003 83EC18   		subl	$24, %esp
  52:E:/NeuOrga/Programmieren/c_cpp/github_os/input/src/os_base\os_main.c ****    LOCAL uint32 call_nr = 0u;
  53:E:/NeuOrga/Programmieren/c_cpp/github_os/input/src/os_base\os_main.c ****    switch(call_nr)
  16              		.loc 1 53 0
  17 0006 A1000000 		movl	_call_nr.1442, %eax
  17      00
  18 000b 83F804   		cmpl	$4, %eax
  19 000e 777D     		ja	L11
  20 0010 8B048500 		movl	L4(,%eax,4), %eax
  20      000000
  21 0017 FFE0     		jmp	*%eax
  22              		.section .rdata,"dr"
  23              		.align 4
  24              	L4:
  25 0000 19000000 		.long	L3
  26 0004 32000000 		.long	L5
  27 0008 4B000000 		.long	L6
  28 000c 64000000 		.long	L7
  29 0010 71000000 		.long	L8
  30              		.text
  31              	L3:
  54:E:/NeuOrga/Programmieren/c_cpp/github_os/input/src/os_base\os_main.c ****    {
  55:E:/NeuOrga/Programmieren/c_cpp/github_os/input/src/os_base\os_main.c ****    case 0u:
  56:E:/NeuOrga/Programmieren/c_cpp/github_os/input/src/os_base\os_main.c ****       OS_ACTIVATE_TASK(&TASK_1_VAR);
  32              		.loc 1 56 0
  33 0019 C7042400 		movl	$_TASK_1_VAR, (%esp)
  33      000000
  34 0020 E8000000 		call	_OS_ACTIVATE_TASK
  34      00
  57:E:/NeuOrga/Programmieren/c_cpp/github_os/input/src/os_base\os_main.c ****       call_nr++;
  35              		.loc 1 57 0
  36 0025 A1000000 		movl	_call_nr.1442, %eax
  36      00
  37 002a 40       		incl	%eax
  38 002b A3000000 		movl	%eax, _call_nr.1442
  38      00
  58:E:/NeuOrga/Programmieren/c_cpp/github_os/input/src/os_base\os_main.c ****       break;
  39              		.loc 1 58 0
  40 0030 EB5C     		jmp	L1
  41              	L5:
  59:E:/NeuOrga/Programmieren/c_cpp/github_os/input/src/os_base\os_main.c ****    case 1u:
  60:E:/NeuOrga/Programmieren/c_cpp/github_os/input/src/os_base\os_main.c ****       OS_ACTIVATE_TASK(&TASK_2_VAR);
  42              		.loc 1 60 0
  43 0032 C7042400 		movl	$_TASK_2_VAR, (%esp)
  43      000000
  44 0039 E8000000 		call	_OS_ACTIVATE_TASK
  44      00
  61:E:/NeuOrga/Programmieren/c_cpp/github_os/input/src/os_base\os_main.c ****       call_nr++;
  45              		.loc 1 61 0
  46 003e A1000000 		movl	_call_nr.1442, %eax
GAS LISTING C:\Users\PRESID~1\AppData\Local\Temp\cccpOaUn.s 			page 3


  46      00
  47 0043 40       		incl	%eax
  48 0044 A3000000 		movl	%eax, _call_nr.1442
  48      00
  62:E:/NeuOrga/Programmieren/c_cpp/github_os/input/src/os_base\os_main.c ****       break;
  49              		.loc 1 62 0
  50 0049 EB43     		jmp	L1
  51              	L6:
  63:E:/NeuOrga/Programmieren/c_cpp/github_os/input/src/os_base\os_main.c ****    case 2u:
  64:E:/NeuOrga/Programmieren/c_cpp/github_os/input/src/os_base\os_main.c ****       OS_ACTIVATE_TASK(&TASK_3_VAR);
  52              		.loc 1 64 0
  53 004b C7042400 		movl	$_TASK_3_VAR, (%esp)
  53      000000
  54 0052 E8000000 		call	_OS_ACTIVATE_TASK
  54      00
  65:E:/NeuOrga/Programmieren/c_cpp/github_os/input/src/os_base\os_main.c ****       call_nr++;
  55              		.loc 1 65 0
  56 0057 A1000000 		movl	_call_nr.1442, %eax
  56      00
  57 005c 40       		incl	%eax
  58 005d A3000000 		movl	%eax, _call_nr.1442
  58      00
  66:E:/NeuOrga/Programmieren/c_cpp/github_os/input/src/os_base\os_main.c ****       break;
  59              		.loc 1 66 0
  60 0062 EB2A     		jmp	L1
  61              	L7:
  67:E:/NeuOrga/Programmieren/c_cpp/github_os/input/src/os_base\os_main.c ****    case 3u:
  68:E:/NeuOrga/Programmieren/c_cpp/github_os/input/src/os_base\os_main.c ****       call_nr++;
  62              		.loc 1 68 0
  63 0064 A1000000 		movl	_call_nr.1442, %eax
  63      00
  64 0069 40       		incl	%eax
  65 006a A3000000 		movl	%eax, _call_nr.1442
  65      00
  69:E:/NeuOrga/Programmieren/c_cpp/github_os/input/src/os_base\os_main.c ****       break;
  66              		.loc 1 69 0
  67 006f EB1D     		jmp	L1
  68              	L8:
  70:E:/NeuOrga/Programmieren/c_cpp/github_os/input/src/os_base\os_main.c ****    case 4u:
  71:E:/NeuOrga/Programmieren/c_cpp/github_os/input/src/os_base\os_main.c ****       /* wait for all tasks finished, and the idle task to be executed once... */
  72:E:/NeuOrga/Programmieren/c_cpp/github_os/input/src/os_base\os_main.c ****       if(GET_RUNNING_TASK()->idle_task != False)
  69              		.loc 1 72 0
  70 0071 E8000000 		call	_GET_RUNNING_TASK
  70      00
  71 0076 8A00     		movb	(%eax), %al
  72 0078 83E004   		andl	$4, %eax
  73 007b 84C0     		testb	%al, %al
  74 007d 740C     		je	L10
  73:E:/NeuOrga/Programmieren/c_cpp/github_os/input/src/os_base\os_main.c ****       {
  74:E:/NeuOrga/Programmieren/c_cpp/github_os/input/src/os_base\os_main.c ****          call_nr = 0;
  75              		.loc 1 74 0
  76 007f C7050000 		movl	$0, _call_nr.1442
  76      00000000 
  76      0000
  75:E:/NeuOrga/Programmieren/c_cpp/github_os/input/src/os_base\os_main.c ****       }   
  76:E:/NeuOrga/Programmieren/c_cpp/github_os/input/src/os_base\os_main.c ****       break;
  77              		.loc 1 76 0
GAS LISTING C:\Users\PRESID~1\AppData\Local\Temp\cccpOaUn.s 			page 4


  78 0089 EB03     		jmp	L1
  79              	L10:
  80 008b EB01     		jmp	L1
  81              	L11:
  77:E:/NeuOrga/Programmieren/c_cpp/github_os/input/src/os_base\os_main.c ****    default:
  78:E:/NeuOrga/Programmieren/c_cpp/github_os/input/src/os_base\os_main.c ****       break;
  82              		.loc 1 78 0
  83 008d 90       		nop
  84              	L1:
  79:E:/NeuOrga/Programmieren/c_cpp/github_os/input/src/os_base\os_main.c **** 
  80:E:/NeuOrga/Programmieren/c_cpp/github_os/input/src/os_base\os_main.c ****    }
  81:E:/NeuOrga/Programmieren/c_cpp/github_os/input/src/os_base\os_main.c **** }
  85              		.loc 1 81 0
  86 008e C9       		leave
  87              		.cfi_restore 5
  88              		.cfi_def_cfa 4, 4
  89 008f C3       		ret
  90              		.cfi_endproc
  91              	LFE0:
  92              		.globl	_OS_STATE_HANDLER
  94              	_OS_STATE_HANDLER:
  95              	LFB1:
  82:E:/NeuOrga/Programmieren/c_cpp/github_os/input/src/os_base\os_main.c **** 
  83:E:/NeuOrga/Programmieren/c_cpp/github_os/input/src/os_base\os_main.c **** void OS_STATE_HANDLER(void)
  84:E:/NeuOrga/Programmieren/c_cpp/github_os/input/src/os_base\os_main.c **** {
  96              		.loc 1 84 0
  97              		.cfi_startproc
  98 0090 55       		pushl	%ebp
  99              		.cfi_def_cfa_offset 8
 100              		.cfi_offset 5, -8
 101 0091 89E5     		movl	%esp, %ebp
 102              		.cfi_def_cfa_register 5
 103 0093 83EC18   		subl	$24, %esp
  85:E:/NeuOrga/Programmieren/c_cpp/github_os/input/src/os_base\os_main.c ****    /* the following code runs in priviliged mode!! */
  86:E:/NeuOrga/Programmieren/c_cpp/github_os/input/src/os_base\os_main.c ****    LOCAL os_reset_type_t sys_req_reset_state = E_OS_RESET_POWERDOWN;
  87:E:/NeuOrga/Programmieren/c_cpp/github_os/input/src/os_base\os_main.c ****    LOCAL uint32 call_nr = 0u;
  88:E:/NeuOrga/Programmieren/c_cpp/github_os/input/src/os_base\os_main.c **** 
  89:E:/NeuOrga/Programmieren/c_cpp/github_os/input/src/os_base\os_main.c ****    switch(OS_STATE)
 104              		.loc 1 89 0
 105 0096 A1000000 		movl	_OS_STATE, %eax
 105      00
 106 009b 83F801   		cmpl	$1, %eax
 107 009e 745C     		je	L14
 108 00a0 83F801   		cmpl	$1, %eax
 109 00a3 720E     		jb	L15
 110 00a5 83F802   		cmpl	$2, %eax
 111 00a8 0F84A200 		je	L16
 111      0000
  90:E:/NeuOrga/Programmieren/c_cpp/github_os/input/src/os_base\os_main.c ****    {
  91:E:/NeuOrga/Programmieren/c_cpp/github_os/input/src/os_base\os_main.c ****    case OS_STATE_INIT:
  92:E:/NeuOrga/Programmieren/c_cpp/github_os/input/src/os_base\os_main.c ****    {
  93:E:/NeuOrga/Programmieren/c_cpp/github_os/input/src/os_base\os_main.c ****       /*init the MCU including MMU, RAM, Registers */
  94:E:/NeuOrga/Programmieren/c_cpp/github_os/input/src/os_base\os_main.c ****       OS_INIT_MC();
  95:E:/NeuOrga/Programmieren/c_cpp/github_os/input/src/os_base\os_main.c ****       /* start the task system */
  96:E:/NeuOrga/Programmieren/c_cpp/github_os/input/src/os_base\os_main.c ****       /* initialisation of SW, HW will be done in the tasks, after starting the task system.... */
  97:E:/NeuOrga/Programmieren/c_cpp/github_os/input/src/os_base\os_main.c ****       OS_INIT_HW();
  98:E:/NeuOrga/Programmieren/c_cpp/github_os/input/src/os_base\os_main.c ****       OS_INIT_SW();
GAS LISTING C:\Users\PRESID~1\AppData\Local\Temp\cccpOaUn.s 			page 5


  99:E:/NeuOrga/Programmieren/c_cpp/github_os/input/src/os_base\os_main.c **** 
 100:E:/NeuOrga/Programmieren/c_cpp/github_os/input/src/os_base\os_main.c ****       /* trigger dispatcher */
 101:E:/NeuOrga/Programmieren/c_cpp/github_os/input/src/os_base\os_main.c ****       /* activate the dispatcher, configure TCMP interrupts for tasks */
 102:E:/NeuOrga/Programmieren/c_cpp/github_os/input/src/os_base\os_main.c ****       /* activate & start the Idle task */
 103:E:/NeuOrga/Programmieren/c_cpp/github_os/input/src/os_base\os_main.c ****       OS_ACTIVATE_TASK(&TASK_0_VAR);
 104:E:/NeuOrga/Programmieren/c_cpp/github_os/input/src/os_base\os_main.c ****       OS_START_TASK(GET_IDLE_TASK(),0u);
 105:E:/NeuOrga/Programmieren/c_cpp/github_os/input/src/os_base\os_main.c ****       OS_ACTIVATE_DISPATCHER();
 106:E:/NeuOrga/Programmieren/c_cpp/github_os/input/src/os_base\os_main.c **** 
 107:E:/NeuOrga/Programmieren/c_cpp/github_os/input/src/os_base\os_main.c ****       OS_STATE = OS_STATE_RUNNING;
 108:E:/NeuOrga/Programmieren/c_cpp/github_os/input/src/os_base\os_main.c ****       /* activate the interrupts, tasks will be executed from now on ... */
 109:E:/NeuOrga/Programmieren/c_cpp/github_os/input/src/os_base\os_main.c ****       LLF_INT_ENABLE();
 110:E:/NeuOrga/Programmieren/c_cpp/github_os/input/src/os_base\os_main.c ****       break;
 111:E:/NeuOrga/Programmieren/c_cpp/github_os/input/src/os_base\os_main.c ****    }
 112:E:/NeuOrga/Programmieren/c_cpp/github_os/input/src/os_base\os_main.c ****    case OS_STATE_RUNNING:
 113:E:/NeuOrga/Programmieren/c_cpp/github_os/input/src/os_base\os_main.c ****    {
 114:E:/NeuOrga/Programmieren/c_cpp/github_os/input/src/os_base\os_main.c ****       /*
 115:E:/NeuOrga/Programmieren/c_cpp/github_os/input/src/os_base\os_main.c ****       os_determine_next_task_activation und OS_TASK_DISPATCHER müssen m.E. öfters laufen wie der Re
 116:E:/NeuOrga/Programmieren/c_cpp/github_os/input/src/os_base\os_main.c ****       - Der Dispatcher müsste per Interrupt die laufende Task unterbrechen um dann (nach PreemptTas
 117:E:/NeuOrga/Programmieren/c_cpp/github_os/input/src/os_base\os_main.c ****       - Der os_determine_next_task_activation müsste vor jedem Aufruf on OS_TASK_DISPATCHER laufen
 118:E:/NeuOrga/Programmieren/c_cpp/github_os/input/src/os_base\os_main.c ****       */
 119:E:/NeuOrga/Programmieren/c_cpp/github_os/input/src/os_base\os_main.c ****       if(call_nr % 5u == 0u)
 120:E:/NeuOrga/Programmieren/c_cpp/github_os/input/src/os_base\os_main.c ****       {
 121:E:/NeuOrga/Programmieren/c_cpp/github_os/input/src/os_base\os_main.c ****          os_determine_next_task_activation();
 122:E:/NeuOrga/Programmieren/c_cpp/github_os/input/src/os_base\os_main.c ****       }
 123:E:/NeuOrga/Programmieren/c_cpp/github_os/input/src/os_base\os_main.c ****       call_nr++;
 124:E:/NeuOrga/Programmieren/c_cpp/github_os/input/src/os_base\os_main.c ****       /* run the task function */
 125:E:/NeuOrga/Programmieren/c_cpp/github_os/input/src/os_base\os_main.c ****       OS_TASK_DISPATCHER();
 126:E:/NeuOrga/Programmieren/c_cpp/github_os/input/src/os_base\os_main.c ****       if(SYSTEM_STATE_ACCEPTED == OS_STATE_SHUTDOWN) /* check for shutdown/reset/exit conditions: c
 127:E:/NeuOrga/Programmieren/c_cpp/github_os/input/src/os_base\os_main.c ****       {
 128:E:/NeuOrga/Programmieren/c_cpp/github_os/input/src/os_base\os_main.c ****          OS_STATE = OS_STATE_SHUTDOWN;
 129:E:/NeuOrga/Programmieren/c_cpp/github_os/input/src/os_base\os_main.c ****          sys_req_reset_state = E_OS_RESET_HARDRESET;
 130:E:/NeuOrga/Programmieren/c_cpp/github_os/input/src/os_base\os_main.c ****       }
 131:E:/NeuOrga/Programmieren/c_cpp/github_os/input/src/os_base\os_main.c ****       break;
 132:E:/NeuOrga/Programmieren/c_cpp/github_os/input/src/os_base\os_main.c ****    }
 133:E:/NeuOrga/Programmieren/c_cpp/github_os/input/src/os_base\os_main.c ****    case OS_STATE_SHUTDOWN:
 134:E:/NeuOrga/Programmieren/c_cpp/github_os/input/src/os_base\os_main.c ****    {
 135:E:/NeuOrga/Programmieren/c_cpp/github_os/input/src/os_base\os_main.c ****       LLF_INT_DISABLE();
 136:E:/NeuOrga/Programmieren/c_cpp/github_os/input/src/os_base\os_main.c ****       switch(sys_req_reset_state)
 137:E:/NeuOrga/Programmieren/c_cpp/github_os/input/src/os_base\os_main.c ****       {
 138:E:/NeuOrga/Programmieren/c_cpp/github_os/input/src/os_base\os_main.c ****       case E_OS_RESET_POWERDOWN:
 139:E:/NeuOrga/Programmieren/c_cpp/github_os/input/src/os_base\os_main.c ****       {
 140:E:/NeuOrga/Programmieren/c_cpp/github_os/input/src/os_base\os_main.c ****          OS_SHUTDOWN(E_OS_RESET_POWERDOWN,0u);
 141:E:/NeuOrga/Programmieren/c_cpp/github_os/input/src/os_base\os_main.c ****          break;
 142:E:/NeuOrga/Programmieren/c_cpp/github_os/input/src/os_base\os_main.c ****       }
 143:E:/NeuOrga/Programmieren/c_cpp/github_os/input/src/os_base\os_main.c ****       case E_OS_RESET_HARDRESET:
 144:E:/NeuOrga/Programmieren/c_cpp/github_os/input/src/os_base\os_main.c ****       {
 145:E:/NeuOrga/Programmieren/c_cpp/github_os/input/src/os_base\os_main.c ****          OS_SHUTDOWN(E_OS_RESET_HARDRESET,0u);
 146:E:/NeuOrga/Programmieren/c_cpp/github_os/input/src/os_base\os_main.c ****          break;
 147:E:/NeuOrga/Programmieren/c_cpp/github_os/input/src/os_base\os_main.c ****       }
 148:E:/NeuOrga/Programmieren/c_cpp/github_os/input/src/os_base\os_main.c ****       case E_OS_RESET_EXIT:
 149:E:/NeuOrga/Programmieren/c_cpp/github_os/input/src/os_base\os_main.c ****       {
 150:E:/NeuOrga/Programmieren/c_cpp/github_os/input/src/os_base\os_main.c ****          OS_SHUTDOWN(E_OS_RESET_EXIT,0u);
 151:E:/NeuOrga/Programmieren/c_cpp/github_os/input/src/os_base\os_main.c ****          break;
 152:E:/NeuOrga/Programmieren/c_cpp/github_os/input/src/os_base\os_main.c ****       }
 153:E:/NeuOrga/Programmieren/c_cpp/github_os/input/src/os_base\os_main.c ****       default:
 154:E:/NeuOrga/Programmieren/c_cpp/github_os/input/src/os_base\os_main.c ****       {
 155:E:/NeuOrga/Programmieren/c_cpp/github_os/input/src/os_base\os_main.c ****          OS_SHUTDOWN(E_OS_RESET_HARDRESET,0u);
GAS LISTING C:\Users\PRESID~1\AppData\Local\Temp\cccpOaUn.s 			page 6


 156:E:/NeuOrga/Programmieren/c_cpp/github_os/input/src/os_base\os_main.c ****          OS_SET_SW_BUG(E_OS_BUG_RESET_EXIT_OR_SHUTDOWN_FAILED,E_FUNC_STATE_HANDLER);
 157:E:/NeuOrga/Programmieren/c_cpp/github_os/input/src/os_base\os_main.c ****          break;
 158:E:/NeuOrga/Programmieren/c_cpp/github_os/input/src/os_base\os_main.c ****       }
 159:E:/NeuOrga/Programmieren/c_cpp/github_os/input/src/os_base\os_main.c ****       }
 160:E:/NeuOrga/Programmieren/c_cpp/github_os/input/src/os_base\os_main.c ****       break;
 161:E:/NeuOrga/Programmieren/c_cpp/github_os/input/src/os_base\os_main.c ****    }
 162:E:/NeuOrga/Programmieren/c_cpp/github_os/input/src/os_base\os_main.c ****    default:
 163:E:/NeuOrga/Programmieren/c_cpp/github_os/input/src/os_base\os_main.c ****    {
 164:E:/NeuOrga/Programmieren/c_cpp/github_os/input/src/os_base\os_main.c ****       break;
 112              		.loc 1 164 0
 113 00ae E9240100 		jmp	L17
 113      00
 114              	L15:
  94:E:/NeuOrga/Programmieren/c_cpp/github_os/input/src/os_base\os_main.c ****       /* start the task system */
 115              		.loc 1 94 0
 116 00b3 E8000000 		call	_OS_INIT_MC
 116      00
  97:E:/NeuOrga/Programmieren/c_cpp/github_os/input/src/os_base\os_main.c ****       OS_INIT_SW();
 117              		.loc 1 97 0
 118 00b8 E8000000 		call	_OS_INIT_HW
 118      00
  98:E:/NeuOrga/Programmieren/c_cpp/github_os/input/src/os_base\os_main.c **** 
 119              		.loc 1 98 0
 120 00bd E8000000 		call	_OS_INIT_SW
 120      00
 103:E:/NeuOrga/Programmieren/c_cpp/github_os/input/src/os_base\os_main.c ****       OS_START_TASK(GET_IDLE_TASK(),0u);
 121              		.loc 1 103 0
 122 00c2 C7042400 		movl	$_TASK_0_VAR, (%esp)
 122      000000
 123 00c9 E8000000 		call	_OS_ACTIVATE_TASK
 123      00
 104:E:/NeuOrga/Programmieren/c_cpp/github_os/input/src/os_base\os_main.c ****       OS_ACTIVATE_DISPATCHER();
 124              		.loc 1 104 0
 125 00ce E8000000 		call	_GET_IDLE_TASK
 125      00
 126 00d3 C7442404 		movl	$0, 4(%esp)
 126      00000000 
 127 00db 890424   		movl	%eax, (%esp)
 128 00de E8000000 		call	_OS_START_TASK
 128      00
 105:E:/NeuOrga/Programmieren/c_cpp/github_os/input/src/os_base\os_main.c **** 
 129              		.loc 1 105 0
 130 00e3 E8000000 		call	_OS_ACTIVATE_DISPATCHER
 130      00
 107:E:/NeuOrga/Programmieren/c_cpp/github_os/input/src/os_base\os_main.c ****       /* activate the interrupts, tasks will be executed from now on ... */
 131              		.loc 1 107 0
 132 00e8 C7050000 		movl	$1, _OS_STATE
 132      00000100 
 132      0000
 109:E:/NeuOrga/Programmieren/c_cpp/github_os/input/src/os_base\os_main.c ****       break;
 133              		.loc 1 109 0
 134 00f2 E8000000 		call	_LLF_INT_ENABLE
 134      00
 110:E:/NeuOrga/Programmieren/c_cpp/github_os/input/src/os_base\os_main.c ****    }
 135              		.loc 1 110 0
 136 00f7 E9DB0000 		jmp	L17
 136      00
GAS LISTING C:\Users\PRESID~1\AppData\Local\Temp\cccpOaUn.s 			page 7


 137              	L14:
 119:E:/NeuOrga/Programmieren/c_cpp/github_os/input/src/os_base\os_main.c ****       {
 138              		.loc 1 119 0
 139 00fc A1040000 		movl	_call_nr.1454, %eax
 139      00
 140 0101 B9050000 		movl	$5, %ecx
 140      00
 141 0106 BA000000 		movl	$0, %edx
 141      00
 142 010b F7F1     		divl	%ecx
 143 010d 89D0     		movl	%edx, %eax
 144 010f 85C0     		testl	%eax, %eax
 145 0111 7505     		jne	L18
 121:E:/NeuOrga/Programmieren/c_cpp/github_os/input/src/os_base\os_main.c ****       }
 146              		.loc 1 121 0
 147 0113 E8E8FEFF 		call	_os_determine_next_task_activation
 147      FF
 148              	L18:
 123:E:/NeuOrga/Programmieren/c_cpp/github_os/input/src/os_base\os_main.c ****       /* run the task function */
 149              		.loc 1 123 0
 150 0118 A1040000 		movl	_call_nr.1454, %eax
 150      00
 151 011d 40       		incl	%eax
 152 011e A3040000 		movl	%eax, _call_nr.1454
 152      00
 125:E:/NeuOrga/Programmieren/c_cpp/github_os/input/src/os_base\os_main.c ****       if(SYSTEM_STATE_ACCEPTED == OS_STATE_SHUTDOWN) /* check for shutdown/reset/exit conditions: c
 153              		.loc 1 125 0
 154 0123 E8000000 		call	_OS_TASK_DISPATCHER
 154      00
 126:E:/NeuOrga/Programmieren/c_cpp/github_os/input/src/os_base\os_main.c ****       {
 155              		.loc 1 126 0
 156 0128 A1000000 		movl	_SYSTEM_STATE_ACCEPTED, %eax
 156      00
 157 012d 83F802   		cmpl	$2, %eax
 158 0130 7519     		jne	L19
 128:E:/NeuOrga/Programmieren/c_cpp/github_os/input/src/os_base\os_main.c ****          sys_req_reset_state = E_OS_RESET_HARDRESET;
 159              		.loc 1 128 0
 160 0132 C7050000 		movl	$2, _OS_STATE
 160      00000200 
 160      0000
 129:E:/NeuOrga/Programmieren/c_cpp/github_os/input/src/os_base\os_main.c ****       }
 161              		.loc 1 129 0
 162 013c C7050000 		movl	$0, _sys_req_reset_state.1453
 162      00000000 
 162      0000
 131:E:/NeuOrga/Programmieren/c_cpp/github_os/input/src/os_base\os_main.c ****    }
 163              		.loc 1 131 0
 164 0146 E98C0000 		jmp	L17
 164      00
 165              	L19:
 166 014b E9870000 		jmp	L17
 166      00
 167              	L16:
 135:E:/NeuOrga/Programmieren/c_cpp/github_os/input/src/os_base\os_main.c ****       switch(sys_req_reset_state)
 168              		.loc 1 135 0
 169 0150 E8000000 		call	_LLF_INT_DISABLE
 169      00
GAS LISTING C:\Users\PRESID~1\AppData\Local\Temp\cccpOaUn.s 			page 8


 136:E:/NeuOrga/Programmieren/c_cpp/github_os/input/src/os_base\os_main.c ****       {
 170              		.loc 1 136 0
 171 0155 A1000000 		movl	_sys_req_reset_state.1453, %eax
 171      00
 172 015a 83F801   		cmpl	$1, %eax
 173 015d 740C     		je	L21
 174 015f 83F801   		cmpl	$1, %eax
 175 0162 721D     		jb	L22
 176 0164 83F802   		cmpl	$2, %eax
 177 0167 742E     		je	L23
 178 0169 EB42     		jmp	L25
 179              	L21:
 140:E:/NeuOrga/Programmieren/c_cpp/github_os/input/src/os_base\os_main.c ****          break;
 180              		.loc 1 140 0
 181 016b C7442404 		movl	$0, 4(%esp)
 181      00000000 
 182 0173 C7042401 		movl	$1, (%esp)
 182      000000
 183 017a E8000000 		call	_OS_SHUTDOWN
 183      00
 141:E:/NeuOrga/Programmieren/c_cpp/github_os/input/src/os_base\os_main.c ****       }
 184              		.loc 1 141 0
 185 017f EB55     		jmp	L24
 186              	L22:
 145:E:/NeuOrga/Programmieren/c_cpp/github_os/input/src/os_base\os_main.c ****          break;
 187              		.loc 1 145 0
 188 0181 C7442404 		movl	$0, 4(%esp)
 188      00000000 
 189 0189 C7042400 		movl	$0, (%esp)
 189      000000
 190 0190 E8000000 		call	_OS_SHUTDOWN
 190      00
 146:E:/NeuOrga/Programmieren/c_cpp/github_os/input/src/os_base\os_main.c ****       }
 191              		.loc 1 146 0
 192 0195 EB3F     		jmp	L24
 193              	L23:
 150:E:/NeuOrga/Programmieren/c_cpp/github_os/input/src/os_base\os_main.c ****          break;
 194              		.loc 1 150 0
 195 0197 C7442404 		movl	$0, 4(%esp)
 195      00000000 
 196 019f C7042402 		movl	$2, (%esp)
 196      000000
 197 01a6 E8000000 		call	_OS_SHUTDOWN
 197      00
 151:E:/NeuOrga/Programmieren/c_cpp/github_os/input/src/os_base\os_main.c ****       }
 198              		.loc 1 151 0
 199 01ab EB29     		jmp	L24
 200              	L25:
 155:E:/NeuOrga/Programmieren/c_cpp/github_os/input/src/os_base\os_main.c ****          OS_SET_SW_BUG(E_OS_BUG_RESET_EXIT_OR_SHUTDOWN_FAILED,E_FUNC_STATE_HANDLER);
 201              		.loc 1 155 0
 202 01ad C7442404 		movl	$0, 4(%esp)
 202      00000000 
 203 01b5 C7042400 		movl	$0, (%esp)
 203      000000
 204 01bc E8000000 		call	_OS_SHUTDOWN
 204      00
 156:E:/NeuOrga/Programmieren/c_cpp/github_os/input/src/os_base\os_main.c ****          break;
GAS LISTING C:\Users\PRESID~1\AppData\Local\Temp\cccpOaUn.s 			page 9


 205              		.loc 1 156 0
 206 01c1 C7442404 		movl	$19, 4(%esp)
 206      13000000 
 207 01c9 C7042408 		movl	$8, (%esp)
 207      000000
 208 01d0 E8000000 		call	_OS_SET_SW_BUG
 208      00
 157:E:/NeuOrga/Programmieren/c_cpp/github_os/input/src/os_base\os_main.c ****       }
 209              		.loc 1 157 0
 210 01d5 90       		nop
 211              	L24:
 160:E:/NeuOrga/Programmieren/c_cpp/github_os/input/src/os_base\os_main.c ****    }
 212              		.loc 1 160 0
 213 01d6 90       		nop
 214              	L17:
 165:E:/NeuOrga/Programmieren/c_cpp/github_os/input/src/os_base\os_main.c ****    }
 166:E:/NeuOrga/Programmieren/c_cpp/github_os/input/src/os_base\os_main.c ****    }
 167:E:/NeuOrga/Programmieren/c_cpp/github_os/input/src/os_base\os_main.c ****    /*check the complete stack apart from the first 64 bytes to detect critical stack usage */
 168:E:/NeuOrga/Programmieren/c_cpp/github_os/input/src/os_base\os_main.c ****    OS_STACK_CHECK();
 215              		.loc 1 168 0
 216 01d7 E8000000 		call	_OS_STACK_CHECK
 216      00
 169:E:/NeuOrga/Programmieren/c_cpp/github_os/input/src/os_base\os_main.c **** #if(CFG_PROCESSOR != MCU_X86)
 170:E:/NeuOrga/Programmieren/c_cpp/github_os/input/src/os_base\os_main.c ****    /* wait until timer task, else the program would return to the next instruction after the reset 
 171:E:/NeuOrga/Programmieren/c_cpp/github_os/input/src/os_base\os_main.c ****    while(1u)
 172:E:/NeuOrga/Programmieren/c_cpp/github_os/input/src/os_base\os_main.c ****    {
 173:E:/NeuOrga/Programmieren/c_cpp/github_os/input/src/os_base\os_main.c ****    }
 174:E:/NeuOrga/Programmieren/c_cpp/github_os/input/src/os_base\os_main.c **** #endif
 175:E:/NeuOrga/Programmieren/c_cpp/github_os/input/src/os_base\os_main.c **** }
 217              		.loc 1 175 0
 218 01dc C9       		leave
 219              		.cfi_restore 5
 220              		.cfi_def_cfa 4, 4
 221 01dd C3       		ret
 222              		.cfi_endproc
 223              	LFE1:
 224              	.lcomm _call_nr.1442,4,4
 225              	.lcomm _call_nr.1454,4,4
 226              		.data
 227              		.align 4
 228              	_sys_req_reset_state.1453:
 229 0000 01000000 		.long	1
 230              		.text
 231              	Letext0:
 232              		.file 2 "E:/NeuOrga/Programmieren/c_cpp/github_os/input/src/os_base/../os_base/os_base_types.h"
 233              		.file 3 "E:/NeuOrga/Programmieren/c_cpp/github_os/input/src/os_base/../os_base/os_common.h"
 234              		.file 4 "E:/NeuOrga/Programmieren/c_cpp/github_os/input/src/os_base/../os_sim/lld_core.h"
 235              		.file 5 "E:/NeuOrga/Programmieren/c_cpp/github_os/input/src/os_base/../os_sim/../os_base/os_task_c
 236              		.file 6 "E:/NeuOrga/Programmieren/c_cpp/github_os/input/src/os_base/../os_base/os_main.h"
 237              		.file 7 "E:/NeuOrga/Programmieren/c_cpp/github_os/input/src/os_base/OS_shutdown.h"
 238              		.file 8 "E:/NeuOrga/Programmieren/c_cpp/github_os/input/src/os_base/../os_base/os_ram.h"