GAS LISTING C:\Users\PRESID~1\AppData\Local\Temp\cccpOaUn.s 			page 1


   1              		.file	"os_main.c"
   2              		.text
   3              	Ltext0:
   5              	_os_determine_next_task_activation:
   6              	LFB0:
   7              		.file 1 "E:/NeuOrga/Programmieren/c_cpp/github_os/input/src/os_base/os_main.c"
   1:E:/NeuOrga/Programmieren/c_cpp/github_os/input/src/os_base\os_main.c **** #include "os_firstinc.h"
   2:E:/NeuOrga/Programmieren/c_cpp/github_os/input/src/os_base\os_main.c **** #include "os_task_common.h"
   3:E:/NeuOrga/Programmieren/c_cpp/github_os/input/src/os_base\os_main.c **** #include "os_task_scheduler.h"
   4:E:/NeuOrga/Programmieren/c_cpp/github_os/input/src/os_base\os_main.c **** #include "OS_shutdown.h"
   5:E:/NeuOrga/Programmieren/c_cpp/github_os/input/src/os_base\os_main.c **** #include "os_start_init_mc.h"
   6:E:/NeuOrga/Programmieren/c_cpp/github_os/input/src/os_base\os_main.c **** #include "os_start_init_hw.h"
   7:E:/NeuOrga/Programmieren/c_cpp/github_os/input/src/os_base\os_main.c **** #include "os_start_init_sw.h"
   8:E:/NeuOrga/Programmieren/c_cpp/github_os/input/src/os_base\os_main.c **** #include "os_task_scheduler.h"
   9:E:/NeuOrga/Programmieren/c_cpp/github_os/input/src/os_base\os_main.c **** #include "os_task_queue.h"
  10:E:/NeuOrga/Programmieren/c_cpp/github_os/input/src/os_base\os_main.c **** #include "os_main.h"
  11:E:/NeuOrga/Programmieren/c_cpp/github_os/input/src/os_base\os_main.c **** 
  12:E:/NeuOrga/Programmieren/c_cpp/github_os/input/src/os_base\os_main.c **** /*
  13:E:/NeuOrga/Programmieren/c_cpp/github_os/input/src/os_base\os_main.c **** OS_State: OS_INIT (Start im Supervisor Mode)
  14:E:/NeuOrga/Programmieren/c_cpp/github_os/input/src/os_base\os_main.c **** - Exception Handler aufsetzen  -> Done
  15:E:/NeuOrga/Programmieren/c_cpp/github_os/input/src/os_base\os_main.c **** - HW Internal Peripherie, RAM, etc -> Done
  16:E:/NeuOrga/Programmieren/c_cpp/github_os/input/src/os_base\os_main.c **** - Tasks konfigurieren -> Done via OS_INIT_TASK_SYSTEM()
  17:E:/NeuOrga/Programmieren/c_cpp/github_os/input/src/os_base\os_main.c **** --> Stack -> assigned in function OS_INIT_TASKs / OS_INIT_TASK_SYSTEM -> Done
  18:E:/NeuOrga/Programmieren/c_cpp/github_os/input/src/os_base\os_main.c **** --> MMU_REGION ->NA
  19:E:/NeuOrga/Programmieren/c_cpp/github_os/input/src/os_base\os_main.c **** --> CoreId -> Done
  20:E:/NeuOrga/Programmieren/c_cpp/github_os/input/src/os_base\os_main.c **** --> Task-Function -> assigned in function OS_INIT_TASK / OS_INIT_TASK_SYSTEM -> Done
  21:E:/NeuOrga/Programmieren/c_cpp/github_os/input/src/os_base\os_main.c **** --> TaskPrio -> Done
  22:E:/NeuOrga/Programmieren/c_cpp/github_os/input/src/os_base\os_main.c **** --> MultipleActChk -> Done in OS_ACTIVATE_TASK()
  23:E:/NeuOrga/Programmieren/c_cpp/github_os/input/src/os_base\os_main.c **** --> Privilige Level (Handler mode (priviliged): System Mode, Abort, Undefined, FiQ, IRQ; Thread mod
  24:E:/NeuOrga/Programmieren/c_cpp/github_os/input/src/os_base\os_main.c **** - TCMP Interrupts für Tasks konfigurieren, Starten vom Dispatcher -> Done
  25:E:/NeuOrga/Programmieren/c_cpp/github_os/input/src/os_base\os_main.c **** - MMU konfigurieren -> NA
  26:E:/NeuOrga/Programmieren/c_cpp/github_os/input/src/os_base\os_main.c **** - TaskScheduler für Core 0...n starten (jeder Core hat eigenen Scheduler) -> Not needed for CortexM
  27:E:/NeuOrga/Programmieren/c_cpp/github_os/input/src/os_base\os_main.c **** - SW mit erhöhtem Rechtebedarf wird mittels Interrupt gestartet (Dispatcher, WD, FMON, Shutdown) ->
  28:E:/NeuOrga/Programmieren/c_cpp/github_os/input/src/os_base\os_main.c **** - FMON / Watchdog aktivieren -> NA
  29:E:/NeuOrga/Programmieren/c_cpp/github_os/input/src/os_base\os_main.c **** - Interrupts aktivieren -> Done
  30:E:/NeuOrga/Programmieren/c_cpp/github_os/input/src/os_base\os_main.c **** - Zu UserMode wechseln -> Done
  31:E:/NeuOrga/Programmieren/c_cpp/github_os/input/src/os_base\os_main.c **** 
  32:E:/NeuOrga/Programmieren/c_cpp/github_os/input/src/os_base\os_main.c **** OS_State: OS_Running (User Mode)
  33:E:/NeuOrga/Programmieren/c_cpp/github_os/input/src/os_base\os_main.c **** - Starten / Beenden der einzelnen Tasks auf den jeweiligen Cores(User/Supervisor Mode??) -> Done
  34:E:/NeuOrga/Programmieren/c_cpp/github_os/input/src/os_base\os_main.c **** - Timer Compare Interrupts -> not needed  -> Systick used instead
  35:E:/NeuOrga/Programmieren/c_cpp/github_os/input/src/os_base\os_main.c **** - Interrupt Prioritäten von Cat2.(SW) Interrupts und Cat1.(HW) Interrupts -> NA
  36:E:/NeuOrga/Programmieren/c_cpp/github_os/input/src/os_base\os_main.c **** 
  37:E:/NeuOrga/Programmieren/c_cpp/github_os/input/src/os_base\os_main.c **** (OS_State: OS_Exception (Supervisor Mode))
  38:E:/NeuOrga/Programmieren/c_cpp/github_os/input/src/os_base\os_main.c **** - Link-Register Adresse im Eeprom abspeichern, an der die Exceptioin erzeugt wurde -> NA (no EEPROM
  39:E:/NeuOrga/Programmieren/c_cpp/github_os/input/src/os_base\os_main.c **** - OS_SHUTDOWN mit Reset -> Done in handler functions via call of "OS_SHUTDOWN(E_OS_RESET_HARDRESET)
  40:E:/NeuOrga/Programmieren/c_cpp/github_os/input/src/os_base\os_main.c **** 
  41:E:/NeuOrga/Programmieren/c_cpp/github_os/input/src/os_base\os_main.c **** OS_State: OS_SHUTDOWN (nur erlaubt im Supervisor Mode)
  42:E:/NeuOrga/Programmieren/c_cpp/github_os/input/src/os_base\os_main.c **** - Interrupts deaktivieren -> Done
  43:E:/NeuOrga/Programmieren/c_cpp/github_os/input/src/os_base\os_main.c **** - Tasks beenden (Timer Interrupts löschen) -> Done OS_SHUTDOWN(E_OS_RESET_HARDRESET
  44:E:/NeuOrga/Programmieren/c_cpp/github_os/input/src/os_base\os_main.c **** - FMON / Watchdog deinitialisieren -> NA
  45:E:/NeuOrga/Programmieren/c_cpp/github_os/input/src/os_base\os_main.c **** - MMU deaktivieren / deintialisieren -> NA
  46:E:/NeuOrga/Programmieren/c_cpp/github_os/input/src/os_base\os_main.c **** - HW Reset auslösen -> Done
  47:E:/NeuOrga/Programmieren/c_cpp/github_os/input/src/os_base\os_main.c **** 
  48:E:/NeuOrga/Programmieren/c_cpp/github_os/input/src/os_base\os_main.c **** */
  49:E:/NeuOrga/Programmieren/c_cpp/github_os/input/src/os_base\os_main.c **** 
  50:E:/NeuOrga/Programmieren/c_cpp/github_os/input/src/os_base\os_main.c **** LOCAL void os_determine_next_task_activation(void)
  51:E:/NeuOrga/Programmieren/c_cpp/github_os/input/src/os_base\os_main.c **** {
GAS LISTING C:\Users\PRESID~1\AppData\Local\Temp\cccpOaUn.s 			page 2


   8              		.loc 1 51 0
   9              		.cfi_startproc
  10 0000 55       		pushl	%ebp
  11              		.cfi_def_cfa_offset 8
  12              		.cfi_offset 5, -8
  13 0001 89E5     		movl	%esp, %ebp
  14              		.cfi_def_cfa_register 5
  15 0003 83EC18   		subl	$24, %esp
  52:E:/NeuOrga/Programmieren/c_cpp/github_os/input/src/os_base\os_main.c ****    LOCAL uint32 call_nr = 0u;
  53:E:/NeuOrga/Programmieren/c_cpp/github_os/input/src/os_base\os_main.c ****    switch(call_nr)
  16              		.loc 1 53 0
  17 0006 A1000000 		movl	_call_nr.1442, %eax
  17      00
  18 000b 83F804   		cmpl	$4, %eax
  19 000e 777D     		ja	L11
  20 0010 8B048500 		movl	L4(,%eax,4), %eax
  20      000000
  21 0017 FFE0     		jmp	*%eax
  22              		.section .rdata,"dr"
  23              		.align 4
  24              	L4:
  25 0000 19000000 		.long	L3
  26 0004 32000000 		.long	L5
  27 0008 4B000000 		.long	L6
  28 000c 64000000 		.long	L7
  29 0010 71000000 		.long	L8
  30              		.text
  31              	L3:
  54:E:/NeuOrga/Programmieren/c_cpp/github_os/input/src/os_base\os_main.c ****    {
  55:E:/NeuOrga/Programmieren/c_cpp/github_os/input/src/os_base\os_main.c ****    case 0u:
  56:E:/NeuOrga/Programmieren/c_cpp/github_os/input/src/os_base\os_main.c ****       OS_ACTIVATE_TASK(&TASK_1_VAR);
  32              		.loc 1 56 0
  33 0019 C7042400 		movl	$_TASK_1_VAR, (%esp)
  33      000000
  34 0020 E8000000 		call	_OS_ACTIVATE_TASK
  34      00
  57:E:/NeuOrga/Programmieren/c_cpp/github_os/input/src/os_base\os_main.c ****       call_nr++;
  35              		.loc 1 57 0
  36 0025 A1000000 		movl	_call_nr.1442, %eax
  36      00
  37 002a 40       		incl	%eax
  38 002b A3000000 		movl	%eax, _call_nr.1442
  38      00
  58:E:/NeuOrga/Programmieren/c_cpp/github_os/input/src/os_base\os_main.c ****       break;
  39              		.loc 1 58 0
  40 0030 EB5C     		jmp	L1
  41              	L5:
  59:E:/NeuOrga/Programmieren/c_cpp/github_os/input/src/os_base\os_main.c ****    case 1u:
  60:E:/NeuOrga/Programmieren/c_cpp/github_os/input/src/os_base\os_main.c ****       OS_ACTIVATE_TASK(&TASK_2_VAR);
  42              		.loc 1 60 0
  43 0032 C7042400 		movl	$_TASK_2_VAR, (%esp)
  43      000000
  44 0039 E8000000 		call	_OS_ACTIVATE_TASK
  44      00
  61:E:/NeuOrga/Programmieren/c_cpp/github_os/input/src/os_base\os_main.c ****       call_nr++;
  45              		.loc 1 61 0
  46 003e A1000000 		movl	_call_nr.1442, %eax
GAS LISTING C:\Users\PRESID~1\AppData\Local\Temp\cccpOaUn.s 			page 3


  46      00
  47 0043 40       		incl	%eax
  48 0044 A3000000 		movl	%eax, _call_nr.1442
  48      00
  62:E:/NeuOrga/Programmieren/c_cpp/github_os/input/src/os_base\os_main.c ****       break;
  49              		.loc 1 62 0
  50 0049 EB43     		jmp	L1
  51              	L6:
  63:E:/NeuOrga/Programmieren/c_cpp/github_os/input/src/os_base\os_main.c ****    case 2u:
  64:E:/NeuOrga/Programmieren/c_cpp/github_os/input/src/os_base\os_main.c ****       OS_ACTIVATE_TASK(&TASK_3_VAR);
  52              		.loc 1 64 0
  53 004b C7042400 		movl	$_TASK_3_VAR, (%esp)
  53      000000
  54 0052 E8000000 		call	_OS_ACTIVATE_TASK
  54      00
  65:E:/NeuOrga/Programmieren/c_cpp/github_os/input/src/os_base\os_main.c ****       call_nr++;
  55              		.loc 1 65 0
  56 0057 A1000000 		movl	_call_nr.1442, %eax
  56      00
  57 005c 40       		incl	%eax
  58 005d A3000000 		movl	%eax, _call_nr.1442
  58      00
  66:E:/NeuOrga/Programmieren/c_cpp/github_os/input/src/os_base\os_main.c ****       break;
  59              		.loc 1 66 0
  60 0062 EB2A     		jmp	L1
  61              	L7:
  67:E:/NeuOrga/Programmieren/c_cpp/github_os/input/src/os_base\os_main.c ****    case 3u:
  68:E:/NeuOrga/Programmieren/c_cpp/github_os/input/src/os_base\os_main.c ****       call_nr++;
  62              		.loc 1 68 0
  63 0064 A1000000 		movl	_call_nr.1442, %eax
  63      00
  64 0069 40       		incl	%eax
  65 006a A3000000 		movl	%eax, _call_nr.1442
  65      00
  69:E:/NeuOrga/Programmieren/c_cpp/github_os/input/src/os_base\os_main.c ****       break;
  66              		.loc 1 69 0
  67 006f EB1D     		jmp	L1
  68              	L8:
  70:E:/NeuOrga/Programmieren/c_cpp/github_os/input/src/os_base\os_main.c ****    case 4u:
  71:E:/NeuOrga/Programmieren/c_cpp/github_os/input/src/os_base\os_main.c ****       /* wait for all tasks finished, and the idle task to be executed once... */
  72:E:/NeuOrga/Programmieren/c_cpp/github_os/input/src/os_base\os_main.c ****       if(GET_RUNNING_TASK()->idle_task != False)
  69              		.loc 1 72 0
  70 0071 E8000000 		call	_GET_RUNNING_TASK
  70      00
  71 0076 8A00     		movb	(%eax), %al
  72 0078 83E004   		andl	$4, %eax
  73 007b 84C0     		testb	%al, %al
  74 007d 740C     		je	L10
  73:E:/NeuOrga/Programmieren/c_cpp/github_os/input/src/os_base\os_main.c ****       {
  74:E:/NeuOrga/Programmieren/c_cpp/github_os/input/src/os_base\os_main.c ****          call_nr = 0;
  75              		.loc 1 74 0
  76 007f C7050000 		movl	$0, _call_nr.1442
  76      00000000 
  76      0000
  75:E:/NeuOrga/Programmieren/c_cpp/github_os/input/src/os_base\os_main.c ****       }   
  76:E:/NeuOrga/Programmieren/c_cpp/github_os/input/src/os_base\os_main.c ****       break;
  77              		.loc 1 76 0
GAS LISTING C:\Users\PRESID~1\AppData\Local\Temp\cccpOaUn.s 			page 4


  78 0089 EB03     		jmp	L1
  79              	L10:
  80 008b EB01     		jmp	L1
  81              	L11:
  77:E:/NeuOrga/Programmieren/c_cpp/github_os/input/src/os_base\os_main.c ****    default:
  78:E:/NeuOrga/Programmieren/c_cpp/github_os/input/src/os_base\os_main.c ****       break;
  82              		.loc 1 78 0
  83 008d 90       		nop
  84              	L1:
  79:E:/NeuOrga/Programmieren/c_cpp/github_os/input/src/os_base\os_main.c **** 
  80:E:/NeuOrga/Programmieren/c_cpp/github_os/input/src/os_base\os_main.c ****    }
  81:E:/NeuOrga/Programmieren/c_cpp/github_os/input/src/os_base\os_main.c **** }
  85              		.loc 1 81 0
  86 008e C9       		leave
  87              		.cfi_restore 5
  88              		.cfi_def_cfa 4, 4
  89 008f C3       		ret
  90              		.cfi_endproc
  91              	LFE0:
  92              		.globl	_OS_STATE_HANDLER
  94              	_OS_STATE_HANDLER:
  95              	LFB1:
  82:E:/NeuOrga/Programmieren/c_cpp/github_os/input/src/os_base\os_main.c **** 
  83:E:/NeuOrga/Programmieren/c_cpp/github_os/input/src/os_base\os_main.c **** void OS_STATE_HANDLER(void)
  84:E:/NeuOrga/Programmieren/c_cpp/github_os/input/src/os_base\os_main.c **** {
  96              		.loc 1 84 0
  97              		.cfi_startproc
  98 0090 55       		pushl	%ebp
  99              		.cfi_def_cfa_offset 8
 100              		.cfi_offset 5, -8
 101 0091 89E5     		movl	%esp, %ebp
 102              		.cfi_def_cfa_register 5
 103 0093 83EC18   		subl	$24, %esp
  85:E:/NeuOrga/Programmieren/c_cpp/github_os/input/src/os_base\os_main.c ****    /* the following code runs in priviliged mode!! */
  86:E:/NeuOrga/Programmieren/c_cpp/github_os/input/src/os_base\os_main.c ****    LOCAL os_reset_type_t sys_req_reset_state = E_OS_RESET_POWERDOWN;
  87:E:/NeuOrga/Programmieren/c_cpp/github_os/input/src/os_base\os_main.c ****    LOCAL uint32 call_nr = 0u;
  88:E:/NeuOrga/Programmieren/c_cpp/github_os/input/src/os_base\os_main.c **** 
  89:E:/NeuOrga/Programmieren/c_cpp/github_os/input/src/os_base\os_main.c ****    switch(OS_STATE)
 104              		.loc 1 89 0
 105 0096 A1000000 		movl	_OS_STATE, %eax
 105      00
 106 009b 83F801   		cmpl	$1, %eax
 107 009e 745C     		je	L14
 108 00a0 83F801   		cmpl	$1, %eax
 109 00a3 720E     		jb	L15
 110 00a5 83F802   		cmpl	$2, %eax
 111 00a8 0F84A200 		je	L16
 111      0000
  90:E:/NeuOrga/Programmieren/c_cpp/github_os/input/src/os_base\os_main.c ****    {
  91:E:/NeuOrga/Programmieren/c_cpp/github_os/input/src/os_base\os_main.c ****    case OS_STATE_INIT:
  92:E:/NeuOrga/Programmieren/c_cpp/github_os/input/src/os_base\os_main.c ****    {
  93:E:/NeuOrga/Programmieren/c_cpp/github_os/input/src/os_base\os_main.c ****       /*init the MCU including MMU, RAM, Registers */
  94:E:/NeuOrga/Programmieren/c_cpp/github_os/input/src/os_base\os_main.c ****       OS_INIT_MC();
  95:E:/NeuOrga/Programmieren/c_cpp/github_os/input/src/os_base\os_main.c ****       /* start the task system */
  96:E:/NeuOrga/Programmieren/c_cpp/github_os/input/src/os_base\os_main.c ****       /* initialisation of SW, HW will be done in the tasks, after starting the task system.... */
  97:E:/NeuOrga/Programmieren/c_cpp/github_os/input/src/os_base\os_main.c ****       OS_INIT_HW();
  98:E:/NeuOrga/Programmieren/c_cpp/github_os/input/src/os_base\os_main.c ****       OS_INIT_SW();
GAS LISTING C:\Users\PRESID~1\AppData\Local\Temp\cccpOaUn.s 			page 5


  99:E:/NeuOrga/Programmieren/c_cpp/github_os/input/src/os_base\os_main.c **** 
 100:E:/NeuOrga/Programmieren/c_cpp/github_os/input/src/os_base\os_main.c ****       /* trigger dispatcher */
 101:E:/NeuOrga/Programmieren/c_cpp/github_os/input/src/os_base\os_main.c ****       /* activate the dispatcher, configure TCMP interrupts for tasks */
 102:E:/NeuOrga/Programmieren/c_cpp/github_os/input/src/os_base\os_main.c ****       /* activate & start the Idle task */
 103:E:/NeuOrga/Programmieren/c_cpp/github_os/input/src/os_base\os_main.c ****       OS_ACTIVATE_TASK(&TASK_0_VAR);
 104:E:/NeuOrga/Programmieren/c_cpp/github_os/input/src/os_base\os_main.c ****       OS_START_TASK(GET_IDLE_TASK(),0u);
 105:E:/NeuOrga/Programmieren/c_cpp/github_os/input/src/os_base\os_main.c ****       OS_ACTIVATE_DISPATCHER();
 106:E:/NeuOrga/Programmieren/c_cpp/github_os/input/src/os_base\os_main.c **** 
 107:E:/NeuOrga/Programmieren/c_cpp/github_os/input/src/os_base\os_main.c ****       OS_STATE = OS_STATE_RUNNING;
 108:E:/NeuOrga/Programmieren/c_cpp/github_os/input/src/os_base\os_main.c ****       /* activate the interrupts, tasks will be executed from now on ... */
 109:E:/NeuOrga/Programmieren/c_cpp/github_os/input/src/os_base\os_main.c ****       LLF_INT_ENABLE();
 110:E:/NeuOrga/Programmieren/c_cpp/github_os/input/src/os_base\os_main.c ****       break;
 111:E:/NeuOrga/Programmieren/c_cpp/github_os/input/src/os_base\os_main.c ****    }
 112:E:/NeuOrga/Programmieren/c_cpp/github_os/input/src/os_base\os_main.c ****    case OS_STATE_RUNNING:
 113:E:/NeuOrga/Programmieren/c_cpp/github_os/input/src/os_base\os_main.c ****    {
 114:E:/NeuOrga/Programmieren/c_cpp/github_os/input/src/os_base\os_main.c ****       /*
 115:E:/NeuOrga/Programmieren/c_cpp/github_os/input/src/os_base\os_main.c ****       os_determine_next_task_activation und OS_TASK_DISPATCHER müssen m.E. öfters laufen wie der Re
 116:E:/NeuOrga/Programmieren/c_cpp/github_os/input/src/os_base\os_main.c ****       - Der Dispatcher müsste per Interrupt die laufende Task unterbrechen um dann (nach PreemptTas
 117:E:/NeuOrga/Programmieren/c_cpp/github_os/input/src/os_base\os_main.c ****       - Der os_determine_next_task_activation müsste vor jedem Aufruf on OS_TASK_DISPATCHER laufen
 118:E:/NeuOrga/Programmieren/c_cpp/github_os/input/src/os_base\os_main.c ****       */
 119:E:/NeuOrga/Programmieren/c_cpp/github_os/input/src/os_base\os_main.c ****       if(call_nr % 5u == 0u)
 120:E:/NeuOrga/Programmieren/c_cpp/github_os/input/src/os_base\os_main.c ****       {
 121:E:/NeuOrga/Programmieren/c_cpp/github_os/input/src/os_base\os_main.c ****          os_determine_next_task_activation();
 122:E:/NeuOrga/Programmieren/c_cpp/github_os/input/src/os_base\os_main.c ****       }
 123:E:/NeuOrga/Programmieren/c_cpp/github_os/input/src/os_base\os_main.c ****       call_nr++;
 124:E:/NeuOrga/Programmieren/c_cpp/github_os/input/src/os_base\os_main.c ****       /* run the task function */
 125:E:/NeuOrga/Programmieren/c_cpp/github_os/input/src/os_base\os_main.c ****       OS_TASK_DISPATCHER();
 126:E:/NeuOrga/Programmieren/c_cpp/github_os/input/src/os_base\os_main.c ****       if(SYSTEM_STATE_ACCEPTED == OS_STATE_SHUTDOWN) /* check for shutdown/reset/exit conditions: c
 127:E:/NeuOrga/Programmieren/c_cpp/github_os/input/src/os_base\os_main.c ****       {
 128:E:/NeuOrga/Programmieren/c_cpp/github_os/input/src/os_base\os_main.c ****          OS_STATE = OS_STATE_SHUTDOWN;
 129:E:/NeuOrga/Programmieren/c_cpp/github_os/input/src/os_base\os_main.c ****          sys_req_reset_state = E_OS_RESET_HARDRESET;
 130:E:/NeuOrga/Programmieren/c_cpp/github_os/input/src/os_base\os_main.c ****       }
 131:E:/NeuOrga/Programmieren/c_cpp/github_os/input/src/os_base\os_main.c ****       break;
 132:E:/NeuOrga/Programmieren/c_cpp/github_os/input/src/os_base\os_main.c ****    }
 133:E:/NeuOrga/Programmieren/c_cpp/github_os/input/src/os_base\os_main.c ****    case OS_STATE_SHUTDOWN:
 134:E:/NeuOrga/Programmieren/c_cpp/github_os/input/src/os_base\os_main.c ****    {
 135:E:/NeuOrga/Programmieren/c_cpp/github_os/input/src/os_base\os_main.c ****       LLF_INT_DISABLE();
 136:E:/NeuOrga/Programmieren/c_cpp/github_os/input/src/os_base\os_main.c ****       switch(sys_req_reset_state)
 137:E:/NeuOrga/Programmieren/c_cpp/github_os/input/src/os_base\os_main.c ****       {
 138:E:/NeuOrga/Programmieren/c_cpp/github_os/input/src/os_base\os_main.c ****       case E_OS_RESET_POWERDOWN:
 139:E:/NeuOrga/Programmieren/c_cpp/github_os/input/src/os_base\os_main.c ****       {
 140:E:/NeuOrga/Programmieren/c_cpp/github_os/input/src/os_base\os_main.c ****          OS_SHUTDOWN(E_OS_RESET_POWERDOWN,0u);
 141:E:/NeuOrga/Programmieren/c_cpp/github_os/input/src/os_base\os_main.c ****          break;
 142:E:/NeuOrga/Programmieren/c_cpp/github_os/input/src/os_base\os_main.c ****       }
 143:E:/NeuOrga/Programmieren/c_cpp/github_os/input/src/os_base\os_main.c ****       case E_OS_RESET_HARDRESET:
 144:E:/NeuOrga/Programmieren/c_cpp/github_os/input/src/os_base\os_main.c ****       {
 145:E:/NeuOrga/Programmieren/c_cpp/github_os/input/src/os_base\os_main.c ****          OS_SHUTDOWN(E_OS_RESET_HARDRESET,0u);
 146:E:/NeuOrga/Programmieren/c_cpp/github_os/input/src/os_base\os_main.c ****          break;
 147:E:/NeuOrga/Programmieren/c_cpp/github_os/input/src/os_base\os_main.c ****       }
 148:E:/NeuOrga/Programmieren/c_cpp/github_os/input/src/os_base\os_main.c ****       case E_OS_RESET_EXIT:
 149:E:/NeuOrga/Programmieren/c_cpp/github_os/input/src/os_base\os_main.c ****       {
 150:E:/NeuOrga/Programmieren/c_cpp/github_os/input/src/os_base\os_main.c ****          OS_SHUTDOWN(E_OS_RESET_EXIT,0u);
 151:E:/NeuOrga/Programmieren/c_cpp/github_os/input/src/os_base\os_main.c ****          break;
 152:E:/NeuOrga/Programmieren/c_cpp/github_os/input/src/os_base\os_main.c ****       }
 153:E:/NeuOrga/Programmieren/c_cpp/github_os/input/src/os_base\os_main.c ****       default:
 154:E:/NeuOrga/Programmieren/c_cpp/github_os/input/src/os_base\os_main.c ****       {
 155:E:/NeuOrga/Programmieren/c_cpp/github_os/input/src/os_base\os_main.c ****          OS_SHUTDOWN(E_OS_RESET_HARDRESET,0u);
GAS LISTING C:\Users\PRESID~1\AppData\Local\Temp\cccpOaUn.s 			page 6


 156:E:/NeuOrga/Programmieren/c_cpp/github_os/input/src/os_base\os_main.c ****          OS_SET_SW_BUG(E_OS_BUG_RESET_EXIT_OR_SHUTDOWN_FAILED,E_FUNC_STATE_HANDLER);
 157:E:/NeuOrga/Programmieren/c_cpp/github_os/input/src/os_base\os_main.c ****          break;
 158:E:/NeuOrga/Programmieren/c_cpp/github_os/input/src/os_base\os_main.c ****       }
 159:E:/NeuOrga/Programmieren/c_cpp/github_os/input/src/os_base\os_main.c ****       }
 160:E:/NeuOrga/Programmieren/c_cpp/github_os/input/src/os_base\os_main.c ****       break;
 161:E:/NeuOrga/Programmieren/c_cpp/github_os/input/src/os_base\os_main.c ****    }
 162:E:/NeuOrga/Programmieren/c_cpp/github_os/input/src/os_base\os_main.c ****    default:
 163:E:/NeuOrga/Programmieren/c_cpp/github_os/input/src/os_base\os_main.c ****    {
 164:E:/NeuOrga/Programmieren/c_cpp/github_os/input/src/os_base\os_main.c ****       break;
 112              		.loc 1 164 0
 113 00ae E9240100 		jmp	L17
 113      00
 114              	L15:
  94:E:/NeuOrga/Programmieren/c_cpp/github_os/input/src/os_base\os_main.c ****       /* start the task system */
 115              		.loc 1 94 0
 116 00b3 E8000000 		call	_OS_INIT_MC
 116      00
  97:E:/NeuOrga/Programmieren/c_cpp/github_os/input/src/os_base\os_main.c ****       OS_INIT_SW();
 117              		.loc 1 97 0
 118 00b8 E8000000 		call	_OS_INIT_HW
 118      00
  98:E:/NeuOrga/Programmieren/c_cpp/github_os/input/src/os_base\os_main.c **** 
 119              		.loc 1 98 0
 120 00bd E8000000 		call	_OS_INIT_SW
 120      00
 103:E:/NeuOrga/Programmieren/c_cpp/github_os/input/src/os_base\os_main.c ****       OS_START_TASK(GET_IDLE_TASK(),0u);
 121              		.loc 1 103 0
 122 00c2 C7042400 		movl	$_TASK_0_VAR, (%esp)
 122      000000
 123 00c9 E8000000 		call	_OS_ACTIVATE_TASK
 123      00
 104:E:/NeuOrga/Programmieren/c_cpp/github_os/input/src/os_base\os_main.c ****       OS_ACTIVATE_DISPATCHER();
 124              		.loc 1 104 0
 125 00ce E8000000 		call	_GET_IDLE_TASK
 125      00
 126 00d3 C7442404 		movl	$0, 4(%esp)
 126      00000000 
 127 00db 890424   		movl	%eax, (%esp)
 128 00de E8000000 		call	_OS_START_TASK
 128      00
 105:E:/NeuOrga/Programmieren/c_cpp/github_os/input/src/os_base\os_main.c **** 
 129              		.loc 1 105 0
 130 00e3 E8000000 		call	_OS_ACTIVATE_DISPATCHER
 130      00
 107:E:/NeuOrga/Programmieren/c_cpp/github_os/input/src/os_base\os_main.c ****       /* activate the interrupts, tasks will be executed from now on ... */
 131              		.loc 1 107 0
 132 00e8 C7050000 		movl	$1, _OS_STATE
 132      00000100 
 132      0000
 109:E:/NeuOrga/Programmieren/c_cpp/github_os/input/src/os_base\os_main.c ****       break;
 133              		.loc 1 109 0
 134 00f2 E8000000 		call	_LLF_INT_ENABLE
 134      00
 110:E:/NeuOrga/Programmieren/c_cpp/github_os/input/src/os_base\os_main.c ****    }
 135              		.loc 1 110 0
 136 00f7 E9DB0000 		jmp	L17
 136      00
GAS LISTING C:\Users\PRESID~1\AppData\Local\Temp\cccpOaUn.s 			page 7


 137              	L14:
 119:E:/NeuOrga/Programmieren/c_cpp/github_os/input/src/os_base\os_main.c ****       {
 138              		.loc 1 119 0
 139 00fc A1040000 		movl	_call_nr.1454, %eax
 139      00
 140 0101 B9050000 		movl	$5, %ecx
 140      00
 141 0106 BA000000 		movl	$0, %edx
 141      00
 142 010b F7F1     		divl	%ecx
 143 010d 89D0     		movl	%edx, %eax
 144 010f 85C0     		testl	%eax, %eax
 145 0111 7505     		jne	L18
 121:E:/NeuOrga/Programmieren/c_cpp/github_os/input/src/os_base\os_main.c ****       }
 146              		.loc 1 121 0
 147 0113 E8E8FEFF 		call	_os_determine_next_task_activation
 147      FF
 148              	L18:
 123:E:/NeuOrga/Programmieren/c_cpp/github_os/input/src/os_base\os_main.c ****       /* run the task function */
 149              		.loc 1 123 0
 150 0118 A1040000 		movl	_call_nr.1454, %eax
 150      00
 151 011d 40       		incl	%eax
 152 011e A3040000 		movl	%eax, _call_nr.1454
 152      00
 125:E:/NeuOrga/Programmieren/c_cpp/github_os/input/src/os_base\os_main.c ****       if(SYSTEM_STATE_ACCEPTED == OS_STATE_SHUTDOWN) /* check for shutdown/reset/exit conditions: c
 153              		.loc 1 125 0
 154 0123 E8000000 		call	_OS_TASK_DISPATCHER
 154      00
 126:E:/NeuOrga/Programmieren/c_cpp/github_os/input/src/os_base\os_main.c ****       {
 155              		.loc 1 126 0
 156 0128 A1000000 		movl	_SYSTEM_STATE_ACCEPTED, %eax
 156      00
 157 012d 83F802   		cmpl	$2, %eax
 158 0130 7519     		jne	L19
 128:E:/NeuOrga/Programmieren/c_cpp/github_os/input/src/os_base\os_main.c ****          sys_req_reset_state = E_OS_RESET_HARDRESET;
 159              		.loc 1 128 0
 160 0132 C7050000 		movl	$2, _OS_STATE
 160      00000200 
 160      0000
 129:E:/NeuOrga/Programmieren/c_cpp/github_os/input/src/os_base\os_main.c ****       }
 161              		.loc 1 129 0
 162 013c C7050000 		movl	$0, _sys_req_reset_state.1453
 162      00000000 
 162      0000
 131:E:/NeuOrga/Programmieren/c_cpp/github_os/input/src/os_base\os_main.c ****    }
 163              		.loc 1 131 0
 164 0146 E98C0000 		jmp	L17
 164      00
 165              	L19:
 166 014b E9870000 		jmp	L17
 166      00
 167              	L16:
 135:E:/NeuOrga/Programmieren/c_cpp/github_os/input/src/os_base\os_main.c ****       switch(sys_req_reset_state)
 168              		.loc 1 135 0
 169 0150 E8000000 		call	_LLF_INT_DISABLE
 169      00
GAS LISTING C:\Users\PRESID~1\AppData\Local\Temp\cccpOaUn.s 			page 8


 136:E:/NeuOrga/Programmieren/c_cpp/github_os/input/src/os_base\os_main.c ****       {
 170              		.loc 1 136 0
 171 0155 A1000000 		movl	_sys_req_reset_state.1453, %eax
 171      00
 172 015a 83F801   		cmpl	$1, %eax
 173 015d 740C     		je	L21
 174 015f 83F801   		cmpl	$1, %eax
 175 0162 721D     		jb	L22
 176 0164 83F802   		cmpl	$2, %eax
 177 0167 742E     		je	L23
 178 0169 EB42     		jmp	L25
 179              	L21:
 140:E:/NeuOrga/Programmieren/c_cpp/github_os/input/src/os_base\os_main.c ****          break;
 180              		.loc 1 140 0
 181 016b C7442404 		movl	$0, 4(%esp)
 181      00000000 
 182 0173 C7042401 		movl	$1, (%esp)
 182      000000
 183 017a E8000000 		call	_OS_SHUTDOWN
 183      00
 141:E:/NeuOrga/Programmieren/c_cpp/github_os/input/src/os_base\os_main.c ****       }
 184              		.loc 1 141 0
 185 017f EB55     		jmp	L24
 186              	L22:
 145:E:/NeuOrga/Programmieren/c_cpp/github_os/input/src/os_base\os_main.c ****          break;
 187              		.loc 1 145 0
 188 0181 C7442404 		movl	$0, 4(%esp)
 188      00000000 
 189 0189 C7042400 		movl	$0, (%esp)
 189      000000
 190 0190 E8000000 		call	_OS_SHUTDOWN
 190      00
 146:E:/NeuOrga/Programmieren/c_cpp/github_os/input/src/os_base\os_main.c ****       }
 191              		.loc 1 146 0
 192 0195 EB3F     		jmp	L24
 193              	L23:
 150:E:/NeuOrga/Programmieren/c_cpp/github_os/input/src/os_base\os_main.c ****          break;
 194              		.loc 1 150 0
 195 0197 C7442404 		movl	$0, 4(%esp)
 195      00000000 
 196 019f C7042402 		movl	$2, (%esp)
 196      000000
 197 01a6 E8000000 		call	_OS_SHUTDOWN
 197      00
 151:E:/NeuOrga/Programmieren/c_cpp/github_os/input/src/os_base\os_main.c ****       }
 198              		.loc 1 151 0
 199 01ab EB29     		jmp	L24
 200              	L25:
 155:E:/NeuOrga/Programmieren/c_cpp/github_os/input/src/os_base\os_main.c ****          OS_SET_SW_BUG(E_OS_BUG_RESET_EXIT_OR_SHUTDOWN_FAILED,E_FUNC_STATE_HANDLER);
 201              		.loc 1 155 0
 202 01ad C7442404 		movl	$0, 4(%esp)
 202      00000000 
 203 01b5 C7042400 		movl	$0, (%esp)
 203      000000
 204 01bc E8000000 		call	_OS_SHUTDOWN
 204      00
 156:E:/NeuOrga/Programmieren/c_cpp/github_os/input/src/os_base\os_main.c ****          break;
GAS LISTING C:\Users\PRESID~1\AppData\Local\Temp\cccpOaUn.s 			page 9


 205              		.loc 1 156 0
 206 01c1 C7442404 		movl	$19, 4(%esp)
 206      13000000 
 207 01c9 C7042408 		movl	$8, (%esp)
 207      000000
 208 01d0 E8000000 		call	_OS_SET_SW_BUG
 208      00
 157:E:/NeuOrga/Programmieren/c_cpp/github_os/input/src/os_base\os_main.c ****       }
 209              		.loc 1 157 0
 210 01d5 90       		nop
 211              	L24:
 160:E:/NeuOrga/Programmieren/c_cpp/github_os/input/src/os_base\os_main.c ****    }
 212              		.loc 1 160 0
 213 01d6 90       		nop
 214              	L17:
 165:E:/NeuOrga/Programmieren/c_cpp/github_os/input/src/os_base\os_main.c ****    }
 166:E:/NeuOrga/Programmieren/c_cpp/github_os/input/src/os_base\os_main.c ****    }
 167:E:/NeuOrga/Programmieren/c_cpp/github_os/input/src/os_base\os_main.c ****    /*check the complete stack apart from the first 64 bytes to detect critical stack usage */
 168:E:/NeuOrga/Programmieren/c_cpp/github_os/input/src/os_base\os_main.c ****    OS_STACK_CHECK();
 215              		.loc 1 168 0
 216 01d7 E8000000 		call	_OS_STACK_CHECK
 216      00
 169:E:/NeuOrga/Programmieren/c_cpp/github_os/input/src/os_base\os_main.c **** #if(CFG_PROCESSOR != MCU_X86)
 170:E:/NeuOrga/Programmieren/c_cpp/github_os/input/src/os_base\os_main.c ****    /* wait until timer task, else the program would return to the next instruction after the reset 
 171:E:/NeuOrga/Programmieren/c_cpp/github_os/input/src/os_base\os_main.c ****    while(1u)
 172:E:/NeuOrga/Programmieren/c_cpp/github_os/input/src/os_base\os_main.c ****    {
 173:E:/NeuOrga/Programmieren/c_cpp/github_os/input/src/os_base\os_main.c ****    }
 174:E:/NeuOrga/Programmieren/c_cpp/github_os/input/src/os_base\os_main.c **** #endif
 175:E:/NeuOrga/Programmieren/c_cpp/github_os/input/src/os_base\os_main.c **** }
 217              		.loc 1 175 0
 218 01dc C9       		leave
 219              		.cfi_restore 5
 220              		.cfi_def_cfa 4, 4
 221 01dd C3       		ret
 222              		.cfi_endproc
 223              	LFE1:
 224              	.lcomm _call_nr.1442,4,4
 225              	.lcomm _call_nr.1454,4,4
 226              		.data
 227              		.align 4
 228              	_sys_req_reset_state.1453:
 229 0000 01000000 		.long	1
 230              		.text
 231              	Letext0:
 232              		.file 2 "E:/NeuOrga/Programmieren/c_cpp/github_os/input/src/os_base/../os_base/os_base_types.h"
 233              		.file 3 "E:/NeuOrga/Programmieren/c_cpp/github_os/input/src/os_base/../os_base/os_common.h"
 234              		.file 4 "E:/NeuOrga/Programmieren/c_cpp/github_os/input/src/os_base/../os_sim/lld_core.h"
 235              		.file 5 "E:/NeuOrga/Programmieren/c_cpp/github_os/input/src/os_base/../os_sim/../os_base/os_task_c
 236              		.file 6 "E:/NeuOrga/Programmieren/c_cpp/github_os/input/src/os_base/../os_base/os_main.h"
 237              		.file 7 "E:/NeuOrga/Programmieren/c_cpp/github_os/input/src/os_base/OS_shutdown.h"
 238              		.file 8 "E:/NeuOrga/Programmieren/c_cpp/github_os/input/src/os_base/../os_base/os_ram.h"
 239 01de 9090     		.section	.debug_info,"dr"
 240              	Ldebug_info0:
 241 0000 E80B0000 		.long	0xbe8
 242 0004 0400     		.word	0x4
 243 0006 00000000 		.secrel32	Ldebug_abbrev0
 244 000a 04       		.byte	0x4
GAS LISTING C:\Users\PRESID~1\AppData\Local\Temp\cccpOaUn.s 			page 10


 245 000b 01       		.uleb128 0x1
 246 000c 474E5520 		.ascii "GNU C 4.9.3 -march=i386 -g3 -O0 -std=c90\0"
 246      4320342E 
 246      392E3320 
 246      2D6D6172 
 246      63683D69 
 247 0035 01       		.byte	0x1
 248 0036 453A5C4E 		.ascii "E:\\NeuOrga\\Programmieren\\c_cpp\\github_os\\input\\src\\os_base\\os_main.c\0"
 248      65754F72 
 248      67615C50 
 248      726F6772 
 248      616D6D69 
 249 007b 00000000 		.long	Ltext0
 250 007f DE010000 		.long	Letext0-Ltext0
 251 0083 00000000 		.secrel32	Ldebug_line0
 252 0087 00000000 		.secrel32	Ldebug_macro0
 253 008b 02       		.uleb128 0x2
 254 008c 756E7369 		.ascii "unsigned_char_t\0"
 254      676E6564 
 254      5F636861 
 254      725F7400 
 255 009c 02       		.byte	0x2
 256 009d 11       		.byte	0x11
 257 009e A2000000 		.long	0xa2
 258 00a2 03       		.uleb128 0x3
 259 00a3 01       		.byte	0x1
 260 00a4 08       		.byte	0x8
 261 00a5 756E7369 		.ascii "unsigned char\0"
 261      676E6564 
 261      20636861 
 261      7200
 262 00b3 03       		.uleb128 0x3
 263 00b4 01       		.byte	0x1
 264 00b5 06       		.byte	0x6
 265 00b6 7369676E 		.ascii "signed char\0"
 265      65642063 
 265      68617200 
 266 00c2 02       		.uleb128 0x2
 267 00c3 75696E74 		.ascii "uint8\0"
 267      3800
 268 00c9 02       		.byte	0x2
 269 00ca 15       		.byte	0x15
 270 00cb A2000000 		.long	0xa2
 271 00cf 03       		.uleb128 0x3
 272 00d0 02       		.byte	0x2
 273 00d1 07       		.byte	0x7
 274 00d2 73686F72 		.ascii "short unsigned int\0"
 274      7420756E 
 274      7369676E 
 274      65642069 
 274      6E7400
 275 00e5 03       		.uleb128 0x3
 276 00e6 02       		.byte	0x2
 277 00e7 05       		.byte	0x5
 278 00e8 73686F72 		.ascii "short int\0"
 278      7420696E 
 278      7400
GAS LISTING C:\Users\PRESID~1\AppData\Local\Temp\cccpOaUn.s 			page 11


 279 00f2 02       		.uleb128 0x2
 280 00f3 756E7369 		.ascii "unsigned_int32_t\0"
 280      676E6564 
 280      5F696E74 
 280      33325F74 
 280      00
 281 0104 02       		.byte	0x2
 282 0105 1B       		.byte	0x1b
 283 0106 0A010000 		.long	0x10a
 284 010a 03       		.uleb128 0x3
 285 010b 04       		.byte	0x4
 286 010c 07       		.byte	0x7
 287 010d 6C6F6E67 		.ascii "long unsigned int\0"
 287      20756E73 
 287      69676E65 
 287      6420696E 
 287      7400
 288 011f 03       		.uleb128 0x3
 289 0120 04       		.byte	0x4
 290 0121 05       		.byte	0x5
 291 0122 6C6F6E67 		.ascii "long int\0"
 291      20696E74 
 291      00
 292 012b 02       		.uleb128 0x2
 293 012c 75696E74 		.ascii "uint32\0"
 293      333200
 294 0133 02       		.byte	0x2
 295 0134 1D       		.byte	0x1d
 296 0135 0A010000 		.long	0x10a
 297 0139 04       		.uleb128 0x4
 298 013a 6F735F73 		.ascii "os_sw_bugs_e\0"
 298      775F6275 
 298      67735F65 
 298      00
 299 0147 04       		.byte	0x4
 300 0148 03       		.byte	0x3
 301 0149 2D       		.byte	0x2d
 302 014a 0D030000 		.long	0x30d
 303 014e 05       		.uleb128 0x5
 304 014f 455F4F53 		.ascii "E_OS_BUG_NO_BUG\0"
 304      5F425547 
 304      5F4E4F5F 
 304      42554700 
 305 015f 00       		.sleb128 0
 306 0160 05       		.uleb128 0x5
 307 0161 455F4F53 		.ascii "E_OS_BUG_TASKSTATE_REQUEST_DENIED\0"
 307      5F425547 
 307      5F544153 
 307      4B535441 
 307      54455F52 
 308 0183 01       		.sleb128 1
 309 0184 05       		.uleb128 0x5
 310 0185 455F4F53 		.ascii "E_OS_BUG_NULL_POINTER\0"
 310      5F425547 
 310      5F4E554C 
 310      4C5F504F 
 310      494E5445 
GAS LISTING C:\Users\PRESID~1\AppData\Local\Temp\cccpOaUn.s 			page 12


 311 019b 02       		.sleb128 2
 312 019c 05       		.uleb128 0x5
 313 019d 455F4F53 		.ascii "E_OS_BUG_TASK_MAX_WAIT_TIME_REACHED\0"
 313      5F425547 
 313      5F544153 
 313      4B5F4D41 
 313      585F5741 
 314 01c1 03       		.sleb128 3
 315 01c2 05       		.uleb128 0x5
 316 01c3 455F4F53 		.ascii "E_OS_BUG_TASK_UNSPECIFIED\0"
 316      5F425547 
 316      5F544153 
 316      4B5F554E 
 316      53504543 
 317 01dd 04       		.sleb128 4
 318 01de 05       		.uleb128 0x5
 319 01df 455F4F53 		.ascii "E_OS_BUG_EXCEPTION_UNDEFINSTRUCTION\0"
 319      5F425547 
 319      5F455843 
 319      45505449 
 319      4F4E5F55 
 320 0203 05       		.sleb128 5
 321 0204 05       		.uleb128 0x5
 322 0205 455F4F53 		.ascii "E_OS_BUG_EXCEPTION_ABORTPREFETCH\0"
 322      5F425547 
 322      5F455843 
 322      45505449 
 322      4F4E5F41 
 323 0226 06       		.sleb128 6
 324 0227 05       		.uleb128 0x5
 325 0228 455F4F53 		.ascii "E_OS_BUG_EXCEPTION_ABORTDATA\0"
 325      5F425547 
 325      5F455843 
 325      45505449 
 325      4F4E5F41 
 326 0245 07       		.sleb128 7
 327 0246 05       		.uleb128 0x5
 328 0247 455F4F53 		.ascii "E_OS_BUG_RESET_EXIT_OR_SHUTDOWN_FAILED\0"
 328      5F425547 
 328      5F524553 
 328      45545F45 
 328      5849545F 
 329 026e 08       		.sleb128 8
 330 026f 05       		.uleb128 0x5
 331 0270 455F4F53 		.ascii "E_OS_BUG_CRITICAL_STACK_USAGE\0"
 331      5F425547 
 331      5F435249 
 331      54494341 
 331      4C5F5354 
 332 028e 09       		.sleb128 9
 333 028f 05       		.uleb128 0x5
 334 0290 455F4F53 		.ascii "E_OS_BUG_SVC_NUMBER_MISSING\0"
 334      5F425547 
 334      5F535643 
 334      5F4E554D 
 334      4245525F 
 335 02ac 0A       		.sleb128 10
GAS LISTING C:\Users\PRESID~1\AppData\Local\Temp\cccpOaUn.s 			page 13


 336 02ad 05       		.uleb128 0x5
 337 02ae 455F4F53 		.ascii "E_OS_BUG_MAX_WAIT_TIME_REACHED\0"
 337      5F425547 
 337      5F4D4158 
 337      5F574149 
 337      545F5449 
 338 02cd 0B       		.sleb128 11
 339 02ce 05       		.uleb128 0x5
 340 02cf 455F4F53 		.ascii "E_OS_BUG_DIVISION_BY_ZERO\0"
 340      5F425547 
 340      5F444956 
 340      4953494F 
 340      4E5F4259 
 341 02e9 0C       		.sleb128 12
 342 02ea 05       		.uleb128 0x5
 343 02eb 455F4F53 		.ascii "E_OS_BUG_BIT_SHIFT_OUT_OF_RANGE\0"
 343      5F425547 
 343      5F424954 
 343      5F534849 
 343      46545F4F 
 344 030b 0D       		.sleb128 13
 345 030c 00       		.byte	0
 346 030d 04       		.uleb128 0x4
 347 030e 6F735F73 		.ascii "os_sw_bugs_function_e\0"
 347      775F6275 
 347      67735F66 
 347      756E6374 
 347      696F6E5F 
 348 0324 04       		.byte	0x4
 349 0325 03       		.byte	0x3
 350 0326 42       		.byte	0x42
 351 0327 25050000 		.long	0x525
 352 032b 05       		.uleb128 0x5
 353 032c 455F4655 		.ascii "E_FUNC_NOFUNCTION\0"
 353      4E435F4E 
 353      4F46554E 
 353      4354494F 
 353      4E00
 354 033e 00       		.sleb128 0
 355 033f 05       		.uleb128 0x5
 356 0340 455F4655 		.ascii "E_FUNC_SAVETASKENVIRONMENT\0"
 356      4E435F53 
 356      41564554 
 356      41534B45 
 356      4E564952 
 357 035b 01       		.sleb128 1
 358 035c 05       		.uleb128 0x5
 359 035d 455F4655 		.ascii "E_FUNC_RESTORETASKENVIRONMENT\0"
 359      4E435F52 
 359      4553544F 
 359      52455441 
 359      534B454E 
 360 037b 02       		.sleb128 2
 361 037c 05       		.uleb128 0x5
 362 037d 455F4655 		.ascii "E_FUNC_CREATETASKENVIRONMENT\0"
 362      4E435F43 
 362      52454154 
GAS LISTING C:\Users\PRESID~1\AppData\Local\Temp\cccpOaUn.s 			page 14


 362      45544153 
 362      4B454E56 
 363 039a 03       		.sleb128 3
 364 039b 05       		.uleb128 0x5
 365 039c 455F4655 		.ascii "E_FUNC_DELETETASKENVIRONMENT\0"
 365      4E435F44 
 365      454C4554 
 365      45544153 
 365      4B454E56 
 366 03b9 04       		.sleb128 4
 367 03ba 05       		.uleb128 0x5
 368 03bb 455F4655 		.ascii "E_FUNC_INITTASKENVIRONMENT\0"
 368      4E435F49 
 368      4E495454 
 368      41534B45 
 368      4E564952 
 369 03d6 05       		.sleb128 5
 370 03d7 05       		.uleb128 0x5
 371 03d8 455F4655 		.ascii "E_FUNC_STARTTASK\0"
 371      4E435F53 
 371      54415254 
 371      5441534B 
 371      00
 372 03e9 06       		.sleb128 6
 373 03ea 05       		.uleb128 0x5
 374 03eb 455F4655 		.ascii "E_FUNC_PREEMPTTASK\0"
 374      4E435F50 
 374      5245454D 
 374      50545441 
 374      534B00
 375 03fe 07       		.sleb128 7
 376 03ff 05       		.uleb128 0x5
 377 0400 455F4655 		.ascii "E_FUNC_TERMINATETASK\0"
 377      4E435F54 
 377      45524D49 
 377      4E415445 
 377      5441534B 
 378 0415 08       		.sleb128 8
 379 0416 05       		.uleb128 0x5
 380 0417 455F4655 		.ascii "E_FUNC_TASKSCHEDULER\0"
 380      4E435F54 
 380      41534B53 
 380      43484544 
 380      554C4552 
 381 042c 09       		.sleb128 9
 382 042d 05       		.uleb128 0x5
 383 042e 455F4655 		.ascii "E_FUNC_INITTASK\0"
 383      4E435F49 
 383      4E495454 
 383      41534B00 
 384 043e 0A       		.sleb128 10
 385 043f 05       		.uleb128 0x5
 386 0440 455F4655 		.ascii "E_FUNC_ACTIVATETASK\0"
 386      4E435F41 
 386      43544956 
 386      41544554 
 386      41534B00 
GAS LISTING C:\Users\PRESID~1\AppData\Local\Temp\cccpOaUn.s 			page 15


 387 0454 0B       		.sleb128 11
 388 0455 05       		.uleb128 0x5
 389 0456 455F4655 		.ascii "E_FUNC_TASKSTATEREQUEST\0"
 389      4E435F54 
 389      41534B53 
 389      54415445 
 389      52455155 
 390 046e 0C       		.sleb128 12
 391 046f 05       		.uleb128 0x5
 392 0470 455F4655 		.ascii "E_FUNC_PREEMPT_TASK\0"
 392      4E435F50 
 392      5245454D 
 392      50545F54 
 392      41534B00 
 393 0484 0D       		.sleb128 13
 394 0485 05       		.uleb128 0x5
 395 0486 455F4655 		.ascii "E_FUNC_OS_EXCEPTION\0"
 395      4E435F4F 
 395      535F4558 
 395      43455054 
 395      494F4E00 
 396 049a 0E       		.sleb128 14
 397 049b 05       		.uleb128 0x5
 398 049c 455F4655 		.ascii "E_FUNC_CREATETASK\0"
 398      4E435F43 
 398      52454154 
 398      45544153 
 398      4B00
 399 04ae 0F       		.sleb128 15
 400 04af 05       		.uleb128 0x5
 401 04b0 455F4655 		.ascii "E_FUNC_SHUTDOWN\0"
 401      4E435F53 
 401      48555444 
 401      4F574E00 
 402 04c0 10       		.sleb128 16
 403 04c1 05       		.uleb128 0x5
 404 04c2 455F4655 		.ascii "E_FUNC_STACKCHECK\0"
 404      4E435F53 
 404      5441434B 
 404      43484543 
 404      4B00
 405 04d4 11       		.sleb128 17
 406 04d5 05       		.uleb128 0x5
 407 04d6 455F4655 		.ascii "E_FUNC_ISRHANDLER\0"
 407      4E435F49 
 407      53524841 
 407      4E444C45 
 407      5200
 408 04e8 12       		.sleb128 18
 409 04e9 05       		.uleb128 0x5
 410 04ea 455F4655 		.ascii "E_FUNC_STATE_HANDLER\0"
 410      4E435F53 
 410      54415445 
 410      5F48414E 
 410      444C4552 
 411 04ff 13       		.sleb128 19
 412 0500 05       		.uleb128 0x5
GAS LISTING C:\Users\PRESID~1\AppData\Local\Temp\cccpOaUn.s 			page 16


 413 0501 455F4655 		.ascii "E_FUNC_INTDIV\0"
 413      4E435F49 
 413      4E544449 
 413      5600
 414 050f 14       		.sleb128 20
 415 0510 05       		.uleb128 0x5
 416 0511 455F4655 		.ascii "E_FUNC_SHIFT_LEFT\0"
 416      4E435F53 
 416      48494654 
 416      5F4C4546 
 416      5400
 417 0523 15       		.sleb128 21
 418 0524 00       		.byte	0
 419 0525 06       		.uleb128 0x6
 420 0526 6269675F 		.ascii "big_int_s\0"
 420      696E745F 
 420      7300
 421 0530 10       		.byte	0x10
 422 0531 03       		.byte	0x3
 423 0532 62       		.byte	0x62
 424 0533 47050000 		.long	0x547
 425 0537 07       		.uleb128 0x7
 426 0538 6E756D62 		.ascii "number\0"
 426      657200
 427 053f 03       		.byte	0x3
 428 0540 6B       		.byte	0x6b
 429 0541 47050000 		.long	0x547
 430 0545 00       		.byte	0
 431 0546 00       		.byte	0
 432 0547 08       		.uleb128 0x8
 433 0548 C2000000 		.long	0xc2
 434 054c 57050000 		.long	0x557
 435 0550 09       		.uleb128 0x9
 436 0551 57050000 		.long	0x557
 437 0555 0F       		.byte	0xf
 438 0556 00       		.byte	0
 439 0557 03       		.uleb128 0x3
 440 0558 04       		.byte	0x4
 441 0559 07       		.byte	0x7
 442 055a 73697A65 		.ascii "sizetype\0"
 442      74797065 
 442      00
 443 0563 02       		.uleb128 0x2
 444 0564 6269675F 		.ascii "big_int\0"
 444      696E7400 
 445 056c 03       		.byte	0x3
 446 056d 6C       		.byte	0x6c
 447 056e 25050000 		.long	0x525
 448 0572 02       		.uleb128 0x2
 449 0573 74696D65 		.ascii "timebig_t\0"
 449      6269675F 
 449      7400
 450 057d 03       		.byte	0x3
 451 057e 6E       		.byte	0x6e
 452 057f 63050000 		.long	0x563
 453 0583 04       		.uleb128 0x4
 454 0584 70726976 		.ascii "privilige_mode_e\0"
GAS LISTING C:\Users\PRESID~1\AppData\Local\Temp\cccpOaUn.s 			page 17


 454      696C6967 
 454      655F6D6F 
 454      64655F65 
 454      00
 455 0595 04       		.byte	0x4
 456 0596 04       		.byte	0x4
 457 0597 10       		.byte	0x10
 458 0598 1B060000 		.long	0x61b
 459 059c 05       		.uleb128 0x5
 460 059d 455F5052 		.ascii "E_PRIVILIGEMODE_UNPRIVILIGED_THREAD_MODE\0"
 460      4956494C 
 460      4947454D 
 460      4F44455F 
 460      554E5052 
 461 05c6 00       		.sleb128 0
 462 05c7 05       		.uleb128 0x5
 463 05c8 455F5052 		.ascii "E_PRIVILIGEMODE_PRIVILIGED_THREAD_MODE\0"
 463      4956494C 
 463      4947454D 
 463      4F44455F 
 463      50524956 
 464 05ef 01       		.sleb128 1
 465 05f0 05       		.uleb128 0x5
 466 05f1 455F5052 		.ascii "E_PRIVILIGEMODE_PRIVILIGED_HANDLER_MODE\0"
 466      4956494C 
 466      4947454D 
 466      4F44455F 
 466      50524956 
 467 0619 02       		.sleb128 2
 468 061a 00       		.byte	0
 469 061b 02       		.uleb128 0x2
 470 061c 70726976 		.ascii "privilige_mode_t\0"
 470      696C6967 
 470      655F6D6F 
 470      64655F74 
 470      00
 471 062d 04       		.byte	0x4
 472 062e 16       		.byte	0x16
 473 062f 83050000 		.long	0x583
 474 0633 04       		.uleb128 0x4
 475 0634 7461736B 		.ascii "task_state_e\0"
 475      5F737461 
 475      74655F65 
 475      00
 476 0641 04       		.byte	0x4
 477 0642 05       		.byte	0x5
 478 0643 07       		.byte	0x7
 479 0644 91060000 		.long	0x691
 480 0648 05       		.uleb128 0x5
 481 0649 455F5441 		.ascii "E_TASK_UNSPECIFIED\0"
 481      534B5F55 
 481      4E535045 
 481      43494649 
 481      454400
 482 065c 00       		.sleb128 0
 483 065d 05       		.uleb128 0x5
 484 065e 455F5441 		.ascii "E_TASK_SUSPENDED\0"
GAS LISTING C:\Users\PRESID~1\AppData\Local\Temp\cccpOaUn.s 			page 18


 484      534B5F53 
 484      55535045 
 484      4E444544 
 484      00
 485 066f 01       		.sleb128 1
 486 0670 05       		.uleb128 0x5
 487 0671 455F5441 		.ascii "E_TASK_READY\0"
 487      534B5F52 
 487      45414459 
 487      00
 488 067e 02       		.sleb128 2
 489 067f 05       		.uleb128 0x5
 490 0680 455F5441 		.ascii "E_TASK_RUNNING\0"
 490      534B5F52 
 490      554E4E49 
 490      4E4700
 491 068f 03       		.sleb128 3
 492 0690 00       		.byte	0
 493 0691 02       		.uleb128 0x2
 494 0692 7461736B 		.ascii "task_state_t\0"
 494      5F737461 
 494      74655F74 
 494      00
 495 069f 05       		.byte	0x5
 496 06a0 0E       		.byte	0xe
 497 06a1 33060000 		.long	0x633
 498 06a5 02       		.uleb128 0x2
 499 06a6 66756E63 		.ascii "func_p_t\0"
 499      5F705F74 
 499      00
 500 06af 05       		.byte	0x5
 501 06b0 13       		.byte	0x13
 502 06b1 B5060000 		.long	0x6b5
 503 06b5 0A       		.uleb128 0xa
 504 06b6 04       		.byte	0x4
 505 06b7 BB060000 		.long	0x6bb
 506 06bb 0B       		.uleb128 0xb
 507 06bc C6060000 		.long	0x6c6
 508 06c0 0C       		.uleb128 0xc
 509 06c1 C6060000 		.long	0x6c6
 510 06c5 00       		.byte	0
 511 06c6 0D       		.uleb128 0xd
 512 06c7 04       		.byte	0x4
 513 06c8 02       		.uleb128 0x2
 514 06c9 66756E63 		.ascii "func_p_state_change_t\0"
 514      5F705F73 
 514      74617465 
 514      5F636861 
 514      6E67655F 
 515 06df 05       		.byte	0x5
 516 06e0 15       		.byte	0x15
 517 06e1 E5060000 		.long	0x6e5
 518 06e5 0A       		.uleb128 0xa
 519 06e6 04       		.byte	0x4
 520 06e7 EB060000 		.long	0x6eb
 521 06eb 0E       		.uleb128 0xe
 522 06ec 8B000000 		.long	0x8b
GAS LISTING C:\Users\PRESID~1\AppData\Local\Temp\cccpOaUn.s 			page 19


 523 06f0 FF060000 		.long	0x6ff
 524 06f4 0C       		.uleb128 0xc
 525 06f5 C6060000 		.long	0x6c6
 526 06f9 0C       		.uleb128 0xc
 527 06fa 91060000 		.long	0x691
 528 06fe 00       		.byte	0
 529 06ff 06       		.uleb128 0x6
 530 0700 7461736B 		.ascii "task_group_s\0"
 530      5F67726F 
 530      75705F73 
 530      00
 531 070d 20       		.byte	0x20
 532 070e 05       		.byte	0x5
 533 070f 18       		.byte	0x18
 534 0710 37070000 		.long	0x737
 535 0714 0F       		.uleb128 0xf
 536 0715 00000000 		.secrel32	LASF0
 537 0719 05       		.byte	0x5
 538 071a 1A       		.byte	0x1a
 539 071b 72050000 		.long	0x572
 540 071f 00       		.byte	0
 541 0720 07       		.uleb128 0x7
 542 0721 66616972 		.ascii "fair_exe_time\0"
 542      5F657865 
 542      5F74696D 
 542      6500
 543 072f 05       		.byte	0x5
 544 0730 1B       		.byte	0x1b
 545 0731 72050000 		.long	0x572
 546 0735 10       		.byte	0x10
 547 0736 00       		.byte	0
 548 0737 02       		.uleb128 0x2
 549 0738 7461736B 		.ascii "task_group_t\0"
 549      5F67726F 
 549      75705F74 
 549      00
 550 0745 05       		.byte	0x5
 551 0746 1D       		.byte	0x1d
 552 0747 FF060000 		.long	0x6ff
 553 074b 06       		.uleb128 0x6
 554 074c 7461736B 		.ascii "task_s\0"
 554      5F7300
 555 0753 AC       		.byte	0xac
 556 0754 05       		.byte	0x5
 557 0755 1F       		.byte	0x1f
 558 0756 D8090000 		.long	0x9d8
 559 075a 10       		.uleb128 0x10
 560 075b 61637469 		.ascii "active\0"
 560      766500
 561 0762 05       		.byte	0x5
 562 0763 21       		.byte	0x21
 563 0764 D8090000 		.long	0x9d8
 564 0768 04       		.byte	0x4
 565 0769 01       		.byte	0x1
 566 076a 1F       		.byte	0x1f
 567 076b 00       		.byte	0
 568 076c 10       		.uleb128 0x10
GAS LISTING C:\Users\PRESID~1\AppData\Local\Temp\cccpOaUn.s 			page 20


 569 076d 7461736B 		.ascii "task_queued\0"
 569      5F717565 
 569      75656400 
 570 0779 05       		.byte	0x5
 571 077a 22       		.byte	0x22
 572 077b D8090000 		.long	0x9d8
 573 077f 04       		.byte	0x4
 574 0780 01       		.byte	0x1
 575 0781 1E       		.byte	0x1e
 576 0782 00       		.byte	0
 577 0783 10       		.uleb128 0x10
 578 0784 69646C65 		.ascii "idle_task\0"
 578      5F746173 
 578      6B00
 579 078e 05       		.byte	0x5
 580 078f 23       		.byte	0x23
 581 0790 D8090000 		.long	0x9d8
 582 0794 04       		.byte	0x4
 583 0795 01       		.byte	0x1
 584 0796 1D       		.byte	0x1d
 585 0797 00       		.byte	0
 586 0798 10       		.uleb128 0x10
 587 0799 66726565 		.ascii "free\0"
 587      00
 588 079e 05       		.byte	0x5
 589 079f 24       		.byte	0x24
 590 07a0 D8090000 		.long	0x9d8
 591 07a4 04       		.byte	0x4
 592 07a5 1D       		.byte	0x1d
 593 07a6 00       		.byte	0
 594 07a7 00       		.byte	0
 595 07a8 07       		.uleb128 0x7
 596 07a9 6E725F6F 		.ascii "nr_of_ins_allowed\0"
 596      665F696E 
 596      735F616C 
 596      6C6F7765 
 596      6400
 597 07bb 05       		.byte	0x5
 598 07bc 25       		.byte	0x25
 599 07bd 8B000000 		.long	0x8b
 600 07c1 04       		.byte	0x4
 601 07c2 07       		.uleb128 0x7
 602 07c3 6E725F6F 		.ascii "nr_of_ins_activated\0"
 602      665F696E 
 602      735F6163 
 602      74697661 
 602      74656400 
 603 07d7 05       		.byte	0x5
 604 07d8 26       		.byte	0x26
 605 07d9 8B000000 		.long	0x8b
 606 07dd 05       		.byte	0x5
 607 07de 07       		.uleb128 0x7
 608 07df 77616974 		.ascii "wait_act_until\0"
 608      5F616374 
 608      5F756E74 
 608      696C00
 609 07ee 05       		.byte	0x5
GAS LISTING C:\Users\PRESID~1\AppData\Local\Temp\cccpOaUn.s 			page 21


 610 07ef 27       		.byte	0x27
 611 07f0 72050000 		.long	0x572
 612 07f4 06       		.byte	0x6
 613 07f5 07       		.uleb128 0x7
 614 07f6 77616974 		.ascii "wait_time\0"
 614      5F74696D 
 614      6500
 615 0800 05       		.byte	0x5
 616 0801 28       		.byte	0x28
 617 0802 72050000 		.long	0x572
 618 0806 16       		.byte	0x16
 619 0807 07       		.uleb128 0x7
 620 0808 74696D65 		.ascii "time_to_prio_inc\0"
 620      5F746F5F 
 620      7072696F 
 620      5F696E63 
 620      00
 621 0819 05       		.byte	0x5
 622 081a 29       		.byte	0x29
 623 081b 72050000 		.long	0x572
 624 081f 26       		.byte	0x26
 625 0820 07       		.uleb128 0x7
 626 0821 6F766572 		.ascii "overwaittime_per_prio_inc_step\0"
 626      77616974 
 626      74696D65 
 626      5F706572 
 626      5F707269 
 627 0840 05       		.byte	0x5
 628 0841 2A       		.byte	0x2a
 629 0842 2B010000 		.long	0x12b
 630 0846 38       		.byte	0x38
 631 0847 07       		.uleb128 0x7
 632 0848 6D61785F 		.ascii "max_allowed_wait_time\0"
 632      616C6C6F 
 632      7765645F 
 632      77616974 
 632      5F74696D 
 633 085e 05       		.byte	0x5
 634 085f 2B       		.byte	0x2b
 635 0860 72050000 		.long	0x572
 636 0864 3C       		.byte	0x3c
 637 0865 0F       		.uleb128 0xf
 638 0866 00000000 		.secrel32	LASF0
 639 086a 05       		.byte	0x5
 640 086b 2C       		.byte	0x2c
 641 086c 72050000 		.long	0x572
 642 0870 4C       		.byte	0x4c
 643 0871 07       		.uleb128 0x7
 644 0872 73746172 		.ascii "start_time\0"
 644      745F7469 
 644      6D6500
 645 087d 05       		.byte	0x5
 646 087e 2D       		.byte	0x2d
 647 087f 72050000 		.long	0x572
 648 0883 5C       		.byte	0x5c
 649 0884 07       		.uleb128 0x7
 650 0885 63757272 		.ascii "current_prio\0"
GAS LISTING C:\Users\PRESID~1\AppData\Local\Temp\cccpOaUn.s 			page 22


 650      656E745F 
 650      7072696F 
 650      00
 651 0892 05       		.byte	0x5
 652 0893 2E       		.byte	0x2e
 653 0894 8B000000 		.long	0x8b
 654 0898 6C       		.byte	0x6c
 655 0899 07       		.uleb128 0x7
 656 089a 64656661 		.ascii "default_prio\0"
 656      756C745F 
 656      7072696F 
 656      00
 657 08a7 05       		.byte	0x5
 658 08a8 2F       		.byte	0x2f
 659 08a9 8B000000 		.long	0x8b
 660 08ad 6D       		.byte	0x6d
 661 08ae 07       		.uleb128 0x7
 662 08af 7461736B 		.ascii "task_number\0"
 662      5F6E756D 
 662      62657200 
 663 08bb 05       		.byte	0x5
 664 08bc 30       		.byte	0x30
 665 08bd F2000000 		.long	0xf2
 666 08c1 70       		.byte	0x70
 667 08c2 07       		.uleb128 0x7
 668 08c3 667000   		.ascii "fp\0"
 669 08c6 05       		.byte	0x5
 670 08c7 31       		.byte	0x31
 671 08c8 A5060000 		.long	0x6a5
 672 08cc 74       		.byte	0x74
 673 08cd 07       		.uleb128 0x7
 674 08ce 73746174 		.ascii "state_request\0"
 674      655F7265 
 674      71756573 
 674      7400
 675 08dc 05       		.byte	0x5
 676 08dd 32       		.byte	0x32
 677 08de C8060000 		.long	0x6c8
 678 08e2 78       		.byte	0x78
 679 08e3 07       		.uleb128 0x7
 680 08e4 7461736B 		.ascii "task_state\0"
 680      5F737461 
 680      746500
 681 08ef 05       		.byte	0x5
 682 08f0 33       		.byte	0x33
 683 08f1 91060000 		.long	0x691
 684 08f5 7C       		.byte	0x7c
 685 08f6 07       		.uleb128 0x7
 686 08f7 7461736B 		.ascii "task_group\0"
 686      5F67726F 
 686      757000
 687 0902 05       		.byte	0x5
 688 0903 34       		.byte	0x34
 689 0904 E8090000 		.long	0x9e8
 690 0908 80       		.byte	0x80
 691 0909 07       		.uleb128 0x7
 692 090a 65617800 		.ascii "eax\0"
GAS LISTING C:\Users\PRESID~1\AppData\Local\Temp\cccpOaUn.s 			page 23


 693 090e 05       		.byte	0x5
 694 090f 36       		.byte	0x36
 695 0910 F2000000 		.long	0xf2
 696 0914 84       		.byte	0x84
 697 0915 07       		.uleb128 0x7
 698 0916 65627800 		.ascii "ebx\0"
 699 091a 05       		.byte	0x5
 700 091b 37       		.byte	0x37
 701 091c F2000000 		.long	0xf2
 702 0920 88       		.byte	0x88
 703 0921 07       		.uleb128 0x7
 704 0922 65637800 		.ascii "ecx\0"
 705 0926 05       		.byte	0x5
 706 0927 38       		.byte	0x38
 707 0928 F2000000 		.long	0xf2
 708 092c 8C       		.byte	0x8c
 709 092d 07       		.uleb128 0x7
 710 092e 65647800 		.ascii "edx\0"
 711 0932 05       		.byte	0x5
 712 0933 39       		.byte	0x39
 713 0934 F2000000 		.long	0xf2
 714 0938 90       		.byte	0x90
 715 0939 07       		.uleb128 0x7
 716 093a 705F7374 		.ascii "p_stack_pointer\0"
 716      61636B5F 
 716      706F696E 
 716      74657200 
 717 094a 05       		.byte	0x5
 718 094b 49       		.byte	0x49
 719 094c EE090000 		.long	0x9ee
 720 0950 94       		.byte	0x94
 721 0951 07       		.uleb128 0x7
 722 0952 705F7374 		.ascii "p_stack_pointer_by_malloc\0"
 722      61636B5F 
 722      706F696E 
 722      7465725F 
 722      62795F6D 
 723 096c 05       		.byte	0x5
 724 096d 4A       		.byte	0x4a
 725 096e EE090000 		.long	0x9ee
 726 0972 98       		.byte	0x98
 727 0973 07       		.uleb128 0x7
 728 0974 705F7374 		.ascii "p_stack_pointer_start\0"
 728      61636B5F 
 728      706F696E 
 728      7465725F 
 728      73746172 
 729 098a 05       		.byte	0x5
 730 098b 4B       		.byte	0x4b
 731 098c EE090000 		.long	0x9ee
 732 0990 9C       		.byte	0x9c
 733 0991 07       		.uleb128 0x7
 734 0992 73746163 		.ascii "stack_size\0"
 734      6B5F7369 
 734      7A6500
 735 099d 05       		.byte	0x5
 736 099e 4C       		.byte	0x4c
GAS LISTING C:\Users\PRESID~1\AppData\Local\Temp\cccpOaUn.s 			page 24


 737 099f F2000000 		.long	0xf2
 738 09a3 A0       		.byte	0xa0
 739 09a4 07       		.uleb128 0x7
 740 09a5 705F7374 		.ascii "p_stack_pointer_end\0"
 740      61636B5F 
 740      706F696E 
 740      7465725F 
 740      656E6400 
 741 09b9 05       		.byte	0x5
 742 09ba 4D       		.byte	0x4d
 743 09bb EE090000 		.long	0x9ee
 744 09bf A4       		.byte	0xa4
 745 09c0 07       		.uleb128 0x7
 746 09c1 70726976 		.ascii "privilige_mode\0"
 746      696C6967 
 746      655F6D6F 
 746      646500
 747 09d0 05       		.byte	0x5
 748 09d1 4E       		.byte	0x4e
 749 09d2 1B060000 		.long	0x61b
 750 09d6 A8       		.byte	0xa8
 751 09d7 00       		.byte	0
 752 09d8 03       		.uleb128 0x3
 753 09d9 04       		.byte	0x4
 754 09da 07       		.byte	0x7
 755 09db 756E7369 		.ascii "unsigned int\0"
 755      676E6564 
 755      20696E74 
 755      00
 756 09e8 0A       		.uleb128 0xa
 757 09e9 04       		.byte	0x4
 758 09ea 37070000 		.long	0x737
 759 09ee 0A       		.uleb128 0xa
 760 09ef 04       		.byte	0x4
 761 09f0 8B000000 		.long	0x8b
 762 09f4 02       		.uleb128 0x2
 763 09f5 7461736B 		.ascii "task_t\0"
 763      5F7400
 764 09fc 05       		.byte	0x5
 765 09fd 50       		.byte	0x50
 766 09fe 4B070000 		.long	0x74b
 767 0a02 04       		.uleb128 0x4
 768 0a03 6F735F73 		.ascii "os_state_e\0"
 768      74617465 
 768      5F6500
 769 0a0e 04       		.byte	0x4
 770 0a0f 06       		.byte	0x6
 771 0a10 04       		.byte	0x4
 772 0a11 4D0A0000 		.long	0xa4d
 773 0a15 05       		.uleb128 0x5
 774 0a16 4F535F53 		.ascii "OS_STATE_INIT\0"
 774      54415445 
 774      5F494E49 
 774      5400
 775 0a24 00       		.sleb128 0
 776 0a25 05       		.uleb128 0x5
 777 0a26 4F535F53 		.ascii "OS_STATE_RUNNING\0"
GAS LISTING C:\Users\PRESID~1\AppData\Local\Temp\cccpOaUn.s 			page 25


 777      54415445 
 777      5F52554E 
 777      4E494E47 
 777      00
 778 0a37 01       		.sleb128 1
 779 0a38 05       		.uleb128 0x5
 780 0a39 4F535F53 		.ascii "OS_STATE_SHUTDOWN\0"
 780      54415445 
 780      5F534855 
 780      54444F57 
 780      4E00
 781 0a4b 02       		.sleb128 2
 782 0a4c 00       		.byte	0
 783 0a4d 02       		.uleb128 0x2
 784 0a4e 6F735F73 		.ascii "os_state_t\0"
 784      74617465 
 784      5F7400
 785 0a59 06       		.byte	0x6
 786 0a5a 0A       		.byte	0xa
 787 0a5b 020A0000 		.long	0xa02
 788 0a5f 04       		.uleb128 0x4
 789 0a60 6F735F72 		.ascii "os_reset_type_s\0"
 789      65736574 
 789      5F747970 
 789      655F7300 
 790 0a70 04       		.byte	0x4
 791 0a71 07       		.byte	0x7
 792 0a72 03       		.byte	0x3
 793 0a73 B80A0000 		.long	0xab8
 794 0a77 05       		.uleb128 0x5
 795 0a78 455F4F53 		.ascii "E_OS_RESET_HARDRESET\0"
 795      5F524553 
 795      45545F48 
 795      41524452 
 795      45534554 
 796 0a8d 00       		.sleb128 0
 797 0a8e 05       		.uleb128 0x5
 798 0a8f 455F4F53 		.ascii "E_OS_RESET_POWERDOWN\0"
 798      5F524553 
 798      45545F50 
 798      4F574552 
 798      444F574E 
 799 0aa4 01       		.sleb128 1
 800 0aa5 05       		.uleb128 0x5
 801 0aa6 455F4F53 		.ascii "E_OS_RESET_EXIT\0"
 801      5F524553 
 801      45545F45 
 801      58495400 
 802 0ab6 02       		.sleb128 2
 803 0ab7 00       		.byte	0
 804 0ab8 02       		.uleb128 0x2
 805 0ab9 6F735F72 		.ascii "os_reset_type_t\0"
 805      65736574 
 805      5F747970 
 805      655F7400 
 806 0ac9 07       		.byte	0x7
 807 0aca 08       		.byte	0x8
GAS LISTING C:\Users\PRESID~1\AppData\Local\Temp\cccpOaUn.s 			page 26


 808 0acb 5F0A0000 		.long	0xa5f
 809 0acf 11       		.uleb128 0x11
 810 0ad0 6F735F64 		.ascii "os_determine_next_task_activation\0"
 810      65746572 
 810      6D696E65 
 810      5F6E6578 
 810      745F7461 
 811 0af2 01       		.byte	0x1
 812 0af3 32       		.byte	0x32
 813 0af4 00000000 		.long	LFB0
 814 0af8 90000000 		.long	LFE0-LFB0
 815 0afc 01       		.uleb128 0x1
 816 0afd 9C       		.byte	0x9c
 817 0afe 180B0000 		.long	0xb18
 818 0b02 12       		.uleb128 0x12
 819 0b03 63616C6C 		.ascii "call_nr\0"
 819      5F6E7200 
 820 0b0b 01       		.byte	0x1
 821 0b0c 34       		.byte	0x34
 822 0b0d 2B010000 		.long	0x12b
 823 0b11 05       		.uleb128 0x5
 824 0b12 03       		.byte	0x3
 825 0b13 00000000 		.long	_call_nr.1442
 826 0b17 00       		.byte	0
 827 0b18 13       		.uleb128 0x13
 828 0b19 4F535F53 		.ascii "OS_STATE_HANDLER\0"
 828      54415445 
 828      5F48414E 
 828      444C4552 
 828      00
 829 0b2a 01       		.byte	0x1
 830 0b2b 53       		.byte	0x53
 831 0b2c 90000000 		.long	LFB1
 832 0b30 4E010000 		.long	LFE1-LFB1
 833 0b34 01       		.uleb128 0x1
 834 0b35 9C       		.byte	0x9c
 835 0b36 710B0000 		.long	0xb71
 836 0b3a 12       		.uleb128 0x12
 837 0b3b 7379735F 		.ascii "sys_req_reset_state\0"
 837      7265715F 
 837      72657365 
 837      745F7374 
 837      61746500 
 838 0b4f 01       		.byte	0x1
 839 0b50 56       		.byte	0x56
 840 0b51 B80A0000 		.long	0xab8
 841 0b55 05       		.uleb128 0x5
 842 0b56 03       		.byte	0x3
 843 0b57 00000000 		.long	_sys_req_reset_state.1453
 844 0b5b 12       		.uleb128 0x12
 845 0b5c 63616C6C 		.ascii "call_nr\0"
 845      5F6E7200 
 846 0b64 01       		.byte	0x1
 847 0b65 57       		.byte	0x57
 848 0b66 2B010000 		.long	0x12b
 849 0b6a 05       		.uleb128 0x5
 850 0b6b 03       		.byte	0x3
GAS LISTING C:\Users\PRESID~1\AppData\Local\Temp\cccpOaUn.s 			page 27


 851 0b6c 04000000 		.long	_call_nr.1454
 852 0b70 00       		.byte	0
 853 0b71 14       		.uleb128 0x14
 854 0b72 4F535F53 		.ascii "OS_STATE\0"
 854      54415445 
 854      00
 855 0b7b 08       		.byte	0x8
 856 0b7c 0F       		.byte	0xf
 857 0b7d 810B0000 		.long	0xb81
 858 0b81 15       		.uleb128 0x15
 859 0b82 4D0A0000 		.long	0xa4d
 860 0b86 14       		.uleb128 0x14
 861 0b87 5441534B 		.ascii "TASK_0_VAR\0"
 861      5F305F56 
 861      415200
 862 0b92 08       		.byte	0x8
 863 0b93 41       		.byte	0x41
 864 0b94 F4090000 		.long	0x9f4
 865 0b98 14       		.uleb128 0x14
 866 0b99 5441534B 		.ascii "TASK_1_VAR\0"
 866      5F315F56 
 866      415200
 867 0ba4 08       		.byte	0x8
 868 0ba5 41       		.byte	0x41
 869 0ba6 F4090000 		.long	0x9f4
 870 0baa 14       		.uleb128 0x14
 871 0bab 5441534B 		.ascii "TASK_2_VAR\0"
 871      5F325F56 
 871      415200
 872 0bb6 08       		.byte	0x8
 873 0bb7 41       		.byte	0x41
 874 0bb8 F4090000 		.long	0x9f4
 875 0bbc 14       		.uleb128 0x14
 876 0bbd 5441534B 		.ascii "TASK_3_VAR\0"
 876      5F335F56 
 876      415200
 877 0bc8 08       		.byte	0x8
 878 0bc9 41       		.byte	0x41
 879 0bca F4090000 		.long	0x9f4
 880 0bce 14       		.uleb128 0x14
 881 0bcf 53595354 		.ascii "SYSTEM_STATE_ACCEPTED\0"
 881      454D5F53 
 881      54415445 
 881      5F414343 
 881      45505445 
 882 0be5 08       		.byte	0x8
 883 0be6 46       		.byte	0x46
 884 0be7 810B0000 		.long	0xb81
 885 0beb 00       		.byte	0
 886              		.section	.debug_abbrev,"dr"
 887              	Ldebug_abbrev0:
 888 0000 01       		.uleb128 0x1
 889 0001 11       		.uleb128 0x11
 890 0002 01       		.byte	0x1
 891 0003 25       		.uleb128 0x25
 892 0004 08       		.uleb128 0x8
 893 0005 13       		.uleb128 0x13
GAS LISTING C:\Users\PRESID~1\AppData\Local\Temp\cccpOaUn.s 			page 28


 894 0006 0B       		.uleb128 0xb
 895 0007 03       		.uleb128 0x3
 896 0008 08       		.uleb128 0x8
 897 0009 11       		.uleb128 0x11
 898 000a 01       		.uleb128 0x1
 899 000b 12       		.uleb128 0x12
 900 000c 06       		.uleb128 0x6
 901 000d 10       		.uleb128 0x10
 902 000e 17       		.uleb128 0x17
 903 000f 9942     		.uleb128 0x2119
 904 0011 17       		.uleb128 0x17
 905 0012 00       		.byte	0
 906 0013 00       		.byte	0
 907 0014 02       		.uleb128 0x2
 908 0015 16       		.uleb128 0x16
 909 0016 00       		.byte	0
 910 0017 03       		.uleb128 0x3
 911 0018 08       		.uleb128 0x8
 912 0019 3A       		.uleb128 0x3a
 913 001a 0B       		.uleb128 0xb
 914 001b 3B       		.uleb128 0x3b
 915 001c 0B       		.uleb128 0xb
 916 001d 49       		.uleb128 0x49
 917 001e 13       		.uleb128 0x13
 918 001f 00       		.byte	0
 919 0020 00       		.byte	0
 920 0021 03       		.uleb128 0x3
 921 0022 24       		.uleb128 0x24
 922 0023 00       		.byte	0
 923 0024 0B       		.uleb128 0xb
 924 0025 0B       		.uleb128 0xb
 925 0026 3E       		.uleb128 0x3e
 926 0027 0B       		.uleb128 0xb
 927 0028 03       		.uleb128 0x3
 928 0029 08       		.uleb128 0x8
 929 002a 00       		.byte	0
 930 002b 00       		.byte	0
 931 002c 04       		.uleb128 0x4
 932 002d 04       		.uleb128 0x4
 933 002e 01       		.byte	0x1
 934 002f 03       		.uleb128 0x3
 935 0030 08       		.uleb128 0x8
 936 0031 0B       		.uleb128 0xb
 937 0032 0B       		.uleb128 0xb
 938 0033 3A       		.uleb128 0x3a
 939 0034 0B       		.uleb128 0xb
 940 0035 3B       		.uleb128 0x3b
 941 0036 0B       		.uleb128 0xb
 942 0037 01       		.uleb128 0x1
 943 0038 13       		.uleb128 0x13
 944 0039 00       		.byte	0
 945 003a 00       		.byte	0
 946 003b 05       		.uleb128 0x5
 947 003c 28       		.uleb128 0x28
 948 003d 00       		.byte	0
 949 003e 03       		.uleb128 0x3
 950 003f 08       		.uleb128 0x8
GAS LISTING C:\Users\PRESID~1\AppData\Local\Temp\cccpOaUn.s 			page 29


 951 0040 1C       		.uleb128 0x1c
 952 0041 0D       		.uleb128 0xd
 953 0042 00       		.byte	0
 954 0043 00       		.byte	0
 955 0044 06       		.uleb128 0x6
 956 0045 13       		.uleb128 0x13
 957 0046 01       		.byte	0x1
 958 0047 03       		.uleb128 0x3
 959 0048 08       		.uleb128 0x8
 960 0049 0B       		.uleb128 0xb
 961 004a 0B       		.uleb128 0xb
 962 004b 3A       		.uleb128 0x3a
 963 004c 0B       		.uleb128 0xb
 964 004d 3B       		.uleb128 0x3b
 965 004e 0B       		.uleb128 0xb
 966 004f 01       		.uleb128 0x1
 967 0050 13       		.uleb128 0x13
 968 0051 00       		.byte	0
 969 0052 00       		.byte	0
 970 0053 07       		.uleb128 0x7
 971 0054 0D       		.uleb128 0xd
 972 0055 00       		.byte	0
 973 0056 03       		.uleb128 0x3
 974 0057 08       		.uleb128 0x8
 975 0058 3A       		.uleb128 0x3a
 976 0059 0B       		.uleb128 0xb
 977 005a 3B       		.uleb128 0x3b
 978 005b 0B       		.uleb128 0xb
 979 005c 49       		.uleb128 0x49
 980 005d 13       		.uleb128 0x13
 981 005e 38       		.uleb128 0x38
 982 005f 0B       		.uleb128 0xb
 983 0060 00       		.byte	0
 984 0061 00       		.byte	0
 985 0062 08       		.uleb128 0x8
 986 0063 01       		.uleb128 0x1
 987 0064 01       		.byte	0x1
 988 0065 49       		.uleb128 0x49
 989 0066 13       		.uleb128 0x13
 990 0067 01       		.uleb128 0x1
 991 0068 13       		.uleb128 0x13
 992 0069 00       		.byte	0
 993 006a 00       		.byte	0
 994 006b 09       		.uleb128 0x9
 995 006c 21       		.uleb128 0x21
 996 006d 00       		.byte	0
 997 006e 49       		.uleb128 0x49
 998 006f 13       		.uleb128 0x13
 999 0070 2F       		.uleb128 0x2f
 1000 0071 0B       		.uleb128 0xb
 1001 0072 00       		.byte	0
 1002 0073 00       		.byte	0
 1003 0074 0A       		.uleb128 0xa
 1004 0075 0F       		.uleb128 0xf
 1005 0076 00       		.byte	0
 1006 0077 0B       		.uleb128 0xb
 1007 0078 0B       		.uleb128 0xb
GAS LISTING C:\Users\PRESID~1\AppData\Local\Temp\cccpOaUn.s 			page 30


 1008 0079 49       		.uleb128 0x49
 1009 007a 13       		.uleb128 0x13
 1010 007b 00       		.byte	0
 1011 007c 00       		.byte	0
 1012 007d 0B       		.uleb128 0xb
 1013 007e 15       		.uleb128 0x15
 1014 007f 01       		.byte	0x1
 1015 0080 27       		.uleb128 0x27
 1016 0081 19       		.uleb128 0x19
 1017 0082 01       		.uleb128 0x1
 1018 0083 13       		.uleb128 0x13
 1019 0084 00       		.byte	0
 1020 0085 00       		.byte	0
 1021 0086 0C       		.uleb128 0xc
 1022 0087 05       		.uleb128 0x5
 1023 0088 00       		.byte	0
 1024 0089 49       		.uleb128 0x49
 1025 008a 13       		.uleb128 0x13
 1026 008b 00       		.byte	0
 1027 008c 00       		.byte	0
 1028 008d 0D       		.uleb128 0xd
 1029 008e 0F       		.uleb128 0xf
 1030 008f 00       		.byte	0
 1031 0090 0B       		.uleb128 0xb
 1032 0091 0B       		.uleb128 0xb
 1033 0092 00       		.byte	0
 1034 0093 00       		.byte	0
 1035 0094 0E       		.uleb128 0xe
 1036 0095 15       		.uleb128 0x15
 1037 0096 01       		.byte	0x1
 1038 0097 27       		.uleb128 0x27
 1039 0098 19       		.uleb128 0x19
 1040 0099 49       		.uleb128 0x49
 1041 009a 13       		.uleb128 0x13
 1042 009b 01       		.uleb128 0x1
 1043 009c 13       		.uleb128 0x13
 1044 009d 00       		.byte	0
 1045 009e 00       		.byte	0
 1046 009f 0F       		.uleb128 0xf
 1047 00a0 0D       		.uleb128 0xd
 1048 00a1 00       		.byte	0
 1049 00a2 03       		.uleb128 0x3
 1050 00a3 0E       		.uleb128 0xe
 1051 00a4 3A       		.uleb128 0x3a
 1052 00a5 0B       		.uleb128 0xb
 1053 00a6 3B       		.uleb128 0x3b
 1054 00a7 0B       		.uleb128 0xb
 1055 00a8 49       		.uleb128 0x49
 1056 00a9 13       		.uleb128 0x13
 1057 00aa 38       		.uleb128 0x38
 1058 00ab 0B       		.uleb128 0xb
 1059 00ac 00       		.byte	0
 1060 00ad 00       		.byte	0
 1061 00ae 10       		.uleb128 0x10
 1062 00af 0D       		.uleb128 0xd
 1063 00b0 00       		.byte	0
 1064 00b1 03       		.uleb128 0x3
GAS LISTING C:\Users\PRESID~1\AppData\Local\Temp\cccpOaUn.s 			page 31


 1065 00b2 08       		.uleb128 0x8
 1066 00b3 3A       		.uleb128 0x3a
 1067 00b4 0B       		.uleb128 0xb
 1068 00b5 3B       		.uleb128 0x3b
 1069 00b6 0B       		.uleb128 0xb
 1070 00b7 49       		.uleb128 0x49
 1071 00b8 13       		.uleb128 0x13
 1072 00b9 0B       		.uleb128 0xb
 1073 00ba 0B       		.uleb128 0xb
 1074 00bb 0D       		.uleb128 0xd
 1075 00bc 0B       		.uleb128 0xb
 1076 00bd 0C       		.uleb128 0xc
 1077 00be 0B       		.uleb128 0xb
 1078 00bf 38       		.uleb128 0x38
 1079 00c0 0B       		.uleb128 0xb
 1080 00c1 00       		.byte	0
 1081 00c2 00       		.byte	0
 1082 00c3 11       		.uleb128 0x11
 1083 00c4 2E       		.uleb128 0x2e
 1084 00c5 01       		.byte	0x1
 1085 00c6 03       		.uleb128 0x3
 1086 00c7 08       		.uleb128 0x8
 1087 00c8 3A       		.uleb128 0x3a
 1088 00c9 0B       		.uleb128 0xb
 1089 00ca 3B       		.uleb128 0x3b
 1090 00cb 0B       		.uleb128 0xb
 1091 00cc 27       		.uleb128 0x27
 1092 00cd 19       		.uleb128 0x19
 1093 00ce 11       		.uleb128 0x11
 1094 00cf 01       		.uleb128 0x1
 1095 00d0 12       		.uleb128 0x12
 1096 00d1 06       		.uleb128 0x6
 1097 00d2 40       		.uleb128 0x40
 1098 00d3 18       		.uleb128 0x18
 1099 00d4 9642     		.uleb128 0x2116
 1100 00d6 19       		.uleb128 0x19
 1101 00d7 01       		.uleb128 0x1
 1102 00d8 13       		.uleb128 0x13
 1103 00d9 00       		.byte	0
 1104 00da 00       		.byte	0
 1105 00db 12       		.uleb128 0x12
 1106 00dc 34       		.uleb128 0x34
 1107 00dd 00       		.byte	0
 1108 00de 03       		.uleb128 0x3
 1109 00df 08       		.uleb128 0x8
 1110 00e0 3A       		.uleb128 0x3a
 1111 00e1 0B       		.uleb128 0xb
 1112 00e2 3B       		.uleb128 0x3b
 1113 00e3 0B       		.uleb128 0xb
 1114 00e4 49       		.uleb128 0x49
 1115 00e5 13       		.uleb128 0x13
 1116 00e6 02       		.uleb128 0x2
 1117 00e7 18       		.uleb128 0x18
 1118 00e8 00       		.byte	0
 1119 00e9 00       		.byte	0
 1120 00ea 13       		.uleb128 0x13
 1121 00eb 2E       		.uleb128 0x2e
GAS LISTING C:\Users\PRESID~1\AppData\Local\Temp\cccpOaUn.s 			page 32


 1122 00ec 01       		.byte	0x1
 1123 00ed 3F       		.uleb128 0x3f
 1124 00ee 19       		.uleb128 0x19
 1125 00ef 03       		.uleb128 0x3
 1126 00f0 08       		.uleb128 0x8
 1127 00f1 3A       		.uleb128 0x3a
 1128 00f2 0B       		.uleb128 0xb
 1129 00f3 3B       		.uleb128 0x3b
 1130 00f4 0B       		.uleb128 0xb
 1131 00f5 27       		.uleb128 0x27
 1132 00f6 19       		.uleb128 0x19
 1133 00f7 11       		.uleb128 0x11
 1134 00f8 01       		.uleb128 0x1
 1135 00f9 12       		.uleb128 0x12
 1136 00fa 06       		.uleb128 0x6
 1137 00fb 40       		.uleb128 0x40
 1138 00fc 18       		.uleb128 0x18
 1139 00fd 9642     		.uleb128 0x2116
 1140 00ff 19       		.uleb128 0x19
 1141 0100 01       		.uleb128 0x1
 1142 0101 13       		.uleb128 0x13
 1143 0102 00       		.byte	0
 1144 0103 00       		.byte	0
 1145 0104 14       		.uleb128 0x14
 1146 0105 34       		.uleb128 0x34
 1147 0106 00       		.byte	0
 1148 0107 03       		.uleb128 0x3
 1149 0108 08       		.uleb128 0x8
 1150 0109 3A       		.uleb128 0x3a
 1151 010a 0B       		.uleb128 0xb
 1152 010b 3B       		.uleb128 0x3b
 1153 010c 0B       		.uleb128 0xb
 1154 010d 49       		.uleb128 0x49
 1155 010e 13       		.uleb128 0x13
 1156 010f 3F       		.uleb128 0x3f
 1157 0110 19       		.uleb128 0x19
 1158 0111 3C       		.uleb128 0x3c
 1159 0112 19       		.uleb128 0x19
 1160 0113 00       		.byte	0
 1161 0114 00       		.byte	0
 1162 0115 15       		.uleb128 0x15
 1163 0116 35       		.uleb128 0x35
 1164 0117 00       		.byte	0
 1165 0118 49       		.uleb128 0x49
 1166 0119 13       		.uleb128 0x13
 1167 011a 00       		.byte	0
 1168 011b 00       		.byte	0
 1169 011c 00       		.byte	0
 1170              		.section	.debug_aranges,"dr"
 1171 0000 1C000000 		.long	0x1c
 1172 0004 0200     		.word	0x2
 1173 0006 00000000 		.secrel32	Ldebug_info0
 1174 000a 04       		.byte	0x4
 1175 000b 00       		.byte	0
 1176 000c 0000     		.word	0
 1177 000e 0000     		.word	0
 1178 0010 00000000 		.long	Ltext0
GAS LISTING C:\Users\PRESID~1\AppData\Local\Temp\cccpOaUn.s 			page 33


 1179 0014 DE010000 		.long	Letext0-Ltext0
 1180 0018 00000000 		.long	0
 1181 001c 00000000 		.long	0
 1182              		.section	.debug_macro,"dr"
 1183              	Ldebug_macro0:
 1184 0000 0400     		.word	0x4
 1185 0002 02       		.byte	0x2
 1186 0003 00000000 		.secrel32	Ldebug_line0
 1187 0007 01       		.byte	0x1
 1188 0008 00       		.uleb128 0
 1189 0009 5F5F5354 		.ascii "__STDC__ 1\0"
 1189      44435F5F 
 1189      203100
 1190 0014 01       		.byte	0x1
 1191 0015 00       		.uleb128 0
 1192 0016 5F5F5354 		.ascii "__STDC_HOSTED__ 1\0"
 1192      44435F48 
 1192      4F535445 
 1192      445F5F20 
 1192      3100
 1193 0028 01       		.byte	0x1
 1194 0029 00       		.uleb128 0
 1195 002a 5F5F474E 		.ascii "__GNUC__ 4\0"
 1195      55435F5F 
 1195      203400
 1196 0035 01       		.byte	0x1
 1197 0036 00       		.uleb128 0
 1198 0037 5F5F474E 		.ascii "__GNUC_MINOR__ 9\0"
 1198      55435F4D 
 1198      494E4F52 
 1198      5F5F2039 
 1198      00
 1199 0048 01       		.byte	0x1
 1200 0049 00       		.uleb128 0
 1201 004a 5F5F474E 		.ascii "__GNUC_PATCHLEVEL__ 3\0"
 1201      55435F50 
 1201      41544348 
 1201      4C455645 
 1201      4C5F5F20 
 1202 0060 01       		.byte	0x1
 1203 0061 00       		.uleb128 0
 1204 0062 5F5F5645 		.ascii "__VERSION__ \"4.9.3\"\0"
 1204      5253494F 
 1204      4E5F5F20 
 1204      22342E39 
 1204      2E332200 
 1205 0076 01       		.byte	0x1
 1206 0077 00       		.uleb128 0
 1207 0078 5F5F4154 		.ascii "__ATOMIC_RELAXED 0\0"
 1207      4F4D4943 
 1207      5F52454C 
 1207      41584544 
 1207      203000
 1208 008b 01       		.byte	0x1
 1209 008c 00       		.uleb128 0
 1210 008d 5F5F4154 		.ascii "__ATOMIC_SEQ_CST 5\0"
 1210      4F4D4943 
GAS LISTING C:\Users\PRESID~1\AppData\Local\Temp\cccpOaUn.s 			page 34


 1210      5F534551 
 1210      5F435354 
 1210      203500
 1211 00a0 01       		.byte	0x1
 1212 00a1 00       		.uleb128 0
 1213 00a2 5F5F4154 		.ascii "__ATOMIC_ACQUIRE 2\0"
 1213      4F4D4943 
 1213      5F414351 
 1213      55495245 
 1213      203200
 1214 00b5 01       		.byte	0x1
 1215 00b6 00       		.uleb128 0
 1216 00b7 5F5F4154 		.ascii "__ATOMIC_RELEASE 3\0"
 1216      4F4D4943 
 1216      5F52454C 
 1216      45415345 
 1216      203300
 1217 00ca 01       		.byte	0x1
 1218 00cb 00       		.uleb128 0
 1219 00cc 5F5F4154 		.ascii "__ATOMIC_ACQ_REL 4\0"
 1219      4F4D4943 
 1219      5F414351 
 1219      5F52454C 
 1219      203400
 1220 00df 01       		.byte	0x1
 1221 00e0 00       		.uleb128 0
 1222 00e1 5F5F4154 		.ascii "__ATOMIC_CONSUME 1\0"
 1222      4F4D4943 
 1222      5F434F4E 
 1222      53554D45 
 1222      203100
 1223 00f4 01       		.byte	0x1
 1224 00f5 00       		.uleb128 0
 1225 00f6 5F5F4649 		.ascii "__FINITE_MATH_ONLY__ 0\0"
 1225      4E495445 
 1225      5F4D4154 
 1225      485F4F4E 
 1225      4C595F5F 
 1226 010d 01       		.byte	0x1
 1227 010e 00       		.uleb128 0
 1228 010f 5F5F5349 		.ascii "__SIZEOF_INT__ 4\0"
 1228      5A454F46 
 1228      5F494E54 
 1228      5F5F2034 
 1228      00
 1229 0120 01       		.byte	0x1
 1230 0121 00       		.uleb128 0
 1231 0122 5F5F5349 		.ascii "__SIZEOF_LONG__ 4\0"
 1231      5A454F46 
 1231      5F4C4F4E 
 1231      475F5F20 
 1231      3400
 1232 0134 01       		.byte	0x1
 1233 0135 00       		.uleb128 0
 1234 0136 5F5F5349 		.ascii "__SIZEOF_LONG_LONG__ 8\0"
 1234      5A454F46 
 1234      5F4C4F4E 
GAS LISTING C:\Users\PRESID~1\AppData\Local\Temp\cccpOaUn.s 			page 35


 1234      475F4C4F 
 1234      4E475F5F 
 1235 014d 01       		.byte	0x1
 1236 014e 00       		.uleb128 0
 1237 014f 5F5F5349 		.ascii "__SIZEOF_SHORT__ 2\0"
 1237      5A454F46 
 1237      5F53484F 
 1237      52545F5F 
 1237      203200
 1238 0162 01       		.byte	0x1
 1239 0163 00       		.uleb128 0
 1240 0164 5F5F5349 		.ascii "__SIZEOF_FLOAT__ 4\0"
 1240      5A454F46 
 1240      5F464C4F 
 1240      41545F5F 
 1240      203400
 1241 0177 01       		.byte	0x1
 1242 0178 00       		.uleb128 0
 1243 0179 5F5F5349 		.ascii "__SIZEOF_DOUBLE__ 8\0"
 1243      5A454F46 
 1243      5F444F55 
 1243      424C455F 
 1243      5F203800 
 1244 018d 01       		.byte	0x1
 1245 018e 00       		.uleb128 0
 1246 018f 5F5F5349 		.ascii "__SIZEOF_LONG_DOUBLE__ 12\0"
 1246      5A454F46 
 1246      5F4C4F4E 
 1246      475F444F 
 1246      55424C45 
 1247 01a9 01       		.byte	0x1
 1248 01aa 00       		.uleb128 0
 1249 01ab 5F5F5349 		.ascii "__SIZEOF_SIZE_T__ 4\0"
 1249      5A454F46 
 1249      5F53495A 
 1249      455F545F 
 1249      5F203400 
 1250 01bf 01       		.byte	0x1
 1251 01c0 00       		.uleb128 0
 1252 01c1 5F5F4348 		.ascii "__CHAR_BIT__ 8\0"
 1252      41525F42 
 1252      49545F5F 
 1252      203800
 1253 01d0 01       		.byte	0x1
 1254 01d1 00       		.uleb128 0
 1255 01d2 5F5F4249 		.ascii "__BIGGEST_ALIGNMENT__ 16\0"
 1255      47474553 
 1255      545F414C 
 1255      49474E4D 
 1255      454E545F 
 1256 01eb 01       		.byte	0x1
 1257 01ec 00       		.uleb128 0
 1258 01ed 5F5F4F52 		.ascii "__ORDER_LITTLE_ENDIAN__ 1234\0"
 1258      4445525F 
 1258      4C495454 
 1258      4C455F45 
 1258      4E444941 
GAS LISTING C:\Users\PRESID~1\AppData\Local\Temp\cccpOaUn.s 			page 36


 1259 020a 01       		.byte	0x1
 1260 020b 00       		.uleb128 0
 1261 020c 5F5F4F52 		.ascii "__ORDER_BIG_ENDIAN__ 4321\0"
 1261      4445525F 
 1261      4249475F 
 1261      454E4449 
 1261      414E5F5F 
 1262 0226 01       		.byte	0x1
 1263 0227 00       		.uleb128 0
 1264 0228 5F5F4F52 		.ascii "__ORDER_PDP_ENDIAN__ 3412\0"
 1264      4445525F 
 1264      5044505F 
 1264      454E4449 
 1264      414E5F5F 
 1265 0242 01       		.byte	0x1
 1266 0243 00       		.uleb128 0
 1267 0244 5F5F4259 		.ascii "__BYTE_ORDER__ __ORDER_LITTLE_ENDIAN__\0"
 1267      54455F4F 
 1267      52444552 
 1267      5F5F205F 
 1267      5F4F5244 
 1268 026b 01       		.byte	0x1
 1269 026c 00       		.uleb128 0
 1270 026d 5F5F464C 		.ascii "__FLOAT_WORD_ORDER__ __ORDER_LITTLE_ENDIAN__\0"
 1270      4F41545F 
 1270      574F5244 
 1270      5F4F5244 
 1270      45525F5F 
 1271 029a 01       		.byte	0x1
 1272 029b 00       		.uleb128 0
 1273 029c 5F5F5349 		.ascii "__SIZEOF_POINTER__ 4\0"
 1273      5A454F46 
 1273      5F504F49 
 1273      4E544552 
 1273      5F5F2034 
 1274 02b1 01       		.byte	0x1
 1275 02b2 00       		.uleb128 0
 1276 02b3 5F5F5349 		.ascii "__SIZE_TYPE__ unsigned int\0"
 1276      5A455F54 
 1276      5950455F 
 1276      5F20756E 
 1276      7369676E 
 1277 02ce 01       		.byte	0x1
 1278 02cf 00       		.uleb128 0
 1279 02d0 5F5F5054 		.ascii "__PTRDIFF_TYPE__ int\0"
 1279      52444946 
 1279      465F5459 
 1279      50455F5F 
 1279      20696E74 
 1280 02e5 01       		.byte	0x1
 1281 02e6 00       		.uleb128 0
 1282 02e7 5F5F5743 		.ascii "__WCHAR_TYPE__ short unsigned int\0"
 1282      4841525F 
 1282      54595045 
 1282      5F5F2073 
 1282      686F7274 
 1283 0309 01       		.byte	0x1
GAS LISTING C:\Users\PRESID~1\AppData\Local\Temp\cccpOaUn.s 			page 37


 1284 030a 00       		.uleb128 0
 1285 030b 5F5F5749 		.ascii "__WINT_TYPE__ short unsigned int\0"
 1285      4E545F54 
 1285      5950455F 
 1285      5F207368 
 1285      6F727420 
 1286 032c 01       		.byte	0x1
 1287 032d 00       		.uleb128 0
 1288 032e 5F5F494E 		.ascii "__INTMAX_TYPE__ long long int\0"
 1288      544D4158 
 1288      5F545950 
 1288      455F5F20 
 1288      6C6F6E67 
 1289 034c 01       		.byte	0x1
 1290 034d 00       		.uleb128 0
 1291 034e 5F5F5549 		.ascii "__UINTMAX_TYPE__ long long unsigned int\0"
 1291      4E544D41 
 1291      585F5459 
 1291      50455F5F 
 1291      206C6F6E 
 1292 0376 01       		.byte	0x1
 1293 0377 00       		.uleb128 0
 1294 0378 5F5F4348 		.ascii "__CHAR16_TYPE__ short unsigned int\0"
 1294      41523136 
 1294      5F545950 
 1294      455F5F20 
 1294      73686F72 
 1295 039b 01       		.byte	0x1
 1296 039c 00       		.uleb128 0
 1297 039d 5F5F4348 		.ascii "__CHAR32_TYPE__ unsigned int\0"
 1297      41523332 
 1297      5F545950 
 1297      455F5F20 
 1297      756E7369 
 1298 03ba 01       		.byte	0x1
 1299 03bb 00       		.uleb128 0
 1300 03bc 5F5F5349 		.ascii "__SIG_ATOMIC_TYPE__ int\0"
 1300      475F4154 
 1300      4F4D4943 
 1300      5F545950 
 1300      455F5F20 
 1301 03d4 01       		.byte	0x1
 1302 03d5 00       		.uleb128 0
 1303 03d6 5F5F494E 		.ascii "__INT8_TYPE__ signed char\0"
 1303      54385F54 
 1303      5950455F 
 1303      5F207369 
 1303      676E6564 
 1304 03f0 01       		.byte	0x1
 1305 03f1 00       		.uleb128 0
 1306 03f2 5F5F494E 		.ascii "__INT16_TYPE__ short int\0"
 1306      5431365F 
 1306      54595045 
 1306      5F5F2073 
 1306      686F7274 
 1307 040b 01       		.byte	0x1
 1308 040c 00       		.uleb128 0
GAS LISTING C:\Users\PRESID~1\AppData\Local\Temp\cccpOaUn.s 			page 38


 1309 040d 5F5F494E 		.ascii "__INT32_TYPE__ int\0"
 1309      5433325F 
 1309      54595045 
 1309      5F5F2069 
 1309      6E7400
 1310 0420 01       		.byte	0x1
 1311 0421 00       		.uleb128 0
 1312 0422 5F5F494E 		.ascii "__INT64_TYPE__ long long int\0"
 1312      5436345F 
 1312      54595045 
 1312      5F5F206C 
 1312      6F6E6720 
 1313 043f 01       		.byte	0x1
 1314 0440 00       		.uleb128 0
 1315 0441 5F5F5549 		.ascii "__UINT8_TYPE__ unsigned char\0"
 1315      4E54385F 
 1315      54595045 
 1315      5F5F2075 
 1315      6E736967 
 1316 045e 01       		.byte	0x1
 1317 045f 00       		.uleb128 0
 1318 0460 5F5F5549 		.ascii "__UINT16_TYPE__ short unsigned int\0"
 1318      4E543136 
 1318      5F545950 
 1318      455F5F20 
 1318      73686F72 
 1319 0483 01       		.byte	0x1
 1320 0484 00       		.uleb128 0
 1321 0485 5F5F5549 		.ascii "__UINT32_TYPE__ unsigned int\0"
 1321      4E543332 
 1321      5F545950 
 1321      455F5F20 
 1321      756E7369 
 1322 04a2 01       		.byte	0x1
 1323 04a3 00       		.uleb128 0
 1324 04a4 5F5F5549 		.ascii "__UINT64_TYPE__ long long unsigned int\0"
 1324      4E543634 
 1324      5F545950 
 1324      455F5F20 
 1324      6C6F6E67 
 1325 04cb 01       		.byte	0x1
 1326 04cc 00       		.uleb128 0
 1327 04cd 5F5F494E 		.ascii "__INT_LEAST8_TYPE__ signed char\0"
 1327      545F4C45 
 1327      41535438 
 1327      5F545950 
 1327      455F5F20 
 1328 04ed 01       		.byte	0x1
 1329 04ee 00       		.uleb128 0
 1330 04ef 5F5F494E 		.ascii "__INT_LEAST16_TYPE__ short int\0"
 1330      545F4C45 
 1330      41535431 
 1330      365F5459 
 1330      50455F5F 
 1331 050e 01       		.byte	0x1
 1332 050f 00       		.uleb128 0
 1333 0510 5F5F494E 		.ascii "__INT_LEAST32_TYPE__ int\0"
GAS LISTING C:\Users\PRESID~1\AppData\Local\Temp\cccpOaUn.s 			page 39


 1333      545F4C45 
 1333      41535433 
 1333      325F5459 
 1333      50455F5F 
 1334 0529 01       		.byte	0x1
 1335 052a 00       		.uleb128 0
 1336 052b 5F5F494E 		.ascii "__INT_LEAST64_TYPE__ long long int\0"
 1336      545F4C45 
 1336      41535436 
 1336      345F5459 
 1336      50455F5F 
 1337 054e 01       		.byte	0x1
 1338 054f 00       		.uleb128 0
 1339 0550 5F5F5549 		.ascii "__UINT_LEAST8_TYPE__ unsigned char\0"
 1339      4E545F4C 
 1339      45415354 
 1339      385F5459 
 1339      50455F5F 
 1340 0573 01       		.byte	0x1
 1341 0574 00       		.uleb128 0
 1342 0575 5F5F5549 		.ascii "__UINT_LEAST16_TYPE__ short unsigned int\0"
 1342      4E545F4C 
 1342      45415354 
 1342      31365F54 
 1342      5950455F 
 1343 059e 01       		.byte	0x1
 1344 059f 00       		.uleb128 0
 1345 05a0 5F5F5549 		.ascii "__UINT_LEAST32_TYPE__ unsigned int\0"
 1345      4E545F4C 
 1345      45415354 
 1345      33325F54 
 1345      5950455F 
 1346 05c3 01       		.byte	0x1
 1347 05c4 00       		.uleb128 0
 1348 05c5 5F5F5549 		.ascii "__UINT_LEAST64_TYPE__ long long unsigned int\0"
 1348      4E545F4C 
 1348      45415354 
 1348      36345F54 
 1348      5950455F 
 1349 05f2 01       		.byte	0x1
 1350 05f3 00       		.uleb128 0
 1351 05f4 5F5F494E 		.ascii "__INT_FAST8_TYPE__ signed char\0"
 1351      545F4641 
 1351      5354385F 
 1351      54595045 
 1351      5F5F2073 
 1352 0613 01       		.byte	0x1
 1353 0614 00       		.uleb128 0
 1354 0615 5F5F494E 		.ascii "__INT_FAST16_TYPE__ short int\0"
 1354      545F4641 
 1354      53543136 
 1354      5F545950 
 1354      455F5F20 
 1355 0633 01       		.byte	0x1
 1356 0634 00       		.uleb128 0
 1357 0635 5F5F494E 		.ascii "__INT_FAST32_TYPE__ int\0"
 1357      545F4641 
GAS LISTING C:\Users\PRESID~1\AppData\Local\Temp\cccpOaUn.s 			page 40


 1357      53543332 
 1357      5F545950 
 1357      455F5F20 
 1358 064d 01       		.byte	0x1
 1359 064e 00       		.uleb128 0
 1360 064f 5F5F494E 		.ascii "__INT_FAST64_TYPE__ long long int\0"
 1360      545F4641 
 1360      53543634 
 1360      5F545950 
 1360      455F5F20 
 1361 0671 01       		.byte	0x1
 1362 0672 00       		.uleb128 0
 1363 0673 5F5F5549 		.ascii "__UINT_FAST8_TYPE__ unsigned char\0"
 1363      4E545F46 
 1363      41535438 
 1363      5F545950 
 1363      455F5F20 
 1364 0695 01       		.byte	0x1
 1365 0696 00       		.uleb128 0
 1366 0697 5F5F5549 		.ascii "__UINT_FAST16_TYPE__ short unsigned int\0"
 1366      4E545F46 
 1366      41535431 
 1366      365F5459 
 1366      50455F5F 
 1367 06bf 01       		.byte	0x1
 1368 06c0 00       		.uleb128 0
 1369 06c1 5F5F5549 		.ascii "__UINT_FAST32_TYPE__ unsigned int\0"
 1369      4E545F46 
 1369      41535433 
 1369      325F5459 
 1369      50455F5F 
 1370 06e3 01       		.byte	0x1
 1371 06e4 00       		.uleb128 0
 1372 06e5 5F5F5549 		.ascii "__UINT_FAST64_TYPE__ long long unsigned int\0"
 1372      4E545F46 
 1372      41535436 
 1372      345F5459 
 1372      50455F5F 
 1373 0711 01       		.byte	0x1
 1374 0712 00       		.uleb128 0
 1375 0713 5F5F494E 		.ascii "__INTPTR_TYPE__ int\0"
 1375      54505452 
 1375      5F545950 
 1375      455F5F20 
 1375      696E7400 
 1376 0727 01       		.byte	0x1
 1377 0728 00       		.uleb128 0
 1378 0729 5F5F5549 		.ascii "__UINTPTR_TYPE__ unsigned int\0"
 1378      4E545054 
 1378      525F5459 
 1378      50455F5F 
 1378      20756E73 
 1379 0747 01       		.byte	0x1
 1380 0748 00       		.uleb128 0
 1381 0749 5F5F6861 		.ascii "__has_include(STR) __has_include__(STR)\0"
 1381      735F696E 
 1381      636C7564 
GAS LISTING C:\Users\PRESID~1\AppData\Local\Temp\cccpOaUn.s 			page 41


 1381      65285354 
 1381      5229205F 
 1382 0771 01       		.byte	0x1
 1383 0772 00       		.uleb128 0
 1384 0773 5F5F6861 		.ascii "__has_include_next(STR) __has_include_next__(STR)\0"
 1384      735F696E 
 1384      636C7564 
 1384      655F6E65 
 1384      78742853 
 1385 07a5 01       		.byte	0x1
 1386 07a6 00       		.uleb128 0
 1387 07a7 5F5F4758 		.ascii "__GXX_ABI_VERSION 1002\0"
 1387      585F4142 
 1387      495F5645 
 1387      5253494F 
 1387      4E203130 
 1388 07be 01       		.byte	0x1
 1389 07bf 00       		.uleb128 0
 1390 07c0 5F5F5343 		.ascii "__SCHAR_MAX__ 127\0"
 1390      4841525F 
 1390      4D41585F 
 1390      5F203132 
 1390      3700
 1391 07d2 01       		.byte	0x1
 1392 07d3 00       		.uleb128 0
 1393 07d4 5F5F5348 		.ascii "__SHRT_MAX__ 32767\0"
 1393      52545F4D 
 1393      41585F5F 
 1393      20333237 
 1393      363700
 1394 07e7 01       		.byte	0x1
 1395 07e8 00       		.uleb128 0
 1396 07e9 5F5F494E 		.ascii "__INT_MAX__ 2147483647\0"
 1396      545F4D41 
 1396      585F5F20 
 1396      32313437 
 1396      34383336 
 1397 0800 01       		.byte	0x1
 1398 0801 00       		.uleb128 0
 1399 0802 5F5F4C4F 		.ascii "__LONG_MAX__ 2147483647L\0"
 1399      4E475F4D 
 1399      41585F5F 
 1399      20323134 
 1399      37343833 
 1400 081b 01       		.byte	0x1
 1401 081c 00       		.uleb128 0
 1402 081d 5F5F4C4F 		.ascii "__LONG_LONG_MAX__ 9223372036854775807LL\0"
 1402      4E475F4C 
 1402      4F4E475F 
 1402      4D41585F 
 1402      5F203932 
 1403 0845 01       		.byte	0x1
 1404 0846 00       		.uleb128 0
 1405 0847 5F5F5743 		.ascii "__WCHAR_MAX__ 65535\0"
 1405      4841525F 
 1405      4D41585F 
 1405      5F203635 
GAS LISTING C:\Users\PRESID~1\AppData\Local\Temp\cccpOaUn.s 			page 42


 1405      35333500 
 1406 085b 01       		.byte	0x1
 1407 085c 00       		.uleb128 0
 1408 085d 5F5F5743 		.ascii "__WCHAR_MIN__ 0\0"
 1408      4841525F 
 1408      4D494E5F 
 1408      5F203000 
 1409 086d 01       		.byte	0x1
 1410 086e 00       		.uleb128 0
 1411 086f 5F5F5749 		.ascii "__WINT_MAX__ 65535\0"
 1411      4E545F4D 
 1411      41585F5F 
 1411      20363535 
 1411      333500
 1412 0882 01       		.byte	0x1
 1413 0883 00       		.uleb128 0
 1414 0884 5F5F5749 		.ascii "__WINT_MIN__ 0\0"
 1414      4E545F4D 
 1414      494E5F5F 
 1414      203000
 1415 0893 01       		.byte	0x1
 1416 0894 00       		.uleb128 0
 1417 0895 5F5F5054 		.ascii "__PTRDIFF_MAX__ 2147483647\0"
 1417      52444946 
 1417      465F4D41 
 1417      585F5F20 
 1417      32313437 
 1418 08b0 01       		.byte	0x1
 1419 08b1 00       		.uleb128 0
 1420 08b2 5F5F5349 		.ascii "__SIZE_MAX__ 4294967295U\0"
 1420      5A455F4D 
 1420      41585F5F 
 1420      20343239 
 1420      34393637 
 1421 08cb 01       		.byte	0x1
 1422 08cc 00       		.uleb128 0
 1423 08cd 5F5F494E 		.ascii "__INTMAX_MAX__ 9223372036854775807LL\0"
 1423      544D4158 
 1423      5F4D4158 
 1423      5F5F2039 
 1423      32323333 
 1424 08f2 01       		.byte	0x1
 1425 08f3 00       		.uleb128 0
 1426 08f4 5F5F494E 		.ascii "__INTMAX_C(c) c ## LL\0"
 1426      544D4158 
 1426      5F432863 
 1426      29206320 
 1426      2323204C 
 1427 090a 01       		.byte	0x1
 1428 090b 00       		.uleb128 0
 1429 090c 5F5F5549 		.ascii "__UINTMAX_MAX__ 18446744073709551615ULL\0"
 1429      4E544D41 
 1429      585F4D41 
 1429      585F5F20 
 1429      31383434 
 1430 0934 01       		.byte	0x1
 1431 0935 00       		.uleb128 0
GAS LISTING C:\Users\PRESID~1\AppData\Local\Temp\cccpOaUn.s 			page 43


 1432 0936 5F5F5549 		.ascii "__UINTMAX_C(c) c ## ULL\0"
 1432      4E544D41 
 1432      585F4328 
 1432      63292063 
 1432      20232320 
 1433 094e 01       		.byte	0x1
 1434 094f 00       		.uleb128 0
 1435 0950 5F5F5349 		.ascii "__SIG_ATOMIC_MAX__ 2147483647\0"
 1435      475F4154 
 1435      4F4D4943 
 1435      5F4D4158 
 1435      5F5F2032 
 1436 096e 01       		.byte	0x1
 1437 096f 00       		.uleb128 0
 1438 0970 5F5F5349 		.ascii "__SIG_ATOMIC_MIN__ (-__SIG_ATOMIC_MAX__ - 1)\0"
 1438      475F4154 
 1438      4F4D4943 
 1438      5F4D494E 
 1438      5F5F2028 
 1439 099d 01       		.byte	0x1
 1440 099e 00       		.uleb128 0
 1441 099f 5F5F494E 		.ascii "__INT8_MAX__ 127\0"
 1441      54385F4D 
 1441      41585F5F 
 1441      20313237 
 1441      00
 1442 09b0 01       		.byte	0x1
 1443 09b1 00       		.uleb128 0
 1444 09b2 5F5F494E 		.ascii "__INT16_MAX__ 32767\0"
 1444      5431365F 
 1444      4D41585F 
 1444      5F203332 
 1444      37363700 
 1445 09c6 01       		.byte	0x1
 1446 09c7 00       		.uleb128 0
 1447 09c8 5F5F494E 		.ascii "__INT32_MAX__ 2147483647\0"
 1447      5433325F 
 1447      4D41585F 
 1447      5F203231 
 1447      34373438 
 1448 09e1 01       		.byte	0x1
 1449 09e2 00       		.uleb128 0
 1450 09e3 5F5F494E 		.ascii "__INT64_MAX__ 9223372036854775807LL\0"
 1450      5436345F 
 1450      4D41585F 
 1450      5F203932 
 1450      32333337 
 1451 0a07 01       		.byte	0x1
 1452 0a08 00       		.uleb128 0
 1453 0a09 5F5F5549 		.ascii "__UINT8_MAX__ 255\0"
 1453      4E54385F 
 1453      4D41585F 
 1453      5F203235 
 1453      3500
 1454 0a1b 01       		.byte	0x1
 1455 0a1c 00       		.uleb128 0
 1456 0a1d 5F5F5549 		.ascii "__UINT16_MAX__ 65535\0"
GAS LISTING C:\Users\PRESID~1\AppData\Local\Temp\cccpOaUn.s 			page 44


 1456      4E543136 
 1456      5F4D4158 
 1456      5F5F2036 
 1456      35353335 
 1457 0a32 01       		.byte	0x1
 1458 0a33 00       		.uleb128 0
 1459 0a34 5F5F5549 		.ascii "__UINT32_MAX__ 4294967295U\0"
 1459      4E543332 
 1459      5F4D4158 
 1459      5F5F2034 
 1459      32393439 
 1460 0a4f 01       		.byte	0x1
 1461 0a50 00       		.uleb128 0
 1462 0a51 5F5F5549 		.ascii "__UINT64_MAX__ 18446744073709551615ULL\0"
 1462      4E543634 
 1462      5F4D4158 
 1462      5F5F2031 
 1462      38343436 
 1463 0a78 01       		.byte	0x1
 1464 0a79 00       		.uleb128 0
 1465 0a7a 5F5F494E 		.ascii "__INT_LEAST8_MAX__ 127\0"
 1465      545F4C45 
 1465      41535438 
 1465      5F4D4158 
 1465      5F5F2031 
 1466 0a91 01       		.byte	0x1
 1467 0a92 00       		.uleb128 0
 1468 0a93 5F5F494E 		.ascii "__INT8_C(c) c\0"
 1468      54385F43 
 1468      28632920 
 1468      6300
 1469 0aa1 01       		.byte	0x1
 1470 0aa2 00       		.uleb128 0
 1471 0aa3 5F5F494E 		.ascii "__INT_LEAST16_MAX__ 32767\0"
 1471      545F4C45 
 1471      41535431 
 1471      365F4D41 
 1471      585F5F20 
 1472 0abd 01       		.byte	0x1
 1473 0abe 00       		.uleb128 0
 1474 0abf 5F5F494E 		.ascii "__INT16_C(c) c\0"
 1474      5431365F 
 1474      43286329 
 1474      206300
 1475 0ace 01       		.byte	0x1
 1476 0acf 00       		.uleb128 0
 1477 0ad0 5F5F494E 		.ascii "__INT_LEAST32_MAX__ 2147483647\0"
 1477      545F4C45 
 1477      41535433 
 1477      325F4D41 
 1477      585F5F20 
 1478 0aef 01       		.byte	0x1
 1479 0af0 00       		.uleb128 0
 1480 0af1 5F5F494E 		.ascii "__INT32_C(c) c\0"
 1480      5433325F 
 1480      43286329 
 1480      206300
GAS LISTING C:\Users\PRESID~1\AppData\Local\Temp\cccpOaUn.s 			page 45


 1481 0b00 01       		.byte	0x1
 1482 0b01 00       		.uleb128 0
 1483 0b02 5F5F494E 		.ascii "__INT_LEAST64_MAX__ 9223372036854775807LL\0"
 1483      545F4C45 
 1483      41535436 
 1483      345F4D41 
 1483      585F5F20 
 1484 0b2c 01       		.byte	0x1
 1485 0b2d 00       		.uleb128 0
 1486 0b2e 5F5F494E 		.ascii "__INT64_C(c) c ## LL\0"
 1486      5436345F 
 1486      43286329 
 1486      20632023 
 1486      23204C4C 
 1487 0b43 01       		.byte	0x1
 1488 0b44 00       		.uleb128 0
 1489 0b45 5F5F5549 		.ascii "__UINT_LEAST8_MAX__ 255\0"
 1489      4E545F4C 
 1489      45415354 
 1489      385F4D41 
 1489      585F5F20 
 1490 0b5d 01       		.byte	0x1
 1491 0b5e 00       		.uleb128 0
 1492 0b5f 5F5F5549 		.ascii "__UINT8_C(c) c\0"
 1492      4E54385F 
 1492      43286329 
 1492      206300
 1493 0b6e 01       		.byte	0x1
 1494 0b6f 00       		.uleb128 0
 1495 0b70 5F5F5549 		.ascii "__UINT_LEAST16_MAX__ 65535\0"
 1495      4E545F4C 
 1495      45415354 
 1495      31365F4D 
 1495      41585F5F 
 1496 0b8b 01       		.byte	0x1
 1497 0b8c 00       		.uleb128 0
 1498 0b8d 5F5F5549 		.ascii "__UINT16_C(c) c\0"
 1498      4E543136 
 1498      5F432863 
 1498      29206300 
 1499 0b9d 01       		.byte	0x1
 1500 0b9e 00       		.uleb128 0
 1501 0b9f 5F5F5549 		.ascii "__UINT_LEAST32_MAX__ 4294967295U\0"
 1501      4E545F4C 
 1501      45415354 
 1501      33325F4D 
 1501      41585F5F 
 1502 0bc0 01       		.byte	0x1
 1503 0bc1 00       		.uleb128 0
 1504 0bc2 5F5F5549 		.ascii "__UINT32_C(c) c ## U\0"
 1504      4E543332 
 1504      5F432863 
 1504      29206320 
 1504      23232055 
 1505 0bd7 01       		.byte	0x1
 1506 0bd8 00       		.uleb128 0
 1507 0bd9 5F5F5549 		.ascii "__UINT_LEAST64_MAX__ 18446744073709551615ULL\0"
GAS LISTING C:\Users\PRESID~1\AppData\Local\Temp\cccpOaUn.s 			page 46


 1507      4E545F4C 
 1507      45415354 
 1507      36345F4D 
 1507      41585F5F 
 1508 0c06 01       		.byte	0x1
 1509 0c07 00       		.uleb128 0
 1510 0c08 5F5F5549 		.ascii "__UINT64_C(c) c ## ULL\0"
 1510      4E543634 
 1510      5F432863 
 1510      29206320 
 1510      23232055 
 1511 0c1f 01       		.byte	0x1
 1512 0c20 00       		.uleb128 0
 1513 0c21 5F5F494E 		.ascii "__INT_FAST8_MAX__ 127\0"
 1513      545F4641 
 1513      5354385F 
 1513      4D41585F 
 1513      5F203132 
 1514 0c37 01       		.byte	0x1
 1515 0c38 00       		.uleb128 0
 1516 0c39 5F5F494E 		.ascii "__INT_FAST16_MAX__ 32767\0"
 1516      545F4641 
 1516      53543136 
 1516      5F4D4158 
 1516      5F5F2033 
 1517 0c52 01       		.byte	0x1
 1518 0c53 00       		.uleb128 0
 1519 0c54 5F5F494E 		.ascii "__INT_FAST32_MAX__ 2147483647\0"
 1519      545F4641 
 1519      53543332 
 1519      5F4D4158 
 1519      5F5F2032 
 1520 0c72 01       		.byte	0x1
 1521 0c73 00       		.uleb128 0
 1522 0c74 5F5F494E 		.ascii "__INT_FAST64_MAX__ 9223372036854775807LL\0"
 1522      545F4641 
 1522      53543634 
 1522      5F4D4158 
 1522      5F5F2039 
 1523 0c9d 01       		.byte	0x1
 1524 0c9e 00       		.uleb128 0
 1525 0c9f 5F5F5549 		.ascii "__UINT_FAST8_MAX__ 255\0"
 1525      4E545F46 
 1525      41535438 
 1525      5F4D4158 
 1525      5F5F2032 
 1526 0cb6 01       		.byte	0x1
 1527 0cb7 00       		.uleb128 0
 1528 0cb8 5F5F5549 		.ascii "__UINT_FAST16_MAX__ 65535\0"
 1528      4E545F46 
 1528      41535431 
 1528      365F4D41 
 1528      585F5F20 
 1529 0cd2 01       		.byte	0x1
 1530 0cd3 00       		.uleb128 0
 1531 0cd4 5F5F5549 		.ascii "__UINT_FAST32_MAX__ 4294967295U\0"
 1531      4E545F46 
GAS LISTING C:\Users\PRESID~1\AppData\Local\Temp\cccpOaUn.s 			page 47


 1531      41535433 
 1531      325F4D41 
 1531      585F5F20 
 1532 0cf4 01       		.byte	0x1
 1533 0cf5 00       		.uleb128 0
 1534 0cf6 5F5F5549 		.ascii "__UINT_FAST64_MAX__ 18446744073709551615ULL\0"
 1534      4E545F46 
 1534      41535436 
 1534      345F4D41 
 1534      585F5F20 
 1535 0d22 01       		.byte	0x1
 1536 0d23 00       		.uleb128 0
 1537 0d24 5F5F494E 		.ascii "__INTPTR_MAX__ 2147483647\0"
 1537      54505452 
 1537      5F4D4158 
 1537      5F5F2032 
 1537      31343734 
 1538 0d3e 01       		.byte	0x1
 1539 0d3f 00       		.uleb128 0
 1540 0d40 5F5F5549 		.ascii "__UINTPTR_MAX__ 4294967295U\0"
 1540      4E545054 
 1540      525F4D41 
 1540      585F5F20 
 1540      34323934 
 1541 0d5c 01       		.byte	0x1
 1542 0d5d 00       		.uleb128 0
 1543 0d5e 5F5F4743 		.ascii "__GCC_IEC_559 2\0"
 1543      435F4945 
 1543      435F3535 
 1543      39203200 
 1544 0d6e 01       		.byte	0x1
 1545 0d6f 00       		.uleb128 0
 1546 0d70 5F5F4743 		.ascii "__GCC_IEC_559_COMPLEX 2\0"
 1546      435F4945 
 1546      435F3535 
 1546      395F434F 
 1546      4D504C45 
 1547 0d88 01       		.byte	0x1
 1548 0d89 00       		.uleb128 0
 1549 0d8a 5F5F464C 		.ascii "__FLT_EVAL_METHOD__ 2\0"
 1549      545F4556 
 1549      414C5F4D 
 1549      4554484F 
 1549      445F5F20 
 1550 0da0 01       		.byte	0x1
 1551 0da1 00       		.uleb128 0
 1552 0da2 5F5F4445 		.ascii "__DEC_EVAL_METHOD__ 2\0"
 1552      435F4556 
 1552      414C5F4D 
 1552      4554484F 
 1552      445F5F20 
 1553 0db8 01       		.byte	0x1
 1554 0db9 00       		.uleb128 0
 1555 0dba 5F5F464C 		.ascii "__FLT_RADIX__ 2\0"
 1555      545F5241 
 1555      4449585F 
 1555      5F203200 
GAS LISTING C:\Users\PRESID~1\AppData\Local\Temp\cccpOaUn.s 			page 48


 1556 0dca 01       		.byte	0x1
 1557 0dcb 00       		.uleb128 0
 1558 0dcc 5F5F464C 		.ascii "__FLT_MANT_DIG__ 24\0"
 1558      545F4D41 
 1558      4E545F44 
 1558      49475F5F 
 1558      20323400 
 1559 0de0 01       		.byte	0x1
 1560 0de1 00       		.uleb128 0
 1561 0de2 5F5F464C 		.ascii "__FLT_DIG__ 6\0"
 1561      545F4449 
 1561      475F5F20 
 1561      3600
 1562 0df0 01       		.byte	0x1
 1563 0df1 00       		.uleb128 0
 1564 0df2 5F5F464C 		.ascii "__FLT_MIN_EXP__ (-125)\0"
 1564      545F4D49 
 1564      4E5F4558 
 1564      505F5F20 
 1564      282D3132 
 1565 0e09 01       		.byte	0x1
 1566 0e0a 00       		.uleb128 0
 1567 0e0b 5F5F464C 		.ascii "__FLT_MIN_10_EXP__ (-37)\0"
 1567      545F4D49 
 1567      4E5F3130 
 1567      5F455850 
 1567      5F5F2028 
 1568 0e24 01       		.byte	0x1
 1569 0e25 00       		.uleb128 0
 1570 0e26 5F5F464C 		.ascii "__FLT_MAX_EXP__ 128\0"
 1570      545F4D41 
 1570      585F4558 
 1570      505F5F20 
 1570      31323800 
 1571 0e3a 01       		.byte	0x1
 1572 0e3b 00       		.uleb128 0
 1573 0e3c 5F5F464C 		.ascii "__FLT_MAX_10_EXP__ 38\0"
 1573      545F4D41 
 1573      585F3130 
 1573      5F455850 
 1573      5F5F2033 
 1574 0e52 01       		.byte	0x1
 1575 0e53 00       		.uleb128 0
 1576 0e54 5F5F464C 		.ascii "__FLT_DECIMAL_DIG__ 9\0"
 1576      545F4445 
 1576      43494D41 
 1576      4C5F4449 
 1576      475F5F20 
 1577 0e6a 01       		.byte	0x1
 1578 0e6b 00       		.uleb128 0
 1579 0e6c 5F5F464C 		.ascii "__FLT_MAX__ 3.40282346638528859812e+38F\0"
 1579      545F4D41 
 1579      585F5F20 
 1579      332E3430 
 1579      32383233 
 1580 0e94 01       		.byte	0x1
 1581 0e95 00       		.uleb128 0
GAS LISTING C:\Users\PRESID~1\AppData\Local\Temp\cccpOaUn.s 			page 49


 1582 0e96 5F5F464C 		.ascii "__FLT_MIN__ 1.17549435082228750797e-38F\0"
 1582      545F4D49 
 1582      4E5F5F20 
 1582      312E3137 
 1582      35343934 
 1583 0ebe 01       		.byte	0x1
 1584 0ebf 00       		.uleb128 0
 1585 0ec0 5F5F464C 		.ascii "__FLT_EPSILON__ 1.19209289550781250000e-7F\0"
 1585      545F4550 
 1585      53494C4F 
 1585      4E5F5F20 
 1585      312E3139 
 1586 0eeb 01       		.byte	0x1
 1587 0eec 00       		.uleb128 0
 1588 0eed 5F5F464C 		.ascii "__FLT_DENORM_MIN__ 1.40129846432481707092e-45F\0"
 1588      545F4445 
 1588      4E4F524D 
 1588      5F4D494E 
 1588      5F5F2031 
 1589 0f1c 01       		.byte	0x1
 1590 0f1d 00       		.uleb128 0
 1591 0f1e 5F5F464C 		.ascii "__FLT_HAS_DENORM__ 1\0"
 1591      545F4841 
 1591      535F4445 
 1591      4E4F524D 
 1591      5F5F2031 
 1592 0f33 01       		.byte	0x1
 1593 0f34 00       		.uleb128 0
 1594 0f35 5F5F464C 		.ascii "__FLT_HAS_INFINITY__ 1\0"
 1594      545F4841 
 1594      535F494E 
 1594      46494E49 
 1594      54595F5F 
 1595 0f4c 01       		.byte	0x1
 1596 0f4d 00       		.uleb128 0
 1597 0f4e 5F5F464C 		.ascii "__FLT_HAS_QUIET_NAN__ 1\0"
 1597      545F4841 
 1597      535F5155 
 1597      4945545F 
 1597      4E414E5F 
 1598 0f66 01       		.byte	0x1
 1599 0f67 00       		.uleb128 0
 1600 0f68 5F5F4442 		.ascii "__DBL_MANT_DIG__ 53\0"
 1600      4C5F4D41 
 1600      4E545F44 
 1600      49475F5F 
 1600      20353300 
 1601 0f7c 01       		.byte	0x1
 1602 0f7d 00       		.uleb128 0
 1603 0f7e 5F5F4442 		.ascii "__DBL_DIG__ 15\0"
 1603      4C5F4449 
 1603      475F5F20 
 1603      313500
 1604 0f8d 01       		.byte	0x1
 1605 0f8e 00       		.uleb128 0
 1606 0f8f 5F5F4442 		.ascii "__DBL_MIN_EXP__ (-1021)\0"
 1606      4C5F4D49 
GAS LISTING C:\Users\PRESID~1\AppData\Local\Temp\cccpOaUn.s 			page 50


 1606      4E5F4558 
 1606      505F5F20 
 1606      282D3130 
 1607 0fa7 01       		.byte	0x1
 1608 0fa8 00       		.uleb128 0
 1609 0fa9 5F5F4442 		.ascii "__DBL_MIN_10_EXP__ (-307)\0"
 1609      4C5F4D49 
 1609      4E5F3130 
 1609      5F455850 
 1609      5F5F2028 
 1610 0fc3 01       		.byte	0x1
 1611 0fc4 00       		.uleb128 0
 1612 0fc5 5F5F4442 		.ascii "__DBL_MAX_EXP__ 1024\0"
 1612      4C5F4D41 
 1612      585F4558 
 1612      505F5F20 
 1612      31303234 
 1613 0fda 01       		.byte	0x1
 1614 0fdb 00       		.uleb128 0
 1615 0fdc 5F5F4442 		.ascii "__DBL_MAX_10_EXP__ 308\0"
 1615      4C5F4D41 
 1615      585F3130 
 1615      5F455850 
 1615      5F5F2033 
 1616 0ff3 01       		.byte	0x1
 1617 0ff4 00       		.uleb128 0
 1618 0ff5 5F5F4442 		.ascii "__DBL_DECIMAL_DIG__ 17\0"
 1618      4C5F4445 
 1618      43494D41 
 1618      4C5F4449 
 1618      475F5F20 
 1619 100c 01       		.byte	0x1
 1620 100d 00       		.uleb128 0
 1621 100e 5F5F4442 		.ascii "__DBL_MAX__ ((double)1.79769313486231570815e+308L)\0"
 1621      4C5F4D41 
 1621      585F5F20 
 1621      2828646F 
 1621      75626C65 
 1622 1041 01       		.byte	0x1
 1623 1042 00       		.uleb128 0
 1624 1043 5F5F4442 		.ascii "__DBL_MIN__ ((double)2.22507385850720138309e-308L)\0"
 1624      4C5F4D49 
 1624      4E5F5F20 
 1624      2828646F 
 1624      75626C65 
 1625 1076 01       		.byte	0x1
 1626 1077 00       		.uleb128 0
 1627 1078 5F5F4442 		.ascii "__DBL_EPSILON__ ((double)2.22044604925031308085e-16L)\0"
 1627      4C5F4550 
 1627      53494C4F 
 1627      4E5F5F20 
 1627      2828646F 
 1628 10ae 01       		.byte	0x1
 1629 10af 00       		.uleb128 0
 1630 10b0 5F5F4442 		.ascii "__DBL_DENORM_MIN__ ((double)4.94065645841246544177e-324L)\0"
 1630      4C5F4445 
 1630      4E4F524D 
GAS LISTING C:\Users\PRESID~1\AppData\Local\Temp\cccpOaUn.s 			page 51


 1630      5F4D494E 
 1630      5F5F2028 
 1631 10ea 01       		.byte	0x1
 1632 10eb 00       		.uleb128 0
 1633 10ec 5F5F4442 		.ascii "__DBL_HAS_DENORM__ 1\0"
 1633      4C5F4841 
 1633      535F4445 
 1633      4E4F524D 
 1633      5F5F2031 
 1634 1101 01       		.byte	0x1
 1635 1102 00       		.uleb128 0
 1636 1103 5F5F4442 		.ascii "__DBL_HAS_INFINITY__ 1\0"
 1636      4C5F4841 
 1636      535F494E 
 1636      46494E49 
 1636      54595F5F 
 1637 111a 01       		.byte	0x1
 1638 111b 00       		.uleb128 0
 1639 111c 5F5F4442 		.ascii "__DBL_HAS_QUIET_NAN__ 1\0"
 1639      4C5F4841 
 1639      535F5155 
 1639      4945545F 
 1639      4E414E5F 
 1640 1134 01       		.byte	0x1
 1641 1135 00       		.uleb128 0
 1642 1136 5F5F4C44 		.ascii "__LDBL_MANT_DIG__ 64\0"
 1642      424C5F4D 
 1642      414E545F 
 1642      4449475F 
 1642      5F203634 
 1643 114b 01       		.byte	0x1
 1644 114c 00       		.uleb128 0
 1645 114d 5F5F4C44 		.ascii "__LDBL_DIG__ 18\0"
 1645      424C5F44 
 1645      49475F5F 
 1645      20313800 
 1646 115d 01       		.byte	0x1
 1647 115e 00       		.uleb128 0
 1648 115f 5F5F4C44 		.ascii "__LDBL_MIN_EXP__ (-16381)\0"
 1648      424C5F4D 
 1648      494E5F45 
 1648      58505F5F 
 1648      20282D31 
 1649 1179 01       		.byte	0x1
 1650 117a 00       		.uleb128 0
 1651 117b 5F5F4C44 		.ascii "__LDBL_MIN_10_EXP__ (-4931)\0"
 1651      424C5F4D 
 1651      494E5F31 
 1651      305F4558 
 1651      505F5F20 
 1652 1197 01       		.byte	0x1
 1653 1198 00       		.uleb128 0
 1654 1199 5F5F4C44 		.ascii "__LDBL_MAX_EXP__ 16384\0"
 1654      424C5F4D 
 1654      41585F45 
 1654      58505F5F 
 1654      20313633 
GAS LISTING C:\Users\PRESID~1\AppData\Local\Temp\cccpOaUn.s 			page 52


 1655 11b0 01       		.byte	0x1
 1656 11b1 00       		.uleb128 0
 1657 11b2 5F5F4C44 		.ascii "__LDBL_MAX_10_EXP__ 4932\0"
 1657      424C5F4D 
 1657      41585F31 
 1657      305F4558 
 1657      505F5F20 
 1658 11cb 01       		.byte	0x1
 1659 11cc 00       		.uleb128 0
 1660 11cd 5F5F4445 		.ascii "__DECIMAL_DIG__ 21\0"
 1660      43494D41 
 1660      4C5F4449 
 1660      475F5F20 
 1660      323100
 1661 11e0 01       		.byte	0x1
 1662 11e1 00       		.uleb128 0
 1663 11e2 5F5F4C44 		.ascii "__LDBL_MAX__ 1.18973149535723176502e+4932L\0"
 1663      424C5F4D 
 1663      41585F5F 
 1663      20312E31 
 1663      38393733 
 1664 120d 01       		.byte	0x1
 1665 120e 00       		.uleb128 0
 1666 120f 5F5F4C44 		.ascii "__LDBL_MIN__ 3.36210314311209350626e-4932L\0"
 1666      424C5F4D 
 1666      494E5F5F 
 1666      20332E33 
 1666      36323130 
 1667 123a 01       		.byte	0x1
 1668 123b 00       		.uleb128 0
 1669 123c 5F5F4C44 		.ascii "__LDBL_EPSILON__ 1.08420217248550443401e-19L\0"
 1669      424C5F45 
 1669      5053494C 
 1669      4F4E5F5F 
 1669      20312E30 
 1670 1269 01       		.byte	0x1
 1671 126a 00       		.uleb128 0
 1672 126b 5F5F4C44 		.ascii "__LDBL_DENORM_MIN__ 3.64519953188247460253e-4951L\0"
 1672      424C5F44 
 1672      454E4F52 
 1672      4D5F4D49 
 1672      4E5F5F20 
 1673 129d 01       		.byte	0x1
 1674 129e 00       		.uleb128 0
 1675 129f 5F5F4C44 		.ascii "__LDBL_HAS_DENORM__ 1\0"
 1675      424C5F48 
 1675      41535F44 
 1675      454E4F52 
 1675      4D5F5F20 
 1676 12b5 01       		.byte	0x1
 1677 12b6 00       		.uleb128 0
 1678 12b7 5F5F4C44 		.ascii "__LDBL_HAS_INFINITY__ 1\0"
 1678      424C5F48 
 1678      41535F49 
 1678      4E46494E 
 1678      4954595F 
 1679 12cf 01       		.byte	0x1
GAS LISTING C:\Users\PRESID~1\AppData\Local\Temp\cccpOaUn.s 			page 53


 1680 12d0 00       		.uleb128 0
 1681 12d1 5F5F4C44 		.ascii "__LDBL_HAS_QUIET_NAN__ 1\0"
 1681      424C5F48 
 1681      41535F51 
 1681      55494554 
 1681      5F4E414E 
 1682 12ea 01       		.byte	0x1
 1683 12eb 00       		.uleb128 0
 1684 12ec 5F5F4445 		.ascii "__DEC32_MANT_DIG__ 7\0"
 1684      4333325F 
 1684      4D414E54 
 1684      5F444947 
 1684      5F5F2037 
 1685 1301 01       		.byte	0x1
 1686 1302 00       		.uleb128 0
 1687 1303 5F5F4445 		.ascii "__DEC32_MIN_EXP__ (-94)\0"
 1687      4333325F 
 1687      4D494E5F 
 1687      4558505F 
 1687      5F20282D 
 1688 131b 01       		.byte	0x1
 1689 131c 00       		.uleb128 0
 1690 131d 5F5F4445 		.ascii "__DEC32_MAX_EXP__ 97\0"
 1690      4333325F 
 1690      4D41585F 
 1690      4558505F 
 1690      5F203937 
 1691 1332 01       		.byte	0x1
 1692 1333 00       		.uleb128 0
 1693 1334 5F5F4445 		.ascii "__DEC32_MIN__ 1E-95DF\0"
 1693      4333325F 
 1693      4D494E5F 
 1693      5F203145 
 1693      2D393544 
 1694 134a 01       		.byte	0x1
 1695 134b 00       		.uleb128 0
 1696 134c 5F5F4445 		.ascii "__DEC32_MAX__ 9.999999E96DF\0"
 1696      4333325F 
 1696      4D41585F 
 1696      5F20392E 
 1696      39393939 
 1697 1368 01       		.byte	0x1
 1698 1369 00       		.uleb128 0
 1699 136a 5F5F4445 		.ascii "__DEC32_EPSILON__ 1E-6DF\0"
 1699      4333325F 
 1699      45505349 
 1699      4C4F4E5F 
 1699      5F203145 
 1700 1383 01       		.byte	0x1
 1701 1384 00       		.uleb128 0
 1702 1385 5F5F4445 		.ascii "__DEC32_SUBNORMAL_MIN__ 0.000001E-95DF\0"
 1702      4333325F 
 1702      5355424E 
 1702      4F524D41 
 1702      4C5F4D49 
 1703 13ac 01       		.byte	0x1
 1704 13ad 00       		.uleb128 0
GAS LISTING C:\Users\PRESID~1\AppData\Local\Temp\cccpOaUn.s 			page 54


 1705 13ae 5F5F4445 		.ascii "__DEC64_MANT_DIG__ 16\0"
 1705      4336345F 
 1705      4D414E54 
 1705      5F444947 
 1705      5F5F2031 
 1706 13c4 01       		.byte	0x1
 1707 13c5 00       		.uleb128 0
 1708 13c6 5F5F4445 		.ascii "__DEC64_MIN_EXP__ (-382)\0"
 1708      4336345F 
 1708      4D494E5F 
 1708      4558505F 
 1708      5F20282D 
 1709 13df 01       		.byte	0x1
 1710 13e0 00       		.uleb128 0
 1711 13e1 5F5F4445 		.ascii "__DEC64_MAX_EXP__ 385\0"
 1711      4336345F 
 1711      4D41585F 
 1711      4558505F 
 1711      5F203338 
 1712 13f7 01       		.byte	0x1
 1713 13f8 00       		.uleb128 0
 1714 13f9 5F5F4445 		.ascii "__DEC64_MIN__ 1E-383DD\0"
 1714      4336345F 
 1714      4D494E5F 
 1714      5F203145 
 1714      2D333833 
 1715 1410 01       		.byte	0x1
 1716 1411 00       		.uleb128 0
 1717 1412 5F5F4445 		.ascii "__DEC64_MAX__ 9.999999999999999E384DD\0"
 1717      4336345F 
 1717      4D41585F 
 1717      5F20392E 
 1717      39393939 
 1718 1438 01       		.byte	0x1
 1719 1439 00       		.uleb128 0
 1720 143a 5F5F4445 		.ascii "__DEC64_EPSILON__ 1E-15DD\0"
 1720      4336345F 
 1720      45505349 
 1720      4C4F4E5F 
 1720      5F203145 
 1721 1454 01       		.byte	0x1
 1722 1455 00       		.uleb128 0
 1723 1456 5F5F4445 		.ascii "__DEC64_SUBNORMAL_MIN__ 0.000000000000001E-383DD\0"
 1723      4336345F 
 1723      5355424E 
 1723      4F524D41 
 1723      4C5F4D49 
 1724 1487 01       		.byte	0x1
 1725 1488 00       		.uleb128 0
 1726 1489 5F5F4445 		.ascii "__DEC128_MANT_DIG__ 34\0"
 1726      43313238 
 1726      5F4D414E 
 1726      545F4449 
 1726      475F5F20 
 1727 14a0 01       		.byte	0x1
 1728 14a1 00       		.uleb128 0
 1729 14a2 5F5F4445 		.ascii "__DEC128_MIN_EXP__ (-6142)\0"
GAS LISTING C:\Users\PRESID~1\AppData\Local\Temp\cccpOaUn.s 			page 55


 1729      43313238 
 1729      5F4D494E 
 1729      5F455850 
 1729      5F5F2028 
 1730 14bd 01       		.byte	0x1
 1731 14be 00       		.uleb128 0
 1732 14bf 5F5F4445 		.ascii "__DEC128_MAX_EXP__ 6145\0"
 1732      43313238 
 1732      5F4D4158 
 1732      5F455850 
 1732      5F5F2036 
 1733 14d7 01       		.byte	0x1
 1734 14d8 00       		.uleb128 0
 1735 14d9 5F5F4445 		.ascii "__DEC128_MIN__ 1E-6143DL\0"
 1735      43313238 
 1735      5F4D494E 
 1735      5F5F2031 
 1735      452D3631 
 1736 14f2 01       		.byte	0x1
 1737 14f3 00       		.uleb128 0
 1738 14f4 5F5F4445 		.ascii "__DEC128_MAX__ 9.999999999999999999999999999999999E6144DL\0"
 1738      43313238 
 1738      5F4D4158 
 1738      5F5F2039 
 1738      2E393939 
 1739 152e 01       		.byte	0x1
 1740 152f 00       		.uleb128 0
 1741 1530 5F5F4445 		.ascii "__DEC128_EPSILON__ 1E-33DL\0"
 1741      43313238 
 1741      5F455053 
 1741      494C4F4E 
 1741      5F5F2031 
 1742 154b 01       		.byte	0x1
 1743 154c 00       		.uleb128 0
 1744 154d 5F5F4445 		.ascii "__DEC128_SUBNORMAL_MIN__ 0.000000000000000000000000000000001E-6143DL\0"
 1744      43313238 
 1744      5F535542 
 1744      4E4F524D 
 1744      414C5F4D 
 1745 1592 01       		.byte	0x1
 1746 1593 00       		.uleb128 0
 1747 1594 5F5F5245 		.ascii "__REGISTER_PREFIX__ \0"
 1747      47495354 
 1747      45525F50 
 1747      52454649 
 1747      585F5F20 
 1748 15a9 01       		.byte	0x1
 1749 15aa 00       		.uleb128 0
 1750 15ab 5F5F5553 		.ascii "__USER_LABEL_PREFIX__ _\0"
 1750      45525F4C 
 1750      4142454C 
 1750      5F505245 
 1750      4649585F 
 1751 15c3 01       		.byte	0x1
 1752 15c4 00       		.uleb128 0
 1753 15c5 5F5F474E 		.ascii "__GNUC_GNU_INLINE__ 1\0"
 1753      55435F47 
GAS LISTING C:\Users\PRESID~1\AppData\Local\Temp\cccpOaUn.s 			page 56


 1753      4E555F49 
 1753      4E4C494E 
 1753      455F5F20 
 1754 15db 01       		.byte	0x1
 1755 15dc 00       		.uleb128 0
 1756 15dd 5F5F4E4F 		.ascii "__NO_INLINE__ 1\0"
 1756      5F494E4C 
 1756      494E455F 
 1756      5F203100 
 1757 15ed 01       		.byte	0x1
 1758 15ee 00       		.uleb128 0
 1759 15ef 5F5F5354 		.ascii "__STRICT_ANSI__ 1\0"
 1759      52494354 
 1759      5F414E53 
 1759      495F5F20 
 1759      3100
 1760 1601 01       		.byte	0x1
 1761 1602 00       		.uleb128 0
 1762 1603 5F5F4743 		.ascii "__GCC_ATOMIC_BOOL_LOCK_FREE 1\0"
 1762      435F4154 
 1762      4F4D4943 
 1762      5F424F4F 
 1762      4C5F4C4F 
 1763 1621 01       		.byte	0x1
 1764 1622 00       		.uleb128 0
 1765 1623 5F5F4743 		.ascii "__GCC_ATOMIC_CHAR_LOCK_FREE 1\0"
 1765      435F4154 
 1765      4F4D4943 
 1765      5F434841 
 1765      525F4C4F 
 1766 1641 01       		.byte	0x1
 1767 1642 00       		.uleb128 0
 1768 1643 5F5F4743 		.ascii "__GCC_ATOMIC_CHAR16_T_LOCK_FREE 1\0"
 1768      435F4154 
 1768      4F4D4943 
 1768      5F434841 
 1768      5231365F 
 1769 1665 01       		.byte	0x1
 1770 1666 00       		.uleb128 0
 1771 1667 5F5F4743 		.ascii "__GCC_ATOMIC_CHAR32_T_LOCK_FREE 1\0"
 1771      435F4154 
 1771      4F4D4943 
 1771      5F434841 
 1771      5233325F 
 1772 1689 01       		.byte	0x1
 1773 168a 00       		.uleb128 0
 1774 168b 5F5F4743 		.ascii "__GCC_ATOMIC_WCHAR_T_LOCK_FREE 1\0"
 1774      435F4154 
 1774      4F4D4943 
 1774      5F574348 
 1774      41525F54 
 1775 16ac 01       		.byte	0x1
 1776 16ad 00       		.uleb128 0
 1777 16ae 5F5F4743 		.ascii "__GCC_ATOMIC_SHORT_LOCK_FREE 1\0"
 1777      435F4154 
 1777      4F4D4943 
 1777      5F53484F 
GAS LISTING C:\Users\PRESID~1\AppData\Local\Temp\cccpOaUn.s 			page 57


 1777      52545F4C 
 1778 16cd 01       		.byte	0x1
 1779 16ce 00       		.uleb128 0
 1780 16cf 5F5F4743 		.ascii "__GCC_ATOMIC_INT_LOCK_FREE 1\0"
 1780      435F4154 
 1780      4F4D4943 
 1780      5F494E54 
 1780      5F4C4F43 
 1781 16ec 01       		.byte	0x1
 1782 16ed 00       		.uleb128 0
 1783 16ee 5F5F4743 		.ascii "__GCC_ATOMIC_LONG_LOCK_FREE 1\0"
 1783      435F4154 
 1783      4F4D4943 
 1783      5F4C4F4E 
 1783      475F4C4F 
 1784 170c 01       		.byte	0x1
 1785 170d 00       		.uleb128 0
 1786 170e 5F5F4743 		.ascii "__GCC_ATOMIC_LLONG_LOCK_FREE 1\0"
 1786      435F4154 
 1786      4F4D4943 
 1786      5F4C4C4F 
 1786      4E475F4C 
 1787 172d 01       		.byte	0x1
 1788 172e 00       		.uleb128 0
 1789 172f 5F5F4743 		.ascii "__GCC_ATOMIC_TEST_AND_SET_TRUEVAL 1\0"
 1789      435F4154 
 1789      4F4D4943 
 1789      5F544553 
 1789      545F414E 
 1790 1753 01       		.byte	0x1
 1791 1754 00       		.uleb128 0
 1792 1755 5F5F4743 		.ascii "__GCC_ATOMIC_POINTER_LOCK_FREE 1\0"
 1792      435F4154 
 1792      4F4D4943 
 1792      5F504F49 
 1792      4E544552 
 1793 1776 01       		.byte	0x1
 1794 1777 00       		.uleb128 0
 1795 1778 5F5F4743 		.ascii "__GCC_HAVE_DWARF2_CFI_ASM 1\0"
 1795      435F4841 
 1795      56455F44 
 1795      57415246 
 1795      325F4346 
 1796 1794 01       		.byte	0x1
 1797 1795 00       		.uleb128 0
 1798 1796 5F5F5052 		.ascii "__PRAGMA_REDEFINE_EXTNAME 1\0"
 1798      41474D41 
 1798      5F524544 
 1798      4546494E 
 1798      455F4558 
 1799 17b2 01       		.byte	0x1
 1800 17b3 00       		.uleb128 0
 1801 17b4 5F5F5349 		.ascii "__SIZEOF_WCHAR_T__ 2\0"
 1801      5A454F46 
 1801      5F574348 
 1801      41525F54 
 1801      5F5F2032 
GAS LISTING C:\Users\PRESID~1\AppData\Local\Temp\cccpOaUn.s 			page 58


 1802 17c9 01       		.byte	0x1
 1803 17ca 00       		.uleb128 0
 1804 17cb 5F5F5349 		.ascii "__SIZEOF_WINT_T__ 2\0"
 1804      5A454F46 
 1804      5F57494E 
 1804      545F545F 
 1804      5F203200 
 1805 17df 01       		.byte	0x1
 1806 17e0 00       		.uleb128 0
 1807 17e1 5F5F5349 		.ascii "__SIZEOF_PTRDIFF_T__ 4\0"
 1807      5A454F46 
 1807      5F505452 
 1807      44494646 
 1807      5F545F5F 
 1808 17f8 01       		.byte	0x1
 1809 17f9 00       		.uleb128 0
 1810 17fa 5F5F6933 		.ascii "__i386 1\0"
 1810      38362031 
 1810      00
 1811 1803 01       		.byte	0x1
 1812 1804 00       		.uleb128 0
 1813 1805 5F5F6933 		.ascii "__i386__ 1\0"
 1813      38365F5F 
 1813      203100
 1814 1810 01       		.byte	0x1
 1815 1811 00       		.uleb128 0
 1816 1812 5F5F4154 		.ascii "__ATOMIC_HLE_ACQUIRE 65536\0"
 1816      4F4D4943 
 1816      5F484C45 
 1816      5F414351 
 1816      55495245 
 1817 182d 01       		.byte	0x1
 1818 182e 00       		.uleb128 0
 1819 182f 5F5F4154 		.ascii "__ATOMIC_HLE_RELEASE 131072\0"
 1819      4F4D4943 
 1819      5F484C45 
 1819      5F52454C 
 1819      45415345 
 1820 184b 01       		.byte	0x1
 1821 184c 00       		.uleb128 0
 1822 184d 5F5F7475 		.ascii "__tune_i386__ 1\0"
 1822      6E655F69 
 1822      3338365F 
 1822      5F203100 
 1823 185d 01       		.byte	0x1
 1824 185e 00       		.uleb128 0
 1825 185f 5F5F636F 		.ascii "__code_model_32__ 1\0"
 1825      64655F6D 
 1825      6F64656C 
 1825      5F33325F 
 1825      5F203100 
 1826 1873 01       		.byte	0x1
 1827 1874 00       		.uleb128 0
 1828 1875 5F583836 		.ascii "_X86_ 1\0"
 1828      5F203100 
 1829 187d 01       		.byte	0x1
 1830 187e 00       		.uleb128 0
GAS LISTING C:\Users\PRESID~1\AppData\Local\Temp\cccpOaUn.s 			page 59


 1831 187f 5F5F7374 		.ascii "__stdcall __attribute__((__stdcall__))\0"
 1831      6463616C 
 1831      6C205F5F 
 1831      61747472 
 1831      69627574 
 1832 18a6 01       		.byte	0x1
 1833 18a7 00       		.uleb128 0
 1834 18a8 5F5F6661 		.ascii "__fastcall __attribute__((__fastcall__))\0"
 1834      73746361 
 1834      6C6C205F 
 1834      5F617474 
 1834      72696275 
 1835 18d1 01       		.byte	0x1
 1836 18d2 00       		.uleb128 0
 1837 18d3 5F5F7468 		.ascii "__thiscall __attribute__((__thiscall__))\0"
 1837      69736361 
 1837      6C6C205F 
 1837      5F617474 
 1837      72696275 
 1838 18fc 01       		.byte	0x1
 1839 18fd 00       		.uleb128 0
 1840 18fe 5F5F6364 		.ascii "__cdecl __attribute__((__cdecl__))\0"
 1840      65636C20 
 1840      5F5F6174 
 1840      74726962 
 1840      7574655F 
 1841 1921 01       		.byte	0x1
 1842 1922 00       		.uleb128 0
 1843 1923 5F5F4758 		.ascii "__GXX_MERGED_TYPEINFO_NAMES 0\0"
 1843      585F4D45 
 1843      52474544 
 1843      5F545950 
 1843      45494E46 
 1844 1941 01       		.byte	0x1
 1845 1942 00       		.uleb128 0
 1846 1943 5F5F4758 		.ascii "__GXX_TYPEINFO_EQUALITY_INLINE 0\0"
 1846      585F5459 
 1846      5045494E 
 1846      464F5F45 
 1846      5155414C 
 1847 1964 01       		.byte	0x1
 1848 1965 00       		.uleb128 0
 1849 1966 5F5F4D53 		.ascii "__MSVCRT__ 1\0"
 1849      56435254 
 1849      5F5F2031 
 1849      00
 1850 1973 01       		.byte	0x1
 1851 1974 00       		.uleb128 0
 1852 1975 5F5F4D49 		.ascii "__MINGW32__ 1\0"
 1852      4E475733 
 1852      325F5F20 
 1852      3100
 1853 1983 01       		.byte	0x1
 1854 1984 00       		.uleb128 0
 1855 1985 5F57494E 		.ascii "_WIN32 1\0"
 1855      33322031 
 1855      00
GAS LISTING C:\Users\PRESID~1\AppData\Local\Temp\cccpOaUn.s 			page 60


 1856 198e 01       		.byte	0x1
 1857 198f 00       		.uleb128 0
 1858 1990 5F5F5749 		.ascii "__WIN32 1\0"
 1858      4E333220 
 1858      3100
 1859 199a 01       		.byte	0x1
 1860 199b 00       		.uleb128 0
 1861 199c 5F5F5749 		.ascii "__WIN32__ 1\0"
 1861      4E33325F 
 1861      5F203100 
 1862 19a8 01       		.byte	0x1
 1863 19a9 00       		.uleb128 0
 1864 19aa 5F5F5749 		.ascii "__WINNT 1\0"
 1864      4E4E5420 
 1864      3100
 1865 19b4 01       		.byte	0x1
 1866 19b5 00       		.uleb128 0
 1867 19b6 5F5F5749 		.ascii "__WINNT__ 1\0"
 1867      4E4E545F 
 1867      5F203100 
 1868 19c2 01       		.byte	0x1
 1869 19c3 00       		.uleb128 0
 1870 19c4 5F494E54 		.ascii "_INTEGRAL_MAX_BITS 64\0"
 1870      45475241 
 1870      4C5F4D41 
 1870      585F4249 
 1870      54532036 
 1871 19da 01       		.byte	0x1
 1872 19db 00       		.uleb128 0
 1873 19dc 5F5F6465 		.ascii "__declspec(x) __attribute__((x))\0"
 1873      636C7370 
 1873      65632878 
 1873      29205F5F 
 1873      61747472 
 1874 19fd 01       		.byte	0x1
 1875 19fe 00       		.uleb128 0
 1876 19ff 5F5F4445 		.ascii "__DECIMAL_BID_FORMAT__ 1\0"
 1876      43494D41 
 1876      4C5F4249 
 1876      445F464F 
 1876      524D4154 
 1877 1a18 01       		.byte	0x1
 1878 1a19 00       		.uleb128 0
 1879 1a1a 4346475F 		.ascii "CFG_PROCESSOR 3\0"
 1879      50524F43 
 1879      4553534F 
 1879      52203300 
 1880 1a2a 03       		.byte	0x3
 1881 1a2b 00       		.uleb128 0
 1882 1a2c 01       		.uleb128 0x1
 1883              		.file 9 "E:/NeuOrga/Programmieren/c_cpp/github_os/input/src/os_base/os_firstinc.h"
 1884 1a2d 03       		.byte	0x3
 1885 1a2e 01       		.uleb128 0x1
 1886 1a2f 09       		.uleb128 0x9
 1887 1a30 01       		.byte	0x1
 1888 1a31 02       		.uleb128 0x2
 1889 1a32 5F4F535F 		.ascii "_OS_FIRSTINC_H_ \0"
GAS LISTING C:\Users\PRESID~1\AppData\Local\Temp\cccpOaUn.s 			page 61


 1889      46495253 
 1889      54494E43 
 1889      5F485F20 
 1889      00
 1890              		.file 10 "E:/NeuOrga/Programmieren/c_cpp/github_os/input/src/os_base/../os_config.h"
 1891 1a43 03       		.byte	0x3
 1892 1a44 04       		.uleb128 0x4
 1893 1a45 0A       		.uleb128 0xa
 1894 1a46 01       		.byte	0x1
 1895 1a47 02       		.uleb128 0x2
 1896 1a48 5F4F535F 		.ascii "_OS_CONFIG_H_ \0"
 1896      434F4E46 
 1896      49475F48 
 1896      5F2000
 1897 1a57 01       		.byte	0x1
 1898 1a58 05       		.uleb128 0x5
 1899 1a59 494E5445 		.ascii "INTEGER_LLP64_IL32P64 1u\0"
 1899      4745525F 
 1899      4C4C5036 
 1899      345F494C 
 1899      33325036 
 1900 1a72 01       		.byte	0x1
 1901 1a73 06       		.uleb128 0x6
 1902 1a74 494E5445 		.ascii "INTEGER_LP64_I32LP64 2u\0"
 1902      4745525F 
 1902      4C503634 
 1902      5F493332 
 1902      4C503634 
 1903 1a8c 01       		.byte	0x1
 1904 1a8d 07       		.uleb128 0x7
 1905 1a8e 494E5445 		.ascii "INTEGER_ILP64 3u\0"
 1905      4745525F 
 1905      494C5036 
 1905      34203375 
 1905      00
 1906 1a9f 01       		.byte	0x1
 1907 1aa0 08       		.uleb128 0x8
 1908 1aa1 494E5445 		.ascii "INTEGER_SILP64 4u\0"
 1908      4745525F 
 1908      53494C50 
 1908      36342034 
 1908      7500
 1909 1ab3 01       		.byte	0x1
 1910 1ab4 09       		.uleb128 0x9
 1911 1ab5 494E5445 		.ascii "INTEGER_MODEL INTEGER_LLP64_IL32P64\0"
 1911      4745525F 
 1911      4D4F4445 
 1911      4C20494E 
 1911      54454745 
 1912 1ad9 01       		.byte	0x1
 1913 1ada 0C       		.uleb128 0xc
 1914 1adb 4350505F 		.ascii "CPP_VERSION_NONE 0u\0"
 1914      56455253 
 1914      494F4E5F 
 1914      4E4F4E45 
 1914      20307500 
 1915 1aef 01       		.byte	0x1
GAS LISTING C:\Users\PRESID~1\AppData\Local\Temp\cccpOaUn.s 			page 62


 1916 1af0 0D       		.uleb128 0xd
 1917 1af1 4350505F 		.ascii "CPP_VERSION_1998 1u\0"
 1917      56455253 
 1917      494F4E5F 
 1917      31393938 
 1917      20317500 
 1918 1b05 01       		.byte	0x1
 1919 1b06 0E       		.uleb128 0xe
 1920 1b07 4350505F 		.ascii "CPP_VERSION_2003 2u\0"
 1920      56455253 
 1920      494F4E5F 
 1920      32303033 
 1920      20327500 
 1921 1b1b 01       		.byte	0x1
 1922 1b1c 0F       		.uleb128 0xf
 1923 1b1d 4350505F 		.ascii "CPP_VERSION_2007 3u\0"
 1923      56455253 
 1923      494F4E5F 
 1923      32303037 
 1923      20337500 
 1924 1b31 01       		.byte	0x1
 1925 1b32 10       		.uleb128 0x10
 1926 1b33 4350505F 		.ascii "CPP_VERSION_2011 4u\0"
 1926      56455253 
 1926      494F4E5F 
 1926      32303131 
 1926      20347500 
 1927 1b47 01       		.byte	0x1
 1928 1b48 11       		.uleb128 0x11
 1929 1b49 49534F5F 		.ascii "ISO_CPP_VERSION CPP_VERSION_1998\0"
 1929      4350505F 
 1929      56455253 
 1929      494F4E20 
 1929      4350505F 
 1930 1b6a 01       		.byte	0x1
 1931 1b6b 14       		.uleb128 0x14
 1932 1b6c 4249475F 		.ascii "BIG_INT_SIZE 16u\0"
 1932      494E545F 
 1932      53495A45 
 1932      20313675 
 1932      00
 1933 1b7d 01       		.byte	0x1
 1934 1b7e 17       		.uleb128 0x17
 1935 1b7f 4E525F4F 		.ascii "NR_OF_CORES 1u\0"
 1935      465F434F 
 1935      52455320 
 1935      317500
 1936 1b8e 01       		.byte	0x1
 1937 1b8f 1B       		.uleb128 0x1b
 1938 1b90 4D43555F 		.ascii "MCU_CLOCK_IN_HZ ((uint32)168000000u)\0"
 1938      434C4F43 
 1938      4B5F494E 
 1938      5F485A20 
 1938      28287569 
 1939 1bb5 01       		.byte	0x1
 1940 1bb6 1D       		.uleb128 0x1d
 1941 1bb7 44594E41 		.ascii "DYNAMIC_MEMORY_USED FALSE\0"
GAS LISTING C:\Users\PRESID~1\AppData\Local\Temp\cccpOaUn.s 			page 63


 1941      4D49435F 
 1941      4D454D4F 
 1941      52595F55 
 1941      53454420 
 1942 1bd1 01       		.byte	0x1
 1943 1bd2 1E       		.uleb128 0x1e
 1944 1bd3 4C4F4F50 		.ascii "LOOPTIME_IN_USEC ((uint32)10000u)\0"
 1944      54494D45 
 1944      5F494E5F 
 1944      55534543 
 1944      20282875 
 1945 1bf5 01       		.byte	0x1
 1946 1bf6 21       		.uleb128 0x21
 1947 1bf7 48454150 		.ascii "HEAP_SIZE 10000u\0"
 1947      5F53495A 
 1947      45203130 
 1947      30303075 
 1947      00
 1948 1c08 01       		.byte	0x1
 1949 1c09 22       		.uleb128 0x22
 1950 1c0a 4D494E5F 		.ascii "MIN_BLOCK_SIZE_HEAP 8u\0"
 1950      424C4F43 
 1950      4B5F5349 
 1950      5A455F48 
 1950      45415020 
 1951 1c21 01       		.byte	0x1
 1952 1c22 23       		.uleb128 0x23
 1953 1c23 48454150 		.ascii "HEAP_OFFSET_FOR_SIZE 0u\0"
 1953      5F4F4646 
 1953      5345545F 
 1953      464F525F 
 1953      53495A45 
 1954 1c3b 01       		.byte	0x1
 1955 1c3c 24       		.uleb128 0x24
 1956 1c3d 48454150 		.ascii "HEAP_OFFSET_FOR_USED_SIZE 4u\0"
 1956      5F4F4646 
 1956      5345545F 
 1956      464F525F 
 1956      55534544 
 1957 1c5a 01       		.byte	0x1
 1958 1c5b 25       		.uleb128 0x25
 1959 1c5c 48454150 		.ascii "HEAP_OFFSET_FOR_CHUNK 8u\0"
 1959      5F4F4646 
 1959      5345545F 
 1959      464F525F 
 1959      4348554E 
 1960 1c75 01       		.byte	0x1
 1961 1c76 28       		.uleb128 0x28
 1962 1c77 4F535F4D 		.ascii "OS_MAIN_STACK_SIZE 0x400u\0"
 1962      41494E5F 
 1962      53544143 
 1962      4B5F5349 
 1962      5A452030 
 1963 1c91 01       		.byte	0x1
 1964 1c92 29       		.uleb128 0x29
 1965 1c93 4F535F50 		.ascii "OS_PROCESS_STACK_TASK1_SIZE 0x200u\0"
 1965      524F4345 
GAS LISTING C:\Users\PRESID~1\AppData\Local\Temp\cccpOaUn.s 			page 64


 1965      53535F53 
 1965      5441434B 
 1965      5F544153 
 1966 1cb6 01       		.byte	0x1
 1967 1cb7 2A       		.uleb128 0x2a
 1968 1cb8 4F535F50 		.ascii "OS_PROCESS_STACK_TASK2_SIZE 0x200u\0"
 1968      524F4345 
 1968      53535F53 
 1968      5441434B 
 1968      5F544153 
 1969 1cdb 01       		.byte	0x1
 1970 1cdc 2B       		.uleb128 0x2b
 1971 1cdd 4F535F50 		.ascii "OS_PROCESS_STACK_TASK3_SIZE 0x200u\0"
 1971      524F4345 
 1971      53535F53 
 1971      5441434B 
 1971      5F544153 
 1972 1d00 01       		.byte	0x1
 1973 1d01 2C       		.uleb128 0x2c
 1974 1d02 4F535F50 		.ascii "OS_PROCESS_STACK_TASK4_SIZE 0x200u\0"
 1974      524F4345 
 1974      53535F53 
 1974      5441434B 
 1974      5F544153 
 1975 1d25 04       		.byte	0x4
 1976 1d26 03       		.byte	0x3
 1977 1d27 05       		.uleb128 0x5
 1978 1d28 02       		.uleb128 0x2
 1979 1d29 01       		.byte	0x1
 1980 1d2a 02       		.uleb128 0x2
 1981 1d2b 5F4F535F 		.ascii "_OS_BASE_TYPES_H_ \0"
 1981      42415345 
 1981      5F545950 
 1981      45535F48 
 1981      5F2000
 1982 1d3e 04       		.byte	0x4
 1983 1d3f 03       		.byte	0x3
 1984 1d40 06       		.uleb128 0x6
 1985 1d41 03       		.uleb128 0x3
 1986 1d42 01       		.byte	0x1
 1987 1d43 02       		.uleb128 0x2
 1988 1d44 5F4F535F 		.ascii "_OS_COMMON_H_ \0"
 1988      434F4D4D 
 1988      4F4E5F48 
 1988      5F2000
 1989 1d53 01       		.byte	0x1
 1990 1d54 06       		.uleb128 0x6
 1991 1d55 46414C53 		.ascii "FALSE 0u\0"
 1991      45203075 
 1991      00
 1992 1d5e 01       		.byte	0x1
 1993 1d5f 07       		.uleb128 0x7
 1994 1d60 54525545 		.ascii "TRUE 1u\0"
 1994      20317500 
 1995 1d68 01       		.byte	0x1
 1996 1d69 08       		.uleb128 0x8
 1997 1d6a 46616C73 		.ascii "False FALSE\0"
GAS LISTING C:\Users\PRESID~1\AppData\Local\Temp\cccpOaUn.s 			page 65


 1997      65204641 
 1997      4C534500 
 1998 1d76 01       		.byte	0x1
 1999 1d77 09       		.uleb128 0x9
 2000 1d78 54727565 		.ascii "True TRUE\0"
 2000      20545255 
 2000      4500
 2001 1d82 01       		.byte	0x1
 2002 1d83 0A       		.uleb128 0xa
 2003 1d84 41434345 		.ascii "ACCEPTED 1u\0"
 2003      50544544 
 2003      20317500 
 2004 1d90 01       		.byte	0x1
 2005 1d91 0B       		.uleb128 0xb
 2006 1d92 52454A45 		.ascii "REJECTED 0u\0"
 2006      43544544 
 2006      20307500 
 2007 1d9e 01       		.byte	0x1
 2008 1d9f 0C       		.uleb128 0xc
 2009 1da0 4C4F4341 		.ascii "LOCAL static\0"
 2009      4C207374 
 2009      61746963 
 2009      00
 2010 1dad 01       		.byte	0x1
 2011 1dae 0D       		.uleb128 0xd
 2012 1daf 4C4F4341 		.ascii "LOCAL_INLINE static __inline__\0"
 2012      4C5F494E 
 2012      4C494E45 
 2012      20737461 
 2012      74696320 
 2013 1dce 01       		.byte	0x1
 2014 1dcf 0E       		.uleb128 0xe
 2015 1dd0 474C4F42 		.ascii "GLOBAL_INLINE __inline__\0"
 2015      414C5F49 
 2015      4E4C494E 
 2015      45205F5F 
 2015      696E6C69 
 2016 1de9 01       		.byte	0x1
 2017 1dea 0F       		.uleb128 0xf
 2018 1deb 52454645 		.ascii "REFERENCE_UNUSED_PARAMETER(x) ((x) = (x))\0"
 2018      52454E43 
 2018      455F554E 
 2018      55534544 
 2018      5F504152 
 2019 1e15 01       		.byte	0x1
 2020 1e16 12       		.uleb128 0x12
 2021 1e17 4D43555F 		.ascii "MCU_X86 3\0"
 2021      58383620 
 2021      3300
 2022 1e21 01       		.byte	0x1
 2023 1e22 13       		.uleb128 0x13
 2024 1e23 4D43555F 		.ascii "MCU_CORTEX_M4 4\0"
 2024      434F5254 
 2024      45585F4D 
 2024      34203400 
 2025 1e33 01       		.byte	0x1
 2026 1e34 16       		.uleb128 0x16
GAS LISTING C:\Users\PRESID~1\AppData\Local\Temp\cccpOaUn.s 			page 66


 2027 1e35 4457545F 		.ascii "DWT_CTRL ((volatile uint32*)0xE0001000u)\0"
 2027      4354524C 
 2027      20282876 
 2027      6F6C6174 
 2027      696C6520 
 2028 1e5e 01       		.byte	0x1
 2029 1e5f 17       		.uleb128 0x17
 2030 1e60 4457545F 		.ascii "DWT_CYCCNT ((volatile uint32*)0xE0001004u)\0"
 2030      43594343 
 2030      4E542028 
 2030      28766F6C 
 2030      6174696C 
 2031 1e8b 01       		.byte	0x1
 2032 1e8c 18       		.uleb128 0x18
 2033 1e8d 4457545F 		.ascii "DWT_LAR ((volatile uint32*)0xE0001FB0u)\0"
 2033      4C415220 
 2033      2828766F 
 2033      6C617469 
 2033      6C652075 
 2034 1eb5 01       		.byte	0x1
 2035 1eb6 19       		.uleb128 0x19
 2036 1eb7 5343425F 		.ascii "SCB_DEMCR ((volatile uint32*)0xE000EDFCu)\0"
 2036      44454D43 
 2036      52202828 
 2036      766F6C61 
 2036      74696C65 
 2037 1ee1 01       		.byte	0x1
 2038 1ee2 1C       		.uleb128 0x1c
 2039 1ee3 44495341 		.ascii "DISABLE_INTERRUPTS() \0"
 2039      424C455F 
 2039      494E5445 
 2039      52525550 
 2039      54532829 
 2040 1ef9 01       		.byte	0x1
 2041 1efa 1D       		.uleb128 0x1d
 2042 1efb 454E4142 		.ascii "ENABLE_INTERRUPTS() \0"
 2042      4C455F49 
 2042      4E544552 
 2042      52555054 
 2042      53282920 
 2043 1f10 01       		.byte	0x1
 2044 1f11 1E       		.uleb128 0x1e
 2045 1f12 50524956 		.ascii "PRIVILIGE_LEVEL_SAVE_CURRENT() \0"
 2045      494C4947 
 2045      455F4C45 
 2045      56454C5F 
 2045      53415645 
 2046 1f32 01       		.byte	0x1
 2047 1f33 1F       		.uleb128 0x1f
 2048 1f34 50524956 		.ascii "PRIVILIGE_LEVEL_ENTER_KERNEL_MODE() \0"
 2048      494C4947 
 2048      455F4C45 
 2048      56454C5F 
 2048      454E5445 
 2049 1f59 01       		.byte	0x1
 2050 1f5a 20       		.uleb128 0x20
 2051 1f5b 50524956 		.ascii "PRIVILIGE_LEVEL_RESTORE_SAVED() \0"
GAS LISTING C:\Users\PRESID~1\AppData\Local\Temp\cccpOaUn.s 			page 67


 2051      494C4947 
 2051      455F4C45 
 2051      56454C5F 
 2051      52455354 
 2052 1f7c 01       		.byte	0x1
 2053 1f7d 21       		.uleb128 0x21
 2054 1f7e 48414C54 		.ascii "HALT_MCU() \0"
 2054      5F4D4355 
 2054      28292000 
 2055 1f8a 01       		.byte	0x1
 2056 1f8b 41       		.uleb128 0x41
 2057 1f8c 414D4F55 		.ascii "AMOUNT_SW_BUG_FUNCTIONS 22\0"
 2057      4E545F53 
 2057      575F4255 
 2057      475F4655 
 2057      4E435449 
 2058 1fa7 04       		.byte	0x4
 2059              		.file 11 "E:/NeuOrga/Programmieren/c_cpp/github_os/input/src/os_base/../os_sim/lld_global.h"
 2060 1fa8 03       		.byte	0x3
 2061 1fa9 09       		.uleb128 0x9
 2062 1faa 0B       		.uleb128 0xb
 2063 1fab 01       		.byte	0x1
 2064 1fac 02       		.uleb128 0x2
 2065 1fad 5F4C4C44 		.ascii "_LLD_GLOBAL_H_ \0"
 2065      5F474C4F 
 2065      42414C5F 
 2065      485F2000 
 2066 1fbd 03       		.byte	0x3
 2067 1fbe 04       		.uleb128 0x4
 2068 1fbf 04       		.uleb128 0x4
 2069 1fc0 01       		.byte	0x1
 2070 1fc1 02       		.uleb128 0x2
 2071 1fc2 5F4C4C44 		.ascii "_LLD_CORE_H_ \0"
 2071      5F434F52 
 2071      455F485F 
 2071      2000
 2072              		.file 12 "E:/NeuOrga/Programmieren/c_cpp/github_os/input/src/os_base/../os_sim/../os_base/os_first
 2073 1fd0 03       		.byte	0x3
 2074 1fd1 03       		.uleb128 0x3
 2075 1fd2 0C       		.uleb128 0xc
 2076 1fd3 04       		.byte	0x4
 2077 1fd4 04       		.byte	0x4
 2078              		.file 13 "E:/NeuOrga/Programmieren/c_cpp/github_os/input/src/os_base/../os_sim/lld_interrupt.h"
 2079 1fd5 03       		.byte	0x3
 2080 1fd6 05       		.uleb128 0x5
 2081 1fd7 0D       		.uleb128 0xd
 2082 1fd8 01       		.byte	0x1
 2083 1fd9 02       		.uleb128 0x2
 2084 1fda 5F4C4C44 		.ascii "_LLD_INTERRUPT_H_ \0"
 2084      5F494E54 
 2084      45525255 
 2084      50545F48 
 2084      5F2000
 2085 1fed 01       		.byte	0x1
 2086 1fee 05       		.uleb128 0x5
 2087 1fef 4F535F49 		.ascii "OS_INTERRUPT_SWI_1 asm(\"swi 1\")\0"
 2087      4E544552 
GAS LISTING C:\Users\PRESID~1\AppData\Local\Temp\cccpOaUn.s 			page 68


 2087      52555054 
 2087      5F535749 
 2087      5F312061 
 2088 200f 01       		.byte	0x1
 2089 2010 06       		.uleb128 0x6
 2090 2011 4F535F49 		.ascii "OS_INTERRUPT_SWI_2 asm(\"swi 2\")\0"
 2090      4E544552 
 2090      52555054 
 2090      5F535749 
 2090      5F322061 
 2091 2031 01       		.byte	0x1
 2092 2032 07       		.uleb128 0x7
 2093 2033 4F535F49 		.ascii "OS_INTERRUPT_SWI_3 asm(\"swi 3\")\0"
 2093      4E544552 
 2093      52555054 
 2093      5F535749 
 2093      5F332061 
 2094 2053 01       		.byte	0x1
 2095 2054 08       		.uleb128 0x8
 2096 2055 4F535F49 		.ascii "OS_INTERRUPT_SWI_4 asm(\"swi 4\")\0"
 2096      4E544552 
 2096      52555054 
 2096      5F535749 
 2096      5F342061 
 2097 2075 01       		.byte	0x1
 2098 2076 09       		.uleb128 0x9
 2099 2077 4F535F49 		.ascii "OS_INTERRUPT_SWI_5 asm(\"swi 5\")\0"
 2099      4E544552 
 2099      52555054 
 2099      5F535749 
 2099      5F352061 
 2100 2097 04       		.byte	0x4
 2101              		.file 14 "E:/NeuOrga/Programmieren/c_cpp/github_os/input/src/os_base/../os_sim/lld_mmu.h"
 2102 2098 03       		.byte	0x3
 2103 2099 06       		.uleb128 0x6
 2104 209a 0E       		.uleb128 0xe
 2105 209b 01       		.byte	0x1
 2106 209c 02       		.uleb128 0x2
 2107 209d 5F4C4C44 		.ascii "_LLD_MMU_H_ \0"
 2107      5F4D4D55 
 2107      5F485F20 
 2107      00
 2108 20aa 04       		.byte	0x4
 2109              		.file 15 "E:/NeuOrga/Programmieren/c_cpp/github_os/input/src/os_base/../os_sim/lld_timer.h"
 2110 20ab 03       		.byte	0x3
 2111 20ac 07       		.uleb128 0x7
 2112 20ad 0F       		.uleb128 0xf
 2113 20ae 01       		.byte	0x1
 2114 20af 02       		.uleb128 0x2
 2115 20b0 5F4C4C44 		.ascii "_LLD_TIMER_H_ \0"
 2115      5F54494D 
 2115      45525F48 
 2115      5F2000
 2116 20bf 04       		.byte	0x4
 2117              		.file 16 "E:/NeuOrga/Programmieren/c_cpp/github_os/input/src/os_base/../os_sim/lld_power.h"
 2118 20c0 03       		.byte	0x3
 2119 20c1 08       		.uleb128 0x8
GAS LISTING C:\Users\PRESID~1\AppData\Local\Temp\cccpOaUn.s 			page 69


 2120 20c2 10       		.uleb128 0x10
 2121 20c3 01       		.byte	0x1
 2122 20c4 02       		.uleb128 0x2
 2123 20c5 5F4C4C44 		.ascii "_LLD_POWER_H_ \0"
 2123      5F504F57 
 2123      45525F48 
 2123      5F2000
 2124 20d4 04       		.byte	0x4
 2125              		.file 17 "E:/NeuOrga/Programmieren/c_cpp/github_os/input/src/os_base/../os_sim/lld_ram.h"
 2126 20d5 03       		.byte	0x3
 2127 20d6 09       		.uleb128 0x9
 2128 20d7 11       		.uleb128 0x11
 2129 20d8 01       		.byte	0x1
 2130 20d9 02       		.uleb128 0x2
 2131 20da 5F4C4C44 		.ascii "_LLD_RAM_H_ \0"
 2131      5F52414D 
 2131      5F485F20 
 2131      00
 2132 20e7 04       		.byte	0x4
 2133 20e8 03       		.byte	0x3
 2134 20e9 0A       		.uleb128 0xa
 2135 20ea 05       		.uleb128 0x5
 2136 20eb 01       		.byte	0x1
 2137 20ec 02       		.uleb128 0x2
 2138 20ed 5F4F535F 		.ascii "_OS_TASK_COMMON_H_ \0"
 2138      5441534B 
 2138      5F434F4D 
 2138      4D4F4E5F 
 2138      485F2000 
 2139 2101 03       		.byte	0x3
 2140 2102 03       		.uleb128 0x3
 2141 2103 0C       		.uleb128 0xc
 2142 2104 04       		.byte	0x4
 2143              		.file 18 "E:/NeuOrga/Programmieren/c_cpp/github_os/input/src/os_base/../os_sim/../os_base/os_task_
 2144 2105 03       		.byte	0x3
 2145 2106 04       		.uleb128 0x4
 2146 2107 12       		.uleb128 0x12
 2147 2108 01       		.byte	0x1
 2148 2109 02       		.uleb128 0x2
 2149 210a 5F4F535F 		.ascii "_OS_TASK_CONFIG_H_ \0"
 2149      5441534B 
 2149      5F434F4E 
 2149      4649475F 
 2149      485F2000 
 2150 211e 01       		.byte	0x1
 2151 211f 05       		.uleb128 0x5
 2152 2120 5441534B 		.ascii "TASK_MIN_TIME (1e0)\0"
 2152      5F4D494E 
 2152      5F54494D 
 2152      45202831 
 2152      65302900 
 2153 2134 01       		.byte	0x1
 2154 2135 06       		.uleb128 0x6
 2155 2136 4E554D42 		.ascii "NUMBER_OF_TASKS 10u\0"
 2155      45525F4F 
 2155      465F5441 
 2155      534B5320 
GAS LISTING C:\Users\PRESID~1\AppData\Local\Temp\cccpOaUn.s 			page 70


 2155      31307500 
 2156 214a 01       		.byte	0x1
 2157 214b 07       		.uleb128 0x7
 2158 214c 4D41585F 		.ascii "MAX_RUN_QUEUE_SIZE (NUMBER_OF_TASKS)\0"
 2158      52554E5F 
 2158      51554555 
 2158      455F5349 
 2158      5A452028 
 2159 2171 01       		.byte	0x1
 2160 2172 08       		.uleb128 0x8
 2161 2173 4D41585F 		.ascii "MAX_RUN_PQUEUE_SIZE MAX_RUN_QUEUE_SIZE\0"
 2161      52554E5F 
 2161      50515545 
 2161      55455F53 
 2161      495A4520 
 2162 219a 01       		.byte	0x1
 2163 219b 0A       		.uleb128 0xa
 2164 219c 5441534B 		.ascii "TASK0_STACK_SIZE 2000u\0"
 2164      305F5354 
 2164      41434B5F 
 2164      53495A45 
 2164      20323030 
 2165 21b3 01       		.byte	0x1
 2166 21b4 0B       		.uleb128 0xb
 2167 21b5 5441534B 		.ascii "TASK1_STACK_SIZE 2000u\0"
 2167      315F5354 
 2167      41434B5F 
 2167      53495A45 
 2167      20323030 
 2168 21cc 01       		.byte	0x1
 2169 21cd 0C       		.uleb128 0xc
 2170 21ce 5441534B 		.ascii "TASK2_STACK_SIZE 2000u\0"
 2170      325F5354 
 2170      41434B5F 
 2170      53495A45 
 2170      20323030 
 2171 21e5 01       		.byte	0x1
 2172 21e6 0D       		.uleb128 0xd
 2173 21e7 5441534B 		.ascii "TASK3_STACK_SIZE 2000u\0"
 2173      335F5354 
 2173      41434B5F 
 2173      53495A45 
 2173      20323030 
 2174 21fe 01       		.byte	0x1
 2175 21ff 0E       		.uleb128 0xe
 2176 2200 5441534B 		.ascii "TASK4_STACK_SIZE 2000u\0"
 2176      345F5354 
 2176      41434B5F 
 2176      53495A45 
 2176      20323030 
 2177 2217 01       		.byte	0x1
 2178 2218 12       		.uleb128 0x12
 2179 2219 4D535F50 		.ascii "MS_PER_SEC 1000u\0"
 2179      45525F53 
 2179      45432031 
 2179      30303075 
 2179      00
GAS LISTING C:\Users\PRESID~1\AppData\Local\Temp\cccpOaUn.s 			page 71


 2180 222a 01       		.byte	0x1
 2181 222b 13       		.uleb128 0x13
 2182 222c 5553455F 		.ascii "USE_STATIC_CREATED_TASKS TRUE\0"
 2182      53544154 
 2182      49435F43 
 2182      52454154 
 2182      45445F54 
 2183 224a 04       		.byte	0x4
 2184              		.file 19 "E:/NeuOrga/Programmieren/c_cpp/github_os/input/src/os_base/../os_sim/../os_base/os_init_
 2185 224b 03       		.byte	0x3
 2186 224c 05       		.uleb128 0x5
 2187 224d 13       		.uleb128 0x13
 2188 224e 01       		.byte	0x1
 2189 224f 02       		.uleb128 0x2
 2190 2250 5F4F535F 		.ascii "_OS_INIT_TASK_SYSTEM_H_ \0"
 2190      494E4954 
 2190      5F544153 
 2190      4B5F5359 
 2190      5354454D 
 2191 2269 04       		.byte	0x4
 2192 226a 01       		.byte	0x1
 2193 226b 5F       		.uleb128 0x5f
 2194 226c 4F535F53 		.ascii "OS_SAVE_TASK_PTR(task_ptr,task_name) (TASK_PTR[(task_name)] = (task_ptr))\0"
 2194      4156455F 
 2194      5441534B 
 2194      5F505452 
 2194      28746173 
 2195 22b6 01       		.byte	0x1
 2196 22b7 60       		.uleb128 0x60
 2197 22b8 4F535F47 		.ascii "OS_GET_TASK_PTR(task_name) ((task_t*) TASK_PTR[(task_name)])\0"
 2197      45545F54 
 2197      41534B5F 
 2197      50545228 
 2197      7461736B 
 2198 22f5 04       		.byte	0x4
 2199 22f6 04       		.byte	0x4
 2200              		.file 20 "E:/NeuOrga/Programmieren/c_cpp/github_os/input/src/os_base/../os_user_code/led.h"
 2201 22f7 03       		.byte	0x3
 2202 22f8 0D       		.uleb128 0xd
 2203 22f9 14       		.uleb128 0x14
 2204 22fa 01       		.byte	0x1
 2205 22fb 02       		.uleb128 0x2
 2206 22fc 5F4C4544 		.ascii "_LED_H_ \0"
 2206      5F485F20 
 2206      00
 2207 2305 04       		.byte	0x4
 2208 2306 03       		.byte	0x3
 2209 2307 0F       		.uleb128 0xf
 2210 2308 08       		.uleb128 0x8
 2211 2309 01       		.byte	0x1
 2212 230a 02       		.uleb128 0x2
 2213 230b 5F4F535F 		.ascii "_OS_RAM_H_ \0"
 2213      52414D5F 
 2213      485F2000 
 2214              		.file 21 "E:/NeuOrga/Programmieren/c_cpp/github_os/input/src/os_base/../os_base/os_firstinc.h"
 2215 2317 03       		.byte	0x3
 2216 2318 04       		.uleb128 0x4
GAS LISTING C:\Users\PRESID~1\AppData\Local\Temp\cccpOaUn.s 			page 72


 2217 2319 15       		.uleb128 0x15
 2218 231a 04       		.byte	0x4
 2219              		.file 22 "E:/NeuOrga/Programmieren/c_cpp/github_os/input/src/os_base/../os_base/os_stack.h"
 2220 231b 03       		.byte	0x3
 2221 231c 05       		.uleb128 0x5
 2222 231d 16       		.uleb128 0x16
 2223 231e 01       		.byte	0x1
 2224 231f 02       		.uleb128 0x2
 2225 2320 5F4F535F 		.ascii "_OS_STACK_H_ \0"
 2225      53544143 
 2225      4B5F485F 
 2225      2000
 2226 232e 04       		.byte	0x4
 2227              		.file 23 "E:/NeuOrga/Programmieren/c_cpp/github_os/input/src/os_base/../os_base/os_heap.h"
 2228 232f 03       		.byte	0x3
 2229 2330 06       		.uleb128 0x6
 2230 2331 17       		.uleb128 0x17
 2231 2332 01       		.byte	0x1
 2232 2333 02       		.uleb128 0x2
 2233 2334 5F4F535F 		.ascii "_OS_HEAP_H_ \0"
 2233      48454150 
 2233      5F485F20 
 2233      00
 2234 2341 04       		.byte	0x4
 2235 2342 03       		.byte	0x3
 2236 2343 07       		.uleb128 0x7
 2237 2344 06       		.uleb128 0x6
 2238 2345 01       		.byte	0x1
 2239 2346 02       		.uleb128 0x2
 2240 2347 5F4F535F 		.ascii "_OS_MAIN_H_ \0"
 2240      4D41494E 
 2240      5F485F20 
 2240      00
 2241 2354 04       		.byte	0x4
 2242              		.file 24 "E:/NeuOrga/Programmieren/c_cpp/github_os/input/src/os_base/../os_base/os_task_config.h"
 2243 2355 03       		.byte	0x3
 2244 2356 08       		.uleb128 0x8
 2245 2357 18       		.uleb128 0x18
 2246 2358 04       		.byte	0x4
 2247              		.file 25 "E:/NeuOrga/Programmieren/c_cpp/github_os/input/src/os_base/../os_base/os_task_common.h"
 2248 2359 03       		.byte	0x3
 2249 235a 09       		.uleb128 0x9
 2250 235b 19       		.uleb128 0x19
 2251 235c 04       		.byte	0x4
 2252 235d 04       		.byte	0x4
 2253              		.file 26 "E:/NeuOrga/Programmieren/c_cpp/github_os/input/src/os_base/../os_base/os_ram_stack.h"
 2254 235e 03       		.byte	0x3
 2255 235f 10       		.uleb128 0x10
 2256 2360 1A       		.uleb128 0x1a
 2257 2361 01       		.byte	0x1
 2258 2362 02       		.uleb128 0x2
 2259 2363 5F4F535F 		.ascii "_OS_RAM_STACK_H_ \0"
 2259      52414D5F 
 2259      53544143 
 2259      4B5F485F 
 2259      2000
 2260 2375 04       		.byte	0x4
GAS LISTING C:\Users\PRESID~1\AppData\Local\Temp\cccpOaUn.s 			page 73


 2261 2376 04       		.byte	0x4
 2262              		.file 27 "E:/NeuOrga/Programmieren/c_cpp/github_os/input/src/os_base/os_task_common.h"
 2263 2377 03       		.byte	0x3
 2264 2378 02       		.uleb128 0x2
 2265 2379 1B       		.uleb128 0x1b
 2266 237a 04       		.byte	0x4
 2267              		.file 28 "E:/NeuOrga/Programmieren/c_cpp/github_os/input/src/os_base/os_task_scheduler.h"
 2268 237b 03       		.byte	0x3
 2269 237c 03       		.uleb128 0x3
 2270 237d 1C       		.uleb128 0x1c
 2271 237e 01       		.byte	0x1
 2272 237f 02       		.uleb128 0x2
 2273 2380 5F4F535F 		.ascii "_OS_TASK_SCHEDULER_H_ \0"
 2273      5441534B 
 2273      5F534348 
 2273      4544554C 
 2273      45525F48 
 2274 2397 01       		.byte	0x1
 2275 2398 07       		.uleb128 0x7
 2276 2399 5441534B 		.ascii "TASK_0_PTR 0u\0"
 2276      5F305F50 
 2276      54522030 
 2276      7500
 2277 23a7 01       		.byte	0x1
 2278 23a8 08       		.uleb128 0x8
 2279 23a9 5441534B 		.ascii "TASK_1_PTR 1u\0"
 2279      5F315F50 
 2279      54522031 
 2279      7500
 2280 23b7 01       		.byte	0x1
 2281 23b8 09       		.uleb128 0x9
 2282 23b9 5441534B 		.ascii "TASK_2_PTR 2u\0"
 2282      5F325F50 
 2282      54522032 
 2282      7500
 2283 23c7 01       		.byte	0x1
 2284 23c8 0A       		.uleb128 0xa
 2285 23c9 5441534B 		.ascii "TASK_3_PTR 3u\0"
 2285      5F335F50 
 2285      54522033 
 2285      7500
 2286 23d7 04       		.byte	0x4
 2287 23d8 03       		.byte	0x3
 2288 23d9 04       		.uleb128 0x4
 2289 23da 07       		.uleb128 0x7
 2290 23db 01       		.byte	0x1
 2291 23dc 02       		.uleb128 0x2
 2292 23dd 5F4F535F 		.ascii "_OS_SHUTDOWN_H_ \0"
 2292      53485554 
 2292      444F574E 
 2292      5F485F20 
 2292      00
 2293 23ee 04       		.byte	0x4
 2294              		.file 29 "E:/NeuOrga/Programmieren/c_cpp/github_os/input/src/os_base/os_start_init_mc.h"
 2295 23ef 03       		.byte	0x3
 2296 23f0 05       		.uleb128 0x5
 2297 23f1 1D       		.uleb128 0x1d
GAS LISTING C:\Users\PRESID~1\AppData\Local\Temp\cccpOaUn.s 			page 74


 2298 23f2 01       		.byte	0x1
 2299 23f3 02       		.uleb128 0x2
 2300 23f4 5F4F535F 		.ascii "_OS_START_INIT_MC_H_ \0"
 2300      53544152 
 2300      545F494E 
 2300      49545F4D 
 2300      435F485F 
 2301 240a 04       		.byte	0x4
 2302              		.file 30 "E:/NeuOrga/Programmieren/c_cpp/github_os/input/src/os_base/os_start_init_hw.h"
 2303 240b 03       		.byte	0x3
 2304 240c 06       		.uleb128 0x6
 2305 240d 1E       		.uleb128 0x1e
 2306 240e 01       		.byte	0x1
 2307 240f 02       		.uleb128 0x2
 2308 2410 5F4F535F 		.ascii "_OS_START_INIT_HW_H_ \0"
 2308      53544152 
 2308      545F494E 
 2308      49545F48 
 2308      575F485F 
 2309 2426 04       		.byte	0x4
 2310              		.file 31 "E:/NeuOrga/Programmieren/c_cpp/github_os/input/src/os_base/os_start_init_sw.h"
 2311 2427 03       		.byte	0x3
 2312 2428 07       		.uleb128 0x7
 2313 2429 1F       		.uleb128 0x1f
 2314 242a 01       		.byte	0x1
 2315 242b 02       		.uleb128 0x2
 2316 242c 5F4F535F 		.ascii "_OS_START_INIT_SW_H_ \0"
 2316      53544152 
 2316      545F494E 
 2316      49545F53 
 2316      575F485F 
 2317 2442 04       		.byte	0x4
 2318              		.file 32 "E:/NeuOrga/Programmieren/c_cpp/github_os/input/src/os_base/os_task_queue.h"
 2319 2443 03       		.byte	0x3
 2320 2444 09       		.uleb128 0x9
 2321 2445 20       		.uleb128 0x20
 2322 2446 01       		.byte	0x1
 2323 2447 02       		.uleb128 0x2
 2324 2448 5F4F535F 		.ascii "_OS_TASK_QUEUE_H_ \0"
 2324      5441534B 
 2324      5F515545 
 2324      55455F48 
 2324      5F2000
 2325 245b 01       		.byte	0x1
 2326 245c 06       		.uleb128 0x6
 2327 245d 46495253 		.ascii "FIRST_TASK (0u)\0"
 2327      545F5441 
 2327      534B2028 
 2327      30752900 
 2328 246d 01       		.byte	0x1
 2329 246e 07       		.uleb128 0x7
 2330 246f 4C415354 		.ascii "LAST_TASK (MAX_RUN_QUEUE_SIZE-1u)\0"
 2330      5F544153 
 2330      4B20284D 
 2330      41585F52 
 2330      554E5F51 
 2331 2491 01       		.byte	0x1
GAS LISTING C:\Users\PRESID~1\AppData\Local\Temp\cccpOaUn.s 			page 75


 2332 2492 09       		.uleb128 0x9
 2333 2493 464F525F 		.ascii "FOR_ALL_TASKS_IN_QUEUE(var) for((var) = FIRST_TASK; (var) <= LAST_TASK; (var)++)\0"
 2333      414C4C5F 
 2333      5441534B 
 2333      535F494E 
 2333      5F515545 
 2334 24e4 04       		.byte	0x4
 2335              		.file 33 "E:/NeuOrga/Programmieren/c_cpp/github_os/input/src/os_base/os_main.h"
 2336 24e5 03       		.byte	0x3
 2337 24e6 0A       		.uleb128 0xa
 2338 24e7 21       		.uleb128 0x21
 2339 24e8 04       		.byte	0x4
 2340 24e9 04       		.byte	0x4
 2341 24ea 00       		.byte	0
 2342              		.section	.debug_line,"dr"
 2343              	Ldebug_line0:
 2344 0000 3C040000 		.section	.debug_str,"dr"
 2344      0200E203 
 2344      00000101 
 2344      FB0E0D00 
 2344      01010101 
 2345              	LASF0:
 2346 0000 6578655F 		.ascii "exe_time\0"
 2346      74696D65 
 2346      00
 2347              		.ident	"GCC: (GNU) 4.9.3"
GAS LISTING C:\Users\PRESID~1\AppData\Local\Temp\cccpOaUn.s 			page 76


DEFINED SYMBOLS
                            *ABS*:00000000 os_main.c
C:\Users\PRESID~1\AppData\Local\Temp\cccpOaUn.s:5      .text:00000000 _os_determine_next_task_activation
C:\Users\PRESID~1\AppData\Local\Temp\cccpOaUn.s:224    .bss:00000000 _call_nr.1442
C:\Users\PRESID~1\AppData\Local\Temp\cccpOaUn.s:94     .text:00000090 _OS_STATE_HANDLER
C:\Users\PRESID~1\AppData\Local\Temp\cccpOaUn.s:225    .bss:00000004 _call_nr.1454
C:\Users\PRESID~1\AppData\Local\Temp\cccpOaUn.s:228    .data:00000000 _sys_req_reset_state.1453

UNDEFINED SYMBOLS
_TASK_1_VAR
_TASK_2_VAR
_TASK_3_VAR
_OS_STATE
_TASK_0_VAR
_SYSTEM_STATE_ACCEPTED
_OS_ACTIVATE_TASK
_GET_RUNNING_TASK
_OS_INIT_MC
_OS_INIT_HW
_OS_INIT_SW
_GET_IDLE_TASK
_OS_START_TASK
_OS_ACTIVATE_DISPATCHER
_LLF_INT_ENABLE
_OS_TASK_DISPATCHER
_LLF_INT_DISABLE
_OS_SHUTDOWN
_OS_SET_SW_BUG
_OS_STACK_CHECK
