GAS LISTING C:\Users\PRESID~1\AppData\Local\Temp\ccj5h8Nj.s 			page 1


   1              		.file	"os_rte_icc.c"
   2              		.text
   3              	Ltext0:
   4              		.globl	_SEND_DATA
   6              	_SEND_DATA:
   7              	LFB0:
   8              		.file 1 "E:/NeuOrga/Programmieren/c_cpp/github_os/input/src/os_base/os_rte_icc.c"
   1:E:/NeuOrga/Programmieren/c_cpp/github_os/input/src/os_base\os_rte_icc.c **** #include "os_firstinc.h"
   2:E:/NeuOrga/Programmieren/c_cpp/github_os/input/src/os_base\os_rte_icc.c **** #include "os_common.h"
   3:E:/NeuOrga/Programmieren/c_cpp/github_os/input/src/os_base\os_rte_icc.c **** /* ROUTING_TABLE:
   4:E:/NeuOrga/Programmieren/c_cpp/github_os/input/src/os_base\os_rte_icc.c **** e.g.
   5:E:/NeuOrga/Programmieren/c_cpp/github_os/input/src/os_base\os_rte_icc.c **** C0->C1
   6:E:/NeuOrga/Programmieren/c_cpp/github_os/input/src/os_base\os_rte_icc.c **** C0->C2
   7:E:/NeuOrga/Programmieren/c_cpp/github_os/input/src/os_base\os_rte_icc.c **** C0->C3
   8:E:/NeuOrga/Programmieren/c_cpp/github_os/input/src/os_base\os_rte_icc.c **** 
   9:E:/NeuOrga/Programmieren/c_cpp/github_os/input/src/os_base\os_rte_icc.c **** C1->C0
  10:E:/NeuOrga/Programmieren/c_cpp/github_os/input/src/os_base\os_rte_icc.c **** C1->C2
  11:E:/NeuOrga/Programmieren/c_cpp/github_os/input/src/os_base\os_rte_icc.c **** C1->C3
  12:E:/NeuOrga/Programmieren/c_cpp/github_os/input/src/os_base\os_rte_icc.c **** 
  13:E:/NeuOrga/Programmieren/c_cpp/github_os/input/src/os_base\os_rte_icc.c **** C2->C0
  14:E:/NeuOrga/Programmieren/c_cpp/github_os/input/src/os_base\os_rte_icc.c **** C2->C1
  15:E:/NeuOrga/Programmieren/c_cpp/github_os/input/src/os_base\os_rte_icc.c **** C2->C2
  16:E:/NeuOrga/Programmieren/c_cpp/github_os/input/src/os_base\os_rte_icc.c **** 
  17:E:/NeuOrga/Programmieren/c_cpp/github_os/input/src/os_base\os_rte_icc.c **** C3->C0
  18:E:/NeuOrga/Programmieren/c_cpp/github_os/input/src/os_base\os_rte_icc.c **** C3->C1
  19:E:/NeuOrga/Programmieren/c_cpp/github_os/input/src/os_base\os_rte_icc.c **** C3->C2
  20:E:/NeuOrga/Programmieren/c_cpp/github_os/input/src/os_base\os_rte_icc.c **** 
  21:E:/NeuOrga/Programmieren/c_cpp/github_os/input/src/os_base\os_rte_icc.c **** -> amout_of_channels = Summe(n_Cores =2, n_Cores=X, (2*(n_Cores-1))) = n_Cores*(n_Cores-1)
  22:E:/NeuOrga/Programmieren/c_cpp/github_os/input/src/os_base\os_rte_icc.c **** -> n_Cores=2, amout_of_channels=2
  23:E:/NeuOrga/Programmieren/c_cpp/github_os/input/src/os_base\os_rte_icc.c **** -> n_Cores=3, amout_of_channels=6
  24:E:/NeuOrga/Programmieren/c_cpp/github_os/input/src/os_base\os_rte_icc.c **** -> n_Cores=4, amout_of_channels=12
  25:E:/NeuOrga/Programmieren/c_cpp/github_os/input/src/os_base\os_rte_icc.c **** -> n_Cores=5, amout_of_channels=20
  26:E:/NeuOrga/Programmieren/c_cpp/github_os/input/src/os_base\os_rte_icc.c **** -> n_Cores=6, amout_of_channels=30
  27:E:/NeuOrga/Programmieren/c_cpp/github_os/input/src/os_base\os_rte_icc.c **** -> n_Cores=7, amout_of_channels=42
  28:E:/NeuOrga/Programmieren/c_cpp/github_os/input/src/os_base\os_rte_icc.c **** 
  29:E:/NeuOrga/Programmieren/c_cpp/github_os/input/src/os_base\os_rte_icc.c **** The calculation describes the maxiumum amount of channels needed.
  30:E:/NeuOrga/Programmieren/c_cpp/github_os/input/src/os_base\os_rte_icc.c **** 
  31:E:/NeuOrga/Programmieren/c_cpp/github_os/input/src/os_base\os_rte_icc.c **** Assumptions: all core share one shared RAM block simplifing RTE complexity to amount_of_channels = 
  32:E:/NeuOrga/Programmieren/c_cpp/github_os/input/src/os_base\os_rte_icc.c **** 
  33:E:/NeuOrga/Programmieren/c_cpp/github_os/input/src/os_base\os_rte_icc.c **** */
  34:E:/NeuOrga/Programmieren/c_cpp/github_os/input/src/os_base\os_rte_icc.c **** /*
  35:E:/NeuOrga/Programmieren/c_cpp/github_os/input/src/os_base\os_rte_icc.c **** 7	Anwendungen (Application)	Anwendungsorientiert	Anwendung	Ende zu Ende (Multihop)		HTTP,FTP,HTTPS,
  36:E:/NeuOrga/Programmieren/c_cpp/github_os/input/src/os_base\os_rte_icc.c **** 
  37:E:/NeuOrga/Programmieren/c_cpp/github_os/input/src/os_base\os_rte_icc.c **** 6	Darstellung (Presentation)	Anwendungsorientiert	Anwendung	Ende zu Ende (Multihop)
  38:E:/NeuOrga/Programmieren/c_cpp/github_os/input/src/os_base\os_rte_icc.c **** 
  39:E:/NeuOrga/Programmieren/c_cpp/github_os/input/src/os_base\os_rte_icc.c **** 5	Sitzung	(Session)		Anwendungsorientiert	Anwendung	Ende zu Ende (Multihop)
  40:E:/NeuOrga/Programmieren/c_cpp/github_os/input/src/os_base\os_rte_icc.c **** 
  41:E:/NeuOrga/Programmieren/c_cpp/github_os/input/src/os_base\os_rte_icc.c **** 4	Transport (Transport)		Transportorientiert	Transport	Ende zu Ende (Multihop)		TCP,UDP,SCTP,SPX,		
  42:E:/NeuOrga/Programmieren/c_cpp/github_os/input/src/os_base\os_rte_icc.c **** 																			UDP = Datagramme
  43:E:/NeuOrga/Programmieren/c_cpp/github_os/input/src/os_base\os_rte_icc.c **** 3	Vermittlung (Network)		Transportorientiert	Internet	Punkt zu Punkt			ICMP,IGMP,IP,IPsec,IPX			Pak
  44:E:/NeuOrga/Programmieren/c_cpp/github_os/input/src/os_base\os_rte_icc.c **** 2	Sicherung (Data Link)		Transportorientiert	Netzzugriff	Punkt zu Punkt			Ethernet,Token Ring,FDDI,
  45:E:/NeuOrga/Programmieren/c_cpp/github_os/input/src/os_base\os_rte_icc.c **** 1	Bitübertragung(Physical)	Transportorientiert	Netzzugriff	Punkt zu Punkt			Ethernet,Token Ring,FDD
  46:E:/NeuOrga/Programmieren/c_cpp/github_os/input/src/os_base\os_rte_icc.c **** 
  47:E:/NeuOrga/Programmieren/c_cpp/github_os/input/src/os_base\os_rte_icc.c **** */
  48:E:/NeuOrga/Programmieren/c_cpp/github_os/input/src/os_base\os_rte_icc.c **** 
  49:E:/NeuOrga/Programmieren/c_cpp/github_os/input/src/os_base\os_rte_icc.c **** /*
  50:E:/NeuOrga/Programmieren/c_cpp/github_os/input/src/os_base\os_rte_icc.c **** Layer 4 Implementation
GAS LISTING C:\Users\PRESID~1\AppData\Local\Temp\ccj5h8Nj.s 			page 2


  51:E:/NeuOrga/Programmieren/c_cpp/github_os/input/src/os_base\os_rte_icc.c **** RQ: Segmentierung und Stauvermeidung
  52:E:/NeuOrga/Programmieren/c_cpp/github_os/input/src/os_base\os_rte_icc.c **** Start
  53:E:/NeuOrga/Programmieren/c_cpp/github_os/input/src/os_base\os_rte_icc.c **** */
  54:E:/NeuOrga/Programmieren/c_cpp/github_os/input/src/os_base\os_rte_icc.c **** /*
  55:E:/NeuOrga/Programmieren/c_cpp/github_os/input/src/os_base\os_rte_icc.c **** Layer 4 Implementation Segement or Datagramme based
  56:E:/NeuOrga/Programmieren/c_cpp/github_os/input/src/os_base\os_rte_icc.c **** End
  57:E:/NeuOrga/Programmieren/c_cpp/github_os/input/src/os_base\os_rte_icc.c **** */
  58:E:/NeuOrga/Programmieren/c_cpp/github_os/input/src/os_base\os_rte_icc.c **** 
  59:E:/NeuOrga/Programmieren/c_cpp/github_os/input/src/os_base\os_rte_icc.c **** /*
  60:E:/NeuOrga/Programmieren/c_cpp/github_os/input/src/os_base\os_rte_icc.c **** Layer 3 Implementation
  61:E:/NeuOrga/Programmieren/c_cpp/github_os/input/src/os_base\os_rte_icc.c **** Start
  62:E:/NeuOrga/Programmieren/c_cpp/github_os/input/src/os_base\os_rte_icc.c **** RQ: Routing of packages
  63:E:/NeuOrga/Programmieren/c_cpp/github_os/input/src/os_base\os_rte_icc.c **** */
  64:E:/NeuOrga/Programmieren/c_cpp/github_os/input/src/os_base\os_rte_icc.c **** /*
  65:E:/NeuOrga/Programmieren/c_cpp/github_os/input/src/os_base\os_rte_icc.c **** Layer 3 Implementation Paket based
  66:E:/NeuOrga/Programmieren/c_cpp/github_os/input/src/os_base\os_rte_icc.c **** End
  67:E:/NeuOrga/Programmieren/c_cpp/github_os/input/src/os_base\os_rte_icc.c **** */
  68:E:/NeuOrga/Programmieren/c_cpp/github_os/input/src/os_base\os_rte_icc.c **** uint8 SEND_DATA(CoreID_t Core_id_transmitter, CoreID_t Core_id_receiver, uint32 length, uint8* data
  69:E:/NeuOrga/Programmieren/c_cpp/github_os/input/src/os_base\os_rte_icc.c **** {
   9              		.loc 1 69 0
  10              		.cfi_startproc
  11 0000 55       		pushl	%ebp
  12              		.cfi_def_cfa_offset 8
  13              		.cfi_offset 5, -8
  14 0001 89E5     		movl	%esp, %ebp
  15              		.cfi_def_cfa_register 5
  70:E:/NeuOrga/Programmieren/c_cpp/github_os/input/src/os_base\os_rte_icc.c ****    ReferenceUnusedParameter(Core_id_transmitter);
  71:E:/NeuOrga/Programmieren/c_cpp/github_os/input/src/os_base\os_rte_icc.c ****    ReferenceUnusedParameter(Core_id_receiver);
  72:E:/NeuOrga/Programmieren/c_cpp/github_os/input/src/os_base\os_rte_icc.c ****    ReferenceUnusedParameter(length);
  73:E:/NeuOrga/Programmieren/c_cpp/github_os/input/src/os_base\os_rte_icc.c ****    ReferenceUnusedParameter(data);
  74:E:/NeuOrga/Programmieren/c_cpp/github_os/input/src/os_base\os_rte_icc.c ****    /*#warn "SEND_DATA() not yet implemented"*/
  75:E:/NeuOrga/Programmieren/c_cpp/github_os/input/src/os_base\os_rte_icc.c ****    return True;
  16              		.loc 1 75 0
  17 0003 B001     		movb	$1, %al
  76:E:/NeuOrga/Programmieren/c_cpp/github_os/input/src/os_base\os_rte_icc.c **** }
  18              		.loc 1 76 0
  19 0005 5D       		popl	%ebp
  20              		.cfi_restore 5
  21              		.cfi_def_cfa 4, 4
  22 0006 C3       		ret
  23              		.cfi_endproc
  24              	LFE0:
  25              		.globl	_SEND_PACKAGE
  27              	_SEND_PACKAGE:
  28              	LFB1:
  77:E:/NeuOrga/Programmieren/c_cpp/github_os/input/src/os_base\os_rte_icc.c **** /*
  78:E:/NeuOrga/Programmieren/c_cpp/github_os/input/src/os_base\os_rte_icc.c **** Layer 2 Implementation Frame based:
  79:E:/NeuOrga/Programmieren/c_cpp/github_os/input/src/os_base\os_rte_icc.c **** RQ: split in frames
  80:E:/NeuOrga/Programmieren/c_cpp/github_os/input/src/os_base\os_rte_icc.c **** RQ: Checksums
  81:E:/NeuOrga/Programmieren/c_cpp/github_os/input/src/os_base\os_rte_icc.c **** 
  82:E:/NeuOrga/Programmieren/c_cpp/github_os/input/src/os_base\os_rte_icc.c **** Start
  83:E:/NeuOrga/Programmieren/c_cpp/github_os/input/src/os_base\os_rte_icc.c **** */
  84:E:/NeuOrga/Programmieren/c_cpp/github_os/input/src/os_base\os_rte_icc.c **** /*
  85:E:/NeuOrga/Programmieren/c_cpp/github_os/input/src/os_base\os_rte_icc.c **** Layer 2 Implementation
  86:E:/NeuOrga/Programmieren/c_cpp/github_os/input/src/os_base\os_rte_icc.c **** End
  87:E:/NeuOrga/Programmieren/c_cpp/github_os/input/src/os_base\os_rte_icc.c **** */
  88:E:/NeuOrga/Programmieren/c_cpp/github_os/input/src/os_base\os_rte_icc.c **** uint8 SEND_PACKAGE(CoreID_t Core_id_transmitter, CoreID_t Core_id_receiver, uint32 length, uint8* p
GAS LISTING C:\Users\PRESID~1\AppData\Local\Temp\ccj5h8Nj.s 			page 3


  89:E:/NeuOrga/Programmieren/c_cpp/github_os/input/src/os_base\os_rte_icc.c **** {
  29              		.loc 1 89 0
  30              		.cfi_startproc
  31 0007 55       		pushl	%ebp
  32              		.cfi_def_cfa_offset 8
  33              		.cfi_offset 5, -8
  34 0008 89E5     		movl	%esp, %ebp
  35              		.cfi_def_cfa_register 5
  90:E:/NeuOrga/Programmieren/c_cpp/github_os/input/src/os_base\os_rte_icc.c ****    ReferenceUnusedParameter(Core_id_transmitter);
  91:E:/NeuOrga/Programmieren/c_cpp/github_os/input/src/os_base\os_rte_icc.c ****    ReferenceUnusedParameter(Core_id_receiver);
  92:E:/NeuOrga/Programmieren/c_cpp/github_os/input/src/os_base\os_rte_icc.c ****    ReferenceUnusedParameter(length);
  93:E:/NeuOrga/Programmieren/c_cpp/github_os/input/src/os_base\os_rte_icc.c ****    ReferenceUnusedParameter(package);
  94:E:/NeuOrga/Programmieren/c_cpp/github_os/input/src/os_base\os_rte_icc.c ****    /*#warn "SEND_PACKAGE() not yet implemented"*/
  95:E:/NeuOrga/Programmieren/c_cpp/github_os/input/src/os_base\os_rte_icc.c ****    return True;
  36              		.loc 1 95 0
  37 000a B001     		movb	$1, %al
  96:E:/NeuOrga/Programmieren/c_cpp/github_os/input/src/os_base\os_rte_icc.c **** }
  38              		.loc 1 96 0
  39 000c 5D       		popl	%ebp
  40              		.cfi_restore 5
  41              		.cfi_def_cfa 4, 4
  42 000d C3       		ret
  43              		.cfi_endproc
  44              	LFE1:
  45              		.globl	_SEND_FRAME
  47              	_SEND_FRAME:
  48              	LFB2:
  97:E:/NeuOrga/Programmieren/c_cpp/github_os/input/src/os_base\os_rte_icc.c **** 
  98:E:/NeuOrga/Programmieren/c_cpp/github_os/input/src/os_base\os_rte_icc.c **** /*
  99:E:/NeuOrga/Programmieren/c_cpp/github_os/input/src/os_base\os_rte_icc.c **** Layer 1 Implementation
 100:E:/NeuOrga/Programmieren/c_cpp/github_os/input/src/os_base\os_rte_icc.c **** RQ: Send Bits/Bytes
 101:E:/NeuOrga/Programmieren/c_cpp/github_os/input/src/os_base\os_rte_icc.c **** Start
 102:E:/NeuOrga/Programmieren/c_cpp/github_os/input/src/os_base\os_rte_icc.c **** */
 103:E:/NeuOrga/Programmieren/c_cpp/github_os/input/src/os_base\os_rte_icc.c **** /*
 104:E:/NeuOrga/Programmieren/c_cpp/github_os/input/src/os_base\os_rte_icc.c **** e.g.
 105:E:/NeuOrga/Programmieren/c_cpp/github_os/input/src/os_base\os_rte_icc.c **** C0->C1
 106:E:/NeuOrga/Programmieren/c_cpp/github_os/input/src/os_base\os_rte_icc.c **** 
 107:E:/NeuOrga/Programmieren/c_cpp/github_os/input/src/os_base\os_rte_icc.c **** C0:
 108:E:/NeuOrga/Programmieren/c_cpp/github_os/input/src/os_base\os_rte_icc.c **** 1. Check for pending read
 109:E:/NeuOrga/Programmieren/c_cpp/github_os/input/src/os_base\os_rte_icc.c **** 2. Write into buffer
 110:E:/NeuOrga/Programmieren/c_cpp/github_os/input/src/os_base\os_rte_icc.c **** 3. set updated flag
 111:E:/NeuOrga/Programmieren/c_cpp/github_os/input/src/os_base\os_rte_icc.c **** C1:
 112:E:/NeuOrga/Programmieren/c_cpp/github_os/input/src/os_base\os_rte_icc.c **** 4.1 Set pending read flag
 113:E:/NeuOrga/Programmieren/c_cpp/github_os/input/src/os_base\os_rte_icc.c **** 4.2 Check for pending write
 114:E:/NeuOrga/Programmieren/c_cpp/github_os/input/src/os_base\os_rte_icc.c **** 5. Read from Buffer
 115:E:/NeuOrga/Programmieren/c_cpp/github_os/input/src/os_base\os_rte_icc.c **** 6. Clear updated flag (+buffer)+ Clear pending read
 116:E:/NeuOrga/Programmieren/c_cpp/github_os/input/src/os_base\os_rte_icc.c **** 
 117:E:/NeuOrga/Programmieren/c_cpp/github_os/input/src/os_base\os_rte_icc.c **** */
 118:E:/NeuOrga/Programmieren/c_cpp/github_os/input/src/os_base\os_rte_icc.c **** uint8 SEND_FRAME(CoreID_t Core_id_transmitter, CoreID_t Core_id_receiver, uint32 length, uint8* fra
 119:E:/NeuOrga/Programmieren/c_cpp/github_os/input/src/os_base\os_rte_icc.c **** {
  49              		.loc 1 119 0
  50              		.cfi_startproc
  51 000e 55       		pushl	%ebp
  52              		.cfi_def_cfa_offset 8
  53              		.cfi_offset 5, -8
  54 000f 89E5     		movl	%esp, %ebp
  55              		.cfi_def_cfa_register 5
GAS LISTING C:\Users\PRESID~1\AppData\Local\Temp\ccj5h8Nj.s 			page 4


 120:E:/NeuOrga/Programmieren/c_cpp/github_os/input/src/os_base\os_rte_icc.c ****    ReferenceUnusedParameter(Core_id_transmitter);
 121:E:/NeuOrga/Programmieren/c_cpp/github_os/input/src/os_base\os_rte_icc.c ****    ReferenceUnusedParameter(Core_id_receiver);
 122:E:/NeuOrga/Programmieren/c_cpp/github_os/input/src/os_base\os_rte_icc.c ****    ReferenceUnusedParameter(length);
 123:E:/NeuOrga/Programmieren/c_cpp/github_os/input/src/os_base\os_rte_icc.c ****    ReferenceUnusedParameter(frame);
 124:E:/NeuOrga/Programmieren/c_cpp/github_os/input/src/os_base\os_rte_icc.c ****    /*#warn "SEND_FRAME() not yet implemented"*/
 125:E:/NeuOrga/Programmieren/c_cpp/github_os/input/src/os_base\os_rte_icc.c ****    return True;
  56              		.loc 1 125 0
  57 0011 B001     		movb	$1, %al
 126:E:/NeuOrga/Programmieren/c_cpp/github_os/input/src/os_base\os_rte_icc.c **** }
  58              		.loc 1 126 0
  59 0013 5D       		popl	%ebp
  60              		.cfi_restore 5
  61              		.cfi_def_cfa 4, 4
  62 0014 C3       		ret
  63              		.cfi_endproc
  64              	LFE2:
  65              	Letext0:
  66              		.file 2 "E:/NeuOrga/Programmieren/c_cpp/github_os/input/src/os_base/../os_base/os_base_types.h"
  67              		.file 3 "E:/NeuOrga/Programmieren/c_cpp/github_os/input/src/os_base/../os_sim/lld_core.h"