GAS LISTING C:\Users\PRESID~1\AppData\Local\Temp\cc3IHcck.s 			page 1


   1              		.file	"os_stack.c"
   2              		.text
   3              	Ltext0:
   4              		.globl	_OS_STACK_CHECK
   6              	_OS_STACK_CHECK:
   7              	LFB0:
   8              		.file 1 "E:/NeuOrga/Programmieren/c_cpp/github_os/input/src/os_base/os_stack.c"
   1:E:/NeuOrga/Programmieren/c_cpp/github_os/input/src/os_base\os_stack.c **** #include "os_firstinc.h"
   2:E:/NeuOrga/Programmieren/c_cpp/github_os/input/src/os_base\os_stack.c **** 
   3:E:/NeuOrga/Programmieren/c_cpp/github_os/input/src/os_base\os_stack.c **** void OS_STACK_CHECK(void)
   4:E:/NeuOrga/Programmieren/c_cpp/github_os/input/src/os_base\os_stack.c **** { 
   9              		.loc 1 4 0
  10              		.cfi_startproc
  11 0000 55       		pushl	%ebp
  12              		.cfi_def_cfa_offset 8
  13              		.cfi_offset 5, -8
  14 0001 89E5     		movl	%esp, %ebp
  15              		.cfi_def_cfa_register 5
  16 0003 83EC18   		subl	$24, %esp
   5:E:/NeuOrga/Programmieren/c_cpp/github_os/input/src/os_base\os_stack.c ****    /* the last 64 bytes are reserved for stack check for every stack
   6:E:/NeuOrga/Programmieren/c_cpp/github_os/input/src/os_base\os_stack.c ****    unsigned_char_t OS_MAIN_STACK[OS_MAIN_STACK_SIZE];
   7:E:/NeuOrga/Programmieren/c_cpp/github_os/input/src/os_base\os_stack.c **** 
   8:E:/NeuOrga/Programmieren/c_cpp/github_os/input/src/os_base\os_stack.c ****    the stack is starting at the highest address and growing to lower addresses -> pattern start on 
   9:E:/NeuOrga/Programmieren/c_cpp/github_os/input/src/os_base\os_stack.c **** 
  10:E:/NeuOrga/Programmieren/c_cpp/github_os/input/src/os_base\os_stack.c ****    */
  11:E:/NeuOrga/Programmieren/c_cpp/github_os/input/src/os_base\os_stack.c ****    static volatile uint32 stack_pos = 0u, stack_used = FALSE;
  12:E:/NeuOrga/Programmieren/c_cpp/github_os/input/src/os_base\os_stack.c ****    OS_MAIN_STACK_ADDR = (volatile uint32*)-1u;
  17              		.loc 1 12 0
  18 0006 C7050000 		movl	$-1, _OS_MAIN_STACK_ADDR
  18      0000FFFF 
  18      FFFF
  13:E:/NeuOrga/Programmieren/c_cpp/github_os/input/src/os_base\os_stack.c ****    OS_MAIN_STACK_POS =  (volatile uint32) -1u;
  19              		.loc 1 13 0
  20 0010 C7050000 		movl	$-1, _OS_MAIN_STACK_POS
  20      0000FFFF 
  20      FFFF
  14:E:/NeuOrga/Programmieren/c_cpp/github_os/input/src/os_base\os_stack.c ****    OS_MAIN_STACK_USAGE_PERCENT = 0u;
  21              		.loc 1 14 0
  22 001a C7050000 		movl	$0, _OS_MAIN_STACK_USAGE_PERCENT
  22      00000000 
  22      0000
  15:E:/NeuOrga/Programmieren/c_cpp/github_os/input/src/os_base\os_stack.c **** 
  16:E:/NeuOrga/Programmieren/c_cpp/github_os/input/src/os_base\os_stack.c ****    for(stack_pos = 0; stack_pos < OS_MAIN_STACK_SIZE; stack_pos++)
  23              		.loc 1 16 0
  24 0024 C7050000 		movl	$0, _stack_pos.1369
  24      00000000 
  24      0000
  25 002e EB4C     		jmp	L2
  26              	L4:
  17:E:/NeuOrga/Programmieren/c_cpp/github_os/input/src/os_base\os_stack.c ****    {
  18:E:/NeuOrga/Programmieren/c_cpp/github_os/input/src/os_base\os_stack.c ****       if(OS_MAIN_STACK[stack_pos] != 0xAA)
  27              		.loc 1 18 0
  28 0030 A1000000 		movl	_stack_pos.1369, %eax
  28      00
  29 0035 8A800000 		movb	_OS_MAIN_STACK(%eax), %al
  29      0000
  30 003b 3CAA     		cmpb	$-86, %al
GAS LISTING C:\Users\PRESID~1\AppData\Local\Temp\cc3IHcck.s 			page 2


  31 003d 7432     		je	L3
  19:E:/NeuOrga/Programmieren/c_cpp/github_os/input/src/os_base\os_stack.c ****       {
  20:E:/NeuOrga/Programmieren/c_cpp/github_os/input/src/os_base\os_stack.c ****          stack_used = TRUE;
  32              		.loc 1 20 0
  33 003f C7050400 		movl	$1, _stack_used.1370
  33      00000100 
  33      0000
  21:E:/NeuOrga/Programmieren/c_cpp/github_os/input/src/os_base\os_stack.c ****          if(stack_pos < OS_MAIN_STACK_POS)
  34              		.loc 1 21 0
  35 0049 8B150000 		movl	_stack_pos.1369, %edx
  35      0000
  36 004f A1000000 		movl	_OS_MAIN_STACK_POS, %eax
  36      00
  37 0054 39C2     		cmpl	%eax, %edx
  38 0056 7319     		jnb	L3
  22:E:/NeuOrga/Programmieren/c_cpp/github_os/input/src/os_base\os_stack.c ****          {
  23:E:/NeuOrga/Programmieren/c_cpp/github_os/input/src/os_base\os_stack.c ****             OS_MAIN_STACK_POS  = (volatile uint32 )stack_pos;
  39              		.loc 1 23 0
  40 0058 A1000000 		movl	_stack_pos.1369, %eax
  40      00
  41 005d A3000000 		movl	%eax, _OS_MAIN_STACK_POS
  41      00
  24:E:/NeuOrga/Programmieren/c_cpp/github_os/input/src/os_base\os_stack.c ****             OS_MAIN_STACK_ADDR = (volatile uint32*)&OS_MAIN_STACK[stack_pos];
  42              		.loc 1 24 0
  43 0062 A1000000 		movl	_stack_pos.1369, %eax
  43      00
  44 0067 05000000 		addl	$_OS_MAIN_STACK, %eax
  44      00
  45 006c A3000000 		movl	%eax, _OS_MAIN_STACK_ADDR
  45      00
  46              	L3:
  16:E:/NeuOrga/Programmieren/c_cpp/github_os/input/src/os_base\os_stack.c ****    {
  47              		.loc 1 16 0 discriminator 2
  48 0071 A1000000 		movl	_stack_pos.1369, %eax
  48      00
  49 0076 40       		incl	%eax
  50 0077 A3000000 		movl	%eax, _stack_pos.1369
  50      00
  51              	L2:
  16:E:/NeuOrga/Programmieren/c_cpp/github_os/input/src/os_base\os_stack.c ****    {
  52              		.loc 1 16 0 is_stmt 0 discriminator 1
  53 007c A1000000 		movl	_stack_pos.1369, %eax
  53      00
  54 0081 3DFF0300 		cmpl	$1023, %eax
  54      00
  55 0086 76A8     		jbe	L4
  25:E:/NeuOrga/Programmieren/c_cpp/github_os/input/src/os_base\os_stack.c ****          }
  26:E:/NeuOrga/Programmieren/c_cpp/github_os/input/src/os_base\os_stack.c ****       }
  27:E:/NeuOrga/Programmieren/c_cpp/github_os/input/src/os_base\os_stack.c ****    }
  28:E:/NeuOrga/Programmieren/c_cpp/github_os/input/src/os_base\os_stack.c ****    for(stack_pos = 0; stack_pos < TASK0_STACK_SIZE; stack_pos++)
  56              		.loc 1 28 0 is_stmt 1
  57 0088 C7050000 		movl	$0, _stack_pos.1369
  57      00000000 
  57      0000
  58 0092 EB4C     		jmp	L5
  59              	L7:
  29:E:/NeuOrga/Programmieren/c_cpp/github_os/input/src/os_base\os_stack.c ****    {
GAS LISTING C:\Users\PRESID~1\AppData\Local\Temp\cc3IHcck.s 			page 3


  30:E:/NeuOrga/Programmieren/c_cpp/github_os/input/src/os_base\os_stack.c ****       if(TASK0_STACK[stack_pos] != 0xAA)
  60              		.loc 1 30 0
  61 0094 A1000000 		movl	_stack_pos.1369, %eax
  61      00
  62 0099 8A800000 		movb	_TASK0_STACK(%eax), %al
  62      0000
  63 009f 3CAA     		cmpb	$-86, %al
  64 00a1 7432     		je	L6
  31:E:/NeuOrga/Programmieren/c_cpp/github_os/input/src/os_base\os_stack.c ****       {
  32:E:/NeuOrga/Programmieren/c_cpp/github_os/input/src/os_base\os_stack.c ****          stack_used = TRUE;
  65              		.loc 1 32 0
  66 00a3 C7050400 		movl	$1, _stack_used.1370
  66      00000100 
  66      0000
  33:E:/NeuOrga/Programmieren/c_cpp/github_os/input/src/os_base\os_stack.c ****          if(stack_pos < TASK0_STACK_POS)
  67              		.loc 1 33 0
  68 00ad 8B150000 		movl	_stack_pos.1369, %edx
  68      0000
  69 00b3 A1000000 		movl	_TASK0_STACK_POS, %eax
  69      00
  70 00b8 39C2     		cmpl	%eax, %edx
  71 00ba 7319     		jnb	L6
  34:E:/NeuOrga/Programmieren/c_cpp/github_os/input/src/os_base\os_stack.c ****          {
  35:E:/NeuOrga/Programmieren/c_cpp/github_os/input/src/os_base\os_stack.c ****             TASK0_STACK_POS  = (volatile uint32 )stack_pos;
  72              		.loc 1 35 0
  73 00bc A1000000 		movl	_stack_pos.1369, %eax
  73      00
  74 00c1 A3000000 		movl	%eax, _TASK0_STACK_POS
  74      00
  36:E:/NeuOrga/Programmieren/c_cpp/github_os/input/src/os_base\os_stack.c ****             TASK0_STACK_ADDR = (volatile uint32*)&TASK0_STACK[stack_pos];
  75              		.loc 1 36 0
  76 00c6 A1000000 		movl	_stack_pos.1369, %eax
  76      00
  77 00cb 05000000 		addl	$_TASK0_STACK, %eax
  77      00
  78 00d0 A3000000 		movl	%eax, _TASK0_STACK_ADDR
  78      00
  79              	L6:
  28:E:/NeuOrga/Programmieren/c_cpp/github_os/input/src/os_base\os_stack.c ****    {
  80              		.loc 1 28 0 discriminator 2
  81 00d5 A1000000 		movl	_stack_pos.1369, %eax
  81      00
  82 00da 40       		incl	%eax
  83 00db A3000000 		movl	%eax, _stack_pos.1369
  83      00
  84              	L5:
  28:E:/NeuOrga/Programmieren/c_cpp/github_os/input/src/os_base\os_stack.c ****    {
  85              		.loc 1 28 0 is_stmt 0 discriminator 1
  86 00e0 A1000000 		movl	_stack_pos.1369, %eax
  86      00
  87 00e5 3DCF0700 		cmpl	$1999, %eax
  87      00
  88 00ea 76A8     		jbe	L7
  37:E:/NeuOrga/Programmieren/c_cpp/github_os/input/src/os_base\os_stack.c ****          }
  38:E:/NeuOrga/Programmieren/c_cpp/github_os/input/src/os_base\os_stack.c ****       }
  39:E:/NeuOrga/Programmieren/c_cpp/github_os/input/src/os_base\os_stack.c ****    }
  40:E:/NeuOrga/Programmieren/c_cpp/github_os/input/src/os_base\os_stack.c ****    for(stack_pos = 0; stack_pos < TASK1_STACK_SIZE; stack_pos++)
GAS LISTING C:\Users\PRESID~1\AppData\Local\Temp\cc3IHcck.s 			page 4


  89              		.loc 1 40 0 is_stmt 1
  90 00ec C7050000 		movl	$0, _stack_pos.1369
  90      00000000 
  90      0000
  91 00f6 EB4C     		jmp	L8
  92              	L10:
  41:E:/NeuOrga/Programmieren/c_cpp/github_os/input/src/os_base\os_stack.c ****    {
  42:E:/NeuOrga/Programmieren/c_cpp/github_os/input/src/os_base\os_stack.c ****       if(TASK1_STACK[stack_pos] != 0xAA)
  93              		.loc 1 42 0
  94 00f8 A1000000 		movl	_stack_pos.1369, %eax
  94      00
  95 00fd 8A800000 		movb	_TASK1_STACK(%eax), %al
  95      0000
  96 0103 3CAA     		cmpb	$-86, %al
  97 0105 7432     		je	L9
  43:E:/NeuOrga/Programmieren/c_cpp/github_os/input/src/os_base\os_stack.c ****       {
  44:E:/NeuOrga/Programmieren/c_cpp/github_os/input/src/os_base\os_stack.c ****          stack_used = TRUE;
  98              		.loc 1 44 0
  99 0107 C7050400 		movl	$1, _stack_used.1370
  99      00000100 
  99      0000
  45:E:/NeuOrga/Programmieren/c_cpp/github_os/input/src/os_base\os_stack.c ****          if(stack_pos < TASK1_STACK_POS)
 100              		.loc 1 45 0
 101 0111 8B150000 		movl	_stack_pos.1369, %edx
 101      0000
 102 0117 A1000000 		movl	_TASK1_STACK_POS, %eax
 102      00
 103 011c 39C2     		cmpl	%eax, %edx
 104 011e 7319     		jnb	L9
  46:E:/NeuOrga/Programmieren/c_cpp/github_os/input/src/os_base\os_stack.c ****          {
  47:E:/NeuOrga/Programmieren/c_cpp/github_os/input/src/os_base\os_stack.c ****             TASK1_STACK_POS  = (volatile uint32 )stack_pos;
 105              		.loc 1 47 0
 106 0120 A1000000 		movl	_stack_pos.1369, %eax
 106      00
 107 0125 A3000000 		movl	%eax, _TASK1_STACK_POS
 107      00
  48:E:/NeuOrga/Programmieren/c_cpp/github_os/input/src/os_base\os_stack.c ****             TASK1_STACK_ADDR = (volatile uint32*)&TASK1_STACK[stack_pos];
 108              		.loc 1 48 0
 109 012a A1000000 		movl	_stack_pos.1369, %eax
 109      00
 110 012f 05000000 		addl	$_TASK1_STACK, %eax
 110      00
 111 0134 A3000000 		movl	%eax, _TASK1_STACK_ADDR
 111      00
 112              	L9:
  40:E:/NeuOrga/Programmieren/c_cpp/github_os/input/src/os_base\os_stack.c ****    {
 113              		.loc 1 40 0 discriminator 2
 114 0139 A1000000 		movl	_stack_pos.1369, %eax
 114      00
 115 013e 40       		incl	%eax
 116 013f A3000000 		movl	%eax, _stack_pos.1369
 116      00
 117              	L8:
  40:E:/NeuOrga/Programmieren/c_cpp/github_os/input/src/os_base\os_stack.c ****    {
 118              		.loc 1 40 0 is_stmt 0 discriminator 1
 119 0144 A1000000 		movl	_stack_pos.1369, %eax
 119      00
GAS LISTING C:\Users\PRESID~1\AppData\Local\Temp\cc3IHcck.s 			page 5


 120 0149 3DCF0700 		cmpl	$1999, %eax
 120      00
 121 014e 76A8     		jbe	L10
  49:E:/NeuOrga/Programmieren/c_cpp/github_os/input/src/os_base\os_stack.c ****          }
  50:E:/NeuOrga/Programmieren/c_cpp/github_os/input/src/os_base\os_stack.c ****       }
  51:E:/NeuOrga/Programmieren/c_cpp/github_os/input/src/os_base\os_stack.c ****    }
  52:E:/NeuOrga/Programmieren/c_cpp/github_os/input/src/os_base\os_stack.c ****    for(stack_pos = 0; stack_pos < TASK2_STACK_SIZE; stack_pos++)
 122              		.loc 1 52 0 is_stmt 1
 123 0150 C7050000 		movl	$0, _stack_pos.1369
 123      00000000 
 123      0000
 124 015a EB4C     		jmp	L11
 125              	L13:
  53:E:/NeuOrga/Programmieren/c_cpp/github_os/input/src/os_base\os_stack.c ****    {
  54:E:/NeuOrga/Programmieren/c_cpp/github_os/input/src/os_base\os_stack.c ****       if(TASK2_STACK[stack_pos] != 0xAA)
 126              		.loc 1 54 0
 127 015c A1000000 		movl	_stack_pos.1369, %eax
 127      00
 128 0161 8A800000 		movb	_TASK2_STACK(%eax), %al
 128      0000
 129 0167 3CAA     		cmpb	$-86, %al
 130 0169 7432     		je	L12
  55:E:/NeuOrga/Programmieren/c_cpp/github_os/input/src/os_base\os_stack.c ****       {
  56:E:/NeuOrga/Programmieren/c_cpp/github_os/input/src/os_base\os_stack.c ****          stack_used = TRUE;
 131              		.loc 1 56 0
 132 016b C7050400 		movl	$1, _stack_used.1370
 132      00000100 
 132      0000
  57:E:/NeuOrga/Programmieren/c_cpp/github_os/input/src/os_base\os_stack.c ****          if(stack_pos < TASK2_STACK_POS)
 133              		.loc 1 57 0
 134 0175 8B150000 		movl	_stack_pos.1369, %edx
 134      0000
 135 017b A1000000 		movl	_TASK2_STACK_POS, %eax
 135      00
 136 0180 39C2     		cmpl	%eax, %edx
 137 0182 7319     		jnb	L12
  58:E:/NeuOrga/Programmieren/c_cpp/github_os/input/src/os_base\os_stack.c ****          {
  59:E:/NeuOrga/Programmieren/c_cpp/github_os/input/src/os_base\os_stack.c ****             TASK2_STACK_POS  = (volatile uint32 )stack_pos;
 138              		.loc 1 59 0
 139 0184 A1000000 		movl	_stack_pos.1369, %eax
 139      00
 140 0189 A3000000 		movl	%eax, _TASK2_STACK_POS
 140      00
  60:E:/NeuOrga/Programmieren/c_cpp/github_os/input/src/os_base\os_stack.c ****             TASK2_STACK_ADDR = (volatile uint32*)&TASK2_STACK[stack_pos];
 141              		.loc 1 60 0
 142 018e A1000000 		movl	_stack_pos.1369, %eax
 142      00
 143 0193 05000000 		addl	$_TASK2_STACK, %eax
 143      00
 144 0198 A3000000 		movl	%eax, _TASK2_STACK_ADDR
 144      00
 145              	L12:
  52:E:/NeuOrga/Programmieren/c_cpp/github_os/input/src/os_base\os_stack.c ****    {
 146              		.loc 1 52 0 discriminator 2
 147 019d A1000000 		movl	_stack_pos.1369, %eax
 147      00
 148 01a2 40       		incl	%eax
GAS LISTING C:\Users\PRESID~1\AppData\Local\Temp\cc3IHcck.s 			page 6


 149 01a3 A3000000 		movl	%eax, _stack_pos.1369
 149      00
 150              	L11:
  52:E:/NeuOrga/Programmieren/c_cpp/github_os/input/src/os_base\os_stack.c ****    {
 151              		.loc 1 52 0 is_stmt 0 discriminator 1
 152 01a8 A1000000 		movl	_stack_pos.1369, %eax
 152      00
 153 01ad 3DCF0700 		cmpl	$1999, %eax
 153      00
 154 01b2 76A8     		jbe	L13
  61:E:/NeuOrga/Programmieren/c_cpp/github_os/input/src/os_base\os_stack.c ****          }
  62:E:/NeuOrga/Programmieren/c_cpp/github_os/input/src/os_base\os_stack.c ****       }
  63:E:/NeuOrga/Programmieren/c_cpp/github_os/input/src/os_base\os_stack.c ****    }
  64:E:/NeuOrga/Programmieren/c_cpp/github_os/input/src/os_base\os_stack.c ****    for(stack_pos = 0; stack_pos < TASK3_STACK_SIZE; stack_pos++)
 155              		.loc 1 64 0 is_stmt 1
 156 01b4 C7050000 		movl	$0, _stack_pos.1369
 156      00000000 
 156      0000
 157 01be EB4C     		jmp	L14
 158              	L16:
  65:E:/NeuOrga/Programmieren/c_cpp/github_os/input/src/os_base\os_stack.c ****    {
  66:E:/NeuOrga/Programmieren/c_cpp/github_os/input/src/os_base\os_stack.c ****       if(TASK3_STACK[stack_pos] != 0xAA)
 159              		.loc 1 66 0
 160 01c0 A1000000 		movl	_stack_pos.1369, %eax
 160      00
 161 01c5 8A800000 		movb	_TASK3_STACK(%eax), %al
 161      0000
 162 01cb 3CAA     		cmpb	$-86, %al
 163 01cd 7432     		je	L15
  67:E:/NeuOrga/Programmieren/c_cpp/github_os/input/src/os_base\os_stack.c ****       {
  68:E:/NeuOrga/Programmieren/c_cpp/github_os/input/src/os_base\os_stack.c ****          stack_used = TRUE;
 164              		.loc 1 68 0
 165 01cf C7050400 		movl	$1, _stack_used.1370
 165      00000100 
 165      0000
  69:E:/NeuOrga/Programmieren/c_cpp/github_os/input/src/os_base\os_stack.c ****          if(stack_pos < TASK3_STACK_POS)
 166              		.loc 1 69 0
 167 01d9 8B150000 		movl	_stack_pos.1369, %edx
 167      0000
 168 01df A1000000 		movl	_TASK3_STACK_POS, %eax
 168      00
 169 01e4 39C2     		cmpl	%eax, %edx
 170 01e6 7319     		jnb	L15
  70:E:/NeuOrga/Programmieren/c_cpp/github_os/input/src/os_base\os_stack.c ****          {
  71:E:/NeuOrga/Programmieren/c_cpp/github_os/input/src/os_base\os_stack.c ****             TASK3_STACK_POS  = (volatile uint32 )stack_pos;
 171              		.loc 1 71 0
 172 01e8 A1000000 		movl	_stack_pos.1369, %eax
 172      00
 173 01ed A3000000 		movl	%eax, _TASK3_STACK_POS
 173      00
  72:E:/NeuOrga/Programmieren/c_cpp/github_os/input/src/os_base\os_stack.c ****             TASK3_STACK_ADDR = (volatile uint32*)&TASK3_STACK[stack_pos];
 174              		.loc 1 72 0
 175 01f2 A1000000 		movl	_stack_pos.1369, %eax
 175      00
 176 01f7 05000000 		addl	$_TASK3_STACK, %eax
 176      00
 177 01fc A3000000 		movl	%eax, _TASK3_STACK_ADDR
GAS LISTING C:\Users\PRESID~1\AppData\Local\Temp\cc3IHcck.s 			page 7


 177      00
 178              	L15:
  64:E:/NeuOrga/Programmieren/c_cpp/github_os/input/src/os_base\os_stack.c ****    {
 179              		.loc 1 64 0 discriminator 2
 180 0201 A1000000 		movl	_stack_pos.1369, %eax
 180      00
 181 0206 40       		incl	%eax
 182 0207 A3000000 		movl	%eax, _stack_pos.1369
 182      00
 183              	L14:
  64:E:/NeuOrga/Programmieren/c_cpp/github_os/input/src/os_base\os_stack.c ****    {
 184              		.loc 1 64 0 is_stmt 0 discriminator 1
 185 020c A1000000 		movl	_stack_pos.1369, %eax
 185      00
 186 0211 3DCF0700 		cmpl	$1999, %eax
 186      00
 187 0216 76A8     		jbe	L16
  73:E:/NeuOrga/Programmieren/c_cpp/github_os/input/src/os_base\os_stack.c ****          }
  74:E:/NeuOrga/Programmieren/c_cpp/github_os/input/src/os_base\os_stack.c ****       }
  75:E:/NeuOrga/Programmieren/c_cpp/github_os/input/src/os_base\os_stack.c ****    }
  76:E:/NeuOrga/Programmieren/c_cpp/github_os/input/src/os_base\os_stack.c ****    for(stack_pos = 0; stack_pos < TASK4_STACK_SIZE; stack_pos++)
 188              		.loc 1 76 0 is_stmt 1
 189 0218 C7050000 		movl	$0, _stack_pos.1369
 189      00000000 
 189      0000
 190 0222 EB4C     		jmp	L17
 191              	L19:
  77:E:/NeuOrga/Programmieren/c_cpp/github_os/input/src/os_base\os_stack.c ****    {
  78:E:/NeuOrga/Programmieren/c_cpp/github_os/input/src/os_base\os_stack.c ****       if(TASK4_STACK[stack_pos] != 0xAA)
 192              		.loc 1 78 0
 193 0224 A1000000 		movl	_stack_pos.1369, %eax
 193      00
 194 0229 8A800000 		movb	_TASK4_STACK(%eax), %al
 194      0000
 195 022f 3CAA     		cmpb	$-86, %al
 196 0231 7432     		je	L18
  79:E:/NeuOrga/Programmieren/c_cpp/github_os/input/src/os_base\os_stack.c ****       {
  80:E:/NeuOrga/Programmieren/c_cpp/github_os/input/src/os_base\os_stack.c ****          stack_used = TRUE;
 197              		.loc 1 80 0
 198 0233 C7050400 		movl	$1, _stack_used.1370
 198      00000100 
 198      0000
  81:E:/NeuOrga/Programmieren/c_cpp/github_os/input/src/os_base\os_stack.c ****          if(stack_pos < TASK4_STACK_POS)
 199              		.loc 1 81 0
 200 023d 8B150000 		movl	_stack_pos.1369, %edx
 200      0000
 201 0243 A1000000 		movl	_TASK4_STACK_POS, %eax
 201      00
 202 0248 39C2     		cmpl	%eax, %edx
 203 024a 7319     		jnb	L18
  82:E:/NeuOrga/Programmieren/c_cpp/github_os/input/src/os_base\os_stack.c ****          {
  83:E:/NeuOrga/Programmieren/c_cpp/github_os/input/src/os_base\os_stack.c ****             TASK4_STACK_POS  = (volatile uint32 )stack_pos;
 204              		.loc 1 83 0
 205 024c A1000000 		movl	_stack_pos.1369, %eax
 205      00
 206 0251 A3000000 		movl	%eax, _TASK4_STACK_POS
 206      00
GAS LISTING C:\Users\PRESID~1\AppData\Local\Temp\cc3IHcck.s 			page 8


  84:E:/NeuOrga/Programmieren/c_cpp/github_os/input/src/os_base\os_stack.c ****             TASK4_STACK_ADDR = (volatile uint32*)&TASK4_STACK[stack_pos];
 207              		.loc 1 84 0
 208 0256 A1000000 		movl	_stack_pos.1369, %eax
 208      00
 209 025b 05000000 		addl	$_TASK4_STACK, %eax
 209      00
 210 0260 A3000000 		movl	%eax, _TASK4_STACK_ADDR
 210      00
 211              	L18:
  76:E:/NeuOrga/Programmieren/c_cpp/github_os/input/src/os_base\os_stack.c ****    {
 212              		.loc 1 76 0 discriminator 2
 213 0265 A1000000 		movl	_stack_pos.1369, %eax
 213      00
 214 026a 40       		incl	%eax
 215 026b A3000000 		movl	%eax, _stack_pos.1369
 215      00
 216              	L17:
  76:E:/NeuOrga/Programmieren/c_cpp/github_os/input/src/os_base\os_stack.c ****    {
 217              		.loc 1 76 0 is_stmt 0 discriminator 1
 218 0270 A1000000 		movl	_stack_pos.1369, %eax
 218      00
 219 0275 3DCF0700 		cmpl	$1999, %eax
 219      00
 220 027a 76A8     		jbe	L19
  85:E:/NeuOrga/Programmieren/c_cpp/github_os/input/src/os_base\os_stack.c ****          }
  86:E:/NeuOrga/Programmieren/c_cpp/github_os/input/src/os_base\os_stack.c ****       }
  87:E:/NeuOrga/Programmieren/c_cpp/github_os/input/src/os_base\os_stack.c ****    }   
  88:E:/NeuOrga/Programmieren/c_cpp/github_os/input/src/os_base\os_stack.c ****    OS_MAIN_STACK_USAGE_PERCENT = (OS_MAIN_STACK_SIZE - OS_MAIN_STACK_POS) * 100u / OS_MAIN_STACK_SI
 221              		.loc 1 88 0 is_stmt 1
 222 027c 8B150000 		movl	_OS_MAIN_STACK_POS, %edx
 222      0000
 223 0282 89D0     		movl	%edx, %eax
 224 0284 C1E002   		sall	$2, %eax
 225 0287 01D0     		addl	%edx, %eax
 226 0289 8D148500 		leal	0(,%eax,4), %edx
 226      000000
 227 0290 01D0     		addl	%edx, %eax
 228 0292 C1E002   		sall	$2, %eax
 229 0295 F7D8     		negl	%eax
 230 0297 05009001 		addl	$102400, %eax
 230      00
 231 029c C1E80A   		shrl	$10, %eax
 232 029f A3000000 		movl	%eax, _OS_MAIN_STACK_USAGE_PERCENT
 232      00
  89:E:/NeuOrga/Programmieren/c_cpp/github_os/input/src/os_base\os_stack.c ****    TASK0_STACK_USAGE_PERCENT   = (TASK0_STACK_SIZE - TASK0_STACK_POS) * 100u / TASK0_STACK_SIZE;
 233              		.loc 1 89 0
 234 02a4 8B150000 		movl	_TASK0_STACK_POS, %edx
 234      0000
 235 02aa 89D0     		movl	%edx, %eax
 236 02ac C1E002   		sall	$2, %eax
 237 02af 01D0     		addl	%edx, %eax
 238 02b1 8D148500 		leal	0(,%eax,4), %edx
 238      000000
 239 02b8 01D0     		addl	%edx, %eax
 240 02ba C1E002   		sall	$2, %eax
 241 02bd F7D8     		negl	%eax
 242 02bf 8D90400D 		leal	200000(%eax), %edx
GAS LISTING C:\Users\PRESID~1\AppData\Local\Temp\cc3IHcck.s 			page 9


 242      0300
 243 02c5 B8D34D62 		movl	$274877907, %eax
 243      10
 244 02ca F7E2     		mull	%edx
 245 02cc 89D0     		movl	%edx, %eax
 246 02ce C1E807   		shrl	$7, %eax
 247 02d1 A3000000 		movl	%eax, _TASK0_STACK_USAGE_PERCENT
 247      00
  90:E:/NeuOrga/Programmieren/c_cpp/github_os/input/src/os_base\os_stack.c ****    TASK1_STACK_USAGE_PERCENT   = (TASK1_STACK_SIZE - TASK1_STACK_POS) * 100u / TASK1_STACK_SIZE;
 248              		.loc 1 90 0
 249 02d6 8B150000 		movl	_TASK1_STACK_POS, %edx
 249      0000
 250 02dc 89D0     		movl	%edx, %eax
 251 02de C1E002   		sall	$2, %eax
 252 02e1 01D0     		addl	%edx, %eax
 253 02e3 8D148500 		leal	0(,%eax,4), %edx
 253      000000
 254 02ea 01D0     		addl	%edx, %eax
 255 02ec C1E002   		sall	$2, %eax
 256 02ef F7D8     		negl	%eax
 257 02f1 8D90400D 		leal	200000(%eax), %edx
 257      0300
 258 02f7 B8D34D62 		movl	$274877907, %eax
 258      10
 259 02fc F7E2     		mull	%edx
 260 02fe 89D0     		movl	%edx, %eax
 261 0300 C1E807   		shrl	$7, %eax
 262 0303 A3000000 		movl	%eax, _TASK1_STACK_USAGE_PERCENT
 262      00
  91:E:/NeuOrga/Programmieren/c_cpp/github_os/input/src/os_base\os_stack.c ****    TASK2_STACK_USAGE_PERCENT   = (TASK2_STACK_SIZE - TASK2_STACK_POS) * 100u / TASK2_STACK_SIZE;
 263              		.loc 1 91 0
 264 0308 8B150000 		movl	_TASK2_STACK_POS, %edx
 264      0000
 265 030e 89D0     		movl	%edx, %eax
 266 0310 C1E002   		sall	$2, %eax
 267 0313 01D0     		addl	%edx, %eax
 268 0315 8D148500 		leal	0(,%eax,4), %edx
 268      000000
 269 031c 01D0     		addl	%edx, %eax
 270 031e C1E002   		sall	$2, %eax
 271 0321 F7D8     		negl	%eax
 272 0323 8D90400D 		leal	200000(%eax), %edx
 272      0300
 273 0329 B8D34D62 		movl	$274877907, %eax
 273      10
 274 032e F7E2     		mull	%edx
 275 0330 89D0     		movl	%edx, %eax
 276 0332 C1E807   		shrl	$7, %eax
 277 0335 A3000000 		movl	%eax, _TASK2_STACK_USAGE_PERCENT
 277      00
  92:E:/NeuOrga/Programmieren/c_cpp/github_os/input/src/os_base\os_stack.c ****    TASK3_STACK_USAGE_PERCENT   = (TASK3_STACK_SIZE - TASK3_STACK_POS) * 100u / TASK3_STACK_SIZE;
 278              		.loc 1 92 0
 279 033a 8B150000 		movl	_TASK3_STACK_POS, %edx
 279      0000
 280 0340 89D0     		movl	%edx, %eax
 281 0342 C1E002   		sall	$2, %eax
 282 0345 01D0     		addl	%edx, %eax
GAS LISTING C:\Users\PRESID~1\AppData\Local\Temp\cc3IHcck.s 			page 10


 283 0347 8D148500 		leal	0(,%eax,4), %edx
 283      000000
 284 034e 01D0     		addl	%edx, %eax
 285 0350 C1E002   		sall	$2, %eax
 286 0353 F7D8     		negl	%eax
 287 0355 8D90400D 		leal	200000(%eax), %edx
 287      0300
 288 035b B8D34D62 		movl	$274877907, %eax
 288      10
 289 0360 F7E2     		mull	%edx
 290 0362 89D0     		movl	%edx, %eax
 291 0364 C1E807   		shrl	$7, %eax
 292 0367 A3000000 		movl	%eax, _TASK3_STACK_USAGE_PERCENT
 292      00
  93:E:/NeuOrga/Programmieren/c_cpp/github_os/input/src/os_base\os_stack.c ****    TASK4_STACK_USAGE_PERCENT   = (TASK4_STACK_SIZE - TASK4_STACK_POS) * 100u / TASK4_STACK_SIZE;
 293              		.loc 1 93 0
 294 036c 8B150000 		movl	_TASK4_STACK_POS, %edx
 294      0000
 295 0372 89D0     		movl	%edx, %eax
 296 0374 C1E002   		sall	$2, %eax
 297 0377 01D0     		addl	%edx, %eax
 298 0379 8D148500 		leal	0(,%eax,4), %edx
 298      000000
 299 0380 01D0     		addl	%edx, %eax
 300 0382 C1E002   		sall	$2, %eax
 301 0385 F7D8     		negl	%eax
 302 0387 8D90400D 		leal	200000(%eax), %edx
 302      0300
 303 038d B8D34D62 		movl	$274877907, %eax
 303      10
 304 0392 F7E2     		mull	%edx
 305 0394 89D0     		movl	%edx, %eax
 306 0396 C1E807   		shrl	$7, %eax
 307 0399 A3000000 		movl	%eax, _TASK4_STACK_USAGE_PERCENT
 307      00
  94:E:/NeuOrga/Programmieren/c_cpp/github_os/input/src/os_base\os_stack.c **** 
  95:E:/NeuOrga/Programmieren/c_cpp/github_os/input/src/os_base\os_stack.c ****    if((stack_used == TRUE) && ((OS_MAIN_STACK_USAGE_PERCENT > 80u) || (TASK0_STACK_USAGE_PERCENT > 
 308              		.loc 1 95 0
 309 039e A1040000 		movl	_stack_used.1370, %eax
 309      00
 310 03a3 83F801   		cmpl	$1, %eax
 311 03a6 7552     		jne	L1
 312              		.loc 1 95 0 is_stmt 0 discriminator 1
 313 03a8 A1000000 		movl	_OS_MAIN_STACK_USAGE_PERCENT, %eax
 313      00
 314 03ad 83F850   		cmpl	$80, %eax
 315 03b0 7732     		ja	L21
 316              		.loc 1 95 0 discriminator 2
 317 03b2 A1000000 		movl	_TASK0_STACK_USAGE_PERCENT, %eax
 317      00
 318 03b7 83F850   		cmpl	$80, %eax
 319 03ba 7728     		ja	L21
 320              		.loc 1 95 0 discriminator 3
 321 03bc A1000000 		movl	_TASK1_STACK_USAGE_PERCENT, %eax
 321      00
 322 03c1 83F850   		cmpl	$80, %eax
 323 03c4 771E     		ja	L21
GAS LISTING C:\Users\PRESID~1\AppData\Local\Temp\cc3IHcck.s 			page 11


 324              		.loc 1 95 0 discriminator 4
 325 03c6 A1000000 		movl	_TASK2_STACK_USAGE_PERCENT, %eax
 325      00
 326 03cb 83F850   		cmpl	$80, %eax
 327 03ce 7714     		ja	L21
 328              		.loc 1 95 0 discriminator 5
 329 03d0 A1000000 		movl	_TASK3_STACK_USAGE_PERCENT, %eax
 329      00
 330 03d5 83F850   		cmpl	$80, %eax
 331 03d8 770A     		ja	L21
 332              		.loc 1 95 0 discriminator 6
 333 03da A1000000 		movl	_TASK4_STACK_USAGE_PERCENT, %eax
 333      00
 334 03df 83F850   		cmpl	$80, %eax
 335 03e2 7616     		jbe	L1
 336              	L21:
  96:E:/NeuOrga/Programmieren/c_cpp/github_os/input/src/os_base\os_stack.c ****    {
  97:E:/NeuOrga/Programmieren/c_cpp/github_os/input/src/os_base\os_stack.c ****       OS_SET_SW_BUG(E_OS_BUG_CRITICAL_STACK_USAGE,E_FUNC_STACKCHECK);
 337              		.loc 1 97 0 is_stmt 1
 338 03e4 C7442404 		movl	$17, 4(%esp)
 338      11000000 
 339 03ec C7042409 		movl	$9, (%esp)
 339      000000
 340 03f3 E8000000 		call	_OS_SET_SW_BUG
 340      00
 341              	L22:
  98:E:/NeuOrga/Programmieren/c_cpp/github_os/input/src/os_base\os_stack.c ****       while(1)
  99:E:/NeuOrga/Programmieren/c_cpp/github_os/input/src/os_base\os_stack.c ****       {
 100:E:/NeuOrga/Programmieren/c_cpp/github_os/input/src/os_base\os_stack.c ****          /* allow easy debugging */
 101:E:/NeuOrga/Programmieren/c_cpp/github_os/input/src/os_base\os_stack.c ****       }
 342              		.loc 1 101 0 discriminator 1
 343 03f8 EBFE     		jmp	L22
 344              	L1:
 102:E:/NeuOrga/Programmieren/c_cpp/github_os/input/src/os_base\os_stack.c ****    }
 103:E:/NeuOrga/Programmieren/c_cpp/github_os/input/src/os_base\os_stack.c **** }
 345              		.loc 1 103 0
 346 03fa C9       		leave
 347              		.cfi_restore 5
 348              		.cfi_def_cfa 4, 4
 349 03fb C3       		ret
 350              		.cfi_endproc
 351              	LFE0:
 352              		.globl	_OS_STACK_CHK_PATTERN_INIT
 354              	_OS_STACK_CHK_PATTERN_INIT:
 355              	LFB1:
 104:E:/NeuOrga/Programmieren/c_cpp/github_os/input/src/os_base\os_stack.c **** #if(CFG_PROCESSOR == MCU_X86)
 105:E:/NeuOrga/Programmieren/c_cpp/github_os/input/src/os_base\os_stack.c **** /* this is done for CortexM4 in function INIT_OS_MAIN_STACK() on assembler level, because no stack 
 106:E:/NeuOrga/Programmieren/c_cpp/github_os/input/src/os_base\os_stack.c **** void OS_STACK_CHK_PATTERN_INIT(void)
 107:E:/NeuOrga/Programmieren/c_cpp/github_os/input/src/os_base\os_stack.c **** {
 356              		.loc 1 107 0
 357              		.cfi_startproc
 358 03fc 55       		pushl	%ebp
 359              		.cfi_def_cfa_offset 8
 360              		.cfi_offset 5, -8
 361 03fd 89E5     		movl	%esp, %ebp
 362              		.cfi_def_cfa_register 5
 363 03ff 83EC10   		subl	$16, %esp
GAS LISTING C:\Users\PRESID~1\AppData\Local\Temp\cc3IHcck.s 			page 12


 108:E:/NeuOrga/Programmieren/c_cpp/github_os/input/src/os_base\os_stack.c ****    uint32 stack_pos = 0u;
 364              		.loc 1 108 0
 365 0402 C745FC00 		movl	$0, -4(%ebp)
 365      000000
 109:E:/NeuOrga/Programmieren/c_cpp/github_os/input/src/os_base\os_stack.c ****    /* init the stack with 0xAA (only the highest 64 bytes leave out, because they might be already 
 110:E:/NeuOrga/Programmieren/c_cpp/github_os/input/src/os_base\os_stack.c ****    for(stack_pos = 0u; stack_pos < (OS_MAIN_STACK_SIZE-64u); stack_pos++)
 366              		.loc 1 110 0
 367 0409 C745FC00 		movl	$0, -4(%ebp)
 367      000000
 368 0410 EB0E     		jmp	L24
 369              	L25:
 111:E:/NeuOrga/Programmieren/c_cpp/github_os/input/src/os_base\os_stack.c ****    {
 112:E:/NeuOrga/Programmieren/c_cpp/github_os/input/src/os_base\os_stack.c ****       OS_MAIN_STACK[stack_pos] = 0xAAu;
 370              		.loc 1 112 0 discriminator 3
 371 0412 8B45FC   		movl	-4(%ebp), %eax
 372 0415 05000000 		addl	$_OS_MAIN_STACK, %eax
 372      00
 373 041a C600AA   		movb	$-86, (%eax)
 110:E:/NeuOrga/Programmieren/c_cpp/github_os/input/src/os_base\os_stack.c ****    {
 374              		.loc 1 110 0 discriminator 3
 375 041d FF45FC   		incl	-4(%ebp)
 376              	L24:
 110:E:/NeuOrga/Programmieren/c_cpp/github_os/input/src/os_base\os_stack.c ****    {
 377              		.loc 1 110 0 is_stmt 0 discriminator 1
 378 0420 817DFCBF 		cmpl	$959, -4(%ebp)
 378      030000
 379 0427 76E9     		jbe	L25
 113:E:/NeuOrga/Programmieren/c_cpp/github_os/input/src/os_base\os_stack.c ****    }
 114:E:/NeuOrga/Programmieren/c_cpp/github_os/input/src/os_base\os_stack.c ****    for(stack_pos = 0u; stack_pos < (TASK0_STACK_SIZE-64u); stack_pos++)
 380              		.loc 1 114 0 is_stmt 1
 381 0429 C745FC00 		movl	$0, -4(%ebp)
 381      000000
 382 0430 EB0E     		jmp	L26
 383              	L27:
 115:E:/NeuOrga/Programmieren/c_cpp/github_os/input/src/os_base\os_stack.c ****    {
 116:E:/NeuOrga/Programmieren/c_cpp/github_os/input/src/os_base\os_stack.c ****       TASK0_STACK[stack_pos] = 0xAAu;
 384              		.loc 1 116 0 discriminator 3
 385 0432 8B45FC   		movl	-4(%ebp), %eax
 386 0435 05000000 		addl	$_TASK0_STACK, %eax
 386      00
 387 043a C600AA   		movb	$-86, (%eax)
 114:E:/NeuOrga/Programmieren/c_cpp/github_os/input/src/os_base\os_stack.c ****    {
 388              		.loc 1 114 0 discriminator 3
 389 043d FF45FC   		incl	-4(%ebp)
 390              	L26:
 114:E:/NeuOrga/Programmieren/c_cpp/github_os/input/src/os_base\os_stack.c ****    {
 391              		.loc 1 114 0 is_stmt 0 discriminator 1
 392 0440 817DFC8F 		cmpl	$1935, -4(%ebp)
 392      070000
 393 0447 76E9     		jbe	L27
 117:E:/NeuOrga/Programmieren/c_cpp/github_os/input/src/os_base\os_stack.c ****    }
 118:E:/NeuOrga/Programmieren/c_cpp/github_os/input/src/os_base\os_stack.c ****    for(stack_pos = 0u; stack_pos < (TASK1_STACK_SIZE-64u); stack_pos++)
 394              		.loc 1 118 0 is_stmt 1
 395 0449 C745FC00 		movl	$0, -4(%ebp)
 395      000000
 396 0450 EB0E     		jmp	L28
 397              	L29:
GAS LISTING C:\Users\PRESID~1\AppData\Local\Temp\cc3IHcck.s 			page 13


 119:E:/NeuOrga/Programmieren/c_cpp/github_os/input/src/os_base\os_stack.c ****    {
 120:E:/NeuOrga/Programmieren/c_cpp/github_os/input/src/os_base\os_stack.c ****       TASK1_STACK[stack_pos] = 0xAAu;
 398              		.loc 1 120 0 discriminator 3
 399 0452 8B45FC   		movl	-4(%ebp), %eax
 400 0455 05000000 		addl	$_TASK1_STACK, %eax
 400      00
 401 045a C600AA   		movb	$-86, (%eax)
 118:E:/NeuOrga/Programmieren/c_cpp/github_os/input/src/os_base\os_stack.c ****    {
 402              		.loc 1 118 0 discriminator 3
 403 045d FF45FC   		incl	-4(%ebp)
 404              	L28:
 118:E:/NeuOrga/Programmieren/c_cpp/github_os/input/src/os_base\os_stack.c ****    {
 405              		.loc 1 118 0 is_stmt 0 discriminator 1
 406 0460 817DFC8F 		cmpl	$1935, -4(%ebp)
 406      070000
 407 0467 76E9     		jbe	L29
 121:E:/NeuOrga/Programmieren/c_cpp/github_os/input/src/os_base\os_stack.c ****    }
 122:E:/NeuOrga/Programmieren/c_cpp/github_os/input/src/os_base\os_stack.c ****    for(stack_pos = 0u; stack_pos < (TASK2_STACK_SIZE-64u); stack_pos++)
 408              		.loc 1 122 0 is_stmt 1
 409 0469 C745FC00 		movl	$0, -4(%ebp)
 409      000000
 410 0470 EB0E     		jmp	L30
 411              	L31:
 123:E:/NeuOrga/Programmieren/c_cpp/github_os/input/src/os_base\os_stack.c ****    {
 124:E:/NeuOrga/Programmieren/c_cpp/github_os/input/src/os_base\os_stack.c ****       TASK2_STACK[stack_pos] = 0xAAu;
 412              		.loc 1 124 0 discriminator 3
 413 0472 8B45FC   		movl	-4(%ebp), %eax
 414 0475 05000000 		addl	$_TASK2_STACK, %eax
 414      00
 415 047a C600AA   		movb	$-86, (%eax)
 122:E:/NeuOrga/Programmieren/c_cpp/github_os/input/src/os_base\os_stack.c ****    {
 416              		.loc 1 122 0 discriminator 3
 417 047d FF45FC   		incl	-4(%ebp)
 418              	L30:
 122:E:/NeuOrga/Programmieren/c_cpp/github_os/input/src/os_base\os_stack.c ****    {
 419              		.loc 1 122 0 is_stmt 0 discriminator 1
 420 0480 817DFC8F 		cmpl	$1935, -4(%ebp)
 420      070000
 421 0487 76E9     		jbe	L31
 125:E:/NeuOrga/Programmieren/c_cpp/github_os/input/src/os_base\os_stack.c ****    }
 126:E:/NeuOrga/Programmieren/c_cpp/github_os/input/src/os_base\os_stack.c ****    for(stack_pos = 0u; stack_pos < (TASK3_STACK_SIZE-64u); stack_pos++)
 422              		.loc 1 126 0 is_stmt 1
 423 0489 C745FC00 		movl	$0, -4(%ebp)
 423      000000
 424 0490 EB0E     		jmp	L32
 425              	L33:
 127:E:/NeuOrga/Programmieren/c_cpp/github_os/input/src/os_base\os_stack.c ****    {
 128:E:/NeuOrga/Programmieren/c_cpp/github_os/input/src/os_base\os_stack.c ****       TASK3_STACK[stack_pos] = 0xAAu;
 426              		.loc 1 128 0 discriminator 3
 427 0492 8B45FC   		movl	-4(%ebp), %eax
 428 0495 05000000 		addl	$_TASK3_STACK, %eax
 428      00
 429 049a C600AA   		movb	$-86, (%eax)
 126:E:/NeuOrga/Programmieren/c_cpp/github_os/input/src/os_base\os_stack.c ****    {
 430              		.loc 1 126 0 discriminator 3
 431 049d FF45FC   		incl	-4(%ebp)
 432              	L32:
GAS LISTING C:\Users\PRESID~1\AppData\Local\Temp\cc3IHcck.s 			page 14


 126:E:/NeuOrga/Programmieren/c_cpp/github_os/input/src/os_base\os_stack.c ****    {
 433              		.loc 1 126 0 is_stmt 0 discriminator 1
 434 04a0 817DFC8F 		cmpl	$1935, -4(%ebp)
 434      070000
 435 04a7 76E9     		jbe	L33
 129:E:/NeuOrga/Programmieren/c_cpp/github_os/input/src/os_base\os_stack.c ****    }   
 130:E:/NeuOrga/Programmieren/c_cpp/github_os/input/src/os_base\os_stack.c ****    for(stack_pos = 0u; stack_pos < (TASK4_STACK_SIZE-64u); stack_pos++)
 436              		.loc 1 130 0 is_stmt 1
 437 04a9 C745FC00 		movl	$0, -4(%ebp)
 437      000000
 438 04b0 EB0E     		jmp	L34
 439              	L35:
 131:E:/NeuOrga/Programmieren/c_cpp/github_os/input/src/os_base\os_stack.c ****    {
 132:E:/NeuOrga/Programmieren/c_cpp/github_os/input/src/os_base\os_stack.c ****       TASK4_STACK[stack_pos] = 0xAAu;
 440              		.loc 1 132 0 discriminator 3
 441 04b2 8B45FC   		movl	-4(%ebp), %eax
 442 04b5 05000000 		addl	$_TASK4_STACK, %eax
 442      00
 443 04ba C600AA   		movb	$-86, (%eax)
 130:E:/NeuOrga/Programmieren/c_cpp/github_os/input/src/os_base\os_stack.c ****    {
 444              		.loc 1 130 0 discriminator 3
 445 04bd FF45FC   		incl	-4(%ebp)
 446              	L34:
 130:E:/NeuOrga/Programmieren/c_cpp/github_os/input/src/os_base\os_stack.c ****    {
 447              		.loc 1 130 0 is_stmt 0 discriminator 1
 448 04c0 817DFC8F 		cmpl	$1935, -4(%ebp)
 448      070000
 449 04c7 76E9     		jbe	L35
 133:E:/NeuOrga/Programmieren/c_cpp/github_os/input/src/os_base\os_stack.c ****    }      
 134:E:/NeuOrga/Programmieren/c_cpp/github_os/input/src/os_base\os_stack.c **** }
 450              		.loc 1 134 0 is_stmt 1
 451 04c9 C9       		leave
 452              		.cfi_restore 5
 453              		.cfi_def_cfa 4, 4
 454 04ca C3       		ret
 455              		.cfi_endproc
 456              	LFE1:
 457              	.lcomm _stack_pos.1369,4,4
 458              	.lcomm _stack_used.1370,4,4
 459              	Letext0:
 460              		.file 2 "E:/NeuOrga/Programmieren/c_cpp/github_os/input/src/os_base/../os_base/os_base_types.h"
 461              		.file 3 "E:/NeuOrga/Programmieren/c_cpp/github_os/input/src/os_base/../os_base/os_common.h"
 462              		.file 4 "E:/NeuOrga/Programmieren/c_cpp/github_os/input/src/os_base/../os_base/os_ram.h"
 463              		.file 5 "E:/NeuOrga/Programmieren/c_cpp/github_os/input/src/os_base/../os_base/os_ram_stack.h"