GAS LISTING C:\Users\PRESID~1\AppData\Local\Temp\ccznJJdR.s 			page 1


   1              		.file	"os_start_ext_prg.c"
   2              		.text
   3              	Ltext0:
   5              	_os_signatur_valid:
   6              	LFB0:
   7              		.file 1 "E:/NeuOrga/Programmieren/c_cpp/github_os/input/src/os_base/os_start_ext_prg.c"
   1:E:/NeuOrga/Programmieren/c_cpp/github_os/input/src/os_base\os_start_ext_prg.c **** #include "os_firstinc.h"
   2:E:/NeuOrga/Programmieren/c_cpp/github_os/input/src/os_base\os_start_ext_prg.c **** /*
   3:E:/NeuOrga/Programmieren/c_cpp/github_os/input/src/os_base\os_start_ext_prg.c ****    os_StartExtPrg: to be called with supervisor rights!!
   4:E:/NeuOrga/Programmieren/c_cpp/github_os/input/src/os_base\os_start_ext_prg.c **** */
   5:E:/NeuOrga/Programmieren/c_cpp/github_os/input/src/os_base\os_start_ext_prg.c **** Local unsigned_char_t os_signatur_valid(func_ptr_t LoadProgAddr, uint32 PrgSignatur, uint32 PrgSize
   6:E:/NeuOrga/Programmieren/c_cpp/github_os/input/src/os_base\os_start_ext_prg.c **** 
   7:E:/NeuOrga/Programmieren/c_cpp/github_os/input/src/os_base\os_start_ext_prg.c **** unsigned_char_t os_signatur_valid(func_ptr_t LoadProgAddr, uint32 PrgSignatur, uint32 PrgSize)
   8:E:/NeuOrga/Programmieren/c_cpp/github_os/input/src/os_base\os_start_ext_prg.c **** {
   8              		.loc 1 8 0
   9              		.cfi_startproc
  10 0000 55       		pushl	%ebp
  11              		.cfi_def_cfa_offset 8
  12              		.cfi_offset 5, -8
  13 0001 89E5     		movl	%esp, %ebp
  14              		.cfi_def_cfa_register 5
   9:E:/NeuOrga/Programmieren/c_cpp/github_os/input/src/os_base\os_start_ext_prg.c ****    /* no signature check currently wanted, because
  10:E:/NeuOrga/Programmieren/c_cpp/github_os/input/src/os_base\os_start_ext_prg.c ****    1. Asymetric Signature calculation takes lots of time
  11:E:/NeuOrga/Programmieren/c_cpp/github_os/input/src/os_base\os_start_ext_prg.c ****    2. Sym Hash + Asym Signature lack of official embedded implementation free to use
  12:E:/NeuOrga/Programmieren/c_cpp/github_os/input/src/os_base\os_start_ext_prg.c ****    3. Signature not in the scope of the project
  13:E:/NeuOrga/Programmieren/c_cpp/github_os/input/src/os_base\os_start_ext_prg.c ****    */
  14:E:/NeuOrga/Programmieren/c_cpp/github_os/input/src/os_base\os_start_ext_prg.c ****    ReferenceUnusedParameter(LoadProgAddr);
  15:E:/NeuOrga/Programmieren/c_cpp/github_os/input/src/os_base\os_start_ext_prg.c ****    ReferenceUnusedParameter(PrgSignatur);
  16:E:/NeuOrga/Programmieren/c_cpp/github_os/input/src/os_base\os_start_ext_prg.c ****    ReferenceUnusedParameter(PrgSize);
  17:E:/NeuOrga/Programmieren/c_cpp/github_os/input/src/os_base\os_start_ext_prg.c ****    return True;
  15              		.loc 1 17 0
  16 0003 B001     		movb	$1, %al
  18:E:/NeuOrga/Programmieren/c_cpp/github_os/input/src/os_base\os_start_ext_prg.c **** }
  17              		.loc 1 18 0
  18 0005 5D       		popl	%ebp
  19              		.cfi_restore 5
  20              		.cfi_def_cfa 4, 4
  21 0006 C3       		ret
  22              		.cfi_endproc
  23              	LFE0:
  24              		.globl	_OS_StartExtPrg
  26              	_OS_StartExtPrg:
  27              	LFB1:
  19:E:/NeuOrga/Programmieren/c_cpp/github_os/input/src/os_base\os_start_ext_prg.c **** void OS_StartExtPrg(func_ptr_t LoadProgAddr, uint32 PrgSignatur, uint32 PrgSize)
  20:E:/NeuOrga/Programmieren/c_cpp/github_os/input/src/os_base\os_start_ext_prg.c **** {
  28              		.loc 1 20 0
  29              		.cfi_startproc
  30 0007 55       		pushl	%ebp
  31              		.cfi_def_cfa_offset 8
  32              		.cfi_offset 5, -8
  33 0008 89E5     		movl	%esp, %ebp
  34              		.cfi_def_cfa_register 5
  35 000a 83EC18   		subl	$24, %esp
  21:E:/NeuOrga/Programmieren/c_cpp/github_os/input/src/os_base\os_start_ext_prg.c ****    /* 1. Check Program Signatur and size -> is it a signed Programm? (Chain of Trust) */
  22:E:/NeuOrga/Programmieren/c_cpp/github_os/input/src/os_base\os_start_ext_prg.c ****    if(os_signatur_valid(LoadProgAddr, PrgSignatur, PrgSize) == False)
  36              		.loc 1 22 0
  37 000d 8B4510   		movl	16(%ebp), %eax
GAS LISTING C:\Users\PRESID~1\AppData\Local\Temp\ccznJJdR.s 			page 2


  38 0010 89442408 		movl	%eax, 8(%esp)
  39 0014 8B450C   		movl	12(%ebp), %eax
  40 0017 89442404 		movl	%eax, 4(%esp)
  41 001b 8B4508   		movl	8(%ebp), %eax
  42 001e 890424   		movl	%eax, (%esp)
  43 0021 E8DAFFFF 		call	_os_signatur_valid
  43      FF
  44 0026 84C0     		testb	%al, %al
  45 0028 7502     		jne	L4
  23:E:/NeuOrga/Programmieren/c_cpp/github_os/input/src/os_base\os_start_ext_prg.c ****    {
  24:E:/NeuOrga/Programmieren/c_cpp/github_os/input/src/os_base\os_start_ext_prg.c ****       return;
  46              		.loc 1 24 0
  47 002a EB0F     		jmp	L3
  48              	L4:
  25:E:/NeuOrga/Programmieren/c_cpp/github_os/input/src/os_base\os_start_ext_prg.c ****    }
  26:E:/NeuOrga/Programmieren/c_cpp/github_os/input/src/os_base\os_start_ext_prg.c **** 
  27:E:/NeuOrga/Programmieren/c_cpp/github_os/input/src/os_base\os_start_ext_prg.c ****    /* 2. Switch off MMU (system mpu and core mpu, perhaps more mpu parts need to be switched off...
  28:E:/NeuOrga/Programmieren/c_cpp/github_os/input/src/os_base\os_start_ext_prg.c ****    LLF_MPU_DISABLE();
  49              		.loc 1 28 0
  50 002c E8000000 		call	_LLF_MPU_DISABLE
  50      00
  29:E:/NeuOrga/Programmieren/c_cpp/github_os/input/src/os_base\os_start_ext_prg.c **** 
  30:E:/NeuOrga/Programmieren/c_cpp/github_os/input/src/os_base\os_start_ext_prg.c ****    LLF_MPU_SWITCH_OFF_ALL_REGIONS();
  51              		.loc 1 30 0
  52 0031 E8000000 		call	_LLF_MPU_SWITCH_OFF_ALL_REGIONS
  52      00
  31:E:/NeuOrga/Programmieren/c_cpp/github_os/input/src/os_base\os_start_ext_prg.c ****    
  32:E:/NeuOrga/Programmieren/c_cpp/github_os/input/src/os_base\os_start_ext_prg.c **** 
  33:E:/NeuOrga/Programmieren/c_cpp/github_os/input/src/os_base\os_start_ext_prg.c ****    /* 3. Start ExtPrg */
  34:E:/NeuOrga/Programmieren/c_cpp/github_os/input/src/os_base\os_start_ext_prg.c ****    /*
  35:E:/NeuOrga/Programmieren/c_cpp/github_os/input/src/os_base\os_start_ext_prg.c ****    call function:
  36:E:/NeuOrga/Programmieren/c_cpp/github_os/input/src/os_base\os_start_ext_prg.c ****    different processors have different alignment requirements... be aware!!
  37:E:/NeuOrga/Programmieren/c_cpp/github_os/input/src/os_base\os_start_ext_prg.c ****    Might cause non alignment failures, in case the code in not aligned correctly
  38:E:/NeuOrga/Programmieren/c_cpp/github_os/input/src/os_base\os_start_ext_prg.c ****    */
  39:E:/NeuOrga/Programmieren/c_cpp/github_os/input/src/os_base\os_start_ext_prg.c ****    LoadProgAddr();
  53              		.loc 1 39 0
  54 0036 8B4508   		movl	8(%ebp), %eax
  55 0039 FFD0     		call	*%eax
  56              	L3:
  40:E:/NeuOrga/Programmieren/c_cpp/github_os/input/src/os_base\os_start_ext_prg.c **** }...
  57              		.loc 1 40 0
  58 003b C9       		leave
  59              		.cfi_restore 5
  60              		.cfi_def_cfa 4, 4
  61 003c C3       		ret
  62              		.cfi_endproc
  63              	LFE1:
  64              	Letext0:
  65              		.file 2 "E:/NeuOrga/Programmieren/c_cpp/github_os/input/src/os_base/../os_base/os_base_types.h"
  66              		.file 3 "E:/NeuOrga/Programmieren/c_cpp/github_os/input/src/os_base/../os_base/os_common.h"
  67 003d 909090   		.section	.debug_info,"dr"
  68              	Ldebug_info0:
  69 0000 BC010000 		.long	0x1bc
  70 0004 0400     		.word	0x4
  71 0006 00000000 		.secrel32	Ldebug_abbrev0
  72 000a 04       		.byte	0x4
  73 000b 01       		.uleb128 0x1
GAS LISTING C:\Users\PRESID~1\AppData\Local\Temp\ccznJJdR.s 			page 3


  74 000c 474E5520 		.ascii "GNU C 4.9.3 -march=i386 -g3 -O0 -std=c90\0"
  74      4320342E 
  74      392E3320 
  74      2D6D6172 
  74      63683D69 
  75 0035 01       		.byte	0x1
  76 0036 453A5C4E 		.ascii "E:\\NeuOrga\\Programmieren\\c_cpp\\github_os\\input\\src\\os_base\\os_start_ext_prg.c\0"
  76      65754F72 
  76      67615C50 
  76      726F6772 
  76      616D6D69 
  77 0084 00000000 		.long	Ltext0
  78 0088 3D000000 		.long	Letext0-Ltext0
  79 008c 00000000 		.secrel32	Ldebug_line0
  80 0090 00000000 		.secrel32	Ldebug_macro0
  81 0094 02       		.uleb128 0x2
  82 0095 756E7369 		.ascii "unsigned_char_t\0"
  82      676E6564 
  82      5F636861 
  82      725F7400 
  83 00a5 02       		.byte	0x2
  84 00a6 1D       		.byte	0x1d
  85 00a7 AB000000 		.long	0xab
  86 00ab 03       		.uleb128 0x3
  87 00ac 01       		.byte	0x1
  88 00ad 08       		.byte	0x8
  89 00ae 756E7369 		.ascii "unsigned char\0"
  89      676E6564 
  89      20636861 
  89      7200
  90 00bc 03       		.uleb128 0x3
  91 00bd 02       		.byte	0x2
  92 00be 07       		.byte	0x7
  93 00bf 73686F72 		.ascii "short unsigned int\0"
  93      7420756E 
  93      7369676E 
  93      65642069 
  93      6E7400
  94 00d2 03       		.uleb128 0x3
  95 00d3 04       		.byte	0x4
  96 00d4 07       		.byte	0x7
  97 00d5 6C6F6E67 		.ascii "long unsigned int\0"
  97      20756E73 
  97      69676E65 
  97      6420696E 
  97      7400
  98 00e7 02       		.uleb128 0x2
  99 00e8 75696E74 		.ascii "uint32\0"
  99      333200
 100 00ef 02       		.byte	0x2
 101 00f0 23       		.byte	0x23
 102 00f1 D2000000 		.long	0xd2
 103 00f5 02       		.uleb128 0x2
 104 00f6 66756E63 		.ascii "func_ptr_t\0"
 104      5F707472 
 104      5F7400
 105 0101 03       		.byte	0x3
GAS LISTING C:\Users\PRESID~1\AppData\Local\Temp\ccznJJdR.s 			page 4


 106 0102 4C       		.byte	0x4c
 107 0103 07010000 		.long	0x107
 108 0107 04       		.uleb128 0x4
 109 0108 04       		.byte	0x4
 110 0109 0D010000 		.long	0x10d
 111 010d 05       		.uleb128 0x5
 112 010e 03       		.uleb128 0x3
 113 010f 04       		.byte	0x4
 114 0110 07       		.byte	0x7
 115 0111 756E7369 		.ascii "unsigned int\0"
 115      676E6564 
 115      20696E74 
 115      00
 116 011e 06       		.uleb128 0x6
 117 011f 6F735F73 		.ascii "os_signatur_valid\0"
 117      69676E61 
 117      7475725F 
 117      76616C69 
 117      6400
 118 0131 01       		.byte	0x1
 119 0132 07       		.byte	0x7
 120 0133 94000000 		.long	0x94
 121 0137 00000000 		.long	LFB0
 122 013b 07000000 		.long	LFE0-LFB0
 123 013f 01       		.uleb128 0x1
 124 0140 9C       		.byte	0x9c
 125 0141 74010000 		.long	0x174
 126 0145 07       		.uleb128 0x7
 127 0146 00000000 		.secrel32	LASF0
 128 014a 01       		.byte	0x1
 129 014b 07       		.byte	0x7
 130 014c F5000000 		.long	0xf5
 131 0150 02       		.uleb128 0x2
 132 0151 91       		.byte	0x91
 133 0152 00       		.sleb128 0
 134 0153 07       		.uleb128 0x7
 135 0154 0D000000 		.secrel32	LASF1
 136 0158 01       		.byte	0x1
 137 0159 07       		.byte	0x7
 138 015a E7000000 		.long	0xe7
 139 015e 02       		.uleb128 0x2
 140 015f 91       		.byte	0x91
 141 0160 04       		.sleb128 4
 142 0161 08       		.uleb128 0x8
 143 0162 50726753 		.ascii "PrgSize\0"
 143      697A6500 
 144 016a 01       		.byte	0x1
 145 016b 07       		.byte	0x7
 146 016c E7000000 		.long	0xe7
 147 0170 02       		.uleb128 0x2
 148 0171 91       		.byte	0x91
 149 0172 08       		.sleb128 8
 150 0173 00       		.byte	0
 151 0174 09       		.uleb128 0x9
 152 0175 4F535F53 		.ascii "OS_StartExtPrg\0"
 152      74617274 
 152      45787450 
GAS LISTING C:\Users\PRESID~1\AppData\Local\Temp\ccznJJdR.s 			page 5


 152      726700
 153 0184 01       		.byte	0x1
 154 0185 13       		.byte	0x13
 155 0186 07000000 		.long	LFB1
 156 018a 36000000 		.long	LFE1-LFB1
 157 018e 01       		.uleb128 0x1
 158 018f 9C       		.byte	0x9c
 159 0190 07       		.uleb128 0x7
 160 0191 00000000 		.secrel32	LASF0
 161 0195 01       		.byte	0x1
 162 0196 13       		.byte	0x13
 163 0197 F5000000 		.long	0xf5
 164 019b 02       		.uleb128 0x2
 165 019c 91       		.byte	0x91
 166 019d 00       		.sleb128 0
 167 019e 07       		.uleb128 0x7
 168 019f 0D000000 		.secrel32	LASF1
 169 01a3 01       		.byte	0x1
 170 01a4 13       		.byte	0x13
 171 01a5 E7000000 		.long	0xe7
 172 01a9 02       		.uleb128 0x2
 173 01aa 91       		.byte	0x91
 174 01ab 04       		.sleb128 4
 175 01ac 08       		.uleb128 0x8
 176 01ad 50726753 		.ascii "PrgSize\0"
 176      697A6500 
 177 01b5 01       		.byte	0x1
 178 01b6 13       		.byte	0x13
 179 01b7 E7000000 		.long	0xe7
 180 01bb 02       		.uleb128 0x2
 181 01bc 91       		.byte	0x91
 182 01bd 08       		.sleb128 8
 183 01be 00       		.byte	0
 184 01bf 00       		.byte	0
 185              		.section	.debug_abbrev,"dr"
 186              	Ldebug_abbrev0:
 187 0000 01       		.uleb128 0x1
 188 0001 11       		.uleb128 0x11
 189 0002 01       		.byte	0x1
 190 0003 25       		.uleb128 0x25
 191 0004 08       		.uleb128 0x8
 192 0005 13       		.uleb128 0x13
 193 0006 0B       		.uleb128 0xb
 194 0007 03       		.uleb128 0x3
 195 0008 08       		.uleb128 0x8
 196 0009 11       		.uleb128 0x11
 197 000a 01       		.uleb128 0x1
 198 000b 12       		.uleb128 0x12
 199 000c 06       		.uleb128 0x6
 200 000d 10       		.uleb128 0x10
 201 000e 17       		.uleb128 0x17
 202 000f 9942     		.uleb128 0x2119
 203 0011 17       		.uleb128 0x17
 204 0012 00       		.byte	0
 205 0013 00       		.byte	0
 206 0014 02       		.uleb128 0x2
 207 0015 16       		.uleb128 0x16
GAS LISTING C:\Users\PRESID~1\AppData\Local\Temp\ccznJJdR.s 			page 6


 208 0016 00       		.byte	0
 209 0017 03       		.uleb128 0x3
 210 0018 08       		.uleb128 0x8
 211 0019 3A       		.uleb128 0x3a
 212 001a 0B       		.uleb128 0xb
 213 001b 3B       		.uleb128 0x3b
 214 001c 0B       		.uleb128 0xb
 215 001d 49       		.uleb128 0x49
 216 001e 13       		.uleb128 0x13
 217 001f 00       		.byte	0
 218 0020 00       		.byte	0
 219 0021 03       		.uleb128 0x3
 220 0022 24       		.uleb128 0x24
 221 0023 00       		.byte	0
 222 0024 0B       		.uleb128 0xb
 223 0025 0B       		.uleb128 0xb
 224 0026 3E       		.uleb128 0x3e
 225 0027 0B       		.uleb128 0xb
 226 0028 03       		.uleb128 0x3
 227 0029 08       		.uleb128 0x8
 228 002a 00       		.byte	0
 229 002b 00       		.byte	0
 230 002c 04       		.uleb128 0x4
 231 002d 0F       		.uleb128 0xf
 232 002e 00       		.byte	0
 233 002f 0B       		.uleb128 0xb
 234 0030 0B       		.uleb128 0xb
 235 0031 49       		.uleb128 0x49
 236 0032 13       		.uleb128 0x13
 237 0033 00       		.byte	0
 238 0034 00       		.byte	0
 239 0035 05       		.uleb128 0x5
 240 0036 15       		.uleb128 0x15
 241 0037 00       		.byte	0
 242 0038 27       		.uleb128 0x27
 243 0039 19       		.uleb128 0x19
 244 003a 00       		.byte	0
 245 003b 00       		.byte	0
 246 003c 06       		.uleb128 0x6
 247 003d 2E       		.uleb128 0x2e
 248 003e 01       		.byte	0x1
 249 003f 03       		.uleb128 0x3
 250 0040 08       		.uleb128 0x8
 251 0041 3A       		.uleb128 0x3a
 252 0042 0B       		.uleb128 0xb
 253 0043 3B       		.uleb128 0x3b
 254 0044 0B       		.uleb128 0xb
 255 0045 27       		.uleb128 0x27
 256 0046 19       		.uleb128 0x19
 257 0047 49       		.uleb128 0x49
 258 0048 13       		.uleb128 0x13
 259 0049 11       		.uleb128 0x11
 260 004a 01       		.uleb128 0x1
 261 004b 12       		.uleb128 0x12
 262 004c 06       		.uleb128 0x6
 263 004d 40       		.uleb128 0x40
 264 004e 18       		.uleb128 0x18
GAS LISTING C:\Users\PRESID~1\AppData\Local\Temp\ccznJJdR.s 			page 7


 265 004f 9742     		.uleb128 0x2117
 266 0051 19       		.uleb128 0x19
 267 0052 01       		.uleb128 0x1
 268 0053 13       		.uleb128 0x13
 269 0054 00       		.byte	0
 270 0055 00       		.byte	0
 271 0056 07       		.uleb128 0x7
 272 0057 05       		.uleb128 0x5
 273 0058 00       		.byte	0
 274 0059 03       		.uleb128 0x3
 275 005a 0E       		.uleb128 0xe
 276 005b 3A       		.uleb128 0x3a
 277 005c 0B       		.uleb128 0xb
 278 005d 3B       		.uleb128 0x3b
 279 005e 0B       		.uleb128 0xb
 280 005f 49       		.uleb128 0x49
 281 0060 13       		.uleb128 0x13
 282 0061 02       		.uleb128 0x2
 283 0062 18       		.uleb128 0x18
 284 0063 00       		.byte	0
 285 0064 00       		.byte	0
 286 0065 08       		.uleb128 0x8
 287 0066 05       		.uleb128 0x5
 288 0067 00       		.byte	0
 289 0068 03       		.uleb128 0x3
 290 0069 08       		.uleb128 0x8
 291 006a 3A       		.uleb128 0x3a
 292 006b 0B       		.uleb128 0xb
 293 006c 3B       		.uleb128 0x3b
 294 006d 0B       		.uleb128 0xb
 295 006e 49       		.uleb128 0x49
 296 006f 13       		.uleb128 0x13
 297 0070 02       		.uleb128 0x2
 298 0071 18       		.uleb128 0x18
 299 0072 00       		.byte	0
 300 0073 00       		.byte	0
 301 0074 09       		.uleb128 0x9
 302 0075 2E       		.uleb128 0x2e
 303 0076 01       		.byte	0x1
 304 0077 3F       		.uleb128 0x3f
 305 0078 19       		.uleb128 0x19
 306 0079 03       		.uleb128 0x3
 307 007a 08       		.uleb128 0x8
 308 007b 3A       		.uleb128 0x3a
 309 007c 0B       		.uleb128 0xb
 310 007d 3B       		.uleb128 0x3b
 311 007e 0B       		.uleb128 0xb
 312 007f 27       		.uleb128 0x27
 313 0080 19       		.uleb128 0x19
 314 0081 11       		.uleb128 0x11
 315 0082 01       		.uleb128 0x1
 316 0083 12       		.uleb128 0x12
 317 0084 06       		.uleb128 0x6
 318 0085 40       		.uleb128 0x40
 319 0086 18       		.uleb128 0x18
 320 0087 9642     		.uleb128 0x2116
 321 0089 19       		.uleb128 0x19
GAS LISTING C:\Users\PRESID~1\AppData\Local\Temp\ccznJJdR.s 			page 8


 322 008a 00       		.byte	0
 323 008b 00       		.byte	0
 324 008c 00       		.byte	0
 325              		.section	.debug_aranges,"dr"
 326 0000 1C000000 		.long	0x1c
 327 0004 0200     		.word	0x2
 328 0006 00000000 		.secrel32	Ldebug_info0
 329 000a 04       		.byte	0x4
 330 000b 00       		.byte	0
 331 000c 0000     		.word	0
 332 000e 0000     		.word	0
 333 0010 00000000 		.long	Ltext0
 334 0014 3D000000 		.long	Letext0-Ltext0
 335 0018 00000000 		.long	0
 336 001c 00000000 		.long	0
 337              		.section	.debug_macro,"dr"
 338              	Ldebug_macro0:
 339 0000 0400     		.word	0x4
 340 0002 02       		.byte	0x2
 341 0003 00000000 		.secrel32	Ldebug_line0
 342 0007 01       		.byte	0x1
 343 0008 00       		.uleb128 0
 344 0009 5F5F5354 		.ascii "__STDC__ 1\0"
 344      44435F5F 
 344      203100
 345 0014 01       		.byte	0x1
 346 0015 00       		.uleb128 0
 347 0016 5F5F5354 		.ascii "__STDC_HOSTED__ 1\0"
 347      44435F48 
 347      4F535445 
 347      445F5F20 
 347      3100
 348 0028 01       		.byte	0x1
 349 0029 00       		.uleb128 0
 350 002a 5F5F474E 		.ascii "__GNUC__ 4\0"
 350      55435F5F 
 350      203400
 351 0035 01       		.byte	0x1
 352 0036 00       		.uleb128 0
 353 0037 5F5F474E 		.ascii "__GNUC_MINOR__ 9\0"
 353      55435F4D 
 353      494E4F52 
 353      5F5F2039 
 353      00
 354 0048 01       		.byte	0x1
 355 0049 00       		.uleb128 0
 356 004a 5F5F474E 		.ascii "__GNUC_PATCHLEVEL__ 3\0"
 356      55435F50 
 356      41544348 
 356      4C455645 
 356      4C5F5F20 
 357 0060 01       		.byte	0x1
 358 0061 00       		.uleb128 0
 359 0062 5F5F5645 		.ascii "__VERSION__ \"4.9.3\"\0"
 359      5253494F 
 359      4E5F5F20 
 359      22342E39 
GAS LISTING C:\Users\PRESID~1\AppData\Local\Temp\ccznJJdR.s 			page 9


 359      2E332200 
 360 0076 01       		.byte	0x1
 361 0077 00       		.uleb128 0
 362 0078 5F5F4154 		.ascii "__ATOMIC_RELAXED 0\0"
 362      4F4D4943 
 362      5F52454C 
 362      41584544 
 362      203000
 363 008b 01       		.byte	0x1
 364 008c 00       		.uleb128 0
 365 008d 5F5F4154 		.ascii "__ATOMIC_SEQ_CST 5\0"
 365      4F4D4943 
 365      5F534551 
 365      5F435354 
 365      203500
 366 00a0 01       		.byte	0x1
 367 00a1 00       		.uleb128 0
 368 00a2 5F5F4154 		.ascii "__ATOMIC_ACQUIRE 2\0"
 368      4F4D4943 
 368      5F414351 
 368      55495245 
 368      203200
 369 00b5 01       		.byte	0x1
 370 00b6 00       		.uleb128 0
 371 00b7 5F5F4154 		.ascii "__ATOMIC_RELEASE 3\0"
 371      4F4D4943 
 371      5F52454C 
 371      45415345 
 371      203300
 372 00ca 01       		.byte	0x1
 373 00cb 00       		.uleb128 0
 374 00cc 5F5F4154 		.ascii "__ATOMIC_ACQ_REL 4\0"
 374      4F4D4943 
 374      5F414351 
 374      5F52454C 
 374      203400
 375 00df 01       		.byte	0x1
 376 00e0 00       		.uleb128 0
 377 00e1 5F5F4154 		.ascii "__ATOMIC_CONSUME 1\0"
 377      4F4D4943 
 377      5F434F4E 
 377      53554D45 
 377      203100
 378 00f4 01       		.byte	0x1
 379 00f5 00       		.uleb128 0
 380 00f6 5F5F4649 		.ascii "__FINITE_MATH_ONLY__ 0\0"
 380      4E495445 
 380      5F4D4154 
 380      485F4F4E 
 380      4C595F5F 
 381 010d 01       		.byte	0x1
 382 010e 00       		.uleb128 0
 383 010f 5F5F5349 		.ascii "__SIZEOF_INT__ 4\0"
 383      5A454F46 
 383      5F494E54 
 383      5F5F2034 
 383      00
GAS LISTING C:\Users\PRESID~1\AppData\Local\Temp\ccznJJdR.s 			page 10


 384 0120 01       		.byte	0x1
 385 0121 00       		.uleb128 0
 386 0122 5F5F5349 		.ascii "__SIZEOF_LONG__ 4\0"
 386      5A454F46 
 386      5F4C4F4E 
 386      475F5F20 
 386      3400
 387 0134 01       		.byte	0x1
 388 0135 00       		.uleb128 0
 389 0136 5F5F5349 		.ascii "__SIZEOF_LONG_LONG__ 8\0"
 389      5A454F46 
 389      5F4C4F4E 
 389      475F4C4F 
 389      4E475F5F 
 390 014d 01       		.byte	0x1
 391 014e 00       		.uleb128 0
 392 014f 5F5F5349 		.ascii "__SIZEOF_SHORT__ 2\0"
 392      5A454F46 
 392      5F53484F 
 392      52545F5F 
 392      203200
 393 0162 01       		.byte	0x1
 394 0163 00       		.uleb128 0
 395 0164 5F5F5349 		.ascii "__SIZEOF_FLOAT__ 4\0"
 395      5A454F46 
 395      5F464C4F 
 395      41545F5F 
 395      203400
 396 0177 01       		.byte	0x1
 397 0178 00       		.uleb128 0
 398 0179 5F5F5349 		.ascii "__SIZEOF_DOUBLE__ 8\0"
 398      5A454F46 
 398      5F444F55 
 398      424C455F 
 398      5F203800 
 399 018d 01       		.byte	0x1
 400 018e 00       		.uleb128 0
 401 018f 5F5F5349 		.ascii "__SIZEOF_LONG_DOUBLE__ 12\0"
 401      5A454F46 
 401      5F4C4F4E 
 401      475F444F 
 401      55424C45 
 402 01a9 01       		.byte	0x1
 403 01aa 00       		.uleb128 0
 404 01ab 5F5F5349 		.ascii "__SIZEOF_SIZE_T__ 4\0"
 404      5A454F46 
 404      5F53495A 
 404      455F545F 
 404      5F203400 
 405 01bf 01       		.byte	0x1
 406 01c0 00       		.uleb128 0
 407 01c1 5F5F4348 		.ascii "__CHAR_BIT__ 8\0"
 407      41525F42 
 407      49545F5F 
 407      203800
 408 01d0 01       		.byte	0x1
 409 01d1 00       		.uleb128 0
GAS LISTING C:\Users\PRESID~1\AppData\Local\Temp\ccznJJdR.s 			page 11


 410 01d2 5F5F4249 		.ascii "__BIGGEST_ALIGNMENT__ 16\0"
 410      47474553 
 410      545F414C 
 410      49474E4D 
 410      454E545F 
 411 01eb 01       		.byte	0x1
 412 01ec 00       		.uleb128 0
 413 01ed 5F5F4F52 		.ascii "__ORDER_LITTLE_ENDIAN__ 1234\0"
 413      4445525F 
 413      4C495454 
 413      4C455F45 
 413      4E444941 
 414 020a 01       		.byte	0x1
 415 020b 00       		.uleb128 0
 416 020c 5F5F4F52 		.ascii "__ORDER_BIG_ENDIAN__ 4321\0"
 416      4445525F 
 416      4249475F 
 416      454E4449 
 416      414E5F5F 
 417 0226 01       		.byte	0x1
 418 0227 00       		.uleb128 0
 419 0228 5F5F4F52 		.ascii "__ORDER_PDP_ENDIAN__ 3412\0"
 419      4445525F 
 419      5044505F 
 419      454E4449 
 419      414E5F5F 
 420 0242 01       		.byte	0x1
 421 0243 00       		.uleb128 0
 422 0244 5F5F4259 		.ascii "__BYTE_ORDER__ __ORDER_LITTLE_ENDIAN__\0"
 422      54455F4F 
 422      52444552 
 422      5F5F205F 
 422      5F4F5244 
 423 026b 01       		.byte	0x1
 424 026c 00       		.uleb128 0
 425 026d 5F5F464C 		.ascii "__FLOAT_WORD_ORDER__ __ORDER_LITTLE_ENDIAN__\0"
 425      4F41545F 
 425      574F5244 
 425      5F4F5244 
 425      45525F5F 
 426 029a 01       		.byte	0x1
 427 029b 00       		.uleb128 0
 428 029c 5F5F5349 		.ascii "__SIZEOF_POINTER__ 4\0"
 428      5A454F46 
 428      5F504F49 
 428      4E544552 
 428      5F5F2034 
 429 02b1 01       		.byte	0x1
 430 02b2 00       		.uleb128 0
 431 02b3 5F5F5349 		.ascii "__SIZE_TYPE__ unsigned int\0"
 431      5A455F54 
 431      5950455F 
 431      5F20756E 
 431      7369676E 
 432 02ce 01       		.byte	0x1
 433 02cf 00       		.uleb128 0
 434 02d0 5F5F5054 		.ascii "__PTRDIFF_TYPE__ int\0"
GAS LISTING C:\Users\PRESID~1\AppData\Local\Temp\ccznJJdR.s 			page 12


 434      52444946 
 434      465F5459 
 434      50455F5F 
 434      20696E74 
 435 02e5 01       		.byte	0x1
 436 02e6 00       		.uleb128 0
 437 02e7 5F5F5743 		.ascii "__WCHAR_TYPE__ short unsigned int\0"
 437      4841525F 
 437      54595045 
 437      5F5F2073 
 437      686F7274 
 438 0309 01       		.byte	0x1
 439 030a 00       		.uleb128 0
 440 030b 5F5F5749 		.ascii "__WINT_TYPE__ short unsigned int\0"
 440      4E545F54 
 440      5950455F 
 440      5F207368 
 440      6F727420 
 441 032c 01       		.byte	0x1
 442 032d 00       		.uleb128 0
 443 032e 5F5F494E 		.ascii "__INTMAX_TYPE__ long long int\0"
 443      544D4158 
 443      5F545950 
 443      455F5F20 
 443      6C6F6E67 
 444 034c 01       		.byte	0x1
 445 034d 00       		.uleb128 0
 446 034e 5F5F5549 		.ascii "__UINTMAX_TYPE__ long long unsigned int\0"
 446      4E544D41 
 446      585F5459 
 446      50455F5F 
 446      206C6F6E 
 447 0376 01       		.byte	0x1
 448 0377 00       		.uleb128 0
 449 0378 5F5F4348 		.ascii "__CHAR16_TYPE__ short unsigned int\0"
 449      41523136 
 449      5F545950 
 449      455F5F20 
 449      73686F72 
 450 039b 01       		.byte	0x1
 451 039c 00       		.uleb128 0
 452 039d 5F5F4348 		.ascii "__CHAR32_TYPE__ unsigned int\0"
 452      41523332 
 452      5F545950 
 452      455F5F20 
 452      756E7369 
 453 03ba 01       		.byte	0x1
 454 03bb 00       		.uleb128 0
 455 03bc 5F5F5349 		.ascii "__SIG_ATOMIC_TYPE__ int\0"
 455      475F4154 
 455      4F4D4943 
 455      5F545950 
 455      455F5F20 
 456 03d4 01       		.byte	0x1
 457 03d5 00       		.uleb128 0
 458 03d6 5F5F494E 		.ascii "__INT8_TYPE__ signed char\0"
 458      54385F54 
GAS LISTING C:\Users\PRESID~1\AppData\Local\Temp\ccznJJdR.s 			page 13


 458      5950455F 
 458      5F207369 
 458      676E6564 
 459 03f0 01       		.byte	0x1
 460 03f1 00       		.uleb128 0
 461 03f2 5F5F494E 		.ascii "__INT16_TYPE__ short int\0"
 461      5431365F 
 461      54595045 
 461      5F5F2073 
 461      686F7274 
 462 040b 01       		.byte	0x1
 463 040c 00       		.uleb128 0
 464 040d 5F5F494E 		.ascii "__INT32_TYPE__ int\0"
 464      5433325F 
 464      54595045 
 464      5F5F2069 
 464      6E7400
 465 0420 01       		.byte	0x1
 466 0421 00       		.uleb128 0
 467 0422 5F5F494E 		.ascii "__INT64_TYPE__ long long int\0"
 467      5436345F 
 467      54595045 
 467      5F5F206C 
 467      6F6E6720 
 468 043f 01       		.byte	0x1
 469 0440 00       		.uleb128 0
 470 0441 5F5F5549 		.ascii "__UINT8_TYPE__ unsigned char\0"
 470      4E54385F 
 470      54595045 
 470      5F5F2075 
 470      6E736967 
 471 045e 01       		.byte	0x1
 472 045f 00       		.uleb128 0
 473 0460 5F5F5549 		.ascii "__UINT16_TYPE__ short unsigned int\0"
 473      4E543136 
 473      5F545950 
 473      455F5F20 
 473      73686F72 
 474 0483 01       		.byte	0x1
 475 0484 00       		.uleb128 0
 476 0485 5F5F5549 		.ascii "__UINT32_TYPE__ unsigned int\0"
 476      4E543332 
 476      5F545950 
 476      455F5F20 
 476      756E7369 
 477 04a2 01       		.byte	0x1
 478 04a3 00       		.uleb128 0
 479 04a4 5F5F5549 		.ascii "__UINT64_TYPE__ long long unsigned int\0"
 479      4E543634 
 479      5F545950 
 479      455F5F20 
 479      6C6F6E67 
 480 04cb 01       		.byte	0x1
 481 04cc 00       		.uleb128 0
 482 04cd 5F5F494E 		.ascii "__INT_LEAST8_TYPE__ signed char\0"
 482      545F4C45 
 482      41535438 
GAS LISTING C:\Users\PRESID~1\AppData\Local\Temp\ccznJJdR.s 			page 14


 482      5F545950 
 482      455F5F20 
 483 04ed 01       		.byte	0x1
 484 04ee 00       		.uleb128 0
 485 04ef 5F5F494E 		.ascii "__INT_LEAST16_TYPE__ short int\0"
 485      545F4C45 
 485      41535431 
 485      365F5459 
 485      50455F5F 
 486 050e 01       		.byte	0x1
 487 050f 00       		.uleb128 0
 488 0510 5F5F494E 		.ascii "__INT_LEAST32_TYPE__ int\0"
 488      545F4C45 
 488      41535433 
 488      325F5459 
 488      50455F5F 
 489 0529 01       		.byte	0x1
 490 052a 00       		.uleb128 0
 491 052b 5F5F494E 		.ascii "__INT_LEAST64_TYPE__ long long int\0"
 491      545F4C45 
 491      41535436 
 491      345F5459 
 491      50455F5F 
 492 054e 01       		.byte	0x1
 493 054f 00       		.uleb128 0
 494 0550 5F5F5549 		.ascii "__UINT_LEAST8_TYPE__ unsigned char\0"
 494      4E545F4C 
 494      45415354 
 494      385F5459 
 494      50455F5F 
 495 0573 01       		.byte	0x1
 496 0574 00       		.uleb128 0
 497 0575 5F5F5549 		.ascii "__UINT_LEAST16_TYPE__ short unsigned int\0"
 497      4E545F4C 
 497      45415354 
 497      31365F54 
 497      5950455F 
 498 059e 01       		.byte	0x1
 499 059f 00       		.uleb128 0
 500 05a0 5F5F5549 		.ascii "__UINT_LEAST32_TYPE__ unsigned int\0"
 500      4E545F4C 
 500      45415354 
 500      33325F54 
 500      5950455F 
 501 05c3 01       		.byte	0x1
 502 05c4 00       		.uleb128 0
 503 05c5 5F5F5549 		.ascii "__UINT_LEAST64_TYPE__ long long unsigned int\0"
 503      4E545F4C 
 503      45415354 
 503      36345F54 
 503      5950455F 
 504 05f2 01       		.byte	0x1
 505 05f3 00       		.uleb128 0
 506 05f4 5F5F494E 		.ascii "__INT_FAST8_TYPE__ signed char\0"
 506      545F4641 
 506      5354385F 
 506      54595045 
GAS LISTING C:\Users\PRESID~1\AppData\Local\Temp\ccznJJdR.s 			page 15


 506      5F5F2073 
 507 0613 01       		.byte	0x1
 508 0614 00       		.uleb128 0
 509 0615 5F5F494E 		.ascii "__INT_FAST16_TYPE__ short int\0"
 509      545F4641 
 509      53543136 
 509      5F545950 
 509      455F5F20 
 510 0633 01       		.byte	0x1
 511 0634 00       		.uleb128 0
 512 0635 5F5F494E 		.ascii "__INT_FAST32_TYPE__ int\0"
 512      545F4641 
 512      53543332 
 512      5F545950 
 512      455F5F20 
 513 064d 01       		.byte	0x1
 514 064e 00       		.uleb128 0
 515 064f 5F5F494E 		.ascii "__INT_FAST64_TYPE__ long long int\0"
 515      545F4641 
 515      53543634 
 515      5F545950 
 515      455F5F20 
 516 0671 01       		.byte	0x1
 517 0672 00       		.uleb128 0
 518 0673 5F5F5549 		.ascii "__UINT_FAST8_TYPE__ unsigned char\0"
 518      4E545F46 
 518      41535438 
 518      5F545950 
 518      455F5F20 
 519 0695 01       		.byte	0x1
 520 0696 00       		.uleb128 0
 521 0697 5F5F5549 		.ascii "__UINT_FAST16_TYPE__ short unsigned int\0"
 521      4E545F46 
 521      41535431 
 521      365F5459 
 521      50455F5F 
 522 06bf 01       		.byte	0x1
 523 06c0 00       		.uleb128 0
 524 06c1 5F5F5549 		.ascii "__UINT_FAST32_TYPE__ unsigned int\0"
 524      4E545F46 
 524      41535433 
 524      325F5459 
 524      50455F5F 
 525 06e3 01       		.byte	0x1
 526 06e4 00       		.uleb128 0
 527 06e5 5F5F5549 		.ascii "__UINT_FAST64_TYPE__ long long unsigned int\0"
 527      4E545F46 
 527      41535436 
 527      345F5459 
 527      50455F5F 
 528 0711 01       		.byte	0x1
 529 0712 00       		.uleb128 0
 530 0713 5F5F494E 		.ascii "__INTPTR_TYPE__ int\0"
 530      54505452 
 530      5F545950 
 530      455F5F20 
 530      696E7400 
GAS LISTING C:\Users\PRESID~1\AppData\Local\Temp\ccznJJdR.s 			page 16


 531 0727 01       		.byte	0x1
 532 0728 00       		.uleb128 0
 533 0729 5F5F5549 		.ascii "__UINTPTR_TYPE__ unsigned int\0"
 533      4E545054 
 533      525F5459 
 533      50455F5F 
 533      20756E73 
 534 0747 01       		.byte	0x1
 535 0748 00       		.uleb128 0
 536 0749 5F5F6861 		.ascii "__has_include(STR) __has_include__(STR)\0"
 536      735F696E 
 536      636C7564 
 536      65285354 
 536      5229205F 
 537 0771 01       		.byte	0x1
 538 0772 00       		.uleb128 0
 539 0773 5F5F6861 		.ascii "__has_include_next(STR) __has_include_next__(STR)\0"
 539      735F696E 
 539      636C7564 
 539      655F6E65 
 539      78742853 
 540 07a5 01       		.byte	0x1
 541 07a6 00       		.uleb128 0
 542 07a7 5F5F4758 		.ascii "__GXX_ABI_VERSION 1002\0"
 542      585F4142 
 542      495F5645 
 542      5253494F 
 542      4E203130 
 543 07be 01       		.byte	0x1
 544 07bf 00       		.uleb128 0
 545 07c0 5F5F5343 		.ascii "__SCHAR_MAX__ 127\0"
 545      4841525F 
 545      4D41585F 
 545      5F203132 
 545      3700
 546 07d2 01       		.byte	0x1
 547 07d3 00       		.uleb128 0
 548 07d4 5F5F5348 		.ascii "__SHRT_MAX__ 32767\0"
 548      52545F4D 
 548      41585F5F 
 548      20333237 
 548      363700
 549 07e7 01       		.byte	0x1
 550 07e8 00       		.uleb128 0
 551 07e9 5F5F494E 		.ascii "__INT_MAX__ 2147483647\0"
 551      545F4D41 
 551      585F5F20 
 551      32313437 
 551      34383336 
 552 0800 01       		.byte	0x1
 553 0801 00       		.uleb128 0
 554 0802 5F5F4C4F 		.ascii "__LONG_MAX__ 2147483647L\0"
 554      4E475F4D 
 554      41585F5F 
 554      20323134 
 554      37343833 
 555 081b 01       		.byte	0x1
GAS LISTING C:\Users\PRESID~1\AppData\Local\Temp\ccznJJdR.s 			page 17


 556 081c 00       		.uleb128 0
 557 081d 5F5F4C4F 		.ascii "__LONG_LONG_MAX__ 9223372036854775807LL\0"
 557      4E475F4C 
 557      4F4E475F 
 557      4D41585F 
 557      5F203932 
 558 0845 01       		.byte	0x1
 559 0846 00       		.uleb128 0
 560 0847 5F5F5743 		.ascii "__WCHAR_MAX__ 65535\0"
 560      4841525F 
 560      4D41585F 
 560      5F203635 
 560      35333500 
 561 085b 01       		.byte	0x1
 562 085c 00       		.uleb128 0
 563 085d 5F5F5743 		.ascii "__WCHAR_MIN__ 0\0"
 563      4841525F 
 563      4D494E5F 
 563      5F203000 
 564 086d 01       		.byte	0x1
 565 086e 00       		.uleb128 0
 566 086f 5F5F5749 		.ascii "__WINT_MAX__ 65535\0"
 566      4E545F4D 
 566      41585F5F 
 566      20363535 
 566      333500
 567 0882 01       		.byte	0x1
 568 0883 00       		.uleb128 0
 569 0884 5F5F5749 		.ascii "__WINT_MIN__ 0\0"
 569      4E545F4D 
 569      494E5F5F 
 569      203000
 570 0893 01       		.byte	0x1
 571 0894 00       		.uleb128 0
 572 0895 5F5F5054 		.ascii "__PTRDIFF_MAX__ 2147483647\0"
 572      52444946 
 572      465F4D41 
 572      585F5F20 
 572      32313437 
 573 08b0 01       		.byte	0x1
 574 08b1 00       		.uleb128 0
 575 08b2 5F5F5349 		.ascii "__SIZE_MAX__ 4294967295U\0"
 575      5A455F4D 
 575      41585F5F 
 575      20343239 
 575      34393637 
 576 08cb 01       		.byte	0x1
 577 08cc 00       		.uleb128 0
 578 08cd 5F5F494E 		.ascii "__INTMAX_MAX__ 9223372036854775807LL\0"
 578      544D4158 
 578      5F4D4158 
 578      5F5F2039 
 578      32323333 
 579 08f2 01       		.byte	0x1
 580 08f3 00       		.uleb128 0
 581 08f4 5F5F494E 		.ascii "__INTMAX_C(c) c ## LL\0"
 581      544D4158 
GAS LISTING C:\Users\PRESID~1\AppData\Local\Temp\ccznJJdR.s 			page 18


 581      5F432863 
 581      29206320 
 581      2323204C 
 582 090a 01       		.byte	0x1
 583 090b 00       		.uleb128 0
 584 090c 5F5F5549 		.ascii "__UINTMAX_MAX__ 18446744073709551615ULL\0"
 584      4E544D41 
 584      585F4D41 
 584      585F5F20 
 584      31383434 
 585 0934 01       		.byte	0x1
 586 0935 00       		.uleb128 0
 587 0936 5F5F5549 		.ascii "__UINTMAX_C(c) c ## ULL\0"
 587      4E544D41 
 587      585F4328 
 587      63292063 
 587      20232320 
 588 094e 01       		.byte	0x1
 589 094f 00       		.uleb128 0
 590 0950 5F5F5349 		.ascii "__SIG_ATOMIC_MAX__ 2147483647\0"
 590      475F4154 
 590      4F4D4943 
 590      5F4D4158 
 590      5F5F2032 
 591 096e 01       		.byte	0x1
 592 096f 00       		.uleb128 0
 593 0970 5F5F5349 		.ascii "__SIG_ATOMIC_MIN__ (-__SIG_ATOMIC_MAX__ - 1)\0"
 593      475F4154 
 593      4F4D4943 
 593      5F4D494E 
 593      5F5F2028 
 594 099d 01       		.byte	0x1
 595 099e 00       		.uleb128 0
 596 099f 5F5F494E 		.ascii "__INT8_MAX__ 127\0"
 596      54385F4D 
 596      41585F5F 
 596      20313237 
 596      00
 597 09b0 01       		.byte	0x1
 598 09b1 00       		.uleb128 0
 599 09b2 5F5F494E 		.ascii "__INT16_MAX__ 32767\0"
 599      5431365F 
 599      4D41585F 
 599      5F203332 
 599      37363700 
 600 09c6 01       		.byte	0x1
 601 09c7 00       		.uleb128 0
 602 09c8 5F5F494E 		.ascii "__INT32_MAX__ 2147483647\0"
 602      5433325F 
 602      4D41585F 
 602      5F203231 
 602      34373438 
 603 09e1 01       		.byte	0x1
 604 09e2 00       		.uleb128 0
 605 09e3 5F5F494E 		.ascii "__INT64_MAX__ 9223372036854775807LL\0"
 605      5436345F 
 605      4D41585F 
GAS LISTING C:\Users\PRESID~1\AppData\Local\Temp\ccznJJdR.s 			page 19


 605      5F203932 
 605      32333337 
 606 0a07 01       		.byte	0x1
 607 0a08 00       		.uleb128 0
 608 0a09 5F5F5549 		.ascii "__UINT8_MAX__ 255\0"
 608      4E54385F 
 608      4D41585F 
 608      5F203235 
 608      3500
 609 0a1b 01       		.byte	0x1
 610 0a1c 00       		.uleb128 0
 611 0a1d 5F5F5549 		.ascii "__UINT16_MAX__ 65535\0"
 611      4E543136 
 611      5F4D4158 
 611      5F5F2036 
 611      35353335 
 612 0a32 01       		.byte	0x1
 613 0a33 00       		.uleb128 0
 614 0a34 5F5F5549 		.ascii "__UINT32_MAX__ 4294967295U\0"
 614      4E543332 
 614      5F4D4158 
 614      5F5F2034 
 614      32393439 
 615 0a4f 01       		.byte	0x1
 616 0a50 00       		.uleb128 0
 617 0a51 5F5F5549 		.ascii "__UINT64_MAX__ 18446744073709551615ULL\0"
 617      4E543634 
 617      5F4D4158 
 617      5F5F2031 
 617      38343436 
 618 0a78 01       		.byte	0x1
 619 0a79 00       		.uleb128 0
 620 0a7a 5F5F494E 		.ascii "__INT_LEAST8_MAX__ 127\0"
 620      545F4C45 
 620      41535438 
 620      5F4D4158 
 620      5F5F2031 
 621 0a91 01       		.byte	0x1
 622 0a92 00       		.uleb128 0
 623 0a93 5F5F494E 		.ascii "__INT8_C(c) c\0"
 623      54385F43 
 623      28632920 
 623      6300
 624 0aa1 01       		.byte	0x1
 625 0aa2 00       		.uleb128 0
 626 0aa3 5F5F494E 		.ascii "__INT_LEAST16_MAX__ 32767\0"
 626      545F4C45 
 626      41535431 
 626      365F4D41 
 626      585F5F20 
 627 0abd 01       		.byte	0x1
 628 0abe 00       		.uleb128 0
 629 0abf 5F5F494E 		.ascii "__INT16_C(c) c\0"
 629      5431365F 
 629      43286329 
 629      206300
 630 0ace 01       		.byte	0x1
GAS LISTING C:\Users\PRESID~1\AppData\Local\Temp\ccznJJdR.s 			page 20


 631 0acf 00       		.uleb128 0
 632 0ad0 5F5F494E 		.ascii "__INT_LEAST32_MAX__ 2147483647\0"
 632      545F4C45 
 632      41535433 
 632      325F4D41 
 632      585F5F20 
 633 0aef 01       		.byte	0x1
 634 0af0 00       		.uleb128 0
 635 0af1 5F5F494E 		.ascii "__INT32_C(c) c\0"
 635      5433325F 
 635      43286329 
 635      206300
 636 0b00 01       		.byte	0x1
 637 0b01 00       		.uleb128 0
 638 0b02 5F5F494E 		.ascii "__INT_LEAST64_MAX__ 9223372036854775807LL\0"
 638      545F4C45 
 638      41535436 
 638      345F4D41 
 638      585F5F20 
 639 0b2c 01       		.byte	0x1
 640 0b2d 00       		.uleb128 0
 641 0b2e 5F5F494E 		.ascii "__INT64_C(c) c ## LL\0"
 641      5436345F 
 641      43286329 
 641      20632023 
 641      23204C4C 
 642 0b43 01       		.byte	0x1
 643 0b44 00       		.uleb128 0
 644 0b45 5F5F5549 		.ascii "__UINT_LEAST8_MAX__ 255\0"
 644      4E545F4C 
 644      45415354 
 644      385F4D41 
 644      585F5F20 
 645 0b5d 01       		.byte	0x1
 646 0b5e 00       		.uleb128 0
 647 0b5f 5F5F5549 		.ascii "__UINT8_C(c) c\0"
 647      4E54385F 
 647      43286329 
 647      206300
 648 0b6e 01       		.byte	0x1
 649 0b6f 00       		.uleb128 0
 650 0b70 5F5F5549 		.ascii "__UINT_LEAST16_MAX__ 65535\0"
 650      4E545F4C 
 650      45415354 
 650      31365F4D 
 650      41585F5F 
 651 0b8b 01       		.byte	0x1
 652 0b8c 00       		.uleb128 0
 653 0b8d 5F5F5549 		.ascii "__UINT16_C(c) c\0"
 653      4E543136 
 653      5F432863 
 653      29206300 
 654 0b9d 01       		.byte	0x1
 655 0b9e 00       		.uleb128 0
 656 0b9f 5F5F5549 		.ascii "__UINT_LEAST32_MAX__ 4294967295U\0"
 656      4E545F4C 
 656      45415354 
GAS LISTING C:\Users\PRESID~1\AppData\Local\Temp\ccznJJdR.s 			page 21


 656      33325F4D 
 656      41585F5F 
 657 0bc0 01       		.byte	0x1
 658 0bc1 00       		.uleb128 0
 659 0bc2 5F5F5549 		.ascii "__UINT32_C(c) c ## U\0"
 659      4E543332 
 659      5F432863 
 659      29206320 
 659      23232055 
 660 0bd7 01       		.byte	0x1
 661 0bd8 00       		.uleb128 0
 662 0bd9 5F5F5549 		.ascii "__UINT_LEAST64_MAX__ 18446744073709551615ULL\0"
 662      4E545F4C 
 662      45415354 
 662      36345F4D 
 662      41585F5F 
 663 0c06 01       		.byte	0x1
 664 0c07 00       		.uleb128 0
 665 0c08 5F5F5549 		.ascii "__UINT64_C(c) c ## ULL\0"
 665      4E543634 
 665      5F432863 
 665      29206320 
 665      23232055 
 666 0c1f 01       		.byte	0x1
 667 0c20 00       		.uleb128 0
 668 0c21 5F5F494E 		.ascii "__INT_FAST8_MAX__ 127\0"
 668      545F4641 
 668      5354385F 
 668      4D41585F 
 668      5F203132 
 669 0c37 01       		.byte	0x1
 670 0c38 00       		.uleb128 0
 671 0c39 5F5F494E 		.ascii "__INT_FAST16_MAX__ 32767\0"
 671      545F4641 
 671      53543136 
 671      5F4D4158 
 671      5F5F2033 
 672 0c52 01       		.byte	0x1
 673 0c53 00       		.uleb128 0
 674 0c54 5F5F494E 		.ascii "__INT_FAST32_MAX__ 2147483647\0"
 674      545F4641 
 674      53543332 
 674      5F4D4158 
 674      5F5F2032 
 675 0c72 01       		.byte	0x1
 676 0c73 00       		.uleb128 0
 677 0c74 5F5F494E 		.ascii "__INT_FAST64_MAX__ 9223372036854775807LL\0"
 677      545F4641 
 677      53543634 
 677      5F4D4158 
 677      5F5F2039 
 678 0c9d 01       		.byte	0x1
 679 0c9e 00       		.uleb128 0
 680 0c9f 5F5F5549 		.ascii "__UINT_FAST8_MAX__ 255\0"
 680      4E545F46 
 680      41535438 
 680      5F4D4158 
GAS LISTING C:\Users\PRESID~1\AppData\Local\Temp\ccznJJdR.s 			page 22


 680      5F5F2032 
 681 0cb6 01       		.byte	0x1
 682 0cb7 00       		.uleb128 0
 683 0cb8 5F5F5549 		.ascii "__UINT_FAST16_MAX__ 65535\0"
 683      4E545F46 
 683      41535431 
 683      365F4D41 
 683      585F5F20 
 684 0cd2 01       		.byte	0x1
 685 0cd3 00       		.uleb128 0
 686 0cd4 5F5F5549 		.ascii "__UINT_FAST32_MAX__ 4294967295U\0"
 686      4E545F46 
 686      41535433 
 686      325F4D41 
 686      585F5F20 
 687 0cf4 01       		.byte	0x1
 688 0cf5 00       		.uleb128 0
 689 0cf6 5F5F5549 		.ascii "__UINT_FAST64_MAX__ 18446744073709551615ULL\0"
 689      4E545F46 
 689      41535436 
 689      345F4D41 
 689      585F5F20 
 690 0d22 01       		.byte	0x1
 691 0d23 00       		.uleb128 0
 692 0d24 5F5F494E 		.ascii "__INTPTR_MAX__ 2147483647\0"
 692      54505452 
 692      5F4D4158 
 692      5F5F2032 
 692      31343734 
 693 0d3e 01       		.byte	0x1
 694 0d3f 00       		.uleb128 0
 695 0d40 5F5F5549 		.ascii "__UINTPTR_MAX__ 4294967295U\0"
 695      4E545054 
 695      525F4D41 
 695      585F5F20 
 695      34323934 
 696 0d5c 01       		.byte	0x1
 697 0d5d 00       		.uleb128 0
 698 0d5e 5F5F4743 		.ascii "__GCC_IEC_559 2\0"
 698      435F4945 
 698      435F3535 
 698      39203200 
 699 0d6e 01       		.byte	0x1
 700 0d6f 00       		.uleb128 0
 701 0d70 5F5F4743 		.ascii "__GCC_IEC_559_COMPLEX 2\0"
 701      435F4945 
 701      435F3535 
 701      395F434F 
 701      4D504C45 
 702 0d88 01       		.byte	0x1
 703 0d89 00       		.uleb128 0
 704 0d8a 5F5F464C 		.ascii "__FLT_EVAL_METHOD__ 2\0"
 704      545F4556 
 704      414C5F4D 
 704      4554484F 
 704      445F5F20 
 705 0da0 01       		.byte	0x1
GAS LISTING C:\Users\PRESID~1\AppData\Local\Temp\ccznJJdR.s 			page 23


 706 0da1 00       		.uleb128 0
 707 0da2 5F5F4445 		.ascii "__DEC_EVAL_METHOD__ 2\0"
 707      435F4556 
 707      414C5F4D 
 707      4554484F 
 707      445F5F20 
 708 0db8 01       		.byte	0x1
 709 0db9 00       		.uleb128 0
 710 0dba 5F5F464C 		.ascii "__FLT_RADIX__ 2\0"
 710      545F5241 
 710      4449585F 
 710      5F203200 
 711 0dca 01       		.byte	0x1
 712 0dcb 00       		.uleb128 0
 713 0dcc 5F5F464C 		.ascii "__FLT_MANT_DIG__ 24\0"
 713      545F4D41 
 713      4E545F44 
 713      49475F5F 
 713      20323400 
 714 0de0 01       		.byte	0x1
 715 0de1 00       		.uleb128 0
 716 0de2 5F5F464C 		.ascii "__FLT_DIG__ 6\0"
 716      545F4449 
 716      475F5F20 
 716      3600
 717 0df0 01       		.byte	0x1
 718 0df1 00       		.uleb128 0
 719 0df2 5F5F464C 		.ascii "__FLT_MIN_EXP__ (-125)\0"
 719      545F4D49 
 719      4E5F4558 
 719      505F5F20 
 719      282D3132 
 720 0e09 01       		.byte	0x1
 721 0e0a 00       		.uleb128 0
 722 0e0b 5F5F464C 		.ascii "__FLT_MIN_10_EXP__ (-37)\0"
 722      545F4D49 
 722      4E5F3130 
 722      5F455850 
 722      5F5F2028 
 723 0e24 01       		.byte	0x1
 724 0e25 00       		.uleb128 0
 725 0e26 5F5F464C 		.ascii "__FLT_MAX_EXP__ 128\0"
 725      545F4D41 
 725      585F4558 
 725      505F5F20 
 725      31323800 
 726 0e3a 01       		.byte	0x1
 727 0e3b 00       		.uleb128 0
 728 0e3c 5F5F464C 		.ascii "__FLT_MAX_10_EXP__ 38\0"
 728      545F4D41 
 728      585F3130 
 728      5F455850 
 728      5F5F2033 
 729 0e52 01       		.byte	0x1
 730 0e53 00       		.uleb128 0
 731 0e54 5F5F464C 		.ascii "__FLT_DECIMAL_DIG__ 9\0"
 731      545F4445 
GAS LISTING C:\Users\PRESID~1\AppData\Local\Temp\ccznJJdR.s 			page 24


 731      43494D41 
 731      4C5F4449 
 731      475F5F20 
 732 0e6a 01       		.byte	0x1
 733 0e6b 00       		.uleb128 0
 734 0e6c 5F5F464C 		.ascii "__FLT_MAX__ 3.40282346638528859812e+38F\0"
 734      545F4D41 
 734      585F5F20 
 734      332E3430 
 734      32383233 
 735 0e94 01       		.byte	0x1
 736 0e95 00       		.uleb128 0
 737 0e96 5F5F464C 		.ascii "__FLT_MIN__ 1.17549435082228750797e-38F\0"
 737      545F4D49 
 737      4E5F5F20 
 737      312E3137 
 737      35343934 
 738 0ebe 01       		.byte	0x1
 739 0ebf 00       		.uleb128 0
 740 0ec0 5F5F464C 		.ascii "__FLT_EPSILON__ 1.19209289550781250000e-7F\0"
 740      545F4550 
 740      53494C4F 
 740      4E5F5F20 
 740      312E3139 
 741 0eeb 01       		.byte	0x1
 742 0eec 00       		.uleb128 0
 743 0eed 5F5F464C 		.ascii "__FLT_DENORM_MIN__ 1.40129846432481707092e-45F\0"
 743      545F4445 
 743      4E4F524D 
 743      5F4D494E 
 743      5F5F2031 
 744 0f1c 01       		.byte	0x1
 745 0f1d 00       		.uleb128 0
 746 0f1e 5F5F464C 		.ascii "__FLT_HAS_DENORM__ 1\0"
 746      545F4841 
 746      535F4445 
 746      4E4F524D 
 746      5F5F2031 
 747 0f33 01       		.byte	0x1
 748 0f34 00       		.uleb128 0
 749 0f35 5F5F464C 		.ascii "__FLT_HAS_INFINITY__ 1\0"
 749      545F4841 
 749      535F494E 
 749      46494E49 
 749      54595F5F 
 750 0f4c 01       		.byte	0x1
 751 0f4d 00       		.uleb128 0
 752 0f4e 5F5F464C 		.ascii "__FLT_HAS_QUIET_NAN__ 1\0"
 752      545F4841 
 752      535F5155 
 752      4945545F 
 752      4E414E5F 
 753 0f66 01       		.byte	0x1
 754 0f67 00       		.uleb128 0
 755 0f68 5F5F4442 		.ascii "__DBL_MANT_DIG__ 53\0"
 755      4C5F4D41 
 755      4E545F44 
GAS LISTING C:\Users\PRESID~1\AppData\Local\Temp\ccznJJdR.s 			page 25


 755      49475F5F 
 755      20353300 
 756 0f7c 01       		.byte	0x1
 757 0f7d 00       		.uleb128 0
 758 0f7e 5F5F4442 		.ascii "__DBL_DIG__ 15\0"
 758      4C5F4449 
 758      475F5F20 
 758      313500
 759 0f8d 01       		.byte	0x1
 760 0f8e 00       		.uleb128 0
 761 0f8f 5F5F4442 		.ascii "__DBL_MIN_EXP__ (-1021)\0"
 761      4C5F4D49 
 761      4E5F4558 
 761      505F5F20 
 761      282D3130 
 762 0fa7 01       		.byte	0x1
 763 0fa8 00       		.uleb128 0
 764 0fa9 5F5F4442 		.ascii "__DBL_MIN_10_EXP__ (-307)\0"
 764      4C5F4D49 
 764      4E5F3130 
 764      5F455850 
 764      5F5F2028 
 765 0fc3 01       		.byte	0x1
 766 0fc4 00       		.uleb128 0
 767 0fc5 5F5F4442 		.ascii "__DBL_MAX_EXP__ 1024\0"
 767      4C5F4D41 
 767      585F4558 
 767      505F5F20 
 767      31303234 
 768 0fda 01       		.byte	0x1
 769 0fdb 00       		.uleb128 0
 770 0fdc 5F5F4442 		.ascii "__DBL_MAX_10_EXP__ 308\0"
 770      4C5F4D41 
 770      585F3130 
 770      5F455850 
 770      5F5F2033 
 771 0ff3 01       		.byte	0x1
 772 0ff4 00       		.uleb128 0
 773 0ff5 5F5F4442 		.ascii "__DBL_DECIMAL_DIG__ 17\0"
 773      4C5F4445 
 773      43494D41 
 773      4C5F4449 
 773      475F5F20 
 774 100c 01       		.byte	0x1
 775 100d 00       		.uleb128 0
 776 100e 5F5F4442 		.ascii "__DBL_MAX__ ((double)1.79769313486231570815e+308L)\0"
 776      4C5F4D41 
 776      585F5F20 
 776      2828646F 
 776      75626C65 
 777 1041 01       		.byte	0x1
 778 1042 00       		.uleb128 0
 779 1043 5F5F4442 		.ascii "__DBL_MIN__ ((double)2.22507385850720138309e-308L)\0"
 779      4C5F4D49 
 779      4E5F5F20 
 779      2828646F 
 779      75626C65 
GAS LISTING C:\Users\PRESID~1\AppData\Local\Temp\ccznJJdR.s 			page 26


 780 1076 01       		.byte	0x1
 781 1077 00       		.uleb128 0
 782 1078 5F5F4442 		.ascii "__DBL_EPSILON__ ((double)2.22044604925031308085e-16L)\0"
 782      4C5F4550 
 782      53494C4F 
 782      4E5F5F20 
 782      2828646F 
 783 10ae 01       		.byte	0x1
 784 10af 00       		.uleb128 0
 785 10b0 5F5F4442 		.ascii "__DBL_DENORM_MIN__ ((double)4.94065645841246544177e-324L)\0"
 785      4C5F4445 
 785      4E4F524D 
 785      5F4D494E 
 785      5F5F2028 
 786 10ea 01       		.byte	0x1
 787 10eb 00       		.uleb128 0
 788 10ec 5F5F4442 		.ascii "__DBL_HAS_DENORM__ 1\0"
 788      4C5F4841 
 788      535F4445 
 788      4E4F524D 
 788      5F5F2031 
 789 1101 01       		.byte	0x1
 790 1102 00       		.uleb128 0
 791 1103 5F5F4442 		.ascii "__DBL_HAS_INFINITY__ 1\0"
 791      4C5F4841 
 791      535F494E 
 791      46494E49 
 791      54595F5F 
 792 111a 01       		.byte	0x1
 793 111b 00       		.uleb128 0
 794 111c 5F5F4442 		.ascii "__DBL_HAS_QUIET_NAN__ 1\0"
 794      4C5F4841 
 794      535F5155 
 794      4945545F 
 794      4E414E5F 
 795 1134 01       		.byte	0x1
 796 1135 00       		.uleb128 0
 797 1136 5F5F4C44 		.ascii "__LDBL_MANT_DIG__ 64\0"
 797      424C5F4D 
 797      414E545F 
 797      4449475F 
 797      5F203634 
 798 114b 01       		.byte	0x1
 799 114c 00       		.uleb128 0
 800 114d 5F5F4C44 		.ascii "__LDBL_DIG__ 18\0"
 800      424C5F44 
 800      49475F5F 
 800      20313800 
 801 115d 01       		.byte	0x1
 802 115e 00       		.uleb128 0
 803 115f 5F5F4C44 		.ascii "__LDBL_MIN_EXP__ (-16381)\0"
 803      424C5F4D 
 803      494E5F45 
 803      58505F5F 
 803      20282D31 
 804 1179 01       		.byte	0x1
 805 117a 00       		.uleb128 0
GAS LISTING C:\Users\PRESID~1\AppData\Local\Temp\ccznJJdR.s 			page 27


 806 117b 5F5F4C44 		.ascii "__LDBL_MIN_10_EXP__ (-4931)\0"
 806      424C5F4D 
 806      494E5F31 
 806      305F4558 
 806      505F5F20 
 807 1197 01       		.byte	0x1
 808 1198 00       		.uleb128 0
 809 1199 5F5F4C44 		.ascii "__LDBL_MAX_EXP__ 16384\0"
 809      424C5F4D 
 809      41585F45 
 809      58505F5F 
 809      20313633 
 810 11b0 01       		.byte	0x1
 811 11b1 00       		.uleb128 0
 812 11b2 5F5F4C44 		.ascii "__LDBL_MAX_10_EXP__ 4932\0"
 812      424C5F4D 
 812      41585F31 
 812      305F4558 
 812      505F5F20 
 813 11cb 01       		.byte	0x1
 814 11cc 00       		.uleb128 0
 815 11cd 5F5F4445 		.ascii "__DECIMAL_DIG__ 21\0"
 815      43494D41 
 815      4C5F4449 
 815      475F5F20 
 815      323100
 816 11e0 01       		.byte	0x1
 817 11e1 00       		.uleb128 0
 818 11e2 5F5F4C44 		.ascii "__LDBL_MAX__ 1.18973149535723176502e+4932L\0"
 818      424C5F4D 
 818      41585F5F 
 818      20312E31 
 818      38393733 
 819 120d 01       		.byte	0x1
 820 120e 00       		.uleb128 0
 821 120f 5F5F4C44 		.ascii "__LDBL_MIN__ 3.36210314311209350626e-4932L\0"
 821      424C5F4D 
 821      494E5F5F 
 821      20332E33 
 821      36323130 
 822 123a 01       		.byte	0x1
 823 123b 00       		.uleb128 0
 824 123c 5F5F4C44 		.ascii "__LDBL_EPSILON__ 1.08420217248550443401e-19L\0"
 824      424C5F45 
 824      5053494C 
 824      4F4E5F5F 
 824      20312E30 
 825 1269 01       		.byte	0x1
 826 126a 00       		.uleb128 0
 827 126b 5F5F4C44 		.ascii "__LDBL_DENORM_MIN__ 3.64519953188247460253e-4951L\0"
 827      424C5F44 
 827      454E4F52 
 827      4D5F4D49 
 827      4E5F5F20 
 828 129d 01       		.byte	0x1
 829 129e 00       		.uleb128 0
 830 129f 5F5F4C44 		.ascii "__LDBL_HAS_DENORM__ 1\0"
GAS LISTING C:\Users\PRESID~1\AppData\Local\Temp\ccznJJdR.s 			page 28


 830      424C5F48 
 830      41535F44 
 830      454E4F52 
 830      4D5F5F20 
 831 12b5 01       		.byte	0x1
 832 12b6 00       		.uleb128 0
 833 12b7 5F5F4C44 		.ascii "__LDBL_HAS_INFINITY__ 1\0"
 833      424C5F48 
 833      41535F49 
 833      4E46494E 
 833      4954595F 
 834 12cf 01       		.byte	0x1
 835 12d0 00       		.uleb128 0
 836 12d1 5F5F4C44 		.ascii "__LDBL_HAS_QUIET_NAN__ 1\0"
 836      424C5F48 
 836      41535F51 
 836      55494554 
 836      5F4E414E 
 837 12ea 01       		.byte	0x1
 838 12eb 00       		.uleb128 0
 839 12ec 5F5F4445 		.ascii "__DEC32_MANT_DIG__ 7\0"
 839      4333325F 
 839      4D414E54 
 839      5F444947 
 839      5F5F2037 
 840 1301 01       		.byte	0x1
 841 1302 00       		.uleb128 0
 842 1303 5F5F4445 		.ascii "__DEC32_MIN_EXP__ (-94)\0"
 842      4333325F 
 842      4D494E5F 
 842      4558505F 
 842      5F20282D 
 843 131b 01       		.byte	0x1
 844 131c 00       		.uleb128 0
 845 131d 5F5F4445 		.ascii "__DEC32_MAX_EXP__ 97\0"
 845      4333325F 
 845      4D41585F 
 845      4558505F 
 845      5F203937 
 846 1332 01       		.byte	0x1
 847 1333 00       		.uleb128 0
 848 1334 5F5F4445 		.ascii "__DEC32_MIN__ 1E-95DF\0"
 848      4333325F 
 848      4D494E5F 
 848      5F203145 
 848      2D393544 
 849 134a 01       		.byte	0x1
 850 134b 00       		.uleb128 0
 851 134c 5F5F4445 		.ascii "__DEC32_MAX__ 9.999999E96DF\0"
 851      4333325F 
 851      4D41585F 
 851      5F20392E 
 851      39393939 
 852 1368 01       		.byte	0x1
 853 1369 00       		.uleb128 0
 854 136a 5F5F4445 		.ascii "__DEC32_EPSILON__ 1E-6DF\0"
 854      4333325F 
GAS LISTING C:\Users\PRESID~1\AppData\Local\Temp\ccznJJdR.s 			page 29


 854      45505349 
 854      4C4F4E5F 
 854      5F203145 
 855 1383 01       		.byte	0x1
 856 1384 00       		.uleb128 0
 857 1385 5F5F4445 		.ascii "__DEC32_SUBNORMAL_MIN__ 0.000001E-95DF\0"
 857      4333325F 
 857      5355424E 
 857      4F524D41 
 857      4C5F4D49 
 858 13ac 01       		.byte	0x1
 859 13ad 00       		.uleb128 0
 860 13ae 5F5F4445 		.ascii "__DEC64_MANT_DIG__ 16\0"
 860      4336345F 
 860      4D414E54 
 860      5F444947 
 860      5F5F2031 
 861 13c4 01       		.byte	0x1
 862 13c5 00       		.uleb128 0
 863 13c6 5F5F4445 		.ascii "__DEC64_MIN_EXP__ (-382)\0"
 863      4336345F 
 863      4D494E5F 
 863      4558505F 
 863      5F20282D 
 864 13df 01       		.byte	0x1
 865 13e0 00       		.uleb128 0
 866 13e1 5F5F4445 		.ascii "__DEC64_MAX_EXP__ 385\0"
 866      4336345F 
 866      4D41585F 
 866      4558505F 
 866      5F203338 
 867 13f7 01       		.byte	0x1
 868 13f8 00       		.uleb128 0
 869 13f9 5F5F4445 		.ascii "__DEC64_MIN__ 1E-383DD\0"
 869      4336345F 
 869      4D494E5F 
 869      5F203145 
 869      2D333833 
 870 1410 01       		.byte	0x1
 871 1411 00       		.uleb128 0
 872 1412 5F5F4445 		.ascii "__DEC64_MAX__ 9.999999999999999E384DD\0"
 872      4336345F 
 872      4D41585F 
 872      5F20392E 
 872      39393939 
 873 1438 01       		.byte	0x1
 874 1439 00       		.uleb128 0
 875 143a 5F5F4445 		.ascii "__DEC64_EPSILON__ 1E-15DD\0"
 875      4336345F 
 875      45505349 
 875      4C4F4E5F 
 875      5F203145 
 876 1454 01       		.byte	0x1
 877 1455 00       		.uleb128 0
 878 1456 5F5F4445 		.ascii "__DEC64_SUBNORMAL_MIN__ 0.000000000000001E-383DD\0"
 878      4336345F 
 878      5355424E 
GAS LISTING C:\Users\PRESID~1\AppData\Local\Temp\ccznJJdR.s 			page 30


 878      4F524D41 
 878      4C5F4D49 
 879 1487 01       		.byte	0x1
 880 1488 00       		.uleb128 0
 881 1489 5F5F4445 		.ascii "__DEC128_MANT_DIG__ 34\0"
 881      43313238 
 881      5F4D414E 
 881      545F4449 
 881      475F5F20 
 882 14a0 01       		.byte	0x1
 883 14a1 00       		.uleb128 0
 884 14a2 5F5F4445 		.ascii "__DEC128_MIN_EXP__ (-6142)\0"
 884      43313238 
 884      5F4D494E 
 884      5F455850 
 884      5F5F2028 
 885 14bd 01       		.byte	0x1
 886 14be 00       		.uleb128 0
 887 14bf 5F5F4445 		.ascii "__DEC128_MAX_EXP__ 6145\0"
 887      43313238 
 887      5F4D4158 
 887      5F455850 
 887      5F5F2036 
 888 14d7 01       		.byte	0x1
 889 14d8 00       		.uleb128 0
 890 14d9 5F5F4445 		.ascii "__DEC128_MIN__ 1E-6143DL\0"
 890      43313238 
 890      5F4D494E 
 890      5F5F2031 
 890      452D3631 
 891 14f2 01       		.byte	0x1
 892 14f3 00       		.uleb128 0
 893 14f4 5F5F4445 		.ascii "__DEC128_MAX__ 9.999999999999999999999999999999999E6144DL\0"
 893      43313238 
 893      5F4D4158 
 893      5F5F2039 
 893      2E393939 
 894 152e 01       		.byte	0x1
 895 152f 00       		.uleb128 0
 896 1530 5F5F4445 		.ascii "__DEC128_EPSILON__ 1E-33DL\0"
 896      43313238 
 896      5F455053 
 896      494C4F4E 
 896      5F5F2031 
 897 154b 01       		.byte	0x1
 898 154c 00       		.uleb128 0
 899 154d 5F5F4445 		.ascii "__DEC128_SUBNORMAL_MIN__ 0.000000000000000000000000000000001E-6143DL\0"
 899      43313238 
 899      5F535542 
 899      4E4F524D 
 899      414C5F4D 
 900 1592 01       		.byte	0x1
 901 1593 00       		.uleb128 0
 902 1594 5F5F5245 		.ascii "__REGISTER_PREFIX__ \0"
 902      47495354 
 902      45525F50 
 902      52454649 
GAS LISTING C:\Users\PRESID~1\AppData\Local\Temp\ccznJJdR.s 			page 31


 902      585F5F20 
 903 15a9 01       		.byte	0x1
 904 15aa 00       		.uleb128 0
 905 15ab 5F5F5553 		.ascii "__USER_LABEL_PREFIX__ _\0"
 905      45525F4C 
 905      4142454C 
 905      5F505245 
 905      4649585F 
 906 15c3 01       		.byte	0x1
 907 15c4 00       		.uleb128 0
 908 15c5 5F5F474E 		.ascii "__GNUC_GNU_INLINE__ 1\0"
 908      55435F47 
 908      4E555F49 
 908      4E4C494E 
 908      455F5F20 
 909 15db 01       		.byte	0x1
 910 15dc 00       		.uleb128 0
 911 15dd 5F5F4E4F 		.ascii "__NO_INLINE__ 1\0"
 911      5F494E4C 
 911      494E455F 
 911      5F203100 
 912 15ed 01       		.byte	0x1
 913 15ee 00       		.uleb128 0
 914 15ef 5F5F5354 		.ascii "__STRICT_ANSI__ 1\0"
 914      52494354 
 914      5F414E53 
 914      495F5F20 
 914      3100
 915 1601 01       		.byte	0x1
 916 1602 00       		.uleb128 0
 917 1603 5F5F4743 		.ascii "__GCC_ATOMIC_BOOL_LOCK_FREE 1\0"
 917      435F4154 
 917      4F4D4943 
 917      5F424F4F 
 917      4C5F4C4F 
 918 1621 01       		.byte	0x1
 919 1622 00       		.uleb128 0
 920 1623 5F5F4743 		.ascii "__GCC_ATOMIC_CHAR_LOCK_FREE 1\0"
 920      435F4154 
 920      4F4D4943 
 920      5F434841 
 920      525F4C4F 
 921 1641 01       		.byte	0x1
 922 1642 00       		.uleb128 0
 923 1643 5F5F4743 		.ascii "__GCC_ATOMIC_CHAR16_T_LOCK_FREE 1\0"
 923      435F4154 
 923      4F4D4943 
 923      5F434841 
 923      5231365F 
 924 1665 01       		.byte	0x1
 925 1666 00       		.uleb128 0
 926 1667 5F5F4743 		.ascii "__GCC_ATOMIC_CHAR32_T_LOCK_FREE 1\0"
 926      435F4154 
 926      4F4D4943 
 926      5F434841 
 926      5233325F 
 927 1689 01       		.byte	0x1
GAS LISTING C:\Users\PRESID~1\AppData\Local\Temp\ccznJJdR.s 			page 32


 928 168a 00       		.uleb128 0
 929 168b 5F5F4743 		.ascii "__GCC_ATOMIC_WCHAR_T_LOCK_FREE 1\0"
 929      435F4154 
 929      4F4D4943 
 929      5F574348 
 929      41525F54 
 930 16ac 01       		.byte	0x1
 931 16ad 00       		.uleb128 0
 932 16ae 5F5F4743 		.ascii "__GCC_ATOMIC_SHORT_LOCK_FREE 1\0"
 932      435F4154 
 932      4F4D4943 
 932      5F53484F 
 932      52545F4C 
 933 16cd 01       		.byte	0x1
 934 16ce 00       		.uleb128 0
 935 16cf 5F5F4743 		.ascii "__GCC_ATOMIC_INT_LOCK_FREE 1\0"
 935      435F4154 
 935      4F4D4943 
 935      5F494E54 
 935      5F4C4F43 
 936 16ec 01       		.byte	0x1
 937 16ed 00       		.uleb128 0
 938 16ee 5F5F4743 		.ascii "__GCC_ATOMIC_LONG_LOCK_FREE 1\0"
 938      435F4154 
 938      4F4D4943 
 938      5F4C4F4E 
 938      475F4C4F 
 939 170c 01       		.byte	0x1
 940 170d 00       		.uleb128 0
 941 170e 5F5F4743 		.ascii "__GCC_ATOMIC_LLONG_LOCK_FREE 1\0"
 941      435F4154 
 941      4F4D4943 
 941      5F4C4C4F 
 941      4E475F4C 
 942 172d 01       		.byte	0x1
 943 172e 00       		.uleb128 0
 944 172f 5F5F4743 		.ascii "__GCC_ATOMIC_TEST_AND_SET_TRUEVAL 1\0"
 944      435F4154 
 944      4F4D4943 
 944      5F544553 
 944      545F414E 
 945 1753 01       		.byte	0x1
 946 1754 00       		.uleb128 0
 947 1755 5F5F4743 		.ascii "__GCC_ATOMIC_POINTER_LOCK_FREE 1\0"
 947      435F4154 
 947      4F4D4943 
 947      5F504F49 
 947      4E544552 
 948 1776 01       		.byte	0x1
 949 1777 00       		.uleb128 0
 950 1778 5F5F4743 		.ascii "__GCC_HAVE_DWARF2_CFI_ASM 1\0"
 950      435F4841 
 950      56455F44 
 950      57415246 
 950      325F4346 
 951 1794 01       		.byte	0x1
 952 1795 00       		.uleb128 0
GAS LISTING C:\Users\PRESID~1\AppData\Local\Temp\ccznJJdR.s 			page 33


 953 1796 5F5F5052 		.ascii "__PRAGMA_REDEFINE_EXTNAME 1\0"
 953      41474D41 
 953      5F524544 
 953      4546494E 
 953      455F4558 
 954 17b2 01       		.byte	0x1
 955 17b3 00       		.uleb128 0
 956 17b4 5F5F5349 		.ascii "__SIZEOF_WCHAR_T__ 2\0"
 956      5A454F46 
 956      5F574348 
 956      41525F54 
 956      5F5F2032 
 957 17c9 01       		.byte	0x1
 958 17ca 00       		.uleb128 0
 959 17cb 5F5F5349 		.ascii "__SIZEOF_WINT_T__ 2\0"
 959      5A454F46 
 959      5F57494E 
 959      545F545F 
 959      5F203200 
 960 17df 01       		.byte	0x1
 961 17e0 00       		.uleb128 0
 962 17e1 5F5F5349 		.ascii "__SIZEOF_PTRDIFF_T__ 4\0"
 962      5A454F46 
 962      5F505452 
 962      44494646 
 962      5F545F5F 
 963 17f8 01       		.byte	0x1
 964 17f9 00       		.uleb128 0
 965 17fa 5F5F6933 		.ascii "__i386 1\0"
 965      38362031 
 965      00
 966 1803 01       		.byte	0x1
 967 1804 00       		.uleb128 0
 968 1805 5F5F6933 		.ascii "__i386__ 1\0"
 968      38365F5F 
 968      203100
 969 1810 01       		.byte	0x1
 970 1811 00       		.uleb128 0
 971 1812 5F5F4154 		.ascii "__ATOMIC_HLE_ACQUIRE 65536\0"
 971      4F4D4943 
 971      5F484C45 
 971      5F414351 
 971      55495245 
 972 182d 01       		.byte	0x1
 973 182e 00       		.uleb128 0
 974 182f 5F5F4154 		.ascii "__ATOMIC_HLE_RELEASE 131072\0"
 974      4F4D4943 
 974      5F484C45 
 974      5F52454C 
 974      45415345 
 975 184b 01       		.byte	0x1
 976 184c 00       		.uleb128 0
 977 184d 5F5F7475 		.ascii "__tune_i386__ 1\0"
 977      6E655F69 
 977      3338365F 
 977      5F203100 
 978 185d 01       		.byte	0x1
GAS LISTING C:\Users\PRESID~1\AppData\Local\Temp\ccznJJdR.s 			page 34


 979 185e 00       		.uleb128 0
 980 185f 5F5F636F 		.ascii "__code_model_32__ 1\0"
 980      64655F6D 
 980      6F64656C 
 980      5F33325F 
 980      5F203100 
 981 1873 01       		.byte	0x1
 982 1874 00       		.uleb128 0
 983 1875 5F583836 		.ascii "_X86_ 1\0"
 983      5F203100 
 984 187d 01       		.byte	0x1
 985 187e 00       		.uleb128 0
 986 187f 5F5F7374 		.ascii "__stdcall __attribute__((__stdcall__))\0"
 986      6463616C 
 986      6C205F5F 
 986      61747472 
 986      69627574 
 987 18a6 01       		.byte	0x1
 988 18a7 00       		.uleb128 0
 989 18a8 5F5F6661 		.ascii "__fastcall __attribute__((__fastcall__))\0"
 989      73746361 
 989      6C6C205F 
 989      5F617474 
 989      72696275 
 990 18d1 01       		.byte	0x1
 991 18d2 00       		.uleb128 0
 992 18d3 5F5F7468 		.ascii "__thiscall __attribute__((__thiscall__))\0"
 992      69736361 
 992      6C6C205F 
 992      5F617474 
 992      72696275 
 993 18fc 01       		.byte	0x1
 994 18fd 00       		.uleb128 0
 995 18fe 5F5F6364 		.ascii "__cdecl __attribute__((__cdecl__))\0"
 995      65636C20 
 995      5F5F6174 
 995      74726962 
 995      7574655F 
 996 1921 01       		.byte	0x1
 997 1922 00       		.uleb128 0
 998 1923 5F5F4758 		.ascii "__GXX_MERGED_TYPEINFO_NAMES 0\0"
 998      585F4D45 
 998      52474544 
 998      5F545950 
 998      45494E46 
 999 1941 01       		.byte	0x1
 1000 1942 00       		.uleb128 0
 1001 1943 5F5F4758 		.ascii "__GXX_TYPEINFO_EQUALITY_INLINE 0\0"
 1001      585F5459 
 1001      5045494E 
 1001      464F5F45 
 1001      5155414C 
 1002 1964 01       		.byte	0x1
 1003 1965 00       		.uleb128 0
 1004 1966 5F5F4D53 		.ascii "__MSVCRT__ 1\0"
 1004      56435254 
 1004      5F5F2031 
GAS LISTING C:\Users\PRESID~1\AppData\Local\Temp\ccznJJdR.s 			page 35


 1004      00
 1005 1973 01       		.byte	0x1
 1006 1974 00       		.uleb128 0
 1007 1975 5F5F4D49 		.ascii "__MINGW32__ 1\0"
 1007      4E475733 
 1007      325F5F20 
 1007      3100
 1008 1983 01       		.byte	0x1
 1009 1984 00       		.uleb128 0
 1010 1985 5F57494E 		.ascii "_WIN32 1\0"
 1010      33322031 
 1010      00
 1011 198e 01       		.byte	0x1
 1012 198f 00       		.uleb128 0
 1013 1990 5F5F5749 		.ascii "__WIN32 1\0"
 1013      4E333220 
 1013      3100
 1014 199a 01       		.byte	0x1
 1015 199b 00       		.uleb128 0
 1016 199c 5F5F5749 		.ascii "__WIN32__ 1\0"
 1016      4E33325F 
 1016      5F203100 
 1017 19a8 01       		.byte	0x1
 1018 19a9 00       		.uleb128 0
 1019 19aa 5F5F5749 		.ascii "__WINNT 1\0"
 1019      4E4E5420 
 1019      3100
 1020 19b4 01       		.byte	0x1
 1021 19b5 00       		.uleb128 0
 1022 19b6 5F5F5749 		.ascii "__WINNT__ 1\0"
 1022      4E4E545F 
 1022      5F203100 
 1023 19c2 01       		.byte	0x1
 1024 19c3 00       		.uleb128 0
 1025 19c4 5F494E54 		.ascii "_INTEGRAL_MAX_BITS 64\0"
 1025      45475241 
 1025      4C5F4D41 
 1025      585F4249 
 1025      54532036 
 1026 19da 01       		.byte	0x1
 1027 19db 00       		.uleb128 0
 1028 19dc 5F5F6465 		.ascii "__declspec(x) __attribute__((x))\0"
 1028      636C7370 
 1028      65632878 
 1028      29205F5F 
 1028      61747472 
 1029 19fd 01       		.byte	0x1
 1030 19fe 00       		.uleb128 0
 1031 19ff 5F5F4445 		.ascii "__DECIMAL_BID_FORMAT__ 1\0"
 1031      43494D41 
 1031      4C5F4249 
 1031      445F464F 
 1031      524D4154 
 1032 1a18 01       		.byte	0x1
 1033 1a19 00       		.uleb128 0
 1034 1a1a 4346475F 		.ascii "CFG_PROCESSOR 3\0"
 1034      50524F43 
GAS LISTING C:\Users\PRESID~1\AppData\Local\Temp\ccznJJdR.s 			page 36


 1034      4553534F 
 1034      52203300 
 1035 1a2a 03       		.byte	0x3
 1036 1a2b 00       		.uleb128 0
 1037 1a2c 01       		.uleb128 0x1
 1038              		.file 4 "E:/NeuOrga/Programmieren/c_cpp/github_os/input/src/os_base/os_firstinc.h"
 1039 1a2d 03       		.byte	0x3
 1040 1a2e 01       		.uleb128 0x1
 1041 1a2f 04       		.uleb128 0x4
 1042 1a30 01       		.byte	0x1
 1043 1a31 02       		.uleb128 0x2
 1044 1a32 5F6F735F 		.ascii "_os_firstinc_h_ \0"
 1044      66697273 
 1044      74696E63 
 1044      5F685F20 
 1044      00
 1045 1a43 03       		.byte	0x3
 1046 1a44 04       		.uleb128 0x4
 1047 1a45 02       		.uleb128 0x2
 1048 1a46 01       		.byte	0x1
 1049 1a47 02       		.uleb128 0x2
 1050 1a48 5F424153 		.ascii "_BASE_TYPES_H_ \0"
 1050      455F5459 
 1050      5045535F 
 1050      485F2000 
 1051 1a58 01       		.byte	0x1
 1052 1a59 04       		.uleb128 0x4
 1053 1a5a 494E5445 		.ascii "INTEGER_LLP64_IL32P64 1\0"
 1053      4745525F 
 1053      4C4C5036 
 1053      345F494C 
 1053      33325036 
 1054 1a72 01       		.byte	0x1
 1055 1a73 05       		.uleb128 0x5
 1056 1a74 494E5445 		.ascii "INTEGER_LP64_I32LP64 2\0"
 1056      4745525F 
 1056      4C503634 
 1056      5F493332 
 1056      4C503634 
 1057 1a8b 01       		.byte	0x1
 1058 1a8c 06       		.uleb128 0x6
 1059 1a8d 494E5445 		.ascii "INTEGER_ILP64 3\0"
 1059      4745525F 
 1059      494C5036 
 1059      34203300 
 1060 1a9d 01       		.byte	0x1
 1061 1a9e 07       		.uleb128 0x7
 1062 1a9f 494E5445 		.ascii "INTEGER_SILP64 4\0"
 1062      4745525F 
 1062      53494C50 
 1062      36342034 
 1062      00
 1063 1ab0 01       		.byte	0x1
 1064 1ab1 09       		.uleb128 0x9
 1065 1ab2 4350505F 		.ascii "CPP_VERSION_NONE 0\0"
 1065      56455253 
 1065      494F4E5F 
GAS LISTING C:\Users\PRESID~1\AppData\Local\Temp\ccznJJdR.s 			page 37


 1065      4E4F4E45 
 1065      203000
 1066 1ac5 01       		.byte	0x1
 1067 1ac6 0A       		.uleb128 0xa
 1068 1ac7 4350505F 		.ascii "CPP_VERSION_1998 1\0"
 1068      56455253 
 1068      494F4E5F 
 1068      31393938 
 1068      203100
 1069 1ada 01       		.byte	0x1
 1070 1adb 0B       		.uleb128 0xb
 1071 1adc 4350505F 		.ascii "CPP_VERSION_2003 2\0"
 1071      56455253 
 1071      494F4E5F 
 1071      32303033 
 1071      203200
 1072 1aef 01       		.byte	0x1
 1073 1af0 0C       		.uleb128 0xc
 1074 1af1 4350505F 		.ascii "CPP_VERSION_2007 3\0"
 1074      56455253 
 1074      494F4E5F 
 1074      32303037 
 1074      203300
 1075 1b04 01       		.byte	0x1
 1076 1b05 0D       		.uleb128 0xd
 1077 1b06 4350505F 		.ascii "CPP_VERSION_2011 4\0"
 1077      56455253 
 1077      494F4E5F 
 1077      32303131 
 1077      203400
 1078 1b19 01       		.byte	0x1
 1079 1b1a 0E       		.uleb128 0xe
 1080 1b1b 49534F5F 		.ascii "ISO_CPP_VERSION CPP_VERSION_1998\0"
 1080      4350505F 
 1080      56455253 
 1080      494F4E20 
 1080      4350505F 
 1081 1b3c 01       		.byte	0x1
 1082 1b3d 10       		.uleb128 0x10
 1083 1b3e 494E5445 		.ascii "INTEGER_MODEL INTEGER_LLP64_IL32P64\0"
 1083      4745525F 
 1083      4D4F4445 
 1083      4C20494E 
 1083      54454745 
 1084 1b62 04       		.byte	0x4
 1085 1b63 03       		.byte	0x3
 1086 1b64 05       		.uleb128 0x5
 1087 1b65 03       		.uleb128 0x3
 1088 1b66 01       		.byte	0x1
 1089 1b67 02       		.uleb128 0x2
 1090 1b68 5F6F735F 		.ascii "_os_common_h_ \0"
 1090      636F6D6D 
 1090      6F6E5F68 
 1090      5F2000
 1091 1b77 01       		.byte	0x1
 1092 1b78 06       		.uleb128 0x6
 1093 1b79 46616C73 		.ascii "False 0\0"
GAS LISTING C:\Users\PRESID~1\AppData\Local\Temp\ccznJJdR.s 			page 38


 1093      65203000 
 1094 1b81 01       		.byte	0x1
 1095 1b82 07       		.uleb128 0x7
 1096 1b83 54727565 		.ascii "True 1\0"
 1096      203100
 1097 1b8a 01       		.byte	0x1
 1098 1b8b 08       		.uleb128 0x8
 1099 1b8c 46414C53 		.ascii "FALSE False\0"
 1099      45204661 
 1099      6C736500 
 1100 1b98 01       		.byte	0x1
 1101 1b99 09       		.uleb128 0x9
 1102 1b9a 54525545 		.ascii "TRUE True\0"
 1102      20547275 
 1102      6500
 1103 1ba4 01       		.byte	0x1
 1104 1ba5 0A       		.uleb128 0xa
 1105 1ba6 41636365 		.ascii "Accepted 1\0"
 1105      70746564 
 1105      203100
 1106 1bb1 01       		.byte	0x1
 1107 1bb2 0B       		.uleb128 0xb
 1108 1bb3 52656A65 		.ascii "Rejected 0\0"
 1108      63746564 
 1108      203000
 1109 1bbe 01       		.byte	0x1
 1110 1bbf 0C       		.uleb128 0xc
 1111 1bc0 4C6F6361 		.ascii "Local static\0"
 1111      6C207374 
 1111      61746963 
 1111      00
 1112 1bcd 01       		.byte	0x1
 1113 1bce 0D       		.uleb128 0xd
 1114 1bcf 4C6F6361 		.ascii "Local_inline static __inline__\0"
 1114      6C5F696E 
 1114      6C696E65 
 1114      20737461 
 1114      74696320 
 1115 1bee 01       		.byte	0x1
 1116 1bef 0E       		.uleb128 0xe
 1117 1bf0 476C6F62 		.ascii "Global_inline __inline__\0"
 1117      616C5F69 
 1117      6E6C696E 
 1117      65205F5F 
 1117      696E6C69 
 1118 1c09 01       		.byte	0x1
 1119 1c0a 0F       		.uleb128 0xf
 1120 1c0b 52656665 		.ascii "ReferenceUnusedParameter(x) ((x) = (x))\0"
 1120      72656E63 
 1120      65556E75 
 1120      73656450 
 1120      6172616D 
 1121 1c33 01       		.byte	0x1
 1122 1c34 12       		.uleb128 0x12
 1123 1c35 634D4355 		.ascii "cMCU_X86 3\0"
 1123      5F583836 
 1123      203300
GAS LISTING C:\Users\PRESID~1\AppData\Local\Temp\ccznJJdR.s 			page 39


 1124 1c40 01       		.byte	0x1
 1125 1c41 13       		.uleb128 0x13
 1126 1c42 634D4355 		.ascii "cMCU_CORTEX_M4 4\0"
 1126      5F434F52 
 1126      5445585F 
 1126      4D342034 
 1126      00
 1127 1c53 01       		.byte	0x1
 1128 1c54 16       		.uleb128 0x16
 1129 1c55 4E525F4F 		.ascii "NR_OF_CORES 1\0"
 1129      465F434F 
 1129      52455320 
 1129      3100
 1130 1c63 01       		.byte	0x1
 1131 1c64 18       		.uleb128 0x18
 1132 1c65 4D43555F 		.ascii "MCU_CLOCK_IN_HZ ((uint32)168000000u)\0"
 1132      434C4F43 
 1132      4B5F494E 
 1132      5F485A20 
 1132      28287569 
 1133 1c8a 01       		.byte	0x1
 1134 1c8b 1C       		.uleb128 0x1c
 1135 1c8c 44697361 		.ascii "DisableInterrupts() \0"
 1135      626C6549 
 1135      6E746572 
 1135      72757074 
 1135      73282920 
 1136 1ca1 01       		.byte	0x1
 1137 1ca2 1D       		.uleb128 0x1d
 1138 1ca3 456E6162 		.ascii "EnableInterrupts() \0"
 1138      6C65496E 
 1138      74657272 
 1138      75707473 
 1138      28292000 
 1139 1cb7 01       		.byte	0x1
 1140 1cb8 1E       		.uleb128 0x1e
 1141 1cb9 50726976 		.ascii "Privilige_level_save_current() \0"
 1141      696C6967 
 1141      655F6C65 
 1141      76656C5F 
 1141      73617665 
 1142 1cd9 01       		.byte	0x1
 1143 1cda 1F       		.uleb128 0x1f
 1144 1cdb 50726976 		.ascii "Privilige_level_enter_kernel_mode() \0"
 1144      696C6967 
 1144      655F6C65 
 1144      76656C5F 
 1144      656E7465 
 1145 1d00 01       		.byte	0x1
 1146 1d01 20       		.uleb128 0x20
 1147 1d02 50726976 		.ascii "Privilige_level_restore_saved() \0"
 1147      696C6967 
 1147      655F6C65 
 1147      76656C5F 
 1147      72657374 
 1148 1d23 01       		.byte	0x1
 1149 1d24 21       		.uleb128 0x21
GAS LISTING C:\Users\PRESID~1\AppData\Local\Temp\ccznJJdR.s 			page 40


 1150 1d25 48616C74 		.ascii "HaltMcu() \0"
 1150      4D637528 
 1150      292000
 1151 1d30 04       		.byte	0x4
 1152              		.file 5 "E:/NeuOrga/Programmieren/c_cpp/github_os/input/src/os_base/../os_base/os_ram.h"
 1153 1d31 03       		.byte	0x3
 1154 1d32 07       		.uleb128 0x7
 1155 1d33 05       		.uleb128 0x5
 1156 1d34 01       		.byte	0x1
 1157 1d35 02       		.uleb128 0x2
 1158 1d36 5F4F535F 		.ascii "_OS_RAM_H_ \0"
 1158      52414D5F 
 1158      485F2000 
 1159              		.file 6 "E:/NeuOrga/Programmieren/c_cpp/github_os/input/src/os_base/../os_base/os_firstinc.h"
 1160 1d42 03       		.byte	0x3
 1161 1d43 04       		.uleb128 0x4
 1162 1d44 06       		.uleb128 0x6
 1163 1d45 04       		.byte	0x4
 1164              		.file 7 "E:/NeuOrga/Programmieren/c_cpp/github_os/input/src/os_base/../os_base/os_stack.h"
 1165 1d46 03       		.byte	0x3
 1166 1d47 05       		.uleb128 0x5
 1167 1d48 07       		.uleb128 0x7
 1168 1d49 01       		.byte	0x1
 1169 1d4a 02       		.uleb128 0x2
 1170 1d4b 5F6F735F 		.ascii "_os_stack_h_ \0"
 1170      73746163 
 1170      6B5F685F 
 1170      2000
 1171 1d59 01       		.byte	0x1
 1172 1d5a 04       		.uleb128 0x4
 1173 1d5b 4F535F53 		.ascii "OS_STACK_SIZE 0x100\0"
 1173      5441434B 
 1173      5F53495A 
 1173      45203078 
 1173      31303000 
 1174 1d6f 01       		.byte	0x1
 1175 1d70 06       		.uleb128 0x6
 1176 1d71 4F535F53 		.ascii "OS_STACK_SIZE_END 0x01u\0"
 1176      5441434B 
 1176      5F53495A 
 1176      455F454E 
 1176      44203078 
 1177 1d89 04       		.byte	0x4
 1178              		.file 8 "E:/NeuOrga/Programmieren/c_cpp/github_os/input/src/os_base/../os_base/os_heap.h"
 1179 1d8a 03       		.byte	0x3
 1180 1d8b 06       		.uleb128 0x6
 1181 1d8c 08       		.uleb128 0x8
 1182 1d8d 01       		.byte	0x1
 1183 1d8e 02       		.uleb128 0x2
 1184 1d8f 5F6F735F 		.ascii "_os_heap_h_ \0"
 1184      68656170 
 1184      5F685F20 
 1184      00
 1185 1d9c 01       		.byte	0x1
 1186 1d9d 05       		.uleb128 0x5
 1187 1d9e 48454150 		.ascii "HEAP_SIZE 10000\0"
 1187      5F53495A 
GAS LISTING C:\Users\PRESID~1\AppData\Local\Temp\ccznJJdR.s 			page 41


 1187      45203130 
 1187      30303000 
 1188 1dae 01       		.byte	0x1
 1189 1daf 06       		.uleb128 0x6
 1190 1db0 4D494E5F 		.ascii "MIN_BLOCK_SIZE_HEAP 8\0"
 1190      424C4F43 
 1190      4B5F5349 
 1190      5A455F48 
 1190      45415020 
 1191 1dc6 01       		.byte	0x1
 1192 1dc7 09       		.uleb128 0x9
 1193 1dc8 48454150 		.ascii "HEAP_OFFSET_FOR_SIZE 0\0"
 1193      5F4F4646 
 1193      5345545F 
 1193      464F525F 
 1193      53495A45 
 1194 1ddf 01       		.byte	0x1
 1195 1de0 0A       		.uleb128 0xa
 1196 1de1 48454150 		.ascii "HEAP_OFFSET_FOR_USED_SIZE 4\0"
 1196      5F4F4646 
 1196      5345545F 
 1196      464F525F 
 1196      55534544 
 1197 1dfd 01       		.byte	0x1
 1198 1dfe 0B       		.uleb128 0xb
 1199 1dff 48454150 		.ascii "HEAP_OFFSET_FOR_CHUNK 8\0"
 1199      5F4F4646 
 1199      5345545F 
 1199      464F525F 
 1199      4348554E 
 1200 1e17 04       		.byte	0x4
 1201              		.file 9 "E:/NeuOrga/Programmieren/c_cpp/github_os/input/src/os_base/../os_base/os_main.h"
 1202 1e18 03       		.byte	0x3
 1203 1e19 07       		.uleb128 0x7
 1204 1e1a 09       		.uleb128 0x9
 1205 1e1b 01       		.byte	0x1
 1206 1e1c 02       		.uleb128 0x2
 1207 1e1d 5F6F735F 		.ascii "_os_main_h_ \0"
 1207      6D61696E 
 1207      5F685F20 
 1207      00
 1208 1e2a 01       		.byte	0x1
 1209 1e2b 03       		.uleb128 0x3
 1210 1e2c 6F735F69 		.ascii "os_init 0\0"
 1210      6E697420 
 1210      3000
 1211 1e36 01       		.byte	0x1
 1212 1e37 04       		.uleb128 0x4
 1213 1e38 6F735F72 		.ascii "os_running 1\0"
 1213      756E6E69 
 1213      6E672031 
 1213      00
 1214 1e45 01       		.byte	0x1
 1215 1e46 05       		.uleb128 0x5
 1216 1e47 6F735F73 		.ascii "os_shutdown 2\0"
 1216      68757464 
 1216      6F776E20 
GAS LISTING C:\Users\PRESID~1\AppData\Local\Temp\ccznJJdR.s 			page 42


 1216      3200
 1217 1e55 04       		.byte	0x4
 1218 1e56 04       		.byte	0x4
 1219              		.file 10 "E:/NeuOrga/Programmieren/c_cpp/github_os/input/src/os_base/../os_sim/lld_global.h"
 1220 1e57 03       		.byte	0x3
 1221 1e58 0A       		.uleb128 0xa
 1222 1e59 0A       		.uleb128 0xa
 1223 1e5a 01       		.byte	0x1
 1224 1e5b 02       		.uleb128 0x2
 1225 1e5c 5F6C6C64 		.ascii "_lld_global_h_ \0"
 1225      5F676C6F 
 1225      62616C5F 
 1225      685F2000 
 1226              		.file 11 "E:/NeuOrga/Programmieren/c_cpp/github_os/input/src/os_base/../os_sim/lld_core.h"
 1227 1e6c 03       		.byte	0x3
 1228 1e6d 04       		.uleb128 0x4
 1229 1e6e 0B       		.uleb128 0xb
 1230 1e6f 01       		.byte	0x1
 1231 1e70 02       		.uleb128 0x2
 1232 1e71 5F6C6C64 		.ascii "_lld_core_h_ \0"
 1232      5F636F72 
 1232      655F685F 
 1232      2000
 1233              		.file 12 "E:/NeuOrga/Programmieren/c_cpp/github_os/input/src/os_base/../os_sim/../os_base/os_first
 1234 1e7f 03       		.byte	0x3
 1235 1e80 03       		.uleb128 0x3
 1236 1e81 0C       		.uleb128 0xc
 1237 1e82 04       		.byte	0x4
 1238 1e83 04       		.byte	0x4
 1239              		.file 13 "E:/NeuOrga/Programmieren/c_cpp/github_os/input/src/os_base/../os_sim/lld_interrupt.h"
 1240 1e84 03       		.byte	0x3
 1241 1e85 05       		.uleb128 0x5
 1242 1e86 0D       		.uleb128 0xd
 1243 1e87 01       		.byte	0x1
 1244 1e88 02       		.uleb128 0x2
 1245 1e89 5F6C6C64 		.ascii "_lld_interrupt_h_ \0"
 1245      5F696E74 
 1245      65727275 
 1245      70745F68 
 1245      5F2000
 1246 1e9c 01       		.byte	0x1
 1247 1e9d 05       		.uleb128 0x5
 1248 1e9e 6F735F69 		.ascii "os_interrupt_swi_1 asm(\"swi 1\")\0"
 1248      6E746572 
 1248      72757074 
 1248      5F737769 
 1248      5F312061 
 1249 1ebe 01       		.byte	0x1
 1250 1ebf 06       		.uleb128 0x6
 1251 1ec0 6F735F69 		.ascii "os_interrupt_swi_2 asm(\"swi 2\")\0"
 1251      6E746572 
 1251      72757074 
 1251      5F737769 
 1251      5F322061 
 1252 1ee0 01       		.byte	0x1
 1253 1ee1 07       		.uleb128 0x7
 1254 1ee2 6F735F69 		.ascii "os_interrupt_swi_3 asm(\"swi 3\")\0"
GAS LISTING C:\Users\PRESID~1\AppData\Local\Temp\ccznJJdR.s 			page 43


 1254      6E746572 
 1254      72757074 
 1254      5F737769 
 1254      5F332061 
 1255 1f02 01       		.byte	0x1
 1256 1f03 08       		.uleb128 0x8
 1257 1f04 6F735F69 		.ascii "os_interrupt_swi_4 asm(\"swi 4\")\0"
 1257      6E746572 
 1257      72757074 
 1257      5F737769 
 1257      5F342061 
 1258 1f24 01       		.byte	0x1
 1259 1f25 09       		.uleb128 0x9
 1260 1f26 6F735F69 		.ascii "os_interrupt_swi_5 asm(\"swi 5\")\0"
 1260      6E746572 
 1260      72757074 
 1260      5F737769 
 1260      5F352061 
 1261 1f46 04       		.byte	0x4
 1262              		.file 14 "E:/NeuOrga/Programmieren/c_cpp/github_os/input/src/os_base/../os_sim/lld_mmu.h"
 1263 1f47 03       		.byte	0x3
 1264 1f48 06       		.uleb128 0x6
 1265 1f49 0E       		.uleb128 0xe
 1266 1f4a 01       		.byte	0x1
 1267 1f4b 02       		.uleb128 0x2
 1268 1f4c 5F6C6C64 		.ascii "_lld_mmu_h_ \0"
 1268      5F6D6D75 
 1268      5F685F20 
 1268      00
 1269 1f59 04       		.byte	0x4
 1270              		.file 15 "E:/NeuOrga/Programmieren/c_cpp/github_os/input/src/os_base/../os_sim/lld_timer.h"
 1271 1f5a 03       		.byte	0x3
 1272 1f5b 07       		.uleb128 0x7
 1273 1f5c 0F       		.uleb128 0xf
 1274 1f5d 01       		.byte	0x1
 1275 1f5e 02       		.uleb128 0x2
 1276 1f5f 5F6C6C64 		.ascii "_lld_timer_h_ \0"
 1276      5F74696D 
 1276      65725F68 
 1276      5F2000
 1277 1f6e 04       		.byte	0x4
 1278              		.file 16 "E:/NeuOrga/Programmieren/c_cpp/github_os/input/src/os_base/../os_sim/lld_power.h"
 1279 1f6f 03       		.byte	0x3
 1280 1f70 08       		.uleb128 0x8
 1281 1f71 10       		.uleb128 0x10
 1282 1f72 01       		.byte	0x1
 1283 1f73 02       		.uleb128 0x2
 1284 1f74 5F6C6C64 		.ascii "_lld_power_h_ \0"
 1284      5F706F77 
 1284      65725F68 
 1284      5F2000
 1285 1f83 04       		.byte	0x4
 1286              		.file 17 "E:/NeuOrga/Programmieren/c_cpp/github_os/input/src/os_base/../os_sim/lld_ram.h"
 1287 1f84 03       		.byte	0x3
 1288 1f85 09       		.uleb128 0x9
 1289 1f86 11       		.uleb128 0x11
 1290 1f87 01       		.byte	0x1
GAS LISTING C:\Users\PRESID~1\AppData\Local\Temp\ccznJJdR.s 			page 44


 1291 1f88 02       		.uleb128 0x2
 1292 1f89 5F6C6C64 		.ascii "_lld_ram_h_ \0"
 1292      5F72616D 
 1292      5F685F20 
 1292      00
 1293 1f96 04       		.byte	0x4
 1294              		.file 18 "E:/NeuOrga/Programmieren/c_cpp/github_os/input/src/os_base/../os_sim/../os_base/os_task_
 1295 1f97 03       		.byte	0x3
 1296 1f98 0A       		.uleb128 0xa
 1297 1f99 12       		.uleb128 0x12
 1298 1f9a 01       		.byte	0x1
 1299 1f9b 02       		.uleb128 0x2
 1300 1f9c 5F6F735F 		.ascii "_os_task_common_h_ \0"
 1300      7461736B 
 1300      5F636F6D 
 1300      6D6F6E5F 
 1300      685F2000 
 1301 1fb0 03       		.byte	0x3
 1302 1fb1 03       		.uleb128 0x3
 1303 1fb2 0C       		.uleb128 0xc
 1304 1fb3 04       		.byte	0x4
 1305              		.file 19 "E:/NeuOrga/Programmieren/c_cpp/github_os/input/src/os_base/../os_sim/../os_base/os_task_
 1306 1fb4 03       		.byte	0x3
 1307 1fb5 04       		.uleb128 0x4
 1308 1fb6 13       		.uleb128 0x13
 1309 1fb7 01       		.byte	0x1
 1310 1fb8 02       		.uleb128 0x2
 1311 1fb9 5F6F735F 		.ascii "_os_task_config_h_ \0"
 1311      7461736B 
 1311      5F636F6E 
 1311      6669675F 
 1311      685F2000 
 1312 1fcd 01       		.byte	0x1
 1313 1fce 05       		.uleb128 0x5
 1314 1fcf 53636865 		.ascii "SchedulerFrequency (1.0e3)\0"
 1314      64756C65 
 1314      72467265 
 1314      7175656E 
 1314      63792028 
 1315 1fea 01       		.byte	0x1
 1316 1feb 06       		.uleb128 0x6
 1317 1fec 4D696E54 		.ascii "MinTimeSlice_s (1.0/SchedulerFrequency)\0"
 1317      696D6553 
 1317      6C696365 
 1317      5F732028 
 1317      312E302F 
 1318 2014 01       		.byte	0x1
 1319 2015 07       		.uleb128 0x7
 1320 2016 4D696E54 		.ascii "MinTimeSlice_us ((1.0/SchedulerFrequency)*1e6)\0"
 1320      696D6553 
 1320      6C696365 
 1320      5F757320 
 1320      2828312E 
 1321 2045 01       		.byte	0x1
 1322 2046 08       		.uleb128 0x8
 1323 2047 5461736B 		.ascii "Task_min_time (1e0)\0"
 1323      5F6D696E 
GAS LISTING C:\Users\PRESID~1\AppData\Local\Temp\ccznJJdR.s 			page 45


 1323      5F74696D 
 1323      65202831 
 1323      65302900 
 1324 205b 01       		.byte	0x1
 1325 205c 09       		.uleb128 0x9
 1326 205d 4E554D42 		.ascii "NUMBER_OF_TASKS 5\0"
 1326      45525F4F 
 1326      465F5441 
 1326      534B5320 
 1326      3500
 1327 206f 01       		.byte	0x1
 1328 2070 0A       		.uleb128 0xa
 1329 2071 4D41585F 		.ascii "MAX_RUN_QUEUE_SIZE (NUMBER_OF_TASKS)\0"
 1329      52554E5F 
 1329      51554555 
 1329      455F5349 
 1329      5A452028 
 1330 2096 01       		.byte	0x1
 1331 2097 0B       		.uleb128 0xb
 1332 2098 4D41585F 		.ascii "MAX_RUN_PQUEUE_SIZE MAX_RUN_QUEUE_SIZE\0"
 1332      52554E5F 
 1332      50515545 
 1332      55455F53 
 1332      495A4520 
 1333 20bf 01       		.byte	0x1
 1334 20c0 0D       		.uleb128 0xd
 1335 20c1 5441534B 		.ascii "TASK_STACK_SIZE 200\0"
 1335      5F535441 
 1335      434B5F53 
 1335      495A4520 
 1335      32303000 
 1336 20d5 01       		.byte	0x1
 1337 20d6 10       		.uleb128 0x10
 1338 20d7 4D535F50 		.ascii "MS_PER_SEC (1000)\0"
 1338      45525F53 
 1338      45432028 
 1338      31303030 
 1338      2900
 1339 20e9 01       		.byte	0x1
 1340 20ea 11       		.uleb128 0x11
 1341 20eb 5553455F 		.ascii "USE_STATIC_CREATED_TASKS True\0"
 1341      53544154 
 1341      49435F43 
 1341      52454154 
 1341      45445F54 
 1342 2109 04       		.byte	0x4
 1343              		.file 20 "E:/NeuOrga/Programmieren/c_cpp/github_os/input/src/os_base/../os_sim/../os_base/os_init_
 1344 210a 03       		.byte	0x3
 1345 210b 05       		.uleb128 0x5
 1346 210c 14       		.uleb128 0x14
 1347 210d 01       		.byte	0x1
 1348 210e 02       		.uleb128 0x2
 1349 210f 5F6F735F 		.ascii "_os_init_task_system_h_ \0"
 1349      696E6974 
 1349      5F746173 
 1349      6B5F7379 
 1349      7374656D 
GAS LISTING C:\Users\PRESID~1\AppData\Local\Temp\ccznJJdR.s 			page 46


 1350 2128 04       		.byte	0x4
 1351 2129 01       		.byte	0x1
 1352 212a 5D       		.uleb128 0x5d
 1353 212b 6F735F53 		.ascii "os_SaveTaskPtr(task_ptr,task_name) (TASK_PTR[(task_name)] = (task_ptr))\0"
 1353      61766554 
 1353      61736B50 
 1353      74722874 
 1353      61736B5F 
 1354 2173 01       		.byte	0x1
 1355 2174 5E       		.uleb128 0x5e
 1356 2175 6F735F47 		.ascii "os_GetTaskPtr(task_name) ((task_t*) TASK_PTR[(task_name)])\0"
 1356      65745461 
 1356      736B5074 
 1356      72287461 
 1356      736B5F6E 
 1357 21b0 04       		.byte	0x4
 1358 21b1 04       		.byte	0x4
 1359              		.file 21 "E:/NeuOrga/Programmieren/c_cpp/github_os/input/src/os_base/../os_user_code/led.h"
 1360 21b2 03       		.byte	0x3
 1361 21b3 0E       		.uleb128 0xe
 1362 21b4 15       		.uleb128 0x15
 1363 21b5 01       		.byte	0x1
 1364 21b6 02       		.uleb128 0x2
 1365 21b7 5F4C4544 		.ascii "_LED_H_ \0"
 1365      5F485F20 
 1365      00
 1366 21c0 04       		.byte	0x4
 1367 21c1 04       		.byte	0x4
 1368 21c2 04       		.byte	0x4
 1369 21c3 00       		.byte	0
 1370              		.section	.debug_line,"dr"
 1371              	Ldebug_line0:
 1372 0000 E7020000 		.section	.debug_str,"dr"
 1372      0200C602 
 1372      00000101 
 1372      FB0E0D00 
 1372      01010101 
 1373              	LASF0:
 1374 0000 4C6F6164 		.ascii "LoadProgAddr\0"
 1374      50726F67 
 1374      41646472 
 1374      00
 1375              	LASF1:
 1376 000d 50726753 		.ascii "PrgSignatur\0"
 1376      69676E61 
 1376      74757200 
 1377              		.ident	"GCC: (GNU) 4.9.3"
GAS LISTING C:\Users\PRESID~1\AppData\Local\Temp\ccznJJdR.s 			page 47


DEFINED SYMBOLS
                            *ABS*:00000000 os_start_ext_prg.c
C:\Users\PRESID~1\AppData\Local\Temp\ccznJJdR.s:5      .text:00000000 _os_signatur_valid
C:\Users\PRESID~1\AppData\Local\Temp\ccznJJdR.s:26     .text:00000007 _OS_StartExtPrg

UNDEFINED SYMBOLS
_LLF_MPU_DISABLE
_LLF_MPU_SWITCH_OFF_ALL_REGIONS
