GAS LISTING C:\Users\PRESID~1\AppData\Local\Temp\cc47URDW.s 			page 1


   1              		.file	"os_sim_main.c"
   2              		.text
   3              	Ltext0:
   5              	_printf:
   6              	LFB1:
   7              		.file 1 "c:/program/mingw/include/stdio.h"
   1:c:/program/mingw/include\stdio.h **** /*
   2:c:/program/mingw/include\stdio.h ****  * stdio.h
   3:c:/program/mingw/include\stdio.h ****  *
   4:c:/program/mingw/include\stdio.h ****  * Definitions of types and prototypes of functions for operations on
   5:c:/program/mingw/include\stdio.h ****  * standard input and standard output streams.
   6:c:/program/mingw/include\stdio.h ****  *
   7:c:/program/mingw/include\stdio.h ****  * $Id: stdio.h,v 45c964eb9184 2019/07/03 20:49:42 keith $
   8:c:/program/mingw/include\stdio.h ****  *
   9:c:/program/mingw/include\stdio.h ****  * Written by Colin Peters <colin@bird.fu.is.saga-u.ac.jp>
  10:c:/program/mingw/include\stdio.h ****  * Copyright (C) 1997-2005, 2007-2010, 2014-2019, MinGW.org Project.
  11:c:/program/mingw/include\stdio.h ****  *
  12:c:/program/mingw/include\stdio.h ****  *
  13:c:/program/mingw/include\stdio.h ****  * Permission is hereby granted, free of charge, to any person obtaining a
  14:c:/program/mingw/include\stdio.h ****  * copy of this software and associated documentation files (the "Software"),
  15:c:/program/mingw/include\stdio.h ****  * to deal in the Software without restriction, including without limitation
  16:c:/program/mingw/include\stdio.h ****  * the rights to use, copy, modify, merge, publish, distribute, sublicense,
  17:c:/program/mingw/include\stdio.h ****  * and/or sell copies of the Software, and to permit persons to whom the
  18:c:/program/mingw/include\stdio.h ****  * Software is furnished to do so, subject to the following conditions:
  19:c:/program/mingw/include\stdio.h ****  *
  20:c:/program/mingw/include\stdio.h ****  * The above copyright notice, this permission notice, and the following
  21:c:/program/mingw/include\stdio.h ****  * disclaimer shall be included in all copies or substantial portions of
  22:c:/program/mingw/include\stdio.h ****  * the Software.
  23:c:/program/mingw/include\stdio.h ****  *
  24:c:/program/mingw/include\stdio.h ****  * THE SOFTWARE IS PROVIDED "AS IS", WITHOUT WARRANTY OF ANY KIND, EXPRESS
  25:c:/program/mingw/include\stdio.h ****  * OR IMPLIED, INCLUDING BUT NOT LIMITED TO THE WARRANTIES OF MERCHANTABILITY,
  26:c:/program/mingw/include\stdio.h ****  * FITNESS FOR A PARTICULAR PURPOSE AND NONINFRINGEMENT.  IN NO EVENT SHALL
  27:c:/program/mingw/include\stdio.h ****  * THE AUTHORS OR COPYRIGHT HOLDERS BE LIABLE FOR ANY CLAIM, DAMAGES OR OTHER
  28:c:/program/mingw/include\stdio.h ****  * LIABILITY, WHETHER IN AN ACTION OF CONTRACT, TORT OR OTHERWISE, ARISING
  29:c:/program/mingw/include\stdio.h ****  * FROM, OUT OF OR IN CONNECTION WITH THE SOFTWARE OR THE USE OF OR OTHER
  30:c:/program/mingw/include\stdio.h ****  * DEALINGS IN THE SOFTWARE.
  31:c:/program/mingw/include\stdio.h ****  *
  32:c:/program/mingw/include\stdio.h ****  * NOTE: The file manipulation functions provided by Microsoft seem to
  33:c:/program/mingw/include\stdio.h ****  * work with either slash (/) or backslash (\) as the directory separator;
  34:c:/program/mingw/include\stdio.h ****  * (this is consistent with Microsoft's own documentation, on MSDN).
  35:c:/program/mingw/include\stdio.h ****  *
  36:c:/program/mingw/include\stdio.h ****  */
  37:c:/program/mingw/include\stdio.h **** #ifndef _STDIO_H
  38:c:/program/mingw/include\stdio.h **** #pragma GCC system_header
  39:c:/program/mingw/include\stdio.h **** 
  40:c:/program/mingw/include\stdio.h **** /* When including <wchar.h>, some of the definitions and declarations
  41:c:/program/mingw/include\stdio.h ****  * which are nominally provided in <stdio.h> must be duplicated.  Rather
  42:c:/program/mingw/include\stdio.h ****  * than require duplicated maintenance effort, we provide for partial
  43:c:/program/mingw/include\stdio.h ****  * inclusion of <stdio.h> by <wchar.h>; only when not included in
  44:c:/program/mingw/include\stdio.h ****  * this partial fashion...
  45:c:/program/mingw/include\stdio.h ****  */
  46:c:/program/mingw/include\stdio.h **** #ifndef __WCHAR_H_SOURCED__
  47:c:/program/mingw/include\stdio.h ****  /* ...which is exclusive to <wchar.h>, do we assert the multiple
  48:c:/program/mingw/include\stdio.h ****   * inclusion guard for <stdio.h> itself.
  49:c:/program/mingw/include\stdio.h ****   */
  50:c:/program/mingw/include\stdio.h **** #define _STDIO_H
  51:c:/program/mingw/include\stdio.h **** #endif
GAS LISTING C:\Users\PRESID~1\AppData\Local\Temp\cc47URDW.s 			page 2


  52:c:/program/mingw/include\stdio.h **** 
  53:c:/program/mingw/include\stdio.h **** /* All the headers include this file.
  54:c:/program/mingw/include\stdio.h ****  */
  55:c:/program/mingw/include\stdio.h **** #include <_mingw.h>
  56:c:/program/mingw/include\stdio.h **** 
  57:c:/program/mingw/include\stdio.h **** #ifndef RC_INVOKED
  58:c:/program/mingw/include\stdio.h **** /* POSIX stipulates that the following set of types, (as identified by
  59:c:/program/mingw/include\stdio.h ****  * __need_TYPENAME macros), shall be defined consistently with <stddef.h>;
  60:c:/program/mingw/include\stdio.h ****  * by defining the appropriate __need_TYPENAME macros, we may selectively
  61:c:/program/mingw/include\stdio.h ****  * obtain the required definitions by inclusion of <stddef.h>, WITHOUT
  62:c:/program/mingw/include\stdio.h ****  * automatic exposure of any of its additional content.
  63:c:/program/mingw/include\stdio.h ****  */
  64:c:/program/mingw/include\stdio.h **** #define __need_NULL
  65:c:/program/mingw/include\stdio.h **** #define __need_size_t
  66:c:/program/mingw/include\stdio.h **** #define __need_wchar_t
  67:c:/program/mingw/include\stdio.h **** #define __need_wint_t
  68:c:/program/mingw/include\stdio.h **** #include <stddef.h>
  69:c:/program/mingw/include\stdio.h **** 
  70:c:/program/mingw/include\stdio.h **** #if _POSIX_C_SOURCE >= 200809L
  71:c:/program/mingw/include\stdio.h ****  /* Similarly, for types defined in <sys/types.h>, (which are explicitly
  72:c:/program/mingw/include\stdio.h ****   * dependent on the POSIX.1-2008 feature test)...
  73:c:/program/mingw/include\stdio.h ****   */
  74:c:/program/mingw/include\stdio.h **** # define __need_off_t
  75:c:/program/mingw/include\stdio.h **** # define __need_ssize_t
  76:c:/program/mingw/include\stdio.h **** #endif
  77:c:/program/mingw/include\stdio.h **** 
  78:c:/program/mingw/include\stdio.h **** /* Although non-standard themselves, we also need either one or other
  79:c:/program/mingw/include\stdio.h ****  * of the following pair of data types, from <sys/types.h>, because our
  80:c:/program/mingw/include\stdio.h ****  * standard fpos_t is opaquely defined in terms of...
  81:c:/program/mingw/include\stdio.h ****  */
  82:c:/program/mingw/include\stdio.h **** #ifdef __MSVCRT__
  83:c:/program/mingw/include\stdio.h ****  /* ...an explicitly 64-bit file offset type, for MSVCRT.DLL users...
  84:c:/program/mingw/include\stdio.h ****   */
  85:c:/program/mingw/include\stdio.h **** # define __need___off64_t
  86:c:/program/mingw/include\stdio.h **** #else
  87:c:/program/mingw/include\stdio.h ****  /* ...or a 32-bit equivalent, for pre-MSVCRT.DLL users.
  88:c:/program/mingw/include\stdio.h ****   */
  89:c:/program/mingw/include\stdio.h **** # define __need___off32_t
  90:c:/program/mingw/include\stdio.h **** #endif
  91:c:/program/mingw/include\stdio.h **** 
  92:c:/program/mingw/include\stdio.h **** /* Note the use of the #include "..." form here, to ensure that we get
  93:c:/program/mingw/include\stdio.h ****  * the correct header file, relative to the location of this <stdio.h>
  94:c:/program/mingw/include\stdio.h ****  */
  95:c:/program/mingw/include\stdio.h **** #include "sys/types.h"
  96:c:/program/mingw/include\stdio.h **** 
  97:c:/program/mingw/include\stdio.h **** #ifndef __VALIST
  98:c:/program/mingw/include\stdio.h ****  /* Also similarly, for the va_list type, defined in "stdarg.h"
  99:c:/program/mingw/include\stdio.h ****   */
 100:c:/program/mingw/include\stdio.h **** # if defined __GNUC__ && __GNUC__ >= 3
 101:c:/program/mingw/include\stdio.h **** #  define __need___va_list
 102:c:/program/mingw/include\stdio.h **** #  include "stdarg.h"
 103:c:/program/mingw/include\stdio.h **** #  define __VALIST __builtin_va_list
 104:c:/program/mingw/include\stdio.h **** # else
 105:c:/program/mingw/include\stdio.h **** #  define __VALIST char *
 106:c:/program/mingw/include\stdio.h **** # endif
 107:c:/program/mingw/include\stdio.h **** #endif
 108:c:/program/mingw/include\stdio.h **** #endif	/* ! RC_INVOKED */
GAS LISTING C:\Users\PRESID~1\AppData\Local\Temp\cc47URDW.s 			page 3


 109:c:/program/mingw/include\stdio.h **** 
 110:c:/program/mingw/include\stdio.h **** #ifdef _STDIO_H
 111:c:/program/mingw/include\stdio.h **** /* Flags for the iobuf structure
 112:c:/program/mingw/include\stdio.h ****  */
 113:c:/program/mingw/include\stdio.h **** #define _IOREAD 	1	/* currently reading */
 114:c:/program/mingw/include\stdio.h **** #define _IOWRT		2	/* currently writing */
 115:c:/program/mingw/include\stdio.h **** #define _IORW	   0x0080	/* opened as "r+w" */
 116:c:/program/mingw/include\stdio.h **** 
 117:c:/program/mingw/include\stdio.h **** /* The three standard file pointers provided by the run time library.
 118:c:/program/mingw/include\stdio.h ****  * NOTE: These will go to the bit-bucket silently in GUI applications!
 119:c:/program/mingw/include\stdio.h ****  */
 120:c:/program/mingw/include\stdio.h **** #define STDIN_FILENO	0
 121:c:/program/mingw/include\stdio.h **** #define STDOUT_FILENO	1
 122:c:/program/mingw/include\stdio.h **** #define STDERR_FILENO	2
 123:c:/program/mingw/include\stdio.h **** 
 124:c:/program/mingw/include\stdio.h **** /* Returned by various functions on end of file condition or error.
 125:c:/program/mingw/include\stdio.h ****  */
 126:c:/program/mingw/include\stdio.h **** #define EOF	      (-1)
 127:c:/program/mingw/include\stdio.h **** 
 128:c:/program/mingw/include\stdio.h **** #endif	/* _STDIO_H */
 129:c:/program/mingw/include\stdio.h **** 
 130:c:/program/mingw/include\stdio.h **** /* The maximum length of a file name.  It may be better to use the Windows'
 131:c:/program/mingw/include\stdio.h ****  * GetVolumeInformation() function in preference to this constant, but hey,
 132:c:/program/mingw/include\stdio.h ****  * this works!  Note that <io.h> also defines it, but we don't guard it, so
 133:c:/program/mingw/include\stdio.h ****  * that the compiler has a chance to catch inconsistencies.
 134:c:/program/mingw/include\stdio.h ****  *
 135:c:/program/mingw/include\stdio.h ****  * FIXME: Right now, we define this unconditionally for both full <stdio.h>
 136:c:/program/mingw/include\stdio.h ****  * inclusion, and for partial inclusion on behalf of <wchar.h>, (which needs
 137:c:/program/mingw/include\stdio.h ****  * it for some non-ANSI structure declarations).  The conditions under which
 138:c:/program/mingw/include\stdio.h ****  * <wchar.h> needs this require review, because defining it as a consequence
 139:c:/program/mingw/include\stdio.h ****  * of including <wchar.h> alone may violate strict ANSI conformity.
 140:c:/program/mingw/include\stdio.h ****  */
 141:c:/program/mingw/include\stdio.h **** #define FILENAME_MAX  (260)
 142:c:/program/mingw/include\stdio.h **** 
 143:c:/program/mingw/include\stdio.h **** #ifdef _STDIO_H
 144:c:/program/mingw/include\stdio.h **** /* The maximum number of files that may be open at once. I have set this to
 145:c:/program/mingw/include\stdio.h ****  * a conservative number. The actual value may be higher.
 146:c:/program/mingw/include\stdio.h ****  */
 147:c:/program/mingw/include\stdio.h **** #define FOPEN_MAX      (20)
 148:c:/program/mingw/include\stdio.h **** 
 149:c:/program/mingw/include\stdio.h **** /* After creating this many names, tmpnam and tmpfile return NULL
 150:c:/program/mingw/include\stdio.h ****  */
 151:c:/program/mingw/include\stdio.h **** #define TMP_MAX      32767
 152:c:/program/mingw/include\stdio.h **** 
 153:c:/program/mingw/include\stdio.h **** /* Tmpnam, tmpfile and, sometimes, _tempnam try to create
 154:c:/program/mingw/include\stdio.h ****  * temp files in the root directory of the current drive
 155:c:/program/mingw/include\stdio.h ****  * (not in pwd, as suggested by some older MS doc's).
 156:c:/program/mingw/include\stdio.h ****  * Redefining these macros does not effect the CRT functions.
 157:c:/program/mingw/include\stdio.h ****  */
 158:c:/program/mingw/include\stdio.h **** #define _P_tmpdir   "\\"
 159:c:/program/mingw/include\stdio.h **** #ifndef __STRICT_ANSI__
 160:c:/program/mingw/include\stdio.h **** #define P_tmpdir _P_tmpdir
 161:c:/program/mingw/include\stdio.h **** #endif
 162:c:/program/mingw/include\stdio.h **** #define _wP_tmpdir  L"\\"
 163:c:/program/mingw/include\stdio.h **** 
 164:c:/program/mingw/include\stdio.h **** /* The maximum size of name (including NUL) that will be put in the user
 165:c:/program/mingw/include\stdio.h ****  * supplied buffer caName for tmpnam.
GAS LISTING C:\Users\PRESID~1\AppData\Local\Temp\cc47URDW.s 			page 4


 166:c:/program/mingw/include\stdio.h ****  * Inferred from the size of the static buffer returned by tmpnam
 167:c:/program/mingw/include\stdio.h ****  * when passed a NULL argument. May actually be smaller.
 168:c:/program/mingw/include\stdio.h ****  */
 169:c:/program/mingw/include\stdio.h **** #define L_tmpnam (16)
 170:c:/program/mingw/include\stdio.h **** 
 171:c:/program/mingw/include\stdio.h **** #define _IOFBF		0x0000	/* full buffered */
 172:c:/program/mingw/include\stdio.h **** #define _IOLBF		0x0040	/* line buffered */
 173:c:/program/mingw/include\stdio.h **** #define _IONBF		0x0004	/* not buffered */
 174:c:/program/mingw/include\stdio.h **** 
 175:c:/program/mingw/include\stdio.h **** #define _IOMYBUF	0x0008	/* stdio malloc()'d buffer */
 176:c:/program/mingw/include\stdio.h **** #define _IOEOF		0x0010	/* EOF reached on read */
 177:c:/program/mingw/include\stdio.h **** #define _IOERR		0x0020	/* I/O error from system */
 178:c:/program/mingw/include\stdio.h **** #define _IOSTRG 	0x0040	/* Strange or no file descriptor */
 179:c:/program/mingw/include\stdio.h **** #ifdef _POSIX_SOURCE
 180:c:/program/mingw/include\stdio.h **** # define _IOAPPEND	0x0200
 181:c:/program/mingw/include\stdio.h **** #endif
 182:c:/program/mingw/include\stdio.h **** 
 183:c:/program/mingw/include\stdio.h **** /* The buffer size as used by setbuf such that it is equivalent to
 184:c:/program/mingw/include\stdio.h ****  * (void) setvbuf(fileSetBuffer, caBuffer, _IOFBF, BUFSIZ).
 185:c:/program/mingw/include\stdio.h ****  */
 186:c:/program/mingw/include\stdio.h **** #define BUFSIZ		   512
 187:c:/program/mingw/include\stdio.h **** 
 188:c:/program/mingw/include\stdio.h **** /* Constants for nOrigin indicating the position relative to which fseek
 189:c:/program/mingw/include\stdio.h ****  * sets the file position.  Defined unconditionally since ISO and POSIX
 190:c:/program/mingw/include\stdio.h ****  * say they are defined here.
 191:c:/program/mingw/include\stdio.h ****  */
 192:c:/program/mingw/include\stdio.h **** #define SEEK_SET	     0
 193:c:/program/mingw/include\stdio.h **** #define SEEK_CUR	     1
 194:c:/program/mingw/include\stdio.h **** #define SEEK_END	     2
 195:c:/program/mingw/include\stdio.h **** 
 196:c:/program/mingw/include\stdio.h **** #endif	/* _STDIO_H */
 197:c:/program/mingw/include\stdio.h **** 
 198:c:/program/mingw/include\stdio.h **** #ifndef RC_INVOKED
 199:c:/program/mingw/include\stdio.h **** #if ! (defined _STDIO_H && defined _WCHAR_H)
 200:c:/program/mingw/include\stdio.h **** /* The structure underlying the FILE type; this should be defined when
 201:c:/program/mingw/include\stdio.h ****  * including either <stdio.h> or <wchar.h>.  If both header include guards
 202:c:/program/mingw/include\stdio.h ****  * are now in place, then we must currently be including <stdio.h> in its
 203:c:/program/mingw/include\stdio.h ****  * own right, having already processed this block during a prior partial
 204:c:/program/mingw/include\stdio.h ****  * inclusion by <wchar.h>; there is no need to process it a second time.
 205:c:/program/mingw/include\stdio.h ****  *
 206:c:/program/mingw/include\stdio.h ****  * Some believe that nobody in their right mind should make use of the
 207:c:/program/mingw/include\stdio.h ****  * internals of this structure. Provided by Pedro A. Aranda Gutiirrez
 208:c:/program/mingw/include\stdio.h ****  * <paag@tid.es>.
 209:c:/program/mingw/include\stdio.h ****  */
 210:c:/program/mingw/include\stdio.h **** typedef struct _iobuf
 211:c:/program/mingw/include\stdio.h **** {
 212:c:/program/mingw/include\stdio.h ****   char	*_ptr;
 213:c:/program/mingw/include\stdio.h ****   int	 _cnt;
 214:c:/program/mingw/include\stdio.h ****   char	*_base;
 215:c:/program/mingw/include\stdio.h ****   int	 _flag;
 216:c:/program/mingw/include\stdio.h ****   int	 _file;
 217:c:/program/mingw/include\stdio.h ****   int	 _charbuf;
 218:c:/program/mingw/include\stdio.h ****   int	 _bufsiz;
 219:c:/program/mingw/include\stdio.h ****   char	*_tmpfname;
 220:c:/program/mingw/include\stdio.h **** } FILE;
 221:c:/program/mingw/include\stdio.h **** 
 222:c:/program/mingw/include\stdio.h **** #endif  /* ! (_STDIO_H && _WCHAR_H) */
GAS LISTING C:\Users\PRESID~1\AppData\Local\Temp\cc47URDW.s 			page 5


 223:c:/program/mingw/include\stdio.h **** #ifdef _STDIO_H
 224:c:/program/mingw/include\stdio.h **** /* Content to be exposed only when including <stdio.h> in its own right;
 225:c:/program/mingw/include\stdio.h ****  * these will not be exposed when __WCHAR_H_SOURCE__ is defined, as will
 226:c:/program/mingw/include\stdio.h ****  * be the case when <stdio.h> is included indirectly, by <wchar.h>
 227:c:/program/mingw/include\stdio.h ****  *
 228:c:/program/mingw/include\stdio.h ****  *
 229:c:/program/mingw/include\stdio.h ****  * The standard file handles
 230:c:/program/mingw/include\stdio.h ****  */
 231:c:/program/mingw/include\stdio.h **** #ifndef __DECLSPEC_SUPPORTED
 232:c:/program/mingw/include\stdio.h **** 
 233:c:/program/mingw/include\stdio.h **** extern FILE (*_imp___iob)[];	/* A pointer to an array of FILE */
 234:c:/program/mingw/include\stdio.h **** 
 235:c:/program/mingw/include\stdio.h **** #define _iob (*_imp___iob)	/* An array of FILE */
 236:c:/program/mingw/include\stdio.h **** 
 237:c:/program/mingw/include\stdio.h **** #else /* __DECLSPEC_SUPPORTED */
 238:c:/program/mingw/include\stdio.h **** 
 239:c:/program/mingw/include\stdio.h **** __MINGW_IMPORT FILE _iob[];	/* An array of FILE imported from DLL. */
 240:c:/program/mingw/include\stdio.h **** 
 241:c:/program/mingw/include\stdio.h **** #endif /* __DECLSPEC_SUPPORTED */
 242:c:/program/mingw/include\stdio.h **** 
 243:c:/program/mingw/include\stdio.h **** #define stdin	(&_iob[STDIN_FILENO])
 244:c:/program/mingw/include\stdio.h **** #define stdout	(&_iob[STDOUT_FILENO])
 245:c:/program/mingw/include\stdio.h **** #define stderr	(&_iob[STDERR_FILENO])
 246:c:/program/mingw/include\stdio.h **** 
 247:c:/program/mingw/include\stdio.h **** /* Need to close the current _STDIO_H specific block here...
 248:c:/program/mingw/include\stdio.h ****  */
 249:c:/program/mingw/include\stdio.h **** #endif
 250:c:/program/mingw/include\stdio.h **** /* ...because, we need this regardless of the inclusion mode...
 251:c:/program/mingw/include\stdio.h ****  */
 252:c:/program/mingw/include\stdio.h **** _BEGIN_C_DECLS
 253:c:/program/mingw/include\stdio.h **** 
 254:c:/program/mingw/include\stdio.h **** #ifdef _STDIO_H
 255:c:/program/mingw/include\stdio.h **** /* ...then revert to _STDIO_H specific mode, to declare...
 256:c:/program/mingw/include\stdio.h ****  *
 257:c:/program/mingw/include\stdio.h ****  *
 258:c:/program/mingw/include\stdio.h ****  * File Operations
 259:c:/program/mingw/include\stdio.h ****  */
 260:c:/program/mingw/include\stdio.h **** _CRTIMP __cdecl __MINGW_NOTHROW  FILE * fopen (const char *, const char *);
 261:c:/program/mingw/include\stdio.h **** _CRTIMP __cdecl __MINGW_NOTHROW  FILE * freopen (const char *, const char *, FILE *);
 262:c:/program/mingw/include\stdio.h **** _CRTIMP __cdecl __MINGW_NOTHROW  int    fflush (FILE *);
 263:c:/program/mingw/include\stdio.h **** _CRTIMP __cdecl __MINGW_NOTHROW  int    fclose (FILE *);
 264:c:/program/mingw/include\stdio.h **** 
 265:c:/program/mingw/include\stdio.h **** /* Note: Microsoft also declares remove & rename (but not their wide char
 266:c:/program/mingw/include\stdio.h ****  * variants) in <io.h>; since duplicate prototypes are acceptable, provided
 267:c:/program/mingw/include\stdio.h ****  * they are consistent, we simply declare them here anyway, while allowing
 268:c:/program/mingw/include\stdio.h ****  * the compiler to check consistency as appropriate.
 269:c:/program/mingw/include\stdio.h ****  */
 270:c:/program/mingw/include\stdio.h **** _CRTIMP __cdecl __MINGW_NOTHROW  int    remove (const char *);
 271:c:/program/mingw/include\stdio.h **** _CRTIMP __cdecl __MINGW_NOTHROW  int    rename (const char *, const char *);
 272:c:/program/mingw/include\stdio.h **** _CRTIMP __cdecl __MINGW_NOTHROW  FILE * tmpfile (void);
 273:c:/program/mingw/include\stdio.h **** _CRTIMP __cdecl __MINGW_NOTHROW  char * tmpnam (char *);
 274:c:/program/mingw/include\stdio.h **** 
 275:c:/program/mingw/include\stdio.h **** #ifndef __STRICT_ANSI__
 276:c:/program/mingw/include\stdio.h **** _CRTIMP __cdecl __MINGW_NOTHROW  char *_tempnam (const char *, const char *);
 277:c:/program/mingw/include\stdio.h **** _CRTIMP __cdecl __MINGW_NOTHROW  int   _rmtmp (void);
 278:c:/program/mingw/include\stdio.h **** _CRTIMP __cdecl __MINGW_NOTHROW  int   _unlink (const char *);
 279:c:/program/mingw/include\stdio.h **** 
GAS LISTING C:\Users\PRESID~1\AppData\Local\Temp\cc47URDW.s 			page 6


 280:c:/program/mingw/include\stdio.h **** #if __MSVCRT_VERSION__>=__MSVCR80_DLL
 281:c:/program/mingw/include\stdio.h **** /* The following pair of non-ANSI functions require a non-free version of
 282:c:/program/mingw/include\stdio.h ****  * the Microsoft runtime; neither is provided by any MSVCRT.DLL variant.
 283:c:/program/mingw/include\stdio.h ****  */
 284:c:/program/mingw/include\stdio.h **** _CRTIMP __cdecl __MINGW_NOTHROW  void  _lock_file(FILE *);
 285:c:/program/mingw/include\stdio.h **** _CRTIMP __cdecl __MINGW_NOTHROW  void  _unlock_file(FILE *);
 286:c:/program/mingw/include\stdio.h **** #endif
 287:c:/program/mingw/include\stdio.h **** 
 288:c:/program/mingw/include\stdio.h **** #ifndef NO_OLDNAMES
 289:c:/program/mingw/include\stdio.h **** _CRTIMP __cdecl __MINGW_NOTHROW  char * tempnam (const char *, const char *);
 290:c:/program/mingw/include\stdio.h **** _CRTIMP __cdecl __MINGW_NOTHROW  int    rmtmp (void);
 291:c:/program/mingw/include\stdio.h **** _CRTIMP __cdecl __MINGW_NOTHROW  int    unlink (const char *);
 292:c:/program/mingw/include\stdio.h **** #endif
 293:c:/program/mingw/include\stdio.h **** #endif /* __STRICT_ANSI__ */
 294:c:/program/mingw/include\stdio.h **** 
 295:c:/program/mingw/include\stdio.h **** _CRTIMP __cdecl __MINGW_NOTHROW  int    setvbuf (FILE *, char *, int, size_t);
 296:c:/program/mingw/include\stdio.h **** _CRTIMP __cdecl __MINGW_NOTHROW  void   setbuf (FILE *, char *);
 297:c:/program/mingw/include\stdio.h **** 
 298:c:/program/mingw/include\stdio.h **** /* Formatted Output
 299:c:/program/mingw/include\stdio.h ****  *
 300:c:/program/mingw/include\stdio.h ****  * MSVCRT implementations are not ANSI C99 conformant...
 301:c:/program/mingw/include\stdio.h ****  * we offer conforming alternatives from libmingwex.a
 302:c:/program/mingw/include\stdio.h ****  */
 303:c:/program/mingw/include\stdio.h **** #undef  __mingw_stdio_redirect__
 304:c:/program/mingw/include\stdio.h **** #define __mingw_stdio_redirect__(F) __cdecl __MINGW_NOTHROW __Wformat(F)
 305:c:/program/mingw/include\stdio.h **** #define __Wformat_mingw_printf(F,A) __attribute__((__format__(__mingw_printf__,F,A)))
 306:c:/program/mingw/include\stdio.h **** 
 307:c:/program/mingw/include\stdio.h **** #if __GNUC__ >= 6
 308:c:/program/mingw/include\stdio.h **** /* From GCC-6 onwards, we will provide customized -Wformat
 309:c:/program/mingw/include\stdio.h ****  * handling, via our own mingw_printf format category...
 310:c:/program/mingw/include\stdio.h ****  */
 311:c:/program/mingw/include\stdio.h **** #define __Wformat(F)		__Wformat_##F __mingw_##F
 312:c:/program/mingw/include\stdio.h **** 
 313:c:/program/mingw/include\stdio.h **** #else	/* __GNUC__ < 6 */
 314:c:/program/mingw/include\stdio.h **** /* ...whereas, for earlier GCC, we preserve the status quo,
 315:c:/program/mingw/include\stdio.h ****  * offering no -Wformat checking for those functions which
 316:c:/program/mingw/include\stdio.h ****  * replace the MSVCRT.DLL versions...
 317:c:/program/mingw/include\stdio.h ****  */
 318:c:/program/mingw/include\stdio.h **** #define __Wformat(F)		__mingw_##F
 319:c:/program/mingw/include\stdio.h **** 
 320:c:/program/mingw/include\stdio.h **** /* ...while degrading to gnu_printf checking for snprintf()
 321:c:/program/mingw/include\stdio.h ****  * and vsnprintf(), (which are ALWAYS MinGW.org variants).
 322:c:/program/mingw/include\stdio.h ****  */
 323:c:/program/mingw/include\stdio.h **** #define __mingw_printf__	__gnu_printf__
 324:c:/program/mingw/include\stdio.h **** #endif
 325:c:/program/mingw/include\stdio.h **** 
 326:c:/program/mingw/include\stdio.h **** /* The following convenience macros specify the appropriate
 327:c:/program/mingw/include\stdio.h ****  * -Wformat checking for MSVCRT.DLL replacement functions...
 328:c:/program/mingw/include\stdio.h ****  */
 329:c:/program/mingw/include\stdio.h **** #define __Wformat_printf	__Wformat_mingw_printf(1,2)
 330:c:/program/mingw/include\stdio.h **** #define __Wformat_fprintf	__Wformat_mingw_printf(2,3)
 331:c:/program/mingw/include\stdio.h **** #define __Wformat_sprintf	__Wformat_mingw_printf(2,3)
 332:c:/program/mingw/include\stdio.h **** #define __Wformat_vprintf	__Wformat_mingw_printf(1,0)
 333:c:/program/mingw/include\stdio.h **** #define __Wformat_vfprintf	__Wformat_mingw_printf(2,0)
 334:c:/program/mingw/include\stdio.h **** #define __Wformat_vsprintf	__Wformat_mingw_printf(2,0)
 335:c:/program/mingw/include\stdio.h **** 
 336:c:/program/mingw/include\stdio.h **** /* ...while this pair are specific to the two MinGW.org
GAS LISTING C:\Users\PRESID~1\AppData\Local\Temp\cc47URDW.s 			page 7


 337:c:/program/mingw/include\stdio.h ****  * only functions.
 338:c:/program/mingw/include\stdio.h ****  */
 339:c:/program/mingw/include\stdio.h **** #define __Wformat_snprintf	__Wformat_mingw_printf(3,4)
 340:c:/program/mingw/include\stdio.h **** #define __Wformat_vsnprintf	__Wformat_mingw_printf(3,0)
 341:c:/program/mingw/include\stdio.h **** 
 342:c:/program/mingw/include\stdio.h **** extern int __mingw_stdio_redirect__(fprintf)(FILE*, const char*, ...);
 343:c:/program/mingw/include\stdio.h **** extern int __mingw_stdio_redirect__(printf)(const char*, ...);
 344:c:/program/mingw/include\stdio.h **** extern int __mingw_stdio_redirect__(sprintf)(char*, const char*, ...);
 345:c:/program/mingw/include\stdio.h **** extern int __mingw_stdio_redirect__(snprintf)(char*, size_t, const char*, ...);
 346:c:/program/mingw/include\stdio.h **** extern int __mingw_stdio_redirect__(vfprintf)(FILE*, const char*, __VALIST);
 347:c:/program/mingw/include\stdio.h **** extern int __mingw_stdio_redirect__(vprintf)(const char*, __VALIST);
 348:c:/program/mingw/include\stdio.h **** extern int __mingw_stdio_redirect__(vsprintf)(char*, const char*, __VALIST);
 349:c:/program/mingw/include\stdio.h **** extern int __mingw_stdio_redirect__(vsnprintf)(char*, size_t, const char*, __VALIST);
 350:c:/program/mingw/include\stdio.h **** 
 351:c:/program/mingw/include\stdio.h **** /* When using these C99 conforming alternatives, we may wish to support
 352:c:/program/mingw/include\stdio.h ****  * some of Microsoft's quirky formatting options, even when they violate
 353:c:/program/mingw/include\stdio.h ****  * strict C99 conformance.
 354:c:/program/mingw/include\stdio.h ****  */
 355:c:/program/mingw/include\stdio.h **** #define _MSVC_PRINTF_QUIRKS		0x0100U
 356:c:/program/mingw/include\stdio.h **** #define _QUERY_MSVC_PRINTF_QUIRKS	~0U, 0U
 357:c:/program/mingw/include\stdio.h **** #define _DISABLE_MSVC_PRINTF_QUIRKS	~_MSVC_PRINTF_QUIRKS, 0U
 358:c:/program/mingw/include\stdio.h **** #define _ENABLE_MSVC_PRINTF_QUIRKS	~0U, _MSVC_PRINTF_QUIRKS
 359:c:/program/mingw/include\stdio.h **** 
 360:c:/program/mingw/include\stdio.h **** /* Those quirks which conflict with ANSI C99 specified behaviour are
 361:c:/program/mingw/include\stdio.h ****  * disabled by default; use the following function, like this:
 362:c:/program/mingw/include\stdio.h ****  *
 363:c:/program/mingw/include\stdio.h ****  *   _mingw_output_format_control( _ENABLE_MSVC_PRINTF_QUIRKS );
 364:c:/program/mingw/include\stdio.h ****  *
 365:c:/program/mingw/include\stdio.h ****  * to enable them, like this:
 366:c:/program/mingw/include\stdio.h ****  *
 367:c:/program/mingw/include\stdio.h ****  *   state = _mingw_output_format_control( _QUERY_MSVC_PRINTF_QUIRKS )
 368:c:/program/mingw/include\stdio.h ****  *		& _MSVC_PRINTF_QUIRKS;
 369:c:/program/mingw/include\stdio.h ****  *
 370:c:/program/mingw/include\stdio.h ****  * to ascertain the currently active enabled state, or like this:
 371:c:/program/mingw/include\stdio.h ****  *
 372:c:/program/mingw/include\stdio.h ****  *   _mingw_output_format_control( _DISABLE_MSVC_PRINTF_QUIRKS );
 373:c:/program/mingw/include\stdio.h ****  *
 374:c:/program/mingw/include\stdio.h ****  * to disable them again.
 375:c:/program/mingw/include\stdio.h ****  */
 376:c:/program/mingw/include\stdio.h **** extern unsigned int _mingw_output_format_control( unsigned int, unsigned int );
 377:c:/program/mingw/include\stdio.h **** 
 378:c:/program/mingw/include\stdio.h **** #if __USE_MINGW_ANSI_STDIO || defined _ISOC99_SOURCE
 379:c:/program/mingw/include\stdio.h **** /* User has expressed a preference for C99 conformance...
 380:c:/program/mingw/include\stdio.h ****  */
 381:c:/program/mingw/include\stdio.h **** # undef __mingw_stdio_redirect__
 382:c:/program/mingw/include\stdio.h **** # ifdef __cplusplus
 383:c:/program/mingw/include\stdio.h **** /* For C++ we use inline implementations, to avoid interference
 384:c:/program/mingw/include\stdio.h ****  * with namespace qualification, which may result from using #defines.
 385:c:/program/mingw/include\stdio.h ****  */
 386:c:/program/mingw/include\stdio.h **** #  define __mingw_stdio_redirect__  inline __cdecl __MINGW_NOTHROW
 387:c:/program/mingw/include\stdio.h **** 
 388:c:/program/mingw/include\stdio.h **** # elif defined __GNUC__
 389:c:/program/mingw/include\stdio.h **** /* FIXME: Is there any GCC version prerequisite here?
 390:c:/program/mingw/include\stdio.h ****  *
 391:c:/program/mingw/include\stdio.h ****  * We also prefer inline implementations for C, when we can be confident
 392:c:/program/mingw/include\stdio.h ****  * that the GNU specific __inline__ mechanism is supported.
 393:c:/program/mingw/include\stdio.h ****  */
GAS LISTING C:\Users\PRESID~1\AppData\Local\Temp\cc47URDW.s 			page 8


 394:c:/program/mingw/include\stdio.h **** #  define __mingw_stdio_redirect__  static __inline__ __cdecl __MINGW_NOTHROW
 395:c:/program/mingw/include\stdio.h **** 
 396:c:/program/mingw/include\stdio.h **** # else	/* Neither C++ nor __GNUC__ */
 397:c:/program/mingw/include\stdio.h **** /* Can't use inlines; fall back on module local static stubs.
 398:c:/program/mingw/include\stdio.h ****  */
 399:c:/program/mingw/include\stdio.h **** #  define __mingw_stdio_redirect__  static __cdecl __MINGW_NOTHROW
 400:c:/program/mingw/include\stdio.h **** 
 401:c:/program/mingw/include\stdio.h **** # endif	/* Neither C++ nor __GNUC__ */
 402:c:/program/mingw/include\stdio.h **** #endif	/* __USE_MINGW_ANSI_STDIO || defined _ISOC99_SOURCE */
 403:c:/program/mingw/include\stdio.h **** 
 404:c:/program/mingw/include\stdio.h **** #if __USE_MINGW_ANSI_STDIO
 405:c:/program/mingw/include\stdio.h **** /* The MinGW ISO-C conforming implementations of the printf() family
 406:c:/program/mingw/include\stdio.h ****  * of functions are to be used, in place of non-conforming Microsoft
 407:c:/program/mingw/include\stdio.h ****  * implementations; force call redirection, via the following set of
 408:c:/program/mingw/include\stdio.h ****  * in-line functions.
 409:c:/program/mingw/include\stdio.h ****  */
 410:c:/program/mingw/include\stdio.h **** __mingw_stdio_redirect__
 411:c:/program/mingw/include\stdio.h **** int fprintf (FILE *__stream, const char *__format, ...)
 412:c:/program/mingw/include\stdio.h **** {
 413:c:/program/mingw/include\stdio.h ****   register int __retval;
 414:c:/program/mingw/include\stdio.h ****   __builtin_va_list __local_argv; __builtin_va_start( __local_argv, __format );
 415:c:/program/mingw/include\stdio.h ****   __retval = __mingw_vfprintf( __stream, __format, __local_argv );
 416:c:/program/mingw/include\stdio.h ****   __builtin_va_end( __local_argv );
 417:c:/program/mingw/include\stdio.h ****   return __retval;
 418:c:/program/mingw/include\stdio.h **** }
 419:c:/program/mingw/include\stdio.h **** 
 420:c:/program/mingw/include\stdio.h **** __mingw_stdio_redirect__
 421:c:/program/mingw/include\stdio.h **** int printf (const char *__format, ...)
 422:c:/program/mingw/include\stdio.h **** {
   8              		.loc 1 422 1
   9              		.cfi_startproc
  10 0000 55       		pushl	%ebp
  11              		.cfi_def_cfa_offset 8
  12              		.cfi_offset 5, -8
  13 0001 89E5     		movl	%esp, %ebp
  14              		.cfi_def_cfa_register 5
  15 0003 53       		pushl	%ebx
  16 0004 83EC24   		subl	$36, %esp
  17              		.cfi_offset 3, -12
 423:c:/program/mingw/include\stdio.h ****   register int __retval;
 424:c:/program/mingw/include\stdio.h ****   __builtin_va_list __local_argv; __builtin_va_start( __local_argv, __format );
  18              		.loc 1 424 35
  19 0007 8D450C   		leal	12(%ebp), %eax
  20 000a 8945F4   		movl	%eax, -12(%ebp)
 425:c:/program/mingw/include\stdio.h ****   __retval = __mingw_vprintf( __format, __local_argv );
  21              		.loc 1 425 14
  22 000d 8B45F4   		movl	-12(%ebp), %eax
  23 0010 89442404 		movl	%eax, 4(%esp)
  24 0014 8B4508   		movl	8(%ebp), %eax
  25 0017 890424   		movl	%eax, (%esp)
  26 001a E8000000 		call	___mingw_vprintf
  26      00
  27 001f 89C3     		movl	%eax, %ebx
 426:c:/program/mingw/include\stdio.h ****   __builtin_va_end( __local_argv );
 427:c:/program/mingw/include\stdio.h ****   return __retval;
  28              		.loc 1 427 10
  29 0021 89D8     		movl	%ebx, %eax
GAS LISTING C:\Users\PRESID~1\AppData\Local\Temp\cc47URDW.s 			page 9


 428:c:/program/mingw/include\stdio.h **** }
  30              		.loc 1 428 1
  31 0023 83C424   		addl	$36, %esp
  32 0026 5B       		popl	%ebx
  33              		.cfi_restore 3
  34 0027 5D       		popl	%ebp
  35              		.cfi_restore 5
  36              		.cfi_def_cfa 4, 4
  37 0028 C3       		ret
  38              		.cfi_endproc
  39              	LFE1:
  41              		.section .rdata,"dr"
  42              	LC0:
  43 0000 5A656974 		.ascii "Zeit: %d\0"
  43      3A202564 
  43      00
  44 0009 000000   		.text
  45              		.globl	_main
  47              	_main:
  48              	LFB12:
  49              		.file 2 "C:/Users/president/Desktop/sbx/input/src/os_sim/os_sim_main.c"
   1:C:/Users/president/Desktop/sbx/input/src/os_sim\os_sim_main.c **** #include "..\os_base\os_firstinc.h"
   2:C:/Users/president/Desktop/sbx/input/src/os_sim\os_sim_main.c **** #include "..\os_base\os_main.h"
   3:C:/Users/president/Desktop/sbx/input/src/os_sim\os_sim_main.c **** #include "..\os_base\os_task_scheduler.h"
   4:C:/Users/president/Desktop/sbx/input/src/os_sim\os_sim_main.c **** #include "..\os_base\os_exception_isr_handler.h"
   5:C:/Users/president/Desktop/sbx/input/src/os_sim\os_sim_main.c **** #include "..\os_base\os_start_os.h"
   6:C:/Users/president/Desktop/sbx/input/src/os_sim\os_sim_main.c **** #include "..\os_base\os_exception_isr_handler.h"
   7:C:/Users/president/Desktop/sbx/input/src/os_sim\os_sim_main.c **** #include "stdio.h"
   8:C:/Users/president/Desktop/sbx/input/src/os_sim\os_sim_main.c **** #include "time.h"
   9:C:/Users/president/Desktop/sbx/input/src/os_sim\os_sim_main.c **** 
  10:C:/Users/president/Desktop/sbx/input/src/os_sim\os_sim_main.c **** #if(CFG_PROCESSOR == MCU_X86)
  11:C:/Users/president/Desktop/sbx/input/src/os_sim\os_sim_main.c **** int main(int argc, char* argv[])
  12:C:/Users/president/Desktop/sbx/input/src/os_sim\os_sim_main.c **** {
  50              		.loc 2 12 1
  51              		.cfi_startproc
  52 0029 55       		pushl	%ebp
  53              		.cfi_def_cfa_offset 8
  54              		.cfi_offset 5, -8
  55 002a 89E5     		movl	%esp, %ebp
  56              		.cfi_def_cfa_register 5
  57 002c 83E4F0   		andl	$-16, %esp
  58 002f 83EC20   		subl	$32, %esp
  59              		.loc 2 12 1
  60 0032 E8000000 		call	___main
  60      00
  61              	LVL0:
  13:C:/Users/president/Desktop/sbx/input/src/os_sim\os_sim_main.c ****    unsigned int i = 0u;
  62              		.loc 2 13 17
  63 0037 C744241C 		movl	$0, 28(%esp)
  63      00000000 
  14:C:/Users/president/Desktop/sbx/input/src/os_sim\os_sim_main.c ****    time_t t = time(0u);
  64              		.loc 2 14 15
  65 003f C7042400 		movl	$0, (%esp)
  65      000000
  66 0046 E8000000 		call	_time
  66      00
  67 004b 89442418 		movl	%eax, 24(%esp)
GAS LISTING C:\Users\PRESID~1\AppData\Local\Temp\cc47URDW.s 			page 10


  15:C:/Users/president/Desktop/sbx/input/src/os_sim\os_sim_main.c **** 
  16:C:/Users/president/Desktop/sbx/input/src/os_sim\os_sim_main.c ****    OS_STACK_CHK_PATTERN_INIT();
  68              		.loc 2 16 4
  69 004f E8000000 		call	_OS_STACK_CHK_PATTERN_INIT
  69      00
  17:C:/Users/president/Desktop/sbx/input/src/os_sim\os_sim_main.c ****    OS_START_OS();
  70              		.loc 2 17 4
  71 0054 E8000000 		call	_OS_START_OS
  71      00
  18:C:/Users/president/Desktop/sbx/input/src/os_sim\os_sim_main.c ****    while(i < 1e8)
  72              		.loc 2 18 9
  73 0059 EB09     		jmp	L4
  74              	L5:
  19:C:/Users/president/Desktop/sbx/input/src/os_sim\os_sim_main.c ****    {
  20:C:/Users/president/Desktop/sbx/input/src/os_sim\os_sim_main.c ****       /* emulate the interrupts */
  21:C:/Users/president/Desktop/sbx/input/src/os_sim\os_sim_main.c ****       OS_STATE_HANDLER();
  75              		.loc 2 21 7
  76 005b E8000000 		call	_OS_STATE_HANDLER
  76      00
  22:C:/Users/president/Desktop/sbx/input/src/os_sim\os_sim_main.c ****       i++;
  77              		.loc 2 22 8
  78 0060 FF44241C 		incl	28(%esp)
  79              	L4:
  18:C:/Users/president/Desktop/sbx/input/src/os_sim\os_sim_main.c ****    while(i < 1e8)
  80              		.loc 2 18 9
  81 0064 817C241C 		cmpl	$99999999, 28(%esp)
  81      FFE0F505 
  82 006c 76ED     		jbe	L5
  23:C:/Users/president/Desktop/sbx/input/src/os_sim\os_sim_main.c ****    }
  24:C:/Users/president/Desktop/sbx/input/src/os_sim\os_sim_main.c **** 
  25:C:/Users/president/Desktop/sbx/input/src/os_sim\os_sim_main.c ****    t = time(0u) - t;
  83              		.loc 2 25 8
  84 006e C7042400 		movl	$0, (%esp)
  84      000000
  85 0075 E8000000 		call	_time
  85      00
  86              		.loc 2 25 6
  87 007a 2B442418 		subl	24(%esp), %eax
  88 007e 89442418 		movl	%eax, 24(%esp)
  26:C:/Users/president/Desktop/sbx/input/src/os_sim\os_sim_main.c ****    printf("Zeit: %d",t);
  89              		.loc 2 26 4
  90 0082 8B442418 		movl	24(%esp), %eax
  91 0086 89442404 		movl	%eax, 4(%esp)
  92 008a C7042400 		movl	$LC0, (%esp)
  92      000000
  93 0091 E86AFFFF 		call	_printf
  93      FF
  27:C:/Users/president/Desktop/sbx/input/src/os_sim\os_sim_main.c ****    getchar();
  94              		.loc 2 27 4
  95 0096 E8000000 		call	_getchar
  95      00
  28:C:/Users/president/Desktop/sbx/input/src/os_sim\os_sim_main.c ****    getchar();
  96              		.loc 2 28 4
  97 009b E8000000 		call	_getchar
  97      00
  29:C:/Users/president/Desktop/sbx/input/src/os_sim\os_sim_main.c ****    REFERENCE_UNUSED_PARAMETER(argc);
  30:C:/Users/president/Desktop/sbx/input/src/os_sim\os_sim_main.c ****    REFERENCE_UNUSED_PARAMETER(*argv);
GAS LISTING C:\Users\PRESID~1\AppData\Local\Temp\cc47URDW.s 			page 11


  98              		.loc 2 30 4
  99 00a0 8B450C   		movl	12(%ebp), %eax
 100 00a3 8B10     		movl	(%eax), %edx
 101 00a5 8B450C   		movl	12(%ebp), %eax
 102 00a8 8910     		movl	%edx, (%eax)
  31:C:/Users/president/Desktop/sbx/input/src/os_sim\os_sim_main.c **** 
  32:C:/Users/president/Desktop/sbx/input/src/os_sim\os_sim_main.c ****    return 0u;
 103              		.loc 2 32 11
 104 00aa B8000000 		movl	$0, %eax
 104      00
  33:C:/Users/president/Desktop/sbx/input/src/os_sim\os_sim_main.c **** }
 105              		.loc 2 33 1
 106 00af C9       		leave
 107              		.cfi_restore 5
 108              		.cfi_def_cfa 4, 4
 109 00b0 C3       		ret
 110              		.cfi_endproc
 111              	LFE12:
 112              	Letext0:
 113              		.file 3 "c:/users/president/desktop/sbx/input/src/os_base/os_base_types.h"
 114              		.file 4 "c:/users/president/desktop/sbx/input/src/os_base/os_common.h"
 115              		.file 5 "c:/users/president/desktop/sbx/input/src/os_sim/lld_core.h"
 116              		.file 6 "c:/users/president/desktop/sbx/input/src/os_base/os_task_common.h"
 117              		.file 7 "c:/users/president/desktop/sbx/input/src/os_base/os_main.h"
 118              		.file 8 "c:/users/president/desktop/sbx/input/src/os_base/os_ram.h"
 119              		.file 9 "c:/users/president/desktop/sbx/input/src/os_base/os_ram_stack.h"
 120              		.file 10 "c:/program/mingw/include/sys/types.h"
 121              		.file 11 "c:/program/mingw/include/time.h"