GAS LISTING C:\Users\PRESID~1\AppData\Local\Temp\ccEn1xvk.s 			page 1


   1              		.file	"os_stack.c"
   2              		.text
   3              	Ltext0:
   4              		.globl	_OS_STACK_CHECK
   6              	_OS_STACK_CHECK:
   7              	LFB0:
   8              		.file 1 "C:/Users/president/Desktop/sbx/input/src/os_base/os_stack.c"
   1:C:/Users/president/Desktop/sbx/input/src/os_base\os_stack.c **** #include "os_firstinc.h"
   2:C:/Users/president/Desktop/sbx/input/src/os_base\os_stack.c **** 
   3:C:/Users/president/Desktop/sbx/input/src/os_base\os_stack.c **** void OS_STACK_CHECK(void)
   4:C:/Users/president/Desktop/sbx/input/src/os_base\os_stack.c **** { 
   9              		.loc 1 4 1
  10              		.cfi_startproc
  11 0000 55       		pushl	%ebp
  12              		.cfi_def_cfa_offset 8
  13              		.cfi_offset 5, -8
  14 0001 89E5     		movl	%esp, %ebp
  15              		.cfi_def_cfa_register 5
  16 0003 83EC18   		subl	$24, %esp
   5:C:/Users/president/Desktop/sbx/input/src/os_base\os_stack.c ****    /* the last 64 bytes are reserved for stack check for every stack
   6:C:/Users/president/Desktop/sbx/input/src/os_base\os_stack.c ****    unsigned_char_t OS_MAIN_STACK[OS_MAIN_STACK_SIZE];
   7:C:/Users/president/Desktop/sbx/input/src/os_base\os_stack.c **** 
   8:C:/Users/president/Desktop/sbx/input/src/os_base\os_stack.c ****    the stack is starting at the highest address and growing to lower addresses -> pattern start on 
   9:C:/Users/president/Desktop/sbx/input/src/os_base\os_stack.c **** 
  10:C:/Users/president/Desktop/sbx/input/src/os_base\os_stack.c ****    */
  11:C:/Users/president/Desktop/sbx/input/src/os_base\os_stack.c ****    static volatile uint32 stack_pos = 0u, stack_used = FALSE;
  12:C:/Users/president/Desktop/sbx/input/src/os_base\os_stack.c ****    OS_MAIN_STACK_ADDR = (volatile uint32*)-1u;
  17              		.loc 1 12 23
  18 0006 C7050000 		movl	$-1, _OS_MAIN_STACK_ADDR
  18      0000FFFF 
  18      FFFF
  13:C:/Users/president/Desktop/sbx/input/src/os_base\os_stack.c ****    OS_MAIN_STACK_POS =  (volatile uint32) -1u;
  19              		.loc 1 13 22
  20 0010 C7050000 		movl	$-1, _OS_MAIN_STACK_POS
  20      0000FFFF 
  20      FFFF
  14:C:/Users/president/Desktop/sbx/input/src/os_base\os_stack.c ****    OS_MAIN_STACK_USAGE_PERCENT = 0u;
  21              		.loc 1 14 32
  22 001a C7050000 		movl	$0, _OS_MAIN_STACK_USAGE_PERCENT
  22      00000000 
  22      0000
  15:C:/Users/president/Desktop/sbx/input/src/os_base\os_stack.c **** 
  16:C:/Users/president/Desktop/sbx/input/src/os_base\os_stack.c ****    for(stack_pos = 0; stack_pos < OS_MAIN_STACK_SIZE; stack_pos++)
  23              		.loc 1 16 18
  24 0024 C7050000 		movl	$0, _stack_pos.1451
  24      00000000 
  24      0000
  25              		.loc 1 16 4
  26 002e EB4C     		jmp	L2
  27              	L4:
  17:C:/Users/president/Desktop/sbx/input/src/os_base\os_stack.c ****    {
  18:C:/Users/president/Desktop/sbx/input/src/os_base\os_stack.c ****       if(OS_MAIN_STACK[stack_pos] != 0xAA)
  28              		.loc 1 18 23
  29 0030 A1000000 		movl	_stack_pos.1451, %eax
  29      00
  30 0035 8A800000 		movb	_OS_MAIN_STACK(%eax), %al
  30      0000
GAS LISTING C:\Users\PRESID~1\AppData\Local\Temp\ccEn1xvk.s 			page 2


  31              		.loc 1 18 9
  32 003b 3CAA     		cmpb	$-86, %al
  33 003d 7432     		je	L3
  19:C:/Users/president/Desktop/sbx/input/src/os_base\os_stack.c ****       {
  20:C:/Users/president/Desktop/sbx/input/src/os_base\os_stack.c ****          stack_used = TRUE;
  34              		.loc 1 20 21
  35 003f C7050400 		movl	$1, _stack_used.1452
  35      00000100 
  35      0000
  21:C:/Users/president/Desktop/sbx/input/src/os_base\os_stack.c ****          if(stack_pos < OS_MAIN_STACK_POS)
  36              		.loc 1 21 23
  37 0049 8B150000 		movl	_stack_pos.1451, %edx
  37      0000
  38 004f A1000000 		movl	_OS_MAIN_STACK_POS, %eax
  38      00
  39              		.loc 1 21 12
  40 0054 39C2     		cmpl	%eax, %edx
  41 0056 7319     		jnb	L3
  22:C:/Users/president/Desktop/sbx/input/src/os_base\os_stack.c ****          {
  23:C:/Users/president/Desktop/sbx/input/src/os_base\os_stack.c ****             OS_MAIN_STACK_POS  = (volatile uint32 )stack_pos;
  42              		.loc 1 23 32
  43 0058 A1000000 		movl	_stack_pos.1451, %eax
  43      00
  44 005d A3000000 		movl	%eax, _OS_MAIN_STACK_POS
  44      00
  24:C:/Users/president/Desktop/sbx/input/src/os_base\os_stack.c ****             OS_MAIN_STACK_ADDR = (volatile uint32*)&OS_MAIN_STACK[stack_pos];
  45              		.loc 1 24 66
  46 0062 A1000000 		movl	_stack_pos.1451, %eax
  46      00
  47              		.loc 1 24 52
  48 0067 05000000 		addl	$_OS_MAIN_STACK, %eax
  48      00
  49              		.loc 1 24 32
  50 006c A3000000 		movl	%eax, _OS_MAIN_STACK_ADDR
  50      00
  51              	L3:
  16:C:/Users/president/Desktop/sbx/input/src/os_base\os_stack.c ****    {
  52              		.loc 1 16 64 discriminator 2
  53 0071 A1000000 		movl	_stack_pos.1451, %eax
  53      00
  54 0076 40       		incl	%eax
  55 0077 A3000000 		movl	%eax, _stack_pos.1451
  55      00
  56              	L2:
  16:C:/Users/president/Desktop/sbx/input/src/os_base\os_stack.c ****    {
  57              		.loc 1 16 33 discriminator 1
  58 007c A1000000 		movl	_stack_pos.1451, %eax
  58      00
  16:C:/Users/president/Desktop/sbx/input/src/os_base\os_stack.c ****    {
  59              		.loc 1 16 4 discriminator 1
  60 0081 3DFF0300 		cmpl	$1023, %eax
  60      00
  61 0086 76A8     		jbe	L4
  25:C:/Users/president/Desktop/sbx/input/src/os_base\os_stack.c ****          }
  26:C:/Users/president/Desktop/sbx/input/src/os_base\os_stack.c ****       }
  27:C:/Users/president/Desktop/sbx/input/src/os_base\os_stack.c ****    }
  28:C:/Users/president/Desktop/sbx/input/src/os_base\os_stack.c ****    for(stack_pos = 0; stack_pos < TASK0_STACK_SIZE; stack_pos++)
GAS LISTING C:\Users\PRESID~1\AppData\Local\Temp\ccEn1xvk.s 			page 3


  62              		.loc 1 28 18
  63 0088 C7050000 		movl	$0, _stack_pos.1451
  63      00000000 
  63      0000
  64              		.loc 1 28 4
  65 0092 EB4C     		jmp	L5
  66              	L7:
  29:C:/Users/president/Desktop/sbx/input/src/os_base\os_stack.c ****    {
  30:C:/Users/president/Desktop/sbx/input/src/os_base\os_stack.c ****       if(TASK0_STACK[stack_pos] != 0xAA)
  67              		.loc 1 30 21
  68 0094 A1000000 		movl	_stack_pos.1451, %eax
  68      00
  69 0099 8A800000 		movb	_TASK0_STACK(%eax), %al
  69      0000
  70              		.loc 1 30 9
  71 009f 3CAA     		cmpb	$-86, %al
  72 00a1 7432     		je	L6
  31:C:/Users/president/Desktop/sbx/input/src/os_base\os_stack.c ****       {
  32:C:/Users/president/Desktop/sbx/input/src/os_base\os_stack.c ****          stack_used = TRUE;
  73              		.loc 1 32 21
  74 00a3 C7050400 		movl	$1, _stack_used.1452
  74      00000100 
  74      0000
  33:C:/Users/president/Desktop/sbx/input/src/os_base\os_stack.c ****          if(stack_pos < TASK0_STACK_POS)
  75              		.loc 1 33 23
  76 00ad 8B150000 		movl	_stack_pos.1451, %edx
  76      0000
  77 00b3 A1000000 		movl	_TASK0_STACK_POS, %eax
  77      00
  78              		.loc 1 33 12
  79 00b8 39C2     		cmpl	%eax, %edx
  80 00ba 7319     		jnb	L6
  34:C:/Users/president/Desktop/sbx/input/src/os_base\os_stack.c ****          {
  35:C:/Users/president/Desktop/sbx/input/src/os_base\os_stack.c ****             TASK0_STACK_POS  = (volatile uint32 )stack_pos;
  81              		.loc 1 35 30
  82 00bc A1000000 		movl	_stack_pos.1451, %eax
  82      00
  83 00c1 A3000000 		movl	%eax, _TASK0_STACK_POS
  83      00
  36:C:/Users/president/Desktop/sbx/input/src/os_base\os_stack.c ****             TASK0_STACK_ADDR = (volatile uint32*)&TASK0_STACK[stack_pos];
  84              		.loc 1 36 62
  85 00c6 A1000000 		movl	_stack_pos.1451, %eax
  85      00
  86              		.loc 1 36 50
  87 00cb 05000000 		addl	$_TASK0_STACK, %eax
  87      00
  88              		.loc 1 36 30
  89 00d0 A3000000 		movl	%eax, _TASK0_STACK_ADDR
  89      00
  90              	L6:
  28:C:/Users/president/Desktop/sbx/input/src/os_base\os_stack.c ****    {
  91              		.loc 1 28 62 discriminator 2
  92 00d5 A1000000 		movl	_stack_pos.1451, %eax
  92      00
  93 00da 40       		incl	%eax
  94 00db A3000000 		movl	%eax, _stack_pos.1451
  94      00
GAS LISTING C:\Users\PRESID~1\AppData\Local\Temp\ccEn1xvk.s 			page 4


  95              	L5:
  28:C:/Users/president/Desktop/sbx/input/src/os_base\os_stack.c ****    {
  96              		.loc 1 28 33 discriminator 1
  97 00e0 A1000000 		movl	_stack_pos.1451, %eax
  97      00
  28:C:/Users/president/Desktop/sbx/input/src/os_base\os_stack.c ****    {
  98              		.loc 1 28 4 discriminator 1
  99 00e5 3DCF0700 		cmpl	$1999, %eax
  99      00
 100 00ea 76A8     		jbe	L7
  37:C:/Users/president/Desktop/sbx/input/src/os_base\os_stack.c ****          }
  38:C:/Users/president/Desktop/sbx/input/src/os_base\os_stack.c ****       }
  39:C:/Users/president/Desktop/sbx/input/src/os_base\os_stack.c ****    }
  40:C:/Users/president/Desktop/sbx/input/src/os_base\os_stack.c ****    for(stack_pos = 0; stack_pos < TASK1_STACK_SIZE; stack_pos++)
 101              		.loc 1 40 18
 102 00ec C7050000 		movl	$0, _stack_pos.1451
 102      00000000 
 102      0000
 103              		.loc 1 40 4
 104 00f6 EB4C     		jmp	L8
 105              	L10:
  41:C:/Users/president/Desktop/sbx/input/src/os_base\os_stack.c ****    {
  42:C:/Users/president/Desktop/sbx/input/src/os_base\os_stack.c ****       if(TASK1_STACK[stack_pos] != 0xAA)
 106              		.loc 1 42 21
 107 00f8 A1000000 		movl	_stack_pos.1451, %eax
 107      00
 108 00fd 8A800000 		movb	_TASK1_STACK(%eax), %al
 108      0000
 109              		.loc 1 42 9
 110 0103 3CAA     		cmpb	$-86, %al
 111 0105 7432     		je	L9
  43:C:/Users/president/Desktop/sbx/input/src/os_base\os_stack.c ****       {
  44:C:/Users/president/Desktop/sbx/input/src/os_base\os_stack.c ****          stack_used = TRUE;
 112              		.loc 1 44 21
 113 0107 C7050400 		movl	$1, _stack_used.1452
 113      00000100 
 113      0000
  45:C:/Users/president/Desktop/sbx/input/src/os_base\os_stack.c ****          if(stack_pos < TASK1_STACK_POS)
 114              		.loc 1 45 23
 115 0111 8B150000 		movl	_stack_pos.1451, %edx
 115      0000
 116 0117 A1000000 		movl	_TASK1_STACK_POS, %eax
 116      00
 117              		.loc 1 45 12
 118 011c 39C2     		cmpl	%eax, %edx
 119 011e 7319     		jnb	L9
  46:C:/Users/president/Desktop/sbx/input/src/os_base\os_stack.c ****          {
  47:C:/Users/president/Desktop/sbx/input/src/os_base\os_stack.c ****             TASK1_STACK_POS  = (volatile uint32 )stack_pos;
 120              		.loc 1 47 30
 121 0120 A1000000 		movl	_stack_pos.1451, %eax
 121      00
 122 0125 A3000000 		movl	%eax, _TASK1_STACK_POS
 122      00
  48:C:/Users/president/Desktop/sbx/input/src/os_base\os_stack.c ****             TASK1_STACK_ADDR = (volatile uint32*)&TASK1_STACK[stack_pos];
 123              		.loc 1 48 62
 124 012a A1000000 		movl	_stack_pos.1451, %eax
 124      00
GAS LISTING C:\Users\PRESID~1\AppData\Local\Temp\ccEn1xvk.s 			page 5


 125              		.loc 1 48 50
 126 012f 05000000 		addl	$_TASK1_STACK, %eax
 126      00
 127              		.loc 1 48 30
 128 0134 A3000000 		movl	%eax, _TASK1_STACK_ADDR
 128      00
 129              	L9:
  40:C:/Users/president/Desktop/sbx/input/src/os_base\os_stack.c ****    {
 130              		.loc 1 40 62 discriminator 2
 131 0139 A1000000 		movl	_stack_pos.1451, %eax
 131      00
 132 013e 40       		incl	%eax
 133 013f A3000000 		movl	%eax, _stack_pos.1451
 133      00
 134              	L8:
  40:C:/Users/president/Desktop/sbx/input/src/os_base\os_stack.c ****    {
 135              		.loc 1 40 33 discriminator 1
 136 0144 A1000000 		movl	_stack_pos.1451, %eax
 136      00
  40:C:/Users/president/Desktop/sbx/input/src/os_base\os_stack.c ****    {
 137              		.loc 1 40 4 discriminator 1
 138 0149 3DCF0700 		cmpl	$1999, %eax
 138      00
 139 014e 76A8     		jbe	L10
  49:C:/Users/president/Desktop/sbx/input/src/os_base\os_stack.c ****          }
  50:C:/Users/president/Desktop/sbx/input/src/os_base\os_stack.c ****       }
  51:C:/Users/president/Desktop/sbx/input/src/os_base\os_stack.c ****    }
  52:C:/Users/president/Desktop/sbx/input/src/os_base\os_stack.c ****    for(stack_pos = 0; stack_pos < TASK2_STACK_SIZE; stack_pos++)
 140              		.loc 1 52 18
 141 0150 C7050000 		movl	$0, _stack_pos.1451
 141      00000000 
 141      0000
 142              		.loc 1 52 4
 143 015a EB4C     		jmp	L11
 144              	L13:
  53:C:/Users/president/Desktop/sbx/input/src/os_base\os_stack.c ****    {
  54:C:/Users/president/Desktop/sbx/input/src/os_base\os_stack.c ****       if(TASK2_STACK[stack_pos] != 0xAA)
 145              		.loc 1 54 21
 146 015c A1000000 		movl	_stack_pos.1451, %eax
 146      00
 147 0161 8A800000 		movb	_TASK2_STACK(%eax), %al
 147      0000
 148              		.loc 1 54 9
 149 0167 3CAA     		cmpb	$-86, %al
 150 0169 7432     		je	L12
  55:C:/Users/president/Desktop/sbx/input/src/os_base\os_stack.c ****       {
  56:C:/Users/president/Desktop/sbx/input/src/os_base\os_stack.c ****          stack_used = TRUE;
 151              		.loc 1 56 21
 152 016b C7050400 		movl	$1, _stack_used.1452
 152      00000100 
 152      0000
  57:C:/Users/president/Desktop/sbx/input/src/os_base\os_stack.c ****          if(stack_pos < TASK2_STACK_POS)
 153              		.loc 1 57 23
 154 0175 8B150000 		movl	_stack_pos.1451, %edx
 154      0000
 155 017b A1000000 		movl	_TASK2_STACK_POS, %eax
 155      00
GAS LISTING C:\Users\PRESID~1\AppData\Local\Temp\ccEn1xvk.s 			page 6


 156              		.loc 1 57 12
 157 0180 39C2     		cmpl	%eax, %edx
 158 0182 7319     		jnb	L12
  58:C:/Users/president/Desktop/sbx/input/src/os_base\os_stack.c ****          {
  59:C:/Users/president/Desktop/sbx/input/src/os_base\os_stack.c ****             TASK2_STACK_POS  = (volatile uint32 )stack_pos;
 159              		.loc 1 59 30
 160 0184 A1000000 		movl	_stack_pos.1451, %eax
 160      00
 161 0189 A3000000 		movl	%eax, _TASK2_STACK_POS
 161      00
  60:C:/Users/president/Desktop/sbx/input/src/os_base\os_stack.c ****             TASK2_STACK_ADDR = (volatile uint32*)&TASK2_STACK[stack_pos];
 162              		.loc 1 60 62
 163 018e A1000000 		movl	_stack_pos.1451, %eax
 163      00
 164              		.loc 1 60 50
 165 0193 05000000 		addl	$_TASK2_STACK, %eax
 165      00
 166              		.loc 1 60 30
 167 0198 A3000000 		movl	%eax, _TASK2_STACK_ADDR
 167      00
 168              	L12:
  52:C:/Users/president/Desktop/sbx/input/src/os_base\os_stack.c ****    {
 169              		.loc 1 52 62 discriminator 2
 170 019d A1000000 		movl	_stack_pos.1451, %eax
 170      00
 171 01a2 40       		incl	%eax
 172 01a3 A3000000 		movl	%eax, _stack_pos.1451
 172      00
 173              	L11:
  52:C:/Users/president/Desktop/sbx/input/src/os_base\os_stack.c ****    {
 174              		.loc 1 52 33 discriminator 1
 175 01a8 A1000000 		movl	_stack_pos.1451, %eax
 175      00
  52:C:/Users/president/Desktop/sbx/input/src/os_base\os_stack.c ****    {
 176              		.loc 1 52 4 discriminator 1
 177 01ad 3DCF0700 		cmpl	$1999, %eax
 177      00
 178 01b2 76A8     		jbe	L13
  61:C:/Users/president/Desktop/sbx/input/src/os_base\os_stack.c ****          }
  62:C:/Users/president/Desktop/sbx/input/src/os_base\os_stack.c ****       }
  63:C:/Users/president/Desktop/sbx/input/src/os_base\os_stack.c ****    }
  64:C:/Users/president/Desktop/sbx/input/src/os_base\os_stack.c ****    for(stack_pos = 0; stack_pos < TASK3_STACK_SIZE; stack_pos++)
 179              		.loc 1 64 18
 180 01b4 C7050000 		movl	$0, _stack_pos.1451
 180      00000000 
 180      0000
 181              		.loc 1 64 4
 182 01be EB4C     		jmp	L14
 183              	L16:
  65:C:/Users/president/Desktop/sbx/input/src/os_base\os_stack.c ****    {
  66:C:/Users/president/Desktop/sbx/input/src/os_base\os_stack.c ****       if(TASK3_STACK[stack_pos] != 0xAA)
 184              		.loc 1 66 21
 185 01c0 A1000000 		movl	_stack_pos.1451, %eax
 185      00
 186 01c5 8A800000 		movb	_TASK3_STACK(%eax), %al
 186      0000
 187              		.loc 1 66 9
GAS LISTING C:\Users\PRESID~1\AppData\Local\Temp\ccEn1xvk.s 			page 7


 188 01cb 3CAA     		cmpb	$-86, %al
 189 01cd 7432     		je	L15
  67:C:/Users/president/Desktop/sbx/input/src/os_base\os_stack.c ****       {
  68:C:/Users/president/Desktop/sbx/input/src/os_base\os_stack.c ****          stack_used = TRUE;
 190              		.loc 1 68 21
 191 01cf C7050400 		movl	$1, _stack_used.1452
 191      00000100 
 191      0000
  69:C:/Users/president/Desktop/sbx/input/src/os_base\os_stack.c ****          if(stack_pos < TASK3_STACK_POS)
 192              		.loc 1 69 23
 193 01d9 8B150000 		movl	_stack_pos.1451, %edx
 193      0000
 194 01df A1000000 		movl	_TASK3_STACK_POS, %eax
 194      00
 195              		.loc 1 69 12
 196 01e4 39C2     		cmpl	%eax, %edx
 197 01e6 7319     		jnb	L15
  70:C:/Users/president/Desktop/sbx/input/src/os_base\os_stack.c ****          {
  71:C:/Users/president/Desktop/sbx/input/src/os_base\os_stack.c ****             TASK3_STACK_POS  = (volatile uint32 )stack_pos;
 198              		.loc 1 71 30
 199 01e8 A1000000 		movl	_stack_pos.1451, %eax
 199      00
 200 01ed A3000000 		movl	%eax, _TASK3_STACK_POS
 200      00
  72:C:/Users/president/Desktop/sbx/input/src/os_base\os_stack.c ****             TASK3_STACK_ADDR = (volatile uint32*)&TASK3_STACK[stack_pos];
 201              		.loc 1 72 62
 202 01f2 A1000000 		movl	_stack_pos.1451, %eax
 202      00
 203              		.loc 1 72 50
 204 01f7 05000000 		addl	$_TASK3_STACK, %eax
 204      00
 205              		.loc 1 72 30
 206 01fc A3000000 		movl	%eax, _TASK3_STACK_ADDR
 206      00
 207              	L15:
  64:C:/Users/president/Desktop/sbx/input/src/os_base\os_stack.c ****    {
 208              		.loc 1 64 62 discriminator 2
 209 0201 A1000000 		movl	_stack_pos.1451, %eax
 209      00
 210 0206 40       		incl	%eax
 211 0207 A3000000 		movl	%eax, _stack_pos.1451
 211      00
 212              	L14:
  64:C:/Users/president/Desktop/sbx/input/src/os_base\os_stack.c ****    {
 213              		.loc 1 64 33 discriminator 1
 214 020c A1000000 		movl	_stack_pos.1451, %eax
 214      00
  64:C:/Users/president/Desktop/sbx/input/src/os_base\os_stack.c ****    {
 215              		.loc 1 64 4 discriminator 1
 216 0211 3DCF0700 		cmpl	$1999, %eax
 216      00
 217 0216 76A8     		jbe	L16
  73:C:/Users/president/Desktop/sbx/input/src/os_base\os_stack.c ****          }
  74:C:/Users/president/Desktop/sbx/input/src/os_base\os_stack.c ****       }
  75:C:/Users/president/Desktop/sbx/input/src/os_base\os_stack.c ****    }
  76:C:/Users/president/Desktop/sbx/input/src/os_base\os_stack.c ****    for(stack_pos = 0; stack_pos < TASK4_STACK_SIZE; stack_pos++)
 218              		.loc 1 76 18
GAS LISTING C:\Users\PRESID~1\AppData\Local\Temp\ccEn1xvk.s 			page 8


 219 0218 C7050000 		movl	$0, _stack_pos.1451
 219      00000000 
 219      0000
 220              		.loc 1 76 4
 221 0222 EB4C     		jmp	L17
 222              	L19:
  77:C:/Users/president/Desktop/sbx/input/src/os_base\os_stack.c ****    {
  78:C:/Users/president/Desktop/sbx/input/src/os_base\os_stack.c ****       if(TASK4_STACK[stack_pos] != 0xAA)
 223              		.loc 1 78 21
 224 0224 A1000000 		movl	_stack_pos.1451, %eax
 224      00
 225 0229 8A800000 		movb	_TASK4_STACK(%eax), %al
 225      0000
 226              		.loc 1 78 9
 227 022f 3CAA     		cmpb	$-86, %al
 228 0231 7432     		je	L18
  79:C:/Users/president/Desktop/sbx/input/src/os_base\os_stack.c ****       {
  80:C:/Users/president/Desktop/sbx/input/src/os_base\os_stack.c ****          stack_used = TRUE;
 229              		.loc 1 80 21
 230 0233 C7050400 		movl	$1, _stack_used.1452
 230      00000100 
 230      0000
  81:C:/Users/president/Desktop/sbx/input/src/os_base\os_stack.c ****          if(stack_pos < TASK4_STACK_POS)
 231              		.loc 1 81 23
 232 023d 8B150000 		movl	_stack_pos.1451, %edx
 232      0000
 233 0243 A1000000 		movl	_TASK4_STACK_POS, %eax
 233      00
 234              		.loc 1 81 12
 235 0248 39C2     		cmpl	%eax, %edx
 236 024a 7319     		jnb	L18
  82:C:/Users/president/Desktop/sbx/input/src/os_base\os_stack.c ****          {
  83:C:/Users/president/Desktop/sbx/input/src/os_base\os_stack.c ****             TASK4_STACK_POS  = (volatile uint32 )stack_pos;
 237              		.loc 1 83 30
 238 024c A1000000 		movl	_stack_pos.1451, %eax
 238      00
 239 0251 A3000000 		movl	%eax, _TASK4_STACK_POS
 239      00
  84:C:/Users/president/Desktop/sbx/input/src/os_base\os_stack.c ****             TASK4_STACK_ADDR = (volatile uint32*)&TASK4_STACK[stack_pos];
 240              		.loc 1 84 62
 241 0256 A1000000 		movl	_stack_pos.1451, %eax
 241      00
 242              		.loc 1 84 50
 243 025b 05000000 		addl	$_TASK4_STACK, %eax
 243      00
 244              		.loc 1 84 30
 245 0260 A3000000 		movl	%eax, _TASK4_STACK_ADDR
 245      00
 246              	L18:
  76:C:/Users/president/Desktop/sbx/input/src/os_base\os_stack.c ****    {
 247              		.loc 1 76 62 discriminator 2
 248 0265 A1000000 		movl	_stack_pos.1451, %eax
 248      00
 249 026a 40       		incl	%eax
 250 026b A3000000 		movl	%eax, _stack_pos.1451
 250      00
 251              	L17:
GAS LISTING C:\Users\PRESID~1\AppData\Local\Temp\ccEn1xvk.s 			page 9


  76:C:/Users/president/Desktop/sbx/input/src/os_base\os_stack.c ****    {
 252              		.loc 1 76 33 discriminator 1
 253 0270 A1000000 		movl	_stack_pos.1451, %eax
 253      00
  76:C:/Users/president/Desktop/sbx/input/src/os_base\os_stack.c ****    {
 254              		.loc 1 76 4 discriminator 1
 255 0275 3DCF0700 		cmpl	$1999, %eax
 255      00
 256 027a 76A8     		jbe	L19
  85:C:/Users/president/Desktop/sbx/input/src/os_base\os_stack.c ****          }
  86:C:/Users/president/Desktop/sbx/input/src/os_base\os_stack.c ****       }
  87:C:/Users/president/Desktop/sbx/input/src/os_base\os_stack.c ****    }   
  88:C:/Users/president/Desktop/sbx/input/src/os_base\os_stack.c ****    OS_MAIN_STACK_USAGE_PERCENT = (OS_MAIN_STACK_SIZE - OS_MAIN_STACK_POS) * 100u / OS_MAIN_STACK_SI
 257              		.loc 1 88 75
 258 027c 8B150000 		movl	_OS_MAIN_STACK_POS, %edx
 258      0000
 259 0282 89D0     		movl	%edx, %eax
 260 0284 C1E002   		sall	$2, %eax
 261 0287 01D0     		addl	%edx, %eax
 262 0289 8D148500 		leal	0(,%eax,4), %edx
 262      000000
 263 0290 01D0     		addl	%edx, %eax
 264 0292 C1E002   		sall	$2, %eax
 265 0295 F7D8     		negl	%eax
 266 0297 05009001 		addl	$102400, %eax
 266      00
 267              		.loc 1 88 82
 268 029c C1E80A   		shrl	$10, %eax
 269              		.loc 1 88 32
 270 029f A3000000 		movl	%eax, _OS_MAIN_STACK_USAGE_PERCENT
 270      00
  89:C:/Users/president/Desktop/sbx/input/src/os_base\os_stack.c ****    TASK0_STACK_USAGE_PERCENT   = (TASK0_STACK_SIZE - TASK0_STACK_POS) * 100u / TASK0_STACK_SIZE;
 271              		.loc 1 89 71
 272 02a4 8B150000 		movl	_TASK0_STACK_POS, %edx
 272      0000
 273 02aa 89D0     		movl	%edx, %eax
 274 02ac C1E002   		sall	$2, %eax
 275 02af 01D0     		addl	%edx, %eax
 276 02b1 8D148500 		leal	0(,%eax,4), %edx
 276      000000
 277 02b8 01D0     		addl	%edx, %eax
 278 02ba C1E002   		sall	$2, %eax
 279 02bd F7D8     		negl	%eax
 280 02bf 8D90400D 		leal	200000(%eax), %edx
 280      0300
 281              		.loc 1 89 78
 282 02c5 B8D34D62 		movl	$274877907, %eax
 282      10
 283 02ca F7E2     		mull	%edx
 284 02cc 89D0     		movl	%edx, %eax
 285 02ce C1E807   		shrl	$7, %eax
 286              		.loc 1 89 32
 287 02d1 A3000000 		movl	%eax, _TASK0_STACK_USAGE_PERCENT
 287      00
  90:C:/Users/president/Desktop/sbx/input/src/os_base\os_stack.c ****    TASK1_STACK_USAGE_PERCENT   = (TASK1_STACK_SIZE - TASK1_STACK_POS) * 100u / TASK1_STACK_SIZE;
 288              		.loc 1 90 71
 289 02d6 8B150000 		movl	_TASK1_STACK_POS, %edx
GAS LISTING C:\Users\PRESID~1\AppData\Local\Temp\ccEn1xvk.s 			page 10


 289      0000
 290 02dc 89D0     		movl	%edx, %eax
 291 02de C1E002   		sall	$2, %eax
 292 02e1 01D0     		addl	%edx, %eax
 293 02e3 8D148500 		leal	0(,%eax,4), %edx
 293      000000
 294 02ea 01D0     		addl	%edx, %eax
 295 02ec C1E002   		sall	$2, %eax
 296 02ef F7D8     		negl	%eax
 297 02f1 8D90400D 		leal	200000(%eax), %edx
 297      0300
 298              		.loc 1 90 78
 299 02f7 B8D34D62 		movl	$274877907, %eax
 299      10
 300 02fc F7E2     		mull	%edx
 301 02fe 89D0     		movl	%edx, %eax
 302 0300 C1E807   		shrl	$7, %eax
 303              		.loc 1 90 32
 304 0303 A3000000 		movl	%eax, _TASK1_STACK_USAGE_PERCENT
 304      00
  91:C:/Users/president/Desktop/sbx/input/src/os_base\os_stack.c ****    TASK2_STACK_USAGE_PERCENT   = (TASK2_STACK_SIZE - TASK2_STACK_POS) * 100u / TASK2_STACK_SIZE;
 305              		.loc 1 91 71
 306 0308 8B150000 		movl	_TASK2_STACK_POS, %edx
 306      0000
 307 030e 89D0     		movl	%edx, %eax
 308 0310 C1E002   		sall	$2, %eax
 309 0313 01D0     		addl	%edx, %eax
 310 0315 8D148500 		leal	0(,%eax,4), %edx
 310      000000
 311 031c 01D0     		addl	%edx, %eax
 312 031e C1E002   		sall	$2, %eax
 313 0321 F7D8     		negl	%eax
 314 0323 8D90400D 		leal	200000(%eax), %edx
 314      0300
 315              		.loc 1 91 78
 316 0329 B8D34D62 		movl	$274877907, %eax
 316      10
 317 032e F7E2     		mull	%edx
 318 0330 89D0     		movl	%edx, %eax
 319 0332 C1E807   		shrl	$7, %eax
 320              		.loc 1 91 32
 321 0335 A3000000 		movl	%eax, _TASK2_STACK_USAGE_PERCENT
 321      00
  92:C:/Users/president/Desktop/sbx/input/src/os_base\os_stack.c ****    TASK3_STACK_USAGE_PERCENT   = (TASK3_STACK_SIZE - TASK3_STACK_POS) * 100u / TASK3_STACK_SIZE;
 322              		.loc 1 92 71
 323 033a 8B150000 		movl	_TASK3_STACK_POS, %edx
 323      0000
 324 0340 89D0     		movl	%edx, %eax
 325 0342 C1E002   		sall	$2, %eax
 326 0345 01D0     		addl	%edx, %eax
 327 0347 8D148500 		leal	0(,%eax,4), %edx
 327      000000
 328 034e 01D0     		addl	%edx, %eax
 329 0350 C1E002   		sall	$2, %eax
 330 0353 F7D8     		negl	%eax
 331 0355 8D90400D 		leal	200000(%eax), %edx
 331      0300
GAS LISTING C:\Users\PRESID~1\AppData\Local\Temp\ccEn1xvk.s 			page 11


 332              		.loc 1 92 78
 333 035b B8D34D62 		movl	$274877907, %eax
 333      10
 334 0360 F7E2     		mull	%edx
 335 0362 89D0     		movl	%edx, %eax
 336 0364 C1E807   		shrl	$7, %eax
 337              		.loc 1 92 32
 338 0367 A3000000 		movl	%eax, _TASK3_STACK_USAGE_PERCENT
 338      00
  93:C:/Users/president/Desktop/sbx/input/src/os_base\os_stack.c ****    TASK4_STACK_USAGE_PERCENT   = (TASK4_STACK_SIZE - TASK4_STACK_POS) * 100u / TASK4_STACK_SIZE;
 339              		.loc 1 93 71
 340 036c 8B150000 		movl	_TASK4_STACK_POS, %edx
 340      0000
 341 0372 89D0     		movl	%edx, %eax
 342 0374 C1E002   		sall	$2, %eax
 343 0377 01D0     		addl	%edx, %eax
 344 0379 8D148500 		leal	0(,%eax,4), %edx
 344      000000
 345 0380 01D0     		addl	%edx, %eax
 346 0382 C1E002   		sall	$2, %eax
 347 0385 F7D8     		negl	%eax
 348 0387 8D90400D 		leal	200000(%eax), %edx
 348      0300
 349              		.loc 1 93 78
 350 038d B8D34D62 		movl	$274877907, %eax
 350      10
 351 0392 F7E2     		mull	%edx
 352 0394 89D0     		movl	%edx, %eax
 353 0396 C1E807   		shrl	$7, %eax
 354              		.loc 1 93 32
 355 0399 A3000000 		movl	%eax, _TASK4_STACK_USAGE_PERCENT
 355      00
  94:C:/Users/president/Desktop/sbx/input/src/os_base\os_stack.c **** 
  95:C:/Users/president/Desktop/sbx/input/src/os_base\os_stack.c ****    if((stack_used == TRUE) && ((OS_MAIN_STACK_USAGE_PERCENT > 80u) || (TASK0_STACK_USAGE_PERCENT > 
 356              		.loc 1 95 19
 357 039e A1040000 		movl	_stack_used.1452, %eax
 357      00
 358              		.loc 1 95 6
 359 03a3 83F801   		cmpl	$1, %eax
 360 03a6 7552     		jne	L23
 361              		.loc 1 95 61 discriminator 1
 362 03a8 A1000000 		movl	_OS_MAIN_STACK_USAGE_PERCENT, %eax
 362      00
 363              		.loc 1 95 28 discriminator 1
 364 03ad 83F850   		cmpl	$80, %eax
 365 03b0 7732     		ja	L21
 366              		.loc 1 95 98 discriminator 2
 367 03b2 A1000000 		movl	_TASK0_STACK_USAGE_PERCENT, %eax
 367      00
 368              		.loc 1 95 68 discriminator 2
 369 03b7 83F850   		cmpl	$80, %eax
 370 03ba 7728     		ja	L21
 371              		.loc 1 95 135 discriminator 3
 372 03bc A1000000 		movl	_TASK1_STACK_USAGE_PERCENT, %eax
 372      00
 373              		.loc 1 95 105 discriminator 3
 374 03c1 83F850   		cmpl	$80, %eax
GAS LISTING C:\Users\PRESID~1\AppData\Local\Temp\ccEn1xvk.s 			page 12


 375 03c4 771E     		ja	L21
 376              		.loc 1 95 172 discriminator 4
 377 03c6 A1000000 		movl	_TASK2_STACK_USAGE_PERCENT, %eax
 377      00
 378              		.loc 1 95 142 discriminator 4
 379 03cb 83F850   		cmpl	$80, %eax
 380 03ce 7714     		ja	L21
 381              		.loc 1 95 209 discriminator 5
 382 03d0 A1000000 		movl	_TASK3_STACK_USAGE_PERCENT, %eax
 382      00
 383              		.loc 1 95 179 discriminator 5
 384 03d5 83F850   		cmpl	$80, %eax
 385 03d8 770A     		ja	L21
 386              		.loc 1 95 246 discriminator 6
 387 03da A1000000 		movl	_TASK4_STACK_USAGE_PERCENT, %eax
 387      00
 388              		.loc 1 95 216 discriminator 6
 389 03df 83F850   		cmpl	$80, %eax
 390 03e2 7616     		jbe	L23
 391              	L21:
  96:C:/Users/president/Desktop/sbx/input/src/os_base\os_stack.c ****    {
  97:C:/Users/president/Desktop/sbx/input/src/os_base\os_stack.c ****       OS_SET_SW_BUG(E_OS_BUG_CRITICAL_STACK_USAGE,E_FUNC_STACKCHECK);
 392              		.loc 1 97 7
 393 03e4 C7442404 		movl	$17, 4(%esp)
 393      11000000 
 394 03ec C7042409 		movl	$9, (%esp)
 394      000000
 395 03f3 E8000000 		call	_OS_SET_SW_BUG
 395      00
 396              	L22:
  98:C:/Users/president/Desktop/sbx/input/src/os_base\os_stack.c ****       while(1)
 397              		.loc 1 98 12 discriminator 1
 398 03f8 EBFE     		jmp	L22
 399              	L23:
  99:C:/Users/president/Desktop/sbx/input/src/os_base\os_stack.c ****       {
 100:C:/Users/president/Desktop/sbx/input/src/os_base\os_stack.c ****          /* allow easy debugging */
 101:C:/Users/president/Desktop/sbx/input/src/os_base\os_stack.c ****       }
 102:C:/Users/president/Desktop/sbx/input/src/os_base\os_stack.c ****    }
 103:C:/Users/president/Desktop/sbx/input/src/os_base\os_stack.c **** }
 400              		.loc 1 103 1
 401 03fa 90       		nop
 402 03fb C9       		leave
 403              		.cfi_restore 5
 404              		.cfi_def_cfa 4, 4
 405 03fc C3       		ret
 406              		.cfi_endproc
 407              	LFE0:
 408              		.globl	_OS_STACK_CHK_PATTERN_INIT
 410              	_OS_STACK_CHK_PATTERN_INIT:
 411              	LFB1:
 104:C:/Users/president/Desktop/sbx/input/src/os_base\os_stack.c **** #if(CFG_PROCESSOR == MCU_X86)
 105:C:/Users/president/Desktop/sbx/input/src/os_base\os_stack.c **** /* this is done for CortexM4 in function INIT_OS_MAIN_STACK() on assembler level, because no stack 
 106:C:/Users/president/Desktop/sbx/input/src/os_base\os_stack.c **** void OS_STACK_CHK_PATTERN_INIT(void)
 107:C:/Users/president/Desktop/sbx/input/src/os_base\os_stack.c **** {
 412              		.loc 1 107 1
 413              		.cfi_startproc
 414 03fd 55       		pushl	%ebp
GAS LISTING C:\Users\PRESID~1\AppData\Local\Temp\ccEn1xvk.s 			page 13


 415              		.cfi_def_cfa_offset 8
 416              		.cfi_offset 5, -8
 417 03fe 89E5     		movl	%esp, %ebp
 418              		.cfi_def_cfa_register 5
 419 0400 83EC10   		subl	$16, %esp
 108:C:/Users/president/Desktop/sbx/input/src/os_base\os_stack.c ****    uint32 stack_pos = 0u;
 420              		.loc 1 108 11
 421 0403 C745FC00 		movl	$0, -4(%ebp)
 421      000000
 109:C:/Users/president/Desktop/sbx/input/src/os_base\os_stack.c ****    /* init the stack with 0xAA (only the highest 64 bytes leave out, because they might be already 
 110:C:/Users/president/Desktop/sbx/input/src/os_base\os_stack.c ****    for(stack_pos = 0u; stack_pos < (OS_MAIN_STACK_SIZE-64u); stack_pos++)
 422              		.loc 1 110 18
 423 040a C745FC00 		movl	$0, -4(%ebp)
 423      000000
 424              		.loc 1 110 4
 425 0411 EB0E     		jmp	L25
 426              	L26:
 111:C:/Users/president/Desktop/sbx/input/src/os_base\os_stack.c ****    {
 112:C:/Users/president/Desktop/sbx/input/src/os_base\os_stack.c ****       OS_MAIN_STACK[stack_pos] = 0xAAu;
 427              		.loc 1 112 32 discriminator 3
 428 0413 8B45FC   		movl	-4(%ebp), %eax
 429 0416 05000000 		addl	$_OS_MAIN_STACK, %eax
 429      00
 430 041b C600AA   		movb	$-86, (%eax)
 110:C:/Users/president/Desktop/sbx/input/src/os_base\os_stack.c ****    {
 431              		.loc 1 110 71 discriminator 3
 432 041e FF45FC   		incl	-4(%ebp)
 433              	L25:
 110:C:/Users/president/Desktop/sbx/input/src/os_base\os_stack.c ****    {
 434              		.loc 1 110 4 discriminator 1
 435 0421 817DFCBF 		cmpl	$959, -4(%ebp)
 435      030000
 436 0428 76E9     		jbe	L26
 113:C:/Users/president/Desktop/sbx/input/src/os_base\os_stack.c ****    }
 114:C:/Users/president/Desktop/sbx/input/src/os_base\os_stack.c ****    for(stack_pos = 0u; stack_pos < (TASK0_STACK_SIZE-64u); stack_pos++)
 437              		.loc 1 114 18
 438 042a C745FC00 		movl	$0, -4(%ebp)
 438      000000
 439              		.loc 1 114 4
 440 0431 EB0E     		jmp	L27
 441              	L28:
 115:C:/Users/president/Desktop/sbx/input/src/os_base\os_stack.c ****    {
 116:C:/Users/president/Desktop/sbx/input/src/os_base\os_stack.c ****       TASK0_STACK[stack_pos] = 0xAAu;
 442              		.loc 1 116 30 discriminator 3
 443 0433 8B45FC   		movl	-4(%ebp), %eax
 444 0436 05000000 		addl	$_TASK0_STACK, %eax
 444      00
 445 043b C600AA   		movb	$-86, (%eax)
 114:C:/Users/president/Desktop/sbx/input/src/os_base\os_stack.c ****    {
 446              		.loc 1 114 69 discriminator 3
 447 043e FF45FC   		incl	-4(%ebp)
 448              	L27:
 114:C:/Users/president/Desktop/sbx/input/src/os_base\os_stack.c ****    {
 449              		.loc 1 114 4 discriminator 1
 450 0441 817DFC8F 		cmpl	$1935, -4(%ebp)
 450      070000
 451 0448 76E9     		jbe	L28
GAS LISTING C:\Users\PRESID~1\AppData\Local\Temp\ccEn1xvk.s 			page 14


 117:C:/Users/president/Desktop/sbx/input/src/os_base\os_stack.c ****    }
 118:C:/Users/president/Desktop/sbx/input/src/os_base\os_stack.c ****    for(stack_pos = 0u; stack_pos < (TASK1_STACK_SIZE-64u); stack_pos++)
 452              		.loc 1 118 18
 453 044a C745FC00 		movl	$0, -4(%ebp)
 453      000000
 454              		.loc 1 118 4
 455 0451 EB0E     		jmp	L29
 456              	L30:
 119:C:/Users/president/Desktop/sbx/input/src/os_base\os_stack.c ****    {
 120:C:/Users/president/Desktop/sbx/input/src/os_base\os_stack.c ****       TASK1_STACK[stack_pos] = 0xAAu;
 457              		.loc 1 120 30 discriminator 3
 458 0453 8B45FC   		movl	-4(%ebp), %eax
 459 0456 05000000 		addl	$_TASK1_STACK, %eax
 459      00
 460 045b C600AA   		movb	$-86, (%eax)
 118:C:/Users/president/Desktop/sbx/input/src/os_base\os_stack.c ****    {
 461              		.loc 1 118 69 discriminator 3
 462 045e FF45FC   		incl	-4(%ebp)
 463              	L29:
 118:C:/Users/president/Desktop/sbx/input/src/os_base\os_stack.c ****    {
 464              		.loc 1 118 4 discriminator 1
 465 0461 817DFC8F 		cmpl	$1935, -4(%ebp)
 465      070000
 466 0468 76E9     		jbe	L30
 121:C:/Users/president/Desktop/sbx/input/src/os_base\os_stack.c ****    }
 122:C:/Users/president/Desktop/sbx/input/src/os_base\os_stack.c ****    for(stack_pos = 0u; stack_pos < (TASK2_STACK_SIZE-64u); stack_pos++)
 467              		.loc 1 122 18
 468 046a C745FC00 		movl	$0, -4(%ebp)
 468      000000
 469              		.loc 1 122 4
 470 0471 EB0E     		jmp	L31
 471              	L32:
 123:C:/Users/president/Desktop/sbx/input/src/os_base\os_stack.c ****    {
 124:C:/Users/president/Desktop/sbx/input/src/os_base\os_stack.c ****       TASK2_STACK[stack_pos] = 0xAAu;
 472              		.loc 1 124 30 discriminator 3
 473 0473 8B45FC   		movl	-4(%ebp), %eax
 474 0476 05000000 		addl	$_TASK2_STACK, %eax
 474      00
 475 047b C600AA   		movb	$-86, (%eax)
 122:C:/Users/president/Desktop/sbx/input/src/os_base\os_stack.c ****    {
 476              		.loc 1 122 69 discriminator 3
 477 047e FF45FC   		incl	-4(%ebp)
 478              	L31:
 122:C:/Users/president/Desktop/sbx/input/src/os_base\os_stack.c ****    {
 479              		.loc 1 122 4 discriminator 1
 480 0481 817DFC8F 		cmpl	$1935, -4(%ebp)
 480      070000
 481 0488 76E9     		jbe	L32
 125:C:/Users/president/Desktop/sbx/input/src/os_base\os_stack.c ****    }
 126:C:/Users/president/Desktop/sbx/input/src/os_base\os_stack.c ****    for(stack_pos = 0u; stack_pos < (TASK3_STACK_SIZE-64u); stack_pos++)
 482              		.loc 1 126 18
 483 048a C745FC00 		movl	$0, -4(%ebp)
 483      000000
 484              		.loc 1 126 4
 485 0491 EB0E     		jmp	L33
 486              	L34:
 127:C:/Users/president/Desktop/sbx/input/src/os_base\os_stack.c ****    {
GAS LISTING C:\Users\PRESID~1\AppData\Local\Temp\ccEn1xvk.s 			page 15


 128:C:/Users/president/Desktop/sbx/input/src/os_base\os_stack.c ****       TASK3_STACK[stack_pos] = 0xAAu;
 487              		.loc 1 128 30 discriminator 3
 488 0493 8B45FC   		movl	-4(%ebp), %eax
 489 0496 05000000 		addl	$_TASK3_STACK, %eax
 489      00
 490 049b C600AA   		movb	$-86, (%eax)
 126:C:/Users/president/Desktop/sbx/input/src/os_base\os_stack.c ****    {
 491              		.loc 1 126 69 discriminator 3
 492 049e FF45FC   		incl	-4(%ebp)
 493              	L33:
 126:C:/Users/president/Desktop/sbx/input/src/os_base\os_stack.c ****    {
 494              		.loc 1 126 4 discriminator 1
 495 04a1 817DFC8F 		cmpl	$1935, -4(%ebp)
 495      070000
 496 04a8 76E9     		jbe	L34
 129:C:/Users/president/Desktop/sbx/input/src/os_base\os_stack.c ****    }   
 130:C:/Users/president/Desktop/sbx/input/src/os_base\os_stack.c ****    for(stack_pos = 0u; stack_pos < (TASK4_STACK_SIZE-64u); stack_pos++)
 497              		.loc 1 130 18
 498 04aa C745FC00 		movl	$0, -4(%ebp)
 498      000000
 499              		.loc 1 130 4
 500 04b1 EB0E     		jmp	L35
 501              	L36:
 131:C:/Users/president/Desktop/sbx/input/src/os_base\os_stack.c ****    {
 132:C:/Users/president/Desktop/sbx/input/src/os_base\os_stack.c ****       TASK4_STACK[stack_pos] = 0xAAu;
 502              		.loc 1 132 30 discriminator 3
 503 04b3 8B45FC   		movl	-4(%ebp), %eax
 504 04b6 05000000 		addl	$_TASK4_STACK, %eax
 504      00
 505 04bb C600AA   		movb	$-86, (%eax)
 130:C:/Users/president/Desktop/sbx/input/src/os_base\os_stack.c ****    {
 506              		.loc 1 130 69 discriminator 3
 507 04be FF45FC   		incl	-4(%ebp)
 508              	L35:
 130:C:/Users/president/Desktop/sbx/input/src/os_base\os_stack.c ****    {
 509              		.loc 1 130 4 discriminator 1
 510 04c1 817DFC8F 		cmpl	$1935, -4(%ebp)
 510      070000
 511 04c8 76E9     		jbe	L36
 133:C:/Users/president/Desktop/sbx/input/src/os_base\os_stack.c ****    }      
 134:C:/Users/president/Desktop/sbx/input/src/os_base\os_stack.c **** }
 512              		.loc 1 134 1
 513 04ca 90       		nop
 514 04cb C9       		leave
 515              		.cfi_restore 5
 516              		.cfi_def_cfa 4, 4
 517 04cc C3       		ret
 518              		.cfi_endproc
 519              	LFE1:
 520              	.lcomm _stack_pos.1451,4,4
 521              	.lcomm _stack_used.1452,4,4
 522              	Letext0:
 523              		.file 2 "c:/users/president/desktop/sbx/input/src/os_base/os_base_types.h"
 524              		.file 3 "c:/users/president/desktop/sbx/input/src/os_base/os_common.h"
 525              		.file 4 "c:/users/president/desktop/sbx/input/src/os_sim/lld_core.h"
 526              		.file 5 "c:/users/president/desktop/sbx/input/src/os_base/os_task_common.h"
 527              		.file 6 "C:/Users/president/Desktop/sbx/input/src/os_base/os_main.h"
GAS LISTING C:\Users\PRESID~1\AppData\Local\Temp\ccEn1xvk.s 			page 16


 528              		.file 7 "c:/users/president/desktop/sbx/input/src/os_base/os_ram.h"
 529              		.file 8 "c:/users/president/desktop/sbx/input/src/os_base/os_ram_stack.h"
 530              		.section	.debug_info,"dr"
 531              	Ldebug_info0:
 532 0000 F8120000 		.long	0x12f8
 533 0004 0400     		.word	0x4
 534 0006 00000000 		.secrel32	Ldebug_abbrev0
 535 000a 04       		.byte	0x4
 536 000b 01       		.uleb128 0x1
 537 000c 474E5520 		.ascii "GNU C89 8.2.0 -march=i386 -g3 -O0 -std=c90\0"
 537      43383920 
 537      382E322E 
 537      30202D6D 
 537      61726368 
 538 0037 01       		.byte	0x1
 539 0038 433A5C55 		.ascii "C:\\Users\\president\\Desktop\\sbx\\input\\src\\os_base\\os_stack.c\0"
 539      73657273 
 539      5C707265 
 539      73696465 
 539      6E745C44 
 540 0074 433A5C50 		.ascii "C:\\Program\\MinGW\\bin\0"
 540      726F6772 
 540      616D5C4D 
 540      696E4757 
 540      5C62696E 
 541 0089 00000000 		.long	Ltext0
 542 008d CD040000 		.long	Letext0-Ltext0
 543 0091 00000000 		.secrel32	Ldebug_line0
 544 0095 00000000 		.secrel32	Ldebug_macro0
 545 0099 02       		.uleb128 0x2
 546 009a 756E7369 		.ascii "unsigned_char_t\0"
 546      676E6564 
 546      5F636861 
 546      725F7400 
 547 00aa 02       		.byte	0x2
 548 00ab 11       		.byte	0x11
 549 00ac 18       		.byte	0x18
 550 00ad B1000000 		.long	0xb1
 551 00b1 03       		.uleb128 0x3
 552 00b2 01       		.byte	0x1
 553 00b3 08       		.byte	0x8
 554 00b4 756E7369 		.ascii "unsigned char\0"
 554      676E6564 
 554      20636861 
 554      7200
 555 00c2 03       		.uleb128 0x3
 556 00c3 01       		.byte	0x1
 557 00c4 06       		.byte	0x6
 558 00c5 7369676E 		.ascii "signed char\0"
 558      65642063 
 558      68617200 
 559 00d1 02       		.uleb128 0x2
 560 00d2 75696E74 		.ascii "uint8\0"
 560      3800
 561 00d8 02       		.byte	0x2
 562 00d9 15       		.byte	0x15
 563 00da 18       		.byte	0x18
GAS LISTING C:\Users\PRESID~1\AppData\Local\Temp\ccEn1xvk.s 			page 17


 564 00db B1000000 		.long	0xb1
 565 00df 03       		.uleb128 0x3
 566 00e0 02       		.byte	0x2
 567 00e1 07       		.byte	0x7
 568 00e2 73686F72 		.ascii "short unsigned int\0"
 568      7420756E 
 568      7369676E 
 568      65642069 
 568      6E7400
 569 00f5 03       		.uleb128 0x3
 570 00f6 02       		.byte	0x2
 571 00f7 05       		.byte	0x5
 572 00f8 73686F72 		.ascii "short int\0"
 572      7420696E 
 572      7400
 573 0102 02       		.uleb128 0x2
 574 0103 756E7369 		.ascii "unsigned_int32_t\0"
 574      676E6564 
 574      5F696E74 
 574      33325F74 
 574      00
 575 0114 02       		.byte	0x2
 576 0115 1B       		.byte	0x1b
 577 0116 18       		.byte	0x18
 578 0117 1B010000 		.long	0x11b
 579 011b 03       		.uleb128 0x3
 580 011c 04       		.byte	0x4
 581 011d 07       		.byte	0x7
 582 011e 6C6F6E67 		.ascii "long unsigned int\0"
 582      20756E73 
 582      69676E65 
 582      6420696E 
 582      7400
 583 0130 03       		.uleb128 0x3
 584 0131 04       		.byte	0x4
 585 0132 05       		.byte	0x5
 586 0133 6C6F6E67 		.ascii "long int\0"
 586      20696E74 
 586      00
 587 013c 02       		.uleb128 0x2
 588 013d 75696E74 		.ascii "uint32\0"
 588      333200
 589 0144 02       		.byte	0x2
 590 0145 1D       		.byte	0x1d
 591 0146 18       		.byte	0x18
 592 0147 1B010000 		.long	0x11b
 593 014b 04       		.uleb128 0x4
 594 014c 3C010000 		.long	0x13c
 595 0150 05       		.uleb128 0x5
 596 0151 6F735F73 		.ascii "os_sw_bugs_e\0"
 596      775F6275 
 596      67735F65 
 596      00
 597 015e 07       		.byte	0x7
 598 015f 04       		.byte	0x4
 599 0160 2A030000 		.long	0x32a
 600 0164 03       		.byte	0x3
GAS LISTING C:\Users\PRESID~1\AppData\Local\Temp\ccEn1xvk.s 			page 18


 601 0165 2E       		.byte	0x2e
 602 0166 06       		.byte	0x6
 603 0167 2A030000 		.long	0x32a
 604 016b 06       		.uleb128 0x6
 605 016c 455F4F53 		.ascii "E_OS_BUG_NO_BUG\0"
 605      5F425547 
 605      5F4E4F5F 
 605      42554700 
 606 017c 00       		.byte	0
 607 017d 06       		.uleb128 0x6
 608 017e 455F4F53 		.ascii "E_OS_BUG_TASKSTATE_REQUEST_DENIED\0"
 608      5F425547 
 608      5F544153 
 608      4B535441 
 608      54455F52 
 609 01a0 01       		.byte	0x1
 610 01a1 06       		.uleb128 0x6
 611 01a2 455F4F53 		.ascii "E_OS_BUG_NULL_POINTER\0"
 611      5F425547 
 611      5F4E554C 
 611      4C5F504F 
 611      494E5445 
 612 01b8 02       		.byte	0x2
 613 01b9 06       		.uleb128 0x6
 614 01ba 455F4F53 		.ascii "E_OS_BUG_TASK_MAX_WAIT_TIME_REACHED\0"
 614      5F425547 
 614      5F544153 
 614      4B5F4D41 
 614      585F5741 
 615 01de 03       		.byte	0x3
 616 01df 06       		.uleb128 0x6
 617 01e0 455F4F53 		.ascii "E_OS_BUG_TASK_UNSPECIFIED\0"
 617      5F425547 
 617      5F544153 
 617      4B5F554E 
 617      53504543 
 618 01fa 04       		.byte	0x4
 619 01fb 06       		.uleb128 0x6
 620 01fc 455F4F53 		.ascii "E_OS_BUG_EXCEPTION_UNDEFINSTRUCTION\0"
 620      5F425547 
 620      5F455843 
 620      45505449 
 620      4F4E5F55 
 621 0220 05       		.byte	0x5
 622 0221 06       		.uleb128 0x6
 623 0222 455F4F53 		.ascii "E_OS_BUG_EXCEPTION_ABORTPREFETCH\0"
 623      5F425547 
 623      5F455843 
 623      45505449 
 623      4F4E5F41 
 624 0243 06       		.byte	0x6
 625 0244 06       		.uleb128 0x6
 626 0245 455F4F53 		.ascii "E_OS_BUG_EXCEPTION_ABORTDATA\0"
 626      5F425547 
 626      5F455843 
 626      45505449 
 626      4F4E5F41 
GAS LISTING C:\Users\PRESID~1\AppData\Local\Temp\ccEn1xvk.s 			page 19


 627 0262 07       		.byte	0x7
 628 0263 06       		.uleb128 0x6
 629 0264 455F4F53 		.ascii "E_OS_BUG_RESET_EXIT_OR_SHUTDOWN_FAILED\0"
 629      5F425547 
 629      5F524553 
 629      45545F45 
 629      5849545F 
 630 028b 08       		.byte	0x8
 631 028c 06       		.uleb128 0x6
 632 028d 455F4F53 		.ascii "E_OS_BUG_CRITICAL_STACK_USAGE\0"
 632      5F425547 
 632      5F435249 
 632      54494341 
 632      4C5F5354 
 633 02ab 09       		.byte	0x9
 634 02ac 06       		.uleb128 0x6
 635 02ad 455F4F53 		.ascii "E_OS_BUG_SVC_NUMBER_MISSING\0"
 635      5F425547 
 635      5F535643 
 635      5F4E554D 
 635      4245525F 
 636 02c9 0A       		.byte	0xa
 637 02ca 06       		.uleb128 0x6
 638 02cb 455F4F53 		.ascii "E_OS_BUG_MAX_WAIT_TIME_REACHED\0"
 638      5F425547 
 638      5F4D4158 
 638      5F574149 
 638      545F5449 
 639 02ea 0B       		.byte	0xb
 640 02eb 06       		.uleb128 0x6
 641 02ec 455F4F53 		.ascii "E_OS_BUG_DIVISION_BY_ZERO\0"
 641      5F425547 
 641      5F444956 
 641      4953494F 
 641      4E5F4259 
 642 0306 0C       		.byte	0xc
 643 0307 06       		.uleb128 0x6
 644 0308 455F4F53 		.ascii "E_OS_BUG_BIT_SHIFT_OUT_OF_RANGE\0"
 644      5F425547 
 644      5F424954 
 644      5F534849 
 644      46545F4F 
 645 0328 0D       		.byte	0xd
 646 0329 00       		.byte	0
 647 032a 03       		.uleb128 0x3
 648 032b 04       		.byte	0x4
 649 032c 07       		.byte	0x7
 650 032d 756E7369 		.ascii "unsigned int\0"
 650      676E6564 
 650      20696E74 
 650      00
 651 033a 02       		.uleb128 0x2
 652 033b 6F735F73 		.ascii "os_sw_bugs_t\0"
 652      775F6275 
 652      67735F74 
 652      00
 653 0348 03       		.byte	0x3
GAS LISTING C:\Users\PRESID~1\AppData\Local\Temp\ccEn1xvk.s 			page 20


 654 0349 3F       		.byte	0x3f
 655 034a 1B       		.byte	0x1b
 656 034b 50010000 		.long	0x150
 657 034f 04       		.uleb128 0x4
 658 0350 3A030000 		.long	0x33a
 659 0354 05       		.uleb128 0x5
 660 0355 6F735F73 		.ascii "os_sw_bugs_function_e\0"
 660      775F6275 
 660      67735F66 
 660      756E6374 
 660      696F6E5F 
 661 036b 07       		.byte	0x7
 662 036c 04       		.byte	0x4
 663 036d 2A030000 		.long	0x32a
 664 0371 03       		.byte	0x3
 665 0372 43       		.byte	0x43
 666 0373 06       		.byte	0x6
 667 0374 72050000 		.long	0x572
 668 0378 06       		.uleb128 0x6
 669 0379 455F4655 		.ascii "E_FUNC_NOFUNCTION\0"
 669      4E435F4E 
 669      4F46554E 
 669      4354494F 
 669      4E00
 670 038b 00       		.byte	0
 671 038c 06       		.uleb128 0x6
 672 038d 455F4655 		.ascii "E_FUNC_SAVETASKENVIRONMENT\0"
 672      4E435F53 
 672      41564554 
 672      41534B45 
 672      4E564952 
 673 03a8 01       		.byte	0x1
 674 03a9 06       		.uleb128 0x6
 675 03aa 455F4655 		.ascii "E_FUNC_RESTORETASKENVIRONMENT\0"
 675      4E435F52 
 675      4553544F 
 675      52455441 
 675      534B454E 
 676 03c8 02       		.byte	0x2
 677 03c9 06       		.uleb128 0x6
 678 03ca 455F4655 		.ascii "E_FUNC_CREATETASKENVIRONMENT\0"
 678      4E435F43 
 678      52454154 
 678      45544153 
 678      4B454E56 
 679 03e7 03       		.byte	0x3
 680 03e8 06       		.uleb128 0x6
 681 03e9 455F4655 		.ascii "E_FUNC_DELETETASKENVIRONMENT\0"
 681      4E435F44 
 681      454C4554 
 681      45544153 
 681      4B454E56 
 682 0406 04       		.byte	0x4
 683 0407 06       		.uleb128 0x6
 684 0408 455F4655 		.ascii "E_FUNC_INITTASKENVIRONMENT\0"
 684      4E435F49 
 684      4E495454 
GAS LISTING C:\Users\PRESID~1\AppData\Local\Temp\ccEn1xvk.s 			page 21


 684      41534B45 
 684      4E564952 
 685 0423 05       		.byte	0x5
 686 0424 06       		.uleb128 0x6
 687 0425 455F4655 		.ascii "E_FUNC_STARTTASK\0"
 687      4E435F53 
 687      54415254 
 687      5441534B 
 687      00
 688 0436 06       		.byte	0x6
 689 0437 06       		.uleb128 0x6
 690 0438 455F4655 		.ascii "E_FUNC_PREEMPTTASK\0"
 690      4E435F50 
 690      5245454D 
 690      50545441 
 690      534B00
 691 044b 07       		.byte	0x7
 692 044c 06       		.uleb128 0x6
 693 044d 455F4655 		.ascii "E_FUNC_TERMINATETASK\0"
 693      4E435F54 
 693      45524D49 
 693      4E415445 
 693      5441534B 
 694 0462 08       		.byte	0x8
 695 0463 06       		.uleb128 0x6
 696 0464 455F4655 		.ascii "E_FUNC_TASKSCHEDULER\0"
 696      4E435F54 
 696      41534B53 
 696      43484544 
 696      554C4552 
 697 0479 09       		.byte	0x9
 698 047a 06       		.uleb128 0x6
 699 047b 455F4655 		.ascii "E_FUNC_INITTASK\0"
 699      4E435F49 
 699      4E495454 
 699      41534B00 
 700 048b 0A       		.byte	0xa
 701 048c 06       		.uleb128 0x6
 702 048d 455F4655 		.ascii "E_FUNC_ACTIVATETASK\0"
 702      4E435F41 
 702      43544956 
 702      41544554 
 702      41534B00 
 703 04a1 0B       		.byte	0xb
 704 04a2 06       		.uleb128 0x6
 705 04a3 455F4655 		.ascii "E_FUNC_TASKSTATEREQUEST\0"
 705      4E435F54 
 705      41534B53 
 705      54415445 
 705      52455155 
 706 04bb 0C       		.byte	0xc
 707 04bc 06       		.uleb128 0x6
 708 04bd 455F4655 		.ascii "E_FUNC_PREEMPT_TASK\0"
 708      4E435F50 
 708      5245454D 
 708      50545F54 
 708      41534B00 
GAS LISTING C:\Users\PRESID~1\AppData\Local\Temp\ccEn1xvk.s 			page 22


 709 04d1 0D       		.byte	0xd
 710 04d2 06       		.uleb128 0x6
 711 04d3 455F4655 		.ascii "E_FUNC_OS_EXCEPTION\0"
 711      4E435F4F 
 711      535F4558 
 711      43455054 
 711      494F4E00 
 712 04e7 0E       		.byte	0xe
 713 04e8 06       		.uleb128 0x6
 714 04e9 455F4655 		.ascii "E_FUNC_CREATETASK\0"
 714      4E435F43 
 714      52454154 
 714      45544153 
 714      4B00
 715 04fb 0F       		.byte	0xf
 716 04fc 06       		.uleb128 0x6
 717 04fd 455F4655 		.ascii "E_FUNC_SHUTDOWN\0"
 717      4E435F53 
 717      48555444 
 717      4F574E00 
 718 050d 10       		.byte	0x10
 719 050e 06       		.uleb128 0x6
 720 050f 455F4655 		.ascii "E_FUNC_STACKCHECK\0"
 720      4E435F53 
 720      5441434B 
 720      43484543 
 720      4B00
 721 0521 11       		.byte	0x11
 722 0522 06       		.uleb128 0x6
 723 0523 455F4655 		.ascii "E_FUNC_ISRHANDLER\0"
 723      4E435F49 
 723      53524841 
 723      4E444C45 
 723      5200
 724 0535 12       		.byte	0x12
 725 0536 06       		.uleb128 0x6
 726 0537 455F4655 		.ascii "E_FUNC_STATE_HANDLER\0"
 726      4E435F53 
 726      54415445 
 726      5F48414E 
 726      444C4552 
 727 054c 13       		.byte	0x13
 728 054d 06       		.uleb128 0x6
 729 054e 455F4655 		.ascii "E_FUNC_INTDIV\0"
 729      4E435F49 
 729      4E544449 
 729      5600
 730 055c 14       		.byte	0x14
 731 055d 06       		.uleb128 0x6
 732 055e 455F4655 		.ascii "E_FUNC_SHIFT_LEFT\0"
 732      4E435F53 
 732      48494654 
 732      5F4C4546 
 732      5400
 733 0570 15       		.byte	0x15
 734 0571 00       		.byte	0
 735 0572 07       		.uleb128 0x7
GAS LISTING C:\Users\PRESID~1\AppData\Local\Temp\ccEn1xvk.s 			page 23


 736 0573 6269675F 		.ascii "big_int_s\0"
 736      696E745F 
 736      7300
 737 057d 10       		.byte	0x10
 738 057e 03       		.byte	0x3
 739 057f 63       		.byte	0x63
 740 0580 10       		.byte	0x10
 741 0581 96050000 		.long	0x596
 742 0585 08       		.uleb128 0x8
 743 0586 6E756D62 		.ascii "number\0"
 743      657200
 744 058d 03       		.byte	0x3
 745 058e 6C       		.byte	0x6c
 746 058f 0A       		.byte	0xa
 747 0590 96050000 		.long	0x596
 748 0594 00       		.byte	0
 749 0595 00       		.byte	0
 750 0596 09       		.uleb128 0x9
 751 0597 D1000000 		.long	0xd1
 752 059b A6050000 		.long	0x5a6
 753 059f 0A       		.uleb128 0xa
 754 05a0 2A030000 		.long	0x32a
 755 05a4 0F       		.byte	0xf
 756 05a5 00       		.byte	0
 757 05a6 02       		.uleb128 0x2
 758 05a7 6269675F 		.ascii "big_int\0"
 758      696E7400 
 759 05af 03       		.byte	0x3
 760 05b0 6D       		.byte	0x6d
 761 05b1 03       		.byte	0x3
 762 05b2 72050000 		.long	0x572
 763 05b6 02       		.uleb128 0x2
 764 05b7 74696D65 		.ascii "timebig_t\0"
 764      6269675F 
 764      7400
 765 05c1 03       		.byte	0x3
 766 05c2 6F       		.byte	0x6f
 767 05c3 11       		.byte	0x11
 768 05c4 A6050000 		.long	0x5a6
 769 05c8 05       		.uleb128 0x5
 770 05c9 70726976 		.ascii "privilige_mode_e\0"
 770      696C6967 
 770      655F6D6F 
 770      64655F65 
 770      00
 771 05da 07       		.byte	0x7
 772 05db 04       		.byte	0x4
 773 05dc 2A030000 		.long	0x32a
 774 05e0 04       		.byte	0x4
 775 05e1 10       		.byte	0x10
 776 05e2 06       		.byte	0x6
 777 05e3 66060000 		.long	0x666
 778 05e7 06       		.uleb128 0x6
 779 05e8 455F5052 		.ascii "E_PRIVILIGEMODE_UNPRIVILIGED_THREAD_MODE\0"
 779      4956494C 
 779      4947454D 
 779      4F44455F 
GAS LISTING C:\Users\PRESID~1\AppData\Local\Temp\ccEn1xvk.s 			page 24


 779      554E5052 
 780 0611 00       		.byte	0
 781 0612 06       		.uleb128 0x6
 782 0613 455F5052 		.ascii "E_PRIVILIGEMODE_PRIVILIGED_THREAD_MODE\0"
 782      4956494C 
 782      4947454D 
 782      4F44455F 
 782      50524956 
 783 063a 01       		.byte	0x1
 784 063b 06       		.uleb128 0x6
 785 063c 455F5052 		.ascii "E_PRIVILIGEMODE_PRIVILIGED_HANDLER_MODE\0"
 785      4956494C 
 785      4947454D 
 785      4F44455F 
 785      50524956 
 786 0664 02       		.byte	0x2
 787 0665 00       		.byte	0
 788 0666 02       		.uleb128 0x2
 789 0667 70726976 		.ascii "privilige_mode_t\0"
 789      696C6967 
 789      655F6D6F 
 789      64655F74 
 789      00
 790 0678 04       		.byte	0x4
 791 0679 16       		.byte	0x16
 792 067a 20       		.byte	0x20
 793 067b C8050000 		.long	0x5c8
 794 067f 05       		.uleb128 0x5
 795 0680 7461736B 		.ascii "task_state_e\0"
 795      5F737461 
 795      74655F65 
 795      00
 796 068d 07       		.byte	0x7
 797 068e 04       		.byte	0x4
 798 068f 2A030000 		.long	0x32a
 799 0693 05       		.byte	0x5
 800 0694 07       		.byte	0x7
 801 0695 06       		.byte	0x6
 802 0696 E3060000 		.long	0x6e3
 803 069a 06       		.uleb128 0x6
 804 069b 455F5441 		.ascii "E_TASK_UNSPECIFIED\0"
 804      534B5F55 
 804      4E535045 
 804      43494649 
 804      454400
 805 06ae 00       		.byte	0
 806 06af 06       		.uleb128 0x6
 807 06b0 455F5441 		.ascii "E_TASK_SUSPENDED\0"
 807      534B5F53 
 807      55535045 
 807      4E444544 
 807      00
 808 06c1 01       		.byte	0x1
 809 06c2 06       		.uleb128 0x6
 810 06c3 455F5441 		.ascii "E_TASK_READY\0"
 810      534B5F52 
 810      45414459 
GAS LISTING C:\Users\PRESID~1\AppData\Local\Temp\ccEn1xvk.s 			page 25


 810      00
 811 06d0 02       		.byte	0x2
 812 06d1 06       		.uleb128 0x6
 813 06d2 455F5441 		.ascii "E_TASK_RUNNING\0"
 813      534B5F52 
 813      554E4E49 
 813      4E4700
 814 06e1 03       		.byte	0x3
 815 06e2 00       		.byte	0
 816 06e3 02       		.uleb128 0x2
 817 06e4 7461736B 		.ascii "task_state_t\0"
 817      5F737461 
 817      74655F74 
 817      00
 818 06f1 05       		.byte	0x5
 819 06f2 0E       		.byte	0xe
 820 06f3 1B       		.byte	0x1b
 821 06f4 7F060000 		.long	0x67f
 822 06f8 02       		.uleb128 0x2
 823 06f9 66756E63 		.ascii "func_p_t\0"
 823      5F705F74 
 823      00
 824 0702 05       		.byte	0x5
 825 0703 13       		.byte	0x13
 826 0704 1B       		.byte	0x1b
 827 0705 09070000 		.long	0x709
 828 0709 0B       		.uleb128 0xb
 829 070a 04       		.byte	0x4
 830 070b 0F070000 		.long	0x70f
 831 070f 0C       		.uleb128 0xc
 832 0710 1A070000 		.long	0x71a
 833 0714 0D       		.uleb128 0xd
 834 0715 1A070000 		.long	0x71a
 835 0719 00       		.byte	0
 836 071a 0E       		.uleb128 0xe
 837 071b 04       		.byte	0x4
 838 071c 02       		.uleb128 0x2
 839 071d 66756E63 		.ascii "func_p_state_change_t\0"
 839      5F705F73 
 839      74617465 
 839      5F636861 
 839      6E67655F 
 840 0733 05       		.byte	0x5
 841 0734 15       		.byte	0x15
 842 0735 1B       		.byte	0x1b
 843 0736 3A070000 		.long	0x73a
 844 073a 0B       		.uleb128 0xb
 845 073b 04       		.byte	0x4
 846 073c 40070000 		.long	0x740
 847 0740 0F       		.uleb128 0xf
 848 0741 99000000 		.long	0x99
 849 0745 54070000 		.long	0x754
 850 0749 0D       		.uleb128 0xd
 851 074a 1A070000 		.long	0x71a
 852 074e 0D       		.uleb128 0xd
 853 074f E3060000 		.long	0x6e3
 854 0753 00       		.byte	0
GAS LISTING C:\Users\PRESID~1\AppData\Local\Temp\ccEn1xvk.s 			page 26


 855 0754 07       		.uleb128 0x7
 856 0755 7461736B 		.ascii "task_group_s\0"
 856      5F67726F 
 856      75705F73 
 856      00
 857 0762 20       		.byte	0x20
 858 0763 05       		.byte	0x5
 859 0764 18       		.byte	0x18
 860 0765 08       		.byte	0x8
 861 0766 8F070000 		.long	0x78f
 862 076a 10       		.uleb128 0x10
 863 076b 0A000000 		.secrel32	LASF0
 864 076f 05       		.byte	0x5
 865 0770 1A       		.byte	0x1a
 866 0771 0E       		.byte	0xe
 867 0772 B6050000 		.long	0x5b6
 868 0776 00       		.byte	0
 869 0777 08       		.uleb128 0x8
 870 0778 66616972 		.ascii "fair_exe_time\0"
 870      5F657865 
 870      5F74696D 
 870      6500
 871 0786 05       		.byte	0x5
 872 0787 1B       		.byte	0x1b
 873 0788 0E       		.byte	0xe
 874 0789 B6050000 		.long	0x5b6
 875 078d 10       		.byte	0x10
 876 078e 00       		.byte	0
 877 078f 02       		.uleb128 0x2
 878 0790 7461736B 		.ascii "task_group_t\0"
 878      5F67726F 
 878      75705F74 
 878      00
 879 079d 05       		.byte	0x5
 880 079e 1D       		.byte	0x1d
 881 079f 1D       		.byte	0x1d
 882 07a0 54070000 		.long	0x754
 883 07a4 07       		.uleb128 0x7
 884 07a5 7461736B 		.ascii "task_s\0"
 884      5F7300
 885 07ac AC       		.byte	0xac
 886 07ad 05       		.byte	0x5
 887 07ae 1F       		.byte	0x1f
 888 07af 08       		.byte	0x8
 889 07b0 500A0000 		.long	0xa50
 890 07b4 11       		.uleb128 0x11
 891 07b5 61637469 		.ascii "active\0"
 891      766500
 892 07bc 05       		.byte	0x5
 893 07bd 21       		.byte	0x21
 894 07be 0D       		.byte	0xd
 895 07bf 2A030000 		.long	0x32a
 896 07c3 04       		.byte	0x4
 897 07c4 01       		.byte	0x1
 898 07c5 1F       		.byte	0x1f
 899 07c6 00       		.byte	0
 900 07c7 11       		.uleb128 0x11
GAS LISTING C:\Users\PRESID~1\AppData\Local\Temp\ccEn1xvk.s 			page 27


 901 07c8 7461736B 		.ascii "task_queued\0"
 901      5F717565 
 901      75656400 
 902 07d4 05       		.byte	0x5
 903 07d5 22       		.byte	0x22
 904 07d6 0D       		.byte	0xd
 905 07d7 2A030000 		.long	0x32a
 906 07db 04       		.byte	0x4
 907 07dc 01       		.byte	0x1
 908 07dd 1E       		.byte	0x1e
 909 07de 00       		.byte	0
 910 07df 11       		.uleb128 0x11
 911 07e0 69646C65 		.ascii "idle_task\0"
 911      5F746173 
 911      6B00
 912 07ea 05       		.byte	0x5
 913 07eb 23       		.byte	0x23
 914 07ec 0D       		.byte	0xd
 915 07ed 2A030000 		.long	0x32a
 916 07f1 04       		.byte	0x4
 917 07f2 01       		.byte	0x1
 918 07f3 1D       		.byte	0x1d
 919 07f4 00       		.byte	0
 920 07f5 11       		.uleb128 0x11
 921 07f6 66726565 		.ascii "free\0"
 921      00
 922 07fb 05       		.byte	0x5
 923 07fc 24       		.byte	0x24
 924 07fd 0D       		.byte	0xd
 925 07fe 2A030000 		.long	0x32a
 926 0802 04       		.byte	0x4
 927 0803 1D       		.byte	0x1d
 928 0804 00       		.byte	0
 929 0805 00       		.byte	0
 930 0806 08       		.uleb128 0x8
 931 0807 6E725F6F 		.ascii "nr_of_ins_allowed\0"
 931      665F696E 
 931      735F616C 
 931      6C6F7765 
 931      6400
 932 0819 05       		.byte	0x5
 933 081a 25       		.byte	0x25
 934 081b 14       		.byte	0x14
 935 081c 99000000 		.long	0x99
 936 0820 04       		.byte	0x4
 937 0821 08       		.uleb128 0x8
 938 0822 6E725F6F 		.ascii "nr_of_ins_activated\0"
 938      665F696E 
 938      735F6163 
 938      74697661 
 938      74656400 
 939 0836 05       		.byte	0x5
 940 0837 26       		.byte	0x26
 941 0838 14       		.byte	0x14
 942 0839 99000000 		.long	0x99
 943 083d 05       		.byte	0x5
 944 083e 08       		.uleb128 0x8
GAS LISTING C:\Users\PRESID~1\AppData\Local\Temp\ccEn1xvk.s 			page 28


 945 083f 77616974 		.ascii "wait_act_until\0"
 945      5F616374 
 945      5F756E74 
 945      696C00
 946 084e 05       		.byte	0x5
 947 084f 27       		.byte	0x27
 948 0850 0E       		.byte	0xe
 949 0851 B6050000 		.long	0x5b6
 950 0855 06       		.byte	0x6
 951 0856 08       		.uleb128 0x8
 952 0857 77616974 		.ascii "wait_time\0"
 952      5F74696D 
 952      6500
 953 0861 05       		.byte	0x5
 954 0862 28       		.byte	0x28
 955 0863 0E       		.byte	0xe
 956 0864 B6050000 		.long	0x5b6
 957 0868 16       		.byte	0x16
 958 0869 08       		.uleb128 0x8
 959 086a 74696D65 		.ascii "time_to_prio_inc\0"
 959      5F746F5F 
 959      7072696F 
 959      5F696E63 
 959      00
 960 087b 05       		.byte	0x5
 961 087c 29       		.byte	0x29
 962 087d 0E       		.byte	0xe
 963 087e B6050000 		.long	0x5b6
 964 0882 26       		.byte	0x26
 965 0883 08       		.uleb128 0x8
 966 0884 6F766572 		.ascii "overwaittime_per_prio_inc_step\0"
 966      77616974 
 966      74696D65 
 966      5F706572 
 966      5F707269 
 967 08a3 05       		.byte	0x5
 968 08a4 2A       		.byte	0x2a
 969 08a5 0B       		.byte	0xb
 970 08a6 3C010000 		.long	0x13c
 971 08aa 38       		.byte	0x38
 972 08ab 08       		.uleb128 0x8
 973 08ac 6D61785F 		.ascii "max_allowed_wait_time\0"
 973      616C6C6F 
 973      7765645F 
 973      77616974 
 973      5F74696D 
 974 08c2 05       		.byte	0x5
 975 08c3 2B       		.byte	0x2b
 976 08c4 0E       		.byte	0xe
 977 08c5 B6050000 		.long	0x5b6
 978 08c9 3C       		.byte	0x3c
 979 08ca 10       		.uleb128 0x10
 980 08cb 0A000000 		.secrel32	LASF0
 981 08cf 05       		.byte	0x5
 982 08d0 2C       		.byte	0x2c
 983 08d1 0E       		.byte	0xe
 984 08d2 B6050000 		.long	0x5b6
GAS LISTING C:\Users\PRESID~1\AppData\Local\Temp\ccEn1xvk.s 			page 29


 985 08d6 4C       		.byte	0x4c
 986 08d7 08       		.uleb128 0x8
 987 08d8 73746172 		.ascii "start_time\0"
 987      745F7469 
 987      6D6500
 988 08e3 05       		.byte	0x5
 989 08e4 2D       		.byte	0x2d
 990 08e5 0E       		.byte	0xe
 991 08e6 B6050000 		.long	0x5b6
 992 08ea 5C       		.byte	0x5c
 993 08eb 08       		.uleb128 0x8
 994 08ec 63757272 		.ascii "current_prio\0"
 994      656E745F 
 994      7072696F 
 994      00
 995 08f9 05       		.byte	0x5
 996 08fa 2E       		.byte	0x2e
 997 08fb 14       		.byte	0x14
 998 08fc 99000000 		.long	0x99
 999 0900 6C       		.byte	0x6c
 1000 0901 08       		.uleb128 0x8
 1001 0902 64656661 		.ascii "default_prio\0"
 1001      756C745F 
 1001      7072696F 
 1001      00
 1002 090f 05       		.byte	0x5
 1003 0910 2F       		.byte	0x2f
 1004 0911 14       		.byte	0x14
 1005 0912 99000000 		.long	0x99
 1006 0916 6D       		.byte	0x6d
 1007 0917 08       		.uleb128 0x8
 1008 0918 7461736B 		.ascii "task_number\0"
 1008      5F6E756D 
 1008      62657200 
 1009 0924 05       		.byte	0x5
 1010 0925 30       		.byte	0x30
 1011 0926 15       		.byte	0x15
 1012 0927 02010000 		.long	0x102
 1013 092b 70       		.byte	0x70
 1014 092c 08       		.uleb128 0x8
 1015 092d 667000   		.ascii "fp\0"
 1016 0930 05       		.byte	0x5
 1017 0931 31       		.byte	0x31
 1018 0932 0D       		.byte	0xd
 1019 0933 F8060000 		.long	0x6f8
 1020 0937 74       		.byte	0x74
 1021 0938 08       		.uleb128 0x8
 1022 0939 73746174 		.ascii "state_request\0"
 1022      655F7265 
 1022      71756573 
 1022      7400
 1023 0947 05       		.byte	0x5
 1024 0948 32       		.byte	0x32
 1025 0949 1A       		.byte	0x1a
 1026 094a 1C070000 		.long	0x71c
 1027 094e 78       		.byte	0x78
 1028 094f 08       		.uleb128 0x8
GAS LISTING C:\Users\PRESID~1\AppData\Local\Temp\ccEn1xvk.s 			page 30


 1029 0950 7461736B 		.ascii "task_state\0"
 1029      5F737461 
 1029      746500
 1030 095b 05       		.byte	0x5
 1031 095c 33       		.byte	0x33
 1032 095d 11       		.byte	0x11
 1033 095e E3060000 		.long	0x6e3
 1034 0962 7C       		.byte	0x7c
 1035 0963 08       		.uleb128 0x8
 1036 0964 7461736B 		.ascii "task_group\0"
 1036      5F67726F 
 1036      757000
 1037 096f 05       		.byte	0x5
 1038 0970 34       		.byte	0x34
 1039 0971 12       		.byte	0x12
 1040 0972 500A0000 		.long	0xa50
 1041 0976 80       		.byte	0x80
 1042 0977 08       		.uleb128 0x8
 1043 0978 65617800 		.ascii "eax\0"
 1044 097c 05       		.byte	0x5
 1045 097d 36       		.byte	0x36
 1046 097e 15       		.byte	0x15
 1047 097f 02010000 		.long	0x102
 1048 0983 84       		.byte	0x84
 1049 0984 08       		.uleb128 0x8
 1050 0985 65627800 		.ascii "ebx\0"
 1051 0989 05       		.byte	0x5
 1052 098a 37       		.byte	0x37
 1053 098b 15       		.byte	0x15
 1054 098c 02010000 		.long	0x102
 1055 0990 88       		.byte	0x88
 1056 0991 08       		.uleb128 0x8
 1057 0992 65637800 		.ascii "ecx\0"
 1058 0996 05       		.byte	0x5
 1059 0997 38       		.byte	0x38
 1060 0998 15       		.byte	0x15
 1061 0999 02010000 		.long	0x102
 1062 099d 8C       		.byte	0x8c
 1063 099e 08       		.uleb128 0x8
 1064 099f 65647800 		.ascii "edx\0"
 1065 09a3 05       		.byte	0x5
 1066 09a4 39       		.byte	0x39
 1067 09a5 15       		.byte	0x15
 1068 09a6 02010000 		.long	0x102
 1069 09aa 90       		.byte	0x90
 1070 09ab 08       		.uleb128 0x8
 1071 09ac 705F7374 		.ascii "p_stack_pointer\0"
 1071      61636B5F 
 1071      706F696E 
 1071      74657200 
 1072 09bc 05       		.byte	0x5
 1073 09bd 49       		.byte	0x49
 1074 09be 15       		.byte	0x15
 1075 09bf 560A0000 		.long	0xa56
 1076 09c3 94       		.byte	0x94
 1077 09c4 08       		.uleb128 0x8
 1078 09c5 705F7374 		.ascii "p_stack_pointer_by_malloc\0"
GAS LISTING C:\Users\PRESID~1\AppData\Local\Temp\ccEn1xvk.s 			page 31


 1078      61636B5F 
 1078      706F696E 
 1078      7465725F 
 1078      62795F6D 
 1079 09df 05       		.byte	0x5
 1080 09e0 4A       		.byte	0x4a
 1081 09e1 15       		.byte	0x15
 1082 09e2 560A0000 		.long	0xa56
 1083 09e6 98       		.byte	0x98
 1084 09e7 08       		.uleb128 0x8
 1085 09e8 705F7374 		.ascii "p_stack_pointer_start\0"
 1085      61636B5F 
 1085      706F696E 
 1085      7465725F 
 1085      73746172 
 1086 09fe 05       		.byte	0x5
 1087 09ff 4B       		.byte	0x4b
 1088 0a00 15       		.byte	0x15
 1089 0a01 560A0000 		.long	0xa56
 1090 0a05 9C       		.byte	0x9c
 1091 0a06 08       		.uleb128 0x8
 1092 0a07 73746163 		.ascii "stack_size\0"
 1092      6B5F7369 
 1092      7A6500
 1093 0a12 05       		.byte	0x5
 1094 0a13 4C       		.byte	0x4c
 1095 0a14 16       		.byte	0x16
 1096 0a15 02010000 		.long	0x102
 1097 0a19 A0       		.byte	0xa0
 1098 0a1a 08       		.uleb128 0x8
 1099 0a1b 705F7374 		.ascii "p_stack_pointer_end\0"
 1099      61636B5F 
 1099      706F696E 
 1099      7465725F 
 1099      656E6400 
 1100 0a2f 05       		.byte	0x5
 1101 0a30 4D       		.byte	0x4d
 1102 0a31 15       		.byte	0x15
 1103 0a32 560A0000 		.long	0xa56
 1104 0a36 A4       		.byte	0xa4
 1105 0a37 08       		.uleb128 0x8
 1106 0a38 70726976 		.ascii "privilige_mode\0"
 1106      696C6967 
 1106      655F6D6F 
 1106      646500
 1107 0a47 05       		.byte	0x5
 1108 0a48 4E       		.byte	0x4e
 1109 0a49 15       		.byte	0x15
 1110 0a4a 66060000 		.long	0x666
 1111 0a4e A8       		.byte	0xa8
 1112 0a4f 00       		.byte	0
 1113 0a50 0B       		.uleb128 0xb
 1114 0a51 04       		.byte	0x4
 1115 0a52 8F070000 		.long	0x78f
 1116 0a56 0B       		.uleb128 0xb
 1117 0a57 04       		.byte	0x4
 1118 0a58 99000000 		.long	0x99
GAS LISTING C:\Users\PRESID~1\AppData\Local\Temp\ccEn1xvk.s 			page 32


 1119 0a5c 02       		.uleb128 0x2
 1120 0a5d 7461736B 		.ascii "task_t\0"
 1120      5F7400
 1121 0a64 05       		.byte	0x5
 1122 0a65 50       		.byte	0x50
 1123 0a66 17       		.byte	0x17
 1124 0a67 A4070000 		.long	0x7a4
 1125 0a6b 02       		.uleb128 0x2
 1126 0a6c 73636865 		.ascii "scheduling_t\0"
 1126      64756C69 
 1126      6E675F74 
 1126      00
 1127 0a79 05       		.byte	0x5
 1128 0a7a 51       		.byte	0x51
 1129 0a7b 11       		.byte	0x11
 1130 0a7c 800A0000 		.long	0xa80
 1131 0a80 0B       		.uleb128 0xb
 1132 0a81 04       		.byte	0x4
 1133 0a82 5C0A0000 		.long	0xa5c
 1134 0a86 09       		.uleb128 0x9
 1135 0a87 800A0000 		.long	0xa80
 1136 0a8b 960A0000 		.long	0xa96
 1137 0a8f 0A       		.uleb128 0xa
 1138 0a90 2A030000 		.long	0x32a
 1139 0a94 09       		.byte	0x9
 1140 0a95 00       		.byte	0
 1141 0a96 12       		.uleb128 0x12
 1142 0a97 5441534B 		.ascii "TASK_PTR\0"
 1142      5F505452 
 1142      00
 1143 0aa0 05       		.byte	0x5
 1144 0aa1 5B       		.byte	0x5b
 1145 0aa2 10       		.byte	0x10
 1146 0aa3 860A0000 		.long	0xa86
 1147 0aa7 02       		.uleb128 0x2
 1148 0aa8 73636865 		.ascii "scheduler_time_t\0"
 1148      64756C65 
 1148      725F7469 
 1148      6D655F74 
 1148      00
 1149 0ab9 05       		.byte	0x5
 1150 0aba 5D       		.byte	0x5d
 1151 0abb 13       		.byte	0x13
 1152 0abc B6050000 		.long	0x5b6
 1153 0ac0 05       		.uleb128 0x5
 1154 0ac1 6F735F73 		.ascii "os_state_e\0"
 1154      74617465 
 1154      5F6500
 1155 0acc 07       		.byte	0x7
 1156 0acd 04       		.byte	0x4
 1157 0ace 2A030000 		.long	0x32a
 1158 0ad2 06       		.byte	0x6
 1159 0ad3 04       		.byte	0x4
 1160 0ad4 06       		.byte	0x6
 1161 0ad5 110B0000 		.long	0xb11
 1162 0ad9 06       		.uleb128 0x6
 1163 0ada 4F535F53 		.ascii "OS_STATE_INIT\0"
GAS LISTING C:\Users\PRESID~1\AppData\Local\Temp\ccEn1xvk.s 			page 33


 1163      54415445 
 1163      5F494E49 
 1163      5400
 1164 0ae8 00       		.byte	0
 1165 0ae9 06       		.uleb128 0x6
 1166 0aea 4F535F53 		.ascii "OS_STATE_RUNNING\0"
 1166      54415445 
 1166      5F52554E 
 1166      4E494E47 
 1166      00
 1167 0afb 01       		.byte	0x1
 1168 0afc 06       		.uleb128 0x6
 1169 0afd 4F535F53 		.ascii "OS_STATE_SHUTDOWN\0"
 1169      54415445 
 1169      5F534855 
 1169      54444F57 
 1169      4E00
 1170 0b0f 02       		.byte	0x2
 1171 0b10 00       		.byte	0
 1172 0b11 02       		.uleb128 0x2
 1173 0b12 6F735F73 		.ascii "os_state_t\0"
 1173      74617465 
 1173      5F7400
 1174 0b1d 06       		.byte	0x6
 1175 0b1e 0A       		.byte	0xa
 1176 0b1f 19       		.byte	0x19
 1177 0b20 C00A0000 		.long	0xac0
 1178 0b24 04       		.uleb128 0x4
 1179 0b25 110B0000 		.long	0xb11
 1180 0b29 09       		.uleb128 0x9
 1181 0b2a 99000000 		.long	0x99
 1182 0b2e 3A0B0000 		.long	0xb3a
 1183 0b32 13       		.uleb128 0x13
 1184 0b33 2A030000 		.long	0x32a
 1185 0b37 0F27     		.word	0x270f
 1186 0b39 00       		.byte	0
 1187 0b3a 12       		.uleb128 0x12
 1188 0b3b 48454150 		.ascii "HEAP\0"
 1188      00
 1189 0b40 07       		.byte	0x7
 1190 0b41 0B       		.byte	0xb
 1191 0b42 18       		.byte	0x18
 1192 0b43 290B0000 		.long	0xb29
 1193 0b47 09       		.uleb128 0x9
 1194 0b48 4F030000 		.long	0x34f
 1195 0b4c 570B0000 		.long	0xb57
 1196 0b50 0A       		.uleb128 0xa
 1197 0b51 2A030000 		.long	0x32a
 1198 0b55 15       		.byte	0x15
 1199 0b56 00       		.byte	0
 1200 0b57 04       		.uleb128 0x4
 1201 0b58 470B0000 		.long	0xb47
 1202 0b5c 12       		.uleb128 0x12
 1203 0b5d 4F535F53 		.ascii "OS_SW_BUG\0"
 1203      575F4255 
 1203      4700
 1204 0b67 07       		.byte	0x7
GAS LISTING C:\Users\PRESID~1\AppData\Local\Temp\ccEn1xvk.s 			page 34


 1205 0b68 0E       		.byte	0xe
 1206 0b69 1E       		.byte	0x1e
 1207 0b6a 570B0000 		.long	0xb57
 1208 0b6e 12       		.uleb128 0x12
 1209 0b6f 4F535F53 		.ascii "OS_STATE\0"
 1209      54415445 
 1209      00
 1210 0b78 07       		.byte	0x7
 1211 0b79 0F       		.byte	0xf
 1212 0b7a 1C       		.byte	0x1c
 1213 0b7b 240B0000 		.long	0xb24
 1214 0b7f 12       		.uleb128 0x12
 1215 0b80 5641525F 		.ascii "VAR_HARDFAULT_STATUS_REG\0"
 1215      48415244 
 1215      4641554C 
 1215      545F5354 
 1215      41545553 
 1216 0b99 07       		.byte	0x7
 1217 0b9a 10       		.byte	0x10
 1218 0b9b 18       		.byte	0x18
 1219 0b9c 4B010000 		.long	0x14b
 1220 0ba0 12       		.uleb128 0x12
 1221 0ba1 5641525F 		.ascii "VAR_MEM_MANAG_FAULT_STATUS_REG\0"
 1221      4D454D5F 
 1221      4D414E41 
 1221      475F4641 
 1221      554C545F 
 1222 0bc0 07       		.byte	0x7
 1223 0bc1 11       		.byte	0x11
 1224 0bc2 18       		.byte	0x18
 1225 0bc3 4B010000 		.long	0x14b
 1226 0bc7 12       		.uleb128 0x12
 1227 0bc8 5641525F 		.ascii "VAR_USAGE_FAULT_STATUS_REG\0"
 1227      55534147 
 1227      455F4641 
 1227      554C545F 
 1227      53544154 
 1228 0be3 07       		.byte	0x7
 1229 0be4 12       		.byte	0x12
 1230 0be5 18       		.byte	0x18
 1231 0be6 4B010000 		.long	0x14b
 1232 0bea 12       		.uleb128 0x12
 1233 0beb 5641525F 		.ascii "VAR_FAULT_STATUS_REG\0"
 1233      4641554C 
 1233      545F5354 
 1233      41545553 
 1233      5F524547 
 1234 0c00 07       		.byte	0x7
 1235 0c01 13       		.byte	0x13
 1236 0c02 18       		.byte	0x18
 1237 0c03 4B010000 		.long	0x14b
 1238 0c07 12       		.uleb128 0x12
 1239 0c08 5641525F 		.ascii "VAR_MEM_FAULT_ADDR_REG\0"
 1239      4D454D5F 
 1239      4641554C 
 1239      545F4144 
 1239      44525F52 
GAS LISTING C:\Users\PRESID~1\AppData\Local\Temp\ccEn1xvk.s 			page 35


 1240 0c1f 07       		.byte	0x7
 1241 0c20 14       		.byte	0x14
 1242 0c21 18       		.byte	0x18
 1243 0c22 4B010000 		.long	0x14b
 1244 0c26 12       		.uleb128 0x12
 1245 0c27 5641525F 		.ascii "VAR_BUS_FAULT_ADDR_REG\0"
 1245      4255535F 
 1245      4641554C 
 1245      545F4144 
 1245      44525F52 
 1246 0c3e 07       		.byte	0x7
 1247 0c3f 15       		.byte	0x15
 1248 0c40 18       		.byte	0x18
 1249 0c41 4B010000 		.long	0x14b
 1250 0c45 12       		.uleb128 0x12
 1251 0c46 5641525F 		.ascii "VAR_AUX_FAULT_STATUS_REG\0"
 1251      4155585F 
 1251      4641554C 
 1251      545F5354 
 1251      41545553 
 1252 0c5f 07       		.byte	0x7
 1253 0c60 16       		.byte	0x16
 1254 0c61 18       		.byte	0x18
 1255 0c62 4B010000 		.long	0x14b
 1256 0c66 12       		.uleb128 0x12
 1257 0c67 5641525F 		.ascii "VAR_BUS_FAULT_STATUS_REG\0"
 1257      4255535F 
 1257      4641554C 
 1257      545F5354 
 1257      41545553 
 1258 0c80 07       		.byte	0x7
 1259 0c81 17       		.byte	0x17
 1260 0c82 18       		.byte	0x18
 1261 0c83 4B010000 		.long	0x14b
 1262 0c87 12       		.uleb128 0x12
 1263 0c88 4C494E4B 		.ascii "LINK_REGISTER_HANDLER\0"
 1263      5F524547 
 1263      49535445 
 1263      525F4841 
 1263      4E444C45 
 1264 0c9e 07       		.byte	0x7
 1265 0c9f 18       		.byte	0x18
 1266 0ca0 18       		.byte	0x18
 1267 0ca1 4B010000 		.long	0x14b
 1268 0ca5 12       		.uleb128 0x12
 1269 0ca6 4241434B 		.ascii "BACKUP_SYSTICK_CURRENT_VAL_REG\0"
 1269      55505F53 
 1269      59535449 
 1269      434B5F43 
 1269      55525245 
 1270 0cc5 07       		.byte	0x7
 1271 0cc6 19       		.byte	0x19
 1272 0cc7 18       		.byte	0x18
 1273 0cc8 4B010000 		.long	0x14b
 1274 0ccc 12       		.uleb128 0x12
 1275 0ccd 4442475F 		.ascii "DBG_RLD_VALUE\0"
 1275      524C445F 
GAS LISTING C:\Users\PRESID~1\AppData\Local\Temp\ccEn1xvk.s 			page 36


 1275      56414C55 
 1275      4500
 1276 0cdb 07       		.byte	0x7
 1277 0cdc 1A       		.byte	0x1a
 1278 0cdd 18       		.byte	0x18
 1279 0cde 4B010000 		.long	0x14b
 1280 0ce2 12       		.uleb128 0x12
 1281 0ce3 4442475F 		.ascii "DBG_CURR_VAL\0"
 1281      43555252 
 1281      5F56414C 
 1281      00
 1282 0cf0 07       		.byte	0x7
 1283 0cf1 1B       		.byte	0x1b
 1284 0cf2 18       		.byte	0x18
 1285 0cf3 4B010000 		.long	0x14b
 1286 0cf7 12       		.uleb128 0x12
 1287 0cf8 4442475F 		.ascii "DBG_CTRL_VALUE\0"
 1287      4354524C 
 1287      5F56414C 
 1287      554500
 1288 0d07 07       		.byte	0x7
 1289 0d08 1C       		.byte	0x1c
 1290 0d09 18       		.byte	0x18
 1291 0d0a 4B010000 		.long	0x14b
 1292 0d0e 12       		.uleb128 0x12
 1293 0d0f 4442475F 		.ascii "DBG_CALIB_VALUE\0"
 1293      43414C49 
 1293      425F5641 
 1293      4C554500 
 1294 0d1f 07       		.byte	0x7
 1295 0d20 1D       		.byte	0x1d
 1296 0d21 18       		.byte	0x18
 1297 0d22 4B010000 		.long	0x14b
 1298 0d26 12       		.uleb128 0x12
 1299 0d27 5441534B 		.ascii "TASK1_CALL_NR\0"
 1299      315F4341 
 1299      4C4C5F4E 
 1299      5200
 1300 0d35 07       		.byte	0x7
 1301 0d36 1E       		.byte	0x1e
 1302 0d37 18       		.byte	0x18
 1303 0d38 4B010000 		.long	0x14b
 1304 0d3c 12       		.uleb128 0x12
 1305 0d3d 5441534B 		.ascii "TASK2_CALL_NR\0"
 1305      325F4341 
 1305      4C4C5F4E 
 1305      5200
 1306 0d4b 07       		.byte	0x7
 1307 0d4c 1F       		.byte	0x1f
 1308 0d4d 18       		.byte	0x18
 1309 0d4e 4B010000 		.long	0x14b
 1310 0d52 12       		.uleb128 0x12
 1311 0d53 5441534B 		.ascii "TASK3_CALL_NR\0"
 1311      335F4341 
 1311      4C4C5F4E 
 1311      5200
 1312 0d61 07       		.byte	0x7
GAS LISTING C:\Users\PRESID~1\AppData\Local\Temp\ccEn1xvk.s 			page 37


 1313 0d62 20       		.byte	0x20
 1314 0d63 18       		.byte	0x18
 1315 0d64 4B010000 		.long	0x14b
 1316 0d68 12       		.uleb128 0x12
 1317 0d69 5441534B 		.ascii "TASK4_CALL_NR\0"
 1317      345F4341 
 1317      4C4C5F4E 
 1317      5200
 1318 0d77 07       		.byte	0x7
 1319 0d78 21       		.byte	0x21
 1320 0d79 18       		.byte	0x18
 1321 0d7a 4B010000 		.long	0x14b
 1322 0d7e 12       		.uleb128 0x12
 1323 0d7f 4F535F4D 		.ascii "OS_MAIN_STACK_ADDR\0"
 1323      41494E5F 
 1323      53544143 
 1323      4B5F4144 
 1323      445200
 1324 0d92 07       		.byte	0x7
 1325 0d93 23       		.byte	0x23
 1326 0d94 19       		.byte	0x19
 1327 0d95 990D0000 		.long	0xd99
 1328 0d99 0B       		.uleb128 0xb
 1329 0d9a 04       		.byte	0x4
 1330 0d9b 4B010000 		.long	0x14b
 1331 0d9f 12       		.uleb128 0x12
 1332 0da0 4F535F4D 		.ascii "OS_MAIN_STACK_POS\0"
 1332      41494E5F 
 1332      53544143 
 1332      4B5F504F 
 1332      5300
 1333 0db2 07       		.byte	0x7
 1334 0db3 24       		.byte	0x24
 1335 0db4 19       		.byte	0x19
 1336 0db5 4B010000 		.long	0x14b
 1337 0db9 12       		.uleb128 0x12
 1338 0dba 4F535F4D 		.ascii "OS_MAIN_STACK_USAGE_PERCENT\0"
 1338      41494E5F 
 1338      53544143 
 1338      4B5F5553 
 1338      4147455F 
 1339 0dd6 07       		.byte	0x7
 1340 0dd7 25       		.byte	0x25
 1341 0dd8 19       		.byte	0x19
 1342 0dd9 4B010000 		.long	0x14b
 1343 0ddd 12       		.uleb128 0x12
 1344 0dde 5441534B 		.ascii "TASK0_STACK_ADDR\0"
 1344      305F5354 
 1344      41434B5F 
 1344      41444452 
 1344      00
 1345 0def 07       		.byte	0x7
 1346 0df0 26       		.byte	0x26
 1347 0df1 19       		.byte	0x19
 1348 0df2 990D0000 		.long	0xd99
 1349 0df6 12       		.uleb128 0x12
 1350 0df7 5441534B 		.ascii "TASK0_STACK_POS\0"
GAS LISTING C:\Users\PRESID~1\AppData\Local\Temp\ccEn1xvk.s 			page 38


 1350      305F5354 
 1350      41434B5F 
 1350      504F5300 
 1351 0e07 07       		.byte	0x7
 1352 0e08 27       		.byte	0x27
 1353 0e09 19       		.byte	0x19
 1354 0e0a 4B010000 		.long	0x14b
 1355 0e0e 12       		.uleb128 0x12
 1356 0e0f 5441534B 		.ascii "TASK0_STACK_USAGE_PERCENT\0"
 1356      305F5354 
 1356      41434B5F 
 1356      55534147 
 1356      455F5045 
 1357 0e29 07       		.byte	0x7
 1358 0e2a 28       		.byte	0x28
 1359 0e2b 19       		.byte	0x19
 1360 0e2c 4B010000 		.long	0x14b
 1361 0e30 12       		.uleb128 0x12
 1362 0e31 5441534B 		.ascii "TASK1_STACK_ADDR\0"
 1362      315F5354 
 1362      41434B5F 
 1362      41444452 
 1362      00
 1363 0e42 07       		.byte	0x7
 1364 0e43 29       		.byte	0x29
 1365 0e44 19       		.byte	0x19
 1366 0e45 990D0000 		.long	0xd99
 1367 0e49 12       		.uleb128 0x12
 1368 0e4a 5441534B 		.ascii "TASK1_STACK_POS\0"
 1368      315F5354 
 1368      41434B5F 
 1368      504F5300 
 1369 0e5a 07       		.byte	0x7
 1370 0e5b 2A       		.byte	0x2a
 1371 0e5c 19       		.byte	0x19
 1372 0e5d 4B010000 		.long	0x14b
 1373 0e61 12       		.uleb128 0x12
 1374 0e62 5441534B 		.ascii "TASK1_STACK_USAGE_PERCENT\0"
 1374      315F5354 
 1374      41434B5F 
 1374      55534147 
 1374      455F5045 
 1375 0e7c 07       		.byte	0x7
 1376 0e7d 2B       		.byte	0x2b
 1377 0e7e 19       		.byte	0x19
 1378 0e7f 4B010000 		.long	0x14b
 1379 0e83 12       		.uleb128 0x12
 1380 0e84 5441534B 		.ascii "TASK2_STACK_ADDR\0"
 1380      325F5354 
 1380      41434B5F 
 1380      41444452 
 1380      00
 1381 0e95 07       		.byte	0x7
 1382 0e96 2C       		.byte	0x2c
 1383 0e97 19       		.byte	0x19
 1384 0e98 990D0000 		.long	0xd99
 1385 0e9c 12       		.uleb128 0x12
GAS LISTING C:\Users\PRESID~1\AppData\Local\Temp\ccEn1xvk.s 			page 39


 1386 0e9d 5441534B 		.ascii "TASK2_STACK_POS\0"
 1386      325F5354 
 1386      41434B5F 
 1386      504F5300 
 1387 0ead 07       		.byte	0x7
 1388 0eae 2D       		.byte	0x2d
 1389 0eaf 19       		.byte	0x19
 1390 0eb0 4B010000 		.long	0x14b
 1391 0eb4 12       		.uleb128 0x12
 1392 0eb5 5441534B 		.ascii "TASK2_STACK_USAGE_PERCENT\0"
 1392      325F5354 
 1392      41434B5F 
 1392      55534147 
 1392      455F5045 
 1393 0ecf 07       		.byte	0x7
 1394 0ed0 2E       		.byte	0x2e
 1395 0ed1 19       		.byte	0x19
 1396 0ed2 4B010000 		.long	0x14b
 1397 0ed6 12       		.uleb128 0x12
 1398 0ed7 5441534B 		.ascii "TASK3_STACK_ADDR\0"
 1398      335F5354 
 1398      41434B5F 
 1398      41444452 
 1398      00
 1399 0ee8 07       		.byte	0x7
 1400 0ee9 2F       		.byte	0x2f
 1401 0eea 19       		.byte	0x19
 1402 0eeb 990D0000 		.long	0xd99
 1403 0eef 12       		.uleb128 0x12
 1404 0ef0 5441534B 		.ascii "TASK3_STACK_POS\0"
 1404      335F5354 
 1404      41434B5F 
 1404      504F5300 
 1405 0f00 07       		.byte	0x7
 1406 0f01 30       		.byte	0x30
 1407 0f02 19       		.byte	0x19
 1408 0f03 4B010000 		.long	0x14b
 1409 0f07 12       		.uleb128 0x12
 1410 0f08 5441534B 		.ascii "TASK3_STACK_USAGE_PERCENT\0"
 1410      335F5354 
 1410      41434B5F 
 1410      55534147 
 1410      455F5045 
 1411 0f22 07       		.byte	0x7
 1412 0f23 31       		.byte	0x31
 1413 0f24 19       		.byte	0x19
 1414 0f25 4B010000 		.long	0x14b
 1415 0f29 12       		.uleb128 0x12
 1416 0f2a 5441534B 		.ascii "TASK4_STACK_ADDR\0"
 1416      345F5354 
 1416      41434B5F 
 1416      41444452 
 1416      00
 1417 0f3b 07       		.byte	0x7
 1418 0f3c 32       		.byte	0x32
 1419 0f3d 19       		.byte	0x19
 1420 0f3e 990D0000 		.long	0xd99
GAS LISTING C:\Users\PRESID~1\AppData\Local\Temp\ccEn1xvk.s 			page 40


 1421 0f42 12       		.uleb128 0x12
 1422 0f43 5441534B 		.ascii "TASK4_STACK_POS\0"
 1422      345F5354 
 1422      41434B5F 
 1422      504F5300 
 1423 0f53 07       		.byte	0x7
 1424 0f54 33       		.byte	0x33
 1425 0f55 19       		.byte	0x19
 1426 0f56 4B010000 		.long	0x14b
 1427 0f5a 12       		.uleb128 0x12
 1428 0f5b 5441534B 		.ascii "TASK4_STACK_USAGE_PERCENT\0"
 1428      345F5354 
 1428      41434B5F 
 1428      55534147 
 1428      455F5045 
 1429 0f75 07       		.byte	0x7
 1430 0f76 34       		.byte	0x34
 1431 0f77 19       		.byte	0x19
 1432 0f78 4B010000 		.long	0x14b
 1433 0f7c 09       		.uleb128 0x9
 1434 0f7d 99000000 		.long	0x99
 1435 0f81 8D0F0000 		.long	0xf8d
 1436 0f85 13       		.uleb128 0x13
 1437 0f86 2A030000 		.long	0x32a
 1438 0f8a CF07     		.word	0x7cf
 1439 0f8c 00       		.byte	0
 1440 0f8d 12       		.uleb128 0x12
 1441 0f8e 5441534B 		.ascii "TASK0_STACK\0"
 1441      305F5354 
 1441      41434B00 
 1442 0f9a 07       		.byte	0x7
 1443 0f9b 35       		.byte	0x35
 1444 0f9c 1A       		.byte	0x1a
 1445 0f9d 7C0F0000 		.long	0xf7c
 1446 0fa1 12       		.uleb128 0x12
 1447 0fa2 5441534B 		.ascii "TASK1_STACK\0"
 1447      315F5354 
 1447      41434B00 
 1448 0fae 07       		.byte	0x7
 1449 0faf 36       		.byte	0x36
 1450 0fb0 1A       		.byte	0x1a
 1451 0fb1 7C0F0000 		.long	0xf7c
 1452 0fb5 12       		.uleb128 0x12
 1453 0fb6 5441534B 		.ascii "TASK2_STACK\0"
 1453      325F5354 
 1453      41434B00 
 1454 0fc2 07       		.byte	0x7
 1455 0fc3 37       		.byte	0x37
 1456 0fc4 1A       		.byte	0x1a
 1457 0fc5 7C0F0000 		.long	0xf7c
 1458 0fc9 12       		.uleb128 0x12
 1459 0fca 5441534B 		.ascii "TASK3_STACK\0"
 1459      335F5354 
 1459      41434B00 
 1460 0fd6 07       		.byte	0x7
 1461 0fd7 38       		.byte	0x38
 1462 0fd8 1A       		.byte	0x1a
GAS LISTING C:\Users\PRESID~1\AppData\Local\Temp\ccEn1xvk.s 			page 41


 1463 0fd9 7C0F0000 		.long	0xf7c
 1464 0fdd 12       		.uleb128 0x12
 1465 0fde 5441534B 		.ascii "TASK4_STACK\0"
 1465      345F5354 
 1465      41434B00 
 1466 0fea 07       		.byte	0x7
 1467 0feb 39       		.byte	0x39
 1468 0fec 1A       		.byte	0x1a
 1469 0fed 7C0F0000 		.long	0xf7c
 1470 0ff1 12       		.uleb128 0x12
 1471 0ff2 4C415354 		.ascii "LAST_CURRENT_TIME\0"
 1471      5F435552 
 1471      52454E54 
 1471      5F54494D 
 1471      4500
 1472 1004 07       		.byte	0x7
 1473 1005 3A       		.byte	0x3a
 1474 1006 1A       		.byte	0x1a
 1475 1007 A70A0000 		.long	0xaa7
 1476 100b 09       		.uleb128 0x9
 1477 100c 6B0A0000 		.long	0xa6b
 1478 1010 1B100000 		.long	0x101b
 1479 1014 0A       		.uleb128 0xa
 1480 1015 2A030000 		.long	0x32a
 1481 1019 09       		.byte	0x9
 1482 101a 00       		.byte	0
 1483 101b 12       		.uleb128 0x12
 1484 101c 5441534B 		.ascii "TASK_SCHEDULING_QUEUE\0"
 1484      5F534348 
 1484      4544554C 
 1484      494E475F 
 1484      51554555 
 1485 1032 07       		.byte	0x7
 1486 1033 3B       		.byte	0x3b
 1487 1034 1A       		.byte	0x1a
 1488 1035 0B100000 		.long	0x100b
 1489 1039 12       		.uleb128 0x12
 1490 103a 52554E4E 		.ascii "RUNNING_SCHEDULING_QUEUE_ENTRY\0"
 1490      494E475F 
 1490      53434845 
 1490      44554C49 
 1490      4E475F51 
 1491 1059 07       		.byte	0x7
 1492 105a 3C       		.byte	0x3c
 1493 105b 1A       		.byte	0x1a
 1494 105c 60100000 		.long	0x1060
 1495 1060 0B       		.uleb128 0xb
 1496 1061 04       		.byte	0x4
 1497 1062 6B0A0000 		.long	0xa6b
 1498 1066 09       		.uleb128 0x9
 1499 1067 5C0A0000 		.long	0xa5c
 1500 106b 76100000 		.long	0x1076
 1501 106f 0A       		.uleb128 0xa
 1502 1070 2A030000 		.long	0x32a
 1503 1074 09       		.byte	0x9
 1504 1075 00       		.byte	0
 1505 1076 12       		.uleb128 0x12
GAS LISTING C:\Users\PRESID~1\AppData\Local\Temp\ccEn1xvk.s 			page 42


 1506 1077 5441534B 		.ascii "TASK_RUN_QUEUE\0"
 1506      5F52554E 
 1506      5F515545 
 1506      554500
 1507 1086 07       		.byte	0x7
 1508 1087 3D       		.byte	0x3d
 1509 1088 1A       		.byte	0x1a
 1510 1089 66100000 		.long	0x1066
 1511 108d 09       		.uleb128 0x9
 1512 108e 5C0A0000 		.long	0xa5c
 1513 1092 9D100000 		.long	0x109d
 1514 1096 0A       		.uleb128 0xa
 1515 1097 2A030000 		.long	0x32a
 1516 109b 00       		.byte	0
 1517 109c 00       		.byte	0
 1518 109d 12       		.uleb128 0x12
 1519 109e 52554E4E 		.ascii "RUNNING_TASK\0"
 1519      494E475F 
 1519      5441534B 
 1519      00
 1520 10ab 07       		.byte	0x7
 1521 10ac 3E       		.byte	0x3e
 1522 10ad 1A       		.byte	0x1a
 1523 10ae 8D100000 		.long	0x108d
 1524 10b2 12       		.uleb128 0x12
 1525 10b3 5441534B 		.ascii "TASK_IDLE_QUEUE\0"
 1525      5F49444C 
 1525      455F5155 
 1525      45554500 
 1526 10c3 07       		.byte	0x7
 1527 10c4 3F       		.byte	0x3f
 1528 10c5 1A       		.byte	0x1a
 1529 10c6 8D100000 		.long	0x108d
 1530 10ca 12       		.uleb128 0x12
 1531 10cb 62544153 		.ascii "bTASK_QUEUE_INITIALIZED\0"
 1531      4B5F5155 
 1531      4555455F 
 1531      494E4954 
 1531      49414C49 
 1532 10e3 07       		.byte	0x7
 1533 10e4 40       		.byte	0x40
 1534 10e5 1A       		.byte	0x1a
 1535 10e6 99000000 		.long	0x99
 1536 10ea 12       		.uleb128 0x12
 1537 10eb 5441534B 		.ascii "TASK_0_VAR\0"
 1537      5F305F56 
 1537      415200
 1538 10f6 07       		.byte	0x7
 1539 10f7 41       		.byte	0x41
 1540 10f8 0F       		.byte	0xf
 1541 10f9 5C0A0000 		.long	0xa5c
 1542 10fd 12       		.uleb128 0x12
 1543 10fe 5441534B 		.ascii "TASK_1_VAR\0"
 1543      5F315F56 
 1543      415200
 1544 1109 07       		.byte	0x7
 1545 110a 41       		.byte	0x41
GAS LISTING C:\Users\PRESID~1\AppData\Local\Temp\ccEn1xvk.s 			page 43


 1546 110b 1B       		.byte	0x1b
 1547 110c 5C0A0000 		.long	0xa5c
 1548 1110 12       		.uleb128 0x12
 1549 1111 5441534B 		.ascii "TASK_2_VAR\0"
 1549      5F325F56 
 1549      415200
 1550 111c 07       		.byte	0x7
 1551 111d 41       		.byte	0x41
 1552 111e 27       		.byte	0x27
 1553 111f 5C0A0000 		.long	0xa5c
 1554 1123 12       		.uleb128 0x12
 1555 1124 5441534B 		.ascii "TASK_3_VAR\0"
 1555      5F335F56 
 1555      415200
 1556 112f 07       		.byte	0x7
 1557 1130 41       		.byte	0x41
 1558 1131 33       		.byte	0x33
 1559 1132 5C0A0000 		.long	0xa5c
 1560 1136 12       		.uleb128 0x12
 1561 1137 5441534B 		.ascii "TASK_GROUP_1\0"
 1561      5F47524F 
 1561      55505F31 
 1561      00
 1562 1144 07       		.byte	0x7
 1563 1145 42       		.byte	0x42
 1564 1146 15       		.byte	0x15
 1565 1147 8F070000 		.long	0x78f
 1566 114b 12       		.uleb128 0x12
 1567 114c 5441534B 		.ascii "TASK_GROUP_2\0"
 1567      5F47524F 
 1567      55505F32 
 1567      00
 1568 1159 07       		.byte	0x7
 1569 115a 42       		.byte	0x42
 1570 115b 23       		.byte	0x23
 1571 115c 8F070000 		.long	0x78f
 1572 1160 12       		.uleb128 0x12
 1573 1161 5441534B 		.ascii "TASK_GROUP_3\0"
 1573      5F47524F 
 1573      55505F33 
 1573      00
 1574 116e 07       		.byte	0x7
 1575 116f 42       		.byte	0x42
 1576 1170 31       		.byte	0x31
 1577 1171 8F070000 		.long	0x78f
 1578 1175 12       		.uleb128 0x12
 1579 1176 5441534B 		.ascii "TASK_GROUP_4\0"
 1579      5F47524F 
 1579      55505F34 
 1579      00
 1580 1183 07       		.byte	0x7
 1581 1184 42       		.byte	0x42
 1582 1185 3F       		.byte	0x3f
 1583 1186 8F070000 		.long	0x78f
 1584 118a 12       		.uleb128 0x12
 1585 118b 5441534B 		.ascii "TASK_GROUP_5\0"
 1585      5F47524F 
GAS LISTING C:\Users\PRESID~1\AppData\Local\Temp\ccEn1xvk.s 			page 44


 1585      55505F35 
 1585      00
 1586 1198 07       		.byte	0x7
 1587 1199 42       		.byte	0x42
 1588 119a 4D       		.byte	0x4d
 1589 119b 8F070000 		.long	0x78f
 1590 119f 12       		.uleb128 0x12
 1591 11a0 5441534B 		.ascii "TASK_TRANSITION_REJECTED_TASK_ADDR\0"
 1591      5F545241 
 1591      4E534954 
 1591      494F4E5F 
 1591      52454A45 
 1592 11c3 07       		.byte	0x7
 1593 11c4 43       		.byte	0x43
 1594 11c5 1A       		.byte	0x1a
 1595 11c6 800A0000 		.long	0xa80
 1596 11ca 12       		.uleb128 0x12
 1597 11cb 5441534B 		.ascii "TASK_TRANSITION_REJECTED_STATE\0"
 1597      5F545241 
 1597      4E534954 
 1597      494F4E5F 
 1597      52454A45 
 1598 11ea 07       		.byte	0x7
 1599 11eb 44       		.byte	0x44
 1600 11ec 1A       		.byte	0x1a
 1601 11ed E3060000 		.long	0x6e3
 1602 11f1 12       		.uleb128 0x12
 1603 11f2 5441534B 		.ascii "TASK_TRANSITION_CURRENT_STATE\0"
 1603      5F545241 
 1603      4E534954 
 1603      494F4E5F 
 1603      43555252 
 1604 1210 07       		.byte	0x7
 1605 1211 45       		.byte	0x45
 1606 1212 1A       		.byte	0x1a
 1607 1213 E3060000 		.long	0x6e3
 1608 1217 12       		.uleb128 0x12
 1609 1218 53595354 		.ascii "SYSTEM_STATE_ACCEPTED\0"
 1609      454D5F53 
 1609      54415445 
 1609      5F414343 
 1609      45505445 
 1610 122e 07       		.byte	0x7
 1611 122f 46       		.byte	0x46
 1612 1230 1C       		.byte	0x1c
 1613 1231 240B0000 		.long	0xb24
 1614 1235 12       		.uleb128 0x12
 1615 1236 4C4F4341 		.ascii "LOCAL_SYSTEM_TIME\0"
 1615      4C5F5359 
 1615      5354454D 
 1615      5F54494D 
 1615      4500
 1616 1248 07       		.byte	0x7
 1617 1249 47       		.byte	0x47
 1618 124a 12       		.byte	0x12
 1619 124b B6050000 		.long	0x5b6
 1620 124f 09       		.uleb128 0x9
GAS LISTING C:\Users\PRESID~1\AppData\Local\Temp\ccEn1xvk.s 			page 45


 1621 1250 99000000 		.long	0x99
 1622 1254 60120000 		.long	0x1260
 1623 1258 13       		.uleb128 0x13
 1624 1259 2A030000 		.long	0x32a
 1625 125d FF03     		.word	0x3ff
 1626 125f 00       		.byte	0
 1627 1260 12       		.uleb128 0x12
 1628 1261 4F535F4D 		.ascii "OS_MAIN_STACK\0"
 1628      41494E5F 
 1628      53544143 
 1628      4B00
 1629 126f 08       		.byte	0x8
 1630 1270 0C       		.byte	0xc
 1631 1271 18       		.byte	0x18
 1632 1272 4F120000 		.long	0x124f
 1633 1276 14       		.uleb128 0x14
 1634 1277 4F535F53 		.ascii "OS_STACK_CHK_PATTERN_INIT\0"
 1634      5441434B 
 1634      5F43484B 
 1634      5F504154 
 1634      5445524E 
 1635 1291 01       		.byte	0x1
 1636 1292 6A       		.byte	0x6a
 1637 1293 06       		.byte	0x6
 1638 1294 FD030000 		.long	LFB1
 1639 1298 D0000000 		.long	LFE1-LFB1
 1640 129c 01       		.uleb128 0x1
 1641 129d 9C       		.byte	0x9c
 1642 129e B2120000 		.long	0x12b2
 1643 12a2 15       		.uleb128 0x15
 1644 12a3 00000000 		.secrel32	LASF1
 1645 12a7 01       		.byte	0x1
 1646 12a8 6C       		.byte	0x6c
 1647 12a9 0B       		.byte	0xb
 1648 12aa 3C010000 		.long	0x13c
 1649 12ae 02       		.uleb128 0x2
 1650 12af 91       		.byte	0x91
 1651 12b0 74       		.sleb128 -12
 1652 12b1 00       		.byte	0
 1653 12b2 16       		.uleb128 0x16
 1654 12b3 4F535F53 		.ascii "OS_STACK_CHECK\0"
 1654      5441434B 
 1654      5F434845 
 1654      434B00
 1655 12c2 01       		.byte	0x1
 1656 12c3 03       		.byte	0x3
 1657 12c4 06       		.byte	0x6
 1658 12c5 00000000 		.long	LFB0
 1659 12c9 FD030000 		.long	LFE0-LFB0
 1660 12cd 01       		.uleb128 0x1
 1661 12ce 9C       		.byte	0x9c
 1662 12cf 15       		.uleb128 0x15
 1663 12d0 00000000 		.secrel32	LASF1
 1664 12d4 01       		.byte	0x1
 1665 12d5 0B       		.byte	0xb
 1666 12d6 1B       		.byte	0x1b
 1667 12d7 4B010000 		.long	0x14b
GAS LISTING C:\Users\PRESID~1\AppData\Local\Temp\ccEn1xvk.s 			page 46


 1668 12db 05       		.uleb128 0x5
 1669 12dc 03       		.byte	0x3
 1670 12dd 00000000 		.long	_stack_pos.1451
 1671 12e1 17       		.uleb128 0x17
 1672 12e2 73746163 		.ascii "stack_used\0"
 1672      6B5F7573 
 1672      656400
 1673 12ed 01       		.byte	0x1
 1674 12ee 0B       		.byte	0xb
 1675 12ef 2B       		.byte	0x2b
 1676 12f0 4B010000 		.long	0x14b
 1677 12f4 05       		.uleb128 0x5
 1678 12f5 03       		.byte	0x3
 1679 12f6 04000000 		.long	_stack_used.1452
 1680 12fa 00       		.byte	0
 1681 12fb 00       		.byte	0
 1682              		.section	.debug_abbrev,"dr"
 1683              	Ldebug_abbrev0:
 1684 0000 01       		.uleb128 0x1
 1685 0001 11       		.uleb128 0x11
 1686 0002 01       		.byte	0x1
 1687 0003 25       		.uleb128 0x25
 1688 0004 08       		.uleb128 0x8
 1689 0005 13       		.uleb128 0x13
 1690 0006 0B       		.uleb128 0xb
 1691 0007 03       		.uleb128 0x3
 1692 0008 08       		.uleb128 0x8
 1693 0009 1B       		.uleb128 0x1b
 1694 000a 08       		.uleb128 0x8
 1695 000b 11       		.uleb128 0x11
 1696 000c 01       		.uleb128 0x1
 1697 000d 12       		.uleb128 0x12
 1698 000e 06       		.uleb128 0x6
 1699 000f 10       		.uleb128 0x10
 1700 0010 17       		.uleb128 0x17
 1701 0011 9942     		.uleb128 0x2119
 1702 0013 17       		.uleb128 0x17
 1703 0014 00       		.byte	0
 1704 0015 00       		.byte	0
 1705 0016 02       		.uleb128 0x2
 1706 0017 16       		.uleb128 0x16
 1707 0018 00       		.byte	0
 1708 0019 03       		.uleb128 0x3
 1709 001a 08       		.uleb128 0x8
 1710 001b 3A       		.uleb128 0x3a
 1711 001c 0B       		.uleb128 0xb
 1712 001d 3B       		.uleb128 0x3b
 1713 001e 0B       		.uleb128 0xb
 1714 001f 39       		.uleb128 0x39
 1715 0020 0B       		.uleb128 0xb
 1716 0021 49       		.uleb128 0x49
 1717 0022 13       		.uleb128 0x13
 1718 0023 00       		.byte	0
 1719 0024 00       		.byte	0
 1720 0025 03       		.uleb128 0x3
 1721 0026 24       		.uleb128 0x24
 1722 0027 00       		.byte	0
GAS LISTING C:\Users\PRESID~1\AppData\Local\Temp\ccEn1xvk.s 			page 47


 1723 0028 0B       		.uleb128 0xb
 1724 0029 0B       		.uleb128 0xb
 1725 002a 3E       		.uleb128 0x3e
 1726 002b 0B       		.uleb128 0xb
 1727 002c 03       		.uleb128 0x3
 1728 002d 08       		.uleb128 0x8
 1729 002e 00       		.byte	0
 1730 002f 00       		.byte	0
 1731 0030 04       		.uleb128 0x4
 1732 0031 35       		.uleb128 0x35
 1733 0032 00       		.byte	0
 1734 0033 49       		.uleb128 0x49
 1735 0034 13       		.uleb128 0x13
 1736 0035 00       		.byte	0
 1737 0036 00       		.byte	0
 1738 0037 05       		.uleb128 0x5
 1739 0038 04       		.uleb128 0x4
 1740 0039 01       		.byte	0x1
 1741 003a 03       		.uleb128 0x3
 1742 003b 08       		.uleb128 0x8
 1743 003c 3E       		.uleb128 0x3e
 1744 003d 0B       		.uleb128 0xb
 1745 003e 0B       		.uleb128 0xb
 1746 003f 0B       		.uleb128 0xb
 1747 0040 49       		.uleb128 0x49
 1748 0041 13       		.uleb128 0x13
 1749 0042 3A       		.uleb128 0x3a
 1750 0043 0B       		.uleb128 0xb
 1751 0044 3B       		.uleb128 0x3b
 1752 0045 0B       		.uleb128 0xb
 1753 0046 39       		.uleb128 0x39
 1754 0047 0B       		.uleb128 0xb
 1755 0048 01       		.uleb128 0x1
 1756 0049 13       		.uleb128 0x13
 1757 004a 00       		.byte	0
 1758 004b 00       		.byte	0
 1759 004c 06       		.uleb128 0x6
 1760 004d 28       		.uleb128 0x28
 1761 004e 00       		.byte	0
 1762 004f 03       		.uleb128 0x3
 1763 0050 08       		.uleb128 0x8
 1764 0051 1C       		.uleb128 0x1c
 1765 0052 0B       		.uleb128 0xb
 1766 0053 00       		.byte	0
 1767 0054 00       		.byte	0
 1768 0055 07       		.uleb128 0x7
 1769 0056 13       		.uleb128 0x13
 1770 0057 01       		.byte	0x1
 1771 0058 03       		.uleb128 0x3
 1772 0059 08       		.uleb128 0x8
 1773 005a 0B       		.uleb128 0xb
 1774 005b 0B       		.uleb128 0xb
 1775 005c 3A       		.uleb128 0x3a
 1776 005d 0B       		.uleb128 0xb
 1777 005e 3B       		.uleb128 0x3b
 1778 005f 0B       		.uleb128 0xb
 1779 0060 39       		.uleb128 0x39
GAS LISTING C:\Users\PRESID~1\AppData\Local\Temp\ccEn1xvk.s 			page 48


 1780 0061 0B       		.uleb128 0xb
 1781 0062 01       		.uleb128 0x1
 1782 0063 13       		.uleb128 0x13
 1783 0064 00       		.byte	0
 1784 0065 00       		.byte	0
 1785 0066 08       		.uleb128 0x8
 1786 0067 0D       		.uleb128 0xd
 1787 0068 00       		.byte	0
 1788 0069 03       		.uleb128 0x3
 1789 006a 08       		.uleb128 0x8
 1790 006b 3A       		.uleb128 0x3a
 1791 006c 0B       		.uleb128 0xb
 1792 006d 3B       		.uleb128 0x3b
 1793 006e 0B       		.uleb128 0xb
 1794 006f 39       		.uleb128 0x39
 1795 0070 0B       		.uleb128 0xb
 1796 0071 49       		.uleb128 0x49
 1797 0072 13       		.uleb128 0x13
 1798 0073 38       		.uleb128 0x38
 1799 0074 0B       		.uleb128 0xb
 1800 0075 00       		.byte	0
 1801 0076 00       		.byte	0
 1802 0077 09       		.uleb128 0x9
 1803 0078 01       		.uleb128 0x1
 1804 0079 01       		.byte	0x1
 1805 007a 49       		.uleb128 0x49
 1806 007b 13       		.uleb128 0x13
 1807 007c 01       		.uleb128 0x1
 1808 007d 13       		.uleb128 0x13
 1809 007e 00       		.byte	0
 1810 007f 00       		.byte	0
 1811 0080 0A       		.uleb128 0xa
 1812 0081 21       		.uleb128 0x21
 1813 0082 00       		.byte	0
 1814 0083 49       		.uleb128 0x49
 1815 0084 13       		.uleb128 0x13
 1816 0085 2F       		.uleb128 0x2f
 1817 0086 0B       		.uleb128 0xb
 1818 0087 00       		.byte	0
 1819 0088 00       		.byte	0
 1820 0089 0B       		.uleb128 0xb
 1821 008a 0F       		.uleb128 0xf
 1822 008b 00       		.byte	0
 1823 008c 0B       		.uleb128 0xb
 1824 008d 0B       		.uleb128 0xb
 1825 008e 49       		.uleb128 0x49
 1826 008f 13       		.uleb128 0x13
 1827 0090 00       		.byte	0
 1828 0091 00       		.byte	0
 1829 0092 0C       		.uleb128 0xc
 1830 0093 15       		.uleb128 0x15
 1831 0094 01       		.byte	0x1
 1832 0095 27       		.uleb128 0x27
 1833 0096 19       		.uleb128 0x19
 1834 0097 01       		.uleb128 0x1
 1835 0098 13       		.uleb128 0x13
 1836 0099 00       		.byte	0
GAS LISTING C:\Users\PRESID~1\AppData\Local\Temp\ccEn1xvk.s 			page 49


 1837 009a 00       		.byte	0
 1838 009b 0D       		.uleb128 0xd
 1839 009c 05       		.uleb128 0x5
 1840 009d 00       		.byte	0
 1841 009e 49       		.uleb128 0x49
 1842 009f 13       		.uleb128 0x13
 1843 00a0 00       		.byte	0
 1844 00a1 00       		.byte	0
 1845 00a2 0E       		.uleb128 0xe
 1846 00a3 0F       		.uleb128 0xf
 1847 00a4 00       		.byte	0
 1848 00a5 0B       		.uleb128 0xb
 1849 00a6 0B       		.uleb128 0xb
 1850 00a7 00       		.byte	0
 1851 00a8 00       		.byte	0
 1852 00a9 0F       		.uleb128 0xf
 1853 00aa 15       		.uleb128 0x15
 1854 00ab 01       		.byte	0x1
 1855 00ac 27       		.uleb128 0x27
 1856 00ad 19       		.uleb128 0x19
 1857 00ae 49       		.uleb128 0x49
 1858 00af 13       		.uleb128 0x13
 1859 00b0 01       		.uleb128 0x1
 1860 00b1 13       		.uleb128 0x13
 1861 00b2 00       		.byte	0
 1862 00b3 00       		.byte	0
 1863 00b4 10       		.uleb128 0x10
 1864 00b5 0D       		.uleb128 0xd
 1865 00b6 00       		.byte	0
 1866 00b7 03       		.uleb128 0x3
 1867 00b8 0E       		.uleb128 0xe
 1868 00b9 3A       		.uleb128 0x3a
 1869 00ba 0B       		.uleb128 0xb
 1870 00bb 3B       		.uleb128 0x3b
 1871 00bc 0B       		.uleb128 0xb
 1872 00bd 39       		.uleb128 0x39
 1873 00be 0B       		.uleb128 0xb
 1874 00bf 49       		.uleb128 0x49
 1875 00c0 13       		.uleb128 0x13
 1876 00c1 38       		.uleb128 0x38
 1877 00c2 0B       		.uleb128 0xb
 1878 00c3 00       		.byte	0
 1879 00c4 00       		.byte	0
 1880 00c5 11       		.uleb128 0x11
 1881 00c6 0D       		.uleb128 0xd
 1882 00c7 00       		.byte	0
 1883 00c8 03       		.uleb128 0x3
 1884 00c9 08       		.uleb128 0x8
 1885 00ca 3A       		.uleb128 0x3a
 1886 00cb 0B       		.uleb128 0xb
 1887 00cc 3B       		.uleb128 0x3b
 1888 00cd 0B       		.uleb128 0xb
 1889 00ce 39       		.uleb128 0x39
 1890 00cf 0B       		.uleb128 0xb
 1891 00d0 49       		.uleb128 0x49
 1892 00d1 13       		.uleb128 0x13
 1893 00d2 0B       		.uleb128 0xb
GAS LISTING C:\Users\PRESID~1\AppData\Local\Temp\ccEn1xvk.s 			page 50


 1894 00d3 0B       		.uleb128 0xb
 1895 00d4 0D       		.uleb128 0xd
 1896 00d5 0B       		.uleb128 0xb
 1897 00d6 0C       		.uleb128 0xc
 1898 00d7 0B       		.uleb128 0xb
 1899 00d8 38       		.uleb128 0x38
 1900 00d9 0B       		.uleb128 0xb
 1901 00da 00       		.byte	0
 1902 00db 00       		.byte	0
 1903 00dc 12       		.uleb128 0x12
 1904 00dd 34       		.uleb128 0x34
 1905 00de 00       		.byte	0
 1906 00df 03       		.uleb128 0x3
 1907 00e0 08       		.uleb128 0x8
 1908 00e1 3A       		.uleb128 0x3a
 1909 00e2 0B       		.uleb128 0xb
 1910 00e3 3B       		.uleb128 0x3b
 1911 00e4 0B       		.uleb128 0xb
 1912 00e5 39       		.uleb128 0x39
 1913 00e6 0B       		.uleb128 0xb
 1914 00e7 49       		.uleb128 0x49
 1915 00e8 13       		.uleb128 0x13
 1916 00e9 3F       		.uleb128 0x3f
 1917 00ea 19       		.uleb128 0x19
 1918 00eb 3C       		.uleb128 0x3c
 1919 00ec 19       		.uleb128 0x19
 1920 00ed 00       		.byte	0
 1921 00ee 00       		.byte	0
 1922 00ef 13       		.uleb128 0x13
 1923 00f0 21       		.uleb128 0x21
 1924 00f1 00       		.byte	0
 1925 00f2 49       		.uleb128 0x49
 1926 00f3 13       		.uleb128 0x13
 1927 00f4 2F       		.uleb128 0x2f
 1928 00f5 05       		.uleb128 0x5
 1929 00f6 00       		.byte	0
 1930 00f7 00       		.byte	0
 1931 00f8 14       		.uleb128 0x14
 1932 00f9 2E       		.uleb128 0x2e
 1933 00fa 01       		.byte	0x1
 1934 00fb 3F       		.uleb128 0x3f
 1935 00fc 19       		.uleb128 0x19
 1936 00fd 03       		.uleb128 0x3
 1937 00fe 08       		.uleb128 0x8
 1938 00ff 3A       		.uleb128 0x3a
 1939 0100 0B       		.uleb128 0xb
 1940 0101 3B       		.uleb128 0x3b
 1941 0102 0B       		.uleb128 0xb
 1942 0103 39       		.uleb128 0x39
 1943 0104 0B       		.uleb128 0xb
 1944 0105 27       		.uleb128 0x27
 1945 0106 19       		.uleb128 0x19
 1946 0107 11       		.uleb128 0x11
 1947 0108 01       		.uleb128 0x1
 1948 0109 12       		.uleb128 0x12
 1949 010a 06       		.uleb128 0x6
 1950 010b 40       		.uleb128 0x40
GAS LISTING C:\Users\PRESID~1\AppData\Local\Temp\ccEn1xvk.s 			page 51


 1951 010c 18       		.uleb128 0x18
 1952 010d 9742     		.uleb128 0x2117
 1953 010f 19       		.uleb128 0x19
 1954 0110 01       		.uleb128 0x1
 1955 0111 13       		.uleb128 0x13
 1956 0112 00       		.byte	0
 1957 0113 00       		.byte	0
 1958 0114 15       		.uleb128 0x15
 1959 0115 34       		.uleb128 0x34
 1960 0116 00       		.byte	0
 1961 0117 03       		.uleb128 0x3
 1962 0118 0E       		.uleb128 0xe
 1963 0119 3A       		.uleb128 0x3a
 1964 011a 0B       		.uleb128 0xb
 1965 011b 3B       		.uleb128 0x3b
 1966 011c 0B       		.uleb128 0xb
 1967 011d 39       		.uleb128 0x39
 1968 011e 0B       		.uleb128 0xb
 1969 011f 49       		.uleb128 0x49
 1970 0120 13       		.uleb128 0x13
 1971 0121 02       		.uleb128 0x2
 1972 0122 18       		.uleb128 0x18
 1973 0123 00       		.byte	0
 1974 0124 00       		.byte	0
 1975 0125 16       		.uleb128 0x16
 1976 0126 2E       		.uleb128 0x2e
 1977 0127 01       		.byte	0x1
 1978 0128 3F       		.uleb128 0x3f
 1979 0129 19       		.uleb128 0x19
 1980 012a 03       		.uleb128 0x3
 1981 012b 08       		.uleb128 0x8
 1982 012c 3A       		.uleb128 0x3a
 1983 012d 0B       		.uleb128 0xb
 1984 012e 3B       		.uleb128 0x3b
 1985 012f 0B       		.uleb128 0xb
 1986 0130 39       		.uleb128 0x39
 1987 0131 0B       		.uleb128 0xb
 1988 0132 27       		.uleb128 0x27
 1989 0133 19       		.uleb128 0x19
 1990 0134 11       		.uleb128 0x11
 1991 0135 01       		.uleb128 0x1
 1992 0136 12       		.uleb128 0x12
 1993 0137 06       		.uleb128 0x6
 1994 0138 40       		.uleb128 0x40
 1995 0139 18       		.uleb128 0x18
 1996 013a 9642     		.uleb128 0x2116
 1997 013c 19       		.uleb128 0x19
 1998 013d 00       		.byte	0
 1999 013e 00       		.byte	0
 2000 013f 17       		.uleb128 0x17
 2001 0140 34       		.uleb128 0x34
 2002 0141 00       		.byte	0
 2003 0142 03       		.uleb128 0x3
 2004 0143 08       		.uleb128 0x8
 2005 0144 3A       		.uleb128 0x3a
 2006 0145 0B       		.uleb128 0xb
 2007 0146 3B       		.uleb128 0x3b
GAS LISTING C:\Users\PRESID~1\AppData\Local\Temp\ccEn1xvk.s 			page 52


 2008 0147 0B       		.uleb128 0xb
 2009 0148 39       		.uleb128 0x39
 2010 0149 0B       		.uleb128 0xb
 2011 014a 49       		.uleb128 0x49
 2012 014b 13       		.uleb128 0x13
 2013 014c 02       		.uleb128 0x2
 2014 014d 18       		.uleb128 0x18
 2015 014e 00       		.byte	0
 2016 014f 00       		.byte	0
 2017 0150 00       		.byte	0
 2018              		.section	.debug_aranges,"dr"
 2019 0000 1C000000 		.long	0x1c
 2020 0004 0200     		.word	0x2
 2021 0006 00000000 		.secrel32	Ldebug_info0
 2022 000a 04       		.byte	0x4
 2023 000b 00       		.byte	0
 2024 000c 0000     		.word	0
 2025 000e 0000     		.word	0
 2026 0010 00000000 		.long	Ltext0
 2027 0014 CD040000 		.long	Letext0-Ltext0
 2028 0018 00000000 		.long	0
 2029 001c 00000000 		.long	0
 2030              		.section	.debug_macro,"dr"
 2031              	Ldebug_macro0:
 2032 0000 0400     		.word	0x4
 2033 0002 02       		.byte	0x2
 2034 0003 00000000 		.secrel32	Ldebug_line0
 2035 0007 01       		.byte	0x1
 2036 0008 00       		.uleb128 0
 2037 0009 5F5F5354 		.ascii "__STDC__ 1\0"
 2037      44435F5F 
 2037      203100
 2038 0014 01       		.byte	0x1
 2039 0015 00       		.uleb128 0
 2040 0016 5F5F5354 		.ascii "__STDC_HOSTED__ 1\0"
 2040      44435F48 
 2040      4F535445 
 2040      445F5F20 
 2040      3100
 2041 0028 01       		.byte	0x1
 2042 0029 00       		.uleb128 0
 2043 002a 5F5F474E 		.ascii "__GNUC__ 8\0"
 2043      55435F5F 
 2043      203800
 2044 0035 01       		.byte	0x1
 2045 0036 00       		.uleb128 0
 2046 0037 5F5F474E 		.ascii "__GNUC_MINOR__ 2\0"
 2046      55435F4D 
 2046      494E4F52 
 2046      5F5F2032 
 2046      00
 2047 0048 01       		.byte	0x1
 2048 0049 00       		.uleb128 0
 2049 004a 5F5F474E 		.ascii "__GNUC_PATCHLEVEL__ 0\0"
 2049      55435F50 
 2049      41544348 
 2049      4C455645 
GAS LISTING C:\Users\PRESID~1\AppData\Local\Temp\ccEn1xvk.s 			page 53


 2049      4C5F5F20 
 2050 0060 01       		.byte	0x1
 2051 0061 00       		.uleb128 0
 2052 0062 5F5F5645 		.ascii "__VERSION__ \"8.2.0\"\0"
 2052      5253494F 
 2052      4E5F5F20 
 2052      22382E32 
 2052      2E302200 
 2053 0076 01       		.byte	0x1
 2054 0077 00       		.uleb128 0
 2055 0078 5F5F4154 		.ascii "__ATOMIC_RELAXED 0\0"
 2055      4F4D4943 
 2055      5F52454C 
 2055      41584544 
 2055      203000
 2056 008b 01       		.byte	0x1
 2057 008c 00       		.uleb128 0
 2058 008d 5F5F4154 		.ascii "__ATOMIC_SEQ_CST 5\0"
 2058      4F4D4943 
 2058      5F534551 
 2058      5F435354 
 2058      203500
 2059 00a0 01       		.byte	0x1
 2060 00a1 00       		.uleb128 0
 2061 00a2 5F5F4154 		.ascii "__ATOMIC_ACQUIRE 2\0"
 2061      4F4D4943 
 2061      5F414351 
 2061      55495245 
 2061      203200
 2062 00b5 01       		.byte	0x1
 2063 00b6 00       		.uleb128 0
 2064 00b7 5F5F4154 		.ascii "__ATOMIC_RELEASE 3\0"
 2064      4F4D4943 
 2064      5F52454C 
 2064      45415345 
 2064      203300
 2065 00ca 01       		.byte	0x1
 2066 00cb 00       		.uleb128 0
 2067 00cc 5F5F4154 		.ascii "__ATOMIC_ACQ_REL 4\0"
 2067      4F4D4943 
 2067      5F414351 
 2067      5F52454C 
 2067      203400
 2068 00df 01       		.byte	0x1
 2069 00e0 00       		.uleb128 0
 2070 00e1 5F5F4154 		.ascii "__ATOMIC_CONSUME 1\0"
 2070      4F4D4943 
 2070      5F434F4E 
 2070      53554D45 
 2070      203100
 2071 00f4 01       		.byte	0x1
 2072 00f5 00       		.uleb128 0
 2073 00f6 5F5F4649 		.ascii "__FINITE_MATH_ONLY__ 0\0"
 2073      4E495445 
 2073      5F4D4154 
 2073      485F4F4E 
 2073      4C595F5F 
GAS LISTING C:\Users\PRESID~1\AppData\Local\Temp\ccEn1xvk.s 			page 54


 2074 010d 01       		.byte	0x1
 2075 010e 00       		.uleb128 0
 2076 010f 5F5F5349 		.ascii "__SIZEOF_INT__ 4\0"
 2076      5A454F46 
 2076      5F494E54 
 2076      5F5F2034 
 2076      00
 2077 0120 01       		.byte	0x1
 2078 0121 00       		.uleb128 0
 2079 0122 5F5F5349 		.ascii "__SIZEOF_LONG__ 4\0"
 2079      5A454F46 
 2079      5F4C4F4E 
 2079      475F5F20 
 2079      3400
 2080 0134 01       		.byte	0x1
 2081 0135 00       		.uleb128 0
 2082 0136 5F5F5349 		.ascii "__SIZEOF_LONG_LONG__ 8\0"
 2082      5A454F46 
 2082      5F4C4F4E 
 2082      475F4C4F 
 2082      4E475F5F 
 2083 014d 01       		.byte	0x1
 2084 014e 00       		.uleb128 0
 2085 014f 5F5F5349 		.ascii "__SIZEOF_SHORT__ 2\0"
 2085      5A454F46 
 2085      5F53484F 
 2085      52545F5F 
 2085      203200
 2086 0162 01       		.byte	0x1
 2087 0163 00       		.uleb128 0
 2088 0164 5F5F5349 		.ascii "__SIZEOF_FLOAT__ 4\0"
 2088      5A454F46 
 2088      5F464C4F 
 2088      41545F5F 
 2088      203400
 2089 0177 01       		.byte	0x1
 2090 0178 00       		.uleb128 0
 2091 0179 5F5F5349 		.ascii "__SIZEOF_DOUBLE__ 8\0"
 2091      5A454F46 
 2091      5F444F55 
 2091      424C455F 
 2091      5F203800 
 2092 018d 01       		.byte	0x1
 2093 018e 00       		.uleb128 0
 2094 018f 5F5F5349 		.ascii "__SIZEOF_LONG_DOUBLE__ 12\0"
 2094      5A454F46 
 2094      5F4C4F4E 
 2094      475F444F 
 2094      55424C45 
 2095 01a9 01       		.byte	0x1
 2096 01aa 00       		.uleb128 0
 2097 01ab 5F5F5349 		.ascii "__SIZEOF_SIZE_T__ 4\0"
 2097      5A454F46 
 2097      5F53495A 
 2097      455F545F 
 2097      5F203400 
 2098 01bf 01       		.byte	0x1
GAS LISTING C:\Users\PRESID~1\AppData\Local\Temp\ccEn1xvk.s 			page 55


 2099 01c0 00       		.uleb128 0
 2100 01c1 5F5F4348 		.ascii "__CHAR_BIT__ 8\0"
 2100      41525F42 
 2100      49545F5F 
 2100      203800
 2101 01d0 01       		.byte	0x1
 2102 01d1 00       		.uleb128 0
 2103 01d2 5F5F4249 		.ascii "__BIGGEST_ALIGNMENT__ 16\0"
 2103      47474553 
 2103      545F414C 
 2103      49474E4D 
 2103      454E545F 
 2104 01eb 01       		.byte	0x1
 2105 01ec 00       		.uleb128 0
 2106 01ed 5F5F4F52 		.ascii "__ORDER_LITTLE_ENDIAN__ 1234\0"
 2106      4445525F 
 2106      4C495454 
 2106      4C455F45 
 2106      4E444941 
 2107 020a 01       		.byte	0x1
 2108 020b 00       		.uleb128 0
 2109 020c 5F5F4F52 		.ascii "__ORDER_BIG_ENDIAN__ 4321\0"
 2109      4445525F 
 2109      4249475F 
 2109      454E4449 
 2109      414E5F5F 
 2110 0226 01       		.byte	0x1
 2111 0227 00       		.uleb128 0
 2112 0228 5F5F4F52 		.ascii "__ORDER_PDP_ENDIAN__ 3412\0"
 2112      4445525F 
 2112      5044505F 
 2112      454E4449 
 2112      414E5F5F 
 2113 0242 01       		.byte	0x1
 2114 0243 00       		.uleb128 0
 2115 0244 5F5F4259 		.ascii "__BYTE_ORDER__ __ORDER_LITTLE_ENDIAN__\0"
 2115      54455F4F 
 2115      52444552 
 2115      5F5F205F 
 2115      5F4F5244 
 2116 026b 01       		.byte	0x1
 2117 026c 00       		.uleb128 0
 2118 026d 5F5F464C 		.ascii "__FLOAT_WORD_ORDER__ __ORDER_LITTLE_ENDIAN__\0"
 2118      4F41545F 
 2118      574F5244 
 2118      5F4F5244 
 2118      45525F5F 
 2119 029a 01       		.byte	0x1
 2120 029b 00       		.uleb128 0
 2121 029c 5F5F5349 		.ascii "__SIZEOF_POINTER__ 4\0"
 2121      5A454F46 
 2121      5F504F49 
 2121      4E544552 
 2121      5F5F2034 
 2122 02b1 01       		.byte	0x1
 2123 02b2 00       		.uleb128 0
 2124 02b3 5F5F5349 		.ascii "__SIZE_TYPE__ unsigned int\0"
GAS LISTING C:\Users\PRESID~1\AppData\Local\Temp\ccEn1xvk.s 			page 56


 2124      5A455F54 
 2124      5950455F 
 2124      5F20756E 
 2124      7369676E 
 2125 02ce 01       		.byte	0x1
 2126 02cf 00       		.uleb128 0
 2127 02d0 5F5F5054 		.ascii "__PTRDIFF_TYPE__ int\0"
 2127      52444946 
 2127      465F5459 
 2127      50455F5F 
 2127      20696E74 
 2128 02e5 01       		.byte	0x1
 2129 02e6 00       		.uleb128 0
 2130 02e7 5F5F5743 		.ascii "__WCHAR_TYPE__ short unsigned int\0"
 2130      4841525F 
 2130      54595045 
 2130      5F5F2073 
 2130      686F7274 
 2131 0309 01       		.byte	0x1
 2132 030a 00       		.uleb128 0
 2133 030b 5F5F5749 		.ascii "__WINT_TYPE__ short unsigned int\0"
 2133      4E545F54 
 2133      5950455F 
 2133      5F207368 
 2133      6F727420 
 2134 032c 01       		.byte	0x1
 2135 032d 00       		.uleb128 0
 2136 032e 5F5F494E 		.ascii "__INTMAX_TYPE__ long long int\0"
 2136      544D4158 
 2136      5F545950 
 2136      455F5F20 
 2136      6C6F6E67 
 2137 034c 01       		.byte	0x1
 2138 034d 00       		.uleb128 0
 2139 034e 5F5F5549 		.ascii "__UINTMAX_TYPE__ long long unsigned int\0"
 2139      4E544D41 
 2139      585F5459 
 2139      50455F5F 
 2139      206C6F6E 
 2140 0376 01       		.byte	0x1
 2141 0377 00       		.uleb128 0
 2142 0378 5F5F4348 		.ascii "__CHAR16_TYPE__ short unsigned int\0"
 2142      41523136 
 2142      5F545950 
 2142      455F5F20 
 2142      73686F72 
 2143 039b 01       		.byte	0x1
 2144 039c 00       		.uleb128 0
 2145 039d 5F5F4348 		.ascii "__CHAR32_TYPE__ unsigned int\0"
 2145      41523332 
 2145      5F545950 
 2145      455F5F20 
 2145      756E7369 
 2146 03ba 01       		.byte	0x1
 2147 03bb 00       		.uleb128 0
 2148 03bc 5F5F5349 		.ascii "__SIG_ATOMIC_TYPE__ int\0"
 2148      475F4154 
GAS LISTING C:\Users\PRESID~1\AppData\Local\Temp\ccEn1xvk.s 			page 57


 2148      4F4D4943 
 2148      5F545950 
 2148      455F5F20 
 2149 03d4 01       		.byte	0x1
 2150 03d5 00       		.uleb128 0
 2151 03d6 5F5F494E 		.ascii "__INT8_TYPE__ signed char\0"
 2151      54385F54 
 2151      5950455F 
 2151      5F207369 
 2151      676E6564 
 2152 03f0 01       		.byte	0x1
 2153 03f1 00       		.uleb128 0
 2154 03f2 5F5F494E 		.ascii "__INT16_TYPE__ short int\0"
 2154      5431365F 
 2154      54595045 
 2154      5F5F2073 
 2154      686F7274 
 2155 040b 01       		.byte	0x1
 2156 040c 00       		.uleb128 0
 2157 040d 5F5F494E 		.ascii "__INT32_TYPE__ int\0"
 2157      5433325F 
 2157      54595045 
 2157      5F5F2069 
 2157      6E7400
 2158 0420 01       		.byte	0x1
 2159 0421 00       		.uleb128 0
 2160 0422 5F5F494E 		.ascii "__INT64_TYPE__ long long int\0"
 2160      5436345F 
 2160      54595045 
 2160      5F5F206C 
 2160      6F6E6720 
 2161 043f 01       		.byte	0x1
 2162 0440 00       		.uleb128 0
 2163 0441 5F5F5549 		.ascii "__UINT8_TYPE__ unsigned char\0"
 2163      4E54385F 
 2163      54595045 
 2163      5F5F2075 
 2163      6E736967 
 2164 045e 01       		.byte	0x1
 2165 045f 00       		.uleb128 0
 2166 0460 5F5F5549 		.ascii "__UINT16_TYPE__ short unsigned int\0"
 2166      4E543136 
 2166      5F545950 
 2166      455F5F20 
 2166      73686F72 
 2167 0483 01       		.byte	0x1
 2168 0484 00       		.uleb128 0
 2169 0485 5F5F5549 		.ascii "__UINT32_TYPE__ unsigned int\0"
 2169      4E543332 
 2169      5F545950 
 2169      455F5F20 
 2169      756E7369 
 2170 04a2 01       		.byte	0x1
 2171 04a3 00       		.uleb128 0
 2172 04a4 5F5F5549 		.ascii "__UINT64_TYPE__ long long unsigned int\0"
 2172      4E543634 
 2172      5F545950 
GAS LISTING C:\Users\PRESID~1\AppData\Local\Temp\ccEn1xvk.s 			page 58


 2172      455F5F20 
 2172      6C6F6E67 
 2173 04cb 01       		.byte	0x1
 2174 04cc 00       		.uleb128 0
 2175 04cd 5F5F494E 		.ascii "__INT_LEAST8_TYPE__ signed char\0"
 2175      545F4C45 
 2175      41535438 
 2175      5F545950 
 2175      455F5F20 
 2176 04ed 01       		.byte	0x1
 2177 04ee 00       		.uleb128 0
 2178 04ef 5F5F494E 		.ascii "__INT_LEAST16_TYPE__ short int\0"
 2178      545F4C45 
 2178      41535431 
 2178      365F5459 
 2178      50455F5F 
 2179 050e 01       		.byte	0x1
 2180 050f 00       		.uleb128 0
 2181 0510 5F5F494E 		.ascii "__INT_LEAST32_TYPE__ int\0"
 2181      545F4C45 
 2181      41535433 
 2181      325F5459 
 2181      50455F5F 
 2182 0529 01       		.byte	0x1
 2183 052a 00       		.uleb128 0
 2184 052b 5F5F494E 		.ascii "__INT_LEAST64_TYPE__ long long int\0"
 2184      545F4C45 
 2184      41535436 
 2184      345F5459 
 2184      50455F5F 
 2185 054e 01       		.byte	0x1
 2186 054f 00       		.uleb128 0
 2187 0550 5F5F5549 		.ascii "__UINT_LEAST8_TYPE__ unsigned char\0"
 2187      4E545F4C 
 2187      45415354 
 2187      385F5459 
 2187      50455F5F 
 2188 0573 01       		.byte	0x1
 2189 0574 00       		.uleb128 0
 2190 0575 5F5F5549 		.ascii "__UINT_LEAST16_TYPE__ short unsigned int\0"
 2190      4E545F4C 
 2190      45415354 
 2190      31365F54 
 2190      5950455F 
 2191 059e 01       		.byte	0x1
 2192 059f 00       		.uleb128 0
 2193 05a0 5F5F5549 		.ascii "__UINT_LEAST32_TYPE__ unsigned int\0"
 2193      4E545F4C 
 2193      45415354 
 2193      33325F54 
 2193      5950455F 
 2194 05c3 01       		.byte	0x1
 2195 05c4 00       		.uleb128 0
 2196 05c5 5F5F5549 		.ascii "__UINT_LEAST64_TYPE__ long long unsigned int\0"
 2196      4E545F4C 
 2196      45415354 
 2196      36345F54 
GAS LISTING C:\Users\PRESID~1\AppData\Local\Temp\ccEn1xvk.s 			page 59


 2196      5950455F 
 2197 05f2 01       		.byte	0x1
 2198 05f3 00       		.uleb128 0
 2199 05f4 5F5F494E 		.ascii "__INT_FAST8_TYPE__ signed char\0"
 2199      545F4641 
 2199      5354385F 
 2199      54595045 
 2199      5F5F2073 
 2200 0613 01       		.byte	0x1
 2201 0614 00       		.uleb128 0
 2202 0615 5F5F494E 		.ascii "__INT_FAST16_TYPE__ short int\0"
 2202      545F4641 
 2202      53543136 
 2202      5F545950 
 2202      455F5F20 
 2203 0633 01       		.byte	0x1
 2204 0634 00       		.uleb128 0
 2205 0635 5F5F494E 		.ascii "__INT_FAST32_TYPE__ int\0"
 2205      545F4641 
 2205      53543332 
 2205      5F545950 
 2205      455F5F20 
 2206 064d 01       		.byte	0x1
 2207 064e 00       		.uleb128 0
 2208 064f 5F5F494E 		.ascii "__INT_FAST64_TYPE__ long long int\0"
 2208      545F4641 
 2208      53543634 
 2208      5F545950 
 2208      455F5F20 
 2209 0671 01       		.byte	0x1
 2210 0672 00       		.uleb128 0
 2211 0673 5F5F5549 		.ascii "__UINT_FAST8_TYPE__ unsigned char\0"
 2211      4E545F46 
 2211      41535438 
 2211      5F545950 
 2211      455F5F20 
 2212 0695 01       		.byte	0x1
 2213 0696 00       		.uleb128 0
 2214 0697 5F5F5549 		.ascii "__UINT_FAST16_TYPE__ short unsigned int\0"
 2214      4E545F46 
 2214      41535431 
 2214      365F5459 
 2214      50455F5F 
 2215 06bf 01       		.byte	0x1
 2216 06c0 00       		.uleb128 0
 2217 06c1 5F5F5549 		.ascii "__UINT_FAST32_TYPE__ unsigned int\0"
 2217      4E545F46 
 2217      41535433 
 2217      325F5459 
 2217      50455F5F 
 2218 06e3 01       		.byte	0x1
 2219 06e4 00       		.uleb128 0
 2220 06e5 5F5F5549 		.ascii "__UINT_FAST64_TYPE__ long long unsigned int\0"
 2220      4E545F46 
 2220      41535436 
 2220      345F5459 
 2220      50455F5F 
GAS LISTING C:\Users\PRESID~1\AppData\Local\Temp\ccEn1xvk.s 			page 60


 2221 0711 01       		.byte	0x1
 2222 0712 00       		.uleb128 0
 2223 0713 5F5F494E 		.ascii "__INTPTR_TYPE__ int\0"
 2223      54505452 
 2223      5F545950 
 2223      455F5F20 
 2223      696E7400 
 2224 0727 01       		.byte	0x1
 2225 0728 00       		.uleb128 0
 2226 0729 5F5F5549 		.ascii "__UINTPTR_TYPE__ unsigned int\0"
 2226      4E545054 
 2226      525F5459 
 2226      50455F5F 
 2226      20756E73 
 2227 0747 01       		.byte	0x1
 2228 0748 00       		.uleb128 0
 2229 0749 5F5F6861 		.ascii "__has_include(STR) __has_include__(STR)\0"
 2229      735F696E 
 2229      636C7564 
 2229      65285354 
 2229      5229205F 
 2230 0771 01       		.byte	0x1
 2231 0772 00       		.uleb128 0
 2232 0773 5F5F6861 		.ascii "__has_include_next(STR) __has_include_next__(STR)\0"
 2232      735F696E 
 2232      636C7564 
 2232      655F6E65 
 2232      78742853 
 2233 07a5 01       		.byte	0x1
 2234 07a6 00       		.uleb128 0
 2235 07a7 5F5F4758 		.ascii "__GXX_ABI_VERSION 1013\0"
 2235      585F4142 
 2235      495F5645 
 2235      5253494F 
 2235      4E203130 
 2236 07be 01       		.byte	0x1
 2237 07bf 00       		.uleb128 0
 2238 07c0 5F5F5343 		.ascii "__SCHAR_MAX__ 0x7f\0"
 2238      4841525F 
 2238      4D41585F 
 2238      5F203078 
 2238      376600
 2239 07d3 01       		.byte	0x1
 2240 07d4 00       		.uleb128 0
 2241 07d5 5F5F5348 		.ascii "__SHRT_MAX__ 0x7fff\0"
 2241      52545F4D 
 2241      41585F5F 
 2241      20307837 
 2241      66666600 
 2242 07e9 01       		.byte	0x1
 2243 07ea 00       		.uleb128 0
 2244 07eb 5F5F494E 		.ascii "__INT_MAX__ 0x7fffffff\0"
 2244      545F4D41 
 2244      585F5F20 
 2244      30783766 
 2244      66666666 
 2245 0802 01       		.byte	0x1
GAS LISTING C:\Users\PRESID~1\AppData\Local\Temp\ccEn1xvk.s 			page 61


 2246 0803 00       		.uleb128 0
 2247 0804 5F5F4C4F 		.ascii "__LONG_MAX__ 0x7fffffffL\0"
 2247      4E475F4D 
 2247      41585F5F 
 2247      20307837 
 2247      66666666 
 2248 081d 01       		.byte	0x1
 2249 081e 00       		.uleb128 0
 2250 081f 5F5F4C4F 		.ascii "__LONG_LONG_MAX__ 0x7fffffffffffffffLL\0"
 2250      4E475F4C 
 2250      4F4E475F 
 2250      4D41585F 
 2250      5F203078 
 2251 0846 01       		.byte	0x1
 2252 0847 00       		.uleb128 0
 2253 0848 5F5F5743 		.ascii "__WCHAR_MAX__ 0xffff\0"
 2253      4841525F 
 2253      4D41585F 
 2253      5F203078 
 2253      66666666 
 2254 085d 01       		.byte	0x1
 2255 085e 00       		.uleb128 0
 2256 085f 5F5F5743 		.ascii "__WCHAR_MIN__ 0\0"
 2256      4841525F 
 2256      4D494E5F 
 2256      5F203000 
 2257 086f 01       		.byte	0x1
 2258 0870 00       		.uleb128 0
 2259 0871 5F5F5749 		.ascii "__WINT_MAX__ 0xffff\0"
 2259      4E545F4D 
 2259      41585F5F 
 2259      20307866 
 2259      66666600 
 2260 0885 01       		.byte	0x1
 2261 0886 00       		.uleb128 0
 2262 0887 5F5F5749 		.ascii "__WINT_MIN__ 0\0"
 2262      4E545F4D 
 2262      494E5F5F 
 2262      203000
 2263 0896 01       		.byte	0x1
 2264 0897 00       		.uleb128 0
 2265 0898 5F5F5054 		.ascii "__PTRDIFF_MAX__ 0x7fffffff\0"
 2265      52444946 
 2265      465F4D41 
 2265      585F5F20 
 2265      30783766 
 2266 08b3 01       		.byte	0x1
 2267 08b4 00       		.uleb128 0
 2268 08b5 5F5F5349 		.ascii "__SIZE_MAX__ 0xffffffffU\0"
 2268      5A455F4D 
 2268      41585F5F 
 2268      20307866 
 2268      66666666 
 2269 08ce 01       		.byte	0x1
 2270 08cf 00       		.uleb128 0
 2271 08d0 5F5F5343 		.ascii "__SCHAR_WIDTH__ 8\0"
 2271      4841525F 
GAS LISTING C:\Users\PRESID~1\AppData\Local\Temp\ccEn1xvk.s 			page 62


 2271      57494454 
 2271      485F5F20 
 2271      3800
 2272 08e2 01       		.byte	0x1
 2273 08e3 00       		.uleb128 0
 2274 08e4 5F5F5348 		.ascii "__SHRT_WIDTH__ 16\0"
 2274      52545F57 
 2274      49445448 
 2274      5F5F2031 
 2274      3600
 2275 08f6 01       		.byte	0x1
 2276 08f7 00       		.uleb128 0
 2277 08f8 5F5F494E 		.ascii "__INT_WIDTH__ 32\0"
 2277      545F5749 
 2277      4454485F 
 2277      5F203332 
 2277      00
 2278 0909 01       		.byte	0x1
 2279 090a 00       		.uleb128 0
 2280 090b 5F5F4C4F 		.ascii "__LONG_WIDTH__ 32\0"
 2280      4E475F57 
 2280      49445448 
 2280      5F5F2033 
 2280      3200
 2281 091d 01       		.byte	0x1
 2282 091e 00       		.uleb128 0
 2283 091f 5F5F4C4F 		.ascii "__LONG_LONG_WIDTH__ 64\0"
 2283      4E475F4C 
 2283      4F4E475F 
 2283      57494454 
 2283      485F5F20 
 2284 0936 01       		.byte	0x1
 2285 0937 00       		.uleb128 0
 2286 0938 5F5F5743 		.ascii "__WCHAR_WIDTH__ 16\0"
 2286      4841525F 
 2286      57494454 
 2286      485F5F20 
 2286      313600
 2287 094b 01       		.byte	0x1
 2288 094c 00       		.uleb128 0
 2289 094d 5F5F5749 		.ascii "__WINT_WIDTH__ 16\0"
 2289      4E545F57 
 2289      49445448 
 2289      5F5F2031 
 2289      3600
 2290 095f 01       		.byte	0x1
 2291 0960 00       		.uleb128 0
 2292 0961 5F5F5054 		.ascii "__PTRDIFF_WIDTH__ 32\0"
 2292      52444946 
 2292      465F5749 
 2292      4454485F 
 2292      5F203332 
 2293 0976 01       		.byte	0x1
 2294 0977 00       		.uleb128 0
 2295 0978 5F5F5349 		.ascii "__SIZE_WIDTH__ 32\0"
 2295      5A455F57 
 2295      49445448 
GAS LISTING C:\Users\PRESID~1\AppData\Local\Temp\ccEn1xvk.s 			page 63


 2295      5F5F2033 
 2295      3200
 2296 098a 01       		.byte	0x1
 2297 098b 00       		.uleb128 0
 2298 098c 5F5F494E 		.ascii "__INTMAX_MAX__ 0x7fffffffffffffffLL\0"
 2298      544D4158 
 2298      5F4D4158 
 2298      5F5F2030 
 2298      78376666 
 2299 09b0 01       		.byte	0x1
 2300 09b1 00       		.uleb128 0
 2301 09b2 5F5F494E 		.ascii "__INTMAX_C(c) c ## LL\0"
 2301      544D4158 
 2301      5F432863 
 2301      29206320 
 2301      2323204C 
 2302 09c8 01       		.byte	0x1
 2303 09c9 00       		.uleb128 0
 2304 09ca 5F5F5549 		.ascii "__UINTMAX_MAX__ 0xffffffffffffffffULL\0"
 2304      4E544D41 
 2304      585F4D41 
 2304      585F5F20 
 2304      30786666 
 2305 09f0 01       		.byte	0x1
 2306 09f1 00       		.uleb128 0
 2307 09f2 5F5F5549 		.ascii "__UINTMAX_C(c) c ## ULL\0"
 2307      4E544D41 
 2307      585F4328 
 2307      63292063 
 2307      20232320 
 2308 0a0a 01       		.byte	0x1
 2309 0a0b 00       		.uleb128 0
 2310 0a0c 5F5F494E 		.ascii "__INTMAX_WIDTH__ 64\0"
 2310      544D4158 
 2310      5F574944 
 2310      54485F5F 
 2310      20363400 
 2311 0a20 01       		.byte	0x1
 2312 0a21 00       		.uleb128 0
 2313 0a22 5F5F5349 		.ascii "__SIG_ATOMIC_MAX__ 0x7fffffff\0"
 2313      475F4154 
 2313      4F4D4943 
 2313      5F4D4158 
 2313      5F5F2030 
 2314 0a40 01       		.byte	0x1
 2315 0a41 00       		.uleb128 0
 2316 0a42 5F5F5349 		.ascii "__SIG_ATOMIC_MIN__ (-__SIG_ATOMIC_MAX__ - 1)\0"
 2316      475F4154 
 2316      4F4D4943 
 2316      5F4D494E 
 2316      5F5F2028 
 2317 0a6f 01       		.byte	0x1
 2318 0a70 00       		.uleb128 0
 2319 0a71 5F5F5349 		.ascii "__SIG_ATOMIC_WIDTH__ 32\0"
 2319      475F4154 
 2319      4F4D4943 
 2319      5F574944 
GAS LISTING C:\Users\PRESID~1\AppData\Local\Temp\ccEn1xvk.s 			page 64


 2319      54485F5F 
 2320 0a89 01       		.byte	0x1
 2321 0a8a 00       		.uleb128 0
 2322 0a8b 5F5F494E 		.ascii "__INT8_MAX__ 0x7f\0"
 2322      54385F4D 
 2322      41585F5F 
 2322      20307837 
 2322      6600
 2323 0a9d 01       		.byte	0x1
 2324 0a9e 00       		.uleb128 0
 2325 0a9f 5F5F494E 		.ascii "__INT16_MAX__ 0x7fff\0"
 2325      5431365F 
 2325      4D41585F 
 2325      5F203078 
 2325      37666666 
 2326 0ab4 01       		.byte	0x1
 2327 0ab5 00       		.uleb128 0
 2328 0ab6 5F5F494E 		.ascii "__INT32_MAX__ 0x7fffffff\0"
 2328      5433325F 
 2328      4D41585F 
 2328      5F203078 
 2328      37666666 
 2329 0acf 01       		.byte	0x1
 2330 0ad0 00       		.uleb128 0
 2331 0ad1 5F5F494E 		.ascii "__INT64_MAX__ 0x7fffffffffffffffLL\0"
 2331      5436345F 
 2331      4D41585F 
 2331      5F203078 
 2331      37666666 
 2332 0af4 01       		.byte	0x1
 2333 0af5 00       		.uleb128 0
 2334 0af6 5F5F5549 		.ascii "__UINT8_MAX__ 0xff\0"
 2334      4E54385F 
 2334      4D41585F 
 2334      5F203078 
 2334      666600
 2335 0b09 01       		.byte	0x1
 2336 0b0a 00       		.uleb128 0
 2337 0b0b 5F5F5549 		.ascii "__UINT16_MAX__ 0xffff\0"
 2337      4E543136 
 2337      5F4D4158 
 2337      5F5F2030 
 2337      78666666 
 2338 0b21 01       		.byte	0x1
 2339 0b22 00       		.uleb128 0
 2340 0b23 5F5F5549 		.ascii "__UINT32_MAX__ 0xffffffffU\0"
 2340      4E543332 
 2340      5F4D4158 
 2340      5F5F2030 
 2340      78666666 
 2341 0b3e 01       		.byte	0x1
 2342 0b3f 00       		.uleb128 0
 2343 0b40 5F5F5549 		.ascii "__UINT64_MAX__ 0xffffffffffffffffULL\0"
 2343      4E543634 
 2343      5F4D4158 
 2343      5F5F2030 
 2343      78666666 
GAS LISTING C:\Users\PRESID~1\AppData\Local\Temp\ccEn1xvk.s 			page 65


 2344 0b65 01       		.byte	0x1
 2345 0b66 00       		.uleb128 0
 2346 0b67 5F5F494E 		.ascii "__INT_LEAST8_MAX__ 0x7f\0"
 2346      545F4C45 
 2346      41535438 
 2346      5F4D4158 
 2346      5F5F2030 
 2347 0b7f 01       		.byte	0x1
 2348 0b80 00       		.uleb128 0
 2349 0b81 5F5F494E 		.ascii "__INT8_C(c) c\0"
 2349      54385F43 
 2349      28632920 
 2349      6300
 2350 0b8f 01       		.byte	0x1
 2351 0b90 00       		.uleb128 0
 2352 0b91 5F5F494E 		.ascii "__INT_LEAST8_WIDTH__ 8\0"
 2352      545F4C45 
 2352      41535438 
 2352      5F574944 
 2352      54485F5F 
 2353 0ba8 01       		.byte	0x1
 2354 0ba9 00       		.uleb128 0
 2355 0baa 5F5F494E 		.ascii "__INT_LEAST16_MAX__ 0x7fff\0"
 2355      545F4C45 
 2355      41535431 
 2355      365F4D41 
 2355      585F5F20 
 2356 0bc5 01       		.byte	0x1
 2357 0bc6 00       		.uleb128 0
 2358 0bc7 5F5F494E 		.ascii "__INT16_C(c) c\0"
 2358      5431365F 
 2358      43286329 
 2358      206300
 2359 0bd6 01       		.byte	0x1
 2360 0bd7 00       		.uleb128 0
 2361 0bd8 5F5F494E 		.ascii "__INT_LEAST16_WIDTH__ 16\0"
 2361      545F4C45 
 2361      41535431 
 2361      365F5749 
 2361      4454485F 
 2362 0bf1 01       		.byte	0x1
 2363 0bf2 00       		.uleb128 0
 2364 0bf3 5F5F494E 		.ascii "__INT_LEAST32_MAX__ 0x7fffffff\0"
 2364      545F4C45 
 2364      41535433 
 2364      325F4D41 
 2364      585F5F20 
 2365 0c12 01       		.byte	0x1
 2366 0c13 00       		.uleb128 0
 2367 0c14 5F5F494E 		.ascii "__INT32_C(c) c\0"
 2367      5433325F 
 2367      43286329 
 2367      206300
 2368 0c23 01       		.byte	0x1
 2369 0c24 00       		.uleb128 0
 2370 0c25 5F5F494E 		.ascii "__INT_LEAST32_WIDTH__ 32\0"
 2370      545F4C45 
GAS LISTING C:\Users\PRESID~1\AppData\Local\Temp\ccEn1xvk.s 			page 66


 2370      41535433 
 2370      325F5749 
 2370      4454485F 
 2371 0c3e 01       		.byte	0x1
 2372 0c3f 00       		.uleb128 0
 2373 0c40 5F5F494E 		.ascii "__INT_LEAST64_MAX__ 0x7fffffffffffffffLL\0"
 2373      545F4C45 
 2373      41535436 
 2373      345F4D41 
 2373      585F5F20 
 2374 0c69 01       		.byte	0x1
 2375 0c6a 00       		.uleb128 0
 2376 0c6b 5F5F494E 		.ascii "__INT64_C(c) c ## LL\0"
 2376      5436345F 
 2376      43286329 
 2376      20632023 
 2376      23204C4C 
 2377 0c80 01       		.byte	0x1
 2378 0c81 00       		.uleb128 0
 2379 0c82 5F5F494E 		.ascii "__INT_LEAST64_WIDTH__ 64\0"
 2379      545F4C45 
 2379      41535436 
 2379      345F5749 
 2379      4454485F 
 2380 0c9b 01       		.byte	0x1
 2381 0c9c 00       		.uleb128 0
 2382 0c9d 5F5F5549 		.ascii "__UINT_LEAST8_MAX__ 0xff\0"
 2382      4E545F4C 
 2382      45415354 
 2382      385F4D41 
 2382      585F5F20 
 2383 0cb6 01       		.byte	0x1
 2384 0cb7 00       		.uleb128 0
 2385 0cb8 5F5F5549 		.ascii "__UINT8_C(c) c\0"
 2385      4E54385F 
 2385      43286329 
 2385      206300
 2386 0cc7 01       		.byte	0x1
 2387 0cc8 00       		.uleb128 0
 2388 0cc9 5F5F5549 		.ascii "__UINT_LEAST16_MAX__ 0xffff\0"
 2388      4E545F4C 
 2388      45415354 
 2388      31365F4D 
 2388      41585F5F 
 2389 0ce5 01       		.byte	0x1
 2390 0ce6 00       		.uleb128 0
 2391 0ce7 5F5F5549 		.ascii "__UINT16_C(c) c\0"
 2391      4E543136 
 2391      5F432863 
 2391      29206300 
 2392 0cf7 01       		.byte	0x1
 2393 0cf8 00       		.uleb128 0
 2394 0cf9 5F5F5549 		.ascii "__UINT_LEAST32_MAX__ 0xffffffffU\0"
 2394      4E545F4C 
 2394      45415354 
 2394      33325F4D 
 2394      41585F5F 
GAS LISTING C:\Users\PRESID~1\AppData\Local\Temp\ccEn1xvk.s 			page 67


 2395 0d1a 01       		.byte	0x1
 2396 0d1b 00       		.uleb128 0
 2397 0d1c 5F5F5549 		.ascii "__UINT32_C(c) c ## U\0"
 2397      4E543332 
 2397      5F432863 
 2397      29206320 
 2397      23232055 
 2398 0d31 01       		.byte	0x1
 2399 0d32 00       		.uleb128 0
 2400 0d33 5F5F5549 		.ascii "__UINT_LEAST64_MAX__ 0xffffffffffffffffULL\0"
 2400      4E545F4C 
 2400      45415354 
 2400      36345F4D 
 2400      41585F5F 
 2401 0d5e 01       		.byte	0x1
 2402 0d5f 00       		.uleb128 0
 2403 0d60 5F5F5549 		.ascii "__UINT64_C(c) c ## ULL\0"
 2403      4E543634 
 2403      5F432863 
 2403      29206320 
 2403      23232055 
 2404 0d77 01       		.byte	0x1
 2405 0d78 00       		.uleb128 0
 2406 0d79 5F5F494E 		.ascii "__INT_FAST8_MAX__ 0x7f\0"
 2406      545F4641 
 2406      5354385F 
 2406      4D41585F 
 2406      5F203078 
 2407 0d90 01       		.byte	0x1
 2408 0d91 00       		.uleb128 0
 2409 0d92 5F5F494E 		.ascii "__INT_FAST8_WIDTH__ 8\0"
 2409      545F4641 
 2409      5354385F 
 2409      57494454 
 2409      485F5F20 
 2410 0da8 01       		.byte	0x1
 2411 0da9 00       		.uleb128 0
 2412 0daa 5F5F494E 		.ascii "__INT_FAST16_MAX__ 0x7fff\0"
 2412      545F4641 
 2412      53543136 
 2412      5F4D4158 
 2412      5F5F2030 
 2413 0dc4 01       		.byte	0x1
 2414 0dc5 00       		.uleb128 0
 2415 0dc6 5F5F494E 		.ascii "__INT_FAST16_WIDTH__ 16\0"
 2415      545F4641 
 2415      53543136 
 2415      5F574944 
 2415      54485F5F 
 2416 0dde 01       		.byte	0x1
 2417 0ddf 00       		.uleb128 0
 2418 0de0 5F5F494E 		.ascii "__INT_FAST32_MAX__ 0x7fffffff\0"
 2418      545F4641 
 2418      53543332 
 2418      5F4D4158 
 2418      5F5F2030 
 2419 0dfe 01       		.byte	0x1
GAS LISTING C:\Users\PRESID~1\AppData\Local\Temp\ccEn1xvk.s 			page 68


 2420 0dff 00       		.uleb128 0
 2421 0e00 5F5F494E 		.ascii "__INT_FAST32_WIDTH__ 32\0"
 2421      545F4641 
 2421      53543332 
 2421      5F574944 
 2421      54485F5F 
 2422 0e18 01       		.byte	0x1
 2423 0e19 00       		.uleb128 0
 2424 0e1a 5F5F494E 		.ascii "__INT_FAST64_MAX__ 0x7fffffffffffffffLL\0"
 2424      545F4641 
 2424      53543634 
 2424      5F4D4158 
 2424      5F5F2030 
 2425 0e42 01       		.byte	0x1
 2426 0e43 00       		.uleb128 0
 2427 0e44 5F5F494E 		.ascii "__INT_FAST64_WIDTH__ 64\0"
 2427      545F4641 
 2427      53543634 
 2427      5F574944 
 2427      54485F5F 
 2428 0e5c 01       		.byte	0x1
 2429 0e5d 00       		.uleb128 0
 2430 0e5e 5F5F5549 		.ascii "__UINT_FAST8_MAX__ 0xff\0"
 2430      4E545F46 
 2430      41535438 
 2430      5F4D4158 
 2430      5F5F2030 
 2431 0e76 01       		.byte	0x1
 2432 0e77 00       		.uleb128 0
 2433 0e78 5F5F5549 		.ascii "__UINT_FAST16_MAX__ 0xffff\0"
 2433      4E545F46 
 2433      41535431 
 2433      365F4D41 
 2433      585F5F20 
 2434 0e93 01       		.byte	0x1
 2435 0e94 00       		.uleb128 0
 2436 0e95 5F5F5549 		.ascii "__UINT_FAST32_MAX__ 0xffffffffU\0"
 2436      4E545F46 
 2436      41535433 
 2436      325F4D41 
 2436      585F5F20 
 2437 0eb5 01       		.byte	0x1
 2438 0eb6 00       		.uleb128 0
 2439 0eb7 5F5F5549 		.ascii "__UINT_FAST64_MAX__ 0xffffffffffffffffULL\0"
 2439      4E545F46 
 2439      41535436 
 2439      345F4D41 
 2439      585F5F20 
 2440 0ee1 01       		.byte	0x1
 2441 0ee2 00       		.uleb128 0
 2442 0ee3 5F5F494E 		.ascii "__INTPTR_MAX__ 0x7fffffff\0"
 2442      54505452 
 2442      5F4D4158 
 2442      5F5F2030 
 2442      78376666 
 2443 0efd 01       		.byte	0x1
 2444 0efe 00       		.uleb128 0
GAS LISTING C:\Users\PRESID~1\AppData\Local\Temp\ccEn1xvk.s 			page 69


 2445 0eff 5F5F494E 		.ascii "__INTPTR_WIDTH__ 32\0"
 2445      54505452 
 2445      5F574944 
 2445      54485F5F 
 2445      20333200 
 2446 0f13 01       		.byte	0x1
 2447 0f14 00       		.uleb128 0
 2448 0f15 5F5F5549 		.ascii "__UINTPTR_MAX__ 0xffffffffU\0"
 2448      4E545054 
 2448      525F4D41 
 2448      585F5F20 
 2448      30786666 
 2449 0f31 01       		.byte	0x1
 2450 0f32 00       		.uleb128 0
 2451 0f33 5F5F4743 		.ascii "__GCC_IEC_559 2\0"
 2451      435F4945 
 2451      435F3535 
 2451      39203200 
 2452 0f43 01       		.byte	0x1
 2453 0f44 00       		.uleb128 0
 2454 0f45 5F5F4743 		.ascii "__GCC_IEC_559_COMPLEX 2\0"
 2454      435F4945 
 2454      435F3535 
 2454      395F434F 
 2454      4D504C45 
 2455 0f5d 01       		.byte	0x1
 2456 0f5e 00       		.uleb128 0
 2457 0f5f 5F5F464C 		.ascii "__FLT_EVAL_METHOD__ 2\0"
 2457      545F4556 
 2457      414C5F4D 
 2457      4554484F 
 2457      445F5F20 
 2458 0f75 01       		.byte	0x1
 2459 0f76 00       		.uleb128 0
 2460 0f77 5F5F464C 		.ascii "__FLT_EVAL_METHOD_TS_18661_3__ 2\0"
 2460      545F4556 
 2460      414C5F4D 
 2460      4554484F 
 2460      445F5453 
 2461 0f98 01       		.byte	0x1
 2462 0f99 00       		.uleb128 0
 2463 0f9a 5F5F4445 		.ascii "__DEC_EVAL_METHOD__ 2\0"
 2463      435F4556 
 2463      414C5F4D 
 2463      4554484F 
 2463      445F5F20 
 2464 0fb0 01       		.byte	0x1
 2465 0fb1 00       		.uleb128 0
 2466 0fb2 5F5F464C 		.ascii "__FLT_RADIX__ 2\0"
 2466      545F5241 
 2466      4449585F 
 2466      5F203200 
 2467 0fc2 01       		.byte	0x1
 2468 0fc3 00       		.uleb128 0
 2469 0fc4 5F5F464C 		.ascii "__FLT_MANT_DIG__ 24\0"
 2469      545F4D41 
 2469      4E545F44 
GAS LISTING C:\Users\PRESID~1\AppData\Local\Temp\ccEn1xvk.s 			page 70


 2469      49475F5F 
 2469      20323400 
 2470 0fd8 01       		.byte	0x1
 2471 0fd9 00       		.uleb128 0
 2472 0fda 5F5F464C 		.ascii "__FLT_DIG__ 6\0"
 2472      545F4449 
 2472      475F5F20 
 2472      3600
 2473 0fe8 01       		.byte	0x1
 2474 0fe9 00       		.uleb128 0
 2475 0fea 5F5F464C 		.ascii "__FLT_MIN_EXP__ (-125)\0"
 2475      545F4D49 
 2475      4E5F4558 
 2475      505F5F20 
 2475      282D3132 
 2476 1001 01       		.byte	0x1
 2477 1002 00       		.uleb128 0
 2478 1003 5F5F464C 		.ascii "__FLT_MIN_10_EXP__ (-37)\0"
 2478      545F4D49 
 2478      4E5F3130 
 2478      5F455850 
 2478      5F5F2028 
 2479 101c 01       		.byte	0x1
 2480 101d 00       		.uleb128 0
 2481 101e 5F5F464C 		.ascii "__FLT_MAX_EXP__ 128\0"
 2481      545F4D41 
 2481      585F4558 
 2481      505F5F20 
 2481      31323800 
 2482 1032 01       		.byte	0x1
 2483 1033 00       		.uleb128 0
 2484 1034 5F5F464C 		.ascii "__FLT_MAX_10_EXP__ 38\0"
 2484      545F4D41 
 2484      585F3130 
 2484      5F455850 
 2484      5F5F2033 
 2485 104a 01       		.byte	0x1
 2486 104b 00       		.uleb128 0
 2487 104c 5F5F464C 		.ascii "__FLT_DECIMAL_DIG__ 9\0"
 2487      545F4445 
 2487      43494D41 
 2487      4C5F4449 
 2487      475F5F20 
 2488 1062 01       		.byte	0x1
 2489 1063 00       		.uleb128 0
 2490 1064 5F5F464C 		.ascii "__FLT_MAX__ 3.40282346638528859811704183484516925e+38F\0"
 2490      545F4D41 
 2490      585F5F20 
 2490      332E3430 
 2490      32383233 
 2491 109b 01       		.byte	0x1
 2492 109c 00       		.uleb128 0
 2493 109d 5F5F464C 		.ascii "__FLT_MIN__ 1.17549435082228750796873653722224568e-38F\0"
 2493      545F4D49 
 2493      4E5F5F20 
 2493      312E3137 
 2493      35343934 
GAS LISTING C:\Users\PRESID~1\AppData\Local\Temp\ccEn1xvk.s 			page 71


 2494 10d4 01       		.byte	0x1
 2495 10d5 00       		.uleb128 0
 2496 10d6 5F5F464C 		.ascii "__FLT_EPSILON__ 1.19209289550781250000000000000000000e-7F\0"
 2496      545F4550 
 2496      53494C4F 
 2496      4E5F5F20 
 2496      312E3139 
 2497 1110 01       		.byte	0x1
 2498 1111 00       		.uleb128 0
 2499 1112 5F5F464C 		.ascii "__FLT_DENORM_MIN__ 1.40129846432481707092372958328991613e-45F\0"
 2499      545F4445 
 2499      4E4F524D 
 2499      5F4D494E 
 2499      5F5F2031 
 2500 1150 01       		.byte	0x1
 2501 1151 00       		.uleb128 0
 2502 1152 5F5F464C 		.ascii "__FLT_HAS_DENORM__ 1\0"
 2502      545F4841 
 2502      535F4445 
 2502      4E4F524D 
 2502      5F5F2031 
 2503 1167 01       		.byte	0x1
 2504 1168 00       		.uleb128 0
 2505 1169 5F5F464C 		.ascii "__FLT_HAS_INFINITY__ 1\0"
 2505      545F4841 
 2505      535F494E 
 2505      46494E49 
 2505      54595F5F 
 2506 1180 01       		.byte	0x1
 2507 1181 00       		.uleb128 0
 2508 1182 5F5F464C 		.ascii "__FLT_HAS_QUIET_NAN__ 1\0"
 2508      545F4841 
 2508      535F5155 
 2508      4945545F 
 2508      4E414E5F 
 2509 119a 01       		.byte	0x1
 2510 119b 00       		.uleb128 0
 2511 119c 5F5F4442 		.ascii "__DBL_MANT_DIG__ 53\0"
 2511      4C5F4D41 
 2511      4E545F44 
 2511      49475F5F 
 2511      20353300 
 2512 11b0 01       		.byte	0x1
 2513 11b1 00       		.uleb128 0
 2514 11b2 5F5F4442 		.ascii "__DBL_DIG__ 15\0"
 2514      4C5F4449 
 2514      475F5F20 
 2514      313500
 2515 11c1 01       		.byte	0x1
 2516 11c2 00       		.uleb128 0
 2517 11c3 5F5F4442 		.ascii "__DBL_MIN_EXP__ (-1021)\0"
 2517      4C5F4D49 
 2517      4E5F4558 
 2517      505F5F20 
 2517      282D3130 
 2518 11db 01       		.byte	0x1
 2519 11dc 00       		.uleb128 0
GAS LISTING C:\Users\PRESID~1\AppData\Local\Temp\ccEn1xvk.s 			page 72


 2520 11dd 5F5F4442 		.ascii "__DBL_MIN_10_EXP__ (-307)\0"
 2520      4C5F4D49 
 2520      4E5F3130 
 2520      5F455850 
 2520      5F5F2028 
 2521 11f7 01       		.byte	0x1
 2522 11f8 00       		.uleb128 0
 2523 11f9 5F5F4442 		.ascii "__DBL_MAX_EXP__ 1024\0"
 2523      4C5F4D41 
 2523      585F4558 
 2523      505F5F20 
 2523      31303234 
 2524 120e 01       		.byte	0x1
 2525 120f 00       		.uleb128 0
 2526 1210 5F5F4442 		.ascii "__DBL_MAX_10_EXP__ 308\0"
 2526      4C5F4D41 
 2526      585F3130 
 2526      5F455850 
 2526      5F5F2033 
 2527 1227 01       		.byte	0x1
 2528 1228 00       		.uleb128 0
 2529 1229 5F5F4442 		.ascii "__DBL_DECIMAL_DIG__ 17\0"
 2529      4C5F4445 
 2529      43494D41 
 2529      4C5F4449 
 2529      475F5F20 
 2530 1240 01       		.byte	0x1
 2531 1241 00       		.uleb128 0
 2532 1242 5F5F4442 		.ascii "__DBL_MAX__ ((double)1.79769313486231570814527423731704357e+308L)\0"
 2532      4C5F4D41 
 2532      585F5F20 
 2532      2828646F 
 2532      75626C65 
 2533 1284 01       		.byte	0x1
 2534 1285 00       		.uleb128 0
 2535 1286 5F5F4442 		.ascii "__DBL_MIN__ ((double)2.22507385850720138309023271733240406e-308L)\0"
 2535      4C5F4D49 
 2535      4E5F5F20 
 2535      2828646F 
 2535      75626C65 
 2536 12c8 01       		.byte	0x1
 2537 12c9 00       		.uleb128 0
 2538 12ca 5F5F4442 		.ascii "__DBL_EPSILON__ ((double)2.22044604925031308084726333618164062e-16L)\0"
 2538      4C5F4550 
 2538      53494C4F 
 2538      4E5F5F20 
 2538      2828646F 
 2539 130f 01       		.byte	0x1
 2540 1310 00       		.uleb128 0
 2541 1311 5F5F4442 		.ascii "__DBL_DENORM_MIN__ ((double)4.94065645841246544176568792868221372e-324L)\0"
 2541      4C5F4445 
 2541      4E4F524D 
 2541      5F4D494E 
 2541      5F5F2028 
 2542 135a 01       		.byte	0x1
 2543 135b 00       		.uleb128 0
 2544 135c 5F5F4442 		.ascii "__DBL_HAS_DENORM__ 1\0"
GAS LISTING C:\Users\PRESID~1\AppData\Local\Temp\ccEn1xvk.s 			page 73


 2544      4C5F4841 
 2544      535F4445 
 2544      4E4F524D 
 2544      5F5F2031 
 2545 1371 01       		.byte	0x1
 2546 1372 00       		.uleb128 0
 2547 1373 5F5F4442 		.ascii "__DBL_HAS_INFINITY__ 1\0"
 2547      4C5F4841 
 2547      535F494E 
 2547      46494E49 
 2547      54595F5F 
 2548 138a 01       		.byte	0x1
 2549 138b 00       		.uleb128 0
 2550 138c 5F5F4442 		.ascii "__DBL_HAS_QUIET_NAN__ 1\0"
 2550      4C5F4841 
 2550      535F5155 
 2550      4945545F 
 2550      4E414E5F 
 2551 13a4 01       		.byte	0x1
 2552 13a5 00       		.uleb128 0
 2553 13a6 5F5F4C44 		.ascii "__LDBL_MANT_DIG__ 64\0"
 2553      424C5F4D 
 2553      414E545F 
 2553      4449475F 
 2553      5F203634 
 2554 13bb 01       		.byte	0x1
 2555 13bc 00       		.uleb128 0
 2556 13bd 5F5F4C44 		.ascii "__LDBL_DIG__ 18\0"
 2556      424C5F44 
 2556      49475F5F 
 2556      20313800 
 2557 13cd 01       		.byte	0x1
 2558 13ce 00       		.uleb128 0
 2559 13cf 5F5F4C44 		.ascii "__LDBL_MIN_EXP__ (-16381)\0"
 2559      424C5F4D 
 2559      494E5F45 
 2559      58505F5F 
 2559      20282D31 
 2560 13e9 01       		.byte	0x1
 2561 13ea 00       		.uleb128 0
 2562 13eb 5F5F4C44 		.ascii "__LDBL_MIN_10_EXP__ (-4931)\0"
 2562      424C5F4D 
 2562      494E5F31 
 2562      305F4558 
 2562      505F5F20 
 2563 1407 01       		.byte	0x1
 2564 1408 00       		.uleb128 0
 2565 1409 5F5F4C44 		.ascii "__LDBL_MAX_EXP__ 16384\0"
 2565      424C5F4D 
 2565      41585F45 
 2565      58505F5F 
 2565      20313633 
 2566 1420 01       		.byte	0x1
 2567 1421 00       		.uleb128 0
 2568 1422 5F5F4C44 		.ascii "__LDBL_MAX_10_EXP__ 4932\0"
 2568      424C5F4D 
 2568      41585F31 
GAS LISTING C:\Users\PRESID~1\AppData\Local\Temp\ccEn1xvk.s 			page 74


 2568      305F4558 
 2568      505F5F20 
 2569 143b 01       		.byte	0x1
 2570 143c 00       		.uleb128 0
 2571 143d 5F5F4445 		.ascii "__DECIMAL_DIG__ 21\0"
 2571      43494D41 
 2571      4C5F4449 
 2571      475F5F20 
 2571      323100
 2572 1450 01       		.byte	0x1
 2573 1451 00       		.uleb128 0
 2574 1452 5F5F4C44 		.ascii "__LDBL_DECIMAL_DIG__ 21\0"
 2574      424C5F44 
 2574      4543494D 
 2574      414C5F44 
 2574      49475F5F 
 2575 146a 01       		.byte	0x1
 2576 146b 00       		.uleb128 0
 2577 146c 5F5F4C44 		.ascii "__LDBL_MAX__ 1.18973149535723176502126385303097021e+4932L\0"
 2577      424C5F4D 
 2577      41585F5F 
 2577      20312E31 
 2577      38393733 
 2578 14a6 01       		.byte	0x1
 2579 14a7 00       		.uleb128 0
 2580 14a8 5F5F4C44 		.ascii "__LDBL_MIN__ 3.36210314311209350626267781732175260e-4932L\0"
 2580      424C5F4D 
 2580      494E5F5F 
 2580      20332E33 
 2580      36323130 
 2581 14e2 01       		.byte	0x1
 2582 14e3 00       		.uleb128 0
 2583 14e4 5F5F4C44 		.ascii "__LDBL_EPSILON__ 1.08420217248550443400745280086994171e-19L\0"
 2583      424C5F45 
 2583      5053494C 
 2583      4F4E5F5F 
 2583      20312E30 
 2584 1520 01       		.byte	0x1
 2585 1521 00       		.uleb128 0
 2586 1522 5F5F4C44 		.ascii "__LDBL_DENORM_MIN__ 3.64519953188247460252840593361941982e-4951L\0"
 2586      424C5F44 
 2586      454E4F52 
 2586      4D5F4D49 
 2586      4E5F5F20 
 2587 1563 01       		.byte	0x1
 2588 1564 00       		.uleb128 0
 2589 1565 5F5F4C44 		.ascii "__LDBL_HAS_DENORM__ 1\0"
 2589      424C5F48 
 2589      41535F44 
 2589      454E4F52 
 2589      4D5F5F20 
 2590 157b 01       		.byte	0x1
 2591 157c 00       		.uleb128 0
 2592 157d 5F5F4C44 		.ascii "__LDBL_HAS_INFINITY__ 1\0"
 2592      424C5F48 
 2592      41535F49 
 2592      4E46494E 
GAS LISTING C:\Users\PRESID~1\AppData\Local\Temp\ccEn1xvk.s 			page 75


 2592      4954595F 
 2593 1595 01       		.byte	0x1
 2594 1596 00       		.uleb128 0
 2595 1597 5F5F4C44 		.ascii "__LDBL_HAS_QUIET_NAN__ 1\0"
 2595      424C5F48 
 2595      41535F51 
 2595      55494554 
 2595      5F4E414E 
 2596 15b0 01       		.byte	0x1
 2597 15b1 00       		.uleb128 0
 2598 15b2 5F5F464C 		.ascii "__FLT32_MANT_DIG__ 24\0"
 2598      5433325F 
 2598      4D414E54 
 2598      5F444947 
 2598      5F5F2032 
 2599 15c8 01       		.byte	0x1
 2600 15c9 00       		.uleb128 0
 2601 15ca 5F5F464C 		.ascii "__FLT32_DIG__ 6\0"
 2601      5433325F 
 2601      4449475F 
 2601      5F203600 
 2602 15da 01       		.byte	0x1
 2603 15db 00       		.uleb128 0
 2604 15dc 5F5F464C 		.ascii "__FLT32_MIN_EXP__ (-125)\0"
 2604      5433325F 
 2604      4D494E5F 
 2604      4558505F 
 2604      5F20282D 
 2605 15f5 01       		.byte	0x1
 2606 15f6 00       		.uleb128 0
 2607 15f7 5F5F464C 		.ascii "__FLT32_MIN_10_EXP__ (-37)\0"
 2607      5433325F 
 2607      4D494E5F 
 2607      31305F45 
 2607      58505F5F 
 2608 1612 01       		.byte	0x1
 2609 1613 00       		.uleb128 0
 2610 1614 5F5F464C 		.ascii "__FLT32_MAX_EXP__ 128\0"
 2610      5433325F 
 2610      4D41585F 
 2610      4558505F 
 2610      5F203132 
 2611 162a 01       		.byte	0x1
 2612 162b 00       		.uleb128 0
 2613 162c 5F5F464C 		.ascii "__FLT32_MAX_10_EXP__ 38\0"
 2613      5433325F 
 2613      4D41585F 
 2613      31305F45 
 2613      58505F5F 
 2614 1644 01       		.byte	0x1
 2615 1645 00       		.uleb128 0
 2616 1646 5F5F464C 		.ascii "__FLT32_DECIMAL_DIG__ 9\0"
 2616      5433325F 
 2616      44454349 
 2616      4D414C5F 
 2616      4449475F 
 2617 165e 01       		.byte	0x1
GAS LISTING C:\Users\PRESID~1\AppData\Local\Temp\ccEn1xvk.s 			page 76


 2618 165f 00       		.uleb128 0
 2619 1660 5F5F464C 		.ascii "__FLT32_MAX__ 3.40282346638528859811704183484516925e+38F32\0"
 2619      5433325F 
 2619      4D41585F 
 2619      5F20332E 
 2619      34303238 
 2620 169b 01       		.byte	0x1
 2621 169c 00       		.uleb128 0
 2622 169d 5F5F464C 		.ascii "__FLT32_MIN__ 1.17549435082228750796873653722224568e-38F32\0"
 2622      5433325F 
 2622      4D494E5F 
 2622      5F20312E 
 2622      31373534 
 2623 16d8 01       		.byte	0x1
 2624 16d9 00       		.uleb128 0
 2625 16da 5F5F464C 		.ascii "__FLT32_EPSILON__ 1.19209289550781250000000000000000000e-7F32\0"
 2625      5433325F 
 2625      45505349 
 2625      4C4F4E5F 
 2625      5F20312E 
 2626 1718 01       		.byte	0x1
 2627 1719 00       		.uleb128 0
 2628 171a 5F5F464C 		.ascii "__FLT32_DENORM_MIN__ 1.40129846432481707092372958328991613e-45F32\0"
 2628      5433325F 
 2628      44454E4F 
 2628      524D5F4D 
 2628      494E5F5F 
 2629 175c 01       		.byte	0x1
 2630 175d 00       		.uleb128 0
 2631 175e 5F5F464C 		.ascii "__FLT32_HAS_DENORM__ 1\0"
 2631      5433325F 
 2631      4841535F 
 2631      44454E4F 
 2631      524D5F5F 
 2632 1775 01       		.byte	0x1
 2633 1776 00       		.uleb128 0
 2634 1777 5F5F464C 		.ascii "__FLT32_HAS_INFINITY__ 1\0"
 2634      5433325F 
 2634      4841535F 
 2634      494E4649 
 2634      4E495459 
 2635 1790 01       		.byte	0x1
 2636 1791 00       		.uleb128 0
 2637 1792 5F5F464C 		.ascii "__FLT32_HAS_QUIET_NAN__ 1\0"
 2637      5433325F 
 2637      4841535F 
 2637      51554945 
 2637      545F4E41 
 2638 17ac 01       		.byte	0x1
 2639 17ad 00       		.uleb128 0
 2640 17ae 5F5F464C 		.ascii "__FLT64_MANT_DIG__ 53\0"
 2640      5436345F 
 2640      4D414E54 
 2640      5F444947 
 2640      5F5F2035 
 2641 17c4 01       		.byte	0x1
 2642 17c5 00       		.uleb128 0
GAS LISTING C:\Users\PRESID~1\AppData\Local\Temp\ccEn1xvk.s 			page 77


 2643 17c6 5F5F464C 		.ascii "__FLT64_DIG__ 15\0"
 2643      5436345F 
 2643      4449475F 
 2643      5F203135 
 2643      00
 2644 17d7 01       		.byte	0x1
 2645 17d8 00       		.uleb128 0
 2646 17d9 5F5F464C 		.ascii "__FLT64_MIN_EXP__ (-1021)\0"
 2646      5436345F 
 2646      4D494E5F 
 2646      4558505F 
 2646      5F20282D 
 2647 17f3 01       		.byte	0x1
 2648 17f4 00       		.uleb128 0
 2649 17f5 5F5F464C 		.ascii "__FLT64_MIN_10_EXP__ (-307)\0"
 2649      5436345F 
 2649      4D494E5F 
 2649      31305F45 
 2649      58505F5F 
 2650 1811 01       		.byte	0x1
 2651 1812 00       		.uleb128 0
 2652 1813 5F5F464C 		.ascii "__FLT64_MAX_EXP__ 1024\0"
 2652      5436345F 
 2652      4D41585F 
 2652      4558505F 
 2652      5F203130 
 2653 182a 01       		.byte	0x1
 2654 182b 00       		.uleb128 0
 2655 182c 5F5F464C 		.ascii "__FLT64_MAX_10_EXP__ 308\0"
 2655      5436345F 
 2655      4D41585F 
 2655      31305F45 
 2655      58505F5F 
 2656 1845 01       		.byte	0x1
 2657 1846 00       		.uleb128 0
 2658 1847 5F5F464C 		.ascii "__FLT64_DECIMAL_DIG__ 17\0"
 2658      5436345F 
 2658      44454349 
 2658      4D414C5F 
 2658      4449475F 
 2659 1860 01       		.byte	0x1
 2660 1861 00       		.uleb128 0
 2661 1862 5F5F464C 		.ascii "__FLT64_MAX__ 1.79769313486231570814527423731704357e+308F64\0"
 2661      5436345F 
 2661      4D41585F 
 2661      5F20312E 
 2661      37393736 
 2662 189e 01       		.byte	0x1
 2663 189f 00       		.uleb128 0
 2664 18a0 5F5F464C 		.ascii "__FLT64_MIN__ 2.22507385850720138309023271733240406e-308F64\0"
 2664      5436345F 
 2664      4D494E5F 
 2664      5F20322E 
 2664      32323530 
 2665 18dc 01       		.byte	0x1
 2666 18dd 00       		.uleb128 0
 2667 18de 5F5F464C 		.ascii "__FLT64_EPSILON__ 2.22044604925031308084726333618164062e-16F64\0"
GAS LISTING C:\Users\PRESID~1\AppData\Local\Temp\ccEn1xvk.s 			page 78


 2667      5436345F 
 2667      45505349 
 2667      4C4F4E5F 
 2667      5F20322E 
 2668 191d 01       		.byte	0x1
 2669 191e 00       		.uleb128 0
 2670 191f 5F5F464C 		.ascii "__FLT64_DENORM_MIN__ 4.94065645841246544176568792868221372e-324F64\0"
 2670      5436345F 
 2670      44454E4F 
 2670      524D5F4D 
 2670      494E5F5F 
 2671 1962 01       		.byte	0x1
 2672 1963 00       		.uleb128 0
 2673 1964 5F5F464C 		.ascii "__FLT64_HAS_DENORM__ 1\0"
 2673      5436345F 
 2673      4841535F 
 2673      44454E4F 
 2673      524D5F5F 
 2674 197b 01       		.byte	0x1
 2675 197c 00       		.uleb128 0
 2676 197d 5F5F464C 		.ascii "__FLT64_HAS_INFINITY__ 1\0"
 2676      5436345F 
 2676      4841535F 
 2676      494E4649 
 2676      4E495459 
 2677 1996 01       		.byte	0x1
 2678 1997 00       		.uleb128 0
 2679 1998 5F5F464C 		.ascii "__FLT64_HAS_QUIET_NAN__ 1\0"
 2679      5436345F 
 2679      4841535F 
 2679      51554945 
 2679      545F4E41 
 2680 19b2 01       		.byte	0x1
 2681 19b3 00       		.uleb128 0
 2682 19b4 5F5F464C 		.ascii "__FLT128_MANT_DIG__ 113\0"
 2682      54313238 
 2682      5F4D414E 
 2682      545F4449 
 2682      475F5F20 
 2683 19cc 01       		.byte	0x1
 2684 19cd 00       		.uleb128 0
 2685 19ce 5F5F464C 		.ascii "__FLT128_DIG__ 33\0"
 2685      54313238 
 2685      5F444947 
 2685      5F5F2033 
 2685      3300
 2686 19e0 01       		.byte	0x1
 2687 19e1 00       		.uleb128 0
 2688 19e2 5F5F464C 		.ascii "__FLT128_MIN_EXP__ (-16381)\0"
 2688      54313238 
 2688      5F4D494E 
 2688      5F455850 
 2688      5F5F2028 
 2689 19fe 01       		.byte	0x1
 2690 19ff 00       		.uleb128 0
 2691 1a00 5F5F464C 		.ascii "__FLT128_MIN_10_EXP__ (-4931)\0"
 2691      54313238 
GAS LISTING C:\Users\PRESID~1\AppData\Local\Temp\ccEn1xvk.s 			page 79


 2691      5F4D494E 
 2691      5F31305F 
 2691      4558505F 
 2692 1a1e 01       		.byte	0x1
 2693 1a1f 00       		.uleb128 0
 2694 1a20 5F5F464C 		.ascii "__FLT128_MAX_EXP__ 16384\0"
 2694      54313238 
 2694      5F4D4158 
 2694      5F455850 
 2694      5F5F2031 
 2695 1a39 01       		.byte	0x1
 2696 1a3a 00       		.uleb128 0
 2697 1a3b 5F5F464C 		.ascii "__FLT128_MAX_10_EXP__ 4932\0"
 2697      54313238 
 2697      5F4D4158 
 2697      5F31305F 
 2697      4558505F 
 2698 1a56 01       		.byte	0x1
 2699 1a57 00       		.uleb128 0
 2700 1a58 5F5F464C 		.ascii "__FLT128_DECIMAL_DIG__ 36\0"
 2700      54313238 
 2700      5F444543 
 2700      494D414C 
 2700      5F444947 
 2701 1a72 01       		.byte	0x1
 2702 1a73 00       		.uleb128 0
 2703 1a74 5F5F464C 		.ascii "__FLT128_MAX__ 1.18973149535723176508575932662800702e+4932F128\0"
 2703      54313238 
 2703      5F4D4158 
 2703      5F5F2031 
 2703      2E313839 
 2704 1ab3 01       		.byte	0x1
 2705 1ab4 00       		.uleb128 0
 2706 1ab5 5F5F464C 		.ascii "__FLT128_MIN__ 3.36210314311209350626267781732175260e-4932F128\0"
 2706      54313238 
 2706      5F4D494E 
 2706      5F5F2033 
 2706      2E333632 
 2707 1af4 01       		.byte	0x1
 2708 1af5 00       		.uleb128 0
 2709 1af6 5F5F464C 		.ascii "__FLT128_EPSILON__ 1.92592994438723585305597794258492732e-34F128\0"
 2709      54313238 
 2709      5F455053 
 2709      494C4F4E 
 2709      5F5F2031 
 2710 1b37 01       		.byte	0x1
 2711 1b38 00       		.uleb128 0
 2712 1b39 5F5F464C 		.ascii "__FLT128_DENORM_MIN__ 6.47517511943802511092443895822764655e-4966F128\0"
 2712      54313238 
 2712      5F44454E 
 2712      4F524D5F 
 2712      4D494E5F 
 2713 1b7f 01       		.byte	0x1
 2714 1b80 00       		.uleb128 0
 2715 1b81 5F5F464C 		.ascii "__FLT128_HAS_DENORM__ 1\0"
 2715      54313238 
 2715      5F484153 
GAS LISTING C:\Users\PRESID~1\AppData\Local\Temp\ccEn1xvk.s 			page 80


 2715      5F44454E 
 2715      4F524D5F 
 2716 1b99 01       		.byte	0x1
 2717 1b9a 00       		.uleb128 0
 2718 1b9b 5F5F464C 		.ascii "__FLT128_HAS_INFINITY__ 1\0"
 2718      54313238 
 2718      5F484153 
 2718      5F494E46 
 2718      494E4954 
 2719 1bb5 01       		.byte	0x1
 2720 1bb6 00       		.uleb128 0
 2721 1bb7 5F5F464C 		.ascii "__FLT128_HAS_QUIET_NAN__ 1\0"
 2721      54313238 
 2721      5F484153 
 2721      5F515549 
 2721      45545F4E 
 2722 1bd2 01       		.byte	0x1
 2723 1bd3 00       		.uleb128 0
 2724 1bd4 5F5F464C 		.ascii "__FLT32X_MANT_DIG__ 53\0"
 2724      54333258 
 2724      5F4D414E 
 2724      545F4449 
 2724      475F5F20 
 2725 1beb 01       		.byte	0x1
 2726 1bec 00       		.uleb128 0
 2727 1bed 5F5F464C 		.ascii "__FLT32X_DIG__ 15\0"
 2727      54333258 
 2727      5F444947 
 2727      5F5F2031 
 2727      3500
 2728 1bff 01       		.byte	0x1
 2729 1c00 00       		.uleb128 0
 2730 1c01 5F5F464C 		.ascii "__FLT32X_MIN_EXP__ (-1021)\0"
 2730      54333258 
 2730      5F4D494E 
 2730      5F455850 
 2730      5F5F2028 
 2731 1c1c 01       		.byte	0x1
 2732 1c1d 00       		.uleb128 0
 2733 1c1e 5F5F464C 		.ascii "__FLT32X_MIN_10_EXP__ (-307)\0"
 2733      54333258 
 2733      5F4D494E 
 2733      5F31305F 
 2733      4558505F 
 2734 1c3b 01       		.byte	0x1
 2735 1c3c 00       		.uleb128 0
 2736 1c3d 5F5F464C 		.ascii "__FLT32X_MAX_EXP__ 1024\0"
 2736      54333258 
 2736      5F4D4158 
 2736      5F455850 
 2736      5F5F2031 
 2737 1c55 01       		.byte	0x1
 2738 1c56 00       		.uleb128 0
 2739 1c57 5F5F464C 		.ascii "__FLT32X_MAX_10_EXP__ 308\0"
 2739      54333258 
 2739      5F4D4158 
 2739      5F31305F 
GAS LISTING C:\Users\PRESID~1\AppData\Local\Temp\ccEn1xvk.s 			page 81


 2739      4558505F 
 2740 1c71 01       		.byte	0x1
 2741 1c72 00       		.uleb128 0
 2742 1c73 5F5F464C 		.ascii "__FLT32X_DECIMAL_DIG__ 17\0"
 2742      54333258 
 2742      5F444543 
 2742      494D414C 
 2742      5F444947 
 2743 1c8d 01       		.byte	0x1
 2744 1c8e 00       		.uleb128 0
 2745 1c8f 5F5F464C 		.ascii "__FLT32X_MAX__ 1.79769313486231570814527423731704357e+308F32x\0"
 2745      54333258 
 2745      5F4D4158 
 2745      5F5F2031 
 2745      2E373937 
 2746 1ccd 01       		.byte	0x1
 2747 1cce 00       		.uleb128 0
 2748 1ccf 5F5F464C 		.ascii "__FLT32X_MIN__ 2.22507385850720138309023271733240406e-308F32x\0"
 2748      54333258 
 2748      5F4D494E 
 2748      5F5F2032 
 2748      2E323235 
 2749 1d0d 01       		.byte	0x1
 2750 1d0e 00       		.uleb128 0
 2751 1d0f 5F5F464C 		.ascii "__FLT32X_EPSILON__ 2.22044604925031308084726333618164062e-16F32x\0"
 2751      54333258 
 2751      5F455053 
 2751      494C4F4E 
 2751      5F5F2032 
 2752 1d50 01       		.byte	0x1
 2753 1d51 00       		.uleb128 0
 2754 1d52 5F5F464C 		.ascii "__FLT32X_DENORM_MIN__ 4.94065645841246544176568792868221372e-324F32x\0"
 2754      54333258 
 2754      5F44454E 
 2754      4F524D5F 
 2754      4D494E5F 
 2755 1d97 01       		.byte	0x1
 2756 1d98 00       		.uleb128 0
 2757 1d99 5F5F464C 		.ascii "__FLT32X_HAS_DENORM__ 1\0"
 2757      54333258 
 2757      5F484153 
 2757      5F44454E 
 2757      4F524D5F 
 2758 1db1 01       		.byte	0x1
 2759 1db2 00       		.uleb128 0
 2760 1db3 5F5F464C 		.ascii "__FLT32X_HAS_INFINITY__ 1\0"
 2760      54333258 
 2760      5F484153 
 2760      5F494E46 
 2760      494E4954 
 2761 1dcd 01       		.byte	0x1
 2762 1dce 00       		.uleb128 0
 2763 1dcf 5F5F464C 		.ascii "__FLT32X_HAS_QUIET_NAN__ 1\0"
 2763      54333258 
 2763      5F484153 
 2763      5F515549 
 2763      45545F4E 
GAS LISTING C:\Users\PRESID~1\AppData\Local\Temp\ccEn1xvk.s 			page 82


 2764 1dea 01       		.byte	0x1
 2765 1deb 00       		.uleb128 0
 2766 1dec 5F5F464C 		.ascii "__FLT64X_MANT_DIG__ 64\0"
 2766      54363458 
 2766      5F4D414E 
 2766      545F4449 
 2766      475F5F20 
 2767 1e03 01       		.byte	0x1
 2768 1e04 00       		.uleb128 0
 2769 1e05 5F5F464C 		.ascii "__FLT64X_DIG__ 18\0"
 2769      54363458 
 2769      5F444947 
 2769      5F5F2031 
 2769      3800
 2770 1e17 01       		.byte	0x1
 2771 1e18 00       		.uleb128 0
 2772 1e19 5F5F464C 		.ascii "__FLT64X_MIN_EXP__ (-16381)\0"
 2772      54363458 
 2772      5F4D494E 
 2772      5F455850 
 2772      5F5F2028 
 2773 1e35 01       		.byte	0x1
 2774 1e36 00       		.uleb128 0
 2775 1e37 5F5F464C 		.ascii "__FLT64X_MIN_10_EXP__ (-4931)\0"
 2775      54363458 
 2775      5F4D494E 
 2775      5F31305F 
 2775      4558505F 
 2776 1e55 01       		.byte	0x1
 2777 1e56 00       		.uleb128 0
 2778 1e57 5F5F464C 		.ascii "__FLT64X_MAX_EXP__ 16384\0"
 2778      54363458 
 2778      5F4D4158 
 2778      5F455850 
 2778      5F5F2031 
 2779 1e70 01       		.byte	0x1
 2780 1e71 00       		.uleb128 0
 2781 1e72 5F5F464C 		.ascii "__FLT64X_MAX_10_EXP__ 4932\0"
 2781      54363458 
 2781      5F4D4158 
 2781      5F31305F 
 2781      4558505F 
 2782 1e8d 01       		.byte	0x1
 2783 1e8e 00       		.uleb128 0
 2784 1e8f 5F5F464C 		.ascii "__FLT64X_DECIMAL_DIG__ 21\0"
 2784      54363458 
 2784      5F444543 
 2784      494D414C 
 2784      5F444947 
 2785 1ea9 01       		.byte	0x1
 2786 1eaa 00       		.uleb128 0
 2787 1eab 5F5F464C 		.ascii "__FLT64X_MAX__ 1.18973149535723176502126385303097021e+4932F64x\0"
 2787      54363458 
 2787      5F4D4158 
 2787      5F5F2031 
 2787      2E313839 
 2788 1eea 01       		.byte	0x1
GAS LISTING C:\Users\PRESID~1\AppData\Local\Temp\ccEn1xvk.s 			page 83


 2789 1eeb 00       		.uleb128 0
 2790 1eec 5F5F464C 		.ascii "__FLT64X_MIN__ 3.36210314311209350626267781732175260e-4932F64x\0"
 2790      54363458 
 2790      5F4D494E 
 2790      5F5F2033 
 2790      2E333632 
 2791 1f2b 01       		.byte	0x1
 2792 1f2c 00       		.uleb128 0
 2793 1f2d 5F5F464C 		.ascii "__FLT64X_EPSILON__ 1.08420217248550443400745280086994171e-19F64x\0"
 2793      54363458 
 2793      5F455053 
 2793      494C4F4E 
 2793      5F5F2031 
 2794 1f6e 01       		.byte	0x1
 2795 1f6f 00       		.uleb128 0
 2796 1f70 5F5F464C 		.ascii "__FLT64X_DENORM_MIN__ 3.64519953188247460252840593361941982e-4951F64x\0"
 2796      54363458 
 2796      5F44454E 
 2796      4F524D5F 
 2796      4D494E5F 
 2797 1fb6 01       		.byte	0x1
 2798 1fb7 00       		.uleb128 0
 2799 1fb8 5F5F464C 		.ascii "__FLT64X_HAS_DENORM__ 1\0"
 2799      54363458 
 2799      5F484153 
 2799      5F44454E 
 2799      4F524D5F 
 2800 1fd0 01       		.byte	0x1
 2801 1fd1 00       		.uleb128 0
 2802 1fd2 5F5F464C 		.ascii "__FLT64X_HAS_INFINITY__ 1\0"
 2802      54363458 
 2802      5F484153 
 2802      5F494E46 
 2802      494E4954 
 2803 1fec 01       		.byte	0x1
 2804 1fed 00       		.uleb128 0
 2805 1fee 5F5F464C 		.ascii "__FLT64X_HAS_QUIET_NAN__ 1\0"
 2805      54363458 
 2805      5F484153 
 2805      5F515549 
 2805      45545F4E 
 2806 2009 01       		.byte	0x1
 2807 200a 00       		.uleb128 0
 2808 200b 5F5F4445 		.ascii "__DEC32_MANT_DIG__ 7\0"
 2808      4333325F 
 2808      4D414E54 
 2808      5F444947 
 2808      5F5F2037 
 2809 2020 01       		.byte	0x1
 2810 2021 00       		.uleb128 0
 2811 2022 5F5F4445 		.ascii "__DEC32_MIN_EXP__ (-94)\0"
 2811      4333325F 
 2811      4D494E5F 
 2811      4558505F 
 2811      5F20282D 
 2812 203a 01       		.byte	0x1
 2813 203b 00       		.uleb128 0
GAS LISTING C:\Users\PRESID~1\AppData\Local\Temp\ccEn1xvk.s 			page 84


 2814 203c 5F5F4445 		.ascii "__DEC32_MAX_EXP__ 97\0"
 2814      4333325F 
 2814      4D41585F 
 2814      4558505F 
 2814      5F203937 
 2815 2051 01       		.byte	0x1
 2816 2052 00       		.uleb128 0
 2817 2053 5F5F4445 		.ascii "__DEC32_MIN__ 1E-95DF\0"
 2817      4333325F 
 2817      4D494E5F 
 2817      5F203145 
 2817      2D393544 
 2818 2069 01       		.byte	0x1
 2819 206a 00       		.uleb128 0
 2820 206b 5F5F4445 		.ascii "__DEC32_MAX__ 9.999999E96DF\0"
 2820      4333325F 
 2820      4D41585F 
 2820      5F20392E 
 2820      39393939 
 2821 2087 01       		.byte	0x1
 2822 2088 00       		.uleb128 0
 2823 2089 5F5F4445 		.ascii "__DEC32_EPSILON__ 1E-6DF\0"
 2823      4333325F 
 2823      45505349 
 2823      4C4F4E5F 
 2823      5F203145 
 2824 20a2 01       		.byte	0x1
 2825 20a3 00       		.uleb128 0
 2826 20a4 5F5F4445 		.ascii "__DEC32_SUBNORMAL_MIN__ 0.000001E-95DF\0"
 2826      4333325F 
 2826      5355424E 
 2826      4F524D41 
 2826      4C5F4D49 
 2827 20cb 01       		.byte	0x1
 2828 20cc 00       		.uleb128 0
 2829 20cd 5F5F4445 		.ascii "__DEC64_MANT_DIG__ 16\0"
 2829      4336345F 
 2829      4D414E54 
 2829      5F444947 
 2829      5F5F2031 
 2830 20e3 01       		.byte	0x1
 2831 20e4 00       		.uleb128 0
 2832 20e5 5F5F4445 		.ascii "__DEC64_MIN_EXP__ (-382)\0"
 2832      4336345F 
 2832      4D494E5F 
 2832      4558505F 
 2832      5F20282D 
 2833 20fe 01       		.byte	0x1
 2834 20ff 00       		.uleb128 0
 2835 2100 5F5F4445 		.ascii "__DEC64_MAX_EXP__ 385\0"
 2835      4336345F 
 2835      4D41585F 
 2835      4558505F 
 2835      5F203338 
 2836 2116 01       		.byte	0x1
 2837 2117 00       		.uleb128 0
 2838 2118 5F5F4445 		.ascii "__DEC64_MIN__ 1E-383DD\0"
GAS LISTING C:\Users\PRESID~1\AppData\Local\Temp\ccEn1xvk.s 			page 85


 2838      4336345F 
 2838      4D494E5F 
 2838      5F203145 
 2838      2D333833 
 2839 212f 01       		.byte	0x1
 2840 2130 00       		.uleb128 0
 2841 2131 5F5F4445 		.ascii "__DEC64_MAX__ 9.999999999999999E384DD\0"
 2841      4336345F 
 2841      4D41585F 
 2841      5F20392E 
 2841      39393939 
 2842 2157 01       		.byte	0x1
 2843 2158 00       		.uleb128 0
 2844 2159 5F5F4445 		.ascii "__DEC64_EPSILON__ 1E-15DD\0"
 2844      4336345F 
 2844      45505349 
 2844      4C4F4E5F 
 2844      5F203145 
 2845 2173 01       		.byte	0x1
 2846 2174 00       		.uleb128 0
 2847 2175 5F5F4445 		.ascii "__DEC64_SUBNORMAL_MIN__ 0.000000000000001E-383DD\0"
 2847      4336345F 
 2847      5355424E 
 2847      4F524D41 
 2847      4C5F4D49 
 2848 21a6 01       		.byte	0x1
 2849 21a7 00       		.uleb128 0
 2850 21a8 5F5F4445 		.ascii "__DEC128_MANT_DIG__ 34\0"
 2850      43313238 
 2850      5F4D414E 
 2850      545F4449 
 2850      475F5F20 
 2851 21bf 01       		.byte	0x1
 2852 21c0 00       		.uleb128 0
 2853 21c1 5F5F4445 		.ascii "__DEC128_MIN_EXP__ (-6142)\0"
 2853      43313238 
 2853      5F4D494E 
 2853      5F455850 
 2853      5F5F2028 
 2854 21dc 01       		.byte	0x1
 2855 21dd 00       		.uleb128 0
 2856 21de 5F5F4445 		.ascii "__DEC128_MAX_EXP__ 6145\0"
 2856      43313238 
 2856      5F4D4158 
 2856      5F455850 
 2856      5F5F2036 
 2857 21f6 01       		.byte	0x1
 2858 21f7 00       		.uleb128 0
 2859 21f8 5F5F4445 		.ascii "__DEC128_MIN__ 1E-6143DL\0"
 2859      43313238 
 2859      5F4D494E 
 2859      5F5F2031 
 2859      452D3631 
 2860 2211 01       		.byte	0x1
 2861 2212 00       		.uleb128 0
 2862 2213 5F5F4445 		.ascii "__DEC128_MAX__ 9.999999999999999999999999999999999E6144DL\0"
 2862      43313238 
GAS LISTING C:\Users\PRESID~1\AppData\Local\Temp\ccEn1xvk.s 			page 86


 2862      5F4D4158 
 2862      5F5F2039 
 2862      2E393939 
 2863 224d 01       		.byte	0x1
 2864 224e 00       		.uleb128 0
 2865 224f 5F5F4445 		.ascii "__DEC128_EPSILON__ 1E-33DL\0"
 2865      43313238 
 2865      5F455053 
 2865      494C4F4E 
 2865      5F5F2031 
 2866 226a 01       		.byte	0x1
 2867 226b 00       		.uleb128 0
 2868 226c 5F5F4445 		.ascii "__DEC128_SUBNORMAL_MIN__ 0.000000000000000000000000000000001E-6143DL\0"
 2868      43313238 
 2868      5F535542 
 2868      4E4F524D 
 2868      414C5F4D 
 2869 22b1 01       		.byte	0x1
 2870 22b2 00       		.uleb128 0
 2871 22b3 5F5F5245 		.ascii "__REGISTER_PREFIX__ \0"
 2871      47495354 
 2871      45525F50 
 2871      52454649 
 2871      585F5F20 
 2872 22c8 01       		.byte	0x1
 2873 22c9 00       		.uleb128 0
 2874 22ca 5F5F5553 		.ascii "__USER_LABEL_PREFIX__ _\0"
 2874      45525F4C 
 2874      4142454C 
 2874      5F505245 
 2874      4649585F 
 2875 22e2 01       		.byte	0x1
 2876 22e3 00       		.uleb128 0
 2877 22e4 5F5F474E 		.ascii "__GNUC_GNU_INLINE__ 1\0"
 2877      55435F47 
 2877      4E555F49 
 2877      4E4C494E 
 2877      455F5F20 
 2878 22fa 01       		.byte	0x1
 2879 22fb 00       		.uleb128 0
 2880 22fc 5F5F4E4F 		.ascii "__NO_INLINE__ 1\0"
 2880      5F494E4C 
 2880      494E455F 
 2880      5F203100 
 2881 230c 01       		.byte	0x1
 2882 230d 00       		.uleb128 0
 2883 230e 5F5F5354 		.ascii "__STRICT_ANSI__ 1\0"
 2883      52494354 
 2883      5F414E53 
 2883      495F5F20 
 2883      3100
 2884 2320 01       		.byte	0x1
 2885 2321 00       		.uleb128 0
 2886 2322 5F5F4743 		.ascii "__GCC_ATOMIC_BOOL_LOCK_FREE 1\0"
 2886      435F4154 
 2886      4F4D4943 
 2886      5F424F4F 
GAS LISTING C:\Users\PRESID~1\AppData\Local\Temp\ccEn1xvk.s 			page 87


 2886      4C5F4C4F 
 2887 2340 01       		.byte	0x1
 2888 2341 00       		.uleb128 0
 2889 2342 5F5F4743 		.ascii "__GCC_ATOMIC_CHAR_LOCK_FREE 1\0"
 2889      435F4154 
 2889      4F4D4943 
 2889      5F434841 
 2889      525F4C4F 
 2890 2360 01       		.byte	0x1
 2891 2361 00       		.uleb128 0
 2892 2362 5F5F4743 		.ascii "__GCC_ATOMIC_CHAR16_T_LOCK_FREE 1\0"
 2892      435F4154 
 2892      4F4D4943 
 2892      5F434841 
 2892      5231365F 
 2893 2384 01       		.byte	0x1
 2894 2385 00       		.uleb128 0
 2895 2386 5F5F4743 		.ascii "__GCC_ATOMIC_CHAR32_T_LOCK_FREE 1\0"
 2895      435F4154 
 2895      4F4D4943 
 2895      5F434841 
 2895      5233325F 
 2896 23a8 01       		.byte	0x1
 2897 23a9 00       		.uleb128 0
 2898 23aa 5F5F4743 		.ascii "__GCC_ATOMIC_WCHAR_T_LOCK_FREE 1\0"
 2898      435F4154 
 2898      4F4D4943 
 2898      5F574348 
 2898      41525F54 
 2899 23cb 01       		.byte	0x1
 2900 23cc 00       		.uleb128 0
 2901 23cd 5F5F4743 		.ascii "__GCC_ATOMIC_SHORT_LOCK_FREE 1\0"
 2901      435F4154 
 2901      4F4D4943 
 2901      5F53484F 
 2901      52545F4C 
 2902 23ec 01       		.byte	0x1
 2903 23ed 00       		.uleb128 0
 2904 23ee 5F5F4743 		.ascii "__GCC_ATOMIC_INT_LOCK_FREE 1\0"
 2904      435F4154 
 2904      4F4D4943 
 2904      5F494E54 
 2904      5F4C4F43 
 2905 240b 01       		.byte	0x1
 2906 240c 00       		.uleb128 0
 2907 240d 5F5F4743 		.ascii "__GCC_ATOMIC_LONG_LOCK_FREE 1\0"
 2907      435F4154 
 2907      4F4D4943 
 2907      5F4C4F4E 
 2907      475F4C4F 
 2908 242b 01       		.byte	0x1
 2909 242c 00       		.uleb128 0
 2910 242d 5F5F4743 		.ascii "__GCC_ATOMIC_LLONG_LOCK_FREE 1\0"
 2910      435F4154 
 2910      4F4D4943 
 2910      5F4C4C4F 
 2910      4E475F4C 
GAS LISTING C:\Users\PRESID~1\AppData\Local\Temp\ccEn1xvk.s 			page 88


 2911 244c 01       		.byte	0x1
 2912 244d 00       		.uleb128 0
 2913 244e 5F5F4743 		.ascii "__GCC_ATOMIC_TEST_AND_SET_TRUEVAL 1\0"
 2913      435F4154 
 2913      4F4D4943 
 2913      5F544553 
 2913      545F414E 
 2914 2472 01       		.byte	0x1
 2915 2473 00       		.uleb128 0
 2916 2474 5F5F4743 		.ascii "__GCC_ATOMIC_POINTER_LOCK_FREE 1\0"
 2916      435F4154 
 2916      4F4D4943 
 2916      5F504F49 
 2916      4E544552 
 2917 2495 01       		.byte	0x1
 2918 2496 00       		.uleb128 0
 2919 2497 5F5F4743 		.ascii "__GCC_HAVE_DWARF2_CFI_ASM 1\0"
 2919      435F4841 
 2919      56455F44 
 2919      57415246 
 2919      325F4346 
 2920 24b3 01       		.byte	0x1
 2921 24b4 00       		.uleb128 0
 2922 24b5 5F5F5052 		.ascii "__PRAGMA_REDEFINE_EXTNAME 1\0"
 2922      41474D41 
 2922      5F524544 
 2922      4546494E 
 2922      455F4558 
 2923 24d1 01       		.byte	0x1
 2924 24d2 00       		.uleb128 0
 2925 24d3 5F5F5349 		.ascii "__SIZEOF_WCHAR_T__ 2\0"
 2925      5A454F46 
 2925      5F574348 
 2925      41525F54 
 2925      5F5F2032 
 2926 24e8 01       		.byte	0x1
 2927 24e9 00       		.uleb128 0
 2928 24ea 5F5F5349 		.ascii "__SIZEOF_WINT_T__ 2\0"
 2928      5A454F46 
 2928      5F57494E 
 2928      545F545F 
 2928      5F203200 
 2929 24fe 01       		.byte	0x1
 2930 24ff 00       		.uleb128 0
 2931 2500 5F5F5349 		.ascii "__SIZEOF_PTRDIFF_T__ 4\0"
 2931      5A454F46 
 2931      5F505452 
 2931      44494646 
 2931      5F545F5F 
 2932 2517 01       		.byte	0x1
 2933 2518 00       		.uleb128 0
 2934 2519 5F5F6933 		.ascii "__i386 1\0"
 2934      38362031 
 2934      00
 2935 2522 01       		.byte	0x1
 2936 2523 00       		.uleb128 0
 2937 2524 5F5F6933 		.ascii "__i386__ 1\0"
GAS LISTING C:\Users\PRESID~1\AppData\Local\Temp\ccEn1xvk.s 			page 89


 2937      38365F5F 
 2937      203100
 2938 252f 01       		.byte	0x1
 2939 2530 00       		.uleb128 0
 2940 2531 5F5F5349 		.ascii "__SIZEOF_FLOAT80__ 12\0"
 2940      5A454F46 
 2940      5F464C4F 
 2940      41543830 
 2940      5F5F2031 
 2941 2547 01       		.byte	0x1
 2942 2548 00       		.uleb128 0
 2943 2549 5F5F5349 		.ascii "__SIZEOF_FLOAT128__ 16\0"
 2943      5A454F46 
 2943      5F464C4F 
 2943      41543132 
 2943      385F5F20 
 2944 2560 01       		.byte	0x1
 2945 2561 00       		.uleb128 0
 2946 2562 5F5F4154 		.ascii "__ATOMIC_HLE_ACQUIRE 65536\0"
 2946      4F4D4943 
 2946      5F484C45 
 2946      5F414351 
 2946      55495245 
 2947 257d 01       		.byte	0x1
 2948 257e 00       		.uleb128 0
 2949 257f 5F5F4154 		.ascii "__ATOMIC_HLE_RELEASE 131072\0"
 2949      4F4D4943 
 2949      5F484C45 
 2949      5F52454C 
 2949      45415345 
 2950 259b 01       		.byte	0x1
 2951 259c 00       		.uleb128 0
 2952 259d 5F5F4743 		.ascii "__GCC_ASM_FLAG_OUTPUTS__ 1\0"
 2952      435F4153 
 2952      4D5F464C 
 2952      41475F4F 
 2952      55545055 
 2953 25b8 01       		.byte	0x1
 2954 25b9 00       		.uleb128 0
 2955 25ba 5F5F7475 		.ascii "__tune_i386__ 1\0"
 2955      6E655F69 
 2955      3338365F 
 2955      5F203100 
 2956 25ca 01       		.byte	0x1
 2957 25cb 00       		.uleb128 0
 2958 25cc 5F5F636F 		.ascii "__code_model_32__ 1\0"
 2958      64655F6D 
 2958      6F64656C 
 2958      5F33325F 
 2958      5F203100 
 2959 25e0 01       		.byte	0x1
 2960 25e1 00       		.uleb128 0
 2961 25e2 5F5F5345 		.ascii "__SEG_FS 1\0"
 2961      475F4653 
 2961      203100
 2962 25ed 01       		.byte	0x1
 2963 25ee 00       		.uleb128 0
GAS LISTING C:\Users\PRESID~1\AppData\Local\Temp\ccEn1xvk.s 			page 90


 2964 25ef 5F5F5345 		.ascii "__SEG_GS 1\0"
 2964      475F4753 
 2964      203100
 2965 25fa 01       		.byte	0x1
 2966 25fb 00       		.uleb128 0
 2967 25fc 5F583836 		.ascii "_X86_ 1\0"
 2967      5F203100 
 2968 2604 01       		.byte	0x1
 2969 2605 00       		.uleb128 0
 2970 2606 5F5F7374 		.ascii "__stdcall __attribute__((__stdcall__))\0"
 2970      6463616C 
 2970      6C205F5F 
 2970      61747472 
 2970      69627574 
 2971 262d 01       		.byte	0x1
 2972 262e 00       		.uleb128 0
 2973 262f 5F5F6661 		.ascii "__fastcall __attribute__((__fastcall__))\0"
 2973      73746361 
 2973      6C6C205F 
 2973      5F617474 
 2973      72696275 
 2974 2658 01       		.byte	0x1
 2975 2659 00       		.uleb128 0
 2976 265a 5F5F7468 		.ascii "__thiscall __attribute__((__thiscall__))\0"
 2976      69736361 
 2976      6C6C205F 
 2976      5F617474 
 2976      72696275 
 2977 2683 01       		.byte	0x1
 2978 2684 00       		.uleb128 0
 2979 2685 5F5F6364 		.ascii "__cdecl __attribute__((__cdecl__))\0"
 2979      65636C20 
 2979      5F5F6174 
 2979      74726962 
 2979      7574655F 
 2980 26a8 01       		.byte	0x1
 2981 26a9 00       		.uleb128 0
 2982 26aa 5F5F4758 		.ascii "__GXX_MERGED_TYPEINFO_NAMES 0\0"
 2982      585F4D45 
 2982      52474544 
 2982      5F545950 
 2982      45494E46 
 2983 26c8 01       		.byte	0x1
 2984 26c9 00       		.uleb128 0
 2985 26ca 5F5F4758 		.ascii "__GXX_TYPEINFO_EQUALITY_INLINE 0\0"
 2985      585F5459 
 2985      5045494E 
 2985      464F5F45 
 2985      5155414C 
 2986 26eb 01       		.byte	0x1
 2987 26ec 00       		.uleb128 0
 2988 26ed 5F5F4D53 		.ascii "__MSVCRT__ 1\0"
 2988      56435254 
 2988      5F5F2031 
 2988      00
 2989 26fa 01       		.byte	0x1
 2990 26fb 00       		.uleb128 0
GAS LISTING C:\Users\PRESID~1\AppData\Local\Temp\ccEn1xvk.s 			page 91


 2991 26fc 5F5F4D49 		.ascii "__MINGW32__ 1\0"
 2991      4E475733 
 2991      325F5F20 
 2991      3100
 2992 270a 01       		.byte	0x1
 2993 270b 00       		.uleb128 0
 2994 270c 5F57494E 		.ascii "_WIN32 1\0"
 2994      33322031 
 2994      00
 2995 2715 01       		.byte	0x1
 2996 2716 00       		.uleb128 0
 2997 2717 5F5F5749 		.ascii "__WIN32 1\0"
 2997      4E333220 
 2997      3100
 2998 2721 01       		.byte	0x1
 2999 2722 00       		.uleb128 0
 3000 2723 5F5F5749 		.ascii "__WIN32__ 1\0"
 3000      4E33325F 
 3000      5F203100 
 3001 272f 01       		.byte	0x1
 3002 2730 00       		.uleb128 0
 3003 2731 5F5F5749 		.ascii "__WINNT 1\0"
 3003      4E4E5420 
 3003      3100
 3004 273b 01       		.byte	0x1
 3005 273c 00       		.uleb128 0
 3006 273d 5F5F5749 		.ascii "__WINNT__ 1\0"
 3006      4E4E545F 
 3006      5F203100 
 3007 2749 01       		.byte	0x1
 3008 274a 00       		.uleb128 0
 3009 274b 5F494E54 		.ascii "_INTEGRAL_MAX_BITS 64\0"
 3009      45475241 
 3009      4C5F4D41 
 3009      585F4249 
 3009      54532036 
 3010 2761 01       		.byte	0x1
 3011 2762 00       		.uleb128 0
 3012 2763 5F5F6465 		.ascii "__declspec(x) __attribute__((x))\0"
 3012      636C7370 
 3012      65632878 
 3012      29205F5F 
 3012      61747472 
 3013 2784 01       		.byte	0x1
 3014 2785 00       		.uleb128 0
 3015 2786 5F5F4445 		.ascii "__DECIMAL_BID_FORMAT__ 1\0"
 3015      43494D41 
 3015      4C5F4249 
 3015      445F464F 
 3015      524D4154 
 3016 279f 01       		.byte	0x1
 3017 27a0 00       		.uleb128 0
 3018 27a1 4346475F 		.ascii "CFG_PROCESSOR 3\0"
 3018      50524F43 
 3018      4553534F 
 3018      52203300 
 3019 27b1 03       		.byte	0x3
GAS LISTING C:\Users\PRESID~1\AppData\Local\Temp\ccEn1xvk.s 			page 92


 3020 27b2 00       		.uleb128 0
 3021 27b3 01       		.uleb128 0x1
 3022              		.file 9 "C:/Users/president/Desktop/sbx/input/src/os_base/os_firstinc.h"
 3023 27b4 03       		.byte	0x3
 3024 27b5 01       		.uleb128 0x1
 3025 27b6 09       		.uleb128 0x9
 3026 27b7 01       		.byte	0x1
 3027 27b8 02       		.uleb128 0x2
 3028 27b9 5F4F535F 		.ascii "_OS_FIRSTINC_H_ \0"
 3028      46495253 
 3028      54494E43 
 3028      5F485F20 
 3028      00
 3029              		.file 10 "c:/users/president/desktop/sbx/input/src/os_config.h"
 3030 27ca 03       		.byte	0x3
 3031 27cb 04       		.uleb128 0x4
 3032 27cc 0A       		.uleb128 0xa
 3033 27cd 01       		.byte	0x1
 3034 27ce 02       		.uleb128 0x2
 3035 27cf 5F4F535F 		.ascii "_OS_CONFIG_H_ \0"
 3035      434F4E46 
 3035      49475F48 
 3035      5F2000
 3036 27de 01       		.byte	0x1
 3037 27df 05       		.uleb128 0x5
 3038 27e0 494E5445 		.ascii "INTEGER_LLP64_IL32P64 1u\0"
 3038      4745525F 
 3038      4C4C5036 
 3038      345F494C 
 3038      33325036 
 3039 27f9 01       		.byte	0x1
 3040 27fa 06       		.uleb128 0x6
 3041 27fb 494E5445 		.ascii "INTEGER_LP64_I32LP64 2u\0"
 3041      4745525F 
 3041      4C503634 
 3041      5F493332 
 3041      4C503634 
 3042 2813 01       		.byte	0x1
 3043 2814 07       		.uleb128 0x7
 3044 2815 494E5445 		.ascii "INTEGER_ILP64 3u\0"
 3044      4745525F 
 3044      494C5036 
 3044      34203375 
 3044      00
 3045 2826 01       		.byte	0x1
 3046 2827 08       		.uleb128 0x8
 3047 2828 494E5445 		.ascii "INTEGER_SILP64 4u\0"
 3047      4745525F 
 3047      53494C50 
 3047      36342034 
 3047      7500
 3048 283a 01       		.byte	0x1
 3049 283b 09       		.uleb128 0x9
 3050 283c 494E5445 		.ascii "INTEGER_MODEL INTEGER_LLP64_IL32P64\0"
 3050      4745525F 
 3050      4D4F4445 
 3050      4C20494E 
GAS LISTING C:\Users\PRESID~1\AppData\Local\Temp\ccEn1xvk.s 			page 93


 3050      54454745 
 3051 2860 01       		.byte	0x1
 3052 2861 0C       		.uleb128 0xc
 3053 2862 4350505F 		.ascii "CPP_VERSION_NONE 0u\0"
 3053      56455253 
 3053      494F4E5F 
 3053      4E4F4E45 
 3053      20307500 
 3054 2876 01       		.byte	0x1
 3055 2877 0D       		.uleb128 0xd
 3056 2878 4350505F 		.ascii "CPP_VERSION_1998 1u\0"
 3056      56455253 
 3056      494F4E5F 
 3056      31393938 
 3056      20317500 
 3057 288c 01       		.byte	0x1
 3058 288d 0E       		.uleb128 0xe
 3059 288e 4350505F 		.ascii "CPP_VERSION_2003 2u\0"
 3059      56455253 
 3059      494F4E5F 
 3059      32303033 
 3059      20327500 
 3060 28a2 01       		.byte	0x1
 3061 28a3 0F       		.uleb128 0xf
 3062 28a4 4350505F 		.ascii "CPP_VERSION_2007 3u\0"
 3062      56455253 
 3062      494F4E5F 
 3062      32303037 
 3062      20337500 
 3063 28b8 01       		.byte	0x1
 3064 28b9 10       		.uleb128 0x10
 3065 28ba 4350505F 		.ascii "CPP_VERSION_2011 4u\0"
 3065      56455253 
 3065      494F4E5F 
 3065      32303131 
 3065      20347500 
 3066 28ce 01       		.byte	0x1
 3067 28cf 11       		.uleb128 0x11
 3068 28d0 49534F5F 		.ascii "ISO_CPP_VERSION CPP_VERSION_1998\0"
 3068      4350505F 
 3068      56455253 
 3068      494F4E20 
 3068      4350505F 
 3069 28f1 01       		.byte	0x1
 3070 28f2 14       		.uleb128 0x14
 3071 28f3 4249475F 		.ascii "BIG_INT_SIZE 16u\0"
 3071      494E545F 
 3071      53495A45 
 3071      20313675 
 3071      00
 3072 2904 01       		.byte	0x1
 3073 2905 17       		.uleb128 0x17
 3074 2906 4E525F4F 		.ascii "NR_OF_CORES 1u\0"
 3074      465F434F 
 3074      52455320 
 3074      317500
 3075 2915 01       		.byte	0x1
GAS LISTING C:\Users\PRESID~1\AppData\Local\Temp\ccEn1xvk.s 			page 94


 3076 2916 1B       		.uleb128 0x1b
 3077 2917 4D43555F 		.ascii "MCU_CLOCK_IN_HZ ((uint32)168000000u)\0"
 3077      434C4F43 
 3077      4B5F494E 
 3077      5F485A20 
 3077      28287569 
 3078 293c 01       		.byte	0x1
 3079 293d 1D       		.uleb128 0x1d
 3080 293e 44594E41 		.ascii "DYNAMIC_MEMORY_USED FALSE\0"
 3080      4D49435F 
 3080      4D454D4F 
 3080      52595F55 
 3080      53454420 
 3081 2958 01       		.byte	0x1
 3082 2959 1E       		.uleb128 0x1e
 3083 295a 4C4F4F50 		.ascii "LOOPTIME_IN_USEC ((uint32)10000u)\0"
 3083      54494D45 
 3083      5F494E5F 
 3083      55534543 
 3083      20282875 
 3084 297c 01       		.byte	0x1
 3085 297d 21       		.uleb128 0x21
 3086 297e 48454150 		.ascii "HEAP_SIZE 10000u\0"
 3086      5F53495A 
 3086      45203130 
 3086      30303075 
 3086      00
 3087 298f 01       		.byte	0x1
 3088 2990 22       		.uleb128 0x22
 3089 2991 4D494E5F 		.ascii "MIN_BLOCK_SIZE_HEAP 8u\0"
 3089      424C4F43 
 3089      4B5F5349 
 3089      5A455F48 
 3089      45415020 
 3090 29a8 01       		.byte	0x1
 3091 29a9 23       		.uleb128 0x23
 3092 29aa 48454150 		.ascii "HEAP_OFFSET_FOR_SIZE 0u\0"
 3092      5F4F4646 
 3092      5345545F 
 3092      464F525F 
 3092      53495A45 
 3093 29c2 01       		.byte	0x1
 3094 29c3 24       		.uleb128 0x24
 3095 29c4 48454150 		.ascii "HEAP_OFFSET_FOR_USED_SIZE 4u\0"
 3095      5F4F4646 
 3095      5345545F 
 3095      464F525F 
 3095      55534544 
 3096 29e1 01       		.byte	0x1
 3097 29e2 25       		.uleb128 0x25
 3098 29e3 48454150 		.ascii "HEAP_OFFSET_FOR_CHUNK 8u\0"
 3098      5F4F4646 
 3098      5345545F 
 3098      464F525F 
 3098      4348554E 
 3099 29fc 01       		.byte	0x1
 3100 29fd 28       		.uleb128 0x28
GAS LISTING C:\Users\PRESID~1\AppData\Local\Temp\ccEn1xvk.s 			page 95


 3101 29fe 4F535F4D 		.ascii "OS_MAIN_STACK_SIZE 0x400u\0"
 3101      41494E5F 
 3101      53544143 
 3101      4B5F5349 
 3101      5A452030 
 3102 2a18 01       		.byte	0x1
 3103 2a19 29       		.uleb128 0x29
 3104 2a1a 4F535F50 		.ascii "OS_PROCESS_STACK_TASK1_SIZE 0x200u\0"
 3104      524F4345 
 3104      53535F53 
 3104      5441434B 
 3104      5F544153 
 3105 2a3d 01       		.byte	0x1
 3106 2a3e 2A       		.uleb128 0x2a
 3107 2a3f 4F535F50 		.ascii "OS_PROCESS_STACK_TASK2_SIZE 0x200u\0"
 3107      524F4345 
 3107      53535F53 
 3107      5441434B 
 3107      5F544153 
 3108 2a62 01       		.byte	0x1
 3109 2a63 2B       		.uleb128 0x2b
 3110 2a64 4F535F50 		.ascii "OS_PROCESS_STACK_TASK3_SIZE 0x200u\0"
 3110      524F4345 
 3110      53535F53 
 3110      5441434B 
 3110      5F544153 
 3111 2a87 01       		.byte	0x1
 3112 2a88 2C       		.uleb128 0x2c
 3113 2a89 4F535F50 		.ascii "OS_PROCESS_STACK_TASK4_SIZE 0x200u\0"
 3113      524F4345 
 3113      53535F53 
 3113      5441434B 
 3113      5F544153 
 3114 2aac 04       		.byte	0x4
 3115 2aad 03       		.byte	0x3
 3116 2aae 05       		.uleb128 0x5
 3117 2aaf 02       		.uleb128 0x2
 3118 2ab0 01       		.byte	0x1
 3119 2ab1 02       		.uleb128 0x2
 3120 2ab2 5F4F535F 		.ascii "_OS_BASE_TYPES_H_ \0"
 3120      42415345 
 3120      5F545950 
 3120      45535F48 
 3120      5F2000
 3121 2ac5 04       		.byte	0x4
 3122 2ac6 03       		.byte	0x3
 3123 2ac7 06       		.uleb128 0x6
 3124 2ac8 03       		.uleb128 0x3
 3125 2ac9 01       		.byte	0x1
 3126 2aca 02       		.uleb128 0x2
 3127 2acb 5F4F535F 		.ascii "_OS_COMMON_H_ \0"
 3127      434F4D4D 
 3127      4F4E5F48 
 3127      5F2000
 3128 2ada 01       		.byte	0x1
 3129 2adb 06       		.uleb128 0x6
 3130 2adc 46414C53 		.ascii "FALSE 0u\0"
GAS LISTING C:\Users\PRESID~1\AppData\Local\Temp\ccEn1xvk.s 			page 96


 3130      45203075 
 3130      00
 3131 2ae5 01       		.byte	0x1
 3132 2ae6 07       		.uleb128 0x7
 3133 2ae7 54525545 		.ascii "TRUE 1u\0"
 3133      20317500 
 3134 2aef 01       		.byte	0x1
 3135 2af0 08       		.uleb128 0x8
 3136 2af1 46616C73 		.ascii "False FALSE\0"
 3136      65204641 
 3136      4C534500 
 3137 2afd 01       		.byte	0x1
 3138 2afe 09       		.uleb128 0x9
 3139 2aff 54727565 		.ascii "True TRUE\0"
 3139      20545255 
 3139      4500
 3140 2b09 01       		.byte	0x1
 3141 2b0a 0A       		.uleb128 0xa
 3142 2b0b 41434345 		.ascii "ACCEPTED 1u\0"
 3142      50544544 
 3142      20317500 
 3143 2b17 01       		.byte	0x1
 3144 2b18 0B       		.uleb128 0xb
 3145 2b19 52454A45 		.ascii "REJECTED 0u\0"
 3145      43544544 
 3145      20307500 
 3146 2b25 01       		.byte	0x1
 3147 2b26 0C       		.uleb128 0xc
 3148 2b27 4C4F4341 		.ascii "LOCAL static\0"
 3148      4C207374 
 3148      61746963 
 3148      00
 3149 2b34 01       		.byte	0x1
 3150 2b35 0D       		.uleb128 0xd
 3151 2b36 4C4F4341 		.ascii "LOCAL_INLINE static __inline__\0"
 3151      4C5F494E 
 3151      4C494E45 
 3151      20737461 
 3151      74696320 
 3152 2b55 01       		.byte	0x1
 3153 2b56 0E       		.uleb128 0xe
 3154 2b57 474C4F42 		.ascii "GLOBAL_INLINE __inline__\0"
 3154      414C5F49 
 3154      4E4C494E 
 3154      45205F5F 
 3154      696E6C69 
 3155 2b70 01       		.byte	0x1
 3156 2b71 0F       		.uleb128 0xf
 3157 2b72 52454645 		.ascii "REFERENCE_UNUSED_PARAMETER(x) ((x) = (x))\0"
 3157      52454E43 
 3157      455F554E 
 3157      55534544 
 3157      5F504152 
 3158 2b9c 01       		.byte	0x1
 3159 2b9d 10       		.uleb128 0x10
 3160 2b9e 4E554C4C 		.ascii "NULL ((void*)0)\0"
 3160      20282876 
GAS LISTING C:\Users\PRESID~1\AppData\Local\Temp\ccEn1xvk.s 			page 97


 3160      6F69642A 
 3160      29302900 
 3161 2bae 01       		.byte	0x1
 3162 2baf 13       		.uleb128 0x13
 3163 2bb0 4D43555F 		.ascii "MCU_X86 3\0"
 3163      58383620 
 3163      3300
 3164 2bba 01       		.byte	0x1
 3165 2bbb 14       		.uleb128 0x14
 3166 2bbc 4D43555F 		.ascii "MCU_CORTEX_M4 4\0"
 3166      434F5254 
 3166      45585F4D 
 3166      34203400 
 3167 2bcc 01       		.byte	0x1
 3168 2bcd 17       		.uleb128 0x17
 3169 2bce 4457545F 		.ascii "DWT_CTRL ((volatile uint32*)0xE0001000u)\0"
 3169      4354524C 
 3169      20282876 
 3169      6F6C6174 
 3169      696C6520 
 3170 2bf7 01       		.byte	0x1
 3171 2bf8 18       		.uleb128 0x18
 3172 2bf9 4457545F 		.ascii "DWT_CYCCNT ((volatile uint32*)0xE0001004u)\0"
 3172      43594343 
 3172      4E542028 
 3172      28766F6C 
 3172      6174696C 
 3173 2c24 01       		.byte	0x1
 3174 2c25 19       		.uleb128 0x19
 3175 2c26 4457545F 		.ascii "DWT_LAR ((volatile uint32*)0xE0001FB0u)\0"
 3175      4C415220 
 3175      2828766F 
 3175      6C617469 
 3175      6C652075 
 3176 2c4e 01       		.byte	0x1
 3177 2c4f 1A       		.uleb128 0x1a
 3178 2c50 5343425F 		.ascii "SCB_DEMCR ((volatile uint32*)0xE000EDFCu)\0"
 3178      44454D43 
 3178      52202828 
 3178      766F6C61 
 3178      74696C65 
 3179 2c7a 01       		.byte	0x1
 3180 2c7b 1D       		.uleb128 0x1d
 3181 2c7c 44495341 		.ascii "DISABLE_INTERRUPTS() \0"
 3181      424C455F 
 3181      494E5445 
 3181      52525550 
 3181      54532829 
 3182 2c92 01       		.byte	0x1
 3183 2c93 1E       		.uleb128 0x1e
 3184 2c94 454E4142 		.ascii "ENABLE_INTERRUPTS() \0"
 3184      4C455F49 
 3184      4E544552 
 3184      52555054 
 3184      53282920 
 3185 2ca9 01       		.byte	0x1
 3186 2caa 1F       		.uleb128 0x1f
GAS LISTING C:\Users\PRESID~1\AppData\Local\Temp\ccEn1xvk.s 			page 98


 3187 2cab 50524956 		.ascii "PRIVILIGE_LEVEL_SAVE_CURRENT() \0"
 3187      494C4947 
 3187      455F4C45 
 3187      56454C5F 
 3187      53415645 
 3188 2ccb 01       		.byte	0x1
 3189 2ccc 20       		.uleb128 0x20
 3190 2ccd 50524956 		.ascii "PRIVILIGE_LEVEL_ENTER_KERNEL_MODE() \0"
 3190      494C4947 
 3190      455F4C45 
 3190      56454C5F 
 3190      454E5445 
 3191 2cf2 01       		.byte	0x1
 3192 2cf3 21       		.uleb128 0x21
 3193 2cf4 50524956 		.ascii "PRIVILIGE_LEVEL_RESTORE_SAVED() \0"
 3193      494C4947 
 3193      455F4C45 
 3193      56454C5F 
 3193      52455354 
 3194 2d15 01       		.byte	0x1
 3195 2d16 22       		.uleb128 0x22
 3196 2d17 48414C54 		.ascii "HALT_MCU() \0"
 3196      5F4D4355 
 3196      28292000 
 3197 2d23 01       		.byte	0x1
 3198 2d24 42       		.uleb128 0x42
 3199 2d25 414D4F55 		.ascii "AMOUNT_SW_BUG_FUNCTIONS 22\0"
 3199      4E545F53 
 3199      575F4255 
 3199      475F4655 
 3199      4E435449 
 3200 2d40 04       		.byte	0x4
 3201              		.file 11 "c:/users/president/desktop/sbx/input/src/os_sim/lld_global.h"
 3202 2d41 03       		.byte	0x3
 3203 2d42 09       		.uleb128 0x9
 3204 2d43 0B       		.uleb128 0xb
 3205 2d44 01       		.byte	0x1
 3206 2d45 02       		.uleb128 0x2
 3207 2d46 5F4C4C44 		.ascii "_LLD_GLOBAL_H_ \0"
 3207      5F474C4F 
 3207      42414C5F 
 3207      485F2000 
 3208 2d56 03       		.byte	0x3
 3209 2d57 04       		.uleb128 0x4
 3210 2d58 04       		.uleb128 0x4
 3211 2d59 01       		.byte	0x1
 3212 2d5a 02       		.uleb128 0x2
 3213 2d5b 5F4C4C44 		.ascii "_LLD_CORE_H_ \0"
 3213      5F434F52 
 3213      455F485F 
 3213      2000
 3214              		.file 12 "c:/users/president/desktop/sbx/input/src/os_base/os_firstinc.h"
 3215 2d69 03       		.byte	0x3
 3216 2d6a 03       		.uleb128 0x3
 3217 2d6b 0C       		.uleb128 0xc
 3218 2d6c 04       		.byte	0x4
 3219 2d6d 04       		.byte	0x4
GAS LISTING C:\Users\PRESID~1\AppData\Local\Temp\ccEn1xvk.s 			page 99


 3220              		.file 13 "c:/users/president/desktop/sbx/input/src/os_sim/lld_interrupt.h"
 3221 2d6e 03       		.byte	0x3
 3222 2d6f 05       		.uleb128 0x5
 3223 2d70 0D       		.uleb128 0xd
 3224 2d71 01       		.byte	0x1
 3225 2d72 02       		.uleb128 0x2
 3226 2d73 5F4C4C44 		.ascii "_LLD_INTERRUPT_H_ \0"
 3226      5F494E54 
 3226      45525255 
 3226      50545F48 
 3226      5F2000
 3227 2d86 01       		.byte	0x1
 3228 2d87 05       		.uleb128 0x5
 3229 2d88 4F535F49 		.ascii "OS_INTERRUPT_SWI_1 asm(\"swi 1\")\0"
 3229      4E544552 
 3229      52555054 
 3229      5F535749 
 3229      5F312061 
 3230 2da8 01       		.byte	0x1
 3231 2da9 06       		.uleb128 0x6
 3232 2daa 4F535F49 		.ascii "OS_INTERRUPT_SWI_2 asm(\"swi 2\")\0"
 3232      4E544552 
 3232      52555054 
 3232      5F535749 
 3232      5F322061 
 3233 2dca 01       		.byte	0x1
 3234 2dcb 07       		.uleb128 0x7
 3235 2dcc 4F535F49 		.ascii "OS_INTERRUPT_SWI_3 asm(\"swi 3\")\0"
 3235      4E544552 
 3235      52555054 
 3235      5F535749 
 3235      5F332061 
 3236 2dec 01       		.byte	0x1
 3237 2ded 08       		.uleb128 0x8
 3238 2dee 4F535F49 		.ascii "OS_INTERRUPT_SWI_4 asm(\"swi 4\")\0"
 3238      4E544552 
 3238      52555054 
 3238      5F535749 
 3238      5F342061 
 3239 2e0e 01       		.byte	0x1
 3240 2e0f 09       		.uleb128 0x9
 3241 2e10 4F535F49 		.ascii "OS_INTERRUPT_SWI_5 asm(\"swi 5\")\0"
 3241      4E544552 
 3241      52555054 
 3241      5F535749 
 3241      5F352061 
 3242 2e30 04       		.byte	0x4
 3243              		.file 14 "c:/users/president/desktop/sbx/input/src/os_sim/lld_mmu.h"
 3244 2e31 03       		.byte	0x3
 3245 2e32 06       		.uleb128 0x6
 3246 2e33 0E       		.uleb128 0xe
 3247 2e34 01       		.byte	0x1
 3248 2e35 02       		.uleb128 0x2
 3249 2e36 5F4C4C44 		.ascii "_LLD_MMU_H_ \0"
 3249      5F4D4D55 
 3249      5F485F20 
 3249      00
GAS LISTING C:\Users\PRESID~1\AppData\Local\Temp\ccEn1xvk.s 			page 100


 3250 2e43 04       		.byte	0x4
 3251              		.file 15 "c:/users/president/desktop/sbx/input/src/os_sim/lld_timer.h"
 3252 2e44 03       		.byte	0x3
 3253 2e45 07       		.uleb128 0x7
 3254 2e46 0F       		.uleb128 0xf
 3255 2e47 01       		.byte	0x1
 3256 2e48 02       		.uleb128 0x2
 3257 2e49 5F4C4C44 		.ascii "_LLD_TIMER_H_ \0"
 3257      5F54494D 
 3257      45525F48 
 3257      5F2000
 3258 2e58 04       		.byte	0x4
 3259              		.file 16 "c:/users/president/desktop/sbx/input/src/os_sim/lld_power.h"
 3260 2e59 03       		.byte	0x3
 3261 2e5a 08       		.uleb128 0x8
 3262 2e5b 10       		.uleb128 0x10
 3263 2e5c 01       		.byte	0x1
 3264 2e5d 02       		.uleb128 0x2
 3265 2e5e 5F4C4C44 		.ascii "_LLD_POWER_H_ \0"
 3265      5F504F57 
 3265      45525F48 
 3265      5F2000
 3266 2e6d 04       		.byte	0x4
 3267              		.file 17 "c:/users/president/desktop/sbx/input/src/os_sim/lld_ram.h"
 3268 2e6e 03       		.byte	0x3
 3269 2e6f 09       		.uleb128 0x9
 3270 2e70 11       		.uleb128 0x11
 3271 2e71 01       		.byte	0x1
 3272 2e72 02       		.uleb128 0x2
 3273 2e73 5F4C4C44 		.ascii "_LLD_RAM_H_ \0"
 3273      5F52414D 
 3273      5F485F20 
 3273      00
 3274 2e80 04       		.byte	0x4
 3275 2e81 03       		.byte	0x3
 3276 2e82 0A       		.uleb128 0xa
 3277 2e83 05       		.uleb128 0x5
 3278 2e84 01       		.byte	0x1
 3279 2e85 02       		.uleb128 0x2
 3280 2e86 5F4F535F 		.ascii "_OS_TASK_COMMON_H_ \0"
 3280      5441534B 
 3280      5F434F4D 
 3280      4D4F4E5F 
 3280      485F2000 
 3281 2e9a 03       		.byte	0x3
 3282 2e9b 03       		.uleb128 0x3
 3283 2e9c 09       		.uleb128 0x9
 3284 2e9d 04       		.byte	0x4
 3285              		.file 18 "C:/Users/president/Desktop/sbx/input/src/os_base/os_task_config.h"
 3286 2e9e 03       		.byte	0x3
 3287 2e9f 04       		.uleb128 0x4
 3288 2ea0 12       		.uleb128 0x12
 3289 2ea1 01       		.byte	0x1
 3290 2ea2 02       		.uleb128 0x2
 3291 2ea3 5F4F535F 		.ascii "_OS_TASK_CONFIG_H_ \0"
 3291      5441534B 
 3291      5F434F4E 
GAS LISTING C:\Users\PRESID~1\AppData\Local\Temp\ccEn1xvk.s 			page 101


 3291      4649475F 
 3291      485F2000 
 3292 2eb7 01       		.byte	0x1
 3293 2eb8 05       		.uleb128 0x5
 3294 2eb9 5441534B 		.ascii "TASK_MIN_TIME (1e0)\0"
 3294      5F4D494E 
 3294      5F54494D 
 3294      45202831 
 3294      65302900 
 3295 2ecd 01       		.byte	0x1
 3296 2ece 06       		.uleb128 0x6
 3297 2ecf 4E554D42 		.ascii "NUMBER_OF_TASKS 10u\0"
 3297      45525F4F 
 3297      465F5441 
 3297      534B5320 
 3297      31307500 
 3298 2ee3 01       		.byte	0x1
 3299 2ee4 07       		.uleb128 0x7
 3300 2ee5 4D41585F 		.ascii "MAX_RUN_QUEUE_SIZE (NUMBER_OF_TASKS)\0"
 3300      52554E5F 
 3300      51554555 
 3300      455F5349 
 3300      5A452028 
 3301 2f0a 01       		.byte	0x1
 3302 2f0b 08       		.uleb128 0x8
 3303 2f0c 4D41585F 		.ascii "MAX_RUN_PQUEUE_SIZE MAX_RUN_QUEUE_SIZE\0"
 3303      52554E5F 
 3303      50515545 
 3303      55455F53 
 3303      495A4520 
 3304 2f33 01       		.byte	0x1
 3305 2f34 0A       		.uleb128 0xa
 3306 2f35 5441534B 		.ascii "TASK0_STACK_SIZE 2000u\0"
 3306      305F5354 
 3306      41434B5F 
 3306      53495A45 
 3306      20323030 
 3307 2f4c 01       		.byte	0x1
 3308 2f4d 0B       		.uleb128 0xb
 3309 2f4e 5441534B 		.ascii "TASK1_STACK_SIZE 2000u\0"
 3309      315F5354 
 3309      41434B5F 
 3309      53495A45 
 3309      20323030 
 3310 2f65 01       		.byte	0x1
 3311 2f66 0C       		.uleb128 0xc
 3312 2f67 5441534B 		.ascii "TASK2_STACK_SIZE 2000u\0"
 3312      325F5354 
 3312      41434B5F 
 3312      53495A45 
 3312      20323030 
 3313 2f7e 01       		.byte	0x1
 3314 2f7f 0D       		.uleb128 0xd
 3315 2f80 5441534B 		.ascii "TASK3_STACK_SIZE 2000u\0"
 3315      335F5354 
 3315      41434B5F 
 3315      53495A45 
GAS LISTING C:\Users\PRESID~1\AppData\Local\Temp\ccEn1xvk.s 			page 102


 3315      20323030 
 3316 2f97 01       		.byte	0x1
 3317 2f98 0E       		.uleb128 0xe
 3318 2f99 5441534B 		.ascii "TASK4_STACK_SIZE 2000u\0"
 3318      345F5354 
 3318      41434B5F 
 3318      53495A45 
 3318      20323030 
 3319 2fb0 01       		.byte	0x1
 3320 2fb1 12       		.uleb128 0x12
 3321 2fb2 4D535F50 		.ascii "MS_PER_SEC 1000u\0"
 3321      45525F53 
 3321      45432031 
 3321      30303075 
 3321      00
 3322 2fc3 01       		.byte	0x1
 3323 2fc4 13       		.uleb128 0x13
 3324 2fc5 5553455F 		.ascii "USE_STATIC_CREATED_TASKS TRUE\0"
 3324      53544154 
 3324      49435F43 
 3324      52454154 
 3324      45445F54 
 3325 2fe3 04       		.byte	0x4
 3326              		.file 19 "C:/Users/president/Desktop/sbx/input/src/os_base/os_init_task_system.h"
 3327 2fe4 03       		.byte	0x3
 3328 2fe5 05       		.uleb128 0x5
 3329 2fe6 13       		.uleb128 0x13
 3330 2fe7 01       		.byte	0x1
 3331 2fe8 02       		.uleb128 0x2
 3332 2fe9 5F4F535F 		.ascii "_OS_INIT_TASK_SYSTEM_H_ \0"
 3332      494E4954 
 3332      5F544153 
 3332      4B5F5359 
 3332      5354454D 
 3333 3002 04       		.byte	0x4
 3334 3003 01       		.byte	0x1
 3335 3004 5F       		.uleb128 0x5f
 3336 3005 4F535F53 		.ascii "OS_SAVE_TASK_PTR(task_ptr,task_name) (TASK_PTR[(task_name)] = (task_ptr))\0"
 3336      4156455F 
 3336      5441534B 
 3336      5F505452 
 3336      28746173 
 3337 304f 01       		.byte	0x1
 3338 3050 60       		.uleb128 0x60
 3339 3051 4F535F47 		.ascii "OS_GET_TASK_PTR(task_name) ((task_t*) TASK_PTR[(task_name)])\0"
 3339      45545F54 
 3339      41534B5F 
 3339      50545228 
 3339      7461736B 
 3340 308e 04       		.byte	0x4
 3341 308f 04       		.byte	0x4
 3342              		.file 20 "c:/users/president/desktop/sbx/input/src/os_user_code/led.h"
 3343 3090 03       		.byte	0x3
 3344 3091 0D       		.uleb128 0xd
 3345 3092 14       		.uleb128 0x14
 3346 3093 01       		.byte	0x1
 3347 3094 02       		.uleb128 0x2
GAS LISTING C:\Users\PRESID~1\AppData\Local\Temp\ccEn1xvk.s 			page 103


 3348 3095 5F4C4544 		.ascii "_LED_H_ \0"
 3348      5F485F20 
 3348      00
 3349 309e 04       		.byte	0x4
 3350 309f 03       		.byte	0x3
 3351 30a0 0F       		.uleb128 0xf
 3352 30a1 07       		.uleb128 0x7
 3353 30a2 01       		.byte	0x1
 3354 30a3 02       		.uleb128 0x2
 3355 30a4 5F4F535F 		.ascii "_OS_RAM_H_ \0"
 3355      52414D5F 
 3355      485F2000 
 3356              		.file 21 "C:/Users/president/Desktop/sbx/input/src/os_base/os_stack.h"
 3357 30b0 03       		.byte	0x3
 3358 30b1 05       		.uleb128 0x5
 3359 30b2 15       		.uleb128 0x15
 3360 30b3 01       		.byte	0x1
 3361 30b4 02       		.uleb128 0x2
 3362 30b5 5F4F535F 		.ascii "_OS_STACK_H_ \0"
 3362      53544143 
 3362      4B5F485F 
 3362      2000
 3363 30c3 04       		.byte	0x4
 3364              		.file 22 "C:/Users/president/Desktop/sbx/input/src/os_base/os_heap.h"
 3365 30c4 03       		.byte	0x3
 3366 30c5 06       		.uleb128 0x6
 3367 30c6 16       		.uleb128 0x16
 3368 30c7 01       		.byte	0x1
 3369 30c8 02       		.uleb128 0x2
 3370 30c9 5F4F535F 		.ascii "_OS_HEAP_H_ \0"
 3370      48454150 
 3370      5F485F20 
 3370      00
 3371 30d6 04       		.byte	0x4
 3372 30d7 03       		.byte	0x3
 3373 30d8 07       		.uleb128 0x7
 3374 30d9 06       		.uleb128 0x6
 3375 30da 01       		.byte	0x1
 3376 30db 02       		.uleb128 0x2
 3377 30dc 5F4F535F 		.ascii "_OS_MAIN_H_ \0"
 3377      4D41494E 
 3377      5F485F20 
 3377      00
 3378 30e9 04       		.byte	0x4
 3379              		.file 23 "C:/Users/president/Desktop/sbx/input/src/os_base/os_task_common.h"
 3380 30ea 03       		.byte	0x3
 3381 30eb 09       		.uleb128 0x9
 3382 30ec 17       		.uleb128 0x17
 3383 30ed 04       		.byte	0x4
 3384 30ee 04       		.byte	0x4
 3385 30ef 03       		.byte	0x3
 3386 30f0 10       		.uleb128 0x10
 3387 30f1 08       		.uleb128 0x8
 3388 30f2 01       		.byte	0x1
 3389 30f3 02       		.uleb128 0x2
 3390 30f4 5F4F535F 		.ascii "_OS_RAM_STACK_H_ \0"
 3390      52414D5F 
GAS LISTING C:\Users\PRESID~1\AppData\Local\Temp\ccEn1xvk.s 			page 104


 3390      53544143 
 3390      4B5F485F 
 3390      2000
 3391 3106 04       		.byte	0x4
 3392 3107 04       		.byte	0x4
 3393 3108 04       		.byte	0x4
 3394 3109 00       		.byte	0
 3395              		.section	.debug_line,"dr"
 3396              	Ldebug_line0:
 3397 0000 0F050000 		.section	.debug_str,"dr"
 3397      03004102 
 3397      00000101 
 3397      FB0E0D00 
 3397      01010101 
 3398              	LASF1:
 3399 0000 73746163 		.ascii "stack_pos\0"
 3399      6B5F706F 
 3399      7300
 3400              	LASF0:
 3401 000a 6578655F 		.ascii "exe_time\0"
 3401      74696D65 
 3401      00
 3402              		.ident	"GCC: (MinGW.org GCC-8.2.0-3) 8.2.0"
GAS LISTING C:\Users\PRESID~1\AppData\Local\Temp\ccEn1xvk.s 			page 105


DEFINED SYMBOLS
                            *ABS*:00000000 os_stack.c
C:\Users\PRESID~1\AppData\Local\Temp\ccEn1xvk.s:6      .text:00000000 _OS_STACK_CHECK
C:\Users\PRESID~1\AppData\Local\Temp\ccEn1xvk.s:520    .bss:00000000 _stack_pos.1451
C:\Users\PRESID~1\AppData\Local\Temp\ccEn1xvk.s:521    .bss:00000004 _stack_used.1452
C:\Users\PRESID~1\AppData\Local\Temp\ccEn1xvk.s:410    .text:000003fd _OS_STACK_CHK_PATTERN_INIT

UNDEFINED SYMBOLS
_OS_MAIN_STACK_ADDR
_OS_MAIN_STACK_POS
_OS_MAIN_STACK_USAGE_PERCENT
_OS_MAIN_STACK
_TASK0_STACK
_TASK0_STACK_POS
_TASK0_STACK_ADDR
_TASK1_STACK
_TASK1_STACK_POS
_TASK1_STACK_ADDR
_TASK2_STACK
_TASK2_STACK_POS
_TASK2_STACK_ADDR
_TASK3_STACK
_TASK3_STACK_POS
_TASK3_STACK_ADDR
_TASK4_STACK
_TASK4_STACK_POS
_TASK4_STACK_ADDR
_TASK0_STACK_USAGE_PERCENT
_TASK1_STACK_USAGE_PERCENT
_TASK2_STACK_USAGE_PERCENT
_TASK3_STACK_USAGE_PERCENT
_TASK4_STACK_USAGE_PERCENT
_OS_SET_SW_BUG
