GAS LISTING C:\Users\PRESID~1\AppData\Local\Temp\cccjrhYH.s 			page 1


   1              		.file	"os_start_init_mc.c"
   2              		.text
   3              	Ltext0:
   4              		.globl	_OS_INIT_MC
   6              	_OS_INIT_MC:
   7              	LFB0:
   8              		.file 1 "C:/Users/president/Desktop/sbx/input/src/os_base/os_start_init_mc.c"
   1:C:/Users/president/Desktop/sbx/input/src/os_base\os_start_init_mc.c **** #include "os_firstinc.h"
   2:C:/Users/president/Desktop/sbx/input/src/os_base\os_start_init_mc.c **** #include "os_start_init_mc.h"
   3:C:/Users/president/Desktop/sbx/input/src/os_base\os_start_init_mc.c **** #include "os_memory_mmu.h"
   4:C:/Users/president/Desktop/sbx/input/src/os_base\os_start_init_mc.c **** 
   5:C:/Users/president/Desktop/sbx/input/src/os_base\os_start_init_mc.c **** void OS_INIT_MC(void)
   6:C:/Users/president/Desktop/sbx/input/src/os_base\os_start_init_mc.c **** {
   9              		.loc 1 6 1
  10              		.cfi_startproc
  11 0000 55       		pushl	%ebp
  12              		.cfi_def_cfa_offset 8
  13              		.cfi_offset 5, -8
  14 0001 89E5     		movl	%esp, %ebp
  15              		.cfi_def_cfa_register 5
  16 0003 83EC08   		subl	$8, %esp
   7:C:/Users/president/Desktop/sbx/input/src/os_base\os_start_init_mc.c ****    /* 1. configure PLL */
   8:C:/Users/president/Desktop/sbx/input/src/os_base\os_start_init_mc.c ****    /* keep the default MCU frequency */
   9:C:/Users/president/Desktop/sbx/input/src/os_base\os_start_init_mc.c ****    /* the mcu CortexM4 / STM32F407... wakes up using HSI as system clock with 16 MHz frequency, thi
  10:C:/Users/president/Desktop/sbx/input/src/os_base\os_start_init_mc.c ****    
  11:C:/Users/president/Desktop/sbx/input/src/os_base\os_start_init_mc.c ****    /* 2. all MCU IO*/
  12:C:/Users/president/Desktop/sbx/input/src/os_base\os_start_init_mc.c ****    /* configure GPIO (SPI, UART, CAN, etc) */
  13:C:/Users/president/Desktop/sbx/input/src/os_base\os_start_init_mc.c ****    /* no external parts connected to SPI, UART, CAN, ... -> no init needed */
  14:C:/Users/president/Desktop/sbx/input/src/os_base\os_start_init_mc.c ****    /* initialize the external parts...  */
  15:C:/Users/president/Desktop/sbx/input/src/os_base\os_start_init_mc.c ****    /* no relevant external parts */
  16:C:/Users/president/Desktop/sbx/input/src/os_base\os_start_init_mc.c ****    OS_MMU_SETUP();
  17              		.loc 1 16 4
  18 0006 E8000000 		call	_OS_MMU_SETUP
  18      00
  17:C:/Users/president/Desktop/sbx/input/src/os_base\os_start_init_mc.c **** }
  19              		.loc 1 17 1
  20 000b 90       		nop
  21 000c C9       		leave
  22              		.cfi_restore 5
  23              		.cfi_def_cfa 4, 4
  24 000d C3       		ret
  25              		.cfi_endproc
  26              	LFE0:
  27              	Letext0:
  28              		.file 2 "c:/users/president/desktop/sbx/input/src/os_base/os_base_types.h"
  29              		.file 3 "c:/users/president/desktop/sbx/input/src/os_base/os_common.h"
  30              		.file 4 "c:/users/president/desktop/sbx/input/src/os_sim/lld_core.h"
  31              		.file 5 "c:/users/president/desktop/sbx/input/src/os_base/os_task_common.h"
  32              		.file 6 "C:/Users/president/Desktop/sbx/input/src/os_base/os_main.h"
  33              		.file 7 "c:/users/president/desktop/sbx/input/src/os_base/os_ram.h"
  34              		.file 8 "c:/users/president/desktop/sbx/input/src/os_base/os_ram_stack.h"