GAS LISTING C:\Users\PRESID~1\AppData\Local\Temp\ccD5yOAh.s 			page 1


   1              		.file	"os_start_ext_prg.c"
   2              		.text
   3              	Ltext0:
   5              	_os_signatur_valid:
   6              	LFB0:
   7              		.file 1 "C:/Users/president/Desktop/sbx/input/src/os_base/os_start_ext_prg.c"
   1:C:/Users/president/Desktop/sbx/input/src/os_base\os_start_ext_prg.c **** #include "os_firstinc.h"
   2:C:/Users/president/Desktop/sbx/input/src/os_base\os_start_ext_prg.c **** /*
   3:C:/Users/president/Desktop/sbx/input/src/os_base\os_start_ext_prg.c ****    os_StartExtPrg: to be called with supervisor rights!!
   4:C:/Users/president/Desktop/sbx/input/src/os_base\os_start_ext_prg.c **** */
   5:C:/Users/president/Desktop/sbx/input/src/os_base\os_start_ext_prg.c **** LOCAL unsigned_char_t os_signatur_valid(func_ptr_t LoadProgAddr, uint32 PrgSignatur, uint32 PrgSize
   6:C:/Users/president/Desktop/sbx/input/src/os_base\os_start_ext_prg.c **** 
   7:C:/Users/president/Desktop/sbx/input/src/os_base\os_start_ext_prg.c **** unsigned_char_t os_signatur_valid(func_ptr_t LoadProgAddr, uint32 PrgSignatur, uint32 PrgSize)
   8:C:/Users/president/Desktop/sbx/input/src/os_base\os_start_ext_prg.c **** {
   8              		.loc 1 8 1
   9              		.cfi_startproc
  10 0000 55       		pushl	%ebp
  11              		.cfi_def_cfa_offset 8
  12              		.cfi_offset 5, -8
  13 0001 89E5     		movl	%esp, %ebp
  14              		.cfi_def_cfa_register 5
   9:C:/Users/president/Desktop/sbx/input/src/os_base\os_start_ext_prg.c ****    /* no signature check currently wanted, because
  10:C:/Users/president/Desktop/sbx/input/src/os_base\os_start_ext_prg.c ****    1. Asymetric Signature calculation takes lots of time
  11:C:/Users/president/Desktop/sbx/input/src/os_base\os_start_ext_prg.c ****    2. Sym Hash + Asym Signature lack of official embedded implementation free to use
  12:C:/Users/president/Desktop/sbx/input/src/os_base\os_start_ext_prg.c ****    3. Signature not in the scope of the project
  13:C:/Users/president/Desktop/sbx/input/src/os_base\os_start_ext_prg.c ****    */
  14:C:/Users/president/Desktop/sbx/input/src/os_base\os_start_ext_prg.c ****    REFERENCE_UNUSED_PARAMETER(LoadProgAddr);
  15:C:/Users/president/Desktop/sbx/input/src/os_base\os_start_ext_prg.c ****    REFERENCE_UNUSED_PARAMETER(PrgSignatur);
  16:C:/Users/president/Desktop/sbx/input/src/os_base\os_start_ext_prg.c ****    REFERENCE_UNUSED_PARAMETER(PrgSize);
  17:C:/Users/president/Desktop/sbx/input/src/os_base\os_start_ext_prg.c ****    return TRUE;
  15              		.loc 1 17 11
  16 0003 B001     		movb	$1, %al
  18:C:/Users/president/Desktop/sbx/input/src/os_base\os_start_ext_prg.c **** }
  17              		.loc 1 18 1
  18 0005 5D       		popl	%ebp
  19              		.cfi_restore 5
  20              		.cfi_def_cfa 4, 4
  21 0006 C3       		ret
  22              		.cfi_endproc
  23              	LFE0:
  24              		.globl	_OS_START_EXT_PRG
  26              	_OS_START_EXT_PRG:
  27              	LFB1:
  19:C:/Users/president/Desktop/sbx/input/src/os_base\os_start_ext_prg.c **** void OS_START_EXT_PRG(func_ptr_t LoadProgAddr, uint32 PrgSignatur, uint32 PrgSize)
  20:C:/Users/president/Desktop/sbx/input/src/os_base\os_start_ext_prg.c **** {
  28              		.loc 1 20 1
  29              		.cfi_startproc
  30 0007 55       		pushl	%ebp
  31              		.cfi_def_cfa_offset 8
  32              		.cfi_offset 5, -8
  33 0008 89E5     		movl	%esp, %ebp
  34              		.cfi_def_cfa_register 5
  35 000a 83EC18   		subl	$24, %esp
  21:C:/Users/president/Desktop/sbx/input/src/os_base\os_start_ext_prg.c ****    /* 1. Check Program Signatur and size -> is it a signed Programm? (Chain of Trust) */
  22:C:/Users/president/Desktop/sbx/input/src/os_base\os_start_ext_prg.c ****    if(os_signatur_valid(LoadProgAddr, PrgSignatur, PrgSize) == FALSE)
  36              		.loc 1 22 7
  37 000d 8B4510   		movl	16(%ebp), %eax
GAS LISTING C:\Users\PRESID~1\AppData\Local\Temp\ccD5yOAh.s 			page 2


  38 0010 89442408 		movl	%eax, 8(%esp)
  39 0014 8B450C   		movl	12(%ebp), %eax
  40 0017 89442404 		movl	%eax, 4(%esp)
  41 001b 8B4508   		movl	8(%ebp), %eax
  42 001e 890424   		movl	%eax, (%esp)
  43 0021 E8DAFFFF 		call	_os_signatur_valid
  43      FF
  44              		.loc 1 22 6
  45 0026 84C0     		testb	%al, %al
  46 0028 7407     		je	L6
  23:C:/Users/president/Desktop/sbx/input/src/os_base\os_start_ext_prg.c ****    {
  24:C:/Users/president/Desktop/sbx/input/src/os_base\os_start_ext_prg.c ****       return;
  25:C:/Users/president/Desktop/sbx/input/src/os_base\os_start_ext_prg.c ****    }
  26:C:/Users/president/Desktop/sbx/input/src/os_base\os_start_ext_prg.c **** 
  27:C:/Users/president/Desktop/sbx/input/src/os_base\os_start_ext_prg.c ****    /* 2. Switch off MMU (system mpu and core mpu, perhaps more mpu parts need to be switched off...
  28:C:/Users/president/Desktop/sbx/input/src/os_base\os_start_ext_prg.c ****    /*LLF_MPU_DISABLE(); -> already done in os_deinit_mc(); */
  29:C:/Users/president/Desktop/sbx/input/src/os_base\os_start_ext_prg.c **** 
  30:C:/Users/president/Desktop/sbx/input/src/os_base\os_start_ext_prg.c ****    /* 3. Start ExtPrg */
  31:C:/Users/president/Desktop/sbx/input/src/os_base\os_start_ext_prg.c ****    /*
  32:C:/Users/president/Desktop/sbx/input/src/os_base\os_start_ext_prg.c ****    call function:
  33:C:/Users/president/Desktop/sbx/input/src/os_base\os_start_ext_prg.c ****    different processors have different alignment requirements... be aware!!
  34:C:/Users/president/Desktop/sbx/input/src/os_base\os_start_ext_prg.c ****    Might cause non alignment failures, in case the code in not aligned correctly
  35:C:/Users/president/Desktop/sbx/input/src/os_base\os_start_ext_prg.c ****    */
  36:C:/Users/president/Desktop/sbx/input/src/os_base\os_start_ext_prg.c ****    LoadProgAddr();
  47              		.loc 1 36 4
  48 002a 8B4508   		movl	8(%ebp), %eax
  49 002d FFD0     		call	*%eax
  50              	LVL0:
  51 002f EB01     		jmp	L3
  52              	L6:
  24:C:/Users/president/Desktop/sbx/input/src/os_base\os_start_ext_prg.c ****    }
  53              		.loc 1 24 7
  54 0031 90       		nop
  55              	L3:
  37:C:/Users/president/Desktop/sbx/input/src/os_base\os_start_ext_prg.c **** }
  56              		.loc 1 37 1
  57 0032 C9       		leave
  58              		.cfi_restore 5
  59              		.cfi_def_cfa 4, 4
  60 0033 C3       		ret
  61              		.cfi_endproc
  62              	LFE1:
  63              	Letext0:
  64              		.file 2 "c:/users/president/desktop/sbx/input/src/os_base/os_base_types.h"
  65              		.file 3 "c:/users/president/desktop/sbx/input/src/os_base/os_common.h"
  66              		.file 4 "c:/users/president/desktop/sbx/input/src/os_sim/lld_core.h"
  67              		.file 5 "c:/users/president/desktop/sbx/input/src/os_base/os_task_common.h"
  68              		.file 6 "C:/Users/president/Desktop/sbx/input/src/os_base/os_main.h"
  69              		.file 7 "c:/users/president/desktop/sbx/input/src/os_base/os_ram.h"
  70              		.file 8 "c:/users/president/desktop/sbx/input/src/os_base/os_ram_stack.h"