GAS LISTING C:\Users\PRESID~1\AppData\Local\Temp\cchcYGnu.s 			page 1


   1              		.file	"os_sim_main.c"
   2              		.text
   3              	Ltext0:
   5              	_printf:
   6              	LFB1:
   7              		.file 1 "d:/programm/mingw/include/stdio.h"
   1:d:/programm/mingw/include\stdio.h **** /*
   2:d:/programm/mingw/include\stdio.h ****  * stdio.h
   3:d:/programm/mingw/include\stdio.h ****  * This file has no copyright assigned and is placed in the Public Domain.
   4:d:/programm/mingw/include\stdio.h ****  * This file is a part of the mingw-runtime package.
   5:d:/programm/mingw/include\stdio.h ****  * No warranty is given; refer to the file DISCLAIMER within the package.
   6:d:/programm/mingw/include\stdio.h ****  *
   7:d:/programm/mingw/include\stdio.h ****  * Definitions of types and prototypes of functions for standard input and
   8:d:/programm/mingw/include\stdio.h ****  * output.
   9:d:/programm/mingw/include\stdio.h ****  *
  10:d:/programm/mingw/include\stdio.h ****  * NOTE: The file manipulation functions provided by Microsoft seem to
  11:d:/programm/mingw/include\stdio.h ****  * work with either slash (/) or backslash (\) as the directory separator.
  12:d:/programm/mingw/include\stdio.h ****  *
  13:d:/programm/mingw/include\stdio.h ****  */
  14:d:/programm/mingw/include\stdio.h **** 
  15:d:/programm/mingw/include\stdio.h **** #ifndef _STDIO_H_
  16:d:/programm/mingw/include\stdio.h **** #define	_STDIO_H_
  17:d:/programm/mingw/include\stdio.h **** 
  18:d:/programm/mingw/include\stdio.h **** /* All the headers include this file. */
  19:d:/programm/mingw/include\stdio.h **** #include <_mingw.h>
  20:d:/programm/mingw/include\stdio.h **** 
  21:d:/programm/mingw/include\stdio.h **** #ifndef RC_INVOKED
  22:d:/programm/mingw/include\stdio.h **** #define __need_size_t
  23:d:/programm/mingw/include\stdio.h **** #define __need_NULL
  24:d:/programm/mingw/include\stdio.h **** #define __need_wchar_t
  25:d:/programm/mingw/include\stdio.h **** #define	__need_wint_t
  26:d:/programm/mingw/include\stdio.h **** #include <stddef.h>
  27:d:/programm/mingw/include\stdio.h **** #define __need___va_list
  28:d:/programm/mingw/include\stdio.h **** #include <stdarg.h>
  29:d:/programm/mingw/include\stdio.h **** #endif	/* Not RC_INVOKED */
  30:d:/programm/mingw/include\stdio.h **** 
  31:d:/programm/mingw/include\stdio.h **** 
  32:d:/programm/mingw/include\stdio.h **** /* Flags for the iobuf structure  */
  33:d:/programm/mingw/include\stdio.h **** #define	_IOREAD	1 /* currently reading */
  34:d:/programm/mingw/include\stdio.h **** #define	_IOWRT	2 /* currently writing */
  35:d:/programm/mingw/include\stdio.h **** #define	_IORW	0x0080 /* opened as "r+w" */
  36:d:/programm/mingw/include\stdio.h **** 
  37:d:/programm/mingw/include\stdio.h **** 
  38:d:/programm/mingw/include\stdio.h **** /*
  39:d:/programm/mingw/include\stdio.h ****  * The three standard file pointers provided by the run time library.
  40:d:/programm/mingw/include\stdio.h ****  * NOTE: These will go to the bit-bucket silently in GUI applications!
  41:d:/programm/mingw/include\stdio.h ****  */
  42:d:/programm/mingw/include\stdio.h **** #define	STDIN_FILENO	0
  43:d:/programm/mingw/include\stdio.h **** #define	STDOUT_FILENO	1
  44:d:/programm/mingw/include\stdio.h **** #define	STDERR_FILENO	2
  45:d:/programm/mingw/include\stdio.h **** 
  46:d:/programm/mingw/include\stdio.h **** /* Returned by various functions on end of file condition or error. */
  47:d:/programm/mingw/include\stdio.h **** #define	EOF	(-1)
  48:d:/programm/mingw/include\stdio.h **** 
  49:d:/programm/mingw/include\stdio.h **** /*
  50:d:/programm/mingw/include\stdio.h ****  * The maximum length of a file name. You should use GetVolumeInformation
  51:d:/programm/mingw/include\stdio.h ****  * instead of this constant. But hey, this works.
GAS LISTING C:\Users\PRESID~1\AppData\Local\Temp\cchcYGnu.s 			page 2


  52:d:/programm/mingw/include\stdio.h ****  * Also defined in io.h.
  53:d:/programm/mingw/include\stdio.h ****  */
  54:d:/programm/mingw/include\stdio.h **** #ifndef FILENAME_MAX
  55:d:/programm/mingw/include\stdio.h **** #define	FILENAME_MAX	(260)
  56:d:/programm/mingw/include\stdio.h **** #endif
  57:d:/programm/mingw/include\stdio.h **** 
  58:d:/programm/mingw/include\stdio.h **** /*
  59:d:/programm/mingw/include\stdio.h ****  * The maximum number of files that may be open at once. I have set this to
  60:d:/programm/mingw/include\stdio.h ****  * a conservative number. The actual value may be higher.
  61:d:/programm/mingw/include\stdio.h ****  */
  62:d:/programm/mingw/include\stdio.h **** #define FOPEN_MAX	(20)
  63:d:/programm/mingw/include\stdio.h **** 
  64:d:/programm/mingw/include\stdio.h **** /* After creating this many names, tmpnam and tmpfile return NULL */
  65:d:/programm/mingw/include\stdio.h **** #define TMP_MAX	32767
  66:d:/programm/mingw/include\stdio.h **** /*
  67:d:/programm/mingw/include\stdio.h ****  * Tmpnam, tmpfile and, sometimes, _tempnam try to create
  68:d:/programm/mingw/include\stdio.h ****  * temp files in the root directory of the current drive
  69:d:/programm/mingw/include\stdio.h ****  * (not in pwd, as suggested by some older MS doc's).
  70:d:/programm/mingw/include\stdio.h ****  * Redefining these macros does not effect the CRT functions.
  71:d:/programm/mingw/include\stdio.h ****  */
  72:d:/programm/mingw/include\stdio.h **** #define _P_tmpdir   "\\"
  73:d:/programm/mingw/include\stdio.h **** #ifndef __STRICT_ANSI__
  74:d:/programm/mingw/include\stdio.h **** #define P_tmpdir _P_tmpdir
  75:d:/programm/mingw/include\stdio.h **** #endif
  76:d:/programm/mingw/include\stdio.h **** #define _wP_tmpdir  L"\\"
  77:d:/programm/mingw/include\stdio.h **** 
  78:d:/programm/mingw/include\stdio.h **** /*
  79:d:/programm/mingw/include\stdio.h ****  * The maximum size of name (including NUL) that will be put in the user
  80:d:/programm/mingw/include\stdio.h ****  * supplied buffer caName for tmpnam.
  81:d:/programm/mingw/include\stdio.h ****  * Inferred from the size of the static buffer returned by tmpnam
  82:d:/programm/mingw/include\stdio.h ****  * when passed a NULL argument. May actually be smaller.
  83:d:/programm/mingw/include\stdio.h ****  */
  84:d:/programm/mingw/include\stdio.h **** #define L_tmpnam (16)
  85:d:/programm/mingw/include\stdio.h **** 
  86:d:/programm/mingw/include\stdio.h **** #define _IOFBF    0x0000  /* full buffered */
  87:d:/programm/mingw/include\stdio.h **** #define _IOLBF    0x0040  /* line buffered */
  88:d:/programm/mingw/include\stdio.h **** #define _IONBF    0x0004  /* not buffered */
  89:d:/programm/mingw/include\stdio.h **** 
  90:d:/programm/mingw/include\stdio.h **** #define _IOMYBUF  0x0008  /* stdio malloc()'d buffer */
  91:d:/programm/mingw/include\stdio.h **** #define _IOEOF    0x0010  /* EOF reached on read */
  92:d:/programm/mingw/include\stdio.h **** #define _IOERR    0x0020  /* I/O error from system */
  93:d:/programm/mingw/include\stdio.h **** #define _IOSTRG   0x0040  /* Strange or no file descriptor */
  94:d:/programm/mingw/include\stdio.h **** #ifdef _POSIX_SOURCE
  95:d:/programm/mingw/include\stdio.h **** # define _IOAPPEND 0x0200
  96:d:/programm/mingw/include\stdio.h **** #endif
  97:d:/programm/mingw/include\stdio.h **** /*
  98:d:/programm/mingw/include\stdio.h ****  * The buffer size as used by setbuf such that it is equivalent to
  99:d:/programm/mingw/include\stdio.h ****  * (void) setvbuf(fileSetBuffer, caBuffer, _IOFBF, BUFSIZ).
 100:d:/programm/mingw/include\stdio.h ****  */
 101:d:/programm/mingw/include\stdio.h **** #define	BUFSIZ	512
 102:d:/programm/mingw/include\stdio.h **** 
 103:d:/programm/mingw/include\stdio.h **** /* Constants for nOrigin indicating the position relative to which fseek
 104:d:/programm/mingw/include\stdio.h ****  * sets the file position.  Defined unconditionally since ISO and POSIX
 105:d:/programm/mingw/include\stdio.h ****  * say they are defined here.
 106:d:/programm/mingw/include\stdio.h ****  */
 107:d:/programm/mingw/include\stdio.h **** #define SEEK_SET  0
 108:d:/programm/mingw/include\stdio.h **** #define SEEK_CUR  1
GAS LISTING C:\Users\PRESID~1\AppData\Local\Temp\cchcYGnu.s 			page 3


 109:d:/programm/mingw/include\stdio.h **** #define SEEK_END  2
 110:d:/programm/mingw/include\stdio.h **** 
 111:d:/programm/mingw/include\stdio.h **** #ifndef	RC_INVOKED
 112:d:/programm/mingw/include\stdio.h **** 
 113:d:/programm/mingw/include\stdio.h **** #ifndef __VALIST
 114:d:/programm/mingw/include\stdio.h **** #ifdef __GNUC__
 115:d:/programm/mingw/include\stdio.h **** #define __VALIST __gnuc_va_list
 116:d:/programm/mingw/include\stdio.h **** #else
 117:d:/programm/mingw/include\stdio.h **** #define __VALIST char*
 118:d:/programm/mingw/include\stdio.h **** #endif
 119:d:/programm/mingw/include\stdio.h **** #endif /* defined __VALIST  */
 120:d:/programm/mingw/include\stdio.h **** 
 121:d:/programm/mingw/include\stdio.h **** /*
 122:d:/programm/mingw/include\stdio.h ****  * The structure underlying the FILE type.
 123:d:/programm/mingw/include\stdio.h ****  *
 124:d:/programm/mingw/include\stdio.h ****  * Some believe that nobody in their right mind should make use of the
 125:d:/programm/mingw/include\stdio.h ****  * internals of this structure. Provided by Pedro A. Aranda Gutiirrez
 126:d:/programm/mingw/include\stdio.h ****  * <paag@tid.es>.
 127:d:/programm/mingw/include\stdio.h ****  */
 128:d:/programm/mingw/include\stdio.h **** #ifndef _FILE_DEFINED
 129:d:/programm/mingw/include\stdio.h **** #define	_FILE_DEFINED
 130:d:/programm/mingw/include\stdio.h **** typedef struct _iobuf
 131:d:/programm/mingw/include\stdio.h **** {
 132:d:/programm/mingw/include\stdio.h **** 	char*	_ptr;
 133:d:/programm/mingw/include\stdio.h **** 	int	_cnt;
 134:d:/programm/mingw/include\stdio.h **** 	char*	_base;
 135:d:/programm/mingw/include\stdio.h **** 	int	_flag;
 136:d:/programm/mingw/include\stdio.h **** 	int	_file;
 137:d:/programm/mingw/include\stdio.h **** 	int	_charbuf;
 138:d:/programm/mingw/include\stdio.h **** 	int	_bufsiz;
 139:d:/programm/mingw/include\stdio.h **** 	char*	_tmpfname;
 140:d:/programm/mingw/include\stdio.h **** } FILE;
 141:d:/programm/mingw/include\stdio.h **** #endif	/* Not _FILE_DEFINED */
 142:d:/programm/mingw/include\stdio.h **** 
 143:d:/programm/mingw/include\stdio.h **** 
 144:d:/programm/mingw/include\stdio.h **** /*
 145:d:/programm/mingw/include\stdio.h ****  * The standard file handles
 146:d:/programm/mingw/include\stdio.h ****  */
 147:d:/programm/mingw/include\stdio.h **** #ifndef __DECLSPEC_SUPPORTED
 148:d:/programm/mingw/include\stdio.h **** 
 149:d:/programm/mingw/include\stdio.h **** extern FILE (*_imp___iob)[];	/* A pointer to an array of FILE */
 150:d:/programm/mingw/include\stdio.h **** 
 151:d:/programm/mingw/include\stdio.h **** #define _iob	(*_imp___iob)	/* An array of FILE */
 152:d:/programm/mingw/include\stdio.h **** 
 153:d:/programm/mingw/include\stdio.h **** #else /* __DECLSPEC_SUPPORTED */
 154:d:/programm/mingw/include\stdio.h **** 
 155:d:/programm/mingw/include\stdio.h **** __MINGW_IMPORT FILE _iob[];	/* An array of FILE imported from DLL. */
 156:d:/programm/mingw/include\stdio.h **** 
 157:d:/programm/mingw/include\stdio.h **** #endif /* __DECLSPEC_SUPPORTED */
 158:d:/programm/mingw/include\stdio.h **** 
 159:d:/programm/mingw/include\stdio.h **** #define stdin	(&_iob[STDIN_FILENO])
 160:d:/programm/mingw/include\stdio.h **** #define stdout	(&_iob[STDOUT_FILENO])
 161:d:/programm/mingw/include\stdio.h **** #define stderr	(&_iob[STDERR_FILENO])
 162:d:/programm/mingw/include\stdio.h **** 
 163:d:/programm/mingw/include\stdio.h **** _BEGIN_C_DECLS
 164:d:/programm/mingw/include\stdio.h **** 
 165:d:/programm/mingw/include\stdio.h **** /*
GAS LISTING C:\Users\PRESID~1\AppData\Local\Temp\cchcYGnu.s 			page 4


 166:d:/programm/mingw/include\stdio.h ****  * File Operations
 167:d:/programm/mingw/include\stdio.h ****  */
 168:d:/programm/mingw/include\stdio.h **** _CRTIMP FILE* __cdecl __MINGW_NOTHROW	fopen (const char*, const char*);
 169:d:/programm/mingw/include\stdio.h **** _CRTIMP FILE* __cdecl __MINGW_NOTHROW	freopen (const char*, const char*, FILE*);
 170:d:/programm/mingw/include\stdio.h **** _CRTIMP int __cdecl __MINGW_NOTHROW	fflush (FILE*);
 171:d:/programm/mingw/include\stdio.h **** _CRTIMP int __cdecl __MINGW_NOTHROW	fclose (FILE*);
 172:d:/programm/mingw/include\stdio.h **** /* MS puts remove & rename (but not wide versions) in io.h  also */
 173:d:/programm/mingw/include\stdio.h **** _CRTIMP int __cdecl __MINGW_NOTHROW	remove (const char*);
 174:d:/programm/mingw/include\stdio.h **** _CRTIMP int __cdecl __MINGW_NOTHROW	rename (const char*, const char*);
 175:d:/programm/mingw/include\stdio.h **** _CRTIMP FILE* __cdecl __MINGW_NOTHROW	tmpfile (void);
 176:d:/programm/mingw/include\stdio.h **** _CRTIMP char* __cdecl __MINGW_NOTHROW	tmpnam (char*);
 177:d:/programm/mingw/include\stdio.h **** 
 178:d:/programm/mingw/include\stdio.h **** #ifndef __STRICT_ANSI__
 179:d:/programm/mingw/include\stdio.h **** _CRTIMP char* __cdecl __MINGW_NOTHROW	_tempnam (const char*, const char*);
 180:d:/programm/mingw/include\stdio.h **** _CRTIMP int __cdecl __MINGW_NOTHROW	_rmtmp(void);
 181:d:/programm/mingw/include\stdio.h **** _CRTIMP int __cdecl __MINGW_NOTHROW	_unlink (const char*);
 182:d:/programm/mingw/include\stdio.h **** 
 183:d:/programm/mingw/include\stdio.h **** #ifndef	NO_OLDNAMES
 184:d:/programm/mingw/include\stdio.h **** _CRTIMP char* __cdecl __MINGW_NOTHROW	tempnam (const char*, const char*);
 185:d:/programm/mingw/include\stdio.h **** _CRTIMP int __cdecl __MINGW_NOTHROW	rmtmp(void);
 186:d:/programm/mingw/include\stdio.h **** _CRTIMP int __cdecl __MINGW_NOTHROW	unlink (const char*);
 187:d:/programm/mingw/include\stdio.h **** #endif
 188:d:/programm/mingw/include\stdio.h **** #endif /* __STRICT_ANSI__ */
 189:d:/programm/mingw/include\stdio.h **** 
 190:d:/programm/mingw/include\stdio.h **** _CRTIMP int __cdecl __MINGW_NOTHROW	setvbuf (FILE*, char*, int, size_t);
 191:d:/programm/mingw/include\stdio.h **** 
 192:d:/programm/mingw/include\stdio.h **** _CRTIMP void __cdecl __MINGW_NOTHROW	setbuf (FILE*, char*);
 193:d:/programm/mingw/include\stdio.h **** 
 194:d:/programm/mingw/include\stdio.h **** /*
 195:d:/programm/mingw/include\stdio.h ****  * Formatted Output
 196:d:/programm/mingw/include\stdio.h ****  *
 197:d:/programm/mingw/include\stdio.h ****  * MSVCRT implementations are not ANSI C99 conformant...
 198:d:/programm/mingw/include\stdio.h ****  * we offer these conforming alternatives from libmingwex.a
 199:d:/programm/mingw/include\stdio.h ****  */
 200:d:/programm/mingw/include\stdio.h **** #undef  __mingw_stdio_redirect__
 201:d:/programm/mingw/include\stdio.h **** #define __mingw_stdio_redirect__(F) __cdecl __MINGW_NOTHROW __mingw_##F
 202:d:/programm/mingw/include\stdio.h **** 
 203:d:/programm/mingw/include\stdio.h **** extern int __mingw_stdio_redirect__(fprintf)(FILE*, const char*, ...);
 204:d:/programm/mingw/include\stdio.h **** extern int __mingw_stdio_redirect__(printf)(const char*, ...);
 205:d:/programm/mingw/include\stdio.h **** extern int __mingw_stdio_redirect__(sprintf)(char*, const char*, ...);
 206:d:/programm/mingw/include\stdio.h **** extern int __mingw_stdio_redirect__(snprintf)(char*, size_t, const char*, ...);
 207:d:/programm/mingw/include\stdio.h **** extern int __mingw_stdio_redirect__(vfprintf)(FILE*, const char*, __VALIST);
 208:d:/programm/mingw/include\stdio.h **** extern int __mingw_stdio_redirect__(vprintf)(const char*, __VALIST);
 209:d:/programm/mingw/include\stdio.h **** extern int __mingw_stdio_redirect__(vsprintf)(char*, const char*, __VALIST);
 210:d:/programm/mingw/include\stdio.h **** extern int __mingw_stdio_redirect__(vsnprintf)(char*, size_t, const char*, __VALIST);
 211:d:/programm/mingw/include\stdio.h **** 
 212:d:/programm/mingw/include\stdio.h **** #if __USE_MINGW_ANSI_STDIO
 213:d:/programm/mingw/include\stdio.h **** /*
 214:d:/programm/mingw/include\stdio.h ****  * User has expressed a preference for C99 conformance...
 215:d:/programm/mingw/include\stdio.h ****  */
 216:d:/programm/mingw/include\stdio.h **** # undef __mingw_stdio_redirect__
 217:d:/programm/mingw/include\stdio.h **** # ifdef __cplusplus
 218:d:/programm/mingw/include\stdio.h **** /*
 219:d:/programm/mingw/include\stdio.h ****  * For C++ we use inline implementations, to avoid interference
 220:d:/programm/mingw/include\stdio.h ****  * with namespace qualification, which may result from using #defines.
 221:d:/programm/mingw/include\stdio.h ****  */
 222:d:/programm/mingw/include\stdio.h **** #  define __mingw_stdio_redirect__  inline __cdecl __MINGW_NOTHROW
GAS LISTING C:\Users\PRESID~1\AppData\Local\Temp\cchcYGnu.s 			page 5


 223:d:/programm/mingw/include\stdio.h **** 
 224:d:/programm/mingw/include\stdio.h **** # elif defined __GNUC__
 225:d:/programm/mingw/include\stdio.h **** /*
 226:d:/programm/mingw/include\stdio.h ****  * FIXME: Is there any GCC version prerequisite here?
 227:d:/programm/mingw/include\stdio.h ****  *
 228:d:/programm/mingw/include\stdio.h ****  * We also prefer inline implementations for C, when we can be confident
 229:d:/programm/mingw/include\stdio.h ****  * that the GNU specific __inline__ mechanism is supported.
 230:d:/programm/mingw/include\stdio.h ****  */
 231:d:/programm/mingw/include\stdio.h **** #  define __mingw_stdio_redirect__  static __inline__ __cdecl __MINGW_NOTHROW
 232:d:/programm/mingw/include\stdio.h **** 
 233:d:/programm/mingw/include\stdio.h **** # else
 234:d:/programm/mingw/include\stdio.h **** /*
 235:d:/programm/mingw/include\stdio.h ****  * Can't use inlines; fall back on module local static stubs.
 236:d:/programm/mingw/include\stdio.h ****  */
 237:d:/programm/mingw/include\stdio.h **** #  define __mingw_stdio_redirect__  static __cdecl __MINGW_NOTHROW
 238:d:/programm/mingw/include\stdio.h **** # endif
 239:d:/programm/mingw/include\stdio.h **** 
 240:d:/programm/mingw/include\stdio.h **** __mingw_stdio_redirect__
 241:d:/programm/mingw/include\stdio.h **** int fprintf (FILE *__stream, const char *__format, ...)
 242:d:/programm/mingw/include\stdio.h **** {
 243:d:/programm/mingw/include\stdio.h ****   register int __retval;
 244:d:/programm/mingw/include\stdio.h ****   __builtin_va_list __local_argv; __builtin_va_start( __local_argv, __format );
 245:d:/programm/mingw/include\stdio.h ****   __retval = __mingw_vfprintf( __stream, __format, __local_argv );
 246:d:/programm/mingw/include\stdio.h ****   __builtin_va_end( __local_argv );
 247:d:/programm/mingw/include\stdio.h ****   return __retval;
 248:d:/programm/mingw/include\stdio.h **** }
 249:d:/programm/mingw/include\stdio.h **** 
 250:d:/programm/mingw/include\stdio.h **** __mingw_stdio_redirect__
 251:d:/programm/mingw/include\stdio.h **** int printf (const char *__format, ...)
 252:d:/programm/mingw/include\stdio.h **** {
   8              		.loc 1 252 0
   9              		.cfi_startproc
  10 0000 55       		pushl	%ebp
  11              		.cfi_def_cfa_offset 8
  12              		.cfi_offset 5, -8
  13 0001 89E5     		movl	%esp, %ebp
  14              		.cfi_def_cfa_register 5
  15 0003 53       		pushl	%ebx
  16 0004 83EC24   		subl	$36, %esp
  17              		.cfi_offset 3, -12
 253:d:/programm/mingw/include\stdio.h ****   register int __retval;
 254:d:/programm/mingw/include\stdio.h ****   __builtin_va_list __local_argv; __builtin_va_start( __local_argv, __format );
  18              		.loc 1 254 0
  19 0007 8D450C   		leal	12(%ebp), %eax
  20 000a 8945F4   		movl	%eax, -12(%ebp)
 255:d:/programm/mingw/include\stdio.h ****   __retval = __mingw_vprintf( __format, __local_argv );
  21              		.loc 1 255 0
  22 000d 8B45F4   		movl	-12(%ebp), %eax
  23 0010 89442404 		movl	%eax, 4(%esp)
  24 0014 8B4508   		movl	8(%ebp), %eax
  25 0017 890424   		movl	%eax, (%esp)
  26 001a E8000000 		call	___mingw_vprintf
  26      00
  27 001f 89C3     		movl	%eax, %ebx
 256:d:/programm/mingw/include\stdio.h ****   __builtin_va_end( __local_argv );
 257:d:/programm/mingw/include\stdio.h ****   return __retval;
  28              		.loc 1 257 0
GAS LISTING C:\Users\PRESID~1\AppData\Local\Temp\cchcYGnu.s 			page 6


  29 0021 89D8     		movl	%ebx, %eax
 258:d:/programm/mingw/include\stdio.h **** }
  30              		.loc 1 258 0
  31 0023 83C424   		addl	$36, %esp
  32 0026 5B       		popl	%ebx
  33              		.cfi_restore 3
  34 0027 5D       		popl	%ebp
  35              		.cfi_restore 5
  36              		.cfi_def_cfa 4, 4
  37 0028 C3       		ret
  38              		.cfi_endproc
  39              	LFE1:
  41              		.section .rdata,"dr"
  42              	LC1:
  43 0000 5A656974 		.ascii "Zeit: %d\0"
  43      3A202564 
  43      00
  44              		.text
  45              		.globl	_main
  47              	_main:
  48              	LFB10:
  49              		.file 2 "E:/NeuOrga/Programmieren/c_cpp/github_os/input/src/os_sim/os_sim_main.c"
   1:E:/NeuOrga/Programmieren/c_cpp/github_os/input/src/os_sim\os_sim_main.c **** #include "..\os_base\os_firstinc.h"
   2:E:/NeuOrga/Programmieren/c_cpp/github_os/input/src/os_sim\os_sim_main.c **** #include "..\os_base\os_main.h"
   3:E:/NeuOrga/Programmieren/c_cpp/github_os/input/src/os_sim\os_sim_main.c **** #include "..\os_base\os_task_scheduler.h"
   4:E:/NeuOrga/Programmieren/c_cpp/github_os/input/src/os_sim\os_sim_main.c **** #include "..\os_base\os_exception_isr_handler.h"
   5:E:/NeuOrga/Programmieren/c_cpp/github_os/input/src/os_sim\os_sim_main.c **** #include "..\os_base\os_start_os.h"
   6:E:/NeuOrga/Programmieren/c_cpp/github_os/input/src/os_sim\os_sim_main.c **** #include "stdio.h"
   7:E:/NeuOrga/Programmieren/c_cpp/github_os/input/src/os_sim\os_sim_main.c **** #include "time.h"
   8:E:/NeuOrga/Programmieren/c_cpp/github_os/input/src/os_sim\os_sim_main.c **** 
   9:E:/NeuOrga/Programmieren/c_cpp/github_os/input/src/os_sim\os_sim_main.c **** int main(int argc, char* argv[])
  10:E:/NeuOrga/Programmieren/c_cpp/github_os/input/src/os_sim\os_sim_main.c **** {
  50              		.loc 2 10 0
  51              		.cfi_startproc
  52 0029 55       		pushl	%ebp
  53              		.cfi_def_cfa_offset 8
  54              		.cfi_offset 5, -8
  55 002a 89E5     		movl	%esp, %ebp
  56              		.cfi_def_cfa_register 5
  57 002c 83E4F0   		andl	$-16, %esp
  58 002f 83EC30   		subl	$48, %esp
  59              		.loc 2 10 0
  60 0032 E8000000 		call	___main
  60      00
  11:E:/NeuOrga/Programmieren/c_cpp/github_os/input/src/os_sim\os_sim_main.c **** #if(CFG_PROCESSOR == cMCU_X86)
  12:E:/NeuOrga/Programmieren/c_cpp/github_os/input/src/os_sim\os_sim_main.c ****    unsigned int i = 0;
  61              		.loc 2 12 0
  62 0037 C744242C 		movl	$0, 44(%esp)
  62      00000000 
  13:E:/NeuOrga/Programmieren/c_cpp/github_os/input/src/os_sim\os_sim_main.c ****    time_t t = time(0);
  63              		.loc 2 13 0
  64 003f C7042400 		movl	$0, (%esp)
  64      000000
  65 0046 E8000000 		call	_time
  65      00
  66 004b 89442428 		movl	%eax, 40(%esp)
  14:E:/NeuOrga/Programmieren/c_cpp/github_os/input/src/os_sim\os_sim_main.c ****    OS_START_OS();
GAS LISTING C:\Users\PRESID~1\AppData\Local\Temp\cchcYGnu.s 			page 7


  67              		.loc 2 14 0
  68 004f E8000000 		call	_OS_START_OS
  68      00
  15:E:/NeuOrga/Programmieren/c_cpp/github_os/input/src/os_sim\os_sim_main.c **** 
  16:E:/NeuOrga/Programmieren/c_cpp/github_os/input/src/os_sim\os_sim_main.c ****    while(i < 1e9)
  69              		.loc 2 16 0
  70 0054 EB1D     		jmp	L4
  71              	L5:
  17:E:/NeuOrga/Programmieren/c_cpp/github_os/input/src/os_sim\os_sim_main.c ****    {
  18:E:/NeuOrga/Programmieren/c_cpp/github_os/input/src/os_sim\os_sim_main.c ****       /* emulate the interrupts */
  19:E:/NeuOrga/Programmieren/c_cpp/github_os/input/src/os_sim\os_sim_main.c ****       OS_STATE_HANDLER();
  72              		.loc 2 19 0
  73 0056 E8000000 		call	_OS_STATE_HANDLER
  73      00
  20:E:/NeuOrga/Programmieren/c_cpp/github_os/input/src/os_sim\os_sim_main.c ****       OS_ISRHANDLERC0();
  74              		.loc 2 20 0
  75 005b E8000000 		call	_OS_ISRHANDLERC0
  75      00
  21:E:/NeuOrga/Programmieren/c_cpp/github_os/input/src/os_sim\os_sim_main.c ****       OS_ISRHANDLERC1();
  76              		.loc 2 21 0
  77 0060 E8000000 		call	_OS_ISRHANDLERC1
  77      00
  22:E:/NeuOrga/Programmieren/c_cpp/github_os/input/src/os_sim\os_sim_main.c ****       OS_ISRHANDLERC2();
  78              		.loc 2 22 0
  79 0065 E8000000 		call	_OS_ISRHANDLERC2
  79      00
  23:E:/NeuOrga/Programmieren/c_cpp/github_os/input/src/os_sim\os_sim_main.c ****       OS_ISRHANDLERC3();
  80              		.loc 2 23 0
  81 006a E8000000 		call	_OS_ISRHANDLERC3
  81      00
  24:E:/NeuOrga/Programmieren/c_cpp/github_os/input/src/os_sim\os_sim_main.c ****       i++;
  82              		.loc 2 24 0
  83 006f FF44242C 		incl	44(%esp)
  84              	L4:
  16:E:/NeuOrga/Programmieren/c_cpp/github_os/input/src/os_sim\os_sim_main.c ****    {
  85              		.loc 2 16 0
  86 0073 8B44242C 		movl	44(%esp), %eax
  87 0077 BA000000 		movl	$0, %edx
  87      00
  88 007c 89442418 		movl	%eax, 24(%esp)
  89 0080 8954241C 		movl	%edx, 28(%esp)
  90 0084 DF6C2418 		fildq	24(%esp)
  91 0088 DB2D1000 		fldt	LC0
  91      0000
  92 008e DAE9     		fucompp
  93 0090 DFE0     		fnstsw	%ax
  94 0092 F6C445   		testb	$69, %ah
  95 0095 74BF     		je	L5
  25:E:/NeuOrga/Programmieren/c_cpp/github_os/input/src/os_sim\os_sim_main.c ****    }
  26:E:/NeuOrga/Programmieren/c_cpp/github_os/input/src/os_sim\os_sim_main.c ****    t = time(0) - t;
  96              		.loc 2 26 0
  97 0097 C7042400 		movl	$0, (%esp)
  97      000000
  98 009e E8000000 		call	_time
  98      00
  99 00a3 2B442428 		subl	40(%esp), %eax
 100 00a7 89442428 		movl	%eax, 40(%esp)
GAS LISTING C:\Users\PRESID~1\AppData\Local\Temp\cchcYGnu.s 			page 8


  27:E:/NeuOrga/Programmieren/c_cpp/github_os/input/src/os_sim\os_sim_main.c ****    printf("Zeit: %d",t);
 101              		.loc 2 27 0
 102 00ab 8B442428 		movl	40(%esp), %eax
 103 00af 89442404 		movl	%eax, 4(%esp)
 104 00b3 C7042400 		movl	$LC1, (%esp)
 104      000000
 105 00ba E841FFFF 		call	_printf
 105      FF
  28:E:/NeuOrga/Programmieren/c_cpp/github_os/input/src/os_sim\os_sim_main.c ****    getchar();
 106              		.loc 2 28 0
 107 00bf E8000000 		call	_getchar
 107      00
  29:E:/NeuOrga/Programmieren/c_cpp/github_os/input/src/os_sim\os_sim_main.c ****    getchar();
 108              		.loc 2 29 0
 109 00c4 E8000000 		call	_getchar
 109      00
  30:E:/NeuOrga/Programmieren/c_cpp/github_os/input/src/os_sim\os_sim_main.c ****    ReferenceUnusedParameter(argc);
  31:E:/NeuOrga/Programmieren/c_cpp/github_os/input/src/os_sim\os_sim_main.c ****    ReferenceUnusedParameter(*argv);
 110              		.loc 2 31 0
 111 00c9 8B450C   		movl	12(%ebp), %eax
 112 00cc 8B10     		movl	(%eax), %edx
 113 00ce 8B450C   		movl	12(%ebp), %eax
 114 00d1 8910     		movl	%edx, (%eax)
  32:E:/NeuOrga/Programmieren/c_cpp/github_os/input/src/os_sim\os_sim_main.c **** #endif
  33:E:/NeuOrga/Programmieren/c_cpp/github_os/input/src/os_sim\os_sim_main.c ****    return 0;
 115              		.loc 2 33 0
 116 00d3 B8000000 		movl	$0, %eax
 116      00
  34:E:/NeuOrga/Programmieren/c_cpp/github_os/input/src/os_sim\os_sim_main.c **** }...
 117              		.loc 2 34 0
 118 00d8 C9       		leave
 119              		.cfi_restore 5
 120              		.cfi_def_cfa 4, 4
 121 00d9 C3       		ret
 122              		.cfi_endproc
 123              	LFE10:
 124              		.section .rdata,"dr"
 125 0009 00000000 		.align 16
 125      000000
 126              	LC0:
 127 0010 00000000 		.long	0
 128 0014 00286BEE 		.long	-294967296
 129 0018 1C400000 		.long	16412
 130 001c 00000000 		.text
 131              	Letext0:
 132              		.file 3 "d:/programm/mingw/include/parts/time.h"
 133 00da 9090     		.section	.debug_info,"dr"
 134              	Ldebug_info0:
 135 0000 A7020000 		.long	0x2a7
 136 0004 0400     		.word	0x4
 137 0006 00000000 		.secrel32	Ldebug_abbrev0
 138 000a 04       		.byte	0x4
 139 000b 01       		.uleb128 0x1
 140 000c 474E5520 		.ascii "GNU C 4.9.3 -march=i386 -g3 -O0 -std=c90\0"
 140      4320342E 
 140      392E3320 
 140      2D6D6172 
GAS LISTING C:\Users\PRESID~1\AppData\Local\Temp\cchcYGnu.s 			page 9


 140      63683D69 
 141 0035 01       		.byte	0x1
 142 0036 453A5C4E 		.ascii "E:\\NeuOrga\\Programmieren\\c_cpp\\github_os\\input\\src\\os_sim\\os_sim_main.c\0"
 142      65754F72 
 142      67615C50 
 142      726F6772 
 142      616D6D69 
 143 007e 00000000 		.long	Ltext0
 144 0082 DA000000 		.long	Letext0-Ltext0
 145 0086 00000000 		.secrel32	Ldebug_line0
 146 008a 00000000 		.secrel32	Ldebug_macro0
 147 008e 02       		.uleb128 0x2
 148 008f 01       		.byte	0x1
 149 0090 08       		.byte	0x8
 150 0091 756E7369 		.ascii "unsigned char\0"
 150      676E6564 
 150      20636861 
 150      7200
 151 009f 02       		.uleb128 0x2
 152 00a0 02       		.byte	0x2
 153 00a1 07       		.byte	0x7
 154 00a2 73686F72 		.ascii "short unsigned int\0"
 154      7420756E 
 154      7369676E 
 154      65642069 
 154      6E7400
 155 00b5 02       		.uleb128 0x2
 156 00b6 04       		.byte	0x4
 157 00b7 07       		.byte	0x7
 158 00b8 6C6F6E67 		.ascii "long unsigned int\0"
 158      20756E73 
 158      69676E65 
 158      6420696E 
 158      7400
 159 00ca 02       		.uleb128 0x2
 160 00cb 04       		.byte	0x4
 161 00cc 07       		.byte	0x7
 162 00cd 756E7369 		.ascii "unsigned int\0"
 162      676E6564 
 162      20696E74 
 162      00
 163 00da 03       		.uleb128 0x3
 164 00db 04       		.byte	0x4
 165 00dc 5F5F6275 		.ascii "__builtin_va_list\0"
 165      696C7469 
 165      6E5F7661 
 165      5F6C6973 
 165      7400
 166 00ee F2000000 		.long	0xf2
 167 00f2 02       		.uleb128 0x2
 168 00f3 01       		.byte	0x1
 169 00f4 06       		.byte	0x6
 170 00f5 63686172 		.ascii "char\0"
 170      00
 171 00fa 04       		.uleb128 0x4
 172 00fb 5F696F62 		.ascii "_iobuf\0"
 172      756600
GAS LISTING C:\Users\PRESID~1\AppData\Local\Temp\cchcYGnu.s 			page 10


 173 0102 20       		.byte	0x20
 174 0103 01       		.byte	0x1
 175 0104 82       		.byte	0x82
 176 0105 81010000 		.long	0x181
 177 0109 05       		.uleb128 0x5
 178 010a 5F707472 		.ascii "_ptr\0"
 178      00
 179 010f 01       		.byte	0x1
 180 0110 84       		.byte	0x84
 181 0111 81010000 		.long	0x181
 182 0115 00       		.byte	0
 183 0116 05       		.uleb128 0x5
 184 0117 5F636E74 		.ascii "_cnt\0"
 184      00
 185 011c 01       		.byte	0x1
 186 011d 85       		.byte	0x85
 187 011e 87010000 		.long	0x187
 188 0122 04       		.byte	0x4
 189 0123 05       		.uleb128 0x5
 190 0124 5F626173 		.ascii "_base\0"
 190      6500
 191 012a 01       		.byte	0x1
 192 012b 86       		.byte	0x86
 193 012c 81010000 		.long	0x181
 194 0130 08       		.byte	0x8
 195 0131 05       		.uleb128 0x5
 196 0132 5F666C61 		.ascii "_flag\0"
 196      6700
 197 0138 01       		.byte	0x1
 198 0139 87       		.byte	0x87
 199 013a 87010000 		.long	0x187
 200 013e 0C       		.byte	0xc
 201 013f 05       		.uleb128 0x5
 202 0140 5F66696C 		.ascii "_file\0"
 202      6500
 203 0146 01       		.byte	0x1
 204 0147 88       		.byte	0x88
 205 0148 87010000 		.long	0x187
 206 014c 10       		.byte	0x10
 207 014d 05       		.uleb128 0x5
 208 014e 5F636861 		.ascii "_charbuf\0"
 208      72627566 
 208      00
 209 0157 01       		.byte	0x1
 210 0158 89       		.byte	0x89
 211 0159 87010000 		.long	0x187
 212 015d 14       		.byte	0x14
 213 015e 05       		.uleb128 0x5
 214 015f 5F627566 		.ascii "_bufsiz\0"
 214      73697A00 
 215 0167 01       		.byte	0x1
 216 0168 8A       		.byte	0x8a
 217 0169 87010000 		.long	0x187
 218 016d 18       		.byte	0x18
 219 016e 05       		.uleb128 0x5
 220 016f 5F746D70 		.ascii "_tmpfname\0"
 220      666E616D 
GAS LISTING C:\Users\PRESID~1\AppData\Local\Temp\cchcYGnu.s 			page 11


 220      6500
 221 0179 01       		.byte	0x1
 222 017a 8B       		.byte	0x8b
 223 017b 81010000 		.long	0x181
 224 017f 1C       		.byte	0x1c
 225 0180 00       		.byte	0
 226 0181 06       		.uleb128 0x6
 227 0182 04       		.byte	0x4
 228 0183 F2000000 		.long	0xf2
 229 0187 02       		.uleb128 0x2
 230 0188 04       		.byte	0x4
 231 0189 05       		.byte	0x5
 232 018a 696E7400 		.ascii "int\0"
 233 018e 07       		.uleb128 0x7
 234 018f 46494C45 		.ascii "FILE\0"
 234      00
 235 0194 01       		.byte	0x1
 236 0195 8C       		.byte	0x8c
 237 0196 FA000000 		.long	0xfa
 238 019a 02       		.uleb128 0x2
 239 019b 08       		.byte	0x8
 240 019c 05       		.byte	0x5
 241 019d 6C6F6E67 		.ascii "long long int\0"
 241      206C6F6E 
 241      6720696E 
 241      7400
 242 01ab 07       		.uleb128 0x7
 243 01ac 5F5F7469 		.ascii "__time32_t\0"
 243      6D653332 
 243      5F7400
 244 01b7 03       		.byte	0x3
 245 01b8 40       		.byte	0x40
 246 01b9 BD010000 		.long	0x1bd
 247 01bd 02       		.uleb128 0x2
 248 01be 04       		.byte	0x4
 249 01bf 05       		.byte	0x5
 250 01c0 6C6F6E67 		.ascii "long int\0"
 250      20696E74 
 250      00
 251 01c9 07       		.uleb128 0x7
 252 01ca 74696D65 		.ascii "time_t\0"
 252      5F7400
 253 01d1 03       		.byte	0x3
 254 01d2 4A       		.byte	0x4a
 255 01d3 AB010000 		.long	0x1ab
 256 01d7 08       		.uleb128 0x8
 257 01d8 7072696E 		.ascii "printf\0"
 257      746600
 258 01df 01       		.byte	0x1
 259 01e0 FB       		.byte	0xfb
 260 01e1 87010000 		.long	0x187
 261 01e5 00000000 		.long	LFB1
 262 01e9 29000000 		.long	LFE1-LFB1
 263 01ed 01       		.uleb128 0x1
 264 01ee 9C       		.byte	0x9c
 265 01ef 31020000 		.long	0x231
 266 01f3 09       		.uleb128 0x9
GAS LISTING C:\Users\PRESID~1\AppData\Local\Temp\cchcYGnu.s 			page 12


 267 01f4 5F5F666F 		.ascii "__format\0"
 267      726D6174 
 267      00
 268 01fd 01       		.byte	0x1
 269 01fe FB       		.byte	0xfb
 270 01ff 31020000 		.long	0x231
 271 0203 02       		.uleb128 0x2
 272 0204 91       		.byte	0x91
 273 0205 00       		.sleb128 0
 274 0206 0A       		.uleb128 0xa
 275 0207 0B       		.uleb128 0xb
 276 0208 5F5F7265 		.ascii "__retval\0"
 276      7476616C 
 276      00
 277 0211 01       		.byte	0x1
 278 0212 FD       		.byte	0xfd
 279 0213 87010000 		.long	0x187
 280 0217 01       		.uleb128 0x1
 281 0218 53       		.byte	0x53
 282 0219 0B       		.uleb128 0xb
 283 021a 5F5F6C6F 		.ascii "__local_argv\0"
 283      63616C5F 
 283      61726776 
 283      00
 284 0227 01       		.byte	0x1
 285 0228 FE       		.byte	0xfe
 286 0229 DA000000 		.long	0xda
 287 022d 02       		.uleb128 0x2
 288 022e 91       		.byte	0x91
 289 022f 6C       		.sleb128 -20
 290 0230 00       		.byte	0
 291 0231 06       		.uleb128 0x6
 292 0232 04       		.byte	0x4
 293 0233 37020000 		.long	0x237
 294 0237 0C       		.uleb128 0xc
 295 0238 F2000000 		.long	0xf2
 296 023c 0D       		.uleb128 0xd
 297 023d 6D61696E 		.ascii "main\0"
 297      00
 298 0242 02       		.byte	0x2
 299 0243 09       		.byte	0x9
 300 0244 87010000 		.long	0x187
 301 0248 29000000 		.long	LFB10
 302 024c B1000000 		.long	LFE10-LFB10
 303 0250 01       		.uleb128 0x1
 304 0251 9C       		.byte	0x9c
 305 0252 8D020000 		.long	0x28d
 306 0256 09       		.uleb128 0x9
 307 0257 61726763 		.ascii "argc\0"
 307      00
 308 025c 02       		.byte	0x2
 309 025d 09       		.byte	0x9
 310 025e 87010000 		.long	0x187
 311 0262 02       		.uleb128 0x2
 312 0263 91       		.byte	0x91
 313 0264 00       		.sleb128 0
 314 0265 09       		.uleb128 0x9
GAS LISTING C:\Users\PRESID~1\AppData\Local\Temp\cchcYGnu.s 			page 13


 315 0266 61726776 		.ascii "argv\0"
 315      00
 316 026b 02       		.byte	0x2
 317 026c 09       		.byte	0x9
 318 026d 8D020000 		.long	0x28d
 319 0271 02       		.uleb128 0x2
 320 0272 91       		.byte	0x91
 321 0273 04       		.sleb128 4
 322 0274 0B       		.uleb128 0xb
 323 0275 6900     		.ascii "i\0"
 324 0277 02       		.byte	0x2
 325 0278 0C       		.byte	0xc
 326 0279 CA000000 		.long	0xca
 327 027d 02       		.uleb128 0x2
 328 027e 74       		.byte	0x74
 329 027f 2C       		.sleb128 44
 330 0280 0B       		.uleb128 0xb
 331 0281 7400     		.ascii "t\0"
 332 0283 02       		.byte	0x2
 333 0284 0D       		.byte	0xd
 334 0285 C9010000 		.long	0x1c9
 335 0289 02       		.uleb128 0x2
 336 028a 74       		.byte	0x74
 337 028b 28       		.sleb128 40
 338 028c 00       		.byte	0
 339 028d 06       		.uleb128 0x6
 340 028e 04       		.byte	0x4
 341 028f 81010000 		.long	0x181
 342 0293 0E       		.uleb128 0xe
 343 0294 8E010000 		.long	0x18e
 344 0298 9E020000 		.long	0x29e
 345 029c 0F       		.uleb128 0xf
 346 029d 00       		.byte	0
 347 029e 10       		.uleb128 0x10
 348 029f 5F696F62 		.ascii "_iob\0"
 348      00
 349 02a4 01       		.byte	0x1
 350 02a5 9B       		.byte	0x9b
 351 02a6 93020000 		.long	0x293
 352 02aa 00       		.byte	0
 353              		.section	.debug_abbrev,"dr"
 354              	Ldebug_abbrev0:
 355 0000 01       		.uleb128 0x1
 356 0001 11       		.uleb128 0x11
 357 0002 01       		.byte	0x1
 358 0003 25       		.uleb128 0x25
 359 0004 08       		.uleb128 0x8
 360 0005 13       		.uleb128 0x13
 361 0006 0B       		.uleb128 0xb
 362 0007 03       		.uleb128 0x3
 363 0008 08       		.uleb128 0x8
 364 0009 11       		.uleb128 0x11
 365 000a 01       		.uleb128 0x1
 366 000b 12       		.uleb128 0x12
 367 000c 06       		.uleb128 0x6
 368 000d 10       		.uleb128 0x10
 369 000e 17       		.uleb128 0x17
GAS LISTING C:\Users\PRESID~1\AppData\Local\Temp\cchcYGnu.s 			page 14


 370 000f 9942     		.uleb128 0x2119
 371 0011 17       		.uleb128 0x17
 372 0012 00       		.byte	0
 373 0013 00       		.byte	0
 374 0014 02       		.uleb128 0x2
 375 0015 24       		.uleb128 0x24
 376 0016 00       		.byte	0
 377 0017 0B       		.uleb128 0xb
 378 0018 0B       		.uleb128 0xb
 379 0019 3E       		.uleb128 0x3e
 380 001a 0B       		.uleb128 0xb
 381 001b 03       		.uleb128 0x3
 382 001c 08       		.uleb128 0x8
 383 001d 00       		.byte	0
 384 001e 00       		.byte	0
 385 001f 03       		.uleb128 0x3
 386 0020 0F       		.uleb128 0xf
 387 0021 00       		.byte	0
 388 0022 0B       		.uleb128 0xb
 389 0023 0B       		.uleb128 0xb
 390 0024 03       		.uleb128 0x3
 391 0025 08       		.uleb128 0x8
 392 0026 49       		.uleb128 0x49
 393 0027 13       		.uleb128 0x13
 394 0028 00       		.byte	0
 395 0029 00       		.byte	0
 396 002a 04       		.uleb128 0x4
 397 002b 13       		.uleb128 0x13
 398 002c 01       		.byte	0x1
 399 002d 03       		.uleb128 0x3
 400 002e 08       		.uleb128 0x8
 401 002f 0B       		.uleb128 0xb
 402 0030 0B       		.uleb128 0xb
 403 0031 3A       		.uleb128 0x3a
 404 0032 0B       		.uleb128 0xb
 405 0033 3B       		.uleb128 0x3b
 406 0034 0B       		.uleb128 0xb
 407 0035 01       		.uleb128 0x1
 408 0036 13       		.uleb128 0x13
 409 0037 00       		.byte	0
 410 0038 00       		.byte	0
 411 0039 05       		.uleb128 0x5
 412 003a 0D       		.uleb128 0xd
 413 003b 00       		.byte	0
 414 003c 03       		.uleb128 0x3
 415 003d 08       		.uleb128 0x8
 416 003e 3A       		.uleb128 0x3a
 417 003f 0B       		.uleb128 0xb
 418 0040 3B       		.uleb128 0x3b
 419 0041 0B       		.uleb128 0xb
 420 0042 49       		.uleb128 0x49
 421 0043 13       		.uleb128 0x13
 422 0044 38       		.uleb128 0x38
 423 0045 0B       		.uleb128 0xb
 424 0046 00       		.byte	0
 425 0047 00       		.byte	0
 426 0048 06       		.uleb128 0x6
GAS LISTING C:\Users\PRESID~1\AppData\Local\Temp\cchcYGnu.s 			page 15


 427 0049 0F       		.uleb128 0xf
 428 004a 00       		.byte	0
 429 004b 0B       		.uleb128 0xb
 430 004c 0B       		.uleb128 0xb
 431 004d 49       		.uleb128 0x49
 432 004e 13       		.uleb128 0x13
 433 004f 00       		.byte	0
 434 0050 00       		.byte	0
 435 0051 07       		.uleb128 0x7
 436 0052 16       		.uleb128 0x16
 437 0053 00       		.byte	0
 438 0054 03       		.uleb128 0x3
 439 0055 08       		.uleb128 0x8
 440 0056 3A       		.uleb128 0x3a
 441 0057 0B       		.uleb128 0xb
 442 0058 3B       		.uleb128 0x3b
 443 0059 0B       		.uleb128 0xb
 444 005a 49       		.uleb128 0x49
 445 005b 13       		.uleb128 0x13
 446 005c 00       		.byte	0
 447 005d 00       		.byte	0
 448 005e 08       		.uleb128 0x8
 449 005f 2E       		.uleb128 0x2e
 450 0060 01       		.byte	0x1
 451 0061 03       		.uleb128 0x3
 452 0062 08       		.uleb128 0x8
 453 0063 3A       		.uleb128 0x3a
 454 0064 0B       		.uleb128 0xb
 455 0065 3B       		.uleb128 0x3b
 456 0066 0B       		.uleb128 0xb
 457 0067 27       		.uleb128 0x27
 458 0068 19       		.uleb128 0x19
 459 0069 49       		.uleb128 0x49
 460 006a 13       		.uleb128 0x13
 461 006b 11       		.uleb128 0x11
 462 006c 01       		.uleb128 0x1
 463 006d 12       		.uleb128 0x12
 464 006e 06       		.uleb128 0x6
 465 006f 40       		.uleb128 0x40
 466 0070 18       		.uleb128 0x18
 467 0071 9642     		.uleb128 0x2116
 468 0073 19       		.uleb128 0x19
 469 0074 01       		.uleb128 0x1
 470 0075 13       		.uleb128 0x13
 471 0076 00       		.byte	0
 472 0077 00       		.byte	0
 473 0078 09       		.uleb128 0x9
 474 0079 05       		.uleb128 0x5
 475 007a 00       		.byte	0
 476 007b 03       		.uleb128 0x3
 477 007c 08       		.uleb128 0x8
 478 007d 3A       		.uleb128 0x3a
 479 007e 0B       		.uleb128 0xb
 480 007f 3B       		.uleb128 0x3b
 481 0080 0B       		.uleb128 0xb
 482 0081 49       		.uleb128 0x49
 483 0082 13       		.uleb128 0x13
GAS LISTING C:\Users\PRESID~1\AppData\Local\Temp\cchcYGnu.s 			page 16


 484 0083 02       		.uleb128 0x2
 485 0084 18       		.uleb128 0x18
 486 0085 00       		.byte	0
 487 0086 00       		.byte	0
 488 0087 0A       		.uleb128 0xa
 489 0088 18       		.uleb128 0x18
 490 0089 00       		.byte	0
 491 008a 00       		.byte	0
 492 008b 00       		.byte	0
 493 008c 0B       		.uleb128 0xb
 494 008d 34       		.uleb128 0x34
 495 008e 00       		.byte	0
 496 008f 03       		.uleb128 0x3
 497 0090 08       		.uleb128 0x8
 498 0091 3A       		.uleb128 0x3a
 499 0092 0B       		.uleb128 0xb
 500 0093 3B       		.uleb128 0x3b
 501 0094 0B       		.uleb128 0xb
 502 0095 49       		.uleb128 0x49
 503 0096 13       		.uleb128 0x13
 504 0097 02       		.uleb128 0x2
 505 0098 18       		.uleb128 0x18
 506 0099 00       		.byte	0
 507 009a 00       		.byte	0
 508 009b 0C       		.uleb128 0xc
 509 009c 26       		.uleb128 0x26
 510 009d 00       		.byte	0
 511 009e 49       		.uleb128 0x49
 512 009f 13       		.uleb128 0x13
 513 00a0 00       		.byte	0
 514 00a1 00       		.byte	0
 515 00a2 0D       		.uleb128 0xd
 516 00a3 2E       		.uleb128 0x2e
 517 00a4 01       		.byte	0x1
 518 00a5 3F       		.uleb128 0x3f
 519 00a6 19       		.uleb128 0x19
 520 00a7 03       		.uleb128 0x3
 521 00a8 08       		.uleb128 0x8
 522 00a9 3A       		.uleb128 0x3a
 523 00aa 0B       		.uleb128 0xb
 524 00ab 3B       		.uleb128 0x3b
 525 00ac 0B       		.uleb128 0xb
 526 00ad 27       		.uleb128 0x27
 527 00ae 19       		.uleb128 0x19
 528 00af 49       		.uleb128 0x49
 529 00b0 13       		.uleb128 0x13
 530 00b1 11       		.uleb128 0x11
 531 00b2 01       		.uleb128 0x1
 532 00b3 12       		.uleb128 0x12
 533 00b4 06       		.uleb128 0x6
 534 00b5 40       		.uleb128 0x40
 535 00b6 18       		.uleb128 0x18
 536 00b7 9642     		.uleb128 0x2116
 537 00b9 19       		.uleb128 0x19
 538 00ba 01       		.uleb128 0x1
 539 00bb 13       		.uleb128 0x13
 540 00bc 00       		.byte	0
GAS LISTING C:\Users\PRESID~1\AppData\Local\Temp\cchcYGnu.s 			page 17


 541 00bd 00       		.byte	0
 542 00be 0E       		.uleb128 0xe
 543 00bf 01       		.uleb128 0x1
 544 00c0 01       		.byte	0x1
 545 00c1 49       		.uleb128 0x49
 546 00c2 13       		.uleb128 0x13
 547 00c3 01       		.uleb128 0x1
 548 00c4 13       		.uleb128 0x13
 549 00c5 00       		.byte	0
 550 00c6 00       		.byte	0
 551 00c7 0F       		.uleb128 0xf
 552 00c8 21       		.uleb128 0x21
 553 00c9 00       		.byte	0
 554 00ca 00       		.byte	0
 555 00cb 00       		.byte	0
 556 00cc 10       		.uleb128 0x10
 557 00cd 34       		.uleb128 0x34
 558 00ce 00       		.byte	0
 559 00cf 03       		.uleb128 0x3
 560 00d0 08       		.uleb128 0x8
 561 00d1 3A       		.uleb128 0x3a
 562 00d2 0B       		.uleb128 0xb
 563 00d3 3B       		.uleb128 0x3b
 564 00d4 0B       		.uleb128 0xb
 565 00d5 49       		.uleb128 0x49
 566 00d6 13       		.uleb128 0x13
 567 00d7 3F       		.uleb128 0x3f
 568 00d8 19       		.uleb128 0x19
 569 00d9 3C       		.uleb128 0x3c
 570 00da 19       		.uleb128 0x19
 571 00db 00       		.byte	0
 572 00dc 00       		.byte	0
 573 00dd 00       		.byte	0
 574              		.section	.debug_aranges,"dr"
 575 0000 1C000000 		.long	0x1c
 576 0004 0200     		.word	0x2
 577 0006 00000000 		.secrel32	Ldebug_info0
 578 000a 04       		.byte	0x4
 579 000b 00       		.byte	0
 580 000c 0000     		.word	0
 581 000e 0000     		.word	0
 582 0010 00000000 		.long	Ltext0
 583 0014 DA000000 		.long	Letext0-Ltext0
 584 0018 00000000 		.long	0
 585 001c 00000000 		.long	0
 586              		.section	.debug_macro,"dr"
 587              	Ldebug_macro0:
 588 0000 0400     		.word	0x4
 589 0002 02       		.byte	0x2
 590 0003 00000000 		.secrel32	Ldebug_line0
 591 0007 01       		.byte	0x1
 592 0008 00       		.uleb128 0
 593 0009 5F5F5354 		.ascii "__STDC__ 1\0"
 593      44435F5F 
 593      203100
 594 0014 01       		.byte	0x1
 595 0015 00       		.uleb128 0
GAS LISTING C:\Users\PRESID~1\AppData\Local\Temp\cchcYGnu.s 			page 18


 596 0016 5F5F5354 		.ascii "__STDC_HOSTED__ 1\0"
 596      44435F48 
 596      4F535445 
 596      445F5F20 
 596      3100
 597 0028 01       		.byte	0x1
 598 0029 00       		.uleb128 0
 599 002a 5F5F474E 		.ascii "__GNUC__ 4\0"
 599      55435F5F 
 599      203400
 600 0035 01       		.byte	0x1
 601 0036 00       		.uleb128 0
 602 0037 5F5F474E 		.ascii "__GNUC_MINOR__ 9\0"
 602      55435F4D 
 602      494E4F52 
 602      5F5F2039 
 602      00
 603 0048 01       		.byte	0x1
 604 0049 00       		.uleb128 0
 605 004a 5F5F474E 		.ascii "__GNUC_PATCHLEVEL__ 3\0"
 605      55435F50 
 605      41544348 
 605      4C455645 
 605      4C5F5F20 
 606 0060 01       		.byte	0x1
 607 0061 00       		.uleb128 0
 608 0062 5F5F5645 		.ascii "__VERSION__ \"4.9.3\"\0"
 608      5253494F 
 608      4E5F5F20 
 608      22342E39 
 608      2E332200 
 609 0076 01       		.byte	0x1
 610 0077 00       		.uleb128 0
 611 0078 5F5F4154 		.ascii "__ATOMIC_RELAXED 0\0"
 611      4F4D4943 
 611      5F52454C 
 611      41584544 
 611      203000
 612 008b 01       		.byte	0x1
 613 008c 00       		.uleb128 0
 614 008d 5F5F4154 		.ascii "__ATOMIC_SEQ_CST 5\0"
 614      4F4D4943 
 614      5F534551 
 614      5F435354 
 614      203500
 615 00a0 01       		.byte	0x1
 616 00a1 00       		.uleb128 0
 617 00a2 5F5F4154 		.ascii "__ATOMIC_ACQUIRE 2\0"
 617      4F4D4943 
 617      5F414351 
 617      55495245 
 617      203200
 618 00b5 01       		.byte	0x1
 619 00b6 00       		.uleb128 0
 620 00b7 5F5F4154 		.ascii "__ATOMIC_RELEASE 3\0"
 620      4F4D4943 
 620      5F52454C 
GAS LISTING C:\Users\PRESID~1\AppData\Local\Temp\cchcYGnu.s 			page 19


 620      45415345 
 620      203300
 621 00ca 01       		.byte	0x1
 622 00cb 00       		.uleb128 0
 623 00cc 5F5F4154 		.ascii "__ATOMIC_ACQ_REL 4\0"
 623      4F4D4943 
 623      5F414351 
 623      5F52454C 
 623      203400
 624 00df 01       		.byte	0x1
 625 00e0 00       		.uleb128 0
 626 00e1 5F5F4154 		.ascii "__ATOMIC_CONSUME 1\0"
 626      4F4D4943 
 626      5F434F4E 
 626      53554D45 
 626      203100
 627 00f4 01       		.byte	0x1
 628 00f5 00       		.uleb128 0
 629 00f6 5F5F4649 		.ascii "__FINITE_MATH_ONLY__ 0\0"
 629      4E495445 
 629      5F4D4154 
 629      485F4F4E 
 629      4C595F5F 
 630 010d 01       		.byte	0x1
 631 010e 00       		.uleb128 0
 632 010f 5F5F5349 		.ascii "__SIZEOF_INT__ 4\0"
 632      5A454F46 
 632      5F494E54 
 632      5F5F2034 
 632      00
 633 0120 01       		.byte	0x1
 634 0121 00       		.uleb128 0
 635 0122 5F5F5349 		.ascii "__SIZEOF_LONG__ 4\0"
 635      5A454F46 
 635      5F4C4F4E 
 635      475F5F20 
 635      3400
 636 0134 01       		.byte	0x1
 637 0135 00       		.uleb128 0
 638 0136 5F5F5349 		.ascii "__SIZEOF_LONG_LONG__ 8\0"
 638      5A454F46 
 638      5F4C4F4E 
 638      475F4C4F 
 638      4E475F5F 
 639 014d 01       		.byte	0x1
 640 014e 00       		.uleb128 0
 641 014f 5F5F5349 		.ascii "__SIZEOF_SHORT__ 2\0"
 641      5A454F46 
 641      5F53484F 
 641      52545F5F 
 641      203200
 642 0162 01       		.byte	0x1
 643 0163 00       		.uleb128 0
 644 0164 5F5F5349 		.ascii "__SIZEOF_FLOAT__ 4\0"
 644      5A454F46 
 644      5F464C4F 
 644      41545F5F 
GAS LISTING C:\Users\PRESID~1\AppData\Local\Temp\cchcYGnu.s 			page 20


 644      203400
 645 0177 01       		.byte	0x1
 646 0178 00       		.uleb128 0
 647 0179 5F5F5349 		.ascii "__SIZEOF_DOUBLE__ 8\0"
 647      5A454F46 
 647      5F444F55 
 647      424C455F 
 647      5F203800 
 648 018d 01       		.byte	0x1
 649 018e 00       		.uleb128 0
 650 018f 5F5F5349 		.ascii "__SIZEOF_LONG_DOUBLE__ 12\0"
 650      5A454F46 
 650      5F4C4F4E 
 650      475F444F 
 650      55424C45 
 651 01a9 01       		.byte	0x1
 652 01aa 00       		.uleb128 0
 653 01ab 5F5F5349 		.ascii "__SIZEOF_SIZE_T__ 4\0"
 653      5A454F46 
 653      5F53495A 
 653      455F545F 
 653      5F203400 
 654 01bf 01       		.byte	0x1
 655 01c0 00       		.uleb128 0
 656 01c1 5F5F4348 		.ascii "__CHAR_BIT__ 8\0"
 656      41525F42 
 656      49545F5F 
 656      203800
 657 01d0 01       		.byte	0x1
 658 01d1 00       		.uleb128 0
 659 01d2 5F5F4249 		.ascii "__BIGGEST_ALIGNMENT__ 16\0"
 659      47474553 
 659      545F414C 
 659      49474E4D 
 659      454E545F 
 660 01eb 01       		.byte	0x1
 661 01ec 00       		.uleb128 0
 662 01ed 5F5F4F52 		.ascii "__ORDER_LITTLE_ENDIAN__ 1234\0"
 662      4445525F 
 662      4C495454 
 662      4C455F45 
 662      4E444941 
 663 020a 01       		.byte	0x1
 664 020b 00       		.uleb128 0
 665 020c 5F5F4F52 		.ascii "__ORDER_BIG_ENDIAN__ 4321\0"
 665      4445525F 
 665      4249475F 
 665      454E4449 
 665      414E5F5F 
 666 0226 01       		.byte	0x1
 667 0227 00       		.uleb128 0
 668 0228 5F5F4F52 		.ascii "__ORDER_PDP_ENDIAN__ 3412\0"
 668      4445525F 
 668      5044505F 
 668      454E4449 
 668      414E5F5F 
 669 0242 01       		.byte	0x1
GAS LISTING C:\Users\PRESID~1\AppData\Local\Temp\cchcYGnu.s 			page 21


 670 0243 00       		.uleb128 0
 671 0244 5F5F4259 		.ascii "__BYTE_ORDER__ __ORDER_LITTLE_ENDIAN__\0"
 671      54455F4F 
 671      52444552 
 671      5F5F205F 
 671      5F4F5244 
 672 026b 01       		.byte	0x1
 673 026c 00       		.uleb128 0
 674 026d 5F5F464C 		.ascii "__FLOAT_WORD_ORDER__ __ORDER_LITTLE_ENDIAN__\0"
 674      4F41545F 
 674      574F5244 
 674      5F4F5244 
 674      45525F5F 
 675 029a 01       		.byte	0x1
 676 029b 00       		.uleb128 0
 677 029c 5F5F5349 		.ascii "__SIZEOF_POINTER__ 4\0"
 677      5A454F46 
 677      5F504F49 
 677      4E544552 
 677      5F5F2034 
 678 02b1 01       		.byte	0x1
 679 02b2 00       		.uleb128 0
 680 02b3 5F5F5349 		.ascii "__SIZE_TYPE__ unsigned int\0"
 680      5A455F54 
 680      5950455F 
 680      5F20756E 
 680      7369676E 
 681 02ce 01       		.byte	0x1
 682 02cf 00       		.uleb128 0
 683 02d0 5F5F5054 		.ascii "__PTRDIFF_TYPE__ int\0"
 683      52444946 
 683      465F5459 
 683      50455F5F 
 683      20696E74 
 684 02e5 01       		.byte	0x1
 685 02e6 00       		.uleb128 0
 686 02e7 5F5F5743 		.ascii "__WCHAR_TYPE__ short unsigned int\0"
 686      4841525F 
 686      54595045 
 686      5F5F2073 
 686      686F7274 
 687 0309 01       		.byte	0x1
 688 030a 00       		.uleb128 0
 689 030b 5F5F5749 		.ascii "__WINT_TYPE__ short unsigned int\0"
 689      4E545F54 
 689      5950455F 
 689      5F207368 
 689      6F727420 
 690 032c 01       		.byte	0x1
 691 032d 00       		.uleb128 0
 692 032e 5F5F494E 		.ascii "__INTMAX_TYPE__ long long int\0"
 692      544D4158 
 692      5F545950 
 692      455F5F20 
 692      6C6F6E67 
 693 034c 01       		.byte	0x1
 694 034d 00       		.uleb128 0
GAS LISTING C:\Users\PRESID~1\AppData\Local\Temp\cchcYGnu.s 			page 22


 695 034e 5F5F5549 		.ascii "__UINTMAX_TYPE__ long long unsigned int\0"
 695      4E544D41 
 695      585F5459 
 695      50455F5F 
 695      206C6F6E 
 696 0376 01       		.byte	0x1
 697 0377 00       		.uleb128 0
 698 0378 5F5F4348 		.ascii "__CHAR16_TYPE__ short unsigned int\0"
 698      41523136 
 698      5F545950 
 698      455F5F20 
 698      73686F72 
 699 039b 01       		.byte	0x1
 700 039c 00       		.uleb128 0
 701 039d 5F5F4348 		.ascii "__CHAR32_TYPE__ unsigned int\0"
 701      41523332 
 701      5F545950 
 701      455F5F20 
 701      756E7369 
 702 03ba 01       		.byte	0x1
 703 03bb 00       		.uleb128 0
 704 03bc 5F5F5349 		.ascii "__SIG_ATOMIC_TYPE__ int\0"
 704      475F4154 
 704      4F4D4943 
 704      5F545950 
 704      455F5F20 
 705 03d4 01       		.byte	0x1
 706 03d5 00       		.uleb128 0
 707 03d6 5F5F494E 		.ascii "__INT8_TYPE__ signed char\0"
 707      54385F54 
 707      5950455F 
 707      5F207369 
 707      676E6564 
 708 03f0 01       		.byte	0x1
 709 03f1 00       		.uleb128 0
 710 03f2 5F5F494E 		.ascii "__INT16_TYPE__ short int\0"
 710      5431365F 
 710      54595045 
 710      5F5F2073 
 710      686F7274 
 711 040b 01       		.byte	0x1
 712 040c 00       		.uleb128 0
 713 040d 5F5F494E 		.ascii "__INT32_TYPE__ int\0"
 713      5433325F 
 713      54595045 
 713      5F5F2069 
 713      6E7400
 714 0420 01       		.byte	0x1
 715 0421 00       		.uleb128 0
 716 0422 5F5F494E 		.ascii "__INT64_TYPE__ long long int\0"
 716      5436345F 
 716      54595045 
 716      5F5F206C 
 716      6F6E6720 
 717 043f 01       		.byte	0x1
 718 0440 00       		.uleb128 0
 719 0441 5F5F5549 		.ascii "__UINT8_TYPE__ unsigned char\0"
GAS LISTING C:\Users\PRESID~1\AppData\Local\Temp\cchcYGnu.s 			page 23


 719      4E54385F 
 719      54595045 
 719      5F5F2075 
 719      6E736967 
 720 045e 01       		.byte	0x1
 721 045f 00       		.uleb128 0
 722 0460 5F5F5549 		.ascii "__UINT16_TYPE__ short unsigned int\0"
 722      4E543136 
 722      5F545950 
 722      455F5F20 
 722      73686F72 
 723 0483 01       		.byte	0x1
 724 0484 00       		.uleb128 0
 725 0485 5F5F5549 		.ascii "__UINT32_TYPE__ unsigned int\0"
 725      4E543332 
 725      5F545950 
 725      455F5F20 
 725      756E7369 
 726 04a2 01       		.byte	0x1
 727 04a3 00       		.uleb128 0
 728 04a4 5F5F5549 		.ascii "__UINT64_TYPE__ long long unsigned int\0"
 728      4E543634 
 728      5F545950 
 728      455F5F20 
 728      6C6F6E67 
 729 04cb 01       		.byte	0x1
 730 04cc 00       		.uleb128 0
 731 04cd 5F5F494E 		.ascii "__INT_LEAST8_TYPE__ signed char\0"
 731      545F4C45 
 731      41535438 
 731      5F545950 
 731      455F5F20 
 732 04ed 01       		.byte	0x1
 733 04ee 00       		.uleb128 0
 734 04ef 5F5F494E 		.ascii "__INT_LEAST16_TYPE__ short int\0"
 734      545F4C45 
 734      41535431 
 734      365F5459 
 734      50455F5F 
 735 050e 01       		.byte	0x1
 736 050f 00       		.uleb128 0
 737 0510 5F5F494E 		.ascii "__INT_LEAST32_TYPE__ int\0"
 737      545F4C45 
 737      41535433 
 737      325F5459 
 737      50455F5F 
 738 0529 01       		.byte	0x1
 739 052a 00       		.uleb128 0
 740 052b 5F5F494E 		.ascii "__INT_LEAST64_TYPE__ long long int\0"
 740      545F4C45 
 740      41535436 
 740      345F5459 
 740      50455F5F 
 741 054e 01       		.byte	0x1
 742 054f 00       		.uleb128 0
 743 0550 5F5F5549 		.ascii "__UINT_LEAST8_TYPE__ unsigned char\0"
 743      4E545F4C 
GAS LISTING C:\Users\PRESID~1\AppData\Local\Temp\cchcYGnu.s 			page 24


 743      45415354 
 743      385F5459 
 743      50455F5F 
 744 0573 01       		.byte	0x1
 745 0574 00       		.uleb128 0
 746 0575 5F5F5549 		.ascii "__UINT_LEAST16_TYPE__ short unsigned int\0"
 746      4E545F4C 
 746      45415354 
 746      31365F54 
 746      5950455F 
 747 059e 01       		.byte	0x1
 748 059f 00       		.uleb128 0
 749 05a0 5F5F5549 		.ascii "__UINT_LEAST32_TYPE__ unsigned int\0"
 749      4E545F4C 
 749      45415354 
 749      33325F54 
 749      5950455F 
 750 05c3 01       		.byte	0x1
 751 05c4 00       		.uleb128 0
 752 05c5 5F5F5549 		.ascii "__UINT_LEAST64_TYPE__ long long unsigned int\0"
 752      4E545F4C 
 752      45415354 
 752      36345F54 
 752      5950455F 
 753 05f2 01       		.byte	0x1
 754 05f3 00       		.uleb128 0
 755 05f4 5F5F494E 		.ascii "__INT_FAST8_TYPE__ signed char\0"
 755      545F4641 
 755      5354385F 
 755      54595045 
 755      5F5F2073 
 756 0613 01       		.byte	0x1
 757 0614 00       		.uleb128 0
 758 0615 5F5F494E 		.ascii "__INT_FAST16_TYPE__ short int\0"
 758      545F4641 
 758      53543136 
 758      5F545950 
 758      455F5F20 
 759 0633 01       		.byte	0x1
 760 0634 00       		.uleb128 0
 761 0635 5F5F494E 		.ascii "__INT_FAST32_TYPE__ int\0"
 761      545F4641 
 761      53543332 
 761      5F545950 
 761      455F5F20 
 762 064d 01       		.byte	0x1
 763 064e 00       		.uleb128 0
 764 064f 5F5F494E 		.ascii "__INT_FAST64_TYPE__ long long int\0"
 764      545F4641 
 764      53543634 
 764      5F545950 
 764      455F5F20 
 765 0671 01       		.byte	0x1
 766 0672 00       		.uleb128 0
 767 0673 5F5F5549 		.ascii "__UINT_FAST8_TYPE__ unsigned char\0"
 767      4E545F46 
 767      41535438 
GAS LISTING C:\Users\PRESID~1\AppData\Local\Temp\cchcYGnu.s 			page 25


 767      5F545950 
 767      455F5F20 
 768 0695 01       		.byte	0x1
 769 0696 00       		.uleb128 0
 770 0697 5F5F5549 		.ascii "__UINT_FAST16_TYPE__ short unsigned int\0"
 770      4E545F46 
 770      41535431 
 770      365F5459 
 770      50455F5F 
 771 06bf 01       		.byte	0x1
 772 06c0 00       		.uleb128 0
 773 06c1 5F5F5549 		.ascii "__UINT_FAST32_TYPE__ unsigned int\0"
 773      4E545F46 
 773      41535433 
 773      325F5459 
 773      50455F5F 
 774 06e3 01       		.byte	0x1
 775 06e4 00       		.uleb128 0
 776 06e5 5F5F5549 		.ascii "__UINT_FAST64_TYPE__ long long unsigned int\0"
 776      4E545F46 
 776      41535436 
 776      345F5459 
 776      50455F5F 
 777 0711 01       		.byte	0x1
 778 0712 00       		.uleb128 0
 779 0713 5F5F494E 		.ascii "__INTPTR_TYPE__ int\0"
 779      54505452 
 779      5F545950 
 779      455F5F20 
 779      696E7400 
 780 0727 01       		.byte	0x1
 781 0728 00       		.uleb128 0
 782 0729 5F5F5549 		.ascii "__UINTPTR_TYPE__ unsigned int\0"
 782      4E545054 
 782      525F5459 
 782      50455F5F 
 782      20756E73 
 783 0747 01       		.byte	0x1
 784 0748 00       		.uleb128 0
 785 0749 5F5F6861 		.ascii "__has_include(STR) __has_include__(STR)\0"
 785      735F696E 
 785      636C7564 
 785      65285354 
 785      5229205F 
 786 0771 01       		.byte	0x1
 787 0772 00       		.uleb128 0
 788 0773 5F5F6861 		.ascii "__has_include_next(STR) __has_include_next__(STR)\0"
 788      735F696E 
 788      636C7564 
 788      655F6E65 
 788      78742853 
 789 07a5 01       		.byte	0x1
 790 07a6 00       		.uleb128 0
 791 07a7 5F5F4758 		.ascii "__GXX_ABI_VERSION 1002\0"
 791      585F4142 
 791      495F5645 
 791      5253494F 
GAS LISTING C:\Users\PRESID~1\AppData\Local\Temp\cchcYGnu.s 			page 26


 791      4E203130 
 792 07be 01       		.byte	0x1
 793 07bf 00       		.uleb128 0
 794 07c0 5F5F5343 		.ascii "__SCHAR_MAX__ 127\0"
 794      4841525F 
 794      4D41585F 
 794      5F203132 
 794      3700
 795 07d2 01       		.byte	0x1
 796 07d3 00       		.uleb128 0
 797 07d4 5F5F5348 		.ascii "__SHRT_MAX__ 32767\0"
 797      52545F4D 
 797      41585F5F 
 797      20333237 
 797      363700
 798 07e7 01       		.byte	0x1
 799 07e8 00       		.uleb128 0
 800 07e9 5F5F494E 		.ascii "__INT_MAX__ 2147483647\0"
 800      545F4D41 
 800      585F5F20 
 800      32313437 
 800      34383336 
 801 0800 01       		.byte	0x1
 802 0801 00       		.uleb128 0
 803 0802 5F5F4C4F 		.ascii "__LONG_MAX__ 2147483647L\0"
 803      4E475F4D 
 803      41585F5F 
 803      20323134 
 803      37343833 
 804 081b 01       		.byte	0x1
 805 081c 00       		.uleb128 0
 806 081d 5F5F4C4F 		.ascii "__LONG_LONG_MAX__ 9223372036854775807LL\0"
 806      4E475F4C 
 806      4F4E475F 
 806      4D41585F 
 806      5F203932 
 807 0845 01       		.byte	0x1
 808 0846 00       		.uleb128 0
 809 0847 5F5F5743 		.ascii "__WCHAR_MAX__ 65535\0"
 809      4841525F 
 809      4D41585F 
 809      5F203635 
 809      35333500 
 810 085b 01       		.byte	0x1
 811 085c 00       		.uleb128 0
 812 085d 5F5F5743 		.ascii "__WCHAR_MIN__ 0\0"
 812      4841525F 
 812      4D494E5F 
 812      5F203000 
 813 086d 01       		.byte	0x1
 814 086e 00       		.uleb128 0
 815 086f 5F5F5749 		.ascii "__WINT_MAX__ 65535\0"
 815      4E545F4D 
 815      41585F5F 
 815      20363535 
 815      333500
 816 0882 01       		.byte	0x1
GAS LISTING C:\Users\PRESID~1\AppData\Local\Temp\cchcYGnu.s 			page 27


 817 0883 00       		.uleb128 0
 818 0884 5F5F5749 		.ascii "__WINT_MIN__ 0\0"
 818      4E545F4D 
 818      494E5F5F 
 818      203000
 819 0893 01       		.byte	0x1
 820 0894 00       		.uleb128 0
 821 0895 5F5F5054 		.ascii "__PTRDIFF_MAX__ 2147483647\0"
 821      52444946 
 821      465F4D41 
 821      585F5F20 
 821      32313437 
 822 08b0 01       		.byte	0x1
 823 08b1 00       		.uleb128 0
 824 08b2 5F5F5349 		.ascii "__SIZE_MAX__ 4294967295U\0"
 824      5A455F4D 
 824      41585F5F 
 824      20343239 
 824      34393637 
 825 08cb 01       		.byte	0x1
 826 08cc 00       		.uleb128 0
 827 08cd 5F5F494E 		.ascii "__INTMAX_MAX__ 9223372036854775807LL\0"
 827      544D4158 
 827      5F4D4158 
 827      5F5F2039 
 827      32323333 
 828 08f2 01       		.byte	0x1
 829 08f3 00       		.uleb128 0
 830 08f4 5F5F494E 		.ascii "__INTMAX_C(c) c ## LL\0"
 830      544D4158 
 830      5F432863 
 830      29206320 
 830      2323204C 
 831 090a 01       		.byte	0x1
 832 090b 00       		.uleb128 0
 833 090c 5F5F5549 		.ascii "__UINTMAX_MAX__ 18446744073709551615ULL\0"
 833      4E544D41 
 833      585F4D41 
 833      585F5F20 
 833      31383434 
 834 0934 01       		.byte	0x1
 835 0935 00       		.uleb128 0
 836 0936 5F5F5549 		.ascii "__UINTMAX_C(c) c ## ULL\0"
 836      4E544D41 
 836      585F4328 
 836      63292063 
 836      20232320 
 837 094e 01       		.byte	0x1
 838 094f 00       		.uleb128 0
 839 0950 5F5F5349 		.ascii "__SIG_ATOMIC_MAX__ 2147483647\0"
 839      475F4154 
 839      4F4D4943 
 839      5F4D4158 
 839      5F5F2032 
 840 096e 01       		.byte	0x1
 841 096f 00       		.uleb128 0
 842 0970 5F5F5349 		.ascii "__SIG_ATOMIC_MIN__ (-__SIG_ATOMIC_MAX__ - 1)\0"
GAS LISTING C:\Users\PRESID~1\AppData\Local\Temp\cchcYGnu.s 			page 28


 842      475F4154 
 842      4F4D4943 
 842      5F4D494E 
 842      5F5F2028 
 843 099d 01       		.byte	0x1
 844 099e 00       		.uleb128 0
 845 099f 5F5F494E 		.ascii "__INT8_MAX__ 127\0"
 845      54385F4D 
 845      41585F5F 
 845      20313237 
 845      00
 846 09b0 01       		.byte	0x1
 847 09b1 00       		.uleb128 0
 848 09b2 5F5F494E 		.ascii "__INT16_MAX__ 32767\0"
 848      5431365F 
 848      4D41585F 
 848      5F203332 
 848      37363700 
 849 09c6 01       		.byte	0x1
 850 09c7 00       		.uleb128 0
 851 09c8 5F5F494E 		.ascii "__INT32_MAX__ 2147483647\0"
 851      5433325F 
 851      4D41585F 
 851      5F203231 
 851      34373438 
 852 09e1 01       		.byte	0x1
 853 09e2 00       		.uleb128 0
 854 09e3 5F5F494E 		.ascii "__INT64_MAX__ 9223372036854775807LL\0"
 854      5436345F 
 854      4D41585F 
 854      5F203932 
 854      32333337 
 855 0a07 01       		.byte	0x1
 856 0a08 00       		.uleb128 0
 857 0a09 5F5F5549 		.ascii "__UINT8_MAX__ 255\0"
 857      4E54385F 
 857      4D41585F 
 857      5F203235 
 857      3500
 858 0a1b 01       		.byte	0x1
 859 0a1c 00       		.uleb128 0
 860 0a1d 5F5F5549 		.ascii "__UINT16_MAX__ 65535\0"
 860      4E543136 
 860      5F4D4158 
 860      5F5F2036 
 860      35353335 
 861 0a32 01       		.byte	0x1
 862 0a33 00       		.uleb128 0
 863 0a34 5F5F5549 		.ascii "__UINT32_MAX__ 4294967295U\0"
 863      4E543332 
 863      5F4D4158 
 863      5F5F2034 
 863      32393439 
 864 0a4f 01       		.byte	0x1
 865 0a50 00       		.uleb128 0
 866 0a51 5F5F5549 		.ascii "__UINT64_MAX__ 18446744073709551615ULL\0"
 866      4E543634 
GAS LISTING C:\Users\PRESID~1\AppData\Local\Temp\cchcYGnu.s 			page 29


 866      5F4D4158 
 866      5F5F2031 
 866      38343436 
 867 0a78 01       		.byte	0x1
 868 0a79 00       		.uleb128 0
 869 0a7a 5F5F494E 		.ascii "__INT_LEAST8_MAX__ 127\0"
 869      545F4C45 
 869      41535438 
 869      5F4D4158 
 869      5F5F2031 
 870 0a91 01       		.byte	0x1
 871 0a92 00       		.uleb128 0
 872 0a93 5F5F494E 		.ascii "__INT8_C(c) c\0"
 872      54385F43 
 872      28632920 
 872      6300
 873 0aa1 01       		.byte	0x1
 874 0aa2 00       		.uleb128 0
 875 0aa3 5F5F494E 		.ascii "__INT_LEAST16_MAX__ 32767\0"
 875      545F4C45 
 875      41535431 
 875      365F4D41 
 875      585F5F20 
 876 0abd 01       		.byte	0x1
 877 0abe 00       		.uleb128 0
 878 0abf 5F5F494E 		.ascii "__INT16_C(c) c\0"
 878      5431365F 
 878      43286329 
 878      206300
 879 0ace 01       		.byte	0x1
 880 0acf 00       		.uleb128 0
 881 0ad0 5F5F494E 		.ascii "__INT_LEAST32_MAX__ 2147483647\0"
 881      545F4C45 
 881      41535433 
 881      325F4D41 
 881      585F5F20 
 882 0aef 01       		.byte	0x1
 883 0af0 00       		.uleb128 0
 884 0af1 5F5F494E 		.ascii "__INT32_C(c) c\0"
 884      5433325F 
 884      43286329 
 884      206300
 885 0b00 01       		.byte	0x1
 886 0b01 00       		.uleb128 0
 887 0b02 5F5F494E 		.ascii "__INT_LEAST64_MAX__ 9223372036854775807LL\0"
 887      545F4C45 
 887      41535436 
 887      345F4D41 
 887      585F5F20 
 888 0b2c 01       		.byte	0x1
 889 0b2d 00       		.uleb128 0
 890 0b2e 5F5F494E 		.ascii "__INT64_C(c) c ## LL\0"
 890      5436345F 
 890      43286329 
 890      20632023 
 890      23204C4C 
 891 0b43 01       		.byte	0x1
GAS LISTING C:\Users\PRESID~1\AppData\Local\Temp\cchcYGnu.s 			page 30


 892 0b44 00       		.uleb128 0
 893 0b45 5F5F5549 		.ascii "__UINT_LEAST8_MAX__ 255\0"
 893      4E545F4C 
 893      45415354 
 893      385F4D41 
 893      585F5F20 
 894 0b5d 01       		.byte	0x1
 895 0b5e 00       		.uleb128 0
 896 0b5f 5F5F5549 		.ascii "__UINT8_C(c) c\0"
 896      4E54385F 
 896      43286329 
 896      206300
 897 0b6e 01       		.byte	0x1
 898 0b6f 00       		.uleb128 0
 899 0b70 5F5F5549 		.ascii "__UINT_LEAST16_MAX__ 65535\0"
 899      4E545F4C 
 899      45415354 
 899      31365F4D 
 899      41585F5F 
 900 0b8b 01       		.byte	0x1
 901 0b8c 00       		.uleb128 0
 902 0b8d 5F5F5549 		.ascii "__UINT16_C(c) c\0"
 902      4E543136 
 902      5F432863 
 902      29206300 
 903 0b9d 01       		.byte	0x1
 904 0b9e 00       		.uleb128 0
 905 0b9f 5F5F5549 		.ascii "__UINT_LEAST32_MAX__ 4294967295U\0"
 905      4E545F4C 
 905      45415354 
 905      33325F4D 
 905      41585F5F 
 906 0bc0 01       		.byte	0x1
 907 0bc1 00       		.uleb128 0
 908 0bc2 5F5F5549 		.ascii "__UINT32_C(c) c ## U\0"
 908      4E543332 
 908      5F432863 
 908      29206320 
 908      23232055 
 909 0bd7 01       		.byte	0x1
 910 0bd8 00       		.uleb128 0
 911 0bd9 5F5F5549 		.ascii "__UINT_LEAST64_MAX__ 18446744073709551615ULL\0"
 911      4E545F4C 
 911      45415354 
 911      36345F4D 
 911      41585F5F 
 912 0c06 01       		.byte	0x1
 913 0c07 00       		.uleb128 0
 914 0c08 5F5F5549 		.ascii "__UINT64_C(c) c ## ULL\0"
 914      4E543634 
 914      5F432863 
 914      29206320 
 914      23232055 
 915 0c1f 01       		.byte	0x1
 916 0c20 00       		.uleb128 0
 917 0c21 5F5F494E 		.ascii "__INT_FAST8_MAX__ 127\0"
 917      545F4641 
GAS LISTING C:\Users\PRESID~1\AppData\Local\Temp\cchcYGnu.s 			page 31


 917      5354385F 
 917      4D41585F 
 917      5F203132 
 918 0c37 01       		.byte	0x1
 919 0c38 00       		.uleb128 0
 920 0c39 5F5F494E 		.ascii "__INT_FAST16_MAX__ 32767\0"
 920      545F4641 
 920      53543136 
 920      5F4D4158 
 920      5F5F2033 
 921 0c52 01       		.byte	0x1
 922 0c53 00       		.uleb128 0
 923 0c54 5F5F494E 		.ascii "__INT_FAST32_MAX__ 2147483647\0"
 923      545F4641 
 923      53543332 
 923      5F4D4158 
 923      5F5F2032 
 924 0c72 01       		.byte	0x1
 925 0c73 00       		.uleb128 0
 926 0c74 5F5F494E 		.ascii "__INT_FAST64_MAX__ 9223372036854775807LL\0"
 926      545F4641 
 926      53543634 
 926      5F4D4158 
 926      5F5F2039 
 927 0c9d 01       		.byte	0x1
 928 0c9e 00       		.uleb128 0
 929 0c9f 5F5F5549 		.ascii "__UINT_FAST8_MAX__ 255\0"
 929      4E545F46 
 929      41535438 
 929      5F4D4158 
 929      5F5F2032 
 930 0cb6 01       		.byte	0x1
 931 0cb7 00       		.uleb128 0
 932 0cb8 5F5F5549 		.ascii "__UINT_FAST16_MAX__ 65535\0"
 932      4E545F46 
 932      41535431 
 932      365F4D41 
 932      585F5F20 
 933 0cd2 01       		.byte	0x1
 934 0cd3 00       		.uleb128 0
 935 0cd4 5F5F5549 		.ascii "__UINT_FAST32_MAX__ 4294967295U\0"
 935      4E545F46 
 935      41535433 
 935      325F4D41 
 935      585F5F20 
 936 0cf4 01       		.byte	0x1
 937 0cf5 00       		.uleb128 0
 938 0cf6 5F5F5549 		.ascii "__UINT_FAST64_MAX__ 18446744073709551615ULL\0"
 938      4E545F46 
 938      41535436 
 938      345F4D41 
 938      585F5F20 
 939 0d22 01       		.byte	0x1
 940 0d23 00       		.uleb128 0
 941 0d24 5F5F494E 		.ascii "__INTPTR_MAX__ 2147483647\0"
 941      54505452 
 941      5F4D4158 
GAS LISTING C:\Users\PRESID~1\AppData\Local\Temp\cchcYGnu.s 			page 32


 941      5F5F2032 
 941      31343734 
 942 0d3e 01       		.byte	0x1
 943 0d3f 00       		.uleb128 0
 944 0d40 5F5F5549 		.ascii "__UINTPTR_MAX__ 4294967295U\0"
 944      4E545054 
 944      525F4D41 
 944      585F5F20 
 944      34323934 
 945 0d5c 01       		.byte	0x1
 946 0d5d 00       		.uleb128 0
 947 0d5e 5F5F4743 		.ascii "__GCC_IEC_559 2\0"
 947      435F4945 
 947      435F3535 
 947      39203200 
 948 0d6e 01       		.byte	0x1
 949 0d6f 00       		.uleb128 0
 950 0d70 5F5F4743 		.ascii "__GCC_IEC_559_COMPLEX 2\0"
 950      435F4945 
 950      435F3535 
 950      395F434F 
 950      4D504C45 
 951 0d88 01       		.byte	0x1
 952 0d89 00       		.uleb128 0
 953 0d8a 5F5F464C 		.ascii "__FLT_EVAL_METHOD__ 2\0"
 953      545F4556 
 953      414C5F4D 
 953      4554484F 
 953      445F5F20 
 954 0da0 01       		.byte	0x1
 955 0da1 00       		.uleb128 0
 956 0da2 5F5F4445 		.ascii "__DEC_EVAL_METHOD__ 2\0"
 956      435F4556 
 956      414C5F4D 
 956      4554484F 
 956      445F5F20 
 957 0db8 01       		.byte	0x1
 958 0db9 00       		.uleb128 0
 959 0dba 5F5F464C 		.ascii "__FLT_RADIX__ 2\0"
 959      545F5241 
 959      4449585F 
 959      5F203200 
 960 0dca 01       		.byte	0x1
 961 0dcb 00       		.uleb128 0
 962 0dcc 5F5F464C 		.ascii "__FLT_MANT_DIG__ 24\0"
 962      545F4D41 
 962      4E545F44 
 962      49475F5F 
 962      20323400 
 963 0de0 01       		.byte	0x1
 964 0de1 00       		.uleb128 0
 965 0de2 5F5F464C 		.ascii "__FLT_DIG__ 6\0"
 965      545F4449 
 965      475F5F20 
 965      3600
 966 0df0 01       		.byte	0x1
 967 0df1 00       		.uleb128 0
GAS LISTING C:\Users\PRESID~1\AppData\Local\Temp\cchcYGnu.s 			page 33


 968 0df2 5F5F464C 		.ascii "__FLT_MIN_EXP__ (-125)\0"
 968      545F4D49 
 968      4E5F4558 
 968      505F5F20 
 968      282D3132 
 969 0e09 01       		.byte	0x1
 970 0e0a 00       		.uleb128 0
 971 0e0b 5F5F464C 		.ascii "__FLT_MIN_10_EXP__ (-37)\0"
 971      545F4D49 
 971      4E5F3130 
 971      5F455850 
 971      5F5F2028 
 972 0e24 01       		.byte	0x1
 973 0e25 00       		.uleb128 0
 974 0e26 5F5F464C 		.ascii "__FLT_MAX_EXP__ 128\0"
 974      545F4D41 
 974      585F4558 
 974      505F5F20 
 974      31323800 
 975 0e3a 01       		.byte	0x1
 976 0e3b 00       		.uleb128 0
 977 0e3c 5F5F464C 		.ascii "__FLT_MAX_10_EXP__ 38\0"
 977      545F4D41 
 977      585F3130 
 977      5F455850 
 977      5F5F2033 
 978 0e52 01       		.byte	0x1
 979 0e53 00       		.uleb128 0
 980 0e54 5F5F464C 		.ascii "__FLT_DECIMAL_DIG__ 9\0"
 980      545F4445 
 980      43494D41 
 980      4C5F4449 
 980      475F5F20 
 981 0e6a 01       		.byte	0x1
 982 0e6b 00       		.uleb128 0
 983 0e6c 5F5F464C 		.ascii "__FLT_MAX__ 3.40282346638528859812e+38F\0"
 983      545F4D41 
 983      585F5F20 
 983      332E3430 
 983      32383233 
 984 0e94 01       		.byte	0x1
 985 0e95 00       		.uleb128 0
 986 0e96 5F5F464C 		.ascii "__FLT_MIN__ 1.17549435082228750797e-38F\0"
 986      545F4D49 
 986      4E5F5F20 
 986      312E3137 
 986      35343934 
 987 0ebe 01       		.byte	0x1
 988 0ebf 00       		.uleb128 0
 989 0ec0 5F5F464C 		.ascii "__FLT_EPSILON__ 1.19209289550781250000e-7F\0"
 989      545F4550 
 989      53494C4F 
 989      4E5F5F20 
 989      312E3139 
 990 0eeb 01       		.byte	0x1
 991 0eec 00       		.uleb128 0
 992 0eed 5F5F464C 		.ascii "__FLT_DENORM_MIN__ 1.40129846432481707092e-45F\0"
GAS LISTING C:\Users\PRESID~1\AppData\Local\Temp\cchcYGnu.s 			page 34


 992      545F4445 
 992      4E4F524D 
 992      5F4D494E 
 992      5F5F2031 
 993 0f1c 01       		.byte	0x1
 994 0f1d 00       		.uleb128 0
 995 0f1e 5F5F464C 		.ascii "__FLT_HAS_DENORM__ 1\0"
 995      545F4841 
 995      535F4445 
 995      4E4F524D 
 995      5F5F2031 
 996 0f33 01       		.byte	0x1
 997 0f34 00       		.uleb128 0
 998 0f35 5F5F464C 		.ascii "__FLT_HAS_INFINITY__ 1\0"
 998      545F4841 
 998      535F494E 
 998      46494E49 
 998      54595F5F 
 999 0f4c 01       		.byte	0x1
 1000 0f4d 00       		.uleb128 0
 1001 0f4e 5F5F464C 		.ascii "__FLT_HAS_QUIET_NAN__ 1\0"
 1001      545F4841 
 1001      535F5155 
 1001      4945545F 
 1001      4E414E5F 
 1002 0f66 01       		.byte	0x1
 1003 0f67 00       		.uleb128 0
 1004 0f68 5F5F4442 		.ascii "__DBL_MANT_DIG__ 53\0"
 1004      4C5F4D41 
 1004      4E545F44 
 1004      49475F5F 
 1004      20353300 
 1005 0f7c 01       		.byte	0x1
 1006 0f7d 00       		.uleb128 0
 1007 0f7e 5F5F4442 		.ascii "__DBL_DIG__ 15\0"
 1007      4C5F4449 
 1007      475F5F20 
 1007      313500
 1008 0f8d 01       		.byte	0x1
 1009 0f8e 00       		.uleb128 0
 1010 0f8f 5F5F4442 		.ascii "__DBL_MIN_EXP__ (-1021)\0"
 1010      4C5F4D49 
 1010      4E5F4558 
 1010      505F5F20 
 1010      282D3130 
 1011 0fa7 01       		.byte	0x1
 1012 0fa8 00       		.uleb128 0
 1013 0fa9 5F5F4442 		.ascii "__DBL_MIN_10_EXP__ (-307)\0"
 1013      4C5F4D49 
 1013      4E5F3130 
 1013      5F455850 
 1013      5F5F2028 
 1014 0fc3 01       		.byte	0x1
 1015 0fc4 00       		.uleb128 0
 1016 0fc5 5F5F4442 		.ascii "__DBL_MAX_EXP__ 1024\0"
 1016      4C5F4D41 
 1016      585F4558 
GAS LISTING C:\Users\PRESID~1\AppData\Local\Temp\cchcYGnu.s 			page 35


 1016      505F5F20 
 1016      31303234 
 1017 0fda 01       		.byte	0x1
 1018 0fdb 00       		.uleb128 0
 1019 0fdc 5F5F4442 		.ascii "__DBL_MAX_10_EXP__ 308\0"
 1019      4C5F4D41 
 1019      585F3130 
 1019      5F455850 
 1019      5F5F2033 
 1020 0ff3 01       		.byte	0x1
 1021 0ff4 00       		.uleb128 0
 1022 0ff5 5F5F4442 		.ascii "__DBL_DECIMAL_DIG__ 17\0"
 1022      4C5F4445 
 1022      43494D41 
 1022      4C5F4449 
 1022      475F5F20 
 1023 100c 01       		.byte	0x1
 1024 100d 00       		.uleb128 0
 1025 100e 5F5F4442 		.ascii "__DBL_MAX__ ((double)1.79769313486231570815e+308L)\0"
 1025      4C5F4D41 
 1025      585F5F20 
 1025      2828646F 
 1025      75626C65 
 1026 1041 01       		.byte	0x1
 1027 1042 00       		.uleb128 0
 1028 1043 5F5F4442 		.ascii "__DBL_MIN__ ((double)2.22507385850720138309e-308L)\0"
 1028      4C5F4D49 
 1028      4E5F5F20 
 1028      2828646F 
 1028      75626C65 
 1029 1076 01       		.byte	0x1
 1030 1077 00       		.uleb128 0
 1031 1078 5F5F4442 		.ascii "__DBL_EPSILON__ ((double)2.22044604925031308085e-16L)\0"
 1031      4C5F4550 
 1031      53494C4F 
 1031      4E5F5F20 
 1031      2828646F 
 1032 10ae 01       		.byte	0x1
 1033 10af 00       		.uleb128 0
 1034 10b0 5F5F4442 		.ascii "__DBL_DENORM_MIN__ ((double)4.94065645841246544177e-324L)\0"
 1034      4C5F4445 
 1034      4E4F524D 
 1034      5F4D494E 
 1034      5F5F2028 
 1035 10ea 01       		.byte	0x1
 1036 10eb 00       		.uleb128 0
 1037 10ec 5F5F4442 		.ascii "__DBL_HAS_DENORM__ 1\0"
 1037      4C5F4841 
 1037      535F4445 
 1037      4E4F524D 
 1037      5F5F2031 
 1038 1101 01       		.byte	0x1
 1039 1102 00       		.uleb128 0
 1040 1103 5F5F4442 		.ascii "__DBL_HAS_INFINITY__ 1\0"
 1040      4C5F4841 
 1040      535F494E 
 1040      46494E49 
GAS LISTING C:\Users\PRESID~1\AppData\Local\Temp\cchcYGnu.s 			page 36


 1040      54595F5F 
 1041 111a 01       		.byte	0x1
 1042 111b 00       		.uleb128 0
 1043 111c 5F5F4442 		.ascii "__DBL_HAS_QUIET_NAN__ 1\0"
 1043      4C5F4841 
 1043      535F5155 
 1043      4945545F 
 1043      4E414E5F 
 1044 1134 01       		.byte	0x1
 1045 1135 00       		.uleb128 0
 1046 1136 5F5F4C44 		.ascii "__LDBL_MANT_DIG__ 64\0"
 1046      424C5F4D 
 1046      414E545F 
 1046      4449475F 
 1046      5F203634 
 1047 114b 01       		.byte	0x1
 1048 114c 00       		.uleb128 0
 1049 114d 5F5F4C44 		.ascii "__LDBL_DIG__ 18\0"
 1049      424C5F44 
 1049      49475F5F 
 1049      20313800 
 1050 115d 01       		.byte	0x1
 1051 115e 00       		.uleb128 0
 1052 115f 5F5F4C44 		.ascii "__LDBL_MIN_EXP__ (-16381)\0"
 1052      424C5F4D 
 1052      494E5F45 
 1052      58505F5F 
 1052      20282D31 
 1053 1179 01       		.byte	0x1
 1054 117a 00       		.uleb128 0
 1055 117b 5F5F4C44 		.ascii "__LDBL_MIN_10_EXP__ (-4931)\0"
 1055      424C5F4D 
 1055      494E5F31 
 1055      305F4558 
 1055      505F5F20 
 1056 1197 01       		.byte	0x1
 1057 1198 00       		.uleb128 0
 1058 1199 5F5F4C44 		.ascii "__LDBL_MAX_EXP__ 16384\0"
 1058      424C5F4D 
 1058      41585F45 
 1058      58505F5F 
 1058      20313633 
 1059 11b0 01       		.byte	0x1
 1060 11b1 00       		.uleb128 0
 1061 11b2 5F5F4C44 		.ascii "__LDBL_MAX_10_EXP__ 4932\0"
 1061      424C5F4D 
 1061      41585F31 
 1061      305F4558 
 1061      505F5F20 
 1062 11cb 01       		.byte	0x1
 1063 11cc 00       		.uleb128 0
 1064 11cd 5F5F4445 		.ascii "__DECIMAL_DIG__ 21\0"
 1064      43494D41 
 1064      4C5F4449 
 1064      475F5F20 
 1064      323100
 1065 11e0 01       		.byte	0x1
GAS LISTING C:\Users\PRESID~1\AppData\Local\Temp\cchcYGnu.s 			page 37


 1066 11e1 00       		.uleb128 0
 1067 11e2 5F5F4C44 		.ascii "__LDBL_MAX__ 1.18973149535723176502e+4932L\0"
 1067      424C5F4D 
 1067      41585F5F 
 1067      20312E31 
 1067      38393733 
 1068 120d 01       		.byte	0x1
 1069 120e 00       		.uleb128 0
 1070 120f 5F5F4C44 		.ascii "__LDBL_MIN__ 3.36210314311209350626e-4932L\0"
 1070      424C5F4D 
 1070      494E5F5F 
 1070      20332E33 
 1070      36323130 
 1071 123a 01       		.byte	0x1
 1072 123b 00       		.uleb128 0
 1073 123c 5F5F4C44 		.ascii "__LDBL_EPSILON__ 1.08420217248550443401e-19L\0"
 1073      424C5F45 
 1073      5053494C 
 1073      4F4E5F5F 
 1073      20312E30 
 1074 1269 01       		.byte	0x1
 1075 126a 00       		.uleb128 0
 1076 126b 5F5F4C44 		.ascii "__LDBL_DENORM_MIN__ 3.64519953188247460253e-4951L\0"
 1076      424C5F44 
 1076      454E4F52 
 1076      4D5F4D49 
 1076      4E5F5F20 
 1077 129d 01       		.byte	0x1
 1078 129e 00       		.uleb128 0
 1079 129f 5F5F4C44 		.ascii "__LDBL_HAS_DENORM__ 1\0"
 1079      424C5F48 
 1079      41535F44 
 1079      454E4F52 
 1079      4D5F5F20 
 1080 12b5 01       		.byte	0x1
 1081 12b6 00       		.uleb128 0
 1082 12b7 5F5F4C44 		.ascii "__LDBL_HAS_INFINITY__ 1\0"
 1082      424C5F48 
 1082      41535F49 
 1082      4E46494E 
 1082      4954595F 
 1083 12cf 01       		.byte	0x1
 1084 12d0 00       		.uleb128 0
 1085 12d1 5F5F4C44 		.ascii "__LDBL_HAS_QUIET_NAN__ 1\0"
 1085      424C5F48 
 1085      41535F51 
 1085      55494554 
 1085      5F4E414E 
 1086 12ea 01       		.byte	0x1
 1087 12eb 00       		.uleb128 0
 1088 12ec 5F5F4445 		.ascii "__DEC32_MANT_DIG__ 7\0"
 1088      4333325F 
 1088      4D414E54 
 1088      5F444947 
 1088      5F5F2037 
 1089 1301 01       		.byte	0x1
 1090 1302 00       		.uleb128 0
GAS LISTING C:\Users\PRESID~1\AppData\Local\Temp\cchcYGnu.s 			page 38


 1091 1303 5F5F4445 		.ascii "__DEC32_MIN_EXP__ (-94)\0"
 1091      4333325F 
 1091      4D494E5F 
 1091      4558505F 
 1091      5F20282D 
 1092 131b 01       		.byte	0x1
 1093 131c 00       		.uleb128 0
 1094 131d 5F5F4445 		.ascii "__DEC32_MAX_EXP__ 97\0"
 1094      4333325F 
 1094      4D41585F 
 1094      4558505F 
 1094      5F203937 
 1095 1332 01       		.byte	0x1
 1096 1333 00       		.uleb128 0
 1097 1334 5F5F4445 		.ascii "__DEC32_MIN__ 1E-95DF\0"
 1097      4333325F 
 1097      4D494E5F 
 1097      5F203145 
 1097      2D393544 
 1098 134a 01       		.byte	0x1
 1099 134b 00       		.uleb128 0
 1100 134c 5F5F4445 		.ascii "__DEC32_MAX__ 9.999999E96DF\0"
 1100      4333325F 
 1100      4D41585F 
 1100      5F20392E 
 1100      39393939 
 1101 1368 01       		.byte	0x1
 1102 1369 00       		.uleb128 0
 1103 136a 5F5F4445 		.ascii "__DEC32_EPSILON__ 1E-6DF\0"
 1103      4333325F 
 1103      45505349 
 1103      4C4F4E5F 
 1103      5F203145 
 1104 1383 01       		.byte	0x1
 1105 1384 00       		.uleb128 0
 1106 1385 5F5F4445 		.ascii "__DEC32_SUBNORMAL_MIN__ 0.000001E-95DF\0"
 1106      4333325F 
 1106      5355424E 
 1106      4F524D41 
 1106      4C5F4D49 
 1107 13ac 01       		.byte	0x1
 1108 13ad 00       		.uleb128 0
 1109 13ae 5F5F4445 		.ascii "__DEC64_MANT_DIG__ 16\0"
 1109      4336345F 
 1109      4D414E54 
 1109      5F444947 
 1109      5F5F2031 
 1110 13c4 01       		.byte	0x1
 1111 13c5 00       		.uleb128 0
 1112 13c6 5F5F4445 		.ascii "__DEC64_MIN_EXP__ (-382)\0"
 1112      4336345F 
 1112      4D494E5F 
 1112      4558505F 
 1112      5F20282D 
 1113 13df 01       		.byte	0x1
 1114 13e0 00       		.uleb128 0
 1115 13e1 5F5F4445 		.ascii "__DEC64_MAX_EXP__ 385\0"
GAS LISTING C:\Users\PRESID~1\AppData\Local\Temp\cchcYGnu.s 			page 39


 1115      4336345F 
 1115      4D41585F 
 1115      4558505F 
 1115      5F203338 
 1116 13f7 01       		.byte	0x1
 1117 13f8 00       		.uleb128 0
 1118 13f9 5F5F4445 		.ascii "__DEC64_MIN__ 1E-383DD\0"
 1118      4336345F 
 1118      4D494E5F 
 1118      5F203145 
 1118      2D333833 
 1119 1410 01       		.byte	0x1
 1120 1411 00       		.uleb128 0
 1121 1412 5F5F4445 		.ascii "__DEC64_MAX__ 9.999999999999999E384DD\0"
 1121      4336345F 
 1121      4D41585F 
 1121      5F20392E 
 1121      39393939 
 1122 1438 01       		.byte	0x1
 1123 1439 00       		.uleb128 0
 1124 143a 5F5F4445 		.ascii "__DEC64_EPSILON__ 1E-15DD\0"
 1124      4336345F 
 1124      45505349 
 1124      4C4F4E5F 
 1124      5F203145 
 1125 1454 01       		.byte	0x1
 1126 1455 00       		.uleb128 0
 1127 1456 5F5F4445 		.ascii "__DEC64_SUBNORMAL_MIN__ 0.000000000000001E-383DD\0"
 1127      4336345F 
 1127      5355424E 
 1127      4F524D41 
 1127      4C5F4D49 
 1128 1487 01       		.byte	0x1
 1129 1488 00       		.uleb128 0
 1130 1489 5F5F4445 		.ascii "__DEC128_MANT_DIG__ 34\0"
 1130      43313238 
 1130      5F4D414E 
 1130      545F4449 
 1130      475F5F20 
 1131 14a0 01       		.byte	0x1
 1132 14a1 00       		.uleb128 0
 1133 14a2 5F5F4445 		.ascii "__DEC128_MIN_EXP__ (-6142)\0"
 1133      43313238 
 1133      5F4D494E 
 1133      5F455850 
 1133      5F5F2028 
 1134 14bd 01       		.byte	0x1
 1135 14be 00       		.uleb128 0
 1136 14bf 5F5F4445 		.ascii "__DEC128_MAX_EXP__ 6145\0"
 1136      43313238 
 1136      5F4D4158 
 1136      5F455850 
 1136      5F5F2036 
 1137 14d7 01       		.byte	0x1
 1138 14d8 00       		.uleb128 0
 1139 14d9 5F5F4445 		.ascii "__DEC128_MIN__ 1E-6143DL\0"
 1139      43313238 
GAS LISTING C:\Users\PRESID~1\AppData\Local\Temp\cchcYGnu.s 			page 40


 1139      5F4D494E 
 1139      5F5F2031 
 1139      452D3631 
 1140 14f2 01       		.byte	0x1
 1141 14f3 00       		.uleb128 0
 1142 14f4 5F5F4445 		.ascii "__DEC128_MAX__ 9.999999999999999999999999999999999E6144DL\0"
 1142      43313238 
 1142      5F4D4158 
 1142      5F5F2039 
 1142      2E393939 
 1143 152e 01       		.byte	0x1
 1144 152f 00       		.uleb128 0
 1145 1530 5F5F4445 		.ascii "__DEC128_EPSILON__ 1E-33DL\0"
 1145      43313238 
 1145      5F455053 
 1145      494C4F4E 
 1145      5F5F2031 
 1146 154b 01       		.byte	0x1
 1147 154c 00       		.uleb128 0
 1148 154d 5F5F4445 		.ascii "__DEC128_SUBNORMAL_MIN__ 0.000000000000000000000000000000001E-6143DL\0"
 1148      43313238 
 1148      5F535542 
 1148      4E4F524D 
 1148      414C5F4D 
 1149 1592 01       		.byte	0x1
 1150 1593 00       		.uleb128 0
 1151 1594 5F5F5245 		.ascii "__REGISTER_PREFIX__ \0"
 1151      47495354 
 1151      45525F50 
 1151      52454649 
 1151      585F5F20 
 1152 15a9 01       		.byte	0x1
 1153 15aa 00       		.uleb128 0
 1154 15ab 5F5F5553 		.ascii "__USER_LABEL_PREFIX__ _\0"
 1154      45525F4C 
 1154      4142454C 
 1154      5F505245 
 1154      4649585F 
 1155 15c3 01       		.byte	0x1
 1156 15c4 00       		.uleb128 0
 1157 15c5 5F5F474E 		.ascii "__GNUC_GNU_INLINE__ 1\0"
 1157      55435F47 
 1157      4E555F49 
 1157      4E4C494E 
 1157      455F5F20 
 1158 15db 01       		.byte	0x1
 1159 15dc 00       		.uleb128 0
 1160 15dd 5F5F4E4F 		.ascii "__NO_INLINE__ 1\0"
 1160      5F494E4C 
 1160      494E455F 
 1160      5F203100 
 1161 15ed 01       		.byte	0x1
 1162 15ee 00       		.uleb128 0
 1163 15ef 5F5F5354 		.ascii "__STRICT_ANSI__ 1\0"
 1163      52494354 
 1163      5F414E53 
 1163      495F5F20 
GAS LISTING C:\Users\PRESID~1\AppData\Local\Temp\cchcYGnu.s 			page 41


 1163      3100
 1164 1601 01       		.byte	0x1
 1165 1602 00       		.uleb128 0
 1166 1603 5F5F4743 		.ascii "__GCC_ATOMIC_BOOL_LOCK_FREE 1\0"
 1166      435F4154 
 1166      4F4D4943 
 1166      5F424F4F 
 1166      4C5F4C4F 
 1167 1621 01       		.byte	0x1
 1168 1622 00       		.uleb128 0
 1169 1623 5F5F4743 		.ascii "__GCC_ATOMIC_CHAR_LOCK_FREE 1\0"
 1169      435F4154 
 1169      4F4D4943 
 1169      5F434841 
 1169      525F4C4F 
 1170 1641 01       		.byte	0x1
 1171 1642 00       		.uleb128 0
 1172 1643 5F5F4743 		.ascii "__GCC_ATOMIC_CHAR16_T_LOCK_FREE 1\0"
 1172      435F4154 
 1172      4F4D4943 
 1172      5F434841 
 1172      5231365F 
 1173 1665 01       		.byte	0x1
 1174 1666 00       		.uleb128 0
 1175 1667 5F5F4743 		.ascii "__GCC_ATOMIC_CHAR32_T_LOCK_FREE 1\0"
 1175      435F4154 
 1175      4F4D4943 
 1175      5F434841 
 1175      5233325F 
 1176 1689 01       		.byte	0x1
 1177 168a 00       		.uleb128 0
 1178 168b 5F5F4743 		.ascii "__GCC_ATOMIC_WCHAR_T_LOCK_FREE 1\0"
 1178      435F4154 
 1178      4F4D4943 
 1178      5F574348 
 1178      41525F54 
 1179 16ac 01       		.byte	0x1
 1180 16ad 00       		.uleb128 0
 1181 16ae 5F5F4743 		.ascii "__GCC_ATOMIC_SHORT_LOCK_FREE 1\0"
 1181      435F4154 
 1181      4F4D4943 
 1181      5F53484F 
 1181      52545F4C 
 1182 16cd 01       		.byte	0x1
 1183 16ce 00       		.uleb128 0
 1184 16cf 5F5F4743 		.ascii "__GCC_ATOMIC_INT_LOCK_FREE 1\0"
 1184      435F4154 
 1184      4F4D4943 
 1184      5F494E54 
 1184      5F4C4F43 
 1185 16ec 01       		.byte	0x1
 1186 16ed 00       		.uleb128 0
 1187 16ee 5F5F4743 		.ascii "__GCC_ATOMIC_LONG_LOCK_FREE 1\0"
 1187      435F4154 
 1187      4F4D4943 
 1187      5F4C4F4E 
 1187      475F4C4F 
GAS LISTING C:\Users\PRESID~1\AppData\Local\Temp\cchcYGnu.s 			page 42


 1188 170c 01       		.byte	0x1
 1189 170d 00       		.uleb128 0
 1190 170e 5F5F4743 		.ascii "__GCC_ATOMIC_LLONG_LOCK_FREE 1\0"
 1190      435F4154 
 1190      4F4D4943 
 1190      5F4C4C4F 
 1190      4E475F4C 
 1191 172d 01       		.byte	0x1
 1192 172e 00       		.uleb128 0
 1193 172f 5F5F4743 		.ascii "__GCC_ATOMIC_TEST_AND_SET_TRUEVAL 1\0"
 1193      435F4154 
 1193      4F4D4943 
 1193      5F544553 
 1193      545F414E 
 1194 1753 01       		.byte	0x1
 1195 1754 00       		.uleb128 0
 1196 1755 5F5F4743 		.ascii "__GCC_ATOMIC_POINTER_LOCK_FREE 1\0"
 1196      435F4154 
 1196      4F4D4943 
 1196      5F504F49 
 1196      4E544552 
 1197 1776 01       		.byte	0x1
 1198 1777 00       		.uleb128 0
 1199 1778 5F5F4743 		.ascii "__GCC_HAVE_DWARF2_CFI_ASM 1\0"
 1199      435F4841 
 1199      56455F44 
 1199      57415246 
 1199      325F4346 
 1200 1794 01       		.byte	0x1
 1201 1795 00       		.uleb128 0
 1202 1796 5F5F5052 		.ascii "__PRAGMA_REDEFINE_EXTNAME 1\0"
 1202      41474D41 
 1202      5F524544 
 1202      4546494E 
 1202      455F4558 
 1203 17b2 01       		.byte	0x1
 1204 17b3 00       		.uleb128 0
 1205 17b4 5F5F5349 		.ascii "__SIZEOF_WCHAR_T__ 2\0"
 1205      5A454F46 
 1205      5F574348 
 1205      41525F54 
 1205      5F5F2032 
 1206 17c9 01       		.byte	0x1
 1207 17ca 00       		.uleb128 0
 1208 17cb 5F5F5349 		.ascii "__SIZEOF_WINT_T__ 2\0"
 1208      5A454F46 
 1208      5F57494E 
 1208      545F545F 
 1208      5F203200 
 1209 17df 01       		.byte	0x1
 1210 17e0 00       		.uleb128 0
 1211 17e1 5F5F5349 		.ascii "__SIZEOF_PTRDIFF_T__ 4\0"
 1211      5A454F46 
 1211      5F505452 
 1211      44494646 
 1211      5F545F5F 
 1212 17f8 01       		.byte	0x1
GAS LISTING C:\Users\PRESID~1\AppData\Local\Temp\cchcYGnu.s 			page 43


 1213 17f9 00       		.uleb128 0
 1214 17fa 5F5F6933 		.ascii "__i386 1\0"
 1214      38362031 
 1214      00
 1215 1803 01       		.byte	0x1
 1216 1804 00       		.uleb128 0
 1217 1805 5F5F6933 		.ascii "__i386__ 1\0"
 1217      38365F5F 
 1217      203100
 1218 1810 01       		.byte	0x1
 1219 1811 00       		.uleb128 0
 1220 1812 5F5F4154 		.ascii "__ATOMIC_HLE_ACQUIRE 65536\0"
 1220      4F4D4943 
 1220      5F484C45 
 1220      5F414351 
 1220      55495245 
 1221 182d 01       		.byte	0x1
 1222 182e 00       		.uleb128 0
 1223 182f 5F5F4154 		.ascii "__ATOMIC_HLE_RELEASE 131072\0"
 1223      4F4D4943 
 1223      5F484C45 
 1223      5F52454C 
 1223      45415345 
 1224 184b 01       		.byte	0x1
 1225 184c 00       		.uleb128 0
 1226 184d 5F5F7475 		.ascii "__tune_i386__ 1\0"
 1226      6E655F69 
 1226      3338365F 
 1226      5F203100 
 1227 185d 01       		.byte	0x1
 1228 185e 00       		.uleb128 0
 1229 185f 5F5F636F 		.ascii "__code_model_32__ 1\0"
 1229      64655F6D 
 1229      6F64656C 
 1229      5F33325F 
 1229      5F203100 
 1230 1873 01       		.byte	0x1
 1231 1874 00       		.uleb128 0
 1232 1875 5F583836 		.ascii "_X86_ 1\0"
 1232      5F203100 
 1233 187d 01       		.byte	0x1
 1234 187e 00       		.uleb128 0
 1235 187f 5F5F7374 		.ascii "__stdcall __attribute__((__stdcall__))\0"
 1235      6463616C 
 1235      6C205F5F 
 1235      61747472 
 1235      69627574 
 1236 18a6 01       		.byte	0x1
 1237 18a7 00       		.uleb128 0
 1238 18a8 5F5F6661 		.ascii "__fastcall __attribute__((__fastcall__))\0"
 1238      73746361 
 1238      6C6C205F 
 1238      5F617474 
 1238      72696275 
 1239 18d1 01       		.byte	0x1
 1240 18d2 00       		.uleb128 0
 1241 18d3 5F5F7468 		.ascii "__thiscall __attribute__((__thiscall__))\0"
GAS LISTING C:\Users\PRESID~1\AppData\Local\Temp\cchcYGnu.s 			page 44


 1241      69736361 
 1241      6C6C205F 
 1241      5F617474 
 1241      72696275 
 1242 18fc 01       		.byte	0x1
 1243 18fd 00       		.uleb128 0
 1244 18fe 5F5F6364 		.ascii "__cdecl __attribute__((__cdecl__))\0"
 1244      65636C20 
 1244      5F5F6174 
 1244      74726962 
 1244      7574655F 
 1245 1921 01       		.byte	0x1
 1246 1922 00       		.uleb128 0
 1247 1923 5F5F4758 		.ascii "__GXX_MERGED_TYPEINFO_NAMES 0\0"
 1247      585F4D45 
 1247      52474544 
 1247      5F545950 
 1247      45494E46 
 1248 1941 01       		.byte	0x1
 1249 1942 00       		.uleb128 0
 1250 1943 5F5F4758 		.ascii "__GXX_TYPEINFO_EQUALITY_INLINE 0\0"
 1250      585F5459 
 1250      5045494E 
 1250      464F5F45 
 1250      5155414C 
 1251 1964 01       		.byte	0x1
 1252 1965 00       		.uleb128 0
 1253 1966 5F5F4D53 		.ascii "__MSVCRT__ 1\0"
 1253      56435254 
 1253      5F5F2031 
 1253      00
 1254 1973 01       		.byte	0x1
 1255 1974 00       		.uleb128 0
 1256 1975 5F5F4D49 		.ascii "__MINGW32__ 1\0"
 1256      4E475733 
 1256      325F5F20 
 1256      3100
 1257 1983 01       		.byte	0x1
 1258 1984 00       		.uleb128 0
 1259 1985 5F57494E 		.ascii "_WIN32 1\0"
 1259      33322031 
 1259      00
 1260 198e 01       		.byte	0x1
 1261 198f 00       		.uleb128 0
 1262 1990 5F5F5749 		.ascii "__WIN32 1\0"
 1262      4E333220 
 1262      3100
 1263 199a 01       		.byte	0x1
 1264 199b 00       		.uleb128 0
 1265 199c 5F5F5749 		.ascii "__WIN32__ 1\0"
 1265      4E33325F 
 1265      5F203100 
 1266 19a8 01       		.byte	0x1
 1267 19a9 00       		.uleb128 0
 1268 19aa 5F5F5749 		.ascii "__WINNT 1\0"
 1268      4E4E5420 
 1268      3100
GAS LISTING C:\Users\PRESID~1\AppData\Local\Temp\cchcYGnu.s 			page 45


 1269 19b4 01       		.byte	0x1
 1270 19b5 00       		.uleb128 0
 1271 19b6 5F5F5749 		.ascii "__WINNT__ 1\0"
 1271      4E4E545F 
 1271      5F203100 
 1272 19c2 01       		.byte	0x1
 1273 19c3 00       		.uleb128 0
 1274 19c4 5F494E54 		.ascii "_INTEGRAL_MAX_BITS 64\0"
 1274      45475241 
 1274      4C5F4D41 
 1274      585F4249 
 1274      54532036 
 1275 19da 01       		.byte	0x1
 1276 19db 00       		.uleb128 0
 1277 19dc 5F5F6465 		.ascii "__declspec(x) __attribute__((x))\0"
 1277      636C7370 
 1277      65632878 
 1277      29205F5F 
 1277      61747472 
 1278 19fd 01       		.byte	0x1
 1279 19fe 00       		.uleb128 0
 1280 19ff 5F5F4445 		.ascii "__DECIMAL_BID_FORMAT__ 1\0"
 1280      43494D41 
 1280      4C5F4249 
 1280      445F464F 
 1280      524D4154 
 1281 1a18 01       		.byte	0x1
 1282 1a19 00       		.uleb128 0
 1283 1a1a 4346475F 		.ascii "CFG_PROCESSOR 3\0"
 1283      50524F43 
 1283      4553534F 
 1283      52203300 
 1284 1a2a 03       		.byte	0x3
 1285 1a2b 00       		.uleb128 0
 1286 1a2c 02       		.uleb128 0x2
 1287              		.file 4 "E:/NeuOrga/Programmieren/c_cpp/github_os/input/src/os_sim/../os_base/os_firstinc.h"
 1288 1a2d 03       		.byte	0x3
 1289 1a2e 01       		.uleb128 0x1
 1290 1a2f 04       		.uleb128 0x4
 1291 1a30 01       		.byte	0x1
 1292 1a31 02       		.uleb128 0x2
 1293 1a32 5F6F735F 		.ascii "_os_firstinc_h_ \0"
 1293      66697273 
 1293      74696E63 
 1293      5F685F20 
 1293      00
 1294              		.file 5 "E:/NeuOrga/Programmieren/c_cpp/github_os/input/src/os_sim/../os_base/../os_base/os_base_t
 1295 1a43 03       		.byte	0x3
 1296 1a44 04       		.uleb128 0x4
 1297 1a45 05       		.uleb128 0x5
 1298 1a46 01       		.byte	0x1
 1299 1a47 02       		.uleb128 0x2
 1300 1a48 5F424153 		.ascii "_BASE_TYPES_H_ \0"
 1300      455F5459 
 1300      5045535F 
 1300      485F2000 
 1301 1a58 01       		.byte	0x1
GAS LISTING C:\Users\PRESID~1\AppData\Local\Temp\cchcYGnu.s 			page 46


 1302 1a59 04       		.uleb128 0x4
 1303 1a5a 494E5445 		.ascii "INTEGER_LLP64_IL32P64 1\0"
 1303      4745525F 
 1303      4C4C5036 
 1303      345F494C 
 1303      33325036 
 1304 1a72 01       		.byte	0x1
 1305 1a73 05       		.uleb128 0x5
 1306 1a74 494E5445 		.ascii "INTEGER_LP64_I32LP64 2\0"
 1306      4745525F 
 1306      4C503634 
 1306      5F493332 
 1306      4C503634 
 1307 1a8b 01       		.byte	0x1
 1308 1a8c 06       		.uleb128 0x6
 1309 1a8d 494E5445 		.ascii "INTEGER_ILP64 3\0"
 1309      4745525F 
 1309      494C5036 
 1309      34203300 
 1310 1a9d 01       		.byte	0x1
 1311 1a9e 07       		.uleb128 0x7
 1312 1a9f 494E5445 		.ascii "INTEGER_SILP64 4\0"
 1312      4745525F 
 1312      53494C50 
 1312      36342034 
 1312      00
 1313 1ab0 01       		.byte	0x1
 1314 1ab1 09       		.uleb128 0x9
 1315 1ab2 4350505F 		.ascii "CPP_VERSION_NONE 0\0"
 1315      56455253 
 1315      494F4E5F 
 1315      4E4F4E45 
 1315      203000
 1316 1ac5 01       		.byte	0x1
 1317 1ac6 0A       		.uleb128 0xa
 1318 1ac7 4350505F 		.ascii "CPP_VERSION_1998 1\0"
 1318      56455253 
 1318      494F4E5F 
 1318      31393938 
 1318      203100
 1319 1ada 01       		.byte	0x1
 1320 1adb 0B       		.uleb128 0xb
 1321 1adc 4350505F 		.ascii "CPP_VERSION_2003 2\0"
 1321      56455253 
 1321      494F4E5F 
 1321      32303033 
 1321      203200
 1322 1aef 01       		.byte	0x1
 1323 1af0 0C       		.uleb128 0xc
 1324 1af1 4350505F 		.ascii "CPP_VERSION_2007 3\0"
 1324      56455253 
 1324      494F4E5F 
 1324      32303037 
 1324      203300
 1325 1b04 01       		.byte	0x1
 1326 1b05 0D       		.uleb128 0xd
 1327 1b06 4350505F 		.ascii "CPP_VERSION_2011 4\0"
GAS LISTING C:\Users\PRESID~1\AppData\Local\Temp\cchcYGnu.s 			page 47


 1327      56455253 
 1327      494F4E5F 
 1327      32303131 
 1327      203400
 1328 1b19 01       		.byte	0x1
 1329 1b1a 0E       		.uleb128 0xe
 1330 1b1b 49534F5F 		.ascii "ISO_CPP_VERSION CPP_VERSION_1998\0"
 1330      4350505F 
 1330      56455253 
 1330      494F4E20 
 1330      4350505F 
 1331 1b3c 01       		.byte	0x1
 1332 1b3d 10       		.uleb128 0x10
 1333 1b3e 494E5445 		.ascii "INTEGER_MODEL INTEGER_LLP64_IL32P64\0"
 1333      4745525F 
 1333      4D4F4445 
 1333      4C20494E 
 1333      54454745 
 1334 1b62 04       		.byte	0x4
 1335              		.file 6 "E:/NeuOrga/Programmieren/c_cpp/github_os/input/src/os_sim/../os_base/../os_base/os_common
 1336 1b63 03       		.byte	0x3
 1337 1b64 05       		.uleb128 0x5
 1338 1b65 06       		.uleb128 0x6
 1339 1b66 01       		.byte	0x1
 1340 1b67 02       		.uleb128 0x2
 1341 1b68 5F6F735F 		.ascii "_os_common_h_ \0"
 1341      636F6D6D 
 1341      6F6E5F68 
 1341      5F2000
 1342 1b77 01       		.byte	0x1
 1343 1b78 06       		.uleb128 0x6
 1344 1b79 46616C73 		.ascii "False 0\0"
 1344      65203000 
 1345 1b81 01       		.byte	0x1
 1346 1b82 07       		.uleb128 0x7
 1347 1b83 54727565 		.ascii "True 1\0"
 1347      203100
 1348 1b8a 01       		.byte	0x1
 1349 1b8b 08       		.uleb128 0x8
 1350 1b8c 41636365 		.ascii "Accepted 1\0"
 1350      70746564 
 1350      203100
 1351 1b97 01       		.byte	0x1
 1352 1b98 09       		.uleb128 0x9
 1353 1b99 52656A65 		.ascii "Rejected 0\0"
 1353      63746564 
 1353      203000
 1354 1ba4 01       		.byte	0x1
 1355 1ba5 0A       		.uleb128 0xa
 1356 1ba6 4C6F6361 		.ascii "Local static\0"
 1356      6C207374 
 1356      61746963 
 1356      00
 1357 1bb3 01       		.byte	0x1
 1358 1bb4 0B       		.uleb128 0xb
 1359 1bb5 4C6F6361 		.ascii "Local_inline static __inline__\0"
 1359      6C5F696E 
GAS LISTING C:\Users\PRESID~1\AppData\Local\Temp\cchcYGnu.s 			page 48


 1359      6C696E65 
 1359      20737461 
 1359      74696320 
 1360 1bd4 01       		.byte	0x1
 1361 1bd5 0C       		.uleb128 0xc
 1362 1bd6 476C6F62 		.ascii "Global_inline __inline__\0"
 1362      616C5F69 
 1362      6E6C696E 
 1362      65205F5F 
 1362      696E6C69 
 1363 1bef 01       		.byte	0x1
 1364 1bf0 0D       		.uleb128 0xd
 1365 1bf1 52656665 		.ascii "ReferenceUnusedParameter(x) ((x) = (x))\0"
 1365      72656E63 
 1365      65556E75 
 1365      73656450 
 1365      6172616D 
 1366 1c19 01       		.byte	0x1
 1367 1c1a 10       		.uleb128 0x10
 1368 1c1b 634D4355 		.ascii "cMCU_SIMULATION 1\0"
 1368      5F53494D 
 1368      554C4154 
 1368      494F4E20 
 1368      3100
 1369 1c2d 01       		.byte	0x1
 1370 1c2e 11       		.uleb128 0x11
 1371 1c2f 634D4355 		.ascii "cMCU_POWERPC 2\0"
 1371      5F504F57 
 1371      45525043 
 1371      203200
 1372 1c3e 01       		.byte	0x1
 1373 1c3f 12       		.uleb128 0x12
 1374 1c40 634D4355 		.ascii "cMCU_X86 3\0"
 1374      5F583836 
 1374      203300
 1375 1c4b 01       		.byte	0x1
 1376 1c4c 13       		.uleb128 0x13
 1377 1c4d 634D4355 		.ascii "cMCU_CORTEX_M4 4\0"
 1377      5F434F52 
 1377      5445585F 
 1377      4D342034 
 1377      00
 1378 1c5e 01       		.byte	0x1
 1379 1c5f 16       		.uleb128 0x16
 1380 1c60 4E525F4F 		.ascii "NR_OF_CORES 1\0"
 1380      465F434F 
 1380      52455320 
 1380      3100
 1381 1c6e 01       		.byte	0x1
 1382 1c6f 23       		.uleb128 0x23
 1383 1c70 44697361 		.ascii "DisableInterrupts() \0"
 1383      626C6549 
 1383      6E746572 
 1383      72757074 
 1383      73282920 
 1384 1c85 01       		.byte	0x1
 1385 1c86 24       		.uleb128 0x24
GAS LISTING C:\Users\PRESID~1\AppData\Local\Temp\cchcYGnu.s 			page 49


 1386 1c87 456E6162 		.ascii "EnableInterrupts() \0"
 1386      6C65496E 
 1386      74657272 
 1386      75707473 
 1386      28292000 
 1387 1c9b 01       		.byte	0x1
 1388 1c9c 25       		.uleb128 0x25
 1389 1c9d 50726976 		.ascii "Privilige_level_save_current() \0"
 1389      696C6967 
 1389      655F6C65 
 1389      76656C5F 
 1389      73617665 
 1390 1cbd 01       		.byte	0x1
 1391 1cbe 26       		.uleb128 0x26
 1392 1cbf 50726976 		.ascii "Privilige_level_enter_kernel_mode() \0"
 1392      696C6967 
 1392      655F6C65 
 1392      76656C5F 
 1392      656E7465 
 1393 1ce4 01       		.byte	0x1
 1394 1ce5 27       		.uleb128 0x27
 1395 1ce6 50726976 		.ascii "Privilige_level_restore_saved() \0"
 1395      696C6967 
 1395      655F6C65 
 1395      76656C5F 
 1395      72657374 
 1396 1d07 01       		.byte	0x1
 1397 1d08 28       		.uleb128 0x28
 1398 1d09 48616C74 		.ascii "HaltMcu() \0"
 1398      4D637528 
 1398      292000
 1399 1d14 04       		.byte	0x4
 1400              		.file 7 "E:/NeuOrga/Programmieren/c_cpp/github_os/input/src/os_sim/../os_base/../os_sim/lld_global
 1401 1d15 03       		.byte	0x3
 1402 1d16 07       		.uleb128 0x7
 1403 1d17 07       		.uleb128 0x7
 1404 1d18 01       		.byte	0x1
 1405 1d19 02       		.uleb128 0x2
 1406 1d1a 5F6C6C64 		.ascii "_lld_global_h_ \0"
 1406      5F676C6F 
 1406      62616C5F 
 1406      685F2000 
 1407              		.file 8 "E:/NeuOrga/Programmieren/c_cpp/github_os/input/src/os_sim/../os_base/../os_sim/lld_core.h
 1408 1d2a 03       		.byte	0x3
 1409 1d2b 04       		.uleb128 0x4
 1410 1d2c 08       		.uleb128 0x8
 1411 1d2d 01       		.byte	0x1
 1412 1d2e 02       		.uleb128 0x2
 1413 1d2f 5F6C6C64 		.ascii "_lld_core_h_ \0"
 1413      5F636F72 
 1413      655F685F 
 1413      2000
 1414              		.file 9 "E:/NeuOrga/Programmieren/c_cpp/github_os/input/src/os_sim/../os_base/../os_sim/../os_base
 1415 1d3d 03       		.byte	0x3
 1416 1d3e 03       		.uleb128 0x3
 1417 1d3f 09       		.uleb128 0x9
 1418 1d40 04       		.byte	0x4
GAS LISTING C:\Users\PRESID~1\AppData\Local\Temp\cchcYGnu.s 			page 50


 1419 1d41 04       		.byte	0x4
 1420              		.file 10 "E:/NeuOrga/Programmieren/c_cpp/github_os/input/src/os_sim/../os_base/../os_sim/lld_inter
 1421 1d42 03       		.byte	0x3
 1422 1d43 05       		.uleb128 0x5
 1423 1d44 0A       		.uleb128 0xa
 1424 1d45 01       		.byte	0x1
 1425 1d46 02       		.uleb128 0x2
 1426 1d47 5F6C6C64 		.ascii "_lld_interrupt_h_ \0"
 1426      5F696E74 
 1426      65727275 
 1426      70745F68 
 1426      5F2000
 1427 1d5a 01       		.byte	0x1
 1428 1d5b 05       		.uleb128 0x5
 1429 1d5c 6F735F69 		.ascii "os_interrupt_swi_1 asm(\"swi 1\")\0"
 1429      6E746572 
 1429      72757074 
 1429      5F737769 
 1429      5F312061 
 1430 1d7c 01       		.byte	0x1
 1431 1d7d 06       		.uleb128 0x6
 1432 1d7e 6F735F69 		.ascii "os_interrupt_swi_2 asm(\"swi 2\")\0"
 1432      6E746572 
 1432      72757074 
 1432      5F737769 
 1432      5F322061 
 1433 1d9e 01       		.byte	0x1
 1434 1d9f 07       		.uleb128 0x7
 1435 1da0 6F735F69 		.ascii "os_interrupt_swi_3 asm(\"swi 3\")\0"
 1435      6E746572 
 1435      72757074 
 1435      5F737769 
 1435      5F332061 
 1436 1dc0 01       		.byte	0x1
 1437 1dc1 08       		.uleb128 0x8
 1438 1dc2 6F735F69 		.ascii "os_interrupt_swi_4 asm(\"swi 4\")\0"
 1438      6E746572 
 1438      72757074 
 1438      5F737769 
 1438      5F342061 
 1439 1de2 01       		.byte	0x1
 1440 1de3 09       		.uleb128 0x9
 1441 1de4 6F735F69 		.ascii "os_interrupt_swi_5 asm(\"swi 5\")\0"
 1441      6E746572 
 1441      72757074 
 1441      5F737769 
 1441      5F352061 
 1442 1e04 04       		.byte	0x4
 1443              		.file 11 "E:/NeuOrga/Programmieren/c_cpp/github_os/input/src/os_sim/../os_base/../os_sim/lld_mmu.h
 1444 1e05 03       		.byte	0x3
 1445 1e06 06       		.uleb128 0x6
 1446 1e07 0B       		.uleb128 0xb
 1447 1e08 01       		.byte	0x1
 1448 1e09 02       		.uleb128 0x2
 1449 1e0a 5F6C6C64 		.ascii "_lld_mmu_h_ \0"
 1449      5F6D6D75 
 1449      5F685F20 
GAS LISTING C:\Users\PRESID~1\AppData\Local\Temp\cchcYGnu.s 			page 51


 1449      00
 1450 1e17 04       		.byte	0x4
 1451              		.file 12 "E:/NeuOrga/Programmieren/c_cpp/github_os/input/src/os_sim/../os_base/../os_sim/lld_timer
 1452 1e18 03       		.byte	0x3
 1453 1e19 07       		.uleb128 0x7
 1454 1e1a 0C       		.uleb128 0xc
 1455 1e1b 01       		.byte	0x1
 1456 1e1c 02       		.uleb128 0x2
 1457 1e1d 5F6C6C64 		.ascii "_lld_timer_h_ \0"
 1457      5F74696D 
 1457      65725F68 
 1457      5F2000
 1458 1e2c 04       		.byte	0x4
 1459              		.file 13 "E:/NeuOrga/Programmieren/c_cpp/github_os/input/src/os_sim/../os_base/../os_sim/lld_power
 1460 1e2d 03       		.byte	0x3
 1461 1e2e 08       		.uleb128 0x8
 1462 1e2f 0D       		.uleb128 0xd
 1463 1e30 01       		.byte	0x1
 1464 1e31 02       		.uleb128 0x2
 1465 1e32 5F6C6C64 		.ascii "_lld_power_h_ \0"
 1465      5F706F77 
 1465      65725F68 
 1465      5F2000
 1466 1e41 04       		.byte	0x4
 1467              		.file 14 "E:/NeuOrga/Programmieren/c_cpp/github_os/input/src/os_sim/../os_base/../os_sim/lld_ram.h
 1468 1e42 03       		.byte	0x3
 1469 1e43 09       		.uleb128 0x9
 1470 1e44 0E       		.uleb128 0xe
 1471 1e45 01       		.byte	0x1
 1472 1e46 02       		.uleb128 0x2
 1473 1e47 5F6C6C64 		.ascii "_lld_ram_h_ \0"
 1473      5F72616D 
 1473      5F685F20 
 1473      00
 1474 1e54 04       		.byte	0x4
 1475              		.file 15 "E:/NeuOrga/Programmieren/c_cpp/github_os/input/src/os_sim/../os_base/../os_sim/../os_bas
 1476 1e55 03       		.byte	0x3
 1477 1e56 0A       		.uleb128 0xa
 1478 1e57 0F       		.uleb128 0xf
 1479 1e58 01       		.byte	0x1
 1480 1e59 02       		.uleb128 0x2
 1481 1e5a 5F6F735F 		.ascii "_os_task_common_h_ \0"
 1481      7461736B 
 1481      5F636F6D 
 1481      6D6F6E5F 
 1481      685F2000 
 1482              		.file 16 "E:/NeuOrga/Programmieren/c_cpp/github_os/input/src/os_sim/../os_base/../os_sim/../os_bas
 1483 1e6e 03       		.byte	0x3
 1484 1e6f 04       		.uleb128 0x4
 1485 1e70 10       		.uleb128 0x10
 1486 1e71 01       		.byte	0x1
 1487 1e72 02       		.uleb128 0x2
 1488 1e73 5F6F735F 		.ascii "_os_task_config_h_ \0"
 1488      7461736B 
 1488      5F636F6E 
 1488      6669675F 
 1488      685F2000 
GAS LISTING C:\Users\PRESID~1\AppData\Local\Temp\cchcYGnu.s 			page 52


 1489 1e87 01       		.byte	0x1
 1490 1e88 05       		.uleb128 0x5
 1491 1e89 53636865 		.ascii "SchedulerFrequency (1.0e3)\0"
 1491      64756C65 
 1491      72467265 
 1491      7175656E 
 1491      63792028 
 1492 1ea4 01       		.byte	0x1
 1493 1ea5 06       		.uleb128 0x6
 1494 1ea6 4D696E54 		.ascii "MinTimeSlice_s (1.0/SchedulerFrequency)\0"
 1494      696D6553 
 1494      6C696365 
 1494      5F732028 
 1494      312E302F 
 1495 1ece 01       		.byte	0x1
 1496 1ecf 07       		.uleb128 0x7
 1497 1ed0 4D696E54 		.ascii "MinTimeSlice_us ((1.0/SchedulerFrequency)*1e6)\0"
 1497      696D6553 
 1497      6C696365 
 1497      5F757320 
 1497      2828312E 
 1498 1eff 01       		.byte	0x1
 1499 1f00 08       		.uleb128 0x8
 1500 1f01 5461736B 		.ascii "Task_min_time (1e0)\0"
 1500      5F6D696E 
 1500      5F74696D 
 1500      65202831 
 1500      65302900 
 1501 1f15 01       		.byte	0x1
 1502 1f16 09       		.uleb128 0x9
 1503 1f17 4E554D42 		.ascii "NUMBER_OF_TASKS 5\0"
 1503      45525F4F 
 1503      465F5441 
 1503      534B5320 
 1503      3500
 1504 1f29 01       		.byte	0x1
 1505 1f2a 0A       		.uleb128 0xa
 1506 1f2b 4D41585F 		.ascii "MAX_RUN_QUEUE_SIZE (NUMBER_OF_TASKS)\0"
 1506      52554E5F 
 1506      51554555 
 1506      455F5349 
 1506      5A452028 
 1507 1f50 01       		.byte	0x1
 1508 1f51 0B       		.uleb128 0xb
 1509 1f52 4D41585F 		.ascii "MAX_RUN_PQUEUE_SIZE MAX_RUN_QUEUE_SIZE\0"
 1509      52554E5F 
 1509      50515545 
 1509      55455F53 
 1509      495A4520 
 1510 1f79 01       		.byte	0x1
 1511 1f7a 0D       		.uleb128 0xd
 1512 1f7b 5441534B 		.ascii "TASK_STACK_SIZE 200\0"
 1512      5F535441 
 1512      434B5F53 
 1512      495A4520 
 1512      32303000 
 1513 1f8f 01       		.byte	0x1
GAS LISTING C:\Users\PRESID~1\AppData\Local\Temp\cchcYGnu.s 			page 53


 1514 1f90 10       		.uleb128 0x10
 1515 1f91 4D535F50 		.ascii "MS_PER_SEC (1000)\0"
 1515      45525F53 
 1515      45432028 
 1515      31303030 
 1515      2900
 1516 1fa3 01       		.byte	0x1
 1517 1fa4 11       		.uleb128 0x11
 1518 1fa5 5553455F 		.ascii "USE_STATIC_CREATED_TASKS True\0"
 1518      53544154 
 1518      49435F43 
 1518      52454154 
 1518      45445F54 
 1519 1fc3 04       		.byte	0x4
 1520              		.file 17 "E:/NeuOrga/Programmieren/c_cpp/github_os/input/src/os_sim/../os_base/../os_sim/../os_bas
 1521 1fc4 03       		.byte	0x3
 1522 1fc5 05       		.uleb128 0x5
 1523 1fc6 11       		.uleb128 0x11
 1524 1fc7 01       		.byte	0x1
 1525 1fc8 02       		.uleb128 0x2
 1526 1fc9 5F6F735F 		.ascii "_os_init_task_system_h_ \0"
 1526      696E6974 
 1526      5F746173 
 1526      6B5F7379 
 1526      7374656D 
 1527 1fe2 04       		.byte	0x4
 1528 1fe3 01       		.byte	0x1
 1529 1fe4 5C       		.uleb128 0x5c
 1530 1fe5 6F735F53 		.ascii "os_SaveTaskPtr(task_ptr,task_name) (TASK_PTR[(task_name)] = (task_ptr))\0"
 1530      61766554 
 1530      61736B50 
 1530      74722874 
 1530      61736B5F 
 1531 202d 01       		.byte	0x1
 1532 202e 5D       		.uleb128 0x5d
 1533 202f 6F735F47 		.ascii "os_GetTaskPtr(task_name) ((task_t*) TASK_PTR[(task_name)])\0"
 1533      65745461 
 1533      736B5074 
 1533      72287461 
 1533      736B5F6E 
 1534 206a 04       		.byte	0x4
 1535 206b 04       		.byte	0x4
 1536              		.file 18 "E:/NeuOrga/Programmieren/c_cpp/github_os/input/src/os_sim/../os_base/../os_user_code/led
 1537 206c 03       		.byte	0x3
 1538 206d 0B       		.uleb128 0xb
 1539 206e 12       		.uleb128 0x12
 1540 206f 01       		.byte	0x1
 1541 2070 02       		.uleb128 0x2
 1542 2071 5F4C4544 		.ascii "_LED_H_ \0"
 1542      5F485F20 
 1542      00
 1543 207a 04       		.byte	0x4
 1544 207b 04       		.byte	0x4
 1545              		.file 19 "E:/NeuOrga/Programmieren/c_cpp/github_os/input/src/os_sim/../os_base/os_main.h"
 1546 207c 03       		.byte	0x3
 1547 207d 02       		.uleb128 0x2
 1548 207e 13       		.uleb128 0x13
GAS LISTING C:\Users\PRESID~1\AppData\Local\Temp\cchcYGnu.s 			page 54


 1549 207f 01       		.byte	0x1
 1550 2080 02       		.uleb128 0x2
 1551 2081 5F6F735F 		.ascii "_os_main_h_ \0"
 1551      6D61696E 
 1551      5F685F20 
 1551      00
 1552 208e 04       		.byte	0x4
 1553              		.file 20 "E:/NeuOrga/Programmieren/c_cpp/github_os/input/src/os_sim/../os_base/os_task_scheduler.h
 1554 208f 03       		.byte	0x3
 1555 2090 03       		.uleb128 0x3
 1556 2091 14       		.uleb128 0x14
 1557 2092 01       		.byte	0x1
 1558 2093 02       		.uleb128 0x2
 1559 2094 5F6F735F 		.ascii "_os_task_scheduler_h_ \0"
 1559      7461736B 
 1559      5F736368 
 1559      6564756C 
 1559      65725F68 
 1560 20ab 03       		.byte	0x3
 1561 20ac 04       		.uleb128 0x4
 1562 20ad 04       		.uleb128 0x4
 1563 20ae 04       		.byte	0x4
 1564              		.file 21 "E:/NeuOrga/Programmieren/c_cpp/github_os/input/src/os_sim/../os_base/os_task_common.h"
 1565 20af 03       		.byte	0x3
 1566 20b0 05       		.uleb128 0x5
 1567 20b1 15       		.uleb128 0x15
 1568 20b2 04       		.byte	0x4
 1569 20b3 01       		.byte	0x1
 1570 20b4 07       		.uleb128 0x7
 1571 20b5 5461736B 		.ascii "Task_0_ptr 0\0"
 1571      5F305F70 
 1571      74722030 
 1571      00
 1572 20c2 01       		.byte	0x1
 1573 20c3 08       		.uleb128 0x8
 1574 20c4 5461736B 		.ascii "Task_1_ptr 1\0"
 1574      5F315F70 
 1574      74722031 
 1574      00
 1575 20d1 01       		.byte	0x1
 1576 20d2 09       		.uleb128 0x9
 1577 20d3 5461736B 		.ascii "Task_2_ptr 2\0"
 1577      5F325F70 
 1577      74722032 
 1577      00
 1578 20e0 01       		.byte	0x1
 1579 20e1 0A       		.uleb128 0xa
 1580 20e2 5461736B 		.ascii "Task_3_ptr 3\0"
 1580      5F335F70 
 1580      74722033 
 1580      00
 1581 20ef 01       		.byte	0x1
 1582 20f0 0C       		.uleb128 0xc
 1583 20f1 4F535F53 		.ascii "OS_SaveTaskPtr(task_ptr,Task_n_ptr) \0"
 1583      61766554 
 1583      61736B50 
 1583      74722874 
GAS LISTING C:\Users\PRESID~1\AppData\Local\Temp\cchcYGnu.s 			page 55


 1583      61736B5F 
 1584 2116 04       		.byte	0x4
 1585              		.file 22 "E:/NeuOrga/Programmieren/c_cpp/github_os/input/src/os_sim/../os_base/os_exception_isr_ha
 1586 2117 03       		.byte	0x3
 1587 2118 04       		.uleb128 0x4
 1588 2119 16       		.uleb128 0x16
 1589 211a 01       		.byte	0x1
 1590 211b 02       		.uleb128 0x2
 1591 211c 5F6F735F 		.ascii "_os_exception_isr_handler_h_ \0"
 1591      65786365 
 1591      7074696F 
 1591      6E5F6973 
 1591      725F6861 
 1592 213a 01       		.byte	0x1
 1593 213b 04       		.uleb128 0x4
 1594 213c 49535220 		.ascii "ISR void\0"
 1594      766F6964 
 1594      00
 1595 2145 04       		.byte	0x4
 1596              		.file 23 "E:/NeuOrga/Programmieren/c_cpp/github_os/input/src/os_sim/../os_base/os_start_os.h"
 1597 2146 03       		.byte	0x3
 1598 2147 05       		.uleb128 0x5
 1599 2148 17       		.uleb128 0x17
 1600 2149 01       		.byte	0x1
 1601 214a 02       		.uleb128 0x2
 1602 214b 5F6F735F 		.ascii "_os_start_os_h_ \0"
 1602      73746172 
 1602      745F6F73 
 1602      5F685F20 
 1602      00
 1603 215c 04       		.byte	0x4
 1604 215d 03       		.byte	0x3
 1605 215e 06       		.uleb128 0x6
 1606 215f 01       		.uleb128 0x1
 1607 2160 01       		.byte	0x1
 1608 2161 10       		.uleb128 0x10
 1609 2162 5F535444 		.ascii "_STDIO_H_ \0"
 1609      494F5F48 
 1609      5F2000
 1610              		.file 24 "d:/programm/mingw/include/_mingw.h"
 1611 216d 03       		.byte	0x3
 1612 216e 13       		.uleb128 0x13
 1613 216f 18       		.uleb128 0x18
 1614 2170 01       		.byte	0x1
 1615 2171 17       		.uleb128 0x17
 1616 2172 5F5F4D49 		.ascii "__MINGW_H \0"
 1616      4E47575F 
 1616      482000
 1617 217d 01       		.byte	0x1
 1618 217e 22       		.uleb128 0x22
 1619 217f 5F5F4D49 		.ascii "__MINGW32_VERSION 3021001L\0"
 1619      4E475733 
 1619      325F5645 
 1619      5253494F 
 1619      4E203330 
 1620 219a 01       		.byte	0x1
 1621 219b 23       		.uleb128 0x23
GAS LISTING C:\Users\PRESID~1\AppData\Local\Temp\cchcYGnu.s 			page 56


 1622 219c 5F5F4D49 		.ascii "__MINGW32_MAJOR_VERSION 3\0"
 1622      4E475733 
 1622      325F4D41 
 1622      4A4F525F 
 1622      56455253 
 1623 21b6 01       		.byte	0x1
 1624 21b7 24       		.uleb128 0x24
 1625 21b8 5F5F4D49 		.ascii "__MINGW32_MINOR_VERSION 21\0"
 1625      4E475733 
 1625      325F4D49 
 1625      4E4F525F 
 1625      56455253 
 1626 21d3 01       		.byte	0x1
 1627 21d4 25       		.uleb128 0x25
 1628 21d5 5F5F4D49 		.ascii "__MINGW32_PATCHLEVEL 1\0"
 1628      4E475733 
 1628      325F5041 
 1628      5443484C 
 1628      4556454C 
 1629 21ec 01       		.byte	0x1
 1630 21ed 52       		.uleb128 0x52
 1631 21ee 5F5F4352 		.ascii "__CRT_GLOB_USE_MSVCRT__ 0x0001\0"
 1631      545F474C 
 1631      4F425F55 
 1631      53455F4D 
 1631      53564352 
 1632 220d 01       		.byte	0x1
 1633 220e 57       		.uleb128 0x57
 1634 220f 5F5F4352 		.ascii "__CRT_GLOB_USE_MINGW__ 0x0002\0"
 1634      545F474C 
 1634      4F425F55 
 1634      53455F4D 
 1634      494E4757 
 1635 222d 01       		.byte	0x1
 1636 222e 75       		.uleb128 0x75
 1637 222f 5F5F4352 		.ascii "__CRT_GLOB_USE_SINGLE_QUOTE__ 0x0010\0"
 1637      545F474C 
 1637      4F425F55 
 1637      53455F53 
 1637      494E474C 
 1638 2254 01       		.byte	0x1
 1639 2255 76       		.uleb128 0x76
 1640 2256 5F5F4352 		.ascii "__CRT_GLOB_BRACKET_GROUPS__ 0x0020\0"
 1640      545F474C 
 1640      4F425F42 
 1640      5241434B 
 1640      45545F47 
 1641 2279 01       		.byte	0x1
 1642 227a 77       		.uleb128 0x77
 1643 227b 5F5F4352 		.ascii "__CRT_GLOB_CASE_SENSITIVE__ 0x0040\0"
 1643      545F474C 
 1643      4F425F43 
 1643      4153455F 
 1643      53454E53 
 1644 229e 01       		.byte	0x1
 1645 229f 8001     		.uleb128 0x80
 1646 22a1 5F5F4352 		.ascii "__CRT_GLOB_ESCAPE_CHAR__ (char)(127)\0"
GAS LISTING C:\Users\PRESID~1\AppData\Local\Temp\cchcYGnu.s 			page 57


 1646      545F474C 
 1646      4F425F45 
 1646      53434150 
 1646      455F4348 
 1647 22c6 01       		.byte	0x1
 1648 22c7 8601     		.uleb128 0x86
 1649 22c9 5F5F4D49 		.ascii "__MINGW_ANSI_STDIO__ 0x0000000000000001ULL\0"
 1649      4E47575F 
 1649      414E5349 
 1649      5F535444 
 1649      494F5F5F 
 1650 22f4 01       		.byte	0x1
 1651 22f5 8B01     		.uleb128 0x8b
 1652 22f7 5F5F4D49 		.ascii "__MINGW_LC_EXTENSIONS__ 0x0000000000000050ULL\0"
 1652      4E47575F 
 1652      4C435F45 
 1652      5854454E 
 1652      53494F4E 
 1653 2325 01       		.byte	0x1
 1654 2326 8C01     		.uleb128 0x8c
 1655 2328 5F5F4D49 		.ascii "__MINGW_LC_MESSAGES__ 0x0000000000000010ULL\0"
 1655      4E47575F 
 1655      4C435F4D 
 1655      45535341 
 1655      4745535F 
 1656 2354 01       		.byte	0x1
 1657 2355 8D01     		.uleb128 0x8d
 1658 2357 5F5F4D49 		.ascii "__MINGW_LC_ENVVARS__ 0x0000000000000040ULL\0"
 1658      4E47575F 
 1658      4C435F45 
 1658      4E565641 
 1658      52535F5F 
 1659 2382 02       		.byte	0x2
 1660 2383 9201     		.uleb128 0x92
 1661 2385 5F5F6174 		.ascii "__attribute__\0"
 1661      74726962 
 1661      7574655F 
 1661      5F00
 1662 2393 01       		.byte	0x1
 1663 2394 C001     		.uleb128 0xc0
 1664 2396 5F5F4D49 		.ascii "__MINGW_IMPORT extern __attribute__ ((__dllimport__))\0"
 1664      4E47575F 
 1664      494D504F 
 1664      52542065 
 1664      78746572 
 1665 23cc 01       		.byte	0x1
 1666 23cd C601     		.uleb128 0xc6
 1667 23cf 5F435254 		.ascii "_CRTIMP \0"
 1667      494D5020 
 1667      00
 1668 23d8 01       		.byte	0x1
 1669 23d9 C901     		.uleb128 0xc9
 1670 23db 5F5F4445 		.ascii "__DECLSPEC_SUPPORTED \0"
 1670      434C5350 
 1670      45435F53 
 1670      5550504F 
 1670      52544544 
GAS LISTING C:\Users\PRESID~1\AppData\Local\Temp\cchcYGnu.s 			page 58


 1671 23f1 01       		.byte	0x1
 1672 23f2 DD01     		.uleb128 0xdd
 1673 23f4 5F5F696E 		.ascii "__int64 long long\0"
 1673      74363420 
 1673      6C6F6E67 
 1673      206C6F6E 
 1673      6700
 1674 2406 01       		.byte	0x1
 1675 2407 E001     		.uleb128 0xe0
 1676 2409 5F5F696E 		.ascii "__int32 long\0"
 1676      74333220 
 1676      6C6F6E67 
 1676      00
 1677 2416 01       		.byte	0x1
 1678 2417 E301     		.uleb128 0xe3
 1679 2419 5F5F696E 		.ascii "__int16 short\0"
 1679      74313620 
 1679      73686F72 
 1679      7400
 1680 2427 01       		.byte	0x1
 1681 2428 E601     		.uleb128 0xe6
 1682 242a 5F5F696E 		.ascii "__int8 char\0"
 1682      74382063 
 1682      68617200 
 1683 2436 01       		.byte	0x1
 1684 2437 E901     		.uleb128 0xe9
 1685 2439 5F5F736D 		.ascii "__small char\0"
 1685      616C6C20 
 1685      63686172 
 1685      00
 1686 2446 01       		.byte	0x1
 1687 2447 EC01     		.uleb128 0xec
 1688 2449 5F5F6879 		.ascii "__hyper long long\0"
 1688      70657220 
 1688      6C6F6E67 
 1688      206C6F6E 
 1688      6700
 1689 245b 01       		.byte	0x1
 1690 245c FA01     		.uleb128 0xfa
 1691 245e 5F5F4D49 		.ascii "__MINGW_GNUC_PREREQ(major,minor) (__GNUC__ > (major) || (__GNUC__ == (major) && __GNUC_MIN
 1691      4E47575F 
 1691      474E5543 
 1691      5F505245 
 1691      52455128 
 1692 24ca 01       		.byte	0x1
 1693 24cb 8902     		.uleb128 0x109
 1694 24cd 5F455854 		.ascii "_EXTERN_C extern\0"
 1694      45524E5F 
 1694      43206578 
 1694      7465726E 
 1694      00
 1695 24de 01       		.byte	0x1
 1696 24df 8A02     		.uleb128 0x10a
 1697 24e1 5F424547 		.ascii "_BEGIN_C_DECLS \0"
 1697      494E5F43 
 1697      5F444543 
 1697      4C532000 
GAS LISTING C:\Users\PRESID~1\AppData\Local\Temp\cchcYGnu.s 			page 59


 1698 24f1 01       		.byte	0x1
 1699 24f2 8B02     		.uleb128 0x10b
 1700 24f4 5F454E44 		.ascii "_END_C_DECLS \0"
 1700      5F435F44 
 1700      45434C53 
 1700      2000
 1701 2502 01       		.byte	0x1
 1702 2503 9002     		.uleb128 0x110
 1703 2505 5F5F4352 		.ascii "__CRT_INLINE extern __inline__\0"
 1703      545F494E 
 1703      4C494E45 
 1703      20657874 
 1703      65726E20 
 1704 2524 01       		.byte	0x1
 1705 2525 9A02     		.uleb128 0x11a
 1706 2527 5F435254 		.ascii "_CRTALIAS __CRT_INLINE __attribute__((__always_inline__))\0"
 1706      414C4941 
 1706      53205F5F 
 1706      4352545F 
 1706      494E4C49 
 1707 2561 01       		.byte	0x1
 1708 2562 9B02     		.uleb128 0x11b
 1709 2564 5F5F4352 		.ascii "__CRT_ALIAS __CRT_INLINE __attribute__((__always_inline__))\0"
 1709      545F414C 
 1709      49415320 
 1709      5F5F4352 
 1709      545F494E 
 1710 25a0 01       		.byte	0x1
 1711 25a1 A902     		.uleb128 0x129
 1712 25a3 5F5F4A4D 		.ascii "__JMPSTUB__(__BUILD_HINT__) \0"
 1712      50535455 
 1712      425F5F28 
 1712      5F5F4255 
 1712      494C445F 
 1713 25c0 01       		.byte	0x1
 1714 25c1 AA02     		.uleb128 0x12a
 1715 25c3 5F5F4C49 		.ascii "__LIBIMPL__(__BUILD_HINT__) \0"
 1715      42494D50 
 1715      4C5F5F28 
 1715      5F5F4255 
 1715      494C445F 
 1716 25e0 01       		.byte	0x1
 1717 25e1 B002     		.uleb128 0x130
 1718 25e3 5F5F554E 		.ascii "__UNUSED_PARAM(x) x __attribute__ ((__unused__))\0"
 1718      55534544 
 1718      5F504152 
 1718      414D2878 
 1718      29207820 
 1719 2614 01       		.byte	0x1
 1720 2615 B702     		.uleb128 0x137
 1721 2617 5F5F4D49 		.ascii "__MINGW_ATTRIB_NORETURN __attribute__ ((__noreturn__))\0"
 1721      4E47575F 
 1721      41545452 
 1721      49425F4E 
 1721      4F524554 
 1722 264e 01       		.byte	0x1
 1723 264f B802     		.uleb128 0x138
GAS LISTING C:\Users\PRESID~1\AppData\Local\Temp\cchcYGnu.s 			page 60


 1724 2651 5F5F4D49 		.ascii "__MINGW_ATTRIB_CONST __attribute__ ((__const__))\0"
 1724      4E47575F 
 1724      41545452 
 1724      49425F43 
 1724      4F4E5354 
 1725 2682 01       		.byte	0x1
 1726 2683 BF02     		.uleb128 0x13f
 1727 2685 5F5F4D49 		.ascii "__MINGW_ATTRIB_MALLOC __attribute__ ((__malloc__))\0"
 1727      4E47575F 
 1727      41545452 
 1727      49425F4D 
 1727      414C4C4F 
 1728 26b8 01       		.byte	0x1
 1729 26b9 C002     		.uleb128 0x140
 1730 26bb 5F5F4D49 		.ascii "__MINGW_ATTRIB_PURE __attribute__ ((__pure__))\0"
 1730      4E47575F 
 1730      41545452 
 1730      49425F50 
 1730      55524520 
 1731 26ea 01       		.byte	0x1
 1732 26eb CA02     		.uleb128 0x14a
 1733 26ed 5F5F4D49 		.ascii "__MINGW_ATTRIB_NONNULL(arg) __attribute__ ((__nonnull__ (arg)))\0"
 1733      4E47575F 
 1733      41545452 
 1733      49425F4E 
 1733      4F4E4E55 
 1734 272d 01       		.byte	0x1
 1735 272e D002     		.uleb128 0x150
 1736 2730 5F5F4D49 		.ascii "__MINGW_ATTRIB_DEPRECATED __attribute__ ((__deprecated__))\0"
 1736      4E47575F 
 1736      41545452 
 1736      49425F44 
 1736      45505245 
 1737 276b 01       		.byte	0x1
 1738 276c D602     		.uleb128 0x156
 1739 276e 5F5F4D49 		.ascii "__MINGW_NOTHROW __attribute__ ((__nothrow__))\0"
 1739      4E47575F 
 1739      4E4F5448 
 1739      524F5720 
 1739      5F5F6174 
 1740 279c 01       		.byte	0x1
 1741 279d E102     		.uleb128 0x161
 1742 279f 5F5F4D53 		.ascii "__MSVCRT_VERSION__ 0x0600\0"
 1742      56435254 
 1742      5F564552 
 1742      53494F4E 
 1742      5F5F2030 
 1743 27b9 01       		.byte	0x1
 1744 27ba F502     		.uleb128 0x175
 1745 27bc 5F5F5553 		.ascii "__USE_MINGW_ANSI_STDIO 1\0"
 1745      455F4D49 
 1745      4E47575F 
 1745      414E5349 
 1745      5F535444 
 1746 27d5 04       		.byte	0x4
 1747 27d6 01       		.byte	0x1
 1748 27d7 16       		.uleb128 0x16
GAS LISTING C:\Users\PRESID~1\AppData\Local\Temp\cchcYGnu.s 			page 61


 1749 27d8 5F5F6E65 		.ascii "__need_size_t \0"
 1749      65645F73 
 1749      697A655F 
 1749      742000
 1750 27e7 01       		.byte	0x1
 1751 27e8 17       		.uleb128 0x17
 1752 27e9 5F5F6E65 		.ascii "__need_NULL \0"
 1752      65645F4E 
 1752      554C4C20 
 1752      00
 1753 27f6 01       		.byte	0x1
 1754 27f7 18       		.uleb128 0x18
 1755 27f8 5F5F6E65 		.ascii "__need_wchar_t \0"
 1755      65645F77 
 1755      63686172 
 1755      5F742000 
 1756 2808 01       		.byte	0x1
 1757 2809 19       		.uleb128 0x19
 1758 280a 5F5F6E65 		.ascii "__need_wint_t \0"
 1758      65645F77 
 1758      696E745F 
 1758      742000
 1759              		.file 25 "d:/programm/mingw/lib/gcc/mingw32/4.9.3/include/stddef.h"
 1760 2819 03       		.byte	0x3
 1761 281a 1A       		.uleb128 0x1a
 1762 281b 19       		.uleb128 0x19
 1763 281c 01       		.byte	0x1
 1764 281d B801     		.uleb128 0xb8
 1765 281f 5F5F7369 		.ascii "__size_t__ \0"
 1765      7A655F74 
 1765      5F5F2000 
 1766 282b 01       		.byte	0x1
 1767 282c B901     		.uleb128 0xb9
 1768 282e 5F5F5349 		.ascii "__SIZE_T__ \0"
 1768      5A455F54 
 1768      5F5F2000 
 1769 283a 01       		.byte	0x1
 1770 283b BA01     		.uleb128 0xba
 1771 283d 5F53495A 		.ascii "_SIZE_T \0"
 1771      455F5420 
 1771      00
 1772 2846 01       		.byte	0x1
 1773 2847 BB01     		.uleb128 0xbb
 1774 2849 5F535953 		.ascii "_SYS_SIZE_T_H \0"
 1774      5F53495A 
 1774      455F545F 
 1774      482000
 1775 2858 01       		.byte	0x1
 1776 2859 BC01     		.uleb128 0xbc
 1777 285b 5F545F53 		.ascii "_T_SIZE_ \0"
 1777      495A455F 
 1777      2000
 1778 2865 01       		.byte	0x1
 1779 2866 BD01     		.uleb128 0xbd
 1780 2868 5F545F53 		.ascii "_T_SIZE \0"
 1780      495A4520 
 1780      00
GAS LISTING C:\Users\PRESID~1\AppData\Local\Temp\cchcYGnu.s 			page 62


 1781 2871 01       		.byte	0x1
 1782 2872 BE01     		.uleb128 0xbe
 1783 2874 5F5F5349 		.ascii "__SIZE_T \0"
 1783      5A455F54 
 1783      2000
 1784 287e 01       		.byte	0x1
 1785 287f BF01     		.uleb128 0xbf
 1786 2881 5F53495A 		.ascii "_SIZE_T_ \0"
 1786      455F545F 
 1786      2000
 1787 288b 01       		.byte	0x1
 1788 288c C001     		.uleb128 0xc0
 1789 288e 5F425344 		.ascii "_BSD_SIZE_T_ \0"
 1789      5F53495A 
 1789      455F545F 
 1789      2000
 1790 289c 01       		.byte	0x1
 1791 289d C101     		.uleb128 0xc1
 1792 289f 5F53495A 		.ascii "_SIZE_T_DEFINED_ \0"
 1792      455F545F 
 1792      44454649 
 1792      4E45445F 
 1792      2000
 1793 28b1 01       		.byte	0x1
 1794 28b2 C201     		.uleb128 0xc2
 1795 28b4 5F53495A 		.ascii "_SIZE_T_DEFINED \0"
 1795      455F545F 
 1795      44454649 
 1795      4E454420 
 1795      00
 1796 28c5 01       		.byte	0x1
 1797 28c6 C301     		.uleb128 0xc3
 1798 28c8 5F425344 		.ascii "_BSD_SIZE_T_DEFINED_ \0"
 1798      5F53495A 
 1798      455F545F 
 1798      44454649 
 1798      4E45445F 
 1799 28de 01       		.byte	0x1
 1800 28df C401     		.uleb128 0xc4
 1801 28e1 5F53495A 		.ascii "_SIZE_T_DECLARED \0"
 1801      455F545F 
 1801      4445434C 
 1801      41524544 
 1801      2000
 1802 28f3 01       		.byte	0x1
 1803 28f4 C501     		.uleb128 0xc5
 1804 28f6 5F5F5F69 		.ascii "___int_size_t_h \0"
 1804      6E745F73 
 1804      697A655F 
 1804      745F6820 
 1804      00
 1805 2907 01       		.byte	0x1
 1806 2908 C601     		.uleb128 0xc6
 1807 290a 5F474343 		.ascii "_GCC_SIZE_T \0"
 1807      5F53495A 
 1807      455F5420 
 1807      00
GAS LISTING C:\Users\PRESID~1\AppData\Local\Temp\cchcYGnu.s 			page 63


 1808 2917 01       		.byte	0x1
 1809 2918 C701     		.uleb128 0xc7
 1810 291a 5F53495A 		.ascii "_SIZET_ \0"
 1810      45545F20 
 1810      00
 1811 2923 01       		.byte	0x1
 1812 2924 CE01     		.uleb128 0xce
 1813 2926 5F5F7369 		.ascii "__size_t \0"
 1813      7A655F74 
 1813      2000
 1814 2930 02       		.byte	0x2
 1815 2931 EA01     		.uleb128 0xea
 1816 2933 5F5F6E65 		.ascii "__need_size_t\0"
 1816      65645F73 
 1816      697A655F 
 1816      7400
 1817 2941 01       		.byte	0x1
 1818 2942 8702     		.uleb128 0x107
 1819 2944 5F5F7763 		.ascii "__wchar_t__ \0"
 1819      6861725F 
 1819      745F5F20 
 1819      00
 1820 2951 01       		.byte	0x1
 1821 2952 8802     		.uleb128 0x108
 1822 2954 5F5F5743 		.ascii "__WCHAR_T__ \0"
 1822      4841525F 
 1822      545F5F20 
 1822      00
 1823 2961 01       		.byte	0x1
 1824 2962 8902     		.uleb128 0x109
 1825 2964 5F574348 		.ascii "_WCHAR_T \0"
 1825      41525F54 
 1825      2000
 1826 296e 01       		.byte	0x1
 1827 296f 8A02     		.uleb128 0x10a
 1828 2971 5F545F57 		.ascii "_T_WCHAR_ \0"
 1828      43484152 
 1828      5F2000
 1829 297c 01       		.byte	0x1
 1830 297d 8B02     		.uleb128 0x10b
 1831 297f 5F545F57 		.ascii "_T_WCHAR \0"
 1831      43484152 
 1831      2000
 1832 2989 01       		.byte	0x1
 1833 298a 8C02     		.uleb128 0x10c
 1834 298c 5F5F5743 		.ascii "__WCHAR_T \0"
 1834      4841525F 
 1834      542000
 1835 2997 01       		.byte	0x1
 1836 2998 8D02     		.uleb128 0x10d
 1837 299a 5F574348 		.ascii "_WCHAR_T_ \0"
 1837      41525F54 
 1837      5F2000
 1838 29a5 01       		.byte	0x1
 1839 29a6 8E02     		.uleb128 0x10e
 1840 29a8 5F425344 		.ascii "_BSD_WCHAR_T_ \0"
 1840      5F574348 
GAS LISTING C:\Users\PRESID~1\AppData\Local\Temp\cchcYGnu.s 			page 64


 1840      41525F54 
 1840      5F2000
 1841 29b7 01       		.byte	0x1
 1842 29b8 8F02     		.uleb128 0x10f
 1843 29ba 5F574348 		.ascii "_WCHAR_T_DEFINED_ \0"
 1843      41525F54 
 1843      5F444546 
 1843      494E4544 
 1843      5F2000
 1844 29cd 01       		.byte	0x1
 1845 29ce 9002     		.uleb128 0x110
 1846 29d0 5F574348 		.ascii "_WCHAR_T_DEFINED \0"
 1846      41525F54 
 1846      5F444546 
 1846      494E4544 
 1846      2000
 1847 29e2 01       		.byte	0x1
 1848 29e3 9102     		.uleb128 0x111
 1849 29e5 5F574348 		.ascii "_WCHAR_T_H \0"
 1849      41525F54 
 1849      5F482000 
 1850 29f1 01       		.byte	0x1
 1851 29f2 9202     		.uleb128 0x112
 1852 29f4 5F5F5F69 		.ascii "___int_wchar_t_h \0"
 1852      6E745F77 
 1852      63686172 
 1852      5F745F68 
 1852      2000
 1853 2a06 01       		.byte	0x1
 1854 2a07 9302     		.uleb128 0x113
 1855 2a09 5F5F494E 		.ascii "__INT_WCHAR_T_H \0"
 1855      545F5743 
 1855      4841525F 
 1855      545F4820 
 1855      00
 1856 2a1a 01       		.byte	0x1
 1857 2a1b 9402     		.uleb128 0x114
 1858 2a1d 5F474343 		.ascii "_GCC_WCHAR_T \0"
 1858      5F574348 
 1858      41525F54 
 1858      2000
 1859 2a2b 01       		.byte	0x1
 1860 2a2c 9502     		.uleb128 0x115
 1861 2a2e 5F574348 		.ascii "_WCHAR_T_DECLARED \0"
 1861      41525F54 
 1861      5F444543 
 1861      4C415245 
 1861      442000
 1862 2a41 02       		.byte	0x2
 1863 2a42 A202     		.uleb128 0x122
 1864 2a44 5F425344 		.ascii "_BSD_WCHAR_T_\0"
 1864      5F574348 
 1864      41525F54 
 1864      5F00
 1865 2a52 02       		.byte	0x2
 1866 2a53 D702     		.uleb128 0x157
 1867 2a55 5F5F6E65 		.ascii "__need_wchar_t\0"
GAS LISTING C:\Users\PRESID~1\AppData\Local\Temp\cchcYGnu.s 			page 65


 1867      65645F77 
 1867      63686172 
 1867      5F7400
 1868 2a64 01       		.byte	0x1
 1869 2a65 DC02     		.uleb128 0x15c
 1870 2a67 5F57494E 		.ascii "_WINT_T \0"
 1870      545F5420 
 1870      00
 1871 2a70 02       		.byte	0x2
 1872 2a71 E302     		.uleb128 0x163
 1873 2a73 5F5F6E65 		.ascii "__need_wint_t\0"
 1873      65645F77 
 1873      696E745F 
 1873      7400
 1874 2a81 02       		.byte	0x2
 1875 2a82 8D03     		.uleb128 0x18d
 1876 2a84 4E554C4C 		.ascii "NULL\0"
 1876      00
 1877 2a89 01       		.byte	0x1
 1878 2a8a 9203     		.uleb128 0x192
 1879 2a8c 4E554C4C 		.ascii "NULL ((void *)0)\0"
 1879      20282876 
 1879      6F696420 
 1879      2A293029 
 1879      00
 1880 2a9d 02       		.byte	0x2
 1881 2a9e 9803     		.uleb128 0x198
 1882 2aa0 5F5F6E65 		.ascii "__need_NULL\0"
 1882      65645F4E 
 1882      554C4C00 
 1883 2aac 04       		.byte	0x4
 1884 2aad 01       		.byte	0x1
 1885 2aae 1B       		.uleb128 0x1b
 1886 2aaf 5F5F6E65 		.ascii "__need___va_list \0"
 1886      65645F5F 
 1886      5F76615F 
 1886      6C697374 
 1886      2000
 1887              		.file 26 "d:/programm/mingw/lib/gcc/mingw32/4.9.3/include/stdarg.h"
 1888 2ac1 03       		.byte	0x3
 1889 2ac2 1C       		.uleb128 0x1c
 1890 2ac3 1A       		.uleb128 0x1a
 1891 2ac4 02       		.byte	0x2
 1892 2ac5 22       		.uleb128 0x22
 1893 2ac6 5F5F6E65 		.ascii "__need___va_list\0"
 1893      65645F5F 
 1893      5F76615F 
 1893      6C697374 
 1893      00
 1894 2ad7 01       		.byte	0x1
 1895 2ad8 27       		.uleb128 0x27
 1896 2ad9 5F5F474E 		.ascii "__GNUC_VA_LIST \0"
 1896      55435F56 
 1896      415F4C49 
 1896      53542000 
 1897 2ae9 04       		.byte	0x4
 1898 2aea 01       		.byte	0x1
GAS LISTING C:\Users\PRESID~1\AppData\Local\Temp\cchcYGnu.s 			page 66


 1899 2aeb 21       		.uleb128 0x21
 1900 2aec 5F494F52 		.ascii "_IOREAD 1\0"
 1900      45414420 
 1900      3100
 1901 2af6 01       		.byte	0x1
 1902 2af7 22       		.uleb128 0x22
 1903 2af8 5F494F57 		.ascii "_IOWRT 2\0"
 1903      52542032 
 1903      00
 1904 2b01 01       		.byte	0x1
 1905 2b02 23       		.uleb128 0x23
 1906 2b03 5F494F52 		.ascii "_IORW 0x0080\0"
 1906      57203078 
 1906      30303830 
 1906      00
 1907 2b10 01       		.byte	0x1
 1908 2b11 2A       		.uleb128 0x2a
 1909 2b12 53544449 		.ascii "STDIN_FILENO 0\0"
 1909      4E5F4649 
 1909      4C454E4F 
 1909      203000
 1910 2b21 01       		.byte	0x1
 1911 2b22 2B       		.uleb128 0x2b
 1912 2b23 5354444F 		.ascii "STDOUT_FILENO 1\0"
 1912      55545F46 
 1912      494C454E 
 1912      4F203100 
 1913 2b33 01       		.byte	0x1
 1914 2b34 2C       		.uleb128 0x2c
 1915 2b35 53544445 		.ascii "STDERR_FILENO 2\0"
 1915      52525F46 
 1915      494C454E 
 1915      4F203200 
 1916 2b45 01       		.byte	0x1
 1917 2b46 2F       		.uleb128 0x2f
 1918 2b47 454F4620 		.ascii "EOF (-1)\0"
 1918      282D3129 
 1918      00
 1919 2b50 01       		.byte	0x1
 1920 2b51 37       		.uleb128 0x37
 1921 2b52 46494C45 		.ascii "FILENAME_MAX (260)\0"
 1921      4E414D45 
 1921      5F4D4158 
 1921      20283236 
 1921      302900
 1922 2b65 01       		.byte	0x1
 1923 2b66 3E       		.uleb128 0x3e
 1924 2b67 464F5045 		.ascii "FOPEN_MAX (20)\0"
 1924      4E5F4D41 
 1924      58202832 
 1924      302900
 1925 2b76 01       		.byte	0x1
 1926 2b77 41       		.uleb128 0x41
 1927 2b78 544D505F 		.ascii "TMP_MAX 32767\0"
 1927      4D415820 
 1927      33323736 
 1927      3700
GAS LISTING C:\Users\PRESID~1\AppData\Local\Temp\cchcYGnu.s 			page 67


 1928 2b86 01       		.byte	0x1
 1929 2b87 48       		.uleb128 0x48
 1930 2b88 5F505F74 		.ascii "_P_tmpdir \"\\\\\"\0"
 1930      6D706469 
 1930      7220225C 
 1930      5C2200
 1931 2b97 01       		.byte	0x1
 1932 2b98 4C       		.uleb128 0x4c
 1933 2b99 5F77505F 		.ascii "_wP_tmpdir L\"\\\\\"\0"
 1933      746D7064 
 1933      6972204C 
 1933      225C5C22 
 1933      00
 1934 2baa 01       		.byte	0x1
 1935 2bab 54       		.uleb128 0x54
 1936 2bac 4C5F746D 		.ascii "L_tmpnam (16)\0"
 1936      706E616D 
 1936      20283136 
 1936      2900
 1937 2bba 01       		.byte	0x1
 1938 2bbb 56       		.uleb128 0x56
 1939 2bbc 5F494F46 		.ascii "_IOFBF 0x0000\0"
 1939      42462030 
 1939      78303030 
 1939      3000
 1940 2bca 01       		.byte	0x1
 1941 2bcb 57       		.uleb128 0x57
 1942 2bcc 5F494F4C 		.ascii "_IOLBF 0x0040\0"
 1942      42462030 
 1942      78303034 
 1942      3000
 1943 2bda 01       		.byte	0x1
 1944 2bdb 58       		.uleb128 0x58
 1945 2bdc 5F494F4E 		.ascii "_IONBF 0x0004\0"
 1945      42462030 
 1945      78303030 
 1945      3400
 1946 2bea 01       		.byte	0x1
 1947 2beb 5A       		.uleb128 0x5a
 1948 2bec 5F494F4D 		.ascii "_IOMYBUF 0x0008\0"
 1948      59425546 
 1948      20307830 
 1948      30303800 
 1949 2bfc 01       		.byte	0x1
 1950 2bfd 5B       		.uleb128 0x5b
 1951 2bfe 5F494F45 		.ascii "_IOEOF 0x0010\0"
 1951      4F462030 
 1951      78303031 
 1951      3000
 1952 2c0c 01       		.byte	0x1
 1953 2c0d 5C       		.uleb128 0x5c
 1954 2c0e 5F494F45 		.ascii "_IOERR 0x0020\0"
 1954      52522030 
 1954      78303032 
 1954      3000
 1955 2c1c 01       		.byte	0x1
 1956 2c1d 5D       		.uleb128 0x5d
GAS LISTING C:\Users\PRESID~1\AppData\Local\Temp\cchcYGnu.s 			page 68


 1957 2c1e 5F494F53 		.ascii "_IOSTRG 0x0040\0"
 1957      54524720 
 1957      30783030 
 1957      343000
 1958 2c2d 01       		.byte	0x1
 1959 2c2e 65       		.uleb128 0x65
 1960 2c2f 42554653 		.ascii "BUFSIZ 512\0"
 1960      495A2035 
 1960      313200
 1961 2c3a 01       		.byte	0x1
 1962 2c3b 6B       		.uleb128 0x6b
 1963 2c3c 5345454B 		.ascii "SEEK_SET 0\0"
 1963      5F534554 
 1963      203000
 1964 2c47 01       		.byte	0x1
 1965 2c48 6C       		.uleb128 0x6c
 1966 2c49 5345454B 		.ascii "SEEK_CUR 1\0"
 1966      5F435552 
 1966      203100
 1967 2c54 01       		.byte	0x1
 1968 2c55 6D       		.uleb128 0x6d
 1969 2c56 5345454B 		.ascii "SEEK_END 2\0"
 1969      5F454E44 
 1969      203200
 1970 2c61 01       		.byte	0x1
 1971 2c62 73       		.uleb128 0x73
 1972 2c63 5F5F5641 		.ascii "__VALIST __gnuc_va_list\0"
 1972      4C495354 
 1972      205F5F67 
 1972      6E75635F 
 1972      76615F6C 
 1973 2c7b 01       		.byte	0x1
 1974 2c7c 8101     		.uleb128 0x81
 1975 2c7e 5F46494C 		.ascii "_FILE_DEFINED \0"
 1975      455F4445 
 1975      46494E45 
 1975      442000
 1976 2c8d 01       		.byte	0x1
 1977 2c8e 9F01     		.uleb128 0x9f
 1978 2c90 73746469 		.ascii "stdin (&_iob[STDIN_FILENO])\0"
 1978      6E202826 
 1978      5F696F62 
 1978      5B535444 
 1978      494E5F46 
 1979 2cac 01       		.byte	0x1
 1980 2cad A001     		.uleb128 0xa0
 1981 2caf 7374646F 		.ascii "stdout (&_iob[STDOUT_FILENO])\0"
 1981      75742028 
 1981      265F696F 
 1981      625B5354 
 1981      444F5554 
 1982 2ccd 01       		.byte	0x1
 1983 2cce A101     		.uleb128 0xa1
 1984 2cd0 73746465 		.ascii "stderr (&_iob[STDERR_FILENO])\0"
 1984      72722028 
 1984      265F696F 
 1984      625B5354 
GAS LISTING C:\Users\PRESID~1\AppData\Local\Temp\cchcYGnu.s 			page 69


 1984      44455252 
 1985 2cee 02       		.byte	0x2
 1986 2cef C801     		.uleb128 0xc8
 1987 2cf1 5F5F6D69 		.ascii "__mingw_stdio_redirect__\0"
 1987      6E67775F 
 1987      73746469 
 1987      6F5F7265 
 1987      64697265 
 1988 2d0a 01       		.byte	0x1
 1989 2d0b C901     		.uleb128 0xc9
 1990 2d0d 5F5F6D69 		.ascii "__mingw_stdio_redirect__(F) __cdecl __MINGW_NOTHROW __mingw_ ##F\0"
 1990      6E67775F 
 1990      73746469 
 1990      6F5F7265 
 1990      64697265 
 1991 2d4e 02       		.byte	0x2
 1992 2d4f D801     		.uleb128 0xd8
 1993 2d51 5F5F6D69 		.ascii "__mingw_stdio_redirect__\0"
 1993      6E67775F 
 1993      73746469 
 1993      6F5F7265 
 1993      64697265 
 1994 2d6a 01       		.byte	0x1
 1995 2d6b E701     		.uleb128 0xe7
 1996 2d6d 5F5F6D69 		.ascii "__mingw_stdio_redirect__ static __inline__ __cdecl __MINGW_NOTHROW\0"
 1996      6E67775F 
 1996      73746469 
 1996      6F5F7265 
 1996      64697265 
 1997 2db0 02       		.byte	0x2
 1998 2db1 B002     		.uleb128 0x130
 1999 2db3 5F5F6D69 		.ascii "__mingw_stdio_redirect__\0"
 1999      6E67775F 
 1999      73746469 
 1999      6F5F7265 
 1999      64697265 
 2000 2dcc 01       		.byte	0x1
 2001 2dcd B102     		.uleb128 0x131
 2002 2dcf 5F5F6D69 		.ascii "__mingw_stdio_redirect__(F) __cdecl __MINGW_NOTHROW __msvcrt_ ##F\0"
 2002      6E67775F 
 2002      73746469 
 2002      6F5F7265 
 2002      64697265 
 2003 2e11 02       		.byte	0x2
 2004 2e12 BA02     		.uleb128 0x13a
 2005 2e14 5F5F6D69 		.ascii "__mingw_stdio_redirect__\0"
 2005      6E67775F 
 2005      73746469 
 2005      6F5F7265 
 2005      64697265 
 2006 2e2d 01       		.byte	0x1
 2007 2e2e DB03     		.uleb128 0x1db
 2008 2e30 66656F66 		.ascii "feof(__F) ((__F)->_flag & _IOEOF)\0"
 2008      285F5F46 
 2008      29202828 
 2008      5F5F4629 
 2008      2D3E5F66 
GAS LISTING C:\Users\PRESID~1\AppData\Local\Temp\cchcYGnu.s 			page 70


 2009 2e52 01       		.byte	0x1
 2010 2e53 DC03     		.uleb128 0x1dc
 2011 2e55 66657272 		.ascii "ferror(__F) ((__F)->_flag & _IOERR)\0"
 2011      6F72285F 
 2011      5F462920 
 2011      28285F5F 
 2011      46292D3E 
 2012 2e79 01       		.byte	0x1
 2013 2e7a AC05     		.uleb128 0x2ac
 2014 2e7c 5F575354 		.ascii "_WSTDIO_DEFINED \0"
 2014      44494F5F 
 2014      44454649 
 2014      4E454420 
 2014      00
 2015 2e8d 04       		.byte	0x4
 2016              		.file 27 "d:/programm/mingw/include/time.h"
 2017 2e8e 03       		.byte	0x3
 2018 2e8f 07       		.uleb128 0x7
 2019 2e90 1B       		.uleb128 0x1b
 2020 2e91 01       		.byte	0x1
 2021 2e92 21       		.uleb128 0x21
 2022 2e93 5F54494D 		.ascii "_TIME_H \0"
 2022      455F4820 
 2022      00
 2023 2e9c 01       		.byte	0x1
 2024 2e9d 29       		.uleb128 0x29
 2025 2e9e 434C4F43 		.ascii "CLOCKS_PER_SEC ((clock_t)(1000))\0"
 2025      4B535F50 
 2025      45525F53 
 2025      45432028 
 2025      28636C6F 
 2026 2ebf 01       		.byte	0x1
 2027 2ec0 2A       		.uleb128 0x2a
 2028 2ec1 434C4B5F 		.ascii "CLK_TCK CLOCKS_PER_SEC\0"
 2028      54434B20 
 2028      434C4F43 
 2028      4B535F50 
 2028      45525F53 
 2029 2ed8 01       		.byte	0x1
 2030 2ed9 33       		.uleb128 0x33
 2031 2eda 5F5F6E65 		.ascii "__need_time_t \0"
 2031      65645F74 
 2031      696D655F 
 2031      742000
 2032 2ee9 01       		.byte	0x1
 2033 2eea 34       		.uleb128 0x34
 2034 2eeb 5F5F6E65 		.ascii "__need_struct_timespec \0"
 2034      65645F73 
 2034      74727563 
 2034      745F7469 
 2034      6D657370 
 2035 2f03 03       		.byte	0x3
 2036 2f04 35       		.uleb128 0x35
 2037 2f05 03       		.uleb128 0x3
 2038 2f06 01       		.byte	0x1
 2039 2f07 57       		.uleb128 0x57
 2040 2f08 5F5F6861 		.ascii "__have_typedef_time_t 1\0"
GAS LISTING C:\Users\PRESID~1\AppData\Local\Temp\cchcYGnu.s 			page 71


 2040      76655F74 
 2040      79706564 
 2040      65665F74 
 2040      696D655F 
 2041 2f20 01       		.byte	0x1
 2042 2f21 79       		.uleb128 0x79
 2043 2f22 5F5F7374 		.ascii "__struct_timespec_defined 1\0"
 2043      72756374 
 2043      5F74696D 
 2043      65737065 
 2043      635F6465 
 2044 2f3e 04       		.byte	0x4
 2045 2f3f 01       		.byte	0x1
 2046 2f40 3A       		.uleb128 0x3a
 2047 2f41 5F5F6E65 		.ascii "__need_NULL \0"
 2047      65645F4E 
 2047      554C4C20 
 2047      00
 2048 2f4e 01       		.byte	0x1
 2049 2f4f 3B       		.uleb128 0x3b
 2050 2f50 5F5F6E65 		.ascii "__need_wchar_t \0"
 2050      65645F77 
 2050      63686172 
 2050      5F742000 
 2051 2f60 01       		.byte	0x1
 2052 2f61 3C       		.uleb128 0x3c
 2053 2f62 5F5F6E65 		.ascii "__need_size_t \0"
 2053      65645F73 
 2053      697A655F 
 2053      742000
 2054 2f71 03       		.byte	0x3
 2055 2f72 3D       		.uleb128 0x3d
 2056 2f73 19       		.uleb128 0x19
 2057 2f74 02       		.byte	0x2
 2058 2f75 EA01     		.uleb128 0xea
 2059 2f77 5F5F6E65 		.ascii "__need_size_t\0"
 2059      65645F73 
 2059      697A655F 
 2059      7400
 2060 2f85 02       		.byte	0x2
 2061 2f86 D702     		.uleb128 0x157
 2062 2f88 5F5F6E65 		.ascii "__need_wchar_t\0"
 2062      65645F77 
 2062      63686172 
 2062      5F7400
 2063 2f97 02       		.byte	0x2
 2064 2f98 8D03     		.uleb128 0x18d
 2065 2f9a 4E554C4C 		.ascii "NULL\0"
 2065      00
 2066 2f9f 01       		.byte	0x1
 2067 2fa0 9203     		.uleb128 0x192
 2068 2fa2 4E554C4C 		.ascii "NULL ((void *)0)\0"
 2068      20282876 
 2068      6F696420 
 2068      2A293029 
 2068      00
 2069 2fb3 02       		.byte	0x2
GAS LISTING C:\Users\PRESID~1\AppData\Local\Temp\cchcYGnu.s 			page 72


 2070 2fb4 9803     		.uleb128 0x198
 2071 2fb6 5F5F6E65 		.ascii "__need_NULL\0"
 2071      65645F4E 
 2071      554C4C00 
 2072 2fc2 04       		.byte	0x4
 2073 2fc3 01       		.byte	0x1
 2074 2fc4 56       		.uleb128 0x56
 2075 2fc5 5F544D5F 		.ascii "_TM_DEFINED \0"
 2075      44454649 
 2075      4E454420 
 2075      00
 2076 2fd2 01       		.byte	0x1
 2077 2fd3 8202     		.uleb128 0x102
 2078 2fd5 5F575449 		.ascii "_WTIME_DEFINED \0"
 2078      4D455F44 
 2078      4546494E 
 2078      45442000 
 2079 2fe5 04       		.byte	0x4
 2080 2fe6 04       		.byte	0x4
 2081 2fe7 00       		.byte	0
 2082              		.section	.debug_line,"dr"
 2083              	Ldebug_line0:
 2084 0000 38040000 		.section	.debug_str,"dr"
 2084      0200FC03 
 2084      00000101 
 2084      FB0E0D00 
 2084      01010101 
 2085              		.ident	"GCC: (GNU) 4.9.3"
GAS LISTING C:\Users\PRESID~1\AppData\Local\Temp\cchcYGnu.s 			page 73


DEFINED SYMBOLS
                            *ABS*:00000000 os_sim_main.c
C:\Users\PRESID~1\AppData\Local\Temp\cchcYGnu.s:5      .text:00000000 _printf
C:\Users\PRESID~1\AppData\Local\Temp\cchcYGnu.s:47     .text:00000029 _main

UNDEFINED SYMBOLS
___main
___mingw_vprintf
_time
_OS_START_OS
_OS_STATE_HANDLER
_OS_ISRHANDLERC0
_OS_ISRHANDLERC1
_OS_ISRHANDLERC2
_OS_ISRHANDLERC3
_getchar
