GAS LISTING C:\Users\PRESID~1\AppData\Local\Temp\cc40GQyN.s 			page 1


   1              		.file	"os_shutdown.c"
   2              		.text
   3              	Ltext0:
   5              	_os_deinit_hw:
   6              	LFB0:
   7              		.file 1 "E:/NeuOrga/Programmieren/c_cpp/github_os/input/src/os_base/os_shutdown.c"
   1:E:/NeuOrga/Programmieren/c_cpp/github_os/input/src/os_base\os_shutdown.c **** #include "os_firstinc.h"
   2:E:/NeuOrga/Programmieren/c_cpp/github_os/input/src/os_base\os_shutdown.c **** #include "OS_shutdown.h"
   3:E:/NeuOrga/Programmieren/c_cpp/github_os/input/src/os_base\os_shutdown.c **** #include "os_start_ext_prg.h"
   4:E:/NeuOrga/Programmieren/c_cpp/github_os/input/src/os_base\os_shutdown.c **** LOCAL void os_deinit_hw(void);
   5:E:/NeuOrga/Programmieren/c_cpp/github_os/input/src/os_base\os_shutdown.c **** LOCAL void os_deinit_sw(void);
   6:E:/NeuOrga/Programmieren/c_cpp/github_os/input/src/os_base\os_shutdown.c **** LOCAL void os_deinit_mc(void);
   7:E:/NeuOrga/Programmieren/c_cpp/github_os/input/src/os_base\os_shutdown.c **** 
   8:E:/NeuOrga/Programmieren/c_cpp/github_os/input/src/os_base\os_shutdown.c **** void os_deinit_hw(void)
   9:E:/NeuOrga/Programmieren/c_cpp/github_os/input/src/os_base\os_shutdown.c **** {
   8              		.loc 1 9 0
   9              		.cfi_startproc
  10 0000 55       		pushl	%ebp
  11              		.cfi_def_cfa_offset 8
  12              		.cfi_offset 5, -8
  13 0001 89E5     		movl	%esp, %ebp
  14              		.cfi_def_cfa_register 5
  10:E:/NeuOrga/Programmieren/c_cpp/github_os/input/src/os_base\os_shutdown.c ****    /* no deinit needed because nothing was initialized */
  11:E:/NeuOrga/Programmieren/c_cpp/github_os/input/src/os_base\os_shutdown.c ****    /*QAC*/
  12:E:/NeuOrga/Programmieren/c_cpp/github_os/input/src/os_base\os_shutdown.c **** }
  15              		.loc 1 12 0
  16 0003 5D       		popl	%ebp
  17              		.cfi_restore 5
  18              		.cfi_def_cfa 4, 4
  19 0004 C3       		ret
  20              		.cfi_endproc
  21              	LFE0:
  23              	_os_deinit_sw:
  24              	LFB1:
  13:E:/NeuOrga/Programmieren/c_cpp/github_os/input/src/os_base\os_shutdown.c **** void os_deinit_sw(void)
  14:E:/NeuOrga/Programmieren/c_cpp/github_os/input/src/os_base\os_shutdown.c **** {
  25              		.loc 1 14 0
  26              		.cfi_startproc
  27 0005 55       		pushl	%ebp
  28              		.cfi_def_cfa_offset 8
  29              		.cfi_offset 5, -8
  30 0006 89E5     		movl	%esp, %ebp
  31              		.cfi_def_cfa_register 5
  15:E:/NeuOrga/Programmieren/c_cpp/github_os/input/src/os_base\os_shutdown.c ****    /* no deinit of sw needed */
  16:E:/NeuOrga/Programmieren/c_cpp/github_os/input/src/os_base\os_shutdown.c ****    /*QAC*/
  17:E:/NeuOrga/Programmieren/c_cpp/github_os/input/src/os_base\os_shutdown.c **** }
  32              		.loc 1 17 0
  33 0008 5D       		popl	%ebp
  34              		.cfi_restore 5
  35              		.cfi_def_cfa 4, 4
  36 0009 C3       		ret
  37              		.cfi_endproc
  38              	LFE1:
  40              	_os_deinit_mc:
  41              	LFB2:
  18:E:/NeuOrga/Programmieren/c_cpp/github_os/input/src/os_base\os_shutdown.c **** void os_deinit_mc(void)
  19:E:/NeuOrga/Programmieren/c_cpp/github_os/input/src/os_base\os_shutdown.c **** {
GAS LISTING C:\Users\PRESID~1\AppData\Local\Temp\cc40GQyN.s 			page 2


  42              		.loc 1 19 0
  43              		.cfi_startproc
  44 000a 55       		pushl	%ebp
  45              		.cfi_def_cfa_offset 8
  46              		.cfi_offset 5, -8
  47 000b 89E5     		movl	%esp, %ebp
  48              		.cfi_def_cfa_register 5
  49 000d 83EC08   		subl	$8, %esp
  20:E:/NeuOrga/Programmieren/c_cpp/github_os/input/src/os_base\os_shutdown.c ****    LLF_MPU_DISABLE();
  50              		.loc 1 20 0
  51 0010 E8000000 		call	_LLF_MPU_DISABLE
  51      00
  21:E:/NeuOrga/Programmieren/c_cpp/github_os/input/src/os_base\os_shutdown.c ****    LLF_DISABLE_INTERRUPTS_ALL_CORES();
  52              		.loc 1 21 0
  53 0015 E8000000 		call	_LLF_DISABLE_INTERRUPTS_ALL_CORES
  53      00
  22:E:/NeuOrga/Programmieren/c_cpp/github_os/input/src/os_base\os_shutdown.c ****    /*QAC*/
  23:E:/NeuOrga/Programmieren/c_cpp/github_os/input/src/os_base\os_shutdown.c **** }
  54              		.loc 1 23 0
  55 001a C9       		leave
  56              		.cfi_restore 5
  57              		.cfi_def_cfa 4, 4
  58 001b C3       		ret
  59              		.cfi_endproc
  60              	LFE2:
  61              		.globl	_OS_SHUTDOWN
  63              	_OS_SHUTDOWN:
  64              	LFB3:
  24:E:/NeuOrga/Programmieren/c_cpp/github_os/input/src/os_base\os_shutdown.c **** 
  25:E:/NeuOrga/Programmieren/c_cpp/github_os/input/src/os_base\os_shutdown.c **** void OS_SHUTDOWN(os_reset_type_t reset_typ, func_ptr_t addr)
  26:E:/NeuOrga/Programmieren/c_cpp/github_os/input/src/os_base\os_shutdown.c **** {
  65              		.loc 1 26 0
  66              		.cfi_startproc
  67 001c 55       		pushl	%ebp
  68              		.cfi_def_cfa_offset 8
  69              		.cfi_offset 5, -8
  70 001d 89E5     		movl	%esp, %ebp
  71              		.cfi_def_cfa_register 5
  72 001f 83EC18   		subl	$24, %esp
  27:E:/NeuOrga/Programmieren/c_cpp/github_os/input/src/os_base\os_shutdown.c ****    /* disable interrupts for all cores -> prevents task activation, etc*/
  28:E:/NeuOrga/Programmieren/c_cpp/github_os/input/src/os_base\os_shutdown.c ****    LLF_DISABLE_INTERRUPTS_ALL_CORES();
  73              		.loc 1 28 0
  74 0022 E8000000 		call	_LLF_DISABLE_INTERRUPTS_ALL_CORES
  74      00
  29:E:/NeuOrga/Programmieren/c_cpp/github_os/input/src/os_base\os_shutdown.c **** 
  30:E:/NeuOrga/Programmieren/c_cpp/github_os/input/src/os_base\os_shutdown.c ****    /* clear mmu config */
  31:E:/NeuOrga/Programmieren/c_cpp/github_os/input/src/os_base\os_shutdown.c ****    LLF_MPU_DISABLE();
  75              		.loc 1 31 0
  76 0027 E8000000 		call	_LLF_MPU_DISABLE
  76      00
  32:E:/NeuOrga/Programmieren/c_cpp/github_os/input/src/os_base\os_shutdown.c **** 
  33:E:/NeuOrga/Programmieren/c_cpp/github_os/input/src/os_base\os_shutdown.c ****    /* power done/reset system */
  34:E:/NeuOrga/Programmieren/c_cpp/github_os/input/src/os_base\os_shutdown.c ****    if(reset_typ == E_OS_RESET_POWERDOWN)
  77              		.loc 1 34 0
  78 002c 837D0801 		cmpl	$1, 8(%ebp)
  79 0030 7507     		jne	L5
  35:E:/NeuOrga/Programmieren/c_cpp/github_os/input/src/os_base\os_shutdown.c ****    {
GAS LISTING C:\Users\PRESID~1\AppData\Local\Temp\cc40GQyN.s 			page 3


  36:E:/NeuOrga/Programmieren/c_cpp/github_os/input/src/os_base\os_shutdown.c ****       LLF_MCU_SWITCH_OFF_POWER();
  80              		.loc 1 36 0
  81 0032 E8000000 		call	_LLF_MCU_SWITCH_OFF_POWER
  81      00
  82 0037 EB3D     		jmp	L6
  83              	L5:
  37:E:/NeuOrga/Programmieren/c_cpp/github_os/input/src/os_base\os_shutdown.c ****    }
  38:E:/NeuOrga/Programmieren/c_cpp/github_os/input/src/os_base\os_shutdown.c ****    else if(reset_typ == E_OS_RESET_HARDRESET) /* E_OS_RESET_HARDRESET */
  84              		.loc 1 38 0
  85 0039 837D0800 		cmpl	$0, 8(%ebp)
  86 003d 7507     		jne	L7
  39:E:/NeuOrga/Programmieren/c_cpp/github_os/input/src/os_base\os_shutdown.c ****    {
  40:E:/NeuOrga/Programmieren/c_cpp/github_os/input/src/os_base\os_shutdown.c ****       LLF_MCU_RESET_POWER();
  87              		.loc 1 40 0
  88 003f E8000000 		call	_LLF_MCU_RESET_POWER
  88      00
  89 0044 EB30     		jmp	L6
  90              	L7:
  41:E:/NeuOrga/Programmieren/c_cpp/github_os/input/src/os_base\os_shutdown.c ****    }
  42:E:/NeuOrga/Programmieren/c_cpp/github_os/input/src/os_base\os_shutdown.c ****    else if (reset_typ == E_OS_RESET_EXIT)
  91              		.loc 1 42 0
  92 0046 837D0802 		cmpl	$2, 8(%ebp)
  93 004a 752A     		jne	L6
  43:E:/NeuOrga/Programmieren/c_cpp/github_os/input/src/os_base\os_shutdown.c ****    {
  44:E:/NeuOrga/Programmieren/c_cpp/github_os/input/src/os_base\os_shutdown.c ****       os_deinit_hw();
  94              		.loc 1 44 0
  95 004c E8AFFFFF 		call	_os_deinit_hw
  95      FF
  45:E:/NeuOrga/Programmieren/c_cpp/github_os/input/src/os_base\os_shutdown.c ****       os_deinit_sw();
  96              		.loc 1 45 0
  97 0051 E8AFFFFF 		call	_os_deinit_sw
  97      FF
  46:E:/NeuOrga/Programmieren/c_cpp/github_os/input/src/os_base\os_shutdown.c ****       os_deinit_mc();
  98              		.loc 1 46 0
  99 0056 E8AFFFFF 		call	_os_deinit_mc
  99      FF
  47:E:/NeuOrga/Programmieren/c_cpp/github_os/input/src/os_base\os_shutdown.c ****       OS_START_EXT_PRG((func_ptr_t)addr, (uint32)0u, (uint32)0u);
 100              		.loc 1 47 0
 101 005b C7442408 		movl	$0, 8(%esp)
 101      00000000 
 102 0063 C7442404 		movl	$0, 4(%esp)
 102      00000000 
 103 006b 8B450C   		movl	12(%ebp), %eax
 104 006e 890424   		movl	%eax, (%esp)
 105 0071 E8000000 		call	_OS_START_EXT_PRG
 105      00
 106              	L6:
  48:E:/NeuOrga/Programmieren/c_cpp/github_os/input/src/os_base\os_shutdown.c ****    }
  49:E:/NeuOrga/Programmieren/c_cpp/github_os/input/src/os_base\os_shutdown.c ****    else
  50:E:/NeuOrga/Programmieren/c_cpp/github_os/input/src/os_base\os_shutdown.c ****    {
  51:E:/NeuOrga/Programmieren/c_cpp/github_os/input/src/os_base\os_shutdown.c ****       ;
  52:E:/NeuOrga/Programmieren/c_cpp/github_os/input/src/os_base\os_shutdown.c ****    }
  53:E:/NeuOrga/Programmieren/c_cpp/github_os/input/src/os_base\os_shutdown.c ****    OS_SET_SW_BUG(E_OS_BUG_RESET_EXIT_OR_SHUTDOWN_FAILED, E_FUNC_SHUTDOWN);
 107              		.loc 1 53 0
 108 0076 C7442404 		movl	$16, 4(%esp)
 108      10000000 
 109 007e C7042408 		movl	$8, (%esp)
GAS LISTING C:\Users\PRESID~1\AppData\Local\Temp\cc40GQyN.s 			page 4


 109      000000
 110 0085 E8000000 		call	_OS_SET_SW_BUG
 110      00
 111              	L8:
  54:E:/NeuOrga/Programmieren/c_cpp/github_os/input/src/os_base\os_shutdown.c ****    while(1)
  55:E:/NeuOrga/Programmieren/c_cpp/github_os/input/src/os_base\os_shutdown.c ****    {
  56:E:/NeuOrga/Programmieren/c_cpp/github_os/input/src/os_base\os_shutdown.c ****       /* if you enter here, the reset has failed to be executed.... */
  57:E:/NeuOrga/Programmieren/c_cpp/github_os/input/src/os_base\os_shutdown.c ****    }
 112              		.loc 1 57 0 discriminator 1
 113 008a EBFE     		jmp	L8
 114              		.cfi_endproc
 115              	LFE3:
 116              	Letext0:
 117              		.file 2 "E:/NeuOrga/Programmieren/c_cpp/github_os/input/src/os_base/../os_base/os_common.h"
 118              		.file 3 "E:/NeuOrga/Programmieren/c_cpp/github_os/input/src/os_base/../os_base/os_base_types.h"
 119              		.file 4 "E:/NeuOrga/Programmieren/c_cpp/github_os/input/src/os_base/OS_shutdown.h"