GAS LISTING C:\Users\PRESID~1\AppData\Local\Temp\cc3IHcck.s 			page 1


   1              		.file	"os_stack.c"
   2              		.text
   3              	Ltext0:
   4              		.globl	_OS_STACK_CHECK
   6              	_OS_STACK_CHECK:
   7              	LFB0:
   8              		.file 1 "E:/NeuOrga/Programmieren/c_cpp/github_os/input/src/os_base/os_stack.c"
   1:E:/NeuOrga/Programmieren/c_cpp/github_os/input/src/os_base\os_stack.c **** #include "os_firstinc.h"
   2:E:/NeuOrga/Programmieren/c_cpp/github_os/input/src/os_base\os_stack.c **** 
   3:E:/NeuOrga/Programmieren/c_cpp/github_os/input/src/os_base\os_stack.c **** void OS_STACK_CHECK(void)
   4:E:/NeuOrga/Programmieren/c_cpp/github_os/input/src/os_base\os_stack.c **** { 
   9              		.loc 1 4 0
  10              		.cfi_startproc
  11 0000 55       		pushl	%ebp
  12              		.cfi_def_cfa_offset 8
  13              		.cfi_offset 5, -8
  14 0001 89E5     		movl	%esp, %ebp
  15              		.cfi_def_cfa_register 5
  16 0003 83EC18   		subl	$24, %esp
   5:E:/NeuOrga/Programmieren/c_cpp/github_os/input/src/os_base\os_stack.c ****    /* the last 64 bytes are reserved for stack check for every stack
   6:E:/NeuOrga/Programmieren/c_cpp/github_os/input/src/os_base\os_stack.c ****    unsigned_char_t OS_MAIN_STACK[OS_MAIN_STACK_SIZE];
   7:E:/NeuOrga/Programmieren/c_cpp/github_os/input/src/os_base\os_stack.c **** 
   8:E:/NeuOrga/Programmieren/c_cpp/github_os/input/src/os_base\os_stack.c ****    the stack is starting at the highest address and growing to lower addresses -> pattern start on 
   9:E:/NeuOrga/Programmieren/c_cpp/github_os/input/src/os_base\os_stack.c **** 
  10:E:/NeuOrga/Programmieren/c_cpp/github_os/input/src/os_base\os_stack.c ****    */
  11:E:/NeuOrga/Programmieren/c_cpp/github_os/input/src/os_base\os_stack.c ****    static volatile uint32 stack_pos = 0u, stack_used = FALSE;
  12:E:/NeuOrga/Programmieren/c_cpp/github_os/input/src/os_base\os_stack.c ****    OS_MAIN_STACK_ADDR = (volatile uint32*)-1u;
  17              		.loc 1 12 0
  18 0006 C7050000 		movl	$-1, _OS_MAIN_STACK_ADDR
  18      0000FFFF 
  18      FFFF
  13:E:/NeuOrga/Programmieren/c_cpp/github_os/input/src/os_base\os_stack.c ****    OS_MAIN_STACK_POS =  (volatile uint32) -1u;
  19              		.loc 1 13 0
  20 0010 C7050000 		movl	$-1, _OS_MAIN_STACK_POS
  20      0000FFFF 
  20      FFFF
  14:E:/NeuOrga/Programmieren/c_cpp/github_os/input/src/os_base\os_stack.c ****    OS_MAIN_STACK_USAGE_PERCENT = 0u;
  21              		.loc 1 14 0
  22 001a C7050000 		movl	$0, _OS_MAIN_STACK_USAGE_PERCENT
  22      00000000 
  22      0000
  15:E:/NeuOrga/Programmieren/c_cpp/github_os/input/src/os_base\os_stack.c **** 
  16:E:/NeuOrga/Programmieren/c_cpp/github_os/input/src/os_base\os_stack.c ****    for(stack_pos = 0; stack_pos < OS_MAIN_STACK_SIZE; stack_pos++)
  23              		.loc 1 16 0
  24 0024 C7050000 		movl	$0, _stack_pos.1369
  24      00000000 
  24      0000
  25 002e EB4C     		jmp	L2
  26              	L4:
  17:E:/NeuOrga/Programmieren/c_cpp/github_os/input/src/os_base\os_stack.c ****    {
  18:E:/NeuOrga/Programmieren/c_cpp/github_os/input/src/os_base\os_stack.c ****       if(OS_MAIN_STACK[stack_pos] != 0xAA)
  27              		.loc 1 18 0
  28 0030 A1000000 		movl	_stack_pos.1369, %eax
  28      00
  29 0035 8A800000 		movb	_OS_MAIN_STACK(%eax), %al
  29      0000
  30 003b 3CAA     		cmpb	$-86, %al
GAS LISTING C:\Users\PRESID~1\AppData\Local\Temp\cc3IHcck.s 			page 2


  31 003d 7432     		je	L3
  19:E:/NeuOrga/Programmieren/c_cpp/github_os/input/src/os_base\os_stack.c ****       {
  20:E:/NeuOrga/Programmieren/c_cpp/github_os/input/src/os_base\os_stack.c ****          stack_used = TRUE;
  32              		.loc 1 20 0
  33 003f C7050400 		movl	$1, _stack_used.1370
  33      00000100 
  33      0000
  21:E:/NeuOrga/Programmieren/c_cpp/github_os/input/src/os_base\os_stack.c ****          if(stack_pos < OS_MAIN_STACK_POS)
  34              		.loc 1 21 0
  35 0049 8B150000 		movl	_stack_pos.1369, %edx
  35      0000
  36 004f A1000000 		movl	_OS_MAIN_STACK_POS, %eax
  36      00
  37 0054 39C2     		cmpl	%eax, %edx
  38 0056 7319     		jnb	L3
  22:E:/NeuOrga/Programmieren/c_cpp/github_os/input/src/os_base\os_stack.c ****          {
  23:E:/NeuOrga/Programmieren/c_cpp/github_os/input/src/os_base\os_stack.c ****             OS_MAIN_STACK_POS  = (volatile uint32 )stack_pos;
  39              		.loc 1 23 0
  40 0058 A1000000 		movl	_stack_pos.1369, %eax
  40      00
  41 005d A3000000 		movl	%eax, _OS_MAIN_STACK_POS
  41      00
  24:E:/NeuOrga/Programmieren/c_cpp/github_os/input/src/os_base\os_stack.c ****             OS_MAIN_STACK_ADDR = (volatile uint32*)&OS_MAIN_STACK[stack_pos];
  42              		.loc 1 24 0
  43 0062 A1000000 		movl	_stack_pos.1369, %eax
  43      00
  44 0067 05000000 		addl	$_OS_MAIN_STACK, %eax
  44      00
  45 006c A3000000 		movl	%eax, _OS_MAIN_STACK_ADDR
  45      00
  46              	L3:
  16:E:/NeuOrga/Programmieren/c_cpp/github_os/input/src/os_base\os_stack.c ****    {
  47              		.loc 1 16 0 discriminator 2
  48 0071 A1000000 		movl	_stack_pos.1369, %eax
  48      00
  49 0076 40       		incl	%eax
  50 0077 A3000000 		movl	%eax, _stack_pos.1369
  50      00
  51              	L2:
  16:E:/NeuOrga/Programmieren/c_cpp/github_os/input/src/os_base\os_stack.c ****    {
  52              		.loc 1 16 0 is_stmt 0 discriminator 1
  53 007c A1000000 		movl	_stack_pos.1369, %eax
  53      00
  54 0081 3DFF0300 		cmpl	$1023, %eax
  54      00
  55 0086 76A8     		jbe	L4
  25:E:/NeuOrga/Programmieren/c_cpp/github_os/input/src/os_base\os_stack.c ****          }
  26:E:/NeuOrga/Programmieren/c_cpp/github_os/input/src/os_base\os_stack.c ****       }
  27:E:/NeuOrga/Programmieren/c_cpp/github_os/input/src/os_base\os_stack.c ****    }
  28:E:/NeuOrga/Programmieren/c_cpp/github_os/input/src/os_base\os_stack.c ****    for(stack_pos = 0; stack_pos < TASK0_STACK_SIZE; stack_pos++)
  56              		.loc 1 28 0 is_stmt 1
  57 0088 C7050000 		movl	$0, _stack_pos.1369
  57      00000000 
  57      0000
  58 0092 EB4C     		jmp	L5
  59              	L7:
  29:E:/NeuOrga/Programmieren/c_cpp/github_os/input/src/os_base\os_stack.c ****    {
GAS LISTING C:\Users\PRESID~1\AppData\Local\Temp\cc3IHcck.s 			page 3


  30:E:/NeuOrga/Programmieren/c_cpp/github_os/input/src/os_base\os_stack.c ****       if(TASK0_STACK[stack_pos] != 0xAA)
  60              		.loc 1 30 0
  61 0094 A1000000 		movl	_stack_pos.1369, %eax
  61      00
  62 0099 8A800000 		movb	_TASK0_STACK(%eax), %al
  62      0000
  63 009f 3CAA     		cmpb	$-86, %al
  64 00a1 7432     		je	L6
  31:E:/NeuOrga/Programmieren/c_cpp/github_os/input/src/os_base\os_stack.c ****       {
  32:E:/NeuOrga/Programmieren/c_cpp/github_os/input/src/os_base\os_stack.c ****          stack_used = TRUE;
  65              		.loc 1 32 0
  66 00a3 C7050400 		movl	$1, _stack_used.1370
  66      00000100 
  66      0000
  33:E:/NeuOrga/Programmieren/c_cpp/github_os/input/src/os_base\os_stack.c ****          if(stack_pos < TASK0_STACK_POS)
  67              		.loc 1 33 0
  68 00ad 8B150000 		movl	_stack_pos.1369, %edx
  68      0000
  69 00b3 A1000000 		movl	_TASK0_STACK_POS, %eax
  69      00
  70 00b8 39C2     		cmpl	%eax, %edx
  71 00ba 7319     		jnb	L6
  34:E:/NeuOrga/Programmieren/c_cpp/github_os/input/src/os_base\os_stack.c ****          {
  35:E:/NeuOrga/Programmieren/c_cpp/github_os/input/src/os_base\os_stack.c ****             TASK0_STACK_POS  = (volatile uint32 )stack_pos;
  72              		.loc 1 35 0
  73 00bc A1000000 		movl	_stack_pos.1369, %eax
  73      00
  74 00c1 A3000000 		movl	%eax, _TASK0_STACK_POS
  74      00
  36:E:/NeuOrga/Programmieren/c_cpp/github_os/input/src/os_base\os_stack.c ****             TASK0_STACK_ADDR = (volatile uint32*)&TASK0_STACK[stack_pos];
  75              		.loc 1 36 0
  76 00c6 A1000000 		movl	_stack_pos.1369, %eax
  76      00
  77 00cb 05000000 		addl	$_TASK0_STACK, %eax
  77      00
  78 00d0 A3000000 		movl	%eax, _TASK0_STACK_ADDR
  78      00
  79              	L6:
  28:E:/NeuOrga/Programmieren/c_cpp/github_os/input/src/os_base\os_stack.c ****    {
  80              		.loc 1 28 0 discriminator 2
  81 00d5 A1000000 		movl	_stack_pos.1369, %eax
  81      00
  82 00da 40       		incl	%eax
  83 00db A3000000 		movl	%eax, _stack_pos.1369
  83      00
  84              	L5:
  28:E:/NeuOrga/Programmieren/c_cpp/github_os/input/src/os_base\os_stack.c ****    {
  85              		.loc 1 28 0 is_stmt 0 discriminator 1
  86 00e0 A1000000 		movl	_stack_pos.1369, %eax
  86      00
  87 00e5 3DCF0700 		cmpl	$1999, %eax
  87      00
  88 00ea 76A8     		jbe	L7
  37:E:/NeuOrga/Programmieren/c_cpp/github_os/input/src/os_base\os_stack.c ****          }
  38:E:/NeuOrga/Programmieren/c_cpp/github_os/input/src/os_base\os_stack.c ****       }
  39:E:/NeuOrga/Programmieren/c_cpp/github_os/input/src/os_base\os_stack.c ****    }
  40:E:/NeuOrga/Programmieren/c_cpp/github_os/input/src/os_base\os_stack.c ****    for(stack_pos = 0; stack_pos < TASK1_STACK_SIZE; stack_pos++)
GAS LISTING C:\Users\PRESID~1\AppData\Local\Temp\cc3IHcck.s 			page 4


  89              		.loc 1 40 0 is_stmt 1
  90 00ec C7050000 		movl	$0, _stack_pos.1369
  90      00000000 
  90      0000
  91 00f6 EB4C     		jmp	L8
  92              	L10:
  41:E:/NeuOrga/Programmieren/c_cpp/github_os/input/src/os_base\os_stack.c ****    {
  42:E:/NeuOrga/Programmieren/c_cpp/github_os/input/src/os_base\os_stack.c ****       if(TASK1_STACK[stack_pos] != 0xAA)
  93              		.loc 1 42 0
  94 00f8 A1000000 		movl	_stack_pos.1369, %eax
  94      00
  95 00fd 8A800000 		movb	_TASK1_STACK(%eax), %al
  95      0000
  96 0103 3CAA     		cmpb	$-86, %al
  97 0105 7432     		je	L9
  43:E:/NeuOrga/Programmieren/c_cpp/github_os/input/src/os_base\os_stack.c ****       {
  44:E:/NeuOrga/Programmieren/c_cpp/github_os/input/src/os_base\os_stack.c ****          stack_used = TRUE;
  98              		.loc 1 44 0
  99 0107 C7050400 		movl	$1, _stack_used.1370
  99      00000100 
  99      0000
  45:E:/NeuOrga/Programmieren/c_cpp/github_os/input/src/os_base\os_stack.c ****          if(stack_pos < TASK1_STACK_POS)
 100              		.loc 1 45 0
 101 0111 8B150000 		movl	_stack_pos.1369, %edx
 101      0000
 102 0117 A1000000 		movl	_TASK1_STACK_POS, %eax
 102      00
 103 011c 39C2     		cmpl	%eax, %edx
 104 011e 7319     		jnb	L9
  46:E:/NeuOrga/Programmieren/c_cpp/github_os/input/src/os_base\os_stack.c ****          {
  47:E:/NeuOrga/Programmieren/c_cpp/github_os/input/src/os_base\os_stack.c ****             TASK1_STACK_POS  = (volatile uint32 )stack_pos;
 105              		.loc 1 47 0
 106 0120 A1000000 		movl	_stack_pos.1369, %eax
 106      00
 107 0125 A3000000 		movl	%eax, _TASK1_STACK_POS
 107      00
  48:E:/NeuOrga/Programmieren/c_cpp/github_os/input/src/os_base\os_stack.c ****             TASK1_STACK_ADDR = (volatile uint32*)&TASK1_STACK[stack_pos];
 108              		.loc 1 48 0
 109 012a A1000000 		movl	_stack_pos.1369, %eax
 109      00
 110 012f 05000000 		addl	$_TASK1_STACK, %eax
 110      00
 111 0134 A3000000 		movl	%eax, _TASK1_STACK_ADDR
 111      00
 112              	L9:
  40:E:/NeuOrga/Programmieren/c_cpp/github_os/input/src/os_base\os_stack.c ****    {
 113              		.loc 1 40 0 discriminator 2
 114 0139 A1000000 		movl	_stack_pos.1369, %eax
 114      00
 115 013e 40       		incl	%eax
 116 013f A3000000 		movl	%eax, _stack_pos.1369
 116      00
 117              	L8:
  40:E:/NeuOrga/Programmieren/c_cpp/github_os/input/src/os_base\os_stack.c ****    {
 118              		.loc 1 40 0 is_stmt 0 discriminator 1
 119 0144 A1000000 		movl	_stack_pos.1369, %eax
 119      00
GAS LISTING C:\Users\PRESID~1\AppData\Local\Temp\cc3IHcck.s 			page 5


 120 0149 3DCF0700 		cmpl	$1999, %eax
 120      00
 121 014e 76A8     		jbe	L10
  49:E:/NeuOrga/Programmieren/c_cpp/github_os/input/src/os_base\os_stack.c ****          }
  50:E:/NeuOrga/Programmieren/c_cpp/github_os/input/src/os_base\os_stack.c ****       }
  51:E:/NeuOrga/Programmieren/c_cpp/github_os/input/src/os_base\os_stack.c ****    }
  52:E:/NeuOrga/Programmieren/c_cpp/github_os/input/src/os_base\os_stack.c ****    for(stack_pos = 0; stack_pos < TASK2_STACK_SIZE; stack_pos++)
 122              		.loc 1 52 0 is_stmt 1
 123 0150 C7050000 		movl	$0, _stack_pos.1369
 123      00000000 
 123      0000
 124 015a EB4C     		jmp	L11
 125              	L13:
  53:E:/NeuOrga/Programmieren/c_cpp/github_os/input/src/os_base\os_stack.c ****    {
  54:E:/NeuOrga/Programmieren/c_cpp/github_os/input/src/os_base\os_stack.c ****       if(TASK2_STACK[stack_pos] != 0xAA)
 126              		.loc 1 54 0
 127 015c A1000000 		movl	_stack_pos.1369, %eax
 127      00
 128 0161 8A800000 		movb	_TASK2_STACK(%eax), %al
 128      0000
 129 0167 3CAA     		cmpb	$-86, %al
 130 0169 7432     		je	L12
  55:E:/NeuOrga/Programmieren/c_cpp/github_os/input/src/os_base\os_stack.c ****       {
  56:E:/NeuOrga/Programmieren/c_cpp/github_os/input/src/os_base\os_stack.c ****          stack_used = TRUE;
 131              		.loc 1 56 0
 132 016b C7050400 		movl	$1, _stack_used.1370
 132      00000100 
 132      0000
  57:E:/NeuOrga/Programmieren/c_cpp/github_os/input/src/os_base\os_stack.c ****          if(stack_pos < TASK2_STACK_POS)
 133              		.loc 1 57 0
 134 0175 8B150000 		movl	_stack_pos.1369, %edx
 134      0000
 135 017b A1000000 		movl	_TASK2_STACK_POS, %eax
 135      00
 136 0180 39C2     		cmpl	%eax, %edx
 137 0182 7319     		jnb	L12
  58:E:/NeuOrga/Programmieren/c_cpp/github_os/input/src/os_base\os_stack.c ****          {
  59:E:/NeuOrga/Programmieren/c_cpp/github_os/input/src/os_base\os_stack.c ****             TASK2_STACK_POS  = (volatile uint32 )stack_pos;
 138              		.loc 1 59 0
 139 0184 A1000000 		movl	_stack_pos.1369, %eax
 139      00
 140 0189 A3000000 		movl	%eax, _TASK2_STACK_POS
 140      00
  60:E:/NeuOrga/Programmieren/c_cpp/github_os/input/src/os_base\os_stack.c ****             TASK2_STACK_ADDR = (volatile uint32*)&TASK2_STACK[stack_pos];
 141              		.loc 1 60 0
 142 018e A1000000 		movl	_stack_pos.1369, %eax
 142      00
 143 0193 05000000 		addl	$_TASK2_STACK, %eax
 143      00
 144 0198 A3000000 		movl	%eax, _TASK2_STACK_ADDR
 144      00
 145              	L12:
  52:E:/NeuOrga/Programmieren/c_cpp/github_os/input/src/os_base\os_stack.c ****    {
 146              		.loc 1 52 0 discriminator 2
 147 019d A1000000 		movl	_stack_pos.1369, %eax
 147      00
 148 01a2 40       		incl	%eax
GAS LISTING C:\Users\PRESID~1\AppData\Local\Temp\cc3IHcck.s 			page 6


 149 01a3 A3000000 		movl	%eax, _stack_pos.1369
 149      00
 150              	L11:
  52:E:/NeuOrga/Programmieren/c_cpp/github_os/input/src/os_base\os_stack.c ****    {
 151              		.loc 1 52 0 is_stmt 0 discriminator 1
 152 01a8 A1000000 		movl	_stack_pos.1369, %eax
 152      00
 153 01ad 3DCF0700 		cmpl	$1999, %eax
 153      00
 154 01b2 76A8     		jbe	L13
  61:E:/NeuOrga/Programmieren/c_cpp/github_os/input/src/os_base\os_stack.c ****          }
  62:E:/NeuOrga/Programmieren/c_cpp/github_os/input/src/os_base\os_stack.c ****       }
  63:E:/NeuOrga/Programmieren/c_cpp/github_os/input/src/os_base\os_stack.c ****    }
  64:E:/NeuOrga/Programmieren/c_cpp/github_os/input/src/os_base\os_stack.c ****    for(stack_pos = 0; stack_pos < TASK3_STACK_SIZE; stack_pos++)
 155              		.loc 1 64 0 is_stmt 1
 156 01b4 C7050000 		movl	$0, _stack_pos.1369
 156      00000000 
 156      0000
 157 01be EB4C     		jmp	L14
 158              	L16:
  65:E:/NeuOrga/Programmieren/c_cpp/github_os/input/src/os_base\os_stack.c ****    {
  66:E:/NeuOrga/Programmieren/c_cpp/github_os/input/src/os_base\os_stack.c ****       if(TASK3_STACK[stack_pos] != 0xAA)
 159              		.loc 1 66 0
 160 01c0 A1000000 		movl	_stack_pos.1369, %eax
 160      00
 161 01c5 8A800000 		movb	_TASK3_STACK(%eax), %al
 161      0000
 162 01cb 3CAA     		cmpb	$-86, %al
 163 01cd 7432     		je	L15
  67:E:/NeuOrga/Programmieren/c_cpp/github_os/input/src/os_base\os_stack.c ****       {
  68:E:/NeuOrga/Programmieren/c_cpp/github_os/input/src/os_base\os_stack.c ****          stack_used = TRUE;
 164              		.loc 1 68 0
 165 01cf C7050400 		movl	$1, _stack_used.1370
 165      00000100 
 165      0000
  69:E:/NeuOrga/Programmieren/c_cpp/github_os/input/src/os_base\os_stack.c ****          if(stack_pos < TASK3_STACK_POS)
 166              		.loc 1 69 0
 167 01d9 8B150000 		movl	_stack_pos.1369, %edx
 167      0000
 168 01df A1000000 		movl	_TASK3_STACK_POS, %eax
 168      00
 169 01e4 39C2     		cmpl	%eax, %edx
 170 01e6 7319     		jnb	L15
  70:E:/NeuOrga/Programmieren/c_cpp/github_os/input/src/os_base\os_stack.c ****          {
  71:E:/NeuOrga/Programmieren/c_cpp/github_os/input/src/os_base\os_stack.c ****             TASK3_STACK_POS  = (volatile uint32 )stack_pos;
 171              		.loc 1 71 0
 172 01e8 A1000000 		movl	_stack_pos.1369, %eax
 172      00
 173 01ed A3000000 		movl	%eax, _TASK3_STACK_POS
 173      00
  72:E:/NeuOrga/Programmieren/c_cpp/github_os/input/src/os_base\os_stack.c ****             TASK3_STACK_ADDR = (volatile uint32*)&TASK3_STACK[stack_pos];
 174              		.loc 1 72 0
 175 01f2 A1000000 		movl	_stack_pos.1369, %eax
 175      00
 176 01f7 05000000 		addl	$_TASK3_STACK, %eax
 176      00
 177 01fc A3000000 		movl	%eax, _TASK3_STACK_ADDR
GAS LISTING C:\Users\PRESID~1\AppData\Local\Temp\cc3IHcck.s 			page 7


 177      00
 178              	L15:
  64:E:/NeuOrga/Programmieren/c_cpp/github_os/input/src/os_base\os_stack.c ****    {
 179              		.loc 1 64 0 discriminator 2
 180 0201 A1000000 		movl	_stack_pos.1369, %eax
 180      00
 181 0206 40       		incl	%eax
 182 0207 A3000000 		movl	%eax, _stack_pos.1369
 182      00
 183              	L14:
  64:E:/NeuOrga/Programmieren/c_cpp/github_os/input/src/os_base\os_stack.c ****    {
 184              		.loc 1 64 0 is_stmt 0 discriminator 1
 185 020c A1000000 		movl	_stack_pos.1369, %eax
 185      00
 186 0211 3DCF0700 		cmpl	$1999, %eax
 186      00
 187 0216 76A8     		jbe	L16
  73:E:/NeuOrga/Programmieren/c_cpp/github_os/input/src/os_base\os_stack.c ****          }
  74:E:/NeuOrga/Programmieren/c_cpp/github_os/input/src/os_base\os_stack.c ****       }
  75:E:/NeuOrga/Programmieren/c_cpp/github_os/input/src/os_base\os_stack.c ****    }
  76:E:/NeuOrga/Programmieren/c_cpp/github_os/input/src/os_base\os_stack.c ****    for(stack_pos = 0; stack_pos < TASK4_STACK_SIZE; stack_pos++)
 188              		.loc 1 76 0 is_stmt 1
 189 0218 C7050000 		movl	$0, _stack_pos.1369
 189      00000000 
 189      0000
 190 0222 EB4C     		jmp	L17
 191              	L19:
  77:E:/NeuOrga/Programmieren/c_cpp/github_os/input/src/os_base\os_stack.c ****    {
  78:E:/NeuOrga/Programmieren/c_cpp/github_os/input/src/os_base\os_stack.c ****       if(TASK4_STACK[stack_pos] != 0xAA)
 192              		.loc 1 78 0
 193 0224 A1000000 		movl	_stack_pos.1369, %eax
 193      00
 194 0229 8A800000 		movb	_TASK4_STACK(%eax), %al
 194      0000
 195 022f 3CAA     		cmpb	$-86, %al
 196 0231 7432     		je	L18
  79:E:/NeuOrga/Programmieren/c_cpp/github_os/input/src/os_base\os_stack.c ****       {
  80:E:/NeuOrga/Programmieren/c_cpp/github_os/input/src/os_base\os_stack.c ****          stack_used = TRUE;
 197              		.loc 1 80 0
 198 0233 C7050400 		movl	$1, _stack_used.1370
 198      00000100 
 198      0000
  81:E:/NeuOrga/Programmieren/c_cpp/github_os/input/src/os_base\os_stack.c ****          if(stack_pos < TASK4_STACK_POS)
 199              		.loc 1 81 0
 200 023d 8B150000 		movl	_stack_pos.1369, %edx
 200      0000
 201 0243 A1000000 		movl	_TASK4_STACK_POS, %eax
 201      00
 202 0248 39C2     		cmpl	%eax, %edx
 203 024a 7319     		jnb	L18
  82:E:/NeuOrga/Programmieren/c_cpp/github_os/input/src/os_base\os_stack.c ****          {
  83:E:/NeuOrga/Programmieren/c_cpp/github_os/input/src/os_base\os_stack.c ****             TASK4_STACK_POS  = (volatile uint32 )stack_pos;
 204              		.loc 1 83 0
 205 024c A1000000 		movl	_stack_pos.1369, %eax
 205      00
 206 0251 A3000000 		movl	%eax, _TASK4_STACK_POS
 206      00
GAS LISTING C:\Users\PRESID~1\AppData\Local\Temp\cc3IHcck.s 			page 8


  84:E:/NeuOrga/Programmieren/c_cpp/github_os/input/src/os_base\os_stack.c ****             TASK4_STACK_ADDR = (volatile uint32*)&TASK4_STACK[stack_pos];
 207              		.loc 1 84 0
 208 0256 A1000000 		movl	_stack_pos.1369, %eax
 208      00
 209 025b 05000000 		addl	$_TASK4_STACK, %eax
 209      00
 210 0260 A3000000 		movl	%eax, _TASK4_STACK_ADDR
 210      00
 211              	L18:
  76:E:/NeuOrga/Programmieren/c_cpp/github_os/input/src/os_base\os_stack.c ****    {
 212              		.loc 1 76 0 discriminator 2
 213 0265 A1000000 		movl	_stack_pos.1369, %eax
 213      00
 214 026a 40       		incl	%eax
 215 026b A3000000 		movl	%eax, _stack_pos.1369
 215      00
 216              	L17:
  76:E:/NeuOrga/Programmieren/c_cpp/github_os/input/src/os_base\os_stack.c ****    {
 217              		.loc 1 76 0 is_stmt 0 discriminator 1
 218 0270 A1000000 		movl	_stack_pos.1369, %eax
 218      00
 219 0275 3DCF0700 		cmpl	$1999, %eax
 219      00
 220 027a 76A8     		jbe	L19
  85:E:/NeuOrga/Programmieren/c_cpp/github_os/input/src/os_base\os_stack.c ****          }
  86:E:/NeuOrga/Programmieren/c_cpp/github_os/input/src/os_base\os_stack.c ****       }
  87:E:/NeuOrga/Programmieren/c_cpp/github_os/input/src/os_base\os_stack.c ****    }   
  88:E:/NeuOrga/Programmieren/c_cpp/github_os/input/src/os_base\os_stack.c ****    OS_MAIN_STACK_USAGE_PERCENT = (OS_MAIN_STACK_SIZE - OS_MAIN_STACK_POS) * 100u / OS_MAIN_STACK_SI
 221              		.loc 1 88 0 is_stmt 1
 222 027c 8B150000 		movl	_OS_MAIN_STACK_POS, %edx
 222      0000
 223 0282 89D0     		movl	%edx, %eax
 224 0284 C1E002   		sall	$2, %eax
 225 0287 01D0     		addl	%edx, %eax
 226 0289 8D148500 		leal	0(,%eax,4), %edx
 226      000000
 227 0290 01D0     		addl	%edx, %eax
 228 0292 C1E002   		sall	$2, %eax
 229 0295 F7D8     		negl	%eax
 230 0297 05009001 		addl	$102400, %eax
 230      00
 231 029c C1E80A   		shrl	$10, %eax
 232 029f A3000000 		movl	%eax, _OS_MAIN_STACK_USAGE_PERCENT
 232      00
  89:E:/NeuOrga/Programmieren/c_cpp/github_os/input/src/os_base\os_stack.c ****    TASK0_STACK_USAGE_PERCENT   = (TASK0_STACK_SIZE - TASK0_STACK_POS) * 100u / TASK0_STACK_SIZE;
 233              		.loc 1 89 0
 234 02a4 8B150000 		movl	_TASK0_STACK_POS, %edx
 234      0000
 235 02aa 89D0     		movl	%edx, %eax
 236 02ac C1E002   		sall	$2, %eax
 237 02af 01D0     		addl	%edx, %eax
 238 02b1 8D148500 		leal	0(,%eax,4), %edx
 238      000000
 239 02b8 01D0     		addl	%edx, %eax
 240 02ba C1E002   		sall	$2, %eax
 241 02bd F7D8     		negl	%eax
 242 02bf 8D90400D 		leal	200000(%eax), %edx
GAS LISTING C:\Users\PRESID~1\AppData\Local\Temp\cc3IHcck.s 			page 9


 242      0300
 243 02c5 B8D34D62 		movl	$274877907, %eax
 243      10
 244 02ca F7E2     		mull	%edx
 245 02cc 89D0     		movl	%edx, %eax
 246 02ce C1E807   		shrl	$7, %eax
 247 02d1 A3000000 		movl	%eax, _TASK0_STACK_USAGE_PERCENT
 247      00
  90:E:/NeuOrga/Programmieren/c_cpp/github_os/input/src/os_base\os_stack.c ****    TASK1_STACK_USAGE_PERCENT   = (TASK1_STACK_SIZE - TASK1_STACK_POS) * 100u / TASK1_STACK_SIZE;
 248              		.loc 1 90 0
 249 02d6 8B150000 		movl	_TASK1_STACK_POS, %edx
 249      0000
 250 02dc 89D0     		movl	%edx, %eax
 251 02de C1E002   		sall	$2, %eax
 252 02e1 01D0     		addl	%edx, %eax
 253 02e3 8D148500 		leal	0(,%eax,4), %edx
 253      000000
 254 02ea 01D0     		addl	%edx, %eax
 255 02ec C1E002   		sall	$2, %eax
 256 02ef F7D8     		negl	%eax
 257 02f1 8D90400D 		leal	200000(%eax), %edx
 257      0300
 258 02f7 B8D34D62 		movl	$274877907, %eax
 258      10
 259 02fc F7E2     		mull	%edx
 260 02fe 89D0     		movl	%edx, %eax
 261 0300 C1E807   		shrl	$7, %eax
 262 0303 A3000000 		movl	%eax, _TASK1_STACK_USAGE_PERCENT
 262      00
  91:E:/NeuOrga/Programmieren/c_cpp/github_os/input/src/os_base\os_stack.c ****    TASK2_STACK_USAGE_PERCENT   = (TASK2_STACK_SIZE - TASK2_STACK_POS) * 100u / TASK2_STACK_SIZE;
 263              		.loc 1 91 0
 264 0308 8B150000 		movl	_TASK2_STACK_POS, %edx
 264      0000
 265 030e 89D0     		movl	%edx, %eax
 266 0310 C1E002   		sall	$2, %eax
 267 0313 01D0     		addl	%edx, %eax
 268 0315 8D148500 		leal	0(,%eax,4), %edx
 268      000000
 269 031c 01D0     		addl	%edx, %eax
 270 031e C1E002   		sall	$2, %eax
 271 0321 F7D8     		negl	%eax
 272 0323 8D90400D 		leal	200000(%eax), %edx
 272      0300
 273 0329 B8D34D62 		movl	$274877907, %eax
 273      10
 274 032e F7E2     		mull	%edx
 275 0330 89D0     		movl	%edx, %eax
 276 0332 C1E807   		shrl	$7, %eax
 277 0335 A3000000 		movl	%eax, _TASK2_STACK_USAGE_PERCENT
 277      00
  92:E:/NeuOrga/Programmieren/c_cpp/github_os/input/src/os_base\os_stack.c ****    TASK3_STACK_USAGE_PERCENT   = (TASK3_STACK_SIZE - TASK3_STACK_POS) * 100u / TASK3_STACK_SIZE;
 278              		.loc 1 92 0
 279 033a 8B150000 		movl	_TASK3_STACK_POS, %edx
 279      0000
 280 0340 89D0     		movl	%edx, %eax
 281 0342 C1E002   		sall	$2, %eax
 282 0345 01D0     		addl	%edx, %eax
GAS LISTING C:\Users\PRESID~1\AppData\Local\Temp\cc3IHcck.s 			page 10


 283 0347 8D148500 		leal	0(,%eax,4), %edx
 283      000000
 284 034e 01D0     		addl	%edx, %eax
 285 0350 C1E002   		sall	$2, %eax
 286 0353 F7D8     		negl	%eax
 287 0355 8D90400D 		leal	200000(%eax), %edx
 287      0300
 288 035b B8D34D62 		movl	$274877907, %eax
 288      10
 289 0360 F7E2     		mull	%edx
 290 0362 89D0     		movl	%edx, %eax
 291 0364 C1E807   		shrl	$7, %eax
 292 0367 A3000000 		movl	%eax, _TASK3_STACK_USAGE_PERCENT
 292      00
  93:E:/NeuOrga/Programmieren/c_cpp/github_os/input/src/os_base\os_stack.c ****    TASK4_STACK_USAGE_PERCENT   = (TASK4_STACK_SIZE - TASK4_STACK_POS) * 100u / TASK4_STACK_SIZE;
 293              		.loc 1 93 0
 294 036c 8B150000 		movl	_TASK4_STACK_POS, %edx
 294      0000
 295 0372 89D0     		movl	%edx, %eax
 296 0374 C1E002   		sall	$2, %eax
 297 0377 01D0     		addl	%edx, %eax
 298 0379 8D148500 		leal	0(,%eax,4), %edx
 298      000000
 299 0380 01D0     		addl	%edx, %eax
 300 0382 C1E002   		sall	$2, %eax
 301 0385 F7D8     		negl	%eax
 302 0387 8D90400D 		leal	200000(%eax), %edx
 302      0300
 303 038d B8D34D62 		movl	$274877907, %eax
 303      10
 304 0392 F7E2     		mull	%edx
 305 0394 89D0     		movl	%edx, %eax
 306 0396 C1E807   		shrl	$7, %eax
 307 0399 A3000000 		movl	%eax, _TASK4_STACK_USAGE_PERCENT
 307      00
  94:E:/NeuOrga/Programmieren/c_cpp/github_os/input/src/os_base\os_stack.c **** 
  95:E:/NeuOrga/Programmieren/c_cpp/github_os/input/src/os_base\os_stack.c ****    if((stack_used == TRUE) && ((OS_MAIN_STACK_USAGE_PERCENT > 80u) || (TASK0_STACK_USAGE_PERCENT > 
 308              		.loc 1 95 0
 309 039e A1040000 		movl	_stack_used.1370, %eax
 309      00
 310 03a3 83F801   		cmpl	$1, %eax
 311 03a6 7552     		jne	L1
 312              		.loc 1 95 0 is_stmt 0 discriminator 1
 313 03a8 A1000000 		movl	_OS_MAIN_STACK_USAGE_PERCENT, %eax
 313      00
 314 03ad 83F850   		cmpl	$80, %eax
 315 03b0 7732     		ja	L21
 316              		.loc 1 95 0 discriminator 2
 317 03b2 A1000000 		movl	_TASK0_STACK_USAGE_PERCENT, %eax
 317      00
 318 03b7 83F850   		cmpl	$80, %eax
 319 03ba 7728     		ja	L21
 320              		.loc 1 95 0 discriminator 3
 321 03bc A1000000 		movl	_TASK1_STACK_USAGE_PERCENT, %eax
 321      00
 322 03c1 83F850   		cmpl	$80, %eax
 323 03c4 771E     		ja	L21
GAS LISTING C:\Users\PRESID~1\AppData\Local\Temp\cc3IHcck.s 			page 11


 324              		.loc 1 95 0 discriminator 4
 325 03c6 A1000000 		movl	_TASK2_STACK_USAGE_PERCENT, %eax
 325      00
 326 03cb 83F850   		cmpl	$80, %eax
 327 03ce 7714     		ja	L21
 328              		.loc 1 95 0 discriminator 5
 329 03d0 A1000000 		movl	_TASK3_STACK_USAGE_PERCENT, %eax
 329      00
 330 03d5 83F850   		cmpl	$80, %eax
 331 03d8 770A     		ja	L21
 332              		.loc 1 95 0 discriminator 6
 333 03da A1000000 		movl	_TASK4_STACK_USAGE_PERCENT, %eax
 333      00
 334 03df 83F850   		cmpl	$80, %eax
 335 03e2 7616     		jbe	L1
 336              	L21:
  96:E:/NeuOrga/Programmieren/c_cpp/github_os/input/src/os_base\os_stack.c ****    {
  97:E:/NeuOrga/Programmieren/c_cpp/github_os/input/src/os_base\os_stack.c ****       OS_SET_SW_BUG(E_OS_BUG_CRITICAL_STACK_USAGE,E_FUNC_STACKCHECK);
 337              		.loc 1 97 0 is_stmt 1
 338 03e4 C7442404 		movl	$17, 4(%esp)
 338      11000000 
 339 03ec C7042409 		movl	$9, (%esp)
 339      000000
 340 03f3 E8000000 		call	_OS_SET_SW_BUG
 340      00
 341              	L22:
  98:E:/NeuOrga/Programmieren/c_cpp/github_os/input/src/os_base\os_stack.c ****       while(1)
  99:E:/NeuOrga/Programmieren/c_cpp/github_os/input/src/os_base\os_stack.c ****       {
 100:E:/NeuOrga/Programmieren/c_cpp/github_os/input/src/os_base\os_stack.c ****          /* allow easy debugging */
 101:E:/NeuOrga/Programmieren/c_cpp/github_os/input/src/os_base\os_stack.c ****       }
 342              		.loc 1 101 0 discriminator 1
 343 03f8 EBFE     		jmp	L22
 344              	L1:
 102:E:/NeuOrga/Programmieren/c_cpp/github_os/input/src/os_base\os_stack.c ****    }
 103:E:/NeuOrga/Programmieren/c_cpp/github_os/input/src/os_base\os_stack.c **** }
 345              		.loc 1 103 0
 346 03fa C9       		leave
 347              		.cfi_restore 5
 348              		.cfi_def_cfa 4, 4
 349 03fb C3       		ret
 350              		.cfi_endproc
 351              	LFE0:
 352              		.globl	_OS_STACK_CHK_PATTERN_INIT
 354              	_OS_STACK_CHK_PATTERN_INIT:
 355              	LFB1:
 104:E:/NeuOrga/Programmieren/c_cpp/github_os/input/src/os_base\os_stack.c **** #if(CFG_PROCESSOR == MCU_X86)
 105:E:/NeuOrga/Programmieren/c_cpp/github_os/input/src/os_base\os_stack.c **** /* this is done for CortexM4 in function INIT_OS_MAIN_STACK() on assembler level, because no stack 
 106:E:/NeuOrga/Programmieren/c_cpp/github_os/input/src/os_base\os_stack.c **** void OS_STACK_CHK_PATTERN_INIT(void)
 107:E:/NeuOrga/Programmieren/c_cpp/github_os/input/src/os_base\os_stack.c **** {
 356              		.loc 1 107 0
 357              		.cfi_startproc
 358 03fc 55       		pushl	%ebp
 359              		.cfi_def_cfa_offset 8
 360              		.cfi_offset 5, -8
 361 03fd 89E5     		movl	%esp, %ebp
 362              		.cfi_def_cfa_register 5
 363 03ff 83EC10   		subl	$16, %esp
GAS LISTING C:\Users\PRESID~1\AppData\Local\Temp\cc3IHcck.s 			page 12


 108:E:/NeuOrga/Programmieren/c_cpp/github_os/input/src/os_base\os_stack.c ****    uint32 stack_pos = 0u;
 364              		.loc 1 108 0
 365 0402 C745FC00 		movl	$0, -4(%ebp)
 365      000000
 109:E:/NeuOrga/Programmieren/c_cpp/github_os/input/src/os_base\os_stack.c ****    /* init the stack with 0xAA (only the highest 64 bytes leave out, because they might be already 
 110:E:/NeuOrga/Programmieren/c_cpp/github_os/input/src/os_base\os_stack.c ****    for(stack_pos = 0u; stack_pos < (OS_MAIN_STACK_SIZE-64u); stack_pos++)
 366              		.loc 1 110 0
 367 0409 C745FC00 		movl	$0, -4(%ebp)
 367      000000
 368 0410 EB0E     		jmp	L24
 369              	L25:
 111:E:/NeuOrga/Programmieren/c_cpp/github_os/input/src/os_base\os_stack.c ****    {
 112:E:/NeuOrga/Programmieren/c_cpp/github_os/input/src/os_base\os_stack.c ****       OS_MAIN_STACK[stack_pos] = 0xAAu;
 370              		.loc 1 112 0 discriminator 3
 371 0412 8B45FC   		movl	-4(%ebp), %eax
 372 0415 05000000 		addl	$_OS_MAIN_STACK, %eax
 372      00
 373 041a C600AA   		movb	$-86, (%eax)
 110:E:/NeuOrga/Programmieren/c_cpp/github_os/input/src/os_base\os_stack.c ****    {
 374              		.loc 1 110 0 discriminator 3
 375 041d FF45FC   		incl	-4(%ebp)
 376              	L24:
 110:E:/NeuOrga/Programmieren/c_cpp/github_os/input/src/os_base\os_stack.c ****    {
 377              		.loc 1 110 0 is_stmt 0 discriminator 1
 378 0420 817DFCBF 		cmpl	$959, -4(%ebp)
 378      030000
 379 0427 76E9     		jbe	L25
 113:E:/NeuOrga/Programmieren/c_cpp/github_os/input/src/os_base\os_stack.c ****    }
 114:E:/NeuOrga/Programmieren/c_cpp/github_os/input/src/os_base\os_stack.c ****    for(stack_pos = 0u; stack_pos < (TASK0_STACK_SIZE-64u); stack_pos++)
 380              		.loc 1 114 0 is_stmt 1
 381 0429 C745FC00 		movl	$0, -4(%ebp)
 381      000000
 382 0430 EB0E     		jmp	L26
 383              	L27:
 115:E:/NeuOrga/Programmieren/c_cpp/github_os/input/src/os_base\os_stack.c ****    {
 116:E:/NeuOrga/Programmieren/c_cpp/github_os/input/src/os_base\os_stack.c ****       TASK0_STACK[stack_pos] = 0xAAu;
 384              		.loc 1 116 0 discriminator 3
 385 0432 8B45FC   		movl	-4(%ebp), %eax
 386 0435 05000000 		addl	$_TASK0_STACK, %eax
 386      00
 387 043a C600AA   		movb	$-86, (%eax)
 114:E:/NeuOrga/Programmieren/c_cpp/github_os/input/src/os_base\os_stack.c ****    {
 388              		.loc 1 114 0 discriminator 3
 389 043d FF45FC   		incl	-4(%ebp)
 390              	L26:
 114:E:/NeuOrga/Programmieren/c_cpp/github_os/input/src/os_base\os_stack.c ****    {
 391              		.loc 1 114 0 is_stmt 0 discriminator 1
 392 0440 817DFC8F 		cmpl	$1935, -4(%ebp)
 392      070000
 393 0447 76E9     		jbe	L27
 117:E:/NeuOrga/Programmieren/c_cpp/github_os/input/src/os_base\os_stack.c ****    }
 118:E:/NeuOrga/Programmieren/c_cpp/github_os/input/src/os_base\os_stack.c ****    for(stack_pos = 0u; stack_pos < (TASK1_STACK_SIZE-64u); stack_pos++)
 394              		.loc 1 118 0 is_stmt 1
 395 0449 C745FC00 		movl	$0, -4(%ebp)
 395      000000
 396 0450 EB0E     		jmp	L28
 397              	L29:
GAS LISTING C:\Users\PRESID~1\AppData\Local\Temp\cc3IHcck.s 			page 13


 119:E:/NeuOrga/Programmieren/c_cpp/github_os/input/src/os_base\os_stack.c ****    {
 120:E:/NeuOrga/Programmieren/c_cpp/github_os/input/src/os_base\os_stack.c ****       TASK1_STACK[stack_pos] = 0xAAu;
 398              		.loc 1 120 0 discriminator 3
 399 0452 8B45FC   		movl	-4(%ebp), %eax
 400 0455 05000000 		addl	$_TASK1_STACK, %eax
 400      00
 401 045a C600AA   		movb	$-86, (%eax)
 118:E:/NeuOrga/Programmieren/c_cpp/github_os/input/src/os_base\os_stack.c ****    {
 402              		.loc 1 118 0 discriminator 3
 403 045d FF45FC   		incl	-4(%ebp)
 404              	L28:
 118:E:/NeuOrga/Programmieren/c_cpp/github_os/input/src/os_base\os_stack.c ****    {
 405              		.loc 1 118 0 is_stmt 0 discriminator 1
 406 0460 817DFC8F 		cmpl	$1935, -4(%ebp)
 406      070000
 407 0467 76E9     		jbe	L29
 121:E:/NeuOrga/Programmieren/c_cpp/github_os/input/src/os_base\os_stack.c ****    }
 122:E:/NeuOrga/Programmieren/c_cpp/github_os/input/src/os_base\os_stack.c ****    for(stack_pos = 0u; stack_pos < (TASK2_STACK_SIZE-64u); stack_pos++)
 408              		.loc 1 122 0 is_stmt 1
 409 0469 C745FC00 		movl	$0, -4(%ebp)
 409      000000
 410 0470 EB0E     		jmp	L30
 411              	L31:
 123:E:/NeuOrga/Programmieren/c_cpp/github_os/input/src/os_base\os_stack.c ****    {
 124:E:/NeuOrga/Programmieren/c_cpp/github_os/input/src/os_base\os_stack.c ****       TASK2_STACK[stack_pos] = 0xAAu;
 412              		.loc 1 124 0 discriminator 3
 413 0472 8B45FC   		movl	-4(%ebp), %eax
 414 0475 05000000 		addl	$_TASK2_STACK, %eax
 414      00
 415 047a C600AA   		movb	$-86, (%eax)
 122:E:/NeuOrga/Programmieren/c_cpp/github_os/input/src/os_base\os_stack.c ****    {
 416              		.loc 1 122 0 discriminator 3
 417 047d FF45FC   		incl	-4(%ebp)
 418              	L30:
 122:E:/NeuOrga/Programmieren/c_cpp/github_os/input/src/os_base\os_stack.c ****    {
 419              		.loc 1 122 0 is_stmt 0 discriminator 1
 420 0480 817DFC8F 		cmpl	$1935, -4(%ebp)
 420      070000
 421 0487 76E9     		jbe	L31
 125:E:/NeuOrga/Programmieren/c_cpp/github_os/input/src/os_base\os_stack.c ****    }
 126:E:/NeuOrga/Programmieren/c_cpp/github_os/input/src/os_base\os_stack.c ****    for(stack_pos = 0u; stack_pos < (TASK3_STACK_SIZE-64u); stack_pos++)
 422              		.loc 1 126 0 is_stmt 1
 423 0489 C745FC00 		movl	$0, -4(%ebp)
 423      000000
 424 0490 EB0E     		jmp	L32
 425              	L33:
 127:E:/NeuOrga/Programmieren/c_cpp/github_os/input/src/os_base\os_stack.c ****    {
 128:E:/NeuOrga/Programmieren/c_cpp/github_os/input/src/os_base\os_stack.c ****       TASK3_STACK[stack_pos] = 0xAAu;
 426              		.loc 1 128 0 discriminator 3
 427 0492 8B45FC   		movl	-4(%ebp), %eax
 428 0495 05000000 		addl	$_TASK3_STACK, %eax
 428      00
 429 049a C600AA   		movb	$-86, (%eax)
 126:E:/NeuOrga/Programmieren/c_cpp/github_os/input/src/os_base\os_stack.c ****    {
 430              		.loc 1 126 0 discriminator 3
 431 049d FF45FC   		incl	-4(%ebp)
 432              	L32:
GAS LISTING C:\Users\PRESID~1\AppData\Local\Temp\cc3IHcck.s 			page 14


 126:E:/NeuOrga/Programmieren/c_cpp/github_os/input/src/os_base\os_stack.c ****    {
 433              		.loc 1 126 0 is_stmt 0 discriminator 1
 434 04a0 817DFC8F 		cmpl	$1935, -4(%ebp)
 434      070000
 435 04a7 76E9     		jbe	L33
 129:E:/NeuOrga/Programmieren/c_cpp/github_os/input/src/os_base\os_stack.c ****    }   
 130:E:/NeuOrga/Programmieren/c_cpp/github_os/input/src/os_base\os_stack.c ****    for(stack_pos = 0u; stack_pos < (TASK4_STACK_SIZE-64u); stack_pos++)
 436              		.loc 1 130 0 is_stmt 1
 437 04a9 C745FC00 		movl	$0, -4(%ebp)
 437      000000
 438 04b0 EB0E     		jmp	L34
 439              	L35:
 131:E:/NeuOrga/Programmieren/c_cpp/github_os/input/src/os_base\os_stack.c ****    {
 132:E:/NeuOrga/Programmieren/c_cpp/github_os/input/src/os_base\os_stack.c ****       TASK4_STACK[stack_pos] = 0xAAu;
 440              		.loc 1 132 0 discriminator 3
 441 04b2 8B45FC   		movl	-4(%ebp), %eax
 442 04b5 05000000 		addl	$_TASK4_STACK, %eax
 442      00
 443 04ba C600AA   		movb	$-86, (%eax)
 130:E:/NeuOrga/Programmieren/c_cpp/github_os/input/src/os_base\os_stack.c ****    {
 444              		.loc 1 130 0 discriminator 3
 445 04bd FF45FC   		incl	-4(%ebp)
 446              	L34:
 130:E:/NeuOrga/Programmieren/c_cpp/github_os/input/src/os_base\os_stack.c ****    {
 447              		.loc 1 130 0 is_stmt 0 discriminator 1
 448 04c0 817DFC8F 		cmpl	$1935, -4(%ebp)
 448      070000
 449 04c7 76E9     		jbe	L35
 133:E:/NeuOrga/Programmieren/c_cpp/github_os/input/src/os_base\os_stack.c ****    }      
 134:E:/NeuOrga/Programmieren/c_cpp/github_os/input/src/os_base\os_stack.c **** }
 450              		.loc 1 134 0 is_stmt 1
 451 04c9 C9       		leave
 452              		.cfi_restore 5
 453              		.cfi_def_cfa 4, 4
 454 04ca C3       		ret
 455              		.cfi_endproc
 456              	LFE1:
 457              	.lcomm _stack_pos.1369,4,4
 458              	.lcomm _stack_used.1370,4,4
 459              	Letext0:
 460              		.file 2 "E:/NeuOrga/Programmieren/c_cpp/github_os/input/src/os_base/../os_base/os_base_types.h"
 461              		.file 3 "E:/NeuOrga/Programmieren/c_cpp/github_os/input/src/os_base/../os_base/os_common.h"
 462              		.file 4 "E:/NeuOrga/Programmieren/c_cpp/github_os/input/src/os_base/../os_base/os_ram.h"
 463              		.file 5 "E:/NeuOrga/Programmieren/c_cpp/github_os/input/src/os_base/../os_base/os_ram_stack.h"
 464 04cb 90       		.section	.debug_info,"dr"
 465              	Ldebug_info0:
 466 0000 25080000 		.long	0x825
 467 0004 0400     		.word	0x4
 468 0006 00000000 		.secrel32	Ldebug_abbrev0
 469 000a 04       		.byte	0x4
 470 000b 01       		.uleb128 0x1
 471 000c 474E5520 		.ascii "GNU C 4.9.3 -march=i386 -g3 -O0 -std=c90\0"
 471      4320342E 
 471      392E3320 
 471      2D6D6172 
 471      63683D69 
 472 0035 01       		.byte	0x1
GAS LISTING C:\Users\PRESID~1\AppData\Local\Temp\cc3IHcck.s 			page 15


 473 0036 453A5C4E 		.ascii "E:\\NeuOrga\\Programmieren\\c_cpp\\github_os\\input\\src\\os_base\\os_stack.c\0"
 473      65754F72 
 473      67615C50 
 473      726F6772 
 473      616D6D69 
 474 007c 00000000 		.long	Ltext0
 475 0080 CB040000 		.long	Letext0-Ltext0
 476 0084 00000000 		.secrel32	Ldebug_line0
 477 0088 00000000 		.secrel32	Ldebug_macro0
 478 008c 02       		.uleb128 0x2
 479 008d 756E7369 		.ascii "unsigned_char_t\0"
 479      676E6564 
 479      5F636861 
 479      725F7400 
 480 009d 02       		.byte	0x2
 481 009e 11       		.byte	0x11
 482 009f A3000000 		.long	0xa3
 483 00a3 03       		.uleb128 0x3
 484 00a4 01       		.byte	0x1
 485 00a5 08       		.byte	0x8
 486 00a6 756E7369 		.ascii "unsigned char\0"
 486      676E6564 
 486      20636861 
 486      7200
 487 00b4 03       		.uleb128 0x3
 488 00b5 01       		.byte	0x1
 489 00b6 06       		.byte	0x6
 490 00b7 7369676E 		.ascii "signed char\0"
 490      65642063 
 490      68617200 
 491 00c3 03       		.uleb128 0x3
 492 00c4 02       		.byte	0x2
 493 00c5 07       		.byte	0x7
 494 00c6 73686F72 		.ascii "short unsigned int\0"
 494      7420756E 
 494      7369676E 
 494      65642069 
 494      6E7400
 495 00d9 03       		.uleb128 0x3
 496 00da 02       		.byte	0x2
 497 00db 05       		.byte	0x5
 498 00dc 73686F72 		.ascii "short int\0"
 498      7420696E 
 498      7400
 499 00e6 03       		.uleb128 0x3
 500 00e7 04       		.byte	0x4
 501 00e8 07       		.byte	0x7
 502 00e9 6C6F6E67 		.ascii "long unsigned int\0"
 502      20756E73 
 502      69676E65 
 502      6420696E 
 502      7400
 503 00fb 03       		.uleb128 0x3
 504 00fc 04       		.byte	0x4
 505 00fd 05       		.byte	0x5
 506 00fe 6C6F6E67 		.ascii "long int\0"
 506      20696E74 
GAS LISTING C:\Users\PRESID~1\AppData\Local\Temp\cc3IHcck.s 			page 16


 506      00
 507 0107 02       		.uleb128 0x2
 508 0108 75696E74 		.ascii "uint32\0"
 508      333200
 509 010f 02       		.byte	0x2
 510 0110 1D       		.byte	0x1d
 511 0111 E6000000 		.long	0xe6
 512 0115 04       		.uleb128 0x4
 513 0116 6F735F73 		.ascii "os_sw_bugs_e\0"
 513      775F6275 
 513      67735F65 
 513      00
 514 0123 04       		.byte	0x4
 515 0124 03       		.byte	0x3
 516 0125 2D       		.byte	0x2d
 517 0126 E9020000 		.long	0x2e9
 518 012a 05       		.uleb128 0x5
 519 012b 455F4F53 		.ascii "E_OS_BUG_NO_BUG\0"
 519      5F425547 
 519      5F4E4F5F 
 519      42554700 
 520 013b 00       		.sleb128 0
 521 013c 05       		.uleb128 0x5
 522 013d 455F4F53 		.ascii "E_OS_BUG_TASKSTATE_REQUEST_DENIED\0"
 522      5F425547 
 522      5F544153 
 522      4B535441 
 522      54455F52 
 523 015f 01       		.sleb128 1
 524 0160 05       		.uleb128 0x5
 525 0161 455F4F53 		.ascii "E_OS_BUG_NULL_POINTER\0"
 525      5F425547 
 525      5F4E554C 
 525      4C5F504F 
 525      494E5445 
 526 0177 02       		.sleb128 2
 527 0178 05       		.uleb128 0x5
 528 0179 455F4F53 		.ascii "E_OS_BUG_TASK_MAX_WAIT_TIME_REACHED\0"
 528      5F425547 
 528      5F544153 
 528      4B5F4D41 
 528      585F5741 
 529 019d 03       		.sleb128 3
 530 019e 05       		.uleb128 0x5
 531 019f 455F4F53 		.ascii "E_OS_BUG_TASK_UNSPECIFIED\0"
 531      5F425547 
 531      5F544153 
 531      4B5F554E 
 531      53504543 
 532 01b9 04       		.sleb128 4
 533 01ba 05       		.uleb128 0x5
 534 01bb 455F4F53 		.ascii "E_OS_BUG_EXCEPTION_UNDEFINSTRUCTION\0"
 534      5F425547 
 534      5F455843 
 534      45505449 
 534      4F4E5F55 
 535 01df 05       		.sleb128 5
GAS LISTING C:\Users\PRESID~1\AppData\Local\Temp\cc3IHcck.s 			page 17


 536 01e0 05       		.uleb128 0x5
 537 01e1 455F4F53 		.ascii "E_OS_BUG_EXCEPTION_ABORTPREFETCH\0"
 537      5F425547 
 537      5F455843 
 537      45505449 
 537      4F4E5F41 
 538 0202 06       		.sleb128 6
 539 0203 05       		.uleb128 0x5
 540 0204 455F4F53 		.ascii "E_OS_BUG_EXCEPTION_ABORTDATA\0"
 540      5F425547 
 540      5F455843 
 540      45505449 
 540      4F4E5F41 
 541 0221 07       		.sleb128 7
 542 0222 05       		.uleb128 0x5
 543 0223 455F4F53 		.ascii "E_OS_BUG_RESET_EXIT_OR_SHUTDOWN_FAILED\0"
 543      5F425547 
 543      5F524553 
 543      45545F45 
 543      5849545F 
 544 024a 08       		.sleb128 8
 545 024b 05       		.uleb128 0x5
 546 024c 455F4F53 		.ascii "E_OS_BUG_CRITICAL_STACK_USAGE\0"
 546      5F425547 
 546      5F435249 
 546      54494341 
 546      4C5F5354 
 547 026a 09       		.sleb128 9
 548 026b 05       		.uleb128 0x5
 549 026c 455F4F53 		.ascii "E_OS_BUG_SVC_NUMBER_MISSING\0"
 549      5F425547 
 549      5F535643 
 549      5F4E554D 
 549      4245525F 
 550 0288 0A       		.sleb128 10
 551 0289 05       		.uleb128 0x5
 552 028a 455F4F53 		.ascii "E_OS_BUG_MAX_WAIT_TIME_REACHED\0"
 552      5F425547 
 552      5F4D4158 
 552      5F574149 
 552      545F5449 
 553 02a9 0B       		.sleb128 11
 554 02aa 05       		.uleb128 0x5
 555 02ab 455F4F53 		.ascii "E_OS_BUG_DIVISION_BY_ZERO\0"
 555      5F425547 
 555      5F444956 
 555      4953494F 
 555      4E5F4259 
 556 02c5 0C       		.sleb128 12
 557 02c6 05       		.uleb128 0x5
 558 02c7 455F4F53 		.ascii "E_OS_BUG_BIT_SHIFT_OUT_OF_RANGE\0"
 558      5F425547 
 558      5F424954 
 558      5F534849 
 558      46545F4F 
 559 02e7 0D       		.sleb128 13
 560 02e8 00       		.byte	0
GAS LISTING C:\Users\PRESID~1\AppData\Local\Temp\cc3IHcck.s 			page 18


 561 02e9 04       		.uleb128 0x4
 562 02ea 6F735F73 		.ascii "os_sw_bugs_function_e\0"
 562      775F6275 
 562      67735F66 
 562      756E6374 
 562      696F6E5F 
 563 0300 04       		.byte	0x4
 564 0301 03       		.byte	0x3
 565 0302 42       		.byte	0x42
 566 0303 01050000 		.long	0x501
 567 0307 05       		.uleb128 0x5
 568 0308 455F4655 		.ascii "E_FUNC_NOFUNCTION\0"
 568      4E435F4E 
 568      4F46554E 
 568      4354494F 
 568      4E00
 569 031a 00       		.sleb128 0
 570 031b 05       		.uleb128 0x5
 571 031c 455F4655 		.ascii "E_FUNC_SAVETASKENVIRONMENT\0"
 571      4E435F53 
 571      41564554 
 571      41534B45 
 571      4E564952 
 572 0337 01       		.sleb128 1
 573 0338 05       		.uleb128 0x5
 574 0339 455F4655 		.ascii "E_FUNC_RESTORETASKENVIRONMENT\0"
 574      4E435F52 
 574      4553544F 
 574      52455441 
 574      534B454E 
 575 0357 02       		.sleb128 2
 576 0358 05       		.uleb128 0x5
 577 0359 455F4655 		.ascii "E_FUNC_CREATETASKENVIRONMENT\0"
 577      4E435F43 
 577      52454154 
 577      45544153 
 577      4B454E56 
 578 0376 03       		.sleb128 3
 579 0377 05       		.uleb128 0x5
 580 0378 455F4655 		.ascii "E_FUNC_DELETETASKENVIRONMENT\0"
 580      4E435F44 
 580      454C4554 
 580      45544153 
 580      4B454E56 
 581 0395 04       		.sleb128 4
 582 0396 05       		.uleb128 0x5
 583 0397 455F4655 		.ascii "E_FUNC_INITTASKENVIRONMENT\0"
 583      4E435F49 
 583      4E495454 
 583      41534B45 
 583      4E564952 
 584 03b2 05       		.sleb128 5
 585 03b3 05       		.uleb128 0x5
 586 03b4 455F4655 		.ascii "E_FUNC_STARTTASK\0"
 586      4E435F53 
 586      54415254 
 586      5441534B 
GAS LISTING C:\Users\PRESID~1\AppData\Local\Temp\cc3IHcck.s 			page 19


 586      00
 587 03c5 06       		.sleb128 6
 588 03c6 05       		.uleb128 0x5
 589 03c7 455F4655 		.ascii "E_FUNC_PREEMPTTASK\0"
 589      4E435F50 
 589      5245454D 
 589      50545441 
 589      534B00
 590 03da 07       		.sleb128 7
 591 03db 05       		.uleb128 0x5
 592 03dc 455F4655 		.ascii "E_FUNC_TERMINATETASK\0"
 592      4E435F54 
 592      45524D49 
 592      4E415445 
 592      5441534B 
 593 03f1 08       		.sleb128 8
 594 03f2 05       		.uleb128 0x5
 595 03f3 455F4655 		.ascii "E_FUNC_TASKSCHEDULER\0"
 595      4E435F54 
 595      41534B53 
 595      43484544 
 595      554C4552 
 596 0408 09       		.sleb128 9
 597 0409 05       		.uleb128 0x5
 598 040a 455F4655 		.ascii "E_FUNC_INITTASK\0"
 598      4E435F49 
 598      4E495454 
 598      41534B00 
 599 041a 0A       		.sleb128 10
 600 041b 05       		.uleb128 0x5
 601 041c 455F4655 		.ascii "E_FUNC_ACTIVATETASK\0"
 601      4E435F41 
 601      43544956 
 601      41544554 
 601      41534B00 
 602 0430 0B       		.sleb128 11
 603 0431 05       		.uleb128 0x5
 604 0432 455F4655 		.ascii "E_FUNC_TASKSTATEREQUEST\0"
 604      4E435F54 
 604      41534B53 
 604      54415445 
 604      52455155 
 605 044a 0C       		.sleb128 12
 606 044b 05       		.uleb128 0x5
 607 044c 455F4655 		.ascii "E_FUNC_PREEMPT_TASK\0"
 607      4E435F50 
 607      5245454D 
 607      50545F54 
 607      41534B00 
 608 0460 0D       		.sleb128 13
 609 0461 05       		.uleb128 0x5
 610 0462 455F4655 		.ascii "E_FUNC_OS_EXCEPTION\0"
 610      4E435F4F 
 610      535F4558 
 610      43455054 
 610      494F4E00 
 611 0476 0E       		.sleb128 14
GAS LISTING C:\Users\PRESID~1\AppData\Local\Temp\cc3IHcck.s 			page 20


 612 0477 05       		.uleb128 0x5
 613 0478 455F4655 		.ascii "E_FUNC_CREATETASK\0"
 613      4E435F43 
 613      52454154 
 613      45544153 
 613      4B00
 614 048a 0F       		.sleb128 15
 615 048b 05       		.uleb128 0x5
 616 048c 455F4655 		.ascii "E_FUNC_SHUTDOWN\0"
 616      4E435F53 
 616      48555444 
 616      4F574E00 
 617 049c 10       		.sleb128 16
 618 049d 05       		.uleb128 0x5
 619 049e 455F4655 		.ascii "E_FUNC_STACKCHECK\0"
 619      4E435F53 
 619      5441434B 
 619      43484543 
 619      4B00
 620 04b0 11       		.sleb128 17
 621 04b1 05       		.uleb128 0x5
 622 04b2 455F4655 		.ascii "E_FUNC_ISRHANDLER\0"
 622      4E435F49 
 622      53524841 
 622      4E444C45 
 622      5200
 623 04c4 12       		.sleb128 18
 624 04c5 05       		.uleb128 0x5
 625 04c6 455F4655 		.ascii "E_FUNC_STATE_HANDLER\0"
 625      4E435F53 
 625      54415445 
 625      5F48414E 
 625      444C4552 
 626 04db 13       		.sleb128 19
 627 04dc 05       		.uleb128 0x5
 628 04dd 455F4655 		.ascii "E_FUNC_INTDIV\0"
 628      4E435F49 
 628      4E544449 
 628      5600
 629 04eb 14       		.sleb128 20
 630 04ec 05       		.uleb128 0x5
 631 04ed 455F4655 		.ascii "E_FUNC_SHIFT_LEFT\0"
 631      4E435F53 
 631      48494654 
 631      5F4C4546 
 631      5400
 632 04ff 15       		.sleb128 21
 633 0500 00       		.byte	0
 634 0501 03       		.uleb128 0x3
 635 0502 04       		.byte	0x4
 636 0503 07       		.byte	0x7
 637 0504 73697A65 		.ascii "sizetype\0"
 637      74797065 
 637      00
 638 050d 03       		.uleb128 0x3
 639 050e 04       		.byte	0x4
 640 050f 07       		.byte	0x7
GAS LISTING C:\Users\PRESID~1\AppData\Local\Temp\cc3IHcck.s 			page 21


 641 0510 756E7369 		.ascii "unsigned int\0"
 641      676E6564 
 641      20696E74 
 641      00
 642 051d 06       		.uleb128 0x6
 643 051e 4F535F53 		.ascii "OS_STACK_CHECK\0"
 643      5441434B 
 643      5F434845 
 643      434B00
 644 052d 01       		.byte	0x1
 645 052e 03       		.byte	0x3
 646 052f 00000000 		.long	LFB0
 647 0533 FC030000 		.long	LFE0-LFB0
 648 0537 01       		.uleb128 0x1
 649 0538 9C       		.byte	0x9c
 650 0539 67050000 		.long	0x567
 651 053d 07       		.uleb128 0x7
 652 053e 00000000 		.secrel32	LASF0
 653 0542 01       		.byte	0x1
 654 0543 0B       		.byte	0xb
 655 0544 67050000 		.long	0x567
 656 0548 05       		.uleb128 0x5
 657 0549 03       		.byte	0x3
 658 054a 00000000 		.long	_stack_pos.1369
 659 054e 08       		.uleb128 0x8
 660 054f 73746163 		.ascii "stack_used\0"
 660      6B5F7573 
 660      656400
 661 055a 01       		.byte	0x1
 662 055b 0B       		.byte	0xb
 663 055c 67050000 		.long	0x567
 664 0560 05       		.uleb128 0x5
 665 0561 03       		.byte	0x3
 666 0562 04000000 		.long	_stack_used.1370
 667 0566 00       		.byte	0
 668 0567 09       		.uleb128 0x9
 669 0568 07010000 		.long	0x107
 670 056c 0A       		.uleb128 0xa
 671 056d 4F535F53 		.ascii "OS_STACK_CHK_PATTERN_INIT\0"
 671      5441434B 
 671      5F43484B 
 671      5F504154 
 671      5445524E 
 672 0587 01       		.byte	0x1
 673 0588 6A       		.byte	0x6a
 674 0589 FC030000 		.long	LFB1
 675 058d CF000000 		.long	LFE1-LFB1
 676 0591 01       		.uleb128 0x1
 677 0592 9C       		.byte	0x9c
 678 0593 A6050000 		.long	0x5a6
 679 0597 07       		.uleb128 0x7
 680 0598 00000000 		.secrel32	LASF0
 681 059c 01       		.byte	0x1
 682 059d 6C       		.byte	0x6c
 683 059e 07010000 		.long	0x107
 684 05a2 02       		.uleb128 0x2
 685 05a3 91       		.byte	0x91
GAS LISTING C:\Users\PRESID~1\AppData\Local\Temp\cc3IHcck.s 			page 22


 686 05a4 74       		.sleb128 -12
 687 05a5 00       		.byte	0
 688 05a6 0B       		.uleb128 0xb
 689 05a7 4F535F4D 		.ascii "OS_MAIN_STACK_ADDR\0"
 689      41494E5F 
 689      53544143 
 689      4B5F4144 
 689      445200
 690 05ba 04       		.byte	0x4
 691 05bb 23       		.byte	0x23
 692 05bc C0050000 		.long	0x5c0
 693 05c0 0C       		.uleb128 0xc
 694 05c1 04       		.byte	0x4
 695 05c2 67050000 		.long	0x567
 696 05c6 0B       		.uleb128 0xb
 697 05c7 4F535F4D 		.ascii "OS_MAIN_STACK_POS\0"
 697      41494E5F 
 697      53544143 
 697      4B5F504F 
 697      5300
 698 05d9 04       		.byte	0x4
 699 05da 24       		.byte	0x24
 700 05db 67050000 		.long	0x567
 701 05df 0B       		.uleb128 0xb
 702 05e0 4F535F4D 		.ascii "OS_MAIN_STACK_USAGE_PERCENT\0"
 702      41494E5F 
 702      53544143 
 702      4B5F5553 
 702      4147455F 
 703 05fc 04       		.byte	0x4
 704 05fd 25       		.byte	0x25
 705 05fe 67050000 		.long	0x567
 706 0602 0B       		.uleb128 0xb
 707 0603 5441534B 		.ascii "TASK0_STACK_ADDR\0"
 707      305F5354 
 707      41434B5F 
 707      41444452 
 707      00
 708 0614 04       		.byte	0x4
 709 0615 26       		.byte	0x26
 710 0616 C0050000 		.long	0x5c0
 711 061a 0B       		.uleb128 0xb
 712 061b 5441534B 		.ascii "TASK0_STACK_POS\0"
 712      305F5354 
 712      41434B5F 
 712      504F5300 
 713 062b 04       		.byte	0x4
 714 062c 27       		.byte	0x27
 715 062d 67050000 		.long	0x567
 716 0631 0B       		.uleb128 0xb
 717 0632 5441534B 		.ascii "TASK0_STACK_USAGE_PERCENT\0"
 717      305F5354 
 717      41434B5F 
 717      55534147 
 717      455F5045 
 718 064c 04       		.byte	0x4
 719 064d 28       		.byte	0x28
GAS LISTING C:\Users\PRESID~1\AppData\Local\Temp\cc3IHcck.s 			page 23


 720 064e 67050000 		.long	0x567
 721 0652 0B       		.uleb128 0xb
 722 0653 5441534B 		.ascii "TASK1_STACK_ADDR\0"
 722      315F5354 
 722      41434B5F 
 722      41444452 
 722      00
 723 0664 04       		.byte	0x4
 724 0665 29       		.byte	0x29
 725 0666 C0050000 		.long	0x5c0
 726 066a 0B       		.uleb128 0xb
 727 066b 5441534B 		.ascii "TASK1_STACK_POS\0"
 727      315F5354 
 727      41434B5F 
 727      504F5300 
 728 067b 04       		.byte	0x4
 729 067c 2A       		.byte	0x2a
 730 067d 67050000 		.long	0x567
 731 0681 0B       		.uleb128 0xb
 732 0682 5441534B 		.ascii "TASK1_STACK_USAGE_PERCENT\0"
 732      315F5354 
 732      41434B5F 
 732      55534147 
 732      455F5045 
 733 069c 04       		.byte	0x4
 734 069d 2B       		.byte	0x2b
 735 069e 67050000 		.long	0x567
 736 06a2 0B       		.uleb128 0xb
 737 06a3 5441534B 		.ascii "TASK2_STACK_ADDR\0"
 737      325F5354 
 737      41434B5F 
 737      41444452 
 737      00
 738 06b4 04       		.byte	0x4
 739 06b5 2C       		.byte	0x2c
 740 06b6 C0050000 		.long	0x5c0
 741 06ba 0B       		.uleb128 0xb
 742 06bb 5441534B 		.ascii "TASK2_STACK_POS\0"
 742      325F5354 
 742      41434B5F 
 742      504F5300 
 743 06cb 04       		.byte	0x4
 744 06cc 2D       		.byte	0x2d
 745 06cd 67050000 		.long	0x567
 746 06d1 0B       		.uleb128 0xb
 747 06d2 5441534B 		.ascii "TASK2_STACK_USAGE_PERCENT\0"
 747      325F5354 
 747      41434B5F 
 747      55534147 
 747      455F5045 
 748 06ec 04       		.byte	0x4
 749 06ed 2E       		.byte	0x2e
 750 06ee 67050000 		.long	0x567
 751 06f2 0B       		.uleb128 0xb
 752 06f3 5441534B 		.ascii "TASK3_STACK_ADDR\0"
 752      335F5354 
 752      41434B5F 
GAS LISTING C:\Users\PRESID~1\AppData\Local\Temp\cc3IHcck.s 			page 24


 752      41444452 
 752      00
 753 0704 04       		.byte	0x4
 754 0705 2F       		.byte	0x2f
 755 0706 C0050000 		.long	0x5c0
 756 070a 0B       		.uleb128 0xb
 757 070b 5441534B 		.ascii "TASK3_STACK_POS\0"
 757      335F5354 
 757      41434B5F 
 757      504F5300 
 758 071b 04       		.byte	0x4
 759 071c 30       		.byte	0x30
 760 071d 67050000 		.long	0x567
 761 0721 0B       		.uleb128 0xb
 762 0722 5441534B 		.ascii "TASK3_STACK_USAGE_PERCENT\0"
 762      335F5354 
 762      41434B5F 
 762      55534147 
 762      455F5045 
 763 073c 04       		.byte	0x4
 764 073d 31       		.byte	0x31
 765 073e 67050000 		.long	0x567
 766 0742 0B       		.uleb128 0xb
 767 0743 5441534B 		.ascii "TASK4_STACK_ADDR\0"
 767      345F5354 
 767      41434B5F 
 767      41444452 
 767      00
 768 0754 04       		.byte	0x4
 769 0755 32       		.byte	0x32
 770 0756 C0050000 		.long	0x5c0
 771 075a 0B       		.uleb128 0xb
 772 075b 5441534B 		.ascii "TASK4_STACK_POS\0"
 772      345F5354 
 772      41434B5F 
 772      504F5300 
 773 076b 04       		.byte	0x4
 774 076c 33       		.byte	0x33
 775 076d 67050000 		.long	0x567
 776 0771 0B       		.uleb128 0xb
 777 0772 5441534B 		.ascii "TASK4_STACK_USAGE_PERCENT\0"
 777      345F5354 
 777      41434B5F 
 777      55534147 
 777      455F5045 
 778 078c 04       		.byte	0x4
 779 078d 34       		.byte	0x34
 780 078e 67050000 		.long	0x567
 781 0792 0D       		.uleb128 0xd
 782 0793 8C000000 		.long	0x8c
 783 0797 A3070000 		.long	0x7a3
 784 079b 0E       		.uleb128 0xe
 785 079c 01050000 		.long	0x501
 786 07a0 CF07     		.word	0x7cf
 787 07a2 00       		.byte	0
 788 07a3 0B       		.uleb128 0xb
 789 07a4 5441534B 		.ascii "TASK0_STACK\0"
GAS LISTING C:\Users\PRESID~1\AppData\Local\Temp\cc3IHcck.s 			page 25


 789      305F5354 
 789      41434B00 
 790 07b0 04       		.byte	0x4
 791 07b1 35       		.byte	0x35
 792 07b2 92070000 		.long	0x792
 793 07b6 0B       		.uleb128 0xb
 794 07b7 5441534B 		.ascii "TASK1_STACK\0"
 794      315F5354 
 794      41434B00 
 795 07c3 04       		.byte	0x4
 796 07c4 36       		.byte	0x36
 797 07c5 92070000 		.long	0x792
 798 07c9 0B       		.uleb128 0xb
 799 07ca 5441534B 		.ascii "TASK2_STACK\0"
 799      325F5354 
 799      41434B00 
 800 07d6 04       		.byte	0x4
 801 07d7 37       		.byte	0x37
 802 07d8 92070000 		.long	0x792
 803 07dc 0B       		.uleb128 0xb
 804 07dd 5441534B 		.ascii "TASK3_STACK\0"
 804      335F5354 
 804      41434B00 
 805 07e9 04       		.byte	0x4
 806 07ea 38       		.byte	0x38
 807 07eb 92070000 		.long	0x792
 808 07ef 0B       		.uleb128 0xb
 809 07f0 5441534B 		.ascii "TASK4_STACK\0"
 809      345F5354 
 809      41434B00 
 810 07fc 04       		.byte	0x4
 811 07fd 39       		.byte	0x39
 812 07fe 92070000 		.long	0x792
 813 0802 0D       		.uleb128 0xd
 814 0803 8C000000 		.long	0x8c
 815 0807 13080000 		.long	0x813
 816 080b 0E       		.uleb128 0xe
 817 080c 01050000 		.long	0x501
 818 0810 FF03     		.word	0x3ff
 819 0812 00       		.byte	0
 820 0813 0B       		.uleb128 0xb
 821 0814 4F535F4D 		.ascii "OS_MAIN_STACK\0"
 821      41494E5F 
 821      53544143 
 821      4B00
 822 0822 05       		.byte	0x5
 823 0823 0C       		.byte	0xc
 824 0824 02080000 		.long	0x802
 825 0828 00       		.byte	0
 826              		.section	.debug_abbrev,"dr"
 827              	Ldebug_abbrev0:
 828 0000 01       		.uleb128 0x1
 829 0001 11       		.uleb128 0x11
 830 0002 01       		.byte	0x1
 831 0003 25       		.uleb128 0x25
 832 0004 08       		.uleb128 0x8
 833 0005 13       		.uleb128 0x13
GAS LISTING C:\Users\PRESID~1\AppData\Local\Temp\cc3IHcck.s 			page 26


 834 0006 0B       		.uleb128 0xb
 835 0007 03       		.uleb128 0x3
 836 0008 08       		.uleb128 0x8
 837 0009 11       		.uleb128 0x11
 838 000a 01       		.uleb128 0x1
 839 000b 12       		.uleb128 0x12
 840 000c 06       		.uleb128 0x6
 841 000d 10       		.uleb128 0x10
 842 000e 17       		.uleb128 0x17
 843 000f 9942     		.uleb128 0x2119
 844 0011 17       		.uleb128 0x17
 845 0012 00       		.byte	0
 846 0013 00       		.byte	0
 847 0014 02       		.uleb128 0x2
 848 0015 16       		.uleb128 0x16
 849 0016 00       		.byte	0
 850 0017 03       		.uleb128 0x3
 851 0018 08       		.uleb128 0x8
 852 0019 3A       		.uleb128 0x3a
 853 001a 0B       		.uleb128 0xb
 854 001b 3B       		.uleb128 0x3b
 855 001c 0B       		.uleb128 0xb
 856 001d 49       		.uleb128 0x49
 857 001e 13       		.uleb128 0x13
 858 001f 00       		.byte	0
 859 0020 00       		.byte	0
 860 0021 03       		.uleb128 0x3
 861 0022 24       		.uleb128 0x24
 862 0023 00       		.byte	0
 863 0024 0B       		.uleb128 0xb
 864 0025 0B       		.uleb128 0xb
 865 0026 3E       		.uleb128 0x3e
 866 0027 0B       		.uleb128 0xb
 867 0028 03       		.uleb128 0x3
 868 0029 08       		.uleb128 0x8
 869 002a 00       		.byte	0
 870 002b 00       		.byte	0
 871 002c 04       		.uleb128 0x4
 872 002d 04       		.uleb128 0x4
 873 002e 01       		.byte	0x1
 874 002f 03       		.uleb128 0x3
 875 0030 08       		.uleb128 0x8
 876 0031 0B       		.uleb128 0xb
 877 0032 0B       		.uleb128 0xb
 878 0033 3A       		.uleb128 0x3a
 879 0034 0B       		.uleb128 0xb
 880 0035 3B       		.uleb128 0x3b
 881 0036 0B       		.uleb128 0xb
 882 0037 01       		.uleb128 0x1
 883 0038 13       		.uleb128 0x13
 884 0039 00       		.byte	0
 885 003a 00       		.byte	0
 886 003b 05       		.uleb128 0x5
 887 003c 28       		.uleb128 0x28
 888 003d 00       		.byte	0
 889 003e 03       		.uleb128 0x3
 890 003f 08       		.uleb128 0x8
GAS LISTING C:\Users\PRESID~1\AppData\Local\Temp\cc3IHcck.s 			page 27


 891 0040 1C       		.uleb128 0x1c
 892 0041 0D       		.uleb128 0xd
 893 0042 00       		.byte	0
 894 0043 00       		.byte	0
 895 0044 06       		.uleb128 0x6
 896 0045 2E       		.uleb128 0x2e
 897 0046 01       		.byte	0x1
 898 0047 3F       		.uleb128 0x3f
 899 0048 19       		.uleb128 0x19
 900 0049 03       		.uleb128 0x3
 901 004a 08       		.uleb128 0x8
 902 004b 3A       		.uleb128 0x3a
 903 004c 0B       		.uleb128 0xb
 904 004d 3B       		.uleb128 0x3b
 905 004e 0B       		.uleb128 0xb
 906 004f 27       		.uleb128 0x27
 907 0050 19       		.uleb128 0x19
 908 0051 11       		.uleb128 0x11
 909 0052 01       		.uleb128 0x1
 910 0053 12       		.uleb128 0x12
 911 0054 06       		.uleb128 0x6
 912 0055 40       		.uleb128 0x40
 913 0056 18       		.uleb128 0x18
 914 0057 9642     		.uleb128 0x2116
 915 0059 19       		.uleb128 0x19
 916 005a 01       		.uleb128 0x1
 917 005b 13       		.uleb128 0x13
 918 005c 00       		.byte	0
 919 005d 00       		.byte	0
 920 005e 07       		.uleb128 0x7
 921 005f 34       		.uleb128 0x34
 922 0060 00       		.byte	0
 923 0061 03       		.uleb128 0x3
 924 0062 0E       		.uleb128 0xe
 925 0063 3A       		.uleb128 0x3a
 926 0064 0B       		.uleb128 0xb
 927 0065 3B       		.uleb128 0x3b
 928 0066 0B       		.uleb128 0xb
 929 0067 49       		.uleb128 0x49
 930 0068 13       		.uleb128 0x13
 931 0069 02       		.uleb128 0x2
 932 006a 18       		.uleb128 0x18
 933 006b 00       		.byte	0
 934 006c 00       		.byte	0
 935 006d 08       		.uleb128 0x8
 936 006e 34       		.uleb128 0x34
 937 006f 00       		.byte	0
 938 0070 03       		.uleb128 0x3
 939 0071 08       		.uleb128 0x8
 940 0072 3A       		.uleb128 0x3a
 941 0073 0B       		.uleb128 0xb
 942 0074 3B       		.uleb128 0x3b
 943 0075 0B       		.uleb128 0xb
 944 0076 49       		.uleb128 0x49
 945 0077 13       		.uleb128 0x13
 946 0078 02       		.uleb128 0x2
 947 0079 18       		.uleb128 0x18
GAS LISTING C:\Users\PRESID~1\AppData\Local\Temp\cc3IHcck.s 			page 28


 948 007a 00       		.byte	0
 949 007b 00       		.byte	0
 950 007c 09       		.uleb128 0x9
 951 007d 35       		.uleb128 0x35
 952 007e 00       		.byte	0
 953 007f 49       		.uleb128 0x49
 954 0080 13       		.uleb128 0x13
 955 0081 00       		.byte	0
 956 0082 00       		.byte	0
 957 0083 0A       		.uleb128 0xa
 958 0084 2E       		.uleb128 0x2e
 959 0085 01       		.byte	0x1
 960 0086 3F       		.uleb128 0x3f
 961 0087 19       		.uleb128 0x19
 962 0088 03       		.uleb128 0x3
 963 0089 08       		.uleb128 0x8
 964 008a 3A       		.uleb128 0x3a
 965 008b 0B       		.uleb128 0xb
 966 008c 3B       		.uleb128 0x3b
 967 008d 0B       		.uleb128 0xb
 968 008e 27       		.uleb128 0x27
 969 008f 19       		.uleb128 0x19
 970 0090 11       		.uleb128 0x11
 971 0091 01       		.uleb128 0x1
 972 0092 12       		.uleb128 0x12
 973 0093 06       		.uleb128 0x6
 974 0094 40       		.uleb128 0x40
 975 0095 18       		.uleb128 0x18
 976 0096 9742     		.uleb128 0x2117
 977 0098 19       		.uleb128 0x19
 978 0099 01       		.uleb128 0x1
 979 009a 13       		.uleb128 0x13
 980 009b 00       		.byte	0
 981 009c 00       		.byte	0
 982 009d 0B       		.uleb128 0xb
 983 009e 34       		.uleb128 0x34
 984 009f 00       		.byte	0
 985 00a0 03       		.uleb128 0x3
 986 00a1 08       		.uleb128 0x8
 987 00a2 3A       		.uleb128 0x3a
 988 00a3 0B       		.uleb128 0xb
 989 00a4 3B       		.uleb128 0x3b
 990 00a5 0B       		.uleb128 0xb
 991 00a6 49       		.uleb128 0x49
 992 00a7 13       		.uleb128 0x13
 993 00a8 3F       		.uleb128 0x3f
 994 00a9 19       		.uleb128 0x19
 995 00aa 3C       		.uleb128 0x3c
 996 00ab 19       		.uleb128 0x19
 997 00ac 00       		.byte	0
 998 00ad 00       		.byte	0
 999 00ae 0C       		.uleb128 0xc
 1000 00af 0F       		.uleb128 0xf
 1001 00b0 00       		.byte	0
 1002 00b1 0B       		.uleb128 0xb
 1003 00b2 0B       		.uleb128 0xb
 1004 00b3 49       		.uleb128 0x49
GAS LISTING C:\Users\PRESID~1\AppData\Local\Temp\cc3IHcck.s 			page 29


 1005 00b4 13       		.uleb128 0x13
 1006 00b5 00       		.byte	0
 1007 00b6 00       		.byte	0
 1008 00b7 0D       		.uleb128 0xd
 1009 00b8 01       		.uleb128 0x1
 1010 00b9 01       		.byte	0x1
 1011 00ba 49       		.uleb128 0x49
 1012 00bb 13       		.uleb128 0x13
 1013 00bc 01       		.uleb128 0x1
 1014 00bd 13       		.uleb128 0x13
 1015 00be 00       		.byte	0
 1016 00bf 00       		.byte	0
 1017 00c0 0E       		.uleb128 0xe
 1018 00c1 21       		.uleb128 0x21
 1019 00c2 00       		.byte	0
 1020 00c3 49       		.uleb128 0x49
 1021 00c4 13       		.uleb128 0x13
 1022 00c5 2F       		.uleb128 0x2f
 1023 00c6 05       		.uleb128 0x5
 1024 00c7 00       		.byte	0
 1025 00c8 00       		.byte	0
 1026 00c9 00       		.byte	0
 1027              		.section	.debug_aranges,"dr"
 1028 0000 1C000000 		.long	0x1c
 1029 0004 0200     		.word	0x2
 1030 0006 00000000 		.secrel32	Ldebug_info0
 1031 000a 04       		.byte	0x4
 1032 000b 00       		.byte	0
 1033 000c 0000     		.word	0
 1034 000e 0000     		.word	0
 1035 0010 00000000 		.long	Ltext0
 1036 0014 CB040000 		.long	Letext0-Ltext0
 1037 0018 00000000 		.long	0
 1038 001c 00000000 		.long	0
 1039              		.section	.debug_macro,"dr"
 1040              	Ldebug_macro0:
 1041 0000 0400     		.word	0x4
 1042 0002 02       		.byte	0x2
 1043 0003 00000000 		.secrel32	Ldebug_line0
 1044 0007 01       		.byte	0x1
 1045 0008 00       		.uleb128 0
 1046 0009 5F5F5354 		.ascii "__STDC__ 1\0"
 1046      44435F5F 
 1046      203100
 1047 0014 01       		.byte	0x1
 1048 0015 00       		.uleb128 0
 1049 0016 5F5F5354 		.ascii "__STDC_HOSTED__ 1\0"
 1049      44435F48 
 1049      4F535445 
 1049      445F5F20 
 1049      3100
 1050 0028 01       		.byte	0x1
 1051 0029 00       		.uleb128 0
 1052 002a 5F5F474E 		.ascii "__GNUC__ 4\0"
 1052      55435F5F 
 1052      203400
 1053 0035 01       		.byte	0x1
GAS LISTING C:\Users\PRESID~1\AppData\Local\Temp\cc3IHcck.s 			page 30


 1054 0036 00       		.uleb128 0
 1055 0037 5F5F474E 		.ascii "__GNUC_MINOR__ 9\0"
 1055      55435F4D 
 1055      494E4F52 
 1055      5F5F2039 
 1055      00
 1056 0048 01       		.byte	0x1
 1057 0049 00       		.uleb128 0
 1058 004a 5F5F474E 		.ascii "__GNUC_PATCHLEVEL__ 3\0"
 1058      55435F50 
 1058      41544348 
 1058      4C455645 
 1058      4C5F5F20 
 1059 0060 01       		.byte	0x1
 1060 0061 00       		.uleb128 0
 1061 0062 5F5F5645 		.ascii "__VERSION__ \"4.9.3\"\0"
 1061      5253494F 
 1061      4E5F5F20 
 1061      22342E39 
 1061      2E332200 
 1062 0076 01       		.byte	0x1
 1063 0077 00       		.uleb128 0
 1064 0078 5F5F4154 		.ascii "__ATOMIC_RELAXED 0\0"
 1064      4F4D4943 
 1064      5F52454C 
 1064      41584544 
 1064      203000
 1065 008b 01       		.byte	0x1
 1066 008c 00       		.uleb128 0
 1067 008d 5F5F4154 		.ascii "__ATOMIC_SEQ_CST 5\0"
 1067      4F4D4943 
 1067      5F534551 
 1067      5F435354 
 1067      203500
 1068 00a0 01       		.byte	0x1
 1069 00a1 00       		.uleb128 0
 1070 00a2 5F5F4154 		.ascii "__ATOMIC_ACQUIRE 2\0"
 1070      4F4D4943 
 1070      5F414351 
 1070      55495245 
 1070      203200
 1071 00b5 01       		.byte	0x1
 1072 00b6 00       		.uleb128 0
 1073 00b7 5F5F4154 		.ascii "__ATOMIC_RELEASE 3\0"
 1073      4F4D4943 
 1073      5F52454C 
 1073      45415345 
 1073      203300
 1074 00ca 01       		.byte	0x1
 1075 00cb 00       		.uleb128 0
 1076 00cc 5F5F4154 		.ascii "__ATOMIC_ACQ_REL 4\0"
 1076      4F4D4943 
 1076      5F414351 
 1076      5F52454C 
 1076      203400
 1077 00df 01       		.byte	0x1
 1078 00e0 00       		.uleb128 0
GAS LISTING C:\Users\PRESID~1\AppData\Local\Temp\cc3IHcck.s 			page 31


 1079 00e1 5F5F4154 		.ascii "__ATOMIC_CONSUME 1\0"
 1079      4F4D4943 
 1079      5F434F4E 
 1079      53554D45 
 1079      203100
 1080 00f4 01       		.byte	0x1
 1081 00f5 00       		.uleb128 0
 1082 00f6 5F5F4649 		.ascii "__FINITE_MATH_ONLY__ 0\0"
 1082      4E495445 
 1082      5F4D4154 
 1082      485F4F4E 
 1082      4C595F5F 
 1083 010d 01       		.byte	0x1
 1084 010e 00       		.uleb128 0
 1085 010f 5F5F5349 		.ascii "__SIZEOF_INT__ 4\0"
 1085      5A454F46 
 1085      5F494E54 
 1085      5F5F2034 
 1085      00
 1086 0120 01       		.byte	0x1
 1087 0121 00       		.uleb128 0
 1088 0122 5F5F5349 		.ascii "__SIZEOF_LONG__ 4\0"
 1088      5A454F46 
 1088      5F4C4F4E 
 1088      475F5F20 
 1088      3400
 1089 0134 01       		.byte	0x1
 1090 0135 00       		.uleb128 0
 1091 0136 5F5F5349 		.ascii "__SIZEOF_LONG_LONG__ 8\0"
 1091      5A454F46 
 1091      5F4C4F4E 
 1091      475F4C4F 
 1091      4E475F5F 
 1092 014d 01       		.byte	0x1
 1093 014e 00       		.uleb128 0
 1094 014f 5F5F5349 		.ascii "__SIZEOF_SHORT__ 2\0"
 1094      5A454F46 
 1094      5F53484F 
 1094      52545F5F 
 1094      203200
 1095 0162 01       		.byte	0x1
 1096 0163 00       		.uleb128 0
 1097 0164 5F5F5349 		.ascii "__SIZEOF_FLOAT__ 4\0"
 1097      5A454F46 
 1097      5F464C4F 
 1097      41545F5F 
 1097      203400
 1098 0177 01       		.byte	0x1
 1099 0178 00       		.uleb128 0
 1100 0179 5F5F5349 		.ascii "__SIZEOF_DOUBLE__ 8\0"
 1100      5A454F46 
 1100      5F444F55 
 1100      424C455F 
 1100      5F203800 
 1101 018d 01       		.byte	0x1
 1102 018e 00       		.uleb128 0
 1103 018f 5F5F5349 		.ascii "__SIZEOF_LONG_DOUBLE__ 12\0"
GAS LISTING C:\Users\PRESID~1\AppData\Local\Temp\cc3IHcck.s 			page 32


 1103      5A454F46 
 1103      5F4C4F4E 
 1103      475F444F 
 1103      55424C45 
 1104 01a9 01       		.byte	0x1
 1105 01aa 00       		.uleb128 0
 1106 01ab 5F5F5349 		.ascii "__SIZEOF_SIZE_T__ 4\0"
 1106      5A454F46 
 1106      5F53495A 
 1106      455F545F 
 1106      5F203400 
 1107 01bf 01       		.byte	0x1
 1108 01c0 00       		.uleb128 0
 1109 01c1 5F5F4348 		.ascii "__CHAR_BIT__ 8\0"
 1109      41525F42 
 1109      49545F5F 
 1109      203800
 1110 01d0 01       		.byte	0x1
 1111 01d1 00       		.uleb128 0
 1112 01d2 5F5F4249 		.ascii "__BIGGEST_ALIGNMENT__ 16\0"
 1112      47474553 
 1112      545F414C 
 1112      49474E4D 
 1112      454E545F 
 1113 01eb 01       		.byte	0x1
 1114 01ec 00       		.uleb128 0
 1115 01ed 5F5F4F52 		.ascii "__ORDER_LITTLE_ENDIAN__ 1234\0"
 1115      4445525F 
 1115      4C495454 
 1115      4C455F45 
 1115      4E444941 
 1116 020a 01       		.byte	0x1
 1117 020b 00       		.uleb128 0
 1118 020c 5F5F4F52 		.ascii "__ORDER_BIG_ENDIAN__ 4321\0"
 1118      4445525F 
 1118      4249475F 
 1118      454E4449 
 1118      414E5F5F 
 1119 0226 01       		.byte	0x1
 1120 0227 00       		.uleb128 0
 1121 0228 5F5F4F52 		.ascii "__ORDER_PDP_ENDIAN__ 3412\0"
 1121      4445525F 
 1121      5044505F 
 1121      454E4449 
 1121      414E5F5F 
 1122 0242 01       		.byte	0x1
 1123 0243 00       		.uleb128 0
 1124 0244 5F5F4259 		.ascii "__BYTE_ORDER__ __ORDER_LITTLE_ENDIAN__\0"
 1124      54455F4F 
 1124      52444552 
 1124      5F5F205F 
 1124      5F4F5244 
 1125 026b 01       		.byte	0x1
 1126 026c 00       		.uleb128 0
 1127 026d 5F5F464C 		.ascii "__FLOAT_WORD_ORDER__ __ORDER_LITTLE_ENDIAN__\0"
 1127      4F41545F 
 1127      574F5244 
GAS LISTING C:\Users\PRESID~1\AppData\Local\Temp\cc3IHcck.s 			page 33


 1127      5F4F5244 
 1127      45525F5F 
 1128 029a 01       		.byte	0x1
 1129 029b 00       		.uleb128 0
 1130 029c 5F5F5349 		.ascii "__SIZEOF_POINTER__ 4\0"
 1130      5A454F46 
 1130      5F504F49 
 1130      4E544552 
 1130      5F5F2034 
 1131 02b1 01       		.byte	0x1
 1132 02b2 00       		.uleb128 0
 1133 02b3 5F5F5349 		.ascii "__SIZE_TYPE__ unsigned int\0"
 1133      5A455F54 
 1133      5950455F 
 1133      5F20756E 
 1133      7369676E 
 1134 02ce 01       		.byte	0x1
 1135 02cf 00       		.uleb128 0
 1136 02d0 5F5F5054 		.ascii "__PTRDIFF_TYPE__ int\0"
 1136      52444946 
 1136      465F5459 
 1136      50455F5F 
 1136      20696E74 
 1137 02e5 01       		.byte	0x1
 1138 02e6 00       		.uleb128 0
 1139 02e7 5F5F5743 		.ascii "__WCHAR_TYPE__ short unsigned int\0"
 1139      4841525F 
 1139      54595045 
 1139      5F5F2073 
 1139      686F7274 
 1140 0309 01       		.byte	0x1
 1141 030a 00       		.uleb128 0
 1142 030b 5F5F5749 		.ascii "__WINT_TYPE__ short unsigned int\0"
 1142      4E545F54 
 1142      5950455F 
 1142      5F207368 
 1142      6F727420 
 1143 032c 01       		.byte	0x1
 1144 032d 00       		.uleb128 0
 1145 032e 5F5F494E 		.ascii "__INTMAX_TYPE__ long long int\0"
 1145      544D4158 
 1145      5F545950 
 1145      455F5F20 
 1145      6C6F6E67 
 1146 034c 01       		.byte	0x1
 1147 034d 00       		.uleb128 0
 1148 034e 5F5F5549 		.ascii "__UINTMAX_TYPE__ long long unsigned int\0"
 1148      4E544D41 
 1148      585F5459 
 1148      50455F5F 
 1148      206C6F6E 
 1149 0376 01       		.byte	0x1
 1150 0377 00       		.uleb128 0
 1151 0378 5F5F4348 		.ascii "__CHAR16_TYPE__ short unsigned int\0"
 1151      41523136 
 1151      5F545950 
 1151      455F5F20 
GAS LISTING C:\Users\PRESID~1\AppData\Local\Temp\cc3IHcck.s 			page 34


 1151      73686F72 
 1152 039b 01       		.byte	0x1
 1153 039c 00       		.uleb128 0
 1154 039d 5F5F4348 		.ascii "__CHAR32_TYPE__ unsigned int\0"
 1154      41523332 
 1154      5F545950 
 1154      455F5F20 
 1154      756E7369 
 1155 03ba 01       		.byte	0x1
 1156 03bb 00       		.uleb128 0
 1157 03bc 5F5F5349 		.ascii "__SIG_ATOMIC_TYPE__ int\0"
 1157      475F4154 
 1157      4F4D4943 
 1157      5F545950 
 1157      455F5F20 
 1158 03d4 01       		.byte	0x1
 1159 03d5 00       		.uleb128 0
 1160 03d6 5F5F494E 		.ascii "__INT8_TYPE__ signed char\0"
 1160      54385F54 
 1160      5950455F 
 1160      5F207369 
 1160      676E6564 
 1161 03f0 01       		.byte	0x1
 1162 03f1 00       		.uleb128 0
 1163 03f2 5F5F494E 		.ascii "__INT16_TYPE__ short int\0"
 1163      5431365F 
 1163      54595045 
 1163      5F5F2073 
 1163      686F7274 
 1164 040b 01       		.byte	0x1
 1165 040c 00       		.uleb128 0
 1166 040d 5F5F494E 		.ascii "__INT32_TYPE__ int\0"
 1166      5433325F 
 1166      54595045 
 1166      5F5F2069 
 1166      6E7400
 1167 0420 01       		.byte	0x1
 1168 0421 00       		.uleb128 0
 1169 0422 5F5F494E 		.ascii "__INT64_TYPE__ long long int\0"
 1169      5436345F 
 1169      54595045 
 1169      5F5F206C 
 1169      6F6E6720 
 1170 043f 01       		.byte	0x1
 1171 0440 00       		.uleb128 0
 1172 0441 5F5F5549 		.ascii "__UINT8_TYPE__ unsigned char\0"
 1172      4E54385F 
 1172      54595045 
 1172      5F5F2075 
 1172      6E736967 
 1173 045e 01       		.byte	0x1
 1174 045f 00       		.uleb128 0
 1175 0460 5F5F5549 		.ascii "__UINT16_TYPE__ short unsigned int\0"
 1175      4E543136 
 1175      5F545950 
 1175      455F5F20 
 1175      73686F72 
GAS LISTING C:\Users\PRESID~1\AppData\Local\Temp\cc3IHcck.s 			page 35


 1176 0483 01       		.byte	0x1
 1177 0484 00       		.uleb128 0
 1178 0485 5F5F5549 		.ascii "__UINT32_TYPE__ unsigned int\0"
 1178      4E543332 
 1178      5F545950 
 1178      455F5F20 
 1178      756E7369 
 1179 04a2 01       		.byte	0x1
 1180 04a3 00       		.uleb128 0
 1181 04a4 5F5F5549 		.ascii "__UINT64_TYPE__ long long unsigned int\0"
 1181      4E543634 
 1181      5F545950 
 1181      455F5F20 
 1181      6C6F6E67 
 1182 04cb 01       		.byte	0x1
 1183 04cc 00       		.uleb128 0
 1184 04cd 5F5F494E 		.ascii "__INT_LEAST8_TYPE__ signed char\0"
 1184      545F4C45 
 1184      41535438 
 1184      5F545950 
 1184      455F5F20 
 1185 04ed 01       		.byte	0x1
 1186 04ee 00       		.uleb128 0
 1187 04ef 5F5F494E 		.ascii "__INT_LEAST16_TYPE__ short int\0"
 1187      545F4C45 
 1187      41535431 
 1187      365F5459 
 1187      50455F5F 
 1188 050e 01       		.byte	0x1
 1189 050f 00       		.uleb128 0
 1190 0510 5F5F494E 		.ascii "__INT_LEAST32_TYPE__ int\0"
 1190      545F4C45 
 1190      41535433 
 1190      325F5459 
 1190      50455F5F 
 1191 0529 01       		.byte	0x1
 1192 052a 00       		.uleb128 0
 1193 052b 5F5F494E 		.ascii "__INT_LEAST64_TYPE__ long long int\0"
 1193      545F4C45 
 1193      41535436 
 1193      345F5459 
 1193      50455F5F 
 1194 054e 01       		.byte	0x1
 1195 054f 00       		.uleb128 0
 1196 0550 5F5F5549 		.ascii "__UINT_LEAST8_TYPE__ unsigned char\0"
 1196      4E545F4C 
 1196      45415354 
 1196      385F5459 
 1196      50455F5F 
 1197 0573 01       		.byte	0x1
 1198 0574 00       		.uleb128 0
 1199 0575 5F5F5549 		.ascii "__UINT_LEAST16_TYPE__ short unsigned int\0"
 1199      4E545F4C 
 1199      45415354 
 1199      31365F54 
 1199      5950455F 
 1200 059e 01       		.byte	0x1
GAS LISTING C:\Users\PRESID~1\AppData\Local\Temp\cc3IHcck.s 			page 36


 1201 059f 00       		.uleb128 0
 1202 05a0 5F5F5549 		.ascii "__UINT_LEAST32_TYPE__ unsigned int\0"
 1202      4E545F4C 
 1202      45415354 
 1202      33325F54 
 1202      5950455F 
 1203 05c3 01       		.byte	0x1
 1204 05c4 00       		.uleb128 0
 1205 05c5 5F5F5549 		.ascii "__UINT_LEAST64_TYPE__ long long unsigned int\0"
 1205      4E545F4C 
 1205      45415354 
 1205      36345F54 
 1205      5950455F 
 1206 05f2 01       		.byte	0x1
 1207 05f3 00       		.uleb128 0
 1208 05f4 5F5F494E 		.ascii "__INT_FAST8_TYPE__ signed char\0"
 1208      545F4641 
 1208      5354385F 
 1208      54595045 
 1208      5F5F2073 
 1209 0613 01       		.byte	0x1
 1210 0614 00       		.uleb128 0
 1211 0615 5F5F494E 		.ascii "__INT_FAST16_TYPE__ short int\0"
 1211      545F4641 
 1211      53543136 
 1211      5F545950 
 1211      455F5F20 
 1212 0633 01       		.byte	0x1
 1213 0634 00       		.uleb128 0
 1214 0635 5F5F494E 		.ascii "__INT_FAST32_TYPE__ int\0"
 1214      545F4641 
 1214      53543332 
 1214      5F545950 
 1214      455F5F20 
 1215 064d 01       		.byte	0x1
 1216 064e 00       		.uleb128 0
 1217 064f 5F5F494E 		.ascii "__INT_FAST64_TYPE__ long long int\0"
 1217      545F4641 
 1217      53543634 
 1217      5F545950 
 1217      455F5F20 
 1218 0671 01       		.byte	0x1
 1219 0672 00       		.uleb128 0
 1220 0673 5F5F5549 		.ascii "__UINT_FAST8_TYPE__ unsigned char\0"
 1220      4E545F46 
 1220      41535438 
 1220      5F545950 
 1220      455F5F20 
 1221 0695 01       		.byte	0x1
 1222 0696 00       		.uleb128 0
 1223 0697 5F5F5549 		.ascii "__UINT_FAST16_TYPE__ short unsigned int\0"
 1223      4E545F46 
 1223      41535431 
 1223      365F5459 
 1223      50455F5F 
 1224 06bf 01       		.byte	0x1
 1225 06c0 00       		.uleb128 0
GAS LISTING C:\Users\PRESID~1\AppData\Local\Temp\cc3IHcck.s 			page 37


 1226 06c1 5F5F5549 		.ascii "__UINT_FAST32_TYPE__ unsigned int\0"
 1226      4E545F46 
 1226      41535433 
 1226      325F5459 
 1226      50455F5F 
 1227 06e3 01       		.byte	0x1
 1228 06e4 00       		.uleb128 0
 1229 06e5 5F5F5549 		.ascii "__UINT_FAST64_TYPE__ long long unsigned int\0"
 1229      4E545F46 
 1229      41535436 
 1229      345F5459 
 1229      50455F5F 
 1230 0711 01       		.byte	0x1
 1231 0712 00       		.uleb128 0
 1232 0713 5F5F494E 		.ascii "__INTPTR_TYPE__ int\0"
 1232      54505452 
 1232      5F545950 
 1232      455F5F20 
 1232      696E7400 
 1233 0727 01       		.byte	0x1
 1234 0728 00       		.uleb128 0
 1235 0729 5F5F5549 		.ascii "__UINTPTR_TYPE__ unsigned int\0"
 1235      4E545054 
 1235      525F5459 
 1235      50455F5F 
 1235      20756E73 
 1236 0747 01       		.byte	0x1
 1237 0748 00       		.uleb128 0
 1238 0749 5F5F6861 		.ascii "__has_include(STR) __has_include__(STR)\0"
 1238      735F696E 
 1238      636C7564 
 1238      65285354 
 1238      5229205F 
 1239 0771 01       		.byte	0x1
 1240 0772 00       		.uleb128 0
 1241 0773 5F5F6861 		.ascii "__has_include_next(STR) __has_include_next__(STR)\0"
 1241      735F696E 
 1241      636C7564 
 1241      655F6E65 
 1241      78742853 
 1242 07a5 01       		.byte	0x1
 1243 07a6 00       		.uleb128 0
 1244 07a7 5F5F4758 		.ascii "__GXX_ABI_VERSION 1002\0"
 1244      585F4142 
 1244      495F5645 
 1244      5253494F 
 1244      4E203130 
 1245 07be 01       		.byte	0x1
 1246 07bf 00       		.uleb128 0
 1247 07c0 5F5F5343 		.ascii "__SCHAR_MAX__ 127\0"
 1247      4841525F 
 1247      4D41585F 
 1247      5F203132 
 1247      3700
 1248 07d2 01       		.byte	0x1
 1249 07d3 00       		.uleb128 0
 1250 07d4 5F5F5348 		.ascii "__SHRT_MAX__ 32767\0"
GAS LISTING C:\Users\PRESID~1\AppData\Local\Temp\cc3IHcck.s 			page 38


 1250      52545F4D 
 1250      41585F5F 
 1250      20333237 
 1250      363700
 1251 07e7 01       		.byte	0x1
 1252 07e8 00       		.uleb128 0
 1253 07e9 5F5F494E 		.ascii "__INT_MAX__ 2147483647\0"
 1253      545F4D41 
 1253      585F5F20 
 1253      32313437 
 1253      34383336 
 1254 0800 01       		.byte	0x1
 1255 0801 00       		.uleb128 0
 1256 0802 5F5F4C4F 		.ascii "__LONG_MAX__ 2147483647L\0"
 1256      4E475F4D 
 1256      41585F5F 
 1256      20323134 
 1256      37343833 
 1257 081b 01       		.byte	0x1
 1258 081c 00       		.uleb128 0
 1259 081d 5F5F4C4F 		.ascii "__LONG_LONG_MAX__ 9223372036854775807LL\0"
 1259      4E475F4C 
 1259      4F4E475F 
 1259      4D41585F 
 1259      5F203932 
 1260 0845 01       		.byte	0x1
 1261 0846 00       		.uleb128 0
 1262 0847 5F5F5743 		.ascii "__WCHAR_MAX__ 65535\0"
 1262      4841525F 
 1262      4D41585F 
 1262      5F203635 
 1262      35333500 
 1263 085b 01       		.byte	0x1
 1264 085c 00       		.uleb128 0
 1265 085d 5F5F5743 		.ascii "__WCHAR_MIN__ 0\0"
 1265      4841525F 
 1265      4D494E5F 
 1265      5F203000 
 1266 086d 01       		.byte	0x1
 1267 086e 00       		.uleb128 0
 1268 086f 5F5F5749 		.ascii "__WINT_MAX__ 65535\0"
 1268      4E545F4D 
 1268      41585F5F 
 1268      20363535 
 1268      333500
 1269 0882 01       		.byte	0x1
 1270 0883 00       		.uleb128 0
 1271 0884 5F5F5749 		.ascii "__WINT_MIN__ 0\0"
 1271      4E545F4D 
 1271      494E5F5F 
 1271      203000
 1272 0893 01       		.byte	0x1
 1273 0894 00       		.uleb128 0
 1274 0895 5F5F5054 		.ascii "__PTRDIFF_MAX__ 2147483647\0"
 1274      52444946 
 1274      465F4D41 
 1274      585F5F20 
GAS LISTING C:\Users\PRESID~1\AppData\Local\Temp\cc3IHcck.s 			page 39


 1274      32313437 
 1275 08b0 01       		.byte	0x1
 1276 08b1 00       		.uleb128 0
 1277 08b2 5F5F5349 		.ascii "__SIZE_MAX__ 4294967295U\0"
 1277      5A455F4D 
 1277      41585F5F 
 1277      20343239 
 1277      34393637 
 1278 08cb 01       		.byte	0x1
 1279 08cc 00       		.uleb128 0
 1280 08cd 5F5F494E 		.ascii "__INTMAX_MAX__ 9223372036854775807LL\0"
 1280      544D4158 
 1280      5F4D4158 
 1280      5F5F2039 
 1280      32323333 
 1281 08f2 01       		.byte	0x1
 1282 08f3 00       		.uleb128 0
 1283 08f4 5F5F494E 		.ascii "__INTMAX_C(c) c ## LL\0"
 1283      544D4158 
 1283      5F432863 
 1283      29206320 
 1283      2323204C 
 1284 090a 01       		.byte	0x1
 1285 090b 00       		.uleb128 0
 1286 090c 5F5F5549 		.ascii "__UINTMAX_MAX__ 18446744073709551615ULL\0"
 1286      4E544D41 
 1286      585F4D41 
 1286      585F5F20 
 1286      31383434 
 1287 0934 01       		.byte	0x1
 1288 0935 00       		.uleb128 0
 1289 0936 5F5F5549 		.ascii "__UINTMAX_C(c) c ## ULL\0"
 1289      4E544D41 
 1289      585F4328 
 1289      63292063 
 1289      20232320 
 1290 094e 01       		.byte	0x1
 1291 094f 00       		.uleb128 0
 1292 0950 5F5F5349 		.ascii "__SIG_ATOMIC_MAX__ 2147483647\0"
 1292      475F4154 
 1292      4F4D4943 
 1292      5F4D4158 
 1292      5F5F2032 
 1293 096e 01       		.byte	0x1
 1294 096f 00       		.uleb128 0
 1295 0970 5F5F5349 		.ascii "__SIG_ATOMIC_MIN__ (-__SIG_ATOMIC_MAX__ - 1)\0"
 1295      475F4154 
 1295      4F4D4943 
 1295      5F4D494E 
 1295      5F5F2028 
 1296 099d 01       		.byte	0x1
 1297 099e 00       		.uleb128 0
 1298 099f 5F5F494E 		.ascii "__INT8_MAX__ 127\0"
 1298      54385F4D 
 1298      41585F5F 
 1298      20313237 
 1298      00
GAS LISTING C:\Users\PRESID~1\AppData\Local\Temp\cc3IHcck.s 			page 40


 1299 09b0 01       		.byte	0x1
 1300 09b1 00       		.uleb128 0
 1301 09b2 5F5F494E 		.ascii "__INT16_MAX__ 32767\0"
 1301      5431365F 
 1301      4D41585F 
 1301      5F203332 
 1301      37363700 
 1302 09c6 01       		.byte	0x1
 1303 09c7 00       		.uleb128 0
 1304 09c8 5F5F494E 		.ascii "__INT32_MAX__ 2147483647\0"
 1304      5433325F 
 1304      4D41585F 
 1304      5F203231 
 1304      34373438 
 1305 09e1 01       		.byte	0x1
 1306 09e2 00       		.uleb128 0
 1307 09e3 5F5F494E 		.ascii "__INT64_MAX__ 9223372036854775807LL\0"
 1307      5436345F 
 1307      4D41585F 
 1307      5F203932 
 1307      32333337 
 1308 0a07 01       		.byte	0x1
 1309 0a08 00       		.uleb128 0
 1310 0a09 5F5F5549 		.ascii "__UINT8_MAX__ 255\0"
 1310      4E54385F 
 1310      4D41585F 
 1310      5F203235 
 1310      3500
 1311 0a1b 01       		.byte	0x1
 1312 0a1c 00       		.uleb128 0
 1313 0a1d 5F5F5549 		.ascii "__UINT16_MAX__ 65535\0"
 1313      4E543136 
 1313      5F4D4158 
 1313      5F5F2036 
 1313      35353335 
 1314 0a32 01       		.byte	0x1
 1315 0a33 00       		.uleb128 0
 1316 0a34 5F5F5549 		.ascii "__UINT32_MAX__ 4294967295U\0"
 1316      4E543332 
 1316      5F4D4158 
 1316      5F5F2034 
 1316      32393439 
 1317 0a4f 01       		.byte	0x1
 1318 0a50 00       		.uleb128 0
 1319 0a51 5F5F5549 		.ascii "__UINT64_MAX__ 18446744073709551615ULL\0"
 1319      4E543634 
 1319      5F4D4158 
 1319      5F5F2031 
 1319      38343436 
 1320 0a78 01       		.byte	0x1
 1321 0a79 00       		.uleb128 0
 1322 0a7a 5F5F494E 		.ascii "__INT_LEAST8_MAX__ 127\0"
 1322      545F4C45 
 1322      41535438 
 1322      5F4D4158 
 1322      5F5F2031 
 1323 0a91 01       		.byte	0x1
GAS LISTING C:\Users\PRESID~1\AppData\Local\Temp\cc3IHcck.s 			page 41


 1324 0a92 00       		.uleb128 0
 1325 0a93 5F5F494E 		.ascii "__INT8_C(c) c\0"
 1325      54385F43 
 1325      28632920 
 1325      6300
 1326 0aa1 01       		.byte	0x1
 1327 0aa2 00       		.uleb128 0
 1328 0aa3 5F5F494E 		.ascii "__INT_LEAST16_MAX__ 32767\0"
 1328      545F4C45 
 1328      41535431 
 1328      365F4D41 
 1328      585F5F20 
 1329 0abd 01       		.byte	0x1
 1330 0abe 00       		.uleb128 0
 1331 0abf 5F5F494E 		.ascii "__INT16_C(c) c\0"
 1331      5431365F 
 1331      43286329 
 1331      206300
 1332 0ace 01       		.byte	0x1
 1333 0acf 00       		.uleb128 0
 1334 0ad0 5F5F494E 		.ascii "__INT_LEAST32_MAX__ 2147483647\0"
 1334      545F4C45 
 1334      41535433 
 1334      325F4D41 
 1334      585F5F20 
 1335 0aef 01       		.byte	0x1
 1336 0af0 00       		.uleb128 0
 1337 0af1 5F5F494E 		.ascii "__INT32_C(c) c\0"
 1337      5433325F 
 1337      43286329 
 1337      206300
 1338 0b00 01       		.byte	0x1
 1339 0b01 00       		.uleb128 0
 1340 0b02 5F5F494E 		.ascii "__INT_LEAST64_MAX__ 9223372036854775807LL\0"
 1340      545F4C45 
 1340      41535436 
 1340      345F4D41 
 1340      585F5F20 
 1341 0b2c 01       		.byte	0x1
 1342 0b2d 00       		.uleb128 0
 1343 0b2e 5F5F494E 		.ascii "__INT64_C(c) c ## LL\0"
 1343      5436345F 
 1343      43286329 
 1343      20632023 
 1343      23204C4C 
 1344 0b43 01       		.byte	0x1
 1345 0b44 00       		.uleb128 0
 1346 0b45 5F5F5549 		.ascii "__UINT_LEAST8_MAX__ 255\0"
 1346      4E545F4C 
 1346      45415354 
 1346      385F4D41 
 1346      585F5F20 
 1347 0b5d 01       		.byte	0x1
 1348 0b5e 00       		.uleb128 0
 1349 0b5f 5F5F5549 		.ascii "__UINT8_C(c) c\0"
 1349      4E54385F 
 1349      43286329 
GAS LISTING C:\Users\PRESID~1\AppData\Local\Temp\cc3IHcck.s 			page 42


 1349      206300
 1350 0b6e 01       		.byte	0x1
 1351 0b6f 00       		.uleb128 0
 1352 0b70 5F5F5549 		.ascii "__UINT_LEAST16_MAX__ 65535\0"
 1352      4E545F4C 
 1352      45415354 
 1352      31365F4D 
 1352      41585F5F 
 1353 0b8b 01       		.byte	0x1
 1354 0b8c 00       		.uleb128 0
 1355 0b8d 5F5F5549 		.ascii "__UINT16_C(c) c\0"
 1355      4E543136 
 1355      5F432863 
 1355      29206300 
 1356 0b9d 01       		.byte	0x1
 1357 0b9e 00       		.uleb128 0
 1358 0b9f 5F5F5549 		.ascii "__UINT_LEAST32_MAX__ 4294967295U\0"
 1358      4E545F4C 
 1358      45415354 
 1358      33325F4D 
 1358      41585F5F 
 1359 0bc0 01       		.byte	0x1
 1360 0bc1 00       		.uleb128 0
 1361 0bc2 5F5F5549 		.ascii "__UINT32_C(c) c ## U\0"
 1361      4E543332 
 1361      5F432863 
 1361      29206320 
 1361      23232055 
 1362 0bd7 01       		.byte	0x1
 1363 0bd8 00       		.uleb128 0
 1364 0bd9 5F5F5549 		.ascii "__UINT_LEAST64_MAX__ 18446744073709551615ULL\0"
 1364      4E545F4C 
 1364      45415354 
 1364      36345F4D 
 1364      41585F5F 
 1365 0c06 01       		.byte	0x1
 1366 0c07 00       		.uleb128 0
 1367 0c08 5F5F5549 		.ascii "__UINT64_C(c) c ## ULL\0"
 1367      4E543634 
 1367      5F432863 
 1367      29206320 
 1367      23232055 
 1368 0c1f 01       		.byte	0x1
 1369 0c20 00       		.uleb128 0
 1370 0c21 5F5F494E 		.ascii "__INT_FAST8_MAX__ 127\0"
 1370      545F4641 
 1370      5354385F 
 1370      4D41585F 
 1370      5F203132 
 1371 0c37 01       		.byte	0x1
 1372 0c38 00       		.uleb128 0
 1373 0c39 5F5F494E 		.ascii "__INT_FAST16_MAX__ 32767\0"
 1373      545F4641 
 1373      53543136 
 1373      5F4D4158 
 1373      5F5F2033 
 1374 0c52 01       		.byte	0x1
GAS LISTING C:\Users\PRESID~1\AppData\Local\Temp\cc3IHcck.s 			page 43


 1375 0c53 00       		.uleb128 0
 1376 0c54 5F5F494E 		.ascii "__INT_FAST32_MAX__ 2147483647\0"
 1376      545F4641 
 1376      53543332 
 1376      5F4D4158 
 1376      5F5F2032 
 1377 0c72 01       		.byte	0x1
 1378 0c73 00       		.uleb128 0
 1379 0c74 5F5F494E 		.ascii "__INT_FAST64_MAX__ 9223372036854775807LL\0"
 1379      545F4641 
 1379      53543634 
 1379      5F4D4158 
 1379      5F5F2039 
 1380 0c9d 01       		.byte	0x1
 1381 0c9e 00       		.uleb128 0
 1382 0c9f 5F5F5549 		.ascii "__UINT_FAST8_MAX__ 255\0"
 1382      4E545F46 
 1382      41535438 
 1382      5F4D4158 
 1382      5F5F2032 
 1383 0cb6 01       		.byte	0x1
 1384 0cb7 00       		.uleb128 0
 1385 0cb8 5F5F5549 		.ascii "__UINT_FAST16_MAX__ 65535\0"
 1385      4E545F46 
 1385      41535431 
 1385      365F4D41 
 1385      585F5F20 
 1386 0cd2 01       		.byte	0x1
 1387 0cd3 00       		.uleb128 0
 1388 0cd4 5F5F5549 		.ascii "__UINT_FAST32_MAX__ 4294967295U\0"
 1388      4E545F46 
 1388      41535433 
 1388      325F4D41 
 1388      585F5F20 
 1389 0cf4 01       		.byte	0x1
 1390 0cf5 00       		.uleb128 0
 1391 0cf6 5F5F5549 		.ascii "__UINT_FAST64_MAX__ 18446744073709551615ULL\0"
 1391      4E545F46 
 1391      41535436 
 1391      345F4D41 
 1391      585F5F20 
 1392 0d22 01       		.byte	0x1
 1393 0d23 00       		.uleb128 0
 1394 0d24 5F5F494E 		.ascii "__INTPTR_MAX__ 2147483647\0"
 1394      54505452 
 1394      5F4D4158 
 1394      5F5F2032 
 1394      31343734 
 1395 0d3e 01       		.byte	0x1
 1396 0d3f 00       		.uleb128 0
 1397 0d40 5F5F5549 		.ascii "__UINTPTR_MAX__ 4294967295U\0"
 1397      4E545054 
 1397      525F4D41 
 1397      585F5F20 
 1397      34323934 
 1398 0d5c 01       		.byte	0x1
 1399 0d5d 00       		.uleb128 0
GAS LISTING C:\Users\PRESID~1\AppData\Local\Temp\cc3IHcck.s 			page 44


 1400 0d5e 5F5F4743 		.ascii "__GCC_IEC_559 2\0"
 1400      435F4945 
 1400      435F3535 
 1400      39203200 
 1401 0d6e 01       		.byte	0x1
 1402 0d6f 00       		.uleb128 0
 1403 0d70 5F5F4743 		.ascii "__GCC_IEC_559_COMPLEX 2\0"
 1403      435F4945 
 1403      435F3535 
 1403      395F434F 
 1403      4D504C45 
 1404 0d88 01       		.byte	0x1
 1405 0d89 00       		.uleb128 0
 1406 0d8a 5F5F464C 		.ascii "__FLT_EVAL_METHOD__ 2\0"
 1406      545F4556 
 1406      414C5F4D 
 1406      4554484F 
 1406      445F5F20 
 1407 0da0 01       		.byte	0x1
 1408 0da1 00       		.uleb128 0
 1409 0da2 5F5F4445 		.ascii "__DEC_EVAL_METHOD__ 2\0"
 1409      435F4556 
 1409      414C5F4D 
 1409      4554484F 
 1409      445F5F20 
 1410 0db8 01       		.byte	0x1
 1411 0db9 00       		.uleb128 0
 1412 0dba 5F5F464C 		.ascii "__FLT_RADIX__ 2\0"
 1412      545F5241 
 1412      4449585F 
 1412      5F203200 
 1413 0dca 01       		.byte	0x1
 1414 0dcb 00       		.uleb128 0
 1415 0dcc 5F5F464C 		.ascii "__FLT_MANT_DIG__ 24\0"
 1415      545F4D41 
 1415      4E545F44 
 1415      49475F5F 
 1415      20323400 
 1416 0de0 01       		.byte	0x1
 1417 0de1 00       		.uleb128 0
 1418 0de2 5F5F464C 		.ascii "__FLT_DIG__ 6\0"
 1418      545F4449 
 1418      475F5F20 
 1418      3600
 1419 0df0 01       		.byte	0x1
 1420 0df1 00       		.uleb128 0
 1421 0df2 5F5F464C 		.ascii "__FLT_MIN_EXP__ (-125)\0"
 1421      545F4D49 
 1421      4E5F4558 
 1421      505F5F20 
 1421      282D3132 
 1422 0e09 01       		.byte	0x1
 1423 0e0a 00       		.uleb128 0
 1424 0e0b 5F5F464C 		.ascii "__FLT_MIN_10_EXP__ (-37)\0"
 1424      545F4D49 
 1424      4E5F3130 
 1424      5F455850 
GAS LISTING C:\Users\PRESID~1\AppData\Local\Temp\cc3IHcck.s 			page 45


 1424      5F5F2028 
 1425 0e24 01       		.byte	0x1
 1426 0e25 00       		.uleb128 0
 1427 0e26 5F5F464C 		.ascii "__FLT_MAX_EXP__ 128\0"
 1427      545F4D41 
 1427      585F4558 
 1427      505F5F20 
 1427      31323800 
 1428 0e3a 01       		.byte	0x1
 1429 0e3b 00       		.uleb128 0
 1430 0e3c 5F5F464C 		.ascii "__FLT_MAX_10_EXP__ 38\0"
 1430      545F4D41 
 1430      585F3130 
 1430      5F455850 
 1430      5F5F2033 
 1431 0e52 01       		.byte	0x1
 1432 0e53 00       		.uleb128 0
 1433 0e54 5F5F464C 		.ascii "__FLT_DECIMAL_DIG__ 9\0"
 1433      545F4445 
 1433      43494D41 
 1433      4C5F4449 
 1433      475F5F20 
 1434 0e6a 01       		.byte	0x1
 1435 0e6b 00       		.uleb128 0
 1436 0e6c 5F5F464C 		.ascii "__FLT_MAX__ 3.40282346638528859812e+38F\0"
 1436      545F4D41 
 1436      585F5F20 
 1436      332E3430 
 1436      32383233 
 1437 0e94 01       		.byte	0x1
 1438 0e95 00       		.uleb128 0
 1439 0e96 5F5F464C 		.ascii "__FLT_MIN__ 1.17549435082228750797e-38F\0"
 1439      545F4D49 
 1439      4E5F5F20 
 1439      312E3137 
 1439      35343934 
 1440 0ebe 01       		.byte	0x1
 1441 0ebf 00       		.uleb128 0
 1442 0ec0 5F5F464C 		.ascii "__FLT_EPSILON__ 1.19209289550781250000e-7F\0"
 1442      545F4550 
 1442      53494C4F 
 1442      4E5F5F20 
 1442      312E3139 
 1443 0eeb 01       		.byte	0x1
 1444 0eec 00       		.uleb128 0
 1445 0eed 5F5F464C 		.ascii "__FLT_DENORM_MIN__ 1.40129846432481707092e-45F\0"
 1445      545F4445 
 1445      4E4F524D 
 1445      5F4D494E 
 1445      5F5F2031 
 1446 0f1c 01       		.byte	0x1
 1447 0f1d 00       		.uleb128 0
 1448 0f1e 5F5F464C 		.ascii "__FLT_HAS_DENORM__ 1\0"
 1448      545F4841 
 1448      535F4445 
 1448      4E4F524D 
 1448      5F5F2031 
GAS LISTING C:\Users\PRESID~1\AppData\Local\Temp\cc3IHcck.s 			page 46


 1449 0f33 01       		.byte	0x1
 1450 0f34 00       		.uleb128 0
 1451 0f35 5F5F464C 		.ascii "__FLT_HAS_INFINITY__ 1\0"
 1451      545F4841 
 1451      535F494E 
 1451      46494E49 
 1451      54595F5F 
 1452 0f4c 01       		.byte	0x1
 1453 0f4d 00       		.uleb128 0
 1454 0f4e 5F5F464C 		.ascii "__FLT_HAS_QUIET_NAN__ 1\0"
 1454      545F4841 
 1454      535F5155 
 1454      4945545F 
 1454      4E414E5F 
 1455 0f66 01       		.byte	0x1
 1456 0f67 00       		.uleb128 0
 1457 0f68 5F5F4442 		.ascii "__DBL_MANT_DIG__ 53\0"
 1457      4C5F4D41 
 1457      4E545F44 
 1457      49475F5F 
 1457      20353300 
 1458 0f7c 01       		.byte	0x1
 1459 0f7d 00       		.uleb128 0
 1460 0f7e 5F5F4442 		.ascii "__DBL_DIG__ 15\0"
 1460      4C5F4449 
 1460      475F5F20 
 1460      313500
 1461 0f8d 01       		.byte	0x1
 1462 0f8e 00       		.uleb128 0
 1463 0f8f 5F5F4442 		.ascii "__DBL_MIN_EXP__ (-1021)\0"
 1463      4C5F4D49 
 1463      4E5F4558 
 1463      505F5F20 
 1463      282D3130 
 1464 0fa7 01       		.byte	0x1
 1465 0fa8 00       		.uleb128 0
 1466 0fa9 5F5F4442 		.ascii "__DBL_MIN_10_EXP__ (-307)\0"
 1466      4C5F4D49 
 1466      4E5F3130 
 1466      5F455850 
 1466      5F5F2028 
 1467 0fc3 01       		.byte	0x1
 1468 0fc4 00       		.uleb128 0
 1469 0fc5 5F5F4442 		.ascii "__DBL_MAX_EXP__ 1024\0"
 1469      4C5F4D41 
 1469      585F4558 
 1469      505F5F20 
 1469      31303234 
 1470 0fda 01       		.byte	0x1
 1471 0fdb 00       		.uleb128 0
 1472 0fdc 5F5F4442 		.ascii "__DBL_MAX_10_EXP__ 308\0"
 1472      4C5F4D41 
 1472      585F3130 
 1472      5F455850 
 1472      5F5F2033 
 1473 0ff3 01       		.byte	0x1
 1474 0ff4 00       		.uleb128 0
GAS LISTING C:\Users\PRESID~1\AppData\Local\Temp\cc3IHcck.s 			page 47


 1475 0ff5 5F5F4442 		.ascii "__DBL_DECIMAL_DIG__ 17\0"
 1475      4C5F4445 
 1475      43494D41 
 1475      4C5F4449 
 1475      475F5F20 
 1476 100c 01       		.byte	0x1
 1477 100d 00       		.uleb128 0
 1478 100e 5F5F4442 		.ascii "__DBL_MAX__ ((double)1.79769313486231570815e+308L)\0"
 1478      4C5F4D41 
 1478      585F5F20 
 1478      2828646F 
 1478      75626C65 
 1479 1041 01       		.byte	0x1
 1480 1042 00       		.uleb128 0
 1481 1043 5F5F4442 		.ascii "__DBL_MIN__ ((double)2.22507385850720138309e-308L)\0"
 1481      4C5F4D49 
 1481      4E5F5F20 
 1481      2828646F 
 1481      75626C65 
 1482 1076 01       		.byte	0x1
 1483 1077 00       		.uleb128 0
 1484 1078 5F5F4442 		.ascii "__DBL_EPSILON__ ((double)2.22044604925031308085e-16L)\0"
 1484      4C5F4550 
 1484      53494C4F 
 1484      4E5F5F20 
 1484      2828646F 
 1485 10ae 01       		.byte	0x1
 1486 10af 00       		.uleb128 0
 1487 10b0 5F5F4442 		.ascii "__DBL_DENORM_MIN__ ((double)4.94065645841246544177e-324L)\0"
 1487      4C5F4445 
 1487      4E4F524D 
 1487      5F4D494E 
 1487      5F5F2028 
 1488 10ea 01       		.byte	0x1
 1489 10eb 00       		.uleb128 0
 1490 10ec 5F5F4442 		.ascii "__DBL_HAS_DENORM__ 1\0"
 1490      4C5F4841 
 1490      535F4445 
 1490      4E4F524D 
 1490      5F5F2031 
 1491 1101 01       		.byte	0x1
 1492 1102 00       		.uleb128 0
 1493 1103 5F5F4442 		.ascii "__DBL_HAS_INFINITY__ 1\0"
 1493      4C5F4841 
 1493      535F494E 
 1493      46494E49 
 1493      54595F5F 
 1494 111a 01       		.byte	0x1
 1495 111b 00       		.uleb128 0
 1496 111c 5F5F4442 		.ascii "__DBL_HAS_QUIET_NAN__ 1\0"
 1496      4C5F4841 
 1496      535F5155 
 1496      4945545F 
 1496      4E414E5F 
 1497 1134 01       		.byte	0x1
 1498 1135 00       		.uleb128 0
 1499 1136 5F5F4C44 		.ascii "__LDBL_MANT_DIG__ 64\0"
GAS LISTING C:\Users\PRESID~1\AppData\Local\Temp\cc3IHcck.s 			page 48


 1499      424C5F4D 
 1499      414E545F 
 1499      4449475F 
 1499      5F203634 
 1500 114b 01       		.byte	0x1
 1501 114c 00       		.uleb128 0
 1502 114d 5F5F4C44 		.ascii "__LDBL_DIG__ 18\0"
 1502      424C5F44 
 1502      49475F5F 
 1502      20313800 
 1503 115d 01       		.byte	0x1
 1504 115e 00       		.uleb128 0
 1505 115f 5F5F4C44 		.ascii "__LDBL_MIN_EXP__ (-16381)\0"
 1505      424C5F4D 
 1505      494E5F45 
 1505      58505F5F 
 1505      20282D31 
 1506 1179 01       		.byte	0x1
 1507 117a 00       		.uleb128 0
 1508 117b 5F5F4C44 		.ascii "__LDBL_MIN_10_EXP__ (-4931)\0"
 1508      424C5F4D 
 1508      494E5F31 
 1508      305F4558 
 1508      505F5F20 
 1509 1197 01       		.byte	0x1
 1510 1198 00       		.uleb128 0
 1511 1199 5F5F4C44 		.ascii "__LDBL_MAX_EXP__ 16384\0"
 1511      424C5F4D 
 1511      41585F45 
 1511      58505F5F 
 1511      20313633 
 1512 11b0 01       		.byte	0x1
 1513 11b1 00       		.uleb128 0
 1514 11b2 5F5F4C44 		.ascii "__LDBL_MAX_10_EXP__ 4932\0"
 1514      424C5F4D 
 1514      41585F31 
 1514      305F4558 
 1514      505F5F20 
 1515 11cb 01       		.byte	0x1
 1516 11cc 00       		.uleb128 0
 1517 11cd 5F5F4445 		.ascii "__DECIMAL_DIG__ 21\0"
 1517      43494D41 
 1517      4C5F4449 
 1517      475F5F20 
 1517      323100
 1518 11e0 01       		.byte	0x1
 1519 11e1 00       		.uleb128 0
 1520 11e2 5F5F4C44 		.ascii "__LDBL_MAX__ 1.18973149535723176502e+4932L\0"
 1520      424C5F4D 
 1520      41585F5F 
 1520      20312E31 
 1520      38393733 
 1521 120d 01       		.byte	0x1
 1522 120e 00       		.uleb128 0
 1523 120f 5F5F4C44 		.ascii "__LDBL_MIN__ 3.36210314311209350626e-4932L\0"
 1523      424C5F4D 
 1523      494E5F5F 
GAS LISTING C:\Users\PRESID~1\AppData\Local\Temp\cc3IHcck.s 			page 49


 1523      20332E33 
 1523      36323130 
 1524 123a 01       		.byte	0x1
 1525 123b 00       		.uleb128 0
 1526 123c 5F5F4C44 		.ascii "__LDBL_EPSILON__ 1.08420217248550443401e-19L\0"
 1526      424C5F45 
 1526      5053494C 
 1526      4F4E5F5F 
 1526      20312E30 
 1527 1269 01       		.byte	0x1
 1528 126a 00       		.uleb128 0
 1529 126b 5F5F4C44 		.ascii "__LDBL_DENORM_MIN__ 3.64519953188247460253e-4951L\0"
 1529      424C5F44 
 1529      454E4F52 
 1529      4D5F4D49 
 1529      4E5F5F20 
 1530 129d 01       		.byte	0x1
 1531 129e 00       		.uleb128 0
 1532 129f 5F5F4C44 		.ascii "__LDBL_HAS_DENORM__ 1\0"
 1532      424C5F48 
 1532      41535F44 
 1532      454E4F52 
 1532      4D5F5F20 
 1533 12b5 01       		.byte	0x1
 1534 12b6 00       		.uleb128 0
 1535 12b7 5F5F4C44 		.ascii "__LDBL_HAS_INFINITY__ 1\0"
 1535      424C5F48 
 1535      41535F49 
 1535      4E46494E 
 1535      4954595F 
 1536 12cf 01       		.byte	0x1
 1537 12d0 00       		.uleb128 0
 1538 12d1 5F5F4C44 		.ascii "__LDBL_HAS_QUIET_NAN__ 1\0"
 1538      424C5F48 
 1538      41535F51 
 1538      55494554 
 1538      5F4E414E 
 1539 12ea 01       		.byte	0x1
 1540 12eb 00       		.uleb128 0
 1541 12ec 5F5F4445 		.ascii "__DEC32_MANT_DIG__ 7\0"
 1541      4333325F 
 1541      4D414E54 
 1541      5F444947 
 1541      5F5F2037 
 1542 1301 01       		.byte	0x1
 1543 1302 00       		.uleb128 0
 1544 1303 5F5F4445 		.ascii "__DEC32_MIN_EXP__ (-94)\0"
 1544      4333325F 
 1544      4D494E5F 
 1544      4558505F 
 1544      5F20282D 
 1545 131b 01       		.byte	0x1
 1546 131c 00       		.uleb128 0
 1547 131d 5F5F4445 		.ascii "__DEC32_MAX_EXP__ 97\0"
 1547      4333325F 
 1547      4D41585F 
 1547      4558505F 
GAS LISTING C:\Users\PRESID~1\AppData\Local\Temp\cc3IHcck.s 			page 50


 1547      5F203937 
 1548 1332 01       		.byte	0x1
 1549 1333 00       		.uleb128 0
 1550 1334 5F5F4445 		.ascii "__DEC32_MIN__ 1E-95DF\0"
 1550      4333325F 
 1550      4D494E5F 
 1550      5F203145 
 1550      2D393544 
 1551 134a 01       		.byte	0x1
 1552 134b 00       		.uleb128 0
 1553 134c 5F5F4445 		.ascii "__DEC32_MAX__ 9.999999E96DF\0"
 1553      4333325F 
 1553      4D41585F 
 1553      5F20392E 
 1553      39393939 
 1554 1368 01       		.byte	0x1
 1555 1369 00       		.uleb128 0
 1556 136a 5F5F4445 		.ascii "__DEC32_EPSILON__ 1E-6DF\0"
 1556      4333325F 
 1556      45505349 
 1556      4C4F4E5F 
 1556      5F203145 
 1557 1383 01       		.byte	0x1
 1558 1384 00       		.uleb128 0
 1559 1385 5F5F4445 		.ascii "__DEC32_SUBNORMAL_MIN__ 0.000001E-95DF\0"
 1559      4333325F 
 1559      5355424E 
 1559      4F524D41 
 1559      4C5F4D49 
 1560 13ac 01       		.byte	0x1
 1561 13ad 00       		.uleb128 0
 1562 13ae 5F5F4445 		.ascii "__DEC64_MANT_DIG__ 16\0"
 1562      4336345F 
 1562      4D414E54 
 1562      5F444947 
 1562      5F5F2031 
 1563 13c4 01       		.byte	0x1
 1564 13c5 00       		.uleb128 0
 1565 13c6 5F5F4445 		.ascii "__DEC64_MIN_EXP__ (-382)\0"
 1565      4336345F 
 1565      4D494E5F 
 1565      4558505F 
 1565      5F20282D 
 1566 13df 01       		.byte	0x1
 1567 13e0 00       		.uleb128 0
 1568 13e1 5F5F4445 		.ascii "__DEC64_MAX_EXP__ 385\0"
 1568      4336345F 
 1568      4D41585F 
 1568      4558505F 
 1568      5F203338 
 1569 13f7 01       		.byte	0x1
 1570 13f8 00       		.uleb128 0
 1571 13f9 5F5F4445 		.ascii "__DEC64_MIN__ 1E-383DD\0"
 1571      4336345F 
 1571      4D494E5F 
 1571      5F203145 
 1571      2D333833 
GAS LISTING C:\Users\PRESID~1\AppData\Local\Temp\cc3IHcck.s 			page 51


 1572 1410 01       		.byte	0x1
 1573 1411 00       		.uleb128 0
 1574 1412 5F5F4445 		.ascii "__DEC64_MAX__ 9.999999999999999E384DD\0"
 1574      4336345F 
 1574      4D41585F 
 1574      5F20392E 
 1574      39393939 
 1575 1438 01       		.byte	0x1
 1576 1439 00       		.uleb128 0
 1577 143a 5F5F4445 		.ascii "__DEC64_EPSILON__ 1E-15DD\0"
 1577      4336345F 
 1577      45505349 
 1577      4C4F4E5F 
 1577      5F203145 
 1578 1454 01       		.byte	0x1
 1579 1455 00       		.uleb128 0
 1580 1456 5F5F4445 		.ascii "__DEC64_SUBNORMAL_MIN__ 0.000000000000001E-383DD\0"
 1580      4336345F 
 1580      5355424E 
 1580      4F524D41 
 1580      4C5F4D49 
 1581 1487 01       		.byte	0x1
 1582 1488 00       		.uleb128 0
 1583 1489 5F5F4445 		.ascii "__DEC128_MANT_DIG__ 34\0"
 1583      43313238 
 1583      5F4D414E 
 1583      545F4449 
 1583      475F5F20 
 1584 14a0 01       		.byte	0x1
 1585 14a1 00       		.uleb128 0
 1586 14a2 5F5F4445 		.ascii "__DEC128_MIN_EXP__ (-6142)\0"
 1586      43313238 
 1586      5F4D494E 
 1586      5F455850 
 1586      5F5F2028 
 1587 14bd 01       		.byte	0x1
 1588 14be 00       		.uleb128 0
 1589 14bf 5F5F4445 		.ascii "__DEC128_MAX_EXP__ 6145\0"
 1589      43313238 
 1589      5F4D4158 
 1589      5F455850 
 1589      5F5F2036 
 1590 14d7 01       		.byte	0x1
 1591 14d8 00       		.uleb128 0
 1592 14d9 5F5F4445 		.ascii "__DEC128_MIN__ 1E-6143DL\0"
 1592      43313238 
 1592      5F4D494E 
 1592      5F5F2031 
 1592      452D3631 
 1593 14f2 01       		.byte	0x1
 1594 14f3 00       		.uleb128 0
 1595 14f4 5F5F4445 		.ascii "__DEC128_MAX__ 9.999999999999999999999999999999999E6144DL\0"
 1595      43313238 
 1595      5F4D4158 
 1595      5F5F2039 
 1595      2E393939 
 1596 152e 01       		.byte	0x1
GAS LISTING C:\Users\PRESID~1\AppData\Local\Temp\cc3IHcck.s 			page 52


 1597 152f 00       		.uleb128 0
 1598 1530 5F5F4445 		.ascii "__DEC128_EPSILON__ 1E-33DL\0"
 1598      43313238 
 1598      5F455053 
 1598      494C4F4E 
 1598      5F5F2031 
 1599 154b 01       		.byte	0x1
 1600 154c 00       		.uleb128 0
 1601 154d 5F5F4445 		.ascii "__DEC128_SUBNORMAL_MIN__ 0.000000000000000000000000000000001E-6143DL\0"
 1601      43313238 
 1601      5F535542 
 1601      4E4F524D 
 1601      414C5F4D 
 1602 1592 01       		.byte	0x1
 1603 1593 00       		.uleb128 0
 1604 1594 5F5F5245 		.ascii "__REGISTER_PREFIX__ \0"
 1604      47495354 
 1604      45525F50 
 1604      52454649 
 1604      585F5F20 
 1605 15a9 01       		.byte	0x1
 1606 15aa 00       		.uleb128 0
 1607 15ab 5F5F5553 		.ascii "__USER_LABEL_PREFIX__ _\0"
 1607      45525F4C 
 1607      4142454C 
 1607      5F505245 
 1607      4649585F 
 1608 15c3 01       		.byte	0x1
 1609 15c4 00       		.uleb128 0
 1610 15c5 5F5F474E 		.ascii "__GNUC_GNU_INLINE__ 1\0"
 1610      55435F47 
 1610      4E555F49 
 1610      4E4C494E 
 1610      455F5F20 
 1611 15db 01       		.byte	0x1
 1612 15dc 00       		.uleb128 0
 1613 15dd 5F5F4E4F 		.ascii "__NO_INLINE__ 1\0"
 1613      5F494E4C 
 1613      494E455F 
 1613      5F203100 
 1614 15ed 01       		.byte	0x1
 1615 15ee 00       		.uleb128 0
 1616 15ef 5F5F5354 		.ascii "__STRICT_ANSI__ 1\0"
 1616      52494354 
 1616      5F414E53 
 1616      495F5F20 
 1616      3100
 1617 1601 01       		.byte	0x1
 1618 1602 00       		.uleb128 0
 1619 1603 5F5F4743 		.ascii "__GCC_ATOMIC_BOOL_LOCK_FREE 1\0"
 1619      435F4154 
 1619      4F4D4943 
 1619      5F424F4F 
 1619      4C5F4C4F 
 1620 1621 01       		.byte	0x1
 1621 1622 00       		.uleb128 0
 1622 1623 5F5F4743 		.ascii "__GCC_ATOMIC_CHAR_LOCK_FREE 1\0"
GAS LISTING C:\Users\PRESID~1\AppData\Local\Temp\cc3IHcck.s 			page 53


 1622      435F4154 
 1622      4F4D4943 
 1622      5F434841 
 1622      525F4C4F 
 1623 1641 01       		.byte	0x1
 1624 1642 00       		.uleb128 0
 1625 1643 5F5F4743 		.ascii "__GCC_ATOMIC_CHAR16_T_LOCK_FREE 1\0"
 1625      435F4154 
 1625      4F4D4943 
 1625      5F434841 
 1625      5231365F 
 1626 1665 01       		.byte	0x1
 1627 1666 00       		.uleb128 0
 1628 1667 5F5F4743 		.ascii "__GCC_ATOMIC_CHAR32_T_LOCK_FREE 1\0"
 1628      435F4154 
 1628      4F4D4943 
 1628      5F434841 
 1628      5233325F 
 1629 1689 01       		.byte	0x1
 1630 168a 00       		.uleb128 0
 1631 168b 5F5F4743 		.ascii "__GCC_ATOMIC_WCHAR_T_LOCK_FREE 1\0"
 1631      435F4154 
 1631      4F4D4943 
 1631      5F574348 
 1631      41525F54 
 1632 16ac 01       		.byte	0x1
 1633 16ad 00       		.uleb128 0
 1634 16ae 5F5F4743 		.ascii "__GCC_ATOMIC_SHORT_LOCK_FREE 1\0"
 1634      435F4154 
 1634      4F4D4943 
 1634      5F53484F 
 1634      52545F4C 
 1635 16cd 01       		.byte	0x1
 1636 16ce 00       		.uleb128 0
 1637 16cf 5F5F4743 		.ascii "__GCC_ATOMIC_INT_LOCK_FREE 1\0"
 1637      435F4154 
 1637      4F4D4943 
 1637      5F494E54 
 1637      5F4C4F43 
 1638 16ec 01       		.byte	0x1
 1639 16ed 00       		.uleb128 0
 1640 16ee 5F5F4743 		.ascii "__GCC_ATOMIC_LONG_LOCK_FREE 1\0"
 1640      435F4154 
 1640      4F4D4943 
 1640      5F4C4F4E 
 1640      475F4C4F 
 1641 170c 01       		.byte	0x1
 1642 170d 00       		.uleb128 0
 1643 170e 5F5F4743 		.ascii "__GCC_ATOMIC_LLONG_LOCK_FREE 1\0"
 1643      435F4154 
 1643      4F4D4943 
 1643      5F4C4C4F 
 1643      4E475F4C 
 1644 172d 01       		.byte	0x1
 1645 172e 00       		.uleb128 0
 1646 172f 5F5F4743 		.ascii "__GCC_ATOMIC_TEST_AND_SET_TRUEVAL 1\0"
 1646      435F4154 
GAS LISTING C:\Users\PRESID~1\AppData\Local\Temp\cc3IHcck.s 			page 54


 1646      4F4D4943 
 1646      5F544553 
 1646      545F414E 
 1647 1753 01       		.byte	0x1
 1648 1754 00       		.uleb128 0
 1649 1755 5F5F4743 		.ascii "__GCC_ATOMIC_POINTER_LOCK_FREE 1\0"
 1649      435F4154 
 1649      4F4D4943 
 1649      5F504F49 
 1649      4E544552 
 1650 1776 01       		.byte	0x1
 1651 1777 00       		.uleb128 0
 1652 1778 5F5F4743 		.ascii "__GCC_HAVE_DWARF2_CFI_ASM 1\0"
 1652      435F4841 
 1652      56455F44 
 1652      57415246 
 1652      325F4346 
 1653 1794 01       		.byte	0x1
 1654 1795 00       		.uleb128 0
 1655 1796 5F5F5052 		.ascii "__PRAGMA_REDEFINE_EXTNAME 1\0"
 1655      41474D41 
 1655      5F524544 
 1655      4546494E 
 1655      455F4558 
 1656 17b2 01       		.byte	0x1
 1657 17b3 00       		.uleb128 0
 1658 17b4 5F5F5349 		.ascii "__SIZEOF_WCHAR_T__ 2\0"
 1658      5A454F46 
 1658      5F574348 
 1658      41525F54 
 1658      5F5F2032 
 1659 17c9 01       		.byte	0x1
 1660 17ca 00       		.uleb128 0
 1661 17cb 5F5F5349 		.ascii "__SIZEOF_WINT_T__ 2\0"
 1661      5A454F46 
 1661      5F57494E 
 1661      545F545F 
 1661      5F203200 
 1662 17df 01       		.byte	0x1
 1663 17e0 00       		.uleb128 0
 1664 17e1 5F5F5349 		.ascii "__SIZEOF_PTRDIFF_T__ 4\0"
 1664      5A454F46 
 1664      5F505452 
 1664      44494646 
 1664      5F545F5F 
 1665 17f8 01       		.byte	0x1
 1666 17f9 00       		.uleb128 0
 1667 17fa 5F5F6933 		.ascii "__i386 1\0"
 1667      38362031 
 1667      00
 1668 1803 01       		.byte	0x1
 1669 1804 00       		.uleb128 0
 1670 1805 5F5F6933 		.ascii "__i386__ 1\0"
 1670      38365F5F 
 1670      203100
 1671 1810 01       		.byte	0x1
 1672 1811 00       		.uleb128 0
GAS LISTING C:\Users\PRESID~1\AppData\Local\Temp\cc3IHcck.s 			page 55


 1673 1812 5F5F4154 		.ascii "__ATOMIC_HLE_ACQUIRE 65536\0"
 1673      4F4D4943 
 1673      5F484C45 
 1673      5F414351 
 1673      55495245 
 1674 182d 01       		.byte	0x1
 1675 182e 00       		.uleb128 0
 1676 182f 5F5F4154 		.ascii "__ATOMIC_HLE_RELEASE 131072\0"
 1676      4F4D4943 
 1676      5F484C45 
 1676      5F52454C 
 1676      45415345 
 1677 184b 01       		.byte	0x1
 1678 184c 00       		.uleb128 0
 1679 184d 5F5F7475 		.ascii "__tune_i386__ 1\0"
 1679      6E655F69 
 1679      3338365F 
 1679      5F203100 
 1680 185d 01       		.byte	0x1
 1681 185e 00       		.uleb128 0
 1682 185f 5F5F636F 		.ascii "__code_model_32__ 1\0"
 1682      64655F6D 
 1682      6F64656C 
 1682      5F33325F 
 1682      5F203100 
 1683 1873 01       		.byte	0x1
 1684 1874 00       		.uleb128 0
 1685 1875 5F583836 		.ascii "_X86_ 1\0"
 1685      5F203100 
 1686 187d 01       		.byte	0x1
 1687 187e 00       		.uleb128 0
 1688 187f 5F5F7374 		.ascii "__stdcall __attribute__((__stdcall__))\0"
 1688      6463616C 
 1688      6C205F5F 
 1688      61747472 
 1688      69627574 
 1689 18a6 01       		.byte	0x1
 1690 18a7 00       		.uleb128 0
 1691 18a8 5F5F6661 		.ascii "__fastcall __attribute__((__fastcall__))\0"
 1691      73746361 
 1691      6C6C205F 
 1691      5F617474 
 1691      72696275 
 1692 18d1 01       		.byte	0x1
 1693 18d2 00       		.uleb128 0
 1694 18d3 5F5F7468 		.ascii "__thiscall __attribute__((__thiscall__))\0"
 1694      69736361 
 1694      6C6C205F 
 1694      5F617474 
 1694      72696275 
 1695 18fc 01       		.byte	0x1
 1696 18fd 00       		.uleb128 0
 1697 18fe 5F5F6364 		.ascii "__cdecl __attribute__((__cdecl__))\0"
 1697      65636C20 
 1697      5F5F6174 
 1697      74726962 
 1697      7574655F 
GAS LISTING C:\Users\PRESID~1\AppData\Local\Temp\cc3IHcck.s 			page 56


 1698 1921 01       		.byte	0x1
 1699 1922 00       		.uleb128 0
 1700 1923 5F5F4758 		.ascii "__GXX_MERGED_TYPEINFO_NAMES 0\0"
 1700      585F4D45 
 1700      52474544 
 1700      5F545950 
 1700      45494E46 
 1701 1941 01       		.byte	0x1
 1702 1942 00       		.uleb128 0
 1703 1943 5F5F4758 		.ascii "__GXX_TYPEINFO_EQUALITY_INLINE 0\0"
 1703      585F5459 
 1703      5045494E 
 1703      464F5F45 
 1703      5155414C 
 1704 1964 01       		.byte	0x1
 1705 1965 00       		.uleb128 0
 1706 1966 5F5F4D53 		.ascii "__MSVCRT__ 1\0"
 1706      56435254 
 1706      5F5F2031 
 1706      00
 1707 1973 01       		.byte	0x1
 1708 1974 00       		.uleb128 0
 1709 1975 5F5F4D49 		.ascii "__MINGW32__ 1\0"
 1709      4E475733 
 1709      325F5F20 
 1709      3100
 1710 1983 01       		.byte	0x1
 1711 1984 00       		.uleb128 0
 1712 1985 5F57494E 		.ascii "_WIN32 1\0"
 1712      33322031 
 1712      00
 1713 198e 01       		.byte	0x1
 1714 198f 00       		.uleb128 0
 1715 1990 5F5F5749 		.ascii "__WIN32 1\0"
 1715      4E333220 
 1715      3100
 1716 199a 01       		.byte	0x1
 1717 199b 00       		.uleb128 0
 1718 199c 5F5F5749 		.ascii "__WIN32__ 1\0"
 1718      4E33325F 
 1718      5F203100 
 1719 19a8 01       		.byte	0x1
 1720 19a9 00       		.uleb128 0
 1721 19aa 5F5F5749 		.ascii "__WINNT 1\0"
 1721      4E4E5420 
 1721      3100
 1722 19b4 01       		.byte	0x1
 1723 19b5 00       		.uleb128 0
 1724 19b6 5F5F5749 		.ascii "__WINNT__ 1\0"
 1724      4E4E545F 
 1724      5F203100 
 1725 19c2 01       		.byte	0x1
 1726 19c3 00       		.uleb128 0
 1727 19c4 5F494E54 		.ascii "_INTEGRAL_MAX_BITS 64\0"
 1727      45475241 
 1727      4C5F4D41 
 1727      585F4249 
GAS LISTING C:\Users\PRESID~1\AppData\Local\Temp\cc3IHcck.s 			page 57


 1727      54532036 
 1728 19da 01       		.byte	0x1
 1729 19db 00       		.uleb128 0
 1730 19dc 5F5F6465 		.ascii "__declspec(x) __attribute__((x))\0"
 1730      636C7370 
 1730      65632878 
 1730      29205F5F 
 1730      61747472 
 1731 19fd 01       		.byte	0x1
 1732 19fe 00       		.uleb128 0
 1733 19ff 5F5F4445 		.ascii "__DECIMAL_BID_FORMAT__ 1\0"
 1733      43494D41 
 1733      4C5F4249 
 1733      445F464F 
 1733      524D4154 
 1734 1a18 01       		.byte	0x1
 1735 1a19 00       		.uleb128 0
 1736 1a1a 4346475F 		.ascii "CFG_PROCESSOR 3\0"
 1736      50524F43 
 1736      4553534F 
 1736      52203300 
 1737 1a2a 03       		.byte	0x3
 1738 1a2b 00       		.uleb128 0
 1739 1a2c 01       		.uleb128 0x1
 1740              		.file 6 "E:/NeuOrga/Programmieren/c_cpp/github_os/input/src/os_base/os_firstinc.h"
 1741 1a2d 03       		.byte	0x3
 1742 1a2e 01       		.uleb128 0x1
 1743 1a2f 06       		.uleb128 0x6
 1744 1a30 01       		.byte	0x1
 1745 1a31 02       		.uleb128 0x2
 1746 1a32 5F4F535F 		.ascii "_OS_FIRSTINC_H_ \0"
 1746      46495253 
 1746      54494E43 
 1746      5F485F20 
 1746      00
 1747              		.file 7 "E:/NeuOrga/Programmieren/c_cpp/github_os/input/src/os_base/../os_config.h"
 1748 1a43 03       		.byte	0x3
 1749 1a44 04       		.uleb128 0x4
 1750 1a45 07       		.uleb128 0x7
 1751 1a46 01       		.byte	0x1
 1752 1a47 02       		.uleb128 0x2
 1753 1a48 5F4F535F 		.ascii "_OS_CONFIG_H_ \0"
 1753      434F4E46 
 1753      49475F48 
 1753      5F2000
 1754 1a57 01       		.byte	0x1
 1755 1a58 05       		.uleb128 0x5
 1756 1a59 494E5445 		.ascii "INTEGER_LLP64_IL32P64 1u\0"
 1756      4745525F 
 1756      4C4C5036 
 1756      345F494C 
 1756      33325036 
 1757 1a72 01       		.byte	0x1
 1758 1a73 06       		.uleb128 0x6
 1759 1a74 494E5445 		.ascii "INTEGER_LP64_I32LP64 2u\0"
 1759      4745525F 
 1759      4C503634 
GAS LISTING C:\Users\PRESID~1\AppData\Local\Temp\cc3IHcck.s 			page 58


 1759      5F493332 
 1759      4C503634 
 1760 1a8c 01       		.byte	0x1
 1761 1a8d 07       		.uleb128 0x7
 1762 1a8e 494E5445 		.ascii "INTEGER_ILP64 3u\0"
 1762      4745525F 
 1762      494C5036 
 1762      34203375 
 1762      00
 1763 1a9f 01       		.byte	0x1
 1764 1aa0 08       		.uleb128 0x8
 1765 1aa1 494E5445 		.ascii "INTEGER_SILP64 4u\0"
 1765      4745525F 
 1765      53494C50 
 1765      36342034 
 1765      7500
 1766 1ab3 01       		.byte	0x1
 1767 1ab4 09       		.uleb128 0x9
 1768 1ab5 494E5445 		.ascii "INTEGER_MODEL INTEGER_LLP64_IL32P64\0"
 1768      4745525F 
 1768      4D4F4445 
 1768      4C20494E 
 1768      54454745 
 1769 1ad9 01       		.byte	0x1
 1770 1ada 0C       		.uleb128 0xc
 1771 1adb 4350505F 		.ascii "CPP_VERSION_NONE 0u\0"
 1771      56455253 
 1771      494F4E5F 
 1771      4E4F4E45 
 1771      20307500 
 1772 1aef 01       		.byte	0x1
 1773 1af0 0D       		.uleb128 0xd
 1774 1af1 4350505F 		.ascii "CPP_VERSION_1998 1u\0"
 1774      56455253 
 1774      494F4E5F 
 1774      31393938 
 1774      20317500 
 1775 1b05 01       		.byte	0x1
 1776 1b06 0E       		.uleb128 0xe
 1777 1b07 4350505F 		.ascii "CPP_VERSION_2003 2u\0"
 1777      56455253 
 1777      494F4E5F 
 1777      32303033 
 1777      20327500 
 1778 1b1b 01       		.byte	0x1
 1779 1b1c 0F       		.uleb128 0xf
 1780 1b1d 4350505F 		.ascii "CPP_VERSION_2007 3u\0"
 1780      56455253 
 1780      494F4E5F 
 1780      32303037 
 1780      20337500 
 1781 1b31 01       		.byte	0x1
 1782 1b32 10       		.uleb128 0x10
 1783 1b33 4350505F 		.ascii "CPP_VERSION_2011 4u\0"
 1783      56455253 
 1783      494F4E5F 
 1783      32303131 
GAS LISTING C:\Users\PRESID~1\AppData\Local\Temp\cc3IHcck.s 			page 59


 1783      20347500 
 1784 1b47 01       		.byte	0x1
 1785 1b48 11       		.uleb128 0x11
 1786 1b49 49534F5F 		.ascii "ISO_CPP_VERSION CPP_VERSION_1998\0"
 1786      4350505F 
 1786      56455253 
 1786      494F4E20 
 1786      4350505F 
 1787 1b6a 01       		.byte	0x1
 1788 1b6b 14       		.uleb128 0x14
 1789 1b6c 4249475F 		.ascii "BIG_INT_SIZE 16u\0"
 1789      494E545F 
 1789      53495A45 
 1789      20313675 
 1789      00
 1790 1b7d 01       		.byte	0x1
 1791 1b7e 17       		.uleb128 0x17
 1792 1b7f 4E525F4F 		.ascii "NR_OF_CORES 1u\0"
 1792      465F434F 
 1792      52455320 
 1792      317500
 1793 1b8e 01       		.byte	0x1
 1794 1b8f 1B       		.uleb128 0x1b
 1795 1b90 4D43555F 		.ascii "MCU_CLOCK_IN_HZ ((uint32)168000000u)\0"
 1795      434C4F43 
 1795      4B5F494E 
 1795      5F485A20 
 1795      28287569 
 1796 1bb5 01       		.byte	0x1
 1797 1bb6 1D       		.uleb128 0x1d
 1798 1bb7 44594E41 		.ascii "DYNAMIC_MEMORY_USED FALSE\0"
 1798      4D49435F 
 1798      4D454D4F 
 1798      52595F55 
 1798      53454420 
 1799 1bd1 01       		.byte	0x1
 1800 1bd2 1E       		.uleb128 0x1e
 1801 1bd3 4C4F4F50 		.ascii "LOOPTIME_IN_USEC ((uint32)10000u)\0"
 1801      54494D45 
 1801      5F494E5F 
 1801      55534543 
 1801      20282875 
 1802 1bf5 01       		.byte	0x1
 1803 1bf6 21       		.uleb128 0x21
 1804 1bf7 48454150 		.ascii "HEAP_SIZE 10000u\0"
 1804      5F53495A 
 1804      45203130 
 1804      30303075 
 1804      00
 1805 1c08 01       		.byte	0x1
 1806 1c09 22       		.uleb128 0x22
 1807 1c0a 4D494E5F 		.ascii "MIN_BLOCK_SIZE_HEAP 8u\0"
 1807      424C4F43 
 1807      4B5F5349 
 1807      5A455F48 
 1807      45415020 
 1808 1c21 01       		.byte	0x1
GAS LISTING C:\Users\PRESID~1\AppData\Local\Temp\cc3IHcck.s 			page 60


 1809 1c22 23       		.uleb128 0x23
 1810 1c23 48454150 		.ascii "HEAP_OFFSET_FOR_SIZE 0u\0"
 1810      5F4F4646 
 1810      5345545F 
 1810      464F525F 
 1810      53495A45 
 1811 1c3b 01       		.byte	0x1
 1812 1c3c 24       		.uleb128 0x24
 1813 1c3d 48454150 		.ascii "HEAP_OFFSET_FOR_USED_SIZE 4u\0"
 1813      5F4F4646 
 1813      5345545F 
 1813      464F525F 
 1813      55534544 
 1814 1c5a 01       		.byte	0x1
 1815 1c5b 25       		.uleb128 0x25
 1816 1c5c 48454150 		.ascii "HEAP_OFFSET_FOR_CHUNK 8u\0"
 1816      5F4F4646 
 1816      5345545F 
 1816      464F525F 
 1816      4348554E 
 1817 1c75 01       		.byte	0x1
 1818 1c76 28       		.uleb128 0x28
 1819 1c77 4F535F4D 		.ascii "OS_MAIN_STACK_SIZE 0x400u\0"
 1819      41494E5F 
 1819      53544143 
 1819      4B5F5349 
 1819      5A452030 
 1820 1c91 01       		.byte	0x1
 1821 1c92 29       		.uleb128 0x29
 1822 1c93 4F535F50 		.ascii "OS_PROCESS_STACK_TASK1_SIZE 0x200u\0"
 1822      524F4345 
 1822      53535F53 
 1822      5441434B 
 1822      5F544153 
 1823 1cb6 01       		.byte	0x1
 1824 1cb7 2A       		.uleb128 0x2a
 1825 1cb8 4F535F50 		.ascii "OS_PROCESS_STACK_TASK2_SIZE 0x200u\0"
 1825      524F4345 
 1825      53535F53 
 1825      5441434B 
 1825      5F544153 
 1826 1cdb 01       		.byte	0x1
 1827 1cdc 2B       		.uleb128 0x2b
 1828 1cdd 4F535F50 		.ascii "OS_PROCESS_STACK_TASK3_SIZE 0x200u\0"
 1828      524F4345 
 1828      53535F53 
 1828      5441434B 
 1828      5F544153 
 1829 1d00 01       		.byte	0x1
 1830 1d01 2C       		.uleb128 0x2c
 1831 1d02 4F535F50 		.ascii "OS_PROCESS_STACK_TASK4_SIZE 0x200u\0"
 1831      524F4345 
 1831      53535F53 
 1831      5441434B 
 1831      5F544153 
 1832 1d25 04       		.byte	0x4
 1833 1d26 03       		.byte	0x3
GAS LISTING C:\Users\PRESID~1\AppData\Local\Temp\cc3IHcck.s 			page 61


 1834 1d27 05       		.uleb128 0x5
 1835 1d28 02       		.uleb128 0x2
 1836 1d29 01       		.byte	0x1
 1837 1d2a 02       		.uleb128 0x2
 1838 1d2b 5F4F535F 		.ascii "_OS_BASE_TYPES_H_ \0"
 1838      42415345 
 1838      5F545950 
 1838      45535F48 
 1838      5F2000
 1839 1d3e 04       		.byte	0x4
 1840 1d3f 03       		.byte	0x3
 1841 1d40 06       		.uleb128 0x6
 1842 1d41 03       		.uleb128 0x3
 1843 1d42 01       		.byte	0x1
 1844 1d43 02       		.uleb128 0x2
 1845 1d44 5F4F535F 		.ascii "_OS_COMMON_H_ \0"
 1845      434F4D4D 
 1845      4F4E5F48 
 1845      5F2000
 1846 1d53 01       		.byte	0x1
 1847 1d54 06       		.uleb128 0x6
 1848 1d55 46414C53 		.ascii "FALSE 0u\0"
 1848      45203075 
 1848      00
 1849 1d5e 01       		.byte	0x1
 1850 1d5f 07       		.uleb128 0x7
 1851 1d60 54525545 		.ascii "TRUE 1u\0"
 1851      20317500 
 1852 1d68 01       		.byte	0x1
 1853 1d69 08       		.uleb128 0x8
 1854 1d6a 46616C73 		.ascii "False FALSE\0"
 1854      65204641 
 1854      4C534500 
 1855 1d76 01       		.byte	0x1
 1856 1d77 09       		.uleb128 0x9
 1857 1d78 54727565 		.ascii "True TRUE\0"
 1857      20545255 
 1857      4500
 1858 1d82 01       		.byte	0x1
 1859 1d83 0A       		.uleb128 0xa
 1860 1d84 41434345 		.ascii "ACCEPTED 1u\0"
 1860      50544544 
 1860      20317500 
 1861 1d90 01       		.byte	0x1
 1862 1d91 0B       		.uleb128 0xb
 1863 1d92 52454A45 		.ascii "REJECTED 0u\0"
 1863      43544544 
 1863      20307500 
 1864 1d9e 01       		.byte	0x1
 1865 1d9f 0C       		.uleb128 0xc
 1866 1da0 4C4F4341 		.ascii "LOCAL static\0"
 1866      4C207374 
 1866      61746963 
 1866      00
 1867 1dad 01       		.byte	0x1
 1868 1dae 0D       		.uleb128 0xd
 1869 1daf 4C4F4341 		.ascii "LOCAL_INLINE static __inline__\0"
GAS LISTING C:\Users\PRESID~1\AppData\Local\Temp\cc3IHcck.s 			page 62


 1869      4C5F494E 
 1869      4C494E45 
 1869      20737461 
 1869      74696320 
 1870 1dce 01       		.byte	0x1
 1871 1dcf 0E       		.uleb128 0xe
 1872 1dd0 474C4F42 		.ascii "GLOBAL_INLINE __inline__\0"
 1872      414C5F49 
 1872      4E4C494E 
 1872      45205F5F 
 1872      696E6C69 
 1873 1de9 01       		.byte	0x1
 1874 1dea 0F       		.uleb128 0xf
 1875 1deb 52454645 		.ascii "REFERENCE_UNUSED_PARAMETER(x) ((x) = (x))\0"
 1875      52454E43 
 1875      455F554E 
 1875      55534544 
 1875      5F504152 
 1876 1e15 01       		.byte	0x1
 1877 1e16 12       		.uleb128 0x12
 1878 1e17 4D43555F 		.ascii "MCU_X86 3\0"
 1878      58383620 
 1878      3300
 1879 1e21 01       		.byte	0x1
 1880 1e22 13       		.uleb128 0x13
 1881 1e23 4D43555F 		.ascii "MCU_CORTEX_M4 4\0"
 1881      434F5254 
 1881      45585F4D 
 1881      34203400 
 1882 1e33 01       		.byte	0x1
 1883 1e34 16       		.uleb128 0x16
 1884 1e35 4457545F 		.ascii "DWT_CTRL ((volatile uint32*)0xE0001000u)\0"
 1884      4354524C 
 1884      20282876 
 1884      6F6C6174 
 1884      696C6520 
 1885 1e5e 01       		.byte	0x1
 1886 1e5f 17       		.uleb128 0x17
 1887 1e60 4457545F 		.ascii "DWT_CYCCNT ((volatile uint32*)0xE0001004u)\0"
 1887      43594343 
 1887      4E542028 
 1887      28766F6C 
 1887      6174696C 
 1888 1e8b 01       		.byte	0x1
 1889 1e8c 18       		.uleb128 0x18
 1890 1e8d 4457545F 		.ascii "DWT_LAR ((volatile uint32*)0xE0001FB0u)\0"
 1890      4C415220 
 1890      2828766F 
 1890      6C617469 
 1890      6C652075 
 1891 1eb5 01       		.byte	0x1
 1892 1eb6 19       		.uleb128 0x19
 1893 1eb7 5343425F 		.ascii "SCB_DEMCR ((volatile uint32*)0xE000EDFCu)\0"
 1893      44454D43 
 1893      52202828 
 1893      766F6C61 
 1893      74696C65 
GAS LISTING C:\Users\PRESID~1\AppData\Local\Temp\cc3IHcck.s 			page 63


 1894 1ee1 01       		.byte	0x1
 1895 1ee2 1C       		.uleb128 0x1c
 1896 1ee3 44495341 		.ascii "DISABLE_INTERRUPTS() \0"
 1896      424C455F 
 1896      494E5445 
 1896      52525550 
 1896      54532829 
 1897 1ef9 01       		.byte	0x1
 1898 1efa 1D       		.uleb128 0x1d
 1899 1efb 454E4142 		.ascii "ENABLE_INTERRUPTS() \0"
 1899      4C455F49 
 1899      4E544552 
 1899      52555054 
 1899      53282920 
 1900 1f10 01       		.byte	0x1
 1901 1f11 1E       		.uleb128 0x1e
 1902 1f12 50524956 		.ascii "PRIVILIGE_LEVEL_SAVE_CURRENT() \0"
 1902      494C4947 
 1902      455F4C45 
 1902      56454C5F 
 1902      53415645 
 1903 1f32 01       		.byte	0x1
 1904 1f33 1F       		.uleb128 0x1f
 1905 1f34 50524956 		.ascii "PRIVILIGE_LEVEL_ENTER_KERNEL_MODE() \0"
 1905      494C4947 
 1905      455F4C45 
 1905      56454C5F 
 1905      454E5445 
 1906 1f59 01       		.byte	0x1
 1907 1f5a 20       		.uleb128 0x20
 1908 1f5b 50524956 		.ascii "PRIVILIGE_LEVEL_RESTORE_SAVED() \0"
 1908      494C4947 
 1908      455F4C45 
 1908      56454C5F 
 1908      52455354 
 1909 1f7c 01       		.byte	0x1
 1910 1f7d 21       		.uleb128 0x21
 1911 1f7e 48414C54 		.ascii "HALT_MCU() \0"
 1911      5F4D4355 
 1911      28292000 
 1912 1f8a 01       		.byte	0x1
 1913 1f8b 41       		.uleb128 0x41
 1914 1f8c 414D4F55 		.ascii "AMOUNT_SW_BUG_FUNCTIONS 22\0"
 1914      4E545F53 
 1914      575F4255 
 1914      475F4655 
 1914      4E435449 
 1915 1fa7 04       		.byte	0x4
 1916              		.file 8 "E:/NeuOrga/Programmieren/c_cpp/github_os/input/src/os_base/../os_sim/lld_global.h"
 1917 1fa8 03       		.byte	0x3
 1918 1fa9 09       		.uleb128 0x9
 1919 1faa 08       		.uleb128 0x8
 1920 1fab 01       		.byte	0x1
 1921 1fac 02       		.uleb128 0x2
 1922 1fad 5F4C4C44 		.ascii "_LLD_GLOBAL_H_ \0"
 1922      5F474C4F 
 1922      42414C5F 
GAS LISTING C:\Users\PRESID~1\AppData\Local\Temp\cc3IHcck.s 			page 64


 1922      485F2000 
 1923              		.file 9 "E:/NeuOrga/Programmieren/c_cpp/github_os/input/src/os_base/../os_sim/lld_core.h"
 1924 1fbd 03       		.byte	0x3
 1925 1fbe 04       		.uleb128 0x4
 1926 1fbf 09       		.uleb128 0x9
 1927 1fc0 01       		.byte	0x1
 1928 1fc1 02       		.uleb128 0x2
 1929 1fc2 5F4C4C44 		.ascii "_LLD_CORE_H_ \0"
 1929      5F434F52 
 1929      455F485F 
 1929      2000
 1930              		.file 10 "E:/NeuOrga/Programmieren/c_cpp/github_os/input/src/os_base/../os_sim/../os_base/os_first
 1931 1fd0 03       		.byte	0x3
 1932 1fd1 03       		.uleb128 0x3
 1933 1fd2 0A       		.uleb128 0xa
 1934 1fd3 04       		.byte	0x4
 1935 1fd4 04       		.byte	0x4
 1936              		.file 11 "E:/NeuOrga/Programmieren/c_cpp/github_os/input/src/os_base/../os_sim/lld_interrupt.h"
 1937 1fd5 03       		.byte	0x3
 1938 1fd6 05       		.uleb128 0x5
 1939 1fd7 0B       		.uleb128 0xb
 1940 1fd8 01       		.byte	0x1
 1941 1fd9 02       		.uleb128 0x2
 1942 1fda 5F4C4C44 		.ascii "_LLD_INTERRUPT_H_ \0"
 1942      5F494E54 
 1942      45525255 
 1942      50545F48 
 1942      5F2000
 1943 1fed 01       		.byte	0x1
 1944 1fee 05       		.uleb128 0x5
 1945 1fef 4F535F49 		.ascii "OS_INTERRUPT_SWI_1 asm(\"swi 1\")\0"
 1945      4E544552 
 1945      52555054 
 1945      5F535749 
 1945      5F312061 
 1946 200f 01       		.byte	0x1
 1947 2010 06       		.uleb128 0x6
 1948 2011 4F535F49 		.ascii "OS_INTERRUPT_SWI_2 asm(\"swi 2\")\0"
 1948      4E544552 
 1948      52555054 
 1948      5F535749 
 1948      5F322061 
 1949 2031 01       		.byte	0x1
 1950 2032 07       		.uleb128 0x7
 1951 2033 4F535F49 		.ascii "OS_INTERRUPT_SWI_3 asm(\"swi 3\")\0"
 1951      4E544552 
 1951      52555054 
 1951      5F535749 
 1951      5F332061 
 1952 2053 01       		.byte	0x1
 1953 2054 08       		.uleb128 0x8
 1954 2055 4F535F49 		.ascii "OS_INTERRUPT_SWI_4 asm(\"swi 4\")\0"
 1954      4E544552 
 1954      52555054 
 1954      5F535749 
 1954      5F342061 
 1955 2075 01       		.byte	0x1
GAS LISTING C:\Users\PRESID~1\AppData\Local\Temp\cc3IHcck.s 			page 65


 1956 2076 09       		.uleb128 0x9
 1957 2077 4F535F49 		.ascii "OS_INTERRUPT_SWI_5 asm(\"swi 5\")\0"
 1957      4E544552 
 1957      52555054 
 1957      5F535749 
 1957      5F352061 
 1958 2097 04       		.byte	0x4
 1959              		.file 12 "E:/NeuOrga/Programmieren/c_cpp/github_os/input/src/os_base/../os_sim/lld_mmu.h"
 1960 2098 03       		.byte	0x3
 1961 2099 06       		.uleb128 0x6
 1962 209a 0C       		.uleb128 0xc
 1963 209b 01       		.byte	0x1
 1964 209c 02       		.uleb128 0x2
 1965 209d 5F4C4C44 		.ascii "_LLD_MMU_H_ \0"
 1965      5F4D4D55 
 1965      5F485F20 
 1965      00
 1966 20aa 04       		.byte	0x4
 1967              		.file 13 "E:/NeuOrga/Programmieren/c_cpp/github_os/input/src/os_base/../os_sim/lld_timer.h"
 1968 20ab 03       		.byte	0x3
 1969 20ac 07       		.uleb128 0x7
 1970 20ad 0D       		.uleb128 0xd
 1971 20ae 01       		.byte	0x1
 1972 20af 02       		.uleb128 0x2
 1973 20b0 5F4C4C44 		.ascii "_LLD_TIMER_H_ \0"
 1973      5F54494D 
 1973      45525F48 
 1973      5F2000
 1974 20bf 04       		.byte	0x4
 1975              		.file 14 "E:/NeuOrga/Programmieren/c_cpp/github_os/input/src/os_base/../os_sim/lld_power.h"
 1976 20c0 03       		.byte	0x3
 1977 20c1 08       		.uleb128 0x8
 1978 20c2 0E       		.uleb128 0xe
 1979 20c3 01       		.byte	0x1
 1980 20c4 02       		.uleb128 0x2
 1981 20c5 5F4C4C44 		.ascii "_LLD_POWER_H_ \0"
 1981      5F504F57 
 1981      45525F48 
 1981      5F2000
 1982 20d4 04       		.byte	0x4
 1983              		.file 15 "E:/NeuOrga/Programmieren/c_cpp/github_os/input/src/os_base/../os_sim/lld_ram.h"
 1984 20d5 03       		.byte	0x3
 1985 20d6 09       		.uleb128 0x9
 1986 20d7 0F       		.uleb128 0xf
 1987 20d8 01       		.byte	0x1
 1988 20d9 02       		.uleb128 0x2
 1989 20da 5F4C4C44 		.ascii "_LLD_RAM_H_ \0"
 1989      5F52414D 
 1989      5F485F20 
 1989      00
 1990 20e7 04       		.byte	0x4
 1991              		.file 16 "E:/NeuOrga/Programmieren/c_cpp/github_os/input/src/os_base/../os_sim/../os_base/os_task_
 1992 20e8 03       		.byte	0x3
 1993 20e9 0A       		.uleb128 0xa
 1994 20ea 10       		.uleb128 0x10
 1995 20eb 01       		.byte	0x1
 1996 20ec 02       		.uleb128 0x2
GAS LISTING C:\Users\PRESID~1\AppData\Local\Temp\cc3IHcck.s 			page 66


 1997 20ed 5F4F535F 		.ascii "_OS_TASK_COMMON_H_ \0"
 1997      5441534B 
 1997      5F434F4D 
 1997      4D4F4E5F 
 1997      485F2000 
 1998 2101 03       		.byte	0x3
 1999 2102 03       		.uleb128 0x3
 2000 2103 0A       		.uleb128 0xa
 2001 2104 04       		.byte	0x4
 2002              		.file 17 "E:/NeuOrga/Programmieren/c_cpp/github_os/input/src/os_base/../os_sim/../os_base/os_task_
 2003 2105 03       		.byte	0x3
 2004 2106 04       		.uleb128 0x4
 2005 2107 11       		.uleb128 0x11
 2006 2108 01       		.byte	0x1
 2007 2109 02       		.uleb128 0x2
 2008 210a 5F4F535F 		.ascii "_OS_TASK_CONFIG_H_ \0"
 2008      5441534B 
 2008      5F434F4E 
 2008      4649475F 
 2008      485F2000 
 2009 211e 01       		.byte	0x1
 2010 211f 05       		.uleb128 0x5
 2011 2120 5441534B 		.ascii "TASK_MIN_TIME (1e0)\0"
 2011      5F4D494E 
 2011      5F54494D 
 2011      45202831 
 2011      65302900 
 2012 2134 01       		.byte	0x1
 2013 2135 06       		.uleb128 0x6
 2014 2136 4E554D42 		.ascii "NUMBER_OF_TASKS 10u\0"
 2014      45525F4F 
 2014      465F5441 
 2014      534B5320 
 2014      31307500 
 2015 214a 01       		.byte	0x1
 2016 214b 07       		.uleb128 0x7
 2017 214c 4D41585F 		.ascii "MAX_RUN_QUEUE_SIZE (NUMBER_OF_TASKS)\0"
 2017      52554E5F 
 2017      51554555 
 2017      455F5349 
 2017      5A452028 
 2018 2171 01       		.byte	0x1
 2019 2172 08       		.uleb128 0x8
 2020 2173 4D41585F 		.ascii "MAX_RUN_PQUEUE_SIZE MAX_RUN_QUEUE_SIZE\0"
 2020      52554E5F 
 2020      50515545 
 2020      55455F53 
 2020      495A4520 
 2021 219a 01       		.byte	0x1
 2022 219b 0A       		.uleb128 0xa
 2023 219c 5441534B 		.ascii "TASK0_STACK_SIZE 2000u\0"
 2023      305F5354 
 2023      41434B5F 
 2023      53495A45 
 2023      20323030 
 2024 21b3 01       		.byte	0x1
 2025 21b4 0B       		.uleb128 0xb
GAS LISTING C:\Users\PRESID~1\AppData\Local\Temp\cc3IHcck.s 			page 67


 2026 21b5 5441534B 		.ascii "TASK1_STACK_SIZE 2000u\0"
 2026      315F5354 
 2026      41434B5F 
 2026      53495A45 
 2026      20323030 
 2027 21cc 01       		.byte	0x1
 2028 21cd 0C       		.uleb128 0xc
 2029 21ce 5441534B 		.ascii "TASK2_STACK_SIZE 2000u\0"
 2029      325F5354 
 2029      41434B5F 
 2029      53495A45 
 2029      20323030 
 2030 21e5 01       		.byte	0x1
 2031 21e6 0D       		.uleb128 0xd
 2032 21e7 5441534B 		.ascii "TASK3_STACK_SIZE 2000u\0"
 2032      335F5354 
 2032      41434B5F 
 2032      53495A45 
 2032      20323030 
 2033 21fe 01       		.byte	0x1
 2034 21ff 0E       		.uleb128 0xe
 2035 2200 5441534B 		.ascii "TASK4_STACK_SIZE 2000u\0"
 2035      345F5354 
 2035      41434B5F 
 2035      53495A45 
 2035      20323030 
 2036 2217 01       		.byte	0x1
 2037 2218 12       		.uleb128 0x12
 2038 2219 4D535F50 		.ascii "MS_PER_SEC 1000u\0"
 2038      45525F53 
 2038      45432031 
 2038      30303075 
 2038      00
 2039 222a 01       		.byte	0x1
 2040 222b 13       		.uleb128 0x13
 2041 222c 5553455F 		.ascii "USE_STATIC_CREATED_TASKS TRUE\0"
 2041      53544154 
 2041      49435F43 
 2041      52454154 
 2041      45445F54 
 2042 224a 04       		.byte	0x4
 2043              		.file 18 "E:/NeuOrga/Programmieren/c_cpp/github_os/input/src/os_base/../os_sim/../os_base/os_init_
 2044 224b 03       		.byte	0x3
 2045 224c 05       		.uleb128 0x5
 2046 224d 12       		.uleb128 0x12
 2047 224e 01       		.byte	0x1
 2048 224f 02       		.uleb128 0x2
 2049 2250 5F4F535F 		.ascii "_OS_INIT_TASK_SYSTEM_H_ \0"
 2049      494E4954 
 2049      5F544153 
 2049      4B5F5359 
 2049      5354454D 
 2050 2269 04       		.byte	0x4
 2051 226a 01       		.byte	0x1
 2052 226b 5F       		.uleb128 0x5f
 2053 226c 4F535F53 		.ascii "OS_SAVE_TASK_PTR(task_ptr,task_name) (TASK_PTR[(task_name)] = (task_ptr))\0"
 2053      4156455F 
GAS LISTING C:\Users\PRESID~1\AppData\Local\Temp\cc3IHcck.s 			page 68


 2053      5441534B 
 2053      5F505452 
 2053      28746173 
 2054 22b6 01       		.byte	0x1
 2055 22b7 60       		.uleb128 0x60
 2056 22b8 4F535F47 		.ascii "OS_GET_TASK_PTR(task_name) ((task_t*) TASK_PTR[(task_name)])\0"
 2056      45545F54 
 2056      41534B5F 
 2056      50545228 
 2056      7461736B 
 2057 22f5 04       		.byte	0x4
 2058 22f6 04       		.byte	0x4
 2059              		.file 19 "E:/NeuOrga/Programmieren/c_cpp/github_os/input/src/os_base/../os_user_code/led.h"
 2060 22f7 03       		.byte	0x3
 2061 22f8 0D       		.uleb128 0xd
 2062 22f9 13       		.uleb128 0x13
 2063 22fa 01       		.byte	0x1
 2064 22fb 02       		.uleb128 0x2
 2065 22fc 5F4C4544 		.ascii "_LED_H_ \0"
 2065      5F485F20 
 2065      00
 2066 2305 04       		.byte	0x4
 2067 2306 03       		.byte	0x3
 2068 2307 0F       		.uleb128 0xf
 2069 2308 04       		.uleb128 0x4
 2070 2309 01       		.byte	0x1
 2071 230a 02       		.uleb128 0x2
 2072 230b 5F4F535F 		.ascii "_OS_RAM_H_ \0"
 2072      52414D5F 
 2072      485F2000 
 2073              		.file 20 "E:/NeuOrga/Programmieren/c_cpp/github_os/input/src/os_base/../os_base/os_firstinc.h"
 2074 2317 03       		.byte	0x3
 2075 2318 04       		.uleb128 0x4
 2076 2319 14       		.uleb128 0x14
 2077 231a 04       		.byte	0x4
 2078              		.file 21 "E:/NeuOrga/Programmieren/c_cpp/github_os/input/src/os_base/../os_base/os_stack.h"
 2079 231b 03       		.byte	0x3
 2080 231c 05       		.uleb128 0x5
 2081 231d 15       		.uleb128 0x15
 2082 231e 01       		.byte	0x1
 2083 231f 02       		.uleb128 0x2
 2084 2320 5F4F535F 		.ascii "_OS_STACK_H_ \0"
 2084      53544143 
 2084      4B5F485F 
 2084      2000
 2085 232e 04       		.byte	0x4
 2086              		.file 22 "E:/NeuOrga/Programmieren/c_cpp/github_os/input/src/os_base/../os_base/os_heap.h"
 2087 232f 03       		.byte	0x3
 2088 2330 06       		.uleb128 0x6
 2089 2331 16       		.uleb128 0x16
 2090 2332 01       		.byte	0x1
 2091 2333 02       		.uleb128 0x2
 2092 2334 5F4F535F 		.ascii "_OS_HEAP_H_ \0"
 2092      48454150 
 2092      5F485F20 
 2092      00
 2093 2341 04       		.byte	0x4
GAS LISTING C:\Users\PRESID~1\AppData\Local\Temp\cc3IHcck.s 			page 69


 2094              		.file 23 "E:/NeuOrga/Programmieren/c_cpp/github_os/input/src/os_base/../os_base/os_main.h"
 2095 2342 03       		.byte	0x3
 2096 2343 07       		.uleb128 0x7
 2097 2344 17       		.uleb128 0x17
 2098 2345 01       		.byte	0x1
 2099 2346 02       		.uleb128 0x2
 2100 2347 5F4F535F 		.ascii "_OS_MAIN_H_ \0"
 2100      4D41494E 
 2100      5F485F20 
 2100      00
 2101 2354 04       		.byte	0x4
 2102              		.file 24 "E:/NeuOrga/Programmieren/c_cpp/github_os/input/src/os_base/../os_base/os_task_config.h"
 2103 2355 03       		.byte	0x3
 2104 2356 08       		.uleb128 0x8
 2105 2357 18       		.uleb128 0x18
 2106 2358 04       		.byte	0x4
 2107              		.file 25 "E:/NeuOrga/Programmieren/c_cpp/github_os/input/src/os_base/../os_base/os_task_common.h"
 2108 2359 03       		.byte	0x3
 2109 235a 09       		.uleb128 0x9
 2110 235b 19       		.uleb128 0x19
 2111 235c 04       		.byte	0x4
 2112 235d 04       		.byte	0x4
 2113 235e 03       		.byte	0x3
 2114 235f 10       		.uleb128 0x10
 2115 2360 05       		.uleb128 0x5
 2116 2361 01       		.byte	0x1
 2117 2362 02       		.uleb128 0x2
 2118 2363 5F4F535F 		.ascii "_OS_RAM_STACK_H_ \0"
 2118      52414D5F 
 2118      53544143 
 2118      4B5F485F 
 2118      2000
 2119 2375 04       		.byte	0x4
 2120 2376 04       		.byte	0x4
 2121 2377 04       		.byte	0x4
 2122 2378 00       		.byte	0
 2123              		.section	.debug_line,"dr"
 2124              	Ldebug_line0:
 2125 0000 89040000 		.section	.debug_str,"dr"
 2125      02004503 
 2125      00000101 
 2125      FB0E0D00 
 2125      01010101 
 2126              	LASF0:
 2127 0000 73746163 		.ascii "stack_pos\0"
 2127      6B5F706F 
 2127      7300
 2128              		.ident	"GCC: (GNU) 4.9.3"
GAS LISTING C:\Users\PRESID~1\AppData\Local\Temp\cc3IHcck.s 			page 70


DEFINED SYMBOLS
                            *ABS*:00000000 os_stack.c
C:\Users\PRESID~1\AppData\Local\Temp\cc3IHcck.s:6      .text:00000000 _OS_STACK_CHECK
C:\Users\PRESID~1\AppData\Local\Temp\cc3IHcck.s:457    .bss:00000000 _stack_pos.1369
C:\Users\PRESID~1\AppData\Local\Temp\cc3IHcck.s:458    .bss:00000004 _stack_used.1370
C:\Users\PRESID~1\AppData\Local\Temp\cc3IHcck.s:354    .text:000003fc _OS_STACK_CHK_PATTERN_INIT

UNDEFINED SYMBOLS
_OS_MAIN_STACK_ADDR
_OS_MAIN_STACK_POS
_OS_MAIN_STACK_USAGE_PERCENT
_OS_MAIN_STACK
_TASK0_STACK
_TASK0_STACK_POS
_TASK0_STACK_ADDR
_TASK1_STACK
_TASK1_STACK_POS
_TASK1_STACK_ADDR
_TASK2_STACK
_TASK2_STACK_POS
_TASK2_STACK_ADDR
_TASK3_STACK
_TASK3_STACK_POS
_TASK3_STACK_ADDR
_TASK4_STACK
_TASK4_STACK_POS
_TASK4_STACK_ADDR
_TASK0_STACK_USAGE_PERCENT
_TASK1_STACK_USAGE_PERCENT
_TASK2_STACK_USAGE_PERCENT
_TASK3_STACK_USAGE_PERCENT
_TASK4_STACK_USAGE_PERCENT
_OS_SET_SW_BUG
