GAS LISTING C:\Users\PRESID~1\AppData\Local\Temp\ccD5yOAh.s 			page 1


   1              		.file	"os_start_ext_prg.c"
   2              		.text
   3              	Ltext0:
   5              	_os_signatur_valid:
   6              	LFB0:
   7              		.file 1 "C:/Users/president/Desktop/sbx/input/src/os_base/os_start_ext_prg.c"
   1:C:/Users/president/Desktop/sbx/input/src/os_base\os_start_ext_prg.c **** #include "os_firstinc.h"
   2:C:/Users/president/Desktop/sbx/input/src/os_base\os_start_ext_prg.c **** /*
   3:C:/Users/president/Desktop/sbx/input/src/os_base\os_start_ext_prg.c ****    os_StartExtPrg: to be called with supervisor rights!!
   4:C:/Users/president/Desktop/sbx/input/src/os_base\os_start_ext_prg.c **** */
   5:C:/Users/president/Desktop/sbx/input/src/os_base\os_start_ext_prg.c **** LOCAL unsigned_char_t os_signatur_valid(func_ptr_t LoadProgAddr, uint32 PrgSignatur, uint32 PrgSize
   6:C:/Users/president/Desktop/sbx/input/src/os_base\os_start_ext_prg.c **** 
   7:C:/Users/president/Desktop/sbx/input/src/os_base\os_start_ext_prg.c **** unsigned_char_t os_signatur_valid(func_ptr_t LoadProgAddr, uint32 PrgSignatur, uint32 PrgSize)
   8:C:/Users/president/Desktop/sbx/input/src/os_base\os_start_ext_prg.c **** {
   8              		.loc 1 8 1
   9              		.cfi_startproc
  10 0000 55       		pushl	%ebp
  11              		.cfi_def_cfa_offset 8
  12              		.cfi_offset 5, -8
  13 0001 89E5     		movl	%esp, %ebp
  14              		.cfi_def_cfa_register 5
   9:C:/Users/president/Desktop/sbx/input/src/os_base\os_start_ext_prg.c ****    /* no signature check currently wanted, because
  10:C:/Users/president/Desktop/sbx/input/src/os_base\os_start_ext_prg.c ****    1. Asymetric Signature calculation takes lots of time
  11:C:/Users/president/Desktop/sbx/input/src/os_base\os_start_ext_prg.c ****    2. Sym Hash + Asym Signature lack of official embedded implementation free to use
  12:C:/Users/president/Desktop/sbx/input/src/os_base\os_start_ext_prg.c ****    3. Signature not in the scope of the project
  13:C:/Users/president/Desktop/sbx/input/src/os_base\os_start_ext_prg.c ****    */
  14:C:/Users/president/Desktop/sbx/input/src/os_base\os_start_ext_prg.c ****    REFERENCE_UNUSED_PARAMETER(LoadProgAddr);
  15:C:/Users/president/Desktop/sbx/input/src/os_base\os_start_ext_prg.c ****    REFERENCE_UNUSED_PARAMETER(PrgSignatur);
  16:C:/Users/president/Desktop/sbx/input/src/os_base\os_start_ext_prg.c ****    REFERENCE_UNUSED_PARAMETER(PrgSize);
  17:C:/Users/president/Desktop/sbx/input/src/os_base\os_start_ext_prg.c ****    return TRUE;
  15              		.loc 1 17 11
  16 0003 B001     		movb	$1, %al
  18:C:/Users/president/Desktop/sbx/input/src/os_base\os_start_ext_prg.c **** }
  17              		.loc 1 18 1
  18 0005 5D       		popl	%ebp
  19              		.cfi_restore 5
  20              		.cfi_def_cfa 4, 4
  21 0006 C3       		ret
  22              		.cfi_endproc
  23              	LFE0:
  24              		.globl	_OS_START_EXT_PRG
  26              	_OS_START_EXT_PRG:
  27              	LFB1:
  19:C:/Users/president/Desktop/sbx/input/src/os_base\os_start_ext_prg.c **** void OS_START_EXT_PRG(func_ptr_t LoadProgAddr, uint32 PrgSignatur, uint32 PrgSize)
  20:C:/Users/president/Desktop/sbx/input/src/os_base\os_start_ext_prg.c **** {
  28              		.loc 1 20 1
  29              		.cfi_startproc
  30 0007 55       		pushl	%ebp
  31              		.cfi_def_cfa_offset 8
  32              		.cfi_offset 5, -8
  33 0008 89E5     		movl	%esp, %ebp
  34              		.cfi_def_cfa_register 5
  35 000a 83EC18   		subl	$24, %esp
  21:C:/Users/president/Desktop/sbx/input/src/os_base\os_start_ext_prg.c ****    /* 1. Check Program Signatur and size -> is it a signed Programm? (Chain of Trust) */
  22:C:/Users/president/Desktop/sbx/input/src/os_base\os_start_ext_prg.c ****    if(os_signatur_valid(LoadProgAddr, PrgSignatur, PrgSize) == FALSE)
  36              		.loc 1 22 7
  37 000d 8B4510   		movl	16(%ebp), %eax
GAS LISTING C:\Users\PRESID~1\AppData\Local\Temp\ccD5yOAh.s 			page 2


  38 0010 89442408 		movl	%eax, 8(%esp)
  39 0014 8B450C   		movl	12(%ebp), %eax
  40 0017 89442404 		movl	%eax, 4(%esp)
  41 001b 8B4508   		movl	8(%ebp), %eax
  42 001e 890424   		movl	%eax, (%esp)
  43 0021 E8DAFFFF 		call	_os_signatur_valid
  43      FF
  44              		.loc 1 22 6
  45 0026 84C0     		testb	%al, %al
  46 0028 7407     		je	L6
  23:C:/Users/president/Desktop/sbx/input/src/os_base\os_start_ext_prg.c ****    {
  24:C:/Users/president/Desktop/sbx/input/src/os_base\os_start_ext_prg.c ****       return;
  25:C:/Users/president/Desktop/sbx/input/src/os_base\os_start_ext_prg.c ****    }
  26:C:/Users/president/Desktop/sbx/input/src/os_base\os_start_ext_prg.c **** 
  27:C:/Users/president/Desktop/sbx/input/src/os_base\os_start_ext_prg.c ****    /* 2. Switch off MMU (system mpu and core mpu, perhaps more mpu parts need to be switched off...
  28:C:/Users/president/Desktop/sbx/input/src/os_base\os_start_ext_prg.c ****    /*LLF_MPU_DISABLE(); -> already done in os_deinit_mc(); */
  29:C:/Users/president/Desktop/sbx/input/src/os_base\os_start_ext_prg.c **** 
  30:C:/Users/president/Desktop/sbx/input/src/os_base\os_start_ext_prg.c ****    /* 3. Start ExtPrg */
  31:C:/Users/president/Desktop/sbx/input/src/os_base\os_start_ext_prg.c ****    /*
  32:C:/Users/president/Desktop/sbx/input/src/os_base\os_start_ext_prg.c ****    call function:
  33:C:/Users/president/Desktop/sbx/input/src/os_base\os_start_ext_prg.c ****    different processors have different alignment requirements... be aware!!
  34:C:/Users/president/Desktop/sbx/input/src/os_base\os_start_ext_prg.c ****    Might cause non alignment failures, in case the code in not aligned correctly
  35:C:/Users/president/Desktop/sbx/input/src/os_base\os_start_ext_prg.c ****    */
  36:C:/Users/president/Desktop/sbx/input/src/os_base\os_start_ext_prg.c ****    LoadProgAddr();
  47              		.loc 1 36 4
  48 002a 8B4508   		movl	8(%ebp), %eax
  49 002d FFD0     		call	*%eax
  50              	LVL0:
  51 002f EB01     		jmp	L3
  52              	L6:
  24:C:/Users/president/Desktop/sbx/input/src/os_base\os_start_ext_prg.c ****    }
  53              		.loc 1 24 7
  54 0031 90       		nop
  55              	L3:
  37:C:/Users/president/Desktop/sbx/input/src/os_base\os_start_ext_prg.c **** }
  56              		.loc 1 37 1
  57 0032 C9       		leave
  58              		.cfi_restore 5
  59              		.cfi_def_cfa 4, 4
  60 0033 C3       		ret
  61              		.cfi_endproc
  62              	LFE1:
  63              	Letext0:
  64              		.file 2 "c:/users/president/desktop/sbx/input/src/os_base/os_base_types.h"
  65              		.file 3 "c:/users/president/desktop/sbx/input/src/os_base/os_common.h"
  66              		.file 4 "c:/users/president/desktop/sbx/input/src/os_sim/lld_core.h"
  67              		.file 5 "c:/users/president/desktop/sbx/input/src/os_base/os_task_common.h"
  68              		.file 6 "C:/Users/president/Desktop/sbx/input/src/os_base/os_main.h"
  69              		.file 7 "c:/users/president/desktop/sbx/input/src/os_base/os_ram.h"
  70              		.file 8 "c:/users/president/desktop/sbx/input/src/os_base/os_ram_stack.h"
  71              		.section	.debug_info,"dr"
  72              	Ldebug_info0:
  73 0000 22110000 		.long	0x1122
  74 0004 0400     		.word	0x4
  75 0006 00000000 		.secrel32	Ldebug_abbrev0
  76 000a 04       		.byte	0x4
  77 000b 01       		.uleb128 0x1
GAS LISTING C:\Users\PRESID~1\AppData\Local\Temp\ccD5yOAh.s 			page 3


  78 000c 474E5520 		.ascii "GNU C89 8.2.0 -march=i386 -g3 -O0 -std=c90\0"
  78      43383920 
  78      382E322E 
  78      30202D6D 
  78      61726368 
  79 0037 01       		.byte	0x1
  80 0038 433A5C55 		.ascii "C:\\Users\\president\\Desktop\\sbx\\input\\src\\os_base\\os_start_ext_prg.c\0"
  80      73657273 
  80      5C707265 
  80      73696465 
  80      6E745C44 
  81 007c 433A5C50 		.ascii "C:\\Program\\MinGW\\bin\0"
  81      726F6772 
  81      616D5C4D 
  81      696E4757 
  81      5C62696E 
  82 0091 00000000 		.long	Ltext0
  83 0095 34000000 		.long	Letext0-Ltext0
  84 0099 00000000 		.secrel32	Ldebug_line0
  85 009d 00000000 		.secrel32	Ldebug_macro0
  86 00a1 02       		.uleb128 0x2
  87 00a2 756E7369 		.ascii "unsigned_char_t\0"
  87      676E6564 
  87      5F636861 
  87      725F7400 
  88 00b2 02       		.byte	0x2
  89 00b3 11       		.byte	0x11
  90 00b4 18       		.byte	0x18
  91 00b5 B9000000 		.long	0xb9
  92 00b9 03       		.uleb128 0x3
  93 00ba 01       		.byte	0x1
  94 00bb 08       		.byte	0x8
  95 00bc 756E7369 		.ascii "unsigned char\0"
  95      676E6564 
  95      20636861 
  95      7200
  96 00ca 03       		.uleb128 0x3
  97 00cb 01       		.byte	0x1
  98 00cc 06       		.byte	0x6
  99 00cd 7369676E 		.ascii "signed char\0"
  99      65642063 
  99      68617200 
 100 00d9 02       		.uleb128 0x2
 101 00da 75696E74 		.ascii "uint8\0"
 101      3800
 102 00e0 02       		.byte	0x2
 103 00e1 15       		.byte	0x15
 104 00e2 18       		.byte	0x18
 105 00e3 B9000000 		.long	0xb9
 106 00e7 03       		.uleb128 0x3
 107 00e8 02       		.byte	0x2
 108 00e9 07       		.byte	0x7
 109 00ea 73686F72 		.ascii "short unsigned int\0"
 109      7420756E 
 109      7369676E 
 109      65642069 
 109      6E7400
GAS LISTING C:\Users\PRESID~1\AppData\Local\Temp\ccD5yOAh.s 			page 4


 110 00fd 03       		.uleb128 0x3
 111 00fe 02       		.byte	0x2
 112 00ff 05       		.byte	0x5
 113 0100 73686F72 		.ascii "short int\0"
 113      7420696E 
 113      7400
 114 010a 02       		.uleb128 0x2
 115 010b 756E7369 		.ascii "unsigned_int32_t\0"
 115      676E6564 
 115      5F696E74 
 115      33325F74 
 115      00
 116 011c 02       		.byte	0x2
 117 011d 1B       		.byte	0x1b
 118 011e 18       		.byte	0x18
 119 011f 23010000 		.long	0x123
 120 0123 03       		.uleb128 0x3
 121 0124 04       		.byte	0x4
 122 0125 07       		.byte	0x7
 123 0126 6C6F6E67 		.ascii "long unsigned int\0"
 123      20756E73 
 123      69676E65 
 123      6420696E 
 123      7400
 124 0138 03       		.uleb128 0x3
 125 0139 04       		.byte	0x4
 126 013a 05       		.byte	0x5
 127 013b 6C6F6E67 		.ascii "long int\0"
 127      20696E74 
 127      00
 128 0144 02       		.uleb128 0x2
 129 0145 75696E74 		.ascii "uint32\0"
 129      333200
 130 014c 02       		.byte	0x2
 131 014d 1D       		.byte	0x1d
 132 014e 18       		.byte	0x18
 133 014f 23010000 		.long	0x123
 134 0153 04       		.uleb128 0x4
 135 0154 44010000 		.long	0x144
 136 0158 05       		.uleb128 0x5
 137 0159 6F735F73 		.ascii "os_sw_bugs_e\0"
 137      775F6275 
 137      67735F65 
 137      00
 138 0166 07       		.byte	0x7
 139 0167 04       		.byte	0x4
 140 0168 32030000 		.long	0x332
 141 016c 03       		.byte	0x3
 142 016d 2E       		.byte	0x2e
 143 016e 06       		.byte	0x6
 144 016f 32030000 		.long	0x332
 145 0173 06       		.uleb128 0x6
 146 0174 455F4F53 		.ascii "E_OS_BUG_NO_BUG\0"
 146      5F425547 
 146      5F4E4F5F 
 146      42554700 
 147 0184 00       		.byte	0
GAS LISTING C:\Users\PRESID~1\AppData\Local\Temp\ccD5yOAh.s 			page 5


 148 0185 06       		.uleb128 0x6
 149 0186 455F4F53 		.ascii "E_OS_BUG_TASKSTATE_REQUEST_DENIED\0"
 149      5F425547 
 149      5F544153 
 149      4B535441 
 149      54455F52 
 150 01a8 01       		.byte	0x1
 151 01a9 06       		.uleb128 0x6
 152 01aa 455F4F53 		.ascii "E_OS_BUG_NULL_POINTER\0"
 152      5F425547 
 152      5F4E554C 
 152      4C5F504F 
 152      494E5445 
 153 01c0 02       		.byte	0x2
 154 01c1 06       		.uleb128 0x6
 155 01c2 455F4F53 		.ascii "E_OS_BUG_TASK_MAX_WAIT_TIME_REACHED\0"
 155      5F425547 
 155      5F544153 
 155      4B5F4D41 
 155      585F5741 
 156 01e6 03       		.byte	0x3
 157 01e7 06       		.uleb128 0x6
 158 01e8 455F4F53 		.ascii "E_OS_BUG_TASK_UNSPECIFIED\0"
 158      5F425547 
 158      5F544153 
 158      4B5F554E 
 158      53504543 
 159 0202 04       		.byte	0x4
 160 0203 06       		.uleb128 0x6
 161 0204 455F4F53 		.ascii "E_OS_BUG_EXCEPTION_UNDEFINSTRUCTION\0"
 161      5F425547 
 161      5F455843 
 161      45505449 
 161      4F4E5F55 
 162 0228 05       		.byte	0x5
 163 0229 06       		.uleb128 0x6
 164 022a 455F4F53 		.ascii "E_OS_BUG_EXCEPTION_ABORTPREFETCH\0"
 164      5F425547 
 164      5F455843 
 164      45505449 
 164      4F4E5F41 
 165 024b 06       		.byte	0x6
 166 024c 06       		.uleb128 0x6
 167 024d 455F4F53 		.ascii "E_OS_BUG_EXCEPTION_ABORTDATA\0"
 167      5F425547 
 167      5F455843 
 167      45505449 
 167      4F4E5F41 
 168 026a 07       		.byte	0x7
 169 026b 06       		.uleb128 0x6
 170 026c 455F4F53 		.ascii "E_OS_BUG_RESET_EXIT_OR_SHUTDOWN_FAILED\0"
 170      5F425547 
 170      5F524553 
 170      45545F45 
 170      5849545F 
 171 0293 08       		.byte	0x8
 172 0294 06       		.uleb128 0x6
GAS LISTING C:\Users\PRESID~1\AppData\Local\Temp\ccD5yOAh.s 			page 6


 173 0295 455F4F53 		.ascii "E_OS_BUG_CRITICAL_STACK_USAGE\0"
 173      5F425547 
 173      5F435249 
 173      54494341 
 173      4C5F5354 
 174 02b3 09       		.byte	0x9
 175 02b4 06       		.uleb128 0x6
 176 02b5 455F4F53 		.ascii "E_OS_BUG_SVC_NUMBER_MISSING\0"
 176      5F425547 
 176      5F535643 
 176      5F4E554D 
 176      4245525F 
 177 02d1 0A       		.byte	0xa
 178 02d2 06       		.uleb128 0x6
 179 02d3 455F4F53 		.ascii "E_OS_BUG_MAX_WAIT_TIME_REACHED\0"
 179      5F425547 
 179      5F4D4158 
 179      5F574149 
 179      545F5449 
 180 02f2 0B       		.byte	0xb
 181 02f3 06       		.uleb128 0x6
 182 02f4 455F4F53 		.ascii "E_OS_BUG_DIVISION_BY_ZERO\0"
 182      5F425547 
 182      5F444956 
 182      4953494F 
 182      4E5F4259 
 183 030e 0C       		.byte	0xc
 184 030f 06       		.uleb128 0x6
 185 0310 455F4F53 		.ascii "E_OS_BUG_BIT_SHIFT_OUT_OF_RANGE\0"
 185      5F425547 
 185      5F424954 
 185      5F534849 
 185      46545F4F 
 186 0330 0D       		.byte	0xd
 187 0331 00       		.byte	0
 188 0332 03       		.uleb128 0x3
 189 0333 04       		.byte	0x4
 190 0334 07       		.byte	0x7
 191 0335 756E7369 		.ascii "unsigned int\0"
 191      676E6564 
 191      20696E74 
 191      00
 192 0342 02       		.uleb128 0x2
 193 0343 6F735F73 		.ascii "os_sw_bugs_t\0"
 193      775F6275 
 193      67735F74 
 193      00
 194 0350 03       		.byte	0x3
 195 0351 3F       		.byte	0x3f
 196 0352 1B       		.byte	0x1b
 197 0353 58010000 		.long	0x158
 198 0357 04       		.uleb128 0x4
 199 0358 42030000 		.long	0x342
 200 035c 02       		.uleb128 0x2
 201 035d 66756E63 		.ascii "func_ptr_t\0"
 201      5F707472 
 201      5F7400
GAS LISTING C:\Users\PRESID~1\AppData\Local\Temp\ccD5yOAh.s 			page 7


 202 0368 03       		.byte	0x3
 203 0369 61       		.byte	0x61
 204 036a 10       		.byte	0x10
 205 036b 6F030000 		.long	0x36f
 206 036f 07       		.uleb128 0x7
 207 0370 04       		.byte	0x4
 208 0371 75030000 		.long	0x375
 209 0375 08       		.uleb128 0x8
 210 0376 09       		.uleb128 0x9
 211 0377 6269675F 		.ascii "big_int_s\0"
 211      696E745F 
 211      7300
 212 0381 10       		.byte	0x10
 213 0382 03       		.byte	0x3
 214 0383 63       		.byte	0x63
 215 0384 10       		.byte	0x10
 216 0385 9A030000 		.long	0x39a
 217 0389 0A       		.uleb128 0xa
 218 038a 6E756D62 		.ascii "number\0"
 218      657200
 219 0391 03       		.byte	0x3
 220 0392 6C       		.byte	0x6c
 221 0393 0A       		.byte	0xa
 222 0394 9A030000 		.long	0x39a
 223 0398 00       		.byte	0
 224 0399 00       		.byte	0
 225 039a 0B       		.uleb128 0xb
 226 039b D9000000 		.long	0xd9
 227 039f AA030000 		.long	0x3aa
 228 03a3 0C       		.uleb128 0xc
 229 03a4 32030000 		.long	0x332
 230 03a8 0F       		.byte	0xf
 231 03a9 00       		.byte	0
 232 03aa 02       		.uleb128 0x2
 233 03ab 6269675F 		.ascii "big_int\0"
 233      696E7400 
 234 03b3 03       		.byte	0x3
 235 03b4 6D       		.byte	0x6d
 236 03b5 03       		.byte	0x3
 237 03b6 76030000 		.long	0x376
 238 03ba 02       		.uleb128 0x2
 239 03bb 74696D65 		.ascii "timebig_t\0"
 239      6269675F 
 239      7400
 240 03c5 03       		.byte	0x3
 241 03c6 6F       		.byte	0x6f
 242 03c7 11       		.byte	0x11
 243 03c8 AA030000 		.long	0x3aa
 244 03cc 05       		.uleb128 0x5
 245 03cd 70726976 		.ascii "privilige_mode_e\0"
 245      696C6967 
 245      655F6D6F 
 245      64655F65 
 245      00
 246 03de 07       		.byte	0x7
 247 03df 04       		.byte	0x4
 248 03e0 32030000 		.long	0x332
GAS LISTING C:\Users\PRESID~1\AppData\Local\Temp\ccD5yOAh.s 			page 8


 249 03e4 04       		.byte	0x4
 250 03e5 10       		.byte	0x10
 251 03e6 06       		.byte	0x6
 252 03e7 6A040000 		.long	0x46a
 253 03eb 06       		.uleb128 0x6
 254 03ec 455F5052 		.ascii "E_PRIVILIGEMODE_UNPRIVILIGED_THREAD_MODE\0"
 254      4956494C 
 254      4947454D 
 254      4F44455F 
 254      554E5052 
 255 0415 00       		.byte	0
 256 0416 06       		.uleb128 0x6
 257 0417 455F5052 		.ascii "E_PRIVILIGEMODE_PRIVILIGED_THREAD_MODE\0"
 257      4956494C 
 257      4947454D 
 257      4F44455F 
 257      50524956 
 258 043e 01       		.byte	0x1
 259 043f 06       		.uleb128 0x6
 260 0440 455F5052 		.ascii "E_PRIVILIGEMODE_PRIVILIGED_HANDLER_MODE\0"
 260      4956494C 
 260      4947454D 
 260      4F44455F 
 260      50524956 
 261 0468 02       		.byte	0x2
 262 0469 00       		.byte	0
 263 046a 02       		.uleb128 0x2
 264 046b 70726976 		.ascii "privilige_mode_t\0"
 264      696C6967 
 264      655F6D6F 
 264      64655F74 
 264      00
 265 047c 04       		.byte	0x4
 266 047d 16       		.byte	0x16
 267 047e 20       		.byte	0x20
 268 047f CC030000 		.long	0x3cc
 269 0483 05       		.uleb128 0x5
 270 0484 7461736B 		.ascii "task_state_e\0"
 270      5F737461 
 270      74655F65 
 270      00
 271 0491 07       		.byte	0x7
 272 0492 04       		.byte	0x4
 273 0493 32030000 		.long	0x332
 274 0497 05       		.byte	0x5
 275 0498 07       		.byte	0x7
 276 0499 06       		.byte	0x6
 277 049a E7040000 		.long	0x4e7
 278 049e 06       		.uleb128 0x6
 279 049f 455F5441 		.ascii "E_TASK_UNSPECIFIED\0"
 279      534B5F55 
 279      4E535045 
 279      43494649 
 279      454400
 280 04b2 00       		.byte	0
 281 04b3 06       		.uleb128 0x6
 282 04b4 455F5441 		.ascii "E_TASK_SUSPENDED\0"
GAS LISTING C:\Users\PRESID~1\AppData\Local\Temp\ccD5yOAh.s 			page 9


 282      534B5F53 
 282      55535045 
 282      4E444544 
 282      00
 283 04c5 01       		.byte	0x1
 284 04c6 06       		.uleb128 0x6
 285 04c7 455F5441 		.ascii "E_TASK_READY\0"
 285      534B5F52 
 285      45414459 
 285      00
 286 04d4 02       		.byte	0x2
 287 04d5 06       		.uleb128 0x6
 288 04d6 455F5441 		.ascii "E_TASK_RUNNING\0"
 288      534B5F52 
 288      554E4E49 
 288      4E4700
 289 04e5 03       		.byte	0x3
 290 04e6 00       		.byte	0
 291 04e7 02       		.uleb128 0x2
 292 04e8 7461736B 		.ascii "task_state_t\0"
 292      5F737461 
 292      74655F74 
 292      00
 293 04f5 05       		.byte	0x5
 294 04f6 0E       		.byte	0xe
 295 04f7 1B       		.byte	0x1b
 296 04f8 83040000 		.long	0x483
 297 04fc 02       		.uleb128 0x2
 298 04fd 66756E63 		.ascii "func_p_t\0"
 298      5F705F74 
 298      00
 299 0506 05       		.byte	0x5
 300 0507 13       		.byte	0x13
 301 0508 1B       		.byte	0x1b
 302 0509 0D050000 		.long	0x50d
 303 050d 07       		.uleb128 0x7
 304 050e 04       		.byte	0x4
 305 050f 13050000 		.long	0x513
 306 0513 0D       		.uleb128 0xd
 307 0514 1E050000 		.long	0x51e
 308 0518 0E       		.uleb128 0xe
 309 0519 1E050000 		.long	0x51e
 310 051d 00       		.byte	0
 311 051e 0F       		.uleb128 0xf
 312 051f 04       		.byte	0x4
 313 0520 02       		.uleb128 0x2
 314 0521 66756E63 		.ascii "func_p_state_change_t\0"
 314      5F705F73 
 314      74617465 
 314      5F636861 
 314      6E67655F 
 315 0537 05       		.byte	0x5
 316 0538 15       		.byte	0x15
 317 0539 1B       		.byte	0x1b
 318 053a 3E050000 		.long	0x53e
 319 053e 07       		.uleb128 0x7
 320 053f 04       		.byte	0x4
GAS LISTING C:\Users\PRESID~1\AppData\Local\Temp\ccD5yOAh.s 			page 10


 321 0540 44050000 		.long	0x544
 322 0544 10       		.uleb128 0x10
 323 0545 A1000000 		.long	0xa1
 324 0549 58050000 		.long	0x558
 325 054d 0E       		.uleb128 0xe
 326 054e 1E050000 		.long	0x51e
 327 0552 0E       		.uleb128 0xe
 328 0553 E7040000 		.long	0x4e7
 329 0557 00       		.byte	0
 330 0558 09       		.uleb128 0x9
 331 0559 7461736B 		.ascii "task_group_s\0"
 331      5F67726F 
 331      75705F73 
 331      00
 332 0566 20       		.byte	0x20
 333 0567 05       		.byte	0x5
 334 0568 18       		.byte	0x18
 335 0569 08       		.byte	0x8
 336 056a 93050000 		.long	0x593
 337 056e 11       		.uleb128 0x11
 338 056f 0C000000 		.secrel32	LASF0
 339 0573 05       		.byte	0x5
 340 0574 1A       		.byte	0x1a
 341 0575 0E       		.byte	0xe
 342 0576 BA030000 		.long	0x3ba
 343 057a 00       		.byte	0
 344 057b 0A       		.uleb128 0xa
 345 057c 66616972 		.ascii "fair_exe_time\0"
 345      5F657865 
 345      5F74696D 
 345      6500
 346 058a 05       		.byte	0x5
 347 058b 1B       		.byte	0x1b
 348 058c 0E       		.byte	0xe
 349 058d BA030000 		.long	0x3ba
 350 0591 10       		.byte	0x10
 351 0592 00       		.byte	0
 352 0593 02       		.uleb128 0x2
 353 0594 7461736B 		.ascii "task_group_t\0"
 353      5F67726F 
 353      75705F74 
 353      00
 354 05a1 05       		.byte	0x5
 355 05a2 1D       		.byte	0x1d
 356 05a3 1D       		.byte	0x1d
 357 05a4 58050000 		.long	0x558
 358 05a8 09       		.uleb128 0x9
 359 05a9 7461736B 		.ascii "task_s\0"
 359      5F7300
 360 05b0 AC       		.byte	0xac
 361 05b1 05       		.byte	0x5
 362 05b2 1F       		.byte	0x1f
 363 05b3 08       		.byte	0x8
 364 05b4 54080000 		.long	0x854
 365 05b8 12       		.uleb128 0x12
 366 05b9 61637469 		.ascii "active\0"
 366      766500
GAS LISTING C:\Users\PRESID~1\AppData\Local\Temp\ccD5yOAh.s 			page 11


 367 05c0 05       		.byte	0x5
 368 05c1 21       		.byte	0x21
 369 05c2 0D       		.byte	0xd
 370 05c3 32030000 		.long	0x332
 371 05c7 04       		.byte	0x4
 372 05c8 01       		.byte	0x1
 373 05c9 1F       		.byte	0x1f
 374 05ca 00       		.byte	0
 375 05cb 12       		.uleb128 0x12
 376 05cc 7461736B 		.ascii "task_queued\0"
 376      5F717565 
 376      75656400 
 377 05d8 05       		.byte	0x5
 378 05d9 22       		.byte	0x22
 379 05da 0D       		.byte	0xd
 380 05db 32030000 		.long	0x332
 381 05df 04       		.byte	0x4
 382 05e0 01       		.byte	0x1
 383 05e1 1E       		.byte	0x1e
 384 05e2 00       		.byte	0
 385 05e3 12       		.uleb128 0x12
 386 05e4 69646C65 		.ascii "idle_task\0"
 386      5F746173 
 386      6B00
 387 05ee 05       		.byte	0x5
 388 05ef 23       		.byte	0x23
 389 05f0 0D       		.byte	0xd
 390 05f1 32030000 		.long	0x332
 391 05f5 04       		.byte	0x4
 392 05f6 01       		.byte	0x1
 393 05f7 1D       		.byte	0x1d
 394 05f8 00       		.byte	0
 395 05f9 12       		.uleb128 0x12
 396 05fa 66726565 		.ascii "free\0"
 396      00
 397 05ff 05       		.byte	0x5
 398 0600 24       		.byte	0x24
 399 0601 0D       		.byte	0xd
 400 0602 32030000 		.long	0x332
 401 0606 04       		.byte	0x4
 402 0607 1D       		.byte	0x1d
 403 0608 00       		.byte	0
 404 0609 00       		.byte	0
 405 060a 0A       		.uleb128 0xa
 406 060b 6E725F6F 		.ascii "nr_of_ins_allowed\0"
 406      665F696E 
 406      735F616C 
 406      6C6F7765 
 406      6400
 407 061d 05       		.byte	0x5
 408 061e 25       		.byte	0x25
 409 061f 14       		.byte	0x14
 410 0620 A1000000 		.long	0xa1
 411 0624 04       		.byte	0x4
 412 0625 0A       		.uleb128 0xa
 413 0626 6E725F6F 		.ascii "nr_of_ins_activated\0"
 413      665F696E 
GAS LISTING C:\Users\PRESID~1\AppData\Local\Temp\ccD5yOAh.s 			page 12


 413      735F6163 
 413      74697661 
 413      74656400 
 414 063a 05       		.byte	0x5
 415 063b 26       		.byte	0x26
 416 063c 14       		.byte	0x14
 417 063d A1000000 		.long	0xa1
 418 0641 05       		.byte	0x5
 419 0642 0A       		.uleb128 0xa
 420 0643 77616974 		.ascii "wait_act_until\0"
 420      5F616374 
 420      5F756E74 
 420      696C00
 421 0652 05       		.byte	0x5
 422 0653 27       		.byte	0x27
 423 0654 0E       		.byte	0xe
 424 0655 BA030000 		.long	0x3ba
 425 0659 06       		.byte	0x6
 426 065a 0A       		.uleb128 0xa
 427 065b 77616974 		.ascii "wait_time\0"
 427      5F74696D 
 427      6500
 428 0665 05       		.byte	0x5
 429 0666 28       		.byte	0x28
 430 0667 0E       		.byte	0xe
 431 0668 BA030000 		.long	0x3ba
 432 066c 16       		.byte	0x16
 433 066d 0A       		.uleb128 0xa
 434 066e 74696D65 		.ascii "time_to_prio_inc\0"
 434      5F746F5F 
 434      7072696F 
 434      5F696E63 
 434      00
 435 067f 05       		.byte	0x5
 436 0680 29       		.byte	0x29
 437 0681 0E       		.byte	0xe
 438 0682 BA030000 		.long	0x3ba
 439 0686 26       		.byte	0x26
 440 0687 0A       		.uleb128 0xa
 441 0688 6F766572 		.ascii "overwaittime_per_prio_inc_step\0"
 441      77616974 
 441      74696D65 
 441      5F706572 
 441      5F707269 
 442 06a7 05       		.byte	0x5
 443 06a8 2A       		.byte	0x2a
 444 06a9 0B       		.byte	0xb
 445 06aa 44010000 		.long	0x144
 446 06ae 38       		.byte	0x38
 447 06af 0A       		.uleb128 0xa
 448 06b0 6D61785F 		.ascii "max_allowed_wait_time\0"
 448      616C6C6F 
 448      7765645F 
 448      77616974 
 448      5F74696D 
 449 06c6 05       		.byte	0x5
 450 06c7 2B       		.byte	0x2b
GAS LISTING C:\Users\PRESID~1\AppData\Local\Temp\ccD5yOAh.s 			page 13


 451 06c8 0E       		.byte	0xe
 452 06c9 BA030000 		.long	0x3ba
 453 06cd 3C       		.byte	0x3c
 454 06ce 11       		.uleb128 0x11
 455 06cf 0C000000 		.secrel32	LASF0
 456 06d3 05       		.byte	0x5
 457 06d4 2C       		.byte	0x2c
 458 06d5 0E       		.byte	0xe
 459 06d6 BA030000 		.long	0x3ba
 460 06da 4C       		.byte	0x4c
 461 06db 0A       		.uleb128 0xa
 462 06dc 73746172 		.ascii "start_time\0"
 462      745F7469 
 462      6D6500
 463 06e7 05       		.byte	0x5
 464 06e8 2D       		.byte	0x2d
 465 06e9 0E       		.byte	0xe
 466 06ea BA030000 		.long	0x3ba
 467 06ee 5C       		.byte	0x5c
 468 06ef 0A       		.uleb128 0xa
 469 06f0 63757272 		.ascii "current_prio\0"
 469      656E745F 
 469      7072696F 
 469      00
 470 06fd 05       		.byte	0x5
 471 06fe 2E       		.byte	0x2e
 472 06ff 14       		.byte	0x14
 473 0700 A1000000 		.long	0xa1
 474 0704 6C       		.byte	0x6c
 475 0705 0A       		.uleb128 0xa
 476 0706 64656661 		.ascii "default_prio\0"
 476      756C745F 
 476      7072696F 
 476      00
 477 0713 05       		.byte	0x5
 478 0714 2F       		.byte	0x2f
 479 0715 14       		.byte	0x14
 480 0716 A1000000 		.long	0xa1
 481 071a 6D       		.byte	0x6d
 482 071b 0A       		.uleb128 0xa
 483 071c 7461736B 		.ascii "task_number\0"
 483      5F6E756D 
 483      62657200 
 484 0728 05       		.byte	0x5
 485 0729 30       		.byte	0x30
 486 072a 15       		.byte	0x15
 487 072b 0A010000 		.long	0x10a
 488 072f 70       		.byte	0x70
 489 0730 0A       		.uleb128 0xa
 490 0731 667000   		.ascii "fp\0"
 491 0734 05       		.byte	0x5
 492 0735 31       		.byte	0x31
 493 0736 0D       		.byte	0xd
 494 0737 FC040000 		.long	0x4fc
 495 073b 74       		.byte	0x74
 496 073c 0A       		.uleb128 0xa
 497 073d 73746174 		.ascii "state_request\0"
GAS LISTING C:\Users\PRESID~1\AppData\Local\Temp\ccD5yOAh.s 			page 14


 497      655F7265 
 497      71756573 
 497      7400
 498 074b 05       		.byte	0x5
 499 074c 32       		.byte	0x32
 500 074d 1A       		.byte	0x1a
 501 074e 20050000 		.long	0x520
 502 0752 78       		.byte	0x78
 503 0753 0A       		.uleb128 0xa
 504 0754 7461736B 		.ascii "task_state\0"
 504      5F737461 
 504      746500
 505 075f 05       		.byte	0x5
 506 0760 33       		.byte	0x33
 507 0761 11       		.byte	0x11
 508 0762 E7040000 		.long	0x4e7
 509 0766 7C       		.byte	0x7c
 510 0767 0A       		.uleb128 0xa
 511 0768 7461736B 		.ascii "task_group\0"
 511      5F67726F 
 511      757000
 512 0773 05       		.byte	0x5
 513 0774 34       		.byte	0x34
 514 0775 12       		.byte	0x12
 515 0776 54080000 		.long	0x854
 516 077a 80       		.byte	0x80
 517 077b 0A       		.uleb128 0xa
 518 077c 65617800 		.ascii "eax\0"
 519 0780 05       		.byte	0x5
 520 0781 36       		.byte	0x36
 521 0782 15       		.byte	0x15
 522 0783 0A010000 		.long	0x10a
 523 0787 84       		.byte	0x84
 524 0788 0A       		.uleb128 0xa
 525 0789 65627800 		.ascii "ebx\0"
 526 078d 05       		.byte	0x5
 527 078e 37       		.byte	0x37
 528 078f 15       		.byte	0x15
 529 0790 0A010000 		.long	0x10a
 530 0794 88       		.byte	0x88
 531 0795 0A       		.uleb128 0xa
 532 0796 65637800 		.ascii "ecx\0"
 533 079a 05       		.byte	0x5
 534 079b 38       		.byte	0x38
 535 079c 15       		.byte	0x15
 536 079d 0A010000 		.long	0x10a
 537 07a1 8C       		.byte	0x8c
 538 07a2 0A       		.uleb128 0xa
 539 07a3 65647800 		.ascii "edx\0"
 540 07a7 05       		.byte	0x5
 541 07a8 39       		.byte	0x39
 542 07a9 15       		.byte	0x15
 543 07aa 0A010000 		.long	0x10a
 544 07ae 90       		.byte	0x90
 545 07af 0A       		.uleb128 0xa
 546 07b0 705F7374 		.ascii "p_stack_pointer\0"
 546      61636B5F 
GAS LISTING C:\Users\PRESID~1\AppData\Local\Temp\ccD5yOAh.s 			page 15


 546      706F696E 
 546      74657200 
 547 07c0 05       		.byte	0x5
 548 07c1 49       		.byte	0x49
 549 07c2 15       		.byte	0x15
 550 07c3 5A080000 		.long	0x85a
 551 07c7 94       		.byte	0x94
 552 07c8 0A       		.uleb128 0xa
 553 07c9 705F7374 		.ascii "p_stack_pointer_by_malloc\0"
 553      61636B5F 
 553      706F696E 
 553      7465725F 
 553      62795F6D 
 554 07e3 05       		.byte	0x5
 555 07e4 4A       		.byte	0x4a
 556 07e5 15       		.byte	0x15
 557 07e6 5A080000 		.long	0x85a
 558 07ea 98       		.byte	0x98
 559 07eb 0A       		.uleb128 0xa
 560 07ec 705F7374 		.ascii "p_stack_pointer_start\0"
 560      61636B5F 
 560      706F696E 
 560      7465725F 
 560      73746172 
 561 0802 05       		.byte	0x5
 562 0803 4B       		.byte	0x4b
 563 0804 15       		.byte	0x15
 564 0805 5A080000 		.long	0x85a
 565 0809 9C       		.byte	0x9c
 566 080a 0A       		.uleb128 0xa
 567 080b 73746163 		.ascii "stack_size\0"
 567      6B5F7369 
 567      7A6500
 568 0816 05       		.byte	0x5
 569 0817 4C       		.byte	0x4c
 570 0818 16       		.byte	0x16
 571 0819 0A010000 		.long	0x10a
 572 081d A0       		.byte	0xa0
 573 081e 0A       		.uleb128 0xa
 574 081f 705F7374 		.ascii "p_stack_pointer_end\0"
 574      61636B5F 
 574      706F696E 
 574      7465725F 
 574      656E6400 
 575 0833 05       		.byte	0x5
 576 0834 4D       		.byte	0x4d
 577 0835 15       		.byte	0x15
 578 0836 5A080000 		.long	0x85a
 579 083a A4       		.byte	0xa4
 580 083b 0A       		.uleb128 0xa
 581 083c 70726976 		.ascii "privilige_mode\0"
 581      696C6967 
 581      655F6D6F 
 581      646500
 582 084b 05       		.byte	0x5
 583 084c 4E       		.byte	0x4e
 584 084d 15       		.byte	0x15
GAS LISTING C:\Users\PRESID~1\AppData\Local\Temp\ccD5yOAh.s 			page 16


 585 084e 6A040000 		.long	0x46a
 586 0852 A8       		.byte	0xa8
 587 0853 00       		.byte	0
 588 0854 07       		.uleb128 0x7
 589 0855 04       		.byte	0x4
 590 0856 93050000 		.long	0x593
 591 085a 07       		.uleb128 0x7
 592 085b 04       		.byte	0x4
 593 085c A1000000 		.long	0xa1
 594 0860 02       		.uleb128 0x2
 595 0861 7461736B 		.ascii "task_t\0"
 595      5F7400
 596 0868 05       		.byte	0x5
 597 0869 50       		.byte	0x50
 598 086a 17       		.byte	0x17
 599 086b A8050000 		.long	0x5a8
 600 086f 02       		.uleb128 0x2
 601 0870 73636865 		.ascii "scheduling_t\0"
 601      64756C69 
 601      6E675F74 
 601      00
 602 087d 05       		.byte	0x5
 603 087e 51       		.byte	0x51
 604 087f 11       		.byte	0x11
 605 0880 84080000 		.long	0x884
 606 0884 07       		.uleb128 0x7
 607 0885 04       		.byte	0x4
 608 0886 60080000 		.long	0x860
 609 088a 0B       		.uleb128 0xb
 610 088b 84080000 		.long	0x884
 611 088f 9A080000 		.long	0x89a
 612 0893 0C       		.uleb128 0xc
 613 0894 32030000 		.long	0x332
 614 0898 09       		.byte	0x9
 615 0899 00       		.byte	0
 616 089a 13       		.uleb128 0x13
 617 089b 5441534B 		.ascii "TASK_PTR\0"
 617      5F505452 
 617      00
 618 08a4 05       		.byte	0x5
 619 08a5 5B       		.byte	0x5b
 620 08a6 10       		.byte	0x10
 621 08a7 8A080000 		.long	0x88a
 622 08ab 02       		.uleb128 0x2
 623 08ac 73636865 		.ascii "scheduler_time_t\0"
 623      64756C65 
 623      725F7469 
 623      6D655F74 
 623      00
 624 08bd 05       		.byte	0x5
 625 08be 5D       		.byte	0x5d
 626 08bf 13       		.byte	0x13
 627 08c0 BA030000 		.long	0x3ba
 628 08c4 05       		.uleb128 0x5
 629 08c5 6F735F73 		.ascii "os_state_e\0"
 629      74617465 
 629      5F6500
GAS LISTING C:\Users\PRESID~1\AppData\Local\Temp\ccD5yOAh.s 			page 17


 630 08d0 07       		.byte	0x7
 631 08d1 04       		.byte	0x4
 632 08d2 32030000 		.long	0x332
 633 08d6 06       		.byte	0x6
 634 08d7 04       		.byte	0x4
 635 08d8 06       		.byte	0x6
 636 08d9 15090000 		.long	0x915
 637 08dd 06       		.uleb128 0x6
 638 08de 4F535F53 		.ascii "OS_STATE_INIT\0"
 638      54415445 
 638      5F494E49 
 638      5400
 639 08ec 00       		.byte	0
 640 08ed 06       		.uleb128 0x6
 641 08ee 4F535F53 		.ascii "OS_STATE_RUNNING\0"
 641      54415445 
 641      5F52554E 
 641      4E494E47 
 641      00
 642 08ff 01       		.byte	0x1
 643 0900 06       		.uleb128 0x6
 644 0901 4F535F53 		.ascii "OS_STATE_SHUTDOWN\0"
 644      54415445 
 644      5F534855 
 644      54444F57 
 644      4E00
 645 0913 02       		.byte	0x2
 646 0914 00       		.byte	0
 647 0915 02       		.uleb128 0x2
 648 0916 6F735F73 		.ascii "os_state_t\0"
 648      74617465 
 648      5F7400
 649 0921 06       		.byte	0x6
 650 0922 0A       		.byte	0xa
 651 0923 19       		.byte	0x19
 652 0924 C4080000 		.long	0x8c4
 653 0928 04       		.uleb128 0x4
 654 0929 15090000 		.long	0x915
 655 092d 0B       		.uleb128 0xb
 656 092e A1000000 		.long	0xa1
 657 0932 3E090000 		.long	0x93e
 658 0936 14       		.uleb128 0x14
 659 0937 32030000 		.long	0x332
 660 093b 0F27     		.word	0x270f
 661 093d 00       		.byte	0
 662 093e 13       		.uleb128 0x13
 663 093f 48454150 		.ascii "HEAP\0"
 663      00
 664 0944 07       		.byte	0x7
 665 0945 0B       		.byte	0xb
 666 0946 18       		.byte	0x18
 667 0947 2D090000 		.long	0x92d
 668 094b 0B       		.uleb128 0xb
 669 094c 57030000 		.long	0x357
 670 0950 5B090000 		.long	0x95b
 671 0954 0C       		.uleb128 0xc
 672 0955 32030000 		.long	0x332
GAS LISTING C:\Users\PRESID~1\AppData\Local\Temp\ccD5yOAh.s 			page 18


 673 0959 15       		.byte	0x15
 674 095a 00       		.byte	0
 675 095b 04       		.uleb128 0x4
 676 095c 4B090000 		.long	0x94b
 677 0960 13       		.uleb128 0x13
 678 0961 4F535F53 		.ascii "OS_SW_BUG\0"
 678      575F4255 
 678      4700
 679 096b 07       		.byte	0x7
 680 096c 0E       		.byte	0xe
 681 096d 1E       		.byte	0x1e
 682 096e 5B090000 		.long	0x95b
 683 0972 13       		.uleb128 0x13
 684 0973 4F535F53 		.ascii "OS_STATE\0"
 684      54415445 
 684      00
 685 097c 07       		.byte	0x7
 686 097d 0F       		.byte	0xf
 687 097e 1C       		.byte	0x1c
 688 097f 28090000 		.long	0x928
 689 0983 13       		.uleb128 0x13
 690 0984 5641525F 		.ascii "VAR_HARDFAULT_STATUS_REG\0"
 690      48415244 
 690      4641554C 
 690      545F5354 
 690      41545553 
 691 099d 07       		.byte	0x7
 692 099e 10       		.byte	0x10
 693 099f 18       		.byte	0x18
 694 09a0 53010000 		.long	0x153
 695 09a4 13       		.uleb128 0x13
 696 09a5 5641525F 		.ascii "VAR_MEM_MANAG_FAULT_STATUS_REG\0"
 696      4D454D5F 
 696      4D414E41 
 696      475F4641 
 696      554C545F 
 697 09c4 07       		.byte	0x7
 698 09c5 11       		.byte	0x11
 699 09c6 18       		.byte	0x18
 700 09c7 53010000 		.long	0x153
 701 09cb 13       		.uleb128 0x13
 702 09cc 5641525F 		.ascii "VAR_USAGE_FAULT_STATUS_REG\0"
 702      55534147 
 702      455F4641 
 702      554C545F 
 702      53544154 
 703 09e7 07       		.byte	0x7
 704 09e8 12       		.byte	0x12
 705 09e9 18       		.byte	0x18
 706 09ea 53010000 		.long	0x153
 707 09ee 13       		.uleb128 0x13
 708 09ef 5641525F 		.ascii "VAR_FAULT_STATUS_REG\0"
 708      4641554C 
 708      545F5354 
 708      41545553 
 708      5F524547 
 709 0a04 07       		.byte	0x7
GAS LISTING C:\Users\PRESID~1\AppData\Local\Temp\ccD5yOAh.s 			page 19


 710 0a05 13       		.byte	0x13
 711 0a06 18       		.byte	0x18
 712 0a07 53010000 		.long	0x153
 713 0a0b 13       		.uleb128 0x13
 714 0a0c 5641525F 		.ascii "VAR_MEM_FAULT_ADDR_REG\0"
 714      4D454D5F 
 714      4641554C 
 714      545F4144 
 714      44525F52 
 715 0a23 07       		.byte	0x7
 716 0a24 14       		.byte	0x14
 717 0a25 18       		.byte	0x18
 718 0a26 53010000 		.long	0x153
 719 0a2a 13       		.uleb128 0x13
 720 0a2b 5641525F 		.ascii "VAR_BUS_FAULT_ADDR_REG\0"
 720      4255535F 
 720      4641554C 
 720      545F4144 
 720      44525F52 
 721 0a42 07       		.byte	0x7
 722 0a43 15       		.byte	0x15
 723 0a44 18       		.byte	0x18
 724 0a45 53010000 		.long	0x153
 725 0a49 13       		.uleb128 0x13
 726 0a4a 5641525F 		.ascii "VAR_AUX_FAULT_STATUS_REG\0"
 726      4155585F 
 726      4641554C 
 726      545F5354 
 726      41545553 
 727 0a63 07       		.byte	0x7
 728 0a64 16       		.byte	0x16
 729 0a65 18       		.byte	0x18
 730 0a66 53010000 		.long	0x153
 731 0a6a 13       		.uleb128 0x13
 732 0a6b 5641525F 		.ascii "VAR_BUS_FAULT_STATUS_REG\0"
 732      4255535F 
 732      4641554C 
 732      545F5354 
 732      41545553 
 733 0a84 07       		.byte	0x7
 734 0a85 17       		.byte	0x17
 735 0a86 18       		.byte	0x18
 736 0a87 53010000 		.long	0x153
 737 0a8b 13       		.uleb128 0x13
 738 0a8c 4C494E4B 		.ascii "LINK_REGISTER_HANDLER\0"
 738      5F524547 
 738      49535445 
 738      525F4841 
 738      4E444C45 
 739 0aa2 07       		.byte	0x7
 740 0aa3 18       		.byte	0x18
 741 0aa4 18       		.byte	0x18
 742 0aa5 53010000 		.long	0x153
 743 0aa9 13       		.uleb128 0x13
 744 0aaa 4241434B 		.ascii "BACKUP_SYSTICK_CURRENT_VAL_REG\0"
 744      55505F53 
 744      59535449 
GAS LISTING C:\Users\PRESID~1\AppData\Local\Temp\ccD5yOAh.s 			page 20


 744      434B5F43 
 744      55525245 
 745 0ac9 07       		.byte	0x7
 746 0aca 19       		.byte	0x19
 747 0acb 18       		.byte	0x18
 748 0acc 53010000 		.long	0x153
 749 0ad0 13       		.uleb128 0x13
 750 0ad1 4442475F 		.ascii "DBG_RLD_VALUE\0"
 750      524C445F 
 750      56414C55 
 750      4500
 751 0adf 07       		.byte	0x7
 752 0ae0 1A       		.byte	0x1a
 753 0ae1 18       		.byte	0x18
 754 0ae2 53010000 		.long	0x153
 755 0ae6 13       		.uleb128 0x13
 756 0ae7 4442475F 		.ascii "DBG_CURR_VAL\0"
 756      43555252 
 756      5F56414C 
 756      00
 757 0af4 07       		.byte	0x7
 758 0af5 1B       		.byte	0x1b
 759 0af6 18       		.byte	0x18
 760 0af7 53010000 		.long	0x153
 761 0afb 13       		.uleb128 0x13
 762 0afc 4442475F 		.ascii "DBG_CTRL_VALUE\0"
 762      4354524C 
 762      5F56414C 
 762      554500
 763 0b0b 07       		.byte	0x7
 764 0b0c 1C       		.byte	0x1c
 765 0b0d 18       		.byte	0x18
 766 0b0e 53010000 		.long	0x153
 767 0b12 13       		.uleb128 0x13
 768 0b13 4442475F 		.ascii "DBG_CALIB_VALUE\0"
 768      43414C49 
 768      425F5641 
 768      4C554500 
 769 0b23 07       		.byte	0x7
 770 0b24 1D       		.byte	0x1d
 771 0b25 18       		.byte	0x18
 772 0b26 53010000 		.long	0x153
 773 0b2a 13       		.uleb128 0x13
 774 0b2b 5441534B 		.ascii "TASK1_CALL_NR\0"
 774      315F4341 
 774      4C4C5F4E 
 774      5200
 775 0b39 07       		.byte	0x7
 776 0b3a 1E       		.byte	0x1e
 777 0b3b 18       		.byte	0x18
 778 0b3c 53010000 		.long	0x153
 779 0b40 13       		.uleb128 0x13
 780 0b41 5441534B 		.ascii "TASK2_CALL_NR\0"
 780      325F4341 
 780      4C4C5F4E 
 780      5200
 781 0b4f 07       		.byte	0x7
GAS LISTING C:\Users\PRESID~1\AppData\Local\Temp\ccD5yOAh.s 			page 21


 782 0b50 1F       		.byte	0x1f
 783 0b51 18       		.byte	0x18
 784 0b52 53010000 		.long	0x153
 785 0b56 13       		.uleb128 0x13
 786 0b57 5441534B 		.ascii "TASK3_CALL_NR\0"
 786      335F4341 
 786      4C4C5F4E 
 786      5200
 787 0b65 07       		.byte	0x7
 788 0b66 20       		.byte	0x20
 789 0b67 18       		.byte	0x18
 790 0b68 53010000 		.long	0x153
 791 0b6c 13       		.uleb128 0x13
 792 0b6d 5441534B 		.ascii "TASK4_CALL_NR\0"
 792      345F4341 
 792      4C4C5F4E 
 792      5200
 793 0b7b 07       		.byte	0x7
 794 0b7c 21       		.byte	0x21
 795 0b7d 18       		.byte	0x18
 796 0b7e 53010000 		.long	0x153
 797 0b82 13       		.uleb128 0x13
 798 0b83 4F535F4D 		.ascii "OS_MAIN_STACK_ADDR\0"
 798      41494E5F 
 798      53544143 
 798      4B5F4144 
 798      445200
 799 0b96 07       		.byte	0x7
 800 0b97 23       		.byte	0x23
 801 0b98 19       		.byte	0x19
 802 0b99 9D0B0000 		.long	0xb9d
 803 0b9d 07       		.uleb128 0x7
 804 0b9e 04       		.byte	0x4
 805 0b9f 53010000 		.long	0x153
 806 0ba3 13       		.uleb128 0x13
 807 0ba4 4F535F4D 		.ascii "OS_MAIN_STACK_POS\0"
 807      41494E5F 
 807      53544143 
 807      4B5F504F 
 807      5300
 808 0bb6 07       		.byte	0x7
 809 0bb7 24       		.byte	0x24
 810 0bb8 19       		.byte	0x19
 811 0bb9 53010000 		.long	0x153
 812 0bbd 13       		.uleb128 0x13
 813 0bbe 4F535F4D 		.ascii "OS_MAIN_STACK_USAGE_PERCENT\0"
 813      41494E5F 
 813      53544143 
 813      4B5F5553 
 813      4147455F 
 814 0bda 07       		.byte	0x7
 815 0bdb 25       		.byte	0x25
 816 0bdc 19       		.byte	0x19
 817 0bdd 53010000 		.long	0x153
 818 0be1 13       		.uleb128 0x13
 819 0be2 5441534B 		.ascii "TASK0_STACK_ADDR\0"
 819      305F5354 
GAS LISTING C:\Users\PRESID~1\AppData\Local\Temp\ccD5yOAh.s 			page 22


 819      41434B5F 
 819      41444452 
 819      00
 820 0bf3 07       		.byte	0x7
 821 0bf4 26       		.byte	0x26
 822 0bf5 19       		.byte	0x19
 823 0bf6 9D0B0000 		.long	0xb9d
 824 0bfa 13       		.uleb128 0x13
 825 0bfb 5441534B 		.ascii "TASK0_STACK_POS\0"
 825      305F5354 
 825      41434B5F 
 825      504F5300 
 826 0c0b 07       		.byte	0x7
 827 0c0c 27       		.byte	0x27
 828 0c0d 19       		.byte	0x19
 829 0c0e 53010000 		.long	0x153
 830 0c12 13       		.uleb128 0x13
 831 0c13 5441534B 		.ascii "TASK0_STACK_USAGE_PERCENT\0"
 831      305F5354 
 831      41434B5F 
 831      55534147 
 831      455F5045 
 832 0c2d 07       		.byte	0x7
 833 0c2e 28       		.byte	0x28
 834 0c2f 19       		.byte	0x19
 835 0c30 53010000 		.long	0x153
 836 0c34 13       		.uleb128 0x13
 837 0c35 5441534B 		.ascii "TASK1_STACK_ADDR\0"
 837      315F5354 
 837      41434B5F 
 837      41444452 
 837      00
 838 0c46 07       		.byte	0x7
 839 0c47 29       		.byte	0x29
 840 0c48 19       		.byte	0x19
 841 0c49 9D0B0000 		.long	0xb9d
 842 0c4d 13       		.uleb128 0x13
 843 0c4e 5441534B 		.ascii "TASK1_STACK_POS\0"
 843      315F5354 
 843      41434B5F 
 843      504F5300 
 844 0c5e 07       		.byte	0x7
 845 0c5f 2A       		.byte	0x2a
 846 0c60 19       		.byte	0x19
 847 0c61 53010000 		.long	0x153
 848 0c65 13       		.uleb128 0x13
 849 0c66 5441534B 		.ascii "TASK1_STACK_USAGE_PERCENT\0"
 849      315F5354 
 849      41434B5F 
 849      55534147 
 849      455F5045 
 850 0c80 07       		.byte	0x7
 851 0c81 2B       		.byte	0x2b
 852 0c82 19       		.byte	0x19
 853 0c83 53010000 		.long	0x153
 854 0c87 13       		.uleb128 0x13
 855 0c88 5441534B 		.ascii "TASK2_STACK_ADDR\0"
GAS LISTING C:\Users\PRESID~1\AppData\Local\Temp\ccD5yOAh.s 			page 23


 855      325F5354 
 855      41434B5F 
 855      41444452 
 855      00
 856 0c99 07       		.byte	0x7
 857 0c9a 2C       		.byte	0x2c
 858 0c9b 19       		.byte	0x19
 859 0c9c 9D0B0000 		.long	0xb9d
 860 0ca0 13       		.uleb128 0x13
 861 0ca1 5441534B 		.ascii "TASK2_STACK_POS\0"
 861      325F5354 
 861      41434B5F 
 861      504F5300 
 862 0cb1 07       		.byte	0x7
 863 0cb2 2D       		.byte	0x2d
 864 0cb3 19       		.byte	0x19
 865 0cb4 53010000 		.long	0x153
 866 0cb8 13       		.uleb128 0x13
 867 0cb9 5441534B 		.ascii "TASK2_STACK_USAGE_PERCENT\0"
 867      325F5354 
 867      41434B5F 
 867      55534147 
 867      455F5045 
 868 0cd3 07       		.byte	0x7
 869 0cd4 2E       		.byte	0x2e
 870 0cd5 19       		.byte	0x19
 871 0cd6 53010000 		.long	0x153
 872 0cda 13       		.uleb128 0x13
 873 0cdb 5441534B 		.ascii "TASK3_STACK_ADDR\0"
 873      335F5354 
 873      41434B5F 
 873      41444452 
 873      00
 874 0cec 07       		.byte	0x7
 875 0ced 2F       		.byte	0x2f
 876 0cee 19       		.byte	0x19
 877 0cef 9D0B0000 		.long	0xb9d
 878 0cf3 13       		.uleb128 0x13
 879 0cf4 5441534B 		.ascii "TASK3_STACK_POS\0"
 879      335F5354 
 879      41434B5F 
 879      504F5300 
 880 0d04 07       		.byte	0x7
 881 0d05 30       		.byte	0x30
 882 0d06 19       		.byte	0x19
 883 0d07 53010000 		.long	0x153
 884 0d0b 13       		.uleb128 0x13
 885 0d0c 5441534B 		.ascii "TASK3_STACK_USAGE_PERCENT\0"
 885      335F5354 
 885      41434B5F 
 885      55534147 
 885      455F5045 
 886 0d26 07       		.byte	0x7
 887 0d27 31       		.byte	0x31
 888 0d28 19       		.byte	0x19
 889 0d29 53010000 		.long	0x153
 890 0d2d 13       		.uleb128 0x13
GAS LISTING C:\Users\PRESID~1\AppData\Local\Temp\ccD5yOAh.s 			page 24


 891 0d2e 5441534B 		.ascii "TASK4_STACK_ADDR\0"
 891      345F5354 
 891      41434B5F 
 891      41444452 
 891      00
 892 0d3f 07       		.byte	0x7
 893 0d40 32       		.byte	0x32
 894 0d41 19       		.byte	0x19
 895 0d42 9D0B0000 		.long	0xb9d
 896 0d46 13       		.uleb128 0x13
 897 0d47 5441534B 		.ascii "TASK4_STACK_POS\0"
 897      345F5354 
 897      41434B5F 
 897      504F5300 
 898 0d57 07       		.byte	0x7
 899 0d58 33       		.byte	0x33
 900 0d59 19       		.byte	0x19
 901 0d5a 53010000 		.long	0x153
 902 0d5e 13       		.uleb128 0x13
 903 0d5f 5441534B 		.ascii "TASK4_STACK_USAGE_PERCENT\0"
 903      345F5354 
 903      41434B5F 
 903      55534147 
 903      455F5045 
 904 0d79 07       		.byte	0x7
 905 0d7a 34       		.byte	0x34
 906 0d7b 19       		.byte	0x19
 907 0d7c 53010000 		.long	0x153
 908 0d80 0B       		.uleb128 0xb
 909 0d81 A1000000 		.long	0xa1
 910 0d85 910D0000 		.long	0xd91
 911 0d89 14       		.uleb128 0x14
 912 0d8a 32030000 		.long	0x332
 913 0d8e CF07     		.word	0x7cf
 914 0d90 00       		.byte	0
 915 0d91 13       		.uleb128 0x13
 916 0d92 5441534B 		.ascii "TASK0_STACK\0"
 916      305F5354 
 916      41434B00 
 917 0d9e 07       		.byte	0x7
 918 0d9f 35       		.byte	0x35
 919 0da0 1A       		.byte	0x1a
 920 0da1 800D0000 		.long	0xd80
 921 0da5 13       		.uleb128 0x13
 922 0da6 5441534B 		.ascii "TASK1_STACK\0"
 922      315F5354 
 922      41434B00 
 923 0db2 07       		.byte	0x7
 924 0db3 36       		.byte	0x36
 925 0db4 1A       		.byte	0x1a
 926 0db5 800D0000 		.long	0xd80
 927 0db9 13       		.uleb128 0x13
 928 0dba 5441534B 		.ascii "TASK2_STACK\0"
 928      325F5354 
 928      41434B00 
 929 0dc6 07       		.byte	0x7
 930 0dc7 37       		.byte	0x37
GAS LISTING C:\Users\PRESID~1\AppData\Local\Temp\ccD5yOAh.s 			page 25


 931 0dc8 1A       		.byte	0x1a
 932 0dc9 800D0000 		.long	0xd80
 933 0dcd 13       		.uleb128 0x13
 934 0dce 5441534B 		.ascii "TASK3_STACK\0"
 934      335F5354 
 934      41434B00 
 935 0dda 07       		.byte	0x7
 936 0ddb 38       		.byte	0x38
 937 0ddc 1A       		.byte	0x1a
 938 0ddd 800D0000 		.long	0xd80
 939 0de1 13       		.uleb128 0x13
 940 0de2 5441534B 		.ascii "TASK4_STACK\0"
 940      345F5354 
 940      41434B00 
 941 0dee 07       		.byte	0x7
 942 0def 39       		.byte	0x39
 943 0df0 1A       		.byte	0x1a
 944 0df1 800D0000 		.long	0xd80
 945 0df5 13       		.uleb128 0x13
 946 0df6 4C415354 		.ascii "LAST_CURRENT_TIME\0"
 946      5F435552 
 946      52454E54 
 946      5F54494D 
 946      4500
 947 0e08 07       		.byte	0x7
 948 0e09 3A       		.byte	0x3a
 949 0e0a 1A       		.byte	0x1a
 950 0e0b AB080000 		.long	0x8ab
 951 0e0f 0B       		.uleb128 0xb
 952 0e10 6F080000 		.long	0x86f
 953 0e14 1F0E0000 		.long	0xe1f
 954 0e18 0C       		.uleb128 0xc
 955 0e19 32030000 		.long	0x332
 956 0e1d 09       		.byte	0x9
 957 0e1e 00       		.byte	0
 958 0e1f 13       		.uleb128 0x13
 959 0e20 5441534B 		.ascii "TASK_SCHEDULING_QUEUE\0"
 959      5F534348 
 959      4544554C 
 959      494E475F 
 959      51554555 
 960 0e36 07       		.byte	0x7
 961 0e37 3B       		.byte	0x3b
 962 0e38 1A       		.byte	0x1a
 963 0e39 0F0E0000 		.long	0xe0f
 964 0e3d 13       		.uleb128 0x13
 965 0e3e 52554E4E 		.ascii "RUNNING_SCHEDULING_QUEUE_ENTRY\0"
 965      494E475F 
 965      53434845 
 965      44554C49 
 965      4E475F51 
 966 0e5d 07       		.byte	0x7
 967 0e5e 3C       		.byte	0x3c
 968 0e5f 1A       		.byte	0x1a
 969 0e60 640E0000 		.long	0xe64
 970 0e64 07       		.uleb128 0x7
 971 0e65 04       		.byte	0x4
GAS LISTING C:\Users\PRESID~1\AppData\Local\Temp\ccD5yOAh.s 			page 26


 972 0e66 6F080000 		.long	0x86f
 973 0e6a 0B       		.uleb128 0xb
 974 0e6b 60080000 		.long	0x860
 975 0e6f 7A0E0000 		.long	0xe7a
 976 0e73 0C       		.uleb128 0xc
 977 0e74 32030000 		.long	0x332
 978 0e78 09       		.byte	0x9
 979 0e79 00       		.byte	0
 980 0e7a 13       		.uleb128 0x13
 981 0e7b 5441534B 		.ascii "TASK_RUN_QUEUE\0"
 981      5F52554E 
 981      5F515545 
 981      554500
 982 0e8a 07       		.byte	0x7
 983 0e8b 3D       		.byte	0x3d
 984 0e8c 1A       		.byte	0x1a
 985 0e8d 6A0E0000 		.long	0xe6a
 986 0e91 0B       		.uleb128 0xb
 987 0e92 60080000 		.long	0x860
 988 0e96 A10E0000 		.long	0xea1
 989 0e9a 0C       		.uleb128 0xc
 990 0e9b 32030000 		.long	0x332
 991 0e9f 00       		.byte	0
 992 0ea0 00       		.byte	0
 993 0ea1 13       		.uleb128 0x13
 994 0ea2 52554E4E 		.ascii "RUNNING_TASK\0"
 994      494E475F 
 994      5441534B 
 994      00
 995 0eaf 07       		.byte	0x7
 996 0eb0 3E       		.byte	0x3e
 997 0eb1 1A       		.byte	0x1a
 998 0eb2 910E0000 		.long	0xe91
 999 0eb6 13       		.uleb128 0x13
 1000 0eb7 5441534B 		.ascii "TASK_IDLE_QUEUE\0"
 1000      5F49444C 
 1000      455F5155 
 1000      45554500 
 1001 0ec7 07       		.byte	0x7
 1002 0ec8 3F       		.byte	0x3f
 1003 0ec9 1A       		.byte	0x1a
 1004 0eca 910E0000 		.long	0xe91
 1005 0ece 13       		.uleb128 0x13
 1006 0ecf 62544153 		.ascii "bTASK_QUEUE_INITIALIZED\0"
 1006      4B5F5155 
 1006      4555455F 
 1006      494E4954 
 1006      49414C49 
 1007 0ee7 07       		.byte	0x7
 1008 0ee8 40       		.byte	0x40
 1009 0ee9 1A       		.byte	0x1a
 1010 0eea A1000000 		.long	0xa1
 1011 0eee 13       		.uleb128 0x13
 1012 0eef 5441534B 		.ascii "TASK_0_VAR\0"
 1012      5F305F56 
 1012      415200
 1013 0efa 07       		.byte	0x7
GAS LISTING C:\Users\PRESID~1\AppData\Local\Temp\ccD5yOAh.s 			page 27


 1014 0efb 41       		.byte	0x41
 1015 0efc 0F       		.byte	0xf
 1016 0efd 60080000 		.long	0x860
 1017 0f01 13       		.uleb128 0x13
 1018 0f02 5441534B 		.ascii "TASK_1_VAR\0"
 1018      5F315F56 
 1018      415200
 1019 0f0d 07       		.byte	0x7
 1020 0f0e 41       		.byte	0x41
 1021 0f0f 1B       		.byte	0x1b
 1022 0f10 60080000 		.long	0x860
 1023 0f14 13       		.uleb128 0x13
 1024 0f15 5441534B 		.ascii "TASK_2_VAR\0"
 1024      5F325F56 
 1024      415200
 1025 0f20 07       		.byte	0x7
 1026 0f21 41       		.byte	0x41
 1027 0f22 27       		.byte	0x27
 1028 0f23 60080000 		.long	0x860
 1029 0f27 13       		.uleb128 0x13
 1030 0f28 5441534B 		.ascii "TASK_3_VAR\0"
 1030      5F335F56 
 1030      415200
 1031 0f33 07       		.byte	0x7
 1032 0f34 41       		.byte	0x41
 1033 0f35 33       		.byte	0x33
 1034 0f36 60080000 		.long	0x860
 1035 0f3a 13       		.uleb128 0x13
 1036 0f3b 5441534B 		.ascii "TASK_GROUP_1\0"
 1036      5F47524F 
 1036      55505F31 
 1036      00
 1037 0f48 07       		.byte	0x7
 1038 0f49 42       		.byte	0x42
 1039 0f4a 15       		.byte	0x15
 1040 0f4b 93050000 		.long	0x593
 1041 0f4f 13       		.uleb128 0x13
 1042 0f50 5441534B 		.ascii "TASK_GROUP_2\0"
 1042      5F47524F 
 1042      55505F32 
 1042      00
 1043 0f5d 07       		.byte	0x7
 1044 0f5e 42       		.byte	0x42
 1045 0f5f 23       		.byte	0x23
 1046 0f60 93050000 		.long	0x593
 1047 0f64 13       		.uleb128 0x13
 1048 0f65 5441534B 		.ascii "TASK_GROUP_3\0"
 1048      5F47524F 
 1048      55505F33 
 1048      00
 1049 0f72 07       		.byte	0x7
 1050 0f73 42       		.byte	0x42
 1051 0f74 31       		.byte	0x31
 1052 0f75 93050000 		.long	0x593
 1053 0f79 13       		.uleb128 0x13
 1054 0f7a 5441534B 		.ascii "TASK_GROUP_4\0"
 1054      5F47524F 
GAS LISTING C:\Users\PRESID~1\AppData\Local\Temp\ccD5yOAh.s 			page 28


 1054      55505F34 
 1054      00
 1055 0f87 07       		.byte	0x7
 1056 0f88 42       		.byte	0x42
 1057 0f89 3F       		.byte	0x3f
 1058 0f8a 93050000 		.long	0x593
 1059 0f8e 13       		.uleb128 0x13
 1060 0f8f 5441534B 		.ascii "TASK_GROUP_5\0"
 1060      5F47524F 
 1060      55505F35 
 1060      00
 1061 0f9c 07       		.byte	0x7
 1062 0f9d 42       		.byte	0x42
 1063 0f9e 4D       		.byte	0x4d
 1064 0f9f 93050000 		.long	0x593
 1065 0fa3 13       		.uleb128 0x13
 1066 0fa4 5441534B 		.ascii "TASK_TRANSITION_REJECTED_TASK_ADDR\0"
 1066      5F545241 
 1066      4E534954 
 1066      494F4E5F 
 1066      52454A45 
 1067 0fc7 07       		.byte	0x7
 1068 0fc8 43       		.byte	0x43
 1069 0fc9 1A       		.byte	0x1a
 1070 0fca 84080000 		.long	0x884
 1071 0fce 13       		.uleb128 0x13
 1072 0fcf 5441534B 		.ascii "TASK_TRANSITION_REJECTED_STATE\0"
 1072      5F545241 
 1072      4E534954 
 1072      494F4E5F 
 1072      52454A45 
 1073 0fee 07       		.byte	0x7
 1074 0fef 44       		.byte	0x44
 1075 0ff0 1A       		.byte	0x1a
 1076 0ff1 E7040000 		.long	0x4e7
 1077 0ff5 13       		.uleb128 0x13
 1078 0ff6 5441534B 		.ascii "TASK_TRANSITION_CURRENT_STATE\0"
 1078      5F545241 
 1078      4E534954 
 1078      494F4E5F 
 1078      43555252 
 1079 1014 07       		.byte	0x7
 1080 1015 45       		.byte	0x45
 1081 1016 1A       		.byte	0x1a
 1082 1017 E7040000 		.long	0x4e7
 1083 101b 13       		.uleb128 0x13
 1084 101c 53595354 		.ascii "SYSTEM_STATE_ACCEPTED\0"
 1084      454D5F53 
 1084      54415445 
 1084      5F414343 
 1084      45505445 
 1085 1032 07       		.byte	0x7
 1086 1033 46       		.byte	0x46
 1087 1034 1C       		.byte	0x1c
 1088 1035 28090000 		.long	0x928
 1089 1039 13       		.uleb128 0x13
 1090 103a 4C4F4341 		.ascii "LOCAL_SYSTEM_TIME\0"
GAS LISTING C:\Users\PRESID~1\AppData\Local\Temp\ccD5yOAh.s 			page 29


 1090      4C5F5359 
 1090      5354454D 
 1090      5F54494D 
 1090      4500
 1091 104c 07       		.byte	0x7
 1092 104d 47       		.byte	0x47
 1093 104e 12       		.byte	0x12
 1094 104f BA030000 		.long	0x3ba
 1095 1053 0B       		.uleb128 0xb
 1096 1054 A1000000 		.long	0xa1
 1097 1058 64100000 		.long	0x1064
 1098 105c 14       		.uleb128 0x14
 1099 105d 32030000 		.long	0x332
 1100 1061 FF03     		.word	0x3ff
 1101 1063 00       		.byte	0
 1102 1064 13       		.uleb128 0x13
 1103 1065 4F535F4D 		.ascii "OS_MAIN_STACK\0"
 1103      41494E5F 
 1103      53544143 
 1103      4B00
 1104 1073 08       		.byte	0x8
 1105 1074 0C       		.byte	0xc
 1106 1075 18       		.byte	0x18
 1107 1076 53100000 		.long	0x1053
 1108 107a 15       		.uleb128 0x15
 1109 107b 4F535F53 		.ascii "OS_START_EXT_PRG\0"
 1109      54415254 
 1109      5F455854 
 1109      5F505247 
 1109      00
 1110 108c 01       		.byte	0x1
 1111 108d 13       		.byte	0x13
 1112 108e 06       		.byte	0x6
 1113 108f 07000000 		.long	LFB1
 1114 1093 2D000000 		.long	LFE1-LFB1
 1115 1097 01       		.uleb128 0x1
 1116 1098 9C       		.byte	0x9c
 1117 1099 CF100000 		.long	0x10cf
 1118 109d 16       		.uleb128 0x16
 1119 109e 15000000 		.secrel32	LASF1
 1120 10a2 01       		.byte	0x1
 1121 10a3 13       		.byte	0x13
 1122 10a4 22       		.byte	0x22
 1123 10a5 5C030000 		.long	0x35c
 1124 10a9 02       		.uleb128 0x2
 1125 10aa 91       		.byte	0x91
 1126 10ab 00       		.sleb128 0
 1127 10ac 16       		.uleb128 0x16
 1128 10ad 00000000 		.secrel32	LASF2
 1129 10b1 01       		.byte	0x1
 1130 10b2 13       		.byte	0x13
 1131 10b3 37       		.byte	0x37
 1132 10b4 44010000 		.long	0x144
 1133 10b8 02       		.uleb128 0x2
 1134 10b9 91       		.byte	0x91
 1135 10ba 04       		.sleb128 4
 1136 10bb 17       		.uleb128 0x17
GAS LISTING C:\Users\PRESID~1\AppData\Local\Temp\ccD5yOAh.s 			page 30


 1137 10bc 50726753 		.ascii "PrgSize\0"
 1137      697A6500 
 1138 10c4 01       		.byte	0x1
 1139 10c5 13       		.byte	0x13
 1140 10c6 4B       		.byte	0x4b
 1141 10c7 44010000 		.long	0x144
 1142 10cb 02       		.uleb128 0x2
 1143 10cc 91       		.byte	0x91
 1144 10cd 08       		.sleb128 8
 1145 10ce 00       		.byte	0
 1146 10cf 18       		.uleb128 0x18
 1147 10d0 6F735F73 		.ascii "os_signatur_valid\0"
 1147      69676E61 
 1147      7475725F 
 1147      76616C69 
 1147      6400
 1148 10e2 01       		.byte	0x1
 1149 10e3 07       		.byte	0x7
 1150 10e4 11       		.byte	0x11
 1151 10e5 A1000000 		.long	0xa1
 1152 10e9 00000000 		.long	LFB0
 1153 10ed 07000000 		.long	LFE0-LFB0
 1154 10f1 01       		.uleb128 0x1
 1155 10f2 9C       		.byte	0x9c
 1156 10f3 16       		.uleb128 0x16
 1157 10f4 15000000 		.secrel32	LASF1
 1158 10f8 01       		.byte	0x1
 1159 10f9 07       		.byte	0x7
 1160 10fa 2E       		.byte	0x2e
 1161 10fb 5C030000 		.long	0x35c
 1162 10ff 02       		.uleb128 0x2
 1163 1100 91       		.byte	0x91
 1164 1101 00       		.sleb128 0
 1165 1102 16       		.uleb128 0x16
 1166 1103 00000000 		.secrel32	LASF2
 1167 1107 01       		.byte	0x1
 1168 1108 07       		.byte	0x7
 1169 1109 43       		.byte	0x43
 1170 110a 44010000 		.long	0x144
 1171 110e 02       		.uleb128 0x2
 1172 110f 91       		.byte	0x91
 1173 1110 04       		.sleb128 4
 1174 1111 17       		.uleb128 0x17
 1175 1112 50726753 		.ascii "PrgSize\0"
 1175      697A6500 
 1176 111a 01       		.byte	0x1
 1177 111b 07       		.byte	0x7
 1178 111c 57       		.byte	0x57
 1179 111d 44010000 		.long	0x144
 1180 1121 02       		.uleb128 0x2
 1181 1122 91       		.byte	0x91
 1182 1123 08       		.sleb128 8
 1183 1124 00       		.byte	0
 1184 1125 00       		.byte	0
 1185              		.section	.debug_abbrev,"dr"
 1186              	Ldebug_abbrev0:
 1187 0000 01       		.uleb128 0x1
GAS LISTING C:\Users\PRESID~1\AppData\Local\Temp\ccD5yOAh.s 			page 31


 1188 0001 11       		.uleb128 0x11
 1189 0002 01       		.byte	0x1
 1190 0003 25       		.uleb128 0x25
 1191 0004 08       		.uleb128 0x8
 1192 0005 13       		.uleb128 0x13
 1193 0006 0B       		.uleb128 0xb
 1194 0007 03       		.uleb128 0x3
 1195 0008 08       		.uleb128 0x8
 1196 0009 1B       		.uleb128 0x1b
 1197 000a 08       		.uleb128 0x8
 1198 000b 11       		.uleb128 0x11
 1199 000c 01       		.uleb128 0x1
 1200 000d 12       		.uleb128 0x12
 1201 000e 06       		.uleb128 0x6
 1202 000f 10       		.uleb128 0x10
 1203 0010 17       		.uleb128 0x17
 1204 0011 9942     		.uleb128 0x2119
 1205 0013 17       		.uleb128 0x17
 1206 0014 00       		.byte	0
 1207 0015 00       		.byte	0
 1208 0016 02       		.uleb128 0x2
 1209 0017 16       		.uleb128 0x16
 1210 0018 00       		.byte	0
 1211 0019 03       		.uleb128 0x3
 1212 001a 08       		.uleb128 0x8
 1213 001b 3A       		.uleb128 0x3a
 1214 001c 0B       		.uleb128 0xb
 1215 001d 3B       		.uleb128 0x3b
 1216 001e 0B       		.uleb128 0xb
 1217 001f 39       		.uleb128 0x39
 1218 0020 0B       		.uleb128 0xb
 1219 0021 49       		.uleb128 0x49
 1220 0022 13       		.uleb128 0x13
 1221 0023 00       		.byte	0
 1222 0024 00       		.byte	0
 1223 0025 03       		.uleb128 0x3
 1224 0026 24       		.uleb128 0x24
 1225 0027 00       		.byte	0
 1226 0028 0B       		.uleb128 0xb
 1227 0029 0B       		.uleb128 0xb
 1228 002a 3E       		.uleb128 0x3e
 1229 002b 0B       		.uleb128 0xb
 1230 002c 03       		.uleb128 0x3
 1231 002d 08       		.uleb128 0x8
 1232 002e 00       		.byte	0
 1233 002f 00       		.byte	0
 1234 0030 04       		.uleb128 0x4
 1235 0031 35       		.uleb128 0x35
 1236 0032 00       		.byte	0
 1237 0033 49       		.uleb128 0x49
 1238 0034 13       		.uleb128 0x13
 1239 0035 00       		.byte	0
 1240 0036 00       		.byte	0
 1241 0037 05       		.uleb128 0x5
 1242 0038 04       		.uleb128 0x4
 1243 0039 01       		.byte	0x1
 1244 003a 03       		.uleb128 0x3
GAS LISTING C:\Users\PRESID~1\AppData\Local\Temp\ccD5yOAh.s 			page 32


 1245 003b 08       		.uleb128 0x8
 1246 003c 3E       		.uleb128 0x3e
 1247 003d 0B       		.uleb128 0xb
 1248 003e 0B       		.uleb128 0xb
 1249 003f 0B       		.uleb128 0xb
 1250 0040 49       		.uleb128 0x49
 1251 0041 13       		.uleb128 0x13
 1252 0042 3A       		.uleb128 0x3a
 1253 0043 0B       		.uleb128 0xb
 1254 0044 3B       		.uleb128 0x3b
 1255 0045 0B       		.uleb128 0xb
 1256 0046 39       		.uleb128 0x39
 1257 0047 0B       		.uleb128 0xb
 1258 0048 01       		.uleb128 0x1
 1259 0049 13       		.uleb128 0x13
 1260 004a 00       		.byte	0
 1261 004b 00       		.byte	0
 1262 004c 06       		.uleb128 0x6
 1263 004d 28       		.uleb128 0x28
 1264 004e 00       		.byte	0
 1265 004f 03       		.uleb128 0x3
 1266 0050 08       		.uleb128 0x8
 1267 0051 1C       		.uleb128 0x1c
 1268 0052 0B       		.uleb128 0xb
 1269 0053 00       		.byte	0
 1270 0054 00       		.byte	0
 1271 0055 07       		.uleb128 0x7
 1272 0056 0F       		.uleb128 0xf
 1273 0057 00       		.byte	0
 1274 0058 0B       		.uleb128 0xb
 1275 0059 0B       		.uleb128 0xb
 1276 005a 49       		.uleb128 0x49
 1277 005b 13       		.uleb128 0x13
 1278 005c 00       		.byte	0
 1279 005d 00       		.byte	0
 1280 005e 08       		.uleb128 0x8
 1281 005f 15       		.uleb128 0x15
 1282 0060 00       		.byte	0
 1283 0061 27       		.uleb128 0x27
 1284 0062 19       		.uleb128 0x19
 1285 0063 00       		.byte	0
 1286 0064 00       		.byte	0
 1287 0065 09       		.uleb128 0x9
 1288 0066 13       		.uleb128 0x13
 1289 0067 01       		.byte	0x1
 1290 0068 03       		.uleb128 0x3
 1291 0069 08       		.uleb128 0x8
 1292 006a 0B       		.uleb128 0xb
 1293 006b 0B       		.uleb128 0xb
 1294 006c 3A       		.uleb128 0x3a
 1295 006d 0B       		.uleb128 0xb
 1296 006e 3B       		.uleb128 0x3b
 1297 006f 0B       		.uleb128 0xb
 1298 0070 39       		.uleb128 0x39
 1299 0071 0B       		.uleb128 0xb
 1300 0072 01       		.uleb128 0x1
 1301 0073 13       		.uleb128 0x13
GAS LISTING C:\Users\PRESID~1\AppData\Local\Temp\ccD5yOAh.s 			page 33


 1302 0074 00       		.byte	0
 1303 0075 00       		.byte	0
 1304 0076 0A       		.uleb128 0xa
 1305 0077 0D       		.uleb128 0xd
 1306 0078 00       		.byte	0
 1307 0079 03       		.uleb128 0x3
 1308 007a 08       		.uleb128 0x8
 1309 007b 3A       		.uleb128 0x3a
 1310 007c 0B       		.uleb128 0xb
 1311 007d 3B       		.uleb128 0x3b
 1312 007e 0B       		.uleb128 0xb
 1313 007f 39       		.uleb128 0x39
 1314 0080 0B       		.uleb128 0xb
 1315 0081 49       		.uleb128 0x49
 1316 0082 13       		.uleb128 0x13
 1317 0083 38       		.uleb128 0x38
 1318 0084 0B       		.uleb128 0xb
 1319 0085 00       		.byte	0
 1320 0086 00       		.byte	0
 1321 0087 0B       		.uleb128 0xb
 1322 0088 01       		.uleb128 0x1
 1323 0089 01       		.byte	0x1
 1324 008a 49       		.uleb128 0x49
 1325 008b 13       		.uleb128 0x13
 1326 008c 01       		.uleb128 0x1
 1327 008d 13       		.uleb128 0x13
 1328 008e 00       		.byte	0
 1329 008f 00       		.byte	0
 1330 0090 0C       		.uleb128 0xc
 1331 0091 21       		.uleb128 0x21
 1332 0092 00       		.byte	0
 1333 0093 49       		.uleb128 0x49
 1334 0094 13       		.uleb128 0x13
 1335 0095 2F       		.uleb128 0x2f
 1336 0096 0B       		.uleb128 0xb
 1337 0097 00       		.byte	0
 1338 0098 00       		.byte	0
 1339 0099 0D       		.uleb128 0xd
 1340 009a 15       		.uleb128 0x15
 1341 009b 01       		.byte	0x1
 1342 009c 27       		.uleb128 0x27
 1343 009d 19       		.uleb128 0x19
 1344 009e 01       		.uleb128 0x1
 1345 009f 13       		.uleb128 0x13
 1346 00a0 00       		.byte	0
 1347 00a1 00       		.byte	0
 1348 00a2 0E       		.uleb128 0xe
 1349 00a3 05       		.uleb128 0x5
 1350 00a4 00       		.byte	0
 1351 00a5 49       		.uleb128 0x49
 1352 00a6 13       		.uleb128 0x13
 1353 00a7 00       		.byte	0
 1354 00a8 00       		.byte	0
 1355 00a9 0F       		.uleb128 0xf
 1356 00aa 0F       		.uleb128 0xf
 1357 00ab 00       		.byte	0
 1358 00ac 0B       		.uleb128 0xb
GAS LISTING C:\Users\PRESID~1\AppData\Local\Temp\ccD5yOAh.s 			page 34


 1359 00ad 0B       		.uleb128 0xb
 1360 00ae 00       		.byte	0
 1361 00af 00       		.byte	0
 1362 00b0 10       		.uleb128 0x10
 1363 00b1 15       		.uleb128 0x15
 1364 00b2 01       		.byte	0x1
 1365 00b3 27       		.uleb128 0x27
 1366 00b4 19       		.uleb128 0x19
 1367 00b5 49       		.uleb128 0x49
 1368 00b6 13       		.uleb128 0x13
 1369 00b7 01       		.uleb128 0x1
 1370 00b8 13       		.uleb128 0x13
 1371 00b9 00       		.byte	0
 1372 00ba 00       		.byte	0
 1373 00bb 11       		.uleb128 0x11
 1374 00bc 0D       		.uleb128 0xd
 1375 00bd 00       		.byte	0
 1376 00be 03       		.uleb128 0x3
 1377 00bf 0E       		.uleb128 0xe
 1378 00c0 3A       		.uleb128 0x3a
 1379 00c1 0B       		.uleb128 0xb
 1380 00c2 3B       		.uleb128 0x3b
 1381 00c3 0B       		.uleb128 0xb
 1382 00c4 39       		.uleb128 0x39
 1383 00c5 0B       		.uleb128 0xb
 1384 00c6 49       		.uleb128 0x49
 1385 00c7 13       		.uleb128 0x13
 1386 00c8 38       		.uleb128 0x38
 1387 00c9 0B       		.uleb128 0xb
 1388 00ca 00       		.byte	0
 1389 00cb 00       		.byte	0
 1390 00cc 12       		.uleb128 0x12
 1391 00cd 0D       		.uleb128 0xd
 1392 00ce 00       		.byte	0
 1393 00cf 03       		.uleb128 0x3
 1394 00d0 08       		.uleb128 0x8
 1395 00d1 3A       		.uleb128 0x3a
 1396 00d2 0B       		.uleb128 0xb
 1397 00d3 3B       		.uleb128 0x3b
 1398 00d4 0B       		.uleb128 0xb
 1399 00d5 39       		.uleb128 0x39
 1400 00d6 0B       		.uleb128 0xb
 1401 00d7 49       		.uleb128 0x49
 1402 00d8 13       		.uleb128 0x13
 1403 00d9 0B       		.uleb128 0xb
 1404 00da 0B       		.uleb128 0xb
 1405 00db 0D       		.uleb128 0xd
 1406 00dc 0B       		.uleb128 0xb
 1407 00dd 0C       		.uleb128 0xc
 1408 00de 0B       		.uleb128 0xb
 1409 00df 38       		.uleb128 0x38
 1410 00e0 0B       		.uleb128 0xb
 1411 00e1 00       		.byte	0
 1412 00e2 00       		.byte	0
 1413 00e3 13       		.uleb128 0x13
 1414 00e4 34       		.uleb128 0x34
 1415 00e5 00       		.byte	0
GAS LISTING C:\Users\PRESID~1\AppData\Local\Temp\ccD5yOAh.s 			page 35


 1416 00e6 03       		.uleb128 0x3
 1417 00e7 08       		.uleb128 0x8
 1418 00e8 3A       		.uleb128 0x3a
 1419 00e9 0B       		.uleb128 0xb
 1420 00ea 3B       		.uleb128 0x3b
 1421 00eb 0B       		.uleb128 0xb
 1422 00ec 39       		.uleb128 0x39
 1423 00ed 0B       		.uleb128 0xb
 1424 00ee 49       		.uleb128 0x49
 1425 00ef 13       		.uleb128 0x13
 1426 00f0 3F       		.uleb128 0x3f
 1427 00f1 19       		.uleb128 0x19
 1428 00f2 3C       		.uleb128 0x3c
 1429 00f3 19       		.uleb128 0x19
 1430 00f4 00       		.byte	0
 1431 00f5 00       		.byte	0
 1432 00f6 14       		.uleb128 0x14
 1433 00f7 21       		.uleb128 0x21
 1434 00f8 00       		.byte	0
 1435 00f9 49       		.uleb128 0x49
 1436 00fa 13       		.uleb128 0x13
 1437 00fb 2F       		.uleb128 0x2f
 1438 00fc 05       		.uleb128 0x5
 1439 00fd 00       		.byte	0
 1440 00fe 00       		.byte	0
 1441 00ff 15       		.uleb128 0x15
 1442 0100 2E       		.uleb128 0x2e
 1443 0101 01       		.byte	0x1
 1444 0102 3F       		.uleb128 0x3f
 1445 0103 19       		.uleb128 0x19
 1446 0104 03       		.uleb128 0x3
 1447 0105 08       		.uleb128 0x8
 1448 0106 3A       		.uleb128 0x3a
 1449 0107 0B       		.uleb128 0xb
 1450 0108 3B       		.uleb128 0x3b
 1451 0109 0B       		.uleb128 0xb
 1452 010a 39       		.uleb128 0x39
 1453 010b 0B       		.uleb128 0xb
 1454 010c 27       		.uleb128 0x27
 1455 010d 19       		.uleb128 0x19
 1456 010e 11       		.uleb128 0x11
 1457 010f 01       		.uleb128 0x1
 1458 0110 12       		.uleb128 0x12
 1459 0111 06       		.uleb128 0x6
 1460 0112 40       		.uleb128 0x40
 1461 0113 18       		.uleb128 0x18
 1462 0114 9642     		.uleb128 0x2116
 1463 0116 19       		.uleb128 0x19
 1464 0117 01       		.uleb128 0x1
 1465 0118 13       		.uleb128 0x13
 1466 0119 00       		.byte	0
 1467 011a 00       		.byte	0
 1468 011b 16       		.uleb128 0x16
 1469 011c 05       		.uleb128 0x5
 1470 011d 00       		.byte	0
 1471 011e 03       		.uleb128 0x3
 1472 011f 0E       		.uleb128 0xe
GAS LISTING C:\Users\PRESID~1\AppData\Local\Temp\ccD5yOAh.s 			page 36


 1473 0120 3A       		.uleb128 0x3a
 1474 0121 0B       		.uleb128 0xb
 1475 0122 3B       		.uleb128 0x3b
 1476 0123 0B       		.uleb128 0xb
 1477 0124 39       		.uleb128 0x39
 1478 0125 0B       		.uleb128 0xb
 1479 0126 49       		.uleb128 0x49
 1480 0127 13       		.uleb128 0x13
 1481 0128 02       		.uleb128 0x2
 1482 0129 18       		.uleb128 0x18
 1483 012a 00       		.byte	0
 1484 012b 00       		.byte	0
 1485 012c 17       		.uleb128 0x17
 1486 012d 05       		.uleb128 0x5
 1487 012e 00       		.byte	0
 1488 012f 03       		.uleb128 0x3
 1489 0130 08       		.uleb128 0x8
 1490 0131 3A       		.uleb128 0x3a
 1491 0132 0B       		.uleb128 0xb
 1492 0133 3B       		.uleb128 0x3b
 1493 0134 0B       		.uleb128 0xb
 1494 0135 39       		.uleb128 0x39
 1495 0136 0B       		.uleb128 0xb
 1496 0137 49       		.uleb128 0x49
 1497 0138 13       		.uleb128 0x13
 1498 0139 02       		.uleb128 0x2
 1499 013a 18       		.uleb128 0x18
 1500 013b 00       		.byte	0
 1501 013c 00       		.byte	0
 1502 013d 18       		.uleb128 0x18
 1503 013e 2E       		.uleb128 0x2e
 1504 013f 01       		.byte	0x1
 1505 0140 03       		.uleb128 0x3
 1506 0141 08       		.uleb128 0x8
 1507 0142 3A       		.uleb128 0x3a
 1508 0143 0B       		.uleb128 0xb
 1509 0144 3B       		.uleb128 0x3b
 1510 0145 0B       		.uleb128 0xb
 1511 0146 39       		.uleb128 0x39
 1512 0147 0B       		.uleb128 0xb
 1513 0148 27       		.uleb128 0x27
 1514 0149 19       		.uleb128 0x19
 1515 014a 49       		.uleb128 0x49
 1516 014b 13       		.uleb128 0x13
 1517 014c 11       		.uleb128 0x11
 1518 014d 01       		.uleb128 0x1
 1519 014e 12       		.uleb128 0x12
 1520 014f 06       		.uleb128 0x6
 1521 0150 40       		.uleb128 0x40
 1522 0151 18       		.uleb128 0x18
 1523 0152 9742     		.uleb128 0x2117
 1524 0154 19       		.uleb128 0x19
 1525 0155 00       		.byte	0
 1526 0156 00       		.byte	0
 1527 0157 00       		.byte	0
 1528              		.section	.debug_aranges,"dr"
 1529 0000 1C000000 		.long	0x1c
GAS LISTING C:\Users\PRESID~1\AppData\Local\Temp\ccD5yOAh.s 			page 37


 1530 0004 0200     		.word	0x2
 1531 0006 00000000 		.secrel32	Ldebug_info0
 1532 000a 04       		.byte	0x4
 1533 000b 00       		.byte	0
 1534 000c 0000     		.word	0
 1535 000e 0000     		.word	0
 1536 0010 00000000 		.long	Ltext0
 1537 0014 34000000 		.long	Letext0-Ltext0
 1538 0018 00000000 		.long	0
 1539 001c 00000000 		.long	0
 1540              		.section	.debug_macro,"dr"
 1541              	Ldebug_macro0:
 1542 0000 0400     		.word	0x4
 1543 0002 02       		.byte	0x2
 1544 0003 00000000 		.secrel32	Ldebug_line0
 1545 0007 01       		.byte	0x1
 1546 0008 00       		.uleb128 0
 1547 0009 5F5F5354 		.ascii "__STDC__ 1\0"
 1547      44435F5F 
 1547      203100
 1548 0014 01       		.byte	0x1
 1549 0015 00       		.uleb128 0
 1550 0016 5F5F5354 		.ascii "__STDC_HOSTED__ 1\0"
 1550      44435F48 
 1550      4F535445 
 1550      445F5F20 
 1550      3100
 1551 0028 01       		.byte	0x1
 1552 0029 00       		.uleb128 0
 1553 002a 5F5F474E 		.ascii "__GNUC__ 8\0"
 1553      55435F5F 
 1553      203800
 1554 0035 01       		.byte	0x1
 1555 0036 00       		.uleb128 0
 1556 0037 5F5F474E 		.ascii "__GNUC_MINOR__ 2\0"
 1556      55435F4D 
 1556      494E4F52 
 1556      5F5F2032 
 1556      00
 1557 0048 01       		.byte	0x1
 1558 0049 00       		.uleb128 0
 1559 004a 5F5F474E 		.ascii "__GNUC_PATCHLEVEL__ 0\0"
 1559      55435F50 
 1559      41544348 
 1559      4C455645 
 1559      4C5F5F20 
 1560 0060 01       		.byte	0x1
 1561 0061 00       		.uleb128 0
 1562 0062 5F5F5645 		.ascii "__VERSION__ \"8.2.0\"\0"
 1562      5253494F 
 1562      4E5F5F20 
 1562      22382E32 
 1562      2E302200 
 1563 0076 01       		.byte	0x1
 1564 0077 00       		.uleb128 0
 1565 0078 5F5F4154 		.ascii "__ATOMIC_RELAXED 0\0"
 1565      4F4D4943 
GAS LISTING C:\Users\PRESID~1\AppData\Local\Temp\ccD5yOAh.s 			page 38


 1565      5F52454C 
 1565      41584544 
 1565      203000
 1566 008b 01       		.byte	0x1
 1567 008c 00       		.uleb128 0
 1568 008d 5F5F4154 		.ascii "__ATOMIC_SEQ_CST 5\0"
 1568      4F4D4943 
 1568      5F534551 
 1568      5F435354 
 1568      203500
 1569 00a0 01       		.byte	0x1
 1570 00a1 00       		.uleb128 0
 1571 00a2 5F5F4154 		.ascii "__ATOMIC_ACQUIRE 2\0"
 1571      4F4D4943 
 1571      5F414351 
 1571      55495245 
 1571      203200
 1572 00b5 01       		.byte	0x1
 1573 00b6 00       		.uleb128 0
 1574 00b7 5F5F4154 		.ascii "__ATOMIC_RELEASE 3\0"
 1574      4F4D4943 
 1574      5F52454C 
 1574      45415345 
 1574      203300
 1575 00ca 01       		.byte	0x1
 1576 00cb 00       		.uleb128 0
 1577 00cc 5F5F4154 		.ascii "__ATOMIC_ACQ_REL 4\0"
 1577      4F4D4943 
 1577      5F414351 
 1577      5F52454C 
 1577      203400
 1578 00df 01       		.byte	0x1
 1579 00e0 00       		.uleb128 0
 1580 00e1 5F5F4154 		.ascii "__ATOMIC_CONSUME 1\0"
 1580      4F4D4943 
 1580      5F434F4E 
 1580      53554D45 
 1580      203100
 1581 00f4 01       		.byte	0x1
 1582 00f5 00       		.uleb128 0
 1583 00f6 5F5F4649 		.ascii "__FINITE_MATH_ONLY__ 0\0"
 1583      4E495445 
 1583      5F4D4154 
 1583      485F4F4E 
 1583      4C595F5F 
 1584 010d 01       		.byte	0x1
 1585 010e 00       		.uleb128 0
 1586 010f 5F5F5349 		.ascii "__SIZEOF_INT__ 4\0"
 1586      5A454F46 
 1586      5F494E54 
 1586      5F5F2034 
 1586      00
 1587 0120 01       		.byte	0x1
 1588 0121 00       		.uleb128 0
 1589 0122 5F5F5349 		.ascii "__SIZEOF_LONG__ 4\0"
 1589      5A454F46 
 1589      5F4C4F4E 
GAS LISTING C:\Users\PRESID~1\AppData\Local\Temp\ccD5yOAh.s 			page 39


 1589      475F5F20 
 1589      3400
 1590 0134 01       		.byte	0x1
 1591 0135 00       		.uleb128 0
 1592 0136 5F5F5349 		.ascii "__SIZEOF_LONG_LONG__ 8\0"
 1592      5A454F46 
 1592      5F4C4F4E 
 1592      475F4C4F 
 1592      4E475F5F 
 1593 014d 01       		.byte	0x1
 1594 014e 00       		.uleb128 0
 1595 014f 5F5F5349 		.ascii "__SIZEOF_SHORT__ 2\0"
 1595      5A454F46 
 1595      5F53484F 
 1595      52545F5F 
 1595      203200
 1596 0162 01       		.byte	0x1
 1597 0163 00       		.uleb128 0
 1598 0164 5F5F5349 		.ascii "__SIZEOF_FLOAT__ 4\0"
 1598      5A454F46 
 1598      5F464C4F 
 1598      41545F5F 
 1598      203400
 1599 0177 01       		.byte	0x1
 1600 0178 00       		.uleb128 0
 1601 0179 5F5F5349 		.ascii "__SIZEOF_DOUBLE__ 8\0"
 1601      5A454F46 
 1601      5F444F55 
 1601      424C455F 
 1601      5F203800 
 1602 018d 01       		.byte	0x1
 1603 018e 00       		.uleb128 0
 1604 018f 5F5F5349 		.ascii "__SIZEOF_LONG_DOUBLE__ 12\0"
 1604      5A454F46 
 1604      5F4C4F4E 
 1604      475F444F 
 1604      55424C45 
 1605 01a9 01       		.byte	0x1
 1606 01aa 00       		.uleb128 0
 1607 01ab 5F5F5349 		.ascii "__SIZEOF_SIZE_T__ 4\0"
 1607      5A454F46 
 1607      5F53495A 
 1607      455F545F 
 1607      5F203400 
 1608 01bf 01       		.byte	0x1
 1609 01c0 00       		.uleb128 0
 1610 01c1 5F5F4348 		.ascii "__CHAR_BIT__ 8\0"
 1610      41525F42 
 1610      49545F5F 
 1610      203800
 1611 01d0 01       		.byte	0x1
 1612 01d1 00       		.uleb128 0
 1613 01d2 5F5F4249 		.ascii "__BIGGEST_ALIGNMENT__ 16\0"
 1613      47474553 
 1613      545F414C 
 1613      49474E4D 
 1613      454E545F 
GAS LISTING C:\Users\PRESID~1\AppData\Local\Temp\ccD5yOAh.s 			page 40


 1614 01eb 01       		.byte	0x1
 1615 01ec 00       		.uleb128 0
 1616 01ed 5F5F4F52 		.ascii "__ORDER_LITTLE_ENDIAN__ 1234\0"
 1616      4445525F 
 1616      4C495454 
 1616      4C455F45 
 1616      4E444941 
 1617 020a 01       		.byte	0x1
 1618 020b 00       		.uleb128 0
 1619 020c 5F5F4F52 		.ascii "__ORDER_BIG_ENDIAN__ 4321\0"
 1619      4445525F 
 1619      4249475F 
 1619      454E4449 
 1619      414E5F5F 
 1620 0226 01       		.byte	0x1
 1621 0227 00       		.uleb128 0
 1622 0228 5F5F4F52 		.ascii "__ORDER_PDP_ENDIAN__ 3412\0"
 1622      4445525F 
 1622      5044505F 
 1622      454E4449 
 1622      414E5F5F 
 1623 0242 01       		.byte	0x1
 1624 0243 00       		.uleb128 0
 1625 0244 5F5F4259 		.ascii "__BYTE_ORDER__ __ORDER_LITTLE_ENDIAN__\0"
 1625      54455F4F 
 1625      52444552 
 1625      5F5F205F 
 1625      5F4F5244 
 1626 026b 01       		.byte	0x1
 1627 026c 00       		.uleb128 0
 1628 026d 5F5F464C 		.ascii "__FLOAT_WORD_ORDER__ __ORDER_LITTLE_ENDIAN__\0"
 1628      4F41545F 
 1628      574F5244 
 1628      5F4F5244 
 1628      45525F5F 
 1629 029a 01       		.byte	0x1
 1630 029b 00       		.uleb128 0
 1631 029c 5F5F5349 		.ascii "__SIZEOF_POINTER__ 4\0"
 1631      5A454F46 
 1631      5F504F49 
 1631      4E544552 
 1631      5F5F2034 
 1632 02b1 01       		.byte	0x1
 1633 02b2 00       		.uleb128 0
 1634 02b3 5F5F5349 		.ascii "__SIZE_TYPE__ unsigned int\0"
 1634      5A455F54 
 1634      5950455F 
 1634      5F20756E 
 1634      7369676E 
 1635 02ce 01       		.byte	0x1
 1636 02cf 00       		.uleb128 0
 1637 02d0 5F5F5054 		.ascii "__PTRDIFF_TYPE__ int\0"
 1637      52444946 
 1637      465F5459 
 1637      50455F5F 
 1637      20696E74 
 1638 02e5 01       		.byte	0x1
GAS LISTING C:\Users\PRESID~1\AppData\Local\Temp\ccD5yOAh.s 			page 41


 1639 02e6 00       		.uleb128 0
 1640 02e7 5F5F5743 		.ascii "__WCHAR_TYPE__ short unsigned int\0"
 1640      4841525F 
 1640      54595045 
 1640      5F5F2073 
 1640      686F7274 
 1641 0309 01       		.byte	0x1
 1642 030a 00       		.uleb128 0
 1643 030b 5F5F5749 		.ascii "__WINT_TYPE__ short unsigned int\0"
 1643      4E545F54 
 1643      5950455F 
 1643      5F207368 
 1643      6F727420 
 1644 032c 01       		.byte	0x1
 1645 032d 00       		.uleb128 0
 1646 032e 5F5F494E 		.ascii "__INTMAX_TYPE__ long long int\0"
 1646      544D4158 
 1646      5F545950 
 1646      455F5F20 
 1646      6C6F6E67 
 1647 034c 01       		.byte	0x1
 1648 034d 00       		.uleb128 0
 1649 034e 5F5F5549 		.ascii "__UINTMAX_TYPE__ long long unsigned int\0"
 1649      4E544D41 
 1649      585F5459 
 1649      50455F5F 
 1649      206C6F6E 
 1650 0376 01       		.byte	0x1
 1651 0377 00       		.uleb128 0
 1652 0378 5F5F4348 		.ascii "__CHAR16_TYPE__ short unsigned int\0"
 1652      41523136 
 1652      5F545950 
 1652      455F5F20 
 1652      73686F72 
 1653 039b 01       		.byte	0x1
 1654 039c 00       		.uleb128 0
 1655 039d 5F5F4348 		.ascii "__CHAR32_TYPE__ unsigned int\0"
 1655      41523332 
 1655      5F545950 
 1655      455F5F20 
 1655      756E7369 
 1656 03ba 01       		.byte	0x1
 1657 03bb 00       		.uleb128 0
 1658 03bc 5F5F5349 		.ascii "__SIG_ATOMIC_TYPE__ int\0"
 1658      475F4154 
 1658      4F4D4943 
 1658      5F545950 
 1658      455F5F20 
 1659 03d4 01       		.byte	0x1
 1660 03d5 00       		.uleb128 0
 1661 03d6 5F5F494E 		.ascii "__INT8_TYPE__ signed char\0"
 1661      54385F54 
 1661      5950455F 
 1661      5F207369 
 1661      676E6564 
 1662 03f0 01       		.byte	0x1
 1663 03f1 00       		.uleb128 0
GAS LISTING C:\Users\PRESID~1\AppData\Local\Temp\ccD5yOAh.s 			page 42


 1664 03f2 5F5F494E 		.ascii "__INT16_TYPE__ short int\0"
 1664      5431365F 
 1664      54595045 
 1664      5F5F2073 
 1664      686F7274 
 1665 040b 01       		.byte	0x1
 1666 040c 00       		.uleb128 0
 1667 040d 5F5F494E 		.ascii "__INT32_TYPE__ int\0"
 1667      5433325F 
 1667      54595045 
 1667      5F5F2069 
 1667      6E7400
 1668 0420 01       		.byte	0x1
 1669 0421 00       		.uleb128 0
 1670 0422 5F5F494E 		.ascii "__INT64_TYPE__ long long int\0"
 1670      5436345F 
 1670      54595045 
 1670      5F5F206C 
 1670      6F6E6720 
 1671 043f 01       		.byte	0x1
 1672 0440 00       		.uleb128 0
 1673 0441 5F5F5549 		.ascii "__UINT8_TYPE__ unsigned char\0"
 1673      4E54385F 
 1673      54595045 
 1673      5F5F2075 
 1673      6E736967 
 1674 045e 01       		.byte	0x1
 1675 045f 00       		.uleb128 0
 1676 0460 5F5F5549 		.ascii "__UINT16_TYPE__ short unsigned int\0"
 1676      4E543136 
 1676      5F545950 
 1676      455F5F20 
 1676      73686F72 
 1677 0483 01       		.byte	0x1
 1678 0484 00       		.uleb128 0
 1679 0485 5F5F5549 		.ascii "__UINT32_TYPE__ unsigned int\0"
 1679      4E543332 
 1679      5F545950 
 1679      455F5F20 
 1679      756E7369 
 1680 04a2 01       		.byte	0x1
 1681 04a3 00       		.uleb128 0
 1682 04a4 5F5F5549 		.ascii "__UINT64_TYPE__ long long unsigned int\0"
 1682      4E543634 
 1682      5F545950 
 1682      455F5F20 
 1682      6C6F6E67 
 1683 04cb 01       		.byte	0x1
 1684 04cc 00       		.uleb128 0
 1685 04cd 5F5F494E 		.ascii "__INT_LEAST8_TYPE__ signed char\0"
 1685      545F4C45 
 1685      41535438 
 1685      5F545950 
 1685      455F5F20 
 1686 04ed 01       		.byte	0x1
 1687 04ee 00       		.uleb128 0
 1688 04ef 5F5F494E 		.ascii "__INT_LEAST16_TYPE__ short int\0"
GAS LISTING C:\Users\PRESID~1\AppData\Local\Temp\ccD5yOAh.s 			page 43


 1688      545F4C45 
 1688      41535431 
 1688      365F5459 
 1688      50455F5F 
 1689 050e 01       		.byte	0x1
 1690 050f 00       		.uleb128 0
 1691 0510 5F5F494E 		.ascii "__INT_LEAST32_TYPE__ int\0"
 1691      545F4C45 
 1691      41535433 
 1691      325F5459 
 1691      50455F5F 
 1692 0529 01       		.byte	0x1
 1693 052a 00       		.uleb128 0
 1694 052b 5F5F494E 		.ascii "__INT_LEAST64_TYPE__ long long int\0"
 1694      545F4C45 
 1694      41535436 
 1694      345F5459 
 1694      50455F5F 
 1695 054e 01       		.byte	0x1
 1696 054f 00       		.uleb128 0
 1697 0550 5F5F5549 		.ascii "__UINT_LEAST8_TYPE__ unsigned char\0"
 1697      4E545F4C 
 1697      45415354 
 1697      385F5459 
 1697      50455F5F 
 1698 0573 01       		.byte	0x1
 1699 0574 00       		.uleb128 0
 1700 0575 5F5F5549 		.ascii "__UINT_LEAST16_TYPE__ short unsigned int\0"
 1700      4E545F4C 
 1700      45415354 
 1700      31365F54 
 1700      5950455F 
 1701 059e 01       		.byte	0x1
 1702 059f 00       		.uleb128 0
 1703 05a0 5F5F5549 		.ascii "__UINT_LEAST32_TYPE__ unsigned int\0"
 1703      4E545F4C 
 1703      45415354 
 1703      33325F54 
 1703      5950455F 
 1704 05c3 01       		.byte	0x1
 1705 05c4 00       		.uleb128 0
 1706 05c5 5F5F5549 		.ascii "__UINT_LEAST64_TYPE__ long long unsigned int\0"
 1706      4E545F4C 
 1706      45415354 
 1706      36345F54 
 1706      5950455F 
 1707 05f2 01       		.byte	0x1
 1708 05f3 00       		.uleb128 0
 1709 05f4 5F5F494E 		.ascii "__INT_FAST8_TYPE__ signed char\0"
 1709      545F4641 
 1709      5354385F 
 1709      54595045 
 1709      5F5F2073 
 1710 0613 01       		.byte	0x1
 1711 0614 00       		.uleb128 0
 1712 0615 5F5F494E 		.ascii "__INT_FAST16_TYPE__ short int\0"
 1712      545F4641 
GAS LISTING C:\Users\PRESID~1\AppData\Local\Temp\ccD5yOAh.s 			page 44


 1712      53543136 
 1712      5F545950 
 1712      455F5F20 
 1713 0633 01       		.byte	0x1
 1714 0634 00       		.uleb128 0
 1715 0635 5F5F494E 		.ascii "__INT_FAST32_TYPE__ int\0"
 1715      545F4641 
 1715      53543332 
 1715      5F545950 
 1715      455F5F20 
 1716 064d 01       		.byte	0x1
 1717 064e 00       		.uleb128 0
 1718 064f 5F5F494E 		.ascii "__INT_FAST64_TYPE__ long long int\0"
 1718      545F4641 
 1718      53543634 
 1718      5F545950 
 1718      455F5F20 
 1719 0671 01       		.byte	0x1
 1720 0672 00       		.uleb128 0
 1721 0673 5F5F5549 		.ascii "__UINT_FAST8_TYPE__ unsigned char\0"
 1721      4E545F46 
 1721      41535438 
 1721      5F545950 
 1721      455F5F20 
 1722 0695 01       		.byte	0x1
 1723 0696 00       		.uleb128 0
 1724 0697 5F5F5549 		.ascii "__UINT_FAST16_TYPE__ short unsigned int\0"
 1724      4E545F46 
 1724      41535431 
 1724      365F5459 
 1724      50455F5F 
 1725 06bf 01       		.byte	0x1
 1726 06c0 00       		.uleb128 0
 1727 06c1 5F5F5549 		.ascii "__UINT_FAST32_TYPE__ unsigned int\0"
 1727      4E545F46 
 1727      41535433 
 1727      325F5459 
 1727      50455F5F 
 1728 06e3 01       		.byte	0x1
 1729 06e4 00       		.uleb128 0
 1730 06e5 5F5F5549 		.ascii "__UINT_FAST64_TYPE__ long long unsigned int\0"
 1730      4E545F46 
 1730      41535436 
 1730      345F5459 
 1730      50455F5F 
 1731 0711 01       		.byte	0x1
 1732 0712 00       		.uleb128 0
 1733 0713 5F5F494E 		.ascii "__INTPTR_TYPE__ int\0"
 1733      54505452 
 1733      5F545950 
 1733      455F5F20 
 1733      696E7400 
 1734 0727 01       		.byte	0x1
 1735 0728 00       		.uleb128 0
 1736 0729 5F5F5549 		.ascii "__UINTPTR_TYPE__ unsigned int\0"
 1736      4E545054 
 1736      525F5459 
GAS LISTING C:\Users\PRESID~1\AppData\Local\Temp\ccD5yOAh.s 			page 45


 1736      50455F5F 
 1736      20756E73 
 1737 0747 01       		.byte	0x1
 1738 0748 00       		.uleb128 0
 1739 0749 5F5F6861 		.ascii "__has_include(STR) __has_include__(STR)\0"
 1739      735F696E 
 1739      636C7564 
 1739      65285354 
 1739      5229205F 
 1740 0771 01       		.byte	0x1
 1741 0772 00       		.uleb128 0
 1742 0773 5F5F6861 		.ascii "__has_include_next(STR) __has_include_next__(STR)\0"
 1742      735F696E 
 1742      636C7564 
 1742      655F6E65 
 1742      78742853 
 1743 07a5 01       		.byte	0x1
 1744 07a6 00       		.uleb128 0
 1745 07a7 5F5F4758 		.ascii "__GXX_ABI_VERSION 1013\0"
 1745      585F4142 
 1745      495F5645 
 1745      5253494F 
 1745      4E203130 
 1746 07be 01       		.byte	0x1
 1747 07bf 00       		.uleb128 0
 1748 07c0 5F5F5343 		.ascii "__SCHAR_MAX__ 0x7f\0"
 1748      4841525F 
 1748      4D41585F 
 1748      5F203078 
 1748      376600
 1749 07d3 01       		.byte	0x1
 1750 07d4 00       		.uleb128 0
 1751 07d5 5F5F5348 		.ascii "__SHRT_MAX__ 0x7fff\0"
 1751      52545F4D 
 1751      41585F5F 
 1751      20307837 
 1751      66666600 
 1752 07e9 01       		.byte	0x1
 1753 07ea 00       		.uleb128 0
 1754 07eb 5F5F494E 		.ascii "__INT_MAX__ 0x7fffffff\0"
 1754      545F4D41 
 1754      585F5F20 
 1754      30783766 
 1754      66666666 
 1755 0802 01       		.byte	0x1
 1756 0803 00       		.uleb128 0
 1757 0804 5F5F4C4F 		.ascii "__LONG_MAX__ 0x7fffffffL\0"
 1757      4E475F4D 
 1757      41585F5F 
 1757      20307837 
 1757      66666666 
 1758 081d 01       		.byte	0x1
 1759 081e 00       		.uleb128 0
 1760 081f 5F5F4C4F 		.ascii "__LONG_LONG_MAX__ 0x7fffffffffffffffLL\0"
 1760      4E475F4C 
 1760      4F4E475F 
 1760      4D41585F 
GAS LISTING C:\Users\PRESID~1\AppData\Local\Temp\ccD5yOAh.s 			page 46


 1760      5F203078 
 1761 0846 01       		.byte	0x1
 1762 0847 00       		.uleb128 0
 1763 0848 5F5F5743 		.ascii "__WCHAR_MAX__ 0xffff\0"
 1763      4841525F 
 1763      4D41585F 
 1763      5F203078 
 1763      66666666 
 1764 085d 01       		.byte	0x1
 1765 085e 00       		.uleb128 0
 1766 085f 5F5F5743 		.ascii "__WCHAR_MIN__ 0\0"
 1766      4841525F 
 1766      4D494E5F 
 1766      5F203000 
 1767 086f 01       		.byte	0x1
 1768 0870 00       		.uleb128 0
 1769 0871 5F5F5749 		.ascii "__WINT_MAX__ 0xffff\0"
 1769      4E545F4D 
 1769      41585F5F 
 1769      20307866 
 1769      66666600 
 1770 0885 01       		.byte	0x1
 1771 0886 00       		.uleb128 0
 1772 0887 5F5F5749 		.ascii "__WINT_MIN__ 0\0"
 1772      4E545F4D 
 1772      494E5F5F 
 1772      203000
 1773 0896 01       		.byte	0x1
 1774 0897 00       		.uleb128 0
 1775 0898 5F5F5054 		.ascii "__PTRDIFF_MAX__ 0x7fffffff\0"
 1775      52444946 
 1775      465F4D41 
 1775      585F5F20 
 1775      30783766 
 1776 08b3 01       		.byte	0x1
 1777 08b4 00       		.uleb128 0
 1778 08b5 5F5F5349 		.ascii "__SIZE_MAX__ 0xffffffffU\0"
 1778      5A455F4D 
 1778      41585F5F 
 1778      20307866 
 1778      66666666 
 1779 08ce 01       		.byte	0x1
 1780 08cf 00       		.uleb128 0
 1781 08d0 5F5F5343 		.ascii "__SCHAR_WIDTH__ 8\0"
 1781      4841525F 
 1781      57494454 
 1781      485F5F20 
 1781      3800
 1782 08e2 01       		.byte	0x1
 1783 08e3 00       		.uleb128 0
 1784 08e4 5F5F5348 		.ascii "__SHRT_WIDTH__ 16\0"
 1784      52545F57 
 1784      49445448 
 1784      5F5F2031 
 1784      3600
 1785 08f6 01       		.byte	0x1
 1786 08f7 00       		.uleb128 0
GAS LISTING C:\Users\PRESID~1\AppData\Local\Temp\ccD5yOAh.s 			page 47


 1787 08f8 5F5F494E 		.ascii "__INT_WIDTH__ 32\0"
 1787      545F5749 
 1787      4454485F 
 1787      5F203332 
 1787      00
 1788 0909 01       		.byte	0x1
 1789 090a 00       		.uleb128 0
 1790 090b 5F5F4C4F 		.ascii "__LONG_WIDTH__ 32\0"
 1790      4E475F57 
 1790      49445448 
 1790      5F5F2033 
 1790      3200
 1791 091d 01       		.byte	0x1
 1792 091e 00       		.uleb128 0
 1793 091f 5F5F4C4F 		.ascii "__LONG_LONG_WIDTH__ 64\0"
 1793      4E475F4C 
 1793      4F4E475F 
 1793      57494454 
 1793      485F5F20 
 1794 0936 01       		.byte	0x1
 1795 0937 00       		.uleb128 0
 1796 0938 5F5F5743 		.ascii "__WCHAR_WIDTH__ 16\0"
 1796      4841525F 
 1796      57494454 
 1796      485F5F20 
 1796      313600
 1797 094b 01       		.byte	0x1
 1798 094c 00       		.uleb128 0
 1799 094d 5F5F5749 		.ascii "__WINT_WIDTH__ 16\0"
 1799      4E545F57 
 1799      49445448 
 1799      5F5F2031 
 1799      3600
 1800 095f 01       		.byte	0x1
 1801 0960 00       		.uleb128 0
 1802 0961 5F5F5054 		.ascii "__PTRDIFF_WIDTH__ 32\0"
 1802      52444946 
 1802      465F5749 
 1802      4454485F 
 1802      5F203332 
 1803 0976 01       		.byte	0x1
 1804 0977 00       		.uleb128 0
 1805 0978 5F5F5349 		.ascii "__SIZE_WIDTH__ 32\0"
 1805      5A455F57 
 1805      49445448 
 1805      5F5F2033 
 1805      3200
 1806 098a 01       		.byte	0x1
 1807 098b 00       		.uleb128 0
 1808 098c 5F5F494E 		.ascii "__INTMAX_MAX__ 0x7fffffffffffffffLL\0"
 1808      544D4158 
 1808      5F4D4158 
 1808      5F5F2030 
 1808      78376666 
 1809 09b0 01       		.byte	0x1
 1810 09b1 00       		.uleb128 0
 1811 09b2 5F5F494E 		.ascii "__INTMAX_C(c) c ## LL\0"
GAS LISTING C:\Users\PRESID~1\AppData\Local\Temp\ccD5yOAh.s 			page 48


 1811      544D4158 
 1811      5F432863 
 1811      29206320 
 1811      2323204C 
 1812 09c8 01       		.byte	0x1
 1813 09c9 00       		.uleb128 0
 1814 09ca 5F5F5549 		.ascii "__UINTMAX_MAX__ 0xffffffffffffffffULL\0"
 1814      4E544D41 
 1814      585F4D41 
 1814      585F5F20 
 1814      30786666 
 1815 09f0 01       		.byte	0x1
 1816 09f1 00       		.uleb128 0
 1817 09f2 5F5F5549 		.ascii "__UINTMAX_C(c) c ## ULL\0"
 1817      4E544D41 
 1817      585F4328 
 1817      63292063 
 1817      20232320 
 1818 0a0a 01       		.byte	0x1
 1819 0a0b 00       		.uleb128 0
 1820 0a0c 5F5F494E 		.ascii "__INTMAX_WIDTH__ 64\0"
 1820      544D4158 
 1820      5F574944 
 1820      54485F5F 
 1820      20363400 
 1821 0a20 01       		.byte	0x1
 1822 0a21 00       		.uleb128 0
 1823 0a22 5F5F5349 		.ascii "__SIG_ATOMIC_MAX__ 0x7fffffff\0"
 1823      475F4154 
 1823      4F4D4943 
 1823      5F4D4158 
 1823      5F5F2030 
 1824 0a40 01       		.byte	0x1
 1825 0a41 00       		.uleb128 0
 1826 0a42 5F5F5349 		.ascii "__SIG_ATOMIC_MIN__ (-__SIG_ATOMIC_MAX__ - 1)\0"
 1826      475F4154 
 1826      4F4D4943 
 1826      5F4D494E 
 1826      5F5F2028 
 1827 0a6f 01       		.byte	0x1
 1828 0a70 00       		.uleb128 0
 1829 0a71 5F5F5349 		.ascii "__SIG_ATOMIC_WIDTH__ 32\0"
 1829      475F4154 
 1829      4F4D4943 
 1829      5F574944 
 1829      54485F5F 
 1830 0a89 01       		.byte	0x1
 1831 0a8a 00       		.uleb128 0
 1832 0a8b 5F5F494E 		.ascii "__INT8_MAX__ 0x7f\0"
 1832      54385F4D 
 1832      41585F5F 
 1832      20307837 
 1832      6600
 1833 0a9d 01       		.byte	0x1
 1834 0a9e 00       		.uleb128 0
 1835 0a9f 5F5F494E 		.ascii "__INT16_MAX__ 0x7fff\0"
 1835      5431365F 
GAS LISTING C:\Users\PRESID~1\AppData\Local\Temp\ccD5yOAh.s 			page 49


 1835      4D41585F 
 1835      5F203078 
 1835      37666666 
 1836 0ab4 01       		.byte	0x1
 1837 0ab5 00       		.uleb128 0
 1838 0ab6 5F5F494E 		.ascii "__INT32_MAX__ 0x7fffffff\0"
 1838      5433325F 
 1838      4D41585F 
 1838      5F203078 
 1838      37666666 
 1839 0acf 01       		.byte	0x1
 1840 0ad0 00       		.uleb128 0
 1841 0ad1 5F5F494E 		.ascii "__INT64_MAX__ 0x7fffffffffffffffLL\0"
 1841      5436345F 
 1841      4D41585F 
 1841      5F203078 
 1841      37666666 
 1842 0af4 01       		.byte	0x1
 1843 0af5 00       		.uleb128 0
 1844 0af6 5F5F5549 		.ascii "__UINT8_MAX__ 0xff\0"
 1844      4E54385F 
 1844      4D41585F 
 1844      5F203078 
 1844      666600
 1845 0b09 01       		.byte	0x1
 1846 0b0a 00       		.uleb128 0
 1847 0b0b 5F5F5549 		.ascii "__UINT16_MAX__ 0xffff\0"
 1847      4E543136 
 1847      5F4D4158 
 1847      5F5F2030 
 1847      78666666 
 1848 0b21 01       		.byte	0x1
 1849 0b22 00       		.uleb128 0
 1850 0b23 5F5F5549 		.ascii "__UINT32_MAX__ 0xffffffffU\0"
 1850      4E543332 
 1850      5F4D4158 
 1850      5F5F2030 
 1850      78666666 
 1851 0b3e 01       		.byte	0x1
 1852 0b3f 00       		.uleb128 0
 1853 0b40 5F5F5549 		.ascii "__UINT64_MAX__ 0xffffffffffffffffULL\0"
 1853      4E543634 
 1853      5F4D4158 
 1853      5F5F2030 
 1853      78666666 
 1854 0b65 01       		.byte	0x1
 1855 0b66 00       		.uleb128 0
 1856 0b67 5F5F494E 		.ascii "__INT_LEAST8_MAX__ 0x7f\0"
 1856      545F4C45 
 1856      41535438 
 1856      5F4D4158 
 1856      5F5F2030 
 1857 0b7f 01       		.byte	0x1
 1858 0b80 00       		.uleb128 0
 1859 0b81 5F5F494E 		.ascii "__INT8_C(c) c\0"
 1859      54385F43 
 1859      28632920 
GAS LISTING C:\Users\PRESID~1\AppData\Local\Temp\ccD5yOAh.s 			page 50


 1859      6300
 1860 0b8f 01       		.byte	0x1
 1861 0b90 00       		.uleb128 0
 1862 0b91 5F5F494E 		.ascii "__INT_LEAST8_WIDTH__ 8\0"
 1862      545F4C45 
 1862      41535438 
 1862      5F574944 
 1862      54485F5F 
 1863 0ba8 01       		.byte	0x1
 1864 0ba9 00       		.uleb128 0
 1865 0baa 5F5F494E 		.ascii "__INT_LEAST16_MAX__ 0x7fff\0"
 1865      545F4C45 
 1865      41535431 
 1865      365F4D41 
 1865      585F5F20 
 1866 0bc5 01       		.byte	0x1
 1867 0bc6 00       		.uleb128 0
 1868 0bc7 5F5F494E 		.ascii "__INT16_C(c) c\0"
 1868      5431365F 
 1868      43286329 
 1868      206300
 1869 0bd6 01       		.byte	0x1
 1870 0bd7 00       		.uleb128 0
 1871 0bd8 5F5F494E 		.ascii "__INT_LEAST16_WIDTH__ 16\0"
 1871      545F4C45 
 1871      41535431 
 1871      365F5749 
 1871      4454485F 
 1872 0bf1 01       		.byte	0x1
 1873 0bf2 00       		.uleb128 0
 1874 0bf3 5F5F494E 		.ascii "__INT_LEAST32_MAX__ 0x7fffffff\0"
 1874      545F4C45 
 1874      41535433 
 1874      325F4D41 
 1874      585F5F20 
 1875 0c12 01       		.byte	0x1
 1876 0c13 00       		.uleb128 0
 1877 0c14 5F5F494E 		.ascii "__INT32_C(c) c\0"
 1877      5433325F 
 1877      43286329 
 1877      206300
 1878 0c23 01       		.byte	0x1
 1879 0c24 00       		.uleb128 0
 1880 0c25 5F5F494E 		.ascii "__INT_LEAST32_WIDTH__ 32\0"
 1880      545F4C45 
 1880      41535433 
 1880      325F5749 
 1880      4454485F 
 1881 0c3e 01       		.byte	0x1
 1882 0c3f 00       		.uleb128 0
 1883 0c40 5F5F494E 		.ascii "__INT_LEAST64_MAX__ 0x7fffffffffffffffLL\0"
 1883      545F4C45 
 1883      41535436 
 1883      345F4D41 
 1883      585F5F20 
 1884 0c69 01       		.byte	0x1
 1885 0c6a 00       		.uleb128 0
GAS LISTING C:\Users\PRESID~1\AppData\Local\Temp\ccD5yOAh.s 			page 51


 1886 0c6b 5F5F494E 		.ascii "__INT64_C(c) c ## LL\0"
 1886      5436345F 
 1886      43286329 
 1886      20632023 
 1886      23204C4C 
 1887 0c80 01       		.byte	0x1
 1888 0c81 00       		.uleb128 0
 1889 0c82 5F5F494E 		.ascii "__INT_LEAST64_WIDTH__ 64\0"
 1889      545F4C45 
 1889      41535436 
 1889      345F5749 
 1889      4454485F 
 1890 0c9b 01       		.byte	0x1
 1891 0c9c 00       		.uleb128 0
 1892 0c9d 5F5F5549 		.ascii "__UINT_LEAST8_MAX__ 0xff\0"
 1892      4E545F4C 
 1892      45415354 
 1892      385F4D41 
 1892      585F5F20 
 1893 0cb6 01       		.byte	0x1
 1894 0cb7 00       		.uleb128 0
 1895 0cb8 5F5F5549 		.ascii "__UINT8_C(c) c\0"
 1895      4E54385F 
 1895      43286329 
 1895      206300
 1896 0cc7 01       		.byte	0x1
 1897 0cc8 00       		.uleb128 0
 1898 0cc9 5F5F5549 		.ascii "__UINT_LEAST16_MAX__ 0xffff\0"
 1898      4E545F4C 
 1898      45415354 
 1898      31365F4D 
 1898      41585F5F 
 1899 0ce5 01       		.byte	0x1
 1900 0ce6 00       		.uleb128 0
 1901 0ce7 5F5F5549 		.ascii "__UINT16_C(c) c\0"
 1901      4E543136 
 1901      5F432863 
 1901      29206300 
 1902 0cf7 01       		.byte	0x1
 1903 0cf8 00       		.uleb128 0
 1904 0cf9 5F5F5549 		.ascii "__UINT_LEAST32_MAX__ 0xffffffffU\0"
 1904      4E545F4C 
 1904      45415354 
 1904      33325F4D 
 1904      41585F5F 
 1905 0d1a 01       		.byte	0x1
 1906 0d1b 00       		.uleb128 0
 1907 0d1c 5F5F5549 		.ascii "__UINT32_C(c) c ## U\0"
 1907      4E543332 
 1907      5F432863 
 1907      29206320 
 1907      23232055 
 1908 0d31 01       		.byte	0x1
 1909 0d32 00       		.uleb128 0
 1910 0d33 5F5F5549 		.ascii "__UINT_LEAST64_MAX__ 0xffffffffffffffffULL\0"
 1910      4E545F4C 
 1910      45415354 
GAS LISTING C:\Users\PRESID~1\AppData\Local\Temp\ccD5yOAh.s 			page 52


 1910      36345F4D 
 1910      41585F5F 
 1911 0d5e 01       		.byte	0x1
 1912 0d5f 00       		.uleb128 0
 1913 0d60 5F5F5549 		.ascii "__UINT64_C(c) c ## ULL\0"
 1913      4E543634 
 1913      5F432863 
 1913      29206320 
 1913      23232055 
 1914 0d77 01       		.byte	0x1
 1915 0d78 00       		.uleb128 0
 1916 0d79 5F5F494E 		.ascii "__INT_FAST8_MAX__ 0x7f\0"
 1916      545F4641 
 1916      5354385F 
 1916      4D41585F 
 1916      5F203078 
 1917 0d90 01       		.byte	0x1
 1918 0d91 00       		.uleb128 0
 1919 0d92 5F5F494E 		.ascii "__INT_FAST8_WIDTH__ 8\0"
 1919      545F4641 
 1919      5354385F 
 1919      57494454 
 1919      485F5F20 
 1920 0da8 01       		.byte	0x1
 1921 0da9 00       		.uleb128 0
 1922 0daa 5F5F494E 		.ascii "__INT_FAST16_MAX__ 0x7fff\0"
 1922      545F4641 
 1922      53543136 
 1922      5F4D4158 
 1922      5F5F2030 
 1923 0dc4 01       		.byte	0x1
 1924 0dc5 00       		.uleb128 0
 1925 0dc6 5F5F494E 		.ascii "__INT_FAST16_WIDTH__ 16\0"
 1925      545F4641 
 1925      53543136 
 1925      5F574944 
 1925      54485F5F 
 1926 0dde 01       		.byte	0x1
 1927 0ddf 00       		.uleb128 0
 1928 0de0 5F5F494E 		.ascii "__INT_FAST32_MAX__ 0x7fffffff\0"
 1928      545F4641 
 1928      53543332 
 1928      5F4D4158 
 1928      5F5F2030 
 1929 0dfe 01       		.byte	0x1
 1930 0dff 00       		.uleb128 0
 1931 0e00 5F5F494E 		.ascii "__INT_FAST32_WIDTH__ 32\0"
 1931      545F4641 
 1931      53543332 
 1931      5F574944 
 1931      54485F5F 
 1932 0e18 01       		.byte	0x1
 1933 0e19 00       		.uleb128 0
 1934 0e1a 5F5F494E 		.ascii "__INT_FAST64_MAX__ 0x7fffffffffffffffLL\0"
 1934      545F4641 
 1934      53543634 
 1934      5F4D4158 
GAS LISTING C:\Users\PRESID~1\AppData\Local\Temp\ccD5yOAh.s 			page 53


 1934      5F5F2030 
 1935 0e42 01       		.byte	0x1
 1936 0e43 00       		.uleb128 0
 1937 0e44 5F5F494E 		.ascii "__INT_FAST64_WIDTH__ 64\0"
 1937      545F4641 
 1937      53543634 
 1937      5F574944 
 1937      54485F5F 
 1938 0e5c 01       		.byte	0x1
 1939 0e5d 00       		.uleb128 0
 1940 0e5e 5F5F5549 		.ascii "__UINT_FAST8_MAX__ 0xff\0"
 1940      4E545F46 
 1940      41535438 
 1940      5F4D4158 
 1940      5F5F2030 
 1941 0e76 01       		.byte	0x1
 1942 0e77 00       		.uleb128 0
 1943 0e78 5F5F5549 		.ascii "__UINT_FAST16_MAX__ 0xffff\0"
 1943      4E545F46 
 1943      41535431 
 1943      365F4D41 
 1943      585F5F20 
 1944 0e93 01       		.byte	0x1
 1945 0e94 00       		.uleb128 0
 1946 0e95 5F5F5549 		.ascii "__UINT_FAST32_MAX__ 0xffffffffU\0"
 1946      4E545F46 
 1946      41535433 
 1946      325F4D41 
 1946      585F5F20 
 1947 0eb5 01       		.byte	0x1
 1948 0eb6 00       		.uleb128 0
 1949 0eb7 5F5F5549 		.ascii "__UINT_FAST64_MAX__ 0xffffffffffffffffULL\0"
 1949      4E545F46 
 1949      41535436 
 1949      345F4D41 
 1949      585F5F20 
 1950 0ee1 01       		.byte	0x1
 1951 0ee2 00       		.uleb128 0
 1952 0ee3 5F5F494E 		.ascii "__INTPTR_MAX__ 0x7fffffff\0"
 1952      54505452 
 1952      5F4D4158 
 1952      5F5F2030 
 1952      78376666 
 1953 0efd 01       		.byte	0x1
 1954 0efe 00       		.uleb128 0
 1955 0eff 5F5F494E 		.ascii "__INTPTR_WIDTH__ 32\0"
 1955      54505452 
 1955      5F574944 
 1955      54485F5F 
 1955      20333200 
 1956 0f13 01       		.byte	0x1
 1957 0f14 00       		.uleb128 0
 1958 0f15 5F5F5549 		.ascii "__UINTPTR_MAX__ 0xffffffffU\0"
 1958      4E545054 
 1958      525F4D41 
 1958      585F5F20 
 1958      30786666 
GAS LISTING C:\Users\PRESID~1\AppData\Local\Temp\ccD5yOAh.s 			page 54


 1959 0f31 01       		.byte	0x1
 1960 0f32 00       		.uleb128 0
 1961 0f33 5F5F4743 		.ascii "__GCC_IEC_559 2\0"
 1961      435F4945 
 1961      435F3535 
 1961      39203200 
 1962 0f43 01       		.byte	0x1
 1963 0f44 00       		.uleb128 0
 1964 0f45 5F5F4743 		.ascii "__GCC_IEC_559_COMPLEX 2\0"
 1964      435F4945 
 1964      435F3535 
 1964      395F434F 
 1964      4D504C45 
 1965 0f5d 01       		.byte	0x1
 1966 0f5e 00       		.uleb128 0
 1967 0f5f 5F5F464C 		.ascii "__FLT_EVAL_METHOD__ 2\0"
 1967      545F4556 
 1967      414C5F4D 
 1967      4554484F 
 1967      445F5F20 
 1968 0f75 01       		.byte	0x1
 1969 0f76 00       		.uleb128 0
 1970 0f77 5F5F464C 		.ascii "__FLT_EVAL_METHOD_TS_18661_3__ 2\0"
 1970      545F4556 
 1970      414C5F4D 
 1970      4554484F 
 1970      445F5453 
 1971 0f98 01       		.byte	0x1
 1972 0f99 00       		.uleb128 0
 1973 0f9a 5F5F4445 		.ascii "__DEC_EVAL_METHOD__ 2\0"
 1973      435F4556 
 1973      414C5F4D 
 1973      4554484F 
 1973      445F5F20 
 1974 0fb0 01       		.byte	0x1
 1975 0fb1 00       		.uleb128 0
 1976 0fb2 5F5F464C 		.ascii "__FLT_RADIX__ 2\0"
 1976      545F5241 
 1976      4449585F 
 1976      5F203200 
 1977 0fc2 01       		.byte	0x1
 1978 0fc3 00       		.uleb128 0
 1979 0fc4 5F5F464C 		.ascii "__FLT_MANT_DIG__ 24\0"
 1979      545F4D41 
 1979      4E545F44 
 1979      49475F5F 
 1979      20323400 
 1980 0fd8 01       		.byte	0x1
 1981 0fd9 00       		.uleb128 0
 1982 0fda 5F5F464C 		.ascii "__FLT_DIG__ 6\0"
 1982      545F4449 
 1982      475F5F20 
 1982      3600
 1983 0fe8 01       		.byte	0x1
 1984 0fe9 00       		.uleb128 0
 1985 0fea 5F5F464C 		.ascii "__FLT_MIN_EXP__ (-125)\0"
 1985      545F4D49 
GAS LISTING C:\Users\PRESID~1\AppData\Local\Temp\ccD5yOAh.s 			page 55


 1985      4E5F4558 
 1985      505F5F20 
 1985      282D3132 
 1986 1001 01       		.byte	0x1
 1987 1002 00       		.uleb128 0
 1988 1003 5F5F464C 		.ascii "__FLT_MIN_10_EXP__ (-37)\0"
 1988      545F4D49 
 1988      4E5F3130 
 1988      5F455850 
 1988      5F5F2028 
 1989 101c 01       		.byte	0x1
 1990 101d 00       		.uleb128 0
 1991 101e 5F5F464C 		.ascii "__FLT_MAX_EXP__ 128\0"
 1991      545F4D41 
 1991      585F4558 
 1991      505F5F20 
 1991      31323800 
 1992 1032 01       		.byte	0x1
 1993 1033 00       		.uleb128 0
 1994 1034 5F5F464C 		.ascii "__FLT_MAX_10_EXP__ 38\0"
 1994      545F4D41 
 1994      585F3130 
 1994      5F455850 
 1994      5F5F2033 
 1995 104a 01       		.byte	0x1
 1996 104b 00       		.uleb128 0
 1997 104c 5F5F464C 		.ascii "__FLT_DECIMAL_DIG__ 9\0"
 1997      545F4445 
 1997      43494D41 
 1997      4C5F4449 
 1997      475F5F20 
 1998 1062 01       		.byte	0x1
 1999 1063 00       		.uleb128 0
 2000 1064 5F5F464C 		.ascii "__FLT_MAX__ 3.40282346638528859811704183484516925e+38F\0"
 2000      545F4D41 
 2000      585F5F20 
 2000      332E3430 
 2000      32383233 
 2001 109b 01       		.byte	0x1
 2002 109c 00       		.uleb128 0
 2003 109d 5F5F464C 		.ascii "__FLT_MIN__ 1.17549435082228750796873653722224568e-38F\0"
 2003      545F4D49 
 2003      4E5F5F20 
 2003      312E3137 
 2003      35343934 
 2004 10d4 01       		.byte	0x1
 2005 10d5 00       		.uleb128 0
 2006 10d6 5F5F464C 		.ascii "__FLT_EPSILON__ 1.19209289550781250000000000000000000e-7F\0"
 2006      545F4550 
 2006      53494C4F 
 2006      4E5F5F20 
 2006      312E3139 
 2007 1110 01       		.byte	0x1
 2008 1111 00       		.uleb128 0
 2009 1112 5F5F464C 		.ascii "__FLT_DENORM_MIN__ 1.40129846432481707092372958328991613e-45F\0"
 2009      545F4445 
 2009      4E4F524D 
GAS LISTING C:\Users\PRESID~1\AppData\Local\Temp\ccD5yOAh.s 			page 56


 2009      5F4D494E 
 2009      5F5F2031 
 2010 1150 01       		.byte	0x1
 2011 1151 00       		.uleb128 0
 2012 1152 5F5F464C 		.ascii "__FLT_HAS_DENORM__ 1\0"
 2012      545F4841 
 2012      535F4445 
 2012      4E4F524D 
 2012      5F5F2031 
 2013 1167 01       		.byte	0x1
 2014 1168 00       		.uleb128 0
 2015 1169 5F5F464C 		.ascii "__FLT_HAS_INFINITY__ 1\0"
 2015      545F4841 
 2015      535F494E 
 2015      46494E49 
 2015      54595F5F 
 2016 1180 01       		.byte	0x1
 2017 1181 00       		.uleb128 0
 2018 1182 5F5F464C 		.ascii "__FLT_HAS_QUIET_NAN__ 1\0"
 2018      545F4841 
 2018      535F5155 
 2018      4945545F 
 2018      4E414E5F 
 2019 119a 01       		.byte	0x1
 2020 119b 00       		.uleb128 0
 2021 119c 5F5F4442 		.ascii "__DBL_MANT_DIG__ 53\0"
 2021      4C5F4D41 
 2021      4E545F44 
 2021      49475F5F 
 2021      20353300 
 2022 11b0 01       		.byte	0x1
 2023 11b1 00       		.uleb128 0
 2024 11b2 5F5F4442 		.ascii "__DBL_DIG__ 15\0"
 2024      4C5F4449 
 2024      475F5F20 
 2024      313500
 2025 11c1 01       		.byte	0x1
 2026 11c2 00       		.uleb128 0
 2027 11c3 5F5F4442 		.ascii "__DBL_MIN_EXP__ (-1021)\0"
 2027      4C5F4D49 
 2027      4E5F4558 
 2027      505F5F20 
 2027      282D3130 
 2028 11db 01       		.byte	0x1
 2029 11dc 00       		.uleb128 0
 2030 11dd 5F5F4442 		.ascii "__DBL_MIN_10_EXP__ (-307)\0"
 2030      4C5F4D49 
 2030      4E5F3130 
 2030      5F455850 
 2030      5F5F2028 
 2031 11f7 01       		.byte	0x1
 2032 11f8 00       		.uleb128 0
 2033 11f9 5F5F4442 		.ascii "__DBL_MAX_EXP__ 1024\0"
 2033      4C5F4D41 
 2033      585F4558 
 2033      505F5F20 
 2033      31303234 
GAS LISTING C:\Users\PRESID~1\AppData\Local\Temp\ccD5yOAh.s 			page 57


 2034 120e 01       		.byte	0x1
 2035 120f 00       		.uleb128 0
 2036 1210 5F5F4442 		.ascii "__DBL_MAX_10_EXP__ 308\0"
 2036      4C5F4D41 
 2036      585F3130 
 2036      5F455850 
 2036      5F5F2033 
 2037 1227 01       		.byte	0x1
 2038 1228 00       		.uleb128 0
 2039 1229 5F5F4442 		.ascii "__DBL_DECIMAL_DIG__ 17\0"
 2039      4C5F4445 
 2039      43494D41 
 2039      4C5F4449 
 2039      475F5F20 
 2040 1240 01       		.byte	0x1
 2041 1241 00       		.uleb128 0
 2042 1242 5F5F4442 		.ascii "__DBL_MAX__ ((double)1.79769313486231570814527423731704357e+308L)\0"
 2042      4C5F4D41 
 2042      585F5F20 
 2042      2828646F 
 2042      75626C65 
 2043 1284 01       		.byte	0x1
 2044 1285 00       		.uleb128 0
 2045 1286 5F5F4442 		.ascii "__DBL_MIN__ ((double)2.22507385850720138309023271733240406e-308L)\0"
 2045      4C5F4D49 
 2045      4E5F5F20 
 2045      2828646F 
 2045      75626C65 
 2046 12c8 01       		.byte	0x1
 2047 12c9 00       		.uleb128 0
 2048 12ca 5F5F4442 		.ascii "__DBL_EPSILON__ ((double)2.22044604925031308084726333618164062e-16L)\0"
 2048      4C5F4550 
 2048      53494C4F 
 2048      4E5F5F20 
 2048      2828646F 
 2049 130f 01       		.byte	0x1
 2050 1310 00       		.uleb128 0
 2051 1311 5F5F4442 		.ascii "__DBL_DENORM_MIN__ ((double)4.94065645841246544176568792868221372e-324L)\0"
 2051      4C5F4445 
 2051      4E4F524D 
 2051      5F4D494E 
 2051      5F5F2028 
 2052 135a 01       		.byte	0x1
 2053 135b 00       		.uleb128 0
 2054 135c 5F5F4442 		.ascii "__DBL_HAS_DENORM__ 1\0"
 2054      4C5F4841 
 2054      535F4445 
 2054      4E4F524D 
 2054      5F5F2031 
 2055 1371 01       		.byte	0x1
 2056 1372 00       		.uleb128 0
 2057 1373 5F5F4442 		.ascii "__DBL_HAS_INFINITY__ 1\0"
 2057      4C5F4841 
 2057      535F494E 
 2057      46494E49 
 2057      54595F5F 
 2058 138a 01       		.byte	0x1
GAS LISTING C:\Users\PRESID~1\AppData\Local\Temp\ccD5yOAh.s 			page 58


 2059 138b 00       		.uleb128 0
 2060 138c 5F5F4442 		.ascii "__DBL_HAS_QUIET_NAN__ 1\0"
 2060      4C5F4841 
 2060      535F5155 
 2060      4945545F 
 2060      4E414E5F 
 2061 13a4 01       		.byte	0x1
 2062 13a5 00       		.uleb128 0
 2063 13a6 5F5F4C44 		.ascii "__LDBL_MANT_DIG__ 64\0"
 2063      424C5F4D 
 2063      414E545F 
 2063      4449475F 
 2063      5F203634 
 2064 13bb 01       		.byte	0x1
 2065 13bc 00       		.uleb128 0
 2066 13bd 5F5F4C44 		.ascii "__LDBL_DIG__ 18\0"
 2066      424C5F44 
 2066      49475F5F 
 2066      20313800 
 2067 13cd 01       		.byte	0x1
 2068 13ce 00       		.uleb128 0
 2069 13cf 5F5F4C44 		.ascii "__LDBL_MIN_EXP__ (-16381)\0"
 2069      424C5F4D 
 2069      494E5F45 
 2069      58505F5F 
 2069      20282D31 
 2070 13e9 01       		.byte	0x1
 2071 13ea 00       		.uleb128 0
 2072 13eb 5F5F4C44 		.ascii "__LDBL_MIN_10_EXP__ (-4931)\0"
 2072      424C5F4D 
 2072      494E5F31 
 2072      305F4558 
 2072      505F5F20 
 2073 1407 01       		.byte	0x1
 2074 1408 00       		.uleb128 0
 2075 1409 5F5F4C44 		.ascii "__LDBL_MAX_EXP__ 16384\0"
 2075      424C5F4D 
 2075      41585F45 
 2075      58505F5F 
 2075      20313633 
 2076 1420 01       		.byte	0x1
 2077 1421 00       		.uleb128 0
 2078 1422 5F5F4C44 		.ascii "__LDBL_MAX_10_EXP__ 4932\0"
 2078      424C5F4D 
 2078      41585F31 
 2078      305F4558 
 2078      505F5F20 
 2079 143b 01       		.byte	0x1
 2080 143c 00       		.uleb128 0
 2081 143d 5F5F4445 		.ascii "__DECIMAL_DIG__ 21\0"
 2081      43494D41 
 2081      4C5F4449 
 2081      475F5F20 
 2081      323100
 2082 1450 01       		.byte	0x1
 2083 1451 00       		.uleb128 0
 2084 1452 5F5F4C44 		.ascii "__LDBL_DECIMAL_DIG__ 21\0"
GAS LISTING C:\Users\PRESID~1\AppData\Local\Temp\ccD5yOAh.s 			page 59


 2084      424C5F44 
 2084      4543494D 
 2084      414C5F44 
 2084      49475F5F 
 2085 146a 01       		.byte	0x1
 2086 146b 00       		.uleb128 0
 2087 146c 5F5F4C44 		.ascii "__LDBL_MAX__ 1.18973149535723176502126385303097021e+4932L\0"
 2087      424C5F4D 
 2087      41585F5F 
 2087      20312E31 
 2087      38393733 
 2088 14a6 01       		.byte	0x1
 2089 14a7 00       		.uleb128 0
 2090 14a8 5F5F4C44 		.ascii "__LDBL_MIN__ 3.36210314311209350626267781732175260e-4932L\0"
 2090      424C5F4D 
 2090      494E5F5F 
 2090      20332E33 
 2090      36323130 
 2091 14e2 01       		.byte	0x1
 2092 14e3 00       		.uleb128 0
 2093 14e4 5F5F4C44 		.ascii "__LDBL_EPSILON__ 1.08420217248550443400745280086994171e-19L\0"
 2093      424C5F45 
 2093      5053494C 
 2093      4F4E5F5F 
 2093      20312E30 
 2094 1520 01       		.byte	0x1
 2095 1521 00       		.uleb128 0
 2096 1522 5F5F4C44 		.ascii "__LDBL_DENORM_MIN__ 3.64519953188247460252840593361941982e-4951L\0"
 2096      424C5F44 
 2096      454E4F52 
 2096      4D5F4D49 
 2096      4E5F5F20 
 2097 1563 01       		.byte	0x1
 2098 1564 00       		.uleb128 0
 2099 1565 5F5F4C44 		.ascii "__LDBL_HAS_DENORM__ 1\0"
 2099      424C5F48 
 2099      41535F44 
 2099      454E4F52 
 2099      4D5F5F20 
 2100 157b 01       		.byte	0x1
 2101 157c 00       		.uleb128 0
 2102 157d 5F5F4C44 		.ascii "__LDBL_HAS_INFINITY__ 1\0"
 2102      424C5F48 
 2102      41535F49 
 2102      4E46494E 
 2102      4954595F 
 2103 1595 01       		.byte	0x1
 2104 1596 00       		.uleb128 0
 2105 1597 5F5F4C44 		.ascii "__LDBL_HAS_QUIET_NAN__ 1\0"
 2105      424C5F48 
 2105      41535F51 
 2105      55494554 
 2105      5F4E414E 
 2106 15b0 01       		.byte	0x1
 2107 15b1 00       		.uleb128 0
 2108 15b2 5F5F464C 		.ascii "__FLT32_MANT_DIG__ 24\0"
 2108      5433325F 
GAS LISTING C:\Users\PRESID~1\AppData\Local\Temp\ccD5yOAh.s 			page 60


 2108      4D414E54 
 2108      5F444947 
 2108      5F5F2032 
 2109 15c8 01       		.byte	0x1
 2110 15c9 00       		.uleb128 0
 2111 15ca 5F5F464C 		.ascii "__FLT32_DIG__ 6\0"
 2111      5433325F 
 2111      4449475F 
 2111      5F203600 
 2112 15da 01       		.byte	0x1
 2113 15db 00       		.uleb128 0
 2114 15dc 5F5F464C 		.ascii "__FLT32_MIN_EXP__ (-125)\0"
 2114      5433325F 
 2114      4D494E5F 
 2114      4558505F 
 2114      5F20282D 
 2115 15f5 01       		.byte	0x1
 2116 15f6 00       		.uleb128 0
 2117 15f7 5F5F464C 		.ascii "__FLT32_MIN_10_EXP__ (-37)\0"
 2117      5433325F 
 2117      4D494E5F 
 2117      31305F45 
 2117      58505F5F 
 2118 1612 01       		.byte	0x1
 2119 1613 00       		.uleb128 0
 2120 1614 5F5F464C 		.ascii "__FLT32_MAX_EXP__ 128\0"
 2120      5433325F 
 2120      4D41585F 
 2120      4558505F 
 2120      5F203132 
 2121 162a 01       		.byte	0x1
 2122 162b 00       		.uleb128 0
 2123 162c 5F5F464C 		.ascii "__FLT32_MAX_10_EXP__ 38\0"
 2123      5433325F 
 2123      4D41585F 
 2123      31305F45 
 2123      58505F5F 
 2124 1644 01       		.byte	0x1
 2125 1645 00       		.uleb128 0
 2126 1646 5F5F464C 		.ascii "__FLT32_DECIMAL_DIG__ 9\0"
 2126      5433325F 
 2126      44454349 
 2126      4D414C5F 
 2126      4449475F 
 2127 165e 01       		.byte	0x1
 2128 165f 00       		.uleb128 0
 2129 1660 5F5F464C 		.ascii "__FLT32_MAX__ 3.40282346638528859811704183484516925e+38F32\0"
 2129      5433325F 
 2129      4D41585F 
 2129      5F20332E 
 2129      34303238 
 2130 169b 01       		.byte	0x1
 2131 169c 00       		.uleb128 0
 2132 169d 5F5F464C 		.ascii "__FLT32_MIN__ 1.17549435082228750796873653722224568e-38F32\0"
 2132      5433325F 
 2132      4D494E5F 
 2132      5F20312E 
GAS LISTING C:\Users\PRESID~1\AppData\Local\Temp\ccD5yOAh.s 			page 61


 2132      31373534 
 2133 16d8 01       		.byte	0x1
 2134 16d9 00       		.uleb128 0
 2135 16da 5F5F464C 		.ascii "__FLT32_EPSILON__ 1.19209289550781250000000000000000000e-7F32\0"
 2135      5433325F 
 2135      45505349 
 2135      4C4F4E5F 
 2135      5F20312E 
 2136 1718 01       		.byte	0x1
 2137 1719 00       		.uleb128 0
 2138 171a 5F5F464C 		.ascii "__FLT32_DENORM_MIN__ 1.40129846432481707092372958328991613e-45F32\0"
 2138      5433325F 
 2138      44454E4F 
 2138      524D5F4D 
 2138      494E5F5F 
 2139 175c 01       		.byte	0x1
 2140 175d 00       		.uleb128 0
 2141 175e 5F5F464C 		.ascii "__FLT32_HAS_DENORM__ 1\0"
 2141      5433325F 
 2141      4841535F 
 2141      44454E4F 
 2141      524D5F5F 
 2142 1775 01       		.byte	0x1
 2143 1776 00       		.uleb128 0
 2144 1777 5F5F464C 		.ascii "__FLT32_HAS_INFINITY__ 1\0"
 2144      5433325F 
 2144      4841535F 
 2144      494E4649 
 2144      4E495459 
 2145 1790 01       		.byte	0x1
 2146 1791 00       		.uleb128 0
 2147 1792 5F5F464C 		.ascii "__FLT32_HAS_QUIET_NAN__ 1\0"
 2147      5433325F 
 2147      4841535F 
 2147      51554945 
 2147      545F4E41 
 2148 17ac 01       		.byte	0x1
 2149 17ad 00       		.uleb128 0
 2150 17ae 5F5F464C 		.ascii "__FLT64_MANT_DIG__ 53\0"
 2150      5436345F 
 2150      4D414E54 
 2150      5F444947 
 2150      5F5F2035 
 2151 17c4 01       		.byte	0x1
 2152 17c5 00       		.uleb128 0
 2153 17c6 5F5F464C 		.ascii "__FLT64_DIG__ 15\0"
 2153      5436345F 
 2153      4449475F 
 2153      5F203135 
 2153      00
 2154 17d7 01       		.byte	0x1
 2155 17d8 00       		.uleb128 0
 2156 17d9 5F5F464C 		.ascii "__FLT64_MIN_EXP__ (-1021)\0"
 2156      5436345F 
 2156      4D494E5F 
 2156      4558505F 
 2156      5F20282D 
GAS LISTING C:\Users\PRESID~1\AppData\Local\Temp\ccD5yOAh.s 			page 62


 2157 17f3 01       		.byte	0x1
 2158 17f4 00       		.uleb128 0
 2159 17f5 5F5F464C 		.ascii "__FLT64_MIN_10_EXP__ (-307)\0"
 2159      5436345F 
 2159      4D494E5F 
 2159      31305F45 
 2159      58505F5F 
 2160 1811 01       		.byte	0x1
 2161 1812 00       		.uleb128 0
 2162 1813 5F5F464C 		.ascii "__FLT64_MAX_EXP__ 1024\0"
 2162      5436345F 
 2162      4D41585F 
 2162      4558505F 
 2162      5F203130 
 2163 182a 01       		.byte	0x1
 2164 182b 00       		.uleb128 0
 2165 182c 5F5F464C 		.ascii "__FLT64_MAX_10_EXP__ 308\0"
 2165      5436345F 
 2165      4D41585F 
 2165      31305F45 
 2165      58505F5F 
 2166 1845 01       		.byte	0x1
 2167 1846 00       		.uleb128 0
 2168 1847 5F5F464C 		.ascii "__FLT64_DECIMAL_DIG__ 17\0"
 2168      5436345F 
 2168      44454349 
 2168      4D414C5F 
 2168      4449475F 
 2169 1860 01       		.byte	0x1
 2170 1861 00       		.uleb128 0
 2171 1862 5F5F464C 		.ascii "__FLT64_MAX__ 1.79769313486231570814527423731704357e+308F64\0"
 2171      5436345F 
 2171      4D41585F 
 2171      5F20312E 
 2171      37393736 
 2172 189e 01       		.byte	0x1
 2173 189f 00       		.uleb128 0
 2174 18a0 5F5F464C 		.ascii "__FLT64_MIN__ 2.22507385850720138309023271733240406e-308F64\0"
 2174      5436345F 
 2174      4D494E5F 
 2174      5F20322E 
 2174      32323530 
 2175 18dc 01       		.byte	0x1
 2176 18dd 00       		.uleb128 0
 2177 18de 5F5F464C 		.ascii "__FLT64_EPSILON__ 2.22044604925031308084726333618164062e-16F64\0"
 2177      5436345F 
 2177      45505349 
 2177      4C4F4E5F 
 2177      5F20322E 
 2178 191d 01       		.byte	0x1
 2179 191e 00       		.uleb128 0
 2180 191f 5F5F464C 		.ascii "__FLT64_DENORM_MIN__ 4.94065645841246544176568792868221372e-324F64\0"
 2180      5436345F 
 2180      44454E4F 
 2180      524D5F4D 
 2180      494E5F5F 
 2181 1962 01       		.byte	0x1
GAS LISTING C:\Users\PRESID~1\AppData\Local\Temp\ccD5yOAh.s 			page 63


 2182 1963 00       		.uleb128 0
 2183 1964 5F5F464C 		.ascii "__FLT64_HAS_DENORM__ 1\0"
 2183      5436345F 
 2183      4841535F 
 2183      44454E4F 
 2183      524D5F5F 
 2184 197b 01       		.byte	0x1
 2185 197c 00       		.uleb128 0
 2186 197d 5F5F464C 		.ascii "__FLT64_HAS_INFINITY__ 1\0"
 2186      5436345F 
 2186      4841535F 
 2186      494E4649 
 2186      4E495459 
 2187 1996 01       		.byte	0x1
 2188 1997 00       		.uleb128 0
 2189 1998 5F5F464C 		.ascii "__FLT64_HAS_QUIET_NAN__ 1\0"
 2189      5436345F 
 2189      4841535F 
 2189      51554945 
 2189      545F4E41 
 2190 19b2 01       		.byte	0x1
 2191 19b3 00       		.uleb128 0
 2192 19b4 5F5F464C 		.ascii "__FLT128_MANT_DIG__ 113\0"
 2192      54313238 
 2192      5F4D414E 
 2192      545F4449 
 2192      475F5F20 
 2193 19cc 01       		.byte	0x1
 2194 19cd 00       		.uleb128 0
 2195 19ce 5F5F464C 		.ascii "__FLT128_DIG__ 33\0"
 2195      54313238 
 2195      5F444947 
 2195      5F5F2033 
 2195      3300
 2196 19e0 01       		.byte	0x1
 2197 19e1 00       		.uleb128 0
 2198 19e2 5F5F464C 		.ascii "__FLT128_MIN_EXP__ (-16381)\0"
 2198      54313238 
 2198      5F4D494E 
 2198      5F455850 
 2198      5F5F2028 
 2199 19fe 01       		.byte	0x1
 2200 19ff 00       		.uleb128 0
 2201 1a00 5F5F464C 		.ascii "__FLT128_MIN_10_EXP__ (-4931)\0"
 2201      54313238 
 2201      5F4D494E 
 2201      5F31305F 
 2201      4558505F 
 2202 1a1e 01       		.byte	0x1
 2203 1a1f 00       		.uleb128 0
 2204 1a20 5F5F464C 		.ascii "__FLT128_MAX_EXP__ 16384\0"
 2204      54313238 
 2204      5F4D4158 
 2204      5F455850 
 2204      5F5F2031 
 2205 1a39 01       		.byte	0x1
 2206 1a3a 00       		.uleb128 0
GAS LISTING C:\Users\PRESID~1\AppData\Local\Temp\ccD5yOAh.s 			page 64


 2207 1a3b 5F5F464C 		.ascii "__FLT128_MAX_10_EXP__ 4932\0"
 2207      54313238 
 2207      5F4D4158 
 2207      5F31305F 
 2207      4558505F 
 2208 1a56 01       		.byte	0x1
 2209 1a57 00       		.uleb128 0
 2210 1a58 5F5F464C 		.ascii "__FLT128_DECIMAL_DIG__ 36\0"
 2210      54313238 
 2210      5F444543 
 2210      494D414C 
 2210      5F444947 
 2211 1a72 01       		.byte	0x1
 2212 1a73 00       		.uleb128 0
 2213 1a74 5F5F464C 		.ascii "__FLT128_MAX__ 1.18973149535723176508575932662800702e+4932F128\0"
 2213      54313238 
 2213      5F4D4158 
 2213      5F5F2031 
 2213      2E313839 
 2214 1ab3 01       		.byte	0x1
 2215 1ab4 00       		.uleb128 0
 2216 1ab5 5F5F464C 		.ascii "__FLT128_MIN__ 3.36210314311209350626267781732175260e-4932F128\0"
 2216      54313238 
 2216      5F4D494E 
 2216      5F5F2033 
 2216      2E333632 
 2217 1af4 01       		.byte	0x1
 2218 1af5 00       		.uleb128 0
 2219 1af6 5F5F464C 		.ascii "__FLT128_EPSILON__ 1.92592994438723585305597794258492732e-34F128\0"
 2219      54313238 
 2219      5F455053 
 2219      494C4F4E 
 2219      5F5F2031 
 2220 1b37 01       		.byte	0x1
 2221 1b38 00       		.uleb128 0
 2222 1b39 5F5F464C 		.ascii "__FLT128_DENORM_MIN__ 6.47517511943802511092443895822764655e-4966F128\0"
 2222      54313238 
 2222      5F44454E 
 2222      4F524D5F 
 2222      4D494E5F 
 2223 1b7f 01       		.byte	0x1
 2224 1b80 00       		.uleb128 0
 2225 1b81 5F5F464C 		.ascii "__FLT128_HAS_DENORM__ 1\0"
 2225      54313238 
 2225      5F484153 
 2225      5F44454E 
 2225      4F524D5F 
 2226 1b99 01       		.byte	0x1
 2227 1b9a 00       		.uleb128 0
 2228 1b9b 5F5F464C 		.ascii "__FLT128_HAS_INFINITY__ 1\0"
 2228      54313238 
 2228      5F484153 
 2228      5F494E46 
 2228      494E4954 
 2229 1bb5 01       		.byte	0x1
 2230 1bb6 00       		.uleb128 0
 2231 1bb7 5F5F464C 		.ascii "__FLT128_HAS_QUIET_NAN__ 1\0"
GAS LISTING C:\Users\PRESID~1\AppData\Local\Temp\ccD5yOAh.s 			page 65


 2231      54313238 
 2231      5F484153 
 2231      5F515549 
 2231      45545F4E 
 2232 1bd2 01       		.byte	0x1
 2233 1bd3 00       		.uleb128 0
 2234 1bd4 5F5F464C 		.ascii "__FLT32X_MANT_DIG__ 53\0"
 2234      54333258 
 2234      5F4D414E 
 2234      545F4449 
 2234      475F5F20 
 2235 1beb 01       		.byte	0x1
 2236 1bec 00       		.uleb128 0
 2237 1bed 5F5F464C 		.ascii "__FLT32X_DIG__ 15\0"
 2237      54333258 
 2237      5F444947 
 2237      5F5F2031 
 2237      3500
 2238 1bff 01       		.byte	0x1
 2239 1c00 00       		.uleb128 0
 2240 1c01 5F5F464C 		.ascii "__FLT32X_MIN_EXP__ (-1021)\0"
 2240      54333258 
 2240      5F4D494E 
 2240      5F455850 
 2240      5F5F2028 
 2241 1c1c 01       		.byte	0x1
 2242 1c1d 00       		.uleb128 0
 2243 1c1e 5F5F464C 		.ascii "__FLT32X_MIN_10_EXP__ (-307)\0"
 2243      54333258 
 2243      5F4D494E 
 2243      5F31305F 
 2243      4558505F 
 2244 1c3b 01       		.byte	0x1
 2245 1c3c 00       		.uleb128 0
 2246 1c3d 5F5F464C 		.ascii "__FLT32X_MAX_EXP__ 1024\0"
 2246      54333258 
 2246      5F4D4158 
 2246      5F455850 
 2246      5F5F2031 
 2247 1c55 01       		.byte	0x1
 2248 1c56 00       		.uleb128 0
 2249 1c57 5F5F464C 		.ascii "__FLT32X_MAX_10_EXP__ 308\0"
 2249      54333258 
 2249      5F4D4158 
 2249      5F31305F 
 2249      4558505F 
 2250 1c71 01       		.byte	0x1
 2251 1c72 00       		.uleb128 0
 2252 1c73 5F5F464C 		.ascii "__FLT32X_DECIMAL_DIG__ 17\0"
 2252      54333258 
 2252      5F444543 
 2252      494D414C 
 2252      5F444947 
 2253 1c8d 01       		.byte	0x1
 2254 1c8e 00       		.uleb128 0
 2255 1c8f 5F5F464C 		.ascii "__FLT32X_MAX__ 1.79769313486231570814527423731704357e+308F32x\0"
 2255      54333258 
GAS LISTING C:\Users\PRESID~1\AppData\Local\Temp\ccD5yOAh.s 			page 66


 2255      5F4D4158 
 2255      5F5F2031 
 2255      2E373937 
 2256 1ccd 01       		.byte	0x1
 2257 1cce 00       		.uleb128 0
 2258 1ccf 5F5F464C 		.ascii "__FLT32X_MIN__ 2.22507385850720138309023271733240406e-308F32x\0"
 2258      54333258 
 2258      5F4D494E 
 2258      5F5F2032 
 2258      2E323235 
 2259 1d0d 01       		.byte	0x1
 2260 1d0e 00       		.uleb128 0
 2261 1d0f 5F5F464C 		.ascii "__FLT32X_EPSILON__ 2.22044604925031308084726333618164062e-16F32x\0"
 2261      54333258 
 2261      5F455053 
 2261      494C4F4E 
 2261      5F5F2032 
 2262 1d50 01       		.byte	0x1
 2263 1d51 00       		.uleb128 0
 2264 1d52 5F5F464C 		.ascii "__FLT32X_DENORM_MIN__ 4.94065645841246544176568792868221372e-324F32x\0"
 2264      54333258 
 2264      5F44454E 
 2264      4F524D5F 
 2264      4D494E5F 
 2265 1d97 01       		.byte	0x1
 2266 1d98 00       		.uleb128 0
 2267 1d99 5F5F464C 		.ascii "__FLT32X_HAS_DENORM__ 1\0"
 2267      54333258 
 2267      5F484153 
 2267      5F44454E 
 2267      4F524D5F 
 2268 1db1 01       		.byte	0x1
 2269 1db2 00       		.uleb128 0
 2270 1db3 5F5F464C 		.ascii "__FLT32X_HAS_INFINITY__ 1\0"
 2270      54333258 
 2270      5F484153 
 2270      5F494E46 
 2270      494E4954 
 2271 1dcd 01       		.byte	0x1
 2272 1dce 00       		.uleb128 0
 2273 1dcf 5F5F464C 		.ascii "__FLT32X_HAS_QUIET_NAN__ 1\0"
 2273      54333258 
 2273      5F484153 
 2273      5F515549 
 2273      45545F4E 
 2274 1dea 01       		.byte	0x1
 2275 1deb 00       		.uleb128 0
 2276 1dec 5F5F464C 		.ascii "__FLT64X_MANT_DIG__ 64\0"
 2276      54363458 
 2276      5F4D414E 
 2276      545F4449 
 2276      475F5F20 
 2277 1e03 01       		.byte	0x1
 2278 1e04 00       		.uleb128 0
 2279 1e05 5F5F464C 		.ascii "__FLT64X_DIG__ 18\0"
 2279      54363458 
 2279      5F444947 
GAS LISTING C:\Users\PRESID~1\AppData\Local\Temp\ccD5yOAh.s 			page 67


 2279      5F5F2031 
 2279      3800
 2280 1e17 01       		.byte	0x1
 2281 1e18 00       		.uleb128 0
 2282 1e19 5F5F464C 		.ascii "__FLT64X_MIN_EXP__ (-16381)\0"
 2282      54363458 
 2282      5F4D494E 
 2282      5F455850 
 2282      5F5F2028 
 2283 1e35 01       		.byte	0x1
 2284 1e36 00       		.uleb128 0
 2285 1e37 5F5F464C 		.ascii "__FLT64X_MIN_10_EXP__ (-4931)\0"
 2285      54363458 
 2285      5F4D494E 
 2285      5F31305F 
 2285      4558505F 
 2286 1e55 01       		.byte	0x1
 2287 1e56 00       		.uleb128 0
 2288 1e57 5F5F464C 		.ascii "__FLT64X_MAX_EXP__ 16384\0"
 2288      54363458 
 2288      5F4D4158 
 2288      5F455850 
 2288      5F5F2031 
 2289 1e70 01       		.byte	0x1
 2290 1e71 00       		.uleb128 0
 2291 1e72 5F5F464C 		.ascii "__FLT64X_MAX_10_EXP__ 4932\0"
 2291      54363458 
 2291      5F4D4158 
 2291      5F31305F 
 2291      4558505F 
 2292 1e8d 01       		.byte	0x1
 2293 1e8e 00       		.uleb128 0
 2294 1e8f 5F5F464C 		.ascii "__FLT64X_DECIMAL_DIG__ 21\0"
 2294      54363458 
 2294      5F444543 
 2294      494D414C 
 2294      5F444947 
 2295 1ea9 01       		.byte	0x1
 2296 1eaa 00       		.uleb128 0
 2297 1eab 5F5F464C 		.ascii "__FLT64X_MAX__ 1.18973149535723176502126385303097021e+4932F64x\0"
 2297      54363458 
 2297      5F4D4158 
 2297      5F5F2031 
 2297      2E313839 
 2298 1eea 01       		.byte	0x1
 2299 1eeb 00       		.uleb128 0
 2300 1eec 5F5F464C 		.ascii "__FLT64X_MIN__ 3.36210314311209350626267781732175260e-4932F64x\0"
 2300      54363458 
 2300      5F4D494E 
 2300      5F5F2033 
 2300      2E333632 
 2301 1f2b 01       		.byte	0x1
 2302 1f2c 00       		.uleb128 0
 2303 1f2d 5F5F464C 		.ascii "__FLT64X_EPSILON__ 1.08420217248550443400745280086994171e-19F64x\0"
 2303      54363458 
 2303      5F455053 
 2303      494C4F4E 
GAS LISTING C:\Users\PRESID~1\AppData\Local\Temp\ccD5yOAh.s 			page 68


 2303      5F5F2031 
 2304 1f6e 01       		.byte	0x1
 2305 1f6f 00       		.uleb128 0
 2306 1f70 5F5F464C 		.ascii "__FLT64X_DENORM_MIN__ 3.64519953188247460252840593361941982e-4951F64x\0"
 2306      54363458 
 2306      5F44454E 
 2306      4F524D5F 
 2306      4D494E5F 
 2307 1fb6 01       		.byte	0x1
 2308 1fb7 00       		.uleb128 0
 2309 1fb8 5F5F464C 		.ascii "__FLT64X_HAS_DENORM__ 1\0"
 2309      54363458 
 2309      5F484153 
 2309      5F44454E 
 2309      4F524D5F 
 2310 1fd0 01       		.byte	0x1
 2311 1fd1 00       		.uleb128 0
 2312 1fd2 5F5F464C 		.ascii "__FLT64X_HAS_INFINITY__ 1\0"
 2312      54363458 
 2312      5F484153 
 2312      5F494E46 
 2312      494E4954 
 2313 1fec 01       		.byte	0x1
 2314 1fed 00       		.uleb128 0
 2315 1fee 5F5F464C 		.ascii "__FLT64X_HAS_QUIET_NAN__ 1\0"
 2315      54363458 
 2315      5F484153 
 2315      5F515549 
 2315      45545F4E 
 2316 2009 01       		.byte	0x1
 2317 200a 00       		.uleb128 0
 2318 200b 5F5F4445 		.ascii "__DEC32_MANT_DIG__ 7\0"
 2318      4333325F 
 2318      4D414E54 
 2318      5F444947 
 2318      5F5F2037 
 2319 2020 01       		.byte	0x1
 2320 2021 00       		.uleb128 0
 2321 2022 5F5F4445 		.ascii "__DEC32_MIN_EXP__ (-94)\0"
 2321      4333325F 
 2321      4D494E5F 
 2321      4558505F 
 2321      5F20282D 
 2322 203a 01       		.byte	0x1
 2323 203b 00       		.uleb128 0
 2324 203c 5F5F4445 		.ascii "__DEC32_MAX_EXP__ 97\0"
 2324      4333325F 
 2324      4D41585F 
 2324      4558505F 
 2324      5F203937 
 2325 2051 01       		.byte	0x1
 2326 2052 00       		.uleb128 0
 2327 2053 5F5F4445 		.ascii "__DEC32_MIN__ 1E-95DF\0"
 2327      4333325F 
 2327      4D494E5F 
 2327      5F203145 
 2327      2D393544 
GAS LISTING C:\Users\PRESID~1\AppData\Local\Temp\ccD5yOAh.s 			page 69


 2328 2069 01       		.byte	0x1
 2329 206a 00       		.uleb128 0
 2330 206b 5F5F4445 		.ascii "__DEC32_MAX__ 9.999999E96DF\0"
 2330      4333325F 
 2330      4D41585F 
 2330      5F20392E 
 2330      39393939 
 2331 2087 01       		.byte	0x1
 2332 2088 00       		.uleb128 0
 2333 2089 5F5F4445 		.ascii "__DEC32_EPSILON__ 1E-6DF\0"
 2333      4333325F 
 2333      45505349 
 2333      4C4F4E5F 
 2333      5F203145 
 2334 20a2 01       		.byte	0x1
 2335 20a3 00       		.uleb128 0
 2336 20a4 5F5F4445 		.ascii "__DEC32_SUBNORMAL_MIN__ 0.000001E-95DF\0"
 2336      4333325F 
 2336      5355424E 
 2336      4F524D41 
 2336      4C5F4D49 
 2337 20cb 01       		.byte	0x1
 2338 20cc 00       		.uleb128 0
 2339 20cd 5F5F4445 		.ascii "__DEC64_MANT_DIG__ 16\0"
 2339      4336345F 
 2339      4D414E54 
 2339      5F444947 
 2339      5F5F2031 
 2340 20e3 01       		.byte	0x1
 2341 20e4 00       		.uleb128 0
 2342 20e5 5F5F4445 		.ascii "__DEC64_MIN_EXP__ (-382)\0"
 2342      4336345F 
 2342      4D494E5F 
 2342      4558505F 
 2342      5F20282D 
 2343 20fe 01       		.byte	0x1
 2344 20ff 00       		.uleb128 0
 2345 2100 5F5F4445 		.ascii "__DEC64_MAX_EXP__ 385\0"
 2345      4336345F 
 2345      4D41585F 
 2345      4558505F 
 2345      5F203338 
 2346 2116 01       		.byte	0x1
 2347 2117 00       		.uleb128 0
 2348 2118 5F5F4445 		.ascii "__DEC64_MIN__ 1E-383DD\0"
 2348      4336345F 
 2348      4D494E5F 
 2348      5F203145 
 2348      2D333833 
 2349 212f 01       		.byte	0x1
 2350 2130 00       		.uleb128 0
 2351 2131 5F5F4445 		.ascii "__DEC64_MAX__ 9.999999999999999E384DD\0"
 2351      4336345F 
 2351      4D41585F 
 2351      5F20392E 
 2351      39393939 
 2352 2157 01       		.byte	0x1
GAS LISTING C:\Users\PRESID~1\AppData\Local\Temp\ccD5yOAh.s 			page 70


 2353 2158 00       		.uleb128 0
 2354 2159 5F5F4445 		.ascii "__DEC64_EPSILON__ 1E-15DD\0"
 2354      4336345F 
 2354      45505349 
 2354      4C4F4E5F 
 2354      5F203145 
 2355 2173 01       		.byte	0x1
 2356 2174 00       		.uleb128 0
 2357 2175 5F5F4445 		.ascii "__DEC64_SUBNORMAL_MIN__ 0.000000000000001E-383DD\0"
 2357      4336345F 
 2357      5355424E 
 2357      4F524D41 
 2357      4C5F4D49 
 2358 21a6 01       		.byte	0x1
 2359 21a7 00       		.uleb128 0
 2360 21a8 5F5F4445 		.ascii "__DEC128_MANT_DIG__ 34\0"
 2360      43313238 
 2360      5F4D414E 
 2360      545F4449 
 2360      475F5F20 
 2361 21bf 01       		.byte	0x1
 2362 21c0 00       		.uleb128 0
 2363 21c1 5F5F4445 		.ascii "__DEC128_MIN_EXP__ (-6142)\0"
 2363      43313238 
 2363      5F4D494E 
 2363      5F455850 
 2363      5F5F2028 
 2364 21dc 01       		.byte	0x1
 2365 21dd 00       		.uleb128 0
 2366 21de 5F5F4445 		.ascii "__DEC128_MAX_EXP__ 6145\0"
 2366      43313238 
 2366      5F4D4158 
 2366      5F455850 
 2366      5F5F2036 
 2367 21f6 01       		.byte	0x1
 2368 21f7 00       		.uleb128 0
 2369 21f8 5F5F4445 		.ascii "__DEC128_MIN__ 1E-6143DL\0"
 2369      43313238 
 2369      5F4D494E 
 2369      5F5F2031 
 2369      452D3631 
 2370 2211 01       		.byte	0x1
 2371 2212 00       		.uleb128 0
 2372 2213 5F5F4445 		.ascii "__DEC128_MAX__ 9.999999999999999999999999999999999E6144DL\0"
 2372      43313238 
 2372      5F4D4158 
 2372      5F5F2039 
 2372      2E393939 
 2373 224d 01       		.byte	0x1
 2374 224e 00       		.uleb128 0
 2375 224f 5F5F4445 		.ascii "__DEC128_EPSILON__ 1E-33DL\0"
 2375      43313238 
 2375      5F455053 
 2375      494C4F4E 
 2375      5F5F2031 
 2376 226a 01       		.byte	0x1
 2377 226b 00       		.uleb128 0
GAS LISTING C:\Users\PRESID~1\AppData\Local\Temp\ccD5yOAh.s 			page 71


 2378 226c 5F5F4445 		.ascii "__DEC128_SUBNORMAL_MIN__ 0.000000000000000000000000000000001E-6143DL\0"
 2378      43313238 
 2378      5F535542 
 2378      4E4F524D 
 2378      414C5F4D 
 2379 22b1 01       		.byte	0x1
 2380 22b2 00       		.uleb128 0
 2381 22b3 5F5F5245 		.ascii "__REGISTER_PREFIX__ \0"
 2381      47495354 
 2381      45525F50 
 2381      52454649 
 2381      585F5F20 
 2382 22c8 01       		.byte	0x1
 2383 22c9 00       		.uleb128 0
 2384 22ca 5F5F5553 		.ascii "__USER_LABEL_PREFIX__ _\0"
 2384      45525F4C 
 2384      4142454C 
 2384      5F505245 
 2384      4649585F 
 2385 22e2 01       		.byte	0x1
 2386 22e3 00       		.uleb128 0
 2387 22e4 5F5F474E 		.ascii "__GNUC_GNU_INLINE__ 1\0"
 2387      55435F47 
 2387      4E555F49 
 2387      4E4C494E 
 2387      455F5F20 
 2388 22fa 01       		.byte	0x1
 2389 22fb 00       		.uleb128 0
 2390 22fc 5F5F4E4F 		.ascii "__NO_INLINE__ 1\0"
 2390      5F494E4C 
 2390      494E455F 
 2390      5F203100 
 2391 230c 01       		.byte	0x1
 2392 230d 00       		.uleb128 0
 2393 230e 5F5F5354 		.ascii "__STRICT_ANSI__ 1\0"
 2393      52494354 
 2393      5F414E53 
 2393      495F5F20 
 2393      3100
 2394 2320 01       		.byte	0x1
 2395 2321 00       		.uleb128 0
 2396 2322 5F5F4743 		.ascii "__GCC_ATOMIC_BOOL_LOCK_FREE 1\0"
 2396      435F4154 
 2396      4F4D4943 
 2396      5F424F4F 
 2396      4C5F4C4F 
 2397 2340 01       		.byte	0x1
 2398 2341 00       		.uleb128 0
 2399 2342 5F5F4743 		.ascii "__GCC_ATOMIC_CHAR_LOCK_FREE 1\0"
 2399      435F4154 
 2399      4F4D4943 
 2399      5F434841 
 2399      525F4C4F 
 2400 2360 01       		.byte	0x1
 2401 2361 00       		.uleb128 0
 2402 2362 5F5F4743 		.ascii "__GCC_ATOMIC_CHAR16_T_LOCK_FREE 1\0"
 2402      435F4154 
GAS LISTING C:\Users\PRESID~1\AppData\Local\Temp\ccD5yOAh.s 			page 72


 2402      4F4D4943 
 2402      5F434841 
 2402      5231365F 
 2403 2384 01       		.byte	0x1
 2404 2385 00       		.uleb128 0
 2405 2386 5F5F4743 		.ascii "__GCC_ATOMIC_CHAR32_T_LOCK_FREE 1\0"
 2405      435F4154 
 2405      4F4D4943 
 2405      5F434841 
 2405      5233325F 
 2406 23a8 01       		.byte	0x1
 2407 23a9 00       		.uleb128 0
 2408 23aa 5F5F4743 		.ascii "__GCC_ATOMIC_WCHAR_T_LOCK_FREE 1\0"
 2408      435F4154 
 2408      4F4D4943 
 2408      5F574348 
 2408      41525F54 
 2409 23cb 01       		.byte	0x1
 2410 23cc 00       		.uleb128 0
 2411 23cd 5F5F4743 		.ascii "__GCC_ATOMIC_SHORT_LOCK_FREE 1\0"
 2411      435F4154 
 2411      4F4D4943 
 2411      5F53484F 
 2411      52545F4C 
 2412 23ec 01       		.byte	0x1
 2413 23ed 00       		.uleb128 0
 2414 23ee 5F5F4743 		.ascii "__GCC_ATOMIC_INT_LOCK_FREE 1\0"
 2414      435F4154 
 2414      4F4D4943 
 2414      5F494E54 
 2414      5F4C4F43 
 2415 240b 01       		.byte	0x1
 2416 240c 00       		.uleb128 0
 2417 240d 5F5F4743 		.ascii "__GCC_ATOMIC_LONG_LOCK_FREE 1\0"
 2417      435F4154 
 2417      4F4D4943 
 2417      5F4C4F4E 
 2417      475F4C4F 
 2418 242b 01       		.byte	0x1
 2419 242c 00       		.uleb128 0
 2420 242d 5F5F4743 		.ascii "__GCC_ATOMIC_LLONG_LOCK_FREE 1\0"
 2420      435F4154 
 2420      4F4D4943 
 2420      5F4C4C4F 
 2420      4E475F4C 
 2421 244c 01       		.byte	0x1
 2422 244d 00       		.uleb128 0
 2423 244e 5F5F4743 		.ascii "__GCC_ATOMIC_TEST_AND_SET_TRUEVAL 1\0"
 2423      435F4154 
 2423      4F4D4943 
 2423      5F544553 
 2423      545F414E 
 2424 2472 01       		.byte	0x1
 2425 2473 00       		.uleb128 0
 2426 2474 5F5F4743 		.ascii "__GCC_ATOMIC_POINTER_LOCK_FREE 1\0"
 2426      435F4154 
 2426      4F4D4943 
GAS LISTING C:\Users\PRESID~1\AppData\Local\Temp\ccD5yOAh.s 			page 73


 2426      5F504F49 
 2426      4E544552 
 2427 2495 01       		.byte	0x1
 2428 2496 00       		.uleb128 0
 2429 2497 5F5F4743 		.ascii "__GCC_HAVE_DWARF2_CFI_ASM 1\0"
 2429      435F4841 
 2429      56455F44 
 2429      57415246 
 2429      325F4346 
 2430 24b3 01       		.byte	0x1
 2431 24b4 00       		.uleb128 0
 2432 24b5 5F5F5052 		.ascii "__PRAGMA_REDEFINE_EXTNAME 1\0"
 2432      41474D41 
 2432      5F524544 
 2432      4546494E 
 2432      455F4558 
 2433 24d1 01       		.byte	0x1
 2434 24d2 00       		.uleb128 0
 2435 24d3 5F5F5349 		.ascii "__SIZEOF_WCHAR_T__ 2\0"
 2435      5A454F46 
 2435      5F574348 
 2435      41525F54 
 2435      5F5F2032 
 2436 24e8 01       		.byte	0x1
 2437 24e9 00       		.uleb128 0
 2438 24ea 5F5F5349 		.ascii "__SIZEOF_WINT_T__ 2\0"
 2438      5A454F46 
 2438      5F57494E 
 2438      545F545F 
 2438      5F203200 
 2439 24fe 01       		.byte	0x1
 2440 24ff 00       		.uleb128 0
 2441 2500 5F5F5349 		.ascii "__SIZEOF_PTRDIFF_T__ 4\0"
 2441      5A454F46 
 2441      5F505452 
 2441      44494646 
 2441      5F545F5F 
 2442 2517 01       		.byte	0x1
 2443 2518 00       		.uleb128 0
 2444 2519 5F5F6933 		.ascii "__i386 1\0"
 2444      38362031 
 2444      00
 2445 2522 01       		.byte	0x1
 2446 2523 00       		.uleb128 0
 2447 2524 5F5F6933 		.ascii "__i386__ 1\0"
 2447      38365F5F 
 2447      203100
 2448 252f 01       		.byte	0x1
 2449 2530 00       		.uleb128 0
 2450 2531 5F5F5349 		.ascii "__SIZEOF_FLOAT80__ 12\0"
 2450      5A454F46 
 2450      5F464C4F 
 2450      41543830 
 2450      5F5F2031 
 2451 2547 01       		.byte	0x1
 2452 2548 00       		.uleb128 0
 2453 2549 5F5F5349 		.ascii "__SIZEOF_FLOAT128__ 16\0"
GAS LISTING C:\Users\PRESID~1\AppData\Local\Temp\ccD5yOAh.s 			page 74


 2453      5A454F46 
 2453      5F464C4F 
 2453      41543132 
 2453      385F5F20 
 2454 2560 01       		.byte	0x1
 2455 2561 00       		.uleb128 0
 2456 2562 5F5F4154 		.ascii "__ATOMIC_HLE_ACQUIRE 65536\0"
 2456      4F4D4943 
 2456      5F484C45 
 2456      5F414351 
 2456      55495245 
 2457 257d 01       		.byte	0x1
 2458 257e 00       		.uleb128 0
 2459 257f 5F5F4154 		.ascii "__ATOMIC_HLE_RELEASE 131072\0"
 2459      4F4D4943 
 2459      5F484C45 
 2459      5F52454C 
 2459      45415345 
 2460 259b 01       		.byte	0x1
 2461 259c 00       		.uleb128 0
 2462 259d 5F5F4743 		.ascii "__GCC_ASM_FLAG_OUTPUTS__ 1\0"
 2462      435F4153 
 2462      4D5F464C 
 2462      41475F4F 
 2462      55545055 
 2463 25b8 01       		.byte	0x1
 2464 25b9 00       		.uleb128 0
 2465 25ba 5F5F7475 		.ascii "__tune_i386__ 1\0"
 2465      6E655F69 
 2465      3338365F 
 2465      5F203100 
 2466 25ca 01       		.byte	0x1
 2467 25cb 00       		.uleb128 0
 2468 25cc 5F5F636F 		.ascii "__code_model_32__ 1\0"
 2468      64655F6D 
 2468      6F64656C 
 2468      5F33325F 
 2468      5F203100 
 2469 25e0 01       		.byte	0x1
 2470 25e1 00       		.uleb128 0
 2471 25e2 5F5F5345 		.ascii "__SEG_FS 1\0"
 2471      475F4653 
 2471      203100
 2472 25ed 01       		.byte	0x1
 2473 25ee 00       		.uleb128 0
 2474 25ef 5F5F5345 		.ascii "__SEG_GS 1\0"
 2474      475F4753 
 2474      203100
 2475 25fa 01       		.byte	0x1
 2476 25fb 00       		.uleb128 0
 2477 25fc 5F583836 		.ascii "_X86_ 1\0"
 2477      5F203100 
 2478 2604 01       		.byte	0x1
 2479 2605 00       		.uleb128 0
 2480 2606 5F5F7374 		.ascii "__stdcall __attribute__((__stdcall__))\0"
 2480      6463616C 
 2480      6C205F5F 
GAS LISTING C:\Users\PRESID~1\AppData\Local\Temp\ccD5yOAh.s 			page 75


 2480      61747472 
 2480      69627574 
 2481 262d 01       		.byte	0x1
 2482 262e 00       		.uleb128 0
 2483 262f 5F5F6661 		.ascii "__fastcall __attribute__((__fastcall__))\0"
 2483      73746361 
 2483      6C6C205F 
 2483      5F617474 
 2483      72696275 
 2484 2658 01       		.byte	0x1
 2485 2659 00       		.uleb128 0
 2486 265a 5F5F7468 		.ascii "__thiscall __attribute__((__thiscall__))\0"
 2486      69736361 
 2486      6C6C205F 
 2486      5F617474 
 2486      72696275 
 2487 2683 01       		.byte	0x1
 2488 2684 00       		.uleb128 0
 2489 2685 5F5F6364 		.ascii "__cdecl __attribute__((__cdecl__))\0"
 2489      65636C20 
 2489      5F5F6174 
 2489      74726962 
 2489      7574655F 
 2490 26a8 01       		.byte	0x1
 2491 26a9 00       		.uleb128 0
 2492 26aa 5F5F4758 		.ascii "__GXX_MERGED_TYPEINFO_NAMES 0\0"
 2492      585F4D45 
 2492      52474544 
 2492      5F545950 
 2492      45494E46 
 2493 26c8 01       		.byte	0x1
 2494 26c9 00       		.uleb128 0
 2495 26ca 5F5F4758 		.ascii "__GXX_TYPEINFO_EQUALITY_INLINE 0\0"
 2495      585F5459 
 2495      5045494E 
 2495      464F5F45 
 2495      5155414C 
 2496 26eb 01       		.byte	0x1
 2497 26ec 00       		.uleb128 0
 2498 26ed 5F5F4D53 		.ascii "__MSVCRT__ 1\0"
 2498      56435254 
 2498      5F5F2031 
 2498      00
 2499 26fa 01       		.byte	0x1
 2500 26fb 00       		.uleb128 0
 2501 26fc 5F5F4D49 		.ascii "__MINGW32__ 1\0"
 2501      4E475733 
 2501      325F5F20 
 2501      3100
 2502 270a 01       		.byte	0x1
 2503 270b 00       		.uleb128 0
 2504 270c 5F57494E 		.ascii "_WIN32 1\0"
 2504      33322031 
 2504      00
 2505 2715 01       		.byte	0x1
 2506 2716 00       		.uleb128 0
 2507 2717 5F5F5749 		.ascii "__WIN32 1\0"
GAS LISTING C:\Users\PRESID~1\AppData\Local\Temp\ccD5yOAh.s 			page 76


 2507      4E333220 
 2507      3100
 2508 2721 01       		.byte	0x1
 2509 2722 00       		.uleb128 0
 2510 2723 5F5F5749 		.ascii "__WIN32__ 1\0"
 2510      4E33325F 
 2510      5F203100 
 2511 272f 01       		.byte	0x1
 2512 2730 00       		.uleb128 0
 2513 2731 5F5F5749 		.ascii "__WINNT 1\0"
 2513      4E4E5420 
 2513      3100
 2514 273b 01       		.byte	0x1
 2515 273c 00       		.uleb128 0
 2516 273d 5F5F5749 		.ascii "__WINNT__ 1\0"
 2516      4E4E545F 
 2516      5F203100 
 2517 2749 01       		.byte	0x1
 2518 274a 00       		.uleb128 0
 2519 274b 5F494E54 		.ascii "_INTEGRAL_MAX_BITS 64\0"
 2519      45475241 
 2519      4C5F4D41 
 2519      585F4249 
 2519      54532036 
 2520 2761 01       		.byte	0x1
 2521 2762 00       		.uleb128 0
 2522 2763 5F5F6465 		.ascii "__declspec(x) __attribute__((x))\0"
 2522      636C7370 
 2522      65632878 
 2522      29205F5F 
 2522      61747472 
 2523 2784 01       		.byte	0x1
 2524 2785 00       		.uleb128 0
 2525 2786 5F5F4445 		.ascii "__DECIMAL_BID_FORMAT__ 1\0"
 2525      43494D41 
 2525      4C5F4249 
 2525      445F464F 
 2525      524D4154 
 2526 279f 01       		.byte	0x1
 2527 27a0 00       		.uleb128 0
 2528 27a1 4346475F 		.ascii "CFG_PROCESSOR 3\0"
 2528      50524F43 
 2528      4553534F 
 2528      52203300 
 2529 27b1 03       		.byte	0x3
 2530 27b2 00       		.uleb128 0
 2531 27b3 01       		.uleb128 0x1
 2532              		.file 9 "C:/Users/president/Desktop/sbx/input/src/os_base/os_firstinc.h"
 2533 27b4 03       		.byte	0x3
 2534 27b5 01       		.uleb128 0x1
 2535 27b6 09       		.uleb128 0x9
 2536 27b7 01       		.byte	0x1
 2537 27b8 02       		.uleb128 0x2
 2538 27b9 5F4F535F 		.ascii "_OS_FIRSTINC_H_ \0"
 2538      46495253 
 2538      54494E43 
 2538      5F485F20 
GAS LISTING C:\Users\PRESID~1\AppData\Local\Temp\ccD5yOAh.s 			page 77


 2538      00
 2539              		.file 10 "c:/users/president/desktop/sbx/input/src/os_config.h"
 2540 27ca 03       		.byte	0x3
 2541 27cb 04       		.uleb128 0x4
 2542 27cc 0A       		.uleb128 0xa
 2543 27cd 01       		.byte	0x1
 2544 27ce 02       		.uleb128 0x2
 2545 27cf 5F4F535F 		.ascii "_OS_CONFIG_H_ \0"
 2545      434F4E46 
 2545      49475F48 
 2545      5F2000
 2546 27de 01       		.byte	0x1
 2547 27df 05       		.uleb128 0x5
 2548 27e0 494E5445 		.ascii "INTEGER_LLP64_IL32P64 1u\0"
 2548      4745525F 
 2548      4C4C5036 
 2548      345F494C 
 2548      33325036 
 2549 27f9 01       		.byte	0x1
 2550 27fa 06       		.uleb128 0x6
 2551 27fb 494E5445 		.ascii "INTEGER_LP64_I32LP64 2u\0"
 2551      4745525F 
 2551      4C503634 
 2551      5F493332 
 2551      4C503634 
 2552 2813 01       		.byte	0x1
 2553 2814 07       		.uleb128 0x7
 2554 2815 494E5445 		.ascii "INTEGER_ILP64 3u\0"
 2554      4745525F 
 2554      494C5036 
 2554      34203375 
 2554      00
 2555 2826 01       		.byte	0x1
 2556 2827 08       		.uleb128 0x8
 2557 2828 494E5445 		.ascii "INTEGER_SILP64 4u\0"
 2557      4745525F 
 2557      53494C50 
 2557      36342034 
 2557      7500
 2558 283a 01       		.byte	0x1
 2559 283b 09       		.uleb128 0x9
 2560 283c 494E5445 		.ascii "INTEGER_MODEL INTEGER_LLP64_IL32P64\0"
 2560      4745525F 
 2560      4D4F4445 
 2560      4C20494E 
 2560      54454745 
 2561 2860 01       		.byte	0x1
 2562 2861 0C       		.uleb128 0xc
 2563 2862 4350505F 		.ascii "CPP_VERSION_NONE 0u\0"
 2563      56455253 
 2563      494F4E5F 
 2563      4E4F4E45 
 2563      20307500 
 2564 2876 01       		.byte	0x1
 2565 2877 0D       		.uleb128 0xd
 2566 2878 4350505F 		.ascii "CPP_VERSION_1998 1u\0"
 2566      56455253 
GAS LISTING C:\Users\PRESID~1\AppData\Local\Temp\ccD5yOAh.s 			page 78


 2566      494F4E5F 
 2566      31393938 
 2566      20317500 
 2567 288c 01       		.byte	0x1
 2568 288d 0E       		.uleb128 0xe
 2569 288e 4350505F 		.ascii "CPP_VERSION_2003 2u\0"
 2569      56455253 
 2569      494F4E5F 
 2569      32303033 
 2569      20327500 
 2570 28a2 01       		.byte	0x1
 2571 28a3 0F       		.uleb128 0xf
 2572 28a4 4350505F 		.ascii "CPP_VERSION_2007 3u\0"
 2572      56455253 
 2572      494F4E5F 
 2572      32303037 
 2572      20337500 
 2573 28b8 01       		.byte	0x1
 2574 28b9 10       		.uleb128 0x10
 2575 28ba 4350505F 		.ascii "CPP_VERSION_2011 4u\0"
 2575      56455253 
 2575      494F4E5F 
 2575      32303131 
 2575      20347500 
 2576 28ce 01       		.byte	0x1
 2577 28cf 11       		.uleb128 0x11
 2578 28d0 49534F5F 		.ascii "ISO_CPP_VERSION CPP_VERSION_1998\0"
 2578      4350505F 
 2578      56455253 
 2578      494F4E20 
 2578      4350505F 
 2579 28f1 01       		.byte	0x1
 2580 28f2 14       		.uleb128 0x14
 2581 28f3 4249475F 		.ascii "BIG_INT_SIZE 16u\0"
 2581      494E545F 
 2581      53495A45 
 2581      20313675 
 2581      00
 2582 2904 01       		.byte	0x1
 2583 2905 17       		.uleb128 0x17
 2584 2906 4E525F4F 		.ascii "NR_OF_CORES 1u\0"
 2584      465F434F 
 2584      52455320 
 2584      317500
 2585 2915 01       		.byte	0x1
 2586 2916 1B       		.uleb128 0x1b
 2587 2917 4D43555F 		.ascii "MCU_CLOCK_IN_HZ ((uint32)168000000u)\0"
 2587      434C4F43 
 2587      4B5F494E 
 2587      5F485A20 
 2587      28287569 
 2588 293c 01       		.byte	0x1
 2589 293d 1D       		.uleb128 0x1d
 2590 293e 44594E41 		.ascii "DYNAMIC_MEMORY_USED FALSE\0"
 2590      4D49435F 
 2590      4D454D4F 
 2590      52595F55 
GAS LISTING C:\Users\PRESID~1\AppData\Local\Temp\ccD5yOAh.s 			page 79


 2590      53454420 
 2591 2958 01       		.byte	0x1
 2592 2959 1E       		.uleb128 0x1e
 2593 295a 4C4F4F50 		.ascii "LOOPTIME_IN_USEC ((uint32)10000u)\0"
 2593      54494D45 
 2593      5F494E5F 
 2593      55534543 
 2593      20282875 
 2594 297c 01       		.byte	0x1
 2595 297d 21       		.uleb128 0x21
 2596 297e 48454150 		.ascii "HEAP_SIZE 10000u\0"
 2596      5F53495A 
 2596      45203130 
 2596      30303075 
 2596      00
 2597 298f 01       		.byte	0x1
 2598 2990 22       		.uleb128 0x22
 2599 2991 4D494E5F 		.ascii "MIN_BLOCK_SIZE_HEAP 8u\0"
 2599      424C4F43 
 2599      4B5F5349 
 2599      5A455F48 
 2599      45415020 
 2600 29a8 01       		.byte	0x1
 2601 29a9 23       		.uleb128 0x23
 2602 29aa 48454150 		.ascii "HEAP_OFFSET_FOR_SIZE 0u\0"
 2602      5F4F4646 
 2602      5345545F 
 2602      464F525F 
 2602      53495A45 
 2603 29c2 01       		.byte	0x1
 2604 29c3 24       		.uleb128 0x24
 2605 29c4 48454150 		.ascii "HEAP_OFFSET_FOR_USED_SIZE 4u\0"
 2605      5F4F4646 
 2605      5345545F 
 2605      464F525F 
 2605      55534544 
 2606 29e1 01       		.byte	0x1
 2607 29e2 25       		.uleb128 0x25
 2608 29e3 48454150 		.ascii "HEAP_OFFSET_FOR_CHUNK 8u\0"
 2608      5F4F4646 
 2608      5345545F 
 2608      464F525F 
 2608      4348554E 
 2609 29fc 01       		.byte	0x1
 2610 29fd 28       		.uleb128 0x28
 2611 29fe 4F535F4D 		.ascii "OS_MAIN_STACK_SIZE 0x400u\0"
 2611      41494E5F 
 2611      53544143 
 2611      4B5F5349 
 2611      5A452030 
 2612 2a18 01       		.byte	0x1
 2613 2a19 29       		.uleb128 0x29
 2614 2a1a 4F535F50 		.ascii "OS_PROCESS_STACK_TASK1_SIZE 0x200u\0"
 2614      524F4345 
 2614      53535F53 
 2614      5441434B 
 2614      5F544153 
GAS LISTING C:\Users\PRESID~1\AppData\Local\Temp\ccD5yOAh.s 			page 80


 2615 2a3d 01       		.byte	0x1
 2616 2a3e 2A       		.uleb128 0x2a
 2617 2a3f 4F535F50 		.ascii "OS_PROCESS_STACK_TASK2_SIZE 0x200u\0"
 2617      524F4345 
 2617      53535F53 
 2617      5441434B 
 2617      5F544153 
 2618 2a62 01       		.byte	0x1
 2619 2a63 2B       		.uleb128 0x2b
 2620 2a64 4F535F50 		.ascii "OS_PROCESS_STACK_TASK3_SIZE 0x200u\0"
 2620      524F4345 
 2620      53535F53 
 2620      5441434B 
 2620      5F544153 
 2621 2a87 01       		.byte	0x1
 2622 2a88 2C       		.uleb128 0x2c
 2623 2a89 4F535F50 		.ascii "OS_PROCESS_STACK_TASK4_SIZE 0x200u\0"
 2623      524F4345 
 2623      53535F53 
 2623      5441434B 
 2623      5F544153 
 2624 2aac 04       		.byte	0x4
 2625 2aad 03       		.byte	0x3
 2626 2aae 05       		.uleb128 0x5
 2627 2aaf 02       		.uleb128 0x2
 2628 2ab0 01       		.byte	0x1
 2629 2ab1 02       		.uleb128 0x2
 2630 2ab2 5F4F535F 		.ascii "_OS_BASE_TYPES_H_ \0"
 2630      42415345 
 2630      5F545950 
 2630      45535F48 
 2630      5F2000
 2631 2ac5 04       		.byte	0x4
 2632 2ac6 03       		.byte	0x3
 2633 2ac7 06       		.uleb128 0x6
 2634 2ac8 03       		.uleb128 0x3
 2635 2ac9 01       		.byte	0x1
 2636 2aca 02       		.uleb128 0x2
 2637 2acb 5F4F535F 		.ascii "_OS_COMMON_H_ \0"
 2637      434F4D4D 
 2637      4F4E5F48 
 2637      5F2000
 2638 2ada 01       		.byte	0x1
 2639 2adb 06       		.uleb128 0x6
 2640 2adc 46414C53 		.ascii "FALSE 0u\0"
 2640      45203075 
 2640      00
 2641 2ae5 01       		.byte	0x1
 2642 2ae6 07       		.uleb128 0x7
 2643 2ae7 54525545 		.ascii "TRUE 1u\0"
 2643      20317500 
 2644 2aef 01       		.byte	0x1
 2645 2af0 08       		.uleb128 0x8
 2646 2af1 46616C73 		.ascii "False FALSE\0"
 2646      65204641 
 2646      4C534500 
 2647 2afd 01       		.byte	0x1
GAS LISTING C:\Users\PRESID~1\AppData\Local\Temp\ccD5yOAh.s 			page 81


 2648 2afe 09       		.uleb128 0x9
 2649 2aff 54727565 		.ascii "True TRUE\0"
 2649      20545255 
 2649      4500
 2650 2b09 01       		.byte	0x1
 2651 2b0a 0A       		.uleb128 0xa
 2652 2b0b 41434345 		.ascii "ACCEPTED 1u\0"
 2652      50544544 
 2652      20317500 
 2653 2b17 01       		.byte	0x1
 2654 2b18 0B       		.uleb128 0xb
 2655 2b19 52454A45 		.ascii "REJECTED 0u\0"
 2655      43544544 
 2655      20307500 
 2656 2b25 01       		.byte	0x1
 2657 2b26 0C       		.uleb128 0xc
 2658 2b27 4C4F4341 		.ascii "LOCAL static\0"
 2658      4C207374 
 2658      61746963 
 2658      00
 2659 2b34 01       		.byte	0x1
 2660 2b35 0D       		.uleb128 0xd
 2661 2b36 4C4F4341 		.ascii "LOCAL_INLINE static __inline__\0"
 2661      4C5F494E 
 2661      4C494E45 
 2661      20737461 
 2661      74696320 
 2662 2b55 01       		.byte	0x1
 2663 2b56 0E       		.uleb128 0xe
 2664 2b57 474C4F42 		.ascii "GLOBAL_INLINE __inline__\0"
 2664      414C5F49 
 2664      4E4C494E 
 2664      45205F5F 
 2664      696E6C69 
 2665 2b70 01       		.byte	0x1
 2666 2b71 0F       		.uleb128 0xf
 2667 2b72 52454645 		.ascii "REFERENCE_UNUSED_PARAMETER(x) ((x) = (x))\0"
 2667      52454E43 
 2667      455F554E 
 2667      55534544 
 2667      5F504152 
 2668 2b9c 01       		.byte	0x1
 2669 2b9d 10       		.uleb128 0x10
 2670 2b9e 4E554C4C 		.ascii "NULL ((void*)0)\0"
 2670      20282876 
 2670      6F69642A 
 2670      29302900 
 2671 2bae 01       		.byte	0x1
 2672 2baf 13       		.uleb128 0x13
 2673 2bb0 4D43555F 		.ascii "MCU_X86 3\0"
 2673      58383620 
 2673      3300
 2674 2bba 01       		.byte	0x1
 2675 2bbb 14       		.uleb128 0x14
 2676 2bbc 4D43555F 		.ascii "MCU_CORTEX_M4 4\0"
 2676      434F5254 
 2676      45585F4D 
GAS LISTING C:\Users\PRESID~1\AppData\Local\Temp\ccD5yOAh.s 			page 82


 2676      34203400 
 2677 2bcc 01       		.byte	0x1
 2678 2bcd 17       		.uleb128 0x17
 2679 2bce 4457545F 		.ascii "DWT_CTRL ((volatile uint32*)0xE0001000u)\0"
 2679      4354524C 
 2679      20282876 
 2679      6F6C6174 
 2679      696C6520 
 2680 2bf7 01       		.byte	0x1
 2681 2bf8 18       		.uleb128 0x18
 2682 2bf9 4457545F 		.ascii "DWT_CYCCNT ((volatile uint32*)0xE0001004u)\0"
 2682      43594343 
 2682      4E542028 
 2682      28766F6C 
 2682      6174696C 
 2683 2c24 01       		.byte	0x1
 2684 2c25 19       		.uleb128 0x19
 2685 2c26 4457545F 		.ascii "DWT_LAR ((volatile uint32*)0xE0001FB0u)\0"
 2685      4C415220 
 2685      2828766F 
 2685      6C617469 
 2685      6C652075 
 2686 2c4e 01       		.byte	0x1
 2687 2c4f 1A       		.uleb128 0x1a
 2688 2c50 5343425F 		.ascii "SCB_DEMCR ((volatile uint32*)0xE000EDFCu)\0"
 2688      44454D43 
 2688      52202828 
 2688      766F6C61 
 2688      74696C65 
 2689 2c7a 01       		.byte	0x1
 2690 2c7b 1D       		.uleb128 0x1d
 2691 2c7c 44495341 		.ascii "DISABLE_INTERRUPTS() \0"
 2691      424C455F 
 2691      494E5445 
 2691      52525550 
 2691      54532829 
 2692 2c92 01       		.byte	0x1
 2693 2c93 1E       		.uleb128 0x1e
 2694 2c94 454E4142 		.ascii "ENABLE_INTERRUPTS() \0"
 2694      4C455F49 
 2694      4E544552 
 2694      52555054 
 2694      53282920 
 2695 2ca9 01       		.byte	0x1
 2696 2caa 1F       		.uleb128 0x1f
 2697 2cab 50524956 		.ascii "PRIVILIGE_LEVEL_SAVE_CURRENT() \0"
 2697      494C4947 
 2697      455F4C45 
 2697      56454C5F 
 2697      53415645 
 2698 2ccb 01       		.byte	0x1
 2699 2ccc 20       		.uleb128 0x20
 2700 2ccd 50524956 		.ascii "PRIVILIGE_LEVEL_ENTER_KERNEL_MODE() \0"
 2700      494C4947 
 2700      455F4C45 
 2700      56454C5F 
 2700      454E5445 
GAS LISTING C:\Users\PRESID~1\AppData\Local\Temp\ccD5yOAh.s 			page 83


 2701 2cf2 01       		.byte	0x1
 2702 2cf3 21       		.uleb128 0x21
 2703 2cf4 50524956 		.ascii "PRIVILIGE_LEVEL_RESTORE_SAVED() \0"
 2703      494C4947 
 2703      455F4C45 
 2703      56454C5F 
 2703      52455354 
 2704 2d15 01       		.byte	0x1
 2705 2d16 22       		.uleb128 0x22
 2706 2d17 48414C54 		.ascii "HALT_MCU() \0"
 2706      5F4D4355 
 2706      28292000 
 2707 2d23 01       		.byte	0x1
 2708 2d24 42       		.uleb128 0x42
 2709 2d25 414D4F55 		.ascii "AMOUNT_SW_BUG_FUNCTIONS 22\0"
 2709      4E545F53 
 2709      575F4255 
 2709      475F4655 
 2709      4E435449 
 2710 2d40 04       		.byte	0x4
 2711              		.file 11 "c:/users/president/desktop/sbx/input/src/os_sim/lld_global.h"
 2712 2d41 03       		.byte	0x3
 2713 2d42 09       		.uleb128 0x9
 2714 2d43 0B       		.uleb128 0xb
 2715 2d44 01       		.byte	0x1
 2716 2d45 02       		.uleb128 0x2
 2717 2d46 5F4C4C44 		.ascii "_LLD_GLOBAL_H_ \0"
 2717      5F474C4F 
 2717      42414C5F 
 2717      485F2000 
 2718 2d56 03       		.byte	0x3
 2719 2d57 04       		.uleb128 0x4
 2720 2d58 04       		.uleb128 0x4
 2721 2d59 01       		.byte	0x1
 2722 2d5a 02       		.uleb128 0x2
 2723 2d5b 5F4C4C44 		.ascii "_LLD_CORE_H_ \0"
 2723      5F434F52 
 2723      455F485F 
 2723      2000
 2724              		.file 12 "c:/users/president/desktop/sbx/input/src/os_base/os_firstinc.h"
 2725 2d69 03       		.byte	0x3
 2726 2d6a 03       		.uleb128 0x3
 2727 2d6b 0C       		.uleb128 0xc
 2728 2d6c 04       		.byte	0x4
 2729 2d6d 04       		.byte	0x4
 2730              		.file 13 "c:/users/president/desktop/sbx/input/src/os_sim/lld_interrupt.h"
 2731 2d6e 03       		.byte	0x3
 2732 2d6f 05       		.uleb128 0x5
 2733 2d70 0D       		.uleb128 0xd
 2734 2d71 01       		.byte	0x1
 2735 2d72 02       		.uleb128 0x2
 2736 2d73 5F4C4C44 		.ascii "_LLD_INTERRUPT_H_ \0"
 2736      5F494E54 
 2736      45525255 
 2736      50545F48 
 2736      5F2000
 2737 2d86 01       		.byte	0x1
GAS LISTING C:\Users\PRESID~1\AppData\Local\Temp\ccD5yOAh.s 			page 84


 2738 2d87 05       		.uleb128 0x5
 2739 2d88 4F535F49 		.ascii "OS_INTERRUPT_SWI_1 asm(\"swi 1\")\0"
 2739      4E544552 
 2739      52555054 
 2739      5F535749 
 2739      5F312061 
 2740 2da8 01       		.byte	0x1
 2741 2da9 06       		.uleb128 0x6
 2742 2daa 4F535F49 		.ascii "OS_INTERRUPT_SWI_2 asm(\"swi 2\")\0"
 2742      4E544552 
 2742      52555054 
 2742      5F535749 
 2742      5F322061 
 2743 2dca 01       		.byte	0x1
 2744 2dcb 07       		.uleb128 0x7
 2745 2dcc 4F535F49 		.ascii "OS_INTERRUPT_SWI_3 asm(\"swi 3\")\0"
 2745      4E544552 
 2745      52555054 
 2745      5F535749 
 2745      5F332061 
 2746 2dec 01       		.byte	0x1
 2747 2ded 08       		.uleb128 0x8
 2748 2dee 4F535F49 		.ascii "OS_INTERRUPT_SWI_4 asm(\"swi 4\")\0"
 2748      4E544552 
 2748      52555054 
 2748      5F535749 
 2748      5F342061 
 2749 2e0e 01       		.byte	0x1
 2750 2e0f 09       		.uleb128 0x9
 2751 2e10 4F535F49 		.ascii "OS_INTERRUPT_SWI_5 asm(\"swi 5\")\0"
 2751      4E544552 
 2751      52555054 
 2751      5F535749 
 2751      5F352061 
 2752 2e30 04       		.byte	0x4
 2753              		.file 14 "c:/users/president/desktop/sbx/input/src/os_sim/lld_mmu.h"
 2754 2e31 03       		.byte	0x3
 2755 2e32 06       		.uleb128 0x6
 2756 2e33 0E       		.uleb128 0xe
 2757 2e34 01       		.byte	0x1
 2758 2e35 02       		.uleb128 0x2
 2759 2e36 5F4C4C44 		.ascii "_LLD_MMU_H_ \0"
 2759      5F4D4D55 
 2759      5F485F20 
 2759      00
 2760 2e43 04       		.byte	0x4
 2761              		.file 15 "c:/users/president/desktop/sbx/input/src/os_sim/lld_timer.h"
 2762 2e44 03       		.byte	0x3
 2763 2e45 07       		.uleb128 0x7
 2764 2e46 0F       		.uleb128 0xf
 2765 2e47 01       		.byte	0x1
 2766 2e48 02       		.uleb128 0x2
 2767 2e49 5F4C4C44 		.ascii "_LLD_TIMER_H_ \0"
 2767      5F54494D 
 2767      45525F48 
 2767      5F2000
 2768 2e58 04       		.byte	0x4
GAS LISTING C:\Users\PRESID~1\AppData\Local\Temp\ccD5yOAh.s 			page 85


 2769              		.file 16 "c:/users/president/desktop/sbx/input/src/os_sim/lld_power.h"
 2770 2e59 03       		.byte	0x3
 2771 2e5a 08       		.uleb128 0x8
 2772 2e5b 10       		.uleb128 0x10
 2773 2e5c 01       		.byte	0x1
 2774 2e5d 02       		.uleb128 0x2
 2775 2e5e 5F4C4C44 		.ascii "_LLD_POWER_H_ \0"
 2775      5F504F57 
 2775      45525F48 
 2775      5F2000
 2776 2e6d 04       		.byte	0x4
 2777              		.file 17 "c:/users/president/desktop/sbx/input/src/os_sim/lld_ram.h"
 2778 2e6e 03       		.byte	0x3
 2779 2e6f 09       		.uleb128 0x9
 2780 2e70 11       		.uleb128 0x11
 2781 2e71 01       		.byte	0x1
 2782 2e72 02       		.uleb128 0x2
 2783 2e73 5F4C4C44 		.ascii "_LLD_RAM_H_ \0"
 2783      5F52414D 
 2783      5F485F20 
 2783      00
 2784 2e80 04       		.byte	0x4
 2785 2e81 03       		.byte	0x3
 2786 2e82 0A       		.uleb128 0xa
 2787 2e83 05       		.uleb128 0x5
 2788 2e84 01       		.byte	0x1
 2789 2e85 02       		.uleb128 0x2
 2790 2e86 5F4F535F 		.ascii "_OS_TASK_COMMON_H_ \0"
 2790      5441534B 
 2790      5F434F4D 
 2790      4D4F4E5F 
 2790      485F2000 
 2791 2e9a 03       		.byte	0x3
 2792 2e9b 03       		.uleb128 0x3
 2793 2e9c 09       		.uleb128 0x9
 2794 2e9d 04       		.byte	0x4
 2795              		.file 18 "C:/Users/president/Desktop/sbx/input/src/os_base/os_task_config.h"
 2796 2e9e 03       		.byte	0x3
 2797 2e9f 04       		.uleb128 0x4
 2798 2ea0 12       		.uleb128 0x12
 2799 2ea1 01       		.byte	0x1
 2800 2ea2 02       		.uleb128 0x2
 2801 2ea3 5F4F535F 		.ascii "_OS_TASK_CONFIG_H_ \0"
 2801      5441534B 
 2801      5F434F4E 
 2801      4649475F 
 2801      485F2000 
 2802 2eb7 01       		.byte	0x1
 2803 2eb8 05       		.uleb128 0x5
 2804 2eb9 5441534B 		.ascii "TASK_MIN_TIME (1e0)\0"
 2804      5F4D494E 
 2804      5F54494D 
 2804      45202831 
 2804      65302900 
 2805 2ecd 01       		.byte	0x1
 2806 2ece 06       		.uleb128 0x6
 2807 2ecf 4E554D42 		.ascii "NUMBER_OF_TASKS 10u\0"
GAS LISTING C:\Users\PRESID~1\AppData\Local\Temp\ccD5yOAh.s 			page 86


 2807      45525F4F 
 2807      465F5441 
 2807      534B5320 
 2807      31307500 
 2808 2ee3 01       		.byte	0x1
 2809 2ee4 07       		.uleb128 0x7
 2810 2ee5 4D41585F 		.ascii "MAX_RUN_QUEUE_SIZE (NUMBER_OF_TASKS)\0"
 2810      52554E5F 
 2810      51554555 
 2810      455F5349 
 2810      5A452028 
 2811 2f0a 01       		.byte	0x1
 2812 2f0b 08       		.uleb128 0x8
 2813 2f0c 4D41585F 		.ascii "MAX_RUN_PQUEUE_SIZE MAX_RUN_QUEUE_SIZE\0"
 2813      52554E5F 
 2813      50515545 
 2813      55455F53 
 2813      495A4520 
 2814 2f33 01       		.byte	0x1
 2815 2f34 0A       		.uleb128 0xa
 2816 2f35 5441534B 		.ascii "TASK0_STACK_SIZE 2000u\0"
 2816      305F5354 
 2816      41434B5F 
 2816      53495A45 
 2816      20323030 
 2817 2f4c 01       		.byte	0x1
 2818 2f4d 0B       		.uleb128 0xb
 2819 2f4e 5441534B 		.ascii "TASK1_STACK_SIZE 2000u\0"
 2819      315F5354 
 2819      41434B5F 
 2819      53495A45 
 2819      20323030 
 2820 2f65 01       		.byte	0x1
 2821 2f66 0C       		.uleb128 0xc
 2822 2f67 5441534B 		.ascii "TASK2_STACK_SIZE 2000u\0"
 2822      325F5354 
 2822      41434B5F 
 2822      53495A45 
 2822      20323030 
 2823 2f7e 01       		.byte	0x1
 2824 2f7f 0D       		.uleb128 0xd
 2825 2f80 5441534B 		.ascii "TASK3_STACK_SIZE 2000u\0"
 2825      335F5354 
 2825      41434B5F 
 2825      53495A45 
 2825      20323030 
 2826 2f97 01       		.byte	0x1
 2827 2f98 0E       		.uleb128 0xe
 2828 2f99 5441534B 		.ascii "TASK4_STACK_SIZE 2000u\0"
 2828      345F5354 
 2828      41434B5F 
 2828      53495A45 
 2828      20323030 
 2829 2fb0 01       		.byte	0x1
 2830 2fb1 12       		.uleb128 0x12
 2831 2fb2 4D535F50 		.ascii "MS_PER_SEC 1000u\0"
 2831      45525F53 
GAS LISTING C:\Users\PRESID~1\AppData\Local\Temp\ccD5yOAh.s 			page 87


 2831      45432031 
 2831      30303075 
 2831      00
 2832 2fc3 01       		.byte	0x1
 2833 2fc4 13       		.uleb128 0x13
 2834 2fc5 5553455F 		.ascii "USE_STATIC_CREATED_TASKS TRUE\0"
 2834      53544154 
 2834      49435F43 
 2834      52454154 
 2834      45445F54 
 2835 2fe3 04       		.byte	0x4
 2836              		.file 19 "C:/Users/president/Desktop/sbx/input/src/os_base/os_init_task_system.h"
 2837 2fe4 03       		.byte	0x3
 2838 2fe5 05       		.uleb128 0x5
 2839 2fe6 13       		.uleb128 0x13
 2840 2fe7 01       		.byte	0x1
 2841 2fe8 02       		.uleb128 0x2
 2842 2fe9 5F4F535F 		.ascii "_OS_INIT_TASK_SYSTEM_H_ \0"
 2842      494E4954 
 2842      5F544153 
 2842      4B5F5359 
 2842      5354454D 
 2843 3002 04       		.byte	0x4
 2844 3003 01       		.byte	0x1
 2845 3004 5F       		.uleb128 0x5f
 2846 3005 4F535F53 		.ascii "OS_SAVE_TASK_PTR(task_ptr,task_name) (TASK_PTR[(task_name)] = (task_ptr))\0"
 2846      4156455F 
 2846      5441534B 
 2846      5F505452 
 2846      28746173 
 2847 304f 01       		.byte	0x1
 2848 3050 60       		.uleb128 0x60
 2849 3051 4F535F47 		.ascii "OS_GET_TASK_PTR(task_name) ((task_t*) TASK_PTR[(task_name)])\0"
 2849      45545F54 
 2849      41534B5F 
 2849      50545228 
 2849      7461736B 
 2850 308e 04       		.byte	0x4
 2851 308f 04       		.byte	0x4
 2852              		.file 20 "c:/users/president/desktop/sbx/input/src/os_user_code/led.h"
 2853 3090 03       		.byte	0x3
 2854 3091 0D       		.uleb128 0xd
 2855 3092 14       		.uleb128 0x14
 2856 3093 01       		.byte	0x1
 2857 3094 02       		.uleb128 0x2
 2858 3095 5F4C4544 		.ascii "_LED_H_ \0"
 2858      5F485F20 
 2858      00
 2859 309e 04       		.byte	0x4
 2860 309f 03       		.byte	0x3
 2861 30a0 0F       		.uleb128 0xf
 2862 30a1 07       		.uleb128 0x7
 2863 30a2 01       		.byte	0x1
 2864 30a3 02       		.uleb128 0x2
 2865 30a4 5F4F535F 		.ascii "_OS_RAM_H_ \0"
 2865      52414D5F 
 2865      485F2000 
GAS LISTING C:\Users\PRESID~1\AppData\Local\Temp\ccD5yOAh.s 			page 88


 2866              		.file 21 "C:/Users/president/Desktop/sbx/input/src/os_base/os_stack.h"
 2867 30b0 03       		.byte	0x3
 2868 30b1 05       		.uleb128 0x5
 2869 30b2 15       		.uleb128 0x15
 2870 30b3 01       		.byte	0x1
 2871 30b4 02       		.uleb128 0x2
 2872 30b5 5F4F535F 		.ascii "_OS_STACK_H_ \0"
 2872      53544143 
 2872      4B5F485F 
 2872      2000
 2873 30c3 04       		.byte	0x4
 2874              		.file 22 "C:/Users/president/Desktop/sbx/input/src/os_base/os_heap.h"
 2875 30c4 03       		.byte	0x3
 2876 30c5 06       		.uleb128 0x6
 2877 30c6 16       		.uleb128 0x16
 2878 30c7 01       		.byte	0x1
 2879 30c8 02       		.uleb128 0x2
 2880 30c9 5F4F535F 		.ascii "_OS_HEAP_H_ \0"
 2880      48454150 
 2880      5F485F20 
 2880      00
 2881 30d6 04       		.byte	0x4
 2882 30d7 03       		.byte	0x3
 2883 30d8 07       		.uleb128 0x7
 2884 30d9 06       		.uleb128 0x6
 2885 30da 01       		.byte	0x1
 2886 30db 02       		.uleb128 0x2
 2887 30dc 5F4F535F 		.ascii "_OS_MAIN_H_ \0"
 2887      4D41494E 
 2887      5F485F20 
 2887      00
 2888 30e9 04       		.byte	0x4
 2889              		.file 23 "C:/Users/president/Desktop/sbx/input/src/os_base/os_task_common.h"
 2890 30ea 03       		.byte	0x3
 2891 30eb 09       		.uleb128 0x9
 2892 30ec 17       		.uleb128 0x17
 2893 30ed 04       		.byte	0x4
 2894 30ee 04       		.byte	0x4
 2895 30ef 03       		.byte	0x3
 2896 30f0 10       		.uleb128 0x10
 2897 30f1 08       		.uleb128 0x8
 2898 30f2 01       		.byte	0x1
 2899 30f3 02       		.uleb128 0x2
 2900 30f4 5F4F535F 		.ascii "_OS_RAM_STACK_H_ \0"
 2900      52414D5F 
 2900      53544143 
 2900      4B5F485F 
 2900      2000
 2901 3106 04       		.byte	0x4
 2902 3107 04       		.byte	0x4
 2903 3108 04       		.byte	0x4
 2904 3109 00       		.byte	0
 2905              		.section	.debug_line,"dr"
 2906              	Ldebug_line0:
 2907 0000 7D020000 		.section	.debug_str,"dr"
 2907      03004902 
 2907      00000101 
GAS LISTING C:\Users\PRESID~1\AppData\Local\Temp\ccD5yOAh.s 			page 89


 2907      FB0E0D00 
 2907      01010101 
 2908              	LASF2:
 2909 0000 50726753 		.ascii "PrgSignatur\0"
 2909      69676E61 
 2909      74757200 
 2910              	LASF0:
 2911 000c 6578655F 		.ascii "exe_time\0"
 2911      74696D65 
 2911      00
 2912              	LASF1:
 2913 0015 4C6F6164 		.ascii "LoadProgAddr\0"
 2913      50726F67 
 2913      41646472 
 2913      00
 2914              		.ident	"GCC: (MinGW.org GCC-8.2.0-3) 8.2.0"
GAS LISTING C:\Users\PRESID~1\AppData\Local\Temp\ccD5yOAh.s 			page 90


DEFINED SYMBOLS
                            *ABS*:00000000 os_start_ext_prg.c
C:\Users\PRESID~1\AppData\Local\Temp\ccD5yOAh.s:5      .text:00000000 _os_signatur_valid
C:\Users\PRESID~1\AppData\Local\Temp\ccD5yOAh.s:26     .text:00000007 _OS_START_EXT_PRG

NO UNDEFINED SYMBOLS
