GAS LISTING C:\Users\PRESID~1\AppData\Local\Temp\ccylhMgF.s 			page 1


   1              		.file	"os_task_scheduler.c"
   2              		.text
   3              	Ltext0:
   4              		.globl	_OS_ActivateDispatcher
   6              	_OS_ActivateDispatcher:
   7              	LFB0:
   8              		.file 1 "E:/NeuOrga/Programmieren/c_cpp/github_os/input/src/os_base/os_task_scheduler.c"
   1:E:/NeuOrga/Programmieren/c_cpp/github_os/input/src/os_base\os_task_scheduler.c **** #include "os_firstinc.h"
   2:E:/NeuOrga/Programmieren/c_cpp/github_os/input/src/os_base\os_task_scheduler.c **** #include "os_common.h"
   3:E:/NeuOrga/Programmieren/c_cpp/github_os/input/src/os_base\os_task_scheduler.c **** #include "os_task_common.h"
   4:E:/NeuOrga/Programmieren/c_cpp/github_os/input/src/os_base\os_task_scheduler.c **** #include "os_task_scheduler.h"
   5:E:/NeuOrga/Programmieren/c_cpp/github_os/input/src/os_base\os_task_scheduler.c **** #include "os_task_queue.h"
   6:E:/NeuOrga/Programmieren/c_cpp/github_os/input/src/os_base\os_task_scheduler.c **** #include "os_stack.h"
   7:E:/NeuOrga/Programmieren/c_cpp/github_os/input/src/os_base\os_task_scheduler.c **** 
   8:E:/NeuOrga/Programmieren/c_cpp/github_os/input/src/os_base\os_task_scheduler.c **** /*
   9:E:/NeuOrga/Programmieren/c_cpp/github_os/input/src/os_base\os_task_scheduler.c **** 1. running     --(terminate)--> suspend : delete scheduling element
  10:E:/NeuOrga/Programmieren/c_cpp/github_os/input/src/os_base\os_task_scheduler.c **** 2. running     --(preempt  )--> ready
  11:E:/NeuOrga/Programmieren/c_cpp/github_os/input/src/os_base\os_task_scheduler.c **** 3. suspend     --(activate )--> ready   : create scheduling element
  12:E:/NeuOrga/Programmieren/c_cpp/github_os/input/src/os_base\os_task_scheduler.c **** 4. ready       --(start    )--> running : use scheduling element
  13:E:/NeuOrga/Programmieren/c_cpp/github_os/input/src/os_base\os_task_scheduler.c **** 5. unspecified --(create   )--> suspend
  14:E:/NeuOrga/Programmieren/c_cpp/github_os/input/src/os_base\os_task_scheduler.c **** */
  15:E:/NeuOrga/Programmieren/c_cpp/github_os/input/src/os_base\os_task_scheduler.c **** 
  16:E:/NeuOrga/Programmieren/c_cpp/github_os/input/src/os_base\os_task_scheduler.c **** 
  17:E:/NeuOrga/Programmieren/c_cpp/github_os/input/src/os_base\os_task_scheduler.c **** Local void TASK_0(void* task_ptr);
  18:E:/NeuOrga/Programmieren/c_cpp/github_os/input/src/os_base\os_task_scheduler.c **** Local void TASK_1(void* task_ptr);
  19:E:/NeuOrga/Programmieren/c_cpp/github_os/input/src/os_base\os_task_scheduler.c **** Local void TASK_2(void* task_ptr);
  20:E:/NeuOrga/Programmieren/c_cpp/github_os/input/src/os_base\os_task_scheduler.c **** Local task_t** OS_TaskScheduler();
  21:E:/NeuOrga/Programmieren/c_cpp/github_os/input/src/os_base\os_task_scheduler.c **** Local void OS_PreemptTask(task_t* task, scheduling_t* scheduling_task);
  22:E:/NeuOrga/Programmieren/c_cpp/github_os/input/src/os_base\os_task_scheduler.c **** void OS_ActivateDispatcher(void)
  23:E:/NeuOrga/Programmieren/c_cpp/github_os/input/src/os_base\os_task_scheduler.c **** {
   9              		.loc 1 23 0
  10              		.cfi_startproc
  11 0000 55       		pushl	%ebp
  12              		.cfi_def_cfa_offset 8
  13              		.cfi_offset 5, -8
  14 0001 89E5     		movl	%esp, %ebp
  15              		.cfi_def_cfa_register 5
  24:E:/NeuOrga/Programmieren/c_cpp/github_os/input/src/os_base\os_task_scheduler.c **** 
  25:E:/NeuOrga/Programmieren/c_cpp/github_os/input/src/os_base\os_task_scheduler.c ****    /* configure the TCMP */
  26:E:/NeuOrga/Programmieren/c_cpp/github_os/input/src/os_base\os_task_scheduler.c ****    /*
  27:E:/NeuOrga/Programmieren/c_cpp/github_os/input/src/os_base\os_task_scheduler.c ****    Dispatcher function for Core 0:
  28:E:/NeuOrga/Programmieren/c_cpp/github_os/input/src/os_base\os_task_scheduler.c ****    Write Adresse into the config register (interrupts are requested by SWI/SVC???)
  29:E:/NeuOrga/Programmieren/c_cpp/github_os/input/src/os_base\os_task_scheduler.c ****    */
  30:E:/NeuOrga/Programmieren/c_cpp/github_os/input/src/os_base\os_task_scheduler.c ****    #define SYSTICK_CTRL_STAT_REG ((uint32*)0xE000E010)
  31:E:/NeuOrga/Programmieren/c_cpp/github_os/input/src/os_base\os_task_scheduler.c ****    #define SYSTICK_RLD_VAL_REG   ((uint32*)0xE000E014)
  32:E:/NeuOrga/Programmieren/c_cpp/github_os/input/src/os_base\os_task_scheduler.c ****    #define SYSTICK_CURRENT_VAL_REG ((uint32*)0xE000E018)
  33:E:/NeuOrga/Programmieren/c_cpp/github_os/input/src/os_base\os_task_scheduler.c ****    #define SYSTICK_STAT_REG_TICKINT ((uint32)0x00000002)
  34:E:/NeuOrga/Programmieren/c_cpp/github_os/input/src/os_base\os_task_scheduler.c ****    #define SYSTICK_STAT_REG_ENABLE  ((uint32)0x00000001)
  35:E:/NeuOrga/Programmieren/c_cpp/github_os/input/src/os_base\os_task_scheduler.c ****    #define LOOPTIME_IN_USEC ((uint32)10000u)
  36:E:/NeuOrga/Programmieren/c_cpp/github_os/input/src/os_base\os_task_scheduler.c ****    /*
  37:E:/NeuOrga/Programmieren/c_cpp/github_os/input/src/os_base\os_task_scheduler.c ****    CLOCK = HCLK / 8
  38:E:/NeuOrga/Programmieren/c_cpp/github_os/input/src/os_base\os_task_scheduler.c ****    vermutlich: CLOCK = 150Mhz / 8 = 18,75 Mhz
  39:E:/NeuOrga/Programmieren/c_cpp/github_os/input/src/os_base\os_task_scheduler.c ****    */
  40:E:/NeuOrga/Programmieren/c_cpp/github_os/input/src/os_base\os_task_scheduler.c ****    #if(CFG_PROCESSOR == cMCU_CORTEX_M4)
  41:E:/NeuOrga/Programmieren/c_cpp/github_os/input/src/os_base\os_task_scheduler.c ****    *SYSTICK_RLD_VAL_REG = (*SYSTICK_RLD_VAL_REG & 0xFF000000 )| (((uint32)MCU_CLOCK_IN_HZ / ((uint3
  42:E:/NeuOrga/Programmieren/c_cpp/github_os/input/src/os_base\os_task_scheduler.c ****    *SYSTICK_CURRENT_VAL_REG = ((uint32)0x00000000);
  43:E:/NeuOrga/Programmieren/c_cpp/github_os/input/src/os_base\os_task_scheduler.c ****    *SYSTICK_CTRL_STAT_REG = *SYSTICK_CTRL_STAT_REG | SYSTICK_STAT_REG_TICKINT | SYSTICK_STAT_REG_EN
GAS LISTING C:\Users\PRESID~1\AppData\Local\Temp\ccylhMgF.s 			page 2


  44:E:/NeuOrga/Programmieren/c_cpp/github_os/input/src/os_base\os_task_scheduler.c ****    #endif
  45:E:/NeuOrga/Programmieren/c_cpp/github_os/input/src/os_base\os_task_scheduler.c **** }
  16              		.loc 1 45 0
  17 0003 5D       		popl	%ebp
  18              		.cfi_restore 5
  19              		.cfi_def_cfa 4, 4
  20 0004 C3       		ret
  21              		.cfi_endproc
  22              	LFE0:
  23              		.globl	_OS_SleepTask
  25              	_OS_SleepTask:
  26              	LFB1:
  46:E:/NeuOrga/Programmieren/c_cpp/github_os/input/src/os_base\os_task_scheduler.c **** 
  47:E:/NeuOrga/Programmieren/c_cpp/github_os/input/src/os_base\os_task_scheduler.c **** 
  48:E:/NeuOrga/Programmieren/c_cpp/github_os/input/src/os_base\os_task_scheduler.c **** void OS_SleepTask(task_t* task, task_time_t millisec, scheduling_t* scheduling_task_ptr)
  49:E:/NeuOrga/Programmieren/c_cpp/github_os/input/src/os_base\os_task_scheduler.c **** {
  27              		.loc 1 49 0
  28              		.cfi_startproc
  29 0005 55       		pushl	%ebp
  30              		.cfi_def_cfa_offset 8
  31              		.cfi_offset 5, -8
  32 0006 89E5     		movl	%esp, %ebp
  33              		.cfi_def_cfa_register 5
  34 0008 83EC18   		subl	$24, %esp
  50:E:/NeuOrga/Programmieren/c_cpp/github_os/input/src/os_base\os_task_scheduler.c ****    /* sleep Task shall do a preempt task with a defined minimum wait time, the actual wait time is 
  51:E:/NeuOrga/Programmieren/c_cpp/github_os/input/src/os_base\os_task_scheduler.c ****    task->WaitActUntil = OS_GetCurrentTime() + millisec;
  35              		.loc 1 51 0
  36 000b E8000000 		call	_OS_GetCurrentTime
  36      00
  37 0010 89C2     		movl	%eax, %edx
  38 0012 8B450C   		movl	12(%ebp), %eax
  39 0015 01C2     		addl	%eax, %edx
  40 0017 8B4508   		movl	8(%ebp), %eax
  41 001a 895008   		movl	%edx, 8(%eax)
  52:E:/NeuOrga/Programmieren/c_cpp/github_os/input/src/os_base\os_task_scheduler.c ****    OS_PreemptTask(task,scheduling_task_ptr);
  42              		.loc 1 52 0
  43 001d 8B4510   		movl	16(%ebp), %eax
  44 0020 89442404 		movl	%eax, 4(%esp)
  45 0024 8B4508   		movl	8(%ebp), %eax
  46 0027 890424   		movl	%eax, (%esp)
  47 002a E89B0100 		call	_OS_PreemptTask
  47      00
  53:E:/NeuOrga/Programmieren/c_cpp/github_os/input/src/os_base\os_task_scheduler.c **** }
  48              		.loc 1 53 0
  49 002f C9       		leave
  50              		.cfi_restore 5
  51              		.cfi_def_cfa 4, 4
  52 0030 C3       		ret
  53              		.cfi_endproc
  54              	LFE1:
  55              		.globl	_task_state_request
  57              	_task_state_request:
  58              	LFB2:
  54:E:/NeuOrga/Programmieren/c_cpp/github_os/input/src/os_base\os_task_scheduler.c **** 
  55:E:/NeuOrga/Programmieren/c_cpp/github_os/input/src/os_base\os_task_scheduler.c **** unsigned_char_t task_state_request(void* temp_task, task_state_t requested_state)
  56:E:/NeuOrga/Programmieren/c_cpp/github_os/input/src/os_base\os_task_scheduler.c **** {
  59              		.loc 1 56 0
GAS LISTING C:\Users\PRESID~1\AppData\Local\Temp\ccylhMgF.s 			page 3


  60              		.cfi_startproc
  61 0031 55       		pushl	%ebp
  62              		.cfi_def_cfa_offset 8
  63              		.cfi_offset 5, -8
  64 0032 89E5     		movl	%esp, %ebp
  65              		.cfi_def_cfa_register 5
  66 0034 83EC28   		subl	$40, %esp
  57:E:/NeuOrga/Programmieren/c_cpp/github_os/input/src/os_base\os_task_scheduler.c ****    unsigned_char_t RequestState = Rejected;
  67              		.loc 1 57 0
  68 0037 C645F700 		movb	$0, -9(%ebp)
  58:E:/NeuOrga/Programmieren/c_cpp/github_os/input/src/os_base\os_task_scheduler.c **** 
  59:E:/NeuOrga/Programmieren/c_cpp/github_os/input/src/os_base\os_task_scheduler.c ****    task_t* task = (task_t*) temp_task;
  69              		.loc 1 59 0
  70 003b 8B4508   		movl	8(%ebp), %eax
  71 003e 8945F0   		movl	%eax, -16(%ebp)
  60:E:/NeuOrga/Programmieren/c_cpp/github_os/input/src/os_base\os_task_scheduler.c **** 
  61:E:/NeuOrga/Programmieren/c_cpp/github_os/input/src/os_base\os_task_scheduler.c ****    switch(requested_state)
  72              		.loc 1 61 0
  73 0041 8B450C   		movl	12(%ebp), %eax
  74 0044 83F801   		cmpl	$1, %eax
  75 0047 743E     		je	L5
  76 0049 83F801   		cmpl	$1, %eax
  77 004c 7213     		jb	L6
  78 004e 83F802   		cmpl	$2, %eax
  79 0051 0F848000 		je	L7
  79      0000
  80 0057 83F803   		cmpl	$3, %eax
  81 005a 745D     		je	L8
  62:E:/NeuOrga/Programmieren/c_cpp/github_os/input/src/os_base\os_task_scheduler.c ****    {
  63:E:/NeuOrga/Programmieren/c_cpp/github_os/input/src/os_base\os_task_scheduler.c ****    case Task_unspecified:/* 1. create new task */
  64:E:/NeuOrga/Programmieren/c_cpp/github_os/input/src/os_base\os_task_scheduler.c ****    {
  65:E:/NeuOrga/Programmieren/c_cpp/github_os/input/src/os_base\os_task_scheduler.c ****       switch(task->task_state)
  66:E:/NeuOrga/Programmieren/c_cpp/github_os/input/src/os_base\os_task_scheduler.c ****       {
  67:E:/NeuOrga/Programmieren/c_cpp/github_os/input/src/os_base\os_task_scheduler.c ****       case Task_ready:
  68:E:/NeuOrga/Programmieren/c_cpp/github_os/input/src/os_base\os_task_scheduler.c ****       case Task_running:
  69:E:/NeuOrga/Programmieren/c_cpp/github_os/input/src/os_base\os_task_scheduler.c ****       case Task_suspended:
  70:E:/NeuOrga/Programmieren/c_cpp/github_os/input/src/os_base\os_task_scheduler.c ****       {
  71:E:/NeuOrga/Programmieren/c_cpp/github_os/input/src/os_base\os_task_scheduler.c ****          RequestState = Rejected;
  72:E:/NeuOrga/Programmieren/c_cpp/github_os/input/src/os_base\os_task_scheduler.c ****          break;
  73:E:/NeuOrga/Programmieren/c_cpp/github_os/input/src/os_base\os_task_scheduler.c ****       }
  74:E:/NeuOrga/Programmieren/c_cpp/github_os/input/src/os_base\os_task_scheduler.c ****       default:
  75:E:/NeuOrga/Programmieren/c_cpp/github_os/input/src/os_base\os_task_scheduler.c ****       {
  76:E:/NeuOrga/Programmieren/c_cpp/github_os/input/src/os_base\os_task_scheduler.c ****          task->task_state = Task_unspecified;
  77:E:/NeuOrga/Programmieren/c_cpp/github_os/input/src/os_base\os_task_scheduler.c ****          RequestState = Accepted;
  78:E:/NeuOrga/Programmieren/c_cpp/github_os/input/src/os_base\os_task_scheduler.c ****          break;
  79:E:/NeuOrga/Programmieren/c_cpp/github_os/input/src/os_base\os_task_scheduler.c ****       }
  80:E:/NeuOrga/Programmieren/c_cpp/github_os/input/src/os_base\os_task_scheduler.c ****       }
  81:E:/NeuOrga/Programmieren/c_cpp/github_os/input/src/os_base\os_task_scheduler.c ****       break;
  82:E:/NeuOrga/Programmieren/c_cpp/github_os/input/src/os_base\os_task_scheduler.c ****    }
  83:E:/NeuOrga/Programmieren/c_cpp/github_os/input/src/os_base\os_task_scheduler.c ****    case Task_suspended:
  84:E:/NeuOrga/Programmieren/c_cpp/github_os/input/src/os_base\os_task_scheduler.c ****    {
  85:E:/NeuOrga/Programmieren/c_cpp/github_os/input/src/os_base\os_task_scheduler.c ****       switch(task->task_state)
  86:E:/NeuOrga/Programmieren/c_cpp/github_os/input/src/os_base\os_task_scheduler.c ****       {
  87:E:/NeuOrga/Programmieren/c_cpp/github_os/input/src/os_base\os_task_scheduler.c ****       case Task_unspecified: /* 2. create task transition */
  88:E:/NeuOrga/Programmieren/c_cpp/github_os/input/src/os_base\os_task_scheduler.c ****       {
  89:E:/NeuOrga/Programmieren/c_cpp/github_os/input/src/os_base\os_task_scheduler.c ****          /* no checks */
  90:E:/NeuOrga/Programmieren/c_cpp/github_os/input/src/os_base\os_task_scheduler.c ****          task->task_state = Task_suspended;
GAS LISTING C:\Users\PRESID~1\AppData\Local\Temp\ccylhMgF.s 			page 4


  91:E:/NeuOrga/Programmieren/c_cpp/github_os/input/src/os_base\os_task_scheduler.c ****          RequestState = Accepted;
  92:E:/NeuOrga/Programmieren/c_cpp/github_os/input/src/os_base\os_task_scheduler.c ****          break;
  93:E:/NeuOrga/Programmieren/c_cpp/github_os/input/src/os_base\os_task_scheduler.c ****       }
  94:E:/NeuOrga/Programmieren/c_cpp/github_os/input/src/os_base\os_task_scheduler.c ****       case Task_running: /* 3. terminate task */
  95:E:/NeuOrga/Programmieren/c_cpp/github_os/input/src/os_base\os_task_scheduler.c ****       {
  96:E:/NeuOrga/Programmieren/c_cpp/github_os/input/src/os_base\os_task_scheduler.c ****          task->task_state = Task_suspended;
  97:E:/NeuOrga/Programmieren/c_cpp/github_os/input/src/os_base\os_task_scheduler.c ****          RequestState = Accepted;
  98:E:/NeuOrga/Programmieren/c_cpp/github_os/input/src/os_base\os_task_scheduler.c ****          break;
  99:E:/NeuOrga/Programmieren/c_cpp/github_os/input/src/os_base\os_task_scheduler.c ****       }
 100:E:/NeuOrga/Programmieren/c_cpp/github_os/input/src/os_base\os_task_scheduler.c ****       default:
 101:E:/NeuOrga/Programmieren/c_cpp/github_os/input/src/os_base\os_task_scheduler.c ****       {
 102:E:/NeuOrga/Programmieren/c_cpp/github_os/input/src/os_base\os_task_scheduler.c ****          /* no change in states allowed */
 103:E:/NeuOrga/Programmieren/c_cpp/github_os/input/src/os_base\os_task_scheduler.c ****          break;
 104:E:/NeuOrga/Programmieren/c_cpp/github_os/input/src/os_base\os_task_scheduler.c ****       }
 105:E:/NeuOrga/Programmieren/c_cpp/github_os/input/src/os_base\os_task_scheduler.c ****       }
 106:E:/NeuOrga/Programmieren/c_cpp/github_os/input/src/os_base\os_task_scheduler.c ****       break;
 107:E:/NeuOrga/Programmieren/c_cpp/github_os/input/src/os_base\os_task_scheduler.c ****    }
 108:E:/NeuOrga/Programmieren/c_cpp/github_os/input/src/os_base\os_task_scheduler.c ****    case Task_running:
 109:E:/NeuOrga/Programmieren/c_cpp/github_os/input/src/os_base\os_task_scheduler.c ****    {
 110:E:/NeuOrga/Programmieren/c_cpp/github_os/input/src/os_base\os_task_scheduler.c ****       switch(task->task_state)
 111:E:/NeuOrga/Programmieren/c_cpp/github_os/input/src/os_base\os_task_scheduler.c ****       {
 112:E:/NeuOrga/Programmieren/c_cpp/github_os/input/src/os_base\os_task_scheduler.c ****       case Task_ready: /* 4. start task transition */
 113:E:/NeuOrga/Programmieren/c_cpp/github_os/input/src/os_base\os_task_scheduler.c ****       {
 114:E:/NeuOrga/Programmieren/c_cpp/github_os/input/src/os_base\os_task_scheduler.c ****          task->task_state = Task_running;
 115:E:/NeuOrga/Programmieren/c_cpp/github_os/input/src/os_base\os_task_scheduler.c ****          RequestState   = Accepted;
 116:E:/NeuOrga/Programmieren/c_cpp/github_os/input/src/os_base\os_task_scheduler.c ****          break;
 117:E:/NeuOrga/Programmieren/c_cpp/github_os/input/src/os_base\os_task_scheduler.c ****       }
 118:E:/NeuOrga/Programmieren/c_cpp/github_os/input/src/os_base\os_task_scheduler.c ****       default:
 119:E:/NeuOrga/Programmieren/c_cpp/github_os/input/src/os_base\os_task_scheduler.c ****       {
 120:E:/NeuOrga/Programmieren/c_cpp/github_os/input/src/os_base\os_task_scheduler.c ****          /* no change in states allowed */
 121:E:/NeuOrga/Programmieren/c_cpp/github_os/input/src/os_base\os_task_scheduler.c ****          break;
 122:E:/NeuOrga/Programmieren/c_cpp/github_os/input/src/os_base\os_task_scheduler.c ****       }
 123:E:/NeuOrga/Programmieren/c_cpp/github_os/input/src/os_base\os_task_scheduler.c ****       }
 124:E:/NeuOrga/Programmieren/c_cpp/github_os/input/src/os_base\os_task_scheduler.c ****       break;
 125:E:/NeuOrga/Programmieren/c_cpp/github_os/input/src/os_base\os_task_scheduler.c **** 
 126:E:/NeuOrga/Programmieren/c_cpp/github_os/input/src/os_base\os_task_scheduler.c ****    }
 127:E:/NeuOrga/Programmieren/c_cpp/github_os/input/src/os_base\os_task_scheduler.c ****    case Task_ready:
 128:E:/NeuOrga/Programmieren/c_cpp/github_os/input/src/os_base\os_task_scheduler.c ****    {
 129:E:/NeuOrga/Programmieren/c_cpp/github_os/input/src/os_base\os_task_scheduler.c ****       switch(task->task_state)
 130:E:/NeuOrga/Programmieren/c_cpp/github_os/input/src/os_base\os_task_scheduler.c ****       {
 131:E:/NeuOrga/Programmieren/c_cpp/github_os/input/src/os_base\os_task_scheduler.c ****       case Task_suspended: /* activate task transition */
 132:E:/NeuOrga/Programmieren/c_cpp/github_os/input/src/os_base\os_task_scheduler.c ****       {
 133:E:/NeuOrga/Programmieren/c_cpp/github_os/input/src/os_base\os_task_scheduler.c ****          task->task_state = Task_ready;
 134:E:/NeuOrga/Programmieren/c_cpp/github_os/input/src/os_base\os_task_scheduler.c ****          RequestState   = Accepted;
 135:E:/NeuOrga/Programmieren/c_cpp/github_os/input/src/os_base\os_task_scheduler.c ****          break;
 136:E:/NeuOrga/Programmieren/c_cpp/github_os/input/src/os_base\os_task_scheduler.c ****       }
 137:E:/NeuOrga/Programmieren/c_cpp/github_os/input/src/os_base\os_task_scheduler.c ****       case Task_running: /* preempt task transition */
 138:E:/NeuOrga/Programmieren/c_cpp/github_os/input/src/os_base\os_task_scheduler.c ****       {
 139:E:/NeuOrga/Programmieren/c_cpp/github_os/input/src/os_base\os_task_scheduler.c ****          task->task_state = Task_ready;
 140:E:/NeuOrga/Programmieren/c_cpp/github_os/input/src/os_base\os_task_scheduler.c ****          RequestState   = Accepted;
 141:E:/NeuOrga/Programmieren/c_cpp/github_os/input/src/os_base\os_task_scheduler.c ****          break;
 142:E:/NeuOrga/Programmieren/c_cpp/github_os/input/src/os_base\os_task_scheduler.c ****       }
 143:E:/NeuOrga/Programmieren/c_cpp/github_os/input/src/os_base\os_task_scheduler.c ****       case Task_unspecified:
 144:E:/NeuOrga/Programmieren/c_cpp/github_os/input/src/os_base\os_task_scheduler.c ****       {
 145:E:/NeuOrga/Programmieren/c_cpp/github_os/input/src/os_base\os_task_scheduler.c ****           task->task_state = Task_ready;
 146:E:/NeuOrga/Programmieren/c_cpp/github_os/input/src/os_base\os_task_scheduler.c ****           RequestState = Accepted;
 147:E:/NeuOrga/Programmieren/c_cpp/github_os/input/src/os_base\os_task_scheduler.c ****           break;
GAS LISTING C:\Users\PRESID~1\AppData\Local\Temp\ccylhMgF.s 			page 5


 148:E:/NeuOrga/Programmieren/c_cpp/github_os/input/src/os_base\os_task_scheduler.c ****       }
 149:E:/NeuOrga/Programmieren/c_cpp/github_os/input/src/os_base\os_task_scheduler.c ****       default:
 150:E:/NeuOrga/Programmieren/c_cpp/github_os/input/src/os_base\os_task_scheduler.c ****       {
 151:E:/NeuOrga/Programmieren/c_cpp/github_os/input/src/os_base\os_task_scheduler.c ****          /* no change in states allowed */
 152:E:/NeuOrga/Programmieren/c_cpp/github_os/input/src/os_base\os_task_scheduler.c ****          break;
 153:E:/NeuOrga/Programmieren/c_cpp/github_os/input/src/os_base\os_task_scheduler.c ****       }
 154:E:/NeuOrga/Programmieren/c_cpp/github_os/input/src/os_base\os_task_scheduler.c ****       }
 155:E:/NeuOrga/Programmieren/c_cpp/github_os/input/src/os_base\os_task_scheduler.c ****       break;
 156:E:/NeuOrga/Programmieren/c_cpp/github_os/input/src/os_base\os_task_scheduler.c ****    }
 157:E:/NeuOrga/Programmieren/c_cpp/github_os/input/src/os_base\os_task_scheduler.c ****    default:
 158:E:/NeuOrga/Programmieren/c_cpp/github_os/input/src/os_base\os_task_scheduler.c ****    {
 159:E:/NeuOrga/Programmieren/c_cpp/github_os/input/src/os_base\os_task_scheduler.c ****       break;
  82              		.loc 1 159 0
  83 005c E9BD0000 		jmp	L12
  83      00
  84              	L6:
  65:E:/NeuOrga/Programmieren/c_cpp/github_os/input/src/os_base\os_task_scheduler.c ****       {
  85              		.loc 1 65 0
  86 0061 8B45F0   		movl	-16(%ebp), %eax
  87 0064 8B4034   		movl	52(%eax), %eax
  88 0067 48       		decl	%eax
  89 0068 83F802   		cmpl	$2, %eax
  90 006b 7706     		ja	L9
  71:E:/NeuOrga/Programmieren/c_cpp/github_os/input/src/os_base\os_task_scheduler.c ****          break;
  91              		.loc 1 71 0
  92 006d C645F700 		movb	$0, -9(%ebp)
  72:E:/NeuOrga/Programmieren/c_cpp/github_os/input/src/os_base\os_task_scheduler.c ****       }
  93              		.loc 1 72 0
  94 0071 EB0F     		jmp	L11
  95              	L9:
  76:E:/NeuOrga/Programmieren/c_cpp/github_os/input/src/os_base\os_task_scheduler.c ****          RequestState = Accepted;
  96              		.loc 1 76 0
  97 0073 8B45F0   		movl	-16(%ebp), %eax
  98 0076 C7403400 		movl	$0, 52(%eax)
  98      000000
  77:E:/NeuOrga/Programmieren/c_cpp/github_os/input/src/os_base\os_task_scheduler.c ****          break;
  99              		.loc 1 77 0
 100 007d C645F701 		movb	$1, -9(%ebp)
  78:E:/NeuOrga/Programmieren/c_cpp/github_os/input/src/os_base\os_task_scheduler.c ****       }
 101              		.loc 1 78 0
 102 0081 90       		nop
 103              	L11:
  81:E:/NeuOrga/Programmieren/c_cpp/github_os/input/src/os_base\os_task_scheduler.c ****    }
 104              		.loc 1 81 0
 105 0082 E9970000 		jmp	L12
 105      00
 106              	L5:
  85:E:/NeuOrga/Programmieren/c_cpp/github_os/input/src/os_base\os_task_scheduler.c ****       {
 107              		.loc 1 85 0
 108 0087 8B45F0   		movl	-16(%ebp), %eax
 109 008a 8B4034   		movl	52(%eax), %eax
 110 008d 85C0     		testl	%eax, %eax
 111 008f 7407     		je	L14
 112 0091 83F803   		cmpl	$3, %eax
 113 0094 7412     		je	L15
 103:E:/NeuOrga/Programmieren/c_cpp/github_os/input/src/os_base\os_task_scheduler.c ****       }
 114              		.loc 1 103 0
GAS LISTING C:\Users\PRESID~1\AppData\Local\Temp\ccylhMgF.s 			page 6


 115 0096 EB1F     		jmp	L16
 116              	L14:
  90:E:/NeuOrga/Programmieren/c_cpp/github_os/input/src/os_base\os_task_scheduler.c ****          RequestState = Accepted;
 117              		.loc 1 90 0
 118 0098 8B45F0   		movl	-16(%ebp), %eax
 119 009b C7403401 		movl	$1, 52(%eax)
 119      000000
  91:E:/NeuOrga/Programmieren/c_cpp/github_os/input/src/os_base\os_task_scheduler.c ****          break;
 120              		.loc 1 91 0
 121 00a2 C645F701 		movb	$1, -9(%ebp)
  92:E:/NeuOrga/Programmieren/c_cpp/github_os/input/src/os_base\os_task_scheduler.c ****       }
 122              		.loc 1 92 0
 123 00a6 EB0F     		jmp	L16
 124              	L15:
  96:E:/NeuOrga/Programmieren/c_cpp/github_os/input/src/os_base\os_task_scheduler.c ****          RequestState = Accepted;
 125              		.loc 1 96 0
 126 00a8 8B45F0   		movl	-16(%ebp), %eax
 127 00ab C7403401 		movl	$1, 52(%eax)
 127      000000
  97:E:/NeuOrga/Programmieren/c_cpp/github_os/input/src/os_base\os_task_scheduler.c ****          break;
 128              		.loc 1 97 0
 129 00b2 C645F701 		movb	$1, -9(%ebp)
  98:E:/NeuOrga/Programmieren/c_cpp/github_os/input/src/os_base\os_task_scheduler.c ****       }
 130              		.loc 1 98 0
 131 00b6 90       		nop
 132              	L16:
 106:E:/NeuOrga/Programmieren/c_cpp/github_os/input/src/os_base\os_task_scheduler.c ****    }
 133              		.loc 1 106 0 discriminator 1
 134 00b7 EB65     		jmp	L12
 135              	L8:
 110:E:/NeuOrga/Programmieren/c_cpp/github_os/input/src/os_base\os_task_scheduler.c ****       {
 136              		.loc 1 110 0
 137 00b9 8B45F0   		movl	-16(%ebp), %eax
 138 00bc 8B4034   		movl	52(%eax), %eax
 139 00bf 83F802   		cmpl	$2, %eax
 140 00c2 7402     		je	L18
 121:E:/NeuOrga/Programmieren/c_cpp/github_os/input/src/os_base\os_task_scheduler.c ****       }
 141              		.loc 1 121 0
 142 00c4 EB0F     		jmp	L19
 143              	L18:
 114:E:/NeuOrga/Programmieren/c_cpp/github_os/input/src/os_base\os_task_scheduler.c ****          RequestState   = Accepted;
 144              		.loc 1 114 0
 145 00c6 8B45F0   		movl	-16(%ebp), %eax
 146 00c9 C7403403 		movl	$3, 52(%eax)
 146      000000
 115:E:/NeuOrga/Programmieren/c_cpp/github_os/input/src/os_base\os_task_scheduler.c ****          break;
 147              		.loc 1 115 0
 148 00d0 C645F701 		movb	$1, -9(%ebp)
 116:E:/NeuOrga/Programmieren/c_cpp/github_os/input/src/os_base\os_task_scheduler.c ****       }
 149              		.loc 1 116 0
 150 00d4 90       		nop
 151              	L19:
 124:E:/NeuOrga/Programmieren/c_cpp/github_os/input/src/os_base\os_task_scheduler.c **** 
 152              		.loc 1 124 0 discriminator 2
 153 00d5 EB47     		jmp	L12
 154              	L7:
 129:E:/NeuOrga/Programmieren/c_cpp/github_os/input/src/os_base\os_task_scheduler.c ****       {
GAS LISTING C:\Users\PRESID~1\AppData\Local\Temp\ccylhMgF.s 			page 7


 155              		.loc 1 129 0
 156 00d7 8B45F0   		movl	-16(%ebp), %eax
 157 00da 8B4034   		movl	52(%eax), %eax
 158 00dd 83F801   		cmpl	$1, %eax
 159 00e0 740C     		je	L21
 160 00e2 83F801   		cmpl	$1, %eax
 161 00e5 7227     		jb	L22
 162 00e7 83F803   		cmpl	$3, %eax
 163 00ea 7412     		je	L23
 152:E:/NeuOrga/Programmieren/c_cpp/github_os/input/src/os_base\os_task_scheduler.c ****       }
 164              		.loc 1 152 0
 165 00ec EB2F     		jmp	L24
 166              	L21:
 133:E:/NeuOrga/Programmieren/c_cpp/github_os/input/src/os_base\os_task_scheduler.c ****          RequestState   = Accepted;
 167              		.loc 1 133 0
 168 00ee 8B45F0   		movl	-16(%ebp), %eax
 169 00f1 C7403402 		movl	$2, 52(%eax)
 169      000000
 134:E:/NeuOrga/Programmieren/c_cpp/github_os/input/src/os_base\os_task_scheduler.c ****          break;
 170              		.loc 1 134 0
 171 00f8 C645F701 		movb	$1, -9(%ebp)
 135:E:/NeuOrga/Programmieren/c_cpp/github_os/input/src/os_base\os_task_scheduler.c ****       }
 172              		.loc 1 135 0
 173 00fc EB1F     		jmp	L24
 174              	L23:
 139:E:/NeuOrga/Programmieren/c_cpp/github_os/input/src/os_base\os_task_scheduler.c ****          RequestState   = Accepted;
 175              		.loc 1 139 0
 176 00fe 8B45F0   		movl	-16(%ebp), %eax
 177 0101 C7403402 		movl	$2, 52(%eax)
 177      000000
 140:E:/NeuOrga/Programmieren/c_cpp/github_os/input/src/os_base\os_task_scheduler.c ****          break;
 178              		.loc 1 140 0
 179 0108 C645F701 		movb	$1, -9(%ebp)
 141:E:/NeuOrga/Programmieren/c_cpp/github_os/input/src/os_base\os_task_scheduler.c ****       }
 180              		.loc 1 141 0
 181 010c EB0F     		jmp	L24
 182              	L22:
 145:E:/NeuOrga/Programmieren/c_cpp/github_os/input/src/os_base\os_task_scheduler.c ****           RequestState = Accepted;
 183              		.loc 1 145 0
 184 010e 8B45F0   		movl	-16(%ebp), %eax
 185 0111 C7403402 		movl	$2, 52(%eax)
 185      000000
 146:E:/NeuOrga/Programmieren/c_cpp/github_os/input/src/os_base\os_task_scheduler.c ****           break;
 186              		.loc 1 146 0
 187 0118 C645F701 		movb	$1, -9(%ebp)
 147:E:/NeuOrga/Programmieren/c_cpp/github_os/input/src/os_base\os_task_scheduler.c ****       }
 188              		.loc 1 147 0
 189 011c 90       		nop
 190              	L24:
 155:E:/NeuOrga/Programmieren/c_cpp/github_os/input/src/os_base\os_task_scheduler.c ****    }
 191              		.loc 1 155 0 discriminator 3
 192 011d 90       		nop
 193              	L12:
 160:E:/NeuOrga/Programmieren/c_cpp/github_os/input/src/os_base\os_task_scheduler.c ****    }
 161:E:/NeuOrga/Programmieren/c_cpp/github_os/input/src/os_base\os_task_scheduler.c ****    }
 162:E:/NeuOrga/Programmieren/c_cpp/github_os/input/src/os_base\os_task_scheduler.c ****    if(RequestState == Rejected)
 194              		.loc 1 162 0
GAS LISTING C:\Users\PRESID~1\AppData\Local\Temp\ccylhMgF.s 			page 8


 195 011e 807DF700 		cmpb	$0, -9(%ebp)
 196 0122 752F     		jne	L25
 163:E:/NeuOrga/Programmieren/c_cpp/github_os/input/src/os_base\os_task_scheduler.c ****    {
 164:E:/NeuOrga/Programmieren/c_cpp/github_os/input/src/os_base\os_task_scheduler.c ****       TASK_TRANSITION_REJECTED_TASK_ADDR  = task;
 197              		.loc 1 164 0
 198 0124 8B45F0   		movl	-16(%ebp), %eax
 199 0127 A3000000 		movl	%eax, _TASK_TRANSITION_REJECTED_TASK_ADDR
 199      00
 165:E:/NeuOrga/Programmieren/c_cpp/github_os/input/src/os_base\os_task_scheduler.c ****       TASK_TRANSITION_REJECTED_STATE      = requested_state;
 200              		.loc 1 165 0
 201 012c 8B450C   		movl	12(%ebp), %eax
 202 012f A3000000 		movl	%eax, _TASK_TRANSITION_REJECTED_STATE
 202      00
 166:E:/NeuOrga/Programmieren/c_cpp/github_os/input/src/os_base\os_task_scheduler.c ****       TASK_TRANSITION_CURRENT_STATE       = task->task_state;
 203              		.loc 1 166 0
 204 0134 8B45F0   		movl	-16(%ebp), %eax
 205 0137 8B4034   		movl	52(%eax), %eax
 206 013a A3000000 		movl	%eax, _TASK_TRANSITION_CURRENT_STATE
 206      00
 167:E:/NeuOrga/Programmieren/c_cpp/github_os/input/src/os_base\os_task_scheduler.c ****       OS_SetSwBug(os_bug_taskstate_request_denied, Func_TaskStateRequest);
 207              		.loc 1 167 0
 208 013f C7442404 		movl	$12, 4(%esp)
 208      0C000000 
 209 0147 C7042401 		movl	$1, (%esp)
 209      000000
 210 014e E8000000 		call	_OS_SetSwBug
 210      00
 211              	L25:
 168:E:/NeuOrga/Programmieren/c_cpp/github_os/input/src/os_base\os_task_scheduler.c **** 
 169:E:/NeuOrga/Programmieren/c_cpp/github_os/input/src/os_base\os_task_scheduler.c **** 
 170:E:/NeuOrga/Programmieren/c_cpp/github_os/input/src/os_base\os_task_scheduler.c ****    }
 171:E:/NeuOrga/Programmieren/c_cpp/github_os/input/src/os_base\os_task_scheduler.c ****    return RequestState;
 212              		.loc 1 171 0
 213 0153 8A45F7   		movb	-9(%ebp), %al
 172:E:/NeuOrga/Programmieren/c_cpp/github_os/input/src/os_base\os_task_scheduler.c **** }
 214              		.loc 1 172 0
 215 0156 C9       		leave
 216              		.cfi_restore 5
 217              		.cfi_def_cfa 4, 4
 218 0157 C3       		ret
 219              		.cfi_endproc
 220              	LFE2:
 221              		.globl	_OS_CreateTask
 223              	_OS_CreateTask:
 224              	LFB3:
 173:E:/NeuOrga/Programmieren/c_cpp/github_os/input/src/os_base\os_task_scheduler.c **** 
 174:E:/NeuOrga/Programmieren/c_cpp/github_os/input/src/os_base\os_task_scheduler.c **** void OS_CreateTask(task_t* task)
 175:E:/NeuOrga/Programmieren/c_cpp/github_os/input/src/os_base\os_task_scheduler.c **** {
 225              		.loc 1 175 0
 226              		.cfi_startproc
 227 0158 55       		pushl	%ebp
 228              		.cfi_def_cfa_offset 8
 229              		.cfi_offset 5, -8
 230 0159 89E5     		movl	%esp, %ebp
 231              		.cfi_def_cfa_register 5
 232 015b 83EC18   		subl	$24, %esp
 176:E:/NeuOrga/Programmieren/c_cpp/github_os/input/src/os_base\os_task_scheduler.c ****    /*5. unspecified --(create   )--> suspend*/
GAS LISTING C:\Users\PRESID~1\AppData\Local\Temp\ccylhMgF.s 			page 9


 177:E:/NeuOrga/Programmieren/c_cpp/github_os/input/src/os_base\os_task_scheduler.c ****    if(task != 0)
 233              		.loc 1 177 0
 234 015e 837D0800 		cmpl	$0, 8(%ebp)
 235 0162 7450     		je	L28
 178:E:/NeuOrga/Programmieren/c_cpp/github_os/input/src/os_base\os_task_scheduler.c ****    {
 179:E:/NeuOrga/Programmieren/c_cpp/github_os/input/src/os_base\os_task_scheduler.c ****       if(task->state_request != 0)
 236              		.loc 1 179 0
 237 0164 8B4508   		movl	8(%ebp), %eax
 238 0167 8B4030   		movl	48(%eax), %eax
 239 016a 85C0     		testl	%eax, %eax
 240 016c 7430     		je	L29
 180:E:/NeuOrga/Programmieren/c_cpp/github_os/input/src/os_base\os_task_scheduler.c ****       {
 181:E:/NeuOrga/Programmieren/c_cpp/github_os/input/src/os_base\os_task_scheduler.c ****          if(task->state_request(task, Task_suspended)== Accepted)
 241              		.loc 1 181 0
 242 016e 8B4508   		movl	8(%ebp), %eax
 243 0171 8B4030   		movl	48(%eax), %eax
 244 0174 C7442404 		movl	$1, 4(%esp)
 244      01000000 
 245 017c 8B5508   		movl	8(%ebp), %edx
 246 017f 891424   		movl	%edx, (%esp)
 247 0182 FFD0     		call	*%eax
 248 0184 3C01     		cmpb	$1, %al
 249 0186 7440     		je	L27
 182:E:/NeuOrga/Programmieren/c_cpp/github_os/input/src/os_base\os_task_scheduler.c ****          {
 183:E:/NeuOrga/Programmieren/c_cpp/github_os/input/src/os_base\os_task_scheduler.c ****             /*QAC*/
 184:E:/NeuOrga/Programmieren/c_cpp/github_os/input/src/os_base\os_task_scheduler.c ****          }
 185:E:/NeuOrga/Programmieren/c_cpp/github_os/input/src/os_base\os_task_scheduler.c ****          else
 186:E:/NeuOrga/Programmieren/c_cpp/github_os/input/src/os_base\os_task_scheduler.c ****          {
 187:E:/NeuOrga/Programmieren/c_cpp/github_os/input/src/os_base\os_task_scheduler.c ****             OS_SetSwBug(os_bug_taskstate_request_denied, Func_CreateTask);
 250              		.loc 1 187 0
 251 0188 C7442404 		movl	$15, 4(%esp)
 251      0F000000 
 252 0190 C7042401 		movl	$1, (%esp)
 252      000000
 253 0197 E8000000 		call	_OS_SetSwBug
 253      00
 254 019c EB2A     		jmp	L27
 255              	L29:
 188:E:/NeuOrga/Programmieren/c_cpp/github_os/input/src/os_base\os_task_scheduler.c ****          }
 189:E:/NeuOrga/Programmieren/c_cpp/github_os/input/src/os_base\os_task_scheduler.c ****       }
 190:E:/NeuOrga/Programmieren/c_cpp/github_os/input/src/os_base\os_task_scheduler.c ****       else
 191:E:/NeuOrga/Programmieren/c_cpp/github_os/input/src/os_base\os_task_scheduler.c ****       {
 192:E:/NeuOrga/Programmieren/c_cpp/github_os/input/src/os_base\os_task_scheduler.c ****          OS_SetSwBug(os_bug_null_pointer, Func_CreateTask);
 256              		.loc 1 192 0
 257 019e C7442404 		movl	$15, 4(%esp)
 257      0F000000 
 258 01a6 C7042402 		movl	$2, (%esp)
 258      000000
 259 01ad E8000000 		call	_OS_SetSwBug
 259      00
 260 01b2 EB14     		jmp	L27
 261              	L28:
 193:E:/NeuOrga/Programmieren/c_cpp/github_os/input/src/os_base\os_task_scheduler.c ****       }
 194:E:/NeuOrga/Programmieren/c_cpp/github_os/input/src/os_base\os_task_scheduler.c ****    }
 195:E:/NeuOrga/Programmieren/c_cpp/github_os/input/src/os_base\os_task_scheduler.c ****    else
 196:E:/NeuOrga/Programmieren/c_cpp/github_os/input/src/os_base\os_task_scheduler.c ****    {
 197:E:/NeuOrga/Programmieren/c_cpp/github_os/input/src/os_base\os_task_scheduler.c ****       OS_SetSwBug(os_bug_null_pointer, Func_CreateTask);
GAS LISTING C:\Users\PRESID~1\AppData\Local\Temp\ccylhMgF.s 			page 10


 262              		.loc 1 197 0
 263 01b4 C7442404 		movl	$15, 4(%esp)
 263      0F000000 
 264 01bc C7042402 		movl	$2, (%esp)
 264      000000
 265 01c3 E8000000 		call	_OS_SetSwBug
 265      00
 266              	L27:
 198:E:/NeuOrga/Programmieren/c_cpp/github_os/input/src/os_base\os_task_scheduler.c ****    }
 199:E:/NeuOrga/Programmieren/c_cpp/github_os/input/src/os_base\os_task_scheduler.c **** }
 267              		.loc 1 199 0
 268 01c8 C9       		leave
 269              		.cfi_restore 5
 270              		.cfi_def_cfa 4, 4
 271 01c9 C3       		ret
 272              		.cfi_endproc
 273              	LFE3:
 275              	_OS_PreemptTask:
 276              	LFB4:
 200:E:/NeuOrga/Programmieren/c_cpp/github_os/input/src/os_base\os_task_scheduler.c **** void OS_PreemptTask(task_t* task, scheduling_t* scheduling_task)
 201:E:/NeuOrga/Programmieren/c_cpp/github_os/input/src/os_base\os_task_scheduler.c **** {
 277              		.loc 1 201 0
 278              		.cfi_startproc
 279 01ca 55       		pushl	%ebp
 280              		.cfi_def_cfa_offset 8
 281              		.cfi_offset 5, -8
 282 01cb 89E5     		movl	%esp, %ebp
 283              		.cfi_def_cfa_register 5
 284 01cd 83EC18   		subl	$24, %esp
 202:E:/NeuOrga/Programmieren/c_cpp/github_os/input/src/os_base\os_task_scheduler.c ****    /*2. running     --(preempt  )--> ready*/
 203:E:/NeuOrga/Programmieren/c_cpp/github_os/input/src/os_base\os_task_scheduler.c ****    /* Preempt task
 204:E:/NeuOrga/Programmieren/c_cpp/github_os/input/src/os_base\os_task_scheduler.c ****    - Disable Interrupts
 205:E:/NeuOrga/Programmieren/c_cpp/github_os/input/src/os_base\os_task_scheduler.c ****    - OS_TaskSaveTaskEnvironment
 206:E:/NeuOrga/Programmieren/c_cpp/github_os/input/src/os_base\os_task_scheduler.c ****    - add to Schedule Queue / delete from RunQueue
 207:E:/NeuOrga/Programmieren/c_cpp/github_os/input/src/os_base\os_task_scheduler.c ****    - delete active flag
 208:E:/NeuOrga/Programmieren/c_cpp/github_os/input/src/os_base\os_task_scheduler.c ****    - enable Interrupts
 209:E:/NeuOrga/Programmieren/c_cpp/github_os/input/src/os_base\os_task_scheduler.c ****    */
 210:E:/NeuOrga/Programmieren/c_cpp/github_os/input/src/os_base\os_task_scheduler.c ****    if(task != 0 && scheduling_task != 0)
 285              		.loc 1 210 0
 286 01d0 837D0800 		cmpl	$0, 8(%ebp)
 287 01d4 0F849B00 		je	L34
 287      0000
 288              		.loc 1 210 0 is_stmt 0 discriminator 1
 289 01da 837D0C00 		cmpl	$0, 12(%ebp)
 290 01de 0F849100 		je	L34
 290      0000
 211:E:/NeuOrga/Programmieren/c_cpp/github_os/input/src/os_base\os_task_scheduler.c ****    {
 212:E:/NeuOrga/Programmieren/c_cpp/github_os/input/src/os_base\os_task_scheduler.c ****       if(task->state_request != 0)
 291              		.loc 1 212 0 is_stmt 1
 292 01e4 8B4508   		movl	8(%ebp), %eax
 293 01e7 8B4030   		movl	48(%eax), %eax
 294 01ea 85C0     		testl	%eax, %eax
 295 01ec 7471     		je	L35
 213:E:/NeuOrga/Programmieren/c_cpp/github_os/input/src/os_base\os_task_scheduler.c ****       {
 214:E:/NeuOrga/Programmieren/c_cpp/github_os/input/src/os_base\os_task_scheduler.c ****          if(task->state_request(task, Task_ready)== Accepted)
 296              		.loc 1 214 0
 297 01ee 8B4508   		movl	8(%ebp), %eax
GAS LISTING C:\Users\PRESID~1\AppData\Local\Temp\ccylhMgF.s 			page 11


 298 01f1 8B4030   		movl	48(%eax), %eax
 299 01f4 C7442404 		movl	$2, 4(%esp)
 299      02000000 
 300 01fc 8B5508   		movl	8(%ebp), %edx
 301 01ff 891424   		movl	%edx, (%esp)
 302 0202 FFD0     		call	*%eax
 303 0204 3C01     		cmpb	$1, %al
 304 0206 7541     		jne	L36
 215:E:/NeuOrga/Programmieren/c_cpp/github_os/input/src/os_base\os_task_scheduler.c ****          {
 216:E:/NeuOrga/Programmieren/c_cpp/github_os/input/src/os_base\os_task_scheduler.c ****             DisableInterrupts();
 217:E:/NeuOrga/Programmieren/c_cpp/github_os/input/src/os_base\os_task_scheduler.c ****             OS_TaskSaveTaskEnvironment(task);
 305              		.loc 1 217 0
 306 0208 8B4508   		movl	8(%ebp), %eax
 307 020b 890424   		movl	%eax, (%esp)
 308 020e E8000000 		call	_OS_TaskSaveTaskEnvironment
 308      00
 218:E:/NeuOrga/Programmieren/c_cpp/github_os/input/src/os_base\os_task_scheduler.c ****             OS_TASK_RESTORE_SYSTEM_STACK(&OS_STACK[OS_GetCoreId()][0]);
 309              		.loc 1 218 0
 310 0213 E8000000 		call	_OS_GetCoreId
 310      00
 311 0218 89C2     		movl	%eax, %edx
 312 021a 89D0     		movl	%edx, %eax
 313 021c C1E002   		sall	$2, %eax
 314 021f 01D0     		addl	%edx, %eax
 315 0221 C1E00C   		sall	$12, %eax
 316 0224 05000000 		addl	$_OS_STACK, %eax
 316      00
 317 0229 890424   		movl	%eax, (%esp)
 318 022c E8000000 		call	_OS_TASK_RESTORE_SYSTEM_STACK
 318      00
 219:E:/NeuOrga/Programmieren/c_cpp/github_os/input/src/os_base\os_task_scheduler.c ****             
 220:E:/NeuOrga/Programmieren/c_cpp/github_os/input/src/os_base\os_task_scheduler.c ****             task->active = False;
 319              		.loc 1 220 0
 320 0231 8B4508   		movl	8(%ebp), %eax
 321 0234 8A10     		movb	(%eax), %dl
 322 0236 83E2FE   		andl	$-2, %edx
 323 0239 8810     		movb	%dl, (%eax)
 221:E:/NeuOrga/Programmieren/c_cpp/github_os/input/src/os_base\os_task_scheduler.c ****             /* reset the prio increase for waiting */
 222:E:/NeuOrga/Programmieren/c_cpp/github_os/input/src/os_base\os_task_scheduler.c ****             task->current_prio = task->default_prio;
 324              		.loc 1 222 0
 325 023b 8B4508   		movl	8(%ebp), %eax
 326 023e 8A5025   		movb	37(%eax), %dl
 327 0241 8B4508   		movl	8(%ebp), %eax
 328 0244 885024   		movb	%dl, 36(%eax)
 212:E:/NeuOrga/Programmieren/c_cpp/github_os/input/src/os_base\os_task_scheduler.c ****       {
 329              		.loc 1 212 0
 330 0247 EB40     		jmp	L33
 331              	L36:
 223:E:/NeuOrga/Programmieren/c_cpp/github_os/input/src/os_base\os_task_scheduler.c ****             EnableInterrupts();
 224:E:/NeuOrga/Programmieren/c_cpp/github_os/input/src/os_base\os_task_scheduler.c ****          }
 225:E:/NeuOrga/Programmieren/c_cpp/github_os/input/src/os_base\os_task_scheduler.c ****          else
 226:E:/NeuOrga/Programmieren/c_cpp/github_os/input/src/os_base\os_task_scheduler.c ****          {
 227:E:/NeuOrga/Programmieren/c_cpp/github_os/input/src/os_base\os_task_scheduler.c ****             OS_SetSwBug(os_bug_taskstate_request_denied, Func_Preempt_Task);
 332              		.loc 1 227 0
 333 0249 C7442404 		movl	$13, 4(%esp)
 333      0D000000 
 334 0251 C7042401 		movl	$1, (%esp)
GAS LISTING C:\Users\PRESID~1\AppData\Local\Temp\ccylhMgF.s 			page 12


 334      000000
 335 0258 E8000000 		call	_OS_SetSwBug
 335      00
 212:E:/NeuOrga/Programmieren/c_cpp/github_os/input/src/os_base\os_task_scheduler.c ****       {
 336              		.loc 1 212 0
 337 025d EB2A     		jmp	L33
 338              	L35:
 228:E:/NeuOrga/Programmieren/c_cpp/github_os/input/src/os_base\os_task_scheduler.c ****          }
 229:E:/NeuOrga/Programmieren/c_cpp/github_os/input/src/os_base\os_task_scheduler.c ****       }
 230:E:/NeuOrga/Programmieren/c_cpp/github_os/input/src/os_base\os_task_scheduler.c ****       else
 231:E:/NeuOrga/Programmieren/c_cpp/github_os/input/src/os_base\os_task_scheduler.c ****       {
 232:E:/NeuOrga/Programmieren/c_cpp/github_os/input/src/os_base\os_task_scheduler.c ****          OS_SetSwBug(os_bug_null_pointer, Func_Preempt_Task);
 339              		.loc 1 232 0
 340 025f C7442404 		movl	$13, 4(%esp)
 340      0D000000 
 341 0267 C7042402 		movl	$2, (%esp)
 341      000000
 342 026e E8000000 		call	_OS_SetSwBug
 342      00
 212:E:/NeuOrga/Programmieren/c_cpp/github_os/input/src/os_base\os_task_scheduler.c ****       {
 343              		.loc 1 212 0
 344 0273 EB14     		jmp	L33
 345              	L34:
 233:E:/NeuOrga/Programmieren/c_cpp/github_os/input/src/os_base\os_task_scheduler.c ****       }
 234:E:/NeuOrga/Programmieren/c_cpp/github_os/input/src/os_base\os_task_scheduler.c **** 
 235:E:/NeuOrga/Programmieren/c_cpp/github_os/input/src/os_base\os_task_scheduler.c ****    }
 236:E:/NeuOrga/Programmieren/c_cpp/github_os/input/src/os_base\os_task_scheduler.c ****    else
 237:E:/NeuOrga/Programmieren/c_cpp/github_os/input/src/os_base\os_task_scheduler.c ****    {
 238:E:/NeuOrga/Programmieren/c_cpp/github_os/input/src/os_base\os_task_scheduler.c ****       OS_SetSwBug(os_bug_null_pointer, Func_Preempt_Task);
 346              		.loc 1 238 0
 347 0275 C7442404 		movl	$13, 4(%esp)
 347      0D000000 
 348 027d C7042402 		movl	$2, (%esp)
 348      000000
 349 0284 E8000000 		call	_OS_SetSwBug
 349      00
 350              	L33:
 239:E:/NeuOrga/Programmieren/c_cpp/github_os/input/src/os_base\os_task_scheduler.c ****    }
 240:E:/NeuOrga/Programmieren/c_cpp/github_os/input/src/os_base\os_task_scheduler.c **** }
 351              		.loc 1 240 0
 352 0289 C9       		leave
 353              		.cfi_restore 5
 354              		.cfi_def_cfa 4, 4
 355 028a C3       		ret
 356              		.cfi_endproc
 357              	LFE4:
 358              		.globl	_OS_ActivateTask
 360              	_OS_ActivateTask:
 361              	LFB5:
 241:E:/NeuOrga/Programmieren/c_cpp/github_os/input/src/os_base\os_task_scheduler.c **** 
 242:E:/NeuOrga/Programmieren/c_cpp/github_os/input/src/os_base\os_task_scheduler.c **** void OS_ActivateTask(task_t* task)
 243:E:/NeuOrga/Programmieren/c_cpp/github_os/input/src/os_base\os_task_scheduler.c **** {
 362              		.loc 1 243 0
 363              		.cfi_startproc
 364 028b 55       		pushl	%ebp
 365              		.cfi_def_cfa_offset 8
 366              		.cfi_offset 5, -8
GAS LISTING C:\Users\PRESID~1\AppData\Local\Temp\ccylhMgF.s 			page 13


 367 028c 89E5     		movl	%esp, %ebp
 368              		.cfi_def_cfa_register 5
 369 028e 83EC18   		subl	$24, %esp
 244:E:/NeuOrga/Programmieren/c_cpp/github_os/input/src/os_base\os_task_scheduler.c ****    /*
 245:E:/NeuOrga/Programmieren/c_cpp/github_os/input/src/os_base\os_task_scheduler.c ****    Activate Task:
 246:E:/NeuOrga/Programmieren/c_cpp/github_os/input/src/os_base\os_task_scheduler.c ****    - Disable Interrupts
 247:E:/NeuOrga/Programmieren/c_cpp/github_os/input/src/os_base\os_task_scheduler.c ****    - Add to schedule Queue
 248:E:/NeuOrga/Programmieren/c_cpp/github_os/input/src/os_base\os_task_scheduler.c ****    - Enable Interrupts
 249:E:/NeuOrga/Programmieren/c_cpp/github_os/input/src/os_base\os_task_scheduler.c **** 
 250:E:/NeuOrga/Programmieren/c_cpp/github_os/input/src/os_base\os_task_scheduler.c ****    in case of valid request, the content, where the "task_t* task" is point to is stored in TASK_RU
 251:E:/NeuOrga/Programmieren/c_cpp/github_os/input/src/os_base\os_task_scheduler.c ****    */
 252:E:/NeuOrga/Programmieren/c_cpp/github_os/input/src/os_base\os_task_scheduler.c ****    if(task != 0)
 370              		.loc 1 252 0
 371 0291 837D0800 		cmpl	$0, 8(%ebp)
 372 0295 0F84B900 		je	L40
 372      0000
 253:E:/NeuOrga/Programmieren/c_cpp/github_os/input/src/os_base\os_task_scheduler.c ****    {
 254:E:/NeuOrga/Programmieren/c_cpp/github_os/input/src/os_base\os_task_scheduler.c ****       if(task->state_request(task, Task_ready)==Accepted)
 373              		.loc 1 254 0
 374 029b 8B4508   		movl	8(%ebp), %eax
 375 029e 8B4030   		movl	48(%eax), %eax
 376 02a1 C7442404 		movl	$2, 4(%esp)
 376      02000000 
 377 02a9 8B5508   		movl	8(%ebp), %edx
 378 02ac 891424   		movl	%edx, (%esp)
 379 02af FFD0     		call	*%eax
 380 02b1 3C01     		cmpb	$1, %al
 381 02b3 0F858700 		jne	L42
 381      0000
 255:E:/NeuOrga/Programmieren/c_cpp/github_os/input/src/os_base\os_task_scheduler.c ****       {
 256:E:/NeuOrga/Programmieren/c_cpp/github_os/input/src/os_base\os_task_scheduler.c ****          DisableInterrupts();
 257:E:/NeuOrga/Programmieren/c_cpp/github_os/input/src/os_base\os_task_scheduler.c ****          /* 3. suspended to ready (add to runqueue) */
 258:E:/NeuOrga/Programmieren/c_cpp/github_os/input/src/os_base\os_task_scheduler.c ****          if(task->IdleTask == False)
 382              		.loc 1 258 0
 383 02b9 8B4508   		movl	8(%ebp), %eax
 384 02bc 8A00     		movb	(%eax), %al
 385 02be 83E004   		andl	$4, %eax
 386 02c1 84C0     		testb	%al, %al
 387 02c3 756E     		jne	L43
 259:E:/NeuOrga/Programmieren/c_cpp/github_os/input/src/os_base\os_task_scheduler.c ****          {
 260:E:/NeuOrga/Programmieren/c_cpp/github_os/input/src/os_base\os_task_scheduler.c ****             if( (task->active == False)
 388              		.loc 1 260 0
 389 02c5 8B4508   		movl	8(%ebp), %eax
 390 02c8 8A00     		movb	(%eax), %al
 391 02ca 83E001   		andl	$1, %eax
 392 02cd 84C0     		testb	%al, %al
 393 02cf 741C     		je	L44
 261:E:/NeuOrga/Programmieren/c_cpp/github_os/input/src/os_base\os_task_scheduler.c ****                   || ( (task->active == True) && (task->NrOfInsAllowed > task->NrOfInsActivated) )/
 394              		.loc 1 261 0
 395 02d1 8B4508   		movl	8(%ebp), %eax
 396 02d4 8A00     		movb	(%eax), %al
 397 02d6 83E001   		andl	$1, %eax
 398 02d9 84C0     		testb	%al, %al
 399 02db 7477     		je	L40
 400              		.loc 1 261 0 is_stmt 0 discriminator 1
 401 02dd 8B4508   		movl	8(%ebp), %eax
 402 02e0 8A5004   		movb	4(%eax), %dl
GAS LISTING C:\Users\PRESID~1\AppData\Local\Temp\ccylhMgF.s 			page 14


 403 02e3 8B4508   		movl	8(%ebp), %eax
 404 02e6 8A4005   		movb	5(%eax), %al
 405 02e9 38C2     		cmpb	%al, %dl
 406 02eb 7667     		jbe	L40
 407              	L44:
 262:E:/NeuOrga/Programmieren/c_cpp/github_os/input/src/os_base\os_task_scheduler.c ****               )
 263:E:/NeuOrga/Programmieren/c_cpp/github_os/input/src/os_base\os_task_scheduler.c ****             {
 264:E:/NeuOrga/Programmieren/c_cpp/github_os/input/src/os_base\os_task_scheduler.c ****                /* only activate if allowed by rule */
 265:E:/NeuOrga/Programmieren/c_cpp/github_os/input/src/os_base\os_task_scheduler.c ****                task = AddToTaskQueue(task);
 408              		.loc 1 265 0 is_stmt 1
 409 02ed 8B4508   		movl	8(%ebp), %eax
 410 02f0 890424   		movl	%eax, (%esp)
 411 02f3 E8000000 		call	_AddToTaskQueue
 411      00
 412 02f8 894508   		movl	%eax, 8(%ebp)
 266:E:/NeuOrga/Programmieren/c_cpp/github_os/input/src/os_base\os_task_scheduler.c ****                AddToSchedulingQueue(task);
 413              		.loc 1 266 0
 414 02fb 8B4508   		movl	8(%ebp), %eax
 415 02fe 890424   		movl	%eax, (%esp)
 416 0301 E8000000 		call	_AddToSchedulingQueue
 416      00
 267:E:/NeuOrga/Programmieren/c_cpp/github_os/input/src/os_base\os_task_scheduler.c ****                if(task != 0)
 417              		.loc 1 267 0
 418 0306 837D0800 		cmpl	$0, 8(%ebp)
 419 030a 7411     		je	L46
 268:E:/NeuOrga/Programmieren/c_cpp/github_os/input/src/os_base\os_task_scheduler.c ****                {
 269:E:/NeuOrga/Programmieren/c_cpp/github_os/input/src/os_base\os_task_scheduler.c ****                   task->NrOfInsActivated++;
 420              		.loc 1 269 0
 421 030c 8B4508   		movl	8(%ebp), %eax
 422 030f 8A4005   		movb	5(%eax), %al
 423 0312 8D5001   		leal	1(%eax), %edx
 424 0315 8B4508   		movl	8(%ebp), %eax
 425 0318 885005   		movb	%dl, 5(%eax)
 426 031b EB37     		jmp	L40
 427              	L46:
 270:E:/NeuOrga/Programmieren/c_cpp/github_os/input/src/os_base\os_task_scheduler.c ****                }   
 271:E:/NeuOrga/Programmieren/c_cpp/github_os/input/src/os_base\os_task_scheduler.c ****                else
 272:E:/NeuOrga/Programmieren/c_cpp/github_os/input/src/os_base\os_task_scheduler.c ****                {
 273:E:/NeuOrga/Programmieren/c_cpp/github_os/input/src/os_base\os_task_scheduler.c ****                   OS_SetSwBug(os_bug_null_pointer,Func_ActivateTask);
 428              		.loc 1 273 0
 429 031d C7442404 		movl	$11, 4(%esp)
 429      0B000000 
 430 0325 C7042402 		movl	$2, (%esp)
 430      000000
 431 032c E8000000 		call	_OS_SetSwBug
 431      00
 432 0331 EB21     		jmp	L40
 433              	L43:
 274:E:/NeuOrga/Programmieren/c_cpp/github_os/input/src/os_base\os_task_scheduler.c ****                }                  
 275:E:/NeuOrga/Programmieren/c_cpp/github_os/input/src/os_base\os_task_scheduler.c ****             }
 276:E:/NeuOrga/Programmieren/c_cpp/github_os/input/src/os_base\os_task_scheduler.c ****             else
 277:E:/NeuOrga/Programmieren/c_cpp/github_os/input/src/os_base\os_task_scheduler.c ****             {
 278:E:/NeuOrga/Programmieren/c_cpp/github_os/input/src/os_base\os_task_scheduler.c ****                /* multiple activation bug occured */
 279:E:/NeuOrga/Programmieren/c_cpp/github_os/input/src/os_base\os_task_scheduler.c ****             }
 280:E:/NeuOrga/Programmieren/c_cpp/github_os/input/src/os_base\os_task_scheduler.c ****          }
 281:E:/NeuOrga/Programmieren/c_cpp/github_os/input/src/os_base\os_task_scheduler.c ****          else
 282:E:/NeuOrga/Programmieren/c_cpp/github_os/input/src/os_base\os_task_scheduler.c ****          {
GAS LISTING C:\Users\PRESID~1\AppData\Local\Temp\ccylhMgF.s 			page 15


 283:E:/NeuOrga/Programmieren/c_cpp/github_os/input/src/os_base\os_task_scheduler.c ****             AddToIdleTaskQueue(task);
 434              		.loc 1 283 0
 435 0333 8B4508   		movl	8(%ebp), %eax
 436 0336 890424   		movl	%eax, (%esp)
 437 0339 E8000000 		call	_AddToIdleTaskQueue
 437      00
 438 033e EB14     		jmp	L40
 439              	L42:
 284:E:/NeuOrga/Programmieren/c_cpp/github_os/input/src/os_base\os_task_scheduler.c ****          }
 285:E:/NeuOrga/Programmieren/c_cpp/github_os/input/src/os_base\os_task_scheduler.c ****          EnableInterrupts();
 286:E:/NeuOrga/Programmieren/c_cpp/github_os/input/src/os_base\os_task_scheduler.c ****       }
 287:E:/NeuOrga/Programmieren/c_cpp/github_os/input/src/os_base\os_task_scheduler.c ****       else
 288:E:/NeuOrga/Programmieren/c_cpp/github_os/input/src/os_base\os_task_scheduler.c ****       {
 289:E:/NeuOrga/Programmieren/c_cpp/github_os/input/src/os_base\os_task_scheduler.c ****          OS_SetSwBug(os_bug_taskstate_request_denied, Func_ActivateTask);
 440              		.loc 1 289 0
 441 0340 C7442404 		movl	$11, 4(%esp)
 441      0B000000 
 442 0348 C7042401 		movl	$1, (%esp)
 442      000000
 443 034f E8000000 		call	_OS_SetSwBug
 443      00
 444              	L40:
 290:E:/NeuOrga/Programmieren/c_cpp/github_os/input/src/os_base\os_task_scheduler.c ****       }
 291:E:/NeuOrga/Programmieren/c_cpp/github_os/input/src/os_base\os_task_scheduler.c ****    }
 292:E:/NeuOrga/Programmieren/c_cpp/github_os/input/src/os_base\os_task_scheduler.c **** }
 445              		.loc 1 292 0
 446 0354 C9       		leave
 447              		.cfi_restore 5
 448              		.cfi_def_cfa 4, 4
 449 0355 C3       		ret
 450              		.cfi_endproc
 451              	LFE5:
 452              		.globl	_OS_StartTask
 454              	_OS_StartTask:
 455              	LFB6:
 293:E:/NeuOrga/Programmieren/c_cpp/github_os/input/src/os_base\os_task_scheduler.c **** void OS_StartTask(task_t* task, scheduling_t* scheduling_task)
 294:E:/NeuOrga/Programmieren/c_cpp/github_os/input/src/os_base\os_task_scheduler.c **** {
 456              		.loc 1 294 0
 457              		.cfi_startproc
 458 0356 55       		pushl	%ebp
 459              		.cfi_def_cfa_offset 8
 460              		.cfi_offset 5, -8
 461 0357 89E5     		movl	%esp, %ebp
 462              		.cfi_def_cfa_register 5
 463 0359 83EC18   		subl	$24, %esp
 295:E:/NeuOrga/Programmieren/c_cpp/github_os/input/src/os_base\os_task_scheduler.c ****    /* OS_StartTask
 296:E:/NeuOrga/Programmieren/c_cpp/github_os/input/src/os_base\os_task_scheduler.c ****    - Disable interrupts
 297:E:/NeuOrga/Programmieren/c_cpp/github_os/input/src/os_base\os_task_scheduler.c ****    - restore Environment
 298:E:/NeuOrga/Programmieren/c_cpp/github_os/input/src/os_base\os_task_scheduler.c ****    - enable interrupts
 299:E:/NeuOrga/Programmieren/c_cpp/github_os/input/src/os_base\os_task_scheduler.c **** 
 300:E:/NeuOrga/Programmieren/c_cpp/github_os/input/src/os_base\os_task_scheduler.c ****    - Start Task
 301:E:/NeuOrga/Programmieren/c_cpp/github_os/input/src/os_base\os_task_scheduler.c ****     */
 302:E:/NeuOrga/Programmieren/c_cpp/github_os/input/src/os_base\os_task_scheduler.c ****    if( (task != 0) && (scheduling_task != 0)&& ((task->task_queued != False)||(task->IdleTask != Fa
 464              		.loc 1 302 0
 465 035c 837D0800 		cmpl	$0, 8(%ebp)
 466 0360 0F840301 		je	L48
 466      0000
GAS LISTING C:\Users\PRESID~1\AppData\Local\Temp\ccylhMgF.s 			page 16


 467              		.loc 1 302 0 is_stmt 0 discriminator 1
 468 0366 837D0C00 		cmpl	$0, 12(%ebp)
 469 036a 0F84F900 		je	L48
 469      0000
 470              		.loc 1 302 0 discriminator 2
 471 0370 8B4508   		movl	8(%ebp), %eax
 472 0373 8A00     		movb	(%eax), %al
 473 0375 83E002   		andl	$2, %eax
 474 0378 84C0     		testb	%al, %al
 475 037a 7510     		jne	L50
 476              		.loc 1 302 0 discriminator 3
 477 037c 8B4508   		movl	8(%ebp), %eax
 478 037f 8A00     		movb	(%eax), %al
 479 0381 83E004   		andl	$4, %eax
 480 0384 84C0     		testb	%al, %al
 481 0386 0F84DD00 		je	L48
 481      0000
 482              	L50:
 303:E:/NeuOrga/Programmieren/c_cpp/github_os/input/src/os_base\os_task_scheduler.c ****    {
 304:E:/NeuOrga/Programmieren/c_cpp/github_os/input/src/os_base\os_task_scheduler.c ****       if(task->state_request !=0)
 483              		.loc 1 304 0 is_stmt 1
 484 038c 8B4508   		movl	8(%ebp), %eax
 485 038f 8B4030   		movl	48(%eax), %eax
 486 0392 85C0     		testl	%eax, %eax
 487 0394 0F84BB00 		je	L51
 487      0000
 305:E:/NeuOrga/Programmieren/c_cpp/github_os/input/src/os_base\os_task_scheduler.c ****       {
 306:E:/NeuOrga/Programmieren/c_cpp/github_os/input/src/os_base\os_task_scheduler.c ****          if(task->state_request(task, Task_running)== Accepted)
 488              		.loc 1 306 0
 489 039a 8B4508   		movl	8(%ebp), %eax
 490 039d 8B4030   		movl	48(%eax), %eax
 491 03a0 C7442404 		movl	$3, 4(%esp)
 491      03000000 
 492 03a8 8B5508   		movl	8(%ebp), %edx
 493 03ab 891424   		movl	%edx, (%esp)
 494 03ae FFD0     		call	*%eax
 495 03b0 3C01     		cmpb	$1, %al
 496 03b2 0F858700 		jne	L52
 496      0000
 307:E:/NeuOrga/Programmieren/c_cpp/github_os/input/src/os_base\os_task_scheduler.c ****          {
 308:E:/NeuOrga/Programmieren/c_cpp/github_os/input/src/os_base\os_task_scheduler.c ****             DisableInterrupts();
 309:E:/NeuOrga/Programmieren/c_cpp/github_os/input/src/os_base\os_task_scheduler.c ****             task->active =  True;
 497              		.loc 1 309 0
 498 03b8 8B4508   		movl	8(%ebp), %eax
 499 03bb 8A10     		movb	(%eax), %dl
 500 03bd 83CA01   		orl	$1, %edx
 501 03c0 8810     		movb	%dl, (%eax)
 310:E:/NeuOrga/Programmieren/c_cpp/github_os/input/src/os_base\os_task_scheduler.c ****             task->wait_time = 0;
 502              		.loc 1 310 0
 503 03c2 8B4508   		movl	8(%ebp), %eax
 504 03c5 C7400C00 		movl	$0, 12(%eax)
 504      000000
 311:E:/NeuOrga/Programmieren/c_cpp/github_os/input/src/os_base\os_task_scheduler.c ****             task->current_prio = task->default_prio;
 505              		.loc 1 311 0
 506 03cc 8B4508   		movl	8(%ebp), %eax
 507 03cf 8A5025   		movb	37(%eax), %dl
 508 03d2 8B4508   		movl	8(%ebp), %eax
GAS LISTING C:\Users\PRESID~1\AppData\Local\Temp\ccylhMgF.s 			page 17


 509 03d5 885024   		movb	%dl, 36(%eax)
 312:E:/NeuOrga/Programmieren/c_cpp/github_os/input/src/os_base\os_task_scheduler.c ****             OS_TASK_SAVE_SYSTEM_STACK(&OS_STACK[OS_GetCoreId()][0]);
 510              		.loc 1 312 0
 511 03d8 E8000000 		call	_OS_GetCoreId
 511      00
 512 03dd 89C2     		movl	%eax, %edx
 513 03df 89D0     		movl	%edx, %eax
 514 03e1 C1E002   		sall	$2, %eax
 515 03e4 01D0     		addl	%edx, %eax
 516 03e6 C1E00C   		sall	$12, %eax
 517 03e9 05000000 		addl	$_OS_STACK, %eax
 517      00
 518 03ee 890424   		movl	%eax, (%esp)
 519 03f1 E8000000 		call	_OS_TASK_SAVE_SYSTEM_STACK
 519      00
 313:E:/NeuOrga/Programmieren/c_cpp/github_os/input/src/os_base\os_task_scheduler.c ****             OS_TASK_RESTORETASK_ENVIRONMENT(task);
 520              		.loc 1 313 0
 521 03f6 8B4508   		movl	8(%ebp), %eax
 522 03f9 890424   		movl	%eax, (%esp)
 523 03fc E8000000 		call	_OS_TASK_RESTORETASK_ENVIRONMENT
 523      00
 314:E:/NeuOrga/Programmieren/c_cpp/github_os/input/src/os_base\os_task_scheduler.c ****             task->start_time = OS_GetCurrentTime();
 524              		.loc 1 314 0
 525 0401 E8000000 		call	_OS_GetCurrentTime
 525      00
 526 0406 89C2     		movl	%eax, %edx
 527 0408 8B4508   		movl	8(%ebp), %eax
 528 040b 895020   		movl	%edx, 32(%eax)
 315:E:/NeuOrga/Programmieren/c_cpp/github_os/input/src/os_base\os_task_scheduler.c ****             EnableInterrupts();
 316:E:/NeuOrga/Programmieren/c_cpp/github_os/input/src/os_base\os_task_scheduler.c **** 
 317:E:/NeuOrga/Programmieren/c_cpp/github_os/input/src/os_base\os_task_scheduler.c ****             /* task execution shall not happen with disabled interrupts */
 318:E:/NeuOrga/Programmieren/c_cpp/github_os/input/src/os_base\os_task_scheduler.c ****             SET_RUNNING_TASK(task, scheduling_task);
 529              		.loc 1 318 0
 530 040e 8B450C   		movl	12(%ebp), %eax
 531 0411 89442404 		movl	%eax, 4(%esp)
 532 0415 8B4508   		movl	8(%ebp), %eax
 533 0418 890424   		movl	%eax, (%esp)
 534 041b E8000000 		call	_SET_RUNNING_TASK
 534      00
 319:E:/NeuOrga/Programmieren/c_cpp/github_os/input/src/os_base\os_task_scheduler.c ****             /* change to user mode... */
 320:E:/NeuOrga/Programmieren/c_cpp/github_os/input/src/os_base\os_task_scheduler.c ****             if(task->privilige_mode == ePriviligeMode_unpriviliged_thread_mode)
 535              		.loc 1 320 0
 536 0420 8B4508   		movl	8(%ebp), %eax
 537 0423 8B4060   		movl	96(%eax), %eax
 538 0426 85C0     		testl	%eax, %eax
 539 0428 7505     		jne	L53
 321:E:/NeuOrga/Programmieren/c_cpp/github_os/input/src/os_base\os_task_scheduler.c ****             {
 322:E:/NeuOrga/Programmieren/c_cpp/github_os/input/src/os_base\os_task_scheduler.c ****                LLF_CHANGE_TO_UNPRIVILIGED_THREAD_MODE();
 540              		.loc 1 322 0
 541 042a E8000000 		call	_LLF_CHANGE_TO_UNPRIVILIGED_THREAD_MODE
 541      00
 542              	L53:
 323:E:/NeuOrga/Programmieren/c_cpp/github_os/input/src/os_base\os_task_scheduler.c ****             }
 324:E:/NeuOrga/Programmieren/c_cpp/github_os/input/src/os_base\os_task_scheduler.c **** 
 325:E:/NeuOrga/Programmieren/c_cpp/github_os/input/src/os_base\os_task_scheduler.c ****             /* call the task entry function */
 326:E:/NeuOrga/Programmieren/c_cpp/github_os/input/src/os_base\os_task_scheduler.c ****             task->fp(task);
 543              		.loc 1 326 0
GAS LISTING C:\Users\PRESID~1\AppData\Local\Temp\ccylhMgF.s 			page 18


 544 042f 8B4508   		movl	8(%ebp), %eax
 545 0432 8B402C   		movl	44(%eax), %eax
 546 0435 8B5508   		movl	8(%ebp), %edx
 547 0438 891424   		movl	%edx, (%esp)
 548 043b FFD0     		call	*%eax
 549 043d EB2A     		jmp	L48
 550              	L52:
 327:E:/NeuOrga/Programmieren/c_cpp/github_os/input/src/os_base\os_task_scheduler.c ****          }
 328:E:/NeuOrga/Programmieren/c_cpp/github_os/input/src/os_base\os_task_scheduler.c ****          else
 329:E:/NeuOrga/Programmieren/c_cpp/github_os/input/src/os_base\os_task_scheduler.c ****          {
 330:E:/NeuOrga/Programmieren/c_cpp/github_os/input/src/os_base\os_task_scheduler.c ****             OS_SetSwBug(os_bug_taskstate_request_denied, Func_StartTask);
 551              		.loc 1 330 0
 552 043f C7442404 		movl	$6, 4(%esp)
 552      06000000 
 553 0447 C7042401 		movl	$1, (%esp)
 553      000000
 554 044e E8000000 		call	_OS_SetSwBug
 554      00
 555 0453 EB14     		jmp	L48
 556              	L51:
 331:E:/NeuOrga/Programmieren/c_cpp/github_os/input/src/os_base\os_task_scheduler.c ****          }
 332:E:/NeuOrga/Programmieren/c_cpp/github_os/input/src/os_base\os_task_scheduler.c **** 
 333:E:/NeuOrga/Programmieren/c_cpp/github_os/input/src/os_base\os_task_scheduler.c ****       }
 334:E:/NeuOrga/Programmieren/c_cpp/github_os/input/src/os_base\os_task_scheduler.c ****       else
 335:E:/NeuOrga/Programmieren/c_cpp/github_os/input/src/os_base\os_task_scheduler.c ****       {
 336:E:/NeuOrga/Programmieren/c_cpp/github_os/input/src/os_base\os_task_scheduler.c ****          OS_SetSwBug(os_bug_null_pointer, Func_StartTask);
 557              		.loc 1 336 0
 558 0455 C7442404 		movl	$6, 4(%esp)
 558      06000000 
 559 045d C7042402 		movl	$2, (%esp)
 559      000000
 560 0464 E8000000 		call	_OS_SetSwBug
 560      00
 561              	L48:
 337:E:/NeuOrga/Programmieren/c_cpp/github_os/input/src/os_base\os_task_scheduler.c ****       }
 338:E:/NeuOrga/Programmieren/c_cpp/github_os/input/src/os_base\os_task_scheduler.c ****    }
 339:E:/NeuOrga/Programmieren/c_cpp/github_os/input/src/os_base\os_task_scheduler.c ****    /* allowed in case of empty QUEUE elements (queue elements which have no activate_task yet recei
 340:E:/NeuOrga/Programmieren/c_cpp/github_os/input/src/os_base\os_task_scheduler.c ****    else
 341:E:/NeuOrga/Programmieren/c_cpp/github_os/input/src/os_base\os_task_scheduler.c ****    {
 342:E:/NeuOrga/Programmieren/c_cpp/github_os/input/src/os_base\os_task_scheduler.c ****        OS_SetSwBug(os_bug_null_pointer, Func_StartTask);
 343:E:/NeuOrga/Programmieren/c_cpp/github_os/input/src/os_base\os_task_scheduler.c ****    }
 344:E:/NeuOrga/Programmieren/c_cpp/github_os/input/src/os_base\os_task_scheduler.c ****    */
 345:E:/NeuOrga/Programmieren/c_cpp/github_os/input/src/os_base\os_task_scheduler.c **** }
 562              		.loc 1 345 0
 563 0469 C9       		leave
 564              		.cfi_restore 5
 565              		.cfi_def_cfa 4, 4
 566 046a C3       		ret
 567              		.cfi_endproc
 568              	LFE6:
 569              		.globl	_OS_TerminateTask
 571              	_OS_TerminateTask:
 572              	LFB7:
 346:E:/NeuOrga/Programmieren/c_cpp/github_os/input/src/os_base\os_task_scheduler.c **** void OS_TerminateTask(task_t* task, scheduling_t* scheduling_task)
 347:E:/NeuOrga/Programmieren/c_cpp/github_os/input/src/os_base\os_task_scheduler.c **** {
 573              		.loc 1 347 0
 574              		.cfi_startproc
GAS LISTING C:\Users\PRESID~1\AppData\Local\Temp\ccylhMgF.s 			page 19


 575 046b 55       		pushl	%ebp
 576              		.cfi_def_cfa_offset 8
 577              		.cfi_offset 5, -8
 578 046c 89E5     		movl	%esp, %ebp
 579              		.cfi_def_cfa_register 5
 580 046e 83EC18   		subl	$24, %esp
 348:E:/NeuOrga/Programmieren/c_cpp/github_os/input/src/os_base\os_task_scheduler.c ****    /* Preempt task
 349:E:/NeuOrga/Programmieren/c_cpp/github_os/input/src/os_base\os_task_scheduler.c ****    - Disable Interrupts
 350:E:/NeuOrga/Programmieren/c_cpp/github_os/input/src/os_base\os_task_scheduler.c ****    - OS_TaskSaveTaskEnvironment
 351:E:/NeuOrga/Programmieren/c_cpp/github_os/input/src/os_base\os_task_scheduler.c ****    - add to Schedule Queue / delete from RunQueue
 352:E:/NeuOrga/Programmieren/c_cpp/github_os/input/src/os_base\os_task_scheduler.c ****    - delete active flag
 353:E:/NeuOrga/Programmieren/c_cpp/github_os/input/src/os_base\os_task_scheduler.c ****    - enable Interrupts
 354:E:/NeuOrga/Programmieren/c_cpp/github_os/input/src/os_base\os_task_scheduler.c ****    */
 355:E:/NeuOrga/Programmieren/c_cpp/github_os/input/src/os_base\os_task_scheduler.c ****    if(task != 0 && scheduling_task != 0)
 581              		.loc 1 355 0
 582 0471 837D0800 		cmpl	$0, 8(%ebp)
 583 0475 0F84B500 		je	L56
 583      0000
 584              		.loc 1 355 0 is_stmt 0 discriminator 1
 585 047b 837D0C00 		cmpl	$0, 12(%ebp)
 586 047f 0F84AB00 		je	L56
 586      0000
 356:E:/NeuOrga/Programmieren/c_cpp/github_os/input/src/os_base\os_task_scheduler.c ****    {
 357:E:/NeuOrga/Programmieren/c_cpp/github_os/input/src/os_base\os_task_scheduler.c ****       if(task->state_request != 0)
 587              		.loc 1 357 0 is_stmt 1
 588 0485 8B4508   		movl	8(%ebp), %eax
 589 0488 8B4030   		movl	48(%eax), %eax
 590 048b 85C0     		testl	%eax, %eax
 591 048d 0F848700 		je	L57
 591      0000
 358:E:/NeuOrga/Programmieren/c_cpp/github_os/input/src/os_base\os_task_scheduler.c ****       {
 359:E:/NeuOrga/Programmieren/c_cpp/github_os/input/src/os_base\os_task_scheduler.c ****          if(task->state_request(task, Task_suspended)== Accepted)
 592              		.loc 1 359 0
 593 0493 8B4508   		movl	8(%ebp), %eax
 594 0496 8B4030   		movl	48(%eax), %eax
 595 0499 C7442404 		movl	$1, 4(%esp)
 595      01000000 
 596 04a1 8B5508   		movl	8(%ebp), %edx
 597 04a4 891424   		movl	%edx, (%esp)
 598 04a7 FFD0     		call	*%eax
 599 04a9 3C01     		cmpb	$1, %al
 600 04ab 7557     		jne	L58
 360:E:/NeuOrga/Programmieren/c_cpp/github_os/input/src/os_base\os_task_scheduler.c ****          {
 361:E:/NeuOrga/Programmieren/c_cpp/github_os/input/src/os_base\os_task_scheduler.c ****             DisableInterrupts();
 362:E:/NeuOrga/Programmieren/c_cpp/github_os/input/src/os_base\os_task_scheduler.c ****             OS_TaskSaveTaskEnvironment(task);
 601              		.loc 1 362 0
 602 04ad 8B4508   		movl	8(%ebp), %eax
 603 04b0 890424   		movl	%eax, (%esp)
 604 04b3 E8000000 		call	_OS_TaskSaveTaskEnvironment
 604      00
 363:E:/NeuOrga/Programmieren/c_cpp/github_os/input/src/os_base\os_task_scheduler.c ****             OS_TASK_RESTORE_SYSTEM_STACK(&OS_STACK[OS_GetCoreId()][0]);
 605              		.loc 1 363 0
 606 04b8 E8000000 		call	_OS_GetCoreId
 606      00
 607 04bd 89C2     		movl	%eax, %edx
 608 04bf 89D0     		movl	%edx, %eax
 609 04c1 C1E002   		sall	$2, %eax
GAS LISTING C:\Users\PRESID~1\AppData\Local\Temp\ccylhMgF.s 			page 20


 610 04c4 01D0     		addl	%edx, %eax
 611 04c6 C1E00C   		sall	$12, %eax
 612 04c9 05000000 		addl	$_OS_STACK, %eax
 612      00
 613 04ce 890424   		movl	%eax, (%esp)
 614 04d1 E8000000 		call	_OS_TASK_RESTORE_SYSTEM_STACK
 614      00
 364:E:/NeuOrga/Programmieren/c_cpp/github_os/input/src/os_base\os_task_scheduler.c ****             DeleteFromTaskQueue(task);
 615              		.loc 1 364 0
 616 04d6 8B4508   		movl	8(%ebp), %eax
 617 04d9 890424   		movl	%eax, (%esp)
 618 04dc E8000000 		call	_DeleteFromTaskQueue
 618      00
 365:E:/NeuOrga/Programmieren/c_cpp/github_os/input/src/os_base\os_task_scheduler.c ****             DeleteFromSchedulingQueue(scheduling_task);
 619              		.loc 1 365 0
 620 04e1 8B450C   		movl	12(%ebp), %eax
 621 04e4 890424   		movl	%eax, (%esp)
 622 04e7 E8000000 		call	_DeleteFromSchedulingQueue
 622      00
 366:E:/NeuOrga/Programmieren/c_cpp/github_os/input/src/os_base\os_task_scheduler.c **** 
 367:E:/NeuOrga/Programmieren/c_cpp/github_os/input/src/os_base\os_task_scheduler.c ****             task->active = False;
 623              		.loc 1 367 0
 624 04ec 8B4508   		movl	8(%ebp), %eax
 625 04ef 8A10     		movb	(%eax), %dl
 626 04f1 83E2FE   		andl	$-2, %edx
 627 04f4 8810     		movb	%dl, (%eax)
 368:E:/NeuOrga/Programmieren/c_cpp/github_os/input/src/os_base\os_task_scheduler.c ****             /* reset the prio increase for waiting */
 369:E:/NeuOrga/Programmieren/c_cpp/github_os/input/src/os_base\os_task_scheduler.c ****             task->current_prio = task->default_prio;
 628              		.loc 1 369 0
 629 04f6 8B4508   		movl	8(%ebp), %eax
 630 04f9 8A5025   		movb	37(%eax), %dl
 631 04fc 8B4508   		movl	8(%ebp), %eax
 632 04ff 885024   		movb	%dl, 36(%eax)
 357:E:/NeuOrga/Programmieren/c_cpp/github_os/input/src/os_base\os_task_scheduler.c ****       {
 633              		.loc 1 357 0
 634 0502 EB40     		jmp	L55
 635              	L58:
 370:E:/NeuOrga/Programmieren/c_cpp/github_os/input/src/os_base\os_task_scheduler.c ****             EnableInterrupts();
 371:E:/NeuOrga/Programmieren/c_cpp/github_os/input/src/os_base\os_task_scheduler.c ****          }
 372:E:/NeuOrga/Programmieren/c_cpp/github_os/input/src/os_base\os_task_scheduler.c ****          else
 373:E:/NeuOrga/Programmieren/c_cpp/github_os/input/src/os_base\os_task_scheduler.c ****          {
 374:E:/NeuOrga/Programmieren/c_cpp/github_os/input/src/os_base\os_task_scheduler.c ****             OS_SetSwBug(os_bug_taskstate_request_denied, Func_TerminateTask);
 636              		.loc 1 374 0
 637 0504 C7442404 		movl	$8, 4(%esp)
 637      08000000 
 638 050c C7042401 		movl	$1, (%esp)
 638      000000
 639 0513 E8000000 		call	_OS_SetSwBug
 639      00
 357:E:/NeuOrga/Programmieren/c_cpp/github_os/input/src/os_base\os_task_scheduler.c ****       {
 640              		.loc 1 357 0
 641 0518 EB2A     		jmp	L55
 642              	L57:
 375:E:/NeuOrga/Programmieren/c_cpp/github_os/input/src/os_base\os_task_scheduler.c ****          }
 376:E:/NeuOrga/Programmieren/c_cpp/github_os/input/src/os_base\os_task_scheduler.c ****       }
 377:E:/NeuOrga/Programmieren/c_cpp/github_os/input/src/os_base\os_task_scheduler.c ****       else
 378:E:/NeuOrga/Programmieren/c_cpp/github_os/input/src/os_base\os_task_scheduler.c ****       {
GAS LISTING C:\Users\PRESID~1\AppData\Local\Temp\ccylhMgF.s 			page 21


 379:E:/NeuOrga/Programmieren/c_cpp/github_os/input/src/os_base\os_task_scheduler.c ****          OS_SetSwBug(os_bug_null_pointer, Func_TerminateTask);
 643              		.loc 1 379 0
 644 051a C7442404 		movl	$8, 4(%esp)
 644      08000000 
 645 0522 C7042402 		movl	$2, (%esp)
 645      000000
 646 0529 E8000000 		call	_OS_SetSwBug
 646      00
 357:E:/NeuOrga/Programmieren/c_cpp/github_os/input/src/os_base\os_task_scheduler.c ****       {
 647              		.loc 1 357 0
 648 052e EB14     		jmp	L55
 649              	L56:
 380:E:/NeuOrga/Programmieren/c_cpp/github_os/input/src/os_base\os_task_scheduler.c ****       }
 381:E:/NeuOrga/Programmieren/c_cpp/github_os/input/src/os_base\os_task_scheduler.c **** 
 382:E:/NeuOrga/Programmieren/c_cpp/github_os/input/src/os_base\os_task_scheduler.c ****    }
 383:E:/NeuOrga/Programmieren/c_cpp/github_os/input/src/os_base\os_task_scheduler.c ****    else
 384:E:/NeuOrga/Programmieren/c_cpp/github_os/input/src/os_base\os_task_scheduler.c ****    {
 385:E:/NeuOrga/Programmieren/c_cpp/github_os/input/src/os_base\os_task_scheduler.c ****       OS_SetSwBug(os_bug_null_pointer, Func_TerminateTask);
 650              		.loc 1 385 0
 651 0530 C7442404 		movl	$8, 4(%esp)
 651      08000000 
 652 0538 C7042402 		movl	$2, (%esp)
 652      000000
 653 053f E8000000 		call	_OS_SetSwBug
 653      00
 654              	L55:
 386:E:/NeuOrga/Programmieren/c_cpp/github_os/input/src/os_base\os_task_scheduler.c ****    }
 387:E:/NeuOrga/Programmieren/c_cpp/github_os/input/src/os_base\os_task_scheduler.c **** }
 655              		.loc 1 387 0
 656 0544 C9       		leave
 657              		.cfi_restore 5
 658              		.cfi_def_cfa 4, 4
 659 0545 C3       		ret
 660              		.cfi_endproc
 661              	LFE7:
 662              		.globl	_OS_TaskDispatcher
 664              	_OS_TaskDispatcher:
 665              	LFB8:
 388:E:/NeuOrga/Programmieren/c_cpp/github_os/input/src/os_base\os_task_scheduler.c **** void OS_TaskDispatcher(void)
 389:E:/NeuOrga/Programmieren/c_cpp/github_os/input/src/os_base\os_task_scheduler.c **** {
 666              		.loc 1 389 0
 667              		.cfi_startproc
 668 0546 55       		pushl	%ebp
 669              		.cfi_def_cfa_offset 8
 670              		.cfi_offset 5, -8
 671 0547 89E5     		movl	%esp, %ebp
 672              		.cfi_def_cfa_register 5
 673 0549 83EC28   		subl	$40, %esp
 390:E:/NeuOrga/Programmieren/c_cpp/github_os/input/src/os_base\os_task_scheduler.c ****    /* called in an certain core context (Core_0/1/2/3)*/
 391:E:/NeuOrga/Programmieren/c_cpp/github_os/input/src/os_base\os_task_scheduler.c **** 
 392:E:/NeuOrga/Programmieren/c_cpp/github_os/input/src/os_base\os_task_scheduler.c **** 
 393:E:/NeuOrga/Programmieren/c_cpp/github_os/input/src/os_base\os_task_scheduler.c ****    /*
 394:E:/NeuOrga/Programmieren/c_cpp/github_os/input/src/os_base\os_task_scheduler.c ****    1. running     --(terminate)--> suspend
 395:E:/NeuOrga/Programmieren/c_cpp/github_os/input/src/os_base\os_task_scheduler.c ****    2. running     --(preempt  )--> ready
 396:E:/NeuOrga/Programmieren/c_cpp/github_os/input/src/os_base\os_task_scheduler.c ****    3. suspend     --(activate )--> ready
 397:E:/NeuOrga/Programmieren/c_cpp/github_os/input/src/os_base\os_task_scheduler.c ****    4. ready       --(start    )--> running
 398:E:/NeuOrga/Programmieren/c_cpp/github_os/input/src/os_base\os_task_scheduler.c ****    5. unspecified --(create   )--> suspend
GAS LISTING C:\Users\PRESID~1\AppData\Local\Temp\ccylhMgF.s 			page 22


 399:E:/NeuOrga/Programmieren/c_cpp/github_os/input/src/os_base\os_task_scheduler.c ****    */
 400:E:/NeuOrga/Programmieren/c_cpp/github_os/input/src/os_base\os_task_scheduler.c ****    scheduling_t* scheduling_task_ptr;
 401:E:/NeuOrga/Programmieren/c_cpp/github_os/input/src/os_base\os_task_scheduler.c ****    task_t* task = 0;
 674              		.loc 1 401 0
 675 054c C745F400 		movl	$0, -12(%ebp)
 675      000000
 402:E:/NeuOrga/Programmieren/c_cpp/github_os/input/src/os_base\os_task_scheduler.c ****    /* get running task */
 403:E:/NeuOrga/Programmieren/c_cpp/github_os/input/src/os_base\os_task_scheduler.c ****    task         = GetRunningTask();
 676              		.loc 1 403 0
 677 0553 E8000000 		call	_GetRunningTask
 677      00
 678 0558 8945F4   		movl	%eax, -12(%ebp)
 404:E:/NeuOrga/Programmieren/c_cpp/github_os/input/src/os_base\os_task_scheduler.c ****    scheduling_task_ptr = GetRunningSchedulingQueueElementPtr();
 679              		.loc 1 404 0
 680 055b E8000000 		call	_GetRunningSchedulingQueueElementPtr
 680      00
 681 0560 8945F0   		movl	%eax, -16(%ebp)
 405:E:/NeuOrga/Programmieren/c_cpp/github_os/input/src/os_base\os_task_scheduler.c ****    /* Preempt Task */
 406:E:/NeuOrga/Programmieren/c_cpp/github_os/input/src/os_base\os_task_scheduler.c ****    if(task!=0 && scheduling_task_ptr != 0)
 682              		.loc 1 406 0
 683 0563 837DF400 		cmpl	$0, -12(%ebp)
 684 0567 7418     		je	L63
 685              		.loc 1 406 0 is_stmt 0 discriminator 1
 686 0569 837DF000 		cmpl	$0, -16(%ebp)
 687 056d 7412     		je	L63
 407:E:/NeuOrga/Programmieren/c_cpp/github_os/input/src/os_base\os_task_scheduler.c ****    {
 408:E:/NeuOrga/Programmieren/c_cpp/github_os/input/src/os_base\os_task_scheduler.c ****       OS_TerminateTask(task, scheduling_task_ptr);
 688              		.loc 1 408 0 is_stmt 1
 689 056f 8B45F0   		movl	-16(%ebp), %eax
 690 0572 89442404 		movl	%eax, 4(%esp)
 691 0576 8B45F4   		movl	-12(%ebp), %eax
 692 0579 890424   		movl	%eax, (%esp)
 693 057c E8EAFEFF 		call	_OS_TerminateTask
 693      FF
 694              	L63:
 409:E:/NeuOrga/Programmieren/c_cpp/github_os/input/src/os_base\os_task_scheduler.c ****    }
 410:E:/NeuOrga/Programmieren/c_cpp/github_os/input/src/os_base\os_task_scheduler.c **** 
 411:E:/NeuOrga/Programmieren/c_cpp/github_os/input/src/os_base\os_task_scheduler.c **** 
 412:E:/NeuOrga/Programmieren/c_cpp/github_os/input/src/os_base\os_task_scheduler.c ****    /* ask for the next task to be activated... */
 413:E:/NeuOrga/Programmieren/c_cpp/github_os/input/src/os_base\os_task_scheduler.c ****    scheduling_task_ptr = OS_TaskScheduler();
 695              		.loc 1 413 0
 696 0581 E84A0200 		call	_OS_TaskScheduler
 696      00
 697 0586 8945F0   		movl	%eax, -16(%ebp)
 414:E:/NeuOrga/Programmieren/c_cpp/github_os/input/src/os_base\os_task_scheduler.c ****    if(scheduling_task_ptr != 0)
 698              		.loc 1 414 0
 699 0589 837DF000 		cmpl	$0, -16(%ebp)
 700 058d 740E     		je	L64
 415:E:/NeuOrga/Programmieren/c_cpp/github_os/input/src/os_base\os_task_scheduler.c ****    {
 416:E:/NeuOrga/Programmieren/c_cpp/github_os/input/src/os_base\os_task_scheduler.c ****       task = GetFromTaskQueue(scheduling_task_ptr);
 701              		.loc 1 416 0
 702 058f 8B45F0   		movl	-16(%ebp), %eax
 703 0592 890424   		movl	%eax, (%esp)
 704 0595 E8000000 		call	_GetFromTaskQueue
 704      00
 705 059a 8945F4   		movl	%eax, -12(%ebp)
 706              	L64:
GAS LISTING C:\Users\PRESID~1\AppData\Local\Temp\ccylhMgF.s 			page 23


 417:E:/NeuOrga/Programmieren/c_cpp/github_os/input/src/os_base\os_task_scheduler.c ****    }
 418:E:/NeuOrga/Programmieren/c_cpp/github_os/input/src/os_base\os_task_scheduler.c ****    if(task != 0 && scheduling_task_ptr != 0)
 707              		.loc 1 418 0
 708 059d 837DF400 		cmpl	$0, -12(%ebp)
 709 05a1 7418     		je	L62
 710              		.loc 1 418 0 is_stmt 0 discriminator 1
 711 05a3 837DF000 		cmpl	$0, -16(%ebp)
 712 05a7 7412     		je	L62
 419:E:/NeuOrga/Programmieren/c_cpp/github_os/input/src/os_base\os_task_scheduler.c ****    {
 420:E:/NeuOrga/Programmieren/c_cpp/github_os/input/src/os_base\os_task_scheduler.c ****        OS_StartTask(task, scheduling_task_ptr);
 713              		.loc 1 420 0 is_stmt 1
 714 05a9 8B45F0   		movl	-16(%ebp), %eax
 715 05ac 89442404 		movl	%eax, 4(%esp)
 716 05b0 8B45F4   		movl	-12(%ebp), %eax
 717 05b3 890424   		movl	%eax, (%esp)
 718 05b6 E89BFDFF 		call	_OS_StartTask
 718      FF
 719              	L62:
 421:E:/NeuOrga/Programmieren/c_cpp/github_os/input/src/os_base\os_task_scheduler.c ****    }
 422:E:/NeuOrga/Programmieren/c_cpp/github_os/input/src/os_base\os_task_scheduler.c **** }
 720              		.loc 1 422 0
 721 05bb C9       		leave
 722              		.cfi_restore 5
 723              		.cfi_def_cfa 4, 4
 724 05bc C3       		ret
 725              		.cfi_endproc
 726              	LFE8:
 728              	_TASK_0:
 729              	LFB9:
 423:E:/NeuOrga/Programmieren/c_cpp/github_os/input/src/os_base\os_task_scheduler.c **** Local void TASK_0(void* task_ptr)
 424:E:/NeuOrga/Programmieren/c_cpp/github_os/input/src/os_base\os_task_scheduler.c **** {
 730              		.loc 1 424 0
 731              		.cfi_startproc
 732 05bd 55       		pushl	%ebp
 733              		.cfi_def_cfa_offset 8
 734              		.cfi_offset 5, -8
 735 05be 89E5     		movl	%esp, %ebp
 736              		.cfi_def_cfa_register 5
 425:E:/NeuOrga/Programmieren/c_cpp/github_os/input/src/os_base\os_task_scheduler.c ****    ReferenceUnusedParameter(task_ptr);
 426:E:/NeuOrga/Programmieren/c_cpp/github_os/input/src/os_base\os_task_scheduler.c ****    HaltMcu();/* HLT will be ended by timer interrupt, what shall be done with the rest of the funct
 427:E:/NeuOrga/Programmieren/c_cpp/github_os/input/src/os_base\os_task_scheduler.c **** }
 737              		.loc 1 427 0
 738 05c0 5D       		popl	%ebp
 739              		.cfi_restore 5
 740              		.cfi_def_cfa 4, 4
 741 05c1 C3       		ret
 742              		.cfi_endproc
 743              	LFE9:
 745              	_TASK_1:
 746              	LFB10:
 428:E:/NeuOrga/Programmieren/c_cpp/github_os/input/src/os_base\os_task_scheduler.c **** Local void TASK_1(void* task_ptr)
 429:E:/NeuOrga/Programmieren/c_cpp/github_os/input/src/os_base\os_task_scheduler.c **** {
 747              		.loc 1 429 0
 748              		.cfi_startproc
 749 05c2 55       		pushl	%ebp
 750              		.cfi_def_cfa_offset 8
 751              		.cfi_offset 5, -8
GAS LISTING C:\Users\PRESID~1\AppData\Local\Temp\ccylhMgF.s 			page 24


 752 05c3 89E5     		movl	%esp, %ebp
 753              		.cfi_def_cfa_register 5
 754 05c5 83EC28   		subl	$40, %esp
 430:E:/NeuOrga/Programmieren/c_cpp/github_os/input/src/os_base\os_task_scheduler.c ****    scheduling_t* scheduling_task_ptr = 0;
 755              		.loc 1 430 0
 756 05c8 C745F400 		movl	$0, -12(%ebp)
 756      000000
 431:E:/NeuOrga/Programmieren/c_cpp/github_os/input/src/os_base\os_task_scheduler.c ****    ReferenceUnusedParameter(task_ptr);
 432:E:/NeuOrga/Programmieren/c_cpp/github_os/input/src/os_base\os_task_scheduler.c ****    /* worker task */
 433:E:/NeuOrga/Programmieren/c_cpp/github_os/input/src/os_base\os_task_scheduler.c ****    scheduling_task_ptr = GetRunningSchedulingQueueElementPtr();
 757              		.loc 1 433 0
 758 05cf E8000000 		call	_GetRunningSchedulingQueueElementPtr
 758      00
 759 05d4 8945F4   		movl	%eax, -12(%ebp)
 434:E:/NeuOrga/Programmieren/c_cpp/github_os/input/src/os_base\os_task_scheduler.c ****    /* do some things */
 435:E:/NeuOrga/Programmieren/c_cpp/github_os/input/src/os_base\os_task_scheduler.c ****    /*while(1) {}*/
 436:E:/NeuOrga/Programmieren/c_cpp/github_os/input/src/os_base\os_task_scheduler.c ****    TASK1_CALL_NR++;
 760              		.loc 1 436 0
 761 05d7 A1000000 		movl	_TASK1_CALL_NR, %eax
 761      00
 762 05dc 40       		incl	%eax
 763 05dd A3000000 		movl	%eax, _TASK1_CALL_NR
 763      00
 437:E:/NeuOrga/Programmieren/c_cpp/github_os/input/src/os_base\os_task_scheduler.c ****    OS_SleepTask((task_t*)task_ptr, 10, scheduling_task_ptr);
 764              		.loc 1 437 0
 765 05e2 8B45F4   		movl	-12(%ebp), %eax
 766 05e5 89442408 		movl	%eax, 8(%esp)
 767 05e9 C7442404 		movl	$10, 4(%esp)
 767      0A000000 
 768 05f1 8B4508   		movl	8(%ebp), %eax
 769 05f4 890424   		movl	%eax, (%esp)
 770 05f7 E809FAFF 		call	_OS_SleepTask
 770      FF
 438:E:/NeuOrga/Programmieren/c_cpp/github_os/input/src/os_base\os_task_scheduler.c ****    #if (CFG_PROCESSOR != cMCU_X86)
 439:E:/NeuOrga/Programmieren/c_cpp/github_os/input/src/os_base\os_task_scheduler.c ****    while(1) {}
 440:E:/NeuOrga/Programmieren/c_cpp/github_os/input/src/os_base\os_task_scheduler.c ****    #endif
 441:E:/NeuOrga/Programmieren/c_cpp/github_os/input/src/os_base\os_task_scheduler.c ****    /* end */
 442:E:/NeuOrga/Programmieren/c_cpp/github_os/input/src/os_base\os_task_scheduler.c **** }
 771              		.loc 1 442 0
 772 05fc C9       		leave
 773              		.cfi_restore 5
 774              		.cfi_def_cfa 4, 4
 775 05fd C3       		ret
 776              		.cfi_endproc
 777              	LFE10:
 779              	_TASK_2:
 780              	LFB11:
 443:E:/NeuOrga/Programmieren/c_cpp/github_os/input/src/os_base\os_task_scheduler.c **** Local void TASK_2(void* task_ptr)
 444:E:/NeuOrga/Programmieren/c_cpp/github_os/input/src/os_base\os_task_scheduler.c **** {
 781              		.loc 1 444 0
 782              		.cfi_startproc
 783 05fe 55       		pushl	%ebp
 784              		.cfi_def_cfa_offset 8
 785              		.cfi_offset 5, -8
 786 05ff 89E5     		movl	%esp, %ebp
 787              		.cfi_def_cfa_register 5
 445:E:/NeuOrga/Programmieren/c_cpp/github_os/input/src/os_base\os_task_scheduler.c ****    ReferenceUnusedParameter(task_ptr);
GAS LISTING C:\Users\PRESID~1\AppData\Local\Temp\ccylhMgF.s 			page 25


 446:E:/NeuOrga/Programmieren/c_cpp/github_os/input/src/os_base\os_task_scheduler.c ****    /* worker task */
 447:E:/NeuOrga/Programmieren/c_cpp/github_os/input/src/os_base\os_task_scheduler.c **** 
 448:E:/NeuOrga/Programmieren/c_cpp/github_os/input/src/os_base\os_task_scheduler.c ****    /* do some things */
 449:E:/NeuOrga/Programmieren/c_cpp/github_os/input/src/os_base\os_task_scheduler.c ****    TASK2_CALL_NR++;
 788              		.loc 1 449 0
 789 0601 A1000000 		movl	_TASK2_CALL_NR, %eax
 789      00
 790 0606 40       		incl	%eax
 791 0607 A3000000 		movl	%eax, _TASK2_CALL_NR
 791      00
 450:E:/NeuOrga/Programmieren/c_cpp/github_os/input/src/os_base\os_task_scheduler.c ****    #if (CFG_PROCESSOR != cMCU_X86)
 451:E:/NeuOrga/Programmieren/c_cpp/github_os/input/src/os_base\os_task_scheduler.c ****    while(1) {}
 452:E:/NeuOrga/Programmieren/c_cpp/github_os/input/src/os_base\os_task_scheduler.c ****    #endif
 453:E:/NeuOrga/Programmieren/c_cpp/github_os/input/src/os_base\os_task_scheduler.c ****    /* end */
 454:E:/NeuOrga/Programmieren/c_cpp/github_os/input/src/os_base\os_task_scheduler.c **** }
 792              		.loc 1 454 0
 793 060c 5D       		popl	%ebp
 794              		.cfi_restore 5
 795              		.cfi_def_cfa 4, 4
 796 060d C3       		ret
 797              		.cfi_endproc
 798              	LFE11:
 800              	_TASK_3:
 801              	LFB12:
 455:E:/NeuOrga/Programmieren/c_cpp/github_os/input/src/os_base\os_task_scheduler.c **** Local void TASK_3(void* task_ptr)
 456:E:/NeuOrga/Programmieren/c_cpp/github_os/input/src/os_base\os_task_scheduler.c **** {
 802              		.loc 1 456 0
 803              		.cfi_startproc
 804 060e 55       		pushl	%ebp
 805              		.cfi_def_cfa_offset 8
 806              		.cfi_offset 5, -8
 807 060f 89E5     		movl	%esp, %ebp
 808              		.cfi_def_cfa_register 5
 457:E:/NeuOrga/Programmieren/c_cpp/github_os/input/src/os_base\os_task_scheduler.c ****    ReferenceUnusedParameter(task_ptr);
 458:E:/NeuOrga/Programmieren/c_cpp/github_os/input/src/os_base\os_task_scheduler.c ****    /* worker task */
 459:E:/NeuOrga/Programmieren/c_cpp/github_os/input/src/os_base\os_task_scheduler.c **** 
 460:E:/NeuOrga/Programmieren/c_cpp/github_os/input/src/os_base\os_task_scheduler.c ****    /* do some things */
 461:E:/NeuOrga/Programmieren/c_cpp/github_os/input/src/os_base\os_task_scheduler.c ****    TASK3_CALL_NR++;
 809              		.loc 1 461 0
 810 0611 A1000000 		movl	_TASK3_CALL_NR, %eax
 810      00
 811 0616 40       		incl	%eax
 812 0617 A3000000 		movl	%eax, _TASK3_CALL_NR
 812      00
 462:E:/NeuOrga/Programmieren/c_cpp/github_os/input/src/os_base\os_task_scheduler.c ****    #if (CFG_PROCESSOR != cMCU_X86)
 463:E:/NeuOrga/Programmieren/c_cpp/github_os/input/src/os_base\os_task_scheduler.c ****    while(1) {}
 464:E:/NeuOrga/Programmieren/c_cpp/github_os/input/src/os_base\os_task_scheduler.c ****    #endif
 465:E:/NeuOrga/Programmieren/c_cpp/github_os/input/src/os_base\os_task_scheduler.c ****    /* end */
 466:E:/NeuOrga/Programmieren/c_cpp/github_os/input/src/os_base\os_task_scheduler.c **** }
 813              		.loc 1 466 0
 814 061c 5D       		popl	%ebp
 815              		.cfi_restore 5
 816              		.cfi_def_cfa 4, 4
 817 061d C3       		ret
 818              		.cfi_endproc
 819              	LFE12:
 820              		.globl	_OS_InitTasks
GAS LISTING C:\Users\PRESID~1\AppData\Local\Temp\ccylhMgF.s 			page 26


 822              	_OS_InitTasks:
 823              	LFB13:
 467:E:/NeuOrga/Programmieren/c_cpp/github_os/input/src/os_base\os_task_scheduler.c **** void OS_InitTasks(void)
 468:E:/NeuOrga/Programmieren/c_cpp/github_os/input/src/os_base\os_task_scheduler.c **** {
 824              		.loc 1 468 0
 825              		.cfi_startproc
 826 061e 55       		pushl	%ebp
 827              		.cfi_def_cfa_offset 8
 828              		.cfi_offset 5, -8
 829 061f 89E5     		movl	%esp, %ebp
 830              		.cfi_def_cfa_register 5
 831 0621 83EC48   		subl	$72, %esp
 469:E:/NeuOrga/Programmieren/c_cpp/github_os/input/src/os_base\os_task_scheduler.c ****    task_t* task_ptr = 0;
 832              		.loc 1 469 0
 833 0624 C745F400 		movl	$0, -12(%ebp)
 833      000000
 470:E:/NeuOrga/Programmieren/c_cpp/github_os/input/src/os_base\os_task_scheduler.c ****    LAST_CURRENT_TIME = OS_GetCurrentTime();
 834              		.loc 1 470 0
 835 062b E8000000 		call	_OS_GetCurrentTime
 835      00
 836 0630 A3000000 		movl	%eax, _LAST_CURRENT_TIME
 836      00
 471:E:/NeuOrga/Programmieren/c_cpp/github_os/input/src/os_base\os_task_scheduler.c **** 
 472:E:/NeuOrga/Programmieren/c_cpp/github_os/input/src/os_base\os_task_scheduler.c ****    ReferenceUnusedParameter (TASK_GROUP_1);
 473:E:/NeuOrga/Programmieren/c_cpp/github_os/input/src/os_base\os_task_scheduler.c ****    ReferenceUnusedParameter (TASK_GROUP_2);
 474:E:/NeuOrga/Programmieren/c_cpp/github_os/input/src/os_base\os_task_scheduler.c ****    ReferenceUnusedParameter (TASK_GROUP_3);
 475:E:/NeuOrga/Programmieren/c_cpp/github_os/input/src/os_base\os_task_scheduler.c ****    ReferenceUnusedParameter (TASK_GROUP_4);
 476:E:/NeuOrga/Programmieren/c_cpp/github_os/input/src/os_base\os_task_scheduler.c ****    ReferenceUnusedParameter (TASK_GROUP_5);
 477:E:/NeuOrga/Programmieren/c_cpp/github_os/input/src/os_base\os_task_scheduler.c **** 
 478:E:/NeuOrga/Programmieren/c_cpp/github_os/input/src/os_base\os_task_scheduler.c ****     /*
 479:E:/NeuOrga/Programmieren/c_cpp/github_os/input/src/os_base\os_task_scheduler.c ****    set task_state for all tasks to Task_unspecified
 480:E:/NeuOrga/Programmieren/c_cpp/github_os/input/src/os_base\os_task_scheduler.c ****     */
 481:E:/NeuOrga/Programmieren/c_cpp/github_os/input/src/os_base\os_task_scheduler.c ****    OS_InitTaskQueue();
 837              		.loc 1 481 0
 838 0635 E8000000 		call	_OS_InitTaskQueue
 838      00
 482:E:/NeuOrga/Programmieren/c_cpp/github_os/input/src/os_base\os_task_scheduler.c **** 
 483:E:/NeuOrga/Programmieren/c_cpp/github_os/input/src/os_base\os_task_scheduler.c ****    /* setup idle task */
 484:E:/NeuOrga/Programmieren/c_cpp/github_os/input/src/os_base\os_task_scheduler.c ****    task_ptr = &TASK_0_VAR;
 839              		.loc 1 484 0
 840 063a C745F400 		movl	$_TASK_0_VAR, -12(%ebp)
 840      000000
 485:E:/NeuOrga/Programmieren/c_cpp/github_os/input/src/os_base\os_task_scheduler.c ****    OS_InitTask(task_ptr,                          /* task */
 841              		.loc 1 485 0
 842 0641 C7442424 		movl	$0, 36(%esp)
 842      00000000 
 843 0649 C7442420 		movl	$0, 32(%esp)
 843      00000000 
 844 0651 C744241C 		movl	$0, 28(%esp)
 844      00000000 
 845 0659 C7442418 		movl	$200, 24(%esp)
 845      C8000000 
 846 0661 C7442414 		movl	$_TASK_STACK, 20(%esp)
 846      00000000 
 847 0669 C7442410 		movl	$_TASK_GROUP_1, 16(%esp)
 847      00000000 
 848 0671 C744240C 		movl	$1, 12(%esp)
GAS LISTING C:\Users\PRESID~1\AppData\Local\Temp\ccylhMgF.s 			page 27


 848      01000000 
 849 0679 C7442408 		movl	$1, 8(%esp)
 849      01000000 
 850 0681 C7442404 		movl	$_TASK_0, 4(%esp)
 850      BD050000 
 851 0689 8B45F4   		movl	-12(%ebp), %eax
 852 068c 890424   		movl	%eax, (%esp)
 853 068f E8000000 		call	_OS_InitTask
 853      00
 486:E:/NeuOrga/Programmieren/c_cpp/github_os/input/src/os_base\os_task_scheduler.c ****                 &TASK_0,                           /* Task Function*/
 487:E:/NeuOrga/Programmieren/c_cpp/github_os/input/src/os_base\os_task_scheduler.c ****                 1,                                 /* Nr of allowed instances*/
 488:E:/NeuOrga/Programmieren/c_cpp/github_os/input/src/os_base\os_task_scheduler.c ****                 True,                              /* Idle Task */
 489:E:/NeuOrga/Programmieren/c_cpp/github_os/input/src/os_base\os_task_scheduler.c ****                 &TASK_GROUP_1,                     /* Task Group */
 490:E:/NeuOrga/Programmieren/c_cpp/github_os/input/src/os_base\os_task_scheduler.c ****                 (unsigned_char_t*)&TASK_STACK[0],  /* Task_stack */
 491:E:/NeuOrga/Programmieren/c_cpp/github_os/input/src/os_base\os_task_scheduler.c ****                 200,                                /* Stack Size */
 492:E:/NeuOrga/Programmieren/c_cpp/github_os/input/src/os_base\os_task_scheduler.c ****                 ePriviligeMode_unpriviliged_thread_mode, /* Unpriviliged Thread Mode */
 493:E:/NeuOrga/Programmieren/c_cpp/github_os/input/src/os_base\os_task_scheduler.c ****                 Core0,                            /* Cortex M4 has only 1 core */
 494:E:/NeuOrga/Programmieren/c_cpp/github_os/input/src/os_base\os_task_scheduler.c ****                 0                                   /* default prio */
 495:E:/NeuOrga/Programmieren/c_cpp/github_os/input/src/os_base\os_task_scheduler.c ****                );
 496:E:/NeuOrga/Programmieren/c_cpp/github_os/input/src/os_base\os_task_scheduler.c ****    AddToSchedulingQueue(task_ptr);
 854              		.loc 1 496 0
 855 0694 8B45F4   		movl	-12(%ebp), %eax
 856 0697 890424   		movl	%eax, (%esp)
 857 069a E8000000 		call	_AddToSchedulingQueue
 857      00
 497:E:/NeuOrga/Programmieren/c_cpp/github_os/input/src/os_base\os_task_scheduler.c ****    OS_SaveTaskPtr(task_ptr, Task_0_ptr);
 498:E:/NeuOrga/Programmieren/c_cpp/github_os/input/src/os_base\os_task_scheduler.c **** 
 499:E:/NeuOrga/Programmieren/c_cpp/github_os/input/src/os_base\os_task_scheduler.c ****    /* setup worker task */
 500:E:/NeuOrga/Programmieren/c_cpp/github_os/input/src/os_base\os_task_scheduler.c ****    task_ptr = &TASK_1_VAR;
 858              		.loc 1 500 0
 859 069f C745F400 		movl	$_TASK_1_VAR, -12(%ebp)
 859      000000
 501:E:/NeuOrga/Programmieren/c_cpp/github_os/input/src/os_base\os_task_scheduler.c ****    OS_InitTask(task_ptr,      /* task */
 860              		.loc 1 501 0
 861 06a6 C7442424 		movl	$1, 36(%esp)
 861      01000000 
 862 06ae C7442420 		movl	$0, 32(%esp)
 862      00000000 
 863 06b6 C744241C 		movl	$0, 28(%esp)
 863      00000000 
 864 06be C7442418 		movl	$200, 24(%esp)
 864      C8000000 
 865 06c6 C7442414 		movl	$_TASK_STACK+2000, 20(%esp)
 865      D0070000 
 866 06ce C7442410 		movl	$_TASK_GROUP_1, 16(%esp)
 866      00000000 
 867 06d6 C744240C 		movl	$0, 12(%esp)
 867      00000000 
 868 06de C7442408 		movl	$1, 8(%esp)
 868      01000000 
 869 06e6 C7442404 		movl	$_TASK_1, 4(%esp)
 869      C2050000 
 870 06ee 8B45F4   		movl	-12(%ebp), %eax
 871 06f1 890424   		movl	%eax, (%esp)
 872 06f4 E8000000 		call	_OS_InitTask
 872      00
 502:E:/NeuOrga/Programmieren/c_cpp/github_os/input/src/os_base\os_task_scheduler.c ****                 &TASK_1,       /* Task Function*/
GAS LISTING C:\Users\PRESID~1\AppData\Local\Temp\ccylhMgF.s 			page 28


 503:E:/NeuOrga/Programmieren/c_cpp/github_os/input/src/os_base\os_task_scheduler.c ****                 1,             /* Nr of allowed instances*/
 504:E:/NeuOrga/Programmieren/c_cpp/github_os/input/src/os_base\os_task_scheduler.c ****                 False,          /* Idle Task */
 505:E:/NeuOrga/Programmieren/c_cpp/github_os/input/src/os_base\os_task_scheduler.c ****                 &TASK_GROUP_1, /* Task Group */
 506:E:/NeuOrga/Programmieren/c_cpp/github_os/input/src/os_base\os_task_scheduler.c ****                 (unsigned_char_t*)&TASK_STACK[1],/* Task_stack */
 507:E:/NeuOrga/Programmieren/c_cpp/github_os/input/src/os_base\os_task_scheduler.c ****                 200,            /* Stack Size */
 508:E:/NeuOrga/Programmieren/c_cpp/github_os/input/src/os_base\os_task_scheduler.c ****                 ePriviligeMode_unpriviliged_thread_mode, /* Unpriviliged Thread Mode */
 509:E:/NeuOrga/Programmieren/c_cpp/github_os/input/src/os_base\os_task_scheduler.c ****                 Core0,
 510:E:/NeuOrga/Programmieren/c_cpp/github_os/input/src/os_base\os_task_scheduler.c ****                 1                                   /* default prio */
 511:E:/NeuOrga/Programmieren/c_cpp/github_os/input/src/os_base\os_task_scheduler.c ****                );
 512:E:/NeuOrga/Programmieren/c_cpp/github_os/input/src/os_base\os_task_scheduler.c ****    AddToSchedulingQueue(task_ptr);               
 873              		.loc 1 512 0
 874 06f9 8B45F4   		movl	-12(%ebp), %eax
 875 06fc 890424   		movl	%eax, (%esp)
 876 06ff E8000000 		call	_AddToSchedulingQueue
 876      00
 513:E:/NeuOrga/Programmieren/c_cpp/github_os/input/src/os_base\os_task_scheduler.c ****    OS_SaveTaskPtr(task_ptr, Task_1_ptr);
 514:E:/NeuOrga/Programmieren/c_cpp/github_os/input/src/os_base\os_task_scheduler.c **** 
 515:E:/NeuOrga/Programmieren/c_cpp/github_os/input/src/os_base\os_task_scheduler.c ****    /* setup worker task */
 516:E:/NeuOrga/Programmieren/c_cpp/github_os/input/src/os_base\os_task_scheduler.c ****    task_ptr = &TASK_2_VAR;
 877              		.loc 1 516 0
 878 0704 C745F400 		movl	$_TASK_2_VAR, -12(%ebp)
 878      000000
 517:E:/NeuOrga/Programmieren/c_cpp/github_os/input/src/os_base\os_task_scheduler.c ****    OS_InitTask(task_ptr,      /* task */
 879              		.loc 1 517 0
 880 070b C7442424 		movl	$2, 36(%esp)
 880      02000000 
 881 0713 C7442420 		movl	$0, 32(%esp)
 881      00000000 
 882 071b C744241C 		movl	$0, 28(%esp)
 882      00000000 
 883 0723 C7442418 		movl	$200, 24(%esp)
 883      C8000000 
 884 072b C7442414 		movl	$_TASK_STACK+4000, 20(%esp)
 884      A00F0000 
 885 0733 C7442410 		movl	$_TASK_GROUP_2, 16(%esp)
 885      00000000 
 886 073b C744240C 		movl	$0, 12(%esp)
 886      00000000 
 887 0743 C7442408 		movl	$1, 8(%esp)
 887      01000000 
 888 074b C7442404 		movl	$_TASK_2, 4(%esp)
 888      FE050000 
 889 0753 8B45F4   		movl	-12(%ebp), %eax
 890 0756 890424   		movl	%eax, (%esp)
 891 0759 E8000000 		call	_OS_InitTask
 891      00
 518:E:/NeuOrga/Programmieren/c_cpp/github_os/input/src/os_base\os_task_scheduler.c ****                 &TASK_2,       /* Task Function*/
 519:E:/NeuOrga/Programmieren/c_cpp/github_os/input/src/os_base\os_task_scheduler.c ****                 1,             /* Nr of allowed instances*/
 520:E:/NeuOrga/Programmieren/c_cpp/github_os/input/src/os_base\os_task_scheduler.c ****                 False,          /* Idle Task */
 521:E:/NeuOrga/Programmieren/c_cpp/github_os/input/src/os_base\os_task_scheduler.c ****                 &TASK_GROUP_2, /* Task Group */
 522:E:/NeuOrga/Programmieren/c_cpp/github_os/input/src/os_base\os_task_scheduler.c ****                 (unsigned_char_t*)&TASK_STACK[2],/* Task_stack */
 523:E:/NeuOrga/Programmieren/c_cpp/github_os/input/src/os_base\os_task_scheduler.c ****                 200,            /* Stack Size */
 524:E:/NeuOrga/Programmieren/c_cpp/github_os/input/src/os_base\os_task_scheduler.c ****                 ePriviligeMode_unpriviliged_thread_mode, /* Unpriviliged Thread Mode */
 525:E:/NeuOrga/Programmieren/c_cpp/github_os/input/src/os_base\os_task_scheduler.c ****                 Core0,
 526:E:/NeuOrga/Programmieren/c_cpp/github_os/input/src/os_base\os_task_scheduler.c ****                 2                                   /* default prio */
 527:E:/NeuOrga/Programmieren/c_cpp/github_os/input/src/os_base\os_task_scheduler.c ****                );
 528:E:/NeuOrga/Programmieren/c_cpp/github_os/input/src/os_base\os_task_scheduler.c ****    AddToSchedulingQueue(task_ptr);               
GAS LISTING C:\Users\PRESID~1\AppData\Local\Temp\ccylhMgF.s 			page 29


 892              		.loc 1 528 0
 893 075e 8B45F4   		movl	-12(%ebp), %eax
 894 0761 890424   		movl	%eax, (%esp)
 895 0764 E8000000 		call	_AddToSchedulingQueue
 895      00
 529:E:/NeuOrga/Programmieren/c_cpp/github_os/input/src/os_base\os_task_scheduler.c ****    OS_SaveTaskPtr(task_ptr, Task_2_ptr);
 530:E:/NeuOrga/Programmieren/c_cpp/github_os/input/src/os_base\os_task_scheduler.c **** 
 531:E:/NeuOrga/Programmieren/c_cpp/github_os/input/src/os_base\os_task_scheduler.c ****    /* setup worker task */
 532:E:/NeuOrga/Programmieren/c_cpp/github_os/input/src/os_base\os_task_scheduler.c ****    task_ptr = &TASK_3_VAR;
 896              		.loc 1 532 0
 897 0769 C745F400 		movl	$_TASK_3_VAR, -12(%ebp)
 897      000000
 533:E:/NeuOrga/Programmieren/c_cpp/github_os/input/src/os_base\os_task_scheduler.c ****    OS_InitTask(task_ptr,      /* task */
 898              		.loc 1 533 0
 899 0770 C7442424 		movl	$3, 36(%esp)
 899      03000000 
 900 0778 C7442420 		movl	$0, 32(%esp)
 900      00000000 
 901 0780 C744241C 		movl	$0, 28(%esp)
 901      00000000 
 902 0788 C7442418 		movl	$200, 24(%esp)
 902      C8000000 
 903 0790 C7442414 		movl	$_TASK_STACK+6000, 20(%esp)
 903      70170000 
 904 0798 C7442410 		movl	$_TASK_GROUP_3, 16(%esp)
 904      00000000 
 905 07a0 C744240C 		movl	$0, 12(%esp)
 905      00000000 
 906 07a8 C7442408 		movl	$1, 8(%esp)
 906      01000000 
 907 07b0 C7442404 		movl	$_TASK_3, 4(%esp)
 907      0E060000 
 908 07b8 8B45F4   		movl	-12(%ebp), %eax
 909 07bb 890424   		movl	%eax, (%esp)
 910 07be E8000000 		call	_OS_InitTask
 910      00
 534:E:/NeuOrga/Programmieren/c_cpp/github_os/input/src/os_base\os_task_scheduler.c ****                 &TASK_3,       /* Task Function*/
 535:E:/NeuOrga/Programmieren/c_cpp/github_os/input/src/os_base\os_task_scheduler.c ****                 1,             /* Nr of allowed instances*/
 536:E:/NeuOrga/Programmieren/c_cpp/github_os/input/src/os_base\os_task_scheduler.c ****                 False,          /* Idle Task */
 537:E:/NeuOrga/Programmieren/c_cpp/github_os/input/src/os_base\os_task_scheduler.c ****                 &TASK_GROUP_3, /* Task Group */
 538:E:/NeuOrga/Programmieren/c_cpp/github_os/input/src/os_base\os_task_scheduler.c ****                 (unsigned_char_t*)&TASK_STACK[3],/* Task_stack */
 539:E:/NeuOrga/Programmieren/c_cpp/github_os/input/src/os_base\os_task_scheduler.c ****                 200,           /* Stack Size */
 540:E:/NeuOrga/Programmieren/c_cpp/github_os/input/src/os_base\os_task_scheduler.c ****                 ePriviligeMode_unpriviliged_thread_mode, /* Unpriviliged Thread Mode */
 541:E:/NeuOrga/Programmieren/c_cpp/github_os/input/src/os_base\os_task_scheduler.c ****                 Core0,
 542:E:/NeuOrga/Programmieren/c_cpp/github_os/input/src/os_base\os_task_scheduler.c ****                 3                                   /* default prio */
 543:E:/NeuOrga/Programmieren/c_cpp/github_os/input/src/os_base\os_task_scheduler.c ****                );
 544:E:/NeuOrga/Programmieren/c_cpp/github_os/input/src/os_base\os_task_scheduler.c ****    AddToSchedulingQueue(task_ptr);               
 911              		.loc 1 544 0
 912 07c3 8B45F4   		movl	-12(%ebp), %eax
 913 07c6 890424   		movl	%eax, (%esp)
 914 07c9 E8000000 		call	_AddToSchedulingQueue
 914      00
 545:E:/NeuOrga/Programmieren/c_cpp/github_os/input/src/os_base\os_task_scheduler.c ****    OS_SaveTaskPtr(task_ptr, Task_3_ptr);
 546:E:/NeuOrga/Programmieren/c_cpp/github_os/input/src/os_base\os_task_scheduler.c **** }
 915              		.loc 1 546 0
 916 07ce C9       		leave
 917              		.cfi_restore 5
GAS LISTING C:\Users\PRESID~1\AppData\Local\Temp\ccylhMgF.s 			page 30


 918              		.cfi_def_cfa 4, 4
 919 07cf C3       		ret
 920              		.cfi_endproc
 921              	LFE13:
 923              	_OS_TaskScheduler:
 924              	LFB14:
 547:E:/NeuOrga/Programmieren/c_cpp/github_os/input/src/os_base\os_task_scheduler.c **** 
 548:E:/NeuOrga/Programmieren/c_cpp/github_os/input/src/os_base\os_task_scheduler.c **** 
 549:E:/NeuOrga/Programmieren/c_cpp/github_os/input/src/os_base\os_task_scheduler.c **** Local scheduling_t* OS_TaskScheduler(void)
 550:E:/NeuOrga/Programmieren/c_cpp/github_os/input/src/os_base\os_task_scheduler.c **** {
 925              		.loc 1 550 0
 926              		.cfi_startproc
 927 07d0 55       		pushl	%ebp
 928              		.cfi_def_cfa_offset 8
 929              		.cfi_offset 5, -8
 930 07d1 89E5     		movl	%esp, %ebp
 931              		.cfi_def_cfa_register 5
 932 07d3 53       		pushl	%ebx
 933 07d4 83EC44   		subl	$68, %esp
 934              		.cfi_offset 3, -12
 551:E:/NeuOrga/Programmieren/c_cpp/github_os/input/src/os_base\os_task_scheduler.c **** 
 552:E:/NeuOrga/Programmieren/c_cpp/github_os/input/src/os_base\os_task_scheduler.c ****    scheduling_t*    scheduling_queue_member;
 553:E:/NeuOrga/Programmieren/c_cpp/github_os/input/src/os_base\os_task_scheduler.c ****    unsigned_char_t element_nr;
 554:E:/NeuOrga/Programmieren/c_cpp/github_os/input/src/os_base\os_task_scheduler.c **** 
 555:E:/NeuOrga/Programmieren/c_cpp/github_os/input/src/os_base\os_task_scheduler.c ****    unsigned_char_t Winner_prio = 0;
 935              		.loc 1 555 0
 936 07d7 C645F600 		movb	$0, -10(%ebp)
 556:E:/NeuOrga/Programmieren/c_cpp/github_os/input/src/os_base\os_task_scheduler.c ****    task_t*         task = 0;
 937              		.loc 1 556 0
 938 07db C745EC00 		movl	$0, -20(%ebp)
 938      000000
 557:E:/NeuOrga/Programmieren/c_cpp/github_os/input/src/os_base\os_task_scheduler.c ****    task_t*         Winner_task = 0;
 939              		.loc 1 557 0
 940 07e2 C745E800 		movl	$0, -24(%ebp)
 940      000000
 558:E:/NeuOrga/Programmieren/c_cpp/github_os/input/src/os_base\os_task_scheduler.c ****    scheduling_t*   Winner_scheduling_queue_member = 0;
 941              		.loc 1 558 0
 942 07e9 C745F000 		movl	$0, -16(%ebp)
 942      000000
 559:E:/NeuOrga/Programmieren/c_cpp/github_os/input/src/os_base\os_task_scheduler.c ****    scheduler_time_t delta_time = OS_GetCurrentTime() - LAST_CURRENT_TIME;
 943              		.loc 1 559 0
 944 07f0 E8000000 		call	_OS_GetCurrentTime
 944      00
 945 07f5 89C2     		movl	%eax, %edx
 946 07f7 A1000000 		movl	_LAST_CURRENT_TIME, %eax
 946      00
 947 07fc 29C2     		subl	%eax, %edx
 948 07fe 89D0     		movl	%edx, %eax
 949 0800 8945E4   		movl	%eax, -28(%ebp)
 560:E:/NeuOrga/Programmieren/c_cpp/github_os/input/src/os_base\os_task_scheduler.c **** 
 561:E:/NeuOrga/Programmieren/c_cpp/github_os/input/src/os_base\os_task_scheduler.c ****    LAST_CURRENT_TIME = OS_GetCurrentTime();
 950              		.loc 1 561 0
 951 0803 E8000000 		call	_OS_GetCurrentTime
 951      00
 952 0808 A3000000 		movl	%eax, _LAST_CURRENT_TIME
 952      00
 562:E:/NeuOrga/Programmieren/c_cpp/github_os/input/src/os_base\os_task_scheduler.c **** 
GAS LISTING C:\Users\PRESID~1\AppData\Local\Temp\ccylhMgF.s 			page 31


 563:E:/NeuOrga/Programmieren/c_cpp/github_os/input/src/os_base\os_task_scheduler.c ****    ReferenceUnusedParameter(Winner_task);
 564:E:/NeuOrga/Programmieren/c_cpp/github_os/input/src/os_base\os_task_scheduler.c ****    /*
 565:E:/NeuOrga/Programmieren/c_cpp/github_os/input/src/os_base\os_task_scheduler.c ****    x const for single task: task->default_prio // low = 0,.....high=100
 566:E:/NeuOrga/Programmieren/c_cpp/github_os/input/src/os_base\os_task_scheduler.c ****    x var   for single task: task->current_prio // see prio_std
 567:E:/NeuOrga/Programmieren/c_cpp/github_os/input/src/os_base\os_task_scheduler.c ****    x var   for single task: task->wait_time    //
 568:E:/NeuOrga/Programmieren/c_cpp/github_os/input/src/os_base\os_task_scheduler.c ****    x var   for single task: task->exe_time
 569:E:/NeuOrga/Programmieren/c_cpp/github_os/input/src/os_base\os_task_scheduler.c ****    x const for single task: task->TimeToPrioInc
 570:E:/NeuOrga/Programmieren/c_cpp/github_os/input/src/os_base\os_task_scheduler.c ****    x const for single task: task->max_allowed_wait_time
 571:E:/NeuOrga/Programmieren/c_cpp/github_os/input/src/os_base\os_task_scheduler.c ****    x const for single task: task->min_allowed_wait_time
 572:E:/NeuOrga/Programmieren/c_cpp/github_os/input/src/os_base\os_task_scheduler.c ****    x const for single task: task->overwaittime_per_prio_inc_step //e.g. 100*MinTimeSlice_us
 573:E:/NeuOrga/Programmieren/c_cpp/github_os/input/src/os_base\os_task_scheduler.c ****    x const for single task: task->task_group  //to allow processor access control by groups (e.g. u
 574:E:/NeuOrga/Programmieren/c_cpp/github_os/input/src/os_base\os_task_scheduler.c ****    x const for single task: task->WaitActUntil
 575:E:/NeuOrga/Programmieren/c_cpp/github_os/input/src/os_base\os_task_scheduler.c ****    (task_group is designed to allow proccessor access control between e.g. Customer Software Task a
 576:E:/NeuOrga/Programmieren/c_cpp/github_os/input/src/os_base\os_task_scheduler.c ****    */
 577:E:/NeuOrga/Programmieren/c_cpp/github_os/input/src/os_base\os_task_scheduler.c ****    For_all_tasks_in_queue(element_nr)
 953              		.loc 1 577 0
 954 080d C645F700 		movb	$0, -9(%ebp)
 955 0811 E9FA0000 		jmp	L72
 955      00
 956              	L80:
 578:E:/NeuOrga/Programmieren/c_cpp/github_os/input/src/os_base\os_task_scheduler.c ****    {
 579:E:/NeuOrga/Programmieren/c_cpp/github_os/input/src/os_base\os_task_scheduler.c ****       scheduling_queue_member = GetFromSchedulingQueue(element_nr);
 957              		.loc 1 579 0
 958 0816 0FB645F7 		movzbl	-9(%ebp), %eax
 959 081a 890424   		movl	%eax, (%esp)
 960 081d E8000000 		call	_GetFromSchedulingQueue
 960      00
 961 0822 8945E0   		movl	%eax, -32(%ebp)
 580:E:/NeuOrga/Programmieren/c_cpp/github_os/input/src/os_base\os_task_scheduler.c ****       /*task will have a pointer on the task_obj, and might be equal to "(task_t*) 0" */
 581:E:/NeuOrga/Programmieren/c_cpp/github_os/input/src/os_base\os_task_scheduler.c ****       task             = GetFromTaskQueue(scheduling_queue_member);
 962              		.loc 1 581 0
 963 0825 8B45E0   		movl	-32(%ebp), %eax
 964 0828 890424   		movl	%eax, (%esp)
 965 082b E8000000 		call	_GetFromTaskQueue
 965      00
 966 0830 8945EC   		movl	%eax, -20(%ebp)
 582:E:/NeuOrga/Programmieren/c_cpp/github_os/input/src/os_base\os_task_scheduler.c ****       /* increase prio: high numbers->high prio */
 583:E:/NeuOrga/Programmieren/c_cpp/github_os/input/src/os_base\os_task_scheduler.c ****       if((task != 0)&&(task->task_queued != False))
 967              		.loc 1 583 0
 968 0833 837DEC00 		cmpl	$0, -20(%ebp)
 969 0837 0F84CC00 		je	L73
 969      0000
 970              		.loc 1 583 0 is_stmt 0 discriminator 1
 971 083d 8B45EC   		movl	-20(%ebp), %eax
 972 0840 8A00     		movb	(%eax), %al
 973 0842 83E002   		andl	$2, %eax
 974 0845 84C0     		testb	%al, %al
 975 0847 0F84BC00 		je	L73
 975      0000
 584:E:/NeuOrga/Programmieren/c_cpp/github_os/input/src/os_base\os_task_scheduler.c ****       {
 585:E:/NeuOrga/Programmieren/c_cpp/github_os/input/src/os_base\os_task_scheduler.c ****          if(task->wait_time >= task->TimeToPrioInc)
 976              		.loc 1 585 0 is_stmt 1
 977 084d 8B45EC   		movl	-20(%ebp), %eax
 978 0850 8B500C   		movl	12(%eax), %edx
 979 0853 8B45EC   		movl	-20(%ebp), %eax
 980 0856 8B4010   		movl	16(%eax), %eax
 981 0859 39C2     		cmpl	%eax, %edx
GAS LISTING C:\Users\PRESID~1\AppData\Local\Temp\ccylhMgF.s 			page 32


 982 085b 7214     		jb	L74
 586:E:/NeuOrga/Programmieren/c_cpp/github_os/input/src/os_base\os_task_scheduler.c ****          {
 587:E:/NeuOrga/Programmieren/c_cpp/github_os/input/src/os_base\os_task_scheduler.c ****             task->current_prio = task->current_prio + task->overwaittime_per_prio_inc_step;
 983              		.loc 1 587 0
 984 085d 8B45EC   		movl	-20(%ebp), %eax
 985 0860 8A5024   		movb	36(%eax), %dl
 986 0863 8B45EC   		movl	-20(%ebp), %eax
 987 0866 8B4014   		movl	20(%eax), %eax
 988 0869 01C2     		addl	%eax, %edx
 989 086b 8B45EC   		movl	-20(%ebp), %eax
 990 086e 885024   		movb	%dl, 36(%eax)
 991              	L74:
 588:E:/NeuOrga/Programmieren/c_cpp/github_os/input/src/os_base\os_task_scheduler.c ****          }
 589:E:/NeuOrga/Programmieren/c_cpp/github_os/input/src/os_base\os_task_scheduler.c ****          /* in case wait condition not yet fulfilled, set prio to 0 */
 590:E:/NeuOrga/Programmieren/c_cpp/github_os/input/src/os_base\os_task_scheduler.c ****          if(task->WaitActUntil > OS_GetCurrentTime())
 992              		.loc 1 590 0
 993 0871 8B45EC   		movl	-20(%ebp), %eax
 994 0874 8B5808   		movl	8(%eax), %ebx
 995 0877 E8000000 		call	_OS_GetCurrentTime
 995      00
 996 087c 39C3     		cmpl	%eax, %ebx
 997 087e 7607     		jbe	L75
 591:E:/NeuOrga/Programmieren/c_cpp/github_os/input/src/os_base\os_task_scheduler.c ****          {
 592:E:/NeuOrga/Programmieren/c_cpp/github_os/input/src/os_base\os_task_scheduler.c ****             task->current_prio = 0;
 998              		.loc 1 592 0
 999 0880 8B45EC   		movl	-20(%ebp), %eax
 1000 0883 C6402400 		movb	$0, 36(%eax)
 1001              	L75:
 593:E:/NeuOrga/Programmieren/c_cpp/github_os/input/src/os_base\os_task_scheduler.c ****          }
 594:E:/NeuOrga/Programmieren/c_cpp/github_os/input/src/os_base\os_task_scheduler.c ****          if(task->wait_time > task->max_allowed_wait_time)
 1002              		.loc 1 594 0
 1003 0887 8B45EC   		movl	-20(%ebp), %eax
 1004 088a 8B500C   		movl	12(%eax), %edx
 1005 088d 8B45EC   		movl	-20(%ebp), %eax
 1006 0890 8B4018   		movl	24(%eax), %eax
 1007 0893 39C2     		cmpl	%eax, %edx
 1008 0895 7614     		jbe	L76
 595:E:/NeuOrga/Programmieren/c_cpp/github_os/input/src/os_base\os_task_scheduler.c ****          {
 596:E:/NeuOrga/Programmieren/c_cpp/github_os/input/src/os_base\os_task_scheduler.c ****             /* set bug */
 597:E:/NeuOrga/Programmieren/c_cpp/github_os/input/src/os_base\os_task_scheduler.c ****             OS_SetSwBug(os_bug_task_max_wait_time_reached, Func_TaskScheduler);
 1009              		.loc 1 597 0
 1010 0897 C7442404 		movl	$9, 4(%esp)
 1010      09000000 
 1011 089f C7042403 		movl	$3, (%esp)
 1011      000000
 1012 08a6 E8000000 		call	_OS_SetSwBug
 1012      00
 1013              	L76:
 598:E:/NeuOrga/Programmieren/c_cpp/github_os/input/src/os_base\os_task_scheduler.c ****          }
 599:E:/NeuOrga/Programmieren/c_cpp/github_os/input/src/os_base\os_task_scheduler.c ****          /* not active TASK_RUN_QUEUE elements have no valid task_group!!*/
 600:E:/NeuOrga/Programmieren/c_cpp/github_os/input/src/os_base\os_task_scheduler.c ****          if(task->task_group!=0)
 1014              		.loc 1 600 0
 1015 08ab 8B45EC   		movl	-20(%ebp), %eax
 1016 08ae 8B4038   		movl	56(%eax), %eax
 1017 08b1 85C0     		testl	%eax, %eax
 1018 08b3 7440     		je	L77
 601:E:/NeuOrga/Programmieren/c_cpp/github_os/input/src/os_base\os_task_scheduler.c ****          {
GAS LISTING C:\Users\PRESID~1\AppData\Local\Temp\ccylhMgF.s 			page 33


 602:E:/NeuOrga/Programmieren/c_cpp/github_os/input/src/os_base\os_task_scheduler.c ****             /* usage the exe time for scheduling strategy */
 603:E:/NeuOrga/Programmieren/c_cpp/github_os/input/src/os_base\os_task_scheduler.c ****             if(task->task_group->exe_time > task->task_group->fair_exe_time)
 1019              		.loc 1 603 0
 1020 08b5 8B45EC   		movl	-20(%ebp), %eax
 1021 08b8 8B4038   		movl	56(%eax), %eax
 1022 08bb 8B10     		movl	(%eax), %edx
 1023 08bd 8B45EC   		movl	-20(%ebp), %eax
 1024 08c0 8B4038   		movl	56(%eax), %eax
 1025 08c3 8B4004   		movl	4(%eax), %eax
 1026 08c6 39C2     		cmpl	%eax, %edx
 1027 08c8 763F     		jbe	L73
 604:E:/NeuOrga/Programmieren/c_cpp/github_os/input/src/os_base\os_task_scheduler.c ****             {
 605:E:/NeuOrga/Programmieren/c_cpp/github_os/input/src/os_base\os_task_scheduler.c ****                if(task->exe_time > Task_min_time)/* guarantee min time */
 1028              		.loc 1 605 0
 1029 08ca 8B45EC   		movl	-20(%ebp), %eax
 1030 08cd 8B401C   		movl	28(%eax), %eax
 1031 08d0 8945D0   		movl	%eax, -48(%ebp)
 1032 08d3 C745D400 		movl	$0, -44(%ebp)
 1032      000000
 1033 08da DF6DD0   		fildq	-48(%ebp)
 1034 08dd D9E8     		fld1
 1035 08df D9C9     		fxch	%st(1)
 1036 08e1 DAE9     		fucompp
 1037 08e3 DFE0     		fnstsw	%ax
 1038 08e5 F6C445   		testb	$69, %ah
 1039 08e8 7402     		je	L86
 1040 08ea EB1D     		jmp	L73
 1041              	L86:
 606:E:/NeuOrga/Programmieren/c_cpp/github_os/input/src/os_base\os_task_scheduler.c ****                {
 607:E:/NeuOrga/Programmieren/c_cpp/github_os/input/src/os_base\os_task_scheduler.c ****                   task->current_prio = 0;
 1042              		.loc 1 607 0
 1043 08ec 8B45EC   		movl	-20(%ebp), %eax
 1044 08ef C6402400 		movb	$0, 36(%eax)
 1045 08f3 EB14     		jmp	L73
 1046              	L77:
 608:E:/NeuOrga/Programmieren/c_cpp/github_os/input/src/os_base\os_task_scheduler.c **** 
 609:E:/NeuOrga/Programmieren/c_cpp/github_os/input/src/os_base\os_task_scheduler.c ****                }
 610:E:/NeuOrga/Programmieren/c_cpp/github_os/input/src/os_base\os_task_scheduler.c ****             }
 611:E:/NeuOrga/Programmieren/c_cpp/github_os/input/src/os_base\os_task_scheduler.c ****          }
 612:E:/NeuOrga/Programmieren/c_cpp/github_os/input/src/os_base\os_task_scheduler.c ****          else
 613:E:/NeuOrga/Programmieren/c_cpp/github_os/input/src/os_base\os_task_scheduler.c ****          {
 614:E:/NeuOrga/Programmieren/c_cpp/github_os/input/src/os_base\os_task_scheduler.c ****             OS_SetSwBug(os_bug_null_pointer, Func_TaskScheduler);
 1047              		.loc 1 614 0
 1048 08f5 C7442404 		movl	$9, 4(%esp)
 1048      09000000 
 1049 08fd C7042402 		movl	$2, (%esp)
 1049      000000
 1050 0904 E8000000 		call	_OS_SetSwBug
 1050      00
 1051              	L73:
 577:E:/NeuOrga/Programmieren/c_cpp/github_os/input/src/os_base\os_task_scheduler.c ****    {
 1052              		.loc 1 577 0 discriminator 2
 1053 0909 8A45F7   		movb	-9(%ebp), %al
 1054 090c 40       		incl	%eax
 1055 090d 8845F7   		movb	%al, -9(%ebp)
 1056              	L72:
 577:E:/NeuOrga/Programmieren/c_cpp/github_os/input/src/os_base\os_task_scheduler.c ****    {
GAS LISTING C:\Users\PRESID~1\AppData\Local\Temp\ccylhMgF.s 			page 34


 1057              		.loc 1 577 0 is_stmt 0 discriminator 1
 1058 0910 807DF709 		cmpb	$9, -9(%ebp)
 1059 0914 0F86FCFE 		jbe	L80
 1059      FFFF
 615:E:/NeuOrga/Programmieren/c_cpp/github_os/input/src/os_base\os_task_scheduler.c ****          }
 616:E:/NeuOrga/Programmieren/c_cpp/github_os/input/src/os_base\os_task_scheduler.c ****       }
 617:E:/NeuOrga/Programmieren/c_cpp/github_os/input/src/os_base\os_task_scheduler.c ****       /* do not set bug, because task =0 is used for empty queue elements
 618:E:/NeuOrga/Programmieren/c_cpp/github_os/input/src/os_base\os_task_scheduler.c ****       else
 619:E:/NeuOrga/Programmieren/c_cpp/github_os/input/src/os_base\os_task_scheduler.c ****       {
 620:E:/NeuOrga/Programmieren/c_cpp/github_os/input/src/os_base\os_task_scheduler.c ****           OS_SetSwBug(os_bug_null_pointer, Func_TaskScheduler);
 621:E:/NeuOrga/Programmieren/c_cpp/github_os/input/src/os_base\os_task_scheduler.c ****       }
 622:E:/NeuOrga/Programmieren/c_cpp/github_os/input/src/os_base\os_task_scheduler.c ****       */
 623:E:/NeuOrga/Programmieren/c_cpp/github_os/input/src/os_base\os_task_scheduler.c ****    }
 624:E:/NeuOrga/Programmieren/c_cpp/github_os/input/src/os_base\os_task_scheduler.c ****    For_all_tasks_in_queue(element_nr)
 1060              		.loc 1 624 0 is_stmt 1
 1061 091a C645F700 		movb	$0, -9(%ebp)
 1062 091e EB67     		jmp	L81
 1063              	L84:
 625:E:/NeuOrga/Programmieren/c_cpp/github_os/input/src/os_base\os_task_scheduler.c ****    {
 626:E:/NeuOrga/Programmieren/c_cpp/github_os/input/src/os_base\os_task_scheduler.c ****       scheduling_queue_member = GetFromSchedulingQueue(element_nr);
 1064              		.loc 1 626 0
 1065 0920 0FB645F7 		movzbl	-9(%ebp), %eax
 1066 0924 890424   		movl	%eax, (%esp)
 1067 0927 E8000000 		call	_GetFromSchedulingQueue
 1067      00
 1068 092c 8945E0   		movl	%eax, -32(%ebp)
 627:E:/NeuOrga/Programmieren/c_cpp/github_os/input/src/os_base\os_task_scheduler.c ****       task             = GetFromTaskQueue(scheduling_queue_member);
 1069              		.loc 1 627 0
 1070 092f 8B45E0   		movl	-32(%ebp), %eax
 1071 0932 890424   		movl	%eax, (%esp)
 1072 0935 E8000000 		call	_GetFromTaskQueue
 1072      00
 1073 093a 8945EC   		movl	%eax, -20(%ebp)
 628:E:/NeuOrga/Programmieren/c_cpp/github_os/input/src/os_base\os_task_scheduler.c ****       if(task != 0)
 1074              		.loc 1 628 0
 1075 093d 837DEC00 		cmpl	$0, -20(%ebp)
 1076 0941 743D     		je	L82
 629:E:/NeuOrga/Programmieren/c_cpp/github_os/input/src/os_base\os_task_scheduler.c ****       {
 630:E:/NeuOrga/Programmieren/c_cpp/github_os/input/src/os_base\os_task_scheduler.c ****          /*update wait time */
 631:E:/NeuOrga/Programmieren/c_cpp/github_os/input/src/os_base\os_task_scheduler.c ****          if(task->IdleTask != True)
 1077              		.loc 1 631 0
 1078 0943 8B45EC   		movl	-20(%ebp), %eax
 1079 0946 8A00     		movb	(%eax), %al
 1080 0948 83E004   		andl	$4, %eax
 1081 094b 84C0     		testb	%al, %al
 1082 094d 7511     		jne	L83
 632:E:/NeuOrga/Programmieren/c_cpp/github_os/input/src/os_base\os_task_scheduler.c ****          {
 633:E:/NeuOrga/Programmieren/c_cpp/github_os/input/src/os_base\os_task_scheduler.c ****             task->wait_time += delta_time;
 1083              		.loc 1 633 0
 1084 094f 8B45EC   		movl	-20(%ebp), %eax
 1085 0952 8B500C   		movl	12(%eax), %edx
 1086 0955 8B45E4   		movl	-28(%ebp), %eax
 1087 0958 01C2     		addl	%eax, %edx
 1088 095a 8B45EC   		movl	-20(%ebp), %eax
 1089 095d 89500C   		movl	%edx, 12(%eax)
 1090              	L83:
 634:E:/NeuOrga/Programmieren/c_cpp/github_os/input/src/os_base\os_task_scheduler.c ****          }
GAS LISTING C:\Users\PRESID~1\AppData\Local\Temp\ccylhMgF.s 			page 35


 635:E:/NeuOrga/Programmieren/c_cpp/github_os/input/src/os_base\os_task_scheduler.c ****          /* search for task with highest prio and assign it to Winner_task */
 636:E:/NeuOrga/Programmieren/c_cpp/github_os/input/src/os_base\os_task_scheduler.c ****          if(task->current_prio > Winner_prio)
 1091              		.loc 1 636 0
 1092 0960 8B45EC   		movl	-20(%ebp), %eax
 1093 0963 8A4024   		movb	36(%eax), %al
 1094 0966 3A45F6   		cmpb	-10(%ebp), %al
 1095 0969 7615     		jbe	L82
 637:E:/NeuOrga/Programmieren/c_cpp/github_os/input/src/os_base\os_task_scheduler.c ****          {
 638:E:/NeuOrga/Programmieren/c_cpp/github_os/input/src/os_base\os_task_scheduler.c ****             Winner_prio = task->current_prio;
 1096              		.loc 1 638 0
 1097 096b 8B45EC   		movl	-20(%ebp), %eax
 1098 096e 8A4024   		movb	36(%eax), %al
 1099 0971 8845F6   		movb	%al, -10(%ebp)
 639:E:/NeuOrga/Programmieren/c_cpp/github_os/input/src/os_base\os_task_scheduler.c ****             Winner_task = task;
 1100              		.loc 1 639 0
 1101 0974 8B45EC   		movl	-20(%ebp), %eax
 1102 0977 8945E8   		movl	%eax, -24(%ebp)
 640:E:/NeuOrga/Programmieren/c_cpp/github_os/input/src/os_base\os_task_scheduler.c ****             Winner_scheduling_queue_member = scheduling_queue_member;
 1103              		.loc 1 640 0
 1104 097a 8B45E0   		movl	-32(%ebp), %eax
 1105 097d 8945F0   		movl	%eax, -16(%ebp)
 1106              	L82:
 624:E:/NeuOrga/Programmieren/c_cpp/github_os/input/src/os_base\os_task_scheduler.c ****    {
 1107              		.loc 1 624 0 discriminator 2
 1108 0980 8A45F7   		movb	-9(%ebp), %al
 1109 0983 40       		incl	%eax
 1110 0984 8845F7   		movb	%al, -9(%ebp)
 1111              	L81:
 624:E:/NeuOrga/Programmieren/c_cpp/github_os/input/src/os_base\os_task_scheduler.c ****    {
 1112              		.loc 1 624 0 is_stmt 0 discriminator 1
 1113 0987 807DF709 		cmpb	$9, -9(%ebp)
 1114 098b 7693     		jbe	L84
 641:E:/NeuOrga/Programmieren/c_cpp/github_os/input/src/os_base\os_task_scheduler.c ****          }
 642:E:/NeuOrga/Programmieren/c_cpp/github_os/input/src/os_base\os_task_scheduler.c **** 
 643:E:/NeuOrga/Programmieren/c_cpp/github_os/input/src/os_base\os_task_scheduler.c ****       }
 644:E:/NeuOrga/Programmieren/c_cpp/github_os/input/src/os_base\os_task_scheduler.c ****       /* do not set bug, because task =0 is used for empty queue elements
 645:E:/NeuOrga/Programmieren/c_cpp/github_os/input/src/os_base\os_task_scheduler.c ****       else
 646:E:/NeuOrga/Programmieren/c_cpp/github_os/input/src/os_base\os_task_scheduler.c ****       {
 647:E:/NeuOrga/Programmieren/c_cpp/github_os/input/src/os_base\os_task_scheduler.c ****           OS_SetSwBug(os_bug_null_pointer, Func_TaskScheduler);
 648:E:/NeuOrga/Programmieren/c_cpp/github_os/input/src/os_base\os_task_scheduler.c ****       }
 649:E:/NeuOrga/Programmieren/c_cpp/github_os/input/src/os_base\os_task_scheduler.c ****       */
 650:E:/NeuOrga/Programmieren/c_cpp/github_os/input/src/os_base\os_task_scheduler.c ****    }
 651:E:/NeuOrga/Programmieren/c_cpp/github_os/input/src/os_base\os_task_scheduler.c ****    return Winner_scheduling_queue_member;
 1115              		.loc 1 651 0 is_stmt 1
 1116 098d 8B45F0   		movl	-16(%ebp), %eax
 652:E:/NeuOrga/Programmieren/c_cpp/github_os/input/src/os_base\os_task_scheduler.c **** }
 1117              		.loc 1 652 0
 1118 0990 83C444   		addl	$68, %esp
 1119 0993 5B       		popl	%ebx
 1120              		.cfi_restore 3
 1121 0994 5D       		popl	%ebp
 1122              		.cfi_restore 5
 1123              		.cfi_def_cfa 4, 4
 1124 0995 C3       		ret
 1125              		.cfi_endproc
 1126              	LFE14:
 1127              	Letext0:
GAS LISTING C:\Users\PRESID~1\AppData\Local\Temp\ccylhMgF.s 			page 36


 1128              		.file 2 "E:/NeuOrga/Programmieren/c_cpp/github_os/input/src/os_base/../os_base/os_base_types.h"
 1129              		.file 3 "E:/NeuOrga/Programmieren/c_cpp/github_os/input/src/os_base/../os_base/os_common.h"
 1130              		.file 4 "E:/NeuOrga/Programmieren/c_cpp/github_os/input/src/os_base/../os_sim/lld_core.h"
 1131              		.file 5 "E:/NeuOrga/Programmieren/c_cpp/github_os/input/src/os_base/../os_sim/../os_base/os_task_c
 1132              		.file 6 "E:/NeuOrga/Programmieren/c_cpp/github_os/input/src/os_base/os_task_scheduler.h"
 1133              		.file 7 "E:/NeuOrga/Programmieren/c_cpp/github_os/input/src/os_base/../os_base/os_ram.h"
 1134 0996 9090     		.section	.debug_info,"dr"
 1135              	Ldebug_info0:
 1136 0000 4F0E0000 		.long	0xe4f
 1137 0004 0400     		.word	0x4
 1138 0006 00000000 		.secrel32	Ldebug_abbrev0
 1139 000a 04       		.byte	0x4
 1140 000b 01       		.uleb128 0x1
 1141 000c 474E5520 		.ascii "GNU C 4.9.3 -march=i386 -g3 -O0 -std=c90\0"
 1141      4320342E 
 1141      392E3320 
 1141      2D6D6172 
 1141      63683D69 
 1142 0035 01       		.byte	0x1
 1143 0036 453A5C4E 		.ascii "E:\\NeuOrga\\Programmieren\\c_cpp\\github_os\\input\\src\\os_base\\os_task_scheduler.c\0"
 1143      65754F72 
 1143      67615C50 
 1143      726F6772 
 1143      616D6D69 
 1144 0085 00000000 		.long	Ltext0
 1145 0089 96090000 		.long	Letext0-Ltext0
 1146 008d 00000000 		.secrel32	Ldebug_line0
 1147 0091 00000000 		.secrel32	Ldebug_macro0
 1148 0095 02       		.uleb128 0x2
 1149 0096 756E7369 		.ascii "unsigned_char_t\0"
 1149      676E6564 
 1149      5F636861 
 1149      725F7400 
 1150 00a6 02       		.byte	0x2
 1151 00a7 1D       		.byte	0x1d
 1152 00a8 AC000000 		.long	0xac
 1153 00ac 03       		.uleb128 0x3
 1154 00ad 01       		.byte	0x1
 1155 00ae 08       		.byte	0x8
 1156 00af 756E7369 		.ascii "unsigned char\0"
 1156      676E6564 
 1156      20636861 
 1156      7200
 1157 00bd 03       		.uleb128 0x3
 1158 00be 02       		.byte	0x2
 1159 00bf 07       		.byte	0x7
 1160 00c0 73686F72 		.ascii "short unsigned int\0"
 1160      7420756E 
 1160      7369676E 
 1160      65642069 
 1160      6E7400
 1161 00d3 02       		.uleb128 0x2
 1162 00d4 756E7369 		.ascii "unsigned_int32_t\0"
 1162      676E6564 
 1162      5F696E74 
 1162      33325F74 
 1162      00
GAS LISTING C:\Users\PRESID~1\AppData\Local\Temp\ccylhMgF.s 			page 37


 1163 00e5 02       		.byte	0x2
 1164 00e6 22       		.byte	0x22
 1165 00e7 EB000000 		.long	0xeb
 1166 00eb 03       		.uleb128 0x3
 1167 00ec 04       		.byte	0x4
 1168 00ed 07       		.byte	0x7
 1169 00ee 6C6F6E67 		.ascii "long unsigned int\0"
 1169      20756E73 
 1169      69676E65 
 1169      6420696E 
 1169      7400
 1170 0100 02       		.uleb128 0x2
 1171 0101 75696E74 		.ascii "uint32\0"
 1171      333200
 1172 0108 02       		.byte	0x2
 1173 0109 23       		.byte	0x23
 1174 010a EB000000 		.long	0xeb
 1175 010e 04       		.uleb128 0x4
 1176 010f 6F735F73 		.ascii "os_sw_bugs_e\0"
 1176      775F6275 
 1176      67735F65 
 1176      00
 1177 011c 04       		.byte	0x4
 1178 011d 03       		.byte	0x3
 1179 011e 2B       		.byte	0x2b
 1180 011f 0C020000 		.long	0x20c
 1181 0123 05       		.uleb128 0x5
 1182 0124 6F735F62 		.ascii "os_bug_no_bug\0"
 1182      75675F6E 
 1182      6F5F6275 
 1182      6700
 1183 0132 00       		.sleb128 0
 1184 0133 05       		.uleb128 0x5
 1185 0134 6F735F62 		.ascii "os_bug_taskstate_request_denied\0"
 1185      75675F74 
 1185      61736B73 
 1185      74617465 
 1185      5F726571 
 1186 0154 01       		.sleb128 1
 1187 0155 05       		.uleb128 0x5
 1188 0156 6F735F62 		.ascii "os_bug_null_pointer\0"
 1188      75675F6E 
 1188      756C6C5F 
 1188      706F696E 
 1188      74657200 
 1189 016a 02       		.sleb128 2
 1190 016b 05       		.uleb128 0x5
 1191 016c 6F735F62 		.ascii "os_bug_task_max_wait_time_reached\0"
 1191      75675F74 
 1191      61736B5F 
 1191      6D61785F 
 1191      77616974 
 1192 018e 03       		.sleb128 3
 1193 018f 05       		.uleb128 0x5
 1194 0190 6F735F62 		.ascii "os_bug_Task_unspecified\0"
 1194      75675F54 
 1194      61736B5F 
GAS LISTING C:\Users\PRESID~1\AppData\Local\Temp\ccylhMgF.s 			page 38


 1194      756E7370 
 1194      65636966 
 1195 01a8 04       		.sleb128 4
 1196 01a9 05       		.uleb128 0x5
 1197 01aa 6F735F62 		.ascii "os_bug_exception_UndefInstruction\0"
 1197      75675F65 
 1197      78636570 
 1197      74696F6E 
 1197      5F556E64 
 1198 01cc 05       		.sleb128 5
 1199 01cd 05       		.uleb128 0x5
 1200 01ce 6F735F62 		.ascii "os_bug_exception_AbortPrefetch\0"
 1200      75675F65 
 1200      78636570 
 1200      74696F6E 
 1200      5F41626F 
 1201 01ed 06       		.sleb128 6
 1202 01ee 05       		.uleb128 0x5
 1203 01ef 6F735F62 		.ascii "os_bug_exception_AbortData\0"
 1203      75675F65 
 1203      78636570 
 1203      74696F6E 
 1203      5F41626F 
 1204 020a 07       		.sleb128 7
 1205 020b 00       		.byte	0
 1206 020c 04       		.uleb128 0x4
 1207 020d 6F735F73 		.ascii "os_sw_bugs_function_e\0"
 1207      775F6275 
 1207      67735F66 
 1207      756E6374 
 1207      696F6E5F 
 1208 0223 04       		.byte	0x4
 1209 0224 03       		.byte	0x3
 1210 0225 37       		.byte	0x37
 1211 0226 8F030000 		.long	0x38f
 1212 022a 05       		.uleb128 0x5
 1213 022b 46756E63 		.ascii "Func_NoFunction\0"
 1213      5F4E6F46 
 1213      756E6374 
 1213      696F6E00 
 1214 023b 00       		.sleb128 0
 1215 023c 05       		.uleb128 0x5
 1216 023d 46756E63 		.ascii "Func_SaveTaskEnvironment\0"
 1216      5F536176 
 1216      65546173 
 1216      6B456E76 
 1216      69726F6E 
 1217 0256 01       		.sleb128 1
 1218 0257 05       		.uleb128 0x5
 1219 0258 46756E63 		.ascii "Func_RestoreTaskEnvironment\0"
 1219      5F526573 
 1219      746F7265 
 1219      5461736B 
 1219      456E7669 
 1220 0274 02       		.sleb128 2
 1221 0275 05       		.uleb128 0x5
 1222 0276 46756E63 		.ascii "Func_CreateTaskEnvironment\0"
GAS LISTING C:\Users\PRESID~1\AppData\Local\Temp\ccylhMgF.s 			page 39


 1222      5F437265 
 1222      61746554 
 1222      61736B45 
 1222      6E766972 
 1223 0291 03       		.sleb128 3
 1224 0292 05       		.uleb128 0x5
 1225 0293 46756E63 		.ascii "Func_DeleteTaskEnvironment\0"
 1225      5F44656C 
 1225      65746554 
 1225      61736B45 
 1225      6E766972 
 1226 02ae 04       		.sleb128 4
 1227 02af 05       		.uleb128 0x5
 1228 02b0 46756E63 		.ascii "Func_InitTaskEnvironment\0"
 1228      5F496E69 
 1228      74546173 
 1228      6B456E76 
 1228      69726F6E 
 1229 02c9 05       		.sleb128 5
 1230 02ca 05       		.uleb128 0x5
 1231 02cb 46756E63 		.ascii "Func_StartTask\0"
 1231      5F537461 
 1231      72745461 
 1231      736B00
 1232 02da 06       		.sleb128 6
 1233 02db 05       		.uleb128 0x5
 1234 02dc 46756E63 		.ascii "Func_PreemptTask\0"
 1234      5F507265 
 1234      656D7074 
 1234      5461736B 
 1234      00
 1235 02ed 07       		.sleb128 7
 1236 02ee 05       		.uleb128 0x5
 1237 02ef 46756E63 		.ascii "Func_TerminateTask\0"
 1237      5F546572 
 1237      6D696E61 
 1237      74655461 
 1237      736B00
 1238 0302 08       		.sleb128 8
 1239 0303 05       		.uleb128 0x5
 1240 0304 46756E63 		.ascii "Func_TaskScheduler\0"
 1240      5F546173 
 1240      6B536368 
 1240      6564756C 
 1240      657200
 1241 0317 09       		.sleb128 9
 1242 0318 05       		.uleb128 0x5
 1243 0319 46756E63 		.ascii "Func_InitTask\0"
 1243      5F496E69 
 1243      74546173 
 1243      6B00
 1244 0327 0A       		.sleb128 10
 1245 0328 05       		.uleb128 0x5
 1246 0329 46756E63 		.ascii "Func_ActivateTask\0"
 1246      5F416374 
 1246      69766174 
 1246      65546173 
GAS LISTING C:\Users\PRESID~1\AppData\Local\Temp\ccylhMgF.s 			page 40


 1246      6B00
 1247 033b 0B       		.sleb128 11
 1248 033c 05       		.uleb128 0x5
 1249 033d 46756E63 		.ascii "Func_TaskStateRequest\0"
 1249      5F546173 
 1249      6B537461 
 1249      74655265 
 1249      71756573 
 1250 0353 0C       		.sleb128 12
 1251 0354 05       		.uleb128 0x5
 1252 0355 46756E63 		.ascii "Func_Preempt_Task\0"
 1252      5F507265 
 1252      656D7074 
 1252      5F546173 
 1252      6B00
 1253 0367 0D       		.sleb128 13
 1254 0368 05       		.uleb128 0x5
 1255 0369 46756E63 		.ascii "Func_os_exception\0"
 1255      5F6F735F 
 1255      65786365 
 1255      7074696F 
 1255      6E00
 1256 037b 0E       		.sleb128 14
 1257 037c 05       		.uleb128 0x5
 1258 037d 46756E63 		.ascii "Func_CreateTask\0"
 1258      5F437265 
 1258      61746554 
 1258      61736B00 
 1259 038d 0F       		.sleb128 15
 1260 038e 00       		.byte	0
 1261 038f 04       		.uleb128 0x4
 1262 0390 436F7265 		.ascii "CoreID_e\0"
 1262      49445F65 
 1262      00
 1263 0399 04       		.byte	0x4
 1264 039a 04       		.byte	0x4
 1265 039b 04       		.byte	0x4
 1266 039c C1030000 		.long	0x3c1
 1267 03a0 05       		.uleb128 0x5
 1268 03a1 436F7265 		.ascii "Core0\0"
 1268      3000
 1269 03a7 00       		.sleb128 0
 1270 03a8 05       		.uleb128 0x5
 1271 03a9 436F7265 		.ascii "Core1\0"
 1271      3100
 1272 03af 01       		.sleb128 1
 1273 03b0 05       		.uleb128 0x5
 1274 03b1 436F7265 		.ascii "Core2\0"
 1274      3200
 1275 03b7 02       		.sleb128 2
 1276 03b8 05       		.uleb128 0x5
 1277 03b9 436F7265 		.ascii "Core3\0"
 1277      3300
 1278 03bf 03       		.sleb128 3
 1279 03c0 00       		.byte	0
 1280 03c1 04       		.uleb128 0x4
 1281 03c2 70726976 		.ascii "privilige_mode_e\0"
GAS LISTING C:\Users\PRESID~1\AppData\Local\Temp\ccylhMgF.s 			page 41


 1281      696C6967 
 1281      655F6D6F 
 1281      64655F65 
 1281      00
 1282 03d3 04       		.byte	0x4
 1283 03d4 04       		.byte	0x4
 1284 03d5 10       		.byte	0x10
 1285 03d6 56040000 		.long	0x456
 1286 03da 05       		.uleb128 0x5
 1287 03db 65507269 		.ascii "ePriviligeMode_unpriviliged_thread_mode\0"
 1287      76696C69 
 1287      67654D6F 
 1287      64655F75 
 1287      6E707269 
 1288 0403 00       		.sleb128 0
 1289 0404 05       		.uleb128 0x5
 1290 0405 65507269 		.ascii "ePriviligeMode_priviliged_thread_mode\0"
 1290      76696C69 
 1290      67654D6F 
 1290      64655F70 
 1290      72697669 
 1291 042b 01       		.sleb128 1
 1292 042c 05       		.uleb128 0x5
 1293 042d 65507269 		.ascii "ePriviligeMode_priviliged_handler_mode\0"
 1293      76696C69 
 1293      67654D6F 
 1293      64655F70 
 1293      72697669 
 1294 0454 02       		.sleb128 2
 1295 0455 00       		.byte	0
 1296 0456 02       		.uleb128 0x2
 1297 0457 70726976 		.ascii "privilige_mode_t\0"
 1297      696C6967 
 1297      655F6D6F 
 1297      64655F74 
 1297      00
 1298 0468 04       		.byte	0x4
 1299 0469 16       		.byte	0x16
 1300 046a C1030000 		.long	0x3c1
 1301 046e 04       		.uleb128 0x4
 1302 046f 7461736B 		.ascii "task_state_e\0"
 1302      5F737461 
 1302      74655F65 
 1302      00
 1303 047c 04       		.byte	0x4
 1304 047d 05       		.byte	0x5
 1305 047e 07       		.byte	0x7
 1306 047f C4040000 		.long	0x4c4
 1307 0483 05       		.uleb128 0x5
 1308 0484 5461736B 		.ascii "Task_unspecified\0"
 1308      5F756E73 
 1308      70656369 
 1308      66696564 
 1308      00
 1309 0495 00       		.sleb128 0
 1310 0496 05       		.uleb128 0x5
 1311 0497 5461736B 		.ascii "Task_suspended\0"
GAS LISTING C:\Users\PRESID~1\AppData\Local\Temp\ccylhMgF.s 			page 42


 1311      5F737573 
 1311      70656E64 
 1311      656400
 1312 04a6 01       		.sleb128 1
 1313 04a7 05       		.uleb128 0x5
 1314 04a8 5461736B 		.ascii "Task_ready\0"
 1314      5F726561 
 1314      647900
 1315 04b3 02       		.sleb128 2
 1316 04b4 05       		.uleb128 0x5
 1317 04b5 5461736B 		.ascii "Task_running\0"
 1317      5F72756E 
 1317      6E696E67 
 1317      00
 1318 04c2 03       		.sleb128 3
 1319 04c3 00       		.byte	0
 1320 04c4 02       		.uleb128 0x2
 1321 04c5 7461736B 		.ascii "task_state_t\0"
 1321      5F737461 
 1321      74655F74 
 1321      00
 1322 04d2 05       		.byte	0x5
 1323 04d3 0E       		.byte	0xe
 1324 04d4 6E040000 		.long	0x46e
 1325 04d8 02       		.uleb128 0x2
 1326 04d9 66756E63 		.ascii "func_p_t\0"
 1326      5F705F74 
 1326      00
 1327 04e2 05       		.byte	0x5
 1328 04e3 13       		.byte	0x13
 1329 04e4 E8040000 		.long	0x4e8
 1330 04e8 06       		.uleb128 0x6
 1331 04e9 04       		.byte	0x4
 1332 04ea EE040000 		.long	0x4ee
 1333 04ee 07       		.uleb128 0x7
 1334 04ef F9040000 		.long	0x4f9
 1335 04f3 08       		.uleb128 0x8
 1336 04f4 F9040000 		.long	0x4f9
 1337 04f8 00       		.byte	0
 1338 04f9 09       		.uleb128 0x9
 1339 04fa 04       		.byte	0x4
 1340 04fb 02       		.uleb128 0x2
 1341 04fc 66756E63 		.ascii "func_p_state_change_t\0"
 1341      5F705F73 
 1341      74617465 
 1341      5F636861 
 1341      6E67655F 
 1342 0512 05       		.byte	0x5
 1343 0513 15       		.byte	0x15
 1344 0514 18050000 		.long	0x518
 1345 0518 06       		.uleb128 0x6
 1346 0519 04       		.byte	0x4
 1347 051a 1E050000 		.long	0x51e
 1348 051e 0A       		.uleb128 0xa
 1349 051f 95000000 		.long	0x95
 1350 0523 32050000 		.long	0x532
 1351 0527 08       		.uleb128 0x8
GAS LISTING C:\Users\PRESID~1\AppData\Local\Temp\ccylhMgF.s 			page 43


 1352 0528 F9040000 		.long	0x4f9
 1353 052c 08       		.uleb128 0x8
 1354 052d C4040000 		.long	0x4c4
 1355 0531 00       		.byte	0
 1356 0532 0B       		.uleb128 0xb
 1357 0533 7461736B 		.ascii "task_group_s\0"
 1357      5F67726F 
 1357      75705F73 
 1357      00
 1358 0540 08       		.byte	0x8
 1359 0541 05       		.byte	0x5
 1360 0542 17       		.byte	0x17
 1361 0543 6A050000 		.long	0x56a
 1362 0547 0C       		.uleb128 0xc
 1363 0548 09000000 		.secrel32	LASF0
 1364 054c 05       		.byte	0x5
 1365 054d 19       		.byte	0x19
 1366 054e D3000000 		.long	0xd3
 1367 0552 00       		.byte	0
 1368 0553 0D       		.uleb128 0xd
 1369 0554 66616972 		.ascii "fair_exe_time\0"
 1369      5F657865 
 1369      5F74696D 
 1369      6500
 1370 0562 05       		.byte	0x5
 1371 0563 1A       		.byte	0x1a
 1372 0564 D3000000 		.long	0xd3
 1373 0568 04       		.byte	0x4
 1374 0569 00       		.byte	0
 1375 056a 02       		.uleb128 0x2
 1376 056b 7461736B 		.ascii "task_group_t\0"
 1376      5F67726F 
 1376      75705F74 
 1376      00
 1377 0578 05       		.byte	0x5
 1378 0579 1C       		.byte	0x1c
 1379 057a 32050000 		.long	0x532
 1380 057e 0B       		.uleb128 0xb
 1381 057f 7461736B 		.ascii "task_s\0"
 1381      5F7300
 1382 0586 64       		.byte	0x64
 1383 0587 05       		.byte	0x5
 1384 0588 1E       		.byte	0x1e
 1385 0589 F2070000 		.long	0x7f2
 1386 058d 0E       		.uleb128 0xe
 1387 058e 61637469 		.ascii "active\0"
 1387      766500
 1388 0595 05       		.byte	0x5
 1389 0596 20       		.byte	0x20
 1390 0597 F2070000 		.long	0x7f2
 1391 059b 04       		.byte	0x4
 1392 059c 01       		.byte	0x1
 1393 059d 1F       		.byte	0x1f
 1394 059e 00       		.byte	0
 1395 059f 0E       		.uleb128 0xe
 1396 05a0 7461736B 		.ascii "task_queued\0"
 1396      5F717565 
GAS LISTING C:\Users\PRESID~1\AppData\Local\Temp\ccylhMgF.s 			page 44


 1396      75656400 
 1397 05ac 05       		.byte	0x5
 1398 05ad 21       		.byte	0x21
 1399 05ae F2070000 		.long	0x7f2
 1400 05b2 04       		.byte	0x4
 1401 05b3 01       		.byte	0x1
 1402 05b4 1E       		.byte	0x1e
 1403 05b5 00       		.byte	0
 1404 05b6 0E       		.uleb128 0xe
 1405 05b7 49646C65 		.ascii "IdleTask\0"
 1405      5461736B 
 1405      00
 1406 05c0 05       		.byte	0x5
 1407 05c1 22       		.byte	0x22
 1408 05c2 F2070000 		.long	0x7f2
 1409 05c6 04       		.byte	0x4
 1410 05c7 01       		.byte	0x1
 1411 05c8 1D       		.byte	0x1d
 1412 05c9 00       		.byte	0
 1413 05ca 0E       		.uleb128 0xe
 1414 05cb 46524545 		.ascii "FREE\0"
 1414      00
 1415 05d0 05       		.byte	0x5
 1416 05d1 23       		.byte	0x23
 1417 05d2 F2070000 		.long	0x7f2
 1418 05d6 04       		.byte	0x4
 1419 05d7 1D       		.byte	0x1d
 1420 05d8 00       		.byte	0
 1421 05d9 00       		.byte	0
 1422 05da 0D       		.uleb128 0xd
 1423 05db 4E724F66 		.ascii "NrOfInsAllowed\0"
 1423      496E7341 
 1423      6C6C6F77 
 1423      656400
 1424 05ea 05       		.byte	0x5
 1425 05eb 24       		.byte	0x24
 1426 05ec 95000000 		.long	0x95
 1427 05f0 04       		.byte	0x4
 1428 05f1 0D       		.uleb128 0xd
 1429 05f2 4E724F66 		.ascii "NrOfInsActivated\0"
 1429      496E7341 
 1429      63746976 
 1429      61746564 
 1429      00
 1430 0603 05       		.byte	0x5
 1431 0604 25       		.byte	0x25
 1432 0605 95000000 		.long	0x95
 1433 0609 05       		.byte	0x5
 1434 060a 0D       		.uleb128 0xd
 1435 060b 57616974 		.ascii "WaitActUntil\0"
 1435      41637455 
 1435      6E74696C 
 1435      00
 1436 0618 05       		.byte	0x5
 1437 0619 26       		.byte	0x26
 1438 061a D3000000 		.long	0xd3
 1439 061e 08       		.byte	0x8
GAS LISTING C:\Users\PRESID~1\AppData\Local\Temp\ccylhMgF.s 			page 45


 1440 061f 0D       		.uleb128 0xd
 1441 0620 77616974 		.ascii "wait_time\0"
 1441      5F74696D 
 1441      6500
 1442 062a 05       		.byte	0x5
 1443 062b 27       		.byte	0x27
 1444 062c D3000000 		.long	0xd3
 1445 0630 0C       		.byte	0xc
 1446 0631 0D       		.uleb128 0xd
 1447 0632 54696D65 		.ascii "TimeToPrioInc\0"
 1447      546F5072 
 1447      696F496E 
 1447      6300
 1448 0640 05       		.byte	0x5
 1449 0641 28       		.byte	0x28
 1450 0642 D3000000 		.long	0xd3
 1451 0646 10       		.byte	0x10
 1452 0647 0D       		.uleb128 0xd
 1453 0648 6F766572 		.ascii "overwaittime_per_prio_inc_step\0"
 1453      77616974 
 1453      74696D65 
 1453      5F706572 
 1453      5F707269 
 1454 0667 05       		.byte	0x5
 1455 0668 29       		.byte	0x29
 1456 0669 D3000000 		.long	0xd3
 1457 066d 14       		.byte	0x14
 1458 066e 0D       		.uleb128 0xd
 1459 066f 6D61785F 		.ascii "max_allowed_wait_time\0"
 1459      616C6C6F 
 1459      7765645F 
 1459      77616974 
 1459      5F74696D 
 1460 0685 05       		.byte	0x5
 1461 0686 2A       		.byte	0x2a
 1462 0687 D3000000 		.long	0xd3
 1463 068b 18       		.byte	0x18
 1464 068c 0C       		.uleb128 0xc
 1465 068d 09000000 		.secrel32	LASF0
 1466 0691 05       		.byte	0x5
 1467 0692 2B       		.byte	0x2b
 1468 0693 D3000000 		.long	0xd3
 1469 0697 1C       		.byte	0x1c
 1470 0698 0D       		.uleb128 0xd
 1471 0699 73746172 		.ascii "start_time\0"
 1471      745F7469 
 1471      6D6500
 1472 06a4 05       		.byte	0x5
 1473 06a5 2C       		.byte	0x2c
 1474 06a6 D3000000 		.long	0xd3
 1475 06aa 20       		.byte	0x20
 1476 06ab 0D       		.uleb128 0xd
 1477 06ac 63757272 		.ascii "current_prio\0"
 1477      656E745F 
 1477      7072696F 
 1477      00
 1478 06b9 05       		.byte	0x5
GAS LISTING C:\Users\PRESID~1\AppData\Local\Temp\ccylhMgF.s 			page 46


 1479 06ba 2D       		.byte	0x2d
 1480 06bb 95000000 		.long	0x95
 1481 06bf 24       		.byte	0x24
 1482 06c0 0D       		.uleb128 0xd
 1483 06c1 64656661 		.ascii "default_prio\0"
 1483      756C745F 
 1483      7072696F 
 1483      00
 1484 06ce 05       		.byte	0x5
 1485 06cf 2E       		.byte	0x2e
 1486 06d0 95000000 		.long	0x95
 1487 06d4 25       		.byte	0x25
 1488 06d5 0D       		.uleb128 0xd
 1489 06d6 7461736B 		.ascii "task_number\0"
 1489      5F6E756D 
 1489      62657200 
 1490 06e2 05       		.byte	0x5
 1491 06e3 2F       		.byte	0x2f
 1492 06e4 D3000000 		.long	0xd3
 1493 06e8 28       		.byte	0x28
 1494 06e9 0D       		.uleb128 0xd
 1495 06ea 667000   		.ascii "fp\0"
 1496 06ed 05       		.byte	0x5
 1497 06ee 30       		.byte	0x30
 1498 06ef D8040000 		.long	0x4d8
 1499 06f3 2C       		.byte	0x2c
 1500 06f4 0D       		.uleb128 0xd
 1501 06f5 73746174 		.ascii "state_request\0"
 1501      655F7265 
 1501      71756573 
 1501      7400
 1502 0703 05       		.byte	0x5
 1503 0704 31       		.byte	0x31
 1504 0705 FB040000 		.long	0x4fb
 1505 0709 30       		.byte	0x30
 1506 070a 0D       		.uleb128 0xd
 1507 070b 7461736B 		.ascii "task_state\0"
 1507      5F737461 
 1507      746500
 1508 0716 05       		.byte	0x5
 1509 0717 32       		.byte	0x32
 1510 0718 C4040000 		.long	0x4c4
 1511 071c 34       		.byte	0x34
 1512 071d 0D       		.uleb128 0xd
 1513 071e 7461736B 		.ascii "task_group\0"
 1513      5F67726F 
 1513      757000
 1514 0729 05       		.byte	0x5
 1515 072a 33       		.byte	0x33
 1516 072b 02080000 		.long	0x802
 1517 072f 38       		.byte	0x38
 1518 0730 0D       		.uleb128 0xd
 1519 0731 45415800 		.ascii "EAX\0"
 1520 0735 05       		.byte	0x5
 1521 0736 35       		.byte	0x35
 1522 0737 D3000000 		.long	0xd3
 1523 073b 3C       		.byte	0x3c
GAS LISTING C:\Users\PRESID~1\AppData\Local\Temp\ccylhMgF.s 			page 47


 1524 073c 0D       		.uleb128 0xd
 1525 073d 45425800 		.ascii "EBX\0"
 1526 0741 05       		.byte	0x5
 1527 0742 36       		.byte	0x36
 1528 0743 D3000000 		.long	0xd3
 1529 0747 40       		.byte	0x40
 1530 0748 0D       		.uleb128 0xd
 1531 0749 45435800 		.ascii "ECX\0"
 1532 074d 05       		.byte	0x5
 1533 074e 37       		.byte	0x37
 1534 074f D3000000 		.long	0xd3
 1535 0753 44       		.byte	0x44
 1536 0754 0D       		.uleb128 0xd
 1537 0755 45445800 		.ascii "EDX\0"
 1538 0759 05       		.byte	0x5
 1539 075a 38       		.byte	0x38
 1540 075b D3000000 		.long	0xd3
 1541 075f 48       		.byte	0x48
 1542 0760 0D       		.uleb128 0xd
 1543 0761 70537461 		.ascii "pStackPointer\0"
 1543      636B506F 
 1543      696E7465 
 1543      7200
 1544 076f 05       		.byte	0x5
 1545 0770 48       		.byte	0x48
 1546 0771 08080000 		.long	0x808
 1547 0775 4C       		.byte	0x4c
 1548 0776 0D       		.uleb128 0xd
 1549 0777 70537461 		.ascii "pStackPointerByMalloc\0"
 1549      636B506F 
 1549      696E7465 
 1549      7242794D 
 1549      616C6C6F 
 1550 078d 05       		.byte	0x5
 1551 078e 49       		.byte	0x49
 1552 078f 08080000 		.long	0x808
 1553 0793 50       		.byte	0x50
 1554 0794 0D       		.uleb128 0xd
 1555 0795 70537461 		.ascii "pStackPointerStart\0"
 1555      636B506F 
 1555      696E7465 
 1555      72537461 
 1555      727400
 1556 07a8 05       		.byte	0x5
 1557 07a9 4A       		.byte	0x4a
 1558 07aa 08080000 		.long	0x808
 1559 07ae 54       		.byte	0x54
 1560 07af 0D       		.uleb128 0xd
 1561 07b0 53746163 		.ascii "StackSize\0"
 1561      6B53697A 
 1561      6500
 1562 07ba 05       		.byte	0x5
 1563 07bb 4B       		.byte	0x4b
 1564 07bc D3000000 		.long	0xd3
 1565 07c0 58       		.byte	0x58
 1566 07c1 0D       		.uleb128 0xd
 1567 07c2 70537461 		.ascii "pStackPointerEnd\0"
GAS LISTING C:\Users\PRESID~1\AppData\Local\Temp\ccylhMgF.s 			page 48


 1567      636B506F 
 1567      696E7465 
 1567      72456E64 
 1567      00
 1568 07d3 05       		.byte	0x5
 1569 07d4 4C       		.byte	0x4c
 1570 07d5 08080000 		.long	0x808
 1571 07d9 5C       		.byte	0x5c
 1572 07da 0D       		.uleb128 0xd
 1573 07db 70726976 		.ascii "privilige_mode\0"
 1573      696C6967 
 1573      655F6D6F 
 1573      646500
 1574 07ea 05       		.byte	0x5
 1575 07eb 4D       		.byte	0x4d
 1576 07ec 56040000 		.long	0x456
 1577 07f0 60       		.byte	0x60
 1578 07f1 00       		.byte	0
 1579 07f2 03       		.uleb128 0x3
 1580 07f3 04       		.byte	0x4
 1581 07f4 07       		.byte	0x7
 1582 07f5 756E7369 		.ascii "unsigned int\0"
 1582      676E6564 
 1582      20696E74 
 1582      00
 1583 0802 06       		.uleb128 0x6
 1584 0803 04       		.byte	0x4
 1585 0804 6A050000 		.long	0x56a
 1586 0808 06       		.uleb128 0x6
 1587 0809 04       		.byte	0x4
 1588 080a 95000000 		.long	0x95
 1589 080e 02       		.uleb128 0x2
 1590 080f 7461736B 		.ascii "task_t\0"
 1590      5F7400
 1591 0816 05       		.byte	0x5
 1592 0817 4F       		.byte	0x4f
 1593 0818 7E050000 		.long	0x57e
 1594 081c 02       		.uleb128 0x2
 1595 081d 73636865 		.ascii "scheduling_t\0"
 1595      64756C69 
 1595      6E675F74 
 1595      00
 1596 082a 05       		.byte	0x5
 1597 082b 50       		.byte	0x50
 1598 082c 30080000 		.long	0x830
 1599 0830 06       		.uleb128 0x6
 1600 0831 04       		.byte	0x4
 1601 0832 0E080000 		.long	0x80e
 1602 0836 02       		.uleb128 0x2
 1603 0837 73636865 		.ascii "scheduler_time_t\0"
 1603      64756C65 
 1603      725F7469 
 1603      6D655F74 
 1603      00
 1604 0848 05       		.byte	0x5
 1605 0849 5D       		.byte	0x5d
 1606 084a F2070000 		.long	0x7f2
GAS LISTING C:\Users\PRESID~1\AppData\Local\Temp\ccylhMgF.s 			page 49


 1607 084e 02       		.uleb128 0x2
 1608 084f 7461736B 		.ascii "task_time_t\0"
 1608      5F74696D 
 1608      655F7400 
 1609 085b 06       		.byte	0x6
 1610 085c 0F       		.byte	0xf
 1611 085d F2070000 		.long	0x7f2
 1612 0861 0F       		.uleb128 0xf
 1613 0862 4F535F41 		.ascii "OS_ActivateDispatcher\0"
 1613      63746976 
 1613      61746544 
 1613      69737061 
 1613      74636865 
 1614 0878 01       		.byte	0x1
 1615 0879 16       		.byte	0x16
 1616 087a 00000000 		.long	LFB0
 1617 087e 05000000 		.long	LFE0-LFB0
 1618 0882 01       		.uleb128 0x1
 1619 0883 9C       		.byte	0x9c
 1620 0884 10       		.uleb128 0x10
 1621 0885 4F535F53 		.ascii "OS_SleepTask\0"
 1621      6C656570 
 1621      5461736B 
 1621      00
 1622 0892 01       		.byte	0x1
 1623 0893 30       		.byte	0x30
 1624 0894 05000000 		.long	LFB1
 1625 0898 2C000000 		.long	LFE1-LFB1
 1626 089c 01       		.uleb128 0x1
 1627 089d 9C       		.byte	0x9c
 1628 089e D2080000 		.long	0x8d2
 1629 08a2 11       		.uleb128 0x11
 1630 08a3 22000000 		.secrel32	LASF1
 1631 08a7 01       		.byte	0x1
 1632 08a8 30       		.byte	0x30
 1633 08a9 30080000 		.long	0x830
 1634 08ad 02       		.uleb128 0x2
 1635 08ae 91       		.byte	0x91
 1636 08af 00       		.sleb128 0
 1637 08b0 12       		.uleb128 0x12
 1638 08b1 6D696C6C 		.ascii "millisec\0"
 1638      69736563 
 1638      00
 1639 08ba 01       		.byte	0x1
 1640 08bb 30       		.byte	0x30
 1641 08bc 4E080000 		.long	0x84e
 1642 08c0 02       		.uleb128 0x2
 1643 08c1 91       		.byte	0x91
 1644 08c2 04       		.sleb128 4
 1645 08c3 11       		.uleb128 0x11
 1646 08c4 27000000 		.secrel32	LASF2
 1647 08c8 01       		.byte	0x1
 1648 08c9 30       		.byte	0x30
 1649 08ca D2080000 		.long	0x8d2
 1650 08ce 02       		.uleb128 0x2
 1651 08cf 91       		.byte	0x91
 1652 08d0 08       		.sleb128 8
GAS LISTING C:\Users\PRESID~1\AppData\Local\Temp\ccylhMgF.s 			page 50


 1653 08d1 00       		.byte	0
 1654 08d2 06       		.uleb128 0x6
 1655 08d3 04       		.byte	0x4
 1656 08d4 1C080000 		.long	0x81c
 1657 08d8 13       		.uleb128 0x13
 1658 08d9 7461736B 		.ascii "task_state_request\0"
 1658      5F737461 
 1658      74655F72 
 1658      65717565 
 1658      737400
 1659 08ec 01       		.byte	0x1
 1660 08ed 37       		.byte	0x37
 1661 08ee 95000000 		.long	0x95
 1662 08f2 31000000 		.long	LFB2
 1663 08f6 27010000 		.long	LFE2-LFB2
 1664 08fa 01       		.uleb128 0x1
 1665 08fb 9C       		.byte	0x9c
 1666 08fc 54090000 		.long	0x954
 1667 0900 12       		.uleb128 0x12
 1668 0901 74656D70 		.ascii "temp_task\0"
 1668      5F746173 
 1668      6B00
 1669 090b 01       		.byte	0x1
 1670 090c 37       		.byte	0x37
 1671 090d F9040000 		.long	0x4f9
 1672 0911 02       		.uleb128 0x2
 1673 0912 91       		.byte	0x91
 1674 0913 00       		.sleb128 0
 1675 0914 12       		.uleb128 0x12
 1676 0915 72657175 		.ascii "requested_state\0"
 1676      65737465 
 1676      645F7374 
 1676      61746500 
 1677 0925 01       		.byte	0x1
 1678 0926 37       		.byte	0x37
 1679 0927 C4040000 		.long	0x4c4
 1680 092b 02       		.uleb128 0x2
 1681 092c 91       		.byte	0x91
 1682 092d 04       		.sleb128 4
 1683 092e 14       		.uleb128 0x14
 1684 092f 52657175 		.ascii "RequestState\0"
 1684      65737453 
 1684      74617465 
 1684      00
 1685 093c 01       		.byte	0x1
 1686 093d 39       		.byte	0x39
 1687 093e 95000000 		.long	0x95
 1688 0942 02       		.uleb128 0x2
 1689 0943 91       		.byte	0x91
 1690 0944 6F       		.sleb128 -17
 1691 0945 15       		.uleb128 0x15
 1692 0946 22000000 		.secrel32	LASF1
 1693 094a 01       		.byte	0x1
 1694 094b 3B       		.byte	0x3b
 1695 094c 30080000 		.long	0x830
 1696 0950 02       		.uleb128 0x2
 1697 0951 91       		.byte	0x91
GAS LISTING C:\Users\PRESID~1\AppData\Local\Temp\ccylhMgF.s 			page 51


 1698 0952 68       		.sleb128 -24
 1699 0953 00       		.byte	0
 1700 0954 10       		.uleb128 0x10
 1701 0955 4F535F43 		.ascii "OS_CreateTask\0"
 1701      72656174 
 1701      65546173 
 1701      6B00
 1702 0963 01       		.byte	0x1
 1703 0964 AE       		.byte	0xae
 1704 0965 58010000 		.long	LFB3
 1705 0969 72000000 		.long	LFE3-LFB3
 1706 096d 01       		.uleb128 0x1
 1707 096e 9C       		.byte	0x9c
 1708 096f 82090000 		.long	0x982
 1709 0973 11       		.uleb128 0x11
 1710 0974 22000000 		.secrel32	LASF1
 1711 0978 01       		.byte	0x1
 1712 0979 AE       		.byte	0xae
 1713 097a 30080000 		.long	0x830
 1714 097e 02       		.uleb128 0x2
 1715 097f 91       		.byte	0x91
 1716 0980 00       		.sleb128 0
 1717 0981 00       		.byte	0
 1718 0982 16       		.uleb128 0x16
 1719 0983 4F535F50 		.ascii "OS_PreemptTask\0"
 1719      7265656D 
 1719      70745461 
 1719      736B00
 1720 0992 01       		.byte	0x1
 1721 0993 C8       		.byte	0xc8
 1722 0994 CA010000 		.long	LFB4
 1723 0998 C1000000 		.long	LFE4-LFB4
 1724 099c 01       		.uleb128 0x1
 1725 099d 9C       		.byte	0x9c
 1726 099e BF090000 		.long	0x9bf
 1727 09a2 11       		.uleb128 0x11
 1728 09a3 22000000 		.secrel32	LASF1
 1729 09a7 01       		.byte	0x1
 1730 09a8 C8       		.byte	0xc8
 1731 09a9 30080000 		.long	0x830
 1732 09ad 02       		.uleb128 0x2
 1733 09ae 91       		.byte	0x91
 1734 09af 00       		.sleb128 0
 1735 09b0 11       		.uleb128 0x11
 1736 09b1 12000000 		.secrel32	LASF3
 1737 09b5 01       		.byte	0x1
 1738 09b6 C8       		.byte	0xc8
 1739 09b7 D2080000 		.long	0x8d2
 1740 09bb 02       		.uleb128 0x2
 1741 09bc 91       		.byte	0x91
 1742 09bd 04       		.sleb128 4
 1743 09be 00       		.byte	0
 1744 09bf 10       		.uleb128 0x10
 1745 09c0 4F535F41 		.ascii "OS_ActivateTask\0"
 1745      63746976 
 1745      61746554 
 1745      61736B00 
GAS LISTING C:\Users\PRESID~1\AppData\Local\Temp\ccylhMgF.s 			page 52


 1746 09d0 01       		.byte	0x1
 1747 09d1 F2       		.byte	0xf2
 1748 09d2 8B020000 		.long	LFB5
 1749 09d6 CB000000 		.long	LFE5-LFB5
 1750 09da 01       		.uleb128 0x1
 1751 09db 9C       		.byte	0x9c
 1752 09dc EF090000 		.long	0x9ef
 1753 09e0 11       		.uleb128 0x11
 1754 09e1 22000000 		.secrel32	LASF1
 1755 09e5 01       		.byte	0x1
 1756 09e6 F2       		.byte	0xf2
 1757 09e7 30080000 		.long	0x830
 1758 09eb 02       		.uleb128 0x2
 1759 09ec 91       		.byte	0x91
 1760 09ed 00       		.sleb128 0
 1761 09ee 00       		.byte	0
 1762 09ef 17       		.uleb128 0x17
 1763 09f0 4F535F53 		.ascii "OS_StartTask\0"
 1763      74617274 
 1763      5461736B 
 1763      00
 1764 09fd 01       		.byte	0x1
 1765 09fe 2501     		.word	0x125
 1766 0a00 56030000 		.long	LFB6
 1767 0a04 15010000 		.long	LFE6-LFB6
 1768 0a08 01       		.uleb128 0x1
 1769 0a09 9C       		.byte	0x9c
 1770 0a0a 2D0A0000 		.long	0xa2d
 1771 0a0e 18       		.uleb128 0x18
 1772 0a0f 22000000 		.secrel32	LASF1
 1773 0a13 01       		.byte	0x1
 1774 0a14 2501     		.word	0x125
 1775 0a16 30080000 		.long	0x830
 1776 0a1a 02       		.uleb128 0x2
 1777 0a1b 91       		.byte	0x91
 1778 0a1c 00       		.sleb128 0
 1779 0a1d 18       		.uleb128 0x18
 1780 0a1e 12000000 		.secrel32	LASF3
 1781 0a22 01       		.byte	0x1
 1782 0a23 2501     		.word	0x125
 1783 0a25 D2080000 		.long	0x8d2
 1784 0a29 02       		.uleb128 0x2
 1785 0a2a 91       		.byte	0x91
 1786 0a2b 04       		.sleb128 4
 1787 0a2c 00       		.byte	0
 1788 0a2d 17       		.uleb128 0x17
 1789 0a2e 4F535F54 		.ascii "OS_TerminateTask\0"
 1789      65726D69 
 1789      6E617465 
 1789      5461736B 
 1789      00
 1790 0a3f 01       		.byte	0x1
 1791 0a40 5A01     		.word	0x15a
 1792 0a42 6B040000 		.long	LFB7
 1793 0a46 DB000000 		.long	LFE7-LFB7
 1794 0a4a 01       		.uleb128 0x1
 1795 0a4b 9C       		.byte	0x9c
GAS LISTING C:\Users\PRESID~1\AppData\Local\Temp\ccylhMgF.s 			page 53


 1796 0a4c 6F0A0000 		.long	0xa6f
 1797 0a50 18       		.uleb128 0x18
 1798 0a51 22000000 		.secrel32	LASF1
 1799 0a55 01       		.byte	0x1
 1800 0a56 5A01     		.word	0x15a
 1801 0a58 30080000 		.long	0x830
 1802 0a5c 02       		.uleb128 0x2
 1803 0a5d 91       		.byte	0x91
 1804 0a5e 00       		.sleb128 0
 1805 0a5f 18       		.uleb128 0x18
 1806 0a60 12000000 		.secrel32	LASF3
 1807 0a64 01       		.byte	0x1
 1808 0a65 5A01     		.word	0x15a
 1809 0a67 D2080000 		.long	0x8d2
 1810 0a6b 02       		.uleb128 0x2
 1811 0a6c 91       		.byte	0x91
 1812 0a6d 04       		.sleb128 4
 1813 0a6e 00       		.byte	0
 1814 0a6f 17       		.uleb128 0x17
 1815 0a70 4F535F54 		.ascii "OS_TaskDispatcher\0"
 1815      61736B44 
 1815      69737061 
 1815      74636865 
 1815      7200
 1816 0a82 01       		.byte	0x1
 1817 0a83 8401     		.word	0x184
 1818 0a85 46050000 		.long	LFB8
 1819 0a89 77000000 		.long	LFE8-LFB8
 1820 0a8d 01       		.uleb128 0x1
 1821 0a8e 9C       		.byte	0x9c
 1822 0a8f B20A0000 		.long	0xab2
 1823 0a93 19       		.uleb128 0x19
 1824 0a94 27000000 		.secrel32	LASF2
 1825 0a98 01       		.byte	0x1
 1826 0a99 9001     		.word	0x190
 1827 0a9b D2080000 		.long	0x8d2
 1828 0a9f 02       		.uleb128 0x2
 1829 0aa0 91       		.byte	0x91
 1830 0aa1 68       		.sleb128 -24
 1831 0aa2 19       		.uleb128 0x19
 1832 0aa3 22000000 		.secrel32	LASF1
 1833 0aa7 01       		.byte	0x1
 1834 0aa8 9101     		.word	0x191
 1835 0aaa 30080000 		.long	0x830
 1836 0aae 02       		.uleb128 0x2
 1837 0aaf 91       		.byte	0x91
 1838 0ab0 6C       		.sleb128 -20
 1839 0ab1 00       		.byte	0
 1840 0ab2 1A       		.uleb128 0x1a
 1841 0ab3 5441534B 		.ascii "TASK_0\0"
 1841      5F3000
 1842 0aba 01       		.byte	0x1
 1843 0abb A701     		.word	0x1a7
 1844 0abd BD050000 		.long	LFB9
 1845 0ac1 05000000 		.long	LFE9-LFB9
 1846 0ac5 01       		.uleb128 0x1
 1847 0ac6 9C       		.byte	0x9c
GAS LISTING C:\Users\PRESID~1\AppData\Local\Temp\ccylhMgF.s 			page 54


 1848 0ac7 DB0A0000 		.long	0xadb
 1849 0acb 18       		.uleb128 0x18
 1850 0acc 00000000 		.secrel32	LASF4
 1851 0ad0 01       		.byte	0x1
 1852 0ad1 A701     		.word	0x1a7
 1853 0ad3 F9040000 		.long	0x4f9
 1854 0ad7 02       		.uleb128 0x2
 1855 0ad8 91       		.byte	0x91
 1856 0ad9 00       		.sleb128 0
 1857 0ada 00       		.byte	0
 1858 0adb 1B       		.uleb128 0x1b
 1859 0adc 5441534B 		.ascii "TASK_1\0"
 1859      5F3100
 1860 0ae3 01       		.byte	0x1
 1861 0ae4 AC01     		.word	0x1ac
 1862 0ae6 C2050000 		.long	LFB10
 1863 0aea 3C000000 		.long	LFE10-LFB10
 1864 0aee 01       		.uleb128 0x1
 1865 0aef 9C       		.byte	0x9c
 1866 0af0 130B0000 		.long	0xb13
 1867 0af4 18       		.uleb128 0x18
 1868 0af5 00000000 		.secrel32	LASF4
 1869 0af9 01       		.byte	0x1
 1870 0afa AC01     		.word	0x1ac
 1871 0afc F9040000 		.long	0x4f9
 1872 0b00 02       		.uleb128 0x2
 1873 0b01 91       		.byte	0x91
 1874 0b02 00       		.sleb128 0
 1875 0b03 19       		.uleb128 0x19
 1876 0b04 27000000 		.secrel32	LASF2
 1877 0b08 01       		.byte	0x1
 1878 0b09 AE01     		.word	0x1ae
 1879 0b0b D2080000 		.long	0x8d2
 1880 0b0f 02       		.uleb128 0x2
 1881 0b10 91       		.byte	0x91
 1882 0b11 6C       		.sleb128 -20
 1883 0b12 00       		.byte	0
 1884 0b13 1A       		.uleb128 0x1a
 1885 0b14 5441534B 		.ascii "TASK_2\0"
 1885      5F3200
 1886 0b1b 01       		.byte	0x1
 1887 0b1c BB01     		.word	0x1bb
 1888 0b1e FE050000 		.long	LFB11
 1889 0b22 10000000 		.long	LFE11-LFB11
 1890 0b26 01       		.uleb128 0x1
 1891 0b27 9C       		.byte	0x9c
 1892 0b28 3C0B0000 		.long	0xb3c
 1893 0b2c 18       		.uleb128 0x18
 1894 0b2d 00000000 		.secrel32	LASF4
 1895 0b31 01       		.byte	0x1
 1896 0b32 BB01     		.word	0x1bb
 1897 0b34 F9040000 		.long	0x4f9
 1898 0b38 02       		.uleb128 0x2
 1899 0b39 91       		.byte	0x91
 1900 0b3a 00       		.sleb128 0
 1901 0b3b 00       		.byte	0
 1902 0b3c 1A       		.uleb128 0x1a
GAS LISTING C:\Users\PRESID~1\AppData\Local\Temp\ccylhMgF.s 			page 55


 1903 0b3d 5441534B 		.ascii "TASK_3\0"
 1903      5F3300
 1904 0b44 01       		.byte	0x1
 1905 0b45 C701     		.word	0x1c7
 1906 0b47 0E060000 		.long	LFB12
 1907 0b4b 10000000 		.long	LFE12-LFB12
 1908 0b4f 01       		.uleb128 0x1
 1909 0b50 9C       		.byte	0x9c
 1910 0b51 650B0000 		.long	0xb65
 1911 0b55 18       		.uleb128 0x18
 1912 0b56 00000000 		.secrel32	LASF4
 1913 0b5a 01       		.byte	0x1
 1914 0b5b C701     		.word	0x1c7
 1915 0b5d F9040000 		.long	0x4f9
 1916 0b61 02       		.uleb128 0x2
 1917 0b62 91       		.byte	0x91
 1918 0b63 00       		.sleb128 0
 1919 0b64 00       		.byte	0
 1920 0b65 17       		.uleb128 0x17
 1921 0b66 4F535F49 		.ascii "OS_InitTasks\0"
 1921      6E697454 
 1921      61736B73 
 1921      00
 1922 0b73 01       		.byte	0x1
 1923 0b74 D301     		.word	0x1d3
 1924 0b76 1E060000 		.long	LFB13
 1925 0b7a B2010000 		.long	LFE13-LFB13
 1926 0b7e 01       		.uleb128 0x1
 1927 0b7f 9C       		.byte	0x9c
 1928 0b80 940B0000 		.long	0xb94
 1929 0b84 19       		.uleb128 0x19
 1930 0b85 00000000 		.secrel32	LASF4
 1931 0b89 01       		.byte	0x1
 1932 0b8a D501     		.word	0x1d5
 1933 0b8c 30080000 		.long	0x830
 1934 0b90 02       		.uleb128 0x2
 1935 0b91 91       		.byte	0x91
 1936 0b92 6C       		.sleb128 -20
 1937 0b93 00       		.byte	0
 1938 0b94 1C       		.uleb128 0x1c
 1939 0b95 4F535F54 		.ascii "OS_TaskScheduler\0"
 1939      61736B53 
 1939      63686564 
 1939      756C6572 
 1939      00
 1940 0ba6 01       		.byte	0x1
 1941 0ba7 2502     		.word	0x225
 1942 0ba9 720C0000 		.long	0xc72
 1943 0bad D0070000 		.long	LFB14
 1944 0bb1 C6010000 		.long	LFE14-LFB14
 1945 0bb5 01       		.uleb128 0x1
 1946 0bb6 9C       		.byte	0x9c
 1947 0bb7 720C0000 		.long	0xc72
 1948 0bbb 1D       		.uleb128 0x1d
 1949 0bbc 73636865 		.ascii "scheduling_queue_member\0"
 1949      64756C69 
 1949      6E675F71 
GAS LISTING C:\Users\PRESID~1\AppData\Local\Temp\ccylhMgF.s 			page 56


 1949      75657565 
 1949      5F6D656D 
 1950 0bd4 01       		.byte	0x1
 1951 0bd5 2802     		.word	0x228
 1952 0bd7 D2080000 		.long	0x8d2
 1953 0bdb 02       		.uleb128 0x2
 1954 0bdc 91       		.byte	0x91
 1955 0bdd 58       		.sleb128 -40
 1956 0bde 1D       		.uleb128 0x1d
 1957 0bdf 656C656D 		.ascii "element_nr\0"
 1957      656E745F 
 1957      6E7200
 1958 0bea 01       		.byte	0x1
 1959 0beb 2902     		.word	0x229
 1960 0bed 95000000 		.long	0x95
 1961 0bf1 02       		.uleb128 0x2
 1962 0bf2 91       		.byte	0x91
 1963 0bf3 6F       		.sleb128 -17
 1964 0bf4 1D       		.uleb128 0x1d
 1965 0bf5 57696E6E 		.ascii "Winner_prio\0"
 1965      65725F70 
 1965      72696F00 
 1966 0c01 01       		.byte	0x1
 1967 0c02 2B02     		.word	0x22b
 1968 0c04 95000000 		.long	0x95
 1969 0c08 02       		.uleb128 0x2
 1970 0c09 91       		.byte	0x91
 1971 0c0a 6E       		.sleb128 -18
 1972 0c0b 19       		.uleb128 0x19
 1973 0c0c 22000000 		.secrel32	LASF1
 1974 0c10 01       		.byte	0x1
 1975 0c11 2C02     		.word	0x22c
 1976 0c13 30080000 		.long	0x830
 1977 0c17 02       		.uleb128 0x2
 1978 0c18 91       		.byte	0x91
 1979 0c19 64       		.sleb128 -28
 1980 0c1a 1D       		.uleb128 0x1d
 1981 0c1b 57696E6E 		.ascii "Winner_task\0"
 1981      65725F74 
 1981      61736B00 
 1982 0c27 01       		.byte	0x1
 1983 0c28 2D02     		.word	0x22d
 1984 0c2a 30080000 		.long	0x830
 1985 0c2e 02       		.uleb128 0x2
 1986 0c2f 91       		.byte	0x91
 1987 0c30 60       		.sleb128 -32
 1988 0c31 1D       		.uleb128 0x1d
 1989 0c32 57696E6E 		.ascii "Winner_scheduling_queue_member\0"
 1989      65725F73 
 1989      63686564 
 1989      756C696E 
 1989      675F7175 
 1990 0c51 01       		.byte	0x1
 1991 0c52 2E02     		.word	0x22e
 1992 0c54 D2080000 		.long	0x8d2
 1993 0c58 02       		.uleb128 0x2
 1994 0c59 91       		.byte	0x91
GAS LISTING C:\Users\PRESID~1\AppData\Local\Temp\ccylhMgF.s 			page 57


 1995 0c5a 68       		.sleb128 -24
 1996 0c5b 1D       		.uleb128 0x1d
 1997 0c5c 64656C74 		.ascii "delta_time\0"
 1997      615F7469 
 1997      6D6500
 1998 0c67 01       		.byte	0x1
 1999 0c68 2F02     		.word	0x22f
 2000 0c6a 36080000 		.long	0x836
 2001 0c6e 02       		.uleb128 0x2
 2002 0c6f 91       		.byte	0x91
 2003 0c70 5C       		.sleb128 -36
 2004 0c71 00       		.byte	0
 2005 0c72 06       		.uleb128 0x6
 2006 0c73 04       		.byte	0x4
 2007 0c74 30080000 		.long	0x830
 2008 0c78 1E       		.uleb128 0x1e
 2009 0c79 95000000 		.long	0x95
 2010 0c7d 8F0C0000 		.long	0xc8f
 2011 0c81 1F       		.uleb128 0x1f
 2012 0c82 8F0C0000 		.long	0xc8f
 2013 0c86 00       		.byte	0
 2014 0c87 20       		.uleb128 0x20
 2015 0c88 8F0C0000 		.long	0xc8f
 2016 0c8c FF4F     		.word	0x4fff
 2017 0c8e 00       		.byte	0
 2018 0c8f 03       		.uleb128 0x3
 2019 0c90 04       		.byte	0x4
 2020 0c91 07       		.byte	0x7
 2021 0c92 73697A65 		.ascii "sizetype\0"
 2021      74797065 
 2021      00
 2022 0c9b 21       		.uleb128 0x21
 2023 0c9c 4F535F53 		.ascii "OS_STACK\0"
 2023      5441434B 
 2023      00
 2024 0ca5 07       		.byte	0x7
 2025 0ca6 0E       		.byte	0xe
 2026 0ca7 780C0000 		.long	0xc78
 2027 0cab 21       		.uleb128 0x21
 2028 0cac 5441534B 		.ascii "TASK1_CALL_NR\0"
 2028      315F4341 
 2028      4C4C5F4E 
 2028      5200
 2029 0cba 07       		.byte	0x7
 2030 0cbb 20       		.byte	0x20
 2031 0cbc C00C0000 		.long	0xcc0
 2032 0cc0 22       		.uleb128 0x22
 2033 0cc1 00010000 		.long	0x100
 2034 0cc5 21       		.uleb128 0x21
 2035 0cc6 5441534B 		.ascii "TASK2_CALL_NR\0"
 2035      325F4341 
 2035      4C4C5F4E 
 2035      5200
 2036 0cd4 07       		.byte	0x7
 2037 0cd5 21       		.byte	0x21
 2038 0cd6 C00C0000 		.long	0xcc0
 2039 0cda 21       		.uleb128 0x21
GAS LISTING C:\Users\PRESID~1\AppData\Local\Temp\ccylhMgF.s 			page 58


 2040 0cdb 5441534B 		.ascii "TASK3_CALL_NR\0"
 2040      335F4341 
 2040      4C4C5F4E 
 2040      5200
 2041 0ce9 07       		.byte	0x7
 2042 0cea 22       		.byte	0x22
 2043 0ceb C00C0000 		.long	0xcc0
 2044 0cef 1E       		.uleb128 0x1e
 2045 0cf0 95000000 		.long	0x95
 2046 0cf4 060D0000 		.long	0xd06
 2047 0cf8 1F       		.uleb128 0x1f
 2048 0cf9 8F0C0000 		.long	0xc8f
 2049 0cfd 09       		.byte	0x9
 2050 0cfe 20       		.uleb128 0x20
 2051 0cff 8F0C0000 		.long	0xc8f
 2052 0d03 CF07     		.word	0x7cf
 2053 0d05 00       		.byte	0
 2054 0d06 21       		.uleb128 0x21
 2055 0d07 5441534B 		.ascii "TASK_STACK\0"
 2055      5F535441 
 2055      434B00
 2056 0d12 07       		.byte	0x7
 2057 0d13 25       		.byte	0x25
 2058 0d14 EF0C0000 		.long	0xcef
 2059 0d18 21       		.uleb128 0x21
 2060 0d19 4C415354 		.ascii "LAST_CURRENT_TIME\0"
 2060      5F435552 
 2060      52454E54 
 2060      5F54494D 
 2060      4500
 2061 0d2b 07       		.byte	0x7
 2062 0d2c 26       		.byte	0x26
 2063 0d2d 36080000 		.long	0x836
 2064 0d31 21       		.uleb128 0x21
 2065 0d32 5441534B 		.ascii "TASK_0_VAR\0"
 2065      5F305F56 
 2065      415200
 2066 0d3d 07       		.byte	0x7
 2067 0d3e 2D       		.byte	0x2d
 2068 0d3f 0E080000 		.long	0x80e
 2069 0d43 21       		.uleb128 0x21
 2070 0d44 5441534B 		.ascii "TASK_1_VAR\0"
 2070      5F315F56 
 2070      415200
 2071 0d4f 07       		.byte	0x7
 2072 0d50 2D       		.byte	0x2d
 2073 0d51 0E080000 		.long	0x80e
 2074 0d55 21       		.uleb128 0x21
 2075 0d56 5441534B 		.ascii "TASK_2_VAR\0"
 2075      5F325F56 
 2075      415200
 2076 0d61 07       		.byte	0x7
 2077 0d62 2D       		.byte	0x2d
 2078 0d63 0E080000 		.long	0x80e
 2079 0d67 21       		.uleb128 0x21
 2080 0d68 5441534B 		.ascii "TASK_3_VAR\0"
 2080      5F335F56 
GAS LISTING C:\Users\PRESID~1\AppData\Local\Temp\ccylhMgF.s 			page 59


 2080      415200
 2081 0d73 07       		.byte	0x7
 2082 0d74 2D       		.byte	0x2d
 2083 0d75 0E080000 		.long	0x80e
 2084 0d79 21       		.uleb128 0x21
 2085 0d7a 5441534B 		.ascii "TASK_GROUP_1\0"
 2085      5F47524F 
 2085      55505F31 
 2085      00
 2086 0d87 07       		.byte	0x7
 2087 0d88 2E       		.byte	0x2e
 2088 0d89 6A050000 		.long	0x56a
 2089 0d8d 21       		.uleb128 0x21
 2090 0d8e 5441534B 		.ascii "TASK_GROUP_2\0"
 2090      5F47524F 
 2090      55505F32 
 2090      00
 2091 0d9b 07       		.byte	0x7
 2092 0d9c 2E       		.byte	0x2e
 2093 0d9d 6A050000 		.long	0x56a
 2094 0da1 21       		.uleb128 0x21
 2095 0da2 5441534B 		.ascii "TASK_GROUP_3\0"
 2095      5F47524F 
 2095      55505F33 
 2095      00
 2096 0daf 07       		.byte	0x7
 2097 0db0 2E       		.byte	0x2e
 2098 0db1 6A050000 		.long	0x56a
 2099 0db5 21       		.uleb128 0x21
 2100 0db6 5441534B 		.ascii "TASK_GROUP_4\0"
 2100      5F47524F 
 2100      55505F34 
 2100      00
 2101 0dc3 07       		.byte	0x7
 2102 0dc4 2E       		.byte	0x2e
 2103 0dc5 6A050000 		.long	0x56a
 2104 0dc9 21       		.uleb128 0x21
 2105 0dca 5441534B 		.ascii "TASK_GROUP_5\0"
 2105      5F47524F 
 2105      55505F35 
 2105      00
 2106 0dd7 07       		.byte	0x7
 2107 0dd8 2E       		.byte	0x2e
 2108 0dd9 6A050000 		.long	0x56a
 2109 0ddd 21       		.uleb128 0x21
 2110 0dde 5441534B 		.ascii "TASK_TRANSITION_REJECTED_TASK_ADDR\0"
 2110      5F545241 
 2110      4E534954 
 2110      494F4E5F 
 2110      52454A45 
 2111 0e01 07       		.byte	0x7
 2112 0e02 2F       		.byte	0x2f
 2113 0e03 30080000 		.long	0x830
 2114 0e07 21       		.uleb128 0x21
 2115 0e08 5441534B 		.ascii "TASK_TRANSITION_REJECTED_STATE\0"
 2115      5F545241 
 2115      4E534954 
GAS LISTING C:\Users\PRESID~1\AppData\Local\Temp\ccylhMgF.s 			page 60


 2115      494F4E5F 
 2115      52454A45 
 2116 0e27 07       		.byte	0x7
 2117 0e28 30       		.byte	0x30
 2118 0e29 C4040000 		.long	0x4c4
 2119 0e2d 21       		.uleb128 0x21
 2120 0e2e 5441534B 		.ascii "TASK_TRANSITION_CURRENT_STATE\0"
 2120      5F545241 
 2120      4E534954 
 2120      494F4E5F 
 2120      43555252 
 2121 0e4c 07       		.byte	0x7
 2122 0e4d 31       		.byte	0x31
 2123 0e4e C4040000 		.long	0x4c4
 2124 0e52 00       		.byte	0
 2125              		.section	.debug_abbrev,"dr"
 2126              	Ldebug_abbrev0:
 2127 0000 01       		.uleb128 0x1
 2128 0001 11       		.uleb128 0x11
 2129 0002 01       		.byte	0x1
 2130 0003 25       		.uleb128 0x25
 2131 0004 08       		.uleb128 0x8
 2132 0005 13       		.uleb128 0x13
 2133 0006 0B       		.uleb128 0xb
 2134 0007 03       		.uleb128 0x3
 2135 0008 08       		.uleb128 0x8
 2136 0009 11       		.uleb128 0x11
 2137 000a 01       		.uleb128 0x1
 2138 000b 12       		.uleb128 0x12
 2139 000c 06       		.uleb128 0x6
 2140 000d 10       		.uleb128 0x10
 2141 000e 17       		.uleb128 0x17
 2142 000f 9942     		.uleb128 0x2119
 2143 0011 17       		.uleb128 0x17
 2144 0012 00       		.byte	0
 2145 0013 00       		.byte	0
 2146 0014 02       		.uleb128 0x2
 2147 0015 16       		.uleb128 0x16
 2148 0016 00       		.byte	0
 2149 0017 03       		.uleb128 0x3
 2150 0018 08       		.uleb128 0x8
 2151 0019 3A       		.uleb128 0x3a
 2152 001a 0B       		.uleb128 0xb
 2153 001b 3B       		.uleb128 0x3b
 2154 001c 0B       		.uleb128 0xb
 2155 001d 49       		.uleb128 0x49
 2156 001e 13       		.uleb128 0x13
 2157 001f 00       		.byte	0
 2158 0020 00       		.byte	0
 2159 0021 03       		.uleb128 0x3
 2160 0022 24       		.uleb128 0x24
 2161 0023 00       		.byte	0
 2162 0024 0B       		.uleb128 0xb
 2163 0025 0B       		.uleb128 0xb
 2164 0026 3E       		.uleb128 0x3e
 2165 0027 0B       		.uleb128 0xb
 2166 0028 03       		.uleb128 0x3
GAS LISTING C:\Users\PRESID~1\AppData\Local\Temp\ccylhMgF.s 			page 61


 2167 0029 08       		.uleb128 0x8
 2168 002a 00       		.byte	0
 2169 002b 00       		.byte	0
 2170 002c 04       		.uleb128 0x4
 2171 002d 04       		.uleb128 0x4
 2172 002e 01       		.byte	0x1
 2173 002f 03       		.uleb128 0x3
 2174 0030 08       		.uleb128 0x8
 2175 0031 0B       		.uleb128 0xb
 2176 0032 0B       		.uleb128 0xb
 2177 0033 3A       		.uleb128 0x3a
 2178 0034 0B       		.uleb128 0xb
 2179 0035 3B       		.uleb128 0x3b
 2180 0036 0B       		.uleb128 0xb
 2181 0037 01       		.uleb128 0x1
 2182 0038 13       		.uleb128 0x13
 2183 0039 00       		.byte	0
 2184 003a 00       		.byte	0
 2185 003b 05       		.uleb128 0x5
 2186 003c 28       		.uleb128 0x28
 2187 003d 00       		.byte	0
 2188 003e 03       		.uleb128 0x3
 2189 003f 08       		.uleb128 0x8
 2190 0040 1C       		.uleb128 0x1c
 2191 0041 0D       		.uleb128 0xd
 2192 0042 00       		.byte	0
 2193 0043 00       		.byte	0
 2194 0044 06       		.uleb128 0x6
 2195 0045 0F       		.uleb128 0xf
 2196 0046 00       		.byte	0
 2197 0047 0B       		.uleb128 0xb
 2198 0048 0B       		.uleb128 0xb
 2199 0049 49       		.uleb128 0x49
 2200 004a 13       		.uleb128 0x13
 2201 004b 00       		.byte	0
 2202 004c 00       		.byte	0
 2203 004d 07       		.uleb128 0x7
 2204 004e 15       		.uleb128 0x15
 2205 004f 01       		.byte	0x1
 2206 0050 27       		.uleb128 0x27
 2207 0051 19       		.uleb128 0x19
 2208 0052 01       		.uleb128 0x1
 2209 0053 13       		.uleb128 0x13
 2210 0054 00       		.byte	0
 2211 0055 00       		.byte	0
 2212 0056 08       		.uleb128 0x8
 2213 0057 05       		.uleb128 0x5
 2214 0058 00       		.byte	0
 2215 0059 49       		.uleb128 0x49
 2216 005a 13       		.uleb128 0x13
 2217 005b 00       		.byte	0
 2218 005c 00       		.byte	0
 2219 005d 09       		.uleb128 0x9
 2220 005e 0F       		.uleb128 0xf
 2221 005f 00       		.byte	0
 2222 0060 0B       		.uleb128 0xb
 2223 0061 0B       		.uleb128 0xb
GAS LISTING C:\Users\PRESID~1\AppData\Local\Temp\ccylhMgF.s 			page 62


 2224 0062 00       		.byte	0
 2225 0063 00       		.byte	0
 2226 0064 0A       		.uleb128 0xa
 2227 0065 15       		.uleb128 0x15
 2228 0066 01       		.byte	0x1
 2229 0067 27       		.uleb128 0x27
 2230 0068 19       		.uleb128 0x19
 2231 0069 49       		.uleb128 0x49
 2232 006a 13       		.uleb128 0x13
 2233 006b 01       		.uleb128 0x1
 2234 006c 13       		.uleb128 0x13
 2235 006d 00       		.byte	0
 2236 006e 00       		.byte	0
 2237 006f 0B       		.uleb128 0xb
 2238 0070 13       		.uleb128 0x13
 2239 0071 01       		.byte	0x1
 2240 0072 03       		.uleb128 0x3
 2241 0073 08       		.uleb128 0x8
 2242 0074 0B       		.uleb128 0xb
 2243 0075 0B       		.uleb128 0xb
 2244 0076 3A       		.uleb128 0x3a
 2245 0077 0B       		.uleb128 0xb
 2246 0078 3B       		.uleb128 0x3b
 2247 0079 0B       		.uleb128 0xb
 2248 007a 01       		.uleb128 0x1
 2249 007b 13       		.uleb128 0x13
 2250 007c 00       		.byte	0
 2251 007d 00       		.byte	0
 2252 007e 0C       		.uleb128 0xc
 2253 007f 0D       		.uleb128 0xd
 2254 0080 00       		.byte	0
 2255 0081 03       		.uleb128 0x3
 2256 0082 0E       		.uleb128 0xe
 2257 0083 3A       		.uleb128 0x3a
 2258 0084 0B       		.uleb128 0xb
 2259 0085 3B       		.uleb128 0x3b
 2260 0086 0B       		.uleb128 0xb
 2261 0087 49       		.uleb128 0x49
 2262 0088 13       		.uleb128 0x13
 2263 0089 38       		.uleb128 0x38
 2264 008a 0B       		.uleb128 0xb
 2265 008b 00       		.byte	0
 2266 008c 00       		.byte	0
 2267 008d 0D       		.uleb128 0xd
 2268 008e 0D       		.uleb128 0xd
 2269 008f 00       		.byte	0
 2270 0090 03       		.uleb128 0x3
 2271 0091 08       		.uleb128 0x8
 2272 0092 3A       		.uleb128 0x3a
 2273 0093 0B       		.uleb128 0xb
 2274 0094 3B       		.uleb128 0x3b
 2275 0095 0B       		.uleb128 0xb
 2276 0096 49       		.uleb128 0x49
 2277 0097 13       		.uleb128 0x13
 2278 0098 38       		.uleb128 0x38
 2279 0099 0B       		.uleb128 0xb
 2280 009a 00       		.byte	0
GAS LISTING C:\Users\PRESID~1\AppData\Local\Temp\ccylhMgF.s 			page 63


 2281 009b 00       		.byte	0
 2282 009c 0E       		.uleb128 0xe
 2283 009d 0D       		.uleb128 0xd
 2284 009e 00       		.byte	0
 2285 009f 03       		.uleb128 0x3
 2286 00a0 08       		.uleb128 0x8
 2287 00a1 3A       		.uleb128 0x3a
 2288 00a2 0B       		.uleb128 0xb
 2289 00a3 3B       		.uleb128 0x3b
 2290 00a4 0B       		.uleb128 0xb
 2291 00a5 49       		.uleb128 0x49
 2292 00a6 13       		.uleb128 0x13
 2293 00a7 0B       		.uleb128 0xb
 2294 00a8 0B       		.uleb128 0xb
 2295 00a9 0D       		.uleb128 0xd
 2296 00aa 0B       		.uleb128 0xb
 2297 00ab 0C       		.uleb128 0xc
 2298 00ac 0B       		.uleb128 0xb
 2299 00ad 38       		.uleb128 0x38
 2300 00ae 0B       		.uleb128 0xb
 2301 00af 00       		.byte	0
 2302 00b0 00       		.byte	0
 2303 00b1 0F       		.uleb128 0xf
 2304 00b2 2E       		.uleb128 0x2e
 2305 00b3 00       		.byte	0
 2306 00b4 3F       		.uleb128 0x3f
 2307 00b5 19       		.uleb128 0x19
 2308 00b6 03       		.uleb128 0x3
 2309 00b7 08       		.uleb128 0x8
 2310 00b8 3A       		.uleb128 0x3a
 2311 00b9 0B       		.uleb128 0xb
 2312 00ba 3B       		.uleb128 0x3b
 2313 00bb 0B       		.uleb128 0xb
 2314 00bc 27       		.uleb128 0x27
 2315 00bd 19       		.uleb128 0x19
 2316 00be 11       		.uleb128 0x11
 2317 00bf 01       		.uleb128 0x1
 2318 00c0 12       		.uleb128 0x12
 2319 00c1 06       		.uleb128 0x6
 2320 00c2 40       		.uleb128 0x40
 2321 00c3 18       		.uleb128 0x18
 2322 00c4 9742     		.uleb128 0x2117
 2323 00c6 19       		.uleb128 0x19
 2324 00c7 00       		.byte	0
 2325 00c8 00       		.byte	0
 2326 00c9 10       		.uleb128 0x10
 2327 00ca 2E       		.uleb128 0x2e
 2328 00cb 01       		.byte	0x1
 2329 00cc 3F       		.uleb128 0x3f
 2330 00cd 19       		.uleb128 0x19
 2331 00ce 03       		.uleb128 0x3
 2332 00cf 08       		.uleb128 0x8
 2333 00d0 3A       		.uleb128 0x3a
 2334 00d1 0B       		.uleb128 0xb
 2335 00d2 3B       		.uleb128 0x3b
 2336 00d3 0B       		.uleb128 0xb
 2337 00d4 27       		.uleb128 0x27
GAS LISTING C:\Users\PRESID~1\AppData\Local\Temp\ccylhMgF.s 			page 64


 2338 00d5 19       		.uleb128 0x19
 2339 00d6 11       		.uleb128 0x11
 2340 00d7 01       		.uleb128 0x1
 2341 00d8 12       		.uleb128 0x12
 2342 00d9 06       		.uleb128 0x6
 2343 00da 40       		.uleb128 0x40
 2344 00db 18       		.uleb128 0x18
 2345 00dc 9642     		.uleb128 0x2116
 2346 00de 19       		.uleb128 0x19
 2347 00df 01       		.uleb128 0x1
 2348 00e0 13       		.uleb128 0x13
 2349 00e1 00       		.byte	0
 2350 00e2 00       		.byte	0
 2351 00e3 11       		.uleb128 0x11
 2352 00e4 05       		.uleb128 0x5
 2353 00e5 00       		.byte	0
 2354 00e6 03       		.uleb128 0x3
 2355 00e7 0E       		.uleb128 0xe
 2356 00e8 3A       		.uleb128 0x3a
 2357 00e9 0B       		.uleb128 0xb
 2358 00ea 3B       		.uleb128 0x3b
 2359 00eb 0B       		.uleb128 0xb
 2360 00ec 49       		.uleb128 0x49
 2361 00ed 13       		.uleb128 0x13
 2362 00ee 02       		.uleb128 0x2
 2363 00ef 18       		.uleb128 0x18
 2364 00f0 00       		.byte	0
 2365 00f1 00       		.byte	0
 2366 00f2 12       		.uleb128 0x12
 2367 00f3 05       		.uleb128 0x5
 2368 00f4 00       		.byte	0
 2369 00f5 03       		.uleb128 0x3
 2370 00f6 08       		.uleb128 0x8
 2371 00f7 3A       		.uleb128 0x3a
 2372 00f8 0B       		.uleb128 0xb
 2373 00f9 3B       		.uleb128 0x3b
 2374 00fa 0B       		.uleb128 0xb
 2375 00fb 49       		.uleb128 0x49
 2376 00fc 13       		.uleb128 0x13
 2377 00fd 02       		.uleb128 0x2
 2378 00fe 18       		.uleb128 0x18
 2379 00ff 00       		.byte	0
 2380 0100 00       		.byte	0
 2381 0101 13       		.uleb128 0x13
 2382 0102 2E       		.uleb128 0x2e
 2383 0103 01       		.byte	0x1
 2384 0104 3F       		.uleb128 0x3f
 2385 0105 19       		.uleb128 0x19
 2386 0106 03       		.uleb128 0x3
 2387 0107 08       		.uleb128 0x8
 2388 0108 3A       		.uleb128 0x3a
 2389 0109 0B       		.uleb128 0xb
 2390 010a 3B       		.uleb128 0x3b
 2391 010b 0B       		.uleb128 0xb
 2392 010c 27       		.uleb128 0x27
 2393 010d 19       		.uleb128 0x19
 2394 010e 49       		.uleb128 0x49
GAS LISTING C:\Users\PRESID~1\AppData\Local\Temp\ccylhMgF.s 			page 65


 2395 010f 13       		.uleb128 0x13
 2396 0110 11       		.uleb128 0x11
 2397 0111 01       		.uleb128 0x1
 2398 0112 12       		.uleb128 0x12
 2399 0113 06       		.uleb128 0x6
 2400 0114 40       		.uleb128 0x40
 2401 0115 18       		.uleb128 0x18
 2402 0116 9642     		.uleb128 0x2116
 2403 0118 19       		.uleb128 0x19
 2404 0119 01       		.uleb128 0x1
 2405 011a 13       		.uleb128 0x13
 2406 011b 00       		.byte	0
 2407 011c 00       		.byte	0
 2408 011d 14       		.uleb128 0x14
 2409 011e 34       		.uleb128 0x34
 2410 011f 00       		.byte	0
 2411 0120 03       		.uleb128 0x3
 2412 0121 08       		.uleb128 0x8
 2413 0122 3A       		.uleb128 0x3a
 2414 0123 0B       		.uleb128 0xb
 2415 0124 3B       		.uleb128 0x3b
 2416 0125 0B       		.uleb128 0xb
 2417 0126 49       		.uleb128 0x49
 2418 0127 13       		.uleb128 0x13
 2419 0128 02       		.uleb128 0x2
 2420 0129 18       		.uleb128 0x18
 2421 012a 00       		.byte	0
 2422 012b 00       		.byte	0
 2423 012c 15       		.uleb128 0x15
 2424 012d 34       		.uleb128 0x34
 2425 012e 00       		.byte	0
 2426 012f 03       		.uleb128 0x3
 2427 0130 0E       		.uleb128 0xe
 2428 0131 3A       		.uleb128 0x3a
 2429 0132 0B       		.uleb128 0xb
 2430 0133 3B       		.uleb128 0x3b
 2431 0134 0B       		.uleb128 0xb
 2432 0135 49       		.uleb128 0x49
 2433 0136 13       		.uleb128 0x13
 2434 0137 02       		.uleb128 0x2
 2435 0138 18       		.uleb128 0x18
 2436 0139 00       		.byte	0
 2437 013a 00       		.byte	0
 2438 013b 16       		.uleb128 0x16
 2439 013c 2E       		.uleb128 0x2e
 2440 013d 01       		.byte	0x1
 2441 013e 03       		.uleb128 0x3
 2442 013f 08       		.uleb128 0x8
 2443 0140 3A       		.uleb128 0x3a
 2444 0141 0B       		.uleb128 0xb
 2445 0142 3B       		.uleb128 0x3b
 2446 0143 0B       		.uleb128 0xb
 2447 0144 27       		.uleb128 0x27
 2448 0145 19       		.uleb128 0x19
 2449 0146 11       		.uleb128 0x11
 2450 0147 01       		.uleb128 0x1
 2451 0148 12       		.uleb128 0x12
GAS LISTING C:\Users\PRESID~1\AppData\Local\Temp\ccylhMgF.s 			page 66


 2452 0149 06       		.uleb128 0x6
 2453 014a 40       		.uleb128 0x40
 2454 014b 18       		.uleb128 0x18
 2455 014c 9642     		.uleb128 0x2116
 2456 014e 19       		.uleb128 0x19
 2457 014f 01       		.uleb128 0x1
 2458 0150 13       		.uleb128 0x13
 2459 0151 00       		.byte	0
 2460 0152 00       		.byte	0
 2461 0153 17       		.uleb128 0x17
 2462 0154 2E       		.uleb128 0x2e
 2463 0155 01       		.byte	0x1
 2464 0156 3F       		.uleb128 0x3f
 2465 0157 19       		.uleb128 0x19
 2466 0158 03       		.uleb128 0x3
 2467 0159 08       		.uleb128 0x8
 2468 015a 3A       		.uleb128 0x3a
 2469 015b 0B       		.uleb128 0xb
 2470 015c 3B       		.uleb128 0x3b
 2471 015d 05       		.uleb128 0x5
 2472 015e 27       		.uleb128 0x27
 2473 015f 19       		.uleb128 0x19
 2474 0160 11       		.uleb128 0x11
 2475 0161 01       		.uleb128 0x1
 2476 0162 12       		.uleb128 0x12
 2477 0163 06       		.uleb128 0x6
 2478 0164 40       		.uleb128 0x40
 2479 0165 18       		.uleb128 0x18
 2480 0166 9642     		.uleb128 0x2116
 2481 0168 19       		.uleb128 0x19
 2482 0169 01       		.uleb128 0x1
 2483 016a 13       		.uleb128 0x13
 2484 016b 00       		.byte	0
 2485 016c 00       		.byte	0
 2486 016d 18       		.uleb128 0x18
 2487 016e 05       		.uleb128 0x5
 2488 016f 00       		.byte	0
 2489 0170 03       		.uleb128 0x3
 2490 0171 0E       		.uleb128 0xe
 2491 0172 3A       		.uleb128 0x3a
 2492 0173 0B       		.uleb128 0xb
 2493 0174 3B       		.uleb128 0x3b
 2494 0175 05       		.uleb128 0x5
 2495 0176 49       		.uleb128 0x49
 2496 0177 13       		.uleb128 0x13
 2497 0178 02       		.uleb128 0x2
 2498 0179 18       		.uleb128 0x18
 2499 017a 00       		.byte	0
 2500 017b 00       		.byte	0
 2501 017c 19       		.uleb128 0x19
 2502 017d 34       		.uleb128 0x34
 2503 017e 00       		.byte	0
 2504 017f 03       		.uleb128 0x3
 2505 0180 0E       		.uleb128 0xe
 2506 0181 3A       		.uleb128 0x3a
 2507 0182 0B       		.uleb128 0xb
 2508 0183 3B       		.uleb128 0x3b
GAS LISTING C:\Users\PRESID~1\AppData\Local\Temp\ccylhMgF.s 			page 67


 2509 0184 05       		.uleb128 0x5
 2510 0185 49       		.uleb128 0x49
 2511 0186 13       		.uleb128 0x13
 2512 0187 02       		.uleb128 0x2
 2513 0188 18       		.uleb128 0x18
 2514 0189 00       		.byte	0
 2515 018a 00       		.byte	0
 2516 018b 1A       		.uleb128 0x1a
 2517 018c 2E       		.uleb128 0x2e
 2518 018d 01       		.byte	0x1
 2519 018e 03       		.uleb128 0x3
 2520 018f 08       		.uleb128 0x8
 2521 0190 3A       		.uleb128 0x3a
 2522 0191 0B       		.uleb128 0xb
 2523 0192 3B       		.uleb128 0x3b
 2524 0193 05       		.uleb128 0x5
 2525 0194 27       		.uleb128 0x27
 2526 0195 19       		.uleb128 0x19
 2527 0196 11       		.uleb128 0x11
 2528 0197 01       		.uleb128 0x1
 2529 0198 12       		.uleb128 0x12
 2530 0199 06       		.uleb128 0x6
 2531 019a 40       		.uleb128 0x40
 2532 019b 18       		.uleb128 0x18
 2533 019c 9742     		.uleb128 0x2117
 2534 019e 19       		.uleb128 0x19
 2535 019f 01       		.uleb128 0x1
 2536 01a0 13       		.uleb128 0x13
 2537 01a1 00       		.byte	0
 2538 01a2 00       		.byte	0
 2539 01a3 1B       		.uleb128 0x1b
 2540 01a4 2E       		.uleb128 0x2e
 2541 01a5 01       		.byte	0x1
 2542 01a6 03       		.uleb128 0x3
 2543 01a7 08       		.uleb128 0x8
 2544 01a8 3A       		.uleb128 0x3a
 2545 01a9 0B       		.uleb128 0xb
 2546 01aa 3B       		.uleb128 0x3b
 2547 01ab 05       		.uleb128 0x5
 2548 01ac 27       		.uleb128 0x27
 2549 01ad 19       		.uleb128 0x19
 2550 01ae 11       		.uleb128 0x11
 2551 01af 01       		.uleb128 0x1
 2552 01b0 12       		.uleb128 0x12
 2553 01b1 06       		.uleb128 0x6
 2554 01b2 40       		.uleb128 0x40
 2555 01b3 18       		.uleb128 0x18
 2556 01b4 9642     		.uleb128 0x2116
 2557 01b6 19       		.uleb128 0x19
 2558 01b7 01       		.uleb128 0x1
 2559 01b8 13       		.uleb128 0x13
 2560 01b9 00       		.byte	0
 2561 01ba 00       		.byte	0
 2562 01bb 1C       		.uleb128 0x1c
 2563 01bc 2E       		.uleb128 0x2e
 2564 01bd 01       		.byte	0x1
 2565 01be 03       		.uleb128 0x3
GAS LISTING C:\Users\PRESID~1\AppData\Local\Temp\ccylhMgF.s 			page 68


 2566 01bf 08       		.uleb128 0x8
 2567 01c0 3A       		.uleb128 0x3a
 2568 01c1 0B       		.uleb128 0xb
 2569 01c2 3B       		.uleb128 0x3b
 2570 01c3 05       		.uleb128 0x5
 2571 01c4 27       		.uleb128 0x27
 2572 01c5 19       		.uleb128 0x19
 2573 01c6 49       		.uleb128 0x49
 2574 01c7 13       		.uleb128 0x13
 2575 01c8 11       		.uleb128 0x11
 2576 01c9 01       		.uleb128 0x1
 2577 01ca 12       		.uleb128 0x12
 2578 01cb 06       		.uleb128 0x6
 2579 01cc 40       		.uleb128 0x40
 2580 01cd 18       		.uleb128 0x18
 2581 01ce 9642     		.uleb128 0x2116
 2582 01d0 19       		.uleb128 0x19
 2583 01d1 01       		.uleb128 0x1
 2584 01d2 13       		.uleb128 0x13
 2585 01d3 00       		.byte	0
 2586 01d4 00       		.byte	0
 2587 01d5 1D       		.uleb128 0x1d
 2588 01d6 34       		.uleb128 0x34
 2589 01d7 00       		.byte	0
 2590 01d8 03       		.uleb128 0x3
 2591 01d9 08       		.uleb128 0x8
 2592 01da 3A       		.uleb128 0x3a
 2593 01db 0B       		.uleb128 0xb
 2594 01dc 3B       		.uleb128 0x3b
 2595 01dd 05       		.uleb128 0x5
 2596 01de 49       		.uleb128 0x49
 2597 01df 13       		.uleb128 0x13
 2598 01e0 02       		.uleb128 0x2
 2599 01e1 18       		.uleb128 0x18
 2600 01e2 00       		.byte	0
 2601 01e3 00       		.byte	0
 2602 01e4 1E       		.uleb128 0x1e
 2603 01e5 01       		.uleb128 0x1
 2604 01e6 01       		.byte	0x1
 2605 01e7 49       		.uleb128 0x49
 2606 01e8 13       		.uleb128 0x13
 2607 01e9 01       		.uleb128 0x1
 2608 01ea 13       		.uleb128 0x13
 2609 01eb 00       		.byte	0
 2610 01ec 00       		.byte	0
 2611 01ed 1F       		.uleb128 0x1f
 2612 01ee 21       		.uleb128 0x21
 2613 01ef 00       		.byte	0
 2614 01f0 49       		.uleb128 0x49
 2615 01f1 13       		.uleb128 0x13
 2616 01f2 2F       		.uleb128 0x2f
 2617 01f3 0B       		.uleb128 0xb
 2618 01f4 00       		.byte	0
 2619 01f5 00       		.byte	0
 2620 01f6 20       		.uleb128 0x20
 2621 01f7 21       		.uleb128 0x21
 2622 01f8 00       		.byte	0
GAS LISTING C:\Users\PRESID~1\AppData\Local\Temp\ccylhMgF.s 			page 69


 2623 01f9 49       		.uleb128 0x49
 2624 01fa 13       		.uleb128 0x13
 2625 01fb 2F       		.uleb128 0x2f
 2626 01fc 05       		.uleb128 0x5
 2627 01fd 00       		.byte	0
 2628 01fe 00       		.byte	0
 2629 01ff 21       		.uleb128 0x21
 2630 0200 34       		.uleb128 0x34
 2631 0201 00       		.byte	0
 2632 0202 03       		.uleb128 0x3
 2633 0203 08       		.uleb128 0x8
 2634 0204 3A       		.uleb128 0x3a
 2635 0205 0B       		.uleb128 0xb
 2636 0206 3B       		.uleb128 0x3b
 2637 0207 0B       		.uleb128 0xb
 2638 0208 49       		.uleb128 0x49
 2639 0209 13       		.uleb128 0x13
 2640 020a 3F       		.uleb128 0x3f
 2641 020b 19       		.uleb128 0x19
 2642 020c 3C       		.uleb128 0x3c
 2643 020d 19       		.uleb128 0x19
 2644 020e 00       		.byte	0
 2645 020f 00       		.byte	0
 2646 0210 22       		.uleb128 0x22
 2647 0211 35       		.uleb128 0x35
 2648 0212 00       		.byte	0
 2649 0213 49       		.uleb128 0x49
 2650 0214 13       		.uleb128 0x13
 2651 0215 00       		.byte	0
 2652 0216 00       		.byte	0
 2653 0217 00       		.byte	0
 2654              		.section	.debug_aranges,"dr"
 2655 0000 1C000000 		.long	0x1c
 2656 0004 0200     		.word	0x2
 2657 0006 00000000 		.secrel32	Ldebug_info0
 2658 000a 04       		.byte	0x4
 2659 000b 00       		.byte	0
 2660 000c 0000     		.word	0
 2661 000e 0000     		.word	0
 2662 0010 00000000 		.long	Ltext0
 2663 0014 96090000 		.long	Letext0-Ltext0
 2664 0018 00000000 		.long	0
 2665 001c 00000000 		.long	0
 2666              		.section	.debug_macro,"dr"
 2667              	Ldebug_macro0:
 2668 0000 0400     		.word	0x4
 2669 0002 02       		.byte	0x2
 2670 0003 00000000 		.secrel32	Ldebug_line0
 2671 0007 01       		.byte	0x1
 2672 0008 00       		.uleb128 0
 2673 0009 5F5F5354 		.ascii "__STDC__ 1\0"
 2673      44435F5F 
 2673      203100
 2674 0014 01       		.byte	0x1
 2675 0015 00       		.uleb128 0
 2676 0016 5F5F5354 		.ascii "__STDC_HOSTED__ 1\0"
 2676      44435F48 
GAS LISTING C:\Users\PRESID~1\AppData\Local\Temp\ccylhMgF.s 			page 70


 2676      4F535445 
 2676      445F5F20 
 2676      3100
 2677 0028 01       		.byte	0x1
 2678 0029 00       		.uleb128 0
 2679 002a 5F5F474E 		.ascii "__GNUC__ 4\0"
 2679      55435F5F 
 2679      203400
 2680 0035 01       		.byte	0x1
 2681 0036 00       		.uleb128 0
 2682 0037 5F5F474E 		.ascii "__GNUC_MINOR__ 9\0"
 2682      55435F4D 
 2682      494E4F52 
 2682      5F5F2039 
 2682      00
 2683 0048 01       		.byte	0x1
 2684 0049 00       		.uleb128 0
 2685 004a 5F5F474E 		.ascii "__GNUC_PATCHLEVEL__ 3\0"
 2685      55435F50 
 2685      41544348 
 2685      4C455645 
 2685      4C5F5F20 
 2686 0060 01       		.byte	0x1
 2687 0061 00       		.uleb128 0
 2688 0062 5F5F5645 		.ascii "__VERSION__ \"4.9.3\"\0"
 2688      5253494F 
 2688      4E5F5F20 
 2688      22342E39 
 2688      2E332200 
 2689 0076 01       		.byte	0x1
 2690 0077 00       		.uleb128 0
 2691 0078 5F5F4154 		.ascii "__ATOMIC_RELAXED 0\0"
 2691      4F4D4943 
 2691      5F52454C 
 2691      41584544 
 2691      203000
 2692 008b 01       		.byte	0x1
 2693 008c 00       		.uleb128 0
 2694 008d 5F5F4154 		.ascii "__ATOMIC_SEQ_CST 5\0"
 2694      4F4D4943 
 2694      5F534551 
 2694      5F435354 
 2694      203500
 2695 00a0 01       		.byte	0x1
 2696 00a1 00       		.uleb128 0
 2697 00a2 5F5F4154 		.ascii "__ATOMIC_ACQUIRE 2\0"
 2697      4F4D4943 
 2697      5F414351 
 2697      55495245 
 2697      203200
 2698 00b5 01       		.byte	0x1
 2699 00b6 00       		.uleb128 0
 2700 00b7 5F5F4154 		.ascii "__ATOMIC_RELEASE 3\0"
 2700      4F4D4943 
 2700      5F52454C 
 2700      45415345 
 2700      203300
GAS LISTING C:\Users\PRESID~1\AppData\Local\Temp\ccylhMgF.s 			page 71


 2701 00ca 01       		.byte	0x1
 2702 00cb 00       		.uleb128 0
 2703 00cc 5F5F4154 		.ascii "__ATOMIC_ACQ_REL 4\0"
 2703      4F4D4943 
 2703      5F414351 
 2703      5F52454C 
 2703      203400
 2704 00df 01       		.byte	0x1
 2705 00e0 00       		.uleb128 0
 2706 00e1 5F5F4154 		.ascii "__ATOMIC_CONSUME 1\0"
 2706      4F4D4943 
 2706      5F434F4E 
 2706      53554D45 
 2706      203100
 2707 00f4 01       		.byte	0x1
 2708 00f5 00       		.uleb128 0
 2709 00f6 5F5F4649 		.ascii "__FINITE_MATH_ONLY__ 0\0"
 2709      4E495445 
 2709      5F4D4154 
 2709      485F4F4E 
 2709      4C595F5F 
 2710 010d 01       		.byte	0x1
 2711 010e 00       		.uleb128 0
 2712 010f 5F5F5349 		.ascii "__SIZEOF_INT__ 4\0"
 2712      5A454F46 
 2712      5F494E54 
 2712      5F5F2034 
 2712      00
 2713 0120 01       		.byte	0x1
 2714 0121 00       		.uleb128 0
 2715 0122 5F5F5349 		.ascii "__SIZEOF_LONG__ 4\0"
 2715      5A454F46 
 2715      5F4C4F4E 
 2715      475F5F20 
 2715      3400
 2716 0134 01       		.byte	0x1
 2717 0135 00       		.uleb128 0
 2718 0136 5F5F5349 		.ascii "__SIZEOF_LONG_LONG__ 8\0"
 2718      5A454F46 
 2718      5F4C4F4E 
 2718      475F4C4F 
 2718      4E475F5F 
 2719 014d 01       		.byte	0x1
 2720 014e 00       		.uleb128 0
 2721 014f 5F5F5349 		.ascii "__SIZEOF_SHORT__ 2\0"
 2721      5A454F46 
 2721      5F53484F 
 2721      52545F5F 
 2721      203200
 2722 0162 01       		.byte	0x1
 2723 0163 00       		.uleb128 0
 2724 0164 5F5F5349 		.ascii "__SIZEOF_FLOAT__ 4\0"
 2724      5A454F46 
 2724      5F464C4F 
 2724      41545F5F 
 2724      203400
 2725 0177 01       		.byte	0x1
GAS LISTING C:\Users\PRESID~1\AppData\Local\Temp\ccylhMgF.s 			page 72


 2726 0178 00       		.uleb128 0
 2727 0179 5F5F5349 		.ascii "__SIZEOF_DOUBLE__ 8\0"
 2727      5A454F46 
 2727      5F444F55 
 2727      424C455F 
 2727      5F203800 
 2728 018d 01       		.byte	0x1
 2729 018e 00       		.uleb128 0
 2730 018f 5F5F5349 		.ascii "__SIZEOF_LONG_DOUBLE__ 12\0"
 2730      5A454F46 
 2730      5F4C4F4E 
 2730      475F444F 
 2730      55424C45 
 2731 01a9 01       		.byte	0x1
 2732 01aa 00       		.uleb128 0
 2733 01ab 5F5F5349 		.ascii "__SIZEOF_SIZE_T__ 4\0"
 2733      5A454F46 
 2733      5F53495A 
 2733      455F545F 
 2733      5F203400 
 2734 01bf 01       		.byte	0x1
 2735 01c0 00       		.uleb128 0
 2736 01c1 5F5F4348 		.ascii "__CHAR_BIT__ 8\0"
 2736      41525F42 
 2736      49545F5F 
 2736      203800
 2737 01d0 01       		.byte	0x1
 2738 01d1 00       		.uleb128 0
 2739 01d2 5F5F4249 		.ascii "__BIGGEST_ALIGNMENT__ 16\0"
 2739      47474553 
 2739      545F414C 
 2739      49474E4D 
 2739      454E545F 
 2740 01eb 01       		.byte	0x1
 2741 01ec 00       		.uleb128 0
 2742 01ed 5F5F4F52 		.ascii "__ORDER_LITTLE_ENDIAN__ 1234\0"
 2742      4445525F 
 2742      4C495454 
 2742      4C455F45 
 2742      4E444941 
 2743 020a 01       		.byte	0x1
 2744 020b 00       		.uleb128 0
 2745 020c 5F5F4F52 		.ascii "__ORDER_BIG_ENDIAN__ 4321\0"
 2745      4445525F 
 2745      4249475F 
 2745      454E4449 
 2745      414E5F5F 
 2746 0226 01       		.byte	0x1
 2747 0227 00       		.uleb128 0
 2748 0228 5F5F4F52 		.ascii "__ORDER_PDP_ENDIAN__ 3412\0"
 2748      4445525F 
 2748      5044505F 
 2748      454E4449 
 2748      414E5F5F 
 2749 0242 01       		.byte	0x1
 2750 0243 00       		.uleb128 0
 2751 0244 5F5F4259 		.ascii "__BYTE_ORDER__ __ORDER_LITTLE_ENDIAN__\0"
GAS LISTING C:\Users\PRESID~1\AppData\Local\Temp\ccylhMgF.s 			page 73


 2751      54455F4F 
 2751      52444552 
 2751      5F5F205F 
 2751      5F4F5244 
 2752 026b 01       		.byte	0x1
 2753 026c 00       		.uleb128 0
 2754 026d 5F5F464C 		.ascii "__FLOAT_WORD_ORDER__ __ORDER_LITTLE_ENDIAN__\0"
 2754      4F41545F 
 2754      574F5244 
 2754      5F4F5244 
 2754      45525F5F 
 2755 029a 01       		.byte	0x1
 2756 029b 00       		.uleb128 0
 2757 029c 5F5F5349 		.ascii "__SIZEOF_POINTER__ 4\0"
 2757      5A454F46 
 2757      5F504F49 
 2757      4E544552 
 2757      5F5F2034 
 2758 02b1 01       		.byte	0x1
 2759 02b2 00       		.uleb128 0
 2760 02b3 5F5F5349 		.ascii "__SIZE_TYPE__ unsigned int\0"
 2760      5A455F54 
 2760      5950455F 
 2760      5F20756E 
 2760      7369676E 
 2761 02ce 01       		.byte	0x1
 2762 02cf 00       		.uleb128 0
 2763 02d0 5F5F5054 		.ascii "__PTRDIFF_TYPE__ int\0"
 2763      52444946 
 2763      465F5459 
 2763      50455F5F 
 2763      20696E74 
 2764 02e5 01       		.byte	0x1
 2765 02e6 00       		.uleb128 0
 2766 02e7 5F5F5743 		.ascii "__WCHAR_TYPE__ short unsigned int\0"
 2766      4841525F 
 2766      54595045 
 2766      5F5F2073 
 2766      686F7274 
 2767 0309 01       		.byte	0x1
 2768 030a 00       		.uleb128 0
 2769 030b 5F5F5749 		.ascii "__WINT_TYPE__ short unsigned int\0"
 2769      4E545F54 
 2769      5950455F 
 2769      5F207368 
 2769      6F727420 
 2770 032c 01       		.byte	0x1
 2771 032d 00       		.uleb128 0
 2772 032e 5F5F494E 		.ascii "__INTMAX_TYPE__ long long int\0"
 2772      544D4158 
 2772      5F545950 
 2772      455F5F20 
 2772      6C6F6E67 
 2773 034c 01       		.byte	0x1
 2774 034d 00       		.uleb128 0
 2775 034e 5F5F5549 		.ascii "__UINTMAX_TYPE__ long long unsigned int\0"
 2775      4E544D41 
GAS LISTING C:\Users\PRESID~1\AppData\Local\Temp\ccylhMgF.s 			page 74


 2775      585F5459 
 2775      50455F5F 
 2775      206C6F6E 
 2776 0376 01       		.byte	0x1
 2777 0377 00       		.uleb128 0
 2778 0378 5F5F4348 		.ascii "__CHAR16_TYPE__ short unsigned int\0"
 2778      41523136 
 2778      5F545950 
 2778      455F5F20 
 2778      73686F72 
 2779 039b 01       		.byte	0x1
 2780 039c 00       		.uleb128 0
 2781 039d 5F5F4348 		.ascii "__CHAR32_TYPE__ unsigned int\0"
 2781      41523332 
 2781      5F545950 
 2781      455F5F20 
 2781      756E7369 
 2782 03ba 01       		.byte	0x1
 2783 03bb 00       		.uleb128 0
 2784 03bc 5F5F5349 		.ascii "__SIG_ATOMIC_TYPE__ int\0"
 2784      475F4154 
 2784      4F4D4943 
 2784      5F545950 
 2784      455F5F20 
 2785 03d4 01       		.byte	0x1
 2786 03d5 00       		.uleb128 0
 2787 03d6 5F5F494E 		.ascii "__INT8_TYPE__ signed char\0"
 2787      54385F54 
 2787      5950455F 
 2787      5F207369 
 2787      676E6564 
 2788 03f0 01       		.byte	0x1
 2789 03f1 00       		.uleb128 0
 2790 03f2 5F5F494E 		.ascii "__INT16_TYPE__ short int\0"
 2790      5431365F 
 2790      54595045 
 2790      5F5F2073 
 2790      686F7274 
 2791 040b 01       		.byte	0x1
 2792 040c 00       		.uleb128 0
 2793 040d 5F5F494E 		.ascii "__INT32_TYPE__ int\0"
 2793      5433325F 
 2793      54595045 
 2793      5F5F2069 
 2793      6E7400
 2794 0420 01       		.byte	0x1
 2795 0421 00       		.uleb128 0
 2796 0422 5F5F494E 		.ascii "__INT64_TYPE__ long long int\0"
 2796      5436345F 
 2796      54595045 
 2796      5F5F206C 
 2796      6F6E6720 
 2797 043f 01       		.byte	0x1
 2798 0440 00       		.uleb128 0
 2799 0441 5F5F5549 		.ascii "__UINT8_TYPE__ unsigned char\0"
 2799      4E54385F 
 2799      54595045 
GAS LISTING C:\Users\PRESID~1\AppData\Local\Temp\ccylhMgF.s 			page 75


 2799      5F5F2075 
 2799      6E736967 
 2800 045e 01       		.byte	0x1
 2801 045f 00       		.uleb128 0
 2802 0460 5F5F5549 		.ascii "__UINT16_TYPE__ short unsigned int\0"
 2802      4E543136 
 2802      5F545950 
 2802      455F5F20 
 2802      73686F72 
 2803 0483 01       		.byte	0x1
 2804 0484 00       		.uleb128 0
 2805 0485 5F5F5549 		.ascii "__UINT32_TYPE__ unsigned int\0"
 2805      4E543332 
 2805      5F545950 
 2805      455F5F20 
 2805      756E7369 
 2806 04a2 01       		.byte	0x1
 2807 04a3 00       		.uleb128 0
 2808 04a4 5F5F5549 		.ascii "__UINT64_TYPE__ long long unsigned int\0"
 2808      4E543634 
 2808      5F545950 
 2808      455F5F20 
 2808      6C6F6E67 
 2809 04cb 01       		.byte	0x1
 2810 04cc 00       		.uleb128 0
 2811 04cd 5F5F494E 		.ascii "__INT_LEAST8_TYPE__ signed char\0"
 2811      545F4C45 
 2811      41535438 
 2811      5F545950 
 2811      455F5F20 
 2812 04ed 01       		.byte	0x1
 2813 04ee 00       		.uleb128 0
 2814 04ef 5F5F494E 		.ascii "__INT_LEAST16_TYPE__ short int\0"
 2814      545F4C45 
 2814      41535431 
 2814      365F5459 
 2814      50455F5F 
 2815 050e 01       		.byte	0x1
 2816 050f 00       		.uleb128 0
 2817 0510 5F5F494E 		.ascii "__INT_LEAST32_TYPE__ int\0"
 2817      545F4C45 
 2817      41535433 
 2817      325F5459 
 2817      50455F5F 
 2818 0529 01       		.byte	0x1
 2819 052a 00       		.uleb128 0
 2820 052b 5F5F494E 		.ascii "__INT_LEAST64_TYPE__ long long int\0"
 2820      545F4C45 
 2820      41535436 
 2820      345F5459 
 2820      50455F5F 
 2821 054e 01       		.byte	0x1
 2822 054f 00       		.uleb128 0
 2823 0550 5F5F5549 		.ascii "__UINT_LEAST8_TYPE__ unsigned char\0"
 2823      4E545F4C 
 2823      45415354 
 2823      385F5459 
GAS LISTING C:\Users\PRESID~1\AppData\Local\Temp\ccylhMgF.s 			page 76


 2823      50455F5F 
 2824 0573 01       		.byte	0x1
 2825 0574 00       		.uleb128 0
 2826 0575 5F5F5549 		.ascii "__UINT_LEAST16_TYPE__ short unsigned int\0"
 2826      4E545F4C 
 2826      45415354 
 2826      31365F54 
 2826      5950455F 
 2827 059e 01       		.byte	0x1
 2828 059f 00       		.uleb128 0
 2829 05a0 5F5F5549 		.ascii "__UINT_LEAST32_TYPE__ unsigned int\0"
 2829      4E545F4C 
 2829      45415354 
 2829      33325F54 
 2829      5950455F 
 2830 05c3 01       		.byte	0x1
 2831 05c4 00       		.uleb128 0
 2832 05c5 5F5F5549 		.ascii "__UINT_LEAST64_TYPE__ long long unsigned int\0"
 2832      4E545F4C 
 2832      45415354 
 2832      36345F54 
 2832      5950455F 
 2833 05f2 01       		.byte	0x1
 2834 05f3 00       		.uleb128 0
 2835 05f4 5F5F494E 		.ascii "__INT_FAST8_TYPE__ signed char\0"
 2835      545F4641 
 2835      5354385F 
 2835      54595045 
 2835      5F5F2073 
 2836 0613 01       		.byte	0x1
 2837 0614 00       		.uleb128 0
 2838 0615 5F5F494E 		.ascii "__INT_FAST16_TYPE__ short int\0"
 2838      545F4641 
 2838      53543136 
 2838      5F545950 
 2838      455F5F20 
 2839 0633 01       		.byte	0x1
 2840 0634 00       		.uleb128 0
 2841 0635 5F5F494E 		.ascii "__INT_FAST32_TYPE__ int\0"
 2841      545F4641 
 2841      53543332 
 2841      5F545950 
 2841      455F5F20 
 2842 064d 01       		.byte	0x1
 2843 064e 00       		.uleb128 0
 2844 064f 5F5F494E 		.ascii "__INT_FAST64_TYPE__ long long int\0"
 2844      545F4641 
 2844      53543634 
 2844      5F545950 
 2844      455F5F20 
 2845 0671 01       		.byte	0x1
 2846 0672 00       		.uleb128 0
 2847 0673 5F5F5549 		.ascii "__UINT_FAST8_TYPE__ unsigned char\0"
 2847      4E545F46 
 2847      41535438 
 2847      5F545950 
 2847      455F5F20 
GAS LISTING C:\Users\PRESID~1\AppData\Local\Temp\ccylhMgF.s 			page 77


 2848 0695 01       		.byte	0x1
 2849 0696 00       		.uleb128 0
 2850 0697 5F5F5549 		.ascii "__UINT_FAST16_TYPE__ short unsigned int\0"
 2850      4E545F46 
 2850      41535431 
 2850      365F5459 
 2850      50455F5F 
 2851 06bf 01       		.byte	0x1
 2852 06c0 00       		.uleb128 0
 2853 06c1 5F5F5549 		.ascii "__UINT_FAST32_TYPE__ unsigned int\0"
 2853      4E545F46 
 2853      41535433 
 2853      325F5459 
 2853      50455F5F 
 2854 06e3 01       		.byte	0x1
 2855 06e4 00       		.uleb128 0
 2856 06e5 5F5F5549 		.ascii "__UINT_FAST64_TYPE__ long long unsigned int\0"
 2856      4E545F46 
 2856      41535436 
 2856      345F5459 
 2856      50455F5F 
 2857 0711 01       		.byte	0x1
 2858 0712 00       		.uleb128 0
 2859 0713 5F5F494E 		.ascii "__INTPTR_TYPE__ int\0"
 2859      54505452 
 2859      5F545950 
 2859      455F5F20 
 2859      696E7400 
 2860 0727 01       		.byte	0x1
 2861 0728 00       		.uleb128 0
 2862 0729 5F5F5549 		.ascii "__UINTPTR_TYPE__ unsigned int\0"
 2862      4E545054 
 2862      525F5459 
 2862      50455F5F 
 2862      20756E73 
 2863 0747 01       		.byte	0x1
 2864 0748 00       		.uleb128 0
 2865 0749 5F5F6861 		.ascii "__has_include(STR) __has_include__(STR)\0"
 2865      735F696E 
 2865      636C7564 
 2865      65285354 
 2865      5229205F 
 2866 0771 01       		.byte	0x1
 2867 0772 00       		.uleb128 0
 2868 0773 5F5F6861 		.ascii "__has_include_next(STR) __has_include_next__(STR)\0"
 2868      735F696E 
 2868      636C7564 
 2868      655F6E65 
 2868      78742853 
 2869 07a5 01       		.byte	0x1
 2870 07a6 00       		.uleb128 0
 2871 07a7 5F5F4758 		.ascii "__GXX_ABI_VERSION 1002\0"
 2871      585F4142 
 2871      495F5645 
 2871      5253494F 
 2871      4E203130 
 2872 07be 01       		.byte	0x1
GAS LISTING C:\Users\PRESID~1\AppData\Local\Temp\ccylhMgF.s 			page 78


 2873 07bf 00       		.uleb128 0
 2874 07c0 5F5F5343 		.ascii "__SCHAR_MAX__ 127\0"
 2874      4841525F 
 2874      4D41585F 
 2874      5F203132 
 2874      3700
 2875 07d2 01       		.byte	0x1
 2876 07d3 00       		.uleb128 0
 2877 07d4 5F5F5348 		.ascii "__SHRT_MAX__ 32767\0"
 2877      52545F4D 
 2877      41585F5F 
 2877      20333237 
 2877      363700
 2878 07e7 01       		.byte	0x1
 2879 07e8 00       		.uleb128 0
 2880 07e9 5F5F494E 		.ascii "__INT_MAX__ 2147483647\0"
 2880      545F4D41 
 2880      585F5F20 
 2880      32313437 
 2880      34383336 
 2881 0800 01       		.byte	0x1
 2882 0801 00       		.uleb128 0
 2883 0802 5F5F4C4F 		.ascii "__LONG_MAX__ 2147483647L\0"
 2883      4E475F4D 
 2883      41585F5F 
 2883      20323134 
 2883      37343833 
 2884 081b 01       		.byte	0x1
 2885 081c 00       		.uleb128 0
 2886 081d 5F5F4C4F 		.ascii "__LONG_LONG_MAX__ 9223372036854775807LL\0"
 2886      4E475F4C 
 2886      4F4E475F 
 2886      4D41585F 
 2886      5F203932 
 2887 0845 01       		.byte	0x1
 2888 0846 00       		.uleb128 0
 2889 0847 5F5F5743 		.ascii "__WCHAR_MAX__ 65535\0"
 2889      4841525F 
 2889      4D41585F 
 2889      5F203635 
 2889      35333500 
 2890 085b 01       		.byte	0x1
 2891 085c 00       		.uleb128 0
 2892 085d 5F5F5743 		.ascii "__WCHAR_MIN__ 0\0"
 2892      4841525F 
 2892      4D494E5F 
 2892      5F203000 
 2893 086d 01       		.byte	0x1
 2894 086e 00       		.uleb128 0
 2895 086f 5F5F5749 		.ascii "__WINT_MAX__ 65535\0"
 2895      4E545F4D 
 2895      41585F5F 
 2895      20363535 
 2895      333500
 2896 0882 01       		.byte	0x1
 2897 0883 00       		.uleb128 0
 2898 0884 5F5F5749 		.ascii "__WINT_MIN__ 0\0"
GAS LISTING C:\Users\PRESID~1\AppData\Local\Temp\ccylhMgF.s 			page 79


 2898      4E545F4D 
 2898      494E5F5F 
 2898      203000
 2899 0893 01       		.byte	0x1
 2900 0894 00       		.uleb128 0
 2901 0895 5F5F5054 		.ascii "__PTRDIFF_MAX__ 2147483647\0"
 2901      52444946 
 2901      465F4D41 
 2901      585F5F20 
 2901      32313437 
 2902 08b0 01       		.byte	0x1
 2903 08b1 00       		.uleb128 0
 2904 08b2 5F5F5349 		.ascii "__SIZE_MAX__ 4294967295U\0"
 2904      5A455F4D 
 2904      41585F5F 
 2904      20343239 
 2904      34393637 
 2905 08cb 01       		.byte	0x1
 2906 08cc 00       		.uleb128 0
 2907 08cd 5F5F494E 		.ascii "__INTMAX_MAX__ 9223372036854775807LL\0"
 2907      544D4158 
 2907      5F4D4158 
 2907      5F5F2039 
 2907      32323333 
 2908 08f2 01       		.byte	0x1
 2909 08f3 00       		.uleb128 0
 2910 08f4 5F5F494E 		.ascii "__INTMAX_C(c) c ## LL\0"
 2910      544D4158 
 2910      5F432863 
 2910      29206320 
 2910      2323204C 
 2911 090a 01       		.byte	0x1
 2912 090b 00       		.uleb128 0
 2913 090c 5F5F5549 		.ascii "__UINTMAX_MAX__ 18446744073709551615ULL\0"
 2913      4E544D41 
 2913      585F4D41 
 2913      585F5F20 
 2913      31383434 
 2914 0934 01       		.byte	0x1
 2915 0935 00       		.uleb128 0
 2916 0936 5F5F5549 		.ascii "__UINTMAX_C(c) c ## ULL\0"
 2916      4E544D41 
 2916      585F4328 
 2916      63292063 
 2916      20232320 
 2917 094e 01       		.byte	0x1
 2918 094f 00       		.uleb128 0
 2919 0950 5F5F5349 		.ascii "__SIG_ATOMIC_MAX__ 2147483647\0"
 2919      475F4154 
 2919      4F4D4943 
 2919      5F4D4158 
 2919      5F5F2032 
 2920 096e 01       		.byte	0x1
 2921 096f 00       		.uleb128 0
 2922 0970 5F5F5349 		.ascii "__SIG_ATOMIC_MIN__ (-__SIG_ATOMIC_MAX__ - 1)\0"
 2922      475F4154 
 2922      4F4D4943 
GAS LISTING C:\Users\PRESID~1\AppData\Local\Temp\ccylhMgF.s 			page 80


 2922      5F4D494E 
 2922      5F5F2028 
 2923 099d 01       		.byte	0x1
 2924 099e 00       		.uleb128 0
 2925 099f 5F5F494E 		.ascii "__INT8_MAX__ 127\0"
 2925      54385F4D 
 2925      41585F5F 
 2925      20313237 
 2925      00
 2926 09b0 01       		.byte	0x1
 2927 09b1 00       		.uleb128 0
 2928 09b2 5F5F494E 		.ascii "__INT16_MAX__ 32767\0"
 2928      5431365F 
 2928      4D41585F 
 2928      5F203332 
 2928      37363700 
 2929 09c6 01       		.byte	0x1
 2930 09c7 00       		.uleb128 0
 2931 09c8 5F5F494E 		.ascii "__INT32_MAX__ 2147483647\0"
 2931      5433325F 
 2931      4D41585F 
 2931      5F203231 
 2931      34373438 
 2932 09e1 01       		.byte	0x1
 2933 09e2 00       		.uleb128 0
 2934 09e3 5F5F494E 		.ascii "__INT64_MAX__ 9223372036854775807LL\0"
 2934      5436345F 
 2934      4D41585F 
 2934      5F203932 
 2934      32333337 
 2935 0a07 01       		.byte	0x1
 2936 0a08 00       		.uleb128 0
 2937 0a09 5F5F5549 		.ascii "__UINT8_MAX__ 255\0"
 2937      4E54385F 
 2937      4D41585F 
 2937      5F203235 
 2937      3500
 2938 0a1b 01       		.byte	0x1
 2939 0a1c 00       		.uleb128 0
 2940 0a1d 5F5F5549 		.ascii "__UINT16_MAX__ 65535\0"
 2940      4E543136 
 2940      5F4D4158 
 2940      5F5F2036 
 2940      35353335 
 2941 0a32 01       		.byte	0x1
 2942 0a33 00       		.uleb128 0
 2943 0a34 5F5F5549 		.ascii "__UINT32_MAX__ 4294967295U\0"
 2943      4E543332 
 2943      5F4D4158 
 2943      5F5F2034 
 2943      32393439 
 2944 0a4f 01       		.byte	0x1
 2945 0a50 00       		.uleb128 0
 2946 0a51 5F5F5549 		.ascii "__UINT64_MAX__ 18446744073709551615ULL\0"
 2946      4E543634 
 2946      5F4D4158 
 2946      5F5F2031 
GAS LISTING C:\Users\PRESID~1\AppData\Local\Temp\ccylhMgF.s 			page 81


 2946      38343436 
 2947 0a78 01       		.byte	0x1
 2948 0a79 00       		.uleb128 0
 2949 0a7a 5F5F494E 		.ascii "__INT_LEAST8_MAX__ 127\0"
 2949      545F4C45 
 2949      41535438 
 2949      5F4D4158 
 2949      5F5F2031 
 2950 0a91 01       		.byte	0x1
 2951 0a92 00       		.uleb128 0
 2952 0a93 5F5F494E 		.ascii "__INT8_C(c) c\0"
 2952      54385F43 
 2952      28632920 
 2952      6300
 2953 0aa1 01       		.byte	0x1
 2954 0aa2 00       		.uleb128 0
 2955 0aa3 5F5F494E 		.ascii "__INT_LEAST16_MAX__ 32767\0"
 2955      545F4C45 
 2955      41535431 
 2955      365F4D41 
 2955      585F5F20 
 2956 0abd 01       		.byte	0x1
 2957 0abe 00       		.uleb128 0
 2958 0abf 5F5F494E 		.ascii "__INT16_C(c) c\0"
 2958      5431365F 
 2958      43286329 
 2958      206300
 2959 0ace 01       		.byte	0x1
 2960 0acf 00       		.uleb128 0
 2961 0ad0 5F5F494E 		.ascii "__INT_LEAST32_MAX__ 2147483647\0"
 2961      545F4C45 
 2961      41535433 
 2961      325F4D41 
 2961      585F5F20 
 2962 0aef 01       		.byte	0x1
 2963 0af0 00       		.uleb128 0
 2964 0af1 5F5F494E 		.ascii "__INT32_C(c) c\0"
 2964      5433325F 
 2964      43286329 
 2964      206300
 2965 0b00 01       		.byte	0x1
 2966 0b01 00       		.uleb128 0
 2967 0b02 5F5F494E 		.ascii "__INT_LEAST64_MAX__ 9223372036854775807LL\0"
 2967      545F4C45 
 2967      41535436 
 2967      345F4D41 
 2967      585F5F20 
 2968 0b2c 01       		.byte	0x1
 2969 0b2d 00       		.uleb128 0
 2970 0b2e 5F5F494E 		.ascii "__INT64_C(c) c ## LL\0"
 2970      5436345F 
 2970      43286329 
 2970      20632023 
 2970      23204C4C 
 2971 0b43 01       		.byte	0x1
 2972 0b44 00       		.uleb128 0
 2973 0b45 5F5F5549 		.ascii "__UINT_LEAST8_MAX__ 255\0"
GAS LISTING C:\Users\PRESID~1\AppData\Local\Temp\ccylhMgF.s 			page 82


 2973      4E545F4C 
 2973      45415354 
 2973      385F4D41 
 2973      585F5F20 
 2974 0b5d 01       		.byte	0x1
 2975 0b5e 00       		.uleb128 0
 2976 0b5f 5F5F5549 		.ascii "__UINT8_C(c) c\0"
 2976      4E54385F 
 2976      43286329 
 2976      206300
 2977 0b6e 01       		.byte	0x1
 2978 0b6f 00       		.uleb128 0
 2979 0b70 5F5F5549 		.ascii "__UINT_LEAST16_MAX__ 65535\0"
 2979      4E545F4C 
 2979      45415354 
 2979      31365F4D 
 2979      41585F5F 
 2980 0b8b 01       		.byte	0x1
 2981 0b8c 00       		.uleb128 0
 2982 0b8d 5F5F5549 		.ascii "__UINT16_C(c) c\0"
 2982      4E543136 
 2982      5F432863 
 2982      29206300 
 2983 0b9d 01       		.byte	0x1
 2984 0b9e 00       		.uleb128 0
 2985 0b9f 5F5F5549 		.ascii "__UINT_LEAST32_MAX__ 4294967295U\0"
 2985      4E545F4C 
 2985      45415354 
 2985      33325F4D 
 2985      41585F5F 
 2986 0bc0 01       		.byte	0x1
 2987 0bc1 00       		.uleb128 0
 2988 0bc2 5F5F5549 		.ascii "__UINT32_C(c) c ## U\0"
 2988      4E543332 
 2988      5F432863 
 2988      29206320 
 2988      23232055 
 2989 0bd7 01       		.byte	0x1
 2990 0bd8 00       		.uleb128 0
 2991 0bd9 5F5F5549 		.ascii "__UINT_LEAST64_MAX__ 18446744073709551615ULL\0"
 2991      4E545F4C 
 2991      45415354 
 2991      36345F4D 
 2991      41585F5F 
 2992 0c06 01       		.byte	0x1
 2993 0c07 00       		.uleb128 0
 2994 0c08 5F5F5549 		.ascii "__UINT64_C(c) c ## ULL\0"
 2994      4E543634 
 2994      5F432863 
 2994      29206320 
 2994      23232055 
 2995 0c1f 01       		.byte	0x1
 2996 0c20 00       		.uleb128 0
 2997 0c21 5F5F494E 		.ascii "__INT_FAST8_MAX__ 127\0"
 2997      545F4641 
 2997      5354385F 
 2997      4D41585F 
GAS LISTING C:\Users\PRESID~1\AppData\Local\Temp\ccylhMgF.s 			page 83


 2997      5F203132 
 2998 0c37 01       		.byte	0x1
 2999 0c38 00       		.uleb128 0
 3000 0c39 5F5F494E 		.ascii "__INT_FAST16_MAX__ 32767\0"
 3000      545F4641 
 3000      53543136 
 3000      5F4D4158 
 3000      5F5F2033 
 3001 0c52 01       		.byte	0x1
 3002 0c53 00       		.uleb128 0
 3003 0c54 5F5F494E 		.ascii "__INT_FAST32_MAX__ 2147483647\0"
 3003      545F4641 
 3003      53543332 
 3003      5F4D4158 
 3003      5F5F2032 
 3004 0c72 01       		.byte	0x1
 3005 0c73 00       		.uleb128 0
 3006 0c74 5F5F494E 		.ascii "__INT_FAST64_MAX__ 9223372036854775807LL\0"
 3006      545F4641 
 3006      53543634 
 3006      5F4D4158 
 3006      5F5F2039 
 3007 0c9d 01       		.byte	0x1
 3008 0c9e 00       		.uleb128 0
 3009 0c9f 5F5F5549 		.ascii "__UINT_FAST8_MAX__ 255\0"
 3009      4E545F46 
 3009      41535438 
 3009      5F4D4158 
 3009      5F5F2032 
 3010 0cb6 01       		.byte	0x1
 3011 0cb7 00       		.uleb128 0
 3012 0cb8 5F5F5549 		.ascii "__UINT_FAST16_MAX__ 65535\0"
 3012      4E545F46 
 3012      41535431 
 3012      365F4D41 
 3012      585F5F20 
 3013 0cd2 01       		.byte	0x1
 3014 0cd3 00       		.uleb128 0
 3015 0cd4 5F5F5549 		.ascii "__UINT_FAST32_MAX__ 4294967295U\0"
 3015      4E545F46 
 3015      41535433 
 3015      325F4D41 
 3015      585F5F20 
 3016 0cf4 01       		.byte	0x1
 3017 0cf5 00       		.uleb128 0
 3018 0cf6 5F5F5549 		.ascii "__UINT_FAST64_MAX__ 18446744073709551615ULL\0"
 3018      4E545F46 
 3018      41535436 
 3018      345F4D41 
 3018      585F5F20 
 3019 0d22 01       		.byte	0x1
 3020 0d23 00       		.uleb128 0
 3021 0d24 5F5F494E 		.ascii "__INTPTR_MAX__ 2147483647\0"
 3021      54505452 
 3021      5F4D4158 
 3021      5F5F2032 
 3021      31343734 
GAS LISTING C:\Users\PRESID~1\AppData\Local\Temp\ccylhMgF.s 			page 84


 3022 0d3e 01       		.byte	0x1
 3023 0d3f 00       		.uleb128 0
 3024 0d40 5F5F5549 		.ascii "__UINTPTR_MAX__ 4294967295U\0"
 3024      4E545054 
 3024      525F4D41 
 3024      585F5F20 
 3024      34323934 
 3025 0d5c 01       		.byte	0x1
 3026 0d5d 00       		.uleb128 0
 3027 0d5e 5F5F4743 		.ascii "__GCC_IEC_559 2\0"
 3027      435F4945 
 3027      435F3535 
 3027      39203200 
 3028 0d6e 01       		.byte	0x1
 3029 0d6f 00       		.uleb128 0
 3030 0d70 5F5F4743 		.ascii "__GCC_IEC_559_COMPLEX 2\0"
 3030      435F4945 
 3030      435F3535 
 3030      395F434F 
 3030      4D504C45 
 3031 0d88 01       		.byte	0x1
 3032 0d89 00       		.uleb128 0
 3033 0d8a 5F5F464C 		.ascii "__FLT_EVAL_METHOD__ 2\0"
 3033      545F4556 
 3033      414C5F4D 
 3033      4554484F 
 3033      445F5F20 
 3034 0da0 01       		.byte	0x1
 3035 0da1 00       		.uleb128 0
 3036 0da2 5F5F4445 		.ascii "__DEC_EVAL_METHOD__ 2\0"
 3036      435F4556 
 3036      414C5F4D 
 3036      4554484F 
 3036      445F5F20 
 3037 0db8 01       		.byte	0x1
 3038 0db9 00       		.uleb128 0
 3039 0dba 5F5F464C 		.ascii "__FLT_RADIX__ 2\0"
 3039      545F5241 
 3039      4449585F 
 3039      5F203200 
 3040 0dca 01       		.byte	0x1
 3041 0dcb 00       		.uleb128 0
 3042 0dcc 5F5F464C 		.ascii "__FLT_MANT_DIG__ 24\0"
 3042      545F4D41 
 3042      4E545F44 
 3042      49475F5F 
 3042      20323400 
 3043 0de0 01       		.byte	0x1
 3044 0de1 00       		.uleb128 0
 3045 0de2 5F5F464C 		.ascii "__FLT_DIG__ 6\0"
 3045      545F4449 
 3045      475F5F20 
 3045      3600
 3046 0df0 01       		.byte	0x1
 3047 0df1 00       		.uleb128 0
 3048 0df2 5F5F464C 		.ascii "__FLT_MIN_EXP__ (-125)\0"
 3048      545F4D49 
GAS LISTING C:\Users\PRESID~1\AppData\Local\Temp\ccylhMgF.s 			page 85


 3048      4E5F4558 
 3048      505F5F20 
 3048      282D3132 
 3049 0e09 01       		.byte	0x1
 3050 0e0a 00       		.uleb128 0
 3051 0e0b 5F5F464C 		.ascii "__FLT_MIN_10_EXP__ (-37)\0"
 3051      545F4D49 
 3051      4E5F3130 
 3051      5F455850 
 3051      5F5F2028 
 3052 0e24 01       		.byte	0x1
 3053 0e25 00       		.uleb128 0
 3054 0e26 5F5F464C 		.ascii "__FLT_MAX_EXP__ 128\0"
 3054      545F4D41 
 3054      585F4558 
 3054      505F5F20 
 3054      31323800 
 3055 0e3a 01       		.byte	0x1
 3056 0e3b 00       		.uleb128 0
 3057 0e3c 5F5F464C 		.ascii "__FLT_MAX_10_EXP__ 38\0"
 3057      545F4D41 
 3057      585F3130 
 3057      5F455850 
 3057      5F5F2033 
 3058 0e52 01       		.byte	0x1
 3059 0e53 00       		.uleb128 0
 3060 0e54 5F5F464C 		.ascii "__FLT_DECIMAL_DIG__ 9\0"
 3060      545F4445 
 3060      43494D41 
 3060      4C5F4449 
 3060      475F5F20 
 3061 0e6a 01       		.byte	0x1
 3062 0e6b 00       		.uleb128 0
 3063 0e6c 5F5F464C 		.ascii "__FLT_MAX__ 3.40282346638528859812e+38F\0"
 3063      545F4D41 
 3063      585F5F20 
 3063      332E3430 
 3063      32383233 
 3064 0e94 01       		.byte	0x1
 3065 0e95 00       		.uleb128 0
 3066 0e96 5F5F464C 		.ascii "__FLT_MIN__ 1.17549435082228750797e-38F\0"
 3066      545F4D49 
 3066      4E5F5F20 
 3066      312E3137 
 3066      35343934 
 3067 0ebe 01       		.byte	0x1
 3068 0ebf 00       		.uleb128 0
 3069 0ec0 5F5F464C 		.ascii "__FLT_EPSILON__ 1.19209289550781250000e-7F\0"
 3069      545F4550 
 3069      53494C4F 
 3069      4E5F5F20 
 3069      312E3139 
 3070 0eeb 01       		.byte	0x1
 3071 0eec 00       		.uleb128 0
 3072 0eed 5F5F464C 		.ascii "__FLT_DENORM_MIN__ 1.40129846432481707092e-45F\0"
 3072      545F4445 
 3072      4E4F524D 
GAS LISTING C:\Users\PRESID~1\AppData\Local\Temp\ccylhMgF.s 			page 86


 3072      5F4D494E 
 3072      5F5F2031 
 3073 0f1c 01       		.byte	0x1
 3074 0f1d 00       		.uleb128 0
 3075 0f1e 5F5F464C 		.ascii "__FLT_HAS_DENORM__ 1\0"
 3075      545F4841 
 3075      535F4445 
 3075      4E4F524D 
 3075      5F5F2031 
 3076 0f33 01       		.byte	0x1
 3077 0f34 00       		.uleb128 0
 3078 0f35 5F5F464C 		.ascii "__FLT_HAS_INFINITY__ 1\0"
 3078      545F4841 
 3078      535F494E 
 3078      46494E49 
 3078      54595F5F 
 3079 0f4c 01       		.byte	0x1
 3080 0f4d 00       		.uleb128 0
 3081 0f4e 5F5F464C 		.ascii "__FLT_HAS_QUIET_NAN__ 1\0"
 3081      545F4841 
 3081      535F5155 
 3081      4945545F 
 3081      4E414E5F 
 3082 0f66 01       		.byte	0x1
 3083 0f67 00       		.uleb128 0
 3084 0f68 5F5F4442 		.ascii "__DBL_MANT_DIG__ 53\0"
 3084      4C5F4D41 
 3084      4E545F44 
 3084      49475F5F 
 3084      20353300 
 3085 0f7c 01       		.byte	0x1
 3086 0f7d 00       		.uleb128 0
 3087 0f7e 5F5F4442 		.ascii "__DBL_DIG__ 15\0"
 3087      4C5F4449 
 3087      475F5F20 
 3087      313500
 3088 0f8d 01       		.byte	0x1
 3089 0f8e 00       		.uleb128 0
 3090 0f8f 5F5F4442 		.ascii "__DBL_MIN_EXP__ (-1021)\0"
 3090      4C5F4D49 
 3090      4E5F4558 
 3090      505F5F20 
 3090      282D3130 
 3091 0fa7 01       		.byte	0x1
 3092 0fa8 00       		.uleb128 0
 3093 0fa9 5F5F4442 		.ascii "__DBL_MIN_10_EXP__ (-307)\0"
 3093      4C5F4D49 
 3093      4E5F3130 
 3093      5F455850 
 3093      5F5F2028 
 3094 0fc3 01       		.byte	0x1
 3095 0fc4 00       		.uleb128 0
 3096 0fc5 5F5F4442 		.ascii "__DBL_MAX_EXP__ 1024\0"
 3096      4C5F4D41 
 3096      585F4558 
 3096      505F5F20 
 3096      31303234 
GAS LISTING C:\Users\PRESID~1\AppData\Local\Temp\ccylhMgF.s 			page 87


 3097 0fda 01       		.byte	0x1
 3098 0fdb 00       		.uleb128 0
 3099 0fdc 5F5F4442 		.ascii "__DBL_MAX_10_EXP__ 308\0"
 3099      4C5F4D41 
 3099      585F3130 
 3099      5F455850 
 3099      5F5F2033 
 3100 0ff3 01       		.byte	0x1
 3101 0ff4 00       		.uleb128 0
 3102 0ff5 5F5F4442 		.ascii "__DBL_DECIMAL_DIG__ 17\0"
 3102      4C5F4445 
 3102      43494D41 
 3102      4C5F4449 
 3102      475F5F20 
 3103 100c 01       		.byte	0x1
 3104 100d 00       		.uleb128 0
 3105 100e 5F5F4442 		.ascii "__DBL_MAX__ ((double)1.79769313486231570815e+308L)\0"
 3105      4C5F4D41 
 3105      585F5F20 
 3105      2828646F 
 3105      75626C65 
 3106 1041 01       		.byte	0x1
 3107 1042 00       		.uleb128 0
 3108 1043 5F5F4442 		.ascii "__DBL_MIN__ ((double)2.22507385850720138309e-308L)\0"
 3108      4C5F4D49 
 3108      4E5F5F20 
 3108      2828646F 
 3108      75626C65 
 3109 1076 01       		.byte	0x1
 3110 1077 00       		.uleb128 0
 3111 1078 5F5F4442 		.ascii "__DBL_EPSILON__ ((double)2.22044604925031308085e-16L)\0"
 3111      4C5F4550 
 3111      53494C4F 
 3111      4E5F5F20 
 3111      2828646F 
 3112 10ae 01       		.byte	0x1
 3113 10af 00       		.uleb128 0
 3114 10b0 5F5F4442 		.ascii "__DBL_DENORM_MIN__ ((double)4.94065645841246544177e-324L)\0"
 3114      4C5F4445 
 3114      4E4F524D 
 3114      5F4D494E 
 3114      5F5F2028 
 3115 10ea 01       		.byte	0x1
 3116 10eb 00       		.uleb128 0
 3117 10ec 5F5F4442 		.ascii "__DBL_HAS_DENORM__ 1\0"
 3117      4C5F4841 
 3117      535F4445 
 3117      4E4F524D 
 3117      5F5F2031 
 3118 1101 01       		.byte	0x1
 3119 1102 00       		.uleb128 0
 3120 1103 5F5F4442 		.ascii "__DBL_HAS_INFINITY__ 1\0"
 3120      4C5F4841 
 3120      535F494E 
 3120      46494E49 
 3120      54595F5F 
 3121 111a 01       		.byte	0x1
GAS LISTING C:\Users\PRESID~1\AppData\Local\Temp\ccylhMgF.s 			page 88


 3122 111b 00       		.uleb128 0
 3123 111c 5F5F4442 		.ascii "__DBL_HAS_QUIET_NAN__ 1\0"
 3123      4C5F4841 
 3123      535F5155 
 3123      4945545F 
 3123      4E414E5F 
 3124 1134 01       		.byte	0x1
 3125 1135 00       		.uleb128 0
 3126 1136 5F5F4C44 		.ascii "__LDBL_MANT_DIG__ 64\0"
 3126      424C5F4D 
 3126      414E545F 
 3126      4449475F 
 3126      5F203634 
 3127 114b 01       		.byte	0x1
 3128 114c 00       		.uleb128 0
 3129 114d 5F5F4C44 		.ascii "__LDBL_DIG__ 18\0"
 3129      424C5F44 
 3129      49475F5F 
 3129      20313800 
 3130 115d 01       		.byte	0x1
 3131 115e 00       		.uleb128 0
 3132 115f 5F5F4C44 		.ascii "__LDBL_MIN_EXP__ (-16381)\0"
 3132      424C5F4D 
 3132      494E5F45 
 3132      58505F5F 
 3132      20282D31 
 3133 1179 01       		.byte	0x1
 3134 117a 00       		.uleb128 0
 3135 117b 5F5F4C44 		.ascii "__LDBL_MIN_10_EXP__ (-4931)\0"
 3135      424C5F4D 
 3135      494E5F31 
 3135      305F4558 
 3135      505F5F20 
 3136 1197 01       		.byte	0x1
 3137 1198 00       		.uleb128 0
 3138 1199 5F5F4C44 		.ascii "__LDBL_MAX_EXP__ 16384\0"
 3138      424C5F4D 
 3138      41585F45 
 3138      58505F5F 
 3138      20313633 
 3139 11b0 01       		.byte	0x1
 3140 11b1 00       		.uleb128 0
 3141 11b2 5F5F4C44 		.ascii "__LDBL_MAX_10_EXP__ 4932\0"
 3141      424C5F4D 
 3141      41585F31 
 3141      305F4558 
 3141      505F5F20 
 3142 11cb 01       		.byte	0x1
 3143 11cc 00       		.uleb128 0
 3144 11cd 5F5F4445 		.ascii "__DECIMAL_DIG__ 21\0"
 3144      43494D41 
 3144      4C5F4449 
 3144      475F5F20 
 3144      323100
 3145 11e0 01       		.byte	0x1
 3146 11e1 00       		.uleb128 0
 3147 11e2 5F5F4C44 		.ascii "__LDBL_MAX__ 1.18973149535723176502e+4932L\0"
GAS LISTING C:\Users\PRESID~1\AppData\Local\Temp\ccylhMgF.s 			page 89


 3147      424C5F4D 
 3147      41585F5F 
 3147      20312E31 
 3147      38393733 
 3148 120d 01       		.byte	0x1
 3149 120e 00       		.uleb128 0
 3150 120f 5F5F4C44 		.ascii "__LDBL_MIN__ 3.36210314311209350626e-4932L\0"
 3150      424C5F4D 
 3150      494E5F5F 
 3150      20332E33 
 3150      36323130 
 3151 123a 01       		.byte	0x1
 3152 123b 00       		.uleb128 0
 3153 123c 5F5F4C44 		.ascii "__LDBL_EPSILON__ 1.08420217248550443401e-19L\0"
 3153      424C5F45 
 3153      5053494C 
 3153      4F4E5F5F 
 3153      20312E30 
 3154 1269 01       		.byte	0x1
 3155 126a 00       		.uleb128 0
 3156 126b 5F5F4C44 		.ascii "__LDBL_DENORM_MIN__ 3.64519953188247460253e-4951L\0"
 3156      424C5F44 
 3156      454E4F52 
 3156      4D5F4D49 
 3156      4E5F5F20 
 3157 129d 01       		.byte	0x1
 3158 129e 00       		.uleb128 0
 3159 129f 5F5F4C44 		.ascii "__LDBL_HAS_DENORM__ 1\0"
 3159      424C5F48 
 3159      41535F44 
 3159      454E4F52 
 3159      4D5F5F20 
 3160 12b5 01       		.byte	0x1
 3161 12b6 00       		.uleb128 0
 3162 12b7 5F5F4C44 		.ascii "__LDBL_HAS_INFINITY__ 1\0"
 3162      424C5F48 
 3162      41535F49 
 3162      4E46494E 
 3162      4954595F 
 3163 12cf 01       		.byte	0x1
 3164 12d0 00       		.uleb128 0
 3165 12d1 5F5F4C44 		.ascii "__LDBL_HAS_QUIET_NAN__ 1\0"
 3165      424C5F48 
 3165      41535F51 
 3165      55494554 
 3165      5F4E414E 
 3166 12ea 01       		.byte	0x1
 3167 12eb 00       		.uleb128 0
 3168 12ec 5F5F4445 		.ascii "__DEC32_MANT_DIG__ 7\0"
 3168      4333325F 
 3168      4D414E54 
 3168      5F444947 
 3168      5F5F2037 
 3169 1301 01       		.byte	0x1
 3170 1302 00       		.uleb128 0
 3171 1303 5F5F4445 		.ascii "__DEC32_MIN_EXP__ (-94)\0"
 3171      4333325F 
GAS LISTING C:\Users\PRESID~1\AppData\Local\Temp\ccylhMgF.s 			page 90


 3171      4D494E5F 
 3171      4558505F 
 3171      5F20282D 
 3172 131b 01       		.byte	0x1
 3173 131c 00       		.uleb128 0
 3174 131d 5F5F4445 		.ascii "__DEC32_MAX_EXP__ 97\0"
 3174      4333325F 
 3174      4D41585F 
 3174      4558505F 
 3174      5F203937 
 3175 1332 01       		.byte	0x1
 3176 1333 00       		.uleb128 0
 3177 1334 5F5F4445 		.ascii "__DEC32_MIN__ 1E-95DF\0"
 3177      4333325F 
 3177      4D494E5F 
 3177      5F203145 
 3177      2D393544 
 3178 134a 01       		.byte	0x1
 3179 134b 00       		.uleb128 0
 3180 134c 5F5F4445 		.ascii "__DEC32_MAX__ 9.999999E96DF\0"
 3180      4333325F 
 3180      4D41585F 
 3180      5F20392E 
 3180      39393939 
 3181 1368 01       		.byte	0x1
 3182 1369 00       		.uleb128 0
 3183 136a 5F5F4445 		.ascii "__DEC32_EPSILON__ 1E-6DF\0"
 3183      4333325F 
 3183      45505349 
 3183      4C4F4E5F 
 3183      5F203145 
 3184 1383 01       		.byte	0x1
 3185 1384 00       		.uleb128 0
 3186 1385 5F5F4445 		.ascii "__DEC32_SUBNORMAL_MIN__ 0.000001E-95DF\0"
 3186      4333325F 
 3186      5355424E 
 3186      4F524D41 
 3186      4C5F4D49 
 3187 13ac 01       		.byte	0x1
 3188 13ad 00       		.uleb128 0
 3189 13ae 5F5F4445 		.ascii "__DEC64_MANT_DIG__ 16\0"
 3189      4336345F 
 3189      4D414E54 
 3189      5F444947 
 3189      5F5F2031 
 3190 13c4 01       		.byte	0x1
 3191 13c5 00       		.uleb128 0
 3192 13c6 5F5F4445 		.ascii "__DEC64_MIN_EXP__ (-382)\0"
 3192      4336345F 
 3192      4D494E5F 
 3192      4558505F 
 3192      5F20282D 
 3193 13df 01       		.byte	0x1
 3194 13e0 00       		.uleb128 0
 3195 13e1 5F5F4445 		.ascii "__DEC64_MAX_EXP__ 385\0"
 3195      4336345F 
 3195      4D41585F 
GAS LISTING C:\Users\PRESID~1\AppData\Local\Temp\ccylhMgF.s 			page 91


 3195      4558505F 
 3195      5F203338 
 3196 13f7 01       		.byte	0x1
 3197 13f8 00       		.uleb128 0
 3198 13f9 5F5F4445 		.ascii "__DEC64_MIN__ 1E-383DD\0"
 3198      4336345F 
 3198      4D494E5F 
 3198      5F203145 
 3198      2D333833 
 3199 1410 01       		.byte	0x1
 3200 1411 00       		.uleb128 0
 3201 1412 5F5F4445 		.ascii "__DEC64_MAX__ 9.999999999999999E384DD\0"
 3201      4336345F 
 3201      4D41585F 
 3201      5F20392E 
 3201      39393939 
 3202 1438 01       		.byte	0x1
 3203 1439 00       		.uleb128 0
 3204 143a 5F5F4445 		.ascii "__DEC64_EPSILON__ 1E-15DD\0"
 3204      4336345F 
 3204      45505349 
 3204      4C4F4E5F 
 3204      5F203145 
 3205 1454 01       		.byte	0x1
 3206 1455 00       		.uleb128 0
 3207 1456 5F5F4445 		.ascii "__DEC64_SUBNORMAL_MIN__ 0.000000000000001E-383DD\0"
 3207      4336345F 
 3207      5355424E 
 3207      4F524D41 
 3207      4C5F4D49 
 3208 1487 01       		.byte	0x1
 3209 1488 00       		.uleb128 0
 3210 1489 5F5F4445 		.ascii "__DEC128_MANT_DIG__ 34\0"
 3210      43313238 
 3210      5F4D414E 
 3210      545F4449 
 3210      475F5F20 
 3211 14a0 01       		.byte	0x1
 3212 14a1 00       		.uleb128 0
 3213 14a2 5F5F4445 		.ascii "__DEC128_MIN_EXP__ (-6142)\0"
 3213      43313238 
 3213      5F4D494E 
 3213      5F455850 
 3213      5F5F2028 
 3214 14bd 01       		.byte	0x1
 3215 14be 00       		.uleb128 0
 3216 14bf 5F5F4445 		.ascii "__DEC128_MAX_EXP__ 6145\0"
 3216      43313238 
 3216      5F4D4158 
 3216      5F455850 
 3216      5F5F2036 
 3217 14d7 01       		.byte	0x1
 3218 14d8 00       		.uleb128 0
 3219 14d9 5F5F4445 		.ascii "__DEC128_MIN__ 1E-6143DL\0"
 3219      43313238 
 3219      5F4D494E 
 3219      5F5F2031 
GAS LISTING C:\Users\PRESID~1\AppData\Local\Temp\ccylhMgF.s 			page 92


 3219      452D3631 
 3220 14f2 01       		.byte	0x1
 3221 14f3 00       		.uleb128 0
 3222 14f4 5F5F4445 		.ascii "__DEC128_MAX__ 9.999999999999999999999999999999999E6144DL\0"
 3222      43313238 
 3222      5F4D4158 
 3222      5F5F2039 
 3222      2E393939 
 3223 152e 01       		.byte	0x1
 3224 152f 00       		.uleb128 0
 3225 1530 5F5F4445 		.ascii "__DEC128_EPSILON__ 1E-33DL\0"
 3225      43313238 
 3225      5F455053 
 3225      494C4F4E 
 3225      5F5F2031 
 3226 154b 01       		.byte	0x1
 3227 154c 00       		.uleb128 0
 3228 154d 5F5F4445 		.ascii "__DEC128_SUBNORMAL_MIN__ 0.000000000000000000000000000000001E-6143DL\0"
 3228      43313238 
 3228      5F535542 
 3228      4E4F524D 
 3228      414C5F4D 
 3229 1592 01       		.byte	0x1
 3230 1593 00       		.uleb128 0
 3231 1594 5F5F5245 		.ascii "__REGISTER_PREFIX__ \0"
 3231      47495354 
 3231      45525F50 
 3231      52454649 
 3231      585F5F20 
 3232 15a9 01       		.byte	0x1
 3233 15aa 00       		.uleb128 0
 3234 15ab 5F5F5553 		.ascii "__USER_LABEL_PREFIX__ _\0"
 3234      45525F4C 
 3234      4142454C 
 3234      5F505245 
 3234      4649585F 
 3235 15c3 01       		.byte	0x1
 3236 15c4 00       		.uleb128 0
 3237 15c5 5F5F474E 		.ascii "__GNUC_GNU_INLINE__ 1\0"
 3237      55435F47 
 3237      4E555F49 
 3237      4E4C494E 
 3237      455F5F20 
 3238 15db 01       		.byte	0x1
 3239 15dc 00       		.uleb128 0
 3240 15dd 5F5F4E4F 		.ascii "__NO_INLINE__ 1\0"
 3240      5F494E4C 
 3240      494E455F 
 3240      5F203100 
 3241 15ed 01       		.byte	0x1
 3242 15ee 00       		.uleb128 0
 3243 15ef 5F5F5354 		.ascii "__STRICT_ANSI__ 1\0"
 3243      52494354 
 3243      5F414E53 
 3243      495F5F20 
 3243      3100
 3244 1601 01       		.byte	0x1
GAS LISTING C:\Users\PRESID~1\AppData\Local\Temp\ccylhMgF.s 			page 93


 3245 1602 00       		.uleb128 0
 3246 1603 5F5F4743 		.ascii "__GCC_ATOMIC_BOOL_LOCK_FREE 1\0"
 3246      435F4154 
 3246      4F4D4943 
 3246      5F424F4F 
 3246      4C5F4C4F 
 3247 1621 01       		.byte	0x1
 3248 1622 00       		.uleb128 0
 3249 1623 5F5F4743 		.ascii "__GCC_ATOMIC_CHAR_LOCK_FREE 1\0"
 3249      435F4154 
 3249      4F4D4943 
 3249      5F434841 
 3249      525F4C4F 
 3250 1641 01       		.byte	0x1
 3251 1642 00       		.uleb128 0
 3252 1643 5F5F4743 		.ascii "__GCC_ATOMIC_CHAR16_T_LOCK_FREE 1\0"
 3252      435F4154 
 3252      4F4D4943 
 3252      5F434841 
 3252      5231365F 
 3253 1665 01       		.byte	0x1
 3254 1666 00       		.uleb128 0
 3255 1667 5F5F4743 		.ascii "__GCC_ATOMIC_CHAR32_T_LOCK_FREE 1\0"
 3255      435F4154 
 3255      4F4D4943 
 3255      5F434841 
 3255      5233325F 
 3256 1689 01       		.byte	0x1
 3257 168a 00       		.uleb128 0
 3258 168b 5F5F4743 		.ascii "__GCC_ATOMIC_WCHAR_T_LOCK_FREE 1\0"
 3258      435F4154 
 3258      4F4D4943 
 3258      5F574348 
 3258      41525F54 
 3259 16ac 01       		.byte	0x1
 3260 16ad 00       		.uleb128 0
 3261 16ae 5F5F4743 		.ascii "__GCC_ATOMIC_SHORT_LOCK_FREE 1\0"
 3261      435F4154 
 3261      4F4D4943 
 3261      5F53484F 
 3261      52545F4C 
 3262 16cd 01       		.byte	0x1
 3263 16ce 00       		.uleb128 0
 3264 16cf 5F5F4743 		.ascii "__GCC_ATOMIC_INT_LOCK_FREE 1\0"
 3264      435F4154 
 3264      4F4D4943 
 3264      5F494E54 
 3264      5F4C4F43 
 3265 16ec 01       		.byte	0x1
 3266 16ed 00       		.uleb128 0
 3267 16ee 5F5F4743 		.ascii "__GCC_ATOMIC_LONG_LOCK_FREE 1\0"
 3267      435F4154 
 3267      4F4D4943 
 3267      5F4C4F4E 
 3267      475F4C4F 
 3268 170c 01       		.byte	0x1
 3269 170d 00       		.uleb128 0
GAS LISTING C:\Users\PRESID~1\AppData\Local\Temp\ccylhMgF.s 			page 94


 3270 170e 5F5F4743 		.ascii "__GCC_ATOMIC_LLONG_LOCK_FREE 1\0"
 3270      435F4154 
 3270      4F4D4943 
 3270      5F4C4C4F 
 3270      4E475F4C 
 3271 172d 01       		.byte	0x1
 3272 172e 00       		.uleb128 0
 3273 172f 5F5F4743 		.ascii "__GCC_ATOMIC_TEST_AND_SET_TRUEVAL 1\0"
 3273      435F4154 
 3273      4F4D4943 
 3273      5F544553 
 3273      545F414E 
 3274 1753 01       		.byte	0x1
 3275 1754 00       		.uleb128 0
 3276 1755 5F5F4743 		.ascii "__GCC_ATOMIC_POINTER_LOCK_FREE 1\0"
 3276      435F4154 
 3276      4F4D4943 
 3276      5F504F49 
 3276      4E544552 
 3277 1776 01       		.byte	0x1
 3278 1777 00       		.uleb128 0
 3279 1778 5F5F4743 		.ascii "__GCC_HAVE_DWARF2_CFI_ASM 1\0"
 3279      435F4841 
 3279      56455F44 
 3279      57415246 
 3279      325F4346 
 3280 1794 01       		.byte	0x1
 3281 1795 00       		.uleb128 0
 3282 1796 5F5F5052 		.ascii "__PRAGMA_REDEFINE_EXTNAME 1\0"
 3282      41474D41 
 3282      5F524544 
 3282      4546494E 
 3282      455F4558 
 3283 17b2 01       		.byte	0x1
 3284 17b3 00       		.uleb128 0
 3285 17b4 5F5F5349 		.ascii "__SIZEOF_WCHAR_T__ 2\0"
 3285      5A454F46 
 3285      5F574348 
 3285      41525F54 
 3285      5F5F2032 
 3286 17c9 01       		.byte	0x1
 3287 17ca 00       		.uleb128 0
 3288 17cb 5F5F5349 		.ascii "__SIZEOF_WINT_T__ 2\0"
 3288      5A454F46 
 3288      5F57494E 
 3288      545F545F 
 3288      5F203200 
 3289 17df 01       		.byte	0x1
 3290 17e0 00       		.uleb128 0
 3291 17e1 5F5F5349 		.ascii "__SIZEOF_PTRDIFF_T__ 4\0"
 3291      5A454F46 
 3291      5F505452 
 3291      44494646 
 3291      5F545F5F 
 3292 17f8 01       		.byte	0x1
 3293 17f9 00       		.uleb128 0
 3294 17fa 5F5F6933 		.ascii "__i386 1\0"
GAS LISTING C:\Users\PRESID~1\AppData\Local\Temp\ccylhMgF.s 			page 95


 3294      38362031 
 3294      00
 3295 1803 01       		.byte	0x1
 3296 1804 00       		.uleb128 0
 3297 1805 5F5F6933 		.ascii "__i386__ 1\0"
 3297      38365F5F 
 3297      203100
 3298 1810 01       		.byte	0x1
 3299 1811 00       		.uleb128 0
 3300 1812 5F5F4154 		.ascii "__ATOMIC_HLE_ACQUIRE 65536\0"
 3300      4F4D4943 
 3300      5F484C45 
 3300      5F414351 
 3300      55495245 
 3301 182d 01       		.byte	0x1
 3302 182e 00       		.uleb128 0
 3303 182f 5F5F4154 		.ascii "__ATOMIC_HLE_RELEASE 131072\0"
 3303      4F4D4943 
 3303      5F484C45 
 3303      5F52454C 
 3303      45415345 
 3304 184b 01       		.byte	0x1
 3305 184c 00       		.uleb128 0
 3306 184d 5F5F7475 		.ascii "__tune_i386__ 1\0"
 3306      6E655F69 
 3306      3338365F 
 3306      5F203100 
 3307 185d 01       		.byte	0x1
 3308 185e 00       		.uleb128 0
 3309 185f 5F5F636F 		.ascii "__code_model_32__ 1\0"
 3309      64655F6D 
 3309      6F64656C 
 3309      5F33325F 
 3309      5F203100 
 3310 1873 01       		.byte	0x1
 3311 1874 00       		.uleb128 0
 3312 1875 5F583836 		.ascii "_X86_ 1\0"
 3312      5F203100 
 3313 187d 01       		.byte	0x1
 3314 187e 00       		.uleb128 0
 3315 187f 5F5F7374 		.ascii "__stdcall __attribute__((__stdcall__))\0"
 3315      6463616C 
 3315      6C205F5F 
 3315      61747472 
 3315      69627574 
 3316 18a6 01       		.byte	0x1
 3317 18a7 00       		.uleb128 0
 3318 18a8 5F5F6661 		.ascii "__fastcall __attribute__((__fastcall__))\0"
 3318      73746361 
 3318      6C6C205F 
 3318      5F617474 
 3318      72696275 
 3319 18d1 01       		.byte	0x1
 3320 18d2 00       		.uleb128 0
 3321 18d3 5F5F7468 		.ascii "__thiscall __attribute__((__thiscall__))\0"
 3321      69736361 
 3321      6C6C205F 
GAS LISTING C:\Users\PRESID~1\AppData\Local\Temp\ccylhMgF.s 			page 96


 3321      5F617474 
 3321      72696275 
 3322 18fc 01       		.byte	0x1
 3323 18fd 00       		.uleb128 0
 3324 18fe 5F5F6364 		.ascii "__cdecl __attribute__((__cdecl__))\0"
 3324      65636C20 
 3324      5F5F6174 
 3324      74726962 
 3324      7574655F 
 3325 1921 01       		.byte	0x1
 3326 1922 00       		.uleb128 0
 3327 1923 5F5F4758 		.ascii "__GXX_MERGED_TYPEINFO_NAMES 0\0"
 3327      585F4D45 
 3327      52474544 
 3327      5F545950 
 3327      45494E46 
 3328 1941 01       		.byte	0x1
 3329 1942 00       		.uleb128 0
 3330 1943 5F5F4758 		.ascii "__GXX_TYPEINFO_EQUALITY_INLINE 0\0"
 3330      585F5459 
 3330      5045494E 
 3330      464F5F45 
 3330      5155414C 
 3331 1964 01       		.byte	0x1
 3332 1965 00       		.uleb128 0
 3333 1966 5F5F4D53 		.ascii "__MSVCRT__ 1\0"
 3333      56435254 
 3333      5F5F2031 
 3333      00
 3334 1973 01       		.byte	0x1
 3335 1974 00       		.uleb128 0
 3336 1975 5F5F4D49 		.ascii "__MINGW32__ 1\0"
 3336      4E475733 
 3336      325F5F20 
 3336      3100
 3337 1983 01       		.byte	0x1
 3338 1984 00       		.uleb128 0
 3339 1985 5F57494E 		.ascii "_WIN32 1\0"
 3339      33322031 
 3339      00
 3340 198e 01       		.byte	0x1
 3341 198f 00       		.uleb128 0
 3342 1990 5F5F5749 		.ascii "__WIN32 1\0"
 3342      4E333220 
 3342      3100
 3343 199a 01       		.byte	0x1
 3344 199b 00       		.uleb128 0
 3345 199c 5F5F5749 		.ascii "__WIN32__ 1\0"
 3345      4E33325F 
 3345      5F203100 
 3346 19a8 01       		.byte	0x1
 3347 19a9 00       		.uleb128 0
 3348 19aa 5F5F5749 		.ascii "__WINNT 1\0"
 3348      4E4E5420 
 3348      3100
 3349 19b4 01       		.byte	0x1
 3350 19b5 00       		.uleb128 0
GAS LISTING C:\Users\PRESID~1\AppData\Local\Temp\ccylhMgF.s 			page 97


 3351 19b6 5F5F5749 		.ascii "__WINNT__ 1\0"
 3351      4E4E545F 
 3351      5F203100 
 3352 19c2 01       		.byte	0x1
 3353 19c3 00       		.uleb128 0
 3354 19c4 5F494E54 		.ascii "_INTEGRAL_MAX_BITS 64\0"
 3354      45475241 
 3354      4C5F4D41 
 3354      585F4249 
 3354      54532036 
 3355 19da 01       		.byte	0x1
 3356 19db 00       		.uleb128 0
 3357 19dc 5F5F6465 		.ascii "__declspec(x) __attribute__((x))\0"
 3357      636C7370 
 3357      65632878 
 3357      29205F5F 
 3357      61747472 
 3358 19fd 01       		.byte	0x1
 3359 19fe 00       		.uleb128 0
 3360 19ff 5F5F4445 		.ascii "__DECIMAL_BID_FORMAT__ 1\0"
 3360      43494D41 
 3360      4C5F4249 
 3360      445F464F 
 3360      524D4154 
 3361 1a18 01       		.byte	0x1
 3362 1a19 00       		.uleb128 0
 3363 1a1a 4346475F 		.ascii "CFG_PROCESSOR 3\0"
 3363      50524F43 
 3363      4553534F 
 3363      52203300 
 3364 1a2a 03       		.byte	0x3
 3365 1a2b 00       		.uleb128 0
 3366 1a2c 01       		.uleb128 0x1
 3367              		.file 8 "E:/NeuOrga/Programmieren/c_cpp/github_os/input/src/os_base/os_firstinc.h"
 3368 1a2d 03       		.byte	0x3
 3369 1a2e 01       		.uleb128 0x1
 3370 1a2f 08       		.uleb128 0x8
 3371 1a30 01       		.byte	0x1
 3372 1a31 02       		.uleb128 0x2
 3373 1a32 5F6F735F 		.ascii "_os_firstinc_h_ \0"
 3373      66697273 
 3373      74696E63 
 3373      5F685F20 
 3373      00
 3374 1a43 03       		.byte	0x3
 3375 1a44 04       		.uleb128 0x4
 3376 1a45 02       		.uleb128 0x2
 3377 1a46 01       		.byte	0x1
 3378 1a47 02       		.uleb128 0x2
 3379 1a48 5F424153 		.ascii "_BASE_TYPES_H_ \0"
 3379      455F5459 
 3379      5045535F 
 3379      485F2000 
 3380 1a58 01       		.byte	0x1
 3381 1a59 04       		.uleb128 0x4
 3382 1a5a 494E5445 		.ascii "INTEGER_LLP64_IL32P64 1\0"
 3382      4745525F 
GAS LISTING C:\Users\PRESID~1\AppData\Local\Temp\ccylhMgF.s 			page 98


 3382      4C4C5036 
 3382      345F494C 
 3382      33325036 
 3383 1a72 01       		.byte	0x1
 3384 1a73 05       		.uleb128 0x5
 3385 1a74 494E5445 		.ascii "INTEGER_LP64_I32LP64 2\0"
 3385      4745525F 
 3385      4C503634 
 3385      5F493332 
 3385      4C503634 
 3386 1a8b 01       		.byte	0x1
 3387 1a8c 06       		.uleb128 0x6
 3388 1a8d 494E5445 		.ascii "INTEGER_ILP64 3\0"
 3388      4745525F 
 3388      494C5036 
 3388      34203300 
 3389 1a9d 01       		.byte	0x1
 3390 1a9e 07       		.uleb128 0x7
 3391 1a9f 494E5445 		.ascii "INTEGER_SILP64 4\0"
 3391      4745525F 
 3391      53494C50 
 3391      36342034 
 3391      00
 3392 1ab0 01       		.byte	0x1
 3393 1ab1 09       		.uleb128 0x9
 3394 1ab2 4350505F 		.ascii "CPP_VERSION_NONE 0\0"
 3394      56455253 
 3394      494F4E5F 
 3394      4E4F4E45 
 3394      203000
 3395 1ac5 01       		.byte	0x1
 3396 1ac6 0A       		.uleb128 0xa
 3397 1ac7 4350505F 		.ascii "CPP_VERSION_1998 1\0"
 3397      56455253 
 3397      494F4E5F 
 3397      31393938 
 3397      203100
 3398 1ada 01       		.byte	0x1
 3399 1adb 0B       		.uleb128 0xb
 3400 1adc 4350505F 		.ascii "CPP_VERSION_2003 2\0"
 3400      56455253 
 3400      494F4E5F 
 3400      32303033 
 3400      203200
 3401 1aef 01       		.byte	0x1
 3402 1af0 0C       		.uleb128 0xc
 3403 1af1 4350505F 		.ascii "CPP_VERSION_2007 3\0"
 3403      56455253 
 3403      494F4E5F 
 3403      32303037 
 3403      203300
 3404 1b04 01       		.byte	0x1
 3405 1b05 0D       		.uleb128 0xd
 3406 1b06 4350505F 		.ascii "CPP_VERSION_2011 4\0"
 3406      56455253 
 3406      494F4E5F 
 3406      32303131 
GAS LISTING C:\Users\PRESID~1\AppData\Local\Temp\ccylhMgF.s 			page 99


 3406      203400
 3407 1b19 01       		.byte	0x1
 3408 1b1a 0E       		.uleb128 0xe
 3409 1b1b 49534F5F 		.ascii "ISO_CPP_VERSION CPP_VERSION_1998\0"
 3409      4350505F 
 3409      56455253 
 3409      494F4E20 
 3409      4350505F 
 3410 1b3c 01       		.byte	0x1
 3411 1b3d 10       		.uleb128 0x10
 3412 1b3e 494E5445 		.ascii "INTEGER_MODEL INTEGER_LLP64_IL32P64\0"
 3412      4745525F 
 3412      4D4F4445 
 3412      4C20494E 
 3412      54454745 
 3413 1b62 04       		.byte	0x4
 3414 1b63 03       		.byte	0x3
 3415 1b64 05       		.uleb128 0x5
 3416 1b65 03       		.uleb128 0x3
 3417 1b66 01       		.byte	0x1
 3418 1b67 02       		.uleb128 0x2
 3419 1b68 5F6F735F 		.ascii "_os_common_h_ \0"
 3419      636F6D6D 
 3419      6F6E5F68 
 3419      5F2000
 3420 1b77 01       		.byte	0x1
 3421 1b78 06       		.uleb128 0x6
 3422 1b79 46616C73 		.ascii "False 0\0"
 3422      65203000 
 3423 1b81 01       		.byte	0x1
 3424 1b82 07       		.uleb128 0x7
 3425 1b83 54727565 		.ascii "True 1\0"
 3425      203100
 3426 1b8a 01       		.byte	0x1
 3427 1b8b 08       		.uleb128 0x8
 3428 1b8c 46414C53 		.ascii "FALSE False\0"
 3428      45204661 
 3428      6C736500 
 3429 1b98 01       		.byte	0x1
 3430 1b99 09       		.uleb128 0x9
 3431 1b9a 54525545 		.ascii "TRUE True\0"
 3431      20547275 
 3431      6500
 3432 1ba4 01       		.byte	0x1
 3433 1ba5 0A       		.uleb128 0xa
 3434 1ba6 41636365 		.ascii "Accepted 1\0"
 3434      70746564 
 3434      203100
 3435 1bb1 01       		.byte	0x1
 3436 1bb2 0B       		.uleb128 0xb
 3437 1bb3 52656A65 		.ascii "Rejected 0\0"
 3437      63746564 
 3437      203000
 3438 1bbe 01       		.byte	0x1
 3439 1bbf 0C       		.uleb128 0xc
 3440 1bc0 4C6F6361 		.ascii "Local static\0"
 3440      6C207374 
GAS LISTING C:\Users\PRESID~1\AppData\Local\Temp\ccylhMgF.s 			page 100


 3440      61746963 
 3440      00
 3441 1bcd 01       		.byte	0x1
 3442 1bce 0D       		.uleb128 0xd
 3443 1bcf 4C6F6361 		.ascii "Local_inline static __inline__\0"
 3443      6C5F696E 
 3443      6C696E65 
 3443      20737461 
 3443      74696320 
 3444 1bee 01       		.byte	0x1
 3445 1bef 0E       		.uleb128 0xe
 3446 1bf0 476C6F62 		.ascii "Global_inline __inline__\0"
 3446      616C5F69 
 3446      6E6C696E 
 3446      65205F5F 
 3446      696E6C69 
 3447 1c09 01       		.byte	0x1
 3448 1c0a 0F       		.uleb128 0xf
 3449 1c0b 52656665 		.ascii "ReferenceUnusedParameter(x) ((x) = (x))\0"
 3449      72656E63 
 3449      65556E75 
 3449      73656450 
 3449      6172616D 
 3450 1c33 01       		.byte	0x1
 3451 1c34 10       		.uleb128 0x10
 3452 1c35 44796E61 		.ascii "DynamicMemoryUsed False\0"
 3452      6D69634D 
 3452      656D6F72 
 3452      79557365 
 3452      64204661 
 3453 1c4d 01       		.byte	0x1
 3454 1c4e 13       		.uleb128 0x13
 3455 1c4f 634D4355 		.ascii "cMCU_X86 3\0"
 3455      5F583836 
 3455      203300
 3456 1c5a 01       		.byte	0x1
 3457 1c5b 14       		.uleb128 0x14
 3458 1c5c 634D4355 		.ascii "cMCU_CORTEX_M4 4\0"
 3458      5F434F52 
 3458      5445585F 
 3458      4D342034 
 3458      00
 3459 1c6d 01       		.byte	0x1
 3460 1c6e 17       		.uleb128 0x17
 3461 1c6f 4E525F4F 		.ascii "NR_OF_CORES 1\0"
 3461      465F434F 
 3461      52455320 
 3461      3100
 3462 1c7d 01       		.byte	0x1
 3463 1c7e 19       		.uleb128 0x19
 3464 1c7f 4D43555F 		.ascii "MCU_CLOCK_IN_HZ ((uint32)168000000u)\0"
 3464      434C4F43 
 3464      4B5F494E 
 3464      5F485A20 
 3464      28287569 
 3465 1ca4 01       		.byte	0x1
 3466 1ca5 1D       		.uleb128 0x1d
GAS LISTING C:\Users\PRESID~1\AppData\Local\Temp\ccylhMgF.s 			page 101


 3467 1ca6 44697361 		.ascii "DisableInterrupts() \0"
 3467      626C6549 
 3467      6E746572 
 3467      72757074 
 3467      73282920 
 3468 1cbb 01       		.byte	0x1
 3469 1cbc 1E       		.uleb128 0x1e
 3470 1cbd 456E6162 		.ascii "EnableInterrupts() \0"
 3470      6C65496E 
 3470      74657272 
 3470      75707473 
 3470      28292000 
 3471 1cd1 01       		.byte	0x1
 3472 1cd2 1F       		.uleb128 0x1f
 3473 1cd3 50726976 		.ascii "Privilige_level_save_current() \0"
 3473      696C6967 
 3473      655F6C65 
 3473      76656C5F 
 3473      73617665 
 3474 1cf3 01       		.byte	0x1
 3475 1cf4 20       		.uleb128 0x20
 3476 1cf5 50726976 		.ascii "Privilige_level_enter_kernel_mode() \0"
 3476      696C6967 
 3476      655F6C65 
 3476      76656C5F 
 3476      656E7465 
 3477 1d1a 01       		.byte	0x1
 3478 1d1b 21       		.uleb128 0x21
 3479 1d1c 50726976 		.ascii "Privilige_level_restore_saved() \0"
 3479      696C6967 
 3479      655F6C65 
 3479      76656C5F 
 3479      72657374 
 3480 1d3d 01       		.byte	0x1
 3481 1d3e 22       		.uleb128 0x22
 3482 1d3f 48616C74 		.ascii "HaltMcu() \0"
 3482      4D637528 
 3482      292000
 3483 1d4a 04       		.byte	0x4
 3484              		.file 9 "E:/NeuOrga/Programmieren/c_cpp/github_os/input/src/os_base/../os_sim/lld_global.h"
 3485 1d4b 03       		.byte	0x3
 3486 1d4c 08       		.uleb128 0x8
 3487 1d4d 09       		.uleb128 0x9
 3488 1d4e 01       		.byte	0x1
 3489 1d4f 02       		.uleb128 0x2
 3490 1d50 5F6C6C64 		.ascii "_lld_global_h_ \0"
 3490      5F676C6F 
 3490      62616C5F 
 3490      685F2000 
 3491 1d60 03       		.byte	0x3
 3492 1d61 04       		.uleb128 0x4
 3493 1d62 04       		.uleb128 0x4
 3494 1d63 01       		.byte	0x1
 3495 1d64 02       		.uleb128 0x2
 3496 1d65 5F6C6C64 		.ascii "_lld_core_h_ \0"
 3496      5F636F72 
 3496      655F685F 
GAS LISTING C:\Users\PRESID~1\AppData\Local\Temp\ccylhMgF.s 			page 102


 3496      2000
 3497              		.file 10 "E:/NeuOrga/Programmieren/c_cpp/github_os/input/src/os_base/../os_sim/../os_base/os_first
 3498 1d73 03       		.byte	0x3
 3499 1d74 03       		.uleb128 0x3
 3500 1d75 0A       		.uleb128 0xa
 3501 1d76 04       		.byte	0x4
 3502 1d77 04       		.byte	0x4
 3503              		.file 11 "E:/NeuOrga/Programmieren/c_cpp/github_os/input/src/os_base/../os_sim/lld_interrupt.h"
 3504 1d78 03       		.byte	0x3
 3505 1d79 05       		.uleb128 0x5
 3506 1d7a 0B       		.uleb128 0xb
 3507 1d7b 01       		.byte	0x1
 3508 1d7c 02       		.uleb128 0x2
 3509 1d7d 5F6C6C64 		.ascii "_lld_interrupt_h_ \0"
 3509      5F696E74 
 3509      65727275 
 3509      70745F68 
 3509      5F2000
 3510 1d90 01       		.byte	0x1
 3511 1d91 05       		.uleb128 0x5
 3512 1d92 6F735F69 		.ascii "os_interrupt_swi_1 asm(\"swi 1\")\0"
 3512      6E746572 
 3512      72757074 
 3512      5F737769 
 3512      5F312061 
 3513 1db2 01       		.byte	0x1
 3514 1db3 06       		.uleb128 0x6
 3515 1db4 6F735F69 		.ascii "os_interrupt_swi_2 asm(\"swi 2\")\0"
 3515      6E746572 
 3515      72757074 
 3515      5F737769 
 3515      5F322061 
 3516 1dd4 01       		.byte	0x1
 3517 1dd5 07       		.uleb128 0x7
 3518 1dd6 6F735F69 		.ascii "os_interrupt_swi_3 asm(\"swi 3\")\0"
 3518      6E746572 
 3518      72757074 
 3518      5F737769 
 3518      5F332061 
 3519 1df6 01       		.byte	0x1
 3520 1df7 08       		.uleb128 0x8
 3521 1df8 6F735F69 		.ascii "os_interrupt_swi_4 asm(\"swi 4\")\0"
 3521      6E746572 
 3521      72757074 
 3521      5F737769 
 3521      5F342061 
 3522 1e18 01       		.byte	0x1
 3523 1e19 09       		.uleb128 0x9
 3524 1e1a 6F735F69 		.ascii "os_interrupt_swi_5 asm(\"swi 5\")\0"
 3524      6E746572 
 3524      72757074 
 3524      5F737769 
 3524      5F352061 
 3525 1e3a 04       		.byte	0x4
 3526              		.file 12 "E:/NeuOrga/Programmieren/c_cpp/github_os/input/src/os_base/../os_sim/lld_mmu.h"
 3527 1e3b 03       		.byte	0x3
 3528 1e3c 06       		.uleb128 0x6
GAS LISTING C:\Users\PRESID~1\AppData\Local\Temp\ccylhMgF.s 			page 103


 3529 1e3d 0C       		.uleb128 0xc
 3530 1e3e 01       		.byte	0x1
 3531 1e3f 02       		.uleb128 0x2
 3532 1e40 5F6C6C64 		.ascii "_lld_mmu_h_ \0"
 3532      5F6D6D75 
 3532      5F685F20 
 3532      00
 3533 1e4d 04       		.byte	0x4
 3534              		.file 13 "E:/NeuOrga/Programmieren/c_cpp/github_os/input/src/os_base/../os_sim/lld_timer.h"
 3535 1e4e 03       		.byte	0x3
 3536 1e4f 07       		.uleb128 0x7
 3537 1e50 0D       		.uleb128 0xd
 3538 1e51 01       		.byte	0x1
 3539 1e52 02       		.uleb128 0x2
 3540 1e53 5F6C6C64 		.ascii "_lld_timer_h_ \0"
 3540      5F74696D 
 3540      65725F68 
 3540      5F2000
 3541 1e62 04       		.byte	0x4
 3542              		.file 14 "E:/NeuOrga/Programmieren/c_cpp/github_os/input/src/os_base/../os_sim/lld_power.h"
 3543 1e63 03       		.byte	0x3
 3544 1e64 08       		.uleb128 0x8
 3545 1e65 0E       		.uleb128 0xe
 3546 1e66 01       		.byte	0x1
 3547 1e67 02       		.uleb128 0x2
 3548 1e68 5F6C6C64 		.ascii "_lld_power_h_ \0"
 3548      5F706F77 
 3548      65725F68 
 3548      5F2000
 3549 1e77 04       		.byte	0x4
 3550              		.file 15 "E:/NeuOrga/Programmieren/c_cpp/github_os/input/src/os_base/../os_sim/lld_ram.h"
 3551 1e78 03       		.byte	0x3
 3552 1e79 09       		.uleb128 0x9
 3553 1e7a 0F       		.uleb128 0xf
 3554 1e7b 01       		.byte	0x1
 3555 1e7c 02       		.uleb128 0x2
 3556 1e7d 5F6C6C64 		.ascii "_lld_ram_h_ \0"
 3556      5F72616D 
 3556      5F685F20 
 3556      00
 3557 1e8a 04       		.byte	0x4
 3558 1e8b 03       		.byte	0x3
 3559 1e8c 0A       		.uleb128 0xa
 3560 1e8d 05       		.uleb128 0x5
 3561 1e8e 01       		.byte	0x1
 3562 1e8f 02       		.uleb128 0x2
 3563 1e90 5F6F735F 		.ascii "_os_task_common_h_ \0"
 3563      7461736B 
 3563      5F636F6D 
 3563      6D6F6E5F 
 3563      685F2000 
 3564 1ea4 03       		.byte	0x3
 3565 1ea5 03       		.uleb128 0x3
 3566 1ea6 0A       		.uleb128 0xa
 3567 1ea7 04       		.byte	0x4
 3568              		.file 16 "E:/NeuOrga/Programmieren/c_cpp/github_os/input/src/os_base/../os_sim/../os_base/os_task_
 3569 1ea8 03       		.byte	0x3
GAS LISTING C:\Users\PRESID~1\AppData\Local\Temp\ccylhMgF.s 			page 104


 3570 1ea9 04       		.uleb128 0x4
 3571 1eaa 10       		.uleb128 0x10
 3572 1eab 01       		.byte	0x1
 3573 1eac 02       		.uleb128 0x2
 3574 1ead 5F6F735F 		.ascii "_os_task_config_h_ \0"
 3574      7461736B 
 3574      5F636F6E 
 3574      6669675F 
 3574      685F2000 
 3575 1ec1 01       		.byte	0x1
 3576 1ec2 05       		.uleb128 0x5
 3577 1ec3 53636865 		.ascii "SchedulerFrequency (1.0e3)\0"
 3577      64756C65 
 3577      72467265 
 3577      7175656E 
 3577      63792028 
 3578 1ede 01       		.byte	0x1
 3579 1edf 06       		.uleb128 0x6
 3580 1ee0 4D696E54 		.ascii "MinTimeSlice_s (1.0/SchedulerFrequency)\0"
 3580      696D6553 
 3580      6C696365 
 3580      5F732028 
 3580      312E302F 
 3581 1f08 01       		.byte	0x1
 3582 1f09 07       		.uleb128 0x7
 3583 1f0a 4D696E54 		.ascii "MinTimeSlice_us ((1.0/SchedulerFrequency)*1e6)\0"
 3583      696D6553 
 3583      6C696365 
 3583      5F757320 
 3583      2828312E 
 3584 1f39 01       		.byte	0x1
 3585 1f3a 08       		.uleb128 0x8
 3586 1f3b 5461736B 		.ascii "Task_min_time (1e0)\0"
 3586      5F6D696E 
 3586      5F74696D 
 3586      65202831 
 3586      65302900 
 3587 1f4f 01       		.byte	0x1
 3588 1f50 09       		.uleb128 0x9
 3589 1f51 4E554D42 		.ascii "NUMBER_OF_TASKS 10\0"
 3589      45525F4F 
 3589      465F5441 
 3589      534B5320 
 3589      313000
 3590 1f64 01       		.byte	0x1
 3591 1f65 0A       		.uleb128 0xa
 3592 1f66 4D41585F 		.ascii "MAX_RUN_QUEUE_SIZE (NUMBER_OF_TASKS)\0"
 3592      52554E5F 
 3592      51554555 
 3592      455F5349 
 3592      5A452028 
 3593 1f8b 01       		.byte	0x1
 3594 1f8c 0B       		.uleb128 0xb
 3595 1f8d 4D41585F 		.ascii "MAX_RUN_PQUEUE_SIZE MAX_RUN_QUEUE_SIZE\0"
 3595      52554E5F 
 3595      50515545 
 3595      55455F53 
GAS LISTING C:\Users\PRESID~1\AppData\Local\Temp\ccylhMgF.s 			page 105


 3595      495A4520 
 3596 1fb4 01       		.byte	0x1
 3597 1fb5 0D       		.uleb128 0xd
 3598 1fb6 5441534B 		.ascii "TASK_STACK_SIZE 2000\0"
 3598      5F535441 
 3598      434B5F53 
 3598      495A4520 
 3598      32303030 
 3599 1fcb 01       		.byte	0x1
 3600 1fcc 10       		.uleb128 0x10
 3601 1fcd 4D535F50 		.ascii "MS_PER_SEC (1000)\0"
 3601      45525F53 
 3601      45432028 
 3601      31303030 
 3601      2900
 3602 1fdf 01       		.byte	0x1
 3603 1fe0 11       		.uleb128 0x11
 3604 1fe1 5553455F 		.ascii "USE_STATIC_CREATED_TASKS True\0"
 3604      53544154 
 3604      49435F43 
 3604      52454154 
 3604      45445F54 
 3605 1fff 04       		.byte	0x4
 3606              		.file 17 "E:/NeuOrga/Programmieren/c_cpp/github_os/input/src/os_base/../os_sim/../os_base/os_init_
 3607 2000 03       		.byte	0x3
 3608 2001 05       		.uleb128 0x5
 3609 2002 11       		.uleb128 0x11
 3610 2003 01       		.byte	0x1
 3611 2004 02       		.uleb128 0x2
 3612 2005 5F6F735F 		.ascii "_os_init_task_system_h_ \0"
 3612      696E6974 
 3612      5F746173 
 3612      6B5F7379 
 3612      7374656D 
 3613 201e 04       		.byte	0x4
 3614 201f 01       		.byte	0x1
 3615 2020 5F       		.uleb128 0x5f
 3616 2021 6F735F53 		.ascii "os_SaveTaskPtr(task_ptr,task_name) (TASK_PTR[(task_name)] = (task_ptr))\0"
 3616      61766554 
 3616      61736B50 
 3616      74722874 
 3616      61736B5F 
 3617 2069 01       		.byte	0x1
 3618 206a 60       		.uleb128 0x60
 3619 206b 6F735F47 		.ascii "os_GetTaskPtr(task_name) ((task_t*) TASK_PTR[(task_name)])\0"
 3619      65745461 
 3619      736B5074 
 3619      72287461 
 3619      736B5F6E 
 3620 20a6 04       		.byte	0x4
 3621 20a7 04       		.byte	0x4
 3622              		.file 18 "E:/NeuOrga/Programmieren/c_cpp/github_os/input/src/os_base/../os_user_code/led.h"
 3623 20a8 03       		.byte	0x3
 3624 20a9 0C       		.uleb128 0xc
 3625 20aa 12       		.uleb128 0x12
 3626 20ab 01       		.byte	0x1
 3627 20ac 02       		.uleb128 0x2
GAS LISTING C:\Users\PRESID~1\AppData\Local\Temp\ccylhMgF.s 			page 106


 3628 20ad 5F4C4544 		.ascii "_LED_H_ \0"
 3628      5F485F20 
 3628      00
 3629 20b6 04       		.byte	0x4
 3630 20b7 03       		.byte	0x3
 3631 20b8 0E       		.uleb128 0xe
 3632 20b9 07       		.uleb128 0x7
 3633 20ba 01       		.byte	0x1
 3634 20bb 02       		.uleb128 0x2
 3635 20bc 5F4F535F 		.ascii "_OS_RAM_H_ \0"
 3635      52414D5F 
 3635      485F2000 
 3636              		.file 19 "E:/NeuOrga/Programmieren/c_cpp/github_os/input/src/os_base/../os_base/os_firstinc.h"
 3637 20c8 03       		.byte	0x3
 3638 20c9 04       		.uleb128 0x4
 3639 20ca 13       		.uleb128 0x13
 3640 20cb 04       		.byte	0x4
 3641              		.file 20 "E:/NeuOrga/Programmieren/c_cpp/github_os/input/src/os_base/../os_base/os_stack.h"
 3642 20cc 03       		.byte	0x3
 3643 20cd 05       		.uleb128 0x5
 3644 20ce 14       		.uleb128 0x14
 3645 20cf 01       		.byte	0x1
 3646 20d0 02       		.uleb128 0x2
 3647 20d1 5F6F735F 		.ascii "_os_stack_h_ \0"
 3647      73746163 
 3647      6B5F685F 
 3647      2000
 3648 20df 01       		.byte	0x1
 3649 20e0 04       		.uleb128 0x4
 3650 20e1 4F535F53 		.ascii "OS_STACK_SIZE 0x5000u\0"
 3650      5441434B 
 3650      5F53495A 
 3650      45203078 
 3650      35303030 
 3651 20f7 01       		.byte	0x1
 3652 20f8 06       		.uleb128 0x6
 3653 20f9 4F535F53 		.ascii "OS_STACK_SIZE_END 0x01u\0"
 3653      5441434B 
 3653      5F53495A 
 3653      455F454E 
 3653      44203078 
 3654 2111 04       		.byte	0x4
 3655              		.file 21 "E:/NeuOrga/Programmieren/c_cpp/github_os/input/src/os_base/../os_base/os_heap.h"
 3656 2112 03       		.byte	0x3
 3657 2113 06       		.uleb128 0x6
 3658 2114 15       		.uleb128 0x15
 3659 2115 01       		.byte	0x1
 3660 2116 02       		.uleb128 0x2
 3661 2117 5F6F735F 		.ascii "_os_heap_h_ \0"
 3661      68656170 
 3661      5F685F20 
 3661      00
 3662 2124 01       		.byte	0x1
 3663 2125 05       		.uleb128 0x5
 3664 2126 48454150 		.ascii "HEAP_SIZE 10000\0"
 3664      5F53495A 
 3664      45203130 
GAS LISTING C:\Users\PRESID~1\AppData\Local\Temp\ccylhMgF.s 			page 107


 3664      30303000 
 3665 2136 01       		.byte	0x1
 3666 2137 06       		.uleb128 0x6
 3667 2138 4D494E5F 		.ascii "MIN_BLOCK_SIZE_HEAP 8\0"
 3667      424C4F43 
 3667      4B5F5349 
 3667      5A455F48 
 3667      45415020 
 3668 214e 01       		.byte	0x1
 3669 214f 09       		.uleb128 0x9
 3670 2150 48454150 		.ascii "HEAP_OFFSET_FOR_SIZE 0\0"
 3670      5F4F4646 
 3670      5345545F 
 3670      464F525F 
 3670      53495A45 
 3671 2167 01       		.byte	0x1
 3672 2168 0A       		.uleb128 0xa
 3673 2169 48454150 		.ascii "HEAP_OFFSET_FOR_USED_SIZE 4\0"
 3673      5F4F4646 
 3673      5345545F 
 3673      464F525F 
 3673      55534544 
 3674 2185 01       		.byte	0x1
 3675 2186 0B       		.uleb128 0xb
 3676 2187 48454150 		.ascii "HEAP_OFFSET_FOR_CHUNK 8\0"
 3676      5F4F4646 
 3676      5345545F 
 3676      464F525F 
 3676      4348554E 
 3677 219f 04       		.byte	0x4
 3678              		.file 22 "E:/NeuOrga/Programmieren/c_cpp/github_os/input/src/os_base/../os_base/os_main.h"
 3679 21a0 03       		.byte	0x3
 3680 21a1 07       		.uleb128 0x7
 3681 21a2 16       		.uleb128 0x16
 3682 21a3 01       		.byte	0x1
 3683 21a4 02       		.uleb128 0x2
 3684 21a5 5F6F735F 		.ascii "_os_main_h_ \0"
 3684      6D61696E 
 3684      5F685F20 
 3684      00
 3685 21b2 01       		.byte	0x1
 3686 21b3 03       		.uleb128 0x3
 3687 21b4 6F735F69 		.ascii "os_init 0\0"
 3687      6E697420 
 3687      3000
 3688 21be 01       		.byte	0x1
 3689 21bf 04       		.uleb128 0x4
 3690 21c0 6F735F72 		.ascii "os_running 1\0"
 3690      756E6E69 
 3690      6E672031 
 3690      00
 3691 21cd 01       		.byte	0x1
 3692 21ce 05       		.uleb128 0x5
 3693 21cf 6F735F73 		.ascii "os_shutdown 2\0"
 3693      68757464 
 3693      6F776E20 
 3693      3200
GAS LISTING C:\Users\PRESID~1\AppData\Local\Temp\ccylhMgF.s 			page 108


 3694 21dd 04       		.byte	0x4
 3695              		.file 23 "E:/NeuOrga/Programmieren/c_cpp/github_os/input/src/os_base/../os_base/os_task_config.h"
 3696 21de 03       		.byte	0x3
 3697 21df 08       		.uleb128 0x8
 3698 21e0 17       		.uleb128 0x17
 3699 21e1 04       		.byte	0x4
 3700              		.file 24 "E:/NeuOrga/Programmieren/c_cpp/github_os/input/src/os_base/../os_base/os_task_common.h"
 3701 21e2 03       		.byte	0x3
 3702 21e3 09       		.uleb128 0x9
 3703 21e4 18       		.uleb128 0x18
 3704 21e5 04       		.byte	0x4
 3705 21e6 04       		.byte	0x4
 3706 21e7 04       		.byte	0x4
 3707              		.file 25 "E:/NeuOrga/Programmieren/c_cpp/github_os/input/src/os_base/os_common.h"
 3708 21e8 03       		.byte	0x3
 3709 21e9 02       		.uleb128 0x2
 3710 21ea 19       		.uleb128 0x19
 3711 21eb 04       		.byte	0x4
 3712              		.file 26 "E:/NeuOrga/Programmieren/c_cpp/github_os/input/src/os_base/os_task_common.h"
 3713 21ec 03       		.byte	0x3
 3714 21ed 03       		.uleb128 0x3
 3715 21ee 1A       		.uleb128 0x1a
 3716 21ef 04       		.byte	0x4
 3717 21f0 03       		.byte	0x3
 3718 21f1 04       		.uleb128 0x4
 3719 21f2 06       		.uleb128 0x6
 3720 21f3 01       		.byte	0x1
 3721 21f4 02       		.uleb128 0x2
 3722 21f5 5F6F735F 		.ascii "_os_task_scheduler_h_ \0"
 3722      7461736B 
 3722      5F736368 
 3722      6564756C 
 3722      65725F68 
 3723 220c 01       		.byte	0x1
 3724 220d 07       		.uleb128 0x7
 3725 220e 5461736B 		.ascii "Task_0_ptr 0\0"
 3725      5F305F70 
 3725      74722030 
 3725      00
 3726 221b 01       		.byte	0x1
 3727 221c 08       		.uleb128 0x8
 3728 221d 5461736B 		.ascii "Task_1_ptr 1\0"
 3728      5F315F70 
 3728      74722031 
 3728      00
 3729 222a 01       		.byte	0x1
 3730 222b 09       		.uleb128 0x9
 3731 222c 5461736B 		.ascii "Task_2_ptr 2\0"
 3731      5F325F70 
 3731      74722032 
 3731      00
 3732 2239 01       		.byte	0x1
 3733 223a 0A       		.uleb128 0xa
 3734 223b 5461736B 		.ascii "Task_3_ptr 3\0"
 3734      5F335F70 
 3734      74722033 
 3734      00
GAS LISTING C:\Users\PRESID~1\AppData\Local\Temp\ccylhMgF.s 			page 109


 3735 2248 01       		.byte	0x1
 3736 2249 0C       		.uleb128 0xc
 3737 224a 4F535F53 		.ascii "OS_SaveTaskPtr(task_ptr,Task_n_ptr) \0"
 3737      61766554 
 3737      61736B50 
 3737      74722874 
 3737      61736B5F 
 3738 226f 04       		.byte	0x4
 3739              		.file 27 "E:/NeuOrga/Programmieren/c_cpp/github_os/input/src/os_base/os_task_queue.h"
 3740 2270 03       		.byte	0x3
 3741 2271 05       		.uleb128 0x5
 3742 2272 1B       		.uleb128 0x1b
 3743 2273 01       		.byte	0x1
 3744 2274 02       		.uleb128 0x2
 3745 2275 5F6F735F 		.ascii "_os_task_queue_h_ \0"
 3745      7461736B 
 3745      5F717565 
 3745      75655F68 
 3745      5F2000
 3746 2288 01       		.byte	0x1
 3747 2289 06       		.uleb128 0x6
 3748 228a 46697273 		.ascii "First_task (0)\0"
 3748      745F7461 
 3748      736B2028 
 3748      302900
 3749 2299 01       		.byte	0x1
 3750 229a 07       		.uleb128 0x7
 3751 229b 4C617374 		.ascii "Last_task (MAX_RUN_QUEUE_SIZE-1)\0"
 3751      5F746173 
 3751      6B20284D 
 3751      41585F52 
 3751      554E5F51 
 3752 22bc 01       		.byte	0x1
 3753 22bd 09       		.uleb128 0x9
 3754 22be 466F725F 		.ascii "For_all_tasks_in_queue(var) for((var) = First_task; (var) <= Last_task; (var)++)\0"
 3754      616C6C5F 
 3754      7461736B 
 3754      735F696E 
 3754      5F717565 
 3755 230f 04       		.byte	0x4
 3756              		.file 28 "E:/NeuOrga/Programmieren/c_cpp/github_os/input/src/os_base/os_stack.h"
 3757 2310 03       		.byte	0x3
 3758 2311 06       		.uleb128 0x6
 3759 2312 1C       		.uleb128 0x1c
 3760 2313 04       		.byte	0x4
 3761 2314 01       		.byte	0x1
 3762 2315 1E       		.uleb128 0x1e
 3763 2316 53595354 		.ascii "SYSTICK_CTRL_STAT_REG ((uint32*)0xE000E010)\0"
 3763      49434B5F 
 3763      4354524C 
 3763      5F535441 
 3763      545F5245 
 3764 2342 01       		.byte	0x1
 3765 2343 1F       		.uleb128 0x1f
 3766 2344 53595354 		.ascii "SYSTICK_RLD_VAL_REG ((uint32*)0xE000E014)\0"
 3766      49434B5F 
 3766      524C445F 
GAS LISTING C:\Users\PRESID~1\AppData\Local\Temp\ccylhMgF.s 			page 110


 3766      56414C5F 
 3766      52454720 
 3767 236e 01       		.byte	0x1
 3768 236f 20       		.uleb128 0x20
 3769 2370 53595354 		.ascii "SYSTICK_CURRENT_VAL_REG ((uint32*)0xE000E018)\0"
 3769      49434B5F 
 3769      43555252 
 3769      454E545F 
 3769      56414C5F 
 3770 239e 01       		.byte	0x1
 3771 239f 21       		.uleb128 0x21
 3772 23a0 53595354 		.ascii "SYSTICK_STAT_REG_TICKINT ((uint32)0x00000002)\0"
 3772      49434B5F 
 3772      53544154 
 3772      5F524547 
 3772      5F544943 
 3773 23ce 01       		.byte	0x1
 3774 23cf 22       		.uleb128 0x22
 3775 23d0 53595354 		.ascii "SYSTICK_STAT_REG_ENABLE ((uint32)0x00000001)\0"
 3775      49434B5F 
 3775      53544154 
 3775      5F524547 
 3775      5F454E41 
 3776 23fd 01       		.byte	0x1
 3777 23fe 23       		.uleb128 0x23
 3778 23ff 4C4F4F50 		.ascii "LOOPTIME_IN_USEC ((uint32)10000u)\0"
 3778      54494D45 
 3778      5F494E5F 
 3778      55534543 
 3778      20282875 
 3779 2421 04       		.byte	0x4
 3780 2422 00       		.byte	0
 3781              		.section	.debug_line,"dr"
 3782              	Ldebug_line0:
 3783 0000 FE040000 		.section	.debug_str,"dr"
 3783      02004A03 
 3783      00000101 
 3783      FB0E0D00 
 3783      01010101 
 3784              	LASF4:
 3785 0000 7461736B 		.ascii "task_ptr\0"
 3785      5F707472 
 3785      00
 3786              	LASF0:
 3787 0009 6578655F 		.ascii "exe_time\0"
 3787      74696D65 
 3787      00
 3788              	LASF3:
 3789 0012 73636865 		.ascii "scheduling_task\0"
 3789      64756C69 
 3789      6E675F74 
 3789      61736B00 
 3790              	LASF1:
 3791 0022 7461736B 		.ascii "task\0"
 3791      00
 3792              	LASF2:
 3793 0027 73636865 		.ascii "scheduling_task_ptr\0"
GAS LISTING C:\Users\PRESID~1\AppData\Local\Temp\ccylhMgF.s 			page 111


 3793      64756C69 
 3793      6E675F74 
 3793      61736B5F 
 3793      70747200 
 3794              		.ident	"GCC: (GNU) 4.9.3"
GAS LISTING C:\Users\PRESID~1\AppData\Local\Temp\ccylhMgF.s 			page 112


DEFINED SYMBOLS
                            *ABS*:00000000 os_task_scheduler.c
C:\Users\PRESID~1\AppData\Local\Temp\ccylhMgF.s:6      .text:00000000 _OS_ActivateDispatcher
C:\Users\PRESID~1\AppData\Local\Temp\ccylhMgF.s:25     .text:00000005 _OS_SleepTask
C:\Users\PRESID~1\AppData\Local\Temp\ccylhMgF.s:57     .text:00000031 _task_state_request
C:\Users\PRESID~1\AppData\Local\Temp\ccylhMgF.s:223    .text:00000158 _OS_CreateTask
C:\Users\PRESID~1\AppData\Local\Temp\ccylhMgF.s:275    .text:000001ca _OS_PreemptTask
C:\Users\PRESID~1\AppData\Local\Temp\ccylhMgF.s:360    .text:0000028b _OS_ActivateTask
C:\Users\PRESID~1\AppData\Local\Temp\ccylhMgF.s:454    .text:00000356 _OS_StartTask
C:\Users\PRESID~1\AppData\Local\Temp\ccylhMgF.s:571    .text:0000046b _OS_TerminateTask
C:\Users\PRESID~1\AppData\Local\Temp\ccylhMgF.s:664    .text:00000546 _OS_TaskDispatcher
C:\Users\PRESID~1\AppData\Local\Temp\ccylhMgF.s:728    .text:000005bd _TASK_0
C:\Users\PRESID~1\AppData\Local\Temp\ccylhMgF.s:745    .text:000005c2 _TASK_1
C:\Users\PRESID~1\AppData\Local\Temp\ccylhMgF.s:779    .text:000005fe _TASK_2
C:\Users\PRESID~1\AppData\Local\Temp\ccylhMgF.s:800    .text:0000060e _TASK_3
C:\Users\PRESID~1\AppData\Local\Temp\ccylhMgF.s:822    .text:0000061e _OS_InitTasks
C:\Users\PRESID~1\AppData\Local\Temp\ccylhMgF.s:923    .text:000007d0 _OS_TaskScheduler

UNDEFINED SYMBOLS
_TASK_TRANSITION_REJECTED_TASK_ADDR
_TASK_TRANSITION_REJECTED_STATE
_TASK_TRANSITION_CURRENT_STATE
_OS_STACK
_TASK1_CALL_NR
_TASK2_CALL_NR
_TASK3_CALL_NR
_LAST_CURRENT_TIME
_TASK_0_VAR
_TASK_STACK
_TASK_GROUP_1
_TASK_1_VAR
_TASK_2_VAR
_TASK_GROUP_2
_TASK_3_VAR
_TASK_GROUP_3
_OS_GetCurrentTime
_OS_SetSwBug
_OS_TaskSaveTaskEnvironment
_OS_GetCoreId
_OS_TASK_RESTORE_SYSTEM_STACK
_AddToTaskQueue
_AddToSchedulingQueue
_AddToIdleTaskQueue
_OS_TASK_SAVE_SYSTEM_STACK
_OS_TASK_RESTORETASK_ENVIRONMENT
_SET_RUNNING_TASK
_LLF_CHANGE_TO_UNPRIVILIGED_THREAD_MODE
_DeleteFromTaskQueue
_DeleteFromSchedulingQueue
_GetRunningTask
_GetRunningSchedulingQueueElementPtr
_GetFromTaskQueue
_OS_InitTaskQueue
_OS_InitTask
_GetFromSchedulingQueue
