GAS LISTING C:\Users\PRESID~1\AppData\Local\Temp\ccaz3kGv.s 			page 1


   1              		.file	"os_task_queue.c"
   2              		.text
   3              	Ltext0:
   4              		.globl	_SET_RUNNING_TASK
   6              	_SET_RUNNING_TASK:
   7              	LFB0:
   8              		.file 1 "E:/NeuOrga/Programmieren/c_cpp/github_os/input/src/os_base/os_task_queue.c"
   1:E:/NeuOrga/Programmieren/c_cpp/github_os/input/src/os_base\os_task_queue.c **** #include "os_firstinc.h"
   2:E:/NeuOrga/Programmieren/c_cpp/github_os/input/src/os_base\os_task_queue.c **** #include "os_task_common.h"
   3:E:/NeuOrga/Programmieren/c_cpp/github_os/input/src/os_base\os_task_queue.c **** #include "os_task_queue.h"
   4:E:/NeuOrga/Programmieren/c_cpp/github_os/input/src/os_base\os_task_queue.c **** #include "os_task_scheduler.h"
   5:E:/NeuOrga/Programmieren/c_cpp/github_os/input/src/os_base\os_task_queue.c **** 
   6:E:/NeuOrga/Programmieren/c_cpp/github_os/input/src/os_base\os_task_queue.c **** 
   7:E:/NeuOrga/Programmieren/c_cpp/github_os/input/src/os_base\os_task_queue.c **** 
   8:E:/NeuOrga/Programmieren/c_cpp/github_os/input/src/os_base\os_task_queue.c **** 
   9:E:/NeuOrga/Programmieren/c_cpp/github_os/input/src/os_base\os_task_queue.c **** 
  10:E:/NeuOrga/Programmieren/c_cpp/github_os/input/src/os_base\os_task_queue.c **** /* index 0: current task, 1,2,3,4: next tasks to be executed */
  11:E:/NeuOrga/Programmieren/c_cpp/github_os/input/src/os_base\os_task_queue.c **** /*
  12:E:/NeuOrga/Programmieren/c_cpp/github_os/input/src/os_base\os_task_queue.c **** 1. after execution of task finished(OS_TerminateTask):
  13:E:/NeuOrga/Programmieren/c_cpp/github_os/input/src/os_base\os_task_queue.c ****  - delete run_queue_element         (DeleteFromTaskQueue)
  14:E:/NeuOrga/Programmieren/c_cpp/github_os/input/src/os_base\os_task_queue.c ****  - delete Scheduling queue entry    (DeleteFromSchedulingQueue)
  15:E:/NeuOrga/Programmieren/c_cpp/github_os/input/src/os_base\os_task_queue.c ****  - shift pointers towards index 0   (UpdateSchedulingQueue)
  16:E:/NeuOrga/Programmieren/c_cpp/github_os/input/src/os_base\os_task_queue.c **** 
  17:E:/NeuOrga/Programmieren/c_cpp/github_os/input/src/os_base\os_task_queue.c **** 
  18:E:/NeuOrga/Programmieren/c_cpp/github_os/input/src/os_base\os_task_queue.c ****  2. to add new task (ActivateTask):
  19:E:/NeuOrga/Programmieren/c_cpp/github_os/input/src/os_base\os_task_queue.c ****  - add element to run_queue at first free element (AddToTaskQueue)
  20:E:/NeuOrga/Programmieren/c_cpp/github_os/input/src/os_base\os_task_queue.c ****  - add a reference to the scheduling Queue         (AddToSchedulingQueue)
  21:E:/NeuOrga/Programmieren/c_cpp/github_os/input/src/os_base\os_task_queue.c **** 
  22:E:/NeuOrga/Programmieren/c_cpp/github_os/input/src/os_base\os_task_queue.c ****  3. to start task:
  23:E:/NeuOrga/Programmieren/c_cpp/github_os/input/src/os_base\os_task_queue.c **** - start the task at index = 0                     (GetFromTaskQueue)
  24:E:/NeuOrga/Programmieren/c_cpp/github_os/input/src/os_base\os_task_queue.c **** 
  25:E:/NeuOrga/Programmieren/c_cpp/github_os/input/src/os_base\os_task_queue.c ****  4. to preempt task:
  26:E:/NeuOrga/Programmieren/c_cpp/github_os/input/src/os_base\os_task_queue.c **** - take element of index = 0 of SchedulingQueue and save it somewhere else  (UpdateSchedulingQueue)
  27:E:/NeuOrga/Programmieren/c_cpp/github_os/input/src/os_base\os_task_queue.c **** - shift all entries in SchedulingQueue to 0 by 1                           (UpdateSchedulingQueue)
  28:E:/NeuOrga/Programmieren/c_cpp/github_os/input/src/os_base\os_task_queue.c **** - add saved element at first free entry in SchedulingQueue                 (UpdateSchedulingQueue)
  29:E:/NeuOrga/Programmieren/c_cpp/github_os/input/src/os_base\os_task_queue.c **** - eliminate empty SchedulingQueue entries                                  (UpdateSchedulingQueue)
  30:E:/NeuOrga/Programmieren/c_cpp/github_os/input/src/os_base\os_task_queue.c ****  */
  31:E:/NeuOrga/Programmieren/c_cpp/github_os/input/src/os_base\os_task_queue.c **** 
  32:E:/NeuOrga/Programmieren/c_cpp/github_os/input/src/os_base\os_task_queue.c **** 
  33:E:/NeuOrga/Programmieren/c_cpp/github_os/input/src/os_base\os_task_queue.c **** void SET_RUNNING_TASK(task_t* task, scheduling_t* scheduling_task)
  34:E:/NeuOrga/Programmieren/c_cpp/github_os/input/src/os_base\os_task_queue.c **** {
   9              		.loc 1 34 0
  10              		.cfi_startproc
  11 0000 55       		pushl	%ebp
  12              		.cfi_def_cfa_offset 8
  13              		.cfi_offset 5, -8
  14 0001 89E5     		movl	%esp, %ebp
  15              		.cfi_def_cfa_register 5
  16 0003 83EC18   		subl	$24, %esp
  35:E:/NeuOrga/Programmieren/c_cpp/github_os/input/src/os_base\os_task_queue.c ****    RUNNING_SCHEDULING_QUEUE_ENTRY = scheduling_task;
  17              		.loc 1 35 0
  18 0006 8B450C   		movl	12(%ebp), %eax
  19 0009 A3000000 		movl	%eax, _RUNNING_SCHEDULING_QUEUE_ENTRY
  19      00
  36:E:/NeuOrga/Programmieren/c_cpp/github_os/input/src/os_base\os_task_queue.c ****    if(task != 0)
  20              		.loc 1 36 0
  21 000e 837D0800 		cmpl	$0, 8(%ebp)
GAS LISTING C:\Users\PRESID~1\AppData\Local\Temp\ccaz3kGv.s 			page 2


  22 0012 0F84E501 		je	L1
  22      0000
  37:E:/NeuOrga/Programmieren/c_cpp/github_os/input/src/os_base\os_task_queue.c ****    {
  38:E:/NeuOrga/Programmieren/c_cpp/github_os/input/src/os_base\os_task_queue.c ****       (&RUNNING_TASK[0])->active                          = task->active;
  23              		.loc 1 38 0
  24 0018 8B4508   		movl	8(%ebp), %eax
  25 001b 8A00     		movb	(%eax), %al
  26 001d 83E001   		andl	$1, %eax
  27 0020 83E001   		andl	$1, %eax
  28 0023 88C2     		movb	%al, %dl
  29 0025 A0000000 		movb	_RUNNING_TASK, %al
  29      00
  30 002a 83E0FE   		andl	$-2, %eax
  31 002d 09D0     		orl	%edx, %eax
  32 002f A2000000 		movb	%al, _RUNNING_TASK
  32      00
  39:E:/NeuOrga/Programmieren/c_cpp/github_os/input/src/os_base\os_task_queue.c ****       (&RUNNING_TASK[0])->task_queued                     = task->task_queued;
  33              		.loc 1 39 0
  34 0034 8B4508   		movl	8(%ebp), %eax
  35 0037 8A00     		movb	(%eax), %al
  36 0039 D0E8     		shrb	%al
  37 003b 83E001   		andl	$1, %eax
  38 003e 83E001   		andl	$1, %eax
  39 0041 8D1400   		leal	(%eax,%eax), %edx
  40 0044 A0000000 		movb	_RUNNING_TASK, %al
  40      00
  41 0049 83E0FD   		andl	$-3, %eax
  42 004c 09D0     		orl	%edx, %eax
  43 004e A2000000 		movb	%al, _RUNNING_TASK
  43      00
  40:E:/NeuOrga/Programmieren/c_cpp/github_os/input/src/os_base\os_task_queue.c ****       (&RUNNING_TASK[0])->IdleTask                        = task->IdleTask;
  44              		.loc 1 40 0
  45 0053 8B4508   		movl	8(%ebp), %eax
  46 0056 8A00     		movb	(%eax), %al
  47 0058 C0E802   		shrb	$2, %al
  48 005b 83E001   		andl	$1, %eax
  49 005e 83E001   		andl	$1, %eax
  50 0061 8D148500 		leal	0(,%eax,4), %edx
  50      000000
  51 0068 A0000000 		movb	_RUNNING_TASK, %al
  51      00
  52 006d 83E0FB   		andl	$-5, %eax
  53 0070 09D0     		orl	%edx, %eax
  54 0072 A2000000 		movb	%al, _RUNNING_TASK
  54      00
  41:E:/NeuOrga/Programmieren/c_cpp/github_os/input/src/os_base\os_task_queue.c ****       (&RUNNING_TASK[0])->FREE                            = task->FREE;
  55              		.loc 1 41 0
  56 0077 8B4508   		movl	8(%ebp), %eax
  57 007a 8B00     		movl	(%eax), %eax
  58 007c C1E803   		shrl	$3, %eax
  59 007f 8D14C500 		leal	0(,%eax,8), %edx
  59      000000
  60 0086 A1000000 		movl	_RUNNING_TASK, %eax
  60      00
  61 008b 83E007   		andl	$7, %eax
  62 008e 09D0     		orl	%edx, %eax
  63 0090 A3000000 		movl	%eax, _RUNNING_TASK
GAS LISTING C:\Users\PRESID~1\AppData\Local\Temp\ccaz3kGv.s 			page 3


  63      00
  42:E:/NeuOrga/Programmieren/c_cpp/github_os/input/src/os_base\os_task_queue.c ****       (&RUNNING_TASK[0])->NrOfInsAllowed                  = task->NrOfInsAllowed;
  64              		.loc 1 42 0
  65 0095 8B4508   		movl	8(%ebp), %eax
  66 0098 8A4004   		movb	4(%eax), %al
  67 009b A2040000 		movb	%al, _RUNNING_TASK+4
  67      00
  43:E:/NeuOrga/Programmieren/c_cpp/github_os/input/src/os_base\os_task_queue.c ****       (&RUNNING_TASK[0])->NrOfInsActivated                = task->NrOfInsActivated;
  68              		.loc 1 43 0
  69 00a0 8B4508   		movl	8(%ebp), %eax
  70 00a3 8A4005   		movb	5(%eax), %al
  71 00a6 A2050000 		movb	%al, _RUNNING_TASK+5
  71      00
  44:E:/NeuOrga/Programmieren/c_cpp/github_os/input/src/os_base\os_task_queue.c ****       Assign(&(&RUNNING_TASK[0])->WaitActUntil          , &task->WaitActUntil);
  72              		.loc 1 44 0
  73 00ab 8B4508   		movl	8(%ebp), %eax
  74 00ae 83C006   		addl	$6, %eax
  75 00b1 89442404 		movl	%eax, 4(%esp)
  76 00b5 C7042406 		movl	$_RUNNING_TASK+6, (%esp)
  76      000000
  77 00bc E8000000 		call	_Assign
  77      00
  45:E:/NeuOrga/Programmieren/c_cpp/github_os/input/src/os_base\os_task_queue.c ****       Assign(&(&RUNNING_TASK[0])->wait_time             , &task->wait_time);
  78              		.loc 1 45 0
  79 00c1 8B4508   		movl	8(%ebp), %eax
  80 00c4 83C016   		addl	$22, %eax
  81 00c7 89442404 		movl	%eax, 4(%esp)
  82 00cb C7042416 		movl	$_RUNNING_TASK+22, (%esp)
  82      000000
  83 00d2 E8000000 		call	_Assign
  83      00
  46:E:/NeuOrga/Programmieren/c_cpp/github_os/input/src/os_base\os_task_queue.c ****       Assign(&(&RUNNING_TASK[0])->TimeToPrioInc         , &task->TimeToPrioInc);
  84              		.loc 1 46 0
  85 00d7 8B4508   		movl	8(%ebp), %eax
  86 00da 83C026   		addl	$38, %eax
  87 00dd 89442404 		movl	%eax, 4(%esp)
  88 00e1 C7042426 		movl	$_RUNNING_TASK+38, (%esp)
  88      000000
  89 00e8 E8000000 		call	_Assign
  89      00
  47:E:/NeuOrga/Programmieren/c_cpp/github_os/input/src/os_base\os_task_queue.c ****       (&RUNNING_TASK[0])->overwaittime_per_prio_inc_step  = task->overwaittime_per_prio_inc_step;
  90              		.loc 1 47 0
  91 00ed 8B4508   		movl	8(%ebp), %eax
  92 00f0 8B4038   		movl	56(%eax), %eax
  93 00f3 A3380000 		movl	%eax, _RUNNING_TASK+56
  93      00
  48:E:/NeuOrga/Programmieren/c_cpp/github_os/input/src/os_base\os_task_queue.c ****       Assign(&(&RUNNING_TASK[0])->max_allowed_wait_time , &task->max_allowed_wait_time);
  94              		.loc 1 48 0
  95 00f8 8B4508   		movl	8(%ebp), %eax
  96 00fb 83C03C   		addl	$60, %eax
  97 00fe 89442404 		movl	%eax, 4(%esp)
  98 0102 C704243C 		movl	$_RUNNING_TASK+60, (%esp)
  98      000000
  99 0109 E8000000 		call	_Assign
  99      00
  49:E:/NeuOrga/Programmieren/c_cpp/github_os/input/src/os_base\os_task_queue.c ****       Assign(&(&RUNNING_TASK[0])->exe_time              , &task->exe_time  );
 100              		.loc 1 49 0
GAS LISTING C:\Users\PRESID~1\AppData\Local\Temp\ccaz3kGv.s 			page 4


 101 010e 8B4508   		movl	8(%ebp), %eax
 102 0111 83C04C   		addl	$76, %eax
 103 0114 89442404 		movl	%eax, 4(%esp)
 104 0118 C704244C 		movl	$_RUNNING_TASK+76, (%esp)
 104      000000
 105 011f E8000000 		call	_Assign
 105      00
  50:E:/NeuOrga/Programmieren/c_cpp/github_os/input/src/os_base\os_task_queue.c ****       Assign(&(&RUNNING_TASK[0])->start_time            , &task->start_time);
 106              		.loc 1 50 0
 107 0124 8B4508   		movl	8(%ebp), %eax
 108 0127 83C05C   		addl	$92, %eax
 109 012a 89442404 		movl	%eax, 4(%esp)
 110 012e C704245C 		movl	$_RUNNING_TASK+92, (%esp)
 110      000000
 111 0135 E8000000 		call	_Assign
 111      00
  51:E:/NeuOrga/Programmieren/c_cpp/github_os/input/src/os_base\os_task_queue.c ****       (&RUNNING_TASK[0])->current_prio                    = task->current_prio;
 112              		.loc 1 51 0
 113 013a 8B4508   		movl	8(%ebp), %eax
 114 013d 8A406C   		movb	108(%eax), %al
 115 0140 A26C0000 		movb	%al, _RUNNING_TASK+108
 115      00
  52:E:/NeuOrga/Programmieren/c_cpp/github_os/input/src/os_base\os_task_queue.c ****       (&RUNNING_TASK[0])->default_prio                    = task->default_prio;
 116              		.loc 1 52 0
 117 0145 8B4508   		movl	8(%ebp), %eax
 118 0148 8A406D   		movb	109(%eax), %al
 119 014b A26D0000 		movb	%al, _RUNNING_TASK+109
 119      00
  53:E:/NeuOrga/Programmieren/c_cpp/github_os/input/src/os_base\os_task_queue.c ****       (&RUNNING_TASK[0])->fp                              = task->fp;
 120              		.loc 1 53 0
 121 0150 8B4508   		movl	8(%ebp), %eax
 122 0153 8B4074   		movl	116(%eax), %eax
 123 0156 A3740000 		movl	%eax, _RUNNING_TASK+116
 123      00
  54:E:/NeuOrga/Programmieren/c_cpp/github_os/input/src/os_base\os_task_queue.c ****       (&RUNNING_TASK[0])->state_request                   = task->state_request;
 124              		.loc 1 54 0
 125 015b 8B4508   		movl	8(%ebp), %eax
 126 015e 8B4078   		movl	120(%eax), %eax
 127 0161 A3780000 		movl	%eax, _RUNNING_TASK+120
 127      00
  55:E:/NeuOrga/Programmieren/c_cpp/github_os/input/src/os_base\os_task_queue.c ****       (&RUNNING_TASK[0])->task_state                      = task->task_state;
 128              		.loc 1 55 0
 129 0166 8B4508   		movl	8(%ebp), %eax
 130 0169 8B407C   		movl	124(%eax), %eax
 131 016c A37C0000 		movl	%eax, _RUNNING_TASK+124
 131      00
  56:E:/NeuOrga/Programmieren/c_cpp/github_os/input/src/os_base\os_task_queue.c ****       (&RUNNING_TASK[0])->task_group                      = task->task_group;
 132              		.loc 1 56 0
 133 0171 8B4508   		movl	8(%ebp), %eax
 134 0174 8B808000 		movl	128(%eax), %eax
 134      0000
 135 017a A3800000 		movl	%eax, _RUNNING_TASK+128
 135      00
  57:E:/NeuOrga/Programmieren/c_cpp/github_os/input/src/os_base\os_task_queue.c ****    #if(CFG_PROCESSOR == cMCU_X86)
  58:E:/NeuOrga/Programmieren/c_cpp/github_os/input/src/os_base\os_task_queue.c ****       (&RUNNING_TASK[0])->EAX                             = task->EAX;
 136              		.loc 1 58 0
 137 017f 8B4508   		movl	8(%ebp), %eax
GAS LISTING C:\Users\PRESID~1\AppData\Local\Temp\ccaz3kGv.s 			page 5


 138 0182 8B808400 		movl	132(%eax), %eax
 138      0000
 139 0188 A3840000 		movl	%eax, _RUNNING_TASK+132
 139      00
  59:E:/NeuOrga/Programmieren/c_cpp/github_os/input/src/os_base\os_task_queue.c ****       (&RUNNING_TASK[0])->EBX                             = task->EBX;
 140              		.loc 1 59 0
 141 018d 8B4508   		movl	8(%ebp), %eax
 142 0190 8B808800 		movl	136(%eax), %eax
 142      0000
 143 0196 A3880000 		movl	%eax, _RUNNING_TASK+136
 143      00
  60:E:/NeuOrga/Programmieren/c_cpp/github_os/input/src/os_base\os_task_queue.c ****       (&RUNNING_TASK[0])->ECX                             = task->ECX;
 144              		.loc 1 60 0
 145 019b 8B4508   		movl	8(%ebp), %eax
 146 019e 8B808C00 		movl	140(%eax), %eax
 146      0000
 147 01a4 A38C0000 		movl	%eax, _RUNNING_TASK+140
 147      00
  61:E:/NeuOrga/Programmieren/c_cpp/github_os/input/src/os_base\os_task_queue.c ****       (&RUNNING_TASK[0])->EDX                             = task->EDX;
 148              		.loc 1 61 0
 149 01a9 8B4508   		movl	8(%ebp), %eax
 150 01ac 8B809000 		movl	144(%eax), %eax
 150      0000
 151 01b2 A3900000 		movl	%eax, _RUNNING_TASK+144
 151      00
  62:E:/NeuOrga/Programmieren/c_cpp/github_os/input/src/os_base\os_task_queue.c ****    #else
  63:E:/NeuOrga/Programmieren/c_cpp/github_os/input/src/os_base\os_task_queue.c ****       (&RUNNING_TASK[0])->r0                             = task->r0;
  64:E:/NeuOrga/Programmieren/c_cpp/github_os/input/src/os_base\os_task_queue.c ****       (&RUNNING_TASK[0])->r1                             = task->r1;
  65:E:/NeuOrga/Programmieren/c_cpp/github_os/input/src/os_base\os_task_queue.c ****       (&RUNNING_TASK[0])->r2                             = task->r2;
  66:E:/NeuOrga/Programmieren/c_cpp/github_os/input/src/os_base\os_task_queue.c ****       (&RUNNING_TASK[0])->r3                             = task->r3;
  67:E:/NeuOrga/Programmieren/c_cpp/github_os/input/src/os_base\os_task_queue.c ****       (&RUNNING_TASK[0])->r4                             = task->r4;
  68:E:/NeuOrga/Programmieren/c_cpp/github_os/input/src/os_base\os_task_queue.c ****       (&RUNNING_TASK[0])->r5                             = task->r5;
  69:E:/NeuOrga/Programmieren/c_cpp/github_os/input/src/os_base\os_task_queue.c ****       (&RUNNING_TASK[0])->r6                             = task->r6;
  70:E:/NeuOrga/Programmieren/c_cpp/github_os/input/src/os_base\os_task_queue.c ****       (&RUNNING_TASK[0])->r7                             = task->r7;
  71:E:/NeuOrga/Programmieren/c_cpp/github_os/input/src/os_base\os_task_queue.c ****       (&RUNNING_TASK[0])->r8                             = task->r8;
  72:E:/NeuOrga/Programmieren/c_cpp/github_os/input/src/os_base\os_task_queue.c ****       (&RUNNING_TASK[0])->r9                             = task->r9;
  73:E:/NeuOrga/Programmieren/c_cpp/github_os/input/src/os_base\os_task_queue.c ****       (&RUNNING_TASK[0])->r10                            = task->r10;
  74:E:/NeuOrga/Programmieren/c_cpp/github_os/input/src/os_base\os_task_queue.c ****       (&RUNNING_TASK[0])->r11                            = task->r11;
  75:E:/NeuOrga/Programmieren/c_cpp/github_os/input/src/os_base\os_task_queue.c ****       (&RUNNING_TASK[0])->r12                            = task->r12;
  76:E:/NeuOrga/Programmieren/c_cpp/github_os/input/src/os_base\os_task_queue.c ****    #endif
  77:E:/NeuOrga/Programmieren/c_cpp/github_os/input/src/os_base\os_task_queue.c **** 
  78:E:/NeuOrga/Programmieren/c_cpp/github_os/input/src/os_base\os_task_queue.c ****       (&RUNNING_TASK[0])->pStackPointer                   = task->pStackPointer;
 152              		.loc 1 78 0
 153 01b7 8B4508   		movl	8(%ebp), %eax
 154 01ba 8B809400 		movl	148(%eax), %eax
 154      0000
 155 01c0 A3940000 		movl	%eax, _RUNNING_TASK+148
 155      00
  79:E:/NeuOrga/Programmieren/c_cpp/github_os/input/src/os_base\os_task_queue.c ****       (&RUNNING_TASK[0])->pStackPointerByMalloc           = task->pStackPointerByMalloc;
 156              		.loc 1 79 0
 157 01c5 8B4508   		movl	8(%ebp), %eax
 158 01c8 8B809800 		movl	152(%eax), %eax
 158      0000
 159 01ce A3980000 		movl	%eax, _RUNNING_TASK+152
 159      00
  80:E:/NeuOrga/Programmieren/c_cpp/github_os/input/src/os_base\os_task_queue.c ****       (&RUNNING_TASK[0])->pStackPointerStart              = task->pStackPointerStart;
 160              		.loc 1 80 0
GAS LISTING C:\Users\PRESID~1\AppData\Local\Temp\ccaz3kGv.s 			page 6


 161 01d3 8B4508   		movl	8(%ebp), %eax
 162 01d6 8B809C00 		movl	156(%eax), %eax
 162      0000
 163 01dc A39C0000 		movl	%eax, _RUNNING_TASK+156
 163      00
  81:E:/NeuOrga/Programmieren/c_cpp/github_os/input/src/os_base\os_task_queue.c ****       (&RUNNING_TASK[0])->StackSize                       = task->StackSize;
 164              		.loc 1 81 0
 165 01e1 8B4508   		movl	8(%ebp), %eax
 166 01e4 8B80A000 		movl	160(%eax), %eax
 166      0000
 167 01ea A3A00000 		movl	%eax, _RUNNING_TASK+160
 167      00
  82:E:/NeuOrga/Programmieren/c_cpp/github_os/input/src/os_base\os_task_queue.c ****       (&RUNNING_TASK[0])->pStackPointerEnd                = task->pStackPointerEnd;
 168              		.loc 1 82 0
 169 01ef 8B4508   		movl	8(%ebp), %eax
 170 01f2 8B80A400 		movl	164(%eax), %eax
 170      0000
 171 01f8 A3A40000 		movl	%eax, _RUNNING_TASK+164
 171      00
 172              	L1:
  83:E:/NeuOrga/Programmieren/c_cpp/github_os/input/src/os_base\os_task_queue.c ****    }
  84:E:/NeuOrga/Programmieren/c_cpp/github_os/input/src/os_base\os_task_queue.c **** }
 173              		.loc 1 84 0
 174 01fd C9       		leave
 175              		.cfi_restore 5
 176              		.cfi_def_cfa 4, 4
 177 01fe C3       		ret
 178              		.cfi_endproc
 179              	LFE0:
 180              		.globl	_OS_InitTaskQueue
 182              	_OS_InitTaskQueue:
 183              	LFB1:
  85:E:/NeuOrga/Programmieren/c_cpp/github_os/input/src/os_base\os_task_queue.c **** 
  86:E:/NeuOrga/Programmieren/c_cpp/github_os/input/src/os_base\os_task_queue.c **** /* task queue handling */
  87:E:/NeuOrga/Programmieren/c_cpp/github_os/input/src/os_base\os_task_queue.c **** void OS_InitTaskQueue(void)
  88:E:/NeuOrga/Programmieren/c_cpp/github_os/input/src/os_base\os_task_queue.c **** {
 184              		.loc 1 88 0
 185              		.cfi_startproc
 186 01ff 55       		pushl	%ebp
 187              		.cfi_def_cfa_offset 8
 188              		.cfi_offset 5, -8
 189 0200 89E5     		movl	%esp, %ebp
 190              		.cfi_def_cfa_register 5
 191 0202 83EC28   		subl	$40, %esp
  89:E:/NeuOrga/Programmieren/c_cpp/github_os/input/src/os_base\os_task_queue.c ****    if(bTASK_QUEUE_INITIALIZED == False)
 192              		.loc 1 89 0
 193 0205 A0000000 		movb	_bTASK_QUEUE_INITIALIZED, %al
 193      00
 194 020a 84C0     		testb	%al, %al
 195 020c 7550     		jne	L3
 196              	LBB2:
  90:E:/NeuOrga/Programmieren/c_cpp/github_os/input/src/os_base\os_task_queue.c ****    {
  91:E:/NeuOrga/Programmieren/c_cpp/github_os/input/src/os_base\os_task_queue.c ****       unsigned_char_t element_nr = 0;
 197              		.loc 1 91 0
 198 020e C645F700 		movb	$0, -9(%ebp)
  92:E:/NeuOrga/Programmieren/c_cpp/github_os/input/src/os_base\os_task_queue.c ****       while(element_nr < MAX_RUN_QUEUE_SIZE)
 199              		.loc 1 92 0
GAS LISTING C:\Users\PRESID~1\AppData\Local\Temp\ccaz3kGv.s 			page 7


 200 0212 EB3D     		jmp	L5
 201              	L6:
  93:E:/NeuOrga/Programmieren/c_cpp/github_os/input/src/os_base\os_task_queue.c ****       {
  94:E:/NeuOrga/Programmieren/c_cpp/github_os/input/src/os_base\os_task_queue.c ****          TASK_SCHEDULING_QUEUE[element_nr] = (scheduling_t)0;
 202              		.loc 1 94 0
 203 0214 0FB645F7 		movzbl	-9(%ebp), %eax
 204 0218 C7048500 		movl	$0, _TASK_SCHEDULING_QUEUE(,%eax,4)
 204      00000000 
 204      000000
  95:E:/NeuOrga/Programmieren/c_cpp/github_os/input/src/os_base\os_task_queue.c ****          OS_Task_InitTaskEnvironment(&TASK_RUN_QUEUE[element_nr]);
 205              		.loc 1 95 0
 206 0223 0FB655F7 		movzbl	-9(%ebp), %edx
 207 0227 89D0     		movl	%edx, %eax
 208 0229 C1E003   		sall	$3, %eax
 209 022c 01D0     		addl	%edx, %eax
 210 022e 01C0     		addl	%eax, %eax
 211 0230 01D0     		addl	%edx, %eax
 212 0232 8D0CC500 		leal	0(,%eax,8), %ecx
 212      000000
 213 0239 01C8     		addl	%ecx, %eax
 214 023b 01D0     		addl	%edx, %eax
 215 023d 05000000 		addl	$_TASK_RUN_QUEUE, %eax
 215      00
 216 0242 890424   		movl	%eax, (%esp)
 217 0245 E8000000 		call	_OS_Task_InitTaskEnvironment
 217      00
  96:E:/NeuOrga/Programmieren/c_cpp/github_os/input/src/os_base\os_task_queue.c ****          element_nr++;
 218              		.loc 1 96 0
 219 024a 8A45F7   		movb	-9(%ebp), %al
 220 024d 40       		incl	%eax
 221 024e 8845F7   		movb	%al, -9(%ebp)
 222              	L5:
  92:E:/NeuOrga/Programmieren/c_cpp/github_os/input/src/os_base\os_task_queue.c ****       {
 223              		.loc 1 92 0
 224 0251 807DF709 		cmpb	$9, -9(%ebp)
 225 0255 76BD     		jbe	L6
  97:E:/NeuOrga/Programmieren/c_cpp/github_os/input/src/os_base\os_task_queue.c ****       }
  98:E:/NeuOrga/Programmieren/c_cpp/github_os/input/src/os_base\os_task_queue.c ****       bTASK_QUEUE_INITIALIZED = True;
 226              		.loc 1 98 0
 227 0257 C6050000 		movb	$1, _bTASK_QUEUE_INITIALIZED
 227      000001
 228              	L3:
 229              	LBE2:
  99:E:/NeuOrga/Programmieren/c_cpp/github_os/input/src/os_base\os_task_queue.c ****    }
 100:E:/NeuOrga/Programmieren/c_cpp/github_os/input/src/os_base\os_task_queue.c **** }
 230              		.loc 1 100 0
 231 025e C9       		leave
 232              		.cfi_restore 5
 233              		.cfi_def_cfa 4, 4
 234 025f C3       		ret
 235              		.cfi_endproc
 236              	LFE1:
 237              		.globl	_AddToTaskQueue
 239              	_AddToTaskQueue:
 240              	LFB2:
 101:E:/NeuOrga/Programmieren/c_cpp/github_os/input/src/os_base\os_task_queue.c **** task_t* AddToTaskQueue(task_t* task)
 102:E:/NeuOrga/Programmieren/c_cpp/github_os/input/src/os_base\os_task_queue.c **** {
GAS LISTING C:\Users\PRESID~1\AppData\Local\Temp\ccaz3kGv.s 			page 8


 241              		.loc 1 102 0
 242              		.cfi_startproc
 243 0260 55       		pushl	%ebp
 244              		.cfi_def_cfa_offset 8
 245              		.cfi_offset 5, -8
 246 0261 89E5     		movl	%esp, %ebp
 247              		.cfi_def_cfa_register 5
 248 0263 53       		pushl	%ebx
 249 0264 83EC24   		subl	$36, %esp
 250              		.cfi_offset 3, -12
 103:E:/NeuOrga/Programmieren/c_cpp/github_os/input/src/os_base\os_task_queue.c ****    unsigned_char_t element_nr = 0;
 251              		.loc 1 103 0
 252 0267 C645F700 		movb	$0, -9(%ebp)
 104:E:/NeuOrga/Programmieren/c_cpp/github_os/input/src/os_base\os_task_queue.c ****    task_t* ret_task = 0;
 253              		.loc 1 104 0
 254 026b C745F000 		movl	$0, -16(%ebp)
 254      000000
 105:E:/NeuOrga/Programmieren/c_cpp/github_os/input/src/os_base\os_task_queue.c ****    
 106:E:/NeuOrga/Programmieren/c_cpp/github_os/input/src/os_base\os_task_queue.c ****    while( (element_nr < MAX_RUN_QUEUE_SIZE)
 255              		.loc 1 106 0
 256 0272 EB07     		jmp	L8
 257              	L10:
 107:E:/NeuOrga/Programmieren/c_cpp/github_os/input/src/os_base\os_task_queue.c ****           &&((&TASK_RUN_QUEUE[element_nr])->task_queued == True)
 108:E:/NeuOrga/Programmieren/c_cpp/github_os/input/src/os_base\os_task_queue.c ****         )
 109:E:/NeuOrga/Programmieren/c_cpp/github_os/input/src/os_base\os_task_queue.c ****    {
 110:E:/NeuOrga/Programmieren/c_cpp/github_os/input/src/os_base\os_task_queue.c ****       element_nr++;
 258              		.loc 1 110 0
 259 0274 8A45F7   		movb	-9(%ebp), %al
 260 0277 40       		incl	%eax
 261 0278 8845F7   		movb	%al, -9(%ebp)
 262              	L8:
 106:E:/NeuOrga/Programmieren/c_cpp/github_os/input/src/os_base\os_task_queue.c ****           &&((&TASK_RUN_QUEUE[element_nr])->task_queued == True)
 263              		.loc 1 106 0
 264 027b 807DF709 		cmpb	$9, -9(%ebp)
 265 027f 772A     		ja	L9
 107:E:/NeuOrga/Programmieren/c_cpp/github_os/input/src/os_base\os_task_queue.c ****           &&((&TASK_RUN_QUEUE[element_nr])->task_queued == True)
 266              		.loc 1 107 0
 267 0281 0FB655F7 		movzbl	-9(%ebp), %edx
 268 0285 89D0     		movl	%edx, %eax
 269 0287 C1E003   		sall	$3, %eax
 270 028a 01D0     		addl	%edx, %eax
 271 028c 01C0     		addl	%eax, %eax
 272 028e 01D0     		addl	%edx, %eax
 273 0290 8D0CC500 		leal	0(,%eax,8), %ecx
 273      000000
 274 0297 01C8     		addl	%ecx, %eax
 275 0299 01D0     		addl	%edx, %eax
 276 029b 05000000 		addl	$_TASK_RUN_QUEUE, %eax
 276      00
 277 02a0 8A00     		movb	(%eax), %al
 278 02a2 D0E8     		shrb	%al
 279 02a4 83E001   		andl	$1, %eax
 280 02a7 3C01     		cmpb	$1, %al
 281 02a9 74C9     		je	L10
 282              	L9:
 111:E:/NeuOrga/Programmieren/c_cpp/github_os/input/src/os_base\os_task_queue.c ****    }
 112:E:/NeuOrga/Programmieren/c_cpp/github_os/input/src/os_base\os_task_queue.c ****    /* while loop ended due to free task_array slot ...*/
GAS LISTING C:\Users\PRESID~1\AppData\Local\Temp\ccaz3kGv.s 			page 9


 113:E:/NeuOrga/Programmieren/c_cpp/github_os/input/src/os_base\os_task_queue.c ****    if( (element_nr < MAX_RUN_QUEUE_SIZE) && ((&TASK_RUN_QUEUE[element_nr])->task_queued == False) )
 283              		.loc 1 113 0
 284 02ab 807DF709 		cmpb	$9, -9(%ebp)
 285 02af 0F875905 		ja	L11
 285      0000
 286              		.loc 1 113 0 is_stmt 0 discriminator 1
 287 02b5 0FB655F7 		movzbl	-9(%ebp), %edx
 288 02b9 89D0     		movl	%edx, %eax
 289 02bb C1E003   		sall	$3, %eax
 290 02be 01D0     		addl	%edx, %eax
 291 02c0 01C0     		addl	%eax, %eax
 292 02c2 01D0     		addl	%edx, %eax
 293 02c4 8D0CC500 		leal	0(,%eax,8), %ecx
 293      000000
 294 02cb 01C8     		addl	%ecx, %eax
 295 02cd 01D0     		addl	%edx, %eax
 296 02cf 05000000 		addl	$_TASK_RUN_QUEUE, %eax
 296      00
 297 02d4 8A00     		movb	(%eax), %al
 298 02d6 D0E8     		shrb	%al
 299 02d8 83E001   		andl	$1, %eax
 300 02db 84C0     		testb	%al, %al
 301 02dd 0F852B05 		jne	L11
 301      0000
 114:E:/NeuOrga/Programmieren/c_cpp/github_os/input/src/os_base\os_task_queue.c ****    {
 115:E:/NeuOrga/Programmieren/c_cpp/github_os/input/src/os_base\os_task_queue.c ****       (&TASK_RUN_QUEUE[element_nr])->active                          = task->active;
 302              		.loc 1 115 0 is_stmt 1
 303 02e3 0FB655F7 		movzbl	-9(%ebp), %edx
 304 02e7 8B4508   		movl	8(%ebp), %eax
 305 02ea 8A00     		movb	(%eax), %al
 306 02ec 83E001   		andl	$1, %eax
 307 02ef 88C3     		movb	%al, %bl
 308 02f1 89D0     		movl	%edx, %eax
 309 02f3 C1E003   		sall	$3, %eax
 310 02f6 01D0     		addl	%edx, %eax
 311 02f8 01C0     		addl	%eax, %eax
 312 02fa 01D0     		addl	%edx, %eax
 313 02fc 8D0CC500 		leal	0(,%eax,8), %ecx
 313      000000
 314 0303 01C8     		addl	%ecx, %eax
 315 0305 01D0     		addl	%edx, %eax
 316 0307 05000000 		addl	$_TASK_RUN_QUEUE, %eax
 316      00
 317 030c 83E301   		andl	$1, %ebx
 318 030f 88D9     		movb	%bl, %cl
 319 0311 8A10     		movb	(%eax), %dl
 320 0313 83E2FE   		andl	$-2, %edx
 321 0316 09CA     		orl	%ecx, %edx
 322 0318 8810     		movb	%dl, (%eax)
 116:E:/NeuOrga/Programmieren/c_cpp/github_os/input/src/os_base\os_task_queue.c ****       (&TASK_RUN_QUEUE[element_nr])->task_queued                     = True;
 323              		.loc 1 116 0
 324 031a 0FB655F7 		movzbl	-9(%ebp), %edx
 325 031e 89D0     		movl	%edx, %eax
 326 0320 C1E003   		sall	$3, %eax
 327 0323 01D0     		addl	%edx, %eax
 328 0325 01C0     		addl	%eax, %eax
 329 0327 01D0     		addl	%edx, %eax
GAS LISTING C:\Users\PRESID~1\AppData\Local\Temp\ccaz3kGv.s 			page 10


 330 0329 8D0CC500 		leal	0(,%eax,8), %ecx
 330      000000
 331 0330 01C8     		addl	%ecx, %eax
 332 0332 01D0     		addl	%edx, %eax
 333 0334 05000000 		addl	$_TASK_RUN_QUEUE, %eax
 333      00
 334 0339 8A10     		movb	(%eax), %dl
 335 033b 83CA02   		orl	$2, %edx
 336 033e 8810     		movb	%dl, (%eax)
 117:E:/NeuOrga/Programmieren/c_cpp/github_os/input/src/os_base\os_task_queue.c ****       (&TASK_RUN_QUEUE[element_nr])->IdleTask                        = task->IdleTask;
 337              		.loc 1 117 0
 338 0340 0FB655F7 		movzbl	-9(%ebp), %edx
 339 0344 8B4508   		movl	8(%ebp), %eax
 340 0347 8A00     		movb	(%eax), %al
 341 0349 C0E802   		shrb	$2, %al
 342 034c 88C1     		movb	%al, %cl
 343 034e 83E101   		andl	$1, %ecx
 344 0351 89D0     		movl	%edx, %eax
 345 0353 C1E003   		sall	$3, %eax
 346 0356 01D0     		addl	%edx, %eax
 347 0358 01C0     		addl	%eax, %eax
 348 035a 01D0     		addl	%edx, %eax
 349 035c 8D1CC500 		leal	0(,%eax,8), %ebx
 349      000000
 350 0363 01D8     		addl	%ebx, %eax
 351 0365 01D0     		addl	%edx, %eax
 352 0367 05000000 		addl	$_TASK_RUN_QUEUE, %eax
 352      00
 353 036c 83E101   		andl	$1, %ecx
 354 036f 88CA     		movb	%cl, %dl
 355 0371 8D0C9500 		leal	0(,%edx,4), %ecx
 355      000000
 356 0378 8A10     		movb	(%eax), %dl
 357 037a 83E2FB   		andl	$-5, %edx
 358 037d 09CA     		orl	%ecx, %edx
 359 037f 8810     		movb	%dl, (%eax)
 118:E:/NeuOrga/Programmieren/c_cpp/github_os/input/src/os_base\os_task_queue.c ****       (&TASK_RUN_QUEUE[element_nr])->FREE                            = task->FREE;
 360              		.loc 1 118 0
 361 0381 0FB655F7 		movzbl	-9(%ebp), %edx
 362 0385 8B4508   		movl	8(%ebp), %eax
 363 0388 8B00     		movl	(%eax), %eax
 364 038a C1E803   		shrl	$3, %eax
 365 038d 89C3     		movl	%eax, %ebx
 366 038f 89D0     		movl	%edx, %eax
 367 0391 C1E003   		sall	$3, %eax
 368 0394 01D0     		addl	%edx, %eax
 369 0396 01C0     		addl	%eax, %eax
 370 0398 01D0     		addl	%edx, %eax
 371 039a 8D0CC500 		leal	0(,%eax,8), %ecx
 371      000000
 372 03a1 01C8     		addl	%ecx, %eax
 373 03a3 01D0     		addl	%edx, %eax
 374 03a5 05000000 		addl	$_TASK_RUN_QUEUE, %eax
 374      00
 375 03aa 8D0CDD00 		leal	0(,%ebx,8), %ecx
 375      000000
 376 03b1 8B10     		movl	(%eax), %edx
GAS LISTING C:\Users\PRESID~1\AppData\Local\Temp\ccaz3kGv.s 			page 11


 377 03b3 83E207   		andl	$7, %edx
 378 03b6 09CA     		orl	%ecx, %edx
 379 03b8 8910     		movl	%edx, (%eax)
 119:E:/NeuOrga/Programmieren/c_cpp/github_os/input/src/os_base\os_task_queue.c ****       (&TASK_RUN_QUEUE[element_nr])->NrOfInsAllowed                  = task->NrOfInsAllowed;
 380              		.loc 1 119 0
 381 03ba 0FB655F7 		movzbl	-9(%ebp), %edx
 382 03be 8B4508   		movl	8(%ebp), %eax
 383 03c1 8A4804   		movb	4(%eax), %cl
 384 03c4 89D0     		movl	%edx, %eax
 385 03c6 C1E003   		sall	$3, %eax
 386 03c9 01D0     		addl	%edx, %eax
 387 03cb 01C0     		addl	%eax, %eax
 388 03cd 01D0     		addl	%edx, %eax
 389 03cf 8D1CC500 		leal	0(,%eax,8), %ebx
 389      000000
 390 03d6 01D8     		addl	%ebx, %eax
 391 03d8 01D0     		addl	%edx, %eax
 392 03da 05000000 		addl	$_TASK_RUN_QUEUE, %eax
 392      00
 393 03df 884804   		movb	%cl, 4(%eax)
 120:E:/NeuOrga/Programmieren/c_cpp/github_os/input/src/os_base\os_task_queue.c ****       (&TASK_RUN_QUEUE[element_nr])->NrOfInsActivated                = task->NrOfInsActivated;
 394              		.loc 1 120 0
 395 03e2 0FB655F7 		movzbl	-9(%ebp), %edx
 396 03e6 8B4508   		movl	8(%ebp), %eax
 397 03e9 8A4805   		movb	5(%eax), %cl
 398 03ec 89D0     		movl	%edx, %eax
 399 03ee C1E003   		sall	$3, %eax
 400 03f1 01D0     		addl	%edx, %eax
 401 03f3 01C0     		addl	%eax, %eax
 402 03f5 01D0     		addl	%edx, %eax
 403 03f7 8D1CC500 		leal	0(,%eax,8), %ebx
 403      000000
 404 03fe 01D8     		addl	%ebx, %eax
 405 0400 01D0     		addl	%edx, %eax
 406 0402 05000000 		addl	$_TASK_RUN_QUEUE, %eax
 406      00
 407 0407 884805   		movb	%cl, 5(%eax)
 121:E:/NeuOrga/Programmieren/c_cpp/github_os/input/src/os_base\os_task_queue.c ****       Assign(&(&TASK_RUN_QUEUE[element_nr])->WaitActUntil                  , &task->WaitActUntil);
 408              		.loc 1 121 0
 409 040a 8B4508   		movl	8(%ebp), %eax
 410 040d 8D4806   		leal	6(%eax), %ecx
 411 0410 0FB655F7 		movzbl	-9(%ebp), %edx
 412 0414 89D0     		movl	%edx, %eax
 413 0416 C1E003   		sall	$3, %eax
 414 0419 01D0     		addl	%edx, %eax
 415 041b 01C0     		addl	%eax, %eax
 416 041d 01D0     		addl	%edx, %eax
 417 041f 8D1CC500 		leal	0(,%eax,8), %ebx
 417      000000
 418 0426 01D8     		addl	%ebx, %eax
 419 0428 01D0     		addl	%edx, %eax
 420 042a 05000000 		addl	$_TASK_RUN_QUEUE, %eax
 420      00
 421 042f 83C006   		addl	$6, %eax
 422 0432 894C2404 		movl	%ecx, 4(%esp)
 423 0436 890424   		movl	%eax, (%esp)
 424 0439 E8000000 		call	_Assign
GAS LISTING C:\Users\PRESID~1\AppData\Local\Temp\ccaz3kGv.s 			page 12


 424      00
 122:E:/NeuOrga/Programmieren/c_cpp/github_os/input/src/os_base\os_task_queue.c ****       Assign(&(&TASK_RUN_QUEUE[element_nr])->wait_time                     , &task->wait_time);
 425              		.loc 1 122 0
 426 043e 8B4508   		movl	8(%ebp), %eax
 427 0441 8D4816   		leal	22(%eax), %ecx
 428 0444 0FB655F7 		movzbl	-9(%ebp), %edx
 429 0448 89D0     		movl	%edx, %eax
 430 044a C1E003   		sall	$3, %eax
 431 044d 01D0     		addl	%edx, %eax
 432 044f 01C0     		addl	%eax, %eax
 433 0451 01D0     		addl	%edx, %eax
 434 0453 8D1CC500 		leal	0(,%eax,8), %ebx
 434      000000
 435 045a 01D8     		addl	%ebx, %eax
 436 045c 01D0     		addl	%edx, %eax
 437 045e 83C010   		addl	$16, %eax
 438 0461 05000000 		addl	$_TASK_RUN_QUEUE, %eax
 438      00
 439 0466 83C006   		addl	$6, %eax
 440 0469 894C2404 		movl	%ecx, 4(%esp)
 441 046d 890424   		movl	%eax, (%esp)
 442 0470 E8000000 		call	_Assign
 442      00
 123:E:/NeuOrga/Programmieren/c_cpp/github_os/input/src/os_base\os_task_queue.c ****       Assign(&(&TASK_RUN_QUEUE[element_nr])->TimeToPrioInc                 , &task->TimeToPrioInc);
 443              		.loc 1 123 0
 444 0475 8B4508   		movl	8(%ebp), %eax
 445 0478 8D4826   		leal	38(%eax), %ecx
 446 047b 0FB655F7 		movzbl	-9(%ebp), %edx
 447 047f 89D0     		movl	%edx, %eax
 448 0481 C1E003   		sall	$3, %eax
 449 0484 01D0     		addl	%edx, %eax
 450 0486 01C0     		addl	%eax, %eax
 451 0488 01D0     		addl	%edx, %eax
 452 048a 8D1CC500 		leal	0(,%eax,8), %ebx
 452      000000
 453 0491 01D8     		addl	%ebx, %eax
 454 0493 01D0     		addl	%edx, %eax
 455 0495 83C020   		addl	$32, %eax
 456 0498 05000000 		addl	$_TASK_RUN_QUEUE, %eax
 456      00
 457 049d 83C006   		addl	$6, %eax
 458 04a0 894C2404 		movl	%ecx, 4(%esp)
 459 04a4 890424   		movl	%eax, (%esp)
 460 04a7 E8000000 		call	_Assign
 460      00
 124:E:/NeuOrga/Programmieren/c_cpp/github_os/input/src/os_base\os_task_queue.c ****       (&TASK_RUN_QUEUE[element_nr])->overwaittime_per_prio_inc_step  = task->overwaittime_per_prio_
 461              		.loc 1 124 0
 462 04ac 0FB655F7 		movzbl	-9(%ebp), %edx
 463 04b0 8B4508   		movl	8(%ebp), %eax
 464 04b3 8B4838   		movl	56(%eax), %ecx
 465 04b6 89D0     		movl	%edx, %eax
 466 04b8 C1E003   		sall	$3, %eax
 467 04bb 01D0     		addl	%edx, %eax
 468 04bd 01C0     		addl	%eax, %eax
 469 04bf 01D0     		addl	%edx, %eax
 470 04c1 8D1CC500 		leal	0(,%eax,8), %ebx
 470      000000
GAS LISTING C:\Users\PRESID~1\AppData\Local\Temp\ccaz3kGv.s 			page 13


 471 04c8 01D8     		addl	%ebx, %eax
 472 04ca 01D0     		addl	%edx, %eax
 473 04cc 05300000 		addl	$_TASK_RUN_QUEUE+48, %eax
 473      00
 474 04d1 894808   		movl	%ecx, 8(%eax)
 125:E:/NeuOrga/Programmieren/c_cpp/github_os/input/src/os_base\os_task_queue.c ****       Assign(&(&TASK_RUN_QUEUE[element_nr])->max_allowed_wait_time         , &task->max_allowed_wai
 475              		.loc 1 125 0
 476 04d4 8B4508   		movl	8(%ebp), %eax
 477 04d7 8D483C   		leal	60(%eax), %ecx
 478 04da 0FB655F7 		movzbl	-9(%ebp), %edx
 479 04de 89D0     		movl	%edx, %eax
 480 04e0 C1E003   		sall	$3, %eax
 481 04e3 01D0     		addl	%edx, %eax
 482 04e5 01C0     		addl	%eax, %eax
 483 04e7 01D0     		addl	%edx, %eax
 484 04e9 8D1CC500 		leal	0(,%eax,8), %ebx
 484      000000
 485 04f0 01D8     		addl	%ebx, %eax
 486 04f2 01D0     		addl	%edx, %eax
 487 04f4 83C030   		addl	$48, %eax
 488 04f7 05000000 		addl	$_TASK_RUN_QUEUE, %eax
 488      00
 489 04fc 83C00C   		addl	$12, %eax
 490 04ff 894C2404 		movl	%ecx, 4(%esp)
 491 0503 890424   		movl	%eax, (%esp)
 492 0506 E8000000 		call	_Assign
 492      00
 126:E:/NeuOrga/Programmieren/c_cpp/github_os/input/src/os_base\os_task_queue.c ****       Assign(&(&TASK_RUN_QUEUE[element_nr])->exe_time                      , &task->exe_time   );
 493              		.loc 1 126 0
 494 050b 8B4508   		movl	8(%ebp), %eax
 495 050e 8D484C   		leal	76(%eax), %ecx
 496 0511 0FB655F7 		movzbl	-9(%ebp), %edx
 497 0515 89D0     		movl	%edx, %eax
 498 0517 C1E003   		sall	$3, %eax
 499 051a 01D0     		addl	%edx, %eax
 500 051c 01C0     		addl	%eax, %eax
 501 051e 01D0     		addl	%edx, %eax
 502 0520 8D1CC500 		leal	0(,%eax,8), %ebx
 502      000000
 503 0527 01D8     		addl	%ebx, %eax
 504 0529 01D0     		addl	%edx, %eax
 505 052b 83C040   		addl	$64, %eax
 506 052e 05000000 		addl	$_TASK_RUN_QUEUE, %eax
 506      00
 507 0533 83C00C   		addl	$12, %eax
 508 0536 894C2404 		movl	%ecx, 4(%esp)
 509 053a 890424   		movl	%eax, (%esp)
 510 053d E8000000 		call	_Assign
 510      00
 127:E:/NeuOrga/Programmieren/c_cpp/github_os/input/src/os_base\os_task_queue.c ****       Assign(&(&TASK_RUN_QUEUE[element_nr])->start_time                    , &task->start_time );
 511              		.loc 1 127 0
 512 0542 8B4508   		movl	8(%ebp), %eax
 513 0545 8D485C   		leal	92(%eax), %ecx
 514 0548 0FB655F7 		movzbl	-9(%ebp), %edx
 515 054c 89D0     		movl	%edx, %eax
 516 054e C1E003   		sall	$3, %eax
 517 0551 01D0     		addl	%edx, %eax
GAS LISTING C:\Users\PRESID~1\AppData\Local\Temp\ccaz3kGv.s 			page 14


 518 0553 01C0     		addl	%eax, %eax
 519 0555 01D0     		addl	%edx, %eax
 520 0557 8D1CC500 		leal	0(,%eax,8), %ebx
 520      000000
 521 055e 01D8     		addl	%ebx, %eax
 522 0560 01D0     		addl	%edx, %eax
 523 0562 83C050   		addl	$80, %eax
 524 0565 05000000 		addl	$_TASK_RUN_QUEUE, %eax
 524      00
 525 056a 83C00C   		addl	$12, %eax
 526 056d 894C2404 		movl	%ecx, 4(%esp)
 527 0571 890424   		movl	%eax, (%esp)
 528 0574 E8000000 		call	_Assign
 528      00
 128:E:/NeuOrga/Programmieren/c_cpp/github_os/input/src/os_base\os_task_queue.c ****       (&TASK_RUN_QUEUE[element_nr])->current_prio                    = task->current_prio;
 529              		.loc 1 128 0
 530 0579 0FB655F7 		movzbl	-9(%ebp), %edx
 531 057d 8B4508   		movl	8(%ebp), %eax
 532 0580 8A486C   		movb	108(%eax), %cl
 533 0583 89D0     		movl	%edx, %eax
 534 0585 C1E003   		sall	$3, %eax
 535 0588 01D0     		addl	%edx, %eax
 536 058a 01C0     		addl	%eax, %eax
 537 058c 01D0     		addl	%edx, %eax
 538 058e 8D1CC500 		leal	0(,%eax,8), %ebx
 538      000000
 539 0595 01D8     		addl	%ebx, %eax
 540 0597 01D0     		addl	%edx, %eax
 541 0599 05600000 		addl	$_TASK_RUN_QUEUE+96, %eax
 541      00
 542 059e 88480C   		movb	%cl, 12(%eax)
 129:E:/NeuOrga/Programmieren/c_cpp/github_os/input/src/os_base\os_task_queue.c ****       (&TASK_RUN_QUEUE[element_nr])->default_prio                    = task->default_prio;
 543              		.loc 1 129 0
 544 05a1 0FB655F7 		movzbl	-9(%ebp), %edx
 545 05a5 8B4508   		movl	8(%ebp), %eax
 546 05a8 8A486D   		movb	109(%eax), %cl
 547 05ab 89D0     		movl	%edx, %eax
 548 05ad C1E003   		sall	$3, %eax
 549 05b0 01D0     		addl	%edx, %eax
 550 05b2 01C0     		addl	%eax, %eax
 551 05b4 01D0     		addl	%edx, %eax
 552 05b6 8D1CC500 		leal	0(,%eax,8), %ebx
 552      000000
 553 05bd 01D8     		addl	%ebx, %eax
 554 05bf 01D0     		addl	%edx, %eax
 555 05c1 05600000 		addl	$_TASK_RUN_QUEUE+96, %eax
 555      00
 556 05c6 88480D   		movb	%cl, 13(%eax)
 130:E:/NeuOrga/Programmieren/c_cpp/github_os/input/src/os_base\os_task_queue.c ****       (&TASK_RUN_QUEUE[element_nr])->fp                              = task->fp;
 557              		.loc 1 130 0
 558 05c9 0FB655F7 		movzbl	-9(%ebp), %edx
 559 05cd 8B4508   		movl	8(%ebp), %eax
 560 05d0 8B4874   		movl	116(%eax), %ecx
 561 05d3 89D0     		movl	%edx, %eax
 562 05d5 C1E003   		sall	$3, %eax
 563 05d8 01D0     		addl	%edx, %eax
 564 05da 01C0     		addl	%eax, %eax
GAS LISTING C:\Users\PRESID~1\AppData\Local\Temp\ccaz3kGv.s 			page 15


 565 05dc 01D0     		addl	%edx, %eax
 566 05de 8D1CC500 		leal	0(,%eax,8), %ebx
 566      000000
 567 05e5 01D8     		addl	%ebx, %eax
 568 05e7 01D0     		addl	%edx, %eax
 569 05e9 05700000 		addl	$_TASK_RUN_QUEUE+112, %eax
 569      00
 570 05ee 894804   		movl	%ecx, 4(%eax)
 131:E:/NeuOrga/Programmieren/c_cpp/github_os/input/src/os_base\os_task_queue.c ****       (&TASK_RUN_QUEUE[element_nr])->state_request                   = task->state_request;
 571              		.loc 1 131 0
 572 05f1 0FB655F7 		movzbl	-9(%ebp), %edx
 573 05f5 8B4508   		movl	8(%ebp), %eax
 574 05f8 8B4878   		movl	120(%eax), %ecx
 575 05fb 89D0     		movl	%edx, %eax
 576 05fd C1E003   		sall	$3, %eax
 577 0600 01D0     		addl	%edx, %eax
 578 0602 01C0     		addl	%eax, %eax
 579 0604 01D0     		addl	%edx, %eax
 580 0606 8D1CC500 		leal	0(,%eax,8), %ebx
 580      000000
 581 060d 01D8     		addl	%ebx, %eax
 582 060f 01D0     		addl	%edx, %eax
 583 0611 05700000 		addl	$_TASK_RUN_QUEUE+112, %eax
 583      00
 584 0616 894808   		movl	%ecx, 8(%eax)
 132:E:/NeuOrga/Programmieren/c_cpp/github_os/input/src/os_base\os_task_queue.c ****       (&TASK_RUN_QUEUE[element_nr])->task_state                      = task->task_state;
 585              		.loc 1 132 0
 586 0619 0FB655F7 		movzbl	-9(%ebp), %edx
 587 061d 8B4508   		movl	8(%ebp), %eax
 588 0620 8B487C   		movl	124(%eax), %ecx
 589 0623 89D0     		movl	%edx, %eax
 590 0625 C1E003   		sall	$3, %eax
 591 0628 01D0     		addl	%edx, %eax
 592 062a 01C0     		addl	%eax, %eax
 593 062c 01D0     		addl	%edx, %eax
 594 062e 8D1CC500 		leal	0(,%eax,8), %ebx
 594      000000
 595 0635 01D8     		addl	%ebx, %eax
 596 0637 01D0     		addl	%edx, %eax
 597 0639 05700000 		addl	$_TASK_RUN_QUEUE+112, %eax
 597      00
 598 063e 89480C   		movl	%ecx, 12(%eax)
 133:E:/NeuOrga/Programmieren/c_cpp/github_os/input/src/os_base\os_task_queue.c ****       (&TASK_RUN_QUEUE[element_nr])->task_group                      = task->task_group;
 599              		.loc 1 133 0
 600 0641 0FB655F7 		movzbl	-9(%ebp), %edx
 601 0645 8B4508   		movl	8(%ebp), %eax
 602 0648 8B888000 		movl	128(%eax), %ecx
 602      0000
 603 064e 89D0     		movl	%edx, %eax
 604 0650 C1E003   		sall	$3, %eax
 605 0653 01D0     		addl	%edx, %eax
 606 0655 01C0     		addl	%eax, %eax
 607 0657 01D0     		addl	%edx, %eax
 608 0659 8D1CC500 		leal	0(,%eax,8), %ebx
 608      000000
 609 0660 01D8     		addl	%ebx, %eax
 610 0662 01D0     		addl	%edx, %eax
GAS LISTING C:\Users\PRESID~1\AppData\Local\Temp\ccaz3kGv.s 			page 16


 611 0664 05800000 		addl	$_TASK_RUN_QUEUE+128, %eax
 611      00
 612 0669 8908     		movl	%ecx, (%eax)
 134:E:/NeuOrga/Programmieren/c_cpp/github_os/input/src/os_base\os_task_queue.c ****    #if(CFG_PROCESSOR == cMCU_X86)
 135:E:/NeuOrga/Programmieren/c_cpp/github_os/input/src/os_base\os_task_queue.c ****       (&TASK_RUN_QUEUE[element_nr])->EAX                             = task->EAX;
 613              		.loc 1 135 0
 614 066b 0FB655F7 		movzbl	-9(%ebp), %edx
 615 066f 8B4508   		movl	8(%ebp), %eax
 616 0672 8B888400 		movl	132(%eax), %ecx
 616      0000
 617 0678 89D0     		movl	%edx, %eax
 618 067a C1E003   		sall	$3, %eax
 619 067d 01D0     		addl	%edx, %eax
 620 067f 01C0     		addl	%eax, %eax
 621 0681 01D0     		addl	%edx, %eax
 622 0683 8D1CC500 		leal	0(,%eax,8), %ebx
 622      000000
 623 068a 01D8     		addl	%ebx, %eax
 624 068c 01D0     		addl	%edx, %eax
 625 068e 05800000 		addl	$_TASK_RUN_QUEUE+128, %eax
 625      00
 626 0693 894804   		movl	%ecx, 4(%eax)
 136:E:/NeuOrga/Programmieren/c_cpp/github_os/input/src/os_base\os_task_queue.c ****       (&TASK_RUN_QUEUE[element_nr])->EBX                             = task->EBX;
 627              		.loc 1 136 0
 628 0696 0FB655F7 		movzbl	-9(%ebp), %edx
 629 069a 8B4508   		movl	8(%ebp), %eax
 630 069d 8B888800 		movl	136(%eax), %ecx
 630      0000
 631 06a3 89D0     		movl	%edx, %eax
 632 06a5 C1E003   		sall	$3, %eax
 633 06a8 01D0     		addl	%edx, %eax
 634 06aa 01C0     		addl	%eax, %eax
 635 06ac 01D0     		addl	%edx, %eax
 636 06ae 8D1CC500 		leal	0(,%eax,8), %ebx
 636      000000
 637 06b5 01D8     		addl	%ebx, %eax
 638 06b7 01D0     		addl	%edx, %eax
 639 06b9 05800000 		addl	$_TASK_RUN_QUEUE+128, %eax
 639      00
 640 06be 894808   		movl	%ecx, 8(%eax)
 137:E:/NeuOrga/Programmieren/c_cpp/github_os/input/src/os_base\os_task_queue.c ****       (&TASK_RUN_QUEUE[element_nr])->ECX                             = task->ECX;
 641              		.loc 1 137 0
 642 06c1 0FB655F7 		movzbl	-9(%ebp), %edx
 643 06c5 8B4508   		movl	8(%ebp), %eax
 644 06c8 8B888C00 		movl	140(%eax), %ecx
 644      0000
 645 06ce 89D0     		movl	%edx, %eax
 646 06d0 C1E003   		sall	$3, %eax
 647 06d3 01D0     		addl	%edx, %eax
 648 06d5 01C0     		addl	%eax, %eax
 649 06d7 01D0     		addl	%edx, %eax
 650 06d9 8D1CC500 		leal	0(,%eax,8), %ebx
 650      000000
 651 06e0 01D8     		addl	%ebx, %eax
 652 06e2 01D0     		addl	%edx, %eax
 653 06e4 05800000 		addl	$_TASK_RUN_QUEUE+128, %eax
 653      00
GAS LISTING C:\Users\PRESID~1\AppData\Local\Temp\ccaz3kGv.s 			page 17


 654 06e9 89480C   		movl	%ecx, 12(%eax)
 138:E:/NeuOrga/Programmieren/c_cpp/github_os/input/src/os_base\os_task_queue.c ****       (&TASK_RUN_QUEUE[element_nr])->EDX                             = task->EDX;
 655              		.loc 1 138 0
 656 06ec 0FB655F7 		movzbl	-9(%ebp), %edx
 657 06f0 8B4508   		movl	8(%ebp), %eax
 658 06f3 8B889000 		movl	144(%eax), %ecx
 658      0000
 659 06f9 89D0     		movl	%edx, %eax
 660 06fb C1E003   		sall	$3, %eax
 661 06fe 01D0     		addl	%edx, %eax
 662 0700 01C0     		addl	%eax, %eax
 663 0702 01D0     		addl	%edx, %eax
 664 0704 8D1CC500 		leal	0(,%eax,8), %ebx
 664      000000
 665 070b 01D8     		addl	%ebx, %eax
 666 070d 01D0     		addl	%edx, %eax
 667 070f 05900000 		addl	$_TASK_RUN_QUEUE+144, %eax
 667      00
 668 0714 8908     		movl	%ecx, (%eax)
 139:E:/NeuOrga/Programmieren/c_cpp/github_os/input/src/os_base\os_task_queue.c ****    #else
 140:E:/NeuOrga/Programmieren/c_cpp/github_os/input/src/os_base\os_task_queue.c ****       (&TASK_RUN_QUEUE[element_nr])->r0                             = task->r0;
 141:E:/NeuOrga/Programmieren/c_cpp/github_os/input/src/os_base\os_task_queue.c ****       (&TASK_RUN_QUEUE[element_nr])->r1                             = task->r1;
 142:E:/NeuOrga/Programmieren/c_cpp/github_os/input/src/os_base\os_task_queue.c ****       (&TASK_RUN_QUEUE[element_nr])->r2                             = task->r2;
 143:E:/NeuOrga/Programmieren/c_cpp/github_os/input/src/os_base\os_task_queue.c ****       (&TASK_RUN_QUEUE[element_nr])->r3                             = task->r3;
 144:E:/NeuOrga/Programmieren/c_cpp/github_os/input/src/os_base\os_task_queue.c ****       (&TASK_RUN_QUEUE[element_nr])->r4                             = task->r4;
 145:E:/NeuOrga/Programmieren/c_cpp/github_os/input/src/os_base\os_task_queue.c ****       (&TASK_RUN_QUEUE[element_nr])->r5                             = task->r5;
 146:E:/NeuOrga/Programmieren/c_cpp/github_os/input/src/os_base\os_task_queue.c ****       (&TASK_RUN_QUEUE[element_nr])->r6                             = task->r6;
 147:E:/NeuOrga/Programmieren/c_cpp/github_os/input/src/os_base\os_task_queue.c ****       (&TASK_RUN_QUEUE[element_nr])->r7                             = task->r7;
 148:E:/NeuOrga/Programmieren/c_cpp/github_os/input/src/os_base\os_task_queue.c ****       (&TASK_RUN_QUEUE[element_nr])->r8                             = task->r8;
 149:E:/NeuOrga/Programmieren/c_cpp/github_os/input/src/os_base\os_task_queue.c ****       (&TASK_RUN_QUEUE[element_nr])->r9                             = task->r9;
 150:E:/NeuOrga/Programmieren/c_cpp/github_os/input/src/os_base\os_task_queue.c ****       (&TASK_RUN_QUEUE[element_nr])->r10                            = task->r10;
 151:E:/NeuOrga/Programmieren/c_cpp/github_os/input/src/os_base\os_task_queue.c ****       (&TASK_RUN_QUEUE[element_nr])->r11                            = task->r11;
 152:E:/NeuOrga/Programmieren/c_cpp/github_os/input/src/os_base\os_task_queue.c ****       (&TASK_RUN_QUEUE[element_nr])->r12                            = task->r12;
 153:E:/NeuOrga/Programmieren/c_cpp/github_os/input/src/os_base\os_task_queue.c ****    #endif
 154:E:/NeuOrga/Programmieren/c_cpp/github_os/input/src/os_base\os_task_queue.c ****       (&TASK_RUN_QUEUE[element_nr])->pStackPointer                   = task->pStackPointer;
 669              		.loc 1 154 0
 670 0716 0FB655F7 		movzbl	-9(%ebp), %edx
 671 071a 8B4508   		movl	8(%ebp), %eax
 672 071d 8B889400 		movl	148(%eax), %ecx
 672      0000
 673 0723 89D0     		movl	%edx, %eax
 674 0725 C1E003   		sall	$3, %eax
 675 0728 01D0     		addl	%edx, %eax
 676 072a 01C0     		addl	%eax, %eax
 677 072c 01D0     		addl	%edx, %eax
 678 072e 8D1CC500 		leal	0(,%eax,8), %ebx
 678      000000
 679 0735 01D8     		addl	%ebx, %eax
 680 0737 01D0     		addl	%edx, %eax
 681 0739 05900000 		addl	$_TASK_RUN_QUEUE+144, %eax
 681      00
 682 073e 894804   		movl	%ecx, 4(%eax)
 155:E:/NeuOrga/Programmieren/c_cpp/github_os/input/src/os_base\os_task_queue.c ****       (&TASK_RUN_QUEUE[element_nr])->pStackPointerByMalloc           = task->pStackPointerByMalloc;
 683              		.loc 1 155 0
 684 0741 0FB655F7 		movzbl	-9(%ebp), %edx
 685 0745 8B4508   		movl	8(%ebp), %eax
 686 0748 8B889800 		movl	152(%eax), %ecx
GAS LISTING C:\Users\PRESID~1\AppData\Local\Temp\ccaz3kGv.s 			page 18


 686      0000
 687 074e 89D0     		movl	%edx, %eax
 688 0750 C1E003   		sall	$3, %eax
 689 0753 01D0     		addl	%edx, %eax
 690 0755 01C0     		addl	%eax, %eax
 691 0757 01D0     		addl	%edx, %eax
 692 0759 8D1CC500 		leal	0(,%eax,8), %ebx
 692      000000
 693 0760 01D8     		addl	%ebx, %eax
 694 0762 01D0     		addl	%edx, %eax
 695 0764 05900000 		addl	$_TASK_RUN_QUEUE+144, %eax
 695      00
 696 0769 894808   		movl	%ecx, 8(%eax)
 156:E:/NeuOrga/Programmieren/c_cpp/github_os/input/src/os_base\os_task_queue.c ****       (&TASK_RUN_QUEUE[element_nr])->pStackPointerStart              = task->pStackPointerStart;
 697              		.loc 1 156 0
 698 076c 0FB655F7 		movzbl	-9(%ebp), %edx
 699 0770 8B4508   		movl	8(%ebp), %eax
 700 0773 8B889C00 		movl	156(%eax), %ecx
 700      0000
 701 0779 89D0     		movl	%edx, %eax
 702 077b C1E003   		sall	$3, %eax
 703 077e 01D0     		addl	%edx, %eax
 704 0780 01C0     		addl	%eax, %eax
 705 0782 01D0     		addl	%edx, %eax
 706 0784 8D1CC500 		leal	0(,%eax,8), %ebx
 706      000000
 707 078b 01D8     		addl	%ebx, %eax
 708 078d 01D0     		addl	%edx, %eax
 709 078f 05900000 		addl	$_TASK_RUN_QUEUE+144, %eax
 709      00
 710 0794 89480C   		movl	%ecx, 12(%eax)
 157:E:/NeuOrga/Programmieren/c_cpp/github_os/input/src/os_base\os_task_queue.c ****       (&TASK_RUN_QUEUE[element_nr])->StackSize                       = task->StackSize;
 711              		.loc 1 157 0
 712 0797 0FB655F7 		movzbl	-9(%ebp), %edx
 713 079b 8B4508   		movl	8(%ebp), %eax
 714 079e 8B88A000 		movl	160(%eax), %ecx
 714      0000
 715 07a4 89D0     		movl	%edx, %eax
 716 07a6 C1E003   		sall	$3, %eax
 717 07a9 01D0     		addl	%edx, %eax
 718 07ab 01C0     		addl	%eax, %eax
 719 07ad 01D0     		addl	%edx, %eax
 720 07af 8D1CC500 		leal	0(,%eax,8), %ebx
 720      000000
 721 07b6 01D8     		addl	%ebx, %eax
 722 07b8 01D0     		addl	%edx, %eax
 723 07ba 05A00000 		addl	$_TASK_RUN_QUEUE+160, %eax
 723      00
 724 07bf 8908     		movl	%ecx, (%eax)
 158:E:/NeuOrga/Programmieren/c_cpp/github_os/input/src/os_base\os_task_queue.c ****       (&TASK_RUN_QUEUE[element_nr])->pStackPointerEnd                = task->pStackPointerEnd;
 725              		.loc 1 158 0
 726 07c1 0FB655F7 		movzbl	-9(%ebp), %edx
 727 07c5 8B4508   		movl	8(%ebp), %eax
 728 07c8 8B88A400 		movl	164(%eax), %ecx
 728      0000
 729 07ce 89D0     		movl	%edx, %eax
 730 07d0 C1E003   		sall	$3, %eax
GAS LISTING C:\Users\PRESID~1\AppData\Local\Temp\ccaz3kGv.s 			page 19


 731 07d3 01D0     		addl	%edx, %eax
 732 07d5 01C0     		addl	%eax, %eax
 733 07d7 01D0     		addl	%edx, %eax
 734 07d9 8D1CC500 		leal	0(,%eax,8), %ebx
 734      000000
 735 07e0 01D8     		addl	%ebx, %eax
 736 07e2 01D0     		addl	%edx, %eax
 737 07e4 05A00000 		addl	$_TASK_RUN_QUEUE+160, %eax
 737      00
 738 07e9 894804   		movl	%ecx, 4(%eax)
 159:E:/NeuOrga/Programmieren/c_cpp/github_os/input/src/os_base\os_task_queue.c ****       ret_task = &TASK_RUN_QUEUE[element_nr];
 739              		.loc 1 159 0
 740 07ec 0FB655F7 		movzbl	-9(%ebp), %edx
 741 07f0 89D0     		movl	%edx, %eax
 742 07f2 C1E003   		sall	$3, %eax
 743 07f5 01D0     		addl	%edx, %eax
 744 07f7 01C0     		addl	%eax, %eax
 745 07f9 01D0     		addl	%edx, %eax
 746 07fb 8D0CC500 		leal	0(,%eax,8), %ecx
 746      000000
 747 0802 01C8     		addl	%ecx, %eax
 748 0804 01D0     		addl	%edx, %eax
 749 0806 05000000 		addl	$_TASK_RUN_QUEUE, %eax
 749      00
 750 080b 8945F0   		movl	%eax, -16(%ebp)
 751              	L11:
 160:E:/NeuOrga/Programmieren/c_cpp/github_os/input/src/os_base\os_task_queue.c ****    }
 161:E:/NeuOrga/Programmieren/c_cpp/github_os/input/src/os_base\os_task_queue.c ****    return ret_task;
 752              		.loc 1 161 0
 753 080e 8B45F0   		movl	-16(%ebp), %eax
 162:E:/NeuOrga/Programmieren/c_cpp/github_os/input/src/os_base\os_task_queue.c **** }
 754              		.loc 1 162 0
 755 0811 83C424   		addl	$36, %esp
 756 0814 5B       		popl	%ebx
 757              		.cfi_restore 3
 758 0815 5D       		popl	%ebp
 759              		.cfi_restore 5
 760              		.cfi_def_cfa 4, 4
 761 0816 C3       		ret
 762              		.cfi_endproc
 763              	LFE2:
 764              		.globl	_DeleteFromTaskQueue
 766              	_DeleteFromTaskQueue:
 767              	LFB3:
 163:E:/NeuOrga/Programmieren/c_cpp/github_os/input/src/os_base\os_task_queue.c **** void DeleteFromTaskQueue(task_t* task)
 164:E:/NeuOrga/Programmieren/c_cpp/github_os/input/src/os_base\os_task_queue.c **** {
 768              		.loc 1 164 0
 769              		.cfi_startproc
 770 0817 55       		pushl	%ebp
 771              		.cfi_def_cfa_offset 8
 772              		.cfi_offset 5, -8
 773 0818 89E5     		movl	%esp, %ebp
 774              		.cfi_def_cfa_register 5
 775 081a 83EC18   		subl	$24, %esp
 165:E:/NeuOrga/Programmieren/c_cpp/github_os/input/src/os_base\os_task_queue.c ****    task->active                                =   False   ;
 776              		.loc 1 165 0
 777 081d 8B4508   		movl	8(%ebp), %eax
GAS LISTING C:\Users\PRESID~1\AppData\Local\Temp\ccaz3kGv.s 			page 20


 778 0820 8A10     		movb	(%eax), %dl
 779 0822 83E2FE   		andl	$-2, %edx
 780 0825 8810     		movb	%dl, (%eax)
 166:E:/NeuOrga/Programmieren/c_cpp/github_os/input/src/os_base\os_task_queue.c ****    task->task_queued                           =   False   ;
 781              		.loc 1 166 0
 782 0827 8B4508   		movl	8(%ebp), %eax
 783 082a 8A10     		movb	(%eax), %dl
 784 082c 83E2FD   		andl	$-3, %edx
 785 082f 8810     		movb	%dl, (%eax)
 167:E:/NeuOrga/Programmieren/c_cpp/github_os/input/src/os_base\os_task_queue.c ****    task->IdleTask                              =   False   ;
 786              		.loc 1 167 0
 787 0831 8B4508   		movl	8(%ebp), %eax
 788 0834 8A10     		movb	(%eax), %dl
 789 0836 83E2FB   		andl	$-5, %edx
 790 0839 8810     		movb	%dl, (%eax)
 168:E:/NeuOrga/Programmieren/c_cpp/github_os/input/src/os_base\os_task_queue.c ****    task->FREE                                  =   0       ;
 791              		.loc 1 168 0
 792 083b 8B4508   		movl	8(%ebp), %eax
 793 083e 8B10     		movl	(%eax), %edx
 794 0840 83E207   		andl	$7, %edx
 795 0843 8910     		movl	%edx, (%eax)
 169:E:/NeuOrga/Programmieren/c_cpp/github_os/input/src/os_base\os_task_queue.c ****    task->NrOfInsAllowed                        =   0       ;
 796              		.loc 1 169 0
 797 0845 8B4508   		movl	8(%ebp), %eax
 798 0848 C6400400 		movb	$0, 4(%eax)
 170:E:/NeuOrga/Programmieren/c_cpp/github_os/input/src/os_base\os_task_queue.c ****    task->NrOfInsActivated                      =   0       ;
 799              		.loc 1 170 0
 800 084c 8B4508   		movl	8(%ebp), %eax
 801 084f C6400500 		movb	$0, 5(%eax)
 171:E:/NeuOrga/Programmieren/c_cpp/github_os/input/src/os_base\os_task_queue.c ****    AssignNull(&task->WaitActUntil);
 802              		.loc 1 171 0
 803 0853 8B4508   		movl	8(%ebp), %eax
 804 0856 83C006   		addl	$6, %eax
 805 0859 890424   		movl	%eax, (%esp)
 806 085c E8000000 		call	_AssignNull
 806      00
 172:E:/NeuOrga/Programmieren/c_cpp/github_os/input/src/os_base\os_task_queue.c ****    AssignNull(&task->wait_time);
 807              		.loc 1 172 0
 808 0861 8B4508   		movl	8(%ebp), %eax
 809 0864 83C016   		addl	$22, %eax
 810 0867 890424   		movl	%eax, (%esp)
 811 086a E8000000 		call	_AssignNull
 811      00
 173:E:/NeuOrga/Programmieren/c_cpp/github_os/input/src/os_base\os_task_queue.c ****    AssignNull(&task->TimeToPrioInc);
 812              		.loc 1 173 0
 813 086f 8B4508   		movl	8(%ebp), %eax
 814 0872 83C026   		addl	$38, %eax
 815 0875 890424   		movl	%eax, (%esp)
 816 0878 E8000000 		call	_AssignNull
 816      00
 174:E:/NeuOrga/Programmieren/c_cpp/github_os/input/src/os_base\os_task_queue.c ****    task->overwaittime_per_prio_inc_step        =   0       ;
 817              		.loc 1 174 0
 818 087d 8B4508   		movl	8(%ebp), %eax
 819 0880 C7403800 		movl	$0, 56(%eax)
 819      000000
 175:E:/NeuOrga/Programmieren/c_cpp/github_os/input/src/os_base\os_task_queue.c ****    AssignNull(&task->max_allowed_wait_time);
 820              		.loc 1 175 0
GAS LISTING C:\Users\PRESID~1\AppData\Local\Temp\ccaz3kGv.s 			page 21


 821 0887 8B4508   		movl	8(%ebp), %eax
 822 088a 83C03C   		addl	$60, %eax
 823 088d 890424   		movl	%eax, (%esp)
 824 0890 E8000000 		call	_AssignNull
 824      00
 176:E:/NeuOrga/Programmieren/c_cpp/github_os/input/src/os_base\os_task_queue.c ****    AssignNull(&task->exe_time);
 825              		.loc 1 176 0
 826 0895 8B4508   		movl	8(%ebp), %eax
 827 0898 83C04C   		addl	$76, %eax
 828 089b 890424   		movl	%eax, (%esp)
 829 089e E8000000 		call	_AssignNull
 829      00
 177:E:/NeuOrga/Programmieren/c_cpp/github_os/input/src/os_base\os_task_queue.c ****    AssignNull(&task->start_time);
 830              		.loc 1 177 0
 831 08a3 8B4508   		movl	8(%ebp), %eax
 832 08a6 83C05C   		addl	$92, %eax
 833 08a9 890424   		movl	%eax, (%esp)
 834 08ac E8000000 		call	_AssignNull
 834      00
 178:E:/NeuOrga/Programmieren/c_cpp/github_os/input/src/os_base\os_task_queue.c ****    task->current_prio                          =   0       ;
 835              		.loc 1 178 0
 836 08b1 8B4508   		movl	8(%ebp), %eax
 837 08b4 C6406C00 		movb	$0, 108(%eax)
 179:E:/NeuOrga/Programmieren/c_cpp/github_os/input/src/os_base\os_task_queue.c ****    task->default_prio                          =   0       ;
 838              		.loc 1 179 0
 839 08b8 8B4508   		movl	8(%ebp), %eax
 840 08bb C6406D00 		movb	$0, 109(%eax)
 180:E:/NeuOrga/Programmieren/c_cpp/github_os/input/src/os_base\os_task_queue.c ****    task->fp                                    =   0       ;
 841              		.loc 1 180 0
 842 08bf 8B4508   		movl	8(%ebp), %eax
 843 08c2 C7407400 		movl	$0, 116(%eax)
 843      000000
 181:E:/NeuOrga/Programmieren/c_cpp/github_os/input/src/os_base\os_task_queue.c ****    task->state_request                         =   &task_state_request       ;
 844              		.loc 1 181 0
 845 08c9 8B4508   		movl	8(%ebp), %eax
 846 08cc C7407800 		movl	$_task_state_request, 120(%eax)
 846      000000
 182:E:/NeuOrga/Programmieren/c_cpp/github_os/input/src/os_base\os_task_queue.c ****    task->task_state                            =   Task_unspecified;
 847              		.loc 1 182 0
 848 08d3 8B4508   		movl	8(%ebp), %eax
 849 08d6 C7407C00 		movl	$0, 124(%eax)
 849      000000
 183:E:/NeuOrga/Programmieren/c_cpp/github_os/input/src/os_base\os_task_queue.c ****    task->task_group                            =   0       ;
 850              		.loc 1 183 0
 851 08dd 8B4508   		movl	8(%ebp), %eax
 852 08e0 C7808000 		movl	$0, 128(%eax)
 852      00000000 
 852      0000
 184:E:/NeuOrga/Programmieren/c_cpp/github_os/input/src/os_base\os_task_queue.c ****    #if(CFG_PROCESSOR == cMCU_X86)
 185:E:/NeuOrga/Programmieren/c_cpp/github_os/input/src/os_base\os_task_queue.c ****    task->EAX                                   =   0              ;
 853              		.loc 1 185 0
 854 08ea 8B4508   		movl	8(%ebp), %eax
 855 08ed C7808400 		movl	$0, 132(%eax)
 855      00000000 
 855      0000
 186:E:/NeuOrga/Programmieren/c_cpp/github_os/input/src/os_base\os_task_queue.c ****    task->EBX                                   =   0             ;
 856              		.loc 1 186 0
GAS LISTING C:\Users\PRESID~1\AppData\Local\Temp\ccaz3kGv.s 			page 22


 857 08f7 8B4508   		movl	8(%ebp), %eax
 858 08fa C7808800 		movl	$0, 136(%eax)
 858      00000000 
 858      0000
 187:E:/NeuOrga/Programmieren/c_cpp/github_os/input/src/os_base\os_task_queue.c ****    task->ECX                                   =   0              ;
 859              		.loc 1 187 0
 860 0904 8B4508   		movl	8(%ebp), %eax
 861 0907 C7808C00 		movl	$0, 140(%eax)
 861      00000000 
 861      0000
 188:E:/NeuOrga/Programmieren/c_cpp/github_os/input/src/os_base\os_task_queue.c ****    task->EDX                                   =   0              ;
 862              		.loc 1 188 0
 863 0911 8B4508   		movl	8(%ebp), %eax
 864 0914 C7809000 		movl	$0, 144(%eax)
 864      00000000 
 864      0000
 189:E:/NeuOrga/Programmieren/c_cpp/github_os/input/src/os_base\os_task_queue.c ****    #elif(CFG_PROCESSOR == cMCU_CORTEX_M4)
 190:E:/NeuOrga/Programmieren/c_cpp/github_os/input/src/os_base\os_task_queue.c ****    task->r0                                   =   0              ;
 191:E:/NeuOrga/Programmieren/c_cpp/github_os/input/src/os_base\os_task_queue.c ****    task->r1                                   =   0              ;
 192:E:/NeuOrga/Programmieren/c_cpp/github_os/input/src/os_base\os_task_queue.c ****    task->r2                                   =   0              ;
 193:E:/NeuOrga/Programmieren/c_cpp/github_os/input/src/os_base\os_task_queue.c ****    task->r3                                   =   0              ;
 194:E:/NeuOrga/Programmieren/c_cpp/github_os/input/src/os_base\os_task_queue.c ****    task->r4                                   =   0              ;
 195:E:/NeuOrga/Programmieren/c_cpp/github_os/input/src/os_base\os_task_queue.c ****    task->r5                                   =   0              ;
 196:E:/NeuOrga/Programmieren/c_cpp/github_os/input/src/os_base\os_task_queue.c ****    task->r6                                   =   0              ;
 197:E:/NeuOrga/Programmieren/c_cpp/github_os/input/src/os_base\os_task_queue.c ****    task->r7                                   =   0              ;
 198:E:/NeuOrga/Programmieren/c_cpp/github_os/input/src/os_base\os_task_queue.c ****    task->r8                                   =   0              ;
 199:E:/NeuOrga/Programmieren/c_cpp/github_os/input/src/os_base\os_task_queue.c ****    task->r9                                   =   0              ;
 200:E:/NeuOrga/Programmieren/c_cpp/github_os/input/src/os_base\os_task_queue.c ****    task->r10                                  =   0             ;
 201:E:/NeuOrga/Programmieren/c_cpp/github_os/input/src/os_base\os_task_queue.c ****    task->r11                                  =   0             ;
 202:E:/NeuOrga/Programmieren/c_cpp/github_os/input/src/os_base\os_task_queue.c ****    task->r12                                  =   0             ;
 203:E:/NeuOrga/Programmieren/c_cpp/github_os/input/src/os_base\os_task_queue.c ****    #else
 204:E:/NeuOrga/Programmieren/c_cpp/github_os/input/src/os_base\os_task_queue.c ****    #error "os_task_queue.c"
 205:E:/NeuOrga/Programmieren/c_cpp/github_os/input/src/os_base\os_task_queue.c ****    #endif
 206:E:/NeuOrga/Programmieren/c_cpp/github_os/input/src/os_base\os_task_queue.c ****    task->pStackPointer                         =   0       ;
 865              		.loc 1 206 0
 866 091e 8B4508   		movl	8(%ebp), %eax
 867 0921 C7809400 		movl	$0, 148(%eax)
 867      00000000 
 867      0000
 207:E:/NeuOrga/Programmieren/c_cpp/github_os/input/src/os_base\os_task_queue.c ****    task->pStackPointerByMalloc                 =   0       ;
 868              		.loc 1 207 0
 869 092b 8B4508   		movl	8(%ebp), %eax
 870 092e C7809800 		movl	$0, 152(%eax)
 870      00000000 
 870      0000
 208:E:/NeuOrga/Programmieren/c_cpp/github_os/input/src/os_base\os_task_queue.c ****    task->pStackPointerStart                    =   0       ;
 871              		.loc 1 208 0
 872 0938 8B4508   		movl	8(%ebp), %eax
 873 093b C7809C00 		movl	$0, 156(%eax)
 873      00000000 
 873      0000
 209:E:/NeuOrga/Programmieren/c_cpp/github_os/input/src/os_base\os_task_queue.c ****    task->StackSize                             =   0       ;
 874              		.loc 1 209 0
 875 0945 8B4508   		movl	8(%ebp), %eax
 876 0948 C780A000 		movl	$0, 160(%eax)
 876      00000000 
 876      0000
GAS LISTING C:\Users\PRESID~1\AppData\Local\Temp\ccaz3kGv.s 			page 23


 210:E:/NeuOrga/Programmieren/c_cpp/github_os/input/src/os_base\os_task_queue.c ****    task->pStackPointerEnd                      =   0       ;
 877              		.loc 1 210 0
 878 0952 8B4508   		movl	8(%ebp), %eax
 879 0955 C780A400 		movl	$0, 164(%eax)
 879      00000000 
 879      0000
 211:E:/NeuOrga/Programmieren/c_cpp/github_os/input/src/os_base\os_task_queue.c **** }
 880              		.loc 1 211 0
 881 095f C9       		leave
 882              		.cfi_restore 5
 883              		.cfi_def_cfa 4, 4
 884 0960 C3       		ret
 885              		.cfi_endproc
 886              	LFE3:
 887              		.globl	_GetFromTaskQueue
 889              	_GetFromTaskQueue:
 890              	LFB4:
 212:E:/NeuOrga/Programmieren/c_cpp/github_os/input/src/os_base\os_task_queue.c **** task_t* GetFromTaskQueue(scheduling_t* scheduling_queue_element)
 213:E:/NeuOrga/Programmieren/c_cpp/github_os/input/src/os_base\os_task_queue.c **** {
 891              		.loc 1 213 0
 892              		.cfi_startproc
 893 0961 55       		pushl	%ebp
 894              		.cfi_def_cfa_offset 8
 895              		.cfi_offset 5, -8
 896 0962 89E5     		movl	%esp, %ebp
 897              		.cfi_def_cfa_register 5
 214:E:/NeuOrga/Programmieren/c_cpp/github_os/input/src/os_base\os_task_queue.c ****    return ((task_t*)*scheduling_queue_element);
 898              		.loc 1 214 0
 899 0964 8B4508   		movl	8(%ebp), %eax
 900 0967 8B00     		movl	(%eax), %eax
 215:E:/NeuOrga/Programmieren/c_cpp/github_os/input/src/os_base\os_task_queue.c **** }
 901              		.loc 1 215 0
 902 0969 5D       		popl	%ebp
 903              		.cfi_restore 5
 904              		.cfi_def_cfa 4, 4
 905 096a C3       		ret
 906              		.cfi_endproc
 907              	LFE4:
 908              		.globl	_GetFromSchedulingQueue
 910              	_GetFromSchedulingQueue:
 911              	LFB5:
 216:E:/NeuOrga/Programmieren/c_cpp/github_os/input/src/os_base\os_task_queue.c **** scheduling_t* GetFromSchedulingQueue(unsigned_char_t element_nr)
 217:E:/NeuOrga/Programmieren/c_cpp/github_os/input/src/os_base\os_task_queue.c **** {
 912              		.loc 1 217 0
 913              		.cfi_startproc
 914 096b 55       		pushl	%ebp
 915              		.cfi_def_cfa_offset 8
 916              		.cfi_offset 5, -8
 917 096c 89E5     		movl	%esp, %ebp
 918              		.cfi_def_cfa_register 5
 919 096e 83EC04   		subl	$4, %esp
 920 0971 8B4508   		movl	8(%ebp), %eax
 921 0974 8845FC   		movb	%al, -4(%ebp)
 218:E:/NeuOrga/Programmieren/c_cpp/github_os/input/src/os_base\os_task_queue.c ****    return ((scheduling_t*)&TASK_SCHEDULING_QUEUE[element_nr]);
 922              		.loc 1 218 0
 923 0977 0FB645FC 		movzbl	-4(%ebp), %eax
 924 097b C1E002   		sall	$2, %eax
GAS LISTING C:\Users\PRESID~1\AppData\Local\Temp\ccaz3kGv.s 			page 24


 925 097e 05000000 		addl	$_TASK_SCHEDULING_QUEUE, %eax
 925      00
 219:E:/NeuOrga/Programmieren/c_cpp/github_os/input/src/os_base\os_task_queue.c **** }
 926              		.loc 1 219 0
 927 0983 C9       		leave
 928              		.cfi_restore 5
 929              		.cfi_def_cfa 4, 4
 930 0984 C3       		ret
 931              		.cfi_endproc
 932              	LFE5:
 933              		.globl	_DeleteFromSchedulingQueue
 935              	_DeleteFromSchedulingQueue:
 936              	LFB6:
 220:E:/NeuOrga/Programmieren/c_cpp/github_os/input/src/os_base\os_task_queue.c **** /* Pointer Queue Handling*/
 221:E:/NeuOrga/Programmieren/c_cpp/github_os/input/src/os_base\os_task_queue.c **** void DeleteFromSchedulingQueue(scheduling_t* scheduling_queue_element)
 222:E:/NeuOrga/Programmieren/c_cpp/github_os/input/src/os_base\os_task_queue.c **** {
 937              		.loc 1 222 0
 938              		.cfi_startproc
 939 0985 55       		pushl	%ebp
 940              		.cfi_def_cfa_offset 8
 941              		.cfi_offset 5, -8
 942 0986 89E5     		movl	%esp, %ebp
 943              		.cfi_def_cfa_register 5
 223:E:/NeuOrga/Programmieren/c_cpp/github_os/input/src/os_base\os_task_queue.c ****    *scheduling_queue_element = 0;
 944              		.loc 1 223 0
 945 0988 8B4508   		movl	8(%ebp), %eax
 946 098b C7000000 		movl	$0, (%eax)
 946      0000
 224:E:/NeuOrga/Programmieren/c_cpp/github_os/input/src/os_base\os_task_queue.c **** }
 947              		.loc 1 224 0
 948 0991 5D       		popl	%ebp
 949              		.cfi_restore 5
 950              		.cfi_def_cfa 4, 4
 951 0992 C3       		ret
 952              		.cfi_endproc
 953              	LFE6:
 954              		.globl	_AddToSchedulingQueue
 956              	_AddToSchedulingQueue:
 957              	LFB7:
 225:E:/NeuOrga/Programmieren/c_cpp/github_os/input/src/os_base\os_task_queue.c **** void AddToSchedulingQueue(task_t* task)
 226:E:/NeuOrga/Programmieren/c_cpp/github_os/input/src/os_base\os_task_queue.c **** {
 958              		.loc 1 226 0
 959              		.cfi_startproc
 960 0993 55       		pushl	%ebp
 961              		.cfi_def_cfa_offset 8
 962              		.cfi_offset 5, -8
 963 0994 89E5     		movl	%esp, %ebp
 964              		.cfi_def_cfa_register 5
 965 0996 83EC10   		subl	$16, %esp
 227:E:/NeuOrga/Programmieren/c_cpp/github_os/input/src/os_base\os_task_queue.c ****    /*
 228:E:/NeuOrga/Programmieren/c_cpp/github_os/input/src/os_base\os_task_queue.c ****    Description:
 229:E:/NeuOrga/Programmieren/c_cpp/github_os/input/src/os_base\os_task_queue.c ****    add "task" into next free slot of TASK_SCHEDULING_QUEUE
 230:E:/NeuOrga/Programmieren/c_cpp/github_os/input/src/os_base\os_task_queue.c **** 
 231:E:/NeuOrga/Programmieren/c_cpp/github_os/input/src/os_base\os_task_queue.c ****    in:     task_t* task (task to be added)
 232:E:/NeuOrga/Programmieren/c_cpp/github_os/input/src/os_base\os_task_queue.c ****    out:
 233:E:/NeuOrga/Programmieren/c_cpp/github_os/input/src/os_base\os_task_queue.c ****    */
 234:E:/NeuOrga/Programmieren/c_cpp/github_os/input/src/os_base\os_task_queue.c ****    unsigned_char_t Add_successful = False;
GAS LISTING C:\Users\PRESID~1\AppData\Local\Temp\ccaz3kGv.s 			page 25


 966              		.loc 1 234 0
 967 0999 C645FF00 		movb	$0, -1(%ebp)
 235:E:/NeuOrga/Programmieren/c_cpp/github_os/input/src/os_base\os_task_queue.c ****    unsigned_char_t index = 0;
 968              		.loc 1 235 0
 969 099d C645FE00 		movb	$0, -2(%ebp)
 236:E:/NeuOrga/Programmieren/c_cpp/github_os/input/src/os_base\os_task_queue.c **** 
 237:E:/NeuOrga/Programmieren/c_cpp/github_os/input/src/os_base\os_task_queue.c ****    while(  (index < MAX_RUN_QUEUE_SIZE)
 970              		.loc 1 237 0
 971 09a1 EB28     		jmp	L20
 972              	L23:
 238:E:/NeuOrga/Programmieren/c_cpp/github_os/input/src/os_base\os_task_queue.c ****            &&(Add_successful == False))
 239:E:/NeuOrga/Programmieren/c_cpp/github_os/input/src/os_base\os_task_queue.c ****    {
 240:E:/NeuOrga/Programmieren/c_cpp/github_os/input/src/os_base\os_task_queue.c ****       if(TASK_SCHEDULING_QUEUE[index] == 0)
 973              		.loc 1 240 0
 974 09a3 0FB645FE 		movzbl	-2(%ebp), %eax
 975 09a7 8B048500 		movl	_TASK_SCHEDULING_QUEUE(,%eax,4), %eax
 975      000000
 976 09ae 85C0     		testl	%eax, %eax
 977 09b0 7512     		jne	L21
 241:E:/NeuOrga/Programmieren/c_cpp/github_os/input/src/os_base\os_task_queue.c ****       {
 242:E:/NeuOrga/Programmieren/c_cpp/github_os/input/src/os_base\os_task_queue.c ****          TASK_SCHEDULING_QUEUE[index] = task;
 978              		.loc 1 242 0
 979 09b2 0FB645FE 		movzbl	-2(%ebp), %eax
 980 09b6 8B5508   		movl	8(%ebp), %edx
 981 09b9 89148500 		movl	%edx, _TASK_SCHEDULING_QUEUE(,%eax,4)
 981      000000
 243:E:/NeuOrga/Programmieren/c_cpp/github_os/input/src/os_base\os_task_queue.c ****          Add_successful         = True;
 982              		.loc 1 243 0
 983 09c0 C645FF01 		movb	$1, -1(%ebp)
 984              	L21:
 244:E:/NeuOrga/Programmieren/c_cpp/github_os/input/src/os_base\os_task_queue.c ****       }
 245:E:/NeuOrga/Programmieren/c_cpp/github_os/input/src/os_base\os_task_queue.c ****       index++;
 985              		.loc 1 245 0
 986 09c4 8A45FE   		movb	-2(%ebp), %al
 987 09c7 40       		incl	%eax
 988 09c8 8845FE   		movb	%al, -2(%ebp)
 989              	L20:
 237:E:/NeuOrga/Programmieren/c_cpp/github_os/input/src/os_base\os_task_queue.c ****            &&(Add_successful == False))
 990              		.loc 1 237 0
 991 09cb 807DFE09 		cmpb	$9, -2(%ebp)
 992 09cf 7706     		ja	L22
 238:E:/NeuOrga/Programmieren/c_cpp/github_os/input/src/os_base\os_task_queue.c ****    {
 993              		.loc 1 238 0
 994 09d1 807DFF00 		cmpb	$0, -1(%ebp)
 995 09d5 74CC     		je	L23
 996              	L22:
 246:E:/NeuOrga/Programmieren/c_cpp/github_os/input/src/os_base\os_task_queue.c ****    }
 247:E:/NeuOrga/Programmieren/c_cpp/github_os/input/src/os_base\os_task_queue.c ****    return;
 997              		.loc 1 247 0
 998 09d7 90       		nop
 248:E:/NeuOrga/Programmieren/c_cpp/github_os/input/src/os_base\os_task_queue.c **** }
 999              		.loc 1 248 0
 1000 09d8 C9       		leave
 1001              		.cfi_restore 5
 1002              		.cfi_def_cfa 4, 4
 1003 09d9 C3       		ret
 1004              		.cfi_endproc
GAS LISTING C:\Users\PRESID~1\AppData\Local\Temp\ccaz3kGv.s 			page 26


 1005              	LFE7:
 1006              		.globl	_GetIdleTask
 1008              	_GetIdleTask:
 1009              	LFB8:
 249:E:/NeuOrga/Programmieren/c_cpp/github_os/input/src/os_base\os_task_queue.c **** #if(0)
 250:E:/NeuOrga/Programmieren/c_cpp/github_os/input/src/os_base\os_task_queue.c **** void UpdateSchedulingQueue(void)
 251:E:/NeuOrga/Programmieren/c_cpp/github_os/input/src/os_base\os_task_queue.c **** {
 252:E:/NeuOrga/Programmieren/c_cpp/github_os/input/src/os_base\os_task_queue.c ****    /* eliminate emptry link list entries (should be colleted at the high numbers) */
 253:E:/NeuOrga/Programmieren/c_cpp/github_os/input/src/os_base\os_task_queue.c ****    unsigned_char_t dest = 0, src = 0;
 254:E:/NeuOrga/Programmieren/c_cpp/github_os/input/src/os_base\os_task_queue.c **** 
 255:E:/NeuOrga/Programmieren/c_cpp/github_os/input/src/os_base\os_task_queue.c ****    while (dest < MAX_RUN_PQUEUE_SIZE)
 256:E:/NeuOrga/Programmieren/c_cpp/github_os/input/src/os_base\os_task_queue.c ****    {
 257:E:/NeuOrga/Programmieren/c_cpp/github_os/input/src/os_base\os_task_queue.c ****       if(TASK_SCHEDULING_QUEUE[dest] == 0)
 258:E:/NeuOrga/Programmieren/c_cpp/github_os/input/src/os_base\os_task_queue.c ****       {
 259:E:/NeuOrga/Programmieren/c_cpp/github_os/input/src/os_base\os_task_queue.c ****          /* found empty entry ->shift following elements left in array */
 260:E:/NeuOrga/Programmieren/c_cpp/github_os/input/src/os_base\os_task_queue.c **** 
 261:E:/NeuOrga/Programmieren/c_cpp/github_os/input/src/os_base\os_task_queue.c ****          src = dest; /* start from empty entry point */
 262:E:/NeuOrga/Programmieren/c_cpp/github_os/input/src/os_base\os_task_queue.c ****          while((src < MAX_RUN_PQUEUE_SIZE)&&(TASK_SCHEDULING_QUEUE[src]==0))
 263:E:/NeuOrga/Programmieren/c_cpp/github_os/input/src/os_base\os_task_queue.c ****          {
 264:E:/NeuOrga/Programmieren/c_cpp/github_os/input/src/os_base\os_task_queue.c ****             src++;
 265:E:/NeuOrga/Programmieren/c_cpp/github_os/input/src/os_base\os_task_queue.c ****          }
 266:E:/NeuOrga/Programmieren/c_cpp/github_os/input/src/os_base\os_task_queue.c ****          if((src < MAX_RUN_PQUEUE_SIZE)&&(TASK_SCHEDULING_QUEUE[src]!=0))
 267:E:/NeuOrga/Programmieren/c_cpp/github_os/input/src/os_base\os_task_queue.c ****          {
 268:E:/NeuOrga/Programmieren/c_cpp/github_os/input/src/os_base\os_task_queue.c ****             TASK_SCHEDULING_QUEUE[dest] = TASK_SCHEDULING_QUEUE[src];
 269:E:/NeuOrga/Programmieren/c_cpp/github_os/input/src/os_base\os_task_queue.c ****             TASK_SCHEDULING_QUEUE[src]  = 0;
 270:E:/NeuOrga/Programmieren/c_cpp/github_os/input/src/os_base\os_task_queue.c ****          }
 271:E:/NeuOrga/Programmieren/c_cpp/github_os/input/src/os_base\os_task_queue.c ****       }
 272:E:/NeuOrga/Programmieren/c_cpp/github_os/input/src/os_base\os_task_queue.c ****       dest++;
 273:E:/NeuOrga/Programmieren/c_cpp/github_os/input/src/os_base\os_task_queue.c ****    }
 274:E:/NeuOrga/Programmieren/c_cpp/github_os/input/src/os_base\os_task_queue.c **** }
 275:E:/NeuOrga/Programmieren/c_cpp/github_os/input/src/os_base\os_task_queue.c **** #endif
 276:E:/NeuOrga/Programmieren/c_cpp/github_os/input/src/os_base\os_task_queue.c **** 
 277:E:/NeuOrga/Programmieren/c_cpp/github_os/input/src/os_base\os_task_queue.c **** /* Idle task queue handling */
 278:E:/NeuOrga/Programmieren/c_cpp/github_os/input/src/os_base\os_task_queue.c **** task_t* GetIdleTask(void)
 279:E:/NeuOrga/Programmieren/c_cpp/github_os/input/src/os_base\os_task_queue.c **** {
 1010              		.loc 1 279 0
 1011              		.cfi_startproc
 1012 09da 55       		pushl	%ebp
 1013              		.cfi_def_cfa_offset 8
 1014              		.cfi_offset 5, -8
 1015 09db 89E5     		movl	%esp, %ebp
 1016              		.cfi_def_cfa_register 5
 280:E:/NeuOrga/Programmieren/c_cpp/github_os/input/src/os_base\os_task_queue.c ****    return (&TASK_IDLE_QUEUE[0]);
 1017              		.loc 1 280 0
 1018 09dd B8000000 		movl	$_TASK_IDLE_QUEUE, %eax
 1018      00
 281:E:/NeuOrga/Programmieren/c_cpp/github_os/input/src/os_base\os_task_queue.c **** }
 1019              		.loc 1 281 0
 1020 09e2 5D       		popl	%ebp
 1021              		.cfi_restore 5
 1022              		.cfi_def_cfa 4, 4
 1023 09e3 C3       		ret
 1024              		.cfi_endproc
 1025              	LFE8:
 1026              		.globl	_AddToIdleTaskQueue
 1028              	_AddToIdleTaskQueue:
 1029              	LFB9:
GAS LISTING C:\Users\PRESID~1\AppData\Local\Temp\ccaz3kGv.s 			page 27


 282:E:/NeuOrga/Programmieren/c_cpp/github_os/input/src/os_base\os_task_queue.c **** void AddToIdleTaskQueue(task_t* task)
 283:E:/NeuOrga/Programmieren/c_cpp/github_os/input/src/os_base\os_task_queue.c **** {
 1030              		.loc 1 283 0
 1031              		.cfi_startproc
 1032 09e4 55       		pushl	%ebp
 1033              		.cfi_def_cfa_offset 8
 1034              		.cfi_offset 5, -8
 1035 09e5 89E5     		movl	%esp, %ebp
 1036              		.cfi_def_cfa_register 5
 1037 09e7 83EC18   		subl	$24, %esp
 284:E:/NeuOrga/Programmieren/c_cpp/github_os/input/src/os_base\os_task_queue.c ****    /* only 1 element for TASK_IDLE_QUEUE allowed */
 285:E:/NeuOrga/Programmieren/c_cpp/github_os/input/src/os_base\os_task_queue.c ****    if((&TASK_IDLE_QUEUE[0])->IdleTask == False)
 1038              		.loc 1 285 0
 1039 09ea A0000000 		movb	_TASK_IDLE_QUEUE, %al
 1039      00
 1040 09ef 83E004   		andl	$4, %eax
 1041 09f2 84C0     		testb	%al, %al
 1042 09f4 0F85CE01 		jne	L27
 1042      0000
 286:E:/NeuOrga/Programmieren/c_cpp/github_os/input/src/os_base\os_task_queue.c ****    {
 287:E:/NeuOrga/Programmieren/c_cpp/github_os/input/src/os_base\os_task_queue.c ****       (&TASK_IDLE_QUEUE[0])->active                                =   task->active           ;
 1043              		.loc 1 287 0
 1044 09fa 8B4508   		movl	8(%ebp), %eax
 1045 09fd 8A00     		movb	(%eax), %al
 1046 09ff 83E001   		andl	$1, %eax
 1047 0a02 83E001   		andl	$1, %eax
 1048 0a05 88C2     		movb	%al, %dl
 1049 0a07 A0000000 		movb	_TASK_IDLE_QUEUE, %al
 1049      00
 1050 0a0c 83E0FE   		andl	$-2, %eax
 1051 0a0f 09D0     		orl	%edx, %eax
 1052 0a11 A2000000 		movb	%al, _TASK_IDLE_QUEUE
 1052      00
 288:E:/NeuOrga/Programmieren/c_cpp/github_os/input/src/os_base\os_task_queue.c ****       (&TASK_IDLE_QUEUE[0])->task_queued                           =   task->task_queued      ;
 1053              		.loc 1 288 0
 1054 0a16 8B4508   		movl	8(%ebp), %eax
 1055 0a19 8A00     		movb	(%eax), %al
 1056 0a1b D0E8     		shrb	%al
 1057 0a1d 83E001   		andl	$1, %eax
 1058 0a20 83E001   		andl	$1, %eax
 1059 0a23 8D1400   		leal	(%eax,%eax), %edx
 1060 0a26 A0000000 		movb	_TASK_IDLE_QUEUE, %al
 1060      00
 1061 0a2b 83E0FD   		andl	$-3, %eax
 1062 0a2e 09D0     		orl	%edx, %eax
 1063 0a30 A2000000 		movb	%al, _TASK_IDLE_QUEUE
 1063      00
 289:E:/NeuOrga/Programmieren/c_cpp/github_os/input/src/os_base\os_task_queue.c ****       (&TASK_IDLE_QUEUE[0])->IdleTask                              =   task->IdleTask         ;
 1064              		.loc 1 289 0
 1065 0a35 8B4508   		movl	8(%ebp), %eax
 1066 0a38 8A00     		movb	(%eax), %al
 1067 0a3a C0E802   		shrb	$2, %al
 1068 0a3d 83E001   		andl	$1, %eax
 1069 0a40 83E001   		andl	$1, %eax
 1070 0a43 8D148500 		leal	0(,%eax,4), %edx
 1070      000000
 1071 0a4a A0000000 		movb	_TASK_IDLE_QUEUE, %al
GAS LISTING C:\Users\PRESID~1\AppData\Local\Temp\ccaz3kGv.s 			page 28


 1071      00
 1072 0a4f 83E0FB   		andl	$-5, %eax
 1073 0a52 09D0     		orl	%edx, %eax
 1074 0a54 A2000000 		movb	%al, _TASK_IDLE_QUEUE
 1074      00
 290:E:/NeuOrga/Programmieren/c_cpp/github_os/input/src/os_base\os_task_queue.c ****       (&TASK_IDLE_QUEUE[0])->FREE                                  =   task->FREE             ;
 1075              		.loc 1 290 0
 1076 0a59 8B4508   		movl	8(%ebp), %eax
 1077 0a5c 8B00     		movl	(%eax), %eax
 1078 0a5e C1E803   		shrl	$3, %eax
 1079 0a61 8D14C500 		leal	0(,%eax,8), %edx
 1079      000000
 1080 0a68 A1000000 		movl	_TASK_IDLE_QUEUE, %eax
 1080      00
 1081 0a6d 83E007   		andl	$7, %eax
 1082 0a70 09D0     		orl	%edx, %eax
 1083 0a72 A3000000 		movl	%eax, _TASK_IDLE_QUEUE
 1083      00
 291:E:/NeuOrga/Programmieren/c_cpp/github_os/input/src/os_base\os_task_queue.c ****       (&TASK_IDLE_QUEUE[0])->NrOfInsAllowed                        =   task->NrOfInsAllowed   ;
 1084              		.loc 1 291 0
 1085 0a77 8B4508   		movl	8(%ebp), %eax
 1086 0a7a 8A4004   		movb	4(%eax), %al
 1087 0a7d A2040000 		movb	%al, _TASK_IDLE_QUEUE+4
 1087      00
 292:E:/NeuOrga/Programmieren/c_cpp/github_os/input/src/os_base\os_task_queue.c ****       (&TASK_IDLE_QUEUE[0])->NrOfInsActivated                      =   task->NrOfInsActivated ;
 1088              		.loc 1 292 0
 1089 0a82 8B4508   		movl	8(%ebp), %eax
 1090 0a85 8A4005   		movb	5(%eax), %al
 1091 0a88 A2050000 		movb	%al, _TASK_IDLE_QUEUE+5
 1091      00
 293:E:/NeuOrga/Programmieren/c_cpp/github_os/input/src/os_base\os_task_queue.c ****       Assign(&(&TASK_IDLE_QUEUE[0])->WaitActUntil                   , &task->WaitActUntil);
 1092              		.loc 1 293 0
 1093 0a8d 8B4508   		movl	8(%ebp), %eax
 1094 0a90 83C006   		addl	$6, %eax
 1095 0a93 89442404 		movl	%eax, 4(%esp)
 1096 0a97 C7042406 		movl	$_TASK_IDLE_QUEUE+6, (%esp)
 1096      000000
 1097 0a9e E8000000 		call	_Assign
 1097      00
 294:E:/NeuOrga/Programmieren/c_cpp/github_os/input/src/os_base\os_task_queue.c ****       Assign(&(&TASK_IDLE_QUEUE[0])->wait_time                      , &task->wait_time);
 1098              		.loc 1 294 0
 1099 0aa3 8B4508   		movl	8(%ebp), %eax
 1100 0aa6 83C016   		addl	$22, %eax
 1101 0aa9 89442404 		movl	%eax, 4(%esp)
 1102 0aad C7042416 		movl	$_TASK_IDLE_QUEUE+22, (%esp)
 1102      000000
 1103 0ab4 E8000000 		call	_Assign
 1103      00
 295:E:/NeuOrga/Programmieren/c_cpp/github_os/input/src/os_base\os_task_queue.c ****       Assign(&(&TASK_IDLE_QUEUE[0])->TimeToPrioInc                  , &task->TimeToPrioInc);
 1104              		.loc 1 295 0
 1105 0ab9 8B4508   		movl	8(%ebp), %eax
 1106 0abc 83C026   		addl	$38, %eax
 1107 0abf 89442404 		movl	%eax, 4(%esp)
 1108 0ac3 C7042426 		movl	$_TASK_IDLE_QUEUE+38, (%esp)
 1108      000000
 1109 0aca E8000000 		call	_Assign
 1109      00
GAS LISTING C:\Users\PRESID~1\AppData\Local\Temp\ccaz3kGv.s 			page 29


 296:E:/NeuOrga/Programmieren/c_cpp/github_os/input/src/os_base\os_task_queue.c ****       (&TASK_IDLE_QUEUE[0])->overwaittime_per_prio_inc_step       =    task->overwaittime_per_prio_
 1110              		.loc 1 296 0
 1111 0acf 8B4508   		movl	8(%ebp), %eax
 1112 0ad2 8B4038   		movl	56(%eax), %eax
 1113 0ad5 A3380000 		movl	%eax, _TASK_IDLE_QUEUE+56
 1113      00
 297:E:/NeuOrga/Programmieren/c_cpp/github_os/input/src/os_base\os_task_queue.c ****       Assign(&(&TASK_IDLE_QUEUE[0])->max_allowed_wait_time          , &task->max_allowed_wait_time)
 1114              		.loc 1 297 0
 1115 0ada 8B4508   		movl	8(%ebp), %eax
 1116 0add 83C03C   		addl	$60, %eax
 1117 0ae0 89442404 		movl	%eax, 4(%esp)
 1118 0ae4 C704243C 		movl	$_TASK_IDLE_QUEUE+60, (%esp)
 1118      000000
 1119 0aeb E8000000 		call	_Assign
 1119      00
 298:E:/NeuOrga/Programmieren/c_cpp/github_os/input/src/os_base\os_task_queue.c ****       Assign(&(&TASK_IDLE_QUEUE[0])->exe_time                       , &task->exe_time);
 1120              		.loc 1 298 0
 1121 0af0 8B4508   		movl	8(%ebp), %eax
 1122 0af3 83C04C   		addl	$76, %eax
 1123 0af6 89442404 		movl	%eax, 4(%esp)
 1124 0afa C704244C 		movl	$_TASK_IDLE_QUEUE+76, (%esp)
 1124      000000
 1125 0b01 E8000000 		call	_Assign
 1125      00
 299:E:/NeuOrga/Programmieren/c_cpp/github_os/input/src/os_base\os_task_queue.c ****       (&TASK_IDLE_QUEUE[0])->current_prio                          =   task->current_prio     ;
 1126              		.loc 1 299 0
 1127 0b06 8B4508   		movl	8(%ebp), %eax
 1128 0b09 8A406C   		movb	108(%eax), %al
 1129 0b0c A26C0000 		movb	%al, _TASK_IDLE_QUEUE+108
 1129      00
 300:E:/NeuOrga/Programmieren/c_cpp/github_os/input/src/os_base\os_task_queue.c ****       (&TASK_IDLE_QUEUE[0])->default_prio                          =   task->default_prio     ;
 1130              		.loc 1 300 0
 1131 0b11 8B4508   		movl	8(%ebp), %eax
 1132 0b14 8A406D   		movb	109(%eax), %al
 1133 0b17 A26D0000 		movb	%al, _TASK_IDLE_QUEUE+109
 1133      00
 301:E:/NeuOrga/Programmieren/c_cpp/github_os/input/src/os_base\os_task_queue.c ****       (&TASK_IDLE_QUEUE[0])->fp                                    =   task->fp               ;
 1134              		.loc 1 301 0
 1135 0b1c 8B4508   		movl	8(%ebp), %eax
 1136 0b1f 8B4074   		movl	116(%eax), %eax
 1137 0b22 A3740000 		movl	%eax, _TASK_IDLE_QUEUE+116
 1137      00
 302:E:/NeuOrga/Programmieren/c_cpp/github_os/input/src/os_base\os_task_queue.c ****       (&TASK_IDLE_QUEUE[0])->state_request                         =   task->state_request    ;
 1138              		.loc 1 302 0
 1139 0b27 8B4508   		movl	8(%ebp), %eax
 1140 0b2a 8B4078   		movl	120(%eax), %eax
 1141 0b2d A3780000 		movl	%eax, _TASK_IDLE_QUEUE+120
 1141      00
 303:E:/NeuOrga/Programmieren/c_cpp/github_os/input/src/os_base\os_task_queue.c ****       (&TASK_IDLE_QUEUE[0])->task_state                            =   Task_ready             ;
 1142              		.loc 1 303 0
 1143 0b32 C7057C00 		movl	$2, _TASK_IDLE_QUEUE+124
 1143      00000200 
 1143      0000
 304:E:/NeuOrga/Programmieren/c_cpp/github_os/input/src/os_base\os_task_queue.c ****       (&TASK_IDLE_QUEUE[0])->task_group                            =   task->task_group       ;
 1144              		.loc 1 304 0
 1145 0b3c 8B4508   		movl	8(%ebp), %eax
 1146 0b3f 8B808000 		movl	128(%eax), %eax
GAS LISTING C:\Users\PRESID~1\AppData\Local\Temp\ccaz3kGv.s 			page 30


 1146      0000
 1147 0b45 A3800000 		movl	%eax, _TASK_IDLE_QUEUE+128
 1147      00
 305:E:/NeuOrga/Programmieren/c_cpp/github_os/input/src/os_base\os_task_queue.c ****       #if(CFG_PROCESSOR == cMCU_X86)
 306:E:/NeuOrga/Programmieren/c_cpp/github_os/input/src/os_base\os_task_queue.c ****       (&TASK_IDLE_QUEUE[0])->EAX                                   =   task->EAX              ;
 1148              		.loc 1 306 0
 1149 0b4a 8B4508   		movl	8(%ebp), %eax
 1150 0b4d 8B808400 		movl	132(%eax), %eax
 1150      0000
 1151 0b53 A3840000 		movl	%eax, _TASK_IDLE_QUEUE+132
 1151      00
 307:E:/NeuOrga/Programmieren/c_cpp/github_os/input/src/os_base\os_task_queue.c ****       (&TASK_IDLE_QUEUE[0])->EBX                                   =   task->EBX              ;
 1152              		.loc 1 307 0
 1153 0b58 8B4508   		movl	8(%ebp), %eax
 1154 0b5b 8B808800 		movl	136(%eax), %eax
 1154      0000
 1155 0b61 A3880000 		movl	%eax, _TASK_IDLE_QUEUE+136
 1155      00
 308:E:/NeuOrga/Programmieren/c_cpp/github_os/input/src/os_base\os_task_queue.c ****       (&TASK_IDLE_QUEUE[0])->ECX                                   =   task->ECX              ;
 1156              		.loc 1 308 0
 1157 0b66 8B4508   		movl	8(%ebp), %eax
 1158 0b69 8B808C00 		movl	140(%eax), %eax
 1158      0000
 1159 0b6f A38C0000 		movl	%eax, _TASK_IDLE_QUEUE+140
 1159      00
 309:E:/NeuOrga/Programmieren/c_cpp/github_os/input/src/os_base\os_task_queue.c ****       (&TASK_IDLE_QUEUE[0])->EDX                                   =   task->EDX              ;
 1160              		.loc 1 309 0
 1161 0b74 8B4508   		movl	8(%ebp), %eax
 1162 0b77 8B809000 		movl	144(%eax), %eax
 1162      0000
 1163 0b7d A3900000 		movl	%eax, _TASK_IDLE_QUEUE+144
 1163      00
 310:E:/NeuOrga/Programmieren/c_cpp/github_os/input/src/os_base\os_task_queue.c ****       #elif(CFG_PROCESSOR == cMCU_CORTEX_M4)
 311:E:/NeuOrga/Programmieren/c_cpp/github_os/input/src/os_base\os_task_queue.c ****       (&TASK_IDLE_QUEUE[0])->r0                                   =   task->r0              ;
 312:E:/NeuOrga/Programmieren/c_cpp/github_os/input/src/os_base\os_task_queue.c ****       (&TASK_IDLE_QUEUE[0])->r1                                   =   task->r1              ;
 313:E:/NeuOrga/Programmieren/c_cpp/github_os/input/src/os_base\os_task_queue.c ****       (&TASK_IDLE_QUEUE[0])->r2                                   =   task->r2              ;
 314:E:/NeuOrga/Programmieren/c_cpp/github_os/input/src/os_base\os_task_queue.c ****       (&TASK_IDLE_QUEUE[0])->r3                                   =   task->r3              ;
 315:E:/NeuOrga/Programmieren/c_cpp/github_os/input/src/os_base\os_task_queue.c ****       (&TASK_IDLE_QUEUE[0])->r4                                   =   task->r4              ;
 316:E:/NeuOrga/Programmieren/c_cpp/github_os/input/src/os_base\os_task_queue.c ****       (&TASK_IDLE_QUEUE[0])->r5                                   =   task->r5              ;
 317:E:/NeuOrga/Programmieren/c_cpp/github_os/input/src/os_base\os_task_queue.c ****       (&TASK_IDLE_QUEUE[0])->r6                                   =   task->r6              ;
 318:E:/NeuOrga/Programmieren/c_cpp/github_os/input/src/os_base\os_task_queue.c ****       (&TASK_IDLE_QUEUE[0])->r7                                   =   task->r7              ;
 319:E:/NeuOrga/Programmieren/c_cpp/github_os/input/src/os_base\os_task_queue.c ****       (&TASK_IDLE_QUEUE[0])->r8                                   =   task->r8              ;
 320:E:/NeuOrga/Programmieren/c_cpp/github_os/input/src/os_base\os_task_queue.c ****       (&TASK_IDLE_QUEUE[0])->r9                                   =   task->r9              ;
 321:E:/NeuOrga/Programmieren/c_cpp/github_os/input/src/os_base\os_task_queue.c ****       (&TASK_IDLE_QUEUE[0])->r10                                  =   task->r10             ;
 322:E:/NeuOrga/Programmieren/c_cpp/github_os/input/src/os_base\os_task_queue.c ****       (&TASK_IDLE_QUEUE[0])->r11                                  =   task->r11             ;
 323:E:/NeuOrga/Programmieren/c_cpp/github_os/input/src/os_base\os_task_queue.c ****       (&TASK_IDLE_QUEUE[0])->r12                                  =   task->r12             ;
 324:E:/NeuOrga/Programmieren/c_cpp/github_os/input/src/os_base\os_task_queue.c ****       #else
 325:E:/NeuOrga/Programmieren/c_cpp/github_os/input/src/os_base\os_task_queue.c ****       #error "os_task_queue.c"
 326:E:/NeuOrga/Programmieren/c_cpp/github_os/input/src/os_base\os_task_queue.c ****       #endif
 327:E:/NeuOrga/Programmieren/c_cpp/github_os/input/src/os_base\os_task_queue.c ****       (&TASK_IDLE_QUEUE[0])->pStackPointer                         =   task->pStackPointer    ;
 1164              		.loc 1 327 0
 1165 0b82 8B4508   		movl	8(%ebp), %eax
 1166 0b85 8B809400 		movl	148(%eax), %eax
 1166      0000
 1167 0b8b A3940000 		movl	%eax, _TASK_IDLE_QUEUE+148
 1167      00
 328:E:/NeuOrga/Programmieren/c_cpp/github_os/input/src/os_base\os_task_queue.c ****       (&TASK_IDLE_QUEUE[0])->pStackPointerByMalloc                 =   task->pStackPointerByMalloc;
GAS LISTING C:\Users\PRESID~1\AppData\Local\Temp\ccaz3kGv.s 			page 31


 1168              		.loc 1 328 0
 1169 0b90 8B4508   		movl	8(%ebp), %eax
 1170 0b93 8B809800 		movl	152(%eax), %eax
 1170      0000
 1171 0b99 A3980000 		movl	%eax, _TASK_IDLE_QUEUE+152
 1171      00
 329:E:/NeuOrga/Programmieren/c_cpp/github_os/input/src/os_base\os_task_queue.c ****       (&TASK_IDLE_QUEUE[0])->pStackPointerStart                    =   task->pStackPointerStart;
 1172              		.loc 1 329 0
 1173 0b9e 8B4508   		movl	8(%ebp), %eax
 1174 0ba1 8B809C00 		movl	156(%eax), %eax
 1174      0000
 1175 0ba7 A39C0000 		movl	%eax, _TASK_IDLE_QUEUE+156
 1175      00
 330:E:/NeuOrga/Programmieren/c_cpp/github_os/input/src/os_base\os_task_queue.c ****       (&TASK_IDLE_QUEUE[0])->StackSize                             =   task->StackSize        ;
 1176              		.loc 1 330 0
 1177 0bac 8B4508   		movl	8(%ebp), %eax
 1178 0baf 8B80A000 		movl	160(%eax), %eax
 1178      0000
 1179 0bb5 A3A00000 		movl	%eax, _TASK_IDLE_QUEUE+160
 1179      00
 331:E:/NeuOrga/Programmieren/c_cpp/github_os/input/src/os_base\os_task_queue.c ****       (&TASK_IDLE_QUEUE[0])->pStackPointerEnd                      =   task->pStackPointerEnd ;
 1180              		.loc 1 331 0
 1181 0bba 8B4508   		movl	8(%ebp), %eax
 1182 0bbd 8B80A400 		movl	164(%eax), %eax
 1182      0000
 1183 0bc3 A3A40000 		movl	%eax, _TASK_IDLE_QUEUE+164
 1183      00
 1184              	L27:
 332:E:/NeuOrga/Programmieren/c_cpp/github_os/input/src/os_base\os_task_queue.c ****    }
 333:E:/NeuOrga/Programmieren/c_cpp/github_os/input/src/os_base\os_task_queue.c **** }
 1185              		.loc 1 333 0
 1186 0bc8 C9       		leave
 1187              		.cfi_restore 5
 1188              		.cfi_def_cfa 4, 4
 1189 0bc9 C3       		ret
 1190              		.cfi_endproc
 1191              	LFE9:
 1192              		.globl	_GetRunningTask
 1194              	_GetRunningTask:
 1195              	LFB10:
 334:E:/NeuOrga/Programmieren/c_cpp/github_os/input/src/os_base\os_task_queue.c **** task_t* GetRunningTask(void)
 335:E:/NeuOrga/Programmieren/c_cpp/github_os/input/src/os_base\os_task_queue.c **** {
 1196              		.loc 1 335 0
 1197              		.cfi_startproc
 1198 0bca 55       		pushl	%ebp
 1199              		.cfi_def_cfa_offset 8
 1200              		.cfi_offset 5, -8
 1201 0bcb 89E5     		movl	%esp, %ebp
 1202              		.cfi_def_cfa_register 5
 336:E:/NeuOrga/Programmieren/c_cpp/github_os/input/src/os_base\os_task_queue.c ****    return (&RUNNING_TASK[0]);
 1203              		.loc 1 336 0
 1204 0bcd B8000000 		movl	$_RUNNING_TASK, %eax
 1204      00
 337:E:/NeuOrga/Programmieren/c_cpp/github_os/input/src/os_base\os_task_queue.c **** }
 1205              		.loc 1 337 0
 1206 0bd2 5D       		popl	%ebp
 1207              		.cfi_restore 5
GAS LISTING C:\Users\PRESID~1\AppData\Local\Temp\ccaz3kGv.s 			page 32


 1208              		.cfi_def_cfa 4, 4
 1209 0bd3 C3       		ret
 1210              		.cfi_endproc
 1211              	LFE10:
 1212              		.globl	_GetRunningSchedulingQueueElementPtr
 1214              	_GetRunningSchedulingQueueElementPtr:
 1215              	LFB11:
 338:E:/NeuOrga/Programmieren/c_cpp/github_os/input/src/os_base\os_task_queue.c **** scheduling_t* GetRunningSchedulingQueueElementPtr(void)
 339:E:/NeuOrga/Programmieren/c_cpp/github_os/input/src/os_base\os_task_queue.c **** {
 1216              		.loc 1 339 0
 1217              		.cfi_startproc
 1218 0bd4 55       		pushl	%ebp
 1219              		.cfi_def_cfa_offset 8
 1220              		.cfi_offset 5, -8
 1221 0bd5 89E5     		movl	%esp, %ebp
 1222              		.cfi_def_cfa_register 5
 340:E:/NeuOrga/Programmieren/c_cpp/github_os/input/src/os_base\os_task_queue.c ****     return RUNNING_SCHEDULING_QUEUE_ENTRY;
 1223              		.loc 1 340 0
 1224 0bd7 A1000000 		movl	_RUNNING_SCHEDULING_QUEUE_ENTRY, %eax
 1224      00
 341:E:/NeuOrga/Programmieren/c_cpp/github_os/input/src/os_base\os_task_queue.c **** }
 1225              		.loc 1 341 0
 1226 0bdc 5D       		popl	%ebp
 1227              		.cfi_restore 5
 1228              		.cfi_def_cfa 4, 4
 1229 0bdd C3       		ret
 1230              		.cfi_endproc
 1231              	LFE11:
 1232              		.globl	_OS_InitTask
 1234              	_OS_InitTask:
 1235              	LFB12:
 342:E:/NeuOrga/Programmieren/c_cpp/github_os/input/src/os_base\os_task_queue.c **** void OS_InitTask(
 343:E:/NeuOrga/Programmieren/c_cpp/github_os/input/src/os_base\os_task_queue.c ****    task_t*          task,
 344:E:/NeuOrga/Programmieren/c_cpp/github_os/input/src/os_base\os_task_queue.c ****    func_p_t         TaskFunction,
 345:E:/NeuOrga/Programmieren/c_cpp/github_os/input/src/os_base\os_task_queue.c ****    unsigned_char_t  AllowedInstances,
 346:E:/NeuOrga/Programmieren/c_cpp/github_os/input/src/os_base\os_task_queue.c ****    unsigned_char_t  IdleTask,
 347:E:/NeuOrga/Programmieren/c_cpp/github_os/input/src/os_base\os_task_queue.c ****    task_group_t*    p_task_group,
 348:E:/NeuOrga/Programmieren/c_cpp/github_os/input/src/os_base\os_task_queue.c ****    unsigned_char_t* pStackAddr,
 349:E:/NeuOrga/Programmieren/c_cpp/github_os/input/src/os_base\os_task_queue.c ****    unsigned_int32_t uStackSize,
 350:E:/NeuOrga/Programmieren/c_cpp/github_os/input/src/os_base\os_task_queue.c ****    privilige_mode_t privilige_mode,
 351:E:/NeuOrga/Programmieren/c_cpp/github_os/input/src/os_base\os_task_queue.c ****    CoreID_t         core,
 352:E:/NeuOrga/Programmieren/c_cpp/github_os/input/src/os_base\os_task_queue.c ****    unsigned_char_t  default_prio
 353:E:/NeuOrga/Programmieren/c_cpp/github_os/input/src/os_base\os_task_queue.c **** )
 354:E:/NeuOrga/Programmieren/c_cpp/github_os/input/src/os_base\os_task_queue.c **** {
 1236              		.loc 1 354 0
 1237              		.cfi_startproc
 1238 0bde 55       		pushl	%ebp
 1239              		.cfi_def_cfa_offset 8
 1240              		.cfi_offset 5, -8
 1241 0bdf 89E5     		movl	%esp, %ebp
 1242              		.cfi_def_cfa_register 5
 1243 0be1 83EC28   		subl	$40, %esp
 1244 0be4 8B4D10   		movl	16(%ebp), %ecx
 1245 0be7 8B5514   		movl	20(%ebp), %edx
 1246 0bea 8B452C   		movl	44(%ebp), %eax
 1247 0bed 884DF4   		movb	%cl, -12(%ebp)
 1248 0bf0 8855F0   		movb	%dl, -16(%ebp)
GAS LISTING C:\Users\PRESID~1\AppData\Local\Temp\ccaz3kGv.s 			page 33


 1249 0bf3 8845EC   		movb	%al, -20(%ebp)
 355:E:/NeuOrga/Programmieren/c_cpp/github_os/input/src/os_base\os_task_queue.c ****    ReferenceUnusedParameter(core);
 356:E:/NeuOrga/Programmieren/c_cpp/github_os/input/src/os_base\os_task_queue.c ****    if(task!=0)
 1250              		.loc 1 356 0
 1251 0bf6 837D0800 		cmpl	$0, 8(%ebp)
 1252 0bfa 0F841401 		je	L34
 1252      0000
 357:E:/NeuOrga/Programmieren/c_cpp/github_os/input/src/os_base\os_task_queue.c ****    {
 358:E:/NeuOrga/Programmieren/c_cpp/github_os/input/src/os_base\os_task_queue.c ****       task->active           = False;
 1253              		.loc 1 358 0
 1254 0c00 8B4508   		movl	8(%ebp), %eax
 1255 0c03 8A10     		movb	(%eax), %dl
 1256 0c05 83E2FE   		andl	$-2, %edx
 1257 0c08 8810     		movb	%dl, (%eax)
 359:E:/NeuOrga/Programmieren/c_cpp/github_os/input/src/os_base\os_task_queue.c ****       task->fp               = TaskFunction;
 1258              		.loc 1 359 0
 1259 0c0a 8B4508   		movl	8(%ebp), %eax
 1260 0c0d 8B550C   		movl	12(%ebp), %edx
 1261 0c10 895074   		movl	%edx, 116(%eax)
 360:E:/NeuOrga/Programmieren/c_cpp/github_os/input/src/os_base\os_task_queue.c ****       task->NrOfInsAllowed   = AllowedInstances;
 1262              		.loc 1 360 0
 1263 0c13 8B4508   		movl	8(%ebp), %eax
 1264 0c16 8A55F4   		movb	-12(%ebp), %dl
 1265 0c19 885004   		movb	%dl, 4(%eax)
 361:E:/NeuOrga/Programmieren/c_cpp/github_os/input/src/os_base\os_task_queue.c ****       task->task_group       = p_task_group;
 1266              		.loc 1 361 0
 1267 0c1c 8B4508   		movl	8(%ebp), %eax
 1268 0c1f 8B5518   		movl	24(%ebp), %edx
 1269 0c22 89908000 		movl	%edx, 128(%eax)
 1269      0000
 362:E:/NeuOrga/Programmieren/c_cpp/github_os/input/src/os_base\os_task_queue.c ****       task->NrOfInsActivated = 0;
 1270              		.loc 1 362 0
 1271 0c28 8B4508   		movl	8(%ebp), %eax
 1272 0c2b C6400500 		movb	$0, 5(%eax)
 363:E:/NeuOrga/Programmieren/c_cpp/github_os/input/src/os_base\os_task_queue.c ****       AssignNull(&task->WaitActUntil);
 1273              		.loc 1 363 0
 1274 0c2f 8B4508   		movl	8(%ebp), %eax
 1275 0c32 83C006   		addl	$6, %eax
 1276 0c35 890424   		movl	%eax, (%esp)
 1277 0c38 E8000000 		call	_AssignNull
 1277      00
 364:E:/NeuOrga/Programmieren/c_cpp/github_os/input/src/os_base\os_task_queue.c ****       task->privilige_mode   = privilige_mode;
 1278              		.loc 1 364 0
 1279 0c3d 8B4508   		movl	8(%ebp), %eax
 1280 0c40 8B5524   		movl	36(%ebp), %edx
 1281 0c43 8990A800 		movl	%edx, 168(%eax)
 1281      0000
 365:E:/NeuOrga/Programmieren/c_cpp/github_os/input/src/os_base\os_task_queue.c ****       task->default_prio     = default_prio;
 1282              		.loc 1 365 0
 1283 0c49 8B4508   		movl	8(%ebp), %eax
 1284 0c4c 8A55EC   		movb	-20(%ebp), %dl
 1285 0c4f 88506D   		movb	%dl, 109(%eax)
 366:E:/NeuOrga/Programmieren/c_cpp/github_os/input/src/os_base\os_task_queue.c **** 
 367:E:/NeuOrga/Programmieren/c_cpp/github_os/input/src/os_base\os_task_queue.c ****       task->overwaittime_per_prio_inc_step = 1u;
 1286              		.loc 1 367 0
 1287 0c52 8B4508   		movl	8(%ebp), %eax
 1288 0c55 C7403801 		movl	$1, 56(%eax)
GAS LISTING C:\Users\PRESID~1\AppData\Local\Temp\ccaz3kGv.s 			page 34


 1288      000000
 368:E:/NeuOrga/Programmieren/c_cpp/github_os/input/src/os_base\os_task_queue.c ****       AssignUint32(&task->max_allowed_wait_time, 100000u);
 1289              		.loc 1 368 0
 1290 0c5c 8B4508   		movl	8(%ebp), %eax
 1291 0c5f 83C03C   		addl	$60, %eax
 1292 0c62 C7442404 		movl	$100000, 4(%esp)
 1292      A0860100 
 1293 0c6a 890424   		movl	%eax, (%esp)
 1294 0c6d E8000000 		call	_AssignUint32
 1294      00
 369:E:/NeuOrga/Programmieren/c_cpp/github_os/input/src/os_base\os_task_queue.c **** 
 370:E:/NeuOrga/Programmieren/c_cpp/github_os/input/src/os_base\os_task_queue.c ****       task->IdleTask      = IdleTask;
 1295              		.loc 1 370 0
 1296 0c72 8A45F0   		movb	-16(%ebp), %al
 1297 0c75 83E001   		andl	$1, %eax
 1298 0c78 88C2     		movb	%al, %dl
 1299 0c7a 8B4508   		movl	8(%ebp), %eax
 1300 0c7d 83E201   		andl	$1, %edx
 1301 0c80 8D0C9500 		leal	0(,%edx,4), %ecx
 1301      000000
 1302 0c87 8A10     		movb	(%eax), %dl
 1303 0c89 83E2FB   		andl	$-5, %edx
 1304 0c8c 09CA     		orl	%ecx, %edx
 1305 0c8e 8810     		movb	%dl, (%eax)
 371:E:/NeuOrga/Programmieren/c_cpp/github_os/input/src/os_base\os_task_queue.c ****       task->state_request = &task_state_request;
 1306              		.loc 1 371 0
 1307 0c90 8B4508   		movl	8(%ebp), %eax
 1308 0c93 C7407800 		movl	$_task_state_request, 120(%eax)
 1308      000000
 372:E:/NeuOrga/Programmieren/c_cpp/github_os/input/src/os_base\os_task_queue.c ****       task_state_request(task, Task_unspecified);
 1309              		.loc 1 372 0
 1310 0c9a C7442404 		movl	$0, 4(%esp)
 1310      00000000 
 1311 0ca2 8B4508   		movl	8(%ebp), %eax
 1312 0ca5 890424   		movl	%eax, (%esp)
 1313 0ca8 E8000000 		call	_task_state_request
 1313      00
 373:E:/NeuOrga/Programmieren/c_cpp/github_os/input/src/os_base\os_task_queue.c ****       OS_CreateTask(task);
 1314              		.loc 1 373 0
 1315 0cad 8B4508   		movl	8(%ebp), %eax
 1316 0cb0 890424   		movl	%eax, (%esp)
 1317 0cb3 E8000000 		call	_OS_CreateTask
 1317      00
 374:E:/NeuOrga/Programmieren/c_cpp/github_os/input/src/os_base\os_task_queue.c ****       if(uStackSize > TASK_STACK_SIZE)
 1318              		.loc 1 374 0
 1319 0cb8 817D20D0 		cmpl	$2000, 32(%ebp)
 1319      070000
 1320 0cbf 7607     		jbe	L35
 375:E:/NeuOrga/Programmieren/c_cpp/github_os/input/src/os_base\os_task_queue.c ****       {
 376:E:/NeuOrga/Programmieren/c_cpp/github_os/input/src/os_base\os_task_queue.c ****          uStackSize = TASK_STACK_SIZE;
 1321              		.loc 1 376 0
 1322 0cc1 C74520D0 		movl	$2000, 32(%ebp)
 1322      070000
 1323              	L35:
 377:E:/NeuOrga/Programmieren/c_cpp/github_os/input/src/os_base\os_task_queue.c ****       }
 378:E:/NeuOrga/Programmieren/c_cpp/github_os/input/src/os_base\os_task_queue.c **** 
 379:E:/NeuOrga/Programmieren/c_cpp/github_os/input/src/os_base\os_task_queue.c ****       /* just create stack */
GAS LISTING C:\Users\PRESID~1\AppData\Local\Temp\ccaz3kGv.s 			page 35


 380:E:/NeuOrga/Programmieren/c_cpp/github_os/input/src/os_base\os_task_queue.c ****       task->pStackPointerByMalloc = pStackAddr;
 1324              		.loc 1 380 0
 1325 0cc8 8B4508   		movl	8(%ebp), %eax
 1326 0ccb 8B551C   		movl	28(%ebp), %edx
 1327 0cce 89909800 		movl	%edx, 152(%eax)
 1327      0000
 381:E:/NeuOrga/Programmieren/c_cpp/github_os/input/src/os_base\os_task_queue.c ****       task->pStackPointerStart    = pStackAddr;/*low addresse */
 1328              		.loc 1 381 0
 1329 0cd4 8B4508   		movl	8(%ebp), %eax
 1330 0cd7 8B551C   		movl	28(%ebp), %edx
 1331 0cda 89909C00 		movl	%edx, 156(%eax)
 1331      0000
 382:E:/NeuOrga/Programmieren/c_cpp/github_os/input/src/os_base\os_task_queue.c ****       task->pStackPointerEnd      = (unsigned_char_t*)pStackAddr + uStackSize - 1;/* end addresse *
 1332              		.loc 1 382 0
 1333 0ce0 8B4520   		movl	32(%ebp), %eax
 1334 0ce3 8D50FF   		leal	-1(%eax), %edx
 1335 0ce6 8B451C   		movl	28(%ebp), %eax
 1336 0ce9 01C2     		addl	%eax, %edx
 1337 0ceb 8B4508   		movl	8(%ebp), %eax
 1338 0cee 8990A400 		movl	%edx, 164(%eax)
 1338      0000
 383:E:/NeuOrga/Programmieren/c_cpp/github_os/input/src/os_base\os_task_queue.c ****       task->StackSize             = uStackSize;
 1339              		.loc 1 383 0
 1340 0cf4 8B4508   		movl	8(%ebp), %eax
 1341 0cf7 8B5520   		movl	32(%ebp), %edx
 1342 0cfa 8990A000 		movl	%edx, 160(%eax)
 1342      0000
 384:E:/NeuOrga/Programmieren/c_cpp/github_os/input/src/os_base\os_task_queue.c ****       /* stack register */
 385:E:/NeuOrga/Programmieren/c_cpp/github_os/input/src/os_base\os_task_queue.c ****       task->pStackPointer                    = task->pStackPointerEnd;/* stack wchst von groen zu
 1343              		.loc 1 385 0
 1344 0d00 8B4508   		movl	8(%ebp), %eax
 1345 0d03 8B90A400 		movl	164(%eax), %edx
 1345      0000
 1346 0d09 8B4508   		movl	8(%ebp), %eax
 1347 0d0c 89909400 		movl	%edx, 148(%eax)
 1347      0000
 1348 0d12 EB14     		jmp	L33
 1349              	L34:
 386:E:/NeuOrga/Programmieren/c_cpp/github_os/input/src/os_base\os_task_queue.c ****    }
 387:E:/NeuOrga/Programmieren/c_cpp/github_os/input/src/os_base\os_task_queue.c ****    else
 388:E:/NeuOrga/Programmieren/c_cpp/github_os/input/src/os_base\os_task_queue.c ****    {
 389:E:/NeuOrga/Programmieren/c_cpp/github_os/input/src/os_base\os_task_queue.c ****       OS_SetSwBug(os_bug_null_pointer, Func_InitTask);
 1350              		.loc 1 389 0
 1351 0d14 C7442404 		movl	$10, 4(%esp)
 1351      0A000000 
 1352 0d1c C7042402 		movl	$2, (%esp)
 1352      000000
 1353 0d23 E8000000 		call	_OS_SetSwBug
 1353      00
 1354              	L33:
 390:E:/NeuOrga/Programmieren/c_cpp/github_os/input/src/os_base\os_task_queue.c ****    }
 391:E:/NeuOrga/Programmieren/c_cpp/github_os/input/src/os_base\os_task_queue.c **** }
 1355              		.loc 1 391 0
 1356 0d28 C9       		leave
 1357              		.cfi_restore 5
 1358              		.cfi_def_cfa 4, 4
 1359 0d29 C3       		ret
GAS LISTING C:\Users\PRESID~1\AppData\Local\Temp\ccaz3kGv.s 			page 36


 1360              		.cfi_endproc
 1361              	LFE12:
 1362              	Letext0:
 1363              		.file 2 "E:/NeuOrga/Programmieren/c_cpp/github_os/input/src/os_base/../os_base/os_base_types.h"
 1364              		.file 3 "E:/NeuOrga/Programmieren/c_cpp/github_os/input/src/os_base/../os_base/os_common.h"
 1365              		.file 4 "E:/NeuOrga/Programmieren/c_cpp/github_os/input/src/os_base/../os_sim/lld_core.h"
 1366              		.file 5 "E:/NeuOrga/Programmieren/c_cpp/github_os/input/src/os_base/../os_sim/../os_base/os_task_c
 1367              		.file 6 "E:/NeuOrga/Programmieren/c_cpp/github_os/input/src/os_base/../os_base/os_ram.h"
 1368 0d2a 9090     		.section	.debug_info,"dr"
 1369              	Ldebug_info0:
 1370 0000 A00D0000 		.long	0xda0
 1371 0004 0400     		.word	0x4
 1372 0006 00000000 		.secrel32	Ldebug_abbrev0
 1373 000a 04       		.byte	0x4
 1374 000b 01       		.uleb128 0x1
 1375 000c 474E5520 		.ascii "GNU C 4.9.3 -march=i386 -g3 -O0 -std=c90\0"
 1375      4320342E 
 1375      392E3320 
 1375      2D6D6172 
 1375      63683D69 
 1376 0035 01       		.byte	0x1
 1377 0036 453A5C4E 		.ascii "E:\\NeuOrga\\Programmieren\\c_cpp\\github_os\\input\\src\\os_base\\os_task_queue.c\0"
 1377      65754F72 
 1377      67615C50 
 1377      726F6772 
 1377      616D6D69 
 1378 0081 00000000 		.long	Ltext0
 1379 0085 2A0D0000 		.long	Letext0-Ltext0
 1380 0089 00000000 		.secrel32	Ldebug_line0
 1381 008d 00000000 		.secrel32	Ldebug_macro0
 1382 0091 02       		.uleb128 0x2
 1383 0092 756E7369 		.ascii "unsigned_char_t\0"
 1383      676E6564 
 1383      5F636861 
 1383      725F7400 
 1384 00a2 02       		.byte	0x2
 1385 00a3 1D       		.byte	0x1d
 1386 00a4 A8000000 		.long	0xa8
 1387 00a8 03       		.uleb128 0x3
 1388 00a9 01       		.byte	0x1
 1389 00aa 08       		.byte	0x8
 1390 00ab 756E7369 		.ascii "unsigned char\0"
 1390      676E6564 
 1390      20636861 
 1390      7200
 1391 00b9 03       		.uleb128 0x3
 1392 00ba 01       		.byte	0x1
 1393 00bb 06       		.byte	0x6
 1394 00bc 7369676E 		.ascii "signed char\0"
 1394      65642063 
 1394      68617200 
 1395 00c8 02       		.uleb128 0x2
 1396 00c9 75696E74 		.ascii "uint8\0"
 1396      3800
 1397 00cf 02       		.byte	0x2
 1398 00d0 21       		.byte	0x21
 1399 00d1 A8000000 		.long	0xa8
GAS LISTING C:\Users\PRESID~1\AppData\Local\Temp\ccaz3kGv.s 			page 37


 1400 00d5 03       		.uleb128 0x3
 1401 00d6 02       		.byte	0x2
 1402 00d7 07       		.byte	0x7
 1403 00d8 73686F72 		.ascii "short unsigned int\0"
 1403      7420756E 
 1403      7369676E 
 1403      65642069 
 1403      6E7400
 1404 00eb 03       		.uleb128 0x3
 1405 00ec 02       		.byte	0x2
 1406 00ed 05       		.byte	0x5
 1407 00ee 73686F72 		.ascii "short int\0"
 1407      7420696E 
 1407      7400
 1408 00f8 02       		.uleb128 0x2
 1409 00f9 756E7369 		.ascii "unsigned_int32_t\0"
 1409      676E6564 
 1409      5F696E74 
 1409      33325F74 
 1409      00
 1410 010a 02       		.byte	0x2
 1411 010b 27       		.byte	0x27
 1412 010c 10010000 		.long	0x110
 1413 0110 03       		.uleb128 0x3
 1414 0111 04       		.byte	0x4
 1415 0112 07       		.byte	0x7
 1416 0113 6C6F6E67 		.ascii "long unsigned int\0"
 1416      20756E73 
 1416      69676E65 
 1416      6420696E 
 1416      7400
 1417 0125 03       		.uleb128 0x3
 1418 0126 04       		.byte	0x4
 1419 0127 05       		.byte	0x5
 1420 0128 6C6F6E67 		.ascii "long int\0"
 1420      20696E74 
 1420      00
 1421 0131 02       		.uleb128 0x2
 1422 0132 75696E74 		.ascii "uint32\0"
 1422      333200
 1423 0139 02       		.byte	0x2
 1424 013a 29       		.byte	0x29
 1425 013b 10010000 		.long	0x110
 1426 013f 04       		.uleb128 0x4
 1427 0140 6F735F73 		.ascii "os_sw_bugs_e\0"
 1427      775F6275 
 1427      67735F65 
 1427      00
 1428 014d 04       		.byte	0x4
 1429 014e 03       		.byte	0x3
 1430 014f 2B       		.byte	0x2b
 1431 0150 82020000 		.long	0x282
 1432 0154 05       		.uleb128 0x5
 1433 0155 6F735F62 		.ascii "os_bug_no_bug\0"
 1433      75675F6E 
 1433      6F5F6275 
 1433      6700
GAS LISTING C:\Users\PRESID~1\AppData\Local\Temp\ccaz3kGv.s 			page 38


 1434 0163 00       		.sleb128 0
 1435 0164 05       		.uleb128 0x5
 1436 0165 6F735F62 		.ascii "os_bug_taskstate_request_denied\0"
 1436      75675F74 
 1436      61736B73 
 1436      74617465 
 1436      5F726571 
 1437 0185 01       		.sleb128 1
 1438 0186 05       		.uleb128 0x5
 1439 0187 6F735F62 		.ascii "os_bug_null_pointer\0"
 1439      75675F6E 
 1439      756C6C5F 
 1439      706F696E 
 1439      74657200 
 1440 019b 02       		.sleb128 2
 1441 019c 05       		.uleb128 0x5
 1442 019d 6F735F62 		.ascii "os_bug_task_max_wait_time_reached\0"
 1442      75675F74 
 1442      61736B5F 
 1442      6D61785F 
 1442      77616974 
 1443 01bf 03       		.sleb128 3
 1444 01c0 05       		.uleb128 0x5
 1445 01c1 6F735F62 		.ascii "os_bug_Task_unspecified\0"
 1445      75675F54 
 1445      61736B5F 
 1445      756E7370 
 1445      65636966 
 1446 01d9 04       		.sleb128 4
 1447 01da 05       		.uleb128 0x5
 1448 01db 6F735F62 		.ascii "os_bug_exception_UndefInstruction\0"
 1448      75675F65 
 1448      78636570 
 1448      74696F6E 
 1448      5F556E64 
 1449 01fd 05       		.sleb128 5
 1450 01fe 05       		.uleb128 0x5
 1451 01ff 6F735F62 		.ascii "os_bug_exception_AbortPrefetch\0"
 1451      75675F65 
 1451      78636570 
 1451      74696F6E 
 1451      5F41626F 
 1452 021e 06       		.sleb128 6
 1453 021f 05       		.uleb128 0x5
 1454 0220 6F735F62 		.ascii "os_bug_exception_AbortData\0"
 1454      75675F65 
 1454      78636570 
 1454      74696F6E 
 1454      5F41626F 
 1455 023b 07       		.sleb128 7
 1456 023c 05       		.uleb128 0x5
 1457 023d 6F735F62 		.ascii "os_bug_reset_exit_or_shutdown_failed\0"
 1457      75675F72 
 1457      65736574 
 1457      5F657869 
 1457      745F6F72 
 1458 0262 08       		.sleb128 8
GAS LISTING C:\Users\PRESID~1\AppData\Local\Temp\ccaz3kGv.s 			page 39


 1459 0263 05       		.uleb128 0x5
 1460 0264 6F735F62 		.ascii "os_bug_critical_stack_usage\0"
 1460      75675F63 
 1460      72697469 
 1460      63616C5F 
 1460      73746163 
 1461 0280 09       		.sleb128 9
 1462 0281 00       		.byte	0
 1463 0282 04       		.uleb128 0x4
 1464 0283 6F735F73 		.ascii "os_sw_bugs_function_e\0"
 1464      775F6275 
 1464      67735F66 
 1464      756E6374 
 1464      696F6E5F 
 1465 0299 04       		.byte	0x4
 1466 029a 03       		.byte	0x3
 1467 029b 3A       		.byte	0x3a
 1468 029c 27040000 		.long	0x427
 1469 02a0 05       		.uleb128 0x5
 1470 02a1 46756E63 		.ascii "Func_NoFunction\0"
 1470      5F4E6F46 
 1470      756E6374 
 1470      696F6E00 
 1471 02b1 00       		.sleb128 0
 1472 02b2 05       		.uleb128 0x5
 1473 02b3 46756E63 		.ascii "Func_SaveTaskEnvironment\0"
 1473      5F536176 
 1473      65546173 
 1473      6B456E76 
 1473      69726F6E 
 1474 02cc 01       		.sleb128 1
 1475 02cd 05       		.uleb128 0x5
 1476 02ce 46756E63 		.ascii "Func_RestoreTaskEnvironment\0"
 1476      5F526573 
 1476      746F7265 
 1476      5461736B 
 1476      456E7669 
 1477 02ea 02       		.sleb128 2
 1478 02eb 05       		.uleb128 0x5
 1479 02ec 46756E63 		.ascii "Func_CreateTaskEnvironment\0"
 1479      5F437265 
 1479      61746554 
 1479      61736B45 
 1479      6E766972 
 1480 0307 03       		.sleb128 3
 1481 0308 05       		.uleb128 0x5
 1482 0309 46756E63 		.ascii "Func_DeleteTaskEnvironment\0"
 1482      5F44656C 
 1482      65746554 
 1482      61736B45 
 1482      6E766972 
 1483 0324 04       		.sleb128 4
 1484 0325 05       		.uleb128 0x5
 1485 0326 46756E63 		.ascii "Func_InitTaskEnvironment\0"
 1485      5F496E69 
 1485      74546173 
 1485      6B456E76 
GAS LISTING C:\Users\PRESID~1\AppData\Local\Temp\ccaz3kGv.s 			page 40


 1485      69726F6E 
 1486 033f 05       		.sleb128 5
 1487 0340 05       		.uleb128 0x5
 1488 0341 46756E63 		.ascii "Func_StartTask\0"
 1488      5F537461 
 1488      72745461 
 1488      736B00
 1489 0350 06       		.sleb128 6
 1490 0351 05       		.uleb128 0x5
 1491 0352 46756E63 		.ascii "Func_PreemptTask\0"
 1491      5F507265 
 1491      656D7074 
 1491      5461736B 
 1491      00
 1492 0363 07       		.sleb128 7
 1493 0364 05       		.uleb128 0x5
 1494 0365 46756E63 		.ascii "Func_TerminateTask\0"
 1494      5F546572 
 1494      6D696E61 
 1494      74655461 
 1494      736B00
 1495 0378 08       		.sleb128 8
 1496 0379 05       		.uleb128 0x5
 1497 037a 46756E63 		.ascii "Func_TaskScheduler\0"
 1497      5F546173 
 1497      6B536368 
 1497      6564756C 
 1497      657200
 1498 038d 09       		.sleb128 9
 1499 038e 05       		.uleb128 0x5
 1500 038f 46756E63 		.ascii "Func_InitTask\0"
 1500      5F496E69 
 1500      74546173 
 1500      6B00
 1501 039d 0A       		.sleb128 10
 1502 039e 05       		.uleb128 0x5
 1503 039f 46756E63 		.ascii "Func_ActivateTask\0"
 1503      5F416374 
 1503      69766174 
 1503      65546173 
 1503      6B00
 1504 03b1 0B       		.sleb128 11
 1505 03b2 05       		.uleb128 0x5
 1506 03b3 46756E63 		.ascii "Func_TaskStateRequest\0"
 1506      5F546173 
 1506      6B537461 
 1506      74655265 
 1506      71756573 
 1507 03c9 0C       		.sleb128 12
 1508 03ca 05       		.uleb128 0x5
 1509 03cb 46756E63 		.ascii "Func_Preempt_Task\0"
 1509      5F507265 
 1509      656D7074 
 1509      5F546173 
 1509      6B00
 1510 03dd 0D       		.sleb128 13
 1511 03de 05       		.uleb128 0x5
GAS LISTING C:\Users\PRESID~1\AppData\Local\Temp\ccaz3kGv.s 			page 41


 1512 03df 46756E63 		.ascii "Func_os_exception\0"
 1512      5F6F735F 
 1512      65786365 
 1512      7074696F 
 1512      6E00
 1513 03f1 0E       		.sleb128 14
 1514 03f2 05       		.uleb128 0x5
 1515 03f3 46756E63 		.ascii "Func_CreateTask\0"
 1515      5F437265 
 1515      61746554 
 1515      61736B00 
 1516 0403 0F       		.sleb128 15
 1517 0404 05       		.uleb128 0x5
 1518 0405 46756E63 		.ascii "Func_Shutdown\0"
 1518      5F536875 
 1518      74646F77 
 1518      6E00
 1519 0413 10       		.sleb128 16
 1520 0414 05       		.uleb128 0x5
 1521 0415 46756E63 		.ascii "Func_StackCheck\0"
 1521      5F537461 
 1521      636B4368 
 1521      65636B00 
 1522 0425 11       		.sleb128 17
 1523 0426 00       		.byte	0
 1524 0427 06       		.uleb128 0x6
 1525 0428 42696749 		.ascii "BigInt_s\0"
 1525      6E745F73 
 1525      00
 1526 0431 10       		.byte	0x10
 1527 0432 03       		.byte	0x3
 1528 0433 59       		.byte	0x59
 1529 0434 48040000 		.long	0x448
 1530 0438 07       		.uleb128 0x7
 1531 0439 4E756D62 		.ascii "Number\0"
 1531      657200
 1532 0440 03       		.byte	0x3
 1533 0441 62       		.byte	0x62
 1534 0442 48040000 		.long	0x448
 1535 0446 00       		.byte	0
 1536 0447 00       		.byte	0
 1537 0448 08       		.uleb128 0x8
 1538 0449 C8000000 		.long	0xc8
 1539 044d 58040000 		.long	0x458
 1540 0451 09       		.uleb128 0x9
 1541 0452 58040000 		.long	0x458
 1542 0456 0F       		.byte	0xf
 1543 0457 00       		.byte	0
 1544 0458 03       		.uleb128 0x3
 1545 0459 04       		.byte	0x4
 1546 045a 07       		.byte	0x7
 1547 045b 73697A65 		.ascii "sizetype\0"
 1547      74797065 
 1547      00
 1548 0464 02       		.uleb128 0x2
 1549 0465 42696749 		.ascii "BigInt\0"
 1549      6E7400
GAS LISTING C:\Users\PRESID~1\AppData\Local\Temp\ccaz3kGv.s 			page 42


 1550 046c 03       		.byte	0x3
 1551 046d 63       		.byte	0x63
 1552 046e 27040000 		.long	0x427
 1553 0472 04       		.uleb128 0x4
 1554 0473 436F7265 		.ascii "CoreID_e\0"
 1554      49445F65 
 1554      00
 1555 047c 04       		.byte	0x4
 1556 047d 04       		.byte	0x4
 1557 047e 04       		.byte	0x4
 1558 047f A4040000 		.long	0x4a4
 1559 0483 05       		.uleb128 0x5
 1560 0484 436F7265 		.ascii "Core0\0"
 1560      3000
 1561 048a 00       		.sleb128 0
 1562 048b 05       		.uleb128 0x5
 1563 048c 436F7265 		.ascii "Core1\0"
 1563      3100
 1564 0492 01       		.sleb128 1
 1565 0493 05       		.uleb128 0x5
 1566 0494 436F7265 		.ascii "Core2\0"
 1566      3200
 1567 049a 02       		.sleb128 2
 1568 049b 05       		.uleb128 0x5
 1569 049c 436F7265 		.ascii "Core3\0"
 1569      3300
 1570 04a2 03       		.sleb128 3
 1571 04a3 00       		.byte	0
 1572 04a4 02       		.uleb128 0x2
 1573 04a5 436F7265 		.ascii "CoreID_t\0"
 1573      49445F74 
 1573      00
 1574 04ae 04       		.byte	0x4
 1575 04af 0B       		.byte	0xb
 1576 04b0 72040000 		.long	0x472
 1577 04b4 04       		.uleb128 0x4
 1578 04b5 70726976 		.ascii "privilige_mode_e\0"
 1578      696C6967 
 1578      655F6D6F 
 1578      64655F65 
 1578      00
 1579 04c6 04       		.byte	0x4
 1580 04c7 04       		.byte	0x4
 1581 04c8 10       		.byte	0x10
 1582 04c9 49050000 		.long	0x549
 1583 04cd 05       		.uleb128 0x5
 1584 04ce 65507269 		.ascii "ePriviligeMode_unpriviliged_thread_mode\0"
 1584      76696C69 
 1584      67654D6F 
 1584      64655F75 
 1584      6E707269 
 1585 04f6 00       		.sleb128 0
 1586 04f7 05       		.uleb128 0x5
 1587 04f8 65507269 		.ascii "ePriviligeMode_priviliged_thread_mode\0"
 1587      76696C69 
 1587      67654D6F 
 1587      64655F70 
GAS LISTING C:\Users\PRESID~1\AppData\Local\Temp\ccaz3kGv.s 			page 43


 1587      72697669 
 1588 051e 01       		.sleb128 1
 1589 051f 05       		.uleb128 0x5
 1590 0520 65507269 		.ascii "ePriviligeMode_priviliged_handler_mode\0"
 1590      76696C69 
 1590      67654D6F 
 1590      64655F70 
 1590      72697669 
 1591 0547 02       		.sleb128 2
 1592 0548 00       		.byte	0
 1593 0549 02       		.uleb128 0x2
 1594 054a 70726976 		.ascii "privilige_mode_t\0"
 1594      696C6967 
 1594      655F6D6F 
 1594      64655F74 
 1594      00
 1595 055b 04       		.byte	0x4
 1596 055c 16       		.byte	0x16
 1597 055d B4040000 		.long	0x4b4
 1598 0561 04       		.uleb128 0x4
 1599 0562 7461736B 		.ascii "task_state_e\0"
 1599      5F737461 
 1599      74655F65 
 1599      00
 1600 056f 04       		.byte	0x4
 1601 0570 05       		.byte	0x5
 1602 0571 07       		.byte	0x7
 1603 0572 B7050000 		.long	0x5b7
 1604 0576 05       		.uleb128 0x5
 1605 0577 5461736B 		.ascii "Task_unspecified\0"
 1605      5F756E73 
 1605      70656369 
 1605      66696564 
 1605      00
 1606 0588 00       		.sleb128 0
 1607 0589 05       		.uleb128 0x5
 1608 058a 5461736B 		.ascii "Task_suspended\0"
 1608      5F737573 
 1608      70656E64 
 1608      656400
 1609 0599 01       		.sleb128 1
 1610 059a 05       		.uleb128 0x5
 1611 059b 5461736B 		.ascii "Task_ready\0"
 1611      5F726561 
 1611      647900
 1612 05a6 02       		.sleb128 2
 1613 05a7 05       		.uleb128 0x5
 1614 05a8 5461736B 		.ascii "Task_running\0"
 1614      5F72756E 
 1614      6E696E67 
 1614      00
 1615 05b5 03       		.sleb128 3
 1616 05b6 00       		.byte	0
 1617 05b7 02       		.uleb128 0x2
 1618 05b8 7461736B 		.ascii "task_state_t\0"
 1618      5F737461 
 1618      74655F74 
GAS LISTING C:\Users\PRESID~1\AppData\Local\Temp\ccaz3kGv.s 			page 44


 1618      00
 1619 05c5 05       		.byte	0x5
 1620 05c6 0E       		.byte	0xe
 1621 05c7 61050000 		.long	0x561
 1622 05cb 02       		.uleb128 0x2
 1623 05cc 66756E63 		.ascii "func_p_t\0"
 1623      5F705F74 
 1623      00
 1624 05d5 05       		.byte	0x5
 1625 05d6 13       		.byte	0x13
 1626 05d7 DB050000 		.long	0x5db
 1627 05db 0A       		.uleb128 0xa
 1628 05dc 04       		.byte	0x4
 1629 05dd E1050000 		.long	0x5e1
 1630 05e1 0B       		.uleb128 0xb
 1631 05e2 EC050000 		.long	0x5ec
 1632 05e6 0C       		.uleb128 0xc
 1633 05e7 EC050000 		.long	0x5ec
 1634 05eb 00       		.byte	0
 1635 05ec 0D       		.uleb128 0xd
 1636 05ed 04       		.byte	0x4
 1637 05ee 02       		.uleb128 0x2
 1638 05ef 66756E63 		.ascii "func_p_state_change_t\0"
 1638      5F705F73 
 1638      74617465 
 1638      5F636861 
 1638      6E67655F 
 1639 0605 05       		.byte	0x5
 1640 0606 15       		.byte	0x15
 1641 0607 0B060000 		.long	0x60b
 1642 060b 0A       		.uleb128 0xa
 1643 060c 04       		.byte	0x4
 1644 060d 11060000 		.long	0x611
 1645 0611 0E       		.uleb128 0xe
 1646 0612 91000000 		.long	0x91
 1647 0616 25060000 		.long	0x625
 1648 061a 0C       		.uleb128 0xc
 1649 061b EC050000 		.long	0x5ec
 1650 061f 0C       		.uleb128 0xc
 1651 0620 B7050000 		.long	0x5b7
 1652 0624 00       		.byte	0
 1653 0625 02       		.uleb128 0x2
 1654 0626 74696D65 		.ascii "timebig_t\0"
 1654      6269675F 
 1654      7400
 1655 0630 05       		.byte	0x5
 1656 0631 16       		.byte	0x16
 1657 0632 64040000 		.long	0x464
 1658 0636 06       		.uleb128 0x6
 1659 0637 7461736B 		.ascii "task_group_s\0"
 1659      5F67726F 
 1659      75705F73 
 1659      00
 1660 0644 20       		.byte	0x20
 1661 0645 05       		.byte	0x5
 1662 0646 18       		.byte	0x18
 1663 0647 6E060000 		.long	0x66e
GAS LISTING C:\Users\PRESID~1\AppData\Local\Temp\ccaz3kGv.s 			page 45


 1664 064b 0F       		.uleb128 0xf
 1665 064c 36000000 		.secrel32	LASF0
 1666 0650 05       		.byte	0x5
 1667 0651 1A       		.byte	0x1a
 1668 0652 25060000 		.long	0x625
 1669 0656 00       		.byte	0
 1670 0657 07       		.uleb128 0x7
 1671 0658 66616972 		.ascii "fair_exe_time\0"
 1671      5F657865 
 1671      5F74696D 
 1671      6500
 1672 0666 05       		.byte	0x5
 1673 0667 1B       		.byte	0x1b
 1674 0668 25060000 		.long	0x625
 1675 066c 10       		.byte	0x10
 1676 066d 00       		.byte	0
 1677 066e 02       		.uleb128 0x2
 1678 066f 7461736B 		.ascii "task_group_t\0"
 1678      5F67726F 
 1678      75705F74 
 1678      00
 1679 067c 05       		.byte	0x5
 1680 067d 1D       		.byte	0x1d
 1681 067e 36060000 		.long	0x636
 1682 0682 06       		.uleb128 0x6
 1683 0683 7461736B 		.ascii "task_s\0"
 1683      5F7300
 1684 068a AC       		.byte	0xac
 1685 068b 05       		.byte	0x5
 1686 068c 1F       		.byte	0x1f
 1687 068d DD080000 		.long	0x8dd
 1688 0691 10       		.uleb128 0x10
 1689 0692 61637469 		.ascii "active\0"
 1689      766500
 1690 0699 05       		.byte	0x5
 1691 069a 21       		.byte	0x21
 1692 069b DD080000 		.long	0x8dd
 1693 069f 04       		.byte	0x4
 1694 06a0 01       		.byte	0x1
 1695 06a1 1F       		.byte	0x1f
 1696 06a2 00       		.byte	0
 1697 06a3 10       		.uleb128 0x10
 1698 06a4 7461736B 		.ascii "task_queued\0"
 1698      5F717565 
 1698      75656400 
 1699 06b0 05       		.byte	0x5
 1700 06b1 22       		.byte	0x22
 1701 06b2 DD080000 		.long	0x8dd
 1702 06b6 04       		.byte	0x4
 1703 06b7 01       		.byte	0x1
 1704 06b8 1E       		.byte	0x1e
 1705 06b9 00       		.byte	0
 1706 06ba 11       		.uleb128 0x11
 1707 06bb 28000000 		.secrel32	LASF1
 1708 06bf 05       		.byte	0x5
 1709 06c0 23       		.byte	0x23
 1710 06c1 DD080000 		.long	0x8dd
GAS LISTING C:\Users\PRESID~1\AppData\Local\Temp\ccaz3kGv.s 			page 46


 1711 06c5 04       		.byte	0x4
 1712 06c6 01       		.byte	0x1
 1713 06c7 1D       		.byte	0x1d
 1714 06c8 00       		.byte	0
 1715 06c9 10       		.uleb128 0x10
 1716 06ca 46524545 		.ascii "FREE\0"
 1716      00
 1717 06cf 05       		.byte	0x5
 1718 06d0 24       		.byte	0x24
 1719 06d1 DD080000 		.long	0x8dd
 1720 06d5 04       		.byte	0x4
 1721 06d6 1D       		.byte	0x1d
 1722 06d7 00       		.byte	0
 1723 06d8 00       		.byte	0
 1724 06d9 07       		.uleb128 0x7
 1725 06da 4E724F66 		.ascii "NrOfInsAllowed\0"
 1725      496E7341 
 1725      6C6C6F77 
 1725      656400
 1726 06e9 05       		.byte	0x5
 1727 06ea 25       		.byte	0x25
 1728 06eb 91000000 		.long	0x91
 1729 06ef 04       		.byte	0x4
 1730 06f0 07       		.uleb128 0x7
 1731 06f1 4E724F66 		.ascii "NrOfInsActivated\0"
 1731      496E7341 
 1731      63746976 
 1731      61746564 
 1731      00
 1732 0702 05       		.byte	0x5
 1733 0703 26       		.byte	0x26
 1734 0704 91000000 		.long	0x91
 1735 0708 05       		.byte	0x5
 1736 0709 07       		.uleb128 0x7
 1737 070a 57616974 		.ascii "WaitActUntil\0"
 1737      41637455 
 1737      6E74696C 
 1737      00
 1738 0717 05       		.byte	0x5
 1739 0718 27       		.byte	0x27
 1740 0719 25060000 		.long	0x625
 1741 071d 06       		.byte	0x6
 1742 071e 07       		.uleb128 0x7
 1743 071f 77616974 		.ascii "wait_time\0"
 1743      5F74696D 
 1743      6500
 1744 0729 05       		.byte	0x5
 1745 072a 28       		.byte	0x28
 1746 072b 25060000 		.long	0x625
 1747 072f 16       		.byte	0x16
 1748 0730 07       		.uleb128 0x7
 1749 0731 54696D65 		.ascii "TimeToPrioInc\0"
 1749      546F5072 
 1749      696F496E 
 1749      6300
 1750 073f 05       		.byte	0x5
 1751 0740 29       		.byte	0x29
GAS LISTING C:\Users\PRESID~1\AppData\Local\Temp\ccaz3kGv.s 			page 47


 1752 0741 25060000 		.long	0x625
 1753 0745 26       		.byte	0x26
 1754 0746 07       		.uleb128 0x7
 1755 0747 6F766572 		.ascii "overwaittime_per_prio_inc_step\0"
 1755      77616974 
 1755      74696D65 
 1755      5F706572 
 1755      5F707269 
 1756 0766 05       		.byte	0x5
 1757 0767 2A       		.byte	0x2a
 1758 0768 31010000 		.long	0x131
 1759 076c 38       		.byte	0x38
 1760 076d 07       		.uleb128 0x7
 1761 076e 6D61785F 		.ascii "max_allowed_wait_time\0"
 1761      616C6C6F 
 1761      7765645F 
 1761      77616974 
 1761      5F74696D 
 1762 0784 05       		.byte	0x5
 1763 0785 2B       		.byte	0x2b
 1764 0786 25060000 		.long	0x625
 1765 078a 3C       		.byte	0x3c
 1766 078b 0F       		.uleb128 0xf
 1767 078c 36000000 		.secrel32	LASF0
 1768 0790 05       		.byte	0x5
 1769 0791 2C       		.byte	0x2c
 1770 0792 25060000 		.long	0x625
 1771 0796 4C       		.byte	0x4c
 1772 0797 07       		.uleb128 0x7
 1773 0798 73746172 		.ascii "start_time\0"
 1773      745F7469 
 1773      6D6500
 1774 07a3 05       		.byte	0x5
 1775 07a4 2D       		.byte	0x2d
 1776 07a5 25060000 		.long	0x625
 1777 07a9 5C       		.byte	0x5c
 1778 07aa 07       		.uleb128 0x7
 1779 07ab 63757272 		.ascii "current_prio\0"
 1779      656E745F 
 1779      7072696F 
 1779      00
 1780 07b8 05       		.byte	0x5
 1781 07b9 2E       		.byte	0x2e
 1782 07ba 91000000 		.long	0x91
 1783 07be 6C       		.byte	0x6c
 1784 07bf 0F       		.uleb128 0xf
 1785 07c0 4A000000 		.secrel32	LASF2
 1786 07c4 05       		.byte	0x5
 1787 07c5 2F       		.byte	0x2f
 1788 07c6 91000000 		.long	0x91
 1789 07ca 6D       		.byte	0x6d
 1790 07cb 07       		.uleb128 0x7
 1791 07cc 7461736B 		.ascii "task_number\0"
 1791      5F6E756D 
 1791      62657200 
 1792 07d8 05       		.byte	0x5
 1793 07d9 30       		.byte	0x30
GAS LISTING C:\Users\PRESID~1\AppData\Local\Temp\ccaz3kGv.s 			page 48


 1794 07da F8000000 		.long	0xf8
 1795 07de 70       		.byte	0x70
 1796 07df 07       		.uleb128 0x7
 1797 07e0 667000   		.ascii "fp\0"
 1798 07e3 05       		.byte	0x5
 1799 07e4 31       		.byte	0x31
 1800 07e5 CB050000 		.long	0x5cb
 1801 07e9 74       		.byte	0x74
 1802 07ea 07       		.uleb128 0x7
 1803 07eb 73746174 		.ascii "state_request\0"
 1803      655F7265 
 1803      71756573 
 1803      7400
 1804 07f9 05       		.byte	0x5
 1805 07fa 32       		.byte	0x32
 1806 07fb EE050000 		.long	0x5ee
 1807 07ff 78       		.byte	0x78
 1808 0800 07       		.uleb128 0x7
 1809 0801 7461736B 		.ascii "task_state\0"
 1809      5F737461 
 1809      746500
 1810 080c 05       		.byte	0x5
 1811 080d 33       		.byte	0x33
 1812 080e B7050000 		.long	0x5b7
 1813 0812 7C       		.byte	0x7c
 1814 0813 07       		.uleb128 0x7
 1815 0814 7461736B 		.ascii "task_group\0"
 1815      5F67726F 
 1815      757000
 1816 081f 05       		.byte	0x5
 1817 0820 34       		.byte	0x34
 1818 0821 ED080000 		.long	0x8ed
 1819 0825 80       		.byte	0x80
 1820 0826 07       		.uleb128 0x7
 1821 0827 45415800 		.ascii "EAX\0"
 1822 082b 05       		.byte	0x5
 1823 082c 36       		.byte	0x36
 1824 082d F8000000 		.long	0xf8
 1825 0831 84       		.byte	0x84
 1826 0832 07       		.uleb128 0x7
 1827 0833 45425800 		.ascii "EBX\0"
 1828 0837 05       		.byte	0x5
 1829 0838 37       		.byte	0x37
 1830 0839 F8000000 		.long	0xf8
 1831 083d 88       		.byte	0x88
 1832 083e 07       		.uleb128 0x7
 1833 083f 45435800 		.ascii "ECX\0"
 1834 0843 05       		.byte	0x5
 1835 0844 38       		.byte	0x38
 1836 0845 F8000000 		.long	0xf8
 1837 0849 8C       		.byte	0x8c
 1838 084a 07       		.uleb128 0x7
 1839 084b 45445800 		.ascii "EDX\0"
 1840 084f 05       		.byte	0x5
 1841 0850 39       		.byte	0x39
 1842 0851 F8000000 		.long	0xf8
 1843 0855 90       		.byte	0x90
GAS LISTING C:\Users\PRESID~1\AppData\Local\Temp\ccaz3kGv.s 			page 49


 1844 0856 07       		.uleb128 0x7
 1845 0857 70537461 		.ascii "pStackPointer\0"
 1845      636B506F 
 1845      696E7465 
 1845      7200
 1846 0865 05       		.byte	0x5
 1847 0866 49       		.byte	0x49
 1848 0867 F3080000 		.long	0x8f3
 1849 086b 94       		.byte	0x94
 1850 086c 07       		.uleb128 0x7
 1851 086d 70537461 		.ascii "pStackPointerByMalloc\0"
 1851      636B506F 
 1851      696E7465 
 1851      7242794D 
 1851      616C6C6F 
 1852 0883 05       		.byte	0x5
 1853 0884 4A       		.byte	0x4a
 1854 0885 F3080000 		.long	0x8f3
 1855 0889 98       		.byte	0x98
 1856 088a 07       		.uleb128 0x7
 1857 088b 70537461 		.ascii "pStackPointerStart\0"
 1857      636B506F 
 1857      696E7465 
 1857      72537461 
 1857      727400
 1858 089e 05       		.byte	0x5
 1859 089f 4B       		.byte	0x4b
 1860 08a0 F3080000 		.long	0x8f3
 1861 08a4 9C       		.byte	0x9c
 1862 08a5 07       		.uleb128 0x7
 1863 08a6 53746163 		.ascii "StackSize\0"
 1863      6B53697A 
 1863      6500
 1864 08b0 05       		.byte	0x5
 1865 08b1 4C       		.byte	0x4c
 1866 08b2 F8000000 		.long	0xf8
 1867 08b6 A0       		.byte	0xa0
 1868 08b7 07       		.uleb128 0x7
 1869 08b8 70537461 		.ascii "pStackPointerEnd\0"
 1869      636B506F 
 1869      696E7465 
 1869      72456E64 
 1869      00
 1870 08c9 05       		.byte	0x5
 1871 08ca 4D       		.byte	0x4d
 1872 08cb F3080000 		.long	0x8f3
 1873 08cf A4       		.byte	0xa4
 1874 08d0 0F       		.uleb128 0xf
 1875 08d1 19000000 		.secrel32	LASF3
 1876 08d5 05       		.byte	0x5
 1877 08d6 4E       		.byte	0x4e
 1878 08d7 49050000 		.long	0x549
 1879 08db A8       		.byte	0xa8
 1880 08dc 00       		.byte	0
 1881 08dd 03       		.uleb128 0x3
 1882 08de 04       		.byte	0x4
 1883 08df 07       		.byte	0x7
GAS LISTING C:\Users\PRESID~1\AppData\Local\Temp\ccaz3kGv.s 			page 50


 1884 08e0 756E7369 		.ascii "unsigned int\0"
 1884      676E6564 
 1884      20696E74 
 1884      00
 1885 08ed 0A       		.uleb128 0xa
 1886 08ee 04       		.byte	0x4
 1887 08ef 6E060000 		.long	0x66e
 1888 08f3 0A       		.uleb128 0xa
 1889 08f4 04       		.byte	0x4
 1890 08f5 91000000 		.long	0x91
 1891 08f9 02       		.uleb128 0x2
 1892 08fa 7461736B 		.ascii "task_t\0"
 1892      5F7400
 1893 0901 05       		.byte	0x5
 1894 0902 50       		.byte	0x50
 1895 0903 82060000 		.long	0x682
 1896 0907 02       		.uleb128 0x2
 1897 0908 73636865 		.ascii "scheduling_t\0"
 1897      64756C69 
 1897      6E675F74 
 1897      00
 1898 0915 05       		.byte	0x5
 1899 0916 51       		.byte	0x51
 1900 0917 1B090000 		.long	0x91b
 1901 091b 0A       		.uleb128 0xa
 1902 091c 04       		.byte	0x4
 1903 091d F9080000 		.long	0x8f9
 1904 0921 12       		.uleb128 0x12
 1905 0922 5345545F 		.ascii "SET_RUNNING_TASK\0"
 1905      52554E4E 
 1905      494E475F 
 1905      5441534B 
 1905      00
 1906 0933 01       		.byte	0x1
 1907 0934 21       		.byte	0x21
 1908 0935 00000000 		.long	LFB0
 1909 0939 FF010000 		.long	LFE0-LFB0
 1910 093d 01       		.uleb128 0x1
 1911 093e 9C       		.byte	0x9c
 1912 093f 6C090000 		.long	0x96c
 1913 0943 13       		.uleb128 0x13
 1914 0944 31000000 		.secrel32	LASF4
 1915 0948 01       		.byte	0x1
 1916 0949 21       		.byte	0x21
 1917 094a 1B090000 		.long	0x91b
 1918 094e 02       		.uleb128 0x2
 1919 094f 91       		.byte	0x91
 1920 0950 00       		.sleb128 0
 1921 0951 14       		.uleb128 0x14
 1922 0952 73636865 		.ascii "scheduling_task\0"
 1922      64756C69 
 1922      6E675F74 
 1922      61736B00 
 1923 0962 01       		.byte	0x1
 1924 0963 21       		.byte	0x21
 1925 0964 6C090000 		.long	0x96c
 1926 0968 02       		.uleb128 0x2
GAS LISTING C:\Users\PRESID~1\AppData\Local\Temp\ccaz3kGv.s 			page 51


 1927 0969 91       		.byte	0x91
 1928 096a 04       		.sleb128 4
 1929 096b 00       		.byte	0
 1930 096c 0A       		.uleb128 0xa
 1931 096d 04       		.byte	0x4
 1932 096e 07090000 		.long	0x907
 1933 0972 12       		.uleb128 0x12
 1934 0973 4F535F49 		.ascii "OS_InitTaskQueue\0"
 1934      6E697454 
 1934      61736B51 
 1934      75657565 
 1934      00
 1935 0984 01       		.byte	0x1
 1936 0985 57       		.byte	0x57
 1937 0986 FF010000 		.long	LFB1
 1938 098a 61000000 		.long	LFE1-LFB1
 1939 098e 01       		.uleb128 0x1
 1940 098f 9C       		.byte	0x9c
 1941 0990 AD090000 		.long	0x9ad
 1942 0994 15       		.uleb128 0x15
 1943 0995 0E020000 		.long	LBB2
 1944 0999 50000000 		.long	LBE2-LBB2
 1945 099d 16       		.uleb128 0x16
 1946 099e 3F000000 		.secrel32	LASF5
 1947 09a2 01       		.byte	0x1
 1948 09a3 5B       		.byte	0x5b
 1949 09a4 91000000 		.long	0x91
 1950 09a8 02       		.uleb128 0x2
 1951 09a9 91       		.byte	0x91
 1952 09aa 6F       		.sleb128 -17
 1953 09ab 00       		.byte	0
 1954 09ac 00       		.byte	0
 1955 09ad 17       		.uleb128 0x17
 1956 09ae 41646454 		.ascii "AddToTaskQueue\0"
 1956      6F546173 
 1956      6B517565 
 1956      756500
 1957 09bd 01       		.byte	0x1
 1958 09be 65       		.byte	0x65
 1959 09bf 1B090000 		.long	0x91b
 1960 09c3 60020000 		.long	LFB2
 1961 09c7 B7050000 		.long	LFE2-LFB2
 1962 09cb 01       		.uleb128 0x1
 1963 09cc 9C       		.byte	0x9c
 1964 09cd 010A0000 		.long	0xa01
 1965 09d1 13       		.uleb128 0x13
 1966 09d2 31000000 		.secrel32	LASF4
 1967 09d6 01       		.byte	0x1
 1968 09d7 65       		.byte	0x65
 1969 09d8 1B090000 		.long	0x91b
 1970 09dc 02       		.uleb128 0x2
 1971 09dd 91       		.byte	0x91
 1972 09de 00       		.sleb128 0
 1973 09df 16       		.uleb128 0x16
 1974 09e0 3F000000 		.secrel32	LASF5
 1975 09e4 01       		.byte	0x1
 1976 09e5 67       		.byte	0x67
GAS LISTING C:\Users\PRESID~1\AppData\Local\Temp\ccaz3kGv.s 			page 52


 1977 09e6 91000000 		.long	0x91
 1978 09ea 02       		.uleb128 0x2
 1979 09eb 91       		.byte	0x91
 1980 09ec 6F       		.sleb128 -17
 1981 09ed 18       		.uleb128 0x18
 1982 09ee 7265745F 		.ascii "ret_task\0"
 1982      7461736B 
 1982      00
 1983 09f7 01       		.byte	0x1
 1984 09f8 68       		.byte	0x68
 1985 09f9 1B090000 		.long	0x91b
 1986 09fd 02       		.uleb128 0x2
 1987 09fe 91       		.byte	0x91
 1988 09ff 68       		.sleb128 -24
 1989 0a00 00       		.byte	0
 1990 0a01 12       		.uleb128 0x12
 1991 0a02 44656C65 		.ascii "DeleteFromTaskQueue\0"
 1991      74654672 
 1991      6F6D5461 
 1991      736B5175 
 1991      65756500 
 1992 0a16 01       		.byte	0x1
 1993 0a17 A3       		.byte	0xa3
 1994 0a18 17080000 		.long	LFB3
 1995 0a1c 4A010000 		.long	LFE3-LFB3
 1996 0a20 01       		.uleb128 0x1
 1997 0a21 9C       		.byte	0x9c
 1998 0a22 350A0000 		.long	0xa35
 1999 0a26 13       		.uleb128 0x13
 2000 0a27 31000000 		.secrel32	LASF4
 2001 0a2b 01       		.byte	0x1
 2002 0a2c A3       		.byte	0xa3
 2003 0a2d 1B090000 		.long	0x91b
 2004 0a31 02       		.uleb128 0x2
 2005 0a32 91       		.byte	0x91
 2006 0a33 00       		.sleb128 0
 2007 0a34 00       		.byte	0
 2008 0a35 19       		.uleb128 0x19
 2009 0a36 47657446 		.ascii "GetFromTaskQueue\0"
 2009      726F6D54 
 2009      61736B51 
 2009      75657565 
 2009      00
 2010 0a47 01       		.byte	0x1
 2011 0a48 D4       		.byte	0xd4
 2012 0a49 1B090000 		.long	0x91b
 2013 0a4d 61090000 		.long	LFB4
 2014 0a51 0A000000 		.long	LFE4-LFB4
 2015 0a55 01       		.uleb128 0x1
 2016 0a56 9C       		.byte	0x9c
 2017 0a57 6A0A0000 		.long	0xa6a
 2018 0a5b 13       		.uleb128 0x13
 2019 0a5c 00000000 		.secrel32	LASF6
 2020 0a60 01       		.byte	0x1
 2021 0a61 D4       		.byte	0xd4
 2022 0a62 6C090000 		.long	0x96c
 2023 0a66 02       		.uleb128 0x2
GAS LISTING C:\Users\PRESID~1\AppData\Local\Temp\ccaz3kGv.s 			page 53


 2024 0a67 91       		.byte	0x91
 2025 0a68 00       		.sleb128 0
 2026 0a69 00       		.byte	0
 2027 0a6a 19       		.uleb128 0x19
 2028 0a6b 47657446 		.ascii "GetFromSchedulingQueue\0"
 2028      726F6D53 
 2028      63686564 
 2028      756C696E 
 2028      67517565 
 2029 0a82 01       		.byte	0x1
 2030 0a83 D8       		.byte	0xd8
 2031 0a84 6C090000 		.long	0x96c
 2032 0a88 6B090000 		.long	LFB5
 2033 0a8c 1A000000 		.long	LFE5-LFB5
 2034 0a90 01       		.uleb128 0x1
 2035 0a91 9C       		.byte	0x9c
 2036 0a92 A50A0000 		.long	0xaa5
 2037 0a96 13       		.uleb128 0x13
 2038 0a97 3F000000 		.secrel32	LASF5
 2039 0a9b 01       		.byte	0x1
 2040 0a9c D8       		.byte	0xd8
 2041 0a9d 91000000 		.long	0x91
 2042 0aa1 02       		.uleb128 0x2
 2043 0aa2 91       		.byte	0x91
 2044 0aa3 74       		.sleb128 -12
 2045 0aa4 00       		.byte	0
 2046 0aa5 1A       		.uleb128 0x1a
 2047 0aa6 44656C65 		.ascii "DeleteFromSchedulingQueue\0"
 2047      74654672 
 2047      6F6D5363 
 2047      68656475 
 2047      6C696E67 
 2048 0ac0 01       		.byte	0x1
 2049 0ac1 DD       		.byte	0xdd
 2050 0ac2 85090000 		.long	LFB6
 2051 0ac6 0E000000 		.long	LFE6-LFB6
 2052 0aca 01       		.uleb128 0x1
 2053 0acb 9C       		.byte	0x9c
 2054 0acc DF0A0000 		.long	0xadf
 2055 0ad0 13       		.uleb128 0x13
 2056 0ad1 00000000 		.secrel32	LASF6
 2057 0ad5 01       		.byte	0x1
 2058 0ad6 DD       		.byte	0xdd
 2059 0ad7 6C090000 		.long	0x96c
 2060 0adb 02       		.uleb128 0x2
 2061 0adc 91       		.byte	0x91
 2062 0add 00       		.sleb128 0
 2063 0ade 00       		.byte	0
 2064 0adf 1A       		.uleb128 0x1a
 2065 0ae0 41646454 		.ascii "AddToSchedulingQueue\0"
 2065      6F536368 
 2065      6564756C 
 2065      696E6751 
 2065      75657565 
 2066 0af5 01       		.byte	0x1
 2067 0af6 E1       		.byte	0xe1
 2068 0af7 93090000 		.long	LFB7
GAS LISTING C:\Users\PRESID~1\AppData\Local\Temp\ccaz3kGv.s 			page 54


 2069 0afb 47000000 		.long	LFE7-LFB7
 2070 0aff 01       		.uleb128 0x1
 2071 0b00 9C       		.byte	0x9c
 2072 0b01 3D0B0000 		.long	0xb3d
 2073 0b05 13       		.uleb128 0x13
 2074 0b06 31000000 		.secrel32	LASF4
 2075 0b0a 01       		.byte	0x1
 2076 0b0b E1       		.byte	0xe1
 2077 0b0c 1B090000 		.long	0x91b
 2078 0b10 02       		.uleb128 0x2
 2079 0b11 91       		.byte	0x91
 2080 0b12 00       		.sleb128 0
 2081 0b13 18       		.uleb128 0x18
 2082 0b14 4164645F 		.ascii "Add_successful\0"
 2082      73756363 
 2082      65737366 
 2082      756C00
 2083 0b23 01       		.byte	0x1
 2084 0b24 EA       		.byte	0xea
 2085 0b25 91000000 		.long	0x91
 2086 0b29 02       		.uleb128 0x2
 2087 0b2a 91       		.byte	0x91
 2088 0b2b 77       		.sleb128 -9
 2089 0b2c 18       		.uleb128 0x18
 2090 0b2d 696E6465 		.ascii "index\0"
 2090      7800
 2091 0b33 01       		.byte	0x1
 2092 0b34 EB       		.byte	0xeb
 2093 0b35 91000000 		.long	0x91
 2094 0b39 02       		.uleb128 0x2
 2095 0b3a 91       		.byte	0x91
 2096 0b3b 76       		.sleb128 -10
 2097 0b3c 00       		.byte	0
 2098 0b3d 1B       		.uleb128 0x1b
 2099 0b3e 47657449 		.ascii "GetIdleTask\0"
 2099      646C6554 
 2099      61736B00 
 2100 0b4a 01       		.byte	0x1
 2101 0b4b 1601     		.word	0x116
 2102 0b4d 1B090000 		.long	0x91b
 2103 0b51 DA090000 		.long	LFB8
 2104 0b55 0A000000 		.long	LFE8-LFB8
 2105 0b59 01       		.uleb128 0x1
 2106 0b5a 9C       		.byte	0x9c
 2107 0b5b 1C       		.uleb128 0x1c
 2108 0b5c 41646454 		.ascii "AddToIdleTaskQueue\0"
 2108      6F49646C 
 2108      65546173 
 2108      6B517565 
 2108      756500
 2109 0b6f 01       		.byte	0x1
 2110 0b70 1A01     		.word	0x11a
 2111 0b72 E4090000 		.long	LFB9
 2112 0b76 E6010000 		.long	LFE9-LFB9
 2113 0b7a 01       		.uleb128 0x1
 2114 0b7b 9C       		.byte	0x9c
 2115 0b7c 900B0000 		.long	0xb90
GAS LISTING C:\Users\PRESID~1\AppData\Local\Temp\ccaz3kGv.s 			page 55


 2116 0b80 1D       		.uleb128 0x1d
 2117 0b81 31000000 		.secrel32	LASF4
 2118 0b85 01       		.byte	0x1
 2119 0b86 1A01     		.word	0x11a
 2120 0b88 1B090000 		.long	0x91b
 2121 0b8c 02       		.uleb128 0x2
 2122 0b8d 91       		.byte	0x91
 2123 0b8e 00       		.sleb128 0
 2124 0b8f 00       		.byte	0
 2125 0b90 1B       		.uleb128 0x1b
 2126 0b91 47657452 		.ascii "GetRunningTask\0"
 2126      756E6E69 
 2126      6E675461 
 2126      736B00
 2127 0ba0 01       		.byte	0x1
 2128 0ba1 4E01     		.word	0x14e
 2129 0ba3 1B090000 		.long	0x91b
 2130 0ba7 CA0B0000 		.long	LFB10
 2131 0bab 0A000000 		.long	LFE10-LFB10
 2132 0baf 01       		.uleb128 0x1
 2133 0bb0 9C       		.byte	0x9c
 2134 0bb1 1B       		.uleb128 0x1b
 2135 0bb2 47657452 		.ascii "GetRunningSchedulingQueueElementPtr\0"
 2135      756E6E69 
 2135      6E675363 
 2135      68656475 
 2135      6C696E67 
 2136 0bd6 01       		.byte	0x1
 2137 0bd7 5201     		.word	0x152
 2138 0bd9 E70B0000 		.long	0xbe7
 2139 0bdd D40B0000 		.long	LFB11
 2140 0be1 0A000000 		.long	LFE11-LFB11
 2141 0be5 01       		.uleb128 0x1
 2142 0be6 9C       		.byte	0x9c
 2143 0be7 0A       		.uleb128 0xa
 2144 0be8 04       		.byte	0x4
 2145 0be9 1B090000 		.long	0x91b
 2146 0bed 1C       		.uleb128 0x1c
 2147 0bee 4F535F49 		.ascii "OS_InitTask\0"
 2147      6E697454 
 2147      61736B00 
 2148 0bfa 01       		.byte	0x1
 2149 0bfb 5601     		.word	0x156
 2150 0bfd DE0B0000 		.long	LFB12
 2151 0c01 4C010000 		.long	LFE12-LFB12
 2152 0c05 01       		.uleb128 0x1
 2153 0c06 9C       		.byte	0x9c
 2154 0c07 D00C0000 		.long	0xcd0
 2155 0c0b 1D       		.uleb128 0x1d
 2156 0c0c 31000000 		.secrel32	LASF4
 2157 0c10 01       		.byte	0x1
 2158 0c11 5701     		.word	0x157
 2159 0c13 1B090000 		.long	0x91b
 2160 0c17 02       		.uleb128 0x2
 2161 0c18 91       		.byte	0x91
 2162 0c19 00       		.sleb128 0
 2163 0c1a 1E       		.uleb128 0x1e
GAS LISTING C:\Users\PRESID~1\AppData\Local\Temp\ccaz3kGv.s 			page 56


 2164 0c1b 5461736B 		.ascii "TaskFunction\0"
 2164      46756E63 
 2164      74696F6E 
 2164      00
 2165 0c28 01       		.byte	0x1
 2166 0c29 5801     		.word	0x158
 2167 0c2b CB050000 		.long	0x5cb
 2168 0c2f 02       		.uleb128 0x2
 2169 0c30 91       		.byte	0x91
 2170 0c31 04       		.sleb128 4
 2171 0c32 1E       		.uleb128 0x1e
 2172 0c33 416C6C6F 		.ascii "AllowedInstances\0"
 2172      77656449 
 2172      6E737461 
 2172      6E636573 
 2172      00
 2173 0c44 01       		.byte	0x1
 2174 0c45 5901     		.word	0x159
 2175 0c47 91000000 		.long	0x91
 2176 0c4b 02       		.uleb128 0x2
 2177 0c4c 91       		.byte	0x91
 2178 0c4d 6C       		.sleb128 -20
 2179 0c4e 1D       		.uleb128 0x1d
 2180 0c4f 28000000 		.secrel32	LASF1
 2181 0c53 01       		.byte	0x1
 2182 0c54 5A01     		.word	0x15a
 2183 0c56 91000000 		.long	0x91
 2184 0c5a 02       		.uleb128 0x2
 2185 0c5b 91       		.byte	0x91
 2186 0c5c 68       		.sleb128 -24
 2187 0c5d 1E       		.uleb128 0x1e
 2188 0c5e 705F7461 		.ascii "p_task_group\0"
 2188      736B5F67 
 2188      726F7570 
 2188      00
 2189 0c6b 01       		.byte	0x1
 2190 0c6c 5B01     		.word	0x15b
 2191 0c6e ED080000 		.long	0x8ed
 2192 0c72 02       		.uleb128 0x2
 2193 0c73 91       		.byte	0x91
 2194 0c74 10       		.sleb128 16
 2195 0c75 1E       		.uleb128 0x1e
 2196 0c76 70537461 		.ascii "pStackAddr\0"
 2196      636B4164 
 2196      647200
 2197 0c81 01       		.byte	0x1
 2198 0c82 5C01     		.word	0x15c
 2199 0c84 F3080000 		.long	0x8f3
 2200 0c88 02       		.uleb128 0x2
 2201 0c89 91       		.byte	0x91
 2202 0c8a 14       		.sleb128 20
 2203 0c8b 1E       		.uleb128 0x1e
 2204 0c8c 75537461 		.ascii "uStackSize\0"
 2204      636B5369 
 2204      7A6500
 2205 0c97 01       		.byte	0x1
 2206 0c98 5D01     		.word	0x15d
GAS LISTING C:\Users\PRESID~1\AppData\Local\Temp\ccaz3kGv.s 			page 57


 2207 0c9a F8000000 		.long	0xf8
 2208 0c9e 02       		.uleb128 0x2
 2209 0c9f 91       		.byte	0x91
 2210 0ca0 18       		.sleb128 24
 2211 0ca1 1D       		.uleb128 0x1d
 2212 0ca2 19000000 		.secrel32	LASF3
 2213 0ca6 01       		.byte	0x1
 2214 0ca7 5E01     		.word	0x15e
 2215 0ca9 49050000 		.long	0x549
 2216 0cad 02       		.uleb128 0x2
 2217 0cae 91       		.byte	0x91
 2218 0caf 1C       		.sleb128 28
 2219 0cb0 1E       		.uleb128 0x1e
 2220 0cb1 636F7265 		.ascii "core\0"
 2220      00
 2221 0cb6 01       		.byte	0x1
 2222 0cb7 5F01     		.word	0x15f
 2223 0cb9 A4040000 		.long	0x4a4
 2224 0cbd 02       		.uleb128 0x2
 2225 0cbe 91       		.byte	0x91
 2226 0cbf 20       		.sleb128 32
 2227 0cc0 1D       		.uleb128 0x1d
 2228 0cc1 4A000000 		.secrel32	LASF2
 2229 0cc5 01       		.byte	0x1
 2230 0cc6 6001     		.word	0x160
 2231 0cc8 91000000 		.long	0x91
 2232 0ccc 02       		.uleb128 0x2
 2233 0ccd 91       		.byte	0x91
 2234 0cce 64       		.sleb128 -28
 2235 0ccf 00       		.byte	0
 2236 0cd0 08       		.uleb128 0x8
 2237 0cd1 07090000 		.long	0x907
 2238 0cd5 E00C0000 		.long	0xce0
 2239 0cd9 09       		.uleb128 0x9
 2240 0cda 58040000 		.long	0x458
 2241 0cde 09       		.byte	0x9
 2242 0cdf 00       		.byte	0
 2243 0ce0 1F       		.uleb128 0x1f
 2244 0ce1 5441534B 		.ascii "TASK_SCHEDULING_QUEUE\0"
 2244      5F534348 
 2244      4544554C 
 2244      494E475F 
 2244      51554555 
 2245 0cf7 06       		.byte	0x6
 2246 0cf8 27       		.byte	0x27
 2247 0cf9 D00C0000 		.long	0xcd0
 2248 0cfd 1F       		.uleb128 0x1f
 2249 0cfe 52554E4E 		.ascii "RUNNING_SCHEDULING_QUEUE_ENTRY\0"
 2249      494E475F 
 2249      53434845 
 2249      44554C49 
 2249      4E475F51 
 2250 0d1d 06       		.byte	0x6
 2251 0d1e 28       		.byte	0x28
 2252 0d1f 6C090000 		.long	0x96c
 2253 0d23 08       		.uleb128 0x8
 2254 0d24 F9080000 		.long	0x8f9
GAS LISTING C:\Users\PRESID~1\AppData\Local\Temp\ccaz3kGv.s 			page 58


 2255 0d28 330D0000 		.long	0xd33
 2256 0d2c 09       		.uleb128 0x9
 2257 0d2d 58040000 		.long	0x458
 2258 0d31 09       		.byte	0x9
 2259 0d32 00       		.byte	0
 2260 0d33 1F       		.uleb128 0x1f
 2261 0d34 5441534B 		.ascii "TASK_RUN_QUEUE\0"
 2261      5F52554E 
 2261      5F515545 
 2261      554500
 2262 0d43 06       		.byte	0x6
 2263 0d44 29       		.byte	0x29
 2264 0d45 230D0000 		.long	0xd23
 2265 0d49 08       		.uleb128 0x8
 2266 0d4a F9080000 		.long	0x8f9
 2267 0d4e 590D0000 		.long	0xd59
 2268 0d52 09       		.uleb128 0x9
 2269 0d53 58040000 		.long	0x458
 2270 0d57 00       		.byte	0
 2271 0d58 00       		.byte	0
 2272 0d59 1F       		.uleb128 0x1f
 2273 0d5a 52554E4E 		.ascii "RUNNING_TASK\0"
 2273      494E475F 
 2273      5441534B 
 2273      00
 2274 0d67 06       		.byte	0x6
 2275 0d68 2A       		.byte	0x2a
 2276 0d69 490D0000 		.long	0xd49
 2277 0d6d 1F       		.uleb128 0x1f
 2278 0d6e 5441534B 		.ascii "TASK_IDLE_QUEUE\0"
 2278      5F49444C 
 2278      455F5155 
 2278      45554500 
 2279 0d7e 06       		.byte	0x6
 2280 0d7f 2B       		.byte	0x2b
 2281 0d80 490D0000 		.long	0xd49
 2282 0d84 1F       		.uleb128 0x1f
 2283 0d85 62544153 		.ascii "bTASK_QUEUE_INITIALIZED\0"
 2283      4B5F5155 
 2283      4555455F 
 2283      494E4954 
 2283      49414C49 
 2284 0d9d 06       		.byte	0x6
 2285 0d9e 2C       		.byte	0x2c
 2286 0d9f 91000000 		.long	0x91
 2287 0da3 00       		.byte	0
 2288              		.section	.debug_abbrev,"dr"
 2289              	Ldebug_abbrev0:
 2290 0000 01       		.uleb128 0x1
 2291 0001 11       		.uleb128 0x11
 2292 0002 01       		.byte	0x1
 2293 0003 25       		.uleb128 0x25
 2294 0004 08       		.uleb128 0x8
 2295 0005 13       		.uleb128 0x13
 2296 0006 0B       		.uleb128 0xb
 2297 0007 03       		.uleb128 0x3
 2298 0008 08       		.uleb128 0x8
GAS LISTING C:\Users\PRESID~1\AppData\Local\Temp\ccaz3kGv.s 			page 59


 2299 0009 11       		.uleb128 0x11
 2300 000a 01       		.uleb128 0x1
 2301 000b 12       		.uleb128 0x12
 2302 000c 06       		.uleb128 0x6
 2303 000d 10       		.uleb128 0x10
 2304 000e 17       		.uleb128 0x17
 2305 000f 9942     		.uleb128 0x2119
 2306 0011 17       		.uleb128 0x17
 2307 0012 00       		.byte	0
 2308 0013 00       		.byte	0
 2309 0014 02       		.uleb128 0x2
 2310 0015 16       		.uleb128 0x16
 2311 0016 00       		.byte	0
 2312 0017 03       		.uleb128 0x3
 2313 0018 08       		.uleb128 0x8
 2314 0019 3A       		.uleb128 0x3a
 2315 001a 0B       		.uleb128 0xb
 2316 001b 3B       		.uleb128 0x3b
 2317 001c 0B       		.uleb128 0xb
 2318 001d 49       		.uleb128 0x49
 2319 001e 13       		.uleb128 0x13
 2320 001f 00       		.byte	0
 2321 0020 00       		.byte	0
 2322 0021 03       		.uleb128 0x3
 2323 0022 24       		.uleb128 0x24
 2324 0023 00       		.byte	0
 2325 0024 0B       		.uleb128 0xb
 2326 0025 0B       		.uleb128 0xb
 2327 0026 3E       		.uleb128 0x3e
 2328 0027 0B       		.uleb128 0xb
 2329 0028 03       		.uleb128 0x3
 2330 0029 08       		.uleb128 0x8
 2331 002a 00       		.byte	0
 2332 002b 00       		.byte	0
 2333 002c 04       		.uleb128 0x4
 2334 002d 04       		.uleb128 0x4
 2335 002e 01       		.byte	0x1
 2336 002f 03       		.uleb128 0x3
 2337 0030 08       		.uleb128 0x8
 2338 0031 0B       		.uleb128 0xb
 2339 0032 0B       		.uleb128 0xb
 2340 0033 3A       		.uleb128 0x3a
 2341 0034 0B       		.uleb128 0xb
 2342 0035 3B       		.uleb128 0x3b
 2343 0036 0B       		.uleb128 0xb
 2344 0037 01       		.uleb128 0x1
 2345 0038 13       		.uleb128 0x13
 2346 0039 00       		.byte	0
 2347 003a 00       		.byte	0
 2348 003b 05       		.uleb128 0x5
 2349 003c 28       		.uleb128 0x28
 2350 003d 00       		.byte	0
 2351 003e 03       		.uleb128 0x3
 2352 003f 08       		.uleb128 0x8
 2353 0040 1C       		.uleb128 0x1c
 2354 0041 0D       		.uleb128 0xd
 2355 0042 00       		.byte	0
GAS LISTING C:\Users\PRESID~1\AppData\Local\Temp\ccaz3kGv.s 			page 60


 2356 0043 00       		.byte	0
 2357 0044 06       		.uleb128 0x6
 2358 0045 13       		.uleb128 0x13
 2359 0046 01       		.byte	0x1
 2360 0047 03       		.uleb128 0x3
 2361 0048 08       		.uleb128 0x8
 2362 0049 0B       		.uleb128 0xb
 2363 004a 0B       		.uleb128 0xb
 2364 004b 3A       		.uleb128 0x3a
 2365 004c 0B       		.uleb128 0xb
 2366 004d 3B       		.uleb128 0x3b
 2367 004e 0B       		.uleb128 0xb
 2368 004f 01       		.uleb128 0x1
 2369 0050 13       		.uleb128 0x13
 2370 0051 00       		.byte	0
 2371 0052 00       		.byte	0
 2372 0053 07       		.uleb128 0x7
 2373 0054 0D       		.uleb128 0xd
 2374 0055 00       		.byte	0
 2375 0056 03       		.uleb128 0x3
 2376 0057 08       		.uleb128 0x8
 2377 0058 3A       		.uleb128 0x3a
 2378 0059 0B       		.uleb128 0xb
 2379 005a 3B       		.uleb128 0x3b
 2380 005b 0B       		.uleb128 0xb
 2381 005c 49       		.uleb128 0x49
 2382 005d 13       		.uleb128 0x13
 2383 005e 38       		.uleb128 0x38
 2384 005f 0B       		.uleb128 0xb
 2385 0060 00       		.byte	0
 2386 0061 00       		.byte	0
 2387 0062 08       		.uleb128 0x8
 2388 0063 01       		.uleb128 0x1
 2389 0064 01       		.byte	0x1
 2390 0065 49       		.uleb128 0x49
 2391 0066 13       		.uleb128 0x13
 2392 0067 01       		.uleb128 0x1
 2393 0068 13       		.uleb128 0x13
 2394 0069 00       		.byte	0
 2395 006a 00       		.byte	0
 2396 006b 09       		.uleb128 0x9
 2397 006c 21       		.uleb128 0x21
 2398 006d 00       		.byte	0
 2399 006e 49       		.uleb128 0x49
 2400 006f 13       		.uleb128 0x13
 2401 0070 2F       		.uleb128 0x2f
 2402 0071 0B       		.uleb128 0xb
 2403 0072 00       		.byte	0
 2404 0073 00       		.byte	0
 2405 0074 0A       		.uleb128 0xa
 2406 0075 0F       		.uleb128 0xf
 2407 0076 00       		.byte	0
 2408 0077 0B       		.uleb128 0xb
 2409 0078 0B       		.uleb128 0xb
 2410 0079 49       		.uleb128 0x49
 2411 007a 13       		.uleb128 0x13
 2412 007b 00       		.byte	0
GAS LISTING C:\Users\PRESID~1\AppData\Local\Temp\ccaz3kGv.s 			page 61


 2413 007c 00       		.byte	0
 2414 007d 0B       		.uleb128 0xb
 2415 007e 15       		.uleb128 0x15
 2416 007f 01       		.byte	0x1
 2417 0080 27       		.uleb128 0x27
 2418 0081 19       		.uleb128 0x19
 2419 0082 01       		.uleb128 0x1
 2420 0083 13       		.uleb128 0x13
 2421 0084 00       		.byte	0
 2422 0085 00       		.byte	0
 2423 0086 0C       		.uleb128 0xc
 2424 0087 05       		.uleb128 0x5
 2425 0088 00       		.byte	0
 2426 0089 49       		.uleb128 0x49
 2427 008a 13       		.uleb128 0x13
 2428 008b 00       		.byte	0
 2429 008c 00       		.byte	0
 2430 008d 0D       		.uleb128 0xd
 2431 008e 0F       		.uleb128 0xf
 2432 008f 00       		.byte	0
 2433 0090 0B       		.uleb128 0xb
 2434 0091 0B       		.uleb128 0xb
 2435 0092 00       		.byte	0
 2436 0093 00       		.byte	0
 2437 0094 0E       		.uleb128 0xe
 2438 0095 15       		.uleb128 0x15
 2439 0096 01       		.byte	0x1
 2440 0097 27       		.uleb128 0x27
 2441 0098 19       		.uleb128 0x19
 2442 0099 49       		.uleb128 0x49
 2443 009a 13       		.uleb128 0x13
 2444 009b 01       		.uleb128 0x1
 2445 009c 13       		.uleb128 0x13
 2446 009d 00       		.byte	0
 2447 009e 00       		.byte	0
 2448 009f 0F       		.uleb128 0xf
 2449 00a0 0D       		.uleb128 0xd
 2450 00a1 00       		.byte	0
 2451 00a2 03       		.uleb128 0x3
 2452 00a3 0E       		.uleb128 0xe
 2453 00a4 3A       		.uleb128 0x3a
 2454 00a5 0B       		.uleb128 0xb
 2455 00a6 3B       		.uleb128 0x3b
 2456 00a7 0B       		.uleb128 0xb
 2457 00a8 49       		.uleb128 0x49
 2458 00a9 13       		.uleb128 0x13
 2459 00aa 38       		.uleb128 0x38
 2460 00ab 0B       		.uleb128 0xb
 2461 00ac 00       		.byte	0
 2462 00ad 00       		.byte	0
 2463 00ae 10       		.uleb128 0x10
 2464 00af 0D       		.uleb128 0xd
 2465 00b0 00       		.byte	0
 2466 00b1 03       		.uleb128 0x3
 2467 00b2 08       		.uleb128 0x8
 2468 00b3 3A       		.uleb128 0x3a
 2469 00b4 0B       		.uleb128 0xb
GAS LISTING C:\Users\PRESID~1\AppData\Local\Temp\ccaz3kGv.s 			page 62


 2470 00b5 3B       		.uleb128 0x3b
 2471 00b6 0B       		.uleb128 0xb
 2472 00b7 49       		.uleb128 0x49
 2473 00b8 13       		.uleb128 0x13
 2474 00b9 0B       		.uleb128 0xb
 2475 00ba 0B       		.uleb128 0xb
 2476 00bb 0D       		.uleb128 0xd
 2477 00bc 0B       		.uleb128 0xb
 2478 00bd 0C       		.uleb128 0xc
 2479 00be 0B       		.uleb128 0xb
 2480 00bf 38       		.uleb128 0x38
 2481 00c0 0B       		.uleb128 0xb
 2482 00c1 00       		.byte	0
 2483 00c2 00       		.byte	0
 2484 00c3 11       		.uleb128 0x11
 2485 00c4 0D       		.uleb128 0xd
 2486 00c5 00       		.byte	0
 2487 00c6 03       		.uleb128 0x3
 2488 00c7 0E       		.uleb128 0xe
 2489 00c8 3A       		.uleb128 0x3a
 2490 00c9 0B       		.uleb128 0xb
 2491 00ca 3B       		.uleb128 0x3b
 2492 00cb 0B       		.uleb128 0xb
 2493 00cc 49       		.uleb128 0x49
 2494 00cd 13       		.uleb128 0x13
 2495 00ce 0B       		.uleb128 0xb
 2496 00cf 0B       		.uleb128 0xb
 2497 00d0 0D       		.uleb128 0xd
 2498 00d1 0B       		.uleb128 0xb
 2499 00d2 0C       		.uleb128 0xc
 2500 00d3 0B       		.uleb128 0xb
 2501 00d4 38       		.uleb128 0x38
 2502 00d5 0B       		.uleb128 0xb
 2503 00d6 00       		.byte	0
 2504 00d7 00       		.byte	0
 2505 00d8 12       		.uleb128 0x12
 2506 00d9 2E       		.uleb128 0x2e
 2507 00da 01       		.byte	0x1
 2508 00db 3F       		.uleb128 0x3f
 2509 00dc 19       		.uleb128 0x19
 2510 00dd 03       		.uleb128 0x3
 2511 00de 08       		.uleb128 0x8
 2512 00df 3A       		.uleb128 0x3a
 2513 00e0 0B       		.uleb128 0xb
 2514 00e1 3B       		.uleb128 0x3b
 2515 00e2 0B       		.uleb128 0xb
 2516 00e3 27       		.uleb128 0x27
 2517 00e4 19       		.uleb128 0x19
 2518 00e5 11       		.uleb128 0x11
 2519 00e6 01       		.uleb128 0x1
 2520 00e7 12       		.uleb128 0x12
 2521 00e8 06       		.uleb128 0x6
 2522 00e9 40       		.uleb128 0x40
 2523 00ea 18       		.uleb128 0x18
 2524 00eb 9642     		.uleb128 0x2116
 2525 00ed 19       		.uleb128 0x19
 2526 00ee 01       		.uleb128 0x1
GAS LISTING C:\Users\PRESID~1\AppData\Local\Temp\ccaz3kGv.s 			page 63


 2527 00ef 13       		.uleb128 0x13
 2528 00f0 00       		.byte	0
 2529 00f1 00       		.byte	0
 2530 00f2 13       		.uleb128 0x13
 2531 00f3 05       		.uleb128 0x5
 2532 00f4 00       		.byte	0
 2533 00f5 03       		.uleb128 0x3
 2534 00f6 0E       		.uleb128 0xe
 2535 00f7 3A       		.uleb128 0x3a
 2536 00f8 0B       		.uleb128 0xb
 2537 00f9 3B       		.uleb128 0x3b
 2538 00fa 0B       		.uleb128 0xb
 2539 00fb 49       		.uleb128 0x49
 2540 00fc 13       		.uleb128 0x13
 2541 00fd 02       		.uleb128 0x2
 2542 00fe 18       		.uleb128 0x18
 2543 00ff 00       		.byte	0
 2544 0100 00       		.byte	0
 2545 0101 14       		.uleb128 0x14
 2546 0102 05       		.uleb128 0x5
 2547 0103 00       		.byte	0
 2548 0104 03       		.uleb128 0x3
 2549 0105 08       		.uleb128 0x8
 2550 0106 3A       		.uleb128 0x3a
 2551 0107 0B       		.uleb128 0xb
 2552 0108 3B       		.uleb128 0x3b
 2553 0109 0B       		.uleb128 0xb
 2554 010a 49       		.uleb128 0x49
 2555 010b 13       		.uleb128 0x13
 2556 010c 02       		.uleb128 0x2
 2557 010d 18       		.uleb128 0x18
 2558 010e 00       		.byte	0
 2559 010f 00       		.byte	0
 2560 0110 15       		.uleb128 0x15
 2561 0111 0B       		.uleb128 0xb
 2562 0112 01       		.byte	0x1
 2563 0113 11       		.uleb128 0x11
 2564 0114 01       		.uleb128 0x1
 2565 0115 12       		.uleb128 0x12
 2566 0116 06       		.uleb128 0x6
 2567 0117 00       		.byte	0
 2568 0118 00       		.byte	0
 2569 0119 16       		.uleb128 0x16
 2570 011a 34       		.uleb128 0x34
 2571 011b 00       		.byte	0
 2572 011c 03       		.uleb128 0x3
 2573 011d 0E       		.uleb128 0xe
 2574 011e 3A       		.uleb128 0x3a
 2575 011f 0B       		.uleb128 0xb
 2576 0120 3B       		.uleb128 0x3b
 2577 0121 0B       		.uleb128 0xb
 2578 0122 49       		.uleb128 0x49
 2579 0123 13       		.uleb128 0x13
 2580 0124 02       		.uleb128 0x2
 2581 0125 18       		.uleb128 0x18
 2582 0126 00       		.byte	0
 2583 0127 00       		.byte	0
GAS LISTING C:\Users\PRESID~1\AppData\Local\Temp\ccaz3kGv.s 			page 64


 2584 0128 17       		.uleb128 0x17
 2585 0129 2E       		.uleb128 0x2e
 2586 012a 01       		.byte	0x1
 2587 012b 3F       		.uleb128 0x3f
 2588 012c 19       		.uleb128 0x19
 2589 012d 03       		.uleb128 0x3
 2590 012e 08       		.uleb128 0x8
 2591 012f 3A       		.uleb128 0x3a
 2592 0130 0B       		.uleb128 0xb
 2593 0131 3B       		.uleb128 0x3b
 2594 0132 0B       		.uleb128 0xb
 2595 0133 27       		.uleb128 0x27
 2596 0134 19       		.uleb128 0x19
 2597 0135 49       		.uleb128 0x49
 2598 0136 13       		.uleb128 0x13
 2599 0137 11       		.uleb128 0x11
 2600 0138 01       		.uleb128 0x1
 2601 0139 12       		.uleb128 0x12
 2602 013a 06       		.uleb128 0x6
 2603 013b 40       		.uleb128 0x40
 2604 013c 18       		.uleb128 0x18
 2605 013d 9642     		.uleb128 0x2116
 2606 013f 19       		.uleb128 0x19
 2607 0140 01       		.uleb128 0x1
 2608 0141 13       		.uleb128 0x13
 2609 0142 00       		.byte	0
 2610 0143 00       		.byte	0
 2611 0144 18       		.uleb128 0x18
 2612 0145 34       		.uleb128 0x34
 2613 0146 00       		.byte	0
 2614 0147 03       		.uleb128 0x3
 2615 0148 08       		.uleb128 0x8
 2616 0149 3A       		.uleb128 0x3a
 2617 014a 0B       		.uleb128 0xb
 2618 014b 3B       		.uleb128 0x3b
 2619 014c 0B       		.uleb128 0xb
 2620 014d 49       		.uleb128 0x49
 2621 014e 13       		.uleb128 0x13
 2622 014f 02       		.uleb128 0x2
 2623 0150 18       		.uleb128 0x18
 2624 0151 00       		.byte	0
 2625 0152 00       		.byte	0
 2626 0153 19       		.uleb128 0x19
 2627 0154 2E       		.uleb128 0x2e
 2628 0155 01       		.byte	0x1
 2629 0156 3F       		.uleb128 0x3f
 2630 0157 19       		.uleb128 0x19
 2631 0158 03       		.uleb128 0x3
 2632 0159 08       		.uleb128 0x8
 2633 015a 3A       		.uleb128 0x3a
 2634 015b 0B       		.uleb128 0xb
 2635 015c 3B       		.uleb128 0x3b
 2636 015d 0B       		.uleb128 0xb
 2637 015e 27       		.uleb128 0x27
 2638 015f 19       		.uleb128 0x19
 2639 0160 49       		.uleb128 0x49
 2640 0161 13       		.uleb128 0x13
GAS LISTING C:\Users\PRESID~1\AppData\Local\Temp\ccaz3kGv.s 			page 65


 2641 0162 11       		.uleb128 0x11
 2642 0163 01       		.uleb128 0x1
 2643 0164 12       		.uleb128 0x12
 2644 0165 06       		.uleb128 0x6
 2645 0166 40       		.uleb128 0x40
 2646 0167 18       		.uleb128 0x18
 2647 0168 9742     		.uleb128 0x2117
 2648 016a 19       		.uleb128 0x19
 2649 016b 01       		.uleb128 0x1
 2650 016c 13       		.uleb128 0x13
 2651 016d 00       		.byte	0
 2652 016e 00       		.byte	0
 2653 016f 1A       		.uleb128 0x1a
 2654 0170 2E       		.uleb128 0x2e
 2655 0171 01       		.byte	0x1
 2656 0172 3F       		.uleb128 0x3f
 2657 0173 19       		.uleb128 0x19
 2658 0174 03       		.uleb128 0x3
 2659 0175 08       		.uleb128 0x8
 2660 0176 3A       		.uleb128 0x3a
 2661 0177 0B       		.uleb128 0xb
 2662 0178 3B       		.uleb128 0x3b
 2663 0179 0B       		.uleb128 0xb
 2664 017a 27       		.uleb128 0x27
 2665 017b 19       		.uleb128 0x19
 2666 017c 11       		.uleb128 0x11
 2667 017d 01       		.uleb128 0x1
 2668 017e 12       		.uleb128 0x12
 2669 017f 06       		.uleb128 0x6
 2670 0180 40       		.uleb128 0x40
 2671 0181 18       		.uleb128 0x18
 2672 0182 9742     		.uleb128 0x2117
 2673 0184 19       		.uleb128 0x19
 2674 0185 01       		.uleb128 0x1
 2675 0186 13       		.uleb128 0x13
 2676 0187 00       		.byte	0
 2677 0188 00       		.byte	0
 2678 0189 1B       		.uleb128 0x1b
 2679 018a 2E       		.uleb128 0x2e
 2680 018b 00       		.byte	0
 2681 018c 3F       		.uleb128 0x3f
 2682 018d 19       		.uleb128 0x19
 2683 018e 03       		.uleb128 0x3
 2684 018f 08       		.uleb128 0x8
 2685 0190 3A       		.uleb128 0x3a
 2686 0191 0B       		.uleb128 0xb
 2687 0192 3B       		.uleb128 0x3b
 2688 0193 05       		.uleb128 0x5
 2689 0194 27       		.uleb128 0x27
 2690 0195 19       		.uleb128 0x19
 2691 0196 49       		.uleb128 0x49
 2692 0197 13       		.uleb128 0x13
 2693 0198 11       		.uleb128 0x11
 2694 0199 01       		.uleb128 0x1
 2695 019a 12       		.uleb128 0x12
 2696 019b 06       		.uleb128 0x6
 2697 019c 40       		.uleb128 0x40
GAS LISTING C:\Users\PRESID~1\AppData\Local\Temp\ccaz3kGv.s 			page 66


 2698 019d 18       		.uleb128 0x18
 2699 019e 9742     		.uleb128 0x2117
 2700 01a0 19       		.uleb128 0x19
 2701 01a1 00       		.byte	0
 2702 01a2 00       		.byte	0
 2703 01a3 1C       		.uleb128 0x1c
 2704 01a4 2E       		.uleb128 0x2e
 2705 01a5 01       		.byte	0x1
 2706 01a6 3F       		.uleb128 0x3f
 2707 01a7 19       		.uleb128 0x19
 2708 01a8 03       		.uleb128 0x3
 2709 01a9 08       		.uleb128 0x8
 2710 01aa 3A       		.uleb128 0x3a
 2711 01ab 0B       		.uleb128 0xb
 2712 01ac 3B       		.uleb128 0x3b
 2713 01ad 05       		.uleb128 0x5
 2714 01ae 27       		.uleb128 0x27
 2715 01af 19       		.uleb128 0x19
 2716 01b0 11       		.uleb128 0x11
 2717 01b1 01       		.uleb128 0x1
 2718 01b2 12       		.uleb128 0x12
 2719 01b3 06       		.uleb128 0x6
 2720 01b4 40       		.uleb128 0x40
 2721 01b5 18       		.uleb128 0x18
 2722 01b6 9642     		.uleb128 0x2116
 2723 01b8 19       		.uleb128 0x19
 2724 01b9 01       		.uleb128 0x1
 2725 01ba 13       		.uleb128 0x13
 2726 01bb 00       		.byte	0
 2727 01bc 00       		.byte	0
 2728 01bd 1D       		.uleb128 0x1d
 2729 01be 05       		.uleb128 0x5
 2730 01bf 00       		.byte	0
 2731 01c0 03       		.uleb128 0x3
 2732 01c1 0E       		.uleb128 0xe
 2733 01c2 3A       		.uleb128 0x3a
 2734 01c3 0B       		.uleb128 0xb
 2735 01c4 3B       		.uleb128 0x3b
 2736 01c5 05       		.uleb128 0x5
 2737 01c6 49       		.uleb128 0x49
 2738 01c7 13       		.uleb128 0x13
 2739 01c8 02       		.uleb128 0x2
 2740 01c9 18       		.uleb128 0x18
 2741 01ca 00       		.byte	0
 2742 01cb 00       		.byte	0
 2743 01cc 1E       		.uleb128 0x1e
 2744 01cd 05       		.uleb128 0x5
 2745 01ce 00       		.byte	0
 2746 01cf 03       		.uleb128 0x3
 2747 01d0 08       		.uleb128 0x8
 2748 01d1 3A       		.uleb128 0x3a
 2749 01d2 0B       		.uleb128 0xb
 2750 01d3 3B       		.uleb128 0x3b
 2751 01d4 05       		.uleb128 0x5
 2752 01d5 49       		.uleb128 0x49
 2753 01d6 13       		.uleb128 0x13
 2754 01d7 02       		.uleb128 0x2
GAS LISTING C:\Users\PRESID~1\AppData\Local\Temp\ccaz3kGv.s 			page 67


 2755 01d8 18       		.uleb128 0x18
 2756 01d9 00       		.byte	0
 2757 01da 00       		.byte	0
 2758 01db 1F       		.uleb128 0x1f
 2759 01dc 34       		.uleb128 0x34
 2760 01dd 00       		.byte	0
 2761 01de 03       		.uleb128 0x3
 2762 01df 08       		.uleb128 0x8
 2763 01e0 3A       		.uleb128 0x3a
 2764 01e1 0B       		.uleb128 0xb
 2765 01e2 3B       		.uleb128 0x3b
 2766 01e3 0B       		.uleb128 0xb
 2767 01e4 49       		.uleb128 0x49
 2768 01e5 13       		.uleb128 0x13
 2769 01e6 3F       		.uleb128 0x3f
 2770 01e7 19       		.uleb128 0x19
 2771 01e8 3C       		.uleb128 0x3c
 2772 01e9 19       		.uleb128 0x19
 2773 01ea 00       		.byte	0
 2774 01eb 00       		.byte	0
 2775 01ec 00       		.byte	0
 2776              		.section	.debug_aranges,"dr"
 2777 0000 1C000000 		.long	0x1c
 2778 0004 0200     		.word	0x2
 2779 0006 00000000 		.secrel32	Ldebug_info0
 2780 000a 04       		.byte	0x4
 2781 000b 00       		.byte	0
 2782 000c 0000     		.word	0
 2783 000e 0000     		.word	0
 2784 0010 00000000 		.long	Ltext0
 2785 0014 2A0D0000 		.long	Letext0-Ltext0
 2786 0018 00000000 		.long	0
 2787 001c 00000000 		.long	0
 2788              		.section	.debug_macro,"dr"
 2789              	Ldebug_macro0:
 2790 0000 0400     		.word	0x4
 2791 0002 02       		.byte	0x2
 2792 0003 00000000 		.secrel32	Ldebug_line0
 2793 0007 01       		.byte	0x1
 2794 0008 00       		.uleb128 0
 2795 0009 5F5F5354 		.ascii "__STDC__ 1\0"
 2795      44435F5F 
 2795      203100
 2796 0014 01       		.byte	0x1
 2797 0015 00       		.uleb128 0
 2798 0016 5F5F5354 		.ascii "__STDC_HOSTED__ 1\0"
 2798      44435F48 
 2798      4F535445 
 2798      445F5F20 
 2798      3100
 2799 0028 01       		.byte	0x1
 2800 0029 00       		.uleb128 0
 2801 002a 5F5F474E 		.ascii "__GNUC__ 4\0"
 2801      55435F5F 
 2801      203400
 2802 0035 01       		.byte	0x1
 2803 0036 00       		.uleb128 0
GAS LISTING C:\Users\PRESID~1\AppData\Local\Temp\ccaz3kGv.s 			page 68


 2804 0037 5F5F474E 		.ascii "__GNUC_MINOR__ 9\0"
 2804      55435F4D 
 2804      494E4F52 
 2804      5F5F2039 
 2804      00
 2805 0048 01       		.byte	0x1
 2806 0049 00       		.uleb128 0
 2807 004a 5F5F474E 		.ascii "__GNUC_PATCHLEVEL__ 3\0"
 2807      55435F50 
 2807      41544348 
 2807      4C455645 
 2807      4C5F5F20 
 2808 0060 01       		.byte	0x1
 2809 0061 00       		.uleb128 0
 2810 0062 5F5F5645 		.ascii "__VERSION__ \"4.9.3\"\0"
 2810      5253494F 
 2810      4E5F5F20 
 2810      22342E39 
 2810      2E332200 
 2811 0076 01       		.byte	0x1
 2812 0077 00       		.uleb128 0
 2813 0078 5F5F4154 		.ascii "__ATOMIC_RELAXED 0\0"
 2813      4F4D4943 
 2813      5F52454C 
 2813      41584544 
 2813      203000
 2814 008b 01       		.byte	0x1
 2815 008c 00       		.uleb128 0
 2816 008d 5F5F4154 		.ascii "__ATOMIC_SEQ_CST 5\0"
 2816      4F4D4943 
 2816      5F534551 
 2816      5F435354 
 2816      203500
 2817 00a0 01       		.byte	0x1
 2818 00a1 00       		.uleb128 0
 2819 00a2 5F5F4154 		.ascii "__ATOMIC_ACQUIRE 2\0"
 2819      4F4D4943 
 2819      5F414351 
 2819      55495245 
 2819      203200
 2820 00b5 01       		.byte	0x1
 2821 00b6 00       		.uleb128 0
 2822 00b7 5F5F4154 		.ascii "__ATOMIC_RELEASE 3\0"
 2822      4F4D4943 
 2822      5F52454C 
 2822      45415345 
 2822      203300
 2823 00ca 01       		.byte	0x1
 2824 00cb 00       		.uleb128 0
 2825 00cc 5F5F4154 		.ascii "__ATOMIC_ACQ_REL 4\0"
 2825      4F4D4943 
 2825      5F414351 
 2825      5F52454C 
 2825      203400
 2826 00df 01       		.byte	0x1
 2827 00e0 00       		.uleb128 0
 2828 00e1 5F5F4154 		.ascii "__ATOMIC_CONSUME 1\0"
GAS LISTING C:\Users\PRESID~1\AppData\Local\Temp\ccaz3kGv.s 			page 69


 2828      4F4D4943 
 2828      5F434F4E 
 2828      53554D45 
 2828      203100
 2829 00f4 01       		.byte	0x1
 2830 00f5 00       		.uleb128 0
 2831 00f6 5F5F4649 		.ascii "__FINITE_MATH_ONLY__ 0\0"
 2831      4E495445 
 2831      5F4D4154 
 2831      485F4F4E 
 2831      4C595F5F 
 2832 010d 01       		.byte	0x1
 2833 010e 00       		.uleb128 0
 2834 010f 5F5F5349 		.ascii "__SIZEOF_INT__ 4\0"
 2834      5A454F46 
 2834      5F494E54 
 2834      5F5F2034 
 2834      00
 2835 0120 01       		.byte	0x1
 2836 0121 00       		.uleb128 0
 2837 0122 5F5F5349 		.ascii "__SIZEOF_LONG__ 4\0"
 2837      5A454F46 
 2837      5F4C4F4E 
 2837      475F5F20 
 2837      3400
 2838 0134 01       		.byte	0x1
 2839 0135 00       		.uleb128 0
 2840 0136 5F5F5349 		.ascii "__SIZEOF_LONG_LONG__ 8\0"
 2840      5A454F46 
 2840      5F4C4F4E 
 2840      475F4C4F 
 2840      4E475F5F 
 2841 014d 01       		.byte	0x1
 2842 014e 00       		.uleb128 0
 2843 014f 5F5F5349 		.ascii "__SIZEOF_SHORT__ 2\0"
 2843      5A454F46 
 2843      5F53484F 
 2843      52545F5F 
 2843      203200
 2844 0162 01       		.byte	0x1
 2845 0163 00       		.uleb128 0
 2846 0164 5F5F5349 		.ascii "__SIZEOF_FLOAT__ 4\0"
 2846      5A454F46 
 2846      5F464C4F 
 2846      41545F5F 
 2846      203400
 2847 0177 01       		.byte	0x1
 2848 0178 00       		.uleb128 0
 2849 0179 5F5F5349 		.ascii "__SIZEOF_DOUBLE__ 8\0"
 2849      5A454F46 
 2849      5F444F55 
 2849      424C455F 
 2849      5F203800 
 2850 018d 01       		.byte	0x1
 2851 018e 00       		.uleb128 0
 2852 018f 5F5F5349 		.ascii "__SIZEOF_LONG_DOUBLE__ 12\0"
 2852      5A454F46 
GAS LISTING C:\Users\PRESID~1\AppData\Local\Temp\ccaz3kGv.s 			page 70


 2852      5F4C4F4E 
 2852      475F444F 
 2852      55424C45 
 2853 01a9 01       		.byte	0x1
 2854 01aa 00       		.uleb128 0
 2855 01ab 5F5F5349 		.ascii "__SIZEOF_SIZE_T__ 4\0"
 2855      5A454F46 
 2855      5F53495A 
 2855      455F545F 
 2855      5F203400 
 2856 01bf 01       		.byte	0x1
 2857 01c0 00       		.uleb128 0
 2858 01c1 5F5F4348 		.ascii "__CHAR_BIT__ 8\0"
 2858      41525F42 
 2858      49545F5F 
 2858      203800
 2859 01d0 01       		.byte	0x1
 2860 01d1 00       		.uleb128 0
 2861 01d2 5F5F4249 		.ascii "__BIGGEST_ALIGNMENT__ 16\0"
 2861      47474553 
 2861      545F414C 
 2861      49474E4D 
 2861      454E545F 
 2862 01eb 01       		.byte	0x1
 2863 01ec 00       		.uleb128 0
 2864 01ed 5F5F4F52 		.ascii "__ORDER_LITTLE_ENDIAN__ 1234\0"
 2864      4445525F 
 2864      4C495454 
 2864      4C455F45 
 2864      4E444941 
 2865 020a 01       		.byte	0x1
 2866 020b 00       		.uleb128 0
 2867 020c 5F5F4F52 		.ascii "__ORDER_BIG_ENDIAN__ 4321\0"
 2867      4445525F 
 2867      4249475F 
 2867      454E4449 
 2867      414E5F5F 
 2868 0226 01       		.byte	0x1
 2869 0227 00       		.uleb128 0
 2870 0228 5F5F4F52 		.ascii "__ORDER_PDP_ENDIAN__ 3412\0"
 2870      4445525F 
 2870      5044505F 
 2870      454E4449 
 2870      414E5F5F 
 2871 0242 01       		.byte	0x1
 2872 0243 00       		.uleb128 0
 2873 0244 5F5F4259 		.ascii "__BYTE_ORDER__ __ORDER_LITTLE_ENDIAN__\0"
 2873      54455F4F 
 2873      52444552 
 2873      5F5F205F 
 2873      5F4F5244 
 2874 026b 01       		.byte	0x1
 2875 026c 00       		.uleb128 0
 2876 026d 5F5F464C 		.ascii "__FLOAT_WORD_ORDER__ __ORDER_LITTLE_ENDIAN__\0"
 2876      4F41545F 
 2876      574F5244 
 2876      5F4F5244 
GAS LISTING C:\Users\PRESID~1\AppData\Local\Temp\ccaz3kGv.s 			page 71


 2876      45525F5F 
 2877 029a 01       		.byte	0x1
 2878 029b 00       		.uleb128 0
 2879 029c 5F5F5349 		.ascii "__SIZEOF_POINTER__ 4\0"
 2879      5A454F46 
 2879      5F504F49 
 2879      4E544552 
 2879      5F5F2034 
 2880 02b1 01       		.byte	0x1
 2881 02b2 00       		.uleb128 0
 2882 02b3 5F5F5349 		.ascii "__SIZE_TYPE__ unsigned int\0"
 2882      5A455F54 
 2882      5950455F 
 2882      5F20756E 
 2882      7369676E 
 2883 02ce 01       		.byte	0x1
 2884 02cf 00       		.uleb128 0
 2885 02d0 5F5F5054 		.ascii "__PTRDIFF_TYPE__ int\0"
 2885      52444946 
 2885      465F5459 
 2885      50455F5F 
 2885      20696E74 
 2886 02e5 01       		.byte	0x1
 2887 02e6 00       		.uleb128 0
 2888 02e7 5F5F5743 		.ascii "__WCHAR_TYPE__ short unsigned int\0"
 2888      4841525F 
 2888      54595045 
 2888      5F5F2073 
 2888      686F7274 
 2889 0309 01       		.byte	0x1
 2890 030a 00       		.uleb128 0
 2891 030b 5F5F5749 		.ascii "__WINT_TYPE__ short unsigned int\0"
 2891      4E545F54 
 2891      5950455F 
 2891      5F207368 
 2891      6F727420 
 2892 032c 01       		.byte	0x1
 2893 032d 00       		.uleb128 0
 2894 032e 5F5F494E 		.ascii "__INTMAX_TYPE__ long long int\0"
 2894      544D4158 
 2894      5F545950 
 2894      455F5F20 
 2894      6C6F6E67 
 2895 034c 01       		.byte	0x1
 2896 034d 00       		.uleb128 0
 2897 034e 5F5F5549 		.ascii "__UINTMAX_TYPE__ long long unsigned int\0"
 2897      4E544D41 
 2897      585F5459 
 2897      50455F5F 
 2897      206C6F6E 
 2898 0376 01       		.byte	0x1
 2899 0377 00       		.uleb128 0
 2900 0378 5F5F4348 		.ascii "__CHAR16_TYPE__ short unsigned int\0"
 2900      41523136 
 2900      5F545950 
 2900      455F5F20 
 2900      73686F72 
GAS LISTING C:\Users\PRESID~1\AppData\Local\Temp\ccaz3kGv.s 			page 72


 2901 039b 01       		.byte	0x1
 2902 039c 00       		.uleb128 0
 2903 039d 5F5F4348 		.ascii "__CHAR32_TYPE__ unsigned int\0"
 2903      41523332 
 2903      5F545950 
 2903      455F5F20 
 2903      756E7369 
 2904 03ba 01       		.byte	0x1
 2905 03bb 00       		.uleb128 0
 2906 03bc 5F5F5349 		.ascii "__SIG_ATOMIC_TYPE__ int\0"
 2906      475F4154 
 2906      4F4D4943 
 2906      5F545950 
 2906      455F5F20 
 2907 03d4 01       		.byte	0x1
 2908 03d5 00       		.uleb128 0
 2909 03d6 5F5F494E 		.ascii "__INT8_TYPE__ signed char\0"
 2909      54385F54 
 2909      5950455F 
 2909      5F207369 
 2909      676E6564 
 2910 03f0 01       		.byte	0x1
 2911 03f1 00       		.uleb128 0
 2912 03f2 5F5F494E 		.ascii "__INT16_TYPE__ short int\0"
 2912      5431365F 
 2912      54595045 
 2912      5F5F2073 
 2912      686F7274 
 2913 040b 01       		.byte	0x1
 2914 040c 00       		.uleb128 0
 2915 040d 5F5F494E 		.ascii "__INT32_TYPE__ int\0"
 2915      5433325F 
 2915      54595045 
 2915      5F5F2069 
 2915      6E7400
 2916 0420 01       		.byte	0x1
 2917 0421 00       		.uleb128 0
 2918 0422 5F5F494E 		.ascii "__INT64_TYPE__ long long int\0"
 2918      5436345F 
 2918      54595045 
 2918      5F5F206C 
 2918      6F6E6720 
 2919 043f 01       		.byte	0x1
 2920 0440 00       		.uleb128 0
 2921 0441 5F5F5549 		.ascii "__UINT8_TYPE__ unsigned char\0"
 2921      4E54385F 
 2921      54595045 
 2921      5F5F2075 
 2921      6E736967 
 2922 045e 01       		.byte	0x1
 2923 045f 00       		.uleb128 0
 2924 0460 5F5F5549 		.ascii "__UINT16_TYPE__ short unsigned int\0"
 2924      4E543136 
 2924      5F545950 
 2924      455F5F20 
 2924      73686F72 
 2925 0483 01       		.byte	0x1
GAS LISTING C:\Users\PRESID~1\AppData\Local\Temp\ccaz3kGv.s 			page 73


 2926 0484 00       		.uleb128 0
 2927 0485 5F5F5549 		.ascii "__UINT32_TYPE__ unsigned int\0"
 2927      4E543332 
 2927      5F545950 
 2927      455F5F20 
 2927      756E7369 
 2928 04a2 01       		.byte	0x1
 2929 04a3 00       		.uleb128 0
 2930 04a4 5F5F5549 		.ascii "__UINT64_TYPE__ long long unsigned int\0"
 2930      4E543634 
 2930      5F545950 
 2930      455F5F20 
 2930      6C6F6E67 
 2931 04cb 01       		.byte	0x1
 2932 04cc 00       		.uleb128 0
 2933 04cd 5F5F494E 		.ascii "__INT_LEAST8_TYPE__ signed char\0"
 2933      545F4C45 
 2933      41535438 
 2933      5F545950 
 2933      455F5F20 
 2934 04ed 01       		.byte	0x1
 2935 04ee 00       		.uleb128 0
 2936 04ef 5F5F494E 		.ascii "__INT_LEAST16_TYPE__ short int\0"
 2936      545F4C45 
 2936      41535431 
 2936      365F5459 
 2936      50455F5F 
 2937 050e 01       		.byte	0x1
 2938 050f 00       		.uleb128 0
 2939 0510 5F5F494E 		.ascii "__INT_LEAST32_TYPE__ int\0"
 2939      545F4C45 
 2939      41535433 
 2939      325F5459 
 2939      50455F5F 
 2940 0529 01       		.byte	0x1
 2941 052a 00       		.uleb128 0
 2942 052b 5F5F494E 		.ascii "__INT_LEAST64_TYPE__ long long int\0"
 2942      545F4C45 
 2942      41535436 
 2942      345F5459 
 2942      50455F5F 
 2943 054e 01       		.byte	0x1
 2944 054f 00       		.uleb128 0
 2945 0550 5F5F5549 		.ascii "__UINT_LEAST8_TYPE__ unsigned char\0"
 2945      4E545F4C 
 2945      45415354 
 2945      385F5459 
 2945      50455F5F 
 2946 0573 01       		.byte	0x1
 2947 0574 00       		.uleb128 0
 2948 0575 5F5F5549 		.ascii "__UINT_LEAST16_TYPE__ short unsigned int\0"
 2948      4E545F4C 
 2948      45415354 
 2948      31365F54 
 2948      5950455F 
 2949 059e 01       		.byte	0x1
 2950 059f 00       		.uleb128 0
GAS LISTING C:\Users\PRESID~1\AppData\Local\Temp\ccaz3kGv.s 			page 74


 2951 05a0 5F5F5549 		.ascii "__UINT_LEAST32_TYPE__ unsigned int\0"
 2951      4E545F4C 
 2951      45415354 
 2951      33325F54 
 2951      5950455F 
 2952 05c3 01       		.byte	0x1
 2953 05c4 00       		.uleb128 0
 2954 05c5 5F5F5549 		.ascii "__UINT_LEAST64_TYPE__ long long unsigned int\0"
 2954      4E545F4C 
 2954      45415354 
 2954      36345F54 
 2954      5950455F 
 2955 05f2 01       		.byte	0x1
 2956 05f3 00       		.uleb128 0
 2957 05f4 5F5F494E 		.ascii "__INT_FAST8_TYPE__ signed char\0"
 2957      545F4641 
 2957      5354385F 
 2957      54595045 
 2957      5F5F2073 
 2958 0613 01       		.byte	0x1
 2959 0614 00       		.uleb128 0
 2960 0615 5F5F494E 		.ascii "__INT_FAST16_TYPE__ short int\0"
 2960      545F4641 
 2960      53543136 
 2960      5F545950 
 2960      455F5F20 
 2961 0633 01       		.byte	0x1
 2962 0634 00       		.uleb128 0
 2963 0635 5F5F494E 		.ascii "__INT_FAST32_TYPE__ int\0"
 2963      545F4641 
 2963      53543332 
 2963      5F545950 
 2963      455F5F20 
 2964 064d 01       		.byte	0x1
 2965 064e 00       		.uleb128 0
 2966 064f 5F5F494E 		.ascii "__INT_FAST64_TYPE__ long long int\0"
 2966      545F4641 
 2966      53543634 
 2966      5F545950 
 2966      455F5F20 
 2967 0671 01       		.byte	0x1
 2968 0672 00       		.uleb128 0
 2969 0673 5F5F5549 		.ascii "__UINT_FAST8_TYPE__ unsigned char\0"
 2969      4E545F46 
 2969      41535438 
 2969      5F545950 
 2969      455F5F20 
 2970 0695 01       		.byte	0x1
 2971 0696 00       		.uleb128 0
 2972 0697 5F5F5549 		.ascii "__UINT_FAST16_TYPE__ short unsigned int\0"
 2972      4E545F46 
 2972      41535431 
 2972      365F5459 
 2972      50455F5F 
 2973 06bf 01       		.byte	0x1
 2974 06c0 00       		.uleb128 0
 2975 06c1 5F5F5549 		.ascii "__UINT_FAST32_TYPE__ unsigned int\0"
GAS LISTING C:\Users\PRESID~1\AppData\Local\Temp\ccaz3kGv.s 			page 75


 2975      4E545F46 
 2975      41535433 
 2975      325F5459 
 2975      50455F5F 
 2976 06e3 01       		.byte	0x1
 2977 06e4 00       		.uleb128 0
 2978 06e5 5F5F5549 		.ascii "__UINT_FAST64_TYPE__ long long unsigned int\0"
 2978      4E545F46 
 2978      41535436 
 2978      345F5459 
 2978      50455F5F 
 2979 0711 01       		.byte	0x1
 2980 0712 00       		.uleb128 0
 2981 0713 5F5F494E 		.ascii "__INTPTR_TYPE__ int\0"
 2981      54505452 
 2981      5F545950 
 2981      455F5F20 
 2981      696E7400 
 2982 0727 01       		.byte	0x1
 2983 0728 00       		.uleb128 0
 2984 0729 5F5F5549 		.ascii "__UINTPTR_TYPE__ unsigned int\0"
 2984      4E545054 
 2984      525F5459 
 2984      50455F5F 
 2984      20756E73 
 2985 0747 01       		.byte	0x1
 2986 0748 00       		.uleb128 0
 2987 0749 5F5F6861 		.ascii "__has_include(STR) __has_include__(STR)\0"
 2987      735F696E 
 2987      636C7564 
 2987      65285354 
 2987      5229205F 
 2988 0771 01       		.byte	0x1
 2989 0772 00       		.uleb128 0
 2990 0773 5F5F6861 		.ascii "__has_include_next(STR) __has_include_next__(STR)\0"
 2990      735F696E 
 2990      636C7564 
 2990      655F6E65 
 2990      78742853 
 2991 07a5 01       		.byte	0x1
 2992 07a6 00       		.uleb128 0
 2993 07a7 5F5F4758 		.ascii "__GXX_ABI_VERSION 1002\0"
 2993      585F4142 
 2993      495F5645 
 2993      5253494F 
 2993      4E203130 
 2994 07be 01       		.byte	0x1
 2995 07bf 00       		.uleb128 0
 2996 07c0 5F5F5343 		.ascii "__SCHAR_MAX__ 127\0"
 2996      4841525F 
 2996      4D41585F 
 2996      5F203132 
 2996      3700
 2997 07d2 01       		.byte	0x1
 2998 07d3 00       		.uleb128 0
 2999 07d4 5F5F5348 		.ascii "__SHRT_MAX__ 32767\0"
 2999      52545F4D 
GAS LISTING C:\Users\PRESID~1\AppData\Local\Temp\ccaz3kGv.s 			page 76


 2999      41585F5F 
 2999      20333237 
 2999      363700
 3000 07e7 01       		.byte	0x1
 3001 07e8 00       		.uleb128 0
 3002 07e9 5F5F494E 		.ascii "__INT_MAX__ 2147483647\0"
 3002      545F4D41 
 3002      585F5F20 
 3002      32313437 
 3002      34383336 
 3003 0800 01       		.byte	0x1
 3004 0801 00       		.uleb128 0
 3005 0802 5F5F4C4F 		.ascii "__LONG_MAX__ 2147483647L\0"
 3005      4E475F4D 
 3005      41585F5F 
 3005      20323134 
 3005      37343833 
 3006 081b 01       		.byte	0x1
 3007 081c 00       		.uleb128 0
 3008 081d 5F5F4C4F 		.ascii "__LONG_LONG_MAX__ 9223372036854775807LL\0"
 3008      4E475F4C 
 3008      4F4E475F 
 3008      4D41585F 
 3008      5F203932 
 3009 0845 01       		.byte	0x1
 3010 0846 00       		.uleb128 0
 3011 0847 5F5F5743 		.ascii "__WCHAR_MAX__ 65535\0"
 3011      4841525F 
 3011      4D41585F 
 3011      5F203635 
 3011      35333500 
 3012 085b 01       		.byte	0x1
 3013 085c 00       		.uleb128 0
 3014 085d 5F5F5743 		.ascii "__WCHAR_MIN__ 0\0"
 3014      4841525F 
 3014      4D494E5F 
 3014      5F203000 
 3015 086d 01       		.byte	0x1
 3016 086e 00       		.uleb128 0
 3017 086f 5F5F5749 		.ascii "__WINT_MAX__ 65535\0"
 3017      4E545F4D 
 3017      41585F5F 
 3017      20363535 
 3017      333500
 3018 0882 01       		.byte	0x1
 3019 0883 00       		.uleb128 0
 3020 0884 5F5F5749 		.ascii "__WINT_MIN__ 0\0"
 3020      4E545F4D 
 3020      494E5F5F 
 3020      203000
 3021 0893 01       		.byte	0x1
 3022 0894 00       		.uleb128 0
 3023 0895 5F5F5054 		.ascii "__PTRDIFF_MAX__ 2147483647\0"
 3023      52444946 
 3023      465F4D41 
 3023      585F5F20 
 3023      32313437 
GAS LISTING C:\Users\PRESID~1\AppData\Local\Temp\ccaz3kGv.s 			page 77


 3024 08b0 01       		.byte	0x1
 3025 08b1 00       		.uleb128 0
 3026 08b2 5F5F5349 		.ascii "__SIZE_MAX__ 4294967295U\0"
 3026      5A455F4D 
 3026      41585F5F 
 3026      20343239 
 3026      34393637 
 3027 08cb 01       		.byte	0x1
 3028 08cc 00       		.uleb128 0
 3029 08cd 5F5F494E 		.ascii "__INTMAX_MAX__ 9223372036854775807LL\0"
 3029      544D4158 
 3029      5F4D4158 
 3029      5F5F2039 
 3029      32323333 
 3030 08f2 01       		.byte	0x1
 3031 08f3 00       		.uleb128 0
 3032 08f4 5F5F494E 		.ascii "__INTMAX_C(c) c ## LL\0"
 3032      544D4158 
 3032      5F432863 
 3032      29206320 
 3032      2323204C 
 3033 090a 01       		.byte	0x1
 3034 090b 00       		.uleb128 0
 3035 090c 5F5F5549 		.ascii "__UINTMAX_MAX__ 18446744073709551615ULL\0"
 3035      4E544D41 
 3035      585F4D41 
 3035      585F5F20 
 3035      31383434 
 3036 0934 01       		.byte	0x1
 3037 0935 00       		.uleb128 0
 3038 0936 5F5F5549 		.ascii "__UINTMAX_C(c) c ## ULL\0"
 3038      4E544D41 
 3038      585F4328 
 3038      63292063 
 3038      20232320 
 3039 094e 01       		.byte	0x1
 3040 094f 00       		.uleb128 0
 3041 0950 5F5F5349 		.ascii "__SIG_ATOMIC_MAX__ 2147483647\0"
 3041      475F4154 
 3041      4F4D4943 
 3041      5F4D4158 
 3041      5F5F2032 
 3042 096e 01       		.byte	0x1
 3043 096f 00       		.uleb128 0
 3044 0970 5F5F5349 		.ascii "__SIG_ATOMIC_MIN__ (-__SIG_ATOMIC_MAX__ - 1)\0"
 3044      475F4154 
 3044      4F4D4943 
 3044      5F4D494E 
 3044      5F5F2028 
 3045 099d 01       		.byte	0x1
 3046 099e 00       		.uleb128 0
 3047 099f 5F5F494E 		.ascii "__INT8_MAX__ 127\0"
 3047      54385F4D 
 3047      41585F5F 
 3047      20313237 
 3047      00
 3048 09b0 01       		.byte	0x1
GAS LISTING C:\Users\PRESID~1\AppData\Local\Temp\ccaz3kGv.s 			page 78


 3049 09b1 00       		.uleb128 0
 3050 09b2 5F5F494E 		.ascii "__INT16_MAX__ 32767\0"
 3050      5431365F 
 3050      4D41585F 
 3050      5F203332 
 3050      37363700 
 3051 09c6 01       		.byte	0x1
 3052 09c7 00       		.uleb128 0
 3053 09c8 5F5F494E 		.ascii "__INT32_MAX__ 2147483647\0"
 3053      5433325F 
 3053      4D41585F 
 3053      5F203231 
 3053      34373438 
 3054 09e1 01       		.byte	0x1
 3055 09e2 00       		.uleb128 0
 3056 09e3 5F5F494E 		.ascii "__INT64_MAX__ 9223372036854775807LL\0"
 3056      5436345F 
 3056      4D41585F 
 3056      5F203932 
 3056      32333337 
 3057 0a07 01       		.byte	0x1
 3058 0a08 00       		.uleb128 0
 3059 0a09 5F5F5549 		.ascii "__UINT8_MAX__ 255\0"
 3059      4E54385F 
 3059      4D41585F 
 3059      5F203235 
 3059      3500
 3060 0a1b 01       		.byte	0x1
 3061 0a1c 00       		.uleb128 0
 3062 0a1d 5F5F5549 		.ascii "__UINT16_MAX__ 65535\0"
 3062      4E543136 
 3062      5F4D4158 
 3062      5F5F2036 
 3062      35353335 
 3063 0a32 01       		.byte	0x1
 3064 0a33 00       		.uleb128 0
 3065 0a34 5F5F5549 		.ascii "__UINT32_MAX__ 4294967295U\0"
 3065      4E543332 
 3065      5F4D4158 
 3065      5F5F2034 
 3065      32393439 
 3066 0a4f 01       		.byte	0x1
 3067 0a50 00       		.uleb128 0
 3068 0a51 5F5F5549 		.ascii "__UINT64_MAX__ 18446744073709551615ULL\0"
 3068      4E543634 
 3068      5F4D4158 
 3068      5F5F2031 
 3068      38343436 
 3069 0a78 01       		.byte	0x1
 3070 0a79 00       		.uleb128 0
 3071 0a7a 5F5F494E 		.ascii "__INT_LEAST8_MAX__ 127\0"
 3071      545F4C45 
 3071      41535438 
 3071      5F4D4158 
 3071      5F5F2031 
 3072 0a91 01       		.byte	0x1
 3073 0a92 00       		.uleb128 0
GAS LISTING C:\Users\PRESID~1\AppData\Local\Temp\ccaz3kGv.s 			page 79


 3074 0a93 5F5F494E 		.ascii "__INT8_C(c) c\0"
 3074      54385F43 
 3074      28632920 
 3074      6300
 3075 0aa1 01       		.byte	0x1
 3076 0aa2 00       		.uleb128 0
 3077 0aa3 5F5F494E 		.ascii "__INT_LEAST16_MAX__ 32767\0"
 3077      545F4C45 
 3077      41535431 
 3077      365F4D41 
 3077      585F5F20 
 3078 0abd 01       		.byte	0x1
 3079 0abe 00       		.uleb128 0
 3080 0abf 5F5F494E 		.ascii "__INT16_C(c) c\0"
 3080      5431365F 
 3080      43286329 
 3080      206300
 3081 0ace 01       		.byte	0x1
 3082 0acf 00       		.uleb128 0
 3083 0ad0 5F5F494E 		.ascii "__INT_LEAST32_MAX__ 2147483647\0"
 3083      545F4C45 
 3083      41535433 
 3083      325F4D41 
 3083      585F5F20 
 3084 0aef 01       		.byte	0x1
 3085 0af0 00       		.uleb128 0
 3086 0af1 5F5F494E 		.ascii "__INT32_C(c) c\0"
 3086      5433325F 
 3086      43286329 
 3086      206300
 3087 0b00 01       		.byte	0x1
 3088 0b01 00       		.uleb128 0
 3089 0b02 5F5F494E 		.ascii "__INT_LEAST64_MAX__ 9223372036854775807LL\0"
 3089      545F4C45 
 3089      41535436 
 3089      345F4D41 
 3089      585F5F20 
 3090 0b2c 01       		.byte	0x1
 3091 0b2d 00       		.uleb128 0
 3092 0b2e 5F5F494E 		.ascii "__INT64_C(c) c ## LL\0"
 3092      5436345F 
 3092      43286329 
 3092      20632023 
 3092      23204C4C 
 3093 0b43 01       		.byte	0x1
 3094 0b44 00       		.uleb128 0
 3095 0b45 5F5F5549 		.ascii "__UINT_LEAST8_MAX__ 255\0"
 3095      4E545F4C 
 3095      45415354 
 3095      385F4D41 
 3095      585F5F20 
 3096 0b5d 01       		.byte	0x1
 3097 0b5e 00       		.uleb128 0
 3098 0b5f 5F5F5549 		.ascii "__UINT8_C(c) c\0"
 3098      4E54385F 
 3098      43286329 
 3098      206300
GAS LISTING C:\Users\PRESID~1\AppData\Local\Temp\ccaz3kGv.s 			page 80


 3099 0b6e 01       		.byte	0x1
 3100 0b6f 00       		.uleb128 0
 3101 0b70 5F5F5549 		.ascii "__UINT_LEAST16_MAX__ 65535\0"
 3101      4E545F4C 
 3101      45415354 
 3101      31365F4D 
 3101      41585F5F 
 3102 0b8b 01       		.byte	0x1
 3103 0b8c 00       		.uleb128 0
 3104 0b8d 5F5F5549 		.ascii "__UINT16_C(c) c\0"
 3104      4E543136 
 3104      5F432863 
 3104      29206300 
 3105 0b9d 01       		.byte	0x1
 3106 0b9e 00       		.uleb128 0
 3107 0b9f 5F5F5549 		.ascii "__UINT_LEAST32_MAX__ 4294967295U\0"
 3107      4E545F4C 
 3107      45415354 
 3107      33325F4D 
 3107      41585F5F 
 3108 0bc0 01       		.byte	0x1
 3109 0bc1 00       		.uleb128 0
 3110 0bc2 5F5F5549 		.ascii "__UINT32_C(c) c ## U\0"
 3110      4E543332 
 3110      5F432863 
 3110      29206320 
 3110      23232055 
 3111 0bd7 01       		.byte	0x1
 3112 0bd8 00       		.uleb128 0
 3113 0bd9 5F5F5549 		.ascii "__UINT_LEAST64_MAX__ 18446744073709551615ULL\0"
 3113      4E545F4C 
 3113      45415354 
 3113      36345F4D 
 3113      41585F5F 
 3114 0c06 01       		.byte	0x1
 3115 0c07 00       		.uleb128 0
 3116 0c08 5F5F5549 		.ascii "__UINT64_C(c) c ## ULL\0"
 3116      4E543634 
 3116      5F432863 
 3116      29206320 
 3116      23232055 
 3117 0c1f 01       		.byte	0x1
 3118 0c20 00       		.uleb128 0
 3119 0c21 5F5F494E 		.ascii "__INT_FAST8_MAX__ 127\0"
 3119      545F4641 
 3119      5354385F 
 3119      4D41585F 
 3119      5F203132 
 3120 0c37 01       		.byte	0x1
 3121 0c38 00       		.uleb128 0
 3122 0c39 5F5F494E 		.ascii "__INT_FAST16_MAX__ 32767\0"
 3122      545F4641 
 3122      53543136 
 3122      5F4D4158 
 3122      5F5F2033 
 3123 0c52 01       		.byte	0x1
 3124 0c53 00       		.uleb128 0
GAS LISTING C:\Users\PRESID~1\AppData\Local\Temp\ccaz3kGv.s 			page 81


 3125 0c54 5F5F494E 		.ascii "__INT_FAST32_MAX__ 2147483647\0"
 3125      545F4641 
 3125      53543332 
 3125      5F4D4158 
 3125      5F5F2032 
 3126 0c72 01       		.byte	0x1
 3127 0c73 00       		.uleb128 0
 3128 0c74 5F5F494E 		.ascii "__INT_FAST64_MAX__ 9223372036854775807LL\0"
 3128      545F4641 
 3128      53543634 
 3128      5F4D4158 
 3128      5F5F2039 
 3129 0c9d 01       		.byte	0x1
 3130 0c9e 00       		.uleb128 0
 3131 0c9f 5F5F5549 		.ascii "__UINT_FAST8_MAX__ 255\0"
 3131      4E545F46 
 3131      41535438 
 3131      5F4D4158 
 3131      5F5F2032 
 3132 0cb6 01       		.byte	0x1
 3133 0cb7 00       		.uleb128 0
 3134 0cb8 5F5F5549 		.ascii "__UINT_FAST16_MAX__ 65535\0"
 3134      4E545F46 
 3134      41535431 
 3134      365F4D41 
 3134      585F5F20 
 3135 0cd2 01       		.byte	0x1
 3136 0cd3 00       		.uleb128 0
 3137 0cd4 5F5F5549 		.ascii "__UINT_FAST32_MAX__ 4294967295U\0"
 3137      4E545F46 
 3137      41535433 
 3137      325F4D41 
 3137      585F5F20 
 3138 0cf4 01       		.byte	0x1
 3139 0cf5 00       		.uleb128 0
 3140 0cf6 5F5F5549 		.ascii "__UINT_FAST64_MAX__ 18446744073709551615ULL\0"
 3140      4E545F46 
 3140      41535436 
 3140      345F4D41 
 3140      585F5F20 
 3141 0d22 01       		.byte	0x1
 3142 0d23 00       		.uleb128 0
 3143 0d24 5F5F494E 		.ascii "__INTPTR_MAX__ 2147483647\0"
 3143      54505452 
 3143      5F4D4158 
 3143      5F5F2032 
 3143      31343734 
 3144 0d3e 01       		.byte	0x1
 3145 0d3f 00       		.uleb128 0
 3146 0d40 5F5F5549 		.ascii "__UINTPTR_MAX__ 4294967295U\0"
 3146      4E545054 
 3146      525F4D41 
 3146      585F5F20 
 3146      34323934 
 3147 0d5c 01       		.byte	0x1
 3148 0d5d 00       		.uleb128 0
 3149 0d5e 5F5F4743 		.ascii "__GCC_IEC_559 2\0"
GAS LISTING C:\Users\PRESID~1\AppData\Local\Temp\ccaz3kGv.s 			page 82


 3149      435F4945 
 3149      435F3535 
 3149      39203200 
 3150 0d6e 01       		.byte	0x1
 3151 0d6f 00       		.uleb128 0
 3152 0d70 5F5F4743 		.ascii "__GCC_IEC_559_COMPLEX 2\0"
 3152      435F4945 
 3152      435F3535 
 3152      395F434F 
 3152      4D504C45 
 3153 0d88 01       		.byte	0x1
 3154 0d89 00       		.uleb128 0
 3155 0d8a 5F5F464C 		.ascii "__FLT_EVAL_METHOD__ 2\0"
 3155      545F4556 
 3155      414C5F4D 
 3155      4554484F 
 3155      445F5F20 
 3156 0da0 01       		.byte	0x1
 3157 0da1 00       		.uleb128 0
 3158 0da2 5F5F4445 		.ascii "__DEC_EVAL_METHOD__ 2\0"
 3158      435F4556 
 3158      414C5F4D 
 3158      4554484F 
 3158      445F5F20 
 3159 0db8 01       		.byte	0x1
 3160 0db9 00       		.uleb128 0
 3161 0dba 5F5F464C 		.ascii "__FLT_RADIX__ 2\0"
 3161      545F5241 
 3161      4449585F 
 3161      5F203200 
 3162 0dca 01       		.byte	0x1
 3163 0dcb 00       		.uleb128 0
 3164 0dcc 5F5F464C 		.ascii "__FLT_MANT_DIG__ 24\0"
 3164      545F4D41 
 3164      4E545F44 
 3164      49475F5F 
 3164      20323400 
 3165 0de0 01       		.byte	0x1
 3166 0de1 00       		.uleb128 0
 3167 0de2 5F5F464C 		.ascii "__FLT_DIG__ 6\0"
 3167      545F4449 
 3167      475F5F20 
 3167      3600
 3168 0df0 01       		.byte	0x1
 3169 0df1 00       		.uleb128 0
 3170 0df2 5F5F464C 		.ascii "__FLT_MIN_EXP__ (-125)\0"
 3170      545F4D49 
 3170      4E5F4558 
 3170      505F5F20 
 3170      282D3132 
 3171 0e09 01       		.byte	0x1
 3172 0e0a 00       		.uleb128 0
 3173 0e0b 5F5F464C 		.ascii "__FLT_MIN_10_EXP__ (-37)\0"
 3173      545F4D49 
 3173      4E5F3130 
 3173      5F455850 
 3173      5F5F2028 
GAS LISTING C:\Users\PRESID~1\AppData\Local\Temp\ccaz3kGv.s 			page 83


 3174 0e24 01       		.byte	0x1
 3175 0e25 00       		.uleb128 0
 3176 0e26 5F5F464C 		.ascii "__FLT_MAX_EXP__ 128\0"
 3176      545F4D41 
 3176      585F4558 
 3176      505F5F20 
 3176      31323800 
 3177 0e3a 01       		.byte	0x1
 3178 0e3b 00       		.uleb128 0
 3179 0e3c 5F5F464C 		.ascii "__FLT_MAX_10_EXP__ 38\0"
 3179      545F4D41 
 3179      585F3130 
 3179      5F455850 
 3179      5F5F2033 
 3180 0e52 01       		.byte	0x1
 3181 0e53 00       		.uleb128 0
 3182 0e54 5F5F464C 		.ascii "__FLT_DECIMAL_DIG__ 9\0"
 3182      545F4445 
 3182      43494D41 
 3182      4C5F4449 
 3182      475F5F20 
 3183 0e6a 01       		.byte	0x1
 3184 0e6b 00       		.uleb128 0
 3185 0e6c 5F5F464C 		.ascii "__FLT_MAX__ 3.40282346638528859812e+38F\0"
 3185      545F4D41 
 3185      585F5F20 
 3185      332E3430 
 3185      32383233 
 3186 0e94 01       		.byte	0x1
 3187 0e95 00       		.uleb128 0
 3188 0e96 5F5F464C 		.ascii "__FLT_MIN__ 1.17549435082228750797e-38F\0"
 3188      545F4D49 
 3188      4E5F5F20 
 3188      312E3137 
 3188      35343934 
 3189 0ebe 01       		.byte	0x1
 3190 0ebf 00       		.uleb128 0
 3191 0ec0 5F5F464C 		.ascii "__FLT_EPSILON__ 1.19209289550781250000e-7F\0"
 3191      545F4550 
 3191      53494C4F 
 3191      4E5F5F20 
 3191      312E3139 
 3192 0eeb 01       		.byte	0x1
 3193 0eec 00       		.uleb128 0
 3194 0eed 5F5F464C 		.ascii "__FLT_DENORM_MIN__ 1.40129846432481707092e-45F\0"
 3194      545F4445 
 3194      4E4F524D 
 3194      5F4D494E 
 3194      5F5F2031 
 3195 0f1c 01       		.byte	0x1
 3196 0f1d 00       		.uleb128 0
 3197 0f1e 5F5F464C 		.ascii "__FLT_HAS_DENORM__ 1\0"
 3197      545F4841 
 3197      535F4445 
 3197      4E4F524D 
 3197      5F5F2031 
 3198 0f33 01       		.byte	0x1
GAS LISTING C:\Users\PRESID~1\AppData\Local\Temp\ccaz3kGv.s 			page 84


 3199 0f34 00       		.uleb128 0
 3200 0f35 5F5F464C 		.ascii "__FLT_HAS_INFINITY__ 1\0"
 3200      545F4841 
 3200      535F494E 
 3200      46494E49 
 3200      54595F5F 
 3201 0f4c 01       		.byte	0x1
 3202 0f4d 00       		.uleb128 0
 3203 0f4e 5F5F464C 		.ascii "__FLT_HAS_QUIET_NAN__ 1\0"
 3203      545F4841 
 3203      535F5155 
 3203      4945545F 
 3203      4E414E5F 
 3204 0f66 01       		.byte	0x1
 3205 0f67 00       		.uleb128 0
 3206 0f68 5F5F4442 		.ascii "__DBL_MANT_DIG__ 53\0"
 3206      4C5F4D41 
 3206      4E545F44 
 3206      49475F5F 
 3206      20353300 
 3207 0f7c 01       		.byte	0x1
 3208 0f7d 00       		.uleb128 0
 3209 0f7e 5F5F4442 		.ascii "__DBL_DIG__ 15\0"
 3209      4C5F4449 
 3209      475F5F20 
 3209      313500
 3210 0f8d 01       		.byte	0x1
 3211 0f8e 00       		.uleb128 0
 3212 0f8f 5F5F4442 		.ascii "__DBL_MIN_EXP__ (-1021)\0"
 3212      4C5F4D49 
 3212      4E5F4558 
 3212      505F5F20 
 3212      282D3130 
 3213 0fa7 01       		.byte	0x1
 3214 0fa8 00       		.uleb128 0
 3215 0fa9 5F5F4442 		.ascii "__DBL_MIN_10_EXP__ (-307)\0"
 3215      4C5F4D49 
 3215      4E5F3130 
 3215      5F455850 
 3215      5F5F2028 
 3216 0fc3 01       		.byte	0x1
 3217 0fc4 00       		.uleb128 0
 3218 0fc5 5F5F4442 		.ascii "__DBL_MAX_EXP__ 1024\0"
 3218      4C5F4D41 
 3218      585F4558 
 3218      505F5F20 
 3218      31303234 
 3219 0fda 01       		.byte	0x1
 3220 0fdb 00       		.uleb128 0
 3221 0fdc 5F5F4442 		.ascii "__DBL_MAX_10_EXP__ 308\0"
 3221      4C5F4D41 
 3221      585F3130 
 3221      5F455850 
 3221      5F5F2033 
 3222 0ff3 01       		.byte	0x1
 3223 0ff4 00       		.uleb128 0
 3224 0ff5 5F5F4442 		.ascii "__DBL_DECIMAL_DIG__ 17\0"
GAS LISTING C:\Users\PRESID~1\AppData\Local\Temp\ccaz3kGv.s 			page 85


 3224      4C5F4445 
 3224      43494D41 
 3224      4C5F4449 
 3224      475F5F20 
 3225 100c 01       		.byte	0x1
 3226 100d 00       		.uleb128 0
 3227 100e 5F5F4442 		.ascii "__DBL_MAX__ ((double)1.79769313486231570815e+308L)\0"
 3227      4C5F4D41 
 3227      585F5F20 
 3227      2828646F 
 3227      75626C65 
 3228 1041 01       		.byte	0x1
 3229 1042 00       		.uleb128 0
 3230 1043 5F5F4442 		.ascii "__DBL_MIN__ ((double)2.22507385850720138309e-308L)\0"
 3230      4C5F4D49 
 3230      4E5F5F20 
 3230      2828646F 
 3230      75626C65 
 3231 1076 01       		.byte	0x1
 3232 1077 00       		.uleb128 0
 3233 1078 5F5F4442 		.ascii "__DBL_EPSILON__ ((double)2.22044604925031308085e-16L)\0"
 3233      4C5F4550 
 3233      53494C4F 
 3233      4E5F5F20 
 3233      2828646F 
 3234 10ae 01       		.byte	0x1
 3235 10af 00       		.uleb128 0
 3236 10b0 5F5F4442 		.ascii "__DBL_DENORM_MIN__ ((double)4.94065645841246544177e-324L)\0"
 3236      4C5F4445 
 3236      4E4F524D 
 3236      5F4D494E 
 3236      5F5F2028 
 3237 10ea 01       		.byte	0x1
 3238 10eb 00       		.uleb128 0
 3239 10ec 5F5F4442 		.ascii "__DBL_HAS_DENORM__ 1\0"
 3239      4C5F4841 
 3239      535F4445 
 3239      4E4F524D 
 3239      5F5F2031 
 3240 1101 01       		.byte	0x1
 3241 1102 00       		.uleb128 0
 3242 1103 5F5F4442 		.ascii "__DBL_HAS_INFINITY__ 1\0"
 3242      4C5F4841 
 3242      535F494E 
 3242      46494E49 
 3242      54595F5F 
 3243 111a 01       		.byte	0x1
 3244 111b 00       		.uleb128 0
 3245 111c 5F5F4442 		.ascii "__DBL_HAS_QUIET_NAN__ 1\0"
 3245      4C5F4841 
 3245      535F5155 
 3245      4945545F 
 3245      4E414E5F 
 3246 1134 01       		.byte	0x1
 3247 1135 00       		.uleb128 0
 3248 1136 5F5F4C44 		.ascii "__LDBL_MANT_DIG__ 64\0"
 3248      424C5F4D 
GAS LISTING C:\Users\PRESID~1\AppData\Local\Temp\ccaz3kGv.s 			page 86


 3248      414E545F 
 3248      4449475F 
 3248      5F203634 
 3249 114b 01       		.byte	0x1
 3250 114c 00       		.uleb128 0
 3251 114d 5F5F4C44 		.ascii "__LDBL_DIG__ 18\0"
 3251      424C5F44 
 3251      49475F5F 
 3251      20313800 
 3252 115d 01       		.byte	0x1
 3253 115e 00       		.uleb128 0
 3254 115f 5F5F4C44 		.ascii "__LDBL_MIN_EXP__ (-16381)\0"
 3254      424C5F4D 
 3254      494E5F45 
 3254      58505F5F 
 3254      20282D31 
 3255 1179 01       		.byte	0x1
 3256 117a 00       		.uleb128 0
 3257 117b 5F5F4C44 		.ascii "__LDBL_MIN_10_EXP__ (-4931)\0"
 3257      424C5F4D 
 3257      494E5F31 
 3257      305F4558 
 3257      505F5F20 
 3258 1197 01       		.byte	0x1
 3259 1198 00       		.uleb128 0
 3260 1199 5F5F4C44 		.ascii "__LDBL_MAX_EXP__ 16384\0"
 3260      424C5F4D 
 3260      41585F45 
 3260      58505F5F 
 3260      20313633 
 3261 11b0 01       		.byte	0x1
 3262 11b1 00       		.uleb128 0
 3263 11b2 5F5F4C44 		.ascii "__LDBL_MAX_10_EXP__ 4932\0"
 3263      424C5F4D 
 3263      41585F31 
 3263      305F4558 
 3263      505F5F20 
 3264 11cb 01       		.byte	0x1
 3265 11cc 00       		.uleb128 0
 3266 11cd 5F5F4445 		.ascii "__DECIMAL_DIG__ 21\0"
 3266      43494D41 
 3266      4C5F4449 
 3266      475F5F20 
 3266      323100
 3267 11e0 01       		.byte	0x1
 3268 11e1 00       		.uleb128 0
 3269 11e2 5F5F4C44 		.ascii "__LDBL_MAX__ 1.18973149535723176502e+4932L\0"
 3269      424C5F4D 
 3269      41585F5F 
 3269      20312E31 
 3269      38393733 
 3270 120d 01       		.byte	0x1
 3271 120e 00       		.uleb128 0
 3272 120f 5F5F4C44 		.ascii "__LDBL_MIN__ 3.36210314311209350626e-4932L\0"
 3272      424C5F4D 
 3272      494E5F5F 
 3272      20332E33 
GAS LISTING C:\Users\PRESID~1\AppData\Local\Temp\ccaz3kGv.s 			page 87


 3272      36323130 
 3273 123a 01       		.byte	0x1
 3274 123b 00       		.uleb128 0
 3275 123c 5F5F4C44 		.ascii "__LDBL_EPSILON__ 1.08420217248550443401e-19L\0"
 3275      424C5F45 
 3275      5053494C 
 3275      4F4E5F5F 
 3275      20312E30 
 3276 1269 01       		.byte	0x1
 3277 126a 00       		.uleb128 0
 3278 126b 5F5F4C44 		.ascii "__LDBL_DENORM_MIN__ 3.64519953188247460253e-4951L\0"
 3278      424C5F44 
 3278      454E4F52 
 3278      4D5F4D49 
 3278      4E5F5F20 
 3279 129d 01       		.byte	0x1
 3280 129e 00       		.uleb128 0
 3281 129f 5F5F4C44 		.ascii "__LDBL_HAS_DENORM__ 1\0"
 3281      424C5F48 
 3281      41535F44 
 3281      454E4F52 
 3281      4D5F5F20 
 3282 12b5 01       		.byte	0x1
 3283 12b6 00       		.uleb128 0
 3284 12b7 5F5F4C44 		.ascii "__LDBL_HAS_INFINITY__ 1\0"
 3284      424C5F48 
 3284      41535F49 
 3284      4E46494E 
 3284      4954595F 
 3285 12cf 01       		.byte	0x1
 3286 12d0 00       		.uleb128 0
 3287 12d1 5F5F4C44 		.ascii "__LDBL_HAS_QUIET_NAN__ 1\0"
 3287      424C5F48 
 3287      41535F51 
 3287      55494554 
 3287      5F4E414E 
 3288 12ea 01       		.byte	0x1
 3289 12eb 00       		.uleb128 0
 3290 12ec 5F5F4445 		.ascii "__DEC32_MANT_DIG__ 7\0"
 3290      4333325F 
 3290      4D414E54 
 3290      5F444947 
 3290      5F5F2037 
 3291 1301 01       		.byte	0x1
 3292 1302 00       		.uleb128 0
 3293 1303 5F5F4445 		.ascii "__DEC32_MIN_EXP__ (-94)\0"
 3293      4333325F 
 3293      4D494E5F 
 3293      4558505F 
 3293      5F20282D 
 3294 131b 01       		.byte	0x1
 3295 131c 00       		.uleb128 0
 3296 131d 5F5F4445 		.ascii "__DEC32_MAX_EXP__ 97\0"
 3296      4333325F 
 3296      4D41585F 
 3296      4558505F 
 3296      5F203937 
GAS LISTING C:\Users\PRESID~1\AppData\Local\Temp\ccaz3kGv.s 			page 88


 3297 1332 01       		.byte	0x1
 3298 1333 00       		.uleb128 0
 3299 1334 5F5F4445 		.ascii "__DEC32_MIN__ 1E-95DF\0"
 3299      4333325F 
 3299      4D494E5F 
 3299      5F203145 
 3299      2D393544 
 3300 134a 01       		.byte	0x1
 3301 134b 00       		.uleb128 0
 3302 134c 5F5F4445 		.ascii "__DEC32_MAX__ 9.999999E96DF\0"
 3302      4333325F 
 3302      4D41585F 
 3302      5F20392E 
 3302      39393939 
 3303 1368 01       		.byte	0x1
 3304 1369 00       		.uleb128 0
 3305 136a 5F5F4445 		.ascii "__DEC32_EPSILON__ 1E-6DF\0"
 3305      4333325F 
 3305      45505349 
 3305      4C4F4E5F 
 3305      5F203145 
 3306 1383 01       		.byte	0x1
 3307 1384 00       		.uleb128 0
 3308 1385 5F5F4445 		.ascii "__DEC32_SUBNORMAL_MIN__ 0.000001E-95DF\0"
 3308      4333325F 
 3308      5355424E 
 3308      4F524D41 
 3308      4C5F4D49 
 3309 13ac 01       		.byte	0x1
 3310 13ad 00       		.uleb128 0
 3311 13ae 5F5F4445 		.ascii "__DEC64_MANT_DIG__ 16\0"
 3311      4336345F 
 3311      4D414E54 
 3311      5F444947 
 3311      5F5F2031 
 3312 13c4 01       		.byte	0x1
 3313 13c5 00       		.uleb128 0
 3314 13c6 5F5F4445 		.ascii "__DEC64_MIN_EXP__ (-382)\0"
 3314      4336345F 
 3314      4D494E5F 
 3314      4558505F 
 3314      5F20282D 
 3315 13df 01       		.byte	0x1
 3316 13e0 00       		.uleb128 0
 3317 13e1 5F5F4445 		.ascii "__DEC64_MAX_EXP__ 385\0"
 3317      4336345F 
 3317      4D41585F 
 3317      4558505F 
 3317      5F203338 
 3318 13f7 01       		.byte	0x1
 3319 13f8 00       		.uleb128 0
 3320 13f9 5F5F4445 		.ascii "__DEC64_MIN__ 1E-383DD\0"
 3320      4336345F 
 3320      4D494E5F 
 3320      5F203145 
 3320      2D333833 
 3321 1410 01       		.byte	0x1
GAS LISTING C:\Users\PRESID~1\AppData\Local\Temp\ccaz3kGv.s 			page 89


 3322 1411 00       		.uleb128 0
 3323 1412 5F5F4445 		.ascii "__DEC64_MAX__ 9.999999999999999E384DD\0"
 3323      4336345F 
 3323      4D41585F 
 3323      5F20392E 
 3323      39393939 
 3324 1438 01       		.byte	0x1
 3325 1439 00       		.uleb128 0
 3326 143a 5F5F4445 		.ascii "__DEC64_EPSILON__ 1E-15DD\0"
 3326      4336345F 
 3326      45505349 
 3326      4C4F4E5F 
 3326      5F203145 
 3327 1454 01       		.byte	0x1
 3328 1455 00       		.uleb128 0
 3329 1456 5F5F4445 		.ascii "__DEC64_SUBNORMAL_MIN__ 0.000000000000001E-383DD\0"
 3329      4336345F 
 3329      5355424E 
 3329      4F524D41 
 3329      4C5F4D49 
 3330 1487 01       		.byte	0x1
 3331 1488 00       		.uleb128 0
 3332 1489 5F5F4445 		.ascii "__DEC128_MANT_DIG__ 34\0"
 3332      43313238 
 3332      5F4D414E 
 3332      545F4449 
 3332      475F5F20 
 3333 14a0 01       		.byte	0x1
 3334 14a1 00       		.uleb128 0
 3335 14a2 5F5F4445 		.ascii "__DEC128_MIN_EXP__ (-6142)\0"
 3335      43313238 
 3335      5F4D494E 
 3335      5F455850 
 3335      5F5F2028 
 3336 14bd 01       		.byte	0x1
 3337 14be 00       		.uleb128 0
 3338 14bf 5F5F4445 		.ascii "__DEC128_MAX_EXP__ 6145\0"
 3338      43313238 
 3338      5F4D4158 
 3338      5F455850 
 3338      5F5F2036 
 3339 14d7 01       		.byte	0x1
 3340 14d8 00       		.uleb128 0
 3341 14d9 5F5F4445 		.ascii "__DEC128_MIN__ 1E-6143DL\0"
 3341      43313238 
 3341      5F4D494E 
 3341      5F5F2031 
 3341      452D3631 
 3342 14f2 01       		.byte	0x1
 3343 14f3 00       		.uleb128 0
 3344 14f4 5F5F4445 		.ascii "__DEC128_MAX__ 9.999999999999999999999999999999999E6144DL\0"
 3344      43313238 
 3344      5F4D4158 
 3344      5F5F2039 
 3344      2E393939 
 3345 152e 01       		.byte	0x1
 3346 152f 00       		.uleb128 0
GAS LISTING C:\Users\PRESID~1\AppData\Local\Temp\ccaz3kGv.s 			page 90


 3347 1530 5F5F4445 		.ascii "__DEC128_EPSILON__ 1E-33DL\0"
 3347      43313238 
 3347      5F455053 
 3347      494C4F4E 
 3347      5F5F2031 
 3348 154b 01       		.byte	0x1
 3349 154c 00       		.uleb128 0
 3350 154d 5F5F4445 		.ascii "__DEC128_SUBNORMAL_MIN__ 0.000000000000000000000000000000001E-6143DL\0"
 3350      43313238 
 3350      5F535542 
 3350      4E4F524D 
 3350      414C5F4D 
 3351 1592 01       		.byte	0x1
 3352 1593 00       		.uleb128 0
 3353 1594 5F5F5245 		.ascii "__REGISTER_PREFIX__ \0"
 3353      47495354 
 3353      45525F50 
 3353      52454649 
 3353      585F5F20 
 3354 15a9 01       		.byte	0x1
 3355 15aa 00       		.uleb128 0
 3356 15ab 5F5F5553 		.ascii "__USER_LABEL_PREFIX__ _\0"
 3356      45525F4C 
 3356      4142454C 
 3356      5F505245 
 3356      4649585F 
 3357 15c3 01       		.byte	0x1
 3358 15c4 00       		.uleb128 0
 3359 15c5 5F5F474E 		.ascii "__GNUC_GNU_INLINE__ 1\0"
 3359      55435F47 
 3359      4E555F49 
 3359      4E4C494E 
 3359      455F5F20 
 3360 15db 01       		.byte	0x1
 3361 15dc 00       		.uleb128 0
 3362 15dd 5F5F4E4F 		.ascii "__NO_INLINE__ 1\0"
 3362      5F494E4C 
 3362      494E455F 
 3362      5F203100 
 3363 15ed 01       		.byte	0x1
 3364 15ee 00       		.uleb128 0
 3365 15ef 5F5F5354 		.ascii "__STRICT_ANSI__ 1\0"
 3365      52494354 
 3365      5F414E53 
 3365      495F5F20 
 3365      3100
 3366 1601 01       		.byte	0x1
 3367 1602 00       		.uleb128 0
 3368 1603 5F5F4743 		.ascii "__GCC_ATOMIC_BOOL_LOCK_FREE 1\0"
 3368      435F4154 
 3368      4F4D4943 
 3368      5F424F4F 
 3368      4C5F4C4F 
 3369 1621 01       		.byte	0x1
 3370 1622 00       		.uleb128 0
 3371 1623 5F5F4743 		.ascii "__GCC_ATOMIC_CHAR_LOCK_FREE 1\0"
 3371      435F4154 
GAS LISTING C:\Users\PRESID~1\AppData\Local\Temp\ccaz3kGv.s 			page 91


 3371      4F4D4943 
 3371      5F434841 
 3371      525F4C4F 
 3372 1641 01       		.byte	0x1
 3373 1642 00       		.uleb128 0
 3374 1643 5F5F4743 		.ascii "__GCC_ATOMIC_CHAR16_T_LOCK_FREE 1\0"
 3374      435F4154 
 3374      4F4D4943 
 3374      5F434841 
 3374      5231365F 
 3375 1665 01       		.byte	0x1
 3376 1666 00       		.uleb128 0
 3377 1667 5F5F4743 		.ascii "__GCC_ATOMIC_CHAR32_T_LOCK_FREE 1\0"
 3377      435F4154 
 3377      4F4D4943 
 3377      5F434841 
 3377      5233325F 
 3378 1689 01       		.byte	0x1
 3379 168a 00       		.uleb128 0
 3380 168b 5F5F4743 		.ascii "__GCC_ATOMIC_WCHAR_T_LOCK_FREE 1\0"
 3380      435F4154 
 3380      4F4D4943 
 3380      5F574348 
 3380      41525F54 
 3381 16ac 01       		.byte	0x1
 3382 16ad 00       		.uleb128 0
 3383 16ae 5F5F4743 		.ascii "__GCC_ATOMIC_SHORT_LOCK_FREE 1\0"
 3383      435F4154 
 3383      4F4D4943 
 3383      5F53484F 
 3383      52545F4C 
 3384 16cd 01       		.byte	0x1
 3385 16ce 00       		.uleb128 0
 3386 16cf 5F5F4743 		.ascii "__GCC_ATOMIC_INT_LOCK_FREE 1\0"
 3386      435F4154 
 3386      4F4D4943 
 3386      5F494E54 
 3386      5F4C4F43 
 3387 16ec 01       		.byte	0x1
 3388 16ed 00       		.uleb128 0
 3389 16ee 5F5F4743 		.ascii "__GCC_ATOMIC_LONG_LOCK_FREE 1\0"
 3389      435F4154 
 3389      4F4D4943 
 3389      5F4C4F4E 
 3389      475F4C4F 
 3390 170c 01       		.byte	0x1
 3391 170d 00       		.uleb128 0
 3392 170e 5F5F4743 		.ascii "__GCC_ATOMIC_LLONG_LOCK_FREE 1\0"
 3392      435F4154 
 3392      4F4D4943 
 3392      5F4C4C4F 
 3392      4E475F4C 
 3393 172d 01       		.byte	0x1
 3394 172e 00       		.uleb128 0
 3395 172f 5F5F4743 		.ascii "__GCC_ATOMIC_TEST_AND_SET_TRUEVAL 1\0"
 3395      435F4154 
 3395      4F4D4943 
GAS LISTING C:\Users\PRESID~1\AppData\Local\Temp\ccaz3kGv.s 			page 92


 3395      5F544553 
 3395      545F414E 
 3396 1753 01       		.byte	0x1
 3397 1754 00       		.uleb128 0
 3398 1755 5F5F4743 		.ascii "__GCC_ATOMIC_POINTER_LOCK_FREE 1\0"
 3398      435F4154 
 3398      4F4D4943 
 3398      5F504F49 
 3398      4E544552 
 3399 1776 01       		.byte	0x1
 3400 1777 00       		.uleb128 0
 3401 1778 5F5F4743 		.ascii "__GCC_HAVE_DWARF2_CFI_ASM 1\0"
 3401      435F4841 
 3401      56455F44 
 3401      57415246 
 3401      325F4346 
 3402 1794 01       		.byte	0x1
 3403 1795 00       		.uleb128 0
 3404 1796 5F5F5052 		.ascii "__PRAGMA_REDEFINE_EXTNAME 1\0"
 3404      41474D41 
 3404      5F524544 
 3404      4546494E 
 3404      455F4558 
 3405 17b2 01       		.byte	0x1
 3406 17b3 00       		.uleb128 0
 3407 17b4 5F5F5349 		.ascii "__SIZEOF_WCHAR_T__ 2\0"
 3407      5A454F46 
 3407      5F574348 
 3407      41525F54 
 3407      5F5F2032 
 3408 17c9 01       		.byte	0x1
 3409 17ca 00       		.uleb128 0
 3410 17cb 5F5F5349 		.ascii "__SIZEOF_WINT_T__ 2\0"
 3410      5A454F46 
 3410      5F57494E 
 3410      545F545F 
 3410      5F203200 
 3411 17df 01       		.byte	0x1
 3412 17e0 00       		.uleb128 0
 3413 17e1 5F5F5349 		.ascii "__SIZEOF_PTRDIFF_T__ 4\0"
 3413      5A454F46 
 3413      5F505452 
 3413      44494646 
 3413      5F545F5F 
 3414 17f8 01       		.byte	0x1
 3415 17f9 00       		.uleb128 0
 3416 17fa 5F5F6933 		.ascii "__i386 1\0"
 3416      38362031 
 3416      00
 3417 1803 01       		.byte	0x1
 3418 1804 00       		.uleb128 0
 3419 1805 5F5F6933 		.ascii "__i386__ 1\0"
 3419      38365F5F 
 3419      203100
 3420 1810 01       		.byte	0x1
 3421 1811 00       		.uleb128 0
 3422 1812 5F5F4154 		.ascii "__ATOMIC_HLE_ACQUIRE 65536\0"
GAS LISTING C:\Users\PRESID~1\AppData\Local\Temp\ccaz3kGv.s 			page 93


 3422      4F4D4943 
 3422      5F484C45 
 3422      5F414351 
 3422      55495245 
 3423 182d 01       		.byte	0x1
 3424 182e 00       		.uleb128 0
 3425 182f 5F5F4154 		.ascii "__ATOMIC_HLE_RELEASE 131072\0"
 3425      4F4D4943 
 3425      5F484C45 
 3425      5F52454C 
 3425      45415345 
 3426 184b 01       		.byte	0x1
 3427 184c 00       		.uleb128 0
 3428 184d 5F5F7475 		.ascii "__tune_i386__ 1\0"
 3428      6E655F69 
 3428      3338365F 
 3428      5F203100 
 3429 185d 01       		.byte	0x1
 3430 185e 00       		.uleb128 0
 3431 185f 5F5F636F 		.ascii "__code_model_32__ 1\0"
 3431      64655F6D 
 3431      6F64656C 
 3431      5F33325F 
 3431      5F203100 
 3432 1873 01       		.byte	0x1
 3433 1874 00       		.uleb128 0
 3434 1875 5F583836 		.ascii "_X86_ 1\0"
 3434      5F203100 
 3435 187d 01       		.byte	0x1
 3436 187e 00       		.uleb128 0
 3437 187f 5F5F7374 		.ascii "__stdcall __attribute__((__stdcall__))\0"
 3437      6463616C 
 3437      6C205F5F 
 3437      61747472 
 3437      69627574 
 3438 18a6 01       		.byte	0x1
 3439 18a7 00       		.uleb128 0
 3440 18a8 5F5F6661 		.ascii "__fastcall __attribute__((__fastcall__))\0"
 3440      73746361 
 3440      6C6C205F 
 3440      5F617474 
 3440      72696275 
 3441 18d1 01       		.byte	0x1
 3442 18d2 00       		.uleb128 0
 3443 18d3 5F5F7468 		.ascii "__thiscall __attribute__((__thiscall__))\0"
 3443      69736361 
 3443      6C6C205F 
 3443      5F617474 
 3443      72696275 
 3444 18fc 01       		.byte	0x1
 3445 18fd 00       		.uleb128 0
 3446 18fe 5F5F6364 		.ascii "__cdecl __attribute__((__cdecl__))\0"
 3446      65636C20 
 3446      5F5F6174 
 3446      74726962 
 3446      7574655F 
 3447 1921 01       		.byte	0x1
GAS LISTING C:\Users\PRESID~1\AppData\Local\Temp\ccaz3kGv.s 			page 94


 3448 1922 00       		.uleb128 0
 3449 1923 5F5F4758 		.ascii "__GXX_MERGED_TYPEINFO_NAMES 0\0"
 3449      585F4D45 
 3449      52474544 
 3449      5F545950 
 3449      45494E46 
 3450 1941 01       		.byte	0x1
 3451 1942 00       		.uleb128 0
 3452 1943 5F5F4758 		.ascii "__GXX_TYPEINFO_EQUALITY_INLINE 0\0"
 3452      585F5459 
 3452      5045494E 
 3452      464F5F45 
 3452      5155414C 
 3453 1964 01       		.byte	0x1
 3454 1965 00       		.uleb128 0
 3455 1966 5F5F4D53 		.ascii "__MSVCRT__ 1\0"
 3455      56435254 
 3455      5F5F2031 
 3455      00
 3456 1973 01       		.byte	0x1
 3457 1974 00       		.uleb128 0
 3458 1975 5F5F4D49 		.ascii "__MINGW32__ 1\0"
 3458      4E475733 
 3458      325F5F20 
 3458      3100
 3459 1983 01       		.byte	0x1
 3460 1984 00       		.uleb128 0
 3461 1985 5F57494E 		.ascii "_WIN32 1\0"
 3461      33322031 
 3461      00
 3462 198e 01       		.byte	0x1
 3463 198f 00       		.uleb128 0
 3464 1990 5F5F5749 		.ascii "__WIN32 1\0"
 3464      4E333220 
 3464      3100
 3465 199a 01       		.byte	0x1
 3466 199b 00       		.uleb128 0
 3467 199c 5F5F5749 		.ascii "__WIN32__ 1\0"
 3467      4E33325F 
 3467      5F203100 
 3468 19a8 01       		.byte	0x1
 3469 19a9 00       		.uleb128 0
 3470 19aa 5F5F5749 		.ascii "__WINNT 1\0"
 3470      4E4E5420 
 3470      3100
 3471 19b4 01       		.byte	0x1
 3472 19b5 00       		.uleb128 0
 3473 19b6 5F5F5749 		.ascii "__WINNT__ 1\0"
 3473      4E4E545F 
 3473      5F203100 
 3474 19c2 01       		.byte	0x1
 3475 19c3 00       		.uleb128 0
 3476 19c4 5F494E54 		.ascii "_INTEGRAL_MAX_BITS 64\0"
 3476      45475241 
 3476      4C5F4D41 
 3476      585F4249 
 3476      54532036 
GAS LISTING C:\Users\PRESID~1\AppData\Local\Temp\ccaz3kGv.s 			page 95


 3477 19da 01       		.byte	0x1
 3478 19db 00       		.uleb128 0
 3479 19dc 5F5F6465 		.ascii "__declspec(x) __attribute__((x))\0"
 3479      636C7370 
 3479      65632878 
 3479      29205F5F 
 3479      61747472 
 3480 19fd 01       		.byte	0x1
 3481 19fe 00       		.uleb128 0
 3482 19ff 5F5F4445 		.ascii "__DECIMAL_BID_FORMAT__ 1\0"
 3482      43494D41 
 3482      4C5F4249 
 3482      445F464F 
 3482      524D4154 
 3483 1a18 01       		.byte	0x1
 3484 1a19 00       		.uleb128 0
 3485 1a1a 4346475F 		.ascii "CFG_PROCESSOR 3\0"
 3485      50524F43 
 3485      4553534F 
 3485      52203300 
 3486 1a2a 03       		.byte	0x3
 3487 1a2b 00       		.uleb128 0
 3488 1a2c 01       		.uleb128 0x1
 3489              		.file 7 "E:/NeuOrga/Programmieren/c_cpp/github_os/input/src/os_base/os_firstinc.h"
 3490 1a2d 03       		.byte	0x3
 3491 1a2e 01       		.uleb128 0x1
 3492 1a2f 07       		.uleb128 0x7
 3493 1a30 01       		.byte	0x1
 3494 1a31 02       		.uleb128 0x2
 3495 1a32 5F6F735F 		.ascii "_os_firstinc_h_ \0"
 3495      66697273 
 3495      74696E63 
 3495      5F685F20 
 3495      00
 3496 1a43 03       		.byte	0x3
 3497 1a44 04       		.uleb128 0x4
 3498 1a45 02       		.uleb128 0x2
 3499 1a46 01       		.byte	0x1
 3500 1a47 02       		.uleb128 0x2
 3501 1a48 5F424153 		.ascii "_BASE_TYPES_H_ \0"
 3501      455F5459 
 3501      5045535F 
 3501      485F2000 
 3502 1a58 01       		.byte	0x1
 3503 1a59 04       		.uleb128 0x4
 3504 1a5a 494E5445 		.ascii "INTEGER_LLP64_IL32P64 1\0"
 3504      4745525F 
 3504      4C4C5036 
 3504      345F494C 
 3504      33325036 
 3505 1a72 01       		.byte	0x1
 3506 1a73 05       		.uleb128 0x5
 3507 1a74 494E5445 		.ascii "INTEGER_LP64_I32LP64 2\0"
 3507      4745525F 
 3507      4C503634 
 3507      5F493332 
 3507      4C503634 
GAS LISTING C:\Users\PRESID~1\AppData\Local\Temp\ccaz3kGv.s 			page 96


 3508 1a8b 01       		.byte	0x1
 3509 1a8c 06       		.uleb128 0x6
 3510 1a8d 494E5445 		.ascii "INTEGER_ILP64 3\0"
 3510      4745525F 
 3510      494C5036 
 3510      34203300 
 3511 1a9d 01       		.byte	0x1
 3512 1a9e 07       		.uleb128 0x7
 3513 1a9f 494E5445 		.ascii "INTEGER_SILP64 4\0"
 3513      4745525F 
 3513      53494C50 
 3513      36342034 
 3513      00
 3514 1ab0 01       		.byte	0x1
 3515 1ab1 09       		.uleb128 0x9
 3516 1ab2 4350505F 		.ascii "CPP_VERSION_NONE 0\0"
 3516      56455253 
 3516      494F4E5F 
 3516      4E4F4E45 
 3516      203000
 3517 1ac5 01       		.byte	0x1
 3518 1ac6 0A       		.uleb128 0xa
 3519 1ac7 4350505F 		.ascii "CPP_VERSION_1998 1\0"
 3519      56455253 
 3519      494F4E5F 
 3519      31393938 
 3519      203100
 3520 1ada 01       		.byte	0x1
 3521 1adb 0B       		.uleb128 0xb
 3522 1adc 4350505F 		.ascii "CPP_VERSION_2003 2\0"
 3522      56455253 
 3522      494F4E5F 
 3522      32303033 
 3522      203200
 3523 1aef 01       		.byte	0x1
 3524 1af0 0C       		.uleb128 0xc
 3525 1af1 4350505F 		.ascii "CPP_VERSION_2007 3\0"
 3525      56455253 
 3525      494F4E5F 
 3525      32303037 
 3525      203300
 3526 1b04 01       		.byte	0x1
 3527 1b05 0D       		.uleb128 0xd
 3528 1b06 4350505F 		.ascii "CPP_VERSION_2011 4\0"
 3528      56455253 
 3528      494F4E5F 
 3528      32303131 
 3528      203400
 3529 1b19 01       		.byte	0x1
 3530 1b1a 0E       		.uleb128 0xe
 3531 1b1b 49534F5F 		.ascii "ISO_CPP_VERSION CPP_VERSION_1998\0"
 3531      4350505F 
 3531      56455253 
 3531      494F4E20 
 3531      4350505F 
 3532 1b3c 01       		.byte	0x1
 3533 1b3d 10       		.uleb128 0x10
GAS LISTING C:\Users\PRESID~1\AppData\Local\Temp\ccaz3kGv.s 			page 97


 3534 1b3e 494E5445 		.ascii "INTEGER_MODEL INTEGER_LLP64_IL32P64\0"
 3534      4745525F 
 3534      4D4F4445 
 3534      4C20494E 
 3534      54454745 
 3535 1b62 04       		.byte	0x4
 3536 1b63 03       		.byte	0x3
 3537 1b64 05       		.uleb128 0x5
 3538 1b65 03       		.uleb128 0x3
 3539 1b66 01       		.byte	0x1
 3540 1b67 02       		.uleb128 0x2
 3541 1b68 5F6F735F 		.ascii "_os_common_h_ \0"
 3541      636F6D6D 
 3541      6F6E5F68 
 3541      5F2000
 3542 1b77 01       		.byte	0x1
 3543 1b78 06       		.uleb128 0x6
 3544 1b79 46616C73 		.ascii "False 0\0"
 3544      65203000 
 3545 1b81 01       		.byte	0x1
 3546 1b82 07       		.uleb128 0x7
 3547 1b83 54727565 		.ascii "True 1\0"
 3547      203100
 3548 1b8a 01       		.byte	0x1
 3549 1b8b 08       		.uleb128 0x8
 3550 1b8c 46414C53 		.ascii "FALSE False\0"
 3550      45204661 
 3550      6C736500 
 3551 1b98 01       		.byte	0x1
 3552 1b99 09       		.uleb128 0x9
 3553 1b9a 54525545 		.ascii "TRUE True\0"
 3553      20547275 
 3553      6500
 3554 1ba4 01       		.byte	0x1
 3555 1ba5 0A       		.uleb128 0xa
 3556 1ba6 41636365 		.ascii "Accepted 1\0"
 3556      70746564 
 3556      203100
 3557 1bb1 01       		.byte	0x1
 3558 1bb2 0B       		.uleb128 0xb
 3559 1bb3 52656A65 		.ascii "Rejected 0\0"
 3559      63746564 
 3559      203000
 3560 1bbe 01       		.byte	0x1
 3561 1bbf 0C       		.uleb128 0xc
 3562 1bc0 4C6F6361 		.ascii "Local static\0"
 3562      6C207374 
 3562      61746963 
 3562      00
 3563 1bcd 01       		.byte	0x1
 3564 1bce 0D       		.uleb128 0xd
 3565 1bcf 4C6F6361 		.ascii "Local_inline static __inline__\0"
 3565      6C5F696E 
 3565      6C696E65 
 3565      20737461 
 3565      74696320 
 3566 1bee 01       		.byte	0x1
GAS LISTING C:\Users\PRESID~1\AppData\Local\Temp\ccaz3kGv.s 			page 98


 3567 1bef 0E       		.uleb128 0xe
 3568 1bf0 476C6F62 		.ascii "Global_inline __inline__\0"
 3568      616C5F69 
 3568      6E6C696E 
 3568      65205F5F 
 3568      696E6C69 
 3569 1c09 01       		.byte	0x1
 3570 1c0a 0F       		.uleb128 0xf
 3571 1c0b 52656665 		.ascii "ReferenceUnusedParameter(x) ((x) = (x))\0"
 3571      72656E63 
 3571      65556E75 
 3571      73656450 
 3571      6172616D 
 3572 1c33 01       		.byte	0x1
 3573 1c34 10       		.uleb128 0x10
 3574 1c35 44796E61 		.ascii "DynamicMemoryUsed False\0"
 3574      6D69634D 
 3574      656D6F72 
 3574      79557365 
 3574      64204661 
 3575 1c4d 01       		.byte	0x1
 3576 1c4e 13       		.uleb128 0x13
 3577 1c4f 634D4355 		.ascii "cMCU_X86 3\0"
 3577      5F583836 
 3577      203300
 3578 1c5a 01       		.byte	0x1
 3579 1c5b 14       		.uleb128 0x14
 3580 1c5c 634D4355 		.ascii "cMCU_CORTEX_M4 4\0"
 3580      5F434F52 
 3580      5445585F 
 3580      4D342034 
 3580      00
 3581 1c6d 01       		.byte	0x1
 3582 1c6e 17       		.uleb128 0x17
 3583 1c6f 4E525F4F 		.ascii "NR_OF_CORES 1\0"
 3583      465F434F 
 3583      52455320 
 3583      3100
 3584 1c7d 01       		.byte	0x1
 3585 1c7e 19       		.uleb128 0x19
 3586 1c7f 4D43555F 		.ascii "MCU_CLOCK_IN_HZ ((uint32)168000000u)\0"
 3586      434C4F43 
 3586      4B5F494E 
 3586      5F485A20 
 3586      28287569 
 3587 1ca4 01       		.byte	0x1
 3588 1ca5 1D       		.uleb128 0x1d
 3589 1ca6 44697361 		.ascii "DisableInterrupts() \0"
 3589      626C6549 
 3589      6E746572 
 3589      72757074 
 3589      73282920 
 3590 1cbb 01       		.byte	0x1
 3591 1cbc 1E       		.uleb128 0x1e
 3592 1cbd 456E6162 		.ascii "EnableInterrupts() \0"
 3592      6C65496E 
 3592      74657272 
GAS LISTING C:\Users\PRESID~1\AppData\Local\Temp\ccaz3kGv.s 			page 99


 3592      75707473 
 3592      28292000 
 3593 1cd1 01       		.byte	0x1
 3594 1cd2 1F       		.uleb128 0x1f
 3595 1cd3 50726976 		.ascii "Privilige_level_save_current() \0"
 3595      696C6967 
 3595      655F6C65 
 3595      76656C5F 
 3595      73617665 
 3596 1cf3 01       		.byte	0x1
 3597 1cf4 20       		.uleb128 0x20
 3598 1cf5 50726976 		.ascii "Privilige_level_enter_kernel_mode() \0"
 3598      696C6967 
 3598      655F6C65 
 3598      76656C5F 
 3598      656E7465 
 3599 1d1a 01       		.byte	0x1
 3600 1d1b 21       		.uleb128 0x21
 3601 1d1c 50726976 		.ascii "Privilige_level_restore_saved() \0"
 3601      696C6967 
 3601      655F6C65 
 3601      76656C5F 
 3601      72657374 
 3602 1d3d 01       		.byte	0x1
 3603 1d3e 22       		.uleb128 0x22
 3604 1d3f 48616C74 		.ascii "HaltMcu() \0"
 3604      4D637528 
 3604      292000
 3605 1d4a 01       		.byte	0x1
 3606 1d4b 58       		.uleb128 0x58
 3607 1d4c 42696749 		.ascii "BigIntSize 16\0"
 3607      6E745369 
 3607      7A652031 
 3607      3600
 3608 1d5a 04       		.byte	0x4
 3609              		.file 8 "E:/NeuOrga/Programmieren/c_cpp/github_os/input/src/os_base/../os_sim/lld_global.h"
 3610 1d5b 03       		.byte	0x3
 3611 1d5c 08       		.uleb128 0x8
 3612 1d5d 08       		.uleb128 0x8
 3613 1d5e 01       		.byte	0x1
 3614 1d5f 02       		.uleb128 0x2
 3615 1d60 5F6C6C64 		.ascii "_lld_global_h_ \0"
 3615      5F676C6F 
 3615      62616C5F 
 3615      685F2000 
 3616 1d70 03       		.byte	0x3
 3617 1d71 04       		.uleb128 0x4
 3618 1d72 04       		.uleb128 0x4
 3619 1d73 01       		.byte	0x1
 3620 1d74 02       		.uleb128 0x2
 3621 1d75 5F6C6C64 		.ascii "_lld_core_h_ \0"
 3621      5F636F72 
 3621      655F685F 
 3621      2000
 3622              		.file 9 "E:/NeuOrga/Programmieren/c_cpp/github_os/input/src/os_base/../os_sim/../os_base/os_firsti
 3623 1d83 03       		.byte	0x3
 3624 1d84 03       		.uleb128 0x3
GAS LISTING C:\Users\PRESID~1\AppData\Local\Temp\ccaz3kGv.s 			page 100


 3625 1d85 09       		.uleb128 0x9
 3626 1d86 04       		.byte	0x4
 3627 1d87 04       		.byte	0x4
 3628              		.file 10 "E:/NeuOrga/Programmieren/c_cpp/github_os/input/src/os_base/../os_sim/lld_interrupt.h"
 3629 1d88 03       		.byte	0x3
 3630 1d89 05       		.uleb128 0x5
 3631 1d8a 0A       		.uleb128 0xa
 3632 1d8b 01       		.byte	0x1
 3633 1d8c 02       		.uleb128 0x2
 3634 1d8d 5F6C6C64 		.ascii "_lld_interrupt_h_ \0"
 3634      5F696E74 
 3634      65727275 
 3634      70745F68 
 3634      5F2000
 3635 1da0 01       		.byte	0x1
 3636 1da1 05       		.uleb128 0x5
 3637 1da2 6F735F69 		.ascii "os_interrupt_swi_1 asm(\"swi 1\")\0"
 3637      6E746572 
 3637      72757074 
 3637      5F737769 
 3637      5F312061 
 3638 1dc2 01       		.byte	0x1
 3639 1dc3 06       		.uleb128 0x6
 3640 1dc4 6F735F69 		.ascii "os_interrupt_swi_2 asm(\"swi 2\")\0"
 3640      6E746572 
 3640      72757074 
 3640      5F737769 
 3640      5F322061 
 3641 1de4 01       		.byte	0x1
 3642 1de5 07       		.uleb128 0x7
 3643 1de6 6F735F69 		.ascii "os_interrupt_swi_3 asm(\"swi 3\")\0"
 3643      6E746572 
 3643      72757074 
 3643      5F737769 
 3643      5F332061 
 3644 1e06 01       		.byte	0x1
 3645 1e07 08       		.uleb128 0x8
 3646 1e08 6F735F69 		.ascii "os_interrupt_swi_4 asm(\"swi 4\")\0"
 3646      6E746572 
 3646      72757074 
 3646      5F737769 
 3646      5F342061 
 3647 1e28 01       		.byte	0x1
 3648 1e29 09       		.uleb128 0x9
 3649 1e2a 6F735F69 		.ascii "os_interrupt_swi_5 asm(\"swi 5\")\0"
 3649      6E746572 
 3649      72757074 
 3649      5F737769 
 3649      5F352061 
 3650 1e4a 04       		.byte	0x4
 3651              		.file 11 "E:/NeuOrga/Programmieren/c_cpp/github_os/input/src/os_base/../os_sim/lld_mmu.h"
 3652 1e4b 03       		.byte	0x3
 3653 1e4c 06       		.uleb128 0x6
 3654 1e4d 0B       		.uleb128 0xb
 3655 1e4e 01       		.byte	0x1
 3656 1e4f 02       		.uleb128 0x2
 3657 1e50 5F6C6C64 		.ascii "_lld_mmu_h_ \0"
GAS LISTING C:\Users\PRESID~1\AppData\Local\Temp\ccaz3kGv.s 			page 101


 3657      5F6D6D75 
 3657      5F685F20 
 3657      00
 3658 1e5d 04       		.byte	0x4
 3659              		.file 12 "E:/NeuOrga/Programmieren/c_cpp/github_os/input/src/os_base/../os_sim/lld_timer.h"
 3660 1e5e 03       		.byte	0x3
 3661 1e5f 07       		.uleb128 0x7
 3662 1e60 0C       		.uleb128 0xc
 3663 1e61 01       		.byte	0x1
 3664 1e62 02       		.uleb128 0x2
 3665 1e63 5F6C6C64 		.ascii "_lld_timer_h_ \0"
 3665      5F74696D 
 3665      65725F68 
 3665      5F2000
 3666 1e72 04       		.byte	0x4
 3667              		.file 13 "E:/NeuOrga/Programmieren/c_cpp/github_os/input/src/os_base/../os_sim/lld_power.h"
 3668 1e73 03       		.byte	0x3
 3669 1e74 08       		.uleb128 0x8
 3670 1e75 0D       		.uleb128 0xd
 3671 1e76 01       		.byte	0x1
 3672 1e77 02       		.uleb128 0x2
 3673 1e78 5F6C6C64 		.ascii "_lld_power_h_ \0"
 3673      5F706F77 
 3673      65725F68 
 3673      5F2000
 3674 1e87 04       		.byte	0x4
 3675              		.file 14 "E:/NeuOrga/Programmieren/c_cpp/github_os/input/src/os_base/../os_sim/lld_ram.h"
 3676 1e88 03       		.byte	0x3
 3677 1e89 09       		.uleb128 0x9
 3678 1e8a 0E       		.uleb128 0xe
 3679 1e8b 01       		.byte	0x1
 3680 1e8c 02       		.uleb128 0x2
 3681 1e8d 5F6C6C64 		.ascii "_lld_ram_h_ \0"
 3681      5F72616D 
 3681      5F685F20 
 3681      00
 3682 1e9a 04       		.byte	0x4
 3683 1e9b 03       		.byte	0x3
 3684 1e9c 0A       		.uleb128 0xa
 3685 1e9d 05       		.uleb128 0x5
 3686 1e9e 01       		.byte	0x1
 3687 1e9f 02       		.uleb128 0x2
 3688 1ea0 5F6F735F 		.ascii "_os_task_common_h_ \0"
 3688      7461736B 
 3688      5F636F6D 
 3688      6D6F6E5F 
 3688      685F2000 
 3689 1eb4 03       		.byte	0x3
 3690 1eb5 03       		.uleb128 0x3
 3691 1eb6 09       		.uleb128 0x9
 3692 1eb7 04       		.byte	0x4
 3693              		.file 15 "E:/NeuOrga/Programmieren/c_cpp/github_os/input/src/os_base/../os_sim/../os_base/os_task_
 3694 1eb8 03       		.byte	0x3
 3695 1eb9 04       		.uleb128 0x4
 3696 1eba 0F       		.uleb128 0xf
 3697 1ebb 01       		.byte	0x1
 3698 1ebc 02       		.uleb128 0x2
GAS LISTING C:\Users\PRESID~1\AppData\Local\Temp\ccaz3kGv.s 			page 102


 3699 1ebd 5F6F735F 		.ascii "_os_task_config_h_ \0"
 3699      7461736B 
 3699      5F636F6E 
 3699      6669675F 
 3699      685F2000 
 3700 1ed1 01       		.byte	0x1
 3701 1ed2 05       		.uleb128 0x5
 3702 1ed3 53636865 		.ascii "SchedulerFrequency (1.0e3)\0"
 3702      64756C65 
 3702      72467265 
 3702      7175656E 
 3702      63792028 
 3703 1eee 01       		.byte	0x1
 3704 1eef 06       		.uleb128 0x6
 3705 1ef0 4D696E54 		.ascii "MinTimeSlice_s (1.0/SchedulerFrequency)\0"
 3705      696D6553 
 3705      6C696365 
 3705      5F732028 
 3705      312E302F 
 3706 1f18 01       		.byte	0x1
 3707 1f19 07       		.uleb128 0x7
 3708 1f1a 4D696E54 		.ascii "MinTimeSlice_us ((1.0/SchedulerFrequency)*1e6)\0"
 3708      696D6553 
 3708      6C696365 
 3708      5F757320 
 3708      2828312E 
 3709 1f49 01       		.byte	0x1
 3710 1f4a 08       		.uleb128 0x8
 3711 1f4b 5461736B 		.ascii "Task_min_time (1e0)\0"
 3711      5F6D696E 
 3711      5F74696D 
 3711      65202831 
 3711      65302900 
 3712 1f5f 01       		.byte	0x1
 3713 1f60 09       		.uleb128 0x9
 3714 1f61 4E554D42 		.ascii "NUMBER_OF_TASKS 10\0"
 3714      45525F4F 
 3714      465F5441 
 3714      534B5320 
 3714      313000
 3715 1f74 01       		.byte	0x1
 3716 1f75 0A       		.uleb128 0xa
 3717 1f76 4D41585F 		.ascii "MAX_RUN_QUEUE_SIZE (NUMBER_OF_TASKS)\0"
 3717      52554E5F 
 3717      51554555 
 3717      455F5349 
 3717      5A452028 
 3718 1f9b 01       		.byte	0x1
 3719 1f9c 0B       		.uleb128 0xb
 3720 1f9d 4D41585F 		.ascii "MAX_RUN_PQUEUE_SIZE MAX_RUN_QUEUE_SIZE\0"
 3720      52554E5F 
 3720      50515545 
 3720      55455F53 
 3720      495A4520 
 3721 1fc4 01       		.byte	0x1
 3722 1fc5 0D       		.uleb128 0xd
 3723 1fc6 5441534B 		.ascii "TASK_STACK_SIZE 2000\0"
GAS LISTING C:\Users\PRESID~1\AppData\Local\Temp\ccaz3kGv.s 			page 103


 3723      5F535441 
 3723      434B5F53 
 3723      495A4520 
 3723      32303030 
 3724 1fdb 01       		.byte	0x1
 3725 1fdc 10       		.uleb128 0x10
 3726 1fdd 4D535F50 		.ascii "MS_PER_SEC (1000)\0"
 3726      45525F53 
 3726      45432028 
 3726      31303030 
 3726      2900
 3727 1fef 01       		.byte	0x1
 3728 1ff0 11       		.uleb128 0x11
 3729 1ff1 5553455F 		.ascii "USE_STATIC_CREATED_TASKS True\0"
 3729      53544154 
 3729      49435F43 
 3729      52454154 
 3729      45445F54 
 3730 200f 04       		.byte	0x4
 3731              		.file 16 "E:/NeuOrga/Programmieren/c_cpp/github_os/input/src/os_base/../os_sim/../os_base/os_init_
 3732 2010 03       		.byte	0x3
 3733 2011 05       		.uleb128 0x5
 3734 2012 10       		.uleb128 0x10
 3735 2013 01       		.byte	0x1
 3736 2014 02       		.uleb128 0x2
 3737 2015 5F6F735F 		.ascii "_os_init_task_system_h_ \0"
 3737      696E6974 
 3737      5F746173 
 3737      6B5F7379 
 3737      7374656D 
 3738 202e 04       		.byte	0x4
 3739 202f 01       		.byte	0x1
 3740 2030 61       		.uleb128 0x61
 3741 2031 6F735F53 		.ascii "os_SaveTaskPtr(task_ptr,task_name) (TASK_PTR[(task_name)] = (task_ptr))\0"
 3741      61766554 
 3741      61736B50 
 3741      74722874 
 3741      61736B5F 
 3742 2079 01       		.byte	0x1
 3743 207a 62       		.uleb128 0x62
 3744 207b 6F735F47 		.ascii "os_GetTaskPtr(task_name) ((task_t*) TASK_PTR[(task_name)])\0"
 3744      65745461 
 3744      736B5074 
 3744      72287461 
 3744      736B5F6E 
 3745 20b6 04       		.byte	0x4
 3746 20b7 04       		.byte	0x4
 3747              		.file 17 "E:/NeuOrga/Programmieren/c_cpp/github_os/input/src/os_base/../os_user_code/led.h"
 3748 20b8 03       		.byte	0x3
 3749 20b9 0C       		.uleb128 0xc
 3750 20ba 11       		.uleb128 0x11
 3751 20bb 01       		.byte	0x1
 3752 20bc 02       		.uleb128 0x2
 3753 20bd 5F4C4544 		.ascii "_LED_H_ \0"
 3753      5F485F20 
 3753      00
 3754 20c6 04       		.byte	0x4
GAS LISTING C:\Users\PRESID~1\AppData\Local\Temp\ccaz3kGv.s 			page 104


 3755 20c7 03       		.byte	0x3
 3756 20c8 0E       		.uleb128 0xe
 3757 20c9 06       		.uleb128 0x6
 3758 20ca 01       		.byte	0x1
 3759 20cb 02       		.uleb128 0x2
 3760 20cc 5F4F535F 		.ascii "_OS_RAM_H_ \0"
 3760      52414D5F 
 3760      485F2000 
 3761              		.file 18 "E:/NeuOrga/Programmieren/c_cpp/github_os/input/src/os_base/../os_base/os_firstinc.h"
 3762 20d8 03       		.byte	0x3
 3763 20d9 04       		.uleb128 0x4
 3764 20da 12       		.uleb128 0x12
 3765 20db 04       		.byte	0x4
 3766              		.file 19 "E:/NeuOrga/Programmieren/c_cpp/github_os/input/src/os_base/../os_base/os_stack.h"
 3767 20dc 03       		.byte	0x3
 3768 20dd 05       		.uleb128 0x5
 3769 20de 13       		.uleb128 0x13
 3770 20df 01       		.byte	0x1
 3771 20e0 02       		.uleb128 0x2
 3772 20e1 5F6F735F 		.ascii "_os_stack_h_ \0"
 3772      73746163 
 3772      6B5F685F 
 3772      2000
 3773 20ef 01       		.byte	0x1
 3774 20f0 04       		.uleb128 0x4
 3775 20f1 4F535F53 		.ascii "OS_STACK_SIZE 0x5000u\0"
 3775      5441434B 
 3775      5F53495A 
 3775      45203078 
 3775      35303030 
 3776 2107 04       		.byte	0x4
 3777              		.file 20 "E:/NeuOrga/Programmieren/c_cpp/github_os/input/src/os_base/../os_base/os_heap.h"
 3778 2108 03       		.byte	0x3
 3779 2109 06       		.uleb128 0x6
 3780 210a 14       		.uleb128 0x14
 3781 210b 01       		.byte	0x1
 3782 210c 02       		.uleb128 0x2
 3783 210d 5F6F735F 		.ascii "_os_heap_h_ \0"
 3783      68656170 
 3783      5F685F20 
 3783      00
 3784 211a 01       		.byte	0x1
 3785 211b 05       		.uleb128 0x5
 3786 211c 48454150 		.ascii "HEAP_SIZE 10000\0"
 3786      5F53495A 
 3786      45203130 
 3786      30303000 
 3787 212c 01       		.byte	0x1
 3788 212d 06       		.uleb128 0x6
 3789 212e 4D494E5F 		.ascii "MIN_BLOCK_SIZE_HEAP 8\0"
 3789      424C4F43 
 3789      4B5F5349 
 3789      5A455F48 
 3789      45415020 
 3790 2144 01       		.byte	0x1
 3791 2145 09       		.uleb128 0x9
 3792 2146 48454150 		.ascii "HEAP_OFFSET_FOR_SIZE 0\0"
GAS LISTING C:\Users\PRESID~1\AppData\Local\Temp\ccaz3kGv.s 			page 105


 3792      5F4F4646 
 3792      5345545F 
 3792      464F525F 
 3792      53495A45 
 3793 215d 01       		.byte	0x1
 3794 215e 0A       		.uleb128 0xa
 3795 215f 48454150 		.ascii "HEAP_OFFSET_FOR_USED_SIZE 4\0"
 3795      5F4F4646 
 3795      5345545F 
 3795      464F525F 
 3795      55534544 
 3796 217b 01       		.byte	0x1
 3797 217c 0B       		.uleb128 0xb
 3798 217d 48454150 		.ascii "HEAP_OFFSET_FOR_CHUNK 8\0"
 3798      5F4F4646 
 3798      5345545F 
 3798      464F525F 
 3798      4348554E 
 3799 2195 04       		.byte	0x4
 3800              		.file 21 "E:/NeuOrga/Programmieren/c_cpp/github_os/input/src/os_base/../os_base/os_main.h"
 3801 2196 03       		.byte	0x3
 3802 2197 07       		.uleb128 0x7
 3803 2198 15       		.uleb128 0x15
 3804 2199 01       		.byte	0x1
 3805 219a 02       		.uleb128 0x2
 3806 219b 5F6F735F 		.ascii "_os_main_h_ \0"
 3806      6D61696E 
 3806      5F685F20 
 3806      00
 3807 21a8 01       		.byte	0x1
 3808 21a9 03       		.uleb128 0x3
 3809 21aa 6F735F69 		.ascii "os_init 0\0"
 3809      6E697420 
 3809      3000
 3810 21b4 01       		.byte	0x1
 3811 21b5 04       		.uleb128 0x4
 3812 21b6 6F735F72 		.ascii "os_running 1\0"
 3812      756E6E69 
 3812      6E672031 
 3812      00
 3813 21c3 01       		.byte	0x1
 3814 21c4 05       		.uleb128 0x5
 3815 21c5 6F735F73 		.ascii "os_shutdown 2\0"
 3815      68757464 
 3815      6F776E20 
 3815      3200
 3816 21d3 04       		.byte	0x4
 3817              		.file 22 "E:/NeuOrga/Programmieren/c_cpp/github_os/input/src/os_base/../os_base/os_task_config.h"
 3818 21d4 03       		.byte	0x3
 3819 21d5 08       		.uleb128 0x8
 3820 21d6 16       		.uleb128 0x16
 3821 21d7 04       		.byte	0x4
 3822              		.file 23 "E:/NeuOrga/Programmieren/c_cpp/github_os/input/src/os_base/../os_base/os_task_common.h"
 3823 21d8 03       		.byte	0x3
 3824 21d9 09       		.uleb128 0x9
 3825 21da 17       		.uleb128 0x17
 3826 21db 04       		.byte	0x4
GAS LISTING C:\Users\PRESID~1\AppData\Local\Temp\ccaz3kGv.s 			page 106


 3827 21dc 04       		.byte	0x4
 3828 21dd 04       		.byte	0x4
 3829              		.file 24 "E:/NeuOrga/Programmieren/c_cpp/github_os/input/src/os_base/os_task_common.h"
 3830 21de 03       		.byte	0x3
 3831 21df 02       		.uleb128 0x2
 3832 21e0 18       		.uleb128 0x18
 3833 21e1 04       		.byte	0x4
 3834              		.file 25 "E:/NeuOrga/Programmieren/c_cpp/github_os/input/src/os_base/os_task_queue.h"
 3835 21e2 03       		.byte	0x3
 3836 21e3 03       		.uleb128 0x3
 3837 21e4 19       		.uleb128 0x19
 3838 21e5 01       		.byte	0x1
 3839 21e6 02       		.uleb128 0x2
 3840 21e7 5F6F735F 		.ascii "_os_task_queue_h_ \0"
 3840      7461736B 
 3840      5F717565 
 3840      75655F68 
 3840      5F2000
 3841 21fa 01       		.byte	0x1
 3842 21fb 06       		.uleb128 0x6
 3843 21fc 46697273 		.ascii "First_task (0)\0"
 3843      745F7461 
 3843      736B2028 
 3843      302900
 3844 220b 01       		.byte	0x1
 3845 220c 07       		.uleb128 0x7
 3846 220d 4C617374 		.ascii "Last_task (MAX_RUN_QUEUE_SIZE-1)\0"
 3846      5F746173 
 3846      6B20284D 
 3846      41585F52 
 3846      554E5F51 
 3847 222e 01       		.byte	0x1
 3848 222f 09       		.uleb128 0x9
 3849 2230 466F725F 		.ascii "For_all_tasks_in_queue(var) for((var) = First_task; (var) <= Last_task; (var)++)\0"
 3849      616C6C5F 
 3849      7461736B 
 3849      735F696E 
 3849      5F717565 
 3850 2281 04       		.byte	0x4
 3851              		.file 26 "E:/NeuOrga/Programmieren/c_cpp/github_os/input/src/os_base/os_task_scheduler.h"
 3852 2282 03       		.byte	0x3
 3853 2283 04       		.uleb128 0x4
 3854 2284 1A       		.uleb128 0x1a
 3855 2285 01       		.byte	0x1
 3856 2286 02       		.uleb128 0x2
 3857 2287 5F6F735F 		.ascii "_os_task_scheduler_h_ \0"
 3857      7461736B 
 3857      5F736368 
 3857      6564756C 
 3857      65725F68 
 3858 229e 01       		.byte	0x1
 3859 229f 07       		.uleb128 0x7
 3860 22a0 5461736B 		.ascii "Task_0_ptr 0\0"
 3860      5F305F70 
 3860      74722030 
 3860      00
 3861 22ad 01       		.byte	0x1
GAS LISTING C:\Users\PRESID~1\AppData\Local\Temp\ccaz3kGv.s 			page 107


 3862 22ae 08       		.uleb128 0x8
 3863 22af 5461736B 		.ascii "Task_1_ptr 1\0"
 3863      5F315F70 
 3863      74722031 
 3863      00
 3864 22bc 01       		.byte	0x1
 3865 22bd 09       		.uleb128 0x9
 3866 22be 5461736B 		.ascii "Task_2_ptr 2\0"
 3866      5F325F70 
 3866      74722032 
 3866      00
 3867 22cb 01       		.byte	0x1
 3868 22cc 0A       		.uleb128 0xa
 3869 22cd 5461736B 		.ascii "Task_3_ptr 3\0"
 3869      5F335F70 
 3869      74722033 
 3869      00
 3870 22da 01       		.byte	0x1
 3871 22db 0C       		.uleb128 0xc
 3872 22dc 4F535F53 		.ascii "OS_SaveTaskPtr(task_ptr,Task_n_ptr) \0"
 3872      61766554 
 3872      61736B50 
 3872      74722874 
 3872      61736B5F 
 3873 2301 04       		.byte	0x4
 3874 2302 04       		.byte	0x4
 3875 2303 00       		.byte	0
 3876              		.section	.debug_line,"dr"
 3877              	Ldebug_line0:
 3878 0000 74040000 		.section	.debug_str,"dr"
 3878      02002903 
 3878      00000101 
 3878      FB0E0D00 
 3878      01010101 
 3879              	LASF6:
 3880 0000 73636865 		.ascii "scheduling_queue_element\0"
 3880      64756C69 
 3880      6E675F71 
 3880      75657565 
 3880      5F656C65 
 3881              	LASF3:
 3882 0019 70726976 		.ascii "privilige_mode\0"
 3882      696C6967 
 3882      655F6D6F 
 3882      646500
 3883              	LASF1:
 3884 0028 49646C65 		.ascii "IdleTask\0"
 3884      5461736B 
 3884      00
 3885              	LASF4:
 3886 0031 7461736B 		.ascii "task\0"
 3886      00
 3887              	LASF0:
 3888 0036 6578655F 		.ascii "exe_time\0"
 3888      74696D65 
 3888      00
 3889              	LASF5:
GAS LISTING C:\Users\PRESID~1\AppData\Local\Temp\ccaz3kGv.s 			page 108


 3890 003f 656C656D 		.ascii "element_nr\0"
 3890      656E745F 
 3890      6E7200
 3891              	LASF2:
 3892 004a 64656661 		.ascii "default_prio\0"
 3892      756C745F 
 3892      7072696F 
 3892      00
 3893              		.ident	"GCC: (GNU) 4.9.3"
GAS LISTING C:\Users\PRESID~1\AppData\Local\Temp\ccaz3kGv.s 			page 109


DEFINED SYMBOLS
                            *ABS*:00000000 os_task_queue.c
C:\Users\PRESID~1\AppData\Local\Temp\ccaz3kGv.s:6      .text:00000000 _SET_RUNNING_TASK
C:\Users\PRESID~1\AppData\Local\Temp\ccaz3kGv.s:182    .text:000001ff _OS_InitTaskQueue
C:\Users\PRESID~1\AppData\Local\Temp\ccaz3kGv.s:239    .text:00000260 _AddToTaskQueue
C:\Users\PRESID~1\AppData\Local\Temp\ccaz3kGv.s:766    .text:00000817 _DeleteFromTaskQueue
C:\Users\PRESID~1\AppData\Local\Temp\ccaz3kGv.s:889    .text:00000961 _GetFromTaskQueue
C:\Users\PRESID~1\AppData\Local\Temp\ccaz3kGv.s:910    .text:0000096b _GetFromSchedulingQueue
C:\Users\PRESID~1\AppData\Local\Temp\ccaz3kGv.s:935    .text:00000985 _DeleteFromSchedulingQueue
C:\Users\PRESID~1\AppData\Local\Temp\ccaz3kGv.s:956    .text:00000993 _AddToSchedulingQueue
C:\Users\PRESID~1\AppData\Local\Temp\ccaz3kGv.s:1008   .text:000009da _GetIdleTask
C:\Users\PRESID~1\AppData\Local\Temp\ccaz3kGv.s:1028   .text:000009e4 _AddToIdleTaskQueue
C:\Users\PRESID~1\AppData\Local\Temp\ccaz3kGv.s:1194   .text:00000bca _GetRunningTask
C:\Users\PRESID~1\AppData\Local\Temp\ccaz3kGv.s:1214   .text:00000bd4 _GetRunningSchedulingQueueElementPtr
C:\Users\PRESID~1\AppData\Local\Temp\ccaz3kGv.s:1234   .text:00000bde _OS_InitTask

UNDEFINED SYMBOLS
_RUNNING_SCHEDULING_QUEUE_ENTRY
_RUNNING_TASK
_bTASK_QUEUE_INITIALIZED
_TASK_SCHEDULING_QUEUE
_TASK_RUN_QUEUE
_TASK_IDLE_QUEUE
_Assign
_OS_Task_InitTaskEnvironment
_AssignNull
_task_state_request
_AssignUint32
_OS_CreateTask
_OS_SetSwBug
