GAS LISTING C:\Users\PRESID~1\AppData\Local\Temp\cczg9UB2.s 			page 1


   1              		.file	"os_task_scheduler.c"
   2              		.text
   3              	Ltext0:
   4              		.globl	_OS_ActivateDispatcher
   6              	_OS_ActivateDispatcher:
   7              	LFB0:
   8              		.file 1 "E:/NeuOrga/Programmieren/c_cpp/github_os/input/src/os_base/os_task_scheduler.c"
   1:E:/NeuOrga/Programmieren/c_cpp/github_os/input/src/os_base\os_task_scheduler.c **** #include "os_firstinc.h"
   2:E:/NeuOrga/Programmieren/c_cpp/github_os/input/src/os_base\os_task_scheduler.c **** #include "os_common.h"
   3:E:/NeuOrga/Programmieren/c_cpp/github_os/input/src/os_base\os_task_scheduler.c **** #include "os_task_common.h"
   4:E:/NeuOrga/Programmieren/c_cpp/github_os/input/src/os_base\os_task_scheduler.c **** #include "os_task_scheduler.h"
   5:E:/NeuOrga/Programmieren/c_cpp/github_os/input/src/os_base\os_task_scheduler.c **** #include "os_task_queue.h"
   6:E:/NeuOrga/Programmieren/c_cpp/github_os/input/src/os_base\os_task_scheduler.c **** #include "os_stack.h"
   7:E:/NeuOrga/Programmieren/c_cpp/github_os/input/src/os_base\os_task_scheduler.c **** 
   8:E:/NeuOrga/Programmieren/c_cpp/github_os/input/src/os_base\os_task_scheduler.c **** /*
   9:E:/NeuOrga/Programmieren/c_cpp/github_os/input/src/os_base\os_task_scheduler.c **** 1. running     --(terminate)--> suspend
  10:E:/NeuOrga/Programmieren/c_cpp/github_os/input/src/os_base\os_task_scheduler.c **** 2. running     --(preempt  )--> ready
  11:E:/NeuOrga/Programmieren/c_cpp/github_os/input/src/os_base\os_task_scheduler.c **** 3. suspend     --(activate )--> ready
  12:E:/NeuOrga/Programmieren/c_cpp/github_os/input/src/os_base\os_task_scheduler.c **** 4. ready       --(start    )--> running
  13:E:/NeuOrga/Programmieren/c_cpp/github_os/input/src/os_base\os_task_scheduler.c **** 5. unspecified --(create   )--> suspend
  14:E:/NeuOrga/Programmieren/c_cpp/github_os/input/src/os_base\os_task_scheduler.c **** */
  15:E:/NeuOrga/Programmieren/c_cpp/github_os/input/src/os_base\os_task_scheduler.c **** 
  16:E:/NeuOrga/Programmieren/c_cpp/github_os/input/src/os_base\os_task_scheduler.c **** 
  17:E:/NeuOrga/Programmieren/c_cpp/github_os/input/src/os_base\os_task_scheduler.c **** Local void TASK_0(void* task_ptr);
  18:E:/NeuOrga/Programmieren/c_cpp/github_os/input/src/os_base\os_task_scheduler.c **** Local void TASK_1(void* task_ptr);
  19:E:/NeuOrga/Programmieren/c_cpp/github_os/input/src/os_base\os_task_scheduler.c **** Local void TASK_2(void* task_ptr);
  20:E:/NeuOrga/Programmieren/c_cpp/github_os/input/src/os_base\os_task_scheduler.c **** Local task_t** OS_TaskScheduler();
  21:E:/NeuOrga/Programmieren/c_cpp/github_os/input/src/os_base\os_task_scheduler.c **** 
  22:E:/NeuOrga/Programmieren/c_cpp/github_os/input/src/os_base\os_task_scheduler.c **** void OS_ActivateDispatcher(void)
  23:E:/NeuOrga/Programmieren/c_cpp/github_os/input/src/os_base\os_task_scheduler.c **** {
   9              		.loc 1 23 0
  10              		.cfi_startproc
  11 0000 55       		pushl	%ebp
  12              		.cfi_def_cfa_offset 8
  13              		.cfi_offset 5, -8
  14 0001 89E5     		movl	%esp, %ebp
  15              		.cfi_def_cfa_register 5
  24:E:/NeuOrga/Programmieren/c_cpp/github_os/input/src/os_base\os_task_scheduler.c **** 
  25:E:/NeuOrga/Programmieren/c_cpp/github_os/input/src/os_base\os_task_scheduler.c ****    /* configure the TCMP */
  26:E:/NeuOrga/Programmieren/c_cpp/github_os/input/src/os_base\os_task_scheduler.c ****    /*
  27:E:/NeuOrga/Programmieren/c_cpp/github_os/input/src/os_base\os_task_scheduler.c ****    Dispatcher function for Core 0:
  28:E:/NeuOrga/Programmieren/c_cpp/github_os/input/src/os_base\os_task_scheduler.c ****    Write Adresse into the config register (interrupts are requested by SWI/SVC???)
  29:E:/NeuOrga/Programmieren/c_cpp/github_os/input/src/os_base\os_task_scheduler.c ****    */
  30:E:/NeuOrga/Programmieren/c_cpp/github_os/input/src/os_base\os_task_scheduler.c ****    #define SYSTICK_CTRL_STAT_REG ((uint32*)0xE000E010)
  31:E:/NeuOrga/Programmieren/c_cpp/github_os/input/src/os_base\os_task_scheduler.c ****    #define SYSTICK_RLD_VAL_REG   ((uint32*)0xE000E014)
  32:E:/NeuOrga/Programmieren/c_cpp/github_os/input/src/os_base\os_task_scheduler.c ****    #define SYSTICK_CURRENT_VAL_REG ((uint32*)0xE000E018)
  33:E:/NeuOrga/Programmieren/c_cpp/github_os/input/src/os_base\os_task_scheduler.c ****    #define SYSTICK_STAT_REG_TICKINT ((uint32)0x00000002)
  34:E:/NeuOrga/Programmieren/c_cpp/github_os/input/src/os_base\os_task_scheduler.c ****    #define SYSTICK_STAT_REG_ENABLE  ((uint32)0x00000001)
  35:E:/NeuOrga/Programmieren/c_cpp/github_os/input/src/os_base\os_task_scheduler.c ****    #define LOOPTIME_IN_USEC ((uint32)10000u)
  36:E:/NeuOrga/Programmieren/c_cpp/github_os/input/src/os_base\os_task_scheduler.c ****    /*
  37:E:/NeuOrga/Programmieren/c_cpp/github_os/input/src/os_base\os_task_scheduler.c ****    CLOCK = HCLK / 8
  38:E:/NeuOrga/Programmieren/c_cpp/github_os/input/src/os_base\os_task_scheduler.c ****    vermutlich: CLOCK = 150Mhz / 8 = 18,75 Mhz
  39:E:/NeuOrga/Programmieren/c_cpp/github_os/input/src/os_base\os_task_scheduler.c ****    */
  40:E:/NeuOrga/Programmieren/c_cpp/github_os/input/src/os_base\os_task_scheduler.c ****    #if(CFG_PROCESSOR == cMCU_CORTEX_M4)
  41:E:/NeuOrga/Programmieren/c_cpp/github_os/input/src/os_base\os_task_scheduler.c ****    *SYSTICK_RLD_VAL_REG = (*SYSTICK_RLD_VAL_REG & 0xFF000000 )| (((uint32)MCU_CLOCK_IN_HZ / ((uint3
  42:E:/NeuOrga/Programmieren/c_cpp/github_os/input/src/os_base\os_task_scheduler.c ****    *SYSTICK_CURRENT_VAL_REG = ((uint32)0x00000000);
  43:E:/NeuOrga/Programmieren/c_cpp/github_os/input/src/os_base\os_task_scheduler.c ****    *SYSTICK_CTRL_STAT_REG = *SYSTICK_CTRL_STAT_REG | SYSTICK_STAT_REG_TICKINT | SYSTICK_STAT_REG_EN
GAS LISTING C:\Users\PRESID~1\AppData\Local\Temp\cczg9UB2.s 			page 2


  44:E:/NeuOrga/Programmieren/c_cpp/github_os/input/src/os_base\os_task_scheduler.c ****    #endif
  45:E:/NeuOrga/Programmieren/c_cpp/github_os/input/src/os_base\os_task_scheduler.c **** }
  16              		.loc 1 45 0
  17 0003 5D       		popl	%ebp
  18              		.cfi_restore 5
  19              		.cfi_def_cfa 4, 4
  20 0004 C3       		ret
  21              		.cfi_endproc
  22              	LFE0:
  23              		.globl	_OS_SleepTask
  25              	_OS_SleepTask:
  26              	LFB1:
  46:E:/NeuOrga/Programmieren/c_cpp/github_os/input/src/os_base\os_task_scheduler.c **** 
  47:E:/NeuOrga/Programmieren/c_cpp/github_os/input/src/os_base\os_task_scheduler.c **** 
  48:E:/NeuOrga/Programmieren/c_cpp/github_os/input/src/os_base\os_task_scheduler.c **** void OS_SleepTask(task_t* task, task_time_t millisec)
  49:E:/NeuOrga/Programmieren/c_cpp/github_os/input/src/os_base\os_task_scheduler.c **** {
  27              		.loc 1 49 0
  28              		.cfi_startproc
  29 0005 55       		pushl	%ebp
  30              		.cfi_def_cfa_offset 8
  31              		.cfi_offset 5, -8
  32 0006 89E5     		movl	%esp, %ebp
  33              		.cfi_def_cfa_register 5
  34 0008 83EC08   		subl	$8, %esp
  50:E:/NeuOrga/Programmieren/c_cpp/github_os/input/src/os_base\os_task_scheduler.c ****    task->WaitActUntil = OS_GetCurrentTime() + millisec;
  35              		.loc 1 50 0
  36 000b E8000000 		call	_OS_GetCurrentTime
  36      00
  37 0010 89C2     		movl	%eax, %edx
  38 0012 8B450C   		movl	12(%ebp), %eax
  39 0015 01C2     		addl	%eax, %edx
  40 0017 8B4508   		movl	8(%ebp), %eax
  41 001a 895008   		movl	%edx, 8(%eax)
  51:E:/NeuOrga/Programmieren/c_cpp/github_os/input/src/os_base\os_task_scheduler.c **** }
  42              		.loc 1 51 0
  43 001d C9       		leave
  44              		.cfi_restore 5
  45              		.cfi_def_cfa 4, 4
  46 001e C3       		ret
  47              		.cfi_endproc
  48              	LFE1:
  49              		.globl	_task_state_request
  51              	_task_state_request:
  52              	LFB2:
  52:E:/NeuOrga/Programmieren/c_cpp/github_os/input/src/os_base\os_task_scheduler.c **** 
  53:E:/NeuOrga/Programmieren/c_cpp/github_os/input/src/os_base\os_task_scheduler.c **** unsigned_char_t task_state_request(void* temp_task, task_state_t requested_state)
  54:E:/NeuOrga/Programmieren/c_cpp/github_os/input/src/os_base\os_task_scheduler.c **** {
  53              		.loc 1 54 0
  54              		.cfi_startproc
  55 001f 55       		pushl	%ebp
  56              		.cfi_def_cfa_offset 8
  57              		.cfi_offset 5, -8
  58 0020 89E5     		movl	%esp, %ebp
  59              		.cfi_def_cfa_register 5
  60 0022 83EC28   		subl	$40, %esp
  55:E:/NeuOrga/Programmieren/c_cpp/github_os/input/src/os_base\os_task_scheduler.c ****    unsigned_char_t RequestState = Rejected;
  61              		.loc 1 55 0
GAS LISTING C:\Users\PRESID~1\AppData\Local\Temp\cczg9UB2.s 			page 3


  62 0025 C645F700 		movb	$0, -9(%ebp)
  56:E:/NeuOrga/Programmieren/c_cpp/github_os/input/src/os_base\os_task_scheduler.c **** 
  57:E:/NeuOrga/Programmieren/c_cpp/github_os/input/src/os_base\os_task_scheduler.c ****    task_t* task = (task_t*) temp_task;
  63              		.loc 1 57 0
  64 0029 8B4508   		movl	8(%ebp), %eax
  65 002c 8945F0   		movl	%eax, -16(%ebp)
  58:E:/NeuOrga/Programmieren/c_cpp/github_os/input/src/os_base\os_task_scheduler.c **** 
  59:E:/NeuOrga/Programmieren/c_cpp/github_os/input/src/os_base\os_task_scheduler.c ****    switch(requested_state)
  66              		.loc 1 59 0
  67 002f 8B450C   		movl	12(%ebp), %eax
  68 0032 83F801   		cmpl	$1, %eax
  69 0035 743E     		je	L5
  70 0037 83F801   		cmpl	$1, %eax
  71 003a 7213     		jb	L6
  72 003c 83F802   		cmpl	$2, %eax
  73 003f 0F848000 		je	L7
  73      0000
  74 0045 83F803   		cmpl	$3, %eax
  75 0048 745D     		je	L8
  60:E:/NeuOrga/Programmieren/c_cpp/github_os/input/src/os_base\os_task_scheduler.c ****    {
  61:E:/NeuOrga/Programmieren/c_cpp/github_os/input/src/os_base\os_task_scheduler.c ****    case Task_unspecified:/* 1. create new task */
  62:E:/NeuOrga/Programmieren/c_cpp/github_os/input/src/os_base\os_task_scheduler.c ****    {
  63:E:/NeuOrga/Programmieren/c_cpp/github_os/input/src/os_base\os_task_scheduler.c ****       switch(task->task_state)
  64:E:/NeuOrga/Programmieren/c_cpp/github_os/input/src/os_base\os_task_scheduler.c ****       {
  65:E:/NeuOrga/Programmieren/c_cpp/github_os/input/src/os_base\os_task_scheduler.c ****       case Task_ready:
  66:E:/NeuOrga/Programmieren/c_cpp/github_os/input/src/os_base\os_task_scheduler.c ****       case Task_running:
  67:E:/NeuOrga/Programmieren/c_cpp/github_os/input/src/os_base\os_task_scheduler.c ****       case Task_suspended:
  68:E:/NeuOrga/Programmieren/c_cpp/github_os/input/src/os_base\os_task_scheduler.c ****       {
  69:E:/NeuOrga/Programmieren/c_cpp/github_os/input/src/os_base\os_task_scheduler.c ****          RequestState = Rejected;
  70:E:/NeuOrga/Programmieren/c_cpp/github_os/input/src/os_base\os_task_scheduler.c ****          break;
  71:E:/NeuOrga/Programmieren/c_cpp/github_os/input/src/os_base\os_task_scheduler.c ****       }
  72:E:/NeuOrga/Programmieren/c_cpp/github_os/input/src/os_base\os_task_scheduler.c ****       default:
  73:E:/NeuOrga/Programmieren/c_cpp/github_os/input/src/os_base\os_task_scheduler.c ****       {
  74:E:/NeuOrga/Programmieren/c_cpp/github_os/input/src/os_base\os_task_scheduler.c ****          task->task_state = Task_unspecified;
  75:E:/NeuOrga/Programmieren/c_cpp/github_os/input/src/os_base\os_task_scheduler.c ****          RequestState = Accepted;
  76:E:/NeuOrga/Programmieren/c_cpp/github_os/input/src/os_base\os_task_scheduler.c ****          break;
  77:E:/NeuOrga/Programmieren/c_cpp/github_os/input/src/os_base\os_task_scheduler.c ****       }
  78:E:/NeuOrga/Programmieren/c_cpp/github_os/input/src/os_base\os_task_scheduler.c ****       }
  79:E:/NeuOrga/Programmieren/c_cpp/github_os/input/src/os_base\os_task_scheduler.c ****       break;
  80:E:/NeuOrga/Programmieren/c_cpp/github_os/input/src/os_base\os_task_scheduler.c ****    }
  81:E:/NeuOrga/Programmieren/c_cpp/github_os/input/src/os_base\os_task_scheduler.c ****    case Task_suspended:
  82:E:/NeuOrga/Programmieren/c_cpp/github_os/input/src/os_base\os_task_scheduler.c ****    {
  83:E:/NeuOrga/Programmieren/c_cpp/github_os/input/src/os_base\os_task_scheduler.c ****       switch(task->task_state)
  84:E:/NeuOrga/Programmieren/c_cpp/github_os/input/src/os_base\os_task_scheduler.c ****       {
  85:E:/NeuOrga/Programmieren/c_cpp/github_os/input/src/os_base\os_task_scheduler.c ****       case Task_unspecified: /* 2. create task transition */
  86:E:/NeuOrga/Programmieren/c_cpp/github_os/input/src/os_base\os_task_scheduler.c ****       {
  87:E:/NeuOrga/Programmieren/c_cpp/github_os/input/src/os_base\os_task_scheduler.c ****          /* no checks */
  88:E:/NeuOrga/Programmieren/c_cpp/github_os/input/src/os_base\os_task_scheduler.c ****          task->task_state = Task_suspended;
  89:E:/NeuOrga/Programmieren/c_cpp/github_os/input/src/os_base\os_task_scheduler.c ****          RequestState = Accepted;
  90:E:/NeuOrga/Programmieren/c_cpp/github_os/input/src/os_base\os_task_scheduler.c ****          break;
  91:E:/NeuOrga/Programmieren/c_cpp/github_os/input/src/os_base\os_task_scheduler.c ****       }
  92:E:/NeuOrga/Programmieren/c_cpp/github_os/input/src/os_base\os_task_scheduler.c ****       case Task_running: /* 3. terminate task */
  93:E:/NeuOrga/Programmieren/c_cpp/github_os/input/src/os_base\os_task_scheduler.c ****       {
  94:E:/NeuOrga/Programmieren/c_cpp/github_os/input/src/os_base\os_task_scheduler.c ****          task->task_state = Task_suspended;
  95:E:/NeuOrga/Programmieren/c_cpp/github_os/input/src/os_base\os_task_scheduler.c ****          RequestState = Accepted;
  96:E:/NeuOrga/Programmieren/c_cpp/github_os/input/src/os_base\os_task_scheduler.c ****          break;
  97:E:/NeuOrga/Programmieren/c_cpp/github_os/input/src/os_base\os_task_scheduler.c ****       }
GAS LISTING C:\Users\PRESID~1\AppData\Local\Temp\cczg9UB2.s 			page 4


  98:E:/NeuOrga/Programmieren/c_cpp/github_os/input/src/os_base\os_task_scheduler.c ****       default:
  99:E:/NeuOrga/Programmieren/c_cpp/github_os/input/src/os_base\os_task_scheduler.c ****       {
 100:E:/NeuOrga/Programmieren/c_cpp/github_os/input/src/os_base\os_task_scheduler.c ****          /* no change in states allowed */
 101:E:/NeuOrga/Programmieren/c_cpp/github_os/input/src/os_base\os_task_scheduler.c ****          break;
 102:E:/NeuOrga/Programmieren/c_cpp/github_os/input/src/os_base\os_task_scheduler.c ****       }
 103:E:/NeuOrga/Programmieren/c_cpp/github_os/input/src/os_base\os_task_scheduler.c ****       }
 104:E:/NeuOrga/Programmieren/c_cpp/github_os/input/src/os_base\os_task_scheduler.c ****       break;
 105:E:/NeuOrga/Programmieren/c_cpp/github_os/input/src/os_base\os_task_scheduler.c ****    }
 106:E:/NeuOrga/Programmieren/c_cpp/github_os/input/src/os_base\os_task_scheduler.c ****    case Task_running:
 107:E:/NeuOrga/Programmieren/c_cpp/github_os/input/src/os_base\os_task_scheduler.c ****    {
 108:E:/NeuOrga/Programmieren/c_cpp/github_os/input/src/os_base\os_task_scheduler.c ****       switch(task->task_state)
 109:E:/NeuOrga/Programmieren/c_cpp/github_os/input/src/os_base\os_task_scheduler.c ****       {
 110:E:/NeuOrga/Programmieren/c_cpp/github_os/input/src/os_base\os_task_scheduler.c ****       case Task_ready: /* 4. start task transition */
 111:E:/NeuOrga/Programmieren/c_cpp/github_os/input/src/os_base\os_task_scheduler.c ****       {
 112:E:/NeuOrga/Programmieren/c_cpp/github_os/input/src/os_base\os_task_scheduler.c ****          task->task_state = Task_running;
 113:E:/NeuOrga/Programmieren/c_cpp/github_os/input/src/os_base\os_task_scheduler.c ****          RequestState   = Accepted;
 114:E:/NeuOrga/Programmieren/c_cpp/github_os/input/src/os_base\os_task_scheduler.c ****          break;
 115:E:/NeuOrga/Programmieren/c_cpp/github_os/input/src/os_base\os_task_scheduler.c ****       }
 116:E:/NeuOrga/Programmieren/c_cpp/github_os/input/src/os_base\os_task_scheduler.c ****       default:
 117:E:/NeuOrga/Programmieren/c_cpp/github_os/input/src/os_base\os_task_scheduler.c ****       {
 118:E:/NeuOrga/Programmieren/c_cpp/github_os/input/src/os_base\os_task_scheduler.c ****          /* no change in states allowed */
 119:E:/NeuOrga/Programmieren/c_cpp/github_os/input/src/os_base\os_task_scheduler.c ****          break;
 120:E:/NeuOrga/Programmieren/c_cpp/github_os/input/src/os_base\os_task_scheduler.c ****       }
 121:E:/NeuOrga/Programmieren/c_cpp/github_os/input/src/os_base\os_task_scheduler.c ****       }
 122:E:/NeuOrga/Programmieren/c_cpp/github_os/input/src/os_base\os_task_scheduler.c ****       break;
 123:E:/NeuOrga/Programmieren/c_cpp/github_os/input/src/os_base\os_task_scheduler.c **** 
 124:E:/NeuOrga/Programmieren/c_cpp/github_os/input/src/os_base\os_task_scheduler.c ****    }
 125:E:/NeuOrga/Programmieren/c_cpp/github_os/input/src/os_base\os_task_scheduler.c ****    case Task_ready:
 126:E:/NeuOrga/Programmieren/c_cpp/github_os/input/src/os_base\os_task_scheduler.c ****    {
 127:E:/NeuOrga/Programmieren/c_cpp/github_os/input/src/os_base\os_task_scheduler.c ****       switch(task->task_state)
 128:E:/NeuOrga/Programmieren/c_cpp/github_os/input/src/os_base\os_task_scheduler.c ****       {
 129:E:/NeuOrga/Programmieren/c_cpp/github_os/input/src/os_base\os_task_scheduler.c ****       case Task_suspended: /* activate task transition */
 130:E:/NeuOrga/Programmieren/c_cpp/github_os/input/src/os_base\os_task_scheduler.c ****       {
 131:E:/NeuOrga/Programmieren/c_cpp/github_os/input/src/os_base\os_task_scheduler.c ****          task->task_state = Task_ready;
 132:E:/NeuOrga/Programmieren/c_cpp/github_os/input/src/os_base\os_task_scheduler.c ****          RequestState   = Accepted;
 133:E:/NeuOrga/Programmieren/c_cpp/github_os/input/src/os_base\os_task_scheduler.c ****          break;
 134:E:/NeuOrga/Programmieren/c_cpp/github_os/input/src/os_base\os_task_scheduler.c ****       }
 135:E:/NeuOrga/Programmieren/c_cpp/github_os/input/src/os_base\os_task_scheduler.c ****       case Task_running: /* preempt task transition */
 136:E:/NeuOrga/Programmieren/c_cpp/github_os/input/src/os_base\os_task_scheduler.c ****       {
 137:E:/NeuOrga/Programmieren/c_cpp/github_os/input/src/os_base\os_task_scheduler.c ****          task->task_state = Task_ready;
 138:E:/NeuOrga/Programmieren/c_cpp/github_os/input/src/os_base\os_task_scheduler.c ****          RequestState   = Accepted;
 139:E:/NeuOrga/Programmieren/c_cpp/github_os/input/src/os_base\os_task_scheduler.c ****          break;
 140:E:/NeuOrga/Programmieren/c_cpp/github_os/input/src/os_base\os_task_scheduler.c ****       }
 141:E:/NeuOrga/Programmieren/c_cpp/github_os/input/src/os_base\os_task_scheduler.c ****       case Task_unspecified:
 142:E:/NeuOrga/Programmieren/c_cpp/github_os/input/src/os_base\os_task_scheduler.c ****       {
 143:E:/NeuOrga/Programmieren/c_cpp/github_os/input/src/os_base\os_task_scheduler.c ****           task->task_state = Task_ready;
 144:E:/NeuOrga/Programmieren/c_cpp/github_os/input/src/os_base\os_task_scheduler.c ****           RequestState = Accepted;
 145:E:/NeuOrga/Programmieren/c_cpp/github_os/input/src/os_base\os_task_scheduler.c ****           break;
 146:E:/NeuOrga/Programmieren/c_cpp/github_os/input/src/os_base\os_task_scheduler.c ****       }
 147:E:/NeuOrga/Programmieren/c_cpp/github_os/input/src/os_base\os_task_scheduler.c ****       default:
 148:E:/NeuOrga/Programmieren/c_cpp/github_os/input/src/os_base\os_task_scheduler.c ****       {
 149:E:/NeuOrga/Programmieren/c_cpp/github_os/input/src/os_base\os_task_scheduler.c ****          /* no change in states allowed */
 150:E:/NeuOrga/Programmieren/c_cpp/github_os/input/src/os_base\os_task_scheduler.c ****          break;
 151:E:/NeuOrga/Programmieren/c_cpp/github_os/input/src/os_base\os_task_scheduler.c ****       }
 152:E:/NeuOrga/Programmieren/c_cpp/github_os/input/src/os_base\os_task_scheduler.c ****       }
 153:E:/NeuOrga/Programmieren/c_cpp/github_os/input/src/os_base\os_task_scheduler.c ****       break;
 154:E:/NeuOrga/Programmieren/c_cpp/github_os/input/src/os_base\os_task_scheduler.c ****    }
GAS LISTING C:\Users\PRESID~1\AppData\Local\Temp\cczg9UB2.s 			page 5


 155:E:/NeuOrga/Programmieren/c_cpp/github_os/input/src/os_base\os_task_scheduler.c ****    default:
 156:E:/NeuOrga/Programmieren/c_cpp/github_os/input/src/os_base\os_task_scheduler.c ****    {
 157:E:/NeuOrga/Programmieren/c_cpp/github_os/input/src/os_base\os_task_scheduler.c ****       break;
  76              		.loc 1 157 0
  77 004a E9BD0000 		jmp	L12
  77      00
  78              	L6:
  63:E:/NeuOrga/Programmieren/c_cpp/github_os/input/src/os_base\os_task_scheduler.c ****       {
  79              		.loc 1 63 0
  80 004f 8B45F0   		movl	-16(%ebp), %eax
  81 0052 8B4034   		movl	52(%eax), %eax
  82 0055 48       		decl	%eax
  83 0056 83F802   		cmpl	$2, %eax
  84 0059 7706     		ja	L9
  69:E:/NeuOrga/Programmieren/c_cpp/github_os/input/src/os_base\os_task_scheduler.c ****          break;
  85              		.loc 1 69 0
  86 005b C645F700 		movb	$0, -9(%ebp)
  70:E:/NeuOrga/Programmieren/c_cpp/github_os/input/src/os_base\os_task_scheduler.c ****       }
  87              		.loc 1 70 0
  88 005f EB0F     		jmp	L11
  89              	L9:
  74:E:/NeuOrga/Programmieren/c_cpp/github_os/input/src/os_base\os_task_scheduler.c ****          RequestState = Accepted;
  90              		.loc 1 74 0
  91 0061 8B45F0   		movl	-16(%ebp), %eax
  92 0064 C7403400 		movl	$0, 52(%eax)
  92      000000
  75:E:/NeuOrga/Programmieren/c_cpp/github_os/input/src/os_base\os_task_scheduler.c ****          break;
  93              		.loc 1 75 0
  94 006b C645F701 		movb	$1, -9(%ebp)
  76:E:/NeuOrga/Programmieren/c_cpp/github_os/input/src/os_base\os_task_scheduler.c ****       }
  95              		.loc 1 76 0
  96 006f 90       		nop
  97              	L11:
  79:E:/NeuOrga/Programmieren/c_cpp/github_os/input/src/os_base\os_task_scheduler.c ****    }
  98              		.loc 1 79 0
  99 0070 E9970000 		jmp	L12
  99      00
 100              	L5:
  83:E:/NeuOrga/Programmieren/c_cpp/github_os/input/src/os_base\os_task_scheduler.c ****       {
 101              		.loc 1 83 0
 102 0075 8B45F0   		movl	-16(%ebp), %eax
 103 0078 8B4034   		movl	52(%eax), %eax
 104 007b 85C0     		testl	%eax, %eax
 105 007d 7407     		je	L14
 106 007f 83F803   		cmpl	$3, %eax
 107 0082 7412     		je	L15
 101:E:/NeuOrga/Programmieren/c_cpp/github_os/input/src/os_base\os_task_scheduler.c ****       }
 108              		.loc 1 101 0
 109 0084 EB1F     		jmp	L16
 110              	L14:
  88:E:/NeuOrga/Programmieren/c_cpp/github_os/input/src/os_base\os_task_scheduler.c ****          RequestState = Accepted;
 111              		.loc 1 88 0
 112 0086 8B45F0   		movl	-16(%ebp), %eax
 113 0089 C7403401 		movl	$1, 52(%eax)
 113      000000
  89:E:/NeuOrga/Programmieren/c_cpp/github_os/input/src/os_base\os_task_scheduler.c ****          break;
 114              		.loc 1 89 0
GAS LISTING C:\Users\PRESID~1\AppData\Local\Temp\cczg9UB2.s 			page 6


 115 0090 C645F701 		movb	$1, -9(%ebp)
  90:E:/NeuOrga/Programmieren/c_cpp/github_os/input/src/os_base\os_task_scheduler.c ****       }
 116              		.loc 1 90 0
 117 0094 EB0F     		jmp	L16
 118              	L15:
  94:E:/NeuOrga/Programmieren/c_cpp/github_os/input/src/os_base\os_task_scheduler.c ****          RequestState = Accepted;
 119              		.loc 1 94 0
 120 0096 8B45F0   		movl	-16(%ebp), %eax
 121 0099 C7403401 		movl	$1, 52(%eax)
 121      000000
  95:E:/NeuOrga/Programmieren/c_cpp/github_os/input/src/os_base\os_task_scheduler.c ****          break;
 122              		.loc 1 95 0
 123 00a0 C645F701 		movb	$1, -9(%ebp)
  96:E:/NeuOrga/Programmieren/c_cpp/github_os/input/src/os_base\os_task_scheduler.c ****       }
 124              		.loc 1 96 0
 125 00a4 90       		nop
 126              	L16:
 104:E:/NeuOrga/Programmieren/c_cpp/github_os/input/src/os_base\os_task_scheduler.c ****    }
 127              		.loc 1 104 0 discriminator 1
 128 00a5 EB65     		jmp	L12
 129              	L8:
 108:E:/NeuOrga/Programmieren/c_cpp/github_os/input/src/os_base\os_task_scheduler.c ****       {
 130              		.loc 1 108 0
 131 00a7 8B45F0   		movl	-16(%ebp), %eax
 132 00aa 8B4034   		movl	52(%eax), %eax
 133 00ad 83F802   		cmpl	$2, %eax
 134 00b0 7402     		je	L18
 119:E:/NeuOrga/Programmieren/c_cpp/github_os/input/src/os_base\os_task_scheduler.c ****       }
 135              		.loc 1 119 0
 136 00b2 EB0F     		jmp	L19
 137              	L18:
 112:E:/NeuOrga/Programmieren/c_cpp/github_os/input/src/os_base\os_task_scheduler.c ****          RequestState   = Accepted;
 138              		.loc 1 112 0
 139 00b4 8B45F0   		movl	-16(%ebp), %eax
 140 00b7 C7403403 		movl	$3, 52(%eax)
 140      000000
 113:E:/NeuOrga/Programmieren/c_cpp/github_os/input/src/os_base\os_task_scheduler.c ****          break;
 141              		.loc 1 113 0
 142 00be C645F701 		movb	$1, -9(%ebp)
 114:E:/NeuOrga/Programmieren/c_cpp/github_os/input/src/os_base\os_task_scheduler.c ****       }
 143              		.loc 1 114 0
 144 00c2 90       		nop
 145              	L19:
 122:E:/NeuOrga/Programmieren/c_cpp/github_os/input/src/os_base\os_task_scheduler.c **** 
 146              		.loc 1 122 0 discriminator 2
 147 00c3 EB47     		jmp	L12
 148              	L7:
 127:E:/NeuOrga/Programmieren/c_cpp/github_os/input/src/os_base\os_task_scheduler.c ****       {
 149              		.loc 1 127 0
 150 00c5 8B45F0   		movl	-16(%ebp), %eax
 151 00c8 8B4034   		movl	52(%eax), %eax
 152 00cb 83F801   		cmpl	$1, %eax
 153 00ce 740C     		je	L21
 154 00d0 83F801   		cmpl	$1, %eax
 155 00d3 7227     		jb	L22
 156 00d5 83F803   		cmpl	$3, %eax
 157 00d8 7412     		je	L23
GAS LISTING C:\Users\PRESID~1\AppData\Local\Temp\cczg9UB2.s 			page 7


 150:E:/NeuOrga/Programmieren/c_cpp/github_os/input/src/os_base\os_task_scheduler.c ****       }
 158              		.loc 1 150 0
 159 00da EB2F     		jmp	L24
 160              	L21:
 131:E:/NeuOrga/Programmieren/c_cpp/github_os/input/src/os_base\os_task_scheduler.c ****          RequestState   = Accepted;
 161              		.loc 1 131 0
 162 00dc 8B45F0   		movl	-16(%ebp), %eax
 163 00df C7403402 		movl	$2, 52(%eax)
 163      000000
 132:E:/NeuOrga/Programmieren/c_cpp/github_os/input/src/os_base\os_task_scheduler.c ****          break;
 164              		.loc 1 132 0
 165 00e6 C645F701 		movb	$1, -9(%ebp)
 133:E:/NeuOrga/Programmieren/c_cpp/github_os/input/src/os_base\os_task_scheduler.c ****       }
 166              		.loc 1 133 0
 167 00ea EB1F     		jmp	L24
 168              	L23:
 137:E:/NeuOrga/Programmieren/c_cpp/github_os/input/src/os_base\os_task_scheduler.c ****          RequestState   = Accepted;
 169              		.loc 1 137 0
 170 00ec 8B45F0   		movl	-16(%ebp), %eax
 171 00ef C7403402 		movl	$2, 52(%eax)
 171      000000
 138:E:/NeuOrga/Programmieren/c_cpp/github_os/input/src/os_base\os_task_scheduler.c ****          break;
 172              		.loc 1 138 0
 173 00f6 C645F701 		movb	$1, -9(%ebp)
 139:E:/NeuOrga/Programmieren/c_cpp/github_os/input/src/os_base\os_task_scheduler.c ****       }
 174              		.loc 1 139 0
 175 00fa EB0F     		jmp	L24
 176              	L22:
 143:E:/NeuOrga/Programmieren/c_cpp/github_os/input/src/os_base\os_task_scheduler.c ****           RequestState = Accepted;
 177              		.loc 1 143 0
 178 00fc 8B45F0   		movl	-16(%ebp), %eax
 179 00ff C7403402 		movl	$2, 52(%eax)
 179      000000
 144:E:/NeuOrga/Programmieren/c_cpp/github_os/input/src/os_base\os_task_scheduler.c ****           break;
 180              		.loc 1 144 0
 181 0106 C645F701 		movb	$1, -9(%ebp)
 145:E:/NeuOrga/Programmieren/c_cpp/github_os/input/src/os_base\os_task_scheduler.c ****       }
 182              		.loc 1 145 0
 183 010a 90       		nop
 184              	L24:
 153:E:/NeuOrga/Programmieren/c_cpp/github_os/input/src/os_base\os_task_scheduler.c ****    }
 185              		.loc 1 153 0 discriminator 3
 186 010b 90       		nop
 187              	L12:
 158:E:/NeuOrga/Programmieren/c_cpp/github_os/input/src/os_base\os_task_scheduler.c ****    }
 159:E:/NeuOrga/Programmieren/c_cpp/github_os/input/src/os_base\os_task_scheduler.c ****    }
 160:E:/NeuOrga/Programmieren/c_cpp/github_os/input/src/os_base\os_task_scheduler.c ****    if(RequestState == Rejected)
 188              		.loc 1 160 0
 189 010c 807DF700 		cmpb	$0, -9(%ebp)
 190 0110 7514     		jne	L25
 161:E:/NeuOrga/Programmieren/c_cpp/github_os/input/src/os_base\os_task_scheduler.c ****    {
 162:E:/NeuOrga/Programmieren/c_cpp/github_os/input/src/os_base\os_task_scheduler.c ****       OS_SetSwBug(os_bug_taskstate_request_denied, Func_TaskStateRequest);
 191              		.loc 1 162 0
 192 0112 C7442404 		movl	$11, 4(%esp)
 192      0B000000 
 193 011a C7042401 		movl	$1, (%esp)
 193      000000
GAS LISTING C:\Users\PRESID~1\AppData\Local\Temp\cczg9UB2.s 			page 8


 194 0121 E8000000 		call	_OS_SetSwBug
 194      00
 195              	L25:
 163:E:/NeuOrga/Programmieren/c_cpp/github_os/input/src/os_base\os_task_scheduler.c ****    }
 164:E:/NeuOrga/Programmieren/c_cpp/github_os/input/src/os_base\os_task_scheduler.c ****    return RequestState;
 196              		.loc 1 164 0
 197 0126 8A45F7   		movb	-9(%ebp), %al
 165:E:/NeuOrga/Programmieren/c_cpp/github_os/input/src/os_base\os_task_scheduler.c **** }
 198              		.loc 1 165 0
 199 0129 C9       		leave
 200              		.cfi_restore 5
 201              		.cfi_def_cfa 4, 4
 202 012a C3       		ret
 203              		.cfi_endproc
 204              	LFE2:
 205              		.globl	_OS_CreateTask
 207              	_OS_CreateTask:
 208              	LFB3:
 166:E:/NeuOrga/Programmieren/c_cpp/github_os/input/src/os_base\os_task_scheduler.c **** 
 167:E:/NeuOrga/Programmieren/c_cpp/github_os/input/src/os_base\os_task_scheduler.c **** void OS_CreateTask(task_t* task)
 168:E:/NeuOrga/Programmieren/c_cpp/github_os/input/src/os_base\os_task_scheduler.c **** {
 209              		.loc 1 168 0
 210              		.cfi_startproc
 211 012b 55       		pushl	%ebp
 212              		.cfi_def_cfa_offset 8
 213              		.cfi_offset 5, -8
 214 012c 89E5     		movl	%esp, %ebp
 215              		.cfi_def_cfa_register 5
 216 012e 83EC18   		subl	$24, %esp
 169:E:/NeuOrga/Programmieren/c_cpp/github_os/input/src/os_base\os_task_scheduler.c ****    /*5. unspecified --(create   )--> suspend*/
 170:E:/NeuOrga/Programmieren/c_cpp/github_os/input/src/os_base\os_task_scheduler.c ****    if(task != 0)
 217              		.loc 1 170 0
 218 0131 837D0800 		cmpl	$0, 8(%ebp)
 219 0135 7450     		je	L28
 171:E:/NeuOrga/Programmieren/c_cpp/github_os/input/src/os_base\os_task_scheduler.c ****    {
 172:E:/NeuOrga/Programmieren/c_cpp/github_os/input/src/os_base\os_task_scheduler.c ****       if(task->state_request != 0)
 220              		.loc 1 172 0
 221 0137 8B4508   		movl	8(%ebp), %eax
 222 013a 8B4030   		movl	48(%eax), %eax
 223 013d 85C0     		testl	%eax, %eax
 224 013f 7430     		je	L29
 173:E:/NeuOrga/Programmieren/c_cpp/github_os/input/src/os_base\os_task_scheduler.c ****       {
 174:E:/NeuOrga/Programmieren/c_cpp/github_os/input/src/os_base\os_task_scheduler.c ****          if(task->state_request(task, Task_suspended)== Accepted)
 225              		.loc 1 174 0
 226 0141 8B4508   		movl	8(%ebp), %eax
 227 0144 8B4030   		movl	48(%eax), %eax
 228 0147 C7442404 		movl	$1, 4(%esp)
 228      01000000 
 229 014f 8B5508   		movl	8(%ebp), %edx
 230 0152 891424   		movl	%edx, (%esp)
 231 0155 FFD0     		call	*%eax
 232 0157 3C01     		cmpb	$1, %al
 233 0159 7440     		je	L27
 175:E:/NeuOrga/Programmieren/c_cpp/github_os/input/src/os_base\os_task_scheduler.c ****          {
 176:E:/NeuOrga/Programmieren/c_cpp/github_os/input/src/os_base\os_task_scheduler.c ****             /*QAC*/
 177:E:/NeuOrga/Programmieren/c_cpp/github_os/input/src/os_base\os_task_scheduler.c ****          }
 178:E:/NeuOrga/Programmieren/c_cpp/github_os/input/src/os_base\os_task_scheduler.c ****          else
GAS LISTING C:\Users\PRESID~1\AppData\Local\Temp\cczg9UB2.s 			page 9


 179:E:/NeuOrga/Programmieren/c_cpp/github_os/input/src/os_base\os_task_scheduler.c ****          {
 180:E:/NeuOrga/Programmieren/c_cpp/github_os/input/src/os_base\os_task_scheduler.c ****             OS_SetSwBug(os_bug_taskstate_request_denied, Func_TerminateTask);
 234              		.loc 1 180 0
 235 015b C7442404 		movl	$7, 4(%esp)
 235      07000000 
 236 0163 C7042401 		movl	$1, (%esp)
 236      000000
 237 016a E8000000 		call	_OS_SetSwBug
 237      00
 238 016f EB2A     		jmp	L27
 239              	L29:
 181:E:/NeuOrga/Programmieren/c_cpp/github_os/input/src/os_base\os_task_scheduler.c ****          }
 182:E:/NeuOrga/Programmieren/c_cpp/github_os/input/src/os_base\os_task_scheduler.c ****       }
 183:E:/NeuOrga/Programmieren/c_cpp/github_os/input/src/os_base\os_task_scheduler.c ****       else
 184:E:/NeuOrga/Programmieren/c_cpp/github_os/input/src/os_base\os_task_scheduler.c ****       {
 185:E:/NeuOrga/Programmieren/c_cpp/github_os/input/src/os_base\os_task_scheduler.c ****          OS_SetSwBug(os_bug_null_pointer, Func_TerminateTask);
 240              		.loc 1 185 0
 241 0171 C7442404 		movl	$7, 4(%esp)
 241      07000000 
 242 0179 C7042402 		movl	$2, (%esp)
 242      000000
 243 0180 E8000000 		call	_OS_SetSwBug
 243      00
 244 0185 EB14     		jmp	L27
 245              	L28:
 186:E:/NeuOrga/Programmieren/c_cpp/github_os/input/src/os_base\os_task_scheduler.c ****       }
 187:E:/NeuOrga/Programmieren/c_cpp/github_os/input/src/os_base\os_task_scheduler.c ****    }
 188:E:/NeuOrga/Programmieren/c_cpp/github_os/input/src/os_base\os_task_scheduler.c ****    else
 189:E:/NeuOrga/Programmieren/c_cpp/github_os/input/src/os_base\os_task_scheduler.c ****    {
 190:E:/NeuOrga/Programmieren/c_cpp/github_os/input/src/os_base\os_task_scheduler.c ****       OS_SetSwBug(os_bug_null_pointer, Func_TerminateTask);
 246              		.loc 1 190 0
 247 0187 C7442404 		movl	$7, 4(%esp)
 247      07000000 
 248 018f C7042402 		movl	$2, (%esp)
 248      000000
 249 0196 E8000000 		call	_OS_SetSwBug
 249      00
 250              	L27:
 191:E:/NeuOrga/Programmieren/c_cpp/github_os/input/src/os_base\os_task_scheduler.c ****    }     
 192:E:/NeuOrga/Programmieren/c_cpp/github_os/input/src/os_base\os_task_scheduler.c **** }
 251              		.loc 1 192 0
 252 019b C9       		leave
 253              		.cfi_restore 5
 254              		.cfi_def_cfa 4, 4
 255 019c C3       		ret
 256              		.cfi_endproc
 257              	LFE3:
 258              		.globl	_OS_PreemptTask
 260              	_OS_PreemptTask:
 261              	LFB4:
 193:E:/NeuOrga/Programmieren/c_cpp/github_os/input/src/os_base\os_task_scheduler.c **** void OS_PreemptTask(task_t* task, scheduling_t* scheduling_task)
 194:E:/NeuOrga/Programmieren/c_cpp/github_os/input/src/os_base\os_task_scheduler.c **** {
 262              		.loc 1 194 0
 263              		.cfi_startproc
 264 019d 55       		pushl	%ebp
 265              		.cfi_def_cfa_offset 8
 266              		.cfi_offset 5, -8
GAS LISTING C:\Users\PRESID~1\AppData\Local\Temp\cczg9UB2.s 			page 10


 267 019e 89E5     		movl	%esp, %ebp
 268              		.cfi_def_cfa_register 5
 269 01a0 83EC18   		subl	$24, %esp
 195:E:/NeuOrga/Programmieren/c_cpp/github_os/input/src/os_base\os_task_scheduler.c ****    /*2. running     --(preempt  )--> ready*/
 196:E:/NeuOrga/Programmieren/c_cpp/github_os/input/src/os_base\os_task_scheduler.c ****    /* Preempt task
 197:E:/NeuOrga/Programmieren/c_cpp/github_os/input/src/os_base\os_task_scheduler.c ****    - Disable Interrupts
 198:E:/NeuOrga/Programmieren/c_cpp/github_os/input/src/os_base\os_task_scheduler.c ****    - OS_TaskSaveTaskEnvironment
 199:E:/NeuOrga/Programmieren/c_cpp/github_os/input/src/os_base\os_task_scheduler.c ****    - add to Schedule Queue / delete from RunQueue
 200:E:/NeuOrga/Programmieren/c_cpp/github_os/input/src/os_base\os_task_scheduler.c ****    - delete active flag
 201:E:/NeuOrga/Programmieren/c_cpp/github_os/input/src/os_base\os_task_scheduler.c ****    - enable Interrupts
 202:E:/NeuOrga/Programmieren/c_cpp/github_os/input/src/os_base\os_task_scheduler.c ****    */
 203:E:/NeuOrga/Programmieren/c_cpp/github_os/input/src/os_base\os_task_scheduler.c ****    if(task != 0 && scheduling_task != 0)
 270              		.loc 1 203 0
 271 01a3 837D0800 		cmpl	$0, 8(%ebp)
 272 01a7 0F84A800 		je	L34
 272      0000
 273              		.loc 1 203 0 is_stmt 0 discriminator 1
 274 01ad 837D0C00 		cmpl	$0, 12(%ebp)
 275 01b1 0F849E00 		je	L34
 275      0000
 204:E:/NeuOrga/Programmieren/c_cpp/github_os/input/src/os_base\os_task_scheduler.c ****    {
 205:E:/NeuOrga/Programmieren/c_cpp/github_os/input/src/os_base\os_task_scheduler.c ****       if(task->state_request != 0)
 276              		.loc 1 205 0 is_stmt 1
 277 01b7 8B4508   		movl	8(%ebp), %eax
 278 01ba 8B4030   		movl	48(%eax), %eax
 279 01bd 85C0     		testl	%eax, %eax
 280 01bf 747E     		je	L35
 206:E:/NeuOrga/Programmieren/c_cpp/github_os/input/src/os_base\os_task_scheduler.c ****       {
 207:E:/NeuOrga/Programmieren/c_cpp/github_os/input/src/os_base\os_task_scheduler.c ****          if(task->state_request(task, Task_ready)== Accepted)
 281              		.loc 1 207 0
 282 01c1 8B4508   		movl	8(%ebp), %eax
 283 01c4 8B4030   		movl	48(%eax), %eax
 284 01c7 C7442404 		movl	$2, 4(%esp)
 284      02000000 
 285 01cf 8B5508   		movl	8(%ebp), %edx
 286 01d2 891424   		movl	%edx, (%esp)
 287 01d5 FFD0     		call	*%eax
 288 01d7 3C01     		cmpb	$1, %al
 289 01d9 754E     		jne	L36
 208:E:/NeuOrga/Programmieren/c_cpp/github_os/input/src/os_base\os_task_scheduler.c ****          {
 209:E:/NeuOrga/Programmieren/c_cpp/github_os/input/src/os_base\os_task_scheduler.c ****             DisableInterrupts();
 210:E:/NeuOrga/Programmieren/c_cpp/github_os/input/src/os_base\os_task_scheduler.c ****             OS_TaskSaveTaskEnvironment(task);
 290              		.loc 1 210 0
 291 01db 8B4508   		movl	8(%ebp), %eax
 292 01de 890424   		movl	%eax, (%esp)
 293 01e1 E8000000 		call	_OS_TaskSaveTaskEnvironment
 293      00
 211:E:/NeuOrga/Programmieren/c_cpp/github_os/input/src/os_base\os_task_scheduler.c ****             OS_TASK_RESTORE_SYSTEM_STACK(&OS_STACK[OS_GetCoreId()][0]);
 294              		.loc 1 211 0
 295 01e6 E8000000 		call	_OS_GetCoreId
 295      00
 296 01eb C1E008   		sall	$8, %eax
 297 01ee 05000000 		addl	$_OS_STACK, %eax
 297      00
 298 01f3 890424   		movl	%eax, (%esp)
 299 01f6 E8000000 		call	_OS_TASK_RESTORE_SYSTEM_STACK
 299      00
GAS LISTING C:\Users\PRESID~1\AppData\Local\Temp\cczg9UB2.s 			page 11


 212:E:/NeuOrga/Programmieren/c_cpp/github_os/input/src/os_base\os_task_scheduler.c ****             DeleteFromTaskQueue(task);
 300              		.loc 1 212 0
 301 01fb 8B4508   		movl	8(%ebp), %eax
 302 01fe 890424   		movl	%eax, (%esp)
 303 0201 E8000000 		call	_DeleteFromTaskQueue
 303      00
 213:E:/NeuOrga/Programmieren/c_cpp/github_os/input/src/os_base\os_task_scheduler.c ****             DeleteFromSchedulingQueue(scheduling_task);
 304              		.loc 1 213 0
 305 0206 8B450C   		movl	12(%ebp), %eax
 306 0209 890424   		movl	%eax, (%esp)
 307 020c E8000000 		call	_DeleteFromSchedulingQueue
 307      00
 214:E:/NeuOrga/Programmieren/c_cpp/github_os/input/src/os_base\os_task_scheduler.c **** 
 215:E:/NeuOrga/Programmieren/c_cpp/github_os/input/src/os_base\os_task_scheduler.c ****             task->active = False;
 308              		.loc 1 215 0
 309 0211 8B4508   		movl	8(%ebp), %eax
 310 0214 8A10     		movb	(%eax), %dl
 311 0216 83E2FE   		andl	$-2, %edx
 312 0219 8810     		movb	%dl, (%eax)
 216:E:/NeuOrga/Programmieren/c_cpp/github_os/input/src/os_base\os_task_scheduler.c ****             /* reset the prio increase for waiting */
 217:E:/NeuOrga/Programmieren/c_cpp/github_os/input/src/os_base\os_task_scheduler.c ****             task->current_prio = task->default_prio;
 313              		.loc 1 217 0
 314 021b 8B4508   		movl	8(%ebp), %eax
 315 021e 8A5025   		movb	37(%eax), %dl
 316 0221 8B4508   		movl	8(%ebp), %eax
 317 0224 885024   		movb	%dl, 36(%eax)
 205:E:/NeuOrga/Programmieren/c_cpp/github_os/input/src/os_base\os_task_scheduler.c ****       {
 318              		.loc 1 205 0
 319 0227 EB40     		jmp	L33
 320              	L36:
 218:E:/NeuOrga/Programmieren/c_cpp/github_os/input/src/os_base\os_task_scheduler.c ****             EnableInterrupts();
 219:E:/NeuOrga/Programmieren/c_cpp/github_os/input/src/os_base\os_task_scheduler.c ****          }
 220:E:/NeuOrga/Programmieren/c_cpp/github_os/input/src/os_base\os_task_scheduler.c ****          else
 221:E:/NeuOrga/Programmieren/c_cpp/github_os/input/src/os_base\os_task_scheduler.c ****          {
 222:E:/NeuOrga/Programmieren/c_cpp/github_os/input/src/os_base\os_task_scheduler.c ****             OS_SetSwBug(os_bug_taskstate_request_denied, Func_Preempt_Task);
 321              		.loc 1 222 0
 322 0229 C7442404 		movl	$12, 4(%esp)
 322      0C000000 
 323 0231 C7042401 		movl	$1, (%esp)
 323      000000
 324 0238 E8000000 		call	_OS_SetSwBug
 324      00
 205:E:/NeuOrga/Programmieren/c_cpp/github_os/input/src/os_base\os_task_scheduler.c ****       {
 325              		.loc 1 205 0
 326 023d EB2A     		jmp	L33
 327              	L35:
 223:E:/NeuOrga/Programmieren/c_cpp/github_os/input/src/os_base\os_task_scheduler.c ****          }
 224:E:/NeuOrga/Programmieren/c_cpp/github_os/input/src/os_base\os_task_scheduler.c ****       }
 225:E:/NeuOrga/Programmieren/c_cpp/github_os/input/src/os_base\os_task_scheduler.c ****       else
 226:E:/NeuOrga/Programmieren/c_cpp/github_os/input/src/os_base\os_task_scheduler.c ****       {
 227:E:/NeuOrga/Programmieren/c_cpp/github_os/input/src/os_base\os_task_scheduler.c ****          OS_SetSwBug(os_bug_null_pointer, Func_Preempt_Task);
 328              		.loc 1 227 0
 329 023f C7442404 		movl	$12, 4(%esp)
 329      0C000000 
 330 0247 C7042402 		movl	$2, (%esp)
 330      000000
 331 024e E8000000 		call	_OS_SetSwBug
GAS LISTING C:\Users\PRESID~1\AppData\Local\Temp\cczg9UB2.s 			page 12


 331      00
 205:E:/NeuOrga/Programmieren/c_cpp/github_os/input/src/os_base\os_task_scheduler.c ****       {
 332              		.loc 1 205 0
 333 0253 EB14     		jmp	L33
 334              	L34:
 228:E:/NeuOrga/Programmieren/c_cpp/github_os/input/src/os_base\os_task_scheduler.c ****       }
 229:E:/NeuOrga/Programmieren/c_cpp/github_os/input/src/os_base\os_task_scheduler.c **** 
 230:E:/NeuOrga/Programmieren/c_cpp/github_os/input/src/os_base\os_task_scheduler.c ****    }
 231:E:/NeuOrga/Programmieren/c_cpp/github_os/input/src/os_base\os_task_scheduler.c ****    else
 232:E:/NeuOrga/Programmieren/c_cpp/github_os/input/src/os_base\os_task_scheduler.c ****    {
 233:E:/NeuOrga/Programmieren/c_cpp/github_os/input/src/os_base\os_task_scheduler.c ****       OS_SetSwBug(os_bug_null_pointer, Func_Preempt_Task);
 335              		.loc 1 233 0
 336 0255 C7442404 		movl	$12, 4(%esp)
 336      0C000000 
 337 025d C7042402 		movl	$2, (%esp)
 337      000000
 338 0264 E8000000 		call	_OS_SetSwBug
 338      00
 339              	L33:
 234:E:/NeuOrga/Programmieren/c_cpp/github_os/input/src/os_base\os_task_scheduler.c ****    }   
 235:E:/NeuOrga/Programmieren/c_cpp/github_os/input/src/os_base\os_task_scheduler.c **** }
 340              		.loc 1 235 0
 341 0269 C9       		leave
 342              		.cfi_restore 5
 343              		.cfi_def_cfa 4, 4
 344 026a C3       		ret
 345              		.cfi_endproc
 346              	LFE4:
 347              		.globl	_OS_ActivateTask
 349              	_OS_ActivateTask:
 350              	LFB5:
 236:E:/NeuOrga/Programmieren/c_cpp/github_os/input/src/os_base\os_task_scheduler.c **** 
 237:E:/NeuOrga/Programmieren/c_cpp/github_os/input/src/os_base\os_task_scheduler.c **** void OS_ActivateTask(task_t* task)
 238:E:/NeuOrga/Programmieren/c_cpp/github_os/input/src/os_base\os_task_scheduler.c **** {
 351              		.loc 1 238 0
 352              		.cfi_startproc
 353 026b 55       		pushl	%ebp
 354              		.cfi_def_cfa_offset 8
 355              		.cfi_offset 5, -8
 356 026c 89E5     		movl	%esp, %ebp
 357              		.cfi_def_cfa_register 5
 358 026e 83EC18   		subl	$24, %esp
 239:E:/NeuOrga/Programmieren/c_cpp/github_os/input/src/os_base\os_task_scheduler.c ****    /*
 240:E:/NeuOrga/Programmieren/c_cpp/github_os/input/src/os_base\os_task_scheduler.c ****    Activate Task:
 241:E:/NeuOrga/Programmieren/c_cpp/github_os/input/src/os_base\os_task_scheduler.c ****    - Disable Interrupts
 242:E:/NeuOrga/Programmieren/c_cpp/github_os/input/src/os_base\os_task_scheduler.c ****    - Add to schedule Queue
 243:E:/NeuOrga/Programmieren/c_cpp/github_os/input/src/os_base\os_task_scheduler.c ****    - Enable Interrupts
 244:E:/NeuOrga/Programmieren/c_cpp/github_os/input/src/os_base\os_task_scheduler.c **** 
 245:E:/NeuOrga/Programmieren/c_cpp/github_os/input/src/os_base\os_task_scheduler.c ****    in case of valid request, the content, where the "task_t* task" is point to is stored in TASK_RU
 246:E:/NeuOrga/Programmieren/c_cpp/github_os/input/src/os_base\os_task_scheduler.c ****    */
 247:E:/NeuOrga/Programmieren/c_cpp/github_os/input/src/os_base\os_task_scheduler.c ****    if(task != 0)
 359              		.loc 1 247 0
 360 0271 837D0800 		cmpl	$0, 8(%ebp)
 361 0275 0F849900 		je	L40
 361      0000
 248:E:/NeuOrga/Programmieren/c_cpp/github_os/input/src/os_base\os_task_scheduler.c ****    {
 249:E:/NeuOrga/Programmieren/c_cpp/github_os/input/src/os_base\os_task_scheduler.c ****       if(task->state_request(task, Task_ready)==Accepted)
GAS LISTING C:\Users\PRESID~1\AppData\Local\Temp\cczg9UB2.s 			page 13


 362              		.loc 1 249 0
 363 027b 8B4508   		movl	8(%ebp), %eax
 364 027e 8B4030   		movl	48(%eax), %eax
 365 0281 C7442404 		movl	$2, 4(%esp)
 365      02000000 
 366 0289 8B5508   		movl	8(%ebp), %edx
 367 028c 891424   		movl	%edx, (%esp)
 368 028f FFD0     		call	*%eax
 369 0291 3C01     		cmpb	$1, %al
 370 0293 756B     		jne	L42
 250:E:/NeuOrga/Programmieren/c_cpp/github_os/input/src/os_base\os_task_scheduler.c ****       {
 251:E:/NeuOrga/Programmieren/c_cpp/github_os/input/src/os_base\os_task_scheduler.c ****          DisableInterrupts();
 252:E:/NeuOrga/Programmieren/c_cpp/github_os/input/src/os_base\os_task_scheduler.c ****          /* 3. suspended to ready (add to runqueue) */
 253:E:/NeuOrga/Programmieren/c_cpp/github_os/input/src/os_base\os_task_scheduler.c ****          if(task->IdleTask == False)
 371              		.loc 1 253 0
 372 0295 8B4508   		movl	8(%ebp), %eax
 373 0298 8A00     		movb	(%eax), %al
 374 029a 83E004   		andl	$4, %eax
 375 029d 84C0     		testb	%al, %al
 376 029f 7552     		jne	L43
 254:E:/NeuOrga/Programmieren/c_cpp/github_os/input/src/os_base\os_task_scheduler.c ****          {
 255:E:/NeuOrga/Programmieren/c_cpp/github_os/input/src/os_base\os_task_scheduler.c ****             if( (task->active == False)
 377              		.loc 1 255 0
 378 02a1 8B4508   		movl	8(%ebp), %eax
 379 02a4 8A00     		movb	(%eax), %al
 380 02a6 83E001   		andl	$1, %eax
 381 02a9 84C0     		testb	%al, %al
 382 02ab 741C     		je	L44
 256:E:/NeuOrga/Programmieren/c_cpp/github_os/input/src/os_base\os_task_scheduler.c ****                   || ( (task->active == True) && (task->NrOfInsAllowed > task->NrOfInsActivated) )/
 383              		.loc 1 256 0
 384 02ad 8B4508   		movl	8(%ebp), %eax
 385 02b0 8A00     		movb	(%eax), %al
 386 02b2 83E001   		andl	$1, %eax
 387 02b5 84C0     		testb	%al, %al
 388 02b7 745B     		je	L40
 389              		.loc 1 256 0 is_stmt 0 discriminator 1
 390 02b9 8B4508   		movl	8(%ebp), %eax
 391 02bc 8A5004   		movb	4(%eax), %dl
 392 02bf 8B4508   		movl	8(%ebp), %eax
 393 02c2 8A4005   		movb	5(%eax), %al
 394 02c5 38C2     		cmpb	%al, %dl
 395 02c7 764B     		jbe	L40
 396              	L44:
 257:E:/NeuOrga/Programmieren/c_cpp/github_os/input/src/os_base\os_task_scheduler.c ****               )
 258:E:/NeuOrga/Programmieren/c_cpp/github_os/input/src/os_base\os_task_scheduler.c ****             {
 259:E:/NeuOrga/Programmieren/c_cpp/github_os/input/src/os_base\os_task_scheduler.c ****                /* only activate if allowed by rule */
 260:E:/NeuOrga/Programmieren/c_cpp/github_os/input/src/os_base\os_task_scheduler.c ****                task = AddToTaskQueue(task);
 397              		.loc 1 260 0 is_stmt 1
 398 02c9 8B4508   		movl	8(%ebp), %eax
 399 02cc 890424   		movl	%eax, (%esp)
 400 02cf E8000000 		call	_AddToTaskQueue
 400      00
 401 02d4 894508   		movl	%eax, 8(%ebp)
 261:E:/NeuOrga/Programmieren/c_cpp/github_os/input/src/os_base\os_task_scheduler.c **** 
 262:E:/NeuOrga/Programmieren/c_cpp/github_os/input/src/os_base\os_task_scheduler.c ****                AddToSchedulingQueue(task);
 402              		.loc 1 262 0
 403 02d7 8B4508   		movl	8(%ebp), %eax
GAS LISTING C:\Users\PRESID~1\AppData\Local\Temp\cczg9UB2.s 			page 14


 404 02da 890424   		movl	%eax, (%esp)
 405 02dd E8000000 		call	_AddToSchedulingQueue
 405      00
 263:E:/NeuOrga/Programmieren/c_cpp/github_os/input/src/os_base\os_task_scheduler.c ****                task->NrOfInsActivated++;
 406              		.loc 1 263 0
 407 02e2 8B4508   		movl	8(%ebp), %eax
 408 02e5 8A4005   		movb	5(%eax), %al
 409 02e8 8D5001   		leal	1(%eax), %edx
 410 02eb 8B4508   		movl	8(%ebp), %eax
 411 02ee 885005   		movb	%dl, 5(%eax)
 412 02f1 EB21     		jmp	L40
 413              	L43:
 264:E:/NeuOrga/Programmieren/c_cpp/github_os/input/src/os_base\os_task_scheduler.c ****             }
 265:E:/NeuOrga/Programmieren/c_cpp/github_os/input/src/os_base\os_task_scheduler.c ****             else
 266:E:/NeuOrga/Programmieren/c_cpp/github_os/input/src/os_base\os_task_scheduler.c ****             {
 267:E:/NeuOrga/Programmieren/c_cpp/github_os/input/src/os_base\os_task_scheduler.c ****                /* multiple activation bug occured */
 268:E:/NeuOrga/Programmieren/c_cpp/github_os/input/src/os_base\os_task_scheduler.c ****             }
 269:E:/NeuOrga/Programmieren/c_cpp/github_os/input/src/os_base\os_task_scheduler.c ****          }
 270:E:/NeuOrga/Programmieren/c_cpp/github_os/input/src/os_base\os_task_scheduler.c ****          else
 271:E:/NeuOrga/Programmieren/c_cpp/github_os/input/src/os_base\os_task_scheduler.c ****          {
 272:E:/NeuOrga/Programmieren/c_cpp/github_os/input/src/os_base\os_task_scheduler.c ****             AddToIdleTaskQueue(task);
 414              		.loc 1 272 0
 415 02f3 8B4508   		movl	8(%ebp), %eax
 416 02f6 890424   		movl	%eax, (%esp)
 417 02f9 E8000000 		call	_AddToIdleTaskQueue
 417      00
 418 02fe EB14     		jmp	L40
 419              	L42:
 273:E:/NeuOrga/Programmieren/c_cpp/github_os/input/src/os_base\os_task_scheduler.c ****          }
 274:E:/NeuOrga/Programmieren/c_cpp/github_os/input/src/os_base\os_task_scheduler.c ****          EnableInterrupts();
 275:E:/NeuOrga/Programmieren/c_cpp/github_os/input/src/os_base\os_task_scheduler.c ****       }
 276:E:/NeuOrga/Programmieren/c_cpp/github_os/input/src/os_base\os_task_scheduler.c ****       else
 277:E:/NeuOrga/Programmieren/c_cpp/github_os/input/src/os_base\os_task_scheduler.c ****       {
 278:E:/NeuOrga/Programmieren/c_cpp/github_os/input/src/os_base\os_task_scheduler.c ****          OS_SetSwBug(os_bug_taskstate_request_denied, Func_ActivateTask);
 420              		.loc 1 278 0
 421 0300 C7442404 		movl	$10, 4(%esp)
 421      0A000000 
 422 0308 C7042401 		movl	$1, (%esp)
 422      000000
 423 030f E8000000 		call	_OS_SetSwBug
 423      00
 424              	L40:
 279:E:/NeuOrga/Programmieren/c_cpp/github_os/input/src/os_base\os_task_scheduler.c ****       }
 280:E:/NeuOrga/Programmieren/c_cpp/github_os/input/src/os_base\os_task_scheduler.c ****    }
 281:E:/NeuOrga/Programmieren/c_cpp/github_os/input/src/os_base\os_task_scheduler.c **** }
 425              		.loc 1 281 0
 426 0314 C9       		leave
 427              		.cfi_restore 5
 428              		.cfi_def_cfa 4, 4
 429 0315 C3       		ret
 430              		.cfi_endproc
 431              	LFE5:
 432              		.globl	_OS_StartTask
 434              	_OS_StartTask:
 435              	LFB6:
 282:E:/NeuOrga/Programmieren/c_cpp/github_os/input/src/os_base\os_task_scheduler.c **** void OS_StartTask(task_t* task, scheduling_t* scheduling_task)
 283:E:/NeuOrga/Programmieren/c_cpp/github_os/input/src/os_base\os_task_scheduler.c **** {
GAS LISTING C:\Users\PRESID~1\AppData\Local\Temp\cczg9UB2.s 			page 15


 436              		.loc 1 283 0
 437              		.cfi_startproc
 438 0316 55       		pushl	%ebp
 439              		.cfi_def_cfa_offset 8
 440              		.cfi_offset 5, -8
 441 0317 89E5     		movl	%esp, %ebp
 442              		.cfi_def_cfa_register 5
 443 0319 83EC18   		subl	$24, %esp
 284:E:/NeuOrga/Programmieren/c_cpp/github_os/input/src/os_base\os_task_scheduler.c ****    /* OS_StartTask
 285:E:/NeuOrga/Programmieren/c_cpp/github_os/input/src/os_base\os_task_scheduler.c ****    - Disable interrupts
 286:E:/NeuOrga/Programmieren/c_cpp/github_os/input/src/os_base\os_task_scheduler.c ****    - restore Environment
 287:E:/NeuOrga/Programmieren/c_cpp/github_os/input/src/os_base\os_task_scheduler.c ****    - enable interrupts
 288:E:/NeuOrga/Programmieren/c_cpp/github_os/input/src/os_base\os_task_scheduler.c **** 
 289:E:/NeuOrga/Programmieren/c_cpp/github_os/input/src/os_base\os_task_scheduler.c ****    - Start Task
 290:E:/NeuOrga/Programmieren/c_cpp/github_os/input/src/os_base\os_task_scheduler.c ****     */
 291:E:/NeuOrga/Programmieren/c_cpp/github_os/input/src/os_base\os_task_scheduler.c ****    if( (task != 0) && (scheduling_task != 0)&& ((task->task_queued != False)||(task->IdleTask != Fa
 444              		.loc 1 291 0
 445 031c 837D0800 		cmpl	$0, 8(%ebp)
 446 0320 0F84F600 		je	L47
 446      0000
 447              		.loc 1 291 0 is_stmt 0 discriminator 1
 448 0326 837D0C00 		cmpl	$0, 12(%ebp)
 449 032a 0F84EC00 		je	L47
 449      0000
 450              		.loc 1 291 0 discriminator 2
 451 0330 8B4508   		movl	8(%ebp), %eax
 452 0333 8A00     		movb	(%eax), %al
 453 0335 83E002   		andl	$2, %eax
 454 0338 84C0     		testb	%al, %al
 455 033a 7510     		jne	L49
 456              		.loc 1 291 0 discriminator 3
 457 033c 8B4508   		movl	8(%ebp), %eax
 458 033f 8A00     		movb	(%eax), %al
 459 0341 83E004   		andl	$4, %eax
 460 0344 84C0     		testb	%al, %al
 461 0346 0F84D000 		je	L47
 461      0000
 462              	L49:
 292:E:/NeuOrga/Programmieren/c_cpp/github_os/input/src/os_base\os_task_scheduler.c ****    {
 293:E:/NeuOrga/Programmieren/c_cpp/github_os/input/src/os_base\os_task_scheduler.c ****       if(task->state_request !=0)
 463              		.loc 1 293 0 is_stmt 1
 464 034c 8B4508   		movl	8(%ebp), %eax
 465 034f 8B4030   		movl	48(%eax), %eax
 466 0352 85C0     		testl	%eax, %eax
 467 0354 0F84AE00 		je	L50
 467      0000
 294:E:/NeuOrga/Programmieren/c_cpp/github_os/input/src/os_base\os_task_scheduler.c ****       {
 295:E:/NeuOrga/Programmieren/c_cpp/github_os/input/src/os_base\os_task_scheduler.c ****          if(task->state_request(task, Task_running)== Accepted)
 468              		.loc 1 295 0
 469 035a 8B4508   		movl	8(%ebp), %eax
 470 035d 8B4030   		movl	48(%eax), %eax
 471 0360 C7442404 		movl	$3, 4(%esp)
 471      03000000 
 472 0368 8B5508   		movl	8(%ebp), %edx
 473 036b 891424   		movl	%edx, (%esp)
 474 036e FFD0     		call	*%eax
 475 0370 3C01     		cmpb	$1, %al
GAS LISTING C:\Users\PRESID~1\AppData\Local\Temp\cczg9UB2.s 			page 16


 476 0372 757E     		jne	L51
 296:E:/NeuOrga/Programmieren/c_cpp/github_os/input/src/os_base\os_task_scheduler.c ****          {
 297:E:/NeuOrga/Programmieren/c_cpp/github_os/input/src/os_base\os_task_scheduler.c ****             DisableInterrupts();
 298:E:/NeuOrga/Programmieren/c_cpp/github_os/input/src/os_base\os_task_scheduler.c ****             task->active =  True;
 477              		.loc 1 298 0
 478 0374 8B4508   		movl	8(%ebp), %eax
 479 0377 8A10     		movb	(%eax), %dl
 480 0379 83CA01   		orl	$1, %edx
 481 037c 8810     		movb	%dl, (%eax)
 299:E:/NeuOrga/Programmieren/c_cpp/github_os/input/src/os_base\os_task_scheduler.c ****             task->wait_time = 0;
 482              		.loc 1 299 0
 483 037e 8B4508   		movl	8(%ebp), %eax
 484 0381 C7400C00 		movl	$0, 12(%eax)
 484      000000
 300:E:/NeuOrga/Programmieren/c_cpp/github_os/input/src/os_base\os_task_scheduler.c ****             task->current_prio = task->default_prio;
 485              		.loc 1 300 0
 486 0388 8B4508   		movl	8(%ebp), %eax
 487 038b 8A5025   		movb	37(%eax), %dl
 488 038e 8B4508   		movl	8(%ebp), %eax
 489 0391 885024   		movb	%dl, 36(%eax)
 301:E:/NeuOrga/Programmieren/c_cpp/github_os/input/src/os_base\os_task_scheduler.c ****             OS_TASK_SAVE_SYSTEM_STACK(&OS_STACK[OS_GetCoreId()][0]);
 490              		.loc 1 301 0
 491 0394 E8000000 		call	_OS_GetCoreId
 491      00
 492 0399 C1E008   		sall	$8, %eax
 493 039c 05000000 		addl	$_OS_STACK, %eax
 493      00
 494 03a1 890424   		movl	%eax, (%esp)
 495 03a4 E8000000 		call	_OS_TASK_SAVE_SYSTEM_STACK
 495      00
 302:E:/NeuOrga/Programmieren/c_cpp/github_os/input/src/os_base\os_task_scheduler.c ****             OS_TASK_RESTORETASK_ENVIRONMENT(task);
 496              		.loc 1 302 0
 497 03a9 8B4508   		movl	8(%ebp), %eax
 498 03ac 890424   		movl	%eax, (%esp)
 499 03af E8000000 		call	_OS_TASK_RESTORETASK_ENVIRONMENT
 499      00
 303:E:/NeuOrga/Programmieren/c_cpp/github_os/input/src/os_base\os_task_scheduler.c ****             task->start_time = OS_GetCurrentTime();
 500              		.loc 1 303 0
 501 03b4 E8000000 		call	_OS_GetCurrentTime
 501      00
 502 03b9 89C2     		movl	%eax, %edx
 503 03bb 8B4508   		movl	8(%ebp), %eax
 504 03be 895020   		movl	%edx, 32(%eax)
 304:E:/NeuOrga/Programmieren/c_cpp/github_os/input/src/os_base\os_task_scheduler.c ****             EnableInterrupts();
 305:E:/NeuOrga/Programmieren/c_cpp/github_os/input/src/os_base\os_task_scheduler.c **** 
 306:E:/NeuOrga/Programmieren/c_cpp/github_os/input/src/os_base\os_task_scheduler.c ****             /* task execution shall not happen with disabled interrupts */
 307:E:/NeuOrga/Programmieren/c_cpp/github_os/input/src/os_base\os_task_scheduler.c ****             SET_RUNNING_TASK(task, scheduling_task);
 505              		.loc 1 307 0
 506 03c1 8B450C   		movl	12(%ebp), %eax
 507 03c4 89442404 		movl	%eax, 4(%esp)
 508 03c8 8B4508   		movl	8(%ebp), %eax
 509 03cb 890424   		movl	%eax, (%esp)
 510 03ce E8000000 		call	_SET_RUNNING_TASK
 510      00
 308:E:/NeuOrga/Programmieren/c_cpp/github_os/input/src/os_base\os_task_scheduler.c ****             /* change to user mode... */
 309:E:/NeuOrga/Programmieren/c_cpp/github_os/input/src/os_base\os_task_scheduler.c ****             if(task->privilige_mode == ePriviligeMode_unpriviliged_thread_mode)
 511              		.loc 1 309 0
GAS LISTING C:\Users\PRESID~1\AppData\Local\Temp\cczg9UB2.s 			page 17


 512 03d3 8B4508   		movl	8(%ebp), %eax
 513 03d6 8B4060   		movl	96(%eax), %eax
 514 03d9 85C0     		testl	%eax, %eax
 515 03db 7505     		jne	L52
 310:E:/NeuOrga/Programmieren/c_cpp/github_os/input/src/os_base\os_task_scheduler.c ****             {
 311:E:/NeuOrga/Programmieren/c_cpp/github_os/input/src/os_base\os_task_scheduler.c ****                LLF_CHANGE_TO_UNPRIVILIGED_THREAD_MODE();
 516              		.loc 1 311 0
 517 03dd E8000000 		call	_LLF_CHANGE_TO_UNPRIVILIGED_THREAD_MODE
 517      00
 518              	L52:
 312:E:/NeuOrga/Programmieren/c_cpp/github_os/input/src/os_base\os_task_scheduler.c ****             }
 313:E:/NeuOrga/Programmieren/c_cpp/github_os/input/src/os_base\os_task_scheduler.c **** 
 314:E:/NeuOrga/Programmieren/c_cpp/github_os/input/src/os_base\os_task_scheduler.c ****             /* call the task entry function */
 315:E:/NeuOrga/Programmieren/c_cpp/github_os/input/src/os_base\os_task_scheduler.c ****             task->fp(task);
 519              		.loc 1 315 0
 520 03e2 8B4508   		movl	8(%ebp), %eax
 521 03e5 8B402C   		movl	44(%eax), %eax
 522 03e8 8B5508   		movl	8(%ebp), %edx
 523 03eb 891424   		movl	%edx, (%esp)
 524 03ee FFD0     		call	*%eax
 525 03f0 EB2A     		jmp	L47
 526              	L51:
 316:E:/NeuOrga/Programmieren/c_cpp/github_os/input/src/os_base\os_task_scheduler.c ****          }
 317:E:/NeuOrga/Programmieren/c_cpp/github_os/input/src/os_base\os_task_scheduler.c ****          else
 318:E:/NeuOrga/Programmieren/c_cpp/github_os/input/src/os_base\os_task_scheduler.c ****          {
 319:E:/NeuOrga/Programmieren/c_cpp/github_os/input/src/os_base\os_task_scheduler.c ****             OS_SetSwBug(os_bug_taskstate_request_denied, Func_StartTask);
 527              		.loc 1 319 0
 528 03f2 C7442404 		movl	$5, 4(%esp)
 528      05000000 
 529 03fa C7042401 		movl	$1, (%esp)
 529      000000
 530 0401 E8000000 		call	_OS_SetSwBug
 530      00
 531 0406 EB14     		jmp	L47
 532              	L50:
 320:E:/NeuOrga/Programmieren/c_cpp/github_os/input/src/os_base\os_task_scheduler.c ****          }
 321:E:/NeuOrga/Programmieren/c_cpp/github_os/input/src/os_base\os_task_scheduler.c **** 
 322:E:/NeuOrga/Programmieren/c_cpp/github_os/input/src/os_base\os_task_scheduler.c ****       }
 323:E:/NeuOrga/Programmieren/c_cpp/github_os/input/src/os_base\os_task_scheduler.c ****       else
 324:E:/NeuOrga/Programmieren/c_cpp/github_os/input/src/os_base\os_task_scheduler.c ****       {
 325:E:/NeuOrga/Programmieren/c_cpp/github_os/input/src/os_base\os_task_scheduler.c ****          OS_SetSwBug(os_bug_null_pointer, Func_StartTask);
 533              		.loc 1 325 0
 534 0408 C7442404 		movl	$5, 4(%esp)
 534      05000000 
 535 0410 C7042402 		movl	$2, (%esp)
 535      000000
 536 0417 E8000000 		call	_OS_SetSwBug
 536      00
 537              	L47:
 326:E:/NeuOrga/Programmieren/c_cpp/github_os/input/src/os_base\os_task_scheduler.c ****       }
 327:E:/NeuOrga/Programmieren/c_cpp/github_os/input/src/os_base\os_task_scheduler.c ****    }
 328:E:/NeuOrga/Programmieren/c_cpp/github_os/input/src/os_base\os_task_scheduler.c ****    /* allowed in case of empty QUEUE elements (queue elements which have no activate_task yet recei
 329:E:/NeuOrga/Programmieren/c_cpp/github_os/input/src/os_base\os_task_scheduler.c ****    else
 330:E:/NeuOrga/Programmieren/c_cpp/github_os/input/src/os_base\os_task_scheduler.c ****    {
 331:E:/NeuOrga/Programmieren/c_cpp/github_os/input/src/os_base\os_task_scheduler.c ****        OS_SetSwBug(os_bug_null_pointer, Func_StartTask);
 332:E:/NeuOrga/Programmieren/c_cpp/github_os/input/src/os_base\os_task_scheduler.c ****    }
 333:E:/NeuOrga/Programmieren/c_cpp/github_os/input/src/os_base\os_task_scheduler.c ****    */
GAS LISTING C:\Users\PRESID~1\AppData\Local\Temp\cczg9UB2.s 			page 18


 334:E:/NeuOrga/Programmieren/c_cpp/github_os/input/src/os_base\os_task_scheduler.c **** }
 538              		.loc 1 334 0
 539 041c C9       		leave
 540              		.cfi_restore 5
 541              		.cfi_def_cfa 4, 4
 542 041d C3       		ret
 543              		.cfi_endproc
 544              	LFE6:
 545              		.globl	_OS_TerminateTask
 547              	_OS_TerminateTask:
 548              	LFB7:
 335:E:/NeuOrga/Programmieren/c_cpp/github_os/input/src/os_base\os_task_scheduler.c **** void OS_TerminateTask(task_t* task, scheduling_t* scheduling_task)
 336:E:/NeuOrga/Programmieren/c_cpp/github_os/input/src/os_base\os_task_scheduler.c **** {
 549              		.loc 1 336 0
 550              		.cfi_startproc
 551 041e 55       		pushl	%ebp
 552              		.cfi_def_cfa_offset 8
 553              		.cfi_offset 5, -8
 554 041f 89E5     		movl	%esp, %ebp
 555              		.cfi_def_cfa_register 5
 556 0421 83EC18   		subl	$24, %esp
 337:E:/NeuOrga/Programmieren/c_cpp/github_os/input/src/os_base\os_task_scheduler.c ****    /* Preempt task
 338:E:/NeuOrga/Programmieren/c_cpp/github_os/input/src/os_base\os_task_scheduler.c ****    - Disable Interrupts
 339:E:/NeuOrga/Programmieren/c_cpp/github_os/input/src/os_base\os_task_scheduler.c ****    - OS_TaskSaveTaskEnvironment
 340:E:/NeuOrga/Programmieren/c_cpp/github_os/input/src/os_base\os_task_scheduler.c ****    - add to Schedule Queue / delete from RunQueue
 341:E:/NeuOrga/Programmieren/c_cpp/github_os/input/src/os_base\os_task_scheduler.c ****    - delete active flag
 342:E:/NeuOrga/Programmieren/c_cpp/github_os/input/src/os_base\os_task_scheduler.c ****    - enable Interrupts
 343:E:/NeuOrga/Programmieren/c_cpp/github_os/input/src/os_base\os_task_scheduler.c ****    */
 344:E:/NeuOrga/Programmieren/c_cpp/github_os/input/src/os_base\os_task_scheduler.c ****    if(task != 0 && scheduling_task != 0)
 557              		.loc 1 344 0
 558 0424 837D0800 		cmpl	$0, 8(%ebp)
 559 0428 0F84A800 		je	L55
 559      0000
 560              		.loc 1 344 0 is_stmt 0 discriminator 1
 561 042e 837D0C00 		cmpl	$0, 12(%ebp)
 562 0432 0F849E00 		je	L55
 562      0000
 345:E:/NeuOrga/Programmieren/c_cpp/github_os/input/src/os_base\os_task_scheduler.c ****    {
 346:E:/NeuOrga/Programmieren/c_cpp/github_os/input/src/os_base\os_task_scheduler.c ****       if(task->state_request != 0)
 563              		.loc 1 346 0 is_stmt 1
 564 0438 8B4508   		movl	8(%ebp), %eax
 565 043b 8B4030   		movl	48(%eax), %eax
 566 043e 85C0     		testl	%eax, %eax
 567 0440 747E     		je	L56
 347:E:/NeuOrga/Programmieren/c_cpp/github_os/input/src/os_base\os_task_scheduler.c ****       {
 348:E:/NeuOrga/Programmieren/c_cpp/github_os/input/src/os_base\os_task_scheduler.c ****          if(task->state_request(task, Task_suspended)== Accepted)
 568              		.loc 1 348 0
 569 0442 8B4508   		movl	8(%ebp), %eax
 570 0445 8B4030   		movl	48(%eax), %eax
 571 0448 C7442404 		movl	$1, 4(%esp)
 571      01000000 
 572 0450 8B5508   		movl	8(%ebp), %edx
 573 0453 891424   		movl	%edx, (%esp)
 574 0456 FFD0     		call	*%eax
 575 0458 3C01     		cmpb	$1, %al
 576 045a 754E     		jne	L57
 349:E:/NeuOrga/Programmieren/c_cpp/github_os/input/src/os_base\os_task_scheduler.c ****          {
GAS LISTING C:\Users\PRESID~1\AppData\Local\Temp\cczg9UB2.s 			page 19


 350:E:/NeuOrga/Programmieren/c_cpp/github_os/input/src/os_base\os_task_scheduler.c ****             DisableInterrupts();
 351:E:/NeuOrga/Programmieren/c_cpp/github_os/input/src/os_base\os_task_scheduler.c ****             OS_TaskSaveTaskEnvironment(task);
 577              		.loc 1 351 0
 578 045c 8B4508   		movl	8(%ebp), %eax
 579 045f 890424   		movl	%eax, (%esp)
 580 0462 E8000000 		call	_OS_TaskSaveTaskEnvironment
 580      00
 352:E:/NeuOrga/Programmieren/c_cpp/github_os/input/src/os_base\os_task_scheduler.c ****             OS_TASK_RESTORE_SYSTEM_STACK(&OS_STACK[OS_GetCoreId()][0]);
 581              		.loc 1 352 0
 582 0467 E8000000 		call	_OS_GetCoreId
 582      00
 583 046c C1E008   		sall	$8, %eax
 584 046f 05000000 		addl	$_OS_STACK, %eax
 584      00
 585 0474 890424   		movl	%eax, (%esp)
 586 0477 E8000000 		call	_OS_TASK_RESTORE_SYSTEM_STACK
 586      00
 353:E:/NeuOrga/Programmieren/c_cpp/github_os/input/src/os_base\os_task_scheduler.c ****             DeleteFromTaskQueue(task);
 587              		.loc 1 353 0
 588 047c 8B4508   		movl	8(%ebp), %eax
 589 047f 890424   		movl	%eax, (%esp)
 590 0482 E8000000 		call	_DeleteFromTaskQueue
 590      00
 354:E:/NeuOrga/Programmieren/c_cpp/github_os/input/src/os_base\os_task_scheduler.c ****             DeleteFromSchedulingQueue(scheduling_task);
 591              		.loc 1 354 0
 592 0487 8B450C   		movl	12(%ebp), %eax
 593 048a 890424   		movl	%eax, (%esp)
 594 048d E8000000 		call	_DeleteFromSchedulingQueue
 594      00
 355:E:/NeuOrga/Programmieren/c_cpp/github_os/input/src/os_base\os_task_scheduler.c **** 
 356:E:/NeuOrga/Programmieren/c_cpp/github_os/input/src/os_base\os_task_scheduler.c ****             task->active = False;
 595              		.loc 1 356 0
 596 0492 8B4508   		movl	8(%ebp), %eax
 597 0495 8A10     		movb	(%eax), %dl
 598 0497 83E2FE   		andl	$-2, %edx
 599 049a 8810     		movb	%dl, (%eax)
 357:E:/NeuOrga/Programmieren/c_cpp/github_os/input/src/os_base\os_task_scheduler.c ****             /* reset the prio increase for waiting */
 358:E:/NeuOrga/Programmieren/c_cpp/github_os/input/src/os_base\os_task_scheduler.c ****             task->current_prio = task->default_prio;
 600              		.loc 1 358 0
 601 049c 8B4508   		movl	8(%ebp), %eax
 602 049f 8A5025   		movb	37(%eax), %dl
 603 04a2 8B4508   		movl	8(%ebp), %eax
 604 04a5 885024   		movb	%dl, 36(%eax)
 346:E:/NeuOrga/Programmieren/c_cpp/github_os/input/src/os_base\os_task_scheduler.c ****       {
 605              		.loc 1 346 0
 606 04a8 EB40     		jmp	L54
 607              	L57:
 359:E:/NeuOrga/Programmieren/c_cpp/github_os/input/src/os_base\os_task_scheduler.c ****             EnableInterrupts();
 360:E:/NeuOrga/Programmieren/c_cpp/github_os/input/src/os_base\os_task_scheduler.c ****          }
 361:E:/NeuOrga/Programmieren/c_cpp/github_os/input/src/os_base\os_task_scheduler.c ****          else
 362:E:/NeuOrga/Programmieren/c_cpp/github_os/input/src/os_base\os_task_scheduler.c ****          {
 363:E:/NeuOrga/Programmieren/c_cpp/github_os/input/src/os_base\os_task_scheduler.c ****             OS_SetSwBug(os_bug_taskstate_request_denied, Func_TerminateTask);
 608              		.loc 1 363 0
 609 04aa C7442404 		movl	$7, 4(%esp)
 609      07000000 
 610 04b2 C7042401 		movl	$1, (%esp)
 610      000000
GAS LISTING C:\Users\PRESID~1\AppData\Local\Temp\cczg9UB2.s 			page 20


 611 04b9 E8000000 		call	_OS_SetSwBug
 611      00
 346:E:/NeuOrga/Programmieren/c_cpp/github_os/input/src/os_base\os_task_scheduler.c ****       {
 612              		.loc 1 346 0
 613 04be EB2A     		jmp	L54
 614              	L56:
 364:E:/NeuOrga/Programmieren/c_cpp/github_os/input/src/os_base\os_task_scheduler.c ****          }
 365:E:/NeuOrga/Programmieren/c_cpp/github_os/input/src/os_base\os_task_scheduler.c ****       }
 366:E:/NeuOrga/Programmieren/c_cpp/github_os/input/src/os_base\os_task_scheduler.c ****       else
 367:E:/NeuOrga/Programmieren/c_cpp/github_os/input/src/os_base\os_task_scheduler.c ****       {
 368:E:/NeuOrga/Programmieren/c_cpp/github_os/input/src/os_base\os_task_scheduler.c ****          OS_SetSwBug(os_bug_null_pointer, Func_TerminateTask);
 615              		.loc 1 368 0
 616 04c0 C7442404 		movl	$7, 4(%esp)
 616      07000000 
 617 04c8 C7042402 		movl	$2, (%esp)
 617      000000
 618 04cf E8000000 		call	_OS_SetSwBug
 618      00
 346:E:/NeuOrga/Programmieren/c_cpp/github_os/input/src/os_base\os_task_scheduler.c ****       {
 619              		.loc 1 346 0
 620 04d4 EB14     		jmp	L54
 621              	L55:
 369:E:/NeuOrga/Programmieren/c_cpp/github_os/input/src/os_base\os_task_scheduler.c ****       }
 370:E:/NeuOrga/Programmieren/c_cpp/github_os/input/src/os_base\os_task_scheduler.c **** 
 371:E:/NeuOrga/Programmieren/c_cpp/github_os/input/src/os_base\os_task_scheduler.c ****    }
 372:E:/NeuOrga/Programmieren/c_cpp/github_os/input/src/os_base\os_task_scheduler.c ****    else
 373:E:/NeuOrga/Programmieren/c_cpp/github_os/input/src/os_base\os_task_scheduler.c ****    {
 374:E:/NeuOrga/Programmieren/c_cpp/github_os/input/src/os_base\os_task_scheduler.c ****       OS_SetSwBug(os_bug_null_pointer, Func_TerminateTask);
 622              		.loc 1 374 0
 623 04d6 C7442404 		movl	$7, 4(%esp)
 623      07000000 
 624 04de C7042402 		movl	$2, (%esp)
 624      000000
 625 04e5 E8000000 		call	_OS_SetSwBug
 625      00
 626              	L54:
 375:E:/NeuOrga/Programmieren/c_cpp/github_os/input/src/os_base\os_task_scheduler.c ****    }
 376:E:/NeuOrga/Programmieren/c_cpp/github_os/input/src/os_base\os_task_scheduler.c **** }
 627              		.loc 1 376 0
 628 04ea C9       		leave
 629              		.cfi_restore 5
 630              		.cfi_def_cfa 4, 4
 631 04eb C3       		ret
 632              		.cfi_endproc
 633              	LFE7:
 634              		.globl	_OS_TaskDispatcher
 636              	_OS_TaskDispatcher:
 637              	LFB8:
 377:E:/NeuOrga/Programmieren/c_cpp/github_os/input/src/os_base\os_task_scheduler.c **** void OS_TaskDispatcher(void)
 378:E:/NeuOrga/Programmieren/c_cpp/github_os/input/src/os_base\os_task_scheduler.c **** {
 638              		.loc 1 378 0
 639              		.cfi_startproc
 640 04ec 55       		pushl	%ebp
 641              		.cfi_def_cfa_offset 8
 642              		.cfi_offset 5, -8
 643 04ed 89E5     		movl	%esp, %ebp
 644              		.cfi_def_cfa_register 5
GAS LISTING C:\Users\PRESID~1\AppData\Local\Temp\cczg9UB2.s 			page 21


 645 04ef 83EC28   		subl	$40, %esp
 379:E:/NeuOrga/Programmieren/c_cpp/github_os/input/src/os_base\os_task_scheduler.c ****    /* called in an certain core context (Core_0/1/2/3)*/
 380:E:/NeuOrga/Programmieren/c_cpp/github_os/input/src/os_base\os_task_scheduler.c **** 
 381:E:/NeuOrga/Programmieren/c_cpp/github_os/input/src/os_base\os_task_scheduler.c **** 
 382:E:/NeuOrga/Programmieren/c_cpp/github_os/input/src/os_base\os_task_scheduler.c ****    /*
 383:E:/NeuOrga/Programmieren/c_cpp/github_os/input/src/os_base\os_task_scheduler.c ****    1. running     --(terminate)--> suspend
 384:E:/NeuOrga/Programmieren/c_cpp/github_os/input/src/os_base\os_task_scheduler.c ****    2. running     --(preempt  )--> ready
 385:E:/NeuOrga/Programmieren/c_cpp/github_os/input/src/os_base\os_task_scheduler.c ****    3. suspend     --(activate )--> ready
 386:E:/NeuOrga/Programmieren/c_cpp/github_os/input/src/os_base\os_task_scheduler.c ****    4. ready       --(start    )--> running
 387:E:/NeuOrga/Programmieren/c_cpp/github_os/input/src/os_base\os_task_scheduler.c ****    5. unspecified --(create   )--> suspend
 388:E:/NeuOrga/Programmieren/c_cpp/github_os/input/src/os_base\os_task_scheduler.c ****    */
 389:E:/NeuOrga/Programmieren/c_cpp/github_os/input/src/os_base\os_task_scheduler.c ****    scheduling_t* scheduling_task_ptr;
 390:E:/NeuOrga/Programmieren/c_cpp/github_os/input/src/os_base\os_task_scheduler.c ****    task_t* task = 0;
 646              		.loc 1 390 0
 647 04f2 C745F400 		movl	$0, -12(%ebp)
 647      000000
 391:E:/NeuOrga/Programmieren/c_cpp/github_os/input/src/os_base\os_task_scheduler.c ****    /* get running task */
 392:E:/NeuOrga/Programmieren/c_cpp/github_os/input/src/os_base\os_task_scheduler.c ****    task         = GetRunningTask();
 648              		.loc 1 392 0
 649 04f9 E8000000 		call	_GetRunningTask
 649      00
 650 04fe 8945F4   		movl	%eax, -12(%ebp)
 393:E:/NeuOrga/Programmieren/c_cpp/github_os/input/src/os_base\os_task_scheduler.c ****    scheduling_task_ptr = GetRunningSchedulingQueueElementPtr();
 651              		.loc 1 393 0
 652 0501 E8000000 		call	_GetRunningSchedulingQueueElementPtr
 652      00
 653 0506 8945F0   		movl	%eax, -16(%ebp)
 394:E:/NeuOrga/Programmieren/c_cpp/github_os/input/src/os_base\os_task_scheduler.c ****    /* Preempt Task */
 395:E:/NeuOrga/Programmieren/c_cpp/github_os/input/src/os_base\os_task_scheduler.c ****    if(task!=0 && scheduling_task_ptr != 0)
 654              		.loc 1 395 0
 655 0509 837DF400 		cmpl	$0, -12(%ebp)
 656 050d 7418     		je	L62
 657              		.loc 1 395 0 is_stmt 0 discriminator 1
 658 050f 837DF000 		cmpl	$0, -16(%ebp)
 659 0513 7412     		je	L62
 396:E:/NeuOrga/Programmieren/c_cpp/github_os/input/src/os_base\os_task_scheduler.c ****    {
 397:E:/NeuOrga/Programmieren/c_cpp/github_os/input/src/os_base\os_task_scheduler.c ****       OS_TerminateTask(task, scheduling_task_ptr);
 660              		.loc 1 397 0 is_stmt 1
 661 0515 8B45F0   		movl	-16(%ebp), %eax
 662 0518 89442404 		movl	%eax, 4(%esp)
 663 051c 8B45F4   		movl	-12(%ebp), %eax
 664 051f 890424   		movl	%eax, (%esp)
 665 0522 E8F7FEFF 		call	_OS_TerminateTask
 665      FF
 666              	L62:
 398:E:/NeuOrga/Programmieren/c_cpp/github_os/input/src/os_base\os_task_scheduler.c ****    }
 399:E:/NeuOrga/Programmieren/c_cpp/github_os/input/src/os_base\os_task_scheduler.c **** 
 400:E:/NeuOrga/Programmieren/c_cpp/github_os/input/src/os_base\os_task_scheduler.c **** 
 401:E:/NeuOrga/Programmieren/c_cpp/github_os/input/src/os_base\os_task_scheduler.c ****    /* ask for the next task to be activated... */
 402:E:/NeuOrga/Programmieren/c_cpp/github_os/input/src/os_base\os_task_scheduler.c ****    scheduling_task_ptr = OS_TaskScheduler();
 667              		.loc 1 402 0
 668 0527 E8080200 		call	_OS_TaskScheduler
 668      00
 669 052c 8945F0   		movl	%eax, -16(%ebp)
 403:E:/NeuOrga/Programmieren/c_cpp/github_os/input/src/os_base\os_task_scheduler.c ****    if(scheduling_task_ptr != 0)
 670              		.loc 1 403 0
 671 052f 837DF000 		cmpl	$0, -16(%ebp)
GAS LISTING C:\Users\PRESID~1\AppData\Local\Temp\cczg9UB2.s 			page 22


 672 0533 740E     		je	L63
 404:E:/NeuOrga/Programmieren/c_cpp/github_os/input/src/os_base\os_task_scheduler.c ****    {
 405:E:/NeuOrga/Programmieren/c_cpp/github_os/input/src/os_base\os_task_scheduler.c ****       task = GetFromTaskQueue(scheduling_task_ptr);
 673              		.loc 1 405 0
 674 0535 8B45F0   		movl	-16(%ebp), %eax
 675 0538 890424   		movl	%eax, (%esp)
 676 053b E8000000 		call	_GetFromTaskQueue
 676      00
 677 0540 8945F4   		movl	%eax, -12(%ebp)
 678              	L63:
 406:E:/NeuOrga/Programmieren/c_cpp/github_os/input/src/os_base\os_task_scheduler.c ****    }
 407:E:/NeuOrga/Programmieren/c_cpp/github_os/input/src/os_base\os_task_scheduler.c ****    if(task != 0 && scheduling_task_ptr != 0)
 679              		.loc 1 407 0
 680 0543 837DF400 		cmpl	$0, -12(%ebp)
 681 0547 7418     		je	L61
 682              		.loc 1 407 0 is_stmt 0 discriminator 1
 683 0549 837DF000 		cmpl	$0, -16(%ebp)
 684 054d 7412     		je	L61
 408:E:/NeuOrga/Programmieren/c_cpp/github_os/input/src/os_base\os_task_scheduler.c ****    {
 409:E:/NeuOrga/Programmieren/c_cpp/github_os/input/src/os_base\os_task_scheduler.c ****        OS_StartTask(task, scheduling_task_ptr);
 685              		.loc 1 409 0 is_stmt 1
 686 054f 8B45F0   		movl	-16(%ebp), %eax
 687 0552 89442404 		movl	%eax, 4(%esp)
 688 0556 8B45F4   		movl	-12(%ebp), %eax
 689 0559 890424   		movl	%eax, (%esp)
 690 055c E8B5FDFF 		call	_OS_StartTask
 690      FF
 691              	L61:
 410:E:/NeuOrga/Programmieren/c_cpp/github_os/input/src/os_base\os_task_scheduler.c ****    }
 411:E:/NeuOrga/Programmieren/c_cpp/github_os/input/src/os_base\os_task_scheduler.c **** }
 692              		.loc 1 411 0
 693 0561 C9       		leave
 694              		.cfi_restore 5
 695              		.cfi_def_cfa 4, 4
 696 0562 C3       		ret
 697              		.cfi_endproc
 698              	LFE8:
 700              	_TASK_0:
 701              	LFB9:
 412:E:/NeuOrga/Programmieren/c_cpp/github_os/input/src/os_base\os_task_scheduler.c **** Local void TASK_0(void* task_ptr)
 413:E:/NeuOrga/Programmieren/c_cpp/github_os/input/src/os_base\os_task_scheduler.c **** {
 702              		.loc 1 413 0
 703              		.cfi_startproc
 704 0563 55       		pushl	%ebp
 705              		.cfi_def_cfa_offset 8
 706              		.cfi_offset 5, -8
 707 0564 89E5     		movl	%esp, %ebp
 708              		.cfi_def_cfa_register 5
 414:E:/NeuOrga/Programmieren/c_cpp/github_os/input/src/os_base\os_task_scheduler.c ****    ReferenceUnusedParameter(task_ptr);
 415:E:/NeuOrga/Programmieren/c_cpp/github_os/input/src/os_base\os_task_scheduler.c ****    HaltMcu();/* HLT will be ended by timer interrupt, what shall be done with the rest of the funct
 416:E:/NeuOrga/Programmieren/c_cpp/github_os/input/src/os_base\os_task_scheduler.c **** }
 709              		.loc 1 416 0
 710 0566 5D       		popl	%ebp
 711              		.cfi_restore 5
 712              		.cfi_def_cfa 4, 4
 713 0567 C3       		ret
 714              		.cfi_endproc
GAS LISTING C:\Users\PRESID~1\AppData\Local\Temp\cczg9UB2.s 			page 23


 715              	LFE9:
 717              	_TASK_1:
 718              	LFB10:
 417:E:/NeuOrga/Programmieren/c_cpp/github_os/input/src/os_base\os_task_scheduler.c **** Local void TASK_1(void* task_ptr)
 418:E:/NeuOrga/Programmieren/c_cpp/github_os/input/src/os_base\os_task_scheduler.c **** {
 719              		.loc 1 418 0
 720              		.cfi_startproc
 721 0568 55       		pushl	%ebp
 722              		.cfi_def_cfa_offset 8
 723              		.cfi_offset 5, -8
 724 0569 89E5     		movl	%esp, %ebp
 725              		.cfi_def_cfa_register 5
 726 056b 83EC18   		subl	$24, %esp
 419:E:/NeuOrga/Programmieren/c_cpp/github_os/input/src/os_base\os_task_scheduler.c ****    ReferenceUnusedParameter(task_ptr);
 420:E:/NeuOrga/Programmieren/c_cpp/github_os/input/src/os_base\os_task_scheduler.c ****    /* worker task */
 421:E:/NeuOrga/Programmieren/c_cpp/github_os/input/src/os_base\os_task_scheduler.c **** 
 422:E:/NeuOrga/Programmieren/c_cpp/github_os/input/src/os_base\os_task_scheduler.c ****    /* do some things */
 423:E:/NeuOrga/Programmieren/c_cpp/github_os/input/src/os_base\os_task_scheduler.c ****    /*while(1) {}*/
 424:E:/NeuOrga/Programmieren/c_cpp/github_os/input/src/os_base\os_task_scheduler.c ****    TASK1_CALL_NR++;
 727              		.loc 1 424 0
 728 056e A1000000 		movl	_TASK1_CALL_NR, %eax
 728      00
 729 0573 40       		incl	%eax
 730 0574 A3000000 		movl	%eax, _TASK1_CALL_NR
 730      00
 425:E:/NeuOrga/Programmieren/c_cpp/github_os/input/src/os_base\os_task_scheduler.c ****    OS_SleepTask((task_t*)task_ptr, 10);
 731              		.loc 1 425 0
 732 0579 C7442404 		movl	$10, 4(%esp)
 732      0A000000 
 733 0581 8B4508   		movl	8(%ebp), %eax
 734 0584 890424   		movl	%eax, (%esp)
 735 0587 E879FAFF 		call	_OS_SleepTask
 735      FF
 426:E:/NeuOrga/Programmieren/c_cpp/github_os/input/src/os_base\os_task_scheduler.c ****    #if (CFG_PROCESSOR != cMCU_X86)
 427:E:/NeuOrga/Programmieren/c_cpp/github_os/input/src/os_base\os_task_scheduler.c ****    while(1) {}
 428:E:/NeuOrga/Programmieren/c_cpp/github_os/input/src/os_base\os_task_scheduler.c ****    #endif
 429:E:/NeuOrga/Programmieren/c_cpp/github_os/input/src/os_base\os_task_scheduler.c ****    /* end */
 430:E:/NeuOrga/Programmieren/c_cpp/github_os/input/src/os_base\os_task_scheduler.c **** }
 736              		.loc 1 430 0
 737 058c C9       		leave
 738              		.cfi_restore 5
 739              		.cfi_def_cfa 4, 4
 740 058d C3       		ret
 741              		.cfi_endproc
 742              	LFE10:
 744              	_TASK_2:
 745              	LFB11:
 431:E:/NeuOrga/Programmieren/c_cpp/github_os/input/src/os_base\os_task_scheduler.c **** Local void TASK_2(void* task_ptr)
 432:E:/NeuOrga/Programmieren/c_cpp/github_os/input/src/os_base\os_task_scheduler.c **** {
 746              		.loc 1 432 0
 747              		.cfi_startproc
 748 058e 55       		pushl	%ebp
 749              		.cfi_def_cfa_offset 8
 750              		.cfi_offset 5, -8
 751 058f 89E5     		movl	%esp, %ebp
 752              		.cfi_def_cfa_register 5
 433:E:/NeuOrga/Programmieren/c_cpp/github_os/input/src/os_base\os_task_scheduler.c ****    ReferenceUnusedParameter(task_ptr);
GAS LISTING C:\Users\PRESID~1\AppData\Local\Temp\cczg9UB2.s 			page 24


 434:E:/NeuOrga/Programmieren/c_cpp/github_os/input/src/os_base\os_task_scheduler.c ****    /* worker task */
 435:E:/NeuOrga/Programmieren/c_cpp/github_os/input/src/os_base\os_task_scheduler.c **** 
 436:E:/NeuOrga/Programmieren/c_cpp/github_os/input/src/os_base\os_task_scheduler.c ****    /* do some things */
 437:E:/NeuOrga/Programmieren/c_cpp/github_os/input/src/os_base\os_task_scheduler.c ****    TASK2_CALL_NR++;
 753              		.loc 1 437 0
 754 0591 A1000000 		movl	_TASK2_CALL_NR, %eax
 754      00
 755 0596 40       		incl	%eax
 756 0597 A3000000 		movl	%eax, _TASK2_CALL_NR
 756      00
 438:E:/NeuOrga/Programmieren/c_cpp/github_os/input/src/os_base\os_task_scheduler.c ****    #if (CFG_PROCESSOR != cMCU_X86)
 439:E:/NeuOrga/Programmieren/c_cpp/github_os/input/src/os_base\os_task_scheduler.c ****    while(1) {}
 440:E:/NeuOrga/Programmieren/c_cpp/github_os/input/src/os_base\os_task_scheduler.c ****    #endif
 441:E:/NeuOrga/Programmieren/c_cpp/github_os/input/src/os_base\os_task_scheduler.c ****    /* end */
 442:E:/NeuOrga/Programmieren/c_cpp/github_os/input/src/os_base\os_task_scheduler.c **** }
 757              		.loc 1 442 0
 758 059c 5D       		popl	%ebp
 759              		.cfi_restore 5
 760              		.cfi_def_cfa 4, 4
 761 059d C3       		ret
 762              		.cfi_endproc
 763              	LFE11:
 765              	_TASK_3:
 766              	LFB12:
 443:E:/NeuOrga/Programmieren/c_cpp/github_os/input/src/os_base\os_task_scheduler.c **** Local void TASK_3(void* task_ptr)
 444:E:/NeuOrga/Programmieren/c_cpp/github_os/input/src/os_base\os_task_scheduler.c **** {
 767              		.loc 1 444 0
 768              		.cfi_startproc
 769 059e 55       		pushl	%ebp
 770              		.cfi_def_cfa_offset 8
 771              		.cfi_offset 5, -8
 772 059f 89E5     		movl	%esp, %ebp
 773              		.cfi_def_cfa_register 5
 445:E:/NeuOrga/Programmieren/c_cpp/github_os/input/src/os_base\os_task_scheduler.c ****    ReferenceUnusedParameter(task_ptr);
 446:E:/NeuOrga/Programmieren/c_cpp/github_os/input/src/os_base\os_task_scheduler.c ****    /* worker task */
 447:E:/NeuOrga/Programmieren/c_cpp/github_os/input/src/os_base\os_task_scheduler.c **** 
 448:E:/NeuOrga/Programmieren/c_cpp/github_os/input/src/os_base\os_task_scheduler.c ****    /* do some things */
 449:E:/NeuOrga/Programmieren/c_cpp/github_os/input/src/os_base\os_task_scheduler.c ****    TASK3_CALL_NR++;
 774              		.loc 1 449 0
 775 05a1 A1000000 		movl	_TASK3_CALL_NR, %eax
 775      00
 776 05a6 40       		incl	%eax
 777 05a7 A3000000 		movl	%eax, _TASK3_CALL_NR
 777      00
 450:E:/NeuOrga/Programmieren/c_cpp/github_os/input/src/os_base\os_task_scheduler.c ****    #if (CFG_PROCESSOR != cMCU_X86)
 451:E:/NeuOrga/Programmieren/c_cpp/github_os/input/src/os_base\os_task_scheduler.c ****    while(1) {}
 452:E:/NeuOrga/Programmieren/c_cpp/github_os/input/src/os_base\os_task_scheduler.c ****    #endif
 453:E:/NeuOrga/Programmieren/c_cpp/github_os/input/src/os_base\os_task_scheduler.c ****    /* end */
 454:E:/NeuOrga/Programmieren/c_cpp/github_os/input/src/os_base\os_task_scheduler.c **** }
 778              		.loc 1 454 0
 779 05ac 5D       		popl	%ebp
 780              		.cfi_restore 5
 781              		.cfi_def_cfa 4, 4
 782 05ad C3       		ret
 783              		.cfi_endproc
 784              	LFE12:
 785              		.globl	_OS_InitTasks
GAS LISTING C:\Users\PRESID~1\AppData\Local\Temp\cczg9UB2.s 			page 25


 787              	_OS_InitTasks:
 788              	LFB13:
 455:E:/NeuOrga/Programmieren/c_cpp/github_os/input/src/os_base\os_task_scheduler.c **** void OS_InitTasks(void)
 456:E:/NeuOrga/Programmieren/c_cpp/github_os/input/src/os_base\os_task_scheduler.c **** {
 789              		.loc 1 456 0
 790              		.cfi_startproc
 791 05ae 55       		pushl	%ebp
 792              		.cfi_def_cfa_offset 8
 793              		.cfi_offset 5, -8
 794 05af 89E5     		movl	%esp, %ebp
 795              		.cfi_def_cfa_register 5
 796 05b1 83EC48   		subl	$72, %esp
 457:E:/NeuOrga/Programmieren/c_cpp/github_os/input/src/os_base\os_task_scheduler.c ****    task_t* task_ptr = 0;
 797              		.loc 1 457 0
 798 05b4 C745F400 		movl	$0, -12(%ebp)
 798      000000
 458:E:/NeuOrga/Programmieren/c_cpp/github_os/input/src/os_base\os_task_scheduler.c ****    LAST_CURRENT_TIME = OS_GetCurrentTime();
 799              		.loc 1 458 0
 800 05bb E8000000 		call	_OS_GetCurrentTime
 800      00
 801 05c0 A3000000 		movl	%eax, _LAST_CURRENT_TIME
 801      00
 459:E:/NeuOrga/Programmieren/c_cpp/github_os/input/src/os_base\os_task_scheduler.c **** 
 460:E:/NeuOrga/Programmieren/c_cpp/github_os/input/src/os_base\os_task_scheduler.c ****    ReferenceUnusedParameter (TASK_GROUP_1);
 461:E:/NeuOrga/Programmieren/c_cpp/github_os/input/src/os_base\os_task_scheduler.c ****    ReferenceUnusedParameter (TASK_GROUP_2);
 462:E:/NeuOrga/Programmieren/c_cpp/github_os/input/src/os_base\os_task_scheduler.c ****    ReferenceUnusedParameter (TASK_GROUP_3);
 463:E:/NeuOrga/Programmieren/c_cpp/github_os/input/src/os_base\os_task_scheduler.c ****    ReferenceUnusedParameter (TASK_GROUP_4);
 464:E:/NeuOrga/Programmieren/c_cpp/github_os/input/src/os_base\os_task_scheduler.c ****    ReferenceUnusedParameter (TASK_GROUP_5);
 465:E:/NeuOrga/Programmieren/c_cpp/github_os/input/src/os_base\os_task_scheduler.c **** 
 466:E:/NeuOrga/Programmieren/c_cpp/github_os/input/src/os_base\os_task_scheduler.c ****     /*
 467:E:/NeuOrga/Programmieren/c_cpp/github_os/input/src/os_base\os_task_scheduler.c ****    set task_state for all tasks to Task_unspecified
 468:E:/NeuOrga/Programmieren/c_cpp/github_os/input/src/os_base\os_task_scheduler.c ****     */
 469:E:/NeuOrga/Programmieren/c_cpp/github_os/input/src/os_base\os_task_scheduler.c ****    OS_InitTaskQueue();
 802              		.loc 1 469 0
 803 05c5 E8000000 		call	_OS_InitTaskQueue
 803      00
 470:E:/NeuOrga/Programmieren/c_cpp/github_os/input/src/os_base\os_task_scheduler.c **** 
 471:E:/NeuOrga/Programmieren/c_cpp/github_os/input/src/os_base\os_task_scheduler.c ****    /* setup idle task */
 472:E:/NeuOrga/Programmieren/c_cpp/github_os/input/src/os_base\os_task_scheduler.c ****    task_ptr = &TASK_0_VAR;
 804              		.loc 1 472 0
 805 05ca C745F400 		movl	$_TASK_0_VAR, -12(%ebp)
 805      000000
 473:E:/NeuOrga/Programmieren/c_cpp/github_os/input/src/os_base\os_task_scheduler.c ****    OS_InitTask(task_ptr,                          /* task */
 806              		.loc 1 473 0
 807 05d1 C7442424 		movl	$0, 36(%esp)
 807      00000000 
 808 05d9 C7442420 		movl	$0, 32(%esp)
 808      00000000 
 809 05e1 C744241C 		movl	$0, 28(%esp)
 809      00000000 
 810 05e9 C7442418 		movl	$200, 24(%esp)
 810      C8000000 
 811 05f1 C7442414 		movl	$_TASK_STACK, 20(%esp)
 811      00000000 
 812 05f9 C7442410 		movl	$_TASK_GROUP_1, 16(%esp)
 812      00000000 
 813 0601 C744240C 		movl	$1, 12(%esp)
GAS LISTING C:\Users\PRESID~1\AppData\Local\Temp\cczg9UB2.s 			page 26


 813      01000000 
 814 0609 C7442408 		movl	$1, 8(%esp)
 814      01000000 
 815 0611 C7442404 		movl	$_TASK_0, 4(%esp)
 815      63050000 
 816 0619 8B45F4   		movl	-12(%ebp), %eax
 817 061c 890424   		movl	%eax, (%esp)
 818 061f E8000000 		call	_OS_InitTask
 818      00
 474:E:/NeuOrga/Programmieren/c_cpp/github_os/input/src/os_base\os_task_scheduler.c ****                 &TASK_0,                           /* Task Function*/
 475:E:/NeuOrga/Programmieren/c_cpp/github_os/input/src/os_base\os_task_scheduler.c ****                 1,                                 /* Nr of allowed instances*/
 476:E:/NeuOrga/Programmieren/c_cpp/github_os/input/src/os_base\os_task_scheduler.c ****                 True,                              /* Idle Task */
 477:E:/NeuOrga/Programmieren/c_cpp/github_os/input/src/os_base\os_task_scheduler.c ****                 &TASK_GROUP_1,                     /* Task Group */
 478:E:/NeuOrga/Programmieren/c_cpp/github_os/input/src/os_base\os_task_scheduler.c ****                 (unsigned_char_t*)&TASK_STACK[0],  /* Task_stack */
 479:E:/NeuOrga/Programmieren/c_cpp/github_os/input/src/os_base\os_task_scheduler.c ****                 200,                                /* Stack Size */
 480:E:/NeuOrga/Programmieren/c_cpp/github_os/input/src/os_base\os_task_scheduler.c ****                 ePriviligeMode_unpriviliged_thread_mode, /* Unpriviliged Thread Mode */
 481:E:/NeuOrga/Programmieren/c_cpp/github_os/input/src/os_base\os_task_scheduler.c ****                 Core0,                            /* Cortex M4 has only 1 core */
 482:E:/NeuOrga/Programmieren/c_cpp/github_os/input/src/os_base\os_task_scheduler.c ****                 0                                   /* default prio */
 483:E:/NeuOrga/Programmieren/c_cpp/github_os/input/src/os_base\os_task_scheduler.c ****                );
 484:E:/NeuOrga/Programmieren/c_cpp/github_os/input/src/os_base\os_task_scheduler.c ****    OS_SaveTaskPtr(task_ptr, Task_0_ptr);
 485:E:/NeuOrga/Programmieren/c_cpp/github_os/input/src/os_base\os_task_scheduler.c **** 
 486:E:/NeuOrga/Programmieren/c_cpp/github_os/input/src/os_base\os_task_scheduler.c ****    /* setup worker task */
 487:E:/NeuOrga/Programmieren/c_cpp/github_os/input/src/os_base\os_task_scheduler.c ****    task_ptr = &TASK_1_VAR;
 819              		.loc 1 487 0
 820 0624 C745F400 		movl	$_TASK_1_VAR, -12(%ebp)
 820      000000
 488:E:/NeuOrga/Programmieren/c_cpp/github_os/input/src/os_base\os_task_scheduler.c ****    OS_InitTask(task_ptr,      /* task */
 821              		.loc 1 488 0
 822 062b C7442424 		movl	$1, 36(%esp)
 822      01000000 
 823 0633 C7442420 		movl	$0, 32(%esp)
 823      00000000 
 824 063b C744241C 		movl	$0, 28(%esp)
 824      00000000 
 825 0643 C7442418 		movl	$200, 24(%esp)
 825      C8000000 
 826 064b C7442414 		movl	$_TASK_STACK+200, 20(%esp)
 826      C8000000 
 827 0653 C7442410 		movl	$_TASK_GROUP_1, 16(%esp)
 827      00000000 
 828 065b C744240C 		movl	$0, 12(%esp)
 828      00000000 
 829 0663 C7442408 		movl	$1, 8(%esp)
 829      01000000 
 830 066b C7442404 		movl	$_TASK_1, 4(%esp)
 830      68050000 
 831 0673 8B45F4   		movl	-12(%ebp), %eax
 832 0676 890424   		movl	%eax, (%esp)
 833 0679 E8000000 		call	_OS_InitTask
 833      00
 489:E:/NeuOrga/Programmieren/c_cpp/github_os/input/src/os_base\os_task_scheduler.c ****                 &TASK_1,       /* Task Function*/
 490:E:/NeuOrga/Programmieren/c_cpp/github_os/input/src/os_base\os_task_scheduler.c ****                 1,             /* Nr of allowed instances*/
 491:E:/NeuOrga/Programmieren/c_cpp/github_os/input/src/os_base\os_task_scheduler.c ****                 False,          /* Idle Task */
 492:E:/NeuOrga/Programmieren/c_cpp/github_os/input/src/os_base\os_task_scheduler.c ****                 &TASK_GROUP_1, /* Task Group */
 493:E:/NeuOrga/Programmieren/c_cpp/github_os/input/src/os_base\os_task_scheduler.c ****                 (unsigned_char_t*)&TASK_STACK[1],/* Task_stack */
 494:E:/NeuOrga/Programmieren/c_cpp/github_os/input/src/os_base\os_task_scheduler.c ****                 200,            /* Stack Size */
 495:E:/NeuOrga/Programmieren/c_cpp/github_os/input/src/os_base\os_task_scheduler.c ****                 ePriviligeMode_unpriviliged_thread_mode, /* Unpriviliged Thread Mode */
GAS LISTING C:\Users\PRESID~1\AppData\Local\Temp\cczg9UB2.s 			page 27


 496:E:/NeuOrga/Programmieren/c_cpp/github_os/input/src/os_base\os_task_scheduler.c ****                 Core0,
 497:E:/NeuOrga/Programmieren/c_cpp/github_os/input/src/os_base\os_task_scheduler.c ****                 1                                   /* default prio */
 498:E:/NeuOrga/Programmieren/c_cpp/github_os/input/src/os_base\os_task_scheduler.c ****                );
 499:E:/NeuOrga/Programmieren/c_cpp/github_os/input/src/os_base\os_task_scheduler.c ****    OS_SaveTaskPtr(task_ptr, Task_1_ptr);
 500:E:/NeuOrga/Programmieren/c_cpp/github_os/input/src/os_base\os_task_scheduler.c **** 
 501:E:/NeuOrga/Programmieren/c_cpp/github_os/input/src/os_base\os_task_scheduler.c ****    /* setup worker task */
 502:E:/NeuOrga/Programmieren/c_cpp/github_os/input/src/os_base\os_task_scheduler.c ****    task_ptr = &TASK_2_VAR;
 834              		.loc 1 502 0
 835 067e C745F400 		movl	$_TASK_2_VAR, -12(%ebp)
 835      000000
 503:E:/NeuOrga/Programmieren/c_cpp/github_os/input/src/os_base\os_task_scheduler.c ****    OS_InitTask(task_ptr,      /* task */
 836              		.loc 1 503 0
 837 0685 C7442424 		movl	$2, 36(%esp)
 837      02000000 
 838 068d C7442420 		movl	$0, 32(%esp)
 838      00000000 
 839 0695 C744241C 		movl	$0, 28(%esp)
 839      00000000 
 840 069d C7442418 		movl	$200, 24(%esp)
 840      C8000000 
 841 06a5 C7442414 		movl	$_TASK_STACK+400, 20(%esp)
 841      90010000 
 842 06ad C7442410 		movl	$_TASK_GROUP_2, 16(%esp)
 842      00000000 
 843 06b5 C744240C 		movl	$0, 12(%esp)
 843      00000000 
 844 06bd C7442408 		movl	$1, 8(%esp)
 844      01000000 
 845 06c5 C7442404 		movl	$_TASK_2, 4(%esp)
 845      8E050000 
 846 06cd 8B45F4   		movl	-12(%ebp), %eax
 847 06d0 890424   		movl	%eax, (%esp)
 848 06d3 E8000000 		call	_OS_InitTask
 848      00
 504:E:/NeuOrga/Programmieren/c_cpp/github_os/input/src/os_base\os_task_scheduler.c ****                 &TASK_2,       /* Task Function*/
 505:E:/NeuOrga/Programmieren/c_cpp/github_os/input/src/os_base\os_task_scheduler.c ****                 1,             /* Nr of allowed instances*/
 506:E:/NeuOrga/Programmieren/c_cpp/github_os/input/src/os_base\os_task_scheduler.c ****                 False,          /* Idle Task */
 507:E:/NeuOrga/Programmieren/c_cpp/github_os/input/src/os_base\os_task_scheduler.c ****                 &TASK_GROUP_2, /* Task Group */
 508:E:/NeuOrga/Programmieren/c_cpp/github_os/input/src/os_base\os_task_scheduler.c ****                 (unsigned_char_t*)&TASK_STACK[2],/* Task_stack */
 509:E:/NeuOrga/Programmieren/c_cpp/github_os/input/src/os_base\os_task_scheduler.c ****                 200,            /* Stack Size */
 510:E:/NeuOrga/Programmieren/c_cpp/github_os/input/src/os_base\os_task_scheduler.c ****                 ePriviligeMode_unpriviliged_thread_mode, /* Unpriviliged Thread Mode */
 511:E:/NeuOrga/Programmieren/c_cpp/github_os/input/src/os_base\os_task_scheduler.c ****                 Core0,
 512:E:/NeuOrga/Programmieren/c_cpp/github_os/input/src/os_base\os_task_scheduler.c ****                 2                                   /* default prio */
 513:E:/NeuOrga/Programmieren/c_cpp/github_os/input/src/os_base\os_task_scheduler.c ****                );
 514:E:/NeuOrga/Programmieren/c_cpp/github_os/input/src/os_base\os_task_scheduler.c ****    OS_SaveTaskPtr(task_ptr, Task_2_ptr);
 515:E:/NeuOrga/Programmieren/c_cpp/github_os/input/src/os_base\os_task_scheduler.c **** 
 516:E:/NeuOrga/Programmieren/c_cpp/github_os/input/src/os_base\os_task_scheduler.c ****    /* setup worker task */
 517:E:/NeuOrga/Programmieren/c_cpp/github_os/input/src/os_base\os_task_scheduler.c ****    task_ptr = &TASK_3_VAR;
 849              		.loc 1 517 0
 850 06d8 C745F400 		movl	$_TASK_3_VAR, -12(%ebp)
 850      000000
 518:E:/NeuOrga/Programmieren/c_cpp/github_os/input/src/os_base\os_task_scheduler.c ****    OS_InitTask(task_ptr,      /* task */
 851              		.loc 1 518 0
 852 06df C7442424 		movl	$3, 36(%esp)
 852      03000000 
 853 06e7 C7442420 		movl	$0, 32(%esp)
 853      00000000 
GAS LISTING C:\Users\PRESID~1\AppData\Local\Temp\cczg9UB2.s 			page 28


 854 06ef C744241C 		movl	$0, 28(%esp)
 854      00000000 
 855 06f7 C7442418 		movl	$200, 24(%esp)
 855      C8000000 
 856 06ff C7442414 		movl	$_TASK_STACK+600, 20(%esp)
 856      58020000 
 857 0707 C7442410 		movl	$_TASK_GROUP_3, 16(%esp)
 857      00000000 
 858 070f C744240C 		movl	$0, 12(%esp)
 858      00000000 
 859 0717 C7442408 		movl	$1, 8(%esp)
 859      01000000 
 860 071f C7442404 		movl	$_TASK_3, 4(%esp)
 860      9E050000 
 861 0727 8B45F4   		movl	-12(%ebp), %eax
 862 072a 890424   		movl	%eax, (%esp)
 863 072d E8000000 		call	_OS_InitTask
 863      00
 519:E:/NeuOrga/Programmieren/c_cpp/github_os/input/src/os_base\os_task_scheduler.c ****                 &TASK_3,       /* Task Function*/
 520:E:/NeuOrga/Programmieren/c_cpp/github_os/input/src/os_base\os_task_scheduler.c ****                 1,             /* Nr of allowed instances*/
 521:E:/NeuOrga/Programmieren/c_cpp/github_os/input/src/os_base\os_task_scheduler.c ****                 False,          /* Idle Task */
 522:E:/NeuOrga/Programmieren/c_cpp/github_os/input/src/os_base\os_task_scheduler.c ****                 &TASK_GROUP_3, /* Task Group */
 523:E:/NeuOrga/Programmieren/c_cpp/github_os/input/src/os_base\os_task_scheduler.c ****                 (unsigned_char_t*)&TASK_STACK[3],/* Task_stack */
 524:E:/NeuOrga/Programmieren/c_cpp/github_os/input/src/os_base\os_task_scheduler.c ****                 200,           /* Stack Size */
 525:E:/NeuOrga/Programmieren/c_cpp/github_os/input/src/os_base\os_task_scheduler.c ****                 ePriviligeMode_unpriviliged_thread_mode, /* Unpriviliged Thread Mode */
 526:E:/NeuOrga/Programmieren/c_cpp/github_os/input/src/os_base\os_task_scheduler.c ****                 Core0,
 527:E:/NeuOrga/Programmieren/c_cpp/github_os/input/src/os_base\os_task_scheduler.c ****                 3                                   /* default prio */
 528:E:/NeuOrga/Programmieren/c_cpp/github_os/input/src/os_base\os_task_scheduler.c ****                );
 529:E:/NeuOrga/Programmieren/c_cpp/github_os/input/src/os_base\os_task_scheduler.c ****    OS_SaveTaskPtr(task_ptr, Task_3_ptr);
 530:E:/NeuOrga/Programmieren/c_cpp/github_os/input/src/os_base\os_task_scheduler.c **** }
 864              		.loc 1 530 0
 865 0732 C9       		leave
 866              		.cfi_restore 5
 867              		.cfi_def_cfa 4, 4
 868 0733 C3       		ret
 869              		.cfi_endproc
 870              	LFE13:
 872              	_OS_TaskScheduler:
 873              	LFB14:
 531:E:/NeuOrga/Programmieren/c_cpp/github_os/input/src/os_base\os_task_scheduler.c **** 
 532:E:/NeuOrga/Programmieren/c_cpp/github_os/input/src/os_base\os_task_scheduler.c **** 
 533:E:/NeuOrga/Programmieren/c_cpp/github_os/input/src/os_base\os_task_scheduler.c **** Local scheduling_t* OS_TaskScheduler(void)
 534:E:/NeuOrga/Programmieren/c_cpp/github_os/input/src/os_base\os_task_scheduler.c **** {
 874              		.loc 1 534 0
 875              		.cfi_startproc
 876 0734 55       		pushl	%ebp
 877              		.cfi_def_cfa_offset 8
 878              		.cfi_offset 5, -8
 879 0735 89E5     		movl	%esp, %ebp
 880              		.cfi_def_cfa_register 5
 881 0737 53       		pushl	%ebx
 882 0738 83EC44   		subl	$68, %esp
 883              		.cfi_offset 3, -12
 535:E:/NeuOrga/Programmieren/c_cpp/github_os/input/src/os_base\os_task_scheduler.c **** 
 536:E:/NeuOrga/Programmieren/c_cpp/github_os/input/src/os_base\os_task_scheduler.c ****    scheduling_t*    scheduling_queue_member;
 537:E:/NeuOrga/Programmieren/c_cpp/github_os/input/src/os_base\os_task_scheduler.c ****    unsigned_char_t element_nr;
 538:E:/NeuOrga/Programmieren/c_cpp/github_os/input/src/os_base\os_task_scheduler.c **** 
GAS LISTING C:\Users\PRESID~1\AppData\Local\Temp\cczg9UB2.s 			page 29


 539:E:/NeuOrga/Programmieren/c_cpp/github_os/input/src/os_base\os_task_scheduler.c ****    unsigned_char_t Winner_prio = 0;
 884              		.loc 1 539 0
 885 073b C645F600 		movb	$0, -10(%ebp)
 540:E:/NeuOrga/Programmieren/c_cpp/github_os/input/src/os_base\os_task_scheduler.c ****    task_t*         task = 0;
 886              		.loc 1 540 0
 887 073f C745EC00 		movl	$0, -20(%ebp)
 887      000000
 541:E:/NeuOrga/Programmieren/c_cpp/github_os/input/src/os_base\os_task_scheduler.c ****    task_t*         Winner_task = 0;
 888              		.loc 1 541 0
 889 0746 C745E800 		movl	$0, -24(%ebp)
 889      000000
 542:E:/NeuOrga/Programmieren/c_cpp/github_os/input/src/os_base\os_task_scheduler.c ****    scheduling_t*   Winner_scheduling_queue_member = 0;
 890              		.loc 1 542 0
 891 074d C745F000 		movl	$0, -16(%ebp)
 891      000000
 543:E:/NeuOrga/Programmieren/c_cpp/github_os/input/src/os_base\os_task_scheduler.c ****    scheduler_time_t delta_time = OS_GetCurrentTime() - LAST_CURRENT_TIME;
 892              		.loc 1 543 0
 893 0754 E8000000 		call	_OS_GetCurrentTime
 893      00
 894 0759 89C2     		movl	%eax, %edx
 895 075b A1000000 		movl	_LAST_CURRENT_TIME, %eax
 895      00
 896 0760 29C2     		subl	%eax, %edx
 897 0762 89D0     		movl	%edx, %eax
 898 0764 8945E4   		movl	%eax, -28(%ebp)
 544:E:/NeuOrga/Programmieren/c_cpp/github_os/input/src/os_base\os_task_scheduler.c **** 
 545:E:/NeuOrga/Programmieren/c_cpp/github_os/input/src/os_base\os_task_scheduler.c ****    LAST_CURRENT_TIME = OS_GetCurrentTime();
 899              		.loc 1 545 0
 900 0767 E8000000 		call	_OS_GetCurrentTime
 900      00
 901 076c A3000000 		movl	%eax, _LAST_CURRENT_TIME
 901      00
 546:E:/NeuOrga/Programmieren/c_cpp/github_os/input/src/os_base\os_task_scheduler.c **** 
 547:E:/NeuOrga/Programmieren/c_cpp/github_os/input/src/os_base\os_task_scheduler.c ****    ReferenceUnusedParameter(Winner_task);
 548:E:/NeuOrga/Programmieren/c_cpp/github_os/input/src/os_base\os_task_scheduler.c ****    /*
 549:E:/NeuOrga/Programmieren/c_cpp/github_os/input/src/os_base\os_task_scheduler.c ****    x const for single task: task->default_prio // low = 0,.....high=100
 550:E:/NeuOrga/Programmieren/c_cpp/github_os/input/src/os_base\os_task_scheduler.c ****    x var   for single task: task->current_prio // see prio_std
 551:E:/NeuOrga/Programmieren/c_cpp/github_os/input/src/os_base\os_task_scheduler.c ****    x var   for single task: task->wait_time    //
 552:E:/NeuOrga/Programmieren/c_cpp/github_os/input/src/os_base\os_task_scheduler.c ****    x var   for single task: task->exe_time
 553:E:/NeuOrga/Programmieren/c_cpp/github_os/input/src/os_base\os_task_scheduler.c ****    x const for single task: task->TimeToPrioInc
 554:E:/NeuOrga/Programmieren/c_cpp/github_os/input/src/os_base\os_task_scheduler.c ****    x const for single task: task->max_allowed_wait_time
 555:E:/NeuOrga/Programmieren/c_cpp/github_os/input/src/os_base\os_task_scheduler.c ****    x const for single task: task->min_allowed_wait_time
 556:E:/NeuOrga/Programmieren/c_cpp/github_os/input/src/os_base\os_task_scheduler.c ****    x const for single task: task->overwaittime_per_prio_inc_step //e.g. 100*MinTimeSlice_us
 557:E:/NeuOrga/Programmieren/c_cpp/github_os/input/src/os_base\os_task_scheduler.c ****    x const for single task: task->task_group  //to allow processor access control by groups (e.g. u
 558:E:/NeuOrga/Programmieren/c_cpp/github_os/input/src/os_base\os_task_scheduler.c ****    x const for single task: task->WaitActUntil
 559:E:/NeuOrga/Programmieren/c_cpp/github_os/input/src/os_base\os_task_scheduler.c ****    (task_group is designed to allow proccessor access control between e.g. Customer Software Task a
 560:E:/NeuOrga/Programmieren/c_cpp/github_os/input/src/os_base\os_task_scheduler.c ****    */
 561:E:/NeuOrga/Programmieren/c_cpp/github_os/input/src/os_base\os_task_scheduler.c ****    For_all_tasks_in_queue(element_nr)
 902              		.loc 1 561 0
 903 0771 C645F700 		movb	$0, -9(%ebp)
 904 0775 E9FA0000 		jmp	L71
 904      00
 905              	L79:
 562:E:/NeuOrga/Programmieren/c_cpp/github_os/input/src/os_base\os_task_scheduler.c ****    {
 563:E:/NeuOrga/Programmieren/c_cpp/github_os/input/src/os_base\os_task_scheduler.c ****       scheduling_queue_member = GetFromSchedulingQueue(element_nr);
 906              		.loc 1 563 0
 907 077a 0FB645F7 		movzbl	-9(%ebp), %eax
GAS LISTING C:\Users\PRESID~1\AppData\Local\Temp\cczg9UB2.s 			page 30


 908 077e 890424   		movl	%eax, (%esp)
 909 0781 E8000000 		call	_GetFromSchedulingQueue
 909      00
 910 0786 8945E0   		movl	%eax, -32(%ebp)
 564:E:/NeuOrga/Programmieren/c_cpp/github_os/input/src/os_base\os_task_scheduler.c ****       /*task will have a pointer on the task_obj, and might be equal to "(task_t*) 0" */
 565:E:/NeuOrga/Programmieren/c_cpp/github_os/input/src/os_base\os_task_scheduler.c ****       task             = GetFromTaskQueue(scheduling_queue_member);
 911              		.loc 1 565 0
 912 0789 8B45E0   		movl	-32(%ebp), %eax
 913 078c 890424   		movl	%eax, (%esp)
 914 078f E8000000 		call	_GetFromTaskQueue
 914      00
 915 0794 8945EC   		movl	%eax, -20(%ebp)
 566:E:/NeuOrga/Programmieren/c_cpp/github_os/input/src/os_base\os_task_scheduler.c ****       /* increase prio: high numbers->high prio */
 567:E:/NeuOrga/Programmieren/c_cpp/github_os/input/src/os_base\os_task_scheduler.c ****       if((task != 0)&&(task->task_queued != False))
 916              		.loc 1 567 0
 917 0797 837DEC00 		cmpl	$0, -20(%ebp)
 918 079b 0F84CC00 		je	L72
 918      0000
 919              		.loc 1 567 0 is_stmt 0 discriminator 1
 920 07a1 8B45EC   		movl	-20(%ebp), %eax
 921 07a4 8A00     		movb	(%eax), %al
 922 07a6 83E002   		andl	$2, %eax
 923 07a9 84C0     		testb	%al, %al
 924 07ab 0F84BC00 		je	L72
 924      0000
 568:E:/NeuOrga/Programmieren/c_cpp/github_os/input/src/os_base\os_task_scheduler.c ****       {
 569:E:/NeuOrga/Programmieren/c_cpp/github_os/input/src/os_base\os_task_scheduler.c ****          if(task->wait_time >= task->TimeToPrioInc)
 925              		.loc 1 569 0 is_stmt 1
 926 07b1 8B45EC   		movl	-20(%ebp), %eax
 927 07b4 8B500C   		movl	12(%eax), %edx
 928 07b7 8B45EC   		movl	-20(%ebp), %eax
 929 07ba 8B4010   		movl	16(%eax), %eax
 930 07bd 39C2     		cmpl	%eax, %edx
 931 07bf 7214     		jb	L73
 570:E:/NeuOrga/Programmieren/c_cpp/github_os/input/src/os_base\os_task_scheduler.c ****          {
 571:E:/NeuOrga/Programmieren/c_cpp/github_os/input/src/os_base\os_task_scheduler.c ****             task->current_prio = task->current_prio + task->overwaittime_per_prio_inc_step;
 932              		.loc 1 571 0
 933 07c1 8B45EC   		movl	-20(%ebp), %eax
 934 07c4 8A5024   		movb	36(%eax), %dl
 935 07c7 8B45EC   		movl	-20(%ebp), %eax
 936 07ca 8B4014   		movl	20(%eax), %eax
 937 07cd 01C2     		addl	%eax, %edx
 938 07cf 8B45EC   		movl	-20(%ebp), %eax
 939 07d2 885024   		movb	%dl, 36(%eax)
 940              	L73:
 572:E:/NeuOrga/Programmieren/c_cpp/github_os/input/src/os_base\os_task_scheduler.c ****          }
 573:E:/NeuOrga/Programmieren/c_cpp/github_os/input/src/os_base\os_task_scheduler.c ****          /* in case wait condition not yet fulfilled, set prio to 0 */
 574:E:/NeuOrga/Programmieren/c_cpp/github_os/input/src/os_base\os_task_scheduler.c ****          if(task->WaitActUntil > OS_GetCurrentTime())
 941              		.loc 1 574 0
 942 07d5 8B45EC   		movl	-20(%ebp), %eax
 943 07d8 8B5808   		movl	8(%eax), %ebx
 944 07db E8000000 		call	_OS_GetCurrentTime
 944      00
 945 07e0 39C3     		cmpl	%eax, %ebx
 946 07e2 7607     		jbe	L74
 575:E:/NeuOrga/Programmieren/c_cpp/github_os/input/src/os_base\os_task_scheduler.c ****          {
 576:E:/NeuOrga/Programmieren/c_cpp/github_os/input/src/os_base\os_task_scheduler.c ****             task->current_prio = 0;
GAS LISTING C:\Users\PRESID~1\AppData\Local\Temp\cczg9UB2.s 			page 31


 947              		.loc 1 576 0
 948 07e4 8B45EC   		movl	-20(%ebp), %eax
 949 07e7 C6402400 		movb	$0, 36(%eax)
 950              	L74:
 577:E:/NeuOrga/Programmieren/c_cpp/github_os/input/src/os_base\os_task_scheduler.c ****          }
 578:E:/NeuOrga/Programmieren/c_cpp/github_os/input/src/os_base\os_task_scheduler.c ****          if(task->wait_time > task->max_allowed_wait_time)
 951              		.loc 1 578 0
 952 07eb 8B45EC   		movl	-20(%ebp), %eax
 953 07ee 8B500C   		movl	12(%eax), %edx
 954 07f1 8B45EC   		movl	-20(%ebp), %eax
 955 07f4 8B4018   		movl	24(%eax), %eax
 956 07f7 39C2     		cmpl	%eax, %edx
 957 07f9 7614     		jbe	L75
 579:E:/NeuOrga/Programmieren/c_cpp/github_os/input/src/os_base\os_task_scheduler.c ****          {
 580:E:/NeuOrga/Programmieren/c_cpp/github_os/input/src/os_base\os_task_scheduler.c ****             /* set bug */
 581:E:/NeuOrga/Programmieren/c_cpp/github_os/input/src/os_base\os_task_scheduler.c ****             OS_SetSwBug(os_bug_task_max_wait_time_reached, Func_TaskScheduler);
 958              		.loc 1 581 0
 959 07fb C7442404 		movl	$8, 4(%esp)
 959      08000000 
 960 0803 C7042403 		movl	$3, (%esp)
 960      000000
 961 080a E8000000 		call	_OS_SetSwBug
 961      00
 962              	L75:
 582:E:/NeuOrga/Programmieren/c_cpp/github_os/input/src/os_base\os_task_scheduler.c ****          }
 583:E:/NeuOrga/Programmieren/c_cpp/github_os/input/src/os_base\os_task_scheduler.c ****          /* not active TASK_RUN_QUEUE elements have no valid task_group!!*/
 584:E:/NeuOrga/Programmieren/c_cpp/github_os/input/src/os_base\os_task_scheduler.c ****          if(task->task_group!=0)
 963              		.loc 1 584 0
 964 080f 8B45EC   		movl	-20(%ebp), %eax
 965 0812 8B4038   		movl	56(%eax), %eax
 966 0815 85C0     		testl	%eax, %eax
 967 0817 7440     		je	L76
 585:E:/NeuOrga/Programmieren/c_cpp/github_os/input/src/os_base\os_task_scheduler.c ****          {
 586:E:/NeuOrga/Programmieren/c_cpp/github_os/input/src/os_base\os_task_scheduler.c ****             /* usage the exe time for scheduling strategy */
 587:E:/NeuOrga/Programmieren/c_cpp/github_os/input/src/os_base\os_task_scheduler.c ****             if(task->task_group->exe_time > task->task_group->fair_exe_time)
 968              		.loc 1 587 0
 969 0819 8B45EC   		movl	-20(%ebp), %eax
 970 081c 8B4038   		movl	56(%eax), %eax
 971 081f 8B10     		movl	(%eax), %edx
 972 0821 8B45EC   		movl	-20(%ebp), %eax
 973 0824 8B4038   		movl	56(%eax), %eax
 974 0827 8B4004   		movl	4(%eax), %eax
 975 082a 39C2     		cmpl	%eax, %edx
 976 082c 763F     		jbe	L72
 588:E:/NeuOrga/Programmieren/c_cpp/github_os/input/src/os_base\os_task_scheduler.c ****             {
 589:E:/NeuOrga/Programmieren/c_cpp/github_os/input/src/os_base\os_task_scheduler.c ****                if(task->exe_time > Task_min_time)/* guarantee min time */
 977              		.loc 1 589 0
 978 082e 8B45EC   		movl	-20(%ebp), %eax
 979 0831 8B401C   		movl	28(%eax), %eax
 980 0834 8945D0   		movl	%eax, -48(%ebp)
 981 0837 C745D400 		movl	$0, -44(%ebp)
 981      000000
 982 083e DF6DD0   		fildq	-48(%ebp)
 983 0841 D9E8     		fld1
 984 0843 D9C9     		fxch	%st(1)
 985 0845 DAE9     		fucompp
 986 0847 DFE0     		fnstsw	%ax
GAS LISTING C:\Users\PRESID~1\AppData\Local\Temp\cczg9UB2.s 			page 32


 987 0849 F6C445   		testb	$69, %ah
 988 084c 7402     		je	L85
 989 084e EB1D     		jmp	L72
 990              	L85:
 590:E:/NeuOrga/Programmieren/c_cpp/github_os/input/src/os_base\os_task_scheduler.c ****                {
 591:E:/NeuOrga/Programmieren/c_cpp/github_os/input/src/os_base\os_task_scheduler.c ****                   task->current_prio = 0;
 991              		.loc 1 591 0
 992 0850 8B45EC   		movl	-20(%ebp), %eax
 993 0853 C6402400 		movb	$0, 36(%eax)
 994 0857 EB14     		jmp	L72
 995              	L76:
 592:E:/NeuOrga/Programmieren/c_cpp/github_os/input/src/os_base\os_task_scheduler.c **** 
 593:E:/NeuOrga/Programmieren/c_cpp/github_os/input/src/os_base\os_task_scheduler.c ****                }
 594:E:/NeuOrga/Programmieren/c_cpp/github_os/input/src/os_base\os_task_scheduler.c ****             }
 595:E:/NeuOrga/Programmieren/c_cpp/github_os/input/src/os_base\os_task_scheduler.c ****          }
 596:E:/NeuOrga/Programmieren/c_cpp/github_os/input/src/os_base\os_task_scheduler.c ****          else
 597:E:/NeuOrga/Programmieren/c_cpp/github_os/input/src/os_base\os_task_scheduler.c ****          {
 598:E:/NeuOrga/Programmieren/c_cpp/github_os/input/src/os_base\os_task_scheduler.c ****             OS_SetSwBug(os_bug_null_pointer, Func_TaskScheduler);
 996              		.loc 1 598 0
 997 0859 C7442404 		movl	$8, 4(%esp)
 997      08000000 
 998 0861 C7042402 		movl	$2, (%esp)
 998      000000
 999 0868 E8000000 		call	_OS_SetSwBug
 999      00
 1000              	L72:
 561:E:/NeuOrga/Programmieren/c_cpp/github_os/input/src/os_base\os_task_scheduler.c ****    {
 1001              		.loc 1 561 0 discriminator 2
 1002 086d 8A45F7   		movb	-9(%ebp), %al
 1003 0870 40       		incl	%eax
 1004 0871 8845F7   		movb	%al, -9(%ebp)
 1005              	L71:
 561:E:/NeuOrga/Programmieren/c_cpp/github_os/input/src/os_base\os_task_scheduler.c ****    {
 1006              		.loc 1 561 0 is_stmt 0 discriminator 1
 1007 0874 807DF704 		cmpb	$4, -9(%ebp)
 1008 0878 0F86FCFE 		jbe	L79
 1008      FFFF
 599:E:/NeuOrga/Programmieren/c_cpp/github_os/input/src/os_base\os_task_scheduler.c ****          }
 600:E:/NeuOrga/Programmieren/c_cpp/github_os/input/src/os_base\os_task_scheduler.c ****       }
 601:E:/NeuOrga/Programmieren/c_cpp/github_os/input/src/os_base\os_task_scheduler.c ****       /* do not set bug, because task =0 is used for empty queue elements
 602:E:/NeuOrga/Programmieren/c_cpp/github_os/input/src/os_base\os_task_scheduler.c ****       else
 603:E:/NeuOrga/Programmieren/c_cpp/github_os/input/src/os_base\os_task_scheduler.c ****       {
 604:E:/NeuOrga/Programmieren/c_cpp/github_os/input/src/os_base\os_task_scheduler.c ****           OS_SetSwBug(os_bug_null_pointer, Func_TaskScheduler);
 605:E:/NeuOrga/Programmieren/c_cpp/github_os/input/src/os_base\os_task_scheduler.c ****       }
 606:E:/NeuOrga/Programmieren/c_cpp/github_os/input/src/os_base\os_task_scheduler.c ****       */
 607:E:/NeuOrga/Programmieren/c_cpp/github_os/input/src/os_base\os_task_scheduler.c ****    }
 608:E:/NeuOrga/Programmieren/c_cpp/github_os/input/src/os_base\os_task_scheduler.c ****    For_all_tasks_in_queue(element_nr)
 1009              		.loc 1 608 0 is_stmt 1
 1010 087e C645F700 		movb	$0, -9(%ebp)
 1011 0882 EB67     		jmp	L80
 1012              	L83:
 609:E:/NeuOrga/Programmieren/c_cpp/github_os/input/src/os_base\os_task_scheduler.c ****    {
 610:E:/NeuOrga/Programmieren/c_cpp/github_os/input/src/os_base\os_task_scheduler.c ****       scheduling_queue_member = GetFromSchedulingQueue(element_nr);
 1013              		.loc 1 610 0
 1014 0884 0FB645F7 		movzbl	-9(%ebp), %eax
 1015 0888 890424   		movl	%eax, (%esp)
 1016 088b E8000000 		call	_GetFromSchedulingQueue
GAS LISTING C:\Users\PRESID~1\AppData\Local\Temp\cczg9UB2.s 			page 33


 1016      00
 1017 0890 8945E0   		movl	%eax, -32(%ebp)
 611:E:/NeuOrga/Programmieren/c_cpp/github_os/input/src/os_base\os_task_scheduler.c ****       task             = GetFromTaskQueue(scheduling_queue_member);
 1018              		.loc 1 611 0
 1019 0893 8B45E0   		movl	-32(%ebp), %eax
 1020 0896 890424   		movl	%eax, (%esp)
 1021 0899 E8000000 		call	_GetFromTaskQueue
 1021      00
 1022 089e 8945EC   		movl	%eax, -20(%ebp)
 612:E:/NeuOrga/Programmieren/c_cpp/github_os/input/src/os_base\os_task_scheduler.c ****       if(task != 0)
 1023              		.loc 1 612 0
 1024 08a1 837DEC00 		cmpl	$0, -20(%ebp)
 1025 08a5 743D     		je	L81
 613:E:/NeuOrga/Programmieren/c_cpp/github_os/input/src/os_base\os_task_scheduler.c ****       {
 614:E:/NeuOrga/Programmieren/c_cpp/github_os/input/src/os_base\os_task_scheduler.c ****          /*update wait time */
 615:E:/NeuOrga/Programmieren/c_cpp/github_os/input/src/os_base\os_task_scheduler.c ****          if(task->IdleTask != True)
 1026              		.loc 1 615 0
 1027 08a7 8B45EC   		movl	-20(%ebp), %eax
 1028 08aa 8A00     		movb	(%eax), %al
 1029 08ac 83E004   		andl	$4, %eax
 1030 08af 84C0     		testb	%al, %al
 1031 08b1 7511     		jne	L82
 616:E:/NeuOrga/Programmieren/c_cpp/github_os/input/src/os_base\os_task_scheduler.c ****          {
 617:E:/NeuOrga/Programmieren/c_cpp/github_os/input/src/os_base\os_task_scheduler.c ****             task->wait_time += delta_time;
 1032              		.loc 1 617 0
 1033 08b3 8B45EC   		movl	-20(%ebp), %eax
 1034 08b6 8B500C   		movl	12(%eax), %edx
 1035 08b9 8B45E4   		movl	-28(%ebp), %eax
 1036 08bc 01C2     		addl	%eax, %edx
 1037 08be 8B45EC   		movl	-20(%ebp), %eax
 1038 08c1 89500C   		movl	%edx, 12(%eax)
 1039              	L82:
 618:E:/NeuOrga/Programmieren/c_cpp/github_os/input/src/os_base\os_task_scheduler.c ****          }
 619:E:/NeuOrga/Programmieren/c_cpp/github_os/input/src/os_base\os_task_scheduler.c ****          /* search for task with highest prio and assign it to Winner_task */
 620:E:/NeuOrga/Programmieren/c_cpp/github_os/input/src/os_base\os_task_scheduler.c ****          if(task->current_prio > Winner_prio)
 1040              		.loc 1 620 0
 1041 08c4 8B45EC   		movl	-20(%ebp), %eax
 1042 08c7 8A4024   		movb	36(%eax), %al
 1043 08ca 3A45F6   		cmpb	-10(%ebp), %al
 1044 08cd 7615     		jbe	L81
 621:E:/NeuOrga/Programmieren/c_cpp/github_os/input/src/os_base\os_task_scheduler.c ****          {
 622:E:/NeuOrga/Programmieren/c_cpp/github_os/input/src/os_base\os_task_scheduler.c ****             Winner_prio = task->current_prio;
 1045              		.loc 1 622 0
 1046 08cf 8B45EC   		movl	-20(%ebp), %eax
 1047 08d2 8A4024   		movb	36(%eax), %al
 1048 08d5 8845F6   		movb	%al, -10(%ebp)
 623:E:/NeuOrga/Programmieren/c_cpp/github_os/input/src/os_base\os_task_scheduler.c ****             Winner_task = task;
 1049              		.loc 1 623 0
 1050 08d8 8B45EC   		movl	-20(%ebp), %eax
 1051 08db 8945E8   		movl	%eax, -24(%ebp)
 624:E:/NeuOrga/Programmieren/c_cpp/github_os/input/src/os_base\os_task_scheduler.c ****             Winner_scheduling_queue_member = scheduling_queue_member;
 1052              		.loc 1 624 0
 1053 08de 8B45E0   		movl	-32(%ebp), %eax
 1054 08e1 8945F0   		movl	%eax, -16(%ebp)
 1055              	L81:
 608:E:/NeuOrga/Programmieren/c_cpp/github_os/input/src/os_base\os_task_scheduler.c ****    {
 1056              		.loc 1 608 0 discriminator 2
GAS LISTING C:\Users\PRESID~1\AppData\Local\Temp\cczg9UB2.s 			page 34


 1057 08e4 8A45F7   		movb	-9(%ebp), %al
 1058 08e7 40       		incl	%eax
 1059 08e8 8845F7   		movb	%al, -9(%ebp)
 1060              	L80:
 608:E:/NeuOrga/Programmieren/c_cpp/github_os/input/src/os_base\os_task_scheduler.c ****    {
 1061              		.loc 1 608 0 is_stmt 0 discriminator 1
 1062 08eb 807DF704 		cmpb	$4, -9(%ebp)
 1063 08ef 7693     		jbe	L83
 625:E:/NeuOrga/Programmieren/c_cpp/github_os/input/src/os_base\os_task_scheduler.c ****          }
 626:E:/NeuOrga/Programmieren/c_cpp/github_os/input/src/os_base\os_task_scheduler.c **** 
 627:E:/NeuOrga/Programmieren/c_cpp/github_os/input/src/os_base\os_task_scheduler.c ****       }
 628:E:/NeuOrga/Programmieren/c_cpp/github_os/input/src/os_base\os_task_scheduler.c ****       /* do not set bug, because task =0 is used for empty queue elements
 629:E:/NeuOrga/Programmieren/c_cpp/github_os/input/src/os_base\os_task_scheduler.c ****       else
 630:E:/NeuOrga/Programmieren/c_cpp/github_os/input/src/os_base\os_task_scheduler.c ****       {
 631:E:/NeuOrga/Programmieren/c_cpp/github_os/input/src/os_base\os_task_scheduler.c ****           OS_SetSwBug(os_bug_null_pointer, Func_TaskScheduler);
 632:E:/NeuOrga/Programmieren/c_cpp/github_os/input/src/os_base\os_task_scheduler.c ****       }
 633:E:/NeuOrga/Programmieren/c_cpp/github_os/input/src/os_base\os_task_scheduler.c ****       */
 634:E:/NeuOrga/Programmieren/c_cpp/github_os/input/src/os_base\os_task_scheduler.c ****    }
 635:E:/NeuOrga/Programmieren/c_cpp/github_os/input/src/os_base\os_task_scheduler.c ****    return Winner_scheduling_queue_member;
 1064              		.loc 1 635 0 is_stmt 1
 1065 08f1 8B45F0   		movl	-16(%ebp), %eax
 636:E:/NeuOrga/Programmieren/c_cpp/github_os/input/src/os_base\os_task_scheduler.c **** }
 1066              		.loc 1 636 0
 1067 08f4 83C444   		addl	$68, %esp
 1068 08f7 5B       		popl	%ebx
 1069              		.cfi_restore 3
 1070 08f8 5D       		popl	%ebp
 1071              		.cfi_restore 5
 1072              		.cfi_def_cfa 4, 4
 1073 08f9 C3       		ret
 1074              		.cfi_endproc
 1075              	LFE14:
 1076              	Letext0:
 1077              		.file 2 "E:/NeuOrga/Programmieren/c_cpp/github_os/input/src/os_base/../os_base/os_base_types.h"
 1078              		.file 3 "E:/NeuOrga/Programmieren/c_cpp/github_os/input/src/os_base/../os_base/os_common.h"
 1079              		.file 4 "E:/NeuOrga/Programmieren/c_cpp/github_os/input/src/os_base/../os_sim/lld_core.h"
 1080              		.file 5 "E:/NeuOrga/Programmieren/c_cpp/github_os/input/src/os_base/../os_sim/../os_base/os_task_c
 1081              		.file 6 "E:/NeuOrga/Programmieren/c_cpp/github_os/input/src/os_base/os_task_scheduler.h"
 1082              		.file 7 "E:/NeuOrga/Programmieren/c_cpp/github_os/input/src/os_base/../os_base/os_ram.h"
 1083 08fa 9090     		.section	.debug_info,"dr"
 1084              	Ldebug_info0:
 1085 0000 9E0D0000 		.long	0xd9e
 1086 0004 0400     		.word	0x4
 1087 0006 00000000 		.secrel32	Ldebug_abbrev0
 1088 000a 04       		.byte	0x4
 1089 000b 01       		.uleb128 0x1
 1090 000c 474E5520 		.ascii "GNU C 4.9.3 -march=i386 -g3 -O0 -std=c90\0"
 1090      4320342E 
 1090      392E3320 
 1090      2D6D6172 
 1090      63683D69 
 1091 0035 01       		.byte	0x1
 1092 0036 453A5C4E 		.ascii "E:\\NeuOrga\\Programmieren\\c_cpp\\github_os\\input\\src\\os_base\\os_task_scheduler.c\0"
 1092      65754F72 
 1092      67615C50 
 1092      726F6772 
 1092      616D6D69 
GAS LISTING C:\Users\PRESID~1\AppData\Local\Temp\cczg9UB2.s 			page 35


 1093 0085 00000000 		.long	Ltext0
 1094 0089 FA080000 		.long	Letext0-Ltext0
 1095 008d 00000000 		.secrel32	Ldebug_line0
 1096 0091 00000000 		.secrel32	Ldebug_macro0
 1097 0095 02       		.uleb128 0x2
 1098 0096 756E7369 		.ascii "unsigned_char_t\0"
 1098      676E6564 
 1098      5F636861 
 1098      725F7400 
 1099 00a6 02       		.byte	0x2
 1100 00a7 1D       		.byte	0x1d
 1101 00a8 AC000000 		.long	0xac
 1102 00ac 03       		.uleb128 0x3
 1103 00ad 01       		.byte	0x1
 1104 00ae 08       		.byte	0x8
 1105 00af 756E7369 		.ascii "unsigned char\0"
 1105      676E6564 
 1105      20636861 
 1105      7200
 1106 00bd 03       		.uleb128 0x3
 1107 00be 02       		.byte	0x2
 1108 00bf 07       		.byte	0x7
 1109 00c0 73686F72 		.ascii "short unsigned int\0"
 1109      7420756E 
 1109      7369676E 
 1109      65642069 
 1109      6E7400
 1110 00d3 02       		.uleb128 0x2
 1111 00d4 756E7369 		.ascii "unsigned_int32_t\0"
 1111      676E6564 
 1111      5F696E74 
 1111      33325F74 
 1111      00
 1112 00e5 02       		.byte	0x2
 1113 00e6 22       		.byte	0x22
 1114 00e7 EB000000 		.long	0xeb
 1115 00eb 03       		.uleb128 0x3
 1116 00ec 04       		.byte	0x4
 1117 00ed 07       		.byte	0x7
 1118 00ee 6C6F6E67 		.ascii "long unsigned int\0"
 1118      20756E73 
 1118      69676E65 
 1118      6420696E 
 1118      7400
 1119 0100 02       		.uleb128 0x2
 1120 0101 75696E74 		.ascii "uint32\0"
 1120      333200
 1121 0108 02       		.byte	0x2
 1122 0109 23       		.byte	0x23
 1123 010a EB000000 		.long	0xeb
 1124 010e 04       		.uleb128 0x4
 1125 010f 6F735F73 		.ascii "os_sw_bugs_e\0"
 1125      775F6275 
 1125      67735F65 
 1125      00
 1126 011c 04       		.byte	0x4
 1127 011d 03       		.byte	0x3
GAS LISTING C:\Users\PRESID~1\AppData\Local\Temp\cczg9UB2.s 			page 36


 1128 011e 2A       		.byte	0x2a
 1129 011f 0C020000 		.long	0x20c
 1130 0123 05       		.uleb128 0x5
 1131 0124 6F735F62 		.ascii "os_bug_no_bug\0"
 1131      75675F6E 
 1131      6F5F6275 
 1131      6700
 1132 0132 00       		.sleb128 0
 1133 0133 05       		.uleb128 0x5
 1134 0134 6F735F62 		.ascii "os_bug_taskstate_request_denied\0"
 1134      75675F74 
 1134      61736B73 
 1134      74617465 
 1134      5F726571 
 1135 0154 01       		.sleb128 1
 1136 0155 05       		.uleb128 0x5
 1137 0156 6F735F62 		.ascii "os_bug_null_pointer\0"
 1137      75675F6E 
 1137      756C6C5F 
 1137      706F696E 
 1137      74657200 
 1138 016a 02       		.sleb128 2
 1139 016b 05       		.uleb128 0x5
 1140 016c 6F735F62 		.ascii "os_bug_task_max_wait_time_reached\0"
 1140      75675F74 
 1140      61736B5F 
 1140      6D61785F 
 1140      77616974 
 1141 018e 03       		.sleb128 3
 1142 018f 05       		.uleb128 0x5
 1143 0190 6F735F62 		.ascii "os_bug_Task_unspecified\0"
 1143      75675F54 
 1143      61736B5F 
 1143      756E7370 
 1143      65636966 
 1144 01a8 04       		.sleb128 4
 1145 01a9 05       		.uleb128 0x5
 1146 01aa 6F735F62 		.ascii "os_bug_exception_UndefInstruction\0"
 1146      75675F65 
 1146      78636570 
 1146      74696F6E 
 1146      5F556E64 
 1147 01cc 05       		.sleb128 5
 1148 01cd 05       		.uleb128 0x5
 1149 01ce 6F735F62 		.ascii "os_bug_exception_AbortPrefetch\0"
 1149      75675F65 
 1149      78636570 
 1149      74696F6E 
 1149      5F41626F 
 1150 01ed 06       		.sleb128 6
 1151 01ee 05       		.uleb128 0x5
 1152 01ef 6F735F62 		.ascii "os_bug_exception_AbortData\0"
 1152      75675F65 
 1152      78636570 
 1152      74696F6E 
 1152      5F41626F 
 1153 020a 07       		.sleb128 7
GAS LISTING C:\Users\PRESID~1\AppData\Local\Temp\cczg9UB2.s 			page 37


 1154 020b 00       		.byte	0
 1155 020c 04       		.uleb128 0x4
 1156 020d 6F735F73 		.ascii "os_sw_bugs_function_e\0"
 1156      775F6275 
 1156      67735F66 
 1156      756E6374 
 1156      696F6E5F 
 1157 0223 04       		.byte	0x4
 1158 0224 03       		.byte	0x3
 1159 0225 36       		.byte	0x36
 1160 0226 62030000 		.long	0x362
 1161 022a 05       		.uleb128 0x5
 1162 022b 46756E63 		.ascii "Func_NoFunction\0"
 1162      5F4E6F46 
 1162      756E6374 
 1162      696F6E00 
 1163 023b 00       		.sleb128 0
 1164 023c 05       		.uleb128 0x5
 1165 023d 46756E63 		.ascii "Func_SaveTaskEnvironment\0"
 1165      5F536176 
 1165      65546173 
 1165      6B456E76 
 1165      69726F6E 
 1166 0256 01       		.sleb128 1
 1167 0257 05       		.uleb128 0x5
 1168 0258 46756E63 		.ascii "Func_RestoreTaskEnvironment\0"
 1168      5F526573 
 1168      746F7265 
 1168      5461736B 
 1168      456E7669 
 1169 0274 02       		.sleb128 2
 1170 0275 05       		.uleb128 0x5
 1171 0276 46756E63 		.ascii "Func_CreateTaskEnvironment\0"
 1171      5F437265 
 1171      61746554 
 1171      61736B45 
 1171      6E766972 
 1172 0291 03       		.sleb128 3
 1173 0292 05       		.uleb128 0x5
 1174 0293 46756E63 		.ascii "Func_DeleteTaskEnvironment\0"
 1174      5F44656C 
 1174      65746554 
 1174      61736B45 
 1174      6E766972 
 1175 02ae 04       		.sleb128 4
 1176 02af 05       		.uleb128 0x5
 1177 02b0 46756E63 		.ascii "Func_StartTask\0"
 1177      5F537461 
 1177      72745461 
 1177      736B00
 1178 02bf 05       		.sleb128 5
 1179 02c0 05       		.uleb128 0x5
 1180 02c1 46756E63 		.ascii "Func_PreemptTask\0"
 1180      5F507265 
 1180      656D7074 
 1180      5461736B 
 1180      00
GAS LISTING C:\Users\PRESID~1\AppData\Local\Temp\cczg9UB2.s 			page 38


 1181 02d2 06       		.sleb128 6
 1182 02d3 05       		.uleb128 0x5
 1183 02d4 46756E63 		.ascii "Func_TerminateTask\0"
 1183      5F546572 
 1183      6D696E61 
 1183      74655461 
 1183      736B00
 1184 02e7 07       		.sleb128 7
 1185 02e8 05       		.uleb128 0x5
 1186 02e9 46756E63 		.ascii "Func_TaskScheduler\0"
 1186      5F546173 
 1186      6B536368 
 1186      6564756C 
 1186      657200
 1187 02fc 08       		.sleb128 8
 1188 02fd 05       		.uleb128 0x5
 1189 02fe 46756E63 		.ascii "Func_InitTask\0"
 1189      5F496E69 
 1189      74546173 
 1189      6B00
 1190 030c 09       		.sleb128 9
 1191 030d 05       		.uleb128 0x5
 1192 030e 46756E63 		.ascii "Func_ActivateTask\0"
 1192      5F416374 
 1192      69766174 
 1192      65546173 
 1192      6B00
 1193 0320 0A       		.sleb128 10
 1194 0321 05       		.uleb128 0x5
 1195 0322 46756E63 		.ascii "Func_TaskStateRequest\0"
 1195      5F546173 
 1195      6B537461 
 1195      74655265 
 1195      71756573 
 1196 0338 0B       		.sleb128 11
 1197 0339 05       		.uleb128 0x5
 1198 033a 46756E63 		.ascii "Func_Preempt_Task\0"
 1198      5F507265 
 1198      656D7074 
 1198      5F546173 
 1198      6B00
 1199 034c 0C       		.sleb128 12
 1200 034d 05       		.uleb128 0x5
 1201 034e 46756E63 		.ascii "Func_os_exception\0"
 1201      5F6F735F 
 1201      65786365 
 1201      7074696F 
 1201      6E00
 1202 0360 0D       		.sleb128 13
 1203 0361 00       		.byte	0
 1204 0362 04       		.uleb128 0x4
 1205 0363 436F7265 		.ascii "CoreID_e\0"
 1205      49445F65 
 1205      00
 1206 036c 04       		.byte	0x4
 1207 036d 04       		.byte	0x4
 1208 036e 04       		.byte	0x4
GAS LISTING C:\Users\PRESID~1\AppData\Local\Temp\cczg9UB2.s 			page 39


 1209 036f 94030000 		.long	0x394
 1210 0373 05       		.uleb128 0x5
 1211 0374 436F7265 		.ascii "Core0\0"
 1211      3000
 1212 037a 00       		.sleb128 0
 1213 037b 05       		.uleb128 0x5
 1214 037c 436F7265 		.ascii "Core1\0"
 1214      3100
 1215 0382 01       		.sleb128 1
 1216 0383 05       		.uleb128 0x5
 1217 0384 436F7265 		.ascii "Core2\0"
 1217      3200
 1218 038a 02       		.sleb128 2
 1219 038b 05       		.uleb128 0x5
 1220 038c 436F7265 		.ascii "Core3\0"
 1220      3300
 1221 0392 03       		.sleb128 3
 1222 0393 00       		.byte	0
 1223 0394 04       		.uleb128 0x4
 1224 0395 70726976 		.ascii "privilige_mode_e\0"
 1224      696C6967 
 1224      655F6D6F 
 1224      64655F65 
 1224      00
 1225 03a6 04       		.byte	0x4
 1226 03a7 04       		.byte	0x4
 1227 03a8 10       		.byte	0x10
 1228 03a9 29040000 		.long	0x429
 1229 03ad 05       		.uleb128 0x5
 1230 03ae 65507269 		.ascii "ePriviligeMode_unpriviliged_thread_mode\0"
 1230      76696C69 
 1230      67654D6F 
 1230      64655F75 
 1230      6E707269 
 1231 03d6 00       		.sleb128 0
 1232 03d7 05       		.uleb128 0x5
 1233 03d8 65507269 		.ascii "ePriviligeMode_priviliged_thread_mode\0"
 1233      76696C69 
 1233      67654D6F 
 1233      64655F70 
 1233      72697669 
 1234 03fe 01       		.sleb128 1
 1235 03ff 05       		.uleb128 0x5
 1236 0400 65507269 		.ascii "ePriviligeMode_priviliged_handler_mode\0"
 1236      76696C69 
 1236      67654D6F 
 1236      64655F70 
 1236      72697669 
 1237 0427 02       		.sleb128 2
 1238 0428 00       		.byte	0
 1239 0429 02       		.uleb128 0x2
 1240 042a 70726976 		.ascii "privilige_mode_t\0"
 1240      696C6967 
 1240      655F6D6F 
 1240      64655F74 
 1240      00
 1241 043b 04       		.byte	0x4
GAS LISTING C:\Users\PRESID~1\AppData\Local\Temp\cczg9UB2.s 			page 40


 1242 043c 16       		.byte	0x16
 1243 043d 94030000 		.long	0x394
 1244 0441 04       		.uleb128 0x4
 1245 0442 7461736B 		.ascii "task_state_e\0"
 1245      5F737461 
 1245      74655F65 
 1245      00
 1246 044f 04       		.byte	0x4
 1247 0450 05       		.byte	0x5
 1248 0451 07       		.byte	0x7
 1249 0452 97040000 		.long	0x497
 1250 0456 05       		.uleb128 0x5
 1251 0457 5461736B 		.ascii "Task_unspecified\0"
 1251      5F756E73 
 1251      70656369 
 1251      66696564 
 1251      00
 1252 0468 00       		.sleb128 0
 1253 0469 05       		.uleb128 0x5
 1254 046a 5461736B 		.ascii "Task_suspended\0"
 1254      5F737573 
 1254      70656E64 
 1254      656400
 1255 0479 01       		.sleb128 1
 1256 047a 05       		.uleb128 0x5
 1257 047b 5461736B 		.ascii "Task_ready\0"
 1257      5F726561 
 1257      647900
 1258 0486 02       		.sleb128 2
 1259 0487 05       		.uleb128 0x5
 1260 0488 5461736B 		.ascii "Task_running\0"
 1260      5F72756E 
 1260      6E696E67 
 1260      00
 1261 0495 03       		.sleb128 3
 1262 0496 00       		.byte	0
 1263 0497 02       		.uleb128 0x2
 1264 0498 7461736B 		.ascii "task_state_t\0"
 1264      5F737461 
 1264      74655F74 
 1264      00
 1265 04a5 05       		.byte	0x5
 1266 04a6 0E       		.byte	0xe
 1267 04a7 41040000 		.long	0x441
 1268 04ab 02       		.uleb128 0x2
 1269 04ac 66756E63 		.ascii "func_p_t\0"
 1269      5F705F74 
 1269      00
 1270 04b5 05       		.byte	0x5
 1271 04b6 13       		.byte	0x13
 1272 04b7 BB040000 		.long	0x4bb
 1273 04bb 06       		.uleb128 0x6
 1274 04bc 04       		.byte	0x4
 1275 04bd C1040000 		.long	0x4c1
 1276 04c1 07       		.uleb128 0x7
 1277 04c2 CC040000 		.long	0x4cc
 1278 04c6 08       		.uleb128 0x8
GAS LISTING C:\Users\PRESID~1\AppData\Local\Temp\cczg9UB2.s 			page 41


 1279 04c7 CC040000 		.long	0x4cc
 1280 04cb 00       		.byte	0
 1281 04cc 09       		.uleb128 0x9
 1282 04cd 04       		.byte	0x4
 1283 04ce 02       		.uleb128 0x2
 1284 04cf 66756E63 		.ascii "func_p_state_change_t\0"
 1284      5F705F73 
 1284      74617465 
 1284      5F636861 
 1284      6E67655F 
 1285 04e5 05       		.byte	0x5
 1286 04e6 15       		.byte	0x15
 1287 04e7 EB040000 		.long	0x4eb
 1288 04eb 06       		.uleb128 0x6
 1289 04ec 04       		.byte	0x4
 1290 04ed F1040000 		.long	0x4f1
 1291 04f1 0A       		.uleb128 0xa
 1292 04f2 95000000 		.long	0x95
 1293 04f6 05050000 		.long	0x505
 1294 04fa 08       		.uleb128 0x8
 1295 04fb CC040000 		.long	0x4cc
 1296 04ff 08       		.uleb128 0x8
 1297 0500 97040000 		.long	0x497
 1298 0504 00       		.byte	0
 1299 0505 0B       		.uleb128 0xb
 1300 0506 7461736B 		.ascii "task_group_s\0"
 1300      5F67726F 
 1300      75705F73 
 1300      00
 1301 0513 08       		.byte	0x8
 1302 0514 05       		.byte	0x5
 1303 0515 17       		.byte	0x17
 1304 0516 3D050000 		.long	0x53d
 1305 051a 0C       		.uleb128 0xc
 1306 051b 09000000 		.secrel32	LASF0
 1307 051f 05       		.byte	0x5
 1308 0520 19       		.byte	0x19
 1309 0521 D3000000 		.long	0xd3
 1310 0525 00       		.byte	0
 1311 0526 0D       		.uleb128 0xd
 1312 0527 66616972 		.ascii "fair_exe_time\0"
 1312      5F657865 
 1312      5F74696D 
 1312      6500
 1313 0535 05       		.byte	0x5
 1314 0536 1A       		.byte	0x1a
 1315 0537 D3000000 		.long	0xd3
 1316 053b 04       		.byte	0x4
 1317 053c 00       		.byte	0
 1318 053d 02       		.uleb128 0x2
 1319 053e 7461736B 		.ascii "task_group_t\0"
 1319      5F67726F 
 1319      75705F74 
 1319      00
 1320 054b 05       		.byte	0x5
 1321 054c 1C       		.byte	0x1c
 1322 054d 05050000 		.long	0x505
GAS LISTING C:\Users\PRESID~1\AppData\Local\Temp\cczg9UB2.s 			page 42


 1323 0551 0B       		.uleb128 0xb
 1324 0552 7461736B 		.ascii "task_s\0"
 1324      5F7300
 1325 0559 64       		.byte	0x64
 1326 055a 05       		.byte	0x5
 1327 055b 1E       		.byte	0x1e
 1328 055c C5070000 		.long	0x7c5
 1329 0560 0E       		.uleb128 0xe
 1330 0561 61637469 		.ascii "active\0"
 1330      766500
 1331 0568 05       		.byte	0x5
 1332 0569 20       		.byte	0x20
 1333 056a C5070000 		.long	0x7c5
 1334 056e 04       		.byte	0x4
 1335 056f 01       		.byte	0x1
 1336 0570 1F       		.byte	0x1f
 1337 0571 00       		.byte	0
 1338 0572 0E       		.uleb128 0xe
 1339 0573 7461736B 		.ascii "task_queued\0"
 1339      5F717565 
 1339      75656400 
 1340 057f 05       		.byte	0x5
 1341 0580 21       		.byte	0x21
 1342 0581 C5070000 		.long	0x7c5
 1343 0585 04       		.byte	0x4
 1344 0586 01       		.byte	0x1
 1345 0587 1E       		.byte	0x1e
 1346 0588 00       		.byte	0
 1347 0589 0E       		.uleb128 0xe
 1348 058a 49646C65 		.ascii "IdleTask\0"
 1348      5461736B 
 1348      00
 1349 0593 05       		.byte	0x5
 1350 0594 22       		.byte	0x22
 1351 0595 C5070000 		.long	0x7c5
 1352 0599 04       		.byte	0x4
 1353 059a 01       		.byte	0x1
 1354 059b 1D       		.byte	0x1d
 1355 059c 00       		.byte	0
 1356 059d 0E       		.uleb128 0xe
 1357 059e 46524545 		.ascii "FREE\0"
 1357      00
 1358 05a3 05       		.byte	0x5
 1359 05a4 23       		.byte	0x23
 1360 05a5 C5070000 		.long	0x7c5
 1361 05a9 04       		.byte	0x4
 1362 05aa 1D       		.byte	0x1d
 1363 05ab 00       		.byte	0
 1364 05ac 00       		.byte	0
 1365 05ad 0D       		.uleb128 0xd
 1366 05ae 4E724F66 		.ascii "NrOfInsAllowed\0"
 1366      496E7341 
 1366      6C6C6F77 
 1366      656400
 1367 05bd 05       		.byte	0x5
 1368 05be 24       		.byte	0x24
 1369 05bf 95000000 		.long	0x95
GAS LISTING C:\Users\PRESID~1\AppData\Local\Temp\cczg9UB2.s 			page 43


 1370 05c3 04       		.byte	0x4
 1371 05c4 0D       		.uleb128 0xd
 1372 05c5 4E724F66 		.ascii "NrOfInsActivated\0"
 1372      496E7341 
 1372      63746976 
 1372      61746564 
 1372      00
 1373 05d6 05       		.byte	0x5
 1374 05d7 25       		.byte	0x25
 1375 05d8 95000000 		.long	0x95
 1376 05dc 05       		.byte	0x5
 1377 05dd 0D       		.uleb128 0xd
 1378 05de 57616974 		.ascii "WaitActUntil\0"
 1378      41637455 
 1378      6E74696C 
 1378      00
 1379 05eb 05       		.byte	0x5
 1380 05ec 26       		.byte	0x26
 1381 05ed D3000000 		.long	0xd3
 1382 05f1 08       		.byte	0x8
 1383 05f2 0D       		.uleb128 0xd
 1384 05f3 77616974 		.ascii "wait_time\0"
 1384      5F74696D 
 1384      6500
 1385 05fd 05       		.byte	0x5
 1386 05fe 27       		.byte	0x27
 1387 05ff D3000000 		.long	0xd3
 1388 0603 0C       		.byte	0xc
 1389 0604 0D       		.uleb128 0xd
 1390 0605 54696D65 		.ascii "TimeToPrioInc\0"
 1390      546F5072 
 1390      696F496E 
 1390      6300
 1391 0613 05       		.byte	0x5
 1392 0614 28       		.byte	0x28
 1393 0615 D3000000 		.long	0xd3
 1394 0619 10       		.byte	0x10
 1395 061a 0D       		.uleb128 0xd
 1396 061b 6F766572 		.ascii "overwaittime_per_prio_inc_step\0"
 1396      77616974 
 1396      74696D65 
 1396      5F706572 
 1396      5F707269 
 1397 063a 05       		.byte	0x5
 1398 063b 29       		.byte	0x29
 1399 063c D3000000 		.long	0xd3
 1400 0640 14       		.byte	0x14
 1401 0641 0D       		.uleb128 0xd
 1402 0642 6D61785F 		.ascii "max_allowed_wait_time\0"
 1402      616C6C6F 
 1402      7765645F 
 1402      77616974 
 1402      5F74696D 
 1403 0658 05       		.byte	0x5
 1404 0659 2A       		.byte	0x2a
 1405 065a D3000000 		.long	0xd3
 1406 065e 18       		.byte	0x18
GAS LISTING C:\Users\PRESID~1\AppData\Local\Temp\cczg9UB2.s 			page 44


 1407 065f 0C       		.uleb128 0xc
 1408 0660 09000000 		.secrel32	LASF0
 1409 0664 05       		.byte	0x5
 1410 0665 2B       		.byte	0x2b
 1411 0666 D3000000 		.long	0xd3
 1412 066a 1C       		.byte	0x1c
 1413 066b 0D       		.uleb128 0xd
 1414 066c 73746172 		.ascii "start_time\0"
 1414      745F7469 
 1414      6D6500
 1415 0677 05       		.byte	0x5
 1416 0678 2C       		.byte	0x2c
 1417 0679 D3000000 		.long	0xd3
 1418 067d 20       		.byte	0x20
 1419 067e 0D       		.uleb128 0xd
 1420 067f 63757272 		.ascii "current_prio\0"
 1420      656E745F 
 1420      7072696F 
 1420      00
 1421 068c 05       		.byte	0x5
 1422 068d 2D       		.byte	0x2d
 1423 068e 95000000 		.long	0x95
 1424 0692 24       		.byte	0x24
 1425 0693 0D       		.uleb128 0xd
 1426 0694 64656661 		.ascii "default_prio\0"
 1426      756C745F 
 1426      7072696F 
 1426      00
 1427 06a1 05       		.byte	0x5
 1428 06a2 2E       		.byte	0x2e
 1429 06a3 95000000 		.long	0x95
 1430 06a7 25       		.byte	0x25
 1431 06a8 0D       		.uleb128 0xd
 1432 06a9 7461736B 		.ascii "task_number\0"
 1432      5F6E756D 
 1432      62657200 
 1433 06b5 05       		.byte	0x5
 1434 06b6 2F       		.byte	0x2f
 1435 06b7 D3000000 		.long	0xd3
 1436 06bb 28       		.byte	0x28
 1437 06bc 0D       		.uleb128 0xd
 1438 06bd 667000   		.ascii "fp\0"
 1439 06c0 05       		.byte	0x5
 1440 06c1 30       		.byte	0x30
 1441 06c2 AB040000 		.long	0x4ab
 1442 06c6 2C       		.byte	0x2c
 1443 06c7 0D       		.uleb128 0xd
 1444 06c8 73746174 		.ascii "state_request\0"
 1444      655F7265 
 1444      71756573 
 1444      7400
 1445 06d6 05       		.byte	0x5
 1446 06d7 31       		.byte	0x31
 1447 06d8 CE040000 		.long	0x4ce
 1448 06dc 30       		.byte	0x30
 1449 06dd 0D       		.uleb128 0xd
 1450 06de 7461736B 		.ascii "task_state\0"
GAS LISTING C:\Users\PRESID~1\AppData\Local\Temp\cczg9UB2.s 			page 45


 1450      5F737461 
 1450      746500
 1451 06e9 05       		.byte	0x5
 1452 06ea 32       		.byte	0x32
 1453 06eb 97040000 		.long	0x497
 1454 06ef 34       		.byte	0x34
 1455 06f0 0D       		.uleb128 0xd
 1456 06f1 7461736B 		.ascii "task_group\0"
 1456      5F67726F 
 1456      757000
 1457 06fc 05       		.byte	0x5
 1458 06fd 33       		.byte	0x33
 1459 06fe D5070000 		.long	0x7d5
 1460 0702 38       		.byte	0x38
 1461 0703 0D       		.uleb128 0xd
 1462 0704 45415800 		.ascii "EAX\0"
 1463 0708 05       		.byte	0x5
 1464 0709 35       		.byte	0x35
 1465 070a D3000000 		.long	0xd3
 1466 070e 3C       		.byte	0x3c
 1467 070f 0D       		.uleb128 0xd
 1468 0710 45425800 		.ascii "EBX\0"
 1469 0714 05       		.byte	0x5
 1470 0715 36       		.byte	0x36
 1471 0716 D3000000 		.long	0xd3
 1472 071a 40       		.byte	0x40
 1473 071b 0D       		.uleb128 0xd
 1474 071c 45435800 		.ascii "ECX\0"
 1475 0720 05       		.byte	0x5
 1476 0721 37       		.byte	0x37
 1477 0722 D3000000 		.long	0xd3
 1478 0726 44       		.byte	0x44
 1479 0727 0D       		.uleb128 0xd
 1480 0728 45445800 		.ascii "EDX\0"
 1481 072c 05       		.byte	0x5
 1482 072d 38       		.byte	0x38
 1483 072e D3000000 		.long	0xd3
 1484 0732 48       		.byte	0x48
 1485 0733 0D       		.uleb128 0xd
 1486 0734 70537461 		.ascii "pStackPointer\0"
 1486      636B506F 
 1486      696E7465 
 1486      7200
 1487 0742 05       		.byte	0x5
 1488 0743 48       		.byte	0x48
 1489 0744 DB070000 		.long	0x7db
 1490 0748 4C       		.byte	0x4c
 1491 0749 0D       		.uleb128 0xd
 1492 074a 70537461 		.ascii "pStackPointerByMalloc\0"
 1492      636B506F 
 1492      696E7465 
 1492      7242794D 
 1492      616C6C6F 
 1493 0760 05       		.byte	0x5
 1494 0761 49       		.byte	0x49
 1495 0762 DB070000 		.long	0x7db
 1496 0766 50       		.byte	0x50
GAS LISTING C:\Users\PRESID~1\AppData\Local\Temp\cczg9UB2.s 			page 46


 1497 0767 0D       		.uleb128 0xd
 1498 0768 70537461 		.ascii "pStackPointerStart\0"
 1498      636B506F 
 1498      696E7465 
 1498      72537461 
 1498      727400
 1499 077b 05       		.byte	0x5
 1500 077c 4A       		.byte	0x4a
 1501 077d DB070000 		.long	0x7db
 1502 0781 54       		.byte	0x54
 1503 0782 0D       		.uleb128 0xd
 1504 0783 53746163 		.ascii "StackSize\0"
 1504      6B53697A 
 1504      6500
 1505 078d 05       		.byte	0x5
 1506 078e 4B       		.byte	0x4b
 1507 078f D3000000 		.long	0xd3
 1508 0793 58       		.byte	0x58
 1509 0794 0D       		.uleb128 0xd
 1510 0795 70537461 		.ascii "pStackPointerEnd\0"
 1510      636B506F 
 1510      696E7465 
 1510      72456E64 
 1510      00
 1511 07a6 05       		.byte	0x5
 1512 07a7 4C       		.byte	0x4c
 1513 07a8 DB070000 		.long	0x7db
 1514 07ac 5C       		.byte	0x5c
 1515 07ad 0D       		.uleb128 0xd
 1516 07ae 70726976 		.ascii "privilige_mode\0"
 1516      696C6967 
 1516      655F6D6F 
 1516      646500
 1517 07bd 05       		.byte	0x5
 1518 07be 4D       		.byte	0x4d
 1519 07bf 29040000 		.long	0x429
 1520 07c3 60       		.byte	0x60
 1521 07c4 00       		.byte	0
 1522 07c5 03       		.uleb128 0x3
 1523 07c6 04       		.byte	0x4
 1524 07c7 07       		.byte	0x7
 1525 07c8 756E7369 		.ascii "unsigned int\0"
 1525      676E6564 
 1525      20696E74 
 1525      00
 1526 07d5 06       		.uleb128 0x6
 1527 07d6 04       		.byte	0x4
 1528 07d7 3D050000 		.long	0x53d
 1529 07db 06       		.uleb128 0x6
 1530 07dc 04       		.byte	0x4
 1531 07dd 95000000 		.long	0x95
 1532 07e1 02       		.uleb128 0x2
 1533 07e2 7461736B 		.ascii "task_t\0"
 1533      5F7400
 1534 07e9 05       		.byte	0x5
 1535 07ea 4F       		.byte	0x4f
 1536 07eb 51050000 		.long	0x551
GAS LISTING C:\Users\PRESID~1\AppData\Local\Temp\cczg9UB2.s 			page 47


 1537 07ef 02       		.uleb128 0x2
 1538 07f0 73636865 		.ascii "scheduling_t\0"
 1538      64756C69 
 1538      6E675F74 
 1538      00
 1539 07fd 05       		.byte	0x5
 1540 07fe 50       		.byte	0x50
 1541 07ff 03080000 		.long	0x803
 1542 0803 06       		.uleb128 0x6
 1543 0804 04       		.byte	0x4
 1544 0805 E1070000 		.long	0x7e1
 1545 0809 02       		.uleb128 0x2
 1546 080a 73636865 		.ascii "scheduler_time_t\0"
 1546      64756C65 
 1546      725F7469 
 1546      6D655F74 
 1546      00
 1547 081b 05       		.byte	0x5
 1548 081c 5D       		.byte	0x5d
 1549 081d C5070000 		.long	0x7c5
 1550 0821 02       		.uleb128 0x2
 1551 0822 7461736B 		.ascii "task_time_t\0"
 1551      5F74696D 
 1551      655F7400 
 1552 082e 06       		.byte	0x6
 1553 082f 0F       		.byte	0xf
 1554 0830 C5070000 		.long	0x7c5
 1555 0834 0F       		.uleb128 0xf
 1556 0835 4F535F41 		.ascii "OS_ActivateDispatcher\0"
 1556      63746976 
 1556      61746544 
 1556      69737061 
 1556      74636865 
 1557 084b 01       		.byte	0x1
 1558 084c 16       		.byte	0x16
 1559 084d 00000000 		.long	LFB0
 1560 0851 05000000 		.long	LFE0-LFB0
 1561 0855 01       		.uleb128 0x1
 1562 0856 9C       		.byte	0x9c
 1563 0857 10       		.uleb128 0x10
 1564 0858 4F535F53 		.ascii "OS_SleepTask\0"
 1564      6C656570 
 1564      5461736B 
 1564      00
 1565 0865 01       		.byte	0x1
 1566 0866 30       		.byte	0x30
 1567 0867 05000000 		.long	LFB1
 1568 086b 1A000000 		.long	LFE1-LFB1
 1569 086f 01       		.uleb128 0x1
 1570 0870 9C       		.byte	0x9c
 1571 0871 97080000 		.long	0x897
 1572 0875 11       		.uleb128 0x11
 1573 0876 22000000 		.secrel32	LASF1
 1574 087a 01       		.byte	0x1
 1575 087b 30       		.byte	0x30
 1576 087c 03080000 		.long	0x803
 1577 0880 02       		.uleb128 0x2
GAS LISTING C:\Users\PRESID~1\AppData\Local\Temp\cczg9UB2.s 			page 48


 1578 0881 91       		.byte	0x91
 1579 0882 00       		.sleb128 0
 1580 0883 12       		.uleb128 0x12
 1581 0884 6D696C6C 		.ascii "millisec\0"
 1581      69736563 
 1581      00
 1582 088d 01       		.byte	0x1
 1583 088e 30       		.byte	0x30
 1584 088f 21080000 		.long	0x821
 1585 0893 02       		.uleb128 0x2
 1586 0894 91       		.byte	0x91
 1587 0895 04       		.sleb128 4
 1588 0896 00       		.byte	0
 1589 0897 13       		.uleb128 0x13
 1590 0898 7461736B 		.ascii "task_state_request\0"
 1590      5F737461 
 1590      74655F72 
 1590      65717565 
 1590      737400
 1591 08ab 01       		.byte	0x1
 1592 08ac 35       		.byte	0x35
 1593 08ad 95000000 		.long	0x95
 1594 08b1 1F000000 		.long	LFB2
 1595 08b5 0C010000 		.long	LFE2-LFB2
 1596 08b9 01       		.uleb128 0x1
 1597 08ba 9C       		.byte	0x9c
 1598 08bb 13090000 		.long	0x913
 1599 08bf 12       		.uleb128 0x12
 1600 08c0 74656D70 		.ascii "temp_task\0"
 1600      5F746173 
 1600      6B00
 1601 08ca 01       		.byte	0x1
 1602 08cb 35       		.byte	0x35
 1603 08cc CC040000 		.long	0x4cc
 1604 08d0 02       		.uleb128 0x2
 1605 08d1 91       		.byte	0x91
 1606 08d2 00       		.sleb128 0
 1607 08d3 12       		.uleb128 0x12
 1608 08d4 72657175 		.ascii "requested_state\0"
 1608      65737465 
 1608      645F7374 
 1608      61746500 
 1609 08e4 01       		.byte	0x1
 1610 08e5 35       		.byte	0x35
 1611 08e6 97040000 		.long	0x497
 1612 08ea 02       		.uleb128 0x2
 1613 08eb 91       		.byte	0x91
 1614 08ec 04       		.sleb128 4
 1615 08ed 14       		.uleb128 0x14
 1616 08ee 52657175 		.ascii "RequestState\0"
 1616      65737453 
 1616      74617465 
 1616      00
 1617 08fb 01       		.byte	0x1
 1618 08fc 37       		.byte	0x37
 1619 08fd 95000000 		.long	0x95
 1620 0901 02       		.uleb128 0x2
GAS LISTING C:\Users\PRESID~1\AppData\Local\Temp\cczg9UB2.s 			page 49


 1621 0902 91       		.byte	0x91
 1622 0903 6F       		.sleb128 -17
 1623 0904 15       		.uleb128 0x15
 1624 0905 22000000 		.secrel32	LASF1
 1625 0909 01       		.byte	0x1
 1626 090a 39       		.byte	0x39
 1627 090b 03080000 		.long	0x803
 1628 090f 02       		.uleb128 0x2
 1629 0910 91       		.byte	0x91
 1630 0911 68       		.sleb128 -24
 1631 0912 00       		.byte	0
 1632 0913 10       		.uleb128 0x10
 1633 0914 4F535F43 		.ascii "OS_CreateTask\0"
 1633      72656174 
 1633      65546173 
 1633      6B00
 1634 0922 01       		.byte	0x1
 1635 0923 A7       		.byte	0xa7
 1636 0924 2B010000 		.long	LFB3
 1637 0928 72000000 		.long	LFE3-LFB3
 1638 092c 01       		.uleb128 0x1
 1639 092d 9C       		.byte	0x9c
 1640 092e 41090000 		.long	0x941
 1641 0932 11       		.uleb128 0x11
 1642 0933 22000000 		.secrel32	LASF1
 1643 0937 01       		.byte	0x1
 1644 0938 A7       		.byte	0xa7
 1645 0939 03080000 		.long	0x803
 1646 093d 02       		.uleb128 0x2
 1647 093e 91       		.byte	0x91
 1648 093f 00       		.sleb128 0
 1649 0940 00       		.byte	0
 1650 0941 10       		.uleb128 0x10
 1651 0942 4F535F50 		.ascii "OS_PreemptTask\0"
 1651      7265656D 
 1651      70745461 
 1651      736B00
 1652 0951 01       		.byte	0x1
 1653 0952 C1       		.byte	0xc1
 1654 0953 9D010000 		.long	LFB4
 1655 0957 CE000000 		.long	LFE4-LFB4
 1656 095b 01       		.uleb128 0x1
 1657 095c 9C       		.byte	0x9c
 1658 095d 7E090000 		.long	0x97e
 1659 0961 11       		.uleb128 0x11
 1660 0962 22000000 		.secrel32	LASF1
 1661 0966 01       		.byte	0x1
 1662 0967 C1       		.byte	0xc1
 1663 0968 03080000 		.long	0x803
 1664 096c 02       		.uleb128 0x2
 1665 096d 91       		.byte	0x91
 1666 096e 00       		.sleb128 0
 1667 096f 11       		.uleb128 0x11
 1668 0970 12000000 		.secrel32	LASF2
 1669 0974 01       		.byte	0x1
 1670 0975 C1       		.byte	0xc1
 1671 0976 7E090000 		.long	0x97e
GAS LISTING C:\Users\PRESID~1\AppData\Local\Temp\cczg9UB2.s 			page 50


 1672 097a 02       		.uleb128 0x2
 1673 097b 91       		.byte	0x91
 1674 097c 04       		.sleb128 4
 1675 097d 00       		.byte	0
 1676 097e 06       		.uleb128 0x6
 1677 097f 04       		.byte	0x4
 1678 0980 EF070000 		.long	0x7ef
 1679 0984 10       		.uleb128 0x10
 1680 0985 4F535F41 		.ascii "OS_ActivateTask\0"
 1680      63746976 
 1680      61746554 
 1680      61736B00 
 1681 0995 01       		.byte	0x1
 1682 0996 ED       		.byte	0xed
 1683 0997 6B020000 		.long	LFB5
 1684 099b AB000000 		.long	LFE5-LFB5
 1685 099f 01       		.uleb128 0x1
 1686 09a0 9C       		.byte	0x9c
 1687 09a1 B4090000 		.long	0x9b4
 1688 09a5 11       		.uleb128 0x11
 1689 09a6 22000000 		.secrel32	LASF1
 1690 09aa 01       		.byte	0x1
 1691 09ab ED       		.byte	0xed
 1692 09ac 03080000 		.long	0x803
 1693 09b0 02       		.uleb128 0x2
 1694 09b1 91       		.byte	0x91
 1695 09b2 00       		.sleb128 0
 1696 09b3 00       		.byte	0
 1697 09b4 16       		.uleb128 0x16
 1698 09b5 4F535F53 		.ascii "OS_StartTask\0"
 1698      74617274 
 1698      5461736B 
 1698      00
 1699 09c2 01       		.byte	0x1
 1700 09c3 1A01     		.word	0x11a
 1701 09c5 16030000 		.long	LFB6
 1702 09c9 08010000 		.long	LFE6-LFB6
 1703 09cd 01       		.uleb128 0x1
 1704 09ce 9C       		.byte	0x9c
 1705 09cf F2090000 		.long	0x9f2
 1706 09d3 17       		.uleb128 0x17
 1707 09d4 22000000 		.secrel32	LASF1
 1708 09d8 01       		.byte	0x1
 1709 09d9 1A01     		.word	0x11a
 1710 09db 03080000 		.long	0x803
 1711 09df 02       		.uleb128 0x2
 1712 09e0 91       		.byte	0x91
 1713 09e1 00       		.sleb128 0
 1714 09e2 17       		.uleb128 0x17
 1715 09e3 12000000 		.secrel32	LASF2
 1716 09e7 01       		.byte	0x1
 1717 09e8 1A01     		.word	0x11a
 1718 09ea 7E090000 		.long	0x97e
 1719 09ee 02       		.uleb128 0x2
 1720 09ef 91       		.byte	0x91
 1721 09f0 04       		.sleb128 4
 1722 09f1 00       		.byte	0
GAS LISTING C:\Users\PRESID~1\AppData\Local\Temp\cczg9UB2.s 			page 51


 1723 09f2 16       		.uleb128 0x16
 1724 09f3 4F535F54 		.ascii "OS_TerminateTask\0"
 1724      65726D69 
 1724      6E617465 
 1724      5461736B 
 1724      00
 1725 0a04 01       		.byte	0x1
 1726 0a05 4F01     		.word	0x14f
 1727 0a07 1E040000 		.long	LFB7
 1728 0a0b CE000000 		.long	LFE7-LFB7
 1729 0a0f 01       		.uleb128 0x1
 1730 0a10 9C       		.byte	0x9c
 1731 0a11 340A0000 		.long	0xa34
 1732 0a15 17       		.uleb128 0x17
 1733 0a16 22000000 		.secrel32	LASF1
 1734 0a1a 01       		.byte	0x1
 1735 0a1b 4F01     		.word	0x14f
 1736 0a1d 03080000 		.long	0x803
 1737 0a21 02       		.uleb128 0x2
 1738 0a22 91       		.byte	0x91
 1739 0a23 00       		.sleb128 0
 1740 0a24 17       		.uleb128 0x17
 1741 0a25 12000000 		.secrel32	LASF2
 1742 0a29 01       		.byte	0x1
 1743 0a2a 4F01     		.word	0x14f
 1744 0a2c 7E090000 		.long	0x97e
 1745 0a30 02       		.uleb128 0x2
 1746 0a31 91       		.byte	0x91
 1747 0a32 04       		.sleb128 4
 1748 0a33 00       		.byte	0
 1749 0a34 16       		.uleb128 0x16
 1750 0a35 4F535F54 		.ascii "OS_TaskDispatcher\0"
 1750      61736B44 
 1750      69737061 
 1750      74636865 
 1750      7200
 1751 0a47 01       		.byte	0x1
 1752 0a48 7901     		.word	0x179
 1753 0a4a EC040000 		.long	LFB8
 1754 0a4e 77000000 		.long	LFE8-LFB8
 1755 0a52 01       		.uleb128 0x1
 1756 0a53 9C       		.byte	0x9c
 1757 0a54 870A0000 		.long	0xa87
 1758 0a58 18       		.uleb128 0x18
 1759 0a59 73636865 		.ascii "scheduling_task_ptr\0"
 1759      64756C69 
 1759      6E675F74 
 1759      61736B5F 
 1759      70747200 
 1760 0a6d 01       		.byte	0x1
 1761 0a6e 8501     		.word	0x185
 1762 0a70 7E090000 		.long	0x97e
 1763 0a74 02       		.uleb128 0x2
 1764 0a75 91       		.byte	0x91
 1765 0a76 68       		.sleb128 -24
 1766 0a77 19       		.uleb128 0x19
 1767 0a78 22000000 		.secrel32	LASF1
GAS LISTING C:\Users\PRESID~1\AppData\Local\Temp\cczg9UB2.s 			page 52


 1768 0a7c 01       		.byte	0x1
 1769 0a7d 8601     		.word	0x186
 1770 0a7f 03080000 		.long	0x803
 1771 0a83 02       		.uleb128 0x2
 1772 0a84 91       		.byte	0x91
 1773 0a85 6C       		.sleb128 -20
 1774 0a86 00       		.byte	0
 1775 0a87 1A       		.uleb128 0x1a
 1776 0a88 5441534B 		.ascii "TASK_0\0"
 1776      5F3000
 1777 0a8f 01       		.byte	0x1
 1778 0a90 9C01     		.word	0x19c
 1779 0a92 63050000 		.long	LFB9
 1780 0a96 05000000 		.long	LFE9-LFB9
 1781 0a9a 01       		.uleb128 0x1
 1782 0a9b 9C       		.byte	0x9c
 1783 0a9c B00A0000 		.long	0xab0
 1784 0aa0 17       		.uleb128 0x17
 1785 0aa1 00000000 		.secrel32	LASF3
 1786 0aa5 01       		.byte	0x1
 1787 0aa6 9C01     		.word	0x19c
 1788 0aa8 CC040000 		.long	0x4cc
 1789 0aac 02       		.uleb128 0x2
 1790 0aad 91       		.byte	0x91
 1791 0aae 00       		.sleb128 0
 1792 0aaf 00       		.byte	0
 1793 0ab0 1B       		.uleb128 0x1b
 1794 0ab1 5441534B 		.ascii "TASK_1\0"
 1794      5F3100
 1795 0ab8 01       		.byte	0x1
 1796 0ab9 A101     		.word	0x1a1
 1797 0abb 68050000 		.long	LFB10
 1798 0abf 26000000 		.long	LFE10-LFB10
 1799 0ac3 01       		.uleb128 0x1
 1800 0ac4 9C       		.byte	0x9c
 1801 0ac5 D90A0000 		.long	0xad9
 1802 0ac9 17       		.uleb128 0x17
 1803 0aca 00000000 		.secrel32	LASF3
 1804 0ace 01       		.byte	0x1
 1805 0acf A101     		.word	0x1a1
 1806 0ad1 CC040000 		.long	0x4cc
 1807 0ad5 02       		.uleb128 0x2
 1808 0ad6 91       		.byte	0x91
 1809 0ad7 00       		.sleb128 0
 1810 0ad8 00       		.byte	0
 1811 0ad9 1A       		.uleb128 0x1a
 1812 0ada 5441534B 		.ascii "TASK_2\0"
 1812      5F3200
 1813 0ae1 01       		.byte	0x1
 1814 0ae2 AF01     		.word	0x1af
 1815 0ae4 8E050000 		.long	LFB11
 1816 0ae8 10000000 		.long	LFE11-LFB11
 1817 0aec 01       		.uleb128 0x1
 1818 0aed 9C       		.byte	0x9c
 1819 0aee 020B0000 		.long	0xb02
 1820 0af2 17       		.uleb128 0x17
 1821 0af3 00000000 		.secrel32	LASF3
GAS LISTING C:\Users\PRESID~1\AppData\Local\Temp\cczg9UB2.s 			page 53


 1822 0af7 01       		.byte	0x1
 1823 0af8 AF01     		.word	0x1af
 1824 0afa CC040000 		.long	0x4cc
 1825 0afe 02       		.uleb128 0x2
 1826 0aff 91       		.byte	0x91
 1827 0b00 00       		.sleb128 0
 1828 0b01 00       		.byte	0
 1829 0b02 1A       		.uleb128 0x1a
 1830 0b03 5441534B 		.ascii "TASK_3\0"
 1830      5F3300
 1831 0b0a 01       		.byte	0x1
 1832 0b0b BB01     		.word	0x1bb
 1833 0b0d 9E050000 		.long	LFB12
 1834 0b11 10000000 		.long	LFE12-LFB12
 1835 0b15 01       		.uleb128 0x1
 1836 0b16 9C       		.byte	0x9c
 1837 0b17 2B0B0000 		.long	0xb2b
 1838 0b1b 17       		.uleb128 0x17
 1839 0b1c 00000000 		.secrel32	LASF3
 1840 0b20 01       		.byte	0x1
 1841 0b21 BB01     		.word	0x1bb
 1842 0b23 CC040000 		.long	0x4cc
 1843 0b27 02       		.uleb128 0x2
 1844 0b28 91       		.byte	0x91
 1845 0b29 00       		.sleb128 0
 1846 0b2a 00       		.byte	0
 1847 0b2b 16       		.uleb128 0x16
 1848 0b2c 4F535F49 		.ascii "OS_InitTasks\0"
 1848      6E697454 
 1848      61736B73 
 1848      00
 1849 0b39 01       		.byte	0x1
 1850 0b3a C701     		.word	0x1c7
 1851 0b3c AE050000 		.long	LFB13
 1852 0b40 86010000 		.long	LFE13-LFB13
 1853 0b44 01       		.uleb128 0x1
 1854 0b45 9C       		.byte	0x9c
 1855 0b46 5A0B0000 		.long	0xb5a
 1856 0b4a 19       		.uleb128 0x19
 1857 0b4b 00000000 		.secrel32	LASF3
 1858 0b4f 01       		.byte	0x1
 1859 0b50 C901     		.word	0x1c9
 1860 0b52 03080000 		.long	0x803
 1861 0b56 02       		.uleb128 0x2
 1862 0b57 91       		.byte	0x91
 1863 0b58 6C       		.sleb128 -20
 1864 0b59 00       		.byte	0
 1865 0b5a 1C       		.uleb128 0x1c
 1866 0b5b 4F535F54 		.ascii "OS_TaskScheduler\0"
 1866      61736B53 
 1866      63686564 
 1866      756C6572 
 1866      00
 1867 0b6c 01       		.byte	0x1
 1868 0b6d 1502     		.word	0x215
 1869 0b6f 380C0000 		.long	0xc38
 1870 0b73 34070000 		.long	LFB14
GAS LISTING C:\Users\PRESID~1\AppData\Local\Temp\cczg9UB2.s 			page 54


 1871 0b77 C6010000 		.long	LFE14-LFB14
 1872 0b7b 01       		.uleb128 0x1
 1873 0b7c 9C       		.byte	0x9c
 1874 0b7d 380C0000 		.long	0xc38
 1875 0b81 18       		.uleb128 0x18
 1876 0b82 73636865 		.ascii "scheduling_queue_member\0"
 1876      64756C69 
 1876      6E675F71 
 1876      75657565 
 1876      5F6D656D 
 1877 0b9a 01       		.byte	0x1
 1878 0b9b 1802     		.word	0x218
 1879 0b9d 7E090000 		.long	0x97e
 1880 0ba1 02       		.uleb128 0x2
 1881 0ba2 91       		.byte	0x91
 1882 0ba3 58       		.sleb128 -40
 1883 0ba4 18       		.uleb128 0x18
 1884 0ba5 656C656D 		.ascii "element_nr\0"
 1884      656E745F 
 1884      6E7200
 1885 0bb0 01       		.byte	0x1
 1886 0bb1 1902     		.word	0x219
 1887 0bb3 95000000 		.long	0x95
 1888 0bb7 02       		.uleb128 0x2
 1889 0bb8 91       		.byte	0x91
 1890 0bb9 6F       		.sleb128 -17
 1891 0bba 18       		.uleb128 0x18
 1892 0bbb 57696E6E 		.ascii "Winner_prio\0"
 1892      65725F70 
 1892      72696F00 
 1893 0bc7 01       		.byte	0x1
 1894 0bc8 1B02     		.word	0x21b
 1895 0bca 95000000 		.long	0x95
 1896 0bce 02       		.uleb128 0x2
 1897 0bcf 91       		.byte	0x91
 1898 0bd0 6E       		.sleb128 -18
 1899 0bd1 19       		.uleb128 0x19
 1900 0bd2 22000000 		.secrel32	LASF1
 1901 0bd6 01       		.byte	0x1
 1902 0bd7 1C02     		.word	0x21c
 1903 0bd9 03080000 		.long	0x803
 1904 0bdd 02       		.uleb128 0x2
 1905 0bde 91       		.byte	0x91
 1906 0bdf 64       		.sleb128 -28
 1907 0be0 18       		.uleb128 0x18
 1908 0be1 57696E6E 		.ascii "Winner_task\0"
 1908      65725F74 
 1908      61736B00 
 1909 0bed 01       		.byte	0x1
 1910 0bee 1D02     		.word	0x21d
 1911 0bf0 03080000 		.long	0x803
 1912 0bf4 02       		.uleb128 0x2
 1913 0bf5 91       		.byte	0x91
 1914 0bf6 60       		.sleb128 -32
 1915 0bf7 18       		.uleb128 0x18
 1916 0bf8 57696E6E 		.ascii "Winner_scheduling_queue_member\0"
 1916      65725F73 
GAS LISTING C:\Users\PRESID~1\AppData\Local\Temp\cczg9UB2.s 			page 55


 1916      63686564 
 1916      756C696E 
 1916      675F7175 
 1917 0c17 01       		.byte	0x1
 1918 0c18 1E02     		.word	0x21e
 1919 0c1a 7E090000 		.long	0x97e
 1920 0c1e 02       		.uleb128 0x2
 1921 0c1f 91       		.byte	0x91
 1922 0c20 68       		.sleb128 -24
 1923 0c21 18       		.uleb128 0x18
 1924 0c22 64656C74 		.ascii "delta_time\0"
 1924      615F7469 
 1924      6D6500
 1925 0c2d 01       		.byte	0x1
 1926 0c2e 1F02     		.word	0x21f
 1927 0c30 09080000 		.long	0x809
 1928 0c34 02       		.uleb128 0x2
 1929 0c35 91       		.byte	0x91
 1930 0c36 5C       		.sleb128 -36
 1931 0c37 00       		.byte	0
 1932 0c38 06       		.uleb128 0x6
 1933 0c39 04       		.byte	0x4
 1934 0c3a 03080000 		.long	0x803
 1935 0c3e 1D       		.uleb128 0x1d
 1936 0c3f 95000000 		.long	0x95
 1937 0c43 540C0000 		.long	0xc54
 1938 0c47 1E       		.uleb128 0x1e
 1939 0c48 540C0000 		.long	0xc54
 1940 0c4c 00       		.byte	0
 1941 0c4d 1E       		.uleb128 0x1e
 1942 0c4e 540C0000 		.long	0xc54
 1943 0c52 FF       		.byte	0xff
 1944 0c53 00       		.byte	0
 1945 0c54 03       		.uleb128 0x3
 1946 0c55 04       		.byte	0x4
 1947 0c56 07       		.byte	0x7
 1948 0c57 73697A65 		.ascii "sizetype\0"
 1948      74797065 
 1948      00
 1949 0c60 1F       		.uleb128 0x1f
 1950 0c61 4F535F53 		.ascii "OS_STACK\0"
 1950      5441434B 
 1950      00
 1951 0c6a 07       		.byte	0x7
 1952 0c6b 0E       		.byte	0xe
 1953 0c6c 3E0C0000 		.long	0xc3e
 1954 0c70 1F       		.uleb128 0x1f
 1955 0c71 5441534B 		.ascii "TASK1_CALL_NR\0"
 1955      315F4341 
 1955      4C4C5F4E 
 1955      5200
 1956 0c7f 07       		.byte	0x7
 1957 0c80 20       		.byte	0x20
 1958 0c81 850C0000 		.long	0xc85
 1959 0c85 20       		.uleb128 0x20
 1960 0c86 00010000 		.long	0x100
 1961 0c8a 1F       		.uleb128 0x1f
GAS LISTING C:\Users\PRESID~1\AppData\Local\Temp\cczg9UB2.s 			page 56


 1962 0c8b 5441534B 		.ascii "TASK2_CALL_NR\0"
 1962      325F4341 
 1962      4C4C5F4E 
 1962      5200
 1963 0c99 07       		.byte	0x7
 1964 0c9a 21       		.byte	0x21
 1965 0c9b 850C0000 		.long	0xc85
 1966 0c9f 1F       		.uleb128 0x1f
 1967 0ca0 5441534B 		.ascii "TASK3_CALL_NR\0"
 1967      335F4341 
 1967      4C4C5F4E 
 1967      5200
 1968 0cae 07       		.byte	0x7
 1969 0caf 22       		.byte	0x22
 1970 0cb0 850C0000 		.long	0xc85
 1971 0cb4 1D       		.uleb128 0x1d
 1972 0cb5 95000000 		.long	0x95
 1973 0cb9 CA0C0000 		.long	0xcca
 1974 0cbd 1E       		.uleb128 0x1e
 1975 0cbe 540C0000 		.long	0xc54
 1976 0cc2 04       		.byte	0x4
 1977 0cc3 1E       		.uleb128 0x1e
 1978 0cc4 540C0000 		.long	0xc54
 1979 0cc8 C7       		.byte	0xc7
 1980 0cc9 00       		.byte	0
 1981 0cca 1F       		.uleb128 0x1f
 1982 0ccb 5441534B 		.ascii "TASK_STACK\0"
 1982      5F535441 
 1982      434B00
 1983 0cd6 07       		.byte	0x7
 1984 0cd7 25       		.byte	0x25
 1985 0cd8 B40C0000 		.long	0xcb4
 1986 0cdc 1F       		.uleb128 0x1f
 1987 0cdd 4C415354 		.ascii "LAST_CURRENT_TIME\0"
 1987      5F435552 
 1987      52454E54 
 1987      5F54494D 
 1987      4500
 1988 0cef 07       		.byte	0x7
 1989 0cf0 26       		.byte	0x26
 1990 0cf1 09080000 		.long	0x809
 1991 0cf5 1F       		.uleb128 0x1f
 1992 0cf6 5441534B 		.ascii "TASK_0_VAR\0"
 1992      5F305F56 
 1992      415200
 1993 0d01 07       		.byte	0x7
 1994 0d02 2D       		.byte	0x2d
 1995 0d03 E1070000 		.long	0x7e1
 1996 0d07 1F       		.uleb128 0x1f
 1997 0d08 5441534B 		.ascii "TASK_1_VAR\0"
 1997      5F315F56 
 1997      415200
 1998 0d13 07       		.byte	0x7
 1999 0d14 2D       		.byte	0x2d
 2000 0d15 E1070000 		.long	0x7e1
 2001 0d19 1F       		.uleb128 0x1f
 2002 0d1a 5441534B 		.ascii "TASK_2_VAR\0"
GAS LISTING C:\Users\PRESID~1\AppData\Local\Temp\cczg9UB2.s 			page 57


 2002      5F325F56 
 2002      415200
 2003 0d25 07       		.byte	0x7
 2004 0d26 2D       		.byte	0x2d
 2005 0d27 E1070000 		.long	0x7e1
 2006 0d2b 1F       		.uleb128 0x1f
 2007 0d2c 5441534B 		.ascii "TASK_3_VAR\0"
 2007      5F335F56 
 2007      415200
 2008 0d37 07       		.byte	0x7
 2009 0d38 2D       		.byte	0x2d
 2010 0d39 E1070000 		.long	0x7e1
 2011 0d3d 1F       		.uleb128 0x1f
 2012 0d3e 5441534B 		.ascii "TASK_GROUP_1\0"
 2012      5F47524F 
 2012      55505F31 
 2012      00
 2013 0d4b 07       		.byte	0x7
 2014 0d4c 2E       		.byte	0x2e
 2015 0d4d 3D050000 		.long	0x53d
 2016 0d51 1F       		.uleb128 0x1f
 2017 0d52 5441534B 		.ascii "TASK_GROUP_2\0"
 2017      5F47524F 
 2017      55505F32 
 2017      00
 2018 0d5f 07       		.byte	0x7
 2019 0d60 2E       		.byte	0x2e
 2020 0d61 3D050000 		.long	0x53d
 2021 0d65 1F       		.uleb128 0x1f
 2022 0d66 5441534B 		.ascii "TASK_GROUP_3\0"
 2022      5F47524F 
 2022      55505F33 
 2022      00
 2023 0d73 07       		.byte	0x7
 2024 0d74 2E       		.byte	0x2e
 2025 0d75 3D050000 		.long	0x53d
 2026 0d79 1F       		.uleb128 0x1f
 2027 0d7a 5441534B 		.ascii "TASK_GROUP_4\0"
 2027      5F47524F 
 2027      55505F34 
 2027      00
 2028 0d87 07       		.byte	0x7
 2029 0d88 2E       		.byte	0x2e
 2030 0d89 3D050000 		.long	0x53d
 2031 0d8d 1F       		.uleb128 0x1f
 2032 0d8e 5441534B 		.ascii "TASK_GROUP_5\0"
 2032      5F47524F 
 2032      55505F35 
 2032      00
 2033 0d9b 07       		.byte	0x7
 2034 0d9c 2E       		.byte	0x2e
 2035 0d9d 3D050000 		.long	0x53d
 2036 0da1 00       		.byte	0
 2037              		.section	.debug_abbrev,"dr"
 2038              	Ldebug_abbrev0:
 2039 0000 01       		.uleb128 0x1
 2040 0001 11       		.uleb128 0x11
GAS LISTING C:\Users\PRESID~1\AppData\Local\Temp\cczg9UB2.s 			page 58


 2041 0002 01       		.byte	0x1
 2042 0003 25       		.uleb128 0x25
 2043 0004 08       		.uleb128 0x8
 2044 0005 13       		.uleb128 0x13
 2045 0006 0B       		.uleb128 0xb
 2046 0007 03       		.uleb128 0x3
 2047 0008 08       		.uleb128 0x8
 2048 0009 11       		.uleb128 0x11
 2049 000a 01       		.uleb128 0x1
 2050 000b 12       		.uleb128 0x12
 2051 000c 06       		.uleb128 0x6
 2052 000d 10       		.uleb128 0x10
 2053 000e 17       		.uleb128 0x17
 2054 000f 9942     		.uleb128 0x2119
 2055 0011 17       		.uleb128 0x17
 2056 0012 00       		.byte	0
 2057 0013 00       		.byte	0
 2058 0014 02       		.uleb128 0x2
 2059 0015 16       		.uleb128 0x16
 2060 0016 00       		.byte	0
 2061 0017 03       		.uleb128 0x3
 2062 0018 08       		.uleb128 0x8
 2063 0019 3A       		.uleb128 0x3a
 2064 001a 0B       		.uleb128 0xb
 2065 001b 3B       		.uleb128 0x3b
 2066 001c 0B       		.uleb128 0xb
 2067 001d 49       		.uleb128 0x49
 2068 001e 13       		.uleb128 0x13
 2069 001f 00       		.byte	0
 2070 0020 00       		.byte	0
 2071 0021 03       		.uleb128 0x3
 2072 0022 24       		.uleb128 0x24
 2073 0023 00       		.byte	0
 2074 0024 0B       		.uleb128 0xb
 2075 0025 0B       		.uleb128 0xb
 2076 0026 3E       		.uleb128 0x3e
 2077 0027 0B       		.uleb128 0xb
 2078 0028 03       		.uleb128 0x3
 2079 0029 08       		.uleb128 0x8
 2080 002a 00       		.byte	0
 2081 002b 00       		.byte	0
 2082 002c 04       		.uleb128 0x4
 2083 002d 04       		.uleb128 0x4
 2084 002e 01       		.byte	0x1
 2085 002f 03       		.uleb128 0x3
 2086 0030 08       		.uleb128 0x8
 2087 0031 0B       		.uleb128 0xb
 2088 0032 0B       		.uleb128 0xb
 2089 0033 3A       		.uleb128 0x3a
 2090 0034 0B       		.uleb128 0xb
 2091 0035 3B       		.uleb128 0x3b
 2092 0036 0B       		.uleb128 0xb
 2093 0037 01       		.uleb128 0x1
 2094 0038 13       		.uleb128 0x13
 2095 0039 00       		.byte	0
 2096 003a 00       		.byte	0
 2097 003b 05       		.uleb128 0x5
GAS LISTING C:\Users\PRESID~1\AppData\Local\Temp\cczg9UB2.s 			page 59


 2098 003c 28       		.uleb128 0x28
 2099 003d 00       		.byte	0
 2100 003e 03       		.uleb128 0x3
 2101 003f 08       		.uleb128 0x8
 2102 0040 1C       		.uleb128 0x1c
 2103 0041 0D       		.uleb128 0xd
 2104 0042 00       		.byte	0
 2105 0043 00       		.byte	0
 2106 0044 06       		.uleb128 0x6
 2107 0045 0F       		.uleb128 0xf
 2108 0046 00       		.byte	0
 2109 0047 0B       		.uleb128 0xb
 2110 0048 0B       		.uleb128 0xb
 2111 0049 49       		.uleb128 0x49
 2112 004a 13       		.uleb128 0x13
 2113 004b 00       		.byte	0
 2114 004c 00       		.byte	0
 2115 004d 07       		.uleb128 0x7
 2116 004e 15       		.uleb128 0x15
 2117 004f 01       		.byte	0x1
 2118 0050 27       		.uleb128 0x27
 2119 0051 19       		.uleb128 0x19
 2120 0052 01       		.uleb128 0x1
 2121 0053 13       		.uleb128 0x13
 2122 0054 00       		.byte	0
 2123 0055 00       		.byte	0
 2124 0056 08       		.uleb128 0x8
 2125 0057 05       		.uleb128 0x5
 2126 0058 00       		.byte	0
 2127 0059 49       		.uleb128 0x49
 2128 005a 13       		.uleb128 0x13
 2129 005b 00       		.byte	0
 2130 005c 00       		.byte	0
 2131 005d 09       		.uleb128 0x9
 2132 005e 0F       		.uleb128 0xf
 2133 005f 00       		.byte	0
 2134 0060 0B       		.uleb128 0xb
 2135 0061 0B       		.uleb128 0xb
 2136 0062 00       		.byte	0
 2137 0063 00       		.byte	0
 2138 0064 0A       		.uleb128 0xa
 2139 0065 15       		.uleb128 0x15
 2140 0066 01       		.byte	0x1
 2141 0067 27       		.uleb128 0x27
 2142 0068 19       		.uleb128 0x19
 2143 0069 49       		.uleb128 0x49
 2144 006a 13       		.uleb128 0x13
 2145 006b 01       		.uleb128 0x1
 2146 006c 13       		.uleb128 0x13
 2147 006d 00       		.byte	0
 2148 006e 00       		.byte	0
 2149 006f 0B       		.uleb128 0xb
 2150 0070 13       		.uleb128 0x13
 2151 0071 01       		.byte	0x1
 2152 0072 03       		.uleb128 0x3
 2153 0073 08       		.uleb128 0x8
 2154 0074 0B       		.uleb128 0xb
GAS LISTING C:\Users\PRESID~1\AppData\Local\Temp\cczg9UB2.s 			page 60


 2155 0075 0B       		.uleb128 0xb
 2156 0076 3A       		.uleb128 0x3a
 2157 0077 0B       		.uleb128 0xb
 2158 0078 3B       		.uleb128 0x3b
 2159 0079 0B       		.uleb128 0xb
 2160 007a 01       		.uleb128 0x1
 2161 007b 13       		.uleb128 0x13
 2162 007c 00       		.byte	0
 2163 007d 00       		.byte	0
 2164 007e 0C       		.uleb128 0xc
 2165 007f 0D       		.uleb128 0xd
 2166 0080 00       		.byte	0
 2167 0081 03       		.uleb128 0x3
 2168 0082 0E       		.uleb128 0xe
 2169 0083 3A       		.uleb128 0x3a
 2170 0084 0B       		.uleb128 0xb
 2171 0085 3B       		.uleb128 0x3b
 2172 0086 0B       		.uleb128 0xb
 2173 0087 49       		.uleb128 0x49
 2174 0088 13       		.uleb128 0x13
 2175 0089 38       		.uleb128 0x38
 2176 008a 0B       		.uleb128 0xb
 2177 008b 00       		.byte	0
 2178 008c 00       		.byte	0
 2179 008d 0D       		.uleb128 0xd
 2180 008e 0D       		.uleb128 0xd
 2181 008f 00       		.byte	0
 2182 0090 03       		.uleb128 0x3
 2183 0091 08       		.uleb128 0x8
 2184 0092 3A       		.uleb128 0x3a
 2185 0093 0B       		.uleb128 0xb
 2186 0094 3B       		.uleb128 0x3b
 2187 0095 0B       		.uleb128 0xb
 2188 0096 49       		.uleb128 0x49
 2189 0097 13       		.uleb128 0x13
 2190 0098 38       		.uleb128 0x38
 2191 0099 0B       		.uleb128 0xb
 2192 009a 00       		.byte	0
 2193 009b 00       		.byte	0
 2194 009c 0E       		.uleb128 0xe
 2195 009d 0D       		.uleb128 0xd
 2196 009e 00       		.byte	0
 2197 009f 03       		.uleb128 0x3
 2198 00a0 08       		.uleb128 0x8
 2199 00a1 3A       		.uleb128 0x3a
 2200 00a2 0B       		.uleb128 0xb
 2201 00a3 3B       		.uleb128 0x3b
 2202 00a4 0B       		.uleb128 0xb
 2203 00a5 49       		.uleb128 0x49
 2204 00a6 13       		.uleb128 0x13
 2205 00a7 0B       		.uleb128 0xb
 2206 00a8 0B       		.uleb128 0xb
 2207 00a9 0D       		.uleb128 0xd
 2208 00aa 0B       		.uleb128 0xb
 2209 00ab 0C       		.uleb128 0xc
 2210 00ac 0B       		.uleb128 0xb
 2211 00ad 38       		.uleb128 0x38
GAS LISTING C:\Users\PRESID~1\AppData\Local\Temp\cczg9UB2.s 			page 61


 2212 00ae 0B       		.uleb128 0xb
 2213 00af 00       		.byte	0
 2214 00b0 00       		.byte	0
 2215 00b1 0F       		.uleb128 0xf
 2216 00b2 2E       		.uleb128 0x2e
 2217 00b3 00       		.byte	0
 2218 00b4 3F       		.uleb128 0x3f
 2219 00b5 19       		.uleb128 0x19
 2220 00b6 03       		.uleb128 0x3
 2221 00b7 08       		.uleb128 0x8
 2222 00b8 3A       		.uleb128 0x3a
 2223 00b9 0B       		.uleb128 0xb
 2224 00ba 3B       		.uleb128 0x3b
 2225 00bb 0B       		.uleb128 0xb
 2226 00bc 27       		.uleb128 0x27
 2227 00bd 19       		.uleb128 0x19
 2228 00be 11       		.uleb128 0x11
 2229 00bf 01       		.uleb128 0x1
 2230 00c0 12       		.uleb128 0x12
 2231 00c1 06       		.uleb128 0x6
 2232 00c2 40       		.uleb128 0x40
 2233 00c3 18       		.uleb128 0x18
 2234 00c4 9742     		.uleb128 0x2117
 2235 00c6 19       		.uleb128 0x19
 2236 00c7 00       		.byte	0
 2237 00c8 00       		.byte	0
 2238 00c9 10       		.uleb128 0x10
 2239 00ca 2E       		.uleb128 0x2e
 2240 00cb 01       		.byte	0x1
 2241 00cc 3F       		.uleb128 0x3f
 2242 00cd 19       		.uleb128 0x19
 2243 00ce 03       		.uleb128 0x3
 2244 00cf 08       		.uleb128 0x8
 2245 00d0 3A       		.uleb128 0x3a
 2246 00d1 0B       		.uleb128 0xb
 2247 00d2 3B       		.uleb128 0x3b
 2248 00d3 0B       		.uleb128 0xb
 2249 00d4 27       		.uleb128 0x27
 2250 00d5 19       		.uleb128 0x19
 2251 00d6 11       		.uleb128 0x11
 2252 00d7 01       		.uleb128 0x1
 2253 00d8 12       		.uleb128 0x12
 2254 00d9 06       		.uleb128 0x6
 2255 00da 40       		.uleb128 0x40
 2256 00db 18       		.uleb128 0x18
 2257 00dc 9642     		.uleb128 0x2116
 2258 00de 19       		.uleb128 0x19
 2259 00df 01       		.uleb128 0x1
 2260 00e0 13       		.uleb128 0x13
 2261 00e1 00       		.byte	0
 2262 00e2 00       		.byte	0
 2263 00e3 11       		.uleb128 0x11
 2264 00e4 05       		.uleb128 0x5
 2265 00e5 00       		.byte	0
 2266 00e6 03       		.uleb128 0x3
 2267 00e7 0E       		.uleb128 0xe
 2268 00e8 3A       		.uleb128 0x3a
GAS LISTING C:\Users\PRESID~1\AppData\Local\Temp\cczg9UB2.s 			page 62


 2269 00e9 0B       		.uleb128 0xb
 2270 00ea 3B       		.uleb128 0x3b
 2271 00eb 0B       		.uleb128 0xb
 2272 00ec 49       		.uleb128 0x49
 2273 00ed 13       		.uleb128 0x13
 2274 00ee 02       		.uleb128 0x2
 2275 00ef 18       		.uleb128 0x18
 2276 00f0 00       		.byte	0
 2277 00f1 00       		.byte	0
 2278 00f2 12       		.uleb128 0x12
 2279 00f3 05       		.uleb128 0x5
 2280 00f4 00       		.byte	0
 2281 00f5 03       		.uleb128 0x3
 2282 00f6 08       		.uleb128 0x8
 2283 00f7 3A       		.uleb128 0x3a
 2284 00f8 0B       		.uleb128 0xb
 2285 00f9 3B       		.uleb128 0x3b
 2286 00fa 0B       		.uleb128 0xb
 2287 00fb 49       		.uleb128 0x49
 2288 00fc 13       		.uleb128 0x13
 2289 00fd 02       		.uleb128 0x2
 2290 00fe 18       		.uleb128 0x18
 2291 00ff 00       		.byte	0
 2292 0100 00       		.byte	0
 2293 0101 13       		.uleb128 0x13
 2294 0102 2E       		.uleb128 0x2e
 2295 0103 01       		.byte	0x1
 2296 0104 3F       		.uleb128 0x3f
 2297 0105 19       		.uleb128 0x19
 2298 0106 03       		.uleb128 0x3
 2299 0107 08       		.uleb128 0x8
 2300 0108 3A       		.uleb128 0x3a
 2301 0109 0B       		.uleb128 0xb
 2302 010a 3B       		.uleb128 0x3b
 2303 010b 0B       		.uleb128 0xb
 2304 010c 27       		.uleb128 0x27
 2305 010d 19       		.uleb128 0x19
 2306 010e 49       		.uleb128 0x49
 2307 010f 13       		.uleb128 0x13
 2308 0110 11       		.uleb128 0x11
 2309 0111 01       		.uleb128 0x1
 2310 0112 12       		.uleb128 0x12
 2311 0113 06       		.uleb128 0x6
 2312 0114 40       		.uleb128 0x40
 2313 0115 18       		.uleb128 0x18
 2314 0116 9642     		.uleb128 0x2116
 2315 0118 19       		.uleb128 0x19
 2316 0119 01       		.uleb128 0x1
 2317 011a 13       		.uleb128 0x13
 2318 011b 00       		.byte	0
 2319 011c 00       		.byte	0
 2320 011d 14       		.uleb128 0x14
 2321 011e 34       		.uleb128 0x34
 2322 011f 00       		.byte	0
 2323 0120 03       		.uleb128 0x3
 2324 0121 08       		.uleb128 0x8
 2325 0122 3A       		.uleb128 0x3a
GAS LISTING C:\Users\PRESID~1\AppData\Local\Temp\cczg9UB2.s 			page 63


 2326 0123 0B       		.uleb128 0xb
 2327 0124 3B       		.uleb128 0x3b
 2328 0125 0B       		.uleb128 0xb
 2329 0126 49       		.uleb128 0x49
 2330 0127 13       		.uleb128 0x13
 2331 0128 02       		.uleb128 0x2
 2332 0129 18       		.uleb128 0x18
 2333 012a 00       		.byte	0
 2334 012b 00       		.byte	0
 2335 012c 15       		.uleb128 0x15
 2336 012d 34       		.uleb128 0x34
 2337 012e 00       		.byte	0
 2338 012f 03       		.uleb128 0x3
 2339 0130 0E       		.uleb128 0xe
 2340 0131 3A       		.uleb128 0x3a
 2341 0132 0B       		.uleb128 0xb
 2342 0133 3B       		.uleb128 0x3b
 2343 0134 0B       		.uleb128 0xb
 2344 0135 49       		.uleb128 0x49
 2345 0136 13       		.uleb128 0x13
 2346 0137 02       		.uleb128 0x2
 2347 0138 18       		.uleb128 0x18
 2348 0139 00       		.byte	0
 2349 013a 00       		.byte	0
 2350 013b 16       		.uleb128 0x16
 2351 013c 2E       		.uleb128 0x2e
 2352 013d 01       		.byte	0x1
 2353 013e 3F       		.uleb128 0x3f
 2354 013f 19       		.uleb128 0x19
 2355 0140 03       		.uleb128 0x3
 2356 0141 08       		.uleb128 0x8
 2357 0142 3A       		.uleb128 0x3a
 2358 0143 0B       		.uleb128 0xb
 2359 0144 3B       		.uleb128 0x3b
 2360 0145 05       		.uleb128 0x5
 2361 0146 27       		.uleb128 0x27
 2362 0147 19       		.uleb128 0x19
 2363 0148 11       		.uleb128 0x11
 2364 0149 01       		.uleb128 0x1
 2365 014a 12       		.uleb128 0x12
 2366 014b 06       		.uleb128 0x6
 2367 014c 40       		.uleb128 0x40
 2368 014d 18       		.uleb128 0x18
 2369 014e 9642     		.uleb128 0x2116
 2370 0150 19       		.uleb128 0x19
 2371 0151 01       		.uleb128 0x1
 2372 0152 13       		.uleb128 0x13
 2373 0153 00       		.byte	0
 2374 0154 00       		.byte	0
 2375 0155 17       		.uleb128 0x17
 2376 0156 05       		.uleb128 0x5
 2377 0157 00       		.byte	0
 2378 0158 03       		.uleb128 0x3
 2379 0159 0E       		.uleb128 0xe
 2380 015a 3A       		.uleb128 0x3a
 2381 015b 0B       		.uleb128 0xb
 2382 015c 3B       		.uleb128 0x3b
GAS LISTING C:\Users\PRESID~1\AppData\Local\Temp\cczg9UB2.s 			page 64


 2383 015d 05       		.uleb128 0x5
 2384 015e 49       		.uleb128 0x49
 2385 015f 13       		.uleb128 0x13
 2386 0160 02       		.uleb128 0x2
 2387 0161 18       		.uleb128 0x18
 2388 0162 00       		.byte	0
 2389 0163 00       		.byte	0
 2390 0164 18       		.uleb128 0x18
 2391 0165 34       		.uleb128 0x34
 2392 0166 00       		.byte	0
 2393 0167 03       		.uleb128 0x3
 2394 0168 08       		.uleb128 0x8
 2395 0169 3A       		.uleb128 0x3a
 2396 016a 0B       		.uleb128 0xb
 2397 016b 3B       		.uleb128 0x3b
 2398 016c 05       		.uleb128 0x5
 2399 016d 49       		.uleb128 0x49
 2400 016e 13       		.uleb128 0x13
 2401 016f 02       		.uleb128 0x2
 2402 0170 18       		.uleb128 0x18
 2403 0171 00       		.byte	0
 2404 0172 00       		.byte	0
 2405 0173 19       		.uleb128 0x19
 2406 0174 34       		.uleb128 0x34
 2407 0175 00       		.byte	0
 2408 0176 03       		.uleb128 0x3
 2409 0177 0E       		.uleb128 0xe
 2410 0178 3A       		.uleb128 0x3a
 2411 0179 0B       		.uleb128 0xb
 2412 017a 3B       		.uleb128 0x3b
 2413 017b 05       		.uleb128 0x5
 2414 017c 49       		.uleb128 0x49
 2415 017d 13       		.uleb128 0x13
 2416 017e 02       		.uleb128 0x2
 2417 017f 18       		.uleb128 0x18
 2418 0180 00       		.byte	0
 2419 0181 00       		.byte	0
 2420 0182 1A       		.uleb128 0x1a
 2421 0183 2E       		.uleb128 0x2e
 2422 0184 01       		.byte	0x1
 2423 0185 03       		.uleb128 0x3
 2424 0186 08       		.uleb128 0x8
 2425 0187 3A       		.uleb128 0x3a
 2426 0188 0B       		.uleb128 0xb
 2427 0189 3B       		.uleb128 0x3b
 2428 018a 05       		.uleb128 0x5
 2429 018b 27       		.uleb128 0x27
 2430 018c 19       		.uleb128 0x19
 2431 018d 11       		.uleb128 0x11
 2432 018e 01       		.uleb128 0x1
 2433 018f 12       		.uleb128 0x12
 2434 0190 06       		.uleb128 0x6
 2435 0191 40       		.uleb128 0x40
 2436 0192 18       		.uleb128 0x18
 2437 0193 9742     		.uleb128 0x2117
 2438 0195 19       		.uleb128 0x19
 2439 0196 01       		.uleb128 0x1
GAS LISTING C:\Users\PRESID~1\AppData\Local\Temp\cczg9UB2.s 			page 65


 2440 0197 13       		.uleb128 0x13
 2441 0198 00       		.byte	0
 2442 0199 00       		.byte	0
 2443 019a 1B       		.uleb128 0x1b
 2444 019b 2E       		.uleb128 0x2e
 2445 019c 01       		.byte	0x1
 2446 019d 03       		.uleb128 0x3
 2447 019e 08       		.uleb128 0x8
 2448 019f 3A       		.uleb128 0x3a
 2449 01a0 0B       		.uleb128 0xb
 2450 01a1 3B       		.uleb128 0x3b
 2451 01a2 05       		.uleb128 0x5
 2452 01a3 27       		.uleb128 0x27
 2453 01a4 19       		.uleb128 0x19
 2454 01a5 11       		.uleb128 0x11
 2455 01a6 01       		.uleb128 0x1
 2456 01a7 12       		.uleb128 0x12
 2457 01a8 06       		.uleb128 0x6
 2458 01a9 40       		.uleb128 0x40
 2459 01aa 18       		.uleb128 0x18
 2460 01ab 9642     		.uleb128 0x2116
 2461 01ad 19       		.uleb128 0x19
 2462 01ae 01       		.uleb128 0x1
 2463 01af 13       		.uleb128 0x13
 2464 01b0 00       		.byte	0
 2465 01b1 00       		.byte	0
 2466 01b2 1C       		.uleb128 0x1c
 2467 01b3 2E       		.uleb128 0x2e
 2468 01b4 01       		.byte	0x1
 2469 01b5 03       		.uleb128 0x3
 2470 01b6 08       		.uleb128 0x8
 2471 01b7 3A       		.uleb128 0x3a
 2472 01b8 0B       		.uleb128 0xb
 2473 01b9 3B       		.uleb128 0x3b
 2474 01ba 05       		.uleb128 0x5
 2475 01bb 27       		.uleb128 0x27
 2476 01bc 19       		.uleb128 0x19
 2477 01bd 49       		.uleb128 0x49
 2478 01be 13       		.uleb128 0x13
 2479 01bf 11       		.uleb128 0x11
 2480 01c0 01       		.uleb128 0x1
 2481 01c1 12       		.uleb128 0x12
 2482 01c2 06       		.uleb128 0x6
 2483 01c3 40       		.uleb128 0x40
 2484 01c4 18       		.uleb128 0x18
 2485 01c5 9642     		.uleb128 0x2116
 2486 01c7 19       		.uleb128 0x19
 2487 01c8 01       		.uleb128 0x1
 2488 01c9 13       		.uleb128 0x13
 2489 01ca 00       		.byte	0
 2490 01cb 00       		.byte	0
 2491 01cc 1D       		.uleb128 0x1d
 2492 01cd 01       		.uleb128 0x1
 2493 01ce 01       		.byte	0x1
 2494 01cf 49       		.uleb128 0x49
 2495 01d0 13       		.uleb128 0x13
 2496 01d1 01       		.uleb128 0x1
GAS LISTING C:\Users\PRESID~1\AppData\Local\Temp\cczg9UB2.s 			page 66


 2497 01d2 13       		.uleb128 0x13
 2498 01d3 00       		.byte	0
 2499 01d4 00       		.byte	0
 2500 01d5 1E       		.uleb128 0x1e
 2501 01d6 21       		.uleb128 0x21
 2502 01d7 00       		.byte	0
 2503 01d8 49       		.uleb128 0x49
 2504 01d9 13       		.uleb128 0x13
 2505 01da 2F       		.uleb128 0x2f
 2506 01db 0B       		.uleb128 0xb
 2507 01dc 00       		.byte	0
 2508 01dd 00       		.byte	0
 2509 01de 1F       		.uleb128 0x1f
 2510 01df 34       		.uleb128 0x34
 2511 01e0 00       		.byte	0
 2512 01e1 03       		.uleb128 0x3
 2513 01e2 08       		.uleb128 0x8
 2514 01e3 3A       		.uleb128 0x3a
 2515 01e4 0B       		.uleb128 0xb
 2516 01e5 3B       		.uleb128 0x3b
 2517 01e6 0B       		.uleb128 0xb
 2518 01e7 49       		.uleb128 0x49
 2519 01e8 13       		.uleb128 0x13
 2520 01e9 3F       		.uleb128 0x3f
 2521 01ea 19       		.uleb128 0x19
 2522 01eb 3C       		.uleb128 0x3c
 2523 01ec 19       		.uleb128 0x19
 2524 01ed 00       		.byte	0
 2525 01ee 00       		.byte	0
 2526 01ef 20       		.uleb128 0x20
 2527 01f0 35       		.uleb128 0x35
 2528 01f1 00       		.byte	0
 2529 01f2 49       		.uleb128 0x49
 2530 01f3 13       		.uleb128 0x13
 2531 01f4 00       		.byte	0
 2532 01f5 00       		.byte	0
 2533 01f6 00       		.byte	0
 2534              		.section	.debug_aranges,"dr"
 2535 0000 1C000000 		.long	0x1c
 2536 0004 0200     		.word	0x2
 2537 0006 00000000 		.secrel32	Ldebug_info0
 2538 000a 04       		.byte	0x4
 2539 000b 00       		.byte	0
 2540 000c 0000     		.word	0
 2541 000e 0000     		.word	0
 2542 0010 00000000 		.long	Ltext0
 2543 0014 FA080000 		.long	Letext0-Ltext0
 2544 0018 00000000 		.long	0
 2545 001c 00000000 		.long	0
 2546              		.section	.debug_macro,"dr"
 2547              	Ldebug_macro0:
 2548 0000 0400     		.word	0x4
 2549 0002 02       		.byte	0x2
 2550 0003 00000000 		.secrel32	Ldebug_line0
 2551 0007 01       		.byte	0x1
 2552 0008 00       		.uleb128 0
 2553 0009 5F5F5354 		.ascii "__STDC__ 1\0"
GAS LISTING C:\Users\PRESID~1\AppData\Local\Temp\cczg9UB2.s 			page 67


 2553      44435F5F 
 2553      203100
 2554 0014 01       		.byte	0x1
 2555 0015 00       		.uleb128 0
 2556 0016 5F5F5354 		.ascii "__STDC_HOSTED__ 1\0"
 2556      44435F48 
 2556      4F535445 
 2556      445F5F20 
 2556      3100
 2557 0028 01       		.byte	0x1
 2558 0029 00       		.uleb128 0
 2559 002a 5F5F474E 		.ascii "__GNUC__ 4\0"
 2559      55435F5F 
 2559      203400
 2560 0035 01       		.byte	0x1
 2561 0036 00       		.uleb128 0
 2562 0037 5F5F474E 		.ascii "__GNUC_MINOR__ 9\0"
 2562      55435F4D 
 2562      494E4F52 
 2562      5F5F2039 
 2562      00
 2563 0048 01       		.byte	0x1
 2564 0049 00       		.uleb128 0
 2565 004a 5F5F474E 		.ascii "__GNUC_PATCHLEVEL__ 3\0"
 2565      55435F50 
 2565      41544348 
 2565      4C455645 
 2565      4C5F5F20 
 2566 0060 01       		.byte	0x1
 2567 0061 00       		.uleb128 0
 2568 0062 5F5F5645 		.ascii "__VERSION__ \"4.9.3\"\0"
 2568      5253494F 
 2568      4E5F5F20 
 2568      22342E39 
 2568      2E332200 
 2569 0076 01       		.byte	0x1
 2570 0077 00       		.uleb128 0
 2571 0078 5F5F4154 		.ascii "__ATOMIC_RELAXED 0\0"
 2571      4F4D4943 
 2571      5F52454C 
 2571      41584544 
 2571      203000
 2572 008b 01       		.byte	0x1
 2573 008c 00       		.uleb128 0
 2574 008d 5F5F4154 		.ascii "__ATOMIC_SEQ_CST 5\0"
 2574      4F4D4943 
 2574      5F534551 
 2574      5F435354 
 2574      203500
 2575 00a0 01       		.byte	0x1
 2576 00a1 00       		.uleb128 0
 2577 00a2 5F5F4154 		.ascii "__ATOMIC_ACQUIRE 2\0"
 2577      4F4D4943 
 2577      5F414351 
 2577      55495245 
 2577      203200
 2578 00b5 01       		.byte	0x1
GAS LISTING C:\Users\PRESID~1\AppData\Local\Temp\cczg9UB2.s 			page 68


 2579 00b6 00       		.uleb128 0
 2580 00b7 5F5F4154 		.ascii "__ATOMIC_RELEASE 3\0"
 2580      4F4D4943 
 2580      5F52454C 
 2580      45415345 
 2580      203300
 2581 00ca 01       		.byte	0x1
 2582 00cb 00       		.uleb128 0
 2583 00cc 5F5F4154 		.ascii "__ATOMIC_ACQ_REL 4\0"
 2583      4F4D4943 
 2583      5F414351 
 2583      5F52454C 
 2583      203400
 2584 00df 01       		.byte	0x1
 2585 00e0 00       		.uleb128 0
 2586 00e1 5F5F4154 		.ascii "__ATOMIC_CONSUME 1\0"
 2586      4F4D4943 
 2586      5F434F4E 
 2586      53554D45 
 2586      203100
 2587 00f4 01       		.byte	0x1
 2588 00f5 00       		.uleb128 0
 2589 00f6 5F5F4649 		.ascii "__FINITE_MATH_ONLY__ 0\0"
 2589      4E495445 
 2589      5F4D4154 
 2589      485F4F4E 
 2589      4C595F5F 
 2590 010d 01       		.byte	0x1
 2591 010e 00       		.uleb128 0
 2592 010f 5F5F5349 		.ascii "__SIZEOF_INT__ 4\0"
 2592      5A454F46 
 2592      5F494E54 
 2592      5F5F2034 
 2592      00
 2593 0120 01       		.byte	0x1
 2594 0121 00       		.uleb128 0
 2595 0122 5F5F5349 		.ascii "__SIZEOF_LONG__ 4\0"
 2595      5A454F46 
 2595      5F4C4F4E 
 2595      475F5F20 
 2595      3400
 2596 0134 01       		.byte	0x1
 2597 0135 00       		.uleb128 0
 2598 0136 5F5F5349 		.ascii "__SIZEOF_LONG_LONG__ 8\0"
 2598      5A454F46 
 2598      5F4C4F4E 
 2598      475F4C4F 
 2598      4E475F5F 
 2599 014d 01       		.byte	0x1
 2600 014e 00       		.uleb128 0
 2601 014f 5F5F5349 		.ascii "__SIZEOF_SHORT__ 2\0"
 2601      5A454F46 
 2601      5F53484F 
 2601      52545F5F 
 2601      203200
 2602 0162 01       		.byte	0x1
 2603 0163 00       		.uleb128 0
GAS LISTING C:\Users\PRESID~1\AppData\Local\Temp\cczg9UB2.s 			page 69


 2604 0164 5F5F5349 		.ascii "__SIZEOF_FLOAT__ 4\0"
 2604      5A454F46 
 2604      5F464C4F 
 2604      41545F5F 
 2604      203400
 2605 0177 01       		.byte	0x1
 2606 0178 00       		.uleb128 0
 2607 0179 5F5F5349 		.ascii "__SIZEOF_DOUBLE__ 8\0"
 2607      5A454F46 
 2607      5F444F55 
 2607      424C455F 
 2607      5F203800 
 2608 018d 01       		.byte	0x1
 2609 018e 00       		.uleb128 0
 2610 018f 5F5F5349 		.ascii "__SIZEOF_LONG_DOUBLE__ 12\0"
 2610      5A454F46 
 2610      5F4C4F4E 
 2610      475F444F 
 2610      55424C45 
 2611 01a9 01       		.byte	0x1
 2612 01aa 00       		.uleb128 0
 2613 01ab 5F5F5349 		.ascii "__SIZEOF_SIZE_T__ 4\0"
 2613      5A454F46 
 2613      5F53495A 
 2613      455F545F 
 2613      5F203400 
 2614 01bf 01       		.byte	0x1
 2615 01c0 00       		.uleb128 0
 2616 01c1 5F5F4348 		.ascii "__CHAR_BIT__ 8\0"
 2616      41525F42 
 2616      49545F5F 
 2616      203800
 2617 01d0 01       		.byte	0x1
 2618 01d1 00       		.uleb128 0
 2619 01d2 5F5F4249 		.ascii "__BIGGEST_ALIGNMENT__ 16\0"
 2619      47474553 
 2619      545F414C 
 2619      49474E4D 
 2619      454E545F 
 2620 01eb 01       		.byte	0x1
 2621 01ec 00       		.uleb128 0
 2622 01ed 5F5F4F52 		.ascii "__ORDER_LITTLE_ENDIAN__ 1234\0"
 2622      4445525F 
 2622      4C495454 
 2622      4C455F45 
 2622      4E444941 
 2623 020a 01       		.byte	0x1
 2624 020b 00       		.uleb128 0
 2625 020c 5F5F4F52 		.ascii "__ORDER_BIG_ENDIAN__ 4321\0"
 2625      4445525F 
 2625      4249475F 
 2625      454E4449 
 2625      414E5F5F 
 2626 0226 01       		.byte	0x1
 2627 0227 00       		.uleb128 0
 2628 0228 5F5F4F52 		.ascii "__ORDER_PDP_ENDIAN__ 3412\0"
 2628      4445525F 
GAS LISTING C:\Users\PRESID~1\AppData\Local\Temp\cczg9UB2.s 			page 70


 2628      5044505F 
 2628      454E4449 
 2628      414E5F5F 
 2629 0242 01       		.byte	0x1
 2630 0243 00       		.uleb128 0
 2631 0244 5F5F4259 		.ascii "__BYTE_ORDER__ __ORDER_LITTLE_ENDIAN__\0"
 2631      54455F4F 
 2631      52444552 
 2631      5F5F205F 
 2631      5F4F5244 
 2632 026b 01       		.byte	0x1
 2633 026c 00       		.uleb128 0
 2634 026d 5F5F464C 		.ascii "__FLOAT_WORD_ORDER__ __ORDER_LITTLE_ENDIAN__\0"
 2634      4F41545F 
 2634      574F5244 
 2634      5F4F5244 
 2634      45525F5F 
 2635 029a 01       		.byte	0x1
 2636 029b 00       		.uleb128 0
 2637 029c 5F5F5349 		.ascii "__SIZEOF_POINTER__ 4\0"
 2637      5A454F46 
 2637      5F504F49 
 2637      4E544552 
 2637      5F5F2034 
 2638 02b1 01       		.byte	0x1
 2639 02b2 00       		.uleb128 0
 2640 02b3 5F5F5349 		.ascii "__SIZE_TYPE__ unsigned int\0"
 2640      5A455F54 
 2640      5950455F 
 2640      5F20756E 
 2640      7369676E 
 2641 02ce 01       		.byte	0x1
 2642 02cf 00       		.uleb128 0
 2643 02d0 5F5F5054 		.ascii "__PTRDIFF_TYPE__ int\0"
 2643      52444946 
 2643      465F5459 
 2643      50455F5F 
 2643      20696E74 
 2644 02e5 01       		.byte	0x1
 2645 02e6 00       		.uleb128 0
 2646 02e7 5F5F5743 		.ascii "__WCHAR_TYPE__ short unsigned int\0"
 2646      4841525F 
 2646      54595045 
 2646      5F5F2073 
 2646      686F7274 
 2647 0309 01       		.byte	0x1
 2648 030a 00       		.uleb128 0
 2649 030b 5F5F5749 		.ascii "__WINT_TYPE__ short unsigned int\0"
 2649      4E545F54 
 2649      5950455F 
 2649      5F207368 
 2649      6F727420 
 2650 032c 01       		.byte	0x1
 2651 032d 00       		.uleb128 0
 2652 032e 5F5F494E 		.ascii "__INTMAX_TYPE__ long long int\0"
 2652      544D4158 
 2652      5F545950 
GAS LISTING C:\Users\PRESID~1\AppData\Local\Temp\cczg9UB2.s 			page 71


 2652      455F5F20 
 2652      6C6F6E67 
 2653 034c 01       		.byte	0x1
 2654 034d 00       		.uleb128 0
 2655 034e 5F5F5549 		.ascii "__UINTMAX_TYPE__ long long unsigned int\0"
 2655      4E544D41 
 2655      585F5459 
 2655      50455F5F 
 2655      206C6F6E 
 2656 0376 01       		.byte	0x1
 2657 0377 00       		.uleb128 0
 2658 0378 5F5F4348 		.ascii "__CHAR16_TYPE__ short unsigned int\0"
 2658      41523136 
 2658      5F545950 
 2658      455F5F20 
 2658      73686F72 
 2659 039b 01       		.byte	0x1
 2660 039c 00       		.uleb128 0
 2661 039d 5F5F4348 		.ascii "__CHAR32_TYPE__ unsigned int\0"
 2661      41523332 
 2661      5F545950 
 2661      455F5F20 
 2661      756E7369 
 2662 03ba 01       		.byte	0x1
 2663 03bb 00       		.uleb128 0
 2664 03bc 5F5F5349 		.ascii "__SIG_ATOMIC_TYPE__ int\0"
 2664      475F4154 
 2664      4F4D4943 
 2664      5F545950 
 2664      455F5F20 
 2665 03d4 01       		.byte	0x1
 2666 03d5 00       		.uleb128 0
 2667 03d6 5F5F494E 		.ascii "__INT8_TYPE__ signed char\0"
 2667      54385F54 
 2667      5950455F 
 2667      5F207369 
 2667      676E6564 
 2668 03f0 01       		.byte	0x1
 2669 03f1 00       		.uleb128 0
 2670 03f2 5F5F494E 		.ascii "__INT16_TYPE__ short int\0"
 2670      5431365F 
 2670      54595045 
 2670      5F5F2073 
 2670      686F7274 
 2671 040b 01       		.byte	0x1
 2672 040c 00       		.uleb128 0
 2673 040d 5F5F494E 		.ascii "__INT32_TYPE__ int\0"
 2673      5433325F 
 2673      54595045 
 2673      5F5F2069 
 2673      6E7400
 2674 0420 01       		.byte	0x1
 2675 0421 00       		.uleb128 0
 2676 0422 5F5F494E 		.ascii "__INT64_TYPE__ long long int\0"
 2676      5436345F 
 2676      54595045 
 2676      5F5F206C 
GAS LISTING C:\Users\PRESID~1\AppData\Local\Temp\cczg9UB2.s 			page 72


 2676      6F6E6720 
 2677 043f 01       		.byte	0x1
 2678 0440 00       		.uleb128 0
 2679 0441 5F5F5549 		.ascii "__UINT8_TYPE__ unsigned char\0"
 2679      4E54385F 
 2679      54595045 
 2679      5F5F2075 
 2679      6E736967 
 2680 045e 01       		.byte	0x1
 2681 045f 00       		.uleb128 0
 2682 0460 5F5F5549 		.ascii "__UINT16_TYPE__ short unsigned int\0"
 2682      4E543136 
 2682      5F545950 
 2682      455F5F20 
 2682      73686F72 
 2683 0483 01       		.byte	0x1
 2684 0484 00       		.uleb128 0
 2685 0485 5F5F5549 		.ascii "__UINT32_TYPE__ unsigned int\0"
 2685      4E543332 
 2685      5F545950 
 2685      455F5F20 
 2685      756E7369 
 2686 04a2 01       		.byte	0x1
 2687 04a3 00       		.uleb128 0
 2688 04a4 5F5F5549 		.ascii "__UINT64_TYPE__ long long unsigned int\0"
 2688      4E543634 
 2688      5F545950 
 2688      455F5F20 
 2688      6C6F6E67 
 2689 04cb 01       		.byte	0x1
 2690 04cc 00       		.uleb128 0
 2691 04cd 5F5F494E 		.ascii "__INT_LEAST8_TYPE__ signed char\0"
 2691      545F4C45 
 2691      41535438 
 2691      5F545950 
 2691      455F5F20 
 2692 04ed 01       		.byte	0x1
 2693 04ee 00       		.uleb128 0
 2694 04ef 5F5F494E 		.ascii "__INT_LEAST16_TYPE__ short int\0"
 2694      545F4C45 
 2694      41535431 
 2694      365F5459 
 2694      50455F5F 
 2695 050e 01       		.byte	0x1
 2696 050f 00       		.uleb128 0
 2697 0510 5F5F494E 		.ascii "__INT_LEAST32_TYPE__ int\0"
 2697      545F4C45 
 2697      41535433 
 2697      325F5459 
 2697      50455F5F 
 2698 0529 01       		.byte	0x1
 2699 052a 00       		.uleb128 0
 2700 052b 5F5F494E 		.ascii "__INT_LEAST64_TYPE__ long long int\0"
 2700      545F4C45 
 2700      41535436 
 2700      345F5459 
 2700      50455F5F 
GAS LISTING C:\Users\PRESID~1\AppData\Local\Temp\cczg9UB2.s 			page 73


 2701 054e 01       		.byte	0x1
 2702 054f 00       		.uleb128 0
 2703 0550 5F5F5549 		.ascii "__UINT_LEAST8_TYPE__ unsigned char\0"
 2703      4E545F4C 
 2703      45415354 
 2703      385F5459 
 2703      50455F5F 
 2704 0573 01       		.byte	0x1
 2705 0574 00       		.uleb128 0
 2706 0575 5F5F5549 		.ascii "__UINT_LEAST16_TYPE__ short unsigned int\0"
 2706      4E545F4C 
 2706      45415354 
 2706      31365F54 
 2706      5950455F 
 2707 059e 01       		.byte	0x1
 2708 059f 00       		.uleb128 0
 2709 05a0 5F5F5549 		.ascii "__UINT_LEAST32_TYPE__ unsigned int\0"
 2709      4E545F4C 
 2709      45415354 
 2709      33325F54 
 2709      5950455F 
 2710 05c3 01       		.byte	0x1
 2711 05c4 00       		.uleb128 0
 2712 05c5 5F5F5549 		.ascii "__UINT_LEAST64_TYPE__ long long unsigned int\0"
 2712      4E545F4C 
 2712      45415354 
 2712      36345F54 
 2712      5950455F 
 2713 05f2 01       		.byte	0x1
 2714 05f3 00       		.uleb128 0
 2715 05f4 5F5F494E 		.ascii "__INT_FAST8_TYPE__ signed char\0"
 2715      545F4641 
 2715      5354385F 
 2715      54595045 
 2715      5F5F2073 
 2716 0613 01       		.byte	0x1
 2717 0614 00       		.uleb128 0
 2718 0615 5F5F494E 		.ascii "__INT_FAST16_TYPE__ short int\0"
 2718      545F4641 
 2718      53543136 
 2718      5F545950 
 2718      455F5F20 
 2719 0633 01       		.byte	0x1
 2720 0634 00       		.uleb128 0
 2721 0635 5F5F494E 		.ascii "__INT_FAST32_TYPE__ int\0"
 2721      545F4641 
 2721      53543332 
 2721      5F545950 
 2721      455F5F20 
 2722 064d 01       		.byte	0x1
 2723 064e 00       		.uleb128 0
 2724 064f 5F5F494E 		.ascii "__INT_FAST64_TYPE__ long long int\0"
 2724      545F4641 
 2724      53543634 
 2724      5F545950 
 2724      455F5F20 
 2725 0671 01       		.byte	0x1
GAS LISTING C:\Users\PRESID~1\AppData\Local\Temp\cczg9UB2.s 			page 74


 2726 0672 00       		.uleb128 0
 2727 0673 5F5F5549 		.ascii "__UINT_FAST8_TYPE__ unsigned char\0"
 2727      4E545F46 
 2727      41535438 
 2727      5F545950 
 2727      455F5F20 
 2728 0695 01       		.byte	0x1
 2729 0696 00       		.uleb128 0
 2730 0697 5F5F5549 		.ascii "__UINT_FAST16_TYPE__ short unsigned int\0"
 2730      4E545F46 
 2730      41535431 
 2730      365F5459 
 2730      50455F5F 
 2731 06bf 01       		.byte	0x1
 2732 06c0 00       		.uleb128 0
 2733 06c1 5F5F5549 		.ascii "__UINT_FAST32_TYPE__ unsigned int\0"
 2733      4E545F46 
 2733      41535433 
 2733      325F5459 
 2733      50455F5F 
 2734 06e3 01       		.byte	0x1
 2735 06e4 00       		.uleb128 0
 2736 06e5 5F5F5549 		.ascii "__UINT_FAST64_TYPE__ long long unsigned int\0"
 2736      4E545F46 
 2736      41535436 
 2736      345F5459 
 2736      50455F5F 
 2737 0711 01       		.byte	0x1
 2738 0712 00       		.uleb128 0
 2739 0713 5F5F494E 		.ascii "__INTPTR_TYPE__ int\0"
 2739      54505452 
 2739      5F545950 
 2739      455F5F20 
 2739      696E7400 
 2740 0727 01       		.byte	0x1
 2741 0728 00       		.uleb128 0
 2742 0729 5F5F5549 		.ascii "__UINTPTR_TYPE__ unsigned int\0"
 2742      4E545054 
 2742      525F5459 
 2742      50455F5F 
 2742      20756E73 
 2743 0747 01       		.byte	0x1
 2744 0748 00       		.uleb128 0
 2745 0749 5F5F6861 		.ascii "__has_include(STR) __has_include__(STR)\0"
 2745      735F696E 
 2745      636C7564 
 2745      65285354 
 2745      5229205F 
 2746 0771 01       		.byte	0x1
 2747 0772 00       		.uleb128 0
 2748 0773 5F5F6861 		.ascii "__has_include_next(STR) __has_include_next__(STR)\0"
 2748      735F696E 
 2748      636C7564 
 2748      655F6E65 
 2748      78742853 
 2749 07a5 01       		.byte	0x1
 2750 07a6 00       		.uleb128 0
GAS LISTING C:\Users\PRESID~1\AppData\Local\Temp\cczg9UB2.s 			page 75


 2751 07a7 5F5F4758 		.ascii "__GXX_ABI_VERSION 1002\0"
 2751      585F4142 
 2751      495F5645 
 2751      5253494F 
 2751      4E203130 
 2752 07be 01       		.byte	0x1
 2753 07bf 00       		.uleb128 0
 2754 07c0 5F5F5343 		.ascii "__SCHAR_MAX__ 127\0"
 2754      4841525F 
 2754      4D41585F 
 2754      5F203132 
 2754      3700
 2755 07d2 01       		.byte	0x1
 2756 07d3 00       		.uleb128 0
 2757 07d4 5F5F5348 		.ascii "__SHRT_MAX__ 32767\0"
 2757      52545F4D 
 2757      41585F5F 
 2757      20333237 
 2757      363700
 2758 07e7 01       		.byte	0x1
 2759 07e8 00       		.uleb128 0
 2760 07e9 5F5F494E 		.ascii "__INT_MAX__ 2147483647\0"
 2760      545F4D41 
 2760      585F5F20 
 2760      32313437 
 2760      34383336 
 2761 0800 01       		.byte	0x1
 2762 0801 00       		.uleb128 0
 2763 0802 5F5F4C4F 		.ascii "__LONG_MAX__ 2147483647L\0"
 2763      4E475F4D 
 2763      41585F5F 
 2763      20323134 
 2763      37343833 
 2764 081b 01       		.byte	0x1
 2765 081c 00       		.uleb128 0
 2766 081d 5F5F4C4F 		.ascii "__LONG_LONG_MAX__ 9223372036854775807LL\0"
 2766      4E475F4C 
 2766      4F4E475F 
 2766      4D41585F 
 2766      5F203932 
 2767 0845 01       		.byte	0x1
 2768 0846 00       		.uleb128 0
 2769 0847 5F5F5743 		.ascii "__WCHAR_MAX__ 65535\0"
 2769      4841525F 
 2769      4D41585F 
 2769      5F203635 
 2769      35333500 
 2770 085b 01       		.byte	0x1
 2771 085c 00       		.uleb128 0
 2772 085d 5F5F5743 		.ascii "__WCHAR_MIN__ 0\0"
 2772      4841525F 
 2772      4D494E5F 
 2772      5F203000 
 2773 086d 01       		.byte	0x1
 2774 086e 00       		.uleb128 0
 2775 086f 5F5F5749 		.ascii "__WINT_MAX__ 65535\0"
 2775      4E545F4D 
GAS LISTING C:\Users\PRESID~1\AppData\Local\Temp\cczg9UB2.s 			page 76


 2775      41585F5F 
 2775      20363535 
 2775      333500
 2776 0882 01       		.byte	0x1
 2777 0883 00       		.uleb128 0
 2778 0884 5F5F5749 		.ascii "__WINT_MIN__ 0\0"
 2778      4E545F4D 
 2778      494E5F5F 
 2778      203000
 2779 0893 01       		.byte	0x1
 2780 0894 00       		.uleb128 0
 2781 0895 5F5F5054 		.ascii "__PTRDIFF_MAX__ 2147483647\0"
 2781      52444946 
 2781      465F4D41 
 2781      585F5F20 
 2781      32313437 
 2782 08b0 01       		.byte	0x1
 2783 08b1 00       		.uleb128 0
 2784 08b2 5F5F5349 		.ascii "__SIZE_MAX__ 4294967295U\0"
 2784      5A455F4D 
 2784      41585F5F 
 2784      20343239 
 2784      34393637 
 2785 08cb 01       		.byte	0x1
 2786 08cc 00       		.uleb128 0
 2787 08cd 5F5F494E 		.ascii "__INTMAX_MAX__ 9223372036854775807LL\0"
 2787      544D4158 
 2787      5F4D4158 
 2787      5F5F2039 
 2787      32323333 
 2788 08f2 01       		.byte	0x1
 2789 08f3 00       		.uleb128 0
 2790 08f4 5F5F494E 		.ascii "__INTMAX_C(c) c ## LL\0"
 2790      544D4158 
 2790      5F432863 
 2790      29206320 
 2790      2323204C 
 2791 090a 01       		.byte	0x1
 2792 090b 00       		.uleb128 0
 2793 090c 5F5F5549 		.ascii "__UINTMAX_MAX__ 18446744073709551615ULL\0"
 2793      4E544D41 
 2793      585F4D41 
 2793      585F5F20 
 2793      31383434 
 2794 0934 01       		.byte	0x1
 2795 0935 00       		.uleb128 0
 2796 0936 5F5F5549 		.ascii "__UINTMAX_C(c) c ## ULL\0"
 2796      4E544D41 
 2796      585F4328 
 2796      63292063 
 2796      20232320 
 2797 094e 01       		.byte	0x1
 2798 094f 00       		.uleb128 0
 2799 0950 5F5F5349 		.ascii "__SIG_ATOMIC_MAX__ 2147483647\0"
 2799      475F4154 
 2799      4F4D4943 
 2799      5F4D4158 
GAS LISTING C:\Users\PRESID~1\AppData\Local\Temp\cczg9UB2.s 			page 77


 2799      5F5F2032 
 2800 096e 01       		.byte	0x1
 2801 096f 00       		.uleb128 0
 2802 0970 5F5F5349 		.ascii "__SIG_ATOMIC_MIN__ (-__SIG_ATOMIC_MAX__ - 1)\0"
 2802      475F4154 
 2802      4F4D4943 
 2802      5F4D494E 
 2802      5F5F2028 
 2803 099d 01       		.byte	0x1
 2804 099e 00       		.uleb128 0
 2805 099f 5F5F494E 		.ascii "__INT8_MAX__ 127\0"
 2805      54385F4D 
 2805      41585F5F 
 2805      20313237 
 2805      00
 2806 09b0 01       		.byte	0x1
 2807 09b1 00       		.uleb128 0
 2808 09b2 5F5F494E 		.ascii "__INT16_MAX__ 32767\0"
 2808      5431365F 
 2808      4D41585F 
 2808      5F203332 
 2808      37363700 
 2809 09c6 01       		.byte	0x1
 2810 09c7 00       		.uleb128 0
 2811 09c8 5F5F494E 		.ascii "__INT32_MAX__ 2147483647\0"
 2811      5433325F 
 2811      4D41585F 
 2811      5F203231 
 2811      34373438 
 2812 09e1 01       		.byte	0x1
 2813 09e2 00       		.uleb128 0
 2814 09e3 5F5F494E 		.ascii "__INT64_MAX__ 9223372036854775807LL\0"
 2814      5436345F 
 2814      4D41585F 
 2814      5F203932 
 2814      32333337 
 2815 0a07 01       		.byte	0x1
 2816 0a08 00       		.uleb128 0
 2817 0a09 5F5F5549 		.ascii "__UINT8_MAX__ 255\0"
 2817      4E54385F 
 2817      4D41585F 
 2817      5F203235 
 2817      3500
 2818 0a1b 01       		.byte	0x1
 2819 0a1c 00       		.uleb128 0
 2820 0a1d 5F5F5549 		.ascii "__UINT16_MAX__ 65535\0"
 2820      4E543136 
 2820      5F4D4158 
 2820      5F5F2036 
 2820      35353335 
 2821 0a32 01       		.byte	0x1
 2822 0a33 00       		.uleb128 0
 2823 0a34 5F5F5549 		.ascii "__UINT32_MAX__ 4294967295U\0"
 2823      4E543332 
 2823      5F4D4158 
 2823      5F5F2034 
 2823      32393439 
GAS LISTING C:\Users\PRESID~1\AppData\Local\Temp\cczg9UB2.s 			page 78


 2824 0a4f 01       		.byte	0x1
 2825 0a50 00       		.uleb128 0
 2826 0a51 5F5F5549 		.ascii "__UINT64_MAX__ 18446744073709551615ULL\0"
 2826      4E543634 
 2826      5F4D4158 
 2826      5F5F2031 
 2826      38343436 
 2827 0a78 01       		.byte	0x1
 2828 0a79 00       		.uleb128 0
 2829 0a7a 5F5F494E 		.ascii "__INT_LEAST8_MAX__ 127\0"
 2829      545F4C45 
 2829      41535438 
 2829      5F4D4158 
 2829      5F5F2031 
 2830 0a91 01       		.byte	0x1
 2831 0a92 00       		.uleb128 0
 2832 0a93 5F5F494E 		.ascii "__INT8_C(c) c\0"
 2832      54385F43 
 2832      28632920 
 2832      6300
 2833 0aa1 01       		.byte	0x1
 2834 0aa2 00       		.uleb128 0
 2835 0aa3 5F5F494E 		.ascii "__INT_LEAST16_MAX__ 32767\0"
 2835      545F4C45 
 2835      41535431 
 2835      365F4D41 
 2835      585F5F20 
 2836 0abd 01       		.byte	0x1
 2837 0abe 00       		.uleb128 0
 2838 0abf 5F5F494E 		.ascii "__INT16_C(c) c\0"
 2838      5431365F 
 2838      43286329 
 2838      206300
 2839 0ace 01       		.byte	0x1
 2840 0acf 00       		.uleb128 0
 2841 0ad0 5F5F494E 		.ascii "__INT_LEAST32_MAX__ 2147483647\0"
 2841      545F4C45 
 2841      41535433 
 2841      325F4D41 
 2841      585F5F20 
 2842 0aef 01       		.byte	0x1
 2843 0af0 00       		.uleb128 0
 2844 0af1 5F5F494E 		.ascii "__INT32_C(c) c\0"
 2844      5433325F 
 2844      43286329 
 2844      206300
 2845 0b00 01       		.byte	0x1
 2846 0b01 00       		.uleb128 0
 2847 0b02 5F5F494E 		.ascii "__INT_LEAST64_MAX__ 9223372036854775807LL\0"
 2847      545F4C45 
 2847      41535436 
 2847      345F4D41 
 2847      585F5F20 
 2848 0b2c 01       		.byte	0x1
 2849 0b2d 00       		.uleb128 0
 2850 0b2e 5F5F494E 		.ascii "__INT64_C(c) c ## LL\0"
 2850      5436345F 
GAS LISTING C:\Users\PRESID~1\AppData\Local\Temp\cczg9UB2.s 			page 79


 2850      43286329 
 2850      20632023 
 2850      23204C4C 
 2851 0b43 01       		.byte	0x1
 2852 0b44 00       		.uleb128 0
 2853 0b45 5F5F5549 		.ascii "__UINT_LEAST8_MAX__ 255\0"
 2853      4E545F4C 
 2853      45415354 
 2853      385F4D41 
 2853      585F5F20 
 2854 0b5d 01       		.byte	0x1
 2855 0b5e 00       		.uleb128 0
 2856 0b5f 5F5F5549 		.ascii "__UINT8_C(c) c\0"
 2856      4E54385F 
 2856      43286329 
 2856      206300
 2857 0b6e 01       		.byte	0x1
 2858 0b6f 00       		.uleb128 0
 2859 0b70 5F5F5549 		.ascii "__UINT_LEAST16_MAX__ 65535\0"
 2859      4E545F4C 
 2859      45415354 
 2859      31365F4D 
 2859      41585F5F 
 2860 0b8b 01       		.byte	0x1
 2861 0b8c 00       		.uleb128 0
 2862 0b8d 5F5F5549 		.ascii "__UINT16_C(c) c\0"
 2862      4E543136 
 2862      5F432863 
 2862      29206300 
 2863 0b9d 01       		.byte	0x1
 2864 0b9e 00       		.uleb128 0
 2865 0b9f 5F5F5549 		.ascii "__UINT_LEAST32_MAX__ 4294967295U\0"
 2865      4E545F4C 
 2865      45415354 
 2865      33325F4D 
 2865      41585F5F 
 2866 0bc0 01       		.byte	0x1
 2867 0bc1 00       		.uleb128 0
 2868 0bc2 5F5F5549 		.ascii "__UINT32_C(c) c ## U\0"
 2868      4E543332 
 2868      5F432863 
 2868      29206320 
 2868      23232055 
 2869 0bd7 01       		.byte	0x1
 2870 0bd8 00       		.uleb128 0
 2871 0bd9 5F5F5549 		.ascii "__UINT_LEAST64_MAX__ 18446744073709551615ULL\0"
 2871      4E545F4C 
 2871      45415354 
 2871      36345F4D 
 2871      41585F5F 
 2872 0c06 01       		.byte	0x1
 2873 0c07 00       		.uleb128 0
 2874 0c08 5F5F5549 		.ascii "__UINT64_C(c) c ## ULL\0"
 2874      4E543634 
 2874      5F432863 
 2874      29206320 
 2874      23232055 
GAS LISTING C:\Users\PRESID~1\AppData\Local\Temp\cczg9UB2.s 			page 80


 2875 0c1f 01       		.byte	0x1
 2876 0c20 00       		.uleb128 0
 2877 0c21 5F5F494E 		.ascii "__INT_FAST8_MAX__ 127\0"
 2877      545F4641 
 2877      5354385F 
 2877      4D41585F 
 2877      5F203132 
 2878 0c37 01       		.byte	0x1
 2879 0c38 00       		.uleb128 0
 2880 0c39 5F5F494E 		.ascii "__INT_FAST16_MAX__ 32767\0"
 2880      545F4641 
 2880      53543136 
 2880      5F4D4158 
 2880      5F5F2033 
 2881 0c52 01       		.byte	0x1
 2882 0c53 00       		.uleb128 0
 2883 0c54 5F5F494E 		.ascii "__INT_FAST32_MAX__ 2147483647\0"
 2883      545F4641 
 2883      53543332 
 2883      5F4D4158 
 2883      5F5F2032 
 2884 0c72 01       		.byte	0x1
 2885 0c73 00       		.uleb128 0
 2886 0c74 5F5F494E 		.ascii "__INT_FAST64_MAX__ 9223372036854775807LL\0"
 2886      545F4641 
 2886      53543634 
 2886      5F4D4158 
 2886      5F5F2039 
 2887 0c9d 01       		.byte	0x1
 2888 0c9e 00       		.uleb128 0
 2889 0c9f 5F5F5549 		.ascii "__UINT_FAST8_MAX__ 255\0"
 2889      4E545F46 
 2889      41535438 
 2889      5F4D4158 
 2889      5F5F2032 
 2890 0cb6 01       		.byte	0x1
 2891 0cb7 00       		.uleb128 0
 2892 0cb8 5F5F5549 		.ascii "__UINT_FAST16_MAX__ 65535\0"
 2892      4E545F46 
 2892      41535431 
 2892      365F4D41 
 2892      585F5F20 
 2893 0cd2 01       		.byte	0x1
 2894 0cd3 00       		.uleb128 0
 2895 0cd4 5F5F5549 		.ascii "__UINT_FAST32_MAX__ 4294967295U\0"
 2895      4E545F46 
 2895      41535433 
 2895      325F4D41 
 2895      585F5F20 
 2896 0cf4 01       		.byte	0x1
 2897 0cf5 00       		.uleb128 0
 2898 0cf6 5F5F5549 		.ascii "__UINT_FAST64_MAX__ 18446744073709551615ULL\0"
 2898      4E545F46 
 2898      41535436 
 2898      345F4D41 
 2898      585F5F20 
 2899 0d22 01       		.byte	0x1
GAS LISTING C:\Users\PRESID~1\AppData\Local\Temp\cczg9UB2.s 			page 81


 2900 0d23 00       		.uleb128 0
 2901 0d24 5F5F494E 		.ascii "__INTPTR_MAX__ 2147483647\0"
 2901      54505452 
 2901      5F4D4158 
 2901      5F5F2032 
 2901      31343734 
 2902 0d3e 01       		.byte	0x1
 2903 0d3f 00       		.uleb128 0
 2904 0d40 5F5F5549 		.ascii "__UINTPTR_MAX__ 4294967295U\0"
 2904      4E545054 
 2904      525F4D41 
 2904      585F5F20 
 2904      34323934 
 2905 0d5c 01       		.byte	0x1
 2906 0d5d 00       		.uleb128 0
 2907 0d5e 5F5F4743 		.ascii "__GCC_IEC_559 2\0"
 2907      435F4945 
 2907      435F3535 
 2907      39203200 
 2908 0d6e 01       		.byte	0x1
 2909 0d6f 00       		.uleb128 0
 2910 0d70 5F5F4743 		.ascii "__GCC_IEC_559_COMPLEX 2\0"
 2910      435F4945 
 2910      435F3535 
 2910      395F434F 
 2910      4D504C45 
 2911 0d88 01       		.byte	0x1
 2912 0d89 00       		.uleb128 0
 2913 0d8a 5F5F464C 		.ascii "__FLT_EVAL_METHOD__ 2\0"
 2913      545F4556 
 2913      414C5F4D 
 2913      4554484F 
 2913      445F5F20 
 2914 0da0 01       		.byte	0x1
 2915 0da1 00       		.uleb128 0
 2916 0da2 5F5F4445 		.ascii "__DEC_EVAL_METHOD__ 2\0"
 2916      435F4556 
 2916      414C5F4D 
 2916      4554484F 
 2916      445F5F20 
 2917 0db8 01       		.byte	0x1
 2918 0db9 00       		.uleb128 0
 2919 0dba 5F5F464C 		.ascii "__FLT_RADIX__ 2\0"
 2919      545F5241 
 2919      4449585F 
 2919      5F203200 
 2920 0dca 01       		.byte	0x1
 2921 0dcb 00       		.uleb128 0
 2922 0dcc 5F5F464C 		.ascii "__FLT_MANT_DIG__ 24\0"
 2922      545F4D41 
 2922      4E545F44 
 2922      49475F5F 
 2922      20323400 
 2923 0de0 01       		.byte	0x1
 2924 0de1 00       		.uleb128 0
 2925 0de2 5F5F464C 		.ascii "__FLT_DIG__ 6\0"
 2925      545F4449 
GAS LISTING C:\Users\PRESID~1\AppData\Local\Temp\cczg9UB2.s 			page 82


 2925      475F5F20 
 2925      3600
 2926 0df0 01       		.byte	0x1
 2927 0df1 00       		.uleb128 0
 2928 0df2 5F5F464C 		.ascii "__FLT_MIN_EXP__ (-125)\0"
 2928      545F4D49 
 2928      4E5F4558 
 2928      505F5F20 
 2928      282D3132 
 2929 0e09 01       		.byte	0x1
 2930 0e0a 00       		.uleb128 0
 2931 0e0b 5F5F464C 		.ascii "__FLT_MIN_10_EXP__ (-37)\0"
 2931      545F4D49 
 2931      4E5F3130 
 2931      5F455850 
 2931      5F5F2028 
 2932 0e24 01       		.byte	0x1
 2933 0e25 00       		.uleb128 0
 2934 0e26 5F5F464C 		.ascii "__FLT_MAX_EXP__ 128\0"
 2934      545F4D41 
 2934      585F4558 
 2934      505F5F20 
 2934      31323800 
 2935 0e3a 01       		.byte	0x1
 2936 0e3b 00       		.uleb128 0
 2937 0e3c 5F5F464C 		.ascii "__FLT_MAX_10_EXP__ 38\0"
 2937      545F4D41 
 2937      585F3130 
 2937      5F455850 
 2937      5F5F2033 
 2938 0e52 01       		.byte	0x1
 2939 0e53 00       		.uleb128 0
 2940 0e54 5F5F464C 		.ascii "__FLT_DECIMAL_DIG__ 9\0"
 2940      545F4445 
 2940      43494D41 
 2940      4C5F4449 
 2940      475F5F20 
 2941 0e6a 01       		.byte	0x1
 2942 0e6b 00       		.uleb128 0
 2943 0e6c 5F5F464C 		.ascii "__FLT_MAX__ 3.40282346638528859812e+38F\0"
 2943      545F4D41 
 2943      585F5F20 
 2943      332E3430 
 2943      32383233 
 2944 0e94 01       		.byte	0x1
 2945 0e95 00       		.uleb128 0
 2946 0e96 5F5F464C 		.ascii "__FLT_MIN__ 1.17549435082228750797e-38F\0"
 2946      545F4D49 
 2946      4E5F5F20 
 2946      312E3137 
 2946      35343934 
 2947 0ebe 01       		.byte	0x1
 2948 0ebf 00       		.uleb128 0
 2949 0ec0 5F5F464C 		.ascii "__FLT_EPSILON__ 1.19209289550781250000e-7F\0"
 2949      545F4550 
 2949      53494C4F 
 2949      4E5F5F20 
GAS LISTING C:\Users\PRESID~1\AppData\Local\Temp\cczg9UB2.s 			page 83


 2949      312E3139 
 2950 0eeb 01       		.byte	0x1
 2951 0eec 00       		.uleb128 0
 2952 0eed 5F5F464C 		.ascii "__FLT_DENORM_MIN__ 1.40129846432481707092e-45F\0"
 2952      545F4445 
 2952      4E4F524D 
 2952      5F4D494E 
 2952      5F5F2031 
 2953 0f1c 01       		.byte	0x1
 2954 0f1d 00       		.uleb128 0
 2955 0f1e 5F5F464C 		.ascii "__FLT_HAS_DENORM__ 1\0"
 2955      545F4841 
 2955      535F4445 
 2955      4E4F524D 
 2955      5F5F2031 
 2956 0f33 01       		.byte	0x1
 2957 0f34 00       		.uleb128 0
 2958 0f35 5F5F464C 		.ascii "__FLT_HAS_INFINITY__ 1\0"
 2958      545F4841 
 2958      535F494E 
 2958      46494E49 
 2958      54595F5F 
 2959 0f4c 01       		.byte	0x1
 2960 0f4d 00       		.uleb128 0
 2961 0f4e 5F5F464C 		.ascii "__FLT_HAS_QUIET_NAN__ 1\0"
 2961      545F4841 
 2961      535F5155 
 2961      4945545F 
 2961      4E414E5F 
 2962 0f66 01       		.byte	0x1
 2963 0f67 00       		.uleb128 0
 2964 0f68 5F5F4442 		.ascii "__DBL_MANT_DIG__ 53\0"
 2964      4C5F4D41 
 2964      4E545F44 
 2964      49475F5F 
 2964      20353300 
 2965 0f7c 01       		.byte	0x1
 2966 0f7d 00       		.uleb128 0
 2967 0f7e 5F5F4442 		.ascii "__DBL_DIG__ 15\0"
 2967      4C5F4449 
 2967      475F5F20 
 2967      313500
 2968 0f8d 01       		.byte	0x1
 2969 0f8e 00       		.uleb128 0
 2970 0f8f 5F5F4442 		.ascii "__DBL_MIN_EXP__ (-1021)\0"
 2970      4C5F4D49 
 2970      4E5F4558 
 2970      505F5F20 
 2970      282D3130 
 2971 0fa7 01       		.byte	0x1
 2972 0fa8 00       		.uleb128 0
 2973 0fa9 5F5F4442 		.ascii "__DBL_MIN_10_EXP__ (-307)\0"
 2973      4C5F4D49 
 2973      4E5F3130 
 2973      5F455850 
 2973      5F5F2028 
 2974 0fc3 01       		.byte	0x1
GAS LISTING C:\Users\PRESID~1\AppData\Local\Temp\cczg9UB2.s 			page 84


 2975 0fc4 00       		.uleb128 0
 2976 0fc5 5F5F4442 		.ascii "__DBL_MAX_EXP__ 1024\0"
 2976      4C5F4D41 
 2976      585F4558 
 2976      505F5F20 
 2976      31303234 
 2977 0fda 01       		.byte	0x1
 2978 0fdb 00       		.uleb128 0
 2979 0fdc 5F5F4442 		.ascii "__DBL_MAX_10_EXP__ 308\0"
 2979      4C5F4D41 
 2979      585F3130 
 2979      5F455850 
 2979      5F5F2033 
 2980 0ff3 01       		.byte	0x1
 2981 0ff4 00       		.uleb128 0
 2982 0ff5 5F5F4442 		.ascii "__DBL_DECIMAL_DIG__ 17\0"
 2982      4C5F4445 
 2982      43494D41 
 2982      4C5F4449 
 2982      475F5F20 
 2983 100c 01       		.byte	0x1
 2984 100d 00       		.uleb128 0
 2985 100e 5F5F4442 		.ascii "__DBL_MAX__ ((double)1.79769313486231570815e+308L)\0"
 2985      4C5F4D41 
 2985      585F5F20 
 2985      2828646F 
 2985      75626C65 
 2986 1041 01       		.byte	0x1
 2987 1042 00       		.uleb128 0
 2988 1043 5F5F4442 		.ascii "__DBL_MIN__ ((double)2.22507385850720138309e-308L)\0"
 2988      4C5F4D49 
 2988      4E5F5F20 
 2988      2828646F 
 2988      75626C65 
 2989 1076 01       		.byte	0x1
 2990 1077 00       		.uleb128 0
 2991 1078 5F5F4442 		.ascii "__DBL_EPSILON__ ((double)2.22044604925031308085e-16L)\0"
 2991      4C5F4550 
 2991      53494C4F 
 2991      4E5F5F20 
 2991      2828646F 
 2992 10ae 01       		.byte	0x1
 2993 10af 00       		.uleb128 0
 2994 10b0 5F5F4442 		.ascii "__DBL_DENORM_MIN__ ((double)4.94065645841246544177e-324L)\0"
 2994      4C5F4445 
 2994      4E4F524D 
 2994      5F4D494E 
 2994      5F5F2028 
 2995 10ea 01       		.byte	0x1
 2996 10eb 00       		.uleb128 0
 2997 10ec 5F5F4442 		.ascii "__DBL_HAS_DENORM__ 1\0"
 2997      4C5F4841 
 2997      535F4445 
 2997      4E4F524D 
 2997      5F5F2031 
 2998 1101 01       		.byte	0x1
 2999 1102 00       		.uleb128 0
GAS LISTING C:\Users\PRESID~1\AppData\Local\Temp\cczg9UB2.s 			page 85


 3000 1103 5F5F4442 		.ascii "__DBL_HAS_INFINITY__ 1\0"
 3000      4C5F4841 
 3000      535F494E 
 3000      46494E49 
 3000      54595F5F 
 3001 111a 01       		.byte	0x1
 3002 111b 00       		.uleb128 0
 3003 111c 5F5F4442 		.ascii "__DBL_HAS_QUIET_NAN__ 1\0"
 3003      4C5F4841 
 3003      535F5155 
 3003      4945545F 
 3003      4E414E5F 
 3004 1134 01       		.byte	0x1
 3005 1135 00       		.uleb128 0
 3006 1136 5F5F4C44 		.ascii "__LDBL_MANT_DIG__ 64\0"
 3006      424C5F4D 
 3006      414E545F 
 3006      4449475F 
 3006      5F203634 
 3007 114b 01       		.byte	0x1
 3008 114c 00       		.uleb128 0
 3009 114d 5F5F4C44 		.ascii "__LDBL_DIG__ 18\0"
 3009      424C5F44 
 3009      49475F5F 
 3009      20313800 
 3010 115d 01       		.byte	0x1
 3011 115e 00       		.uleb128 0
 3012 115f 5F5F4C44 		.ascii "__LDBL_MIN_EXP__ (-16381)\0"
 3012      424C5F4D 
 3012      494E5F45 
 3012      58505F5F 
 3012      20282D31 
 3013 1179 01       		.byte	0x1
 3014 117a 00       		.uleb128 0
 3015 117b 5F5F4C44 		.ascii "__LDBL_MIN_10_EXP__ (-4931)\0"
 3015      424C5F4D 
 3015      494E5F31 
 3015      305F4558 
 3015      505F5F20 
 3016 1197 01       		.byte	0x1
 3017 1198 00       		.uleb128 0
 3018 1199 5F5F4C44 		.ascii "__LDBL_MAX_EXP__ 16384\0"
 3018      424C5F4D 
 3018      41585F45 
 3018      58505F5F 
 3018      20313633 
 3019 11b0 01       		.byte	0x1
 3020 11b1 00       		.uleb128 0
 3021 11b2 5F5F4C44 		.ascii "__LDBL_MAX_10_EXP__ 4932\0"
 3021      424C5F4D 
 3021      41585F31 
 3021      305F4558 
 3021      505F5F20 
 3022 11cb 01       		.byte	0x1
 3023 11cc 00       		.uleb128 0
 3024 11cd 5F5F4445 		.ascii "__DECIMAL_DIG__ 21\0"
 3024      43494D41 
GAS LISTING C:\Users\PRESID~1\AppData\Local\Temp\cczg9UB2.s 			page 86


 3024      4C5F4449 
 3024      475F5F20 
 3024      323100
 3025 11e0 01       		.byte	0x1
 3026 11e1 00       		.uleb128 0
 3027 11e2 5F5F4C44 		.ascii "__LDBL_MAX__ 1.18973149535723176502e+4932L\0"
 3027      424C5F4D 
 3027      41585F5F 
 3027      20312E31 
 3027      38393733 
 3028 120d 01       		.byte	0x1
 3029 120e 00       		.uleb128 0
 3030 120f 5F5F4C44 		.ascii "__LDBL_MIN__ 3.36210314311209350626e-4932L\0"
 3030      424C5F4D 
 3030      494E5F5F 
 3030      20332E33 
 3030      36323130 
 3031 123a 01       		.byte	0x1
 3032 123b 00       		.uleb128 0
 3033 123c 5F5F4C44 		.ascii "__LDBL_EPSILON__ 1.08420217248550443401e-19L\0"
 3033      424C5F45 
 3033      5053494C 
 3033      4F4E5F5F 
 3033      20312E30 
 3034 1269 01       		.byte	0x1
 3035 126a 00       		.uleb128 0
 3036 126b 5F5F4C44 		.ascii "__LDBL_DENORM_MIN__ 3.64519953188247460253e-4951L\0"
 3036      424C5F44 
 3036      454E4F52 
 3036      4D5F4D49 
 3036      4E5F5F20 
 3037 129d 01       		.byte	0x1
 3038 129e 00       		.uleb128 0
 3039 129f 5F5F4C44 		.ascii "__LDBL_HAS_DENORM__ 1\0"
 3039      424C5F48 
 3039      41535F44 
 3039      454E4F52 
 3039      4D5F5F20 
 3040 12b5 01       		.byte	0x1
 3041 12b6 00       		.uleb128 0
 3042 12b7 5F5F4C44 		.ascii "__LDBL_HAS_INFINITY__ 1\0"
 3042      424C5F48 
 3042      41535F49 
 3042      4E46494E 
 3042      4954595F 
 3043 12cf 01       		.byte	0x1
 3044 12d0 00       		.uleb128 0
 3045 12d1 5F5F4C44 		.ascii "__LDBL_HAS_QUIET_NAN__ 1\0"
 3045      424C5F48 
 3045      41535F51 
 3045      55494554 
 3045      5F4E414E 
 3046 12ea 01       		.byte	0x1
 3047 12eb 00       		.uleb128 0
 3048 12ec 5F5F4445 		.ascii "__DEC32_MANT_DIG__ 7\0"
 3048      4333325F 
 3048      4D414E54 
GAS LISTING C:\Users\PRESID~1\AppData\Local\Temp\cczg9UB2.s 			page 87


 3048      5F444947 
 3048      5F5F2037 
 3049 1301 01       		.byte	0x1
 3050 1302 00       		.uleb128 0
 3051 1303 5F5F4445 		.ascii "__DEC32_MIN_EXP__ (-94)\0"
 3051      4333325F 
 3051      4D494E5F 
 3051      4558505F 
 3051      5F20282D 
 3052 131b 01       		.byte	0x1
 3053 131c 00       		.uleb128 0
 3054 131d 5F5F4445 		.ascii "__DEC32_MAX_EXP__ 97\0"
 3054      4333325F 
 3054      4D41585F 
 3054      4558505F 
 3054      5F203937 
 3055 1332 01       		.byte	0x1
 3056 1333 00       		.uleb128 0
 3057 1334 5F5F4445 		.ascii "__DEC32_MIN__ 1E-95DF\0"
 3057      4333325F 
 3057      4D494E5F 
 3057      5F203145 
 3057      2D393544 
 3058 134a 01       		.byte	0x1
 3059 134b 00       		.uleb128 0
 3060 134c 5F5F4445 		.ascii "__DEC32_MAX__ 9.999999E96DF\0"
 3060      4333325F 
 3060      4D41585F 
 3060      5F20392E 
 3060      39393939 
 3061 1368 01       		.byte	0x1
 3062 1369 00       		.uleb128 0
 3063 136a 5F5F4445 		.ascii "__DEC32_EPSILON__ 1E-6DF\0"
 3063      4333325F 
 3063      45505349 
 3063      4C4F4E5F 
 3063      5F203145 
 3064 1383 01       		.byte	0x1
 3065 1384 00       		.uleb128 0
 3066 1385 5F5F4445 		.ascii "__DEC32_SUBNORMAL_MIN__ 0.000001E-95DF\0"
 3066      4333325F 
 3066      5355424E 
 3066      4F524D41 
 3066      4C5F4D49 
 3067 13ac 01       		.byte	0x1
 3068 13ad 00       		.uleb128 0
 3069 13ae 5F5F4445 		.ascii "__DEC64_MANT_DIG__ 16\0"
 3069      4336345F 
 3069      4D414E54 
 3069      5F444947 
 3069      5F5F2031 
 3070 13c4 01       		.byte	0x1
 3071 13c5 00       		.uleb128 0
 3072 13c6 5F5F4445 		.ascii "__DEC64_MIN_EXP__ (-382)\0"
 3072      4336345F 
 3072      4D494E5F 
 3072      4558505F 
GAS LISTING C:\Users\PRESID~1\AppData\Local\Temp\cczg9UB2.s 			page 88


 3072      5F20282D 
 3073 13df 01       		.byte	0x1
 3074 13e0 00       		.uleb128 0
 3075 13e1 5F5F4445 		.ascii "__DEC64_MAX_EXP__ 385\0"
 3075      4336345F 
 3075      4D41585F 
 3075      4558505F 
 3075      5F203338 
 3076 13f7 01       		.byte	0x1
 3077 13f8 00       		.uleb128 0
 3078 13f9 5F5F4445 		.ascii "__DEC64_MIN__ 1E-383DD\0"
 3078      4336345F 
 3078      4D494E5F 
 3078      5F203145 
 3078      2D333833 
 3079 1410 01       		.byte	0x1
 3080 1411 00       		.uleb128 0
 3081 1412 5F5F4445 		.ascii "__DEC64_MAX__ 9.999999999999999E384DD\0"
 3081      4336345F 
 3081      4D41585F 
 3081      5F20392E 
 3081      39393939 
 3082 1438 01       		.byte	0x1
 3083 1439 00       		.uleb128 0
 3084 143a 5F5F4445 		.ascii "__DEC64_EPSILON__ 1E-15DD\0"
 3084      4336345F 
 3084      45505349 
 3084      4C4F4E5F 
 3084      5F203145 
 3085 1454 01       		.byte	0x1
 3086 1455 00       		.uleb128 0
 3087 1456 5F5F4445 		.ascii "__DEC64_SUBNORMAL_MIN__ 0.000000000000001E-383DD\0"
 3087      4336345F 
 3087      5355424E 
 3087      4F524D41 
 3087      4C5F4D49 
 3088 1487 01       		.byte	0x1
 3089 1488 00       		.uleb128 0
 3090 1489 5F5F4445 		.ascii "__DEC128_MANT_DIG__ 34\0"
 3090      43313238 
 3090      5F4D414E 
 3090      545F4449 
 3090      475F5F20 
 3091 14a0 01       		.byte	0x1
 3092 14a1 00       		.uleb128 0
 3093 14a2 5F5F4445 		.ascii "__DEC128_MIN_EXP__ (-6142)\0"
 3093      43313238 
 3093      5F4D494E 
 3093      5F455850 
 3093      5F5F2028 
 3094 14bd 01       		.byte	0x1
 3095 14be 00       		.uleb128 0
 3096 14bf 5F5F4445 		.ascii "__DEC128_MAX_EXP__ 6145\0"
 3096      43313238 
 3096      5F4D4158 
 3096      5F455850 
 3096      5F5F2036 
GAS LISTING C:\Users\PRESID~1\AppData\Local\Temp\cczg9UB2.s 			page 89


 3097 14d7 01       		.byte	0x1
 3098 14d8 00       		.uleb128 0
 3099 14d9 5F5F4445 		.ascii "__DEC128_MIN__ 1E-6143DL\0"
 3099      43313238 
 3099      5F4D494E 
 3099      5F5F2031 
 3099      452D3631 
 3100 14f2 01       		.byte	0x1
 3101 14f3 00       		.uleb128 0
 3102 14f4 5F5F4445 		.ascii "__DEC128_MAX__ 9.999999999999999999999999999999999E6144DL\0"
 3102      43313238 
 3102      5F4D4158 
 3102      5F5F2039 
 3102      2E393939 
 3103 152e 01       		.byte	0x1
 3104 152f 00       		.uleb128 0
 3105 1530 5F5F4445 		.ascii "__DEC128_EPSILON__ 1E-33DL\0"
 3105      43313238 
 3105      5F455053 
 3105      494C4F4E 
 3105      5F5F2031 
 3106 154b 01       		.byte	0x1
 3107 154c 00       		.uleb128 0
 3108 154d 5F5F4445 		.ascii "__DEC128_SUBNORMAL_MIN__ 0.000000000000000000000000000000001E-6143DL\0"
 3108      43313238 
 3108      5F535542 
 3108      4E4F524D 
 3108      414C5F4D 
 3109 1592 01       		.byte	0x1
 3110 1593 00       		.uleb128 0
 3111 1594 5F5F5245 		.ascii "__REGISTER_PREFIX__ \0"
 3111      47495354 
 3111      45525F50 
 3111      52454649 
 3111      585F5F20 
 3112 15a9 01       		.byte	0x1
 3113 15aa 00       		.uleb128 0
 3114 15ab 5F5F5553 		.ascii "__USER_LABEL_PREFIX__ _\0"
 3114      45525F4C 
 3114      4142454C 
 3114      5F505245 
 3114      4649585F 
 3115 15c3 01       		.byte	0x1
 3116 15c4 00       		.uleb128 0
 3117 15c5 5F5F474E 		.ascii "__GNUC_GNU_INLINE__ 1\0"
 3117      55435F47 
 3117      4E555F49 
 3117      4E4C494E 
 3117      455F5F20 
 3118 15db 01       		.byte	0x1
 3119 15dc 00       		.uleb128 0
 3120 15dd 5F5F4E4F 		.ascii "__NO_INLINE__ 1\0"
 3120      5F494E4C 
 3120      494E455F 
 3120      5F203100 
 3121 15ed 01       		.byte	0x1
 3122 15ee 00       		.uleb128 0
GAS LISTING C:\Users\PRESID~1\AppData\Local\Temp\cczg9UB2.s 			page 90


 3123 15ef 5F5F5354 		.ascii "__STRICT_ANSI__ 1\0"
 3123      52494354 
 3123      5F414E53 
 3123      495F5F20 
 3123      3100
 3124 1601 01       		.byte	0x1
 3125 1602 00       		.uleb128 0
 3126 1603 5F5F4743 		.ascii "__GCC_ATOMIC_BOOL_LOCK_FREE 1\0"
 3126      435F4154 
 3126      4F4D4943 
 3126      5F424F4F 
 3126      4C5F4C4F 
 3127 1621 01       		.byte	0x1
 3128 1622 00       		.uleb128 0
 3129 1623 5F5F4743 		.ascii "__GCC_ATOMIC_CHAR_LOCK_FREE 1\0"
 3129      435F4154 
 3129      4F4D4943 
 3129      5F434841 
 3129      525F4C4F 
 3130 1641 01       		.byte	0x1
 3131 1642 00       		.uleb128 0
 3132 1643 5F5F4743 		.ascii "__GCC_ATOMIC_CHAR16_T_LOCK_FREE 1\0"
 3132      435F4154 
 3132      4F4D4943 
 3132      5F434841 
 3132      5231365F 
 3133 1665 01       		.byte	0x1
 3134 1666 00       		.uleb128 0
 3135 1667 5F5F4743 		.ascii "__GCC_ATOMIC_CHAR32_T_LOCK_FREE 1\0"
 3135      435F4154 
 3135      4F4D4943 
 3135      5F434841 
 3135      5233325F 
 3136 1689 01       		.byte	0x1
 3137 168a 00       		.uleb128 0
 3138 168b 5F5F4743 		.ascii "__GCC_ATOMIC_WCHAR_T_LOCK_FREE 1\0"
 3138      435F4154 
 3138      4F4D4943 
 3138      5F574348 
 3138      41525F54 
 3139 16ac 01       		.byte	0x1
 3140 16ad 00       		.uleb128 0
 3141 16ae 5F5F4743 		.ascii "__GCC_ATOMIC_SHORT_LOCK_FREE 1\0"
 3141      435F4154 
 3141      4F4D4943 
 3141      5F53484F 
 3141      52545F4C 
 3142 16cd 01       		.byte	0x1
 3143 16ce 00       		.uleb128 0
 3144 16cf 5F5F4743 		.ascii "__GCC_ATOMIC_INT_LOCK_FREE 1\0"
 3144      435F4154 
 3144      4F4D4943 
 3144      5F494E54 
 3144      5F4C4F43 
 3145 16ec 01       		.byte	0x1
 3146 16ed 00       		.uleb128 0
 3147 16ee 5F5F4743 		.ascii "__GCC_ATOMIC_LONG_LOCK_FREE 1\0"
GAS LISTING C:\Users\PRESID~1\AppData\Local\Temp\cczg9UB2.s 			page 91


 3147      435F4154 
 3147      4F4D4943 
 3147      5F4C4F4E 
 3147      475F4C4F 
 3148 170c 01       		.byte	0x1
 3149 170d 00       		.uleb128 0
 3150 170e 5F5F4743 		.ascii "__GCC_ATOMIC_LLONG_LOCK_FREE 1\0"
 3150      435F4154 
 3150      4F4D4943 
 3150      5F4C4C4F 
 3150      4E475F4C 
 3151 172d 01       		.byte	0x1
 3152 172e 00       		.uleb128 0
 3153 172f 5F5F4743 		.ascii "__GCC_ATOMIC_TEST_AND_SET_TRUEVAL 1\0"
 3153      435F4154 
 3153      4F4D4943 
 3153      5F544553 
 3153      545F414E 
 3154 1753 01       		.byte	0x1
 3155 1754 00       		.uleb128 0
 3156 1755 5F5F4743 		.ascii "__GCC_ATOMIC_POINTER_LOCK_FREE 1\0"
 3156      435F4154 
 3156      4F4D4943 
 3156      5F504F49 
 3156      4E544552 
 3157 1776 01       		.byte	0x1
 3158 1777 00       		.uleb128 0
 3159 1778 5F5F4743 		.ascii "__GCC_HAVE_DWARF2_CFI_ASM 1\0"
 3159      435F4841 
 3159      56455F44 
 3159      57415246 
 3159      325F4346 
 3160 1794 01       		.byte	0x1
 3161 1795 00       		.uleb128 0
 3162 1796 5F5F5052 		.ascii "__PRAGMA_REDEFINE_EXTNAME 1\0"
 3162      41474D41 
 3162      5F524544 
 3162      4546494E 
 3162      455F4558 
 3163 17b2 01       		.byte	0x1
 3164 17b3 00       		.uleb128 0
 3165 17b4 5F5F5349 		.ascii "__SIZEOF_WCHAR_T__ 2\0"
 3165      5A454F46 
 3165      5F574348 
 3165      41525F54 
 3165      5F5F2032 
 3166 17c9 01       		.byte	0x1
 3167 17ca 00       		.uleb128 0
 3168 17cb 5F5F5349 		.ascii "__SIZEOF_WINT_T__ 2\0"
 3168      5A454F46 
 3168      5F57494E 
 3168      545F545F 
 3168      5F203200 
 3169 17df 01       		.byte	0x1
 3170 17e0 00       		.uleb128 0
 3171 17e1 5F5F5349 		.ascii "__SIZEOF_PTRDIFF_T__ 4\0"
 3171      5A454F46 
GAS LISTING C:\Users\PRESID~1\AppData\Local\Temp\cczg9UB2.s 			page 92


 3171      5F505452 
 3171      44494646 
 3171      5F545F5F 
 3172 17f8 01       		.byte	0x1
 3173 17f9 00       		.uleb128 0
 3174 17fa 5F5F6933 		.ascii "__i386 1\0"
 3174      38362031 
 3174      00
 3175 1803 01       		.byte	0x1
 3176 1804 00       		.uleb128 0
 3177 1805 5F5F6933 		.ascii "__i386__ 1\0"
 3177      38365F5F 
 3177      203100
 3178 1810 01       		.byte	0x1
 3179 1811 00       		.uleb128 0
 3180 1812 5F5F4154 		.ascii "__ATOMIC_HLE_ACQUIRE 65536\0"
 3180      4F4D4943 
 3180      5F484C45 
 3180      5F414351 
 3180      55495245 
 3181 182d 01       		.byte	0x1
 3182 182e 00       		.uleb128 0
 3183 182f 5F5F4154 		.ascii "__ATOMIC_HLE_RELEASE 131072\0"
 3183      4F4D4943 
 3183      5F484C45 
 3183      5F52454C 
 3183      45415345 
 3184 184b 01       		.byte	0x1
 3185 184c 00       		.uleb128 0
 3186 184d 5F5F7475 		.ascii "__tune_i386__ 1\0"
 3186      6E655F69 
 3186      3338365F 
 3186      5F203100 
 3187 185d 01       		.byte	0x1
 3188 185e 00       		.uleb128 0
 3189 185f 5F5F636F 		.ascii "__code_model_32__ 1\0"
 3189      64655F6D 
 3189      6F64656C 
 3189      5F33325F 
 3189      5F203100 
 3190 1873 01       		.byte	0x1
 3191 1874 00       		.uleb128 0
 3192 1875 5F583836 		.ascii "_X86_ 1\0"
 3192      5F203100 
 3193 187d 01       		.byte	0x1
 3194 187e 00       		.uleb128 0
 3195 187f 5F5F7374 		.ascii "__stdcall __attribute__((__stdcall__))\0"
 3195      6463616C 
 3195      6C205F5F 
 3195      61747472 
 3195      69627574 
 3196 18a6 01       		.byte	0x1
 3197 18a7 00       		.uleb128 0
 3198 18a8 5F5F6661 		.ascii "__fastcall __attribute__((__fastcall__))\0"
 3198      73746361 
 3198      6C6C205F 
 3198      5F617474 
GAS LISTING C:\Users\PRESID~1\AppData\Local\Temp\cczg9UB2.s 			page 93


 3198      72696275 
 3199 18d1 01       		.byte	0x1
 3200 18d2 00       		.uleb128 0
 3201 18d3 5F5F7468 		.ascii "__thiscall __attribute__((__thiscall__))\0"
 3201      69736361 
 3201      6C6C205F 
 3201      5F617474 
 3201      72696275 
 3202 18fc 01       		.byte	0x1
 3203 18fd 00       		.uleb128 0
 3204 18fe 5F5F6364 		.ascii "__cdecl __attribute__((__cdecl__))\0"
 3204      65636C20 
 3204      5F5F6174 
 3204      74726962 
 3204      7574655F 
 3205 1921 01       		.byte	0x1
 3206 1922 00       		.uleb128 0
 3207 1923 5F5F4758 		.ascii "__GXX_MERGED_TYPEINFO_NAMES 0\0"
 3207      585F4D45 
 3207      52474544 
 3207      5F545950 
 3207      45494E46 
 3208 1941 01       		.byte	0x1
 3209 1942 00       		.uleb128 0
 3210 1943 5F5F4758 		.ascii "__GXX_TYPEINFO_EQUALITY_INLINE 0\0"
 3210      585F5459 
 3210      5045494E 
 3210      464F5F45 
 3210      5155414C 
 3211 1964 01       		.byte	0x1
 3212 1965 00       		.uleb128 0
 3213 1966 5F5F4D53 		.ascii "__MSVCRT__ 1\0"
 3213      56435254 
 3213      5F5F2031 
 3213      00
 3214 1973 01       		.byte	0x1
 3215 1974 00       		.uleb128 0
 3216 1975 5F5F4D49 		.ascii "__MINGW32__ 1\0"
 3216      4E475733 
 3216      325F5F20 
 3216      3100
 3217 1983 01       		.byte	0x1
 3218 1984 00       		.uleb128 0
 3219 1985 5F57494E 		.ascii "_WIN32 1\0"
 3219      33322031 
 3219      00
 3220 198e 01       		.byte	0x1
 3221 198f 00       		.uleb128 0
 3222 1990 5F5F5749 		.ascii "__WIN32 1\0"
 3222      4E333220 
 3222      3100
 3223 199a 01       		.byte	0x1
 3224 199b 00       		.uleb128 0
 3225 199c 5F5F5749 		.ascii "__WIN32__ 1\0"
 3225      4E33325F 
 3225      5F203100 
 3226 19a8 01       		.byte	0x1
GAS LISTING C:\Users\PRESID~1\AppData\Local\Temp\cczg9UB2.s 			page 94


 3227 19a9 00       		.uleb128 0
 3228 19aa 5F5F5749 		.ascii "__WINNT 1\0"
 3228      4E4E5420 
 3228      3100
 3229 19b4 01       		.byte	0x1
 3230 19b5 00       		.uleb128 0
 3231 19b6 5F5F5749 		.ascii "__WINNT__ 1\0"
 3231      4E4E545F 
 3231      5F203100 
 3232 19c2 01       		.byte	0x1
 3233 19c3 00       		.uleb128 0
 3234 19c4 5F494E54 		.ascii "_INTEGRAL_MAX_BITS 64\0"
 3234      45475241 
 3234      4C5F4D41 
 3234      585F4249 
 3234      54532036 
 3235 19da 01       		.byte	0x1
 3236 19db 00       		.uleb128 0
 3237 19dc 5F5F6465 		.ascii "__declspec(x) __attribute__((x))\0"
 3237      636C7370 
 3237      65632878 
 3237      29205F5F 
 3237      61747472 
 3238 19fd 01       		.byte	0x1
 3239 19fe 00       		.uleb128 0
 3240 19ff 5F5F4445 		.ascii "__DECIMAL_BID_FORMAT__ 1\0"
 3240      43494D41 
 3240      4C5F4249 
 3240      445F464F 
 3240      524D4154 
 3241 1a18 01       		.byte	0x1
 3242 1a19 00       		.uleb128 0
 3243 1a1a 4346475F 		.ascii "CFG_PROCESSOR 3\0"
 3243      50524F43 
 3243      4553534F 
 3243      52203300 
 3244 1a2a 03       		.byte	0x3
 3245 1a2b 00       		.uleb128 0
 3246 1a2c 01       		.uleb128 0x1
 3247              		.file 8 "E:/NeuOrga/Programmieren/c_cpp/github_os/input/src/os_base/os_firstinc.h"
 3248 1a2d 03       		.byte	0x3
 3249 1a2e 01       		.uleb128 0x1
 3250 1a2f 08       		.uleb128 0x8
 3251 1a30 01       		.byte	0x1
 3252 1a31 02       		.uleb128 0x2
 3253 1a32 5F6F735F 		.ascii "_os_firstinc_h_ \0"
 3253      66697273 
 3253      74696E63 
 3253      5F685F20 
 3253      00
 3254 1a43 03       		.byte	0x3
 3255 1a44 04       		.uleb128 0x4
 3256 1a45 02       		.uleb128 0x2
 3257 1a46 01       		.byte	0x1
 3258 1a47 02       		.uleb128 0x2
 3259 1a48 5F424153 		.ascii "_BASE_TYPES_H_ \0"
 3259      455F5459 
GAS LISTING C:\Users\PRESID~1\AppData\Local\Temp\cczg9UB2.s 			page 95


 3259      5045535F 
 3259      485F2000 
 3260 1a58 01       		.byte	0x1
 3261 1a59 04       		.uleb128 0x4
 3262 1a5a 494E5445 		.ascii "INTEGER_LLP64_IL32P64 1\0"
 3262      4745525F 
 3262      4C4C5036 
 3262      345F494C 
 3262      33325036 
 3263 1a72 01       		.byte	0x1
 3264 1a73 05       		.uleb128 0x5
 3265 1a74 494E5445 		.ascii "INTEGER_LP64_I32LP64 2\0"
 3265      4745525F 
 3265      4C503634 
 3265      5F493332 
 3265      4C503634 
 3266 1a8b 01       		.byte	0x1
 3267 1a8c 06       		.uleb128 0x6
 3268 1a8d 494E5445 		.ascii "INTEGER_ILP64 3\0"
 3268      4745525F 
 3268      494C5036 
 3268      34203300 
 3269 1a9d 01       		.byte	0x1
 3270 1a9e 07       		.uleb128 0x7
 3271 1a9f 494E5445 		.ascii "INTEGER_SILP64 4\0"
 3271      4745525F 
 3271      53494C50 
 3271      36342034 
 3271      00
 3272 1ab0 01       		.byte	0x1
 3273 1ab1 09       		.uleb128 0x9
 3274 1ab2 4350505F 		.ascii "CPP_VERSION_NONE 0\0"
 3274      56455253 
 3274      494F4E5F 
 3274      4E4F4E45 
 3274      203000
 3275 1ac5 01       		.byte	0x1
 3276 1ac6 0A       		.uleb128 0xa
 3277 1ac7 4350505F 		.ascii "CPP_VERSION_1998 1\0"
 3277      56455253 
 3277      494F4E5F 
 3277      31393938 
 3277      203100
 3278 1ada 01       		.byte	0x1
 3279 1adb 0B       		.uleb128 0xb
 3280 1adc 4350505F 		.ascii "CPP_VERSION_2003 2\0"
 3280      56455253 
 3280      494F4E5F 
 3280      32303033 
 3280      203200
 3281 1aef 01       		.byte	0x1
 3282 1af0 0C       		.uleb128 0xc
 3283 1af1 4350505F 		.ascii "CPP_VERSION_2007 3\0"
 3283      56455253 
 3283      494F4E5F 
 3283      32303037 
 3283      203300
GAS LISTING C:\Users\PRESID~1\AppData\Local\Temp\cczg9UB2.s 			page 96


 3284 1b04 01       		.byte	0x1
 3285 1b05 0D       		.uleb128 0xd
 3286 1b06 4350505F 		.ascii "CPP_VERSION_2011 4\0"
 3286      56455253 
 3286      494F4E5F 
 3286      32303131 
 3286      203400
 3287 1b19 01       		.byte	0x1
 3288 1b1a 0E       		.uleb128 0xe
 3289 1b1b 49534F5F 		.ascii "ISO_CPP_VERSION CPP_VERSION_1998\0"
 3289      4350505F 
 3289      56455253 
 3289      494F4E20 
 3289      4350505F 
 3290 1b3c 01       		.byte	0x1
 3291 1b3d 10       		.uleb128 0x10
 3292 1b3e 494E5445 		.ascii "INTEGER_MODEL INTEGER_LLP64_IL32P64\0"
 3292      4745525F 
 3292      4D4F4445 
 3292      4C20494E 
 3292      54454745 
 3293 1b62 04       		.byte	0x4
 3294 1b63 03       		.byte	0x3
 3295 1b64 05       		.uleb128 0x5
 3296 1b65 03       		.uleb128 0x3
 3297 1b66 01       		.byte	0x1
 3298 1b67 02       		.uleb128 0x2
 3299 1b68 5F6F735F 		.ascii "_os_common_h_ \0"
 3299      636F6D6D 
 3299      6F6E5F68 
 3299      5F2000
 3300 1b77 01       		.byte	0x1
 3301 1b78 06       		.uleb128 0x6
 3302 1b79 46616C73 		.ascii "False 0\0"
 3302      65203000 
 3303 1b81 01       		.byte	0x1
 3304 1b82 07       		.uleb128 0x7
 3305 1b83 54727565 		.ascii "True 1\0"
 3305      203100
 3306 1b8a 01       		.byte	0x1
 3307 1b8b 08       		.uleb128 0x8
 3308 1b8c 46414C53 		.ascii "FALSE False\0"
 3308      45204661 
 3308      6C736500 
 3309 1b98 01       		.byte	0x1
 3310 1b99 09       		.uleb128 0x9
 3311 1b9a 54525545 		.ascii "TRUE True\0"
 3311      20547275 
 3311      6500
 3312 1ba4 01       		.byte	0x1
 3313 1ba5 0A       		.uleb128 0xa
 3314 1ba6 41636365 		.ascii "Accepted 1\0"
 3314      70746564 
 3314      203100
 3315 1bb1 01       		.byte	0x1
 3316 1bb2 0B       		.uleb128 0xb
 3317 1bb3 52656A65 		.ascii "Rejected 0\0"
GAS LISTING C:\Users\PRESID~1\AppData\Local\Temp\cczg9UB2.s 			page 97


 3317      63746564 
 3317      203000
 3318 1bbe 01       		.byte	0x1
 3319 1bbf 0C       		.uleb128 0xc
 3320 1bc0 4C6F6361 		.ascii "Local static\0"
 3320      6C207374 
 3320      61746963 
 3320      00
 3321 1bcd 01       		.byte	0x1
 3322 1bce 0D       		.uleb128 0xd
 3323 1bcf 4C6F6361 		.ascii "Local_inline static __inline__\0"
 3323      6C5F696E 
 3323      6C696E65 
 3323      20737461 
 3323      74696320 
 3324 1bee 01       		.byte	0x1
 3325 1bef 0E       		.uleb128 0xe
 3326 1bf0 476C6F62 		.ascii "Global_inline __inline__\0"
 3326      616C5F69 
 3326      6E6C696E 
 3326      65205F5F 
 3326      696E6C69 
 3327 1c09 01       		.byte	0x1
 3328 1c0a 0F       		.uleb128 0xf
 3329 1c0b 52656665 		.ascii "ReferenceUnusedParameter(x) ((x) = (x))\0"
 3329      72656E63 
 3329      65556E75 
 3329      73656450 
 3329      6172616D 
 3330 1c33 01       		.byte	0x1
 3331 1c34 12       		.uleb128 0x12
 3332 1c35 634D4355 		.ascii "cMCU_X86 3\0"
 3332      5F583836 
 3332      203300
 3333 1c40 01       		.byte	0x1
 3334 1c41 13       		.uleb128 0x13
 3335 1c42 634D4355 		.ascii "cMCU_CORTEX_M4 4\0"
 3335      5F434F52 
 3335      5445585F 
 3335      4D342034 
 3335      00
 3336 1c53 01       		.byte	0x1
 3337 1c54 16       		.uleb128 0x16
 3338 1c55 4E525F4F 		.ascii "NR_OF_CORES 1\0"
 3338      465F434F 
 3338      52455320 
 3338      3100
 3339 1c63 01       		.byte	0x1
 3340 1c64 18       		.uleb128 0x18
 3341 1c65 4D43555F 		.ascii "MCU_CLOCK_IN_HZ ((uint32)168000000u)\0"
 3341      434C4F43 
 3341      4B5F494E 
 3341      5F485A20 
 3341      28287569 
 3342 1c8a 01       		.byte	0x1
 3343 1c8b 1C       		.uleb128 0x1c
 3344 1c8c 44697361 		.ascii "DisableInterrupts() \0"
GAS LISTING C:\Users\PRESID~1\AppData\Local\Temp\cczg9UB2.s 			page 98


 3344      626C6549 
 3344      6E746572 
 3344      72757074 
 3344      73282920 
 3345 1ca1 01       		.byte	0x1
 3346 1ca2 1D       		.uleb128 0x1d
 3347 1ca3 456E6162 		.ascii "EnableInterrupts() \0"
 3347      6C65496E 
 3347      74657272 
 3347      75707473 
 3347      28292000 
 3348 1cb7 01       		.byte	0x1
 3349 1cb8 1E       		.uleb128 0x1e
 3350 1cb9 50726976 		.ascii "Privilige_level_save_current() \0"
 3350      696C6967 
 3350      655F6C65 
 3350      76656C5F 
 3350      73617665 
 3351 1cd9 01       		.byte	0x1
 3352 1cda 1F       		.uleb128 0x1f
 3353 1cdb 50726976 		.ascii "Privilige_level_enter_kernel_mode() \0"
 3353      696C6967 
 3353      655F6C65 
 3353      76656C5F 
 3353      656E7465 
 3354 1d00 01       		.byte	0x1
 3355 1d01 20       		.uleb128 0x20
 3356 1d02 50726976 		.ascii "Privilige_level_restore_saved() \0"
 3356      696C6967 
 3356      655F6C65 
 3356      76656C5F 
 3356      72657374 
 3357 1d23 01       		.byte	0x1
 3358 1d24 21       		.uleb128 0x21
 3359 1d25 48616C74 		.ascii "HaltMcu() \0"
 3359      4D637528 
 3359      292000
 3360 1d30 04       		.byte	0x4
 3361              		.file 9 "E:/NeuOrga/Programmieren/c_cpp/github_os/input/src/os_base/../os_sim/lld_global.h"
 3362 1d31 03       		.byte	0x3
 3363 1d32 08       		.uleb128 0x8
 3364 1d33 09       		.uleb128 0x9
 3365 1d34 01       		.byte	0x1
 3366 1d35 02       		.uleb128 0x2
 3367 1d36 5F6C6C64 		.ascii "_lld_global_h_ \0"
 3367      5F676C6F 
 3367      62616C5F 
 3367      685F2000 
 3368 1d46 03       		.byte	0x3
 3369 1d47 04       		.uleb128 0x4
 3370 1d48 04       		.uleb128 0x4
 3371 1d49 01       		.byte	0x1
 3372 1d4a 02       		.uleb128 0x2
 3373 1d4b 5F6C6C64 		.ascii "_lld_core_h_ \0"
 3373      5F636F72 
 3373      655F685F 
 3373      2000
GAS LISTING C:\Users\PRESID~1\AppData\Local\Temp\cczg9UB2.s 			page 99


 3374              		.file 10 "E:/NeuOrga/Programmieren/c_cpp/github_os/input/src/os_base/../os_sim/../os_base/os_first
 3375 1d59 03       		.byte	0x3
 3376 1d5a 03       		.uleb128 0x3
 3377 1d5b 0A       		.uleb128 0xa
 3378 1d5c 04       		.byte	0x4
 3379 1d5d 04       		.byte	0x4
 3380              		.file 11 "E:/NeuOrga/Programmieren/c_cpp/github_os/input/src/os_base/../os_sim/lld_interrupt.h"
 3381 1d5e 03       		.byte	0x3
 3382 1d5f 05       		.uleb128 0x5
 3383 1d60 0B       		.uleb128 0xb
 3384 1d61 01       		.byte	0x1
 3385 1d62 02       		.uleb128 0x2
 3386 1d63 5F6C6C64 		.ascii "_lld_interrupt_h_ \0"
 3386      5F696E74 
 3386      65727275 
 3386      70745F68 
 3386      5F2000
 3387 1d76 01       		.byte	0x1
 3388 1d77 05       		.uleb128 0x5
 3389 1d78 6F735F69 		.ascii "os_interrupt_swi_1 asm(\"swi 1\")\0"
 3389      6E746572 
 3389      72757074 
 3389      5F737769 
 3389      5F312061 
 3390 1d98 01       		.byte	0x1
 3391 1d99 06       		.uleb128 0x6
 3392 1d9a 6F735F69 		.ascii "os_interrupt_swi_2 asm(\"swi 2\")\0"
 3392      6E746572 
 3392      72757074 
 3392      5F737769 
 3392      5F322061 
 3393 1dba 01       		.byte	0x1
 3394 1dbb 07       		.uleb128 0x7
 3395 1dbc 6F735F69 		.ascii "os_interrupt_swi_3 asm(\"swi 3\")\0"
 3395      6E746572 
 3395      72757074 
 3395      5F737769 
 3395      5F332061 
 3396 1ddc 01       		.byte	0x1
 3397 1ddd 08       		.uleb128 0x8
 3398 1dde 6F735F69 		.ascii "os_interrupt_swi_4 asm(\"swi 4\")\0"
 3398      6E746572 
 3398      72757074 
 3398      5F737769 
 3398      5F342061 
 3399 1dfe 01       		.byte	0x1
 3400 1dff 09       		.uleb128 0x9
 3401 1e00 6F735F69 		.ascii "os_interrupt_swi_5 asm(\"swi 5\")\0"
 3401      6E746572 
 3401      72757074 
 3401      5F737769 
 3401      5F352061 
 3402 1e20 04       		.byte	0x4
 3403              		.file 12 "E:/NeuOrga/Programmieren/c_cpp/github_os/input/src/os_base/../os_sim/lld_mmu.h"
 3404 1e21 03       		.byte	0x3
 3405 1e22 06       		.uleb128 0x6
 3406 1e23 0C       		.uleb128 0xc
GAS LISTING C:\Users\PRESID~1\AppData\Local\Temp\cczg9UB2.s 			page 100


 3407 1e24 01       		.byte	0x1
 3408 1e25 02       		.uleb128 0x2
 3409 1e26 5F6C6C64 		.ascii "_lld_mmu_h_ \0"
 3409      5F6D6D75 
 3409      5F685F20 
 3409      00
 3410 1e33 04       		.byte	0x4
 3411              		.file 13 "E:/NeuOrga/Programmieren/c_cpp/github_os/input/src/os_base/../os_sim/lld_timer.h"
 3412 1e34 03       		.byte	0x3
 3413 1e35 07       		.uleb128 0x7
 3414 1e36 0D       		.uleb128 0xd
 3415 1e37 01       		.byte	0x1
 3416 1e38 02       		.uleb128 0x2
 3417 1e39 5F6C6C64 		.ascii "_lld_timer_h_ \0"
 3417      5F74696D 
 3417      65725F68 
 3417      5F2000
 3418 1e48 04       		.byte	0x4
 3419              		.file 14 "E:/NeuOrga/Programmieren/c_cpp/github_os/input/src/os_base/../os_sim/lld_power.h"
 3420 1e49 03       		.byte	0x3
 3421 1e4a 08       		.uleb128 0x8
 3422 1e4b 0E       		.uleb128 0xe
 3423 1e4c 01       		.byte	0x1
 3424 1e4d 02       		.uleb128 0x2
 3425 1e4e 5F6C6C64 		.ascii "_lld_power_h_ \0"
 3425      5F706F77 
 3425      65725F68 
 3425      5F2000
 3426 1e5d 04       		.byte	0x4
 3427              		.file 15 "E:/NeuOrga/Programmieren/c_cpp/github_os/input/src/os_base/../os_sim/lld_ram.h"
 3428 1e5e 03       		.byte	0x3
 3429 1e5f 09       		.uleb128 0x9
 3430 1e60 0F       		.uleb128 0xf
 3431 1e61 01       		.byte	0x1
 3432 1e62 02       		.uleb128 0x2
 3433 1e63 5F6C6C64 		.ascii "_lld_ram_h_ \0"
 3433      5F72616D 
 3433      5F685F20 
 3433      00
 3434 1e70 04       		.byte	0x4
 3435 1e71 03       		.byte	0x3
 3436 1e72 0A       		.uleb128 0xa
 3437 1e73 05       		.uleb128 0x5
 3438 1e74 01       		.byte	0x1
 3439 1e75 02       		.uleb128 0x2
 3440 1e76 5F6F735F 		.ascii "_os_task_common_h_ \0"
 3440      7461736B 
 3440      5F636F6D 
 3440      6D6F6E5F 
 3440      685F2000 
 3441 1e8a 03       		.byte	0x3
 3442 1e8b 03       		.uleb128 0x3
 3443 1e8c 0A       		.uleb128 0xa
 3444 1e8d 04       		.byte	0x4
 3445              		.file 16 "E:/NeuOrga/Programmieren/c_cpp/github_os/input/src/os_base/../os_sim/../os_base/os_task_
 3446 1e8e 03       		.byte	0x3
 3447 1e8f 04       		.uleb128 0x4
GAS LISTING C:\Users\PRESID~1\AppData\Local\Temp\cczg9UB2.s 			page 101


 3448 1e90 10       		.uleb128 0x10
 3449 1e91 01       		.byte	0x1
 3450 1e92 02       		.uleb128 0x2
 3451 1e93 5F6F735F 		.ascii "_os_task_config_h_ \0"
 3451      7461736B 
 3451      5F636F6E 
 3451      6669675F 
 3451      685F2000 
 3452 1ea7 01       		.byte	0x1
 3453 1ea8 05       		.uleb128 0x5
 3454 1ea9 53636865 		.ascii "SchedulerFrequency (1.0e3)\0"
 3454      64756C65 
 3454      72467265 
 3454      7175656E 
 3454      63792028 
 3455 1ec4 01       		.byte	0x1
 3456 1ec5 06       		.uleb128 0x6
 3457 1ec6 4D696E54 		.ascii "MinTimeSlice_s (1.0/SchedulerFrequency)\0"
 3457      696D6553 
 3457      6C696365 
 3457      5F732028 
 3457      312E302F 
 3458 1eee 01       		.byte	0x1
 3459 1eef 07       		.uleb128 0x7
 3460 1ef0 4D696E54 		.ascii "MinTimeSlice_us ((1.0/SchedulerFrequency)*1e6)\0"
 3460      696D6553 
 3460      6C696365 
 3460      5F757320 
 3460      2828312E 
 3461 1f1f 01       		.byte	0x1
 3462 1f20 08       		.uleb128 0x8
 3463 1f21 5461736B 		.ascii "Task_min_time (1e0)\0"
 3463      5F6D696E 
 3463      5F74696D 
 3463      65202831 
 3463      65302900 
 3464 1f35 01       		.byte	0x1
 3465 1f36 09       		.uleb128 0x9
 3466 1f37 4E554D42 		.ascii "NUMBER_OF_TASKS 5\0"
 3466      45525F4F 
 3466      465F5441 
 3466      534B5320 
 3466      3500
 3467 1f49 01       		.byte	0x1
 3468 1f4a 0A       		.uleb128 0xa
 3469 1f4b 4D41585F 		.ascii "MAX_RUN_QUEUE_SIZE (NUMBER_OF_TASKS)\0"
 3469      52554E5F 
 3469      51554555 
 3469      455F5349 
 3469      5A452028 
 3470 1f70 01       		.byte	0x1
 3471 1f71 0B       		.uleb128 0xb
 3472 1f72 4D41585F 		.ascii "MAX_RUN_PQUEUE_SIZE MAX_RUN_QUEUE_SIZE\0"
 3472      52554E5F 
 3472      50515545 
 3472      55455F53 
 3472      495A4520 
GAS LISTING C:\Users\PRESID~1\AppData\Local\Temp\cczg9UB2.s 			page 102


 3473 1f99 01       		.byte	0x1
 3474 1f9a 0D       		.uleb128 0xd
 3475 1f9b 5441534B 		.ascii "TASK_STACK_SIZE 200\0"
 3475      5F535441 
 3475      434B5F53 
 3475      495A4520 
 3475      32303000 
 3476 1faf 01       		.byte	0x1
 3477 1fb0 10       		.uleb128 0x10
 3478 1fb1 4D535F50 		.ascii "MS_PER_SEC (1000)\0"
 3478      45525F53 
 3478      45432028 
 3478      31303030 
 3478      2900
 3479 1fc3 01       		.byte	0x1
 3480 1fc4 11       		.uleb128 0x11
 3481 1fc5 5553455F 		.ascii "USE_STATIC_CREATED_TASKS True\0"
 3481      53544154 
 3481      49435F43 
 3481      52454154 
 3481      45445F54 
 3482 1fe3 04       		.byte	0x4
 3483              		.file 17 "E:/NeuOrga/Programmieren/c_cpp/github_os/input/src/os_base/../os_sim/../os_base/os_init_
 3484 1fe4 03       		.byte	0x3
 3485 1fe5 05       		.uleb128 0x5
 3486 1fe6 11       		.uleb128 0x11
 3487 1fe7 01       		.byte	0x1
 3488 1fe8 02       		.uleb128 0x2
 3489 1fe9 5F6F735F 		.ascii "_os_init_task_system_h_ \0"
 3489      696E6974 
 3489      5F746173 
 3489      6B5F7379 
 3489      7374656D 
 3490 2002 04       		.byte	0x4
 3491 2003 01       		.byte	0x1
 3492 2004 5F       		.uleb128 0x5f
 3493 2005 6F735F53 		.ascii "os_SaveTaskPtr(task_ptr,task_name) (TASK_PTR[(task_name)] = (task_ptr))\0"
 3493      61766554 
 3493      61736B50 
 3493      74722874 
 3493      61736B5F 
 3494 204d 01       		.byte	0x1
 3495 204e 60       		.uleb128 0x60
 3496 204f 6F735F47 		.ascii "os_GetTaskPtr(task_name) ((task_t*) TASK_PTR[(task_name)])\0"
 3496      65745461 
 3496      736B5074 
 3496      72287461 
 3496      736B5F6E 
 3497 208a 04       		.byte	0x4
 3498 208b 04       		.byte	0x4
 3499              		.file 18 "E:/NeuOrga/Programmieren/c_cpp/github_os/input/src/os_base/../os_user_code/led.h"
 3500 208c 03       		.byte	0x3
 3501 208d 0C       		.uleb128 0xc
 3502 208e 12       		.uleb128 0x12
 3503 208f 01       		.byte	0x1
 3504 2090 02       		.uleb128 0x2
 3505 2091 5F4C4544 		.ascii "_LED_H_ \0"
GAS LISTING C:\Users\PRESID~1\AppData\Local\Temp\cczg9UB2.s 			page 103


 3505      5F485F20 
 3505      00
 3506 209a 04       		.byte	0x4
 3507 209b 03       		.byte	0x3
 3508 209c 0E       		.uleb128 0xe
 3509 209d 07       		.uleb128 0x7
 3510 209e 01       		.byte	0x1
 3511 209f 02       		.uleb128 0x2
 3512 20a0 5F4F535F 		.ascii "_OS_RAM_H_ \0"
 3512      52414D5F 
 3512      485F2000 
 3513              		.file 19 "E:/NeuOrga/Programmieren/c_cpp/github_os/input/src/os_base/../os_base/os_firstinc.h"
 3514 20ac 03       		.byte	0x3
 3515 20ad 04       		.uleb128 0x4
 3516 20ae 13       		.uleb128 0x13
 3517 20af 04       		.byte	0x4
 3518              		.file 20 "E:/NeuOrga/Programmieren/c_cpp/github_os/input/src/os_base/../os_base/os_stack.h"
 3519 20b0 03       		.byte	0x3
 3520 20b1 05       		.uleb128 0x5
 3521 20b2 14       		.uleb128 0x14
 3522 20b3 01       		.byte	0x1
 3523 20b4 02       		.uleb128 0x2
 3524 20b5 5F6F735F 		.ascii "_os_stack_h_ \0"
 3524      73746163 
 3524      6B5F685F 
 3524      2000
 3525 20c3 01       		.byte	0x1
 3526 20c4 04       		.uleb128 0x4
 3527 20c5 4F535F53 		.ascii "OS_STACK_SIZE 0x100\0"
 3527      5441434B 
 3527      5F53495A 
 3527      45203078 
 3527      31303000 
 3528 20d9 01       		.byte	0x1
 3529 20da 06       		.uleb128 0x6
 3530 20db 4F535F53 		.ascii "OS_STACK_SIZE_END 0x01u\0"
 3530      5441434B 
 3530      5F53495A 
 3530      455F454E 
 3530      44203078 
 3531 20f3 04       		.byte	0x4
 3532              		.file 21 "E:/NeuOrga/Programmieren/c_cpp/github_os/input/src/os_base/../os_base/os_heap.h"
 3533 20f4 03       		.byte	0x3
 3534 20f5 06       		.uleb128 0x6
 3535 20f6 15       		.uleb128 0x15
 3536 20f7 01       		.byte	0x1
 3537 20f8 02       		.uleb128 0x2
 3538 20f9 5F6F735F 		.ascii "_os_heap_h_ \0"
 3538      68656170 
 3538      5F685F20 
 3538      00
 3539 2106 01       		.byte	0x1
 3540 2107 05       		.uleb128 0x5
 3541 2108 48454150 		.ascii "HEAP_SIZE 10000\0"
 3541      5F53495A 
 3541      45203130 
 3541      30303000 
GAS LISTING C:\Users\PRESID~1\AppData\Local\Temp\cczg9UB2.s 			page 104


 3542 2118 01       		.byte	0x1
 3543 2119 06       		.uleb128 0x6
 3544 211a 4D494E5F 		.ascii "MIN_BLOCK_SIZE_HEAP 8\0"
 3544      424C4F43 
 3544      4B5F5349 
 3544      5A455F48 
 3544      45415020 
 3545 2130 01       		.byte	0x1
 3546 2131 09       		.uleb128 0x9
 3547 2132 48454150 		.ascii "HEAP_OFFSET_FOR_SIZE 0\0"
 3547      5F4F4646 
 3547      5345545F 
 3547      464F525F 
 3547      53495A45 
 3548 2149 01       		.byte	0x1
 3549 214a 0A       		.uleb128 0xa
 3550 214b 48454150 		.ascii "HEAP_OFFSET_FOR_USED_SIZE 4\0"
 3550      5F4F4646 
 3550      5345545F 
 3550      464F525F 
 3550      55534544 
 3551 2167 01       		.byte	0x1
 3552 2168 0B       		.uleb128 0xb
 3553 2169 48454150 		.ascii "HEAP_OFFSET_FOR_CHUNK 8\0"
 3553      5F4F4646 
 3553      5345545F 
 3553      464F525F 
 3553      4348554E 
 3554 2181 04       		.byte	0x4
 3555              		.file 22 "E:/NeuOrga/Programmieren/c_cpp/github_os/input/src/os_base/../os_base/os_main.h"
 3556 2182 03       		.byte	0x3
 3557 2183 07       		.uleb128 0x7
 3558 2184 16       		.uleb128 0x16
 3559 2185 01       		.byte	0x1
 3560 2186 02       		.uleb128 0x2
 3561 2187 5F6F735F 		.ascii "_os_main_h_ \0"
 3561      6D61696E 
 3561      5F685F20 
 3561      00
 3562 2194 01       		.byte	0x1
 3563 2195 03       		.uleb128 0x3
 3564 2196 6F735F69 		.ascii "os_init 0\0"
 3564      6E697420 
 3564      3000
 3565 21a0 01       		.byte	0x1
 3566 21a1 04       		.uleb128 0x4
 3567 21a2 6F735F72 		.ascii "os_running 1\0"
 3567      756E6E69 
 3567      6E672031 
 3567      00
 3568 21af 01       		.byte	0x1
 3569 21b0 05       		.uleb128 0x5
 3570 21b1 6F735F73 		.ascii "os_shutdown 2\0"
 3570      68757464 
 3570      6F776E20 
 3570      3200
 3571 21bf 04       		.byte	0x4
GAS LISTING C:\Users\PRESID~1\AppData\Local\Temp\cczg9UB2.s 			page 105


 3572              		.file 23 "E:/NeuOrga/Programmieren/c_cpp/github_os/input/src/os_base/../os_base/os_task_config.h"
 3573 21c0 03       		.byte	0x3
 3574 21c1 08       		.uleb128 0x8
 3575 21c2 17       		.uleb128 0x17
 3576 21c3 04       		.byte	0x4
 3577              		.file 24 "E:/NeuOrga/Programmieren/c_cpp/github_os/input/src/os_base/../os_base/os_task_common.h"
 3578 21c4 03       		.byte	0x3
 3579 21c5 09       		.uleb128 0x9
 3580 21c6 18       		.uleb128 0x18
 3581 21c7 04       		.byte	0x4
 3582 21c8 04       		.byte	0x4
 3583 21c9 04       		.byte	0x4
 3584              		.file 25 "E:/NeuOrga/Programmieren/c_cpp/github_os/input/src/os_base/os_common.h"
 3585 21ca 03       		.byte	0x3
 3586 21cb 02       		.uleb128 0x2
 3587 21cc 19       		.uleb128 0x19
 3588 21cd 04       		.byte	0x4
 3589              		.file 26 "E:/NeuOrga/Programmieren/c_cpp/github_os/input/src/os_base/os_task_common.h"
 3590 21ce 03       		.byte	0x3
 3591 21cf 03       		.uleb128 0x3
 3592 21d0 1A       		.uleb128 0x1a
 3593 21d1 04       		.byte	0x4
 3594 21d2 03       		.byte	0x3
 3595 21d3 04       		.uleb128 0x4
 3596 21d4 06       		.uleb128 0x6
 3597 21d5 01       		.byte	0x1
 3598 21d6 02       		.uleb128 0x2
 3599 21d7 5F6F735F 		.ascii "_os_task_scheduler_h_ \0"
 3599      7461736B 
 3599      5F736368 
 3599      6564756C 
 3599      65725F68 
 3600 21ee 01       		.byte	0x1
 3601 21ef 07       		.uleb128 0x7
 3602 21f0 5461736B 		.ascii "Task_0_ptr 0\0"
 3602      5F305F70 
 3602      74722030 
 3602      00
 3603 21fd 01       		.byte	0x1
 3604 21fe 08       		.uleb128 0x8
 3605 21ff 5461736B 		.ascii "Task_1_ptr 1\0"
 3605      5F315F70 
 3605      74722031 
 3605      00
 3606 220c 01       		.byte	0x1
 3607 220d 09       		.uleb128 0x9
 3608 220e 5461736B 		.ascii "Task_2_ptr 2\0"
 3608      5F325F70 
 3608      74722032 
 3608      00
 3609 221b 01       		.byte	0x1
 3610 221c 0A       		.uleb128 0xa
 3611 221d 5461736B 		.ascii "Task_3_ptr 3\0"
 3611      5F335F70 
 3611      74722033 
 3611      00
 3612 222a 01       		.byte	0x1
GAS LISTING C:\Users\PRESID~1\AppData\Local\Temp\cczg9UB2.s 			page 106


 3613 222b 0C       		.uleb128 0xc
 3614 222c 4F535F53 		.ascii "OS_SaveTaskPtr(task_ptr,Task_n_ptr) \0"
 3614      61766554 
 3614      61736B50 
 3614      74722874 
 3614      61736B5F 
 3615 2251 04       		.byte	0x4
 3616              		.file 27 "E:/NeuOrga/Programmieren/c_cpp/github_os/input/src/os_base/os_task_queue.h"
 3617 2252 03       		.byte	0x3
 3618 2253 05       		.uleb128 0x5
 3619 2254 1B       		.uleb128 0x1b
 3620 2255 01       		.byte	0x1
 3621 2256 02       		.uleb128 0x2
 3622 2257 5F6F735F 		.ascii "_os_task_queue_h_ \0"
 3622      7461736B 
 3622      5F717565 
 3622      75655F68 
 3622      5F2000
 3623 226a 01       		.byte	0x1
 3624 226b 06       		.uleb128 0x6
 3625 226c 46697273 		.ascii "First_task (0)\0"
 3625      745F7461 
 3625      736B2028 
 3625      302900
 3626 227b 01       		.byte	0x1
 3627 227c 07       		.uleb128 0x7
 3628 227d 4C617374 		.ascii "Last_task (MAX_RUN_QUEUE_SIZE-1)\0"
 3628      5F746173 
 3628      6B20284D 
 3628      41585F52 
 3628      554E5F51 
 3629 229e 01       		.byte	0x1
 3630 229f 09       		.uleb128 0x9
 3631 22a0 466F725F 		.ascii "For_all_tasks_in_queue(var) for((var) = First_task; (var) <= Last_task; (var)++)\0"
 3631      616C6C5F 
 3631      7461736B 
 3631      735F696E 
 3631      5F717565 
 3632 22f1 04       		.byte	0x4
 3633              		.file 28 "E:/NeuOrga/Programmieren/c_cpp/github_os/input/src/os_base/os_stack.h"
 3634 22f2 03       		.byte	0x3
 3635 22f3 06       		.uleb128 0x6
 3636 22f4 1C       		.uleb128 0x1c
 3637 22f5 04       		.byte	0x4
 3638 22f6 01       		.byte	0x1
 3639 22f7 1E       		.uleb128 0x1e
 3640 22f8 53595354 		.ascii "SYSTICK_CTRL_STAT_REG ((uint32*)0xE000E010)\0"
 3640      49434B5F 
 3640      4354524C 
 3640      5F535441 
 3640      545F5245 
 3641 2324 01       		.byte	0x1
 3642 2325 1F       		.uleb128 0x1f
 3643 2326 53595354 		.ascii "SYSTICK_RLD_VAL_REG ((uint32*)0xE000E014)\0"
 3643      49434B5F 
 3643      524C445F 
 3643      56414C5F 
GAS LISTING C:\Users\PRESID~1\AppData\Local\Temp\cczg9UB2.s 			page 107


 3643      52454720 
 3644 2350 01       		.byte	0x1
 3645 2351 20       		.uleb128 0x20
 3646 2352 53595354 		.ascii "SYSTICK_CURRENT_VAL_REG ((uint32*)0xE000E018)\0"
 3646      49434B5F 
 3646      43555252 
 3646      454E545F 
 3646      56414C5F 
 3647 2380 01       		.byte	0x1
 3648 2381 21       		.uleb128 0x21
 3649 2382 53595354 		.ascii "SYSTICK_STAT_REG_TICKINT ((uint32)0x00000002)\0"
 3649      49434B5F 
 3649      53544154 
 3649      5F524547 
 3649      5F544943 
 3650 23b0 01       		.byte	0x1
 3651 23b1 22       		.uleb128 0x22
 3652 23b2 53595354 		.ascii "SYSTICK_STAT_REG_ENABLE ((uint32)0x00000001)\0"
 3652      49434B5F 
 3652      53544154 
 3652      5F524547 
 3652      5F454E41 
 3653 23df 01       		.byte	0x1
 3654 23e0 23       		.uleb128 0x23
 3655 23e1 4C4F4F50 		.ascii "LOOPTIME_IN_USEC ((uint32)10000u)\0"
 3655      54494D45 
 3655      5F494E5F 
 3655      55534543 
 3655      20282875 
 3656 2403 04       		.byte	0x4
 3657 2404 00       		.byte	0
 3658              		.section	.debug_line,"dr"
 3659              	Ldebug_line0:
 3660 0000 F2040000 		.section	.debug_str,"dr"
 3660      02004A03 
 3660      00000101 
 3660      FB0E0D00 
 3660      01010101 
 3661              	LASF3:
 3662 0000 7461736B 		.ascii "task_ptr\0"
 3662      5F707472 
 3662      00
 3663              	LASF0:
 3664 0009 6578655F 		.ascii "exe_time\0"
 3664      74696D65 
 3664      00
 3665              	LASF2:
 3666 0012 73636865 		.ascii "scheduling_task\0"
 3666      64756C69 
 3666      6E675F74 
 3666      61736B00 
 3667              	LASF1:
 3668 0022 7461736B 		.ascii "task\0"
 3668      00
 3669              		.ident	"GCC: (GNU) 4.9.3"
GAS LISTING C:\Users\PRESID~1\AppData\Local\Temp\cczg9UB2.s 			page 108


DEFINED SYMBOLS
                            *ABS*:00000000 os_task_scheduler.c
C:\Users\PRESID~1\AppData\Local\Temp\cczg9UB2.s:6      .text:00000000 _OS_ActivateDispatcher
C:\Users\PRESID~1\AppData\Local\Temp\cczg9UB2.s:25     .text:00000005 _OS_SleepTask
C:\Users\PRESID~1\AppData\Local\Temp\cczg9UB2.s:51     .text:0000001f _task_state_request
C:\Users\PRESID~1\AppData\Local\Temp\cczg9UB2.s:207    .text:0000012b _OS_CreateTask
C:\Users\PRESID~1\AppData\Local\Temp\cczg9UB2.s:260    .text:0000019d _OS_PreemptTask
C:\Users\PRESID~1\AppData\Local\Temp\cczg9UB2.s:349    .text:0000026b _OS_ActivateTask
C:\Users\PRESID~1\AppData\Local\Temp\cczg9UB2.s:434    .text:00000316 _OS_StartTask
C:\Users\PRESID~1\AppData\Local\Temp\cczg9UB2.s:547    .text:0000041e _OS_TerminateTask
C:\Users\PRESID~1\AppData\Local\Temp\cczg9UB2.s:636    .text:000004ec _OS_TaskDispatcher
C:\Users\PRESID~1\AppData\Local\Temp\cczg9UB2.s:700    .text:00000563 _TASK_0
C:\Users\PRESID~1\AppData\Local\Temp\cczg9UB2.s:717    .text:00000568 _TASK_1
C:\Users\PRESID~1\AppData\Local\Temp\cczg9UB2.s:744    .text:0000058e _TASK_2
C:\Users\PRESID~1\AppData\Local\Temp\cczg9UB2.s:765    .text:0000059e _TASK_3
C:\Users\PRESID~1\AppData\Local\Temp\cczg9UB2.s:787    .text:000005ae _OS_InitTasks
C:\Users\PRESID~1\AppData\Local\Temp\cczg9UB2.s:872    .text:00000734 _OS_TaskScheduler

UNDEFINED SYMBOLS
_OS_STACK
_TASK1_CALL_NR
_TASK2_CALL_NR
_TASK3_CALL_NR
_LAST_CURRENT_TIME
_TASK_0_VAR
_TASK_STACK
_TASK_GROUP_1
_TASK_1_VAR
_TASK_2_VAR
_TASK_GROUP_2
_TASK_3_VAR
_TASK_GROUP_3
_OS_GetCurrentTime
_OS_SetSwBug
_OS_TaskSaveTaskEnvironment
_OS_GetCoreId
_OS_TASK_RESTORE_SYSTEM_STACK
_DeleteFromTaskQueue
_DeleteFromSchedulingQueue
_AddToTaskQueue
_AddToSchedulingQueue
_AddToIdleTaskQueue
_OS_TASK_SAVE_SYSTEM_STACK
_OS_TASK_RESTORETASK_ENVIRONMENT
_SET_RUNNING_TASK
_LLF_CHANGE_TO_UNPRIVILIGED_THREAD_MODE
_GetRunningTask
_GetRunningSchedulingQueueElementPtr
_GetFromTaskQueue
_OS_InitTaskQueue
_OS_InitTask
_GetFromSchedulingQueue
