GAS LISTING C:\Users\PRESID~1\AppData\Local\Temp\cc7fVbmG.s 			page 1


   1              		.file	"os_task_common.c"
   2              		.text
   3              	Ltext0:
   4              		.comm	_TASK_PTR, 40, 5
   5              		.globl	_OS_TaskSaveTaskEnvironment
   7              	_OS_TaskSaveTaskEnvironment:
   8              	LFB0:
   9              		.file 1 "E:/NeuOrga/Programmieren/c_cpp/github_os/input/src/os_base/os_task_common.c"
   1:E:/NeuOrga/Programmieren/c_cpp/github_os/input/src/os_base\os_task_common.c **** #include "os_firstinc.h"
   2:E:/NeuOrga/Programmieren/c_cpp/github_os/input/src/os_base\os_task_common.c **** #include "os_task_common.h"
   3:E:/NeuOrga/Programmieren/c_cpp/github_os/input/src/os_base\os_task_common.c **** #include "os_task_scheduler.h"
   4:E:/NeuOrga/Programmieren/c_cpp/github_os/input/src/os_base\os_task_common.c **** #include "os_heap.h"
   5:E:/NeuOrga/Programmieren/c_cpp/github_os/input/src/os_base\os_task_common.c **** 
   6:E:/NeuOrga/Programmieren/c_cpp/github_os/input/src/os_base\os_task_common.c **** /* Create and delete the task environment is not supported,
   7:E:/NeuOrga/Programmieren/c_cpp/github_os/input/src/os_base\os_task_common.c ****    because we do not allow dynamic RAM allocation for task environment.
   8:E:/NeuOrga/Programmieren/c_cpp/github_os/input/src/os_base\os_task_common.c **** 
   9:E:/NeuOrga/Programmieren/c_cpp/github_os/input/src/os_base\os_task_common.c **** 
  10:E:/NeuOrga/Programmieren/c_cpp/github_os/input/src/os_base\os_task_common.c **** */
  11:E:/NeuOrga/Programmieren/c_cpp/github_os/input/src/os_base\os_task_common.c **** 
  12:E:/NeuOrga/Programmieren/c_cpp/github_os/input/src/os_base\os_task_common.c **** 
  13:E:/NeuOrga/Programmieren/c_cpp/github_os/input/src/os_base\os_task_common.c **** task_t* TASK_PTR[MAX_RUN_QUEUE_SIZE];
  14:E:/NeuOrga/Programmieren/c_cpp/github_os/input/src/os_base\os_task_common.c **** 
  15:E:/NeuOrga/Programmieren/c_cpp/github_os/input/src/os_base\os_task_common.c **** void OS_TaskSaveTaskEnvironment(task_t* task)
  16:E:/NeuOrga/Programmieren/c_cpp/github_os/input/src/os_base\os_task_common.c **** {
  10              		.loc 1 16 0
  11              		.cfi_startproc
  12 0000 55       		pushl	%ebp
  13              		.cfi_def_cfa_offset 8
  14              		.cfi_offset 5, -8
  15 0001 89E5     		movl	%esp, %ebp
  16              		.cfi_def_cfa_register 5
  17 0003 53       		pushl	%ebx
  18 0004 83EC14   		subl	$20, %esp
  19              		.cfi_offset 3, -12
  17:E:/NeuOrga/Programmieren/c_cpp/github_os/input/src/os_base\os_task_common.c ****    if(task != 0)
  20              		.loc 1 17 0
  21 0007 837D0800 		cmpl	$0, 8(%ebp)
  22 000b 744B     		je	L2
  18:E:/NeuOrga/Programmieren/c_cpp/github_os/input/src/os_base\os_task_common.c ****    {
  19:E:/NeuOrga/Programmieren/c_cpp/github_os/input/src/os_base\os_task_common.c ****       /*
  20:E:/NeuOrga/Programmieren/c_cpp/github_os/input/src/os_base\os_task_common.c ****       http://www.ibiblio.org/gferg/ldp/GCC-Inline-Assembly-HOWTO.html#s2
  21:E:/NeuOrga/Programmieren/c_cpp/github_os/input/src/os_base\os_task_common.c ****       x86: mov ... esp
  22:E:/NeuOrga/Programmieren/c_cpp/github_os/input/src/os_base\os_task_common.c ****       */
  23:E:/NeuOrga/Programmieren/c_cpp/github_os/input/src/os_base\os_task_common.c ****       LLF_SAVE_TASK_STACK(task->pStackPointer);
  23              		.loc 1 23 0
  24 000d 8B4508   		movl	8(%ebp), %eax
  25 0010 8B809400 		movl	148(%eax), %eax
  25      0000
  26 0016 890424   		movl	%eax, (%esp)
  27 0019 E8000000 		call	_LLF_SAVE_TASK_STACK
  27      00
  24:E:/NeuOrga/Programmieren/c_cpp/github_os/input/src/os_base\os_task_common.c ****    #if(CFG_PROCESSOR == cMCU_X86)
  25:E:/NeuOrga/Programmieren/c_cpp/github_os/input/src/os_base\os_task_common.c ****       LLF_SAVE_REGISTERS(task->EAX,task->EBX,task->ECX,task->EDX);
  28              		.loc 1 25 0
  29 001e 8B4508   		movl	8(%ebp), %eax
  30 0021 8B989000 		movl	144(%eax), %ebx
  30      0000
GAS LISTING C:\Users\PRESID~1\AppData\Local\Temp\cc7fVbmG.s 			page 2


  31 0027 8B4508   		movl	8(%ebp), %eax
  32 002a 8B888C00 		movl	140(%eax), %ecx
  32      0000
  33 0030 8B4508   		movl	8(%ebp), %eax
  34 0033 8B908800 		movl	136(%eax), %edx
  34      0000
  35 0039 8B4508   		movl	8(%ebp), %eax
  36 003c 8B808400 		movl	132(%eax), %eax
  36      0000
  37 0042 895C240C 		movl	%ebx, 12(%esp)
  38 0046 894C2408 		movl	%ecx, 8(%esp)
  39 004a 89542404 		movl	%edx, 4(%esp)
  40 004e 890424   		movl	%eax, (%esp)
  41 0051 E8000000 		call	_LLF_SAVE_REGISTERS
  41      00
  42 0056 EB14     		jmp	L3
  43              	L2:
  26:E:/NeuOrga/Programmieren/c_cpp/github_os/input/src/os_base\os_task_common.c ****    #else
  27:E:/NeuOrga/Programmieren/c_cpp/github_os/input/src/os_base\os_task_common.c ****       LLF_SAVE_REGISTERS(task->r0,task->r1,task->r2,task->r3);
  28:E:/NeuOrga/Programmieren/c_cpp/github_os/input/src/os_base\os_task_common.c ****    #endif
  29:E:/NeuOrga/Programmieren/c_cpp/github_os/input/src/os_base\os_task_common.c ****    }
  30:E:/NeuOrga/Programmieren/c_cpp/github_os/input/src/os_base\os_task_common.c ****    else
  31:E:/NeuOrga/Programmieren/c_cpp/github_os/input/src/os_base\os_task_common.c ****    {
  32:E:/NeuOrga/Programmieren/c_cpp/github_os/input/src/os_base\os_task_common.c ****       OS_SetSwBug(os_bug_null_pointer,Func_SaveTaskEnvironment);
  44              		.loc 1 32 0
  45 0058 C7442404 		movl	$1, 4(%esp)
  45      01000000 
  46 0060 C7042402 		movl	$2, (%esp)
  46      000000
  47 0067 E8000000 		call	_OS_SetSwBug
  47      00
  48              	L3:
  33:E:/NeuOrga/Programmieren/c_cpp/github_os/input/src/os_base\os_task_common.c ****    }
  34:E:/NeuOrga/Programmieren/c_cpp/github_os/input/src/os_base\os_task_common.c ****    return;
  49              		.loc 1 34 0
  50 006c 90       		nop
  35:E:/NeuOrga/Programmieren/c_cpp/github_os/input/src/os_base\os_task_common.c **** }
  51              		.loc 1 35 0
  52 006d 83C414   		addl	$20, %esp
  53 0070 5B       		popl	%ebx
  54              		.cfi_restore 3
  55 0071 5D       		popl	%ebp
  56              		.cfi_restore 5
  57              		.cfi_def_cfa 4, 4
  58 0072 C3       		ret
  59              		.cfi_endproc
  60              	LFE0:
  61              		.globl	_OS_TASK_RESTORETASK_ENVIRONMENT
  63              	_OS_TASK_RESTORETASK_ENVIRONMENT:
  64              	LFB1:
  36:E:/NeuOrga/Programmieren/c_cpp/github_os/input/src/os_base\os_task_common.c **** 
  37:E:/NeuOrga/Programmieren/c_cpp/github_os/input/src/os_base\os_task_common.c **** void OS_TASK_RESTORETASK_ENVIRONMENT(task_t* task)
  38:E:/NeuOrga/Programmieren/c_cpp/github_os/input/src/os_base\os_task_common.c **** {
  65              		.loc 1 38 0
  66              		.cfi_startproc
  67 0073 55       		pushl	%ebp
  68              		.cfi_def_cfa_offset 8
GAS LISTING C:\Users\PRESID~1\AppData\Local\Temp\cc7fVbmG.s 			page 3


  69              		.cfi_offset 5, -8
  70 0074 89E5     		movl	%esp, %ebp
  71              		.cfi_def_cfa_register 5
  72 0076 83EC18   		subl	$24, %esp
  39:E:/NeuOrga/Programmieren/c_cpp/github_os/input/src/os_base\os_task_common.c ****    if(task!=0)
  73              		.loc 1 39 0
  74 0079 837D0800 		cmpl	$0, 8(%ebp)
  75 007d 741E     		je	L6
  40:E:/NeuOrga/Programmieren/c_cpp/github_os/input/src/os_base\os_task_common.c ****    {
  41:E:/NeuOrga/Programmieren/c_cpp/github_os/input/src/os_base\os_task_common.c ****       LLF_RESTORE_TASK_STACK(task->pStackPointer);
  76              		.loc 1 41 0
  77 007f 8B4508   		movl	8(%ebp), %eax
  78 0082 8B809400 		movl	148(%eax), %eax
  78      0000
  79 0088 890424   		movl	%eax, (%esp)
  80 008b E8000000 		call	_LLF_RESTORE_TASK_STACK
  80      00
  42:E:/NeuOrga/Programmieren/c_cpp/github_os/input/src/os_base\os_task_common.c ****       LLF_RESTORE_REGISTERS(task);
  81              		.loc 1 42 0
  82 0090 8B4508   		movl	8(%ebp), %eax
  83 0093 890424   		movl	%eax, (%esp)
  84 0096 E8000000 		call	_LLF_RESTORE_REGISTERS
  84      00
  85 009b EB14     		jmp	L5
  86              	L6:
  43:E:/NeuOrga/Programmieren/c_cpp/github_os/input/src/os_base\os_task_common.c ****    }
  44:E:/NeuOrga/Programmieren/c_cpp/github_os/input/src/os_base\os_task_common.c ****    else
  45:E:/NeuOrga/Programmieren/c_cpp/github_os/input/src/os_base\os_task_common.c ****    {
  46:E:/NeuOrga/Programmieren/c_cpp/github_os/input/src/os_base\os_task_common.c ****       OS_SetSwBug(os_bug_null_pointer,Func_RestoreTaskEnvironment);
  87              		.loc 1 46 0
  88 009d C7442404 		movl	$2, 4(%esp)
  88      02000000 
  89 00a5 C7042402 		movl	$2, (%esp)
  89      000000
  90 00ac E8000000 		call	_OS_SetSwBug
  90      00
  91              	L5:
  47:E:/NeuOrga/Programmieren/c_cpp/github_os/input/src/os_base\os_task_common.c ****    }
  48:E:/NeuOrga/Programmieren/c_cpp/github_os/input/src/os_base\os_task_common.c **** }
  92              		.loc 1 48 0
  93 00b1 C9       		leave
  94              		.cfi_restore 5
  95              		.cfi_def_cfa 4, 4
  96 00b2 C3       		ret
  97              		.cfi_endproc
  98              	LFE1:
  99              		.globl	_OS_TASK_RESTORE_SYSTEM_STACK
 101              	_OS_TASK_RESTORE_SYSTEM_STACK:
 102              	LFB2:
  49:E:/NeuOrga/Programmieren/c_cpp/github_os/input/src/os_base\os_task_common.c **** void OS_TASK_RESTORE_SYSTEM_STACK(uint8* system_stack_ptr)
  50:E:/NeuOrga/Programmieren/c_cpp/github_os/input/src/os_base\os_task_common.c **** {
 103              		.loc 1 50 0
 104              		.cfi_startproc
 105 00b3 55       		pushl	%ebp
 106              		.cfi_def_cfa_offset 8
 107              		.cfi_offset 5, -8
 108 00b4 89E5     		movl	%esp, %ebp
GAS LISTING C:\Users\PRESID~1\AppData\Local\Temp\cc7fVbmG.s 			page 4


 109              		.cfi_def_cfa_register 5
 110 00b6 83EC18   		subl	$24, %esp
  51:E:/NeuOrga/Programmieren/c_cpp/github_os/input/src/os_base\os_task_common.c ****    LLF_RESTORE_SYSTEM_STACK(system_stack_ptr);
 111              		.loc 1 51 0
 112 00b9 8B4508   		movl	8(%ebp), %eax
 113 00bc 890424   		movl	%eax, (%esp)
 114 00bf E8000000 		call	_LLF_RESTORE_SYSTEM_STACK
 114      00
  52:E:/NeuOrga/Programmieren/c_cpp/github_os/input/src/os_base\os_task_common.c **** }
 115              		.loc 1 52 0
 116 00c4 C9       		leave
 117              		.cfi_restore 5
 118              		.cfi_def_cfa 4, 4
 119 00c5 C3       		ret
 120              		.cfi_endproc
 121              	LFE2:
 122              		.globl	_OS_TASK_SAVE_SYSTEM_STACK
 124              	_OS_TASK_SAVE_SYSTEM_STACK:
 125              	LFB3:
  53:E:/NeuOrga/Programmieren/c_cpp/github_os/input/src/os_base\os_task_common.c **** void OS_TASK_SAVE_SYSTEM_STACK(uint8* system_stack_ptr)
  54:E:/NeuOrga/Programmieren/c_cpp/github_os/input/src/os_base\os_task_common.c **** {
 126              		.loc 1 54 0
 127              		.cfi_startproc
 128 00c6 55       		pushl	%ebp
 129              		.cfi_def_cfa_offset 8
 130              		.cfi_offset 5, -8
 131 00c7 89E5     		movl	%esp, %ebp
 132              		.cfi_def_cfa_register 5
 133 00c9 83EC18   		subl	$24, %esp
  55:E:/NeuOrga/Programmieren/c_cpp/github_os/input/src/os_base\os_task_common.c ****    LLF_SAVE_SYSTEM_STACK(system_stack_ptr);
 134              		.loc 1 55 0
 135 00cc 8B4508   		movl	8(%ebp), %eax
 136 00cf 890424   		movl	%eax, (%esp)
 137 00d2 E8000000 		call	_LLF_SAVE_SYSTEM_STACK
 137      00
  56:E:/NeuOrga/Programmieren/c_cpp/github_os/input/src/os_base\os_task_common.c **** }
 138              		.loc 1 56 0
 139 00d7 C9       		leave
 140              		.cfi_restore 5
 141              		.cfi_def_cfa 4, 4
 142 00d8 C3       		ret
 143              		.cfi_endproc
 144              	LFE3:
 145              		.globl	_OS_Task_InitTaskEnvironment
 147              	_OS_Task_InitTaskEnvironment:
 148              	LFB4:
  57:E:/NeuOrga/Programmieren/c_cpp/github_os/input/src/os_base\os_task_common.c **** void OS_Task_InitTaskEnvironment(task_t* task)
  58:E:/NeuOrga/Programmieren/c_cpp/github_os/input/src/os_base\os_task_common.c **** {
 149              		.loc 1 58 0
 150              		.cfi_startproc
 151 00d9 55       		pushl	%ebp
 152              		.cfi_def_cfa_offset 8
 153              		.cfi_offset 5, -8
 154 00da 89E5     		movl	%esp, %ebp
 155              		.cfi_def_cfa_register 5
 156 00dc 83EC18   		subl	$24, %esp
  59:E:/NeuOrga/Programmieren/c_cpp/github_os/input/src/os_base\os_task_common.c ****    if(task != 0)
GAS LISTING C:\Users\PRESID~1\AppData\Local\Temp\cc7fVbmG.s 			page 5


 157              		.loc 1 59 0
 158 00df 837D0800 		cmpl	$0, 8(%ebp)
 159 00e3 0F84EE00 		je	L11
 159      0000
  60:E:/NeuOrga/Programmieren/c_cpp/github_os/input/src/os_base\os_task_common.c ****    {
  61:E:/NeuOrga/Programmieren/c_cpp/github_os/input/src/os_base\os_task_common.c ****       /* general*/
  62:E:/NeuOrga/Programmieren/c_cpp/github_os/input/src/os_base\os_task_common.c ****       task->active                = False;
 160              		.loc 1 62 0
 161 00e9 8B4508   		movl	8(%ebp), %eax
 162 00ec 8A10     		movb	(%eax), %dl
 163 00ee 83E2FE   		andl	$-2, %edx
 164 00f1 8810     		movb	%dl, (%eax)
  63:E:/NeuOrga/Programmieren/c_cpp/github_os/input/src/os_base\os_task_common.c ****       /* general purpose registers */
  64:E:/NeuOrga/Programmieren/c_cpp/github_os/input/src/os_base\os_task_common.c ****    #if(CFG_PROCESSOR == cMCU_X86)
  65:E:/NeuOrga/Programmieren/c_cpp/github_os/input/src/os_base\os_task_common.c ****       task->EAX                             = (unsigned_int32_t)       0;
 165              		.loc 1 65 0
 166 00f3 8B4508   		movl	8(%ebp), %eax
 167 00f6 C7808400 		movl	$0, 132(%eax)
 167      00000000 
 167      0000
  66:E:/NeuOrga/Programmieren/c_cpp/github_os/input/src/os_base\os_task_common.c ****       task->EBX                             = (unsigned_int32_t)       0;
 168              		.loc 1 66 0
 169 0100 8B4508   		movl	8(%ebp), %eax
 170 0103 C7808800 		movl	$0, 136(%eax)
 170      00000000 
 170      0000
  67:E:/NeuOrga/Programmieren/c_cpp/github_os/input/src/os_base\os_task_common.c ****       task->ECX                             = (unsigned_int32_t)       0;
 171              		.loc 1 67 0
 172 010d 8B4508   		movl	8(%ebp), %eax
 173 0110 C7808C00 		movl	$0, 140(%eax)
 173      00000000 
 173      0000
  68:E:/NeuOrga/Programmieren/c_cpp/github_os/input/src/os_base\os_task_common.c ****       task->EDX                             = (unsigned_int32_t)       0;
 174              		.loc 1 68 0
 175 011a 8B4508   		movl	8(%ebp), %eax
 176 011d C7809000 		movl	$0, 144(%eax)
 176      00000000 
 176      0000
  69:E:/NeuOrga/Programmieren/c_cpp/github_os/input/src/os_base\os_task_common.c ****    #else
  70:E:/NeuOrga/Programmieren/c_cpp/github_os/input/src/os_base\os_task_common.c ****       task->r0                             = (unsigned_int32_t)       0;
  71:E:/NeuOrga/Programmieren/c_cpp/github_os/input/src/os_base\os_task_common.c ****       task->r1                             = (unsigned_int32_t)       0;
  72:E:/NeuOrga/Programmieren/c_cpp/github_os/input/src/os_base\os_task_common.c ****       task->r2                             = (unsigned_int32_t)       0;
  73:E:/NeuOrga/Programmieren/c_cpp/github_os/input/src/os_base\os_task_common.c ****       task->r3                             = (unsigned_int32_t)       0;
  74:E:/NeuOrga/Programmieren/c_cpp/github_os/input/src/os_base\os_task_common.c ****       task->r4                             = (unsigned_int32_t)       0;
  75:E:/NeuOrga/Programmieren/c_cpp/github_os/input/src/os_base\os_task_common.c ****       task->r5                             = (unsigned_int32_t)       0;
  76:E:/NeuOrga/Programmieren/c_cpp/github_os/input/src/os_base\os_task_common.c ****       task->r6                             = (unsigned_int32_t)       0;
  77:E:/NeuOrga/Programmieren/c_cpp/github_os/input/src/os_base\os_task_common.c ****       task->r7                             = (unsigned_int32_t)       0;
  78:E:/NeuOrga/Programmieren/c_cpp/github_os/input/src/os_base\os_task_common.c ****       task->r8                             = (unsigned_int32_t)       0;
  79:E:/NeuOrga/Programmieren/c_cpp/github_os/input/src/os_base\os_task_common.c ****       task->r9                             = (unsigned_int32_t)       0;
  80:E:/NeuOrga/Programmieren/c_cpp/github_os/input/src/os_base\os_task_common.c ****       task->r10                             = (unsigned_int32_t)       0;
  81:E:/NeuOrga/Programmieren/c_cpp/github_os/input/src/os_base\os_task_common.c ****       task->r11                             = (unsigned_int32_t)       0;
  82:E:/NeuOrga/Programmieren/c_cpp/github_os/input/src/os_base\os_task_common.c ****       task->r12                             = (unsigned_int32_t)       0;
  83:E:/NeuOrga/Programmieren/c_cpp/github_os/input/src/os_base\os_task_common.c ****    #endif
  84:E:/NeuOrga/Programmieren/c_cpp/github_os/input/src/os_base\os_task_common.c ****       /* task scheduling */
  85:E:/NeuOrga/Programmieren/c_cpp/github_os/input/src/os_base\os_task_common.c ****       AssignNull(&task->WaitActUntil);
 177              		.loc 1 85 0
 178 0127 8B4508   		movl	8(%ebp), %eax
GAS LISTING C:\Users\PRESID~1\AppData\Local\Temp\cc7fVbmG.s 			page 6


 179 012a 83C006   		addl	$6, %eax
 180 012d 890424   		movl	%eax, (%esp)
 181 0130 E8000000 		call	_AssignNull
 181      00
  86:E:/NeuOrga/Programmieren/c_cpp/github_os/input/src/os_base\os_task_common.c ****       AssignNull(&task->wait_time);
 182              		.loc 1 86 0
 183 0135 8B4508   		movl	8(%ebp), %eax
 184 0138 83C016   		addl	$22, %eax
 185 013b 890424   		movl	%eax, (%esp)
 186 013e E8000000 		call	_AssignNull
 186      00
  87:E:/NeuOrga/Programmieren/c_cpp/github_os/input/src/os_base\os_task_common.c ****       AssignUint32(&task->TimeToPrioInc, 5u);
 187              		.loc 1 87 0
 188 0143 8B4508   		movl	8(%ebp), %eax
 189 0146 83C026   		addl	$38, %eax
 190 0149 C7442404 		movl	$5, 4(%esp)
 190      05000000 
 191 0151 890424   		movl	%eax, (%esp)
 192 0154 E8000000 		call	_AssignUint32
 192      00
  88:E:/NeuOrga/Programmieren/c_cpp/github_os/input/src/os_base\os_task_common.c ****       task->overwaittime_per_prio_inc_step   = (unsigned_int32_t)        1u;/* has to be >=1 */
 193              		.loc 1 88 0
 194 0159 8B4508   		movl	8(%ebp), %eax
 195 015c C7403801 		movl	$1, 56(%eax)
 195      000000
  89:E:/NeuOrga/Programmieren/c_cpp/github_os/input/src/os_base\os_task_common.c ****       AssignUint32(&task->max_allowed_wait_time,         100000u);
 196              		.loc 1 89 0
 197 0163 8B4508   		movl	8(%ebp), %eax
 198 0166 83C03C   		addl	$60, %eax
 199 0169 C7442404 		movl	$100000, 4(%esp)
 199      A0860100 
 200 0171 890424   		movl	%eax, (%esp)
 201 0174 E8000000 		call	_AssignUint32
 201      00
  90:E:/NeuOrga/Programmieren/c_cpp/github_os/input/src/os_base\os_task_common.c ****       AssignNull(&task->exe_time);
 202              		.loc 1 90 0
 203 0179 8B4508   		movl	8(%ebp), %eax
 204 017c 83C04C   		addl	$76, %eax
 205 017f 890424   		movl	%eax, (%esp)
 206 0182 E8000000 		call	_AssignNull
 206      00
  91:E:/NeuOrga/Programmieren/c_cpp/github_os/input/src/os_base\os_task_common.c ****       task->current_prio                     = (unsigned_char_t)         0;
 207              		.loc 1 91 0
 208 0187 8B4508   		movl	8(%ebp), %eax
 209 018a C6406C00 		movb	$0, 108(%eax)
  92:E:/NeuOrga/Programmieren/c_cpp/github_os/input/src/os_base\os_task_common.c ****       task->default_prio                     = (unsigned_char_t)         0;/* the default prio for 
 210              		.loc 1 92 0
 211 018e 8B4508   		movl	8(%ebp), %eax
 212 0191 C6406D00 		movb	$0, 109(%eax)
  93:E:/NeuOrga/Programmieren/c_cpp/github_os/input/src/os_base\os_task_common.c **** 
  94:E:/NeuOrga/Programmieren/c_cpp/github_os/input/src/os_base\os_task_common.c ****       /* task management */
  95:E:/NeuOrga/Programmieren/c_cpp/github_os/input/src/os_base\os_task_common.c ****       task->state_request                    =                           &task_state_request;
 213              		.loc 1 95 0
 214 0195 8B4508   		movl	8(%ebp), %eax
 215 0198 C7407800 		movl	$_task_state_request, 120(%eax)
 215      000000
  96:E:/NeuOrga/Programmieren/c_cpp/github_os/input/src/os_base\os_task_common.c ****       task->task_state                       =                           Task_unspecified;
GAS LISTING C:\Users\PRESID~1\AppData\Local\Temp\cc7fVbmG.s 			page 7


 216              		.loc 1 96 0
 217 019f 8B4508   		movl	8(%ebp), %eax
 218 01a2 C7407C00 		movl	$0, 124(%eax)
 218      000000
  97:E:/NeuOrga/Programmieren/c_cpp/github_os/input/src/os_base\os_task_common.c ****       task->task_queued                      =                           False;
 219              		.loc 1 97 0
 220 01a9 8B4508   		movl	8(%ebp), %eax
 221 01ac 8A10     		movb	(%eax), %dl
 222 01ae 83E2FD   		andl	$-3, %edx
 223 01b1 8810     		movb	%dl, (%eax)
  98:E:/NeuOrga/Programmieren/c_cpp/github_os/input/src/os_base\os_task_common.c ****       task->FREE                             =                           0;
 224              		.loc 1 98 0
 225 01b3 8B4508   		movl	8(%ebp), %eax
 226 01b6 8B10     		movl	(%eax), %edx
 227 01b8 83E207   		andl	$7, %edx
 228 01bb 8910     		movl	%edx, (%eax)
  99:E:/NeuOrga/Programmieren/c_cpp/github_os/input/src/os_base\os_task_common.c ****       task->NrOfInsAllowed                   = (unsigned_char_t)         0;
 229              		.loc 1 99 0
 230 01bd 8B4508   		movl	8(%ebp), %eax
 231 01c0 C6400400 		movb	$0, 4(%eax)
 100:E:/NeuOrga/Programmieren/c_cpp/github_os/input/src/os_base\os_task_common.c ****       task->NrOfInsActivated                 = (unsigned_char_t)         0;
 232              		.loc 1 100 0
 233 01c4 8B4508   		movl	8(%ebp), %eax
 234 01c7 C6400500 		movb	$0, 5(%eax)
 101:E:/NeuOrga/Programmieren/c_cpp/github_os/input/src/os_base\os_task_common.c ****       task->fp                               = (func_p_t)                0;
 235              		.loc 1 101 0
 236 01cb 8B4508   		movl	8(%ebp), %eax
 237 01ce C7407400 		movl	$0, 116(%eax)
 237      000000
 238 01d5 EB14     		jmp	L10
 239              	L11:
 102:E:/NeuOrga/Programmieren/c_cpp/github_os/input/src/os_base\os_task_common.c **** 
 103:E:/NeuOrga/Programmieren/c_cpp/github_os/input/src/os_base\os_task_common.c ****    }
 104:E:/NeuOrga/Programmieren/c_cpp/github_os/input/src/os_base\os_task_common.c ****    else
 105:E:/NeuOrga/Programmieren/c_cpp/github_os/input/src/os_base\os_task_common.c ****    {
 106:E:/NeuOrga/Programmieren/c_cpp/github_os/input/src/os_base\os_task_common.c ****       OS_SetSwBug(os_bug_null_pointer,Func_InitTaskEnvironment);
 240              		.loc 1 106 0
 241 01d7 C7442404 		movl	$5, 4(%esp)
 241      05000000 
 242 01df C7042402 		movl	$2, (%esp)
 242      000000
 243 01e6 E8000000 		call	_OS_SetSwBug
 243      00
 244              	L10:
 107:E:/NeuOrga/Programmieren/c_cpp/github_os/input/src/os_base\os_task_common.c ****    }
 108:E:/NeuOrga/Programmieren/c_cpp/github_os/input/src/os_base\os_task_common.c **** }
 245              		.loc 1 108 0
 246 01eb C9       		leave
 247              		.cfi_restore 5
 248              		.cfi_def_cfa 4, 4
 249 01ec C3       		ret
 250              		.cfi_endproc
 251              	LFE4:
 252              	Letext0:
 253              		.file 2 "E:/NeuOrga/Programmieren/c_cpp/github_os/input/src/os_base/../os_base/os_base_types.h"
 254              		.file 3 "E:/NeuOrga/Programmieren/c_cpp/github_os/input/src/os_base/../os_base/os_common.h"
 255              		.file 4 "E:/NeuOrga/Programmieren/c_cpp/github_os/input/src/os_base/../os_sim/lld_core.h"
GAS LISTING C:\Users\PRESID~1\AppData\Local\Temp\cc7fVbmG.s 			page 8


 256              		.file 5 "E:/NeuOrga/Programmieren/c_cpp/github_os/input/src/os_base/../os_sim/../os_base/os_task_c
 257 01ed 909090   		.section	.debug_info,"dr"
 258              	Ldebug_info0:
 259 0000 6D0A0000 		.long	0xa6d
 260 0004 0400     		.word	0x4
 261 0006 00000000 		.secrel32	Ldebug_abbrev0
 262 000a 04       		.byte	0x4
 263 000b 01       		.uleb128 0x1
 264 000c 474E5520 		.ascii "GNU C 4.9.3 -march=i386 -g3 -O0 -std=c90\0"
 264      4320342E 
 264      392E3320 
 264      2D6D6172 
 264      63683D69 
 265 0035 01       		.byte	0x1
 266 0036 453A5C4E 		.ascii "E:\\NeuOrga\\Programmieren\\c_cpp\\github_os\\input\\src\\os_base\\os_task_common.c\0"
 266      65754F72 
 266      67615C50 
 266      726F6772 
 266      616D6D69 
 267 0082 00000000 		.long	Ltext0
 268 0086 ED010000 		.long	Letext0-Ltext0
 269 008a 00000000 		.secrel32	Ldebug_line0
 270 008e 00000000 		.secrel32	Ldebug_macro0
 271 0092 02       		.uleb128 0x2
 272 0093 756E7369 		.ascii "unsigned_char_t\0"
 272      676E6564 
 272      5F636861 
 272      725F7400 
 273 00a3 02       		.byte	0x2
 274 00a4 1D       		.byte	0x1d
 275 00a5 A9000000 		.long	0xa9
 276 00a9 03       		.uleb128 0x3
 277 00aa 01       		.byte	0x1
 278 00ab 08       		.byte	0x8
 279 00ac 756E7369 		.ascii "unsigned char\0"
 279      676E6564 
 279      20636861 
 279      7200
 280 00ba 03       		.uleb128 0x3
 281 00bb 01       		.byte	0x1
 282 00bc 06       		.byte	0x6
 283 00bd 7369676E 		.ascii "signed char\0"
 283      65642063 
 283      68617200 
 284 00c9 02       		.uleb128 0x2
 285 00ca 75696E74 		.ascii "uint8\0"
 285      3800
 286 00d0 02       		.byte	0x2
 287 00d1 21       		.byte	0x21
 288 00d2 A9000000 		.long	0xa9
 289 00d6 03       		.uleb128 0x3
 290 00d7 02       		.byte	0x2
 291 00d8 07       		.byte	0x7
 292 00d9 73686F72 		.ascii "short unsigned int\0"
 292      7420756E 
 292      7369676E 
 292      65642069 
GAS LISTING C:\Users\PRESID~1\AppData\Local\Temp\cc7fVbmG.s 			page 9


 292      6E7400
 293 00ec 03       		.uleb128 0x3
 294 00ed 02       		.byte	0x2
 295 00ee 05       		.byte	0x5
 296 00ef 73686F72 		.ascii "short int\0"
 296      7420696E 
 296      7400
 297 00f9 02       		.uleb128 0x2
 298 00fa 756E7369 		.ascii "unsigned_int32_t\0"
 298      676E6564 
 298      5F696E74 
 298      33325F74 
 298      00
 299 010b 02       		.byte	0x2
 300 010c 27       		.byte	0x27
 301 010d 11010000 		.long	0x111
 302 0111 03       		.uleb128 0x3
 303 0112 04       		.byte	0x4
 304 0113 07       		.byte	0x7
 305 0114 6C6F6E67 		.ascii "long unsigned int\0"
 305      20756E73 
 305      69676E65 
 305      6420696E 
 305      7400
 306 0126 03       		.uleb128 0x3
 307 0127 04       		.byte	0x4
 308 0128 05       		.byte	0x5
 309 0129 6C6F6E67 		.ascii "long int\0"
 309      20696E74 
 309      00
 310 0132 02       		.uleb128 0x2
 311 0133 75696E74 		.ascii "uint32\0"
 311      333200
 312 013a 02       		.byte	0x2
 313 013b 29       		.byte	0x29
 314 013c 11010000 		.long	0x111
 315 0140 04       		.uleb128 0x4
 316 0141 6F735F73 		.ascii "os_sw_bugs_e\0"
 316      775F6275 
 316      67735F65 
 316      00
 317 014e 04       		.byte	0x4
 318 014f 03       		.byte	0x3
 319 0150 2B       		.byte	0x2b
 320 0151 9F020000 		.long	0x29f
 321 0155 05       		.uleb128 0x5
 322 0156 6F735F62 		.ascii "os_bug_no_bug\0"
 322      75675F6E 
 322      6F5F6275 
 322      6700
 323 0164 00       		.sleb128 0
 324 0165 05       		.uleb128 0x5
 325 0166 6F735F62 		.ascii "os_bug_taskstate_request_denied\0"
 325      75675F74 
 325      61736B73 
 325      74617465 
 325      5F726571 
GAS LISTING C:\Users\PRESID~1\AppData\Local\Temp\cc7fVbmG.s 			page 10


 326 0186 01       		.sleb128 1
 327 0187 05       		.uleb128 0x5
 328 0188 6F735F62 		.ascii "os_bug_null_pointer\0"
 328      75675F6E 
 328      756C6C5F 
 328      706F696E 
 328      74657200 
 329 019c 02       		.sleb128 2
 330 019d 05       		.uleb128 0x5
 331 019e 6F735F62 		.ascii "os_bug_task_max_wait_time_reached\0"
 331      75675F74 
 331      61736B5F 
 331      6D61785F 
 331      77616974 
 332 01c0 03       		.sleb128 3
 333 01c1 05       		.uleb128 0x5
 334 01c2 6F735F62 		.ascii "os_bug_Task_unspecified\0"
 334      75675F54 
 334      61736B5F 
 334      756E7370 
 334      65636966 
 335 01da 04       		.sleb128 4
 336 01db 05       		.uleb128 0x5
 337 01dc 6F735F62 		.ascii "os_bug_exception_UndefInstruction\0"
 337      75675F65 
 337      78636570 
 337      74696F6E 
 337      5F556E64 
 338 01fe 05       		.sleb128 5
 339 01ff 05       		.uleb128 0x5
 340 0200 6F735F62 		.ascii "os_bug_exception_AbortPrefetch\0"
 340      75675F65 
 340      78636570 
 340      74696F6E 
 340      5F41626F 
 341 021f 06       		.sleb128 6
 342 0220 05       		.uleb128 0x5
 343 0221 6F735F62 		.ascii "os_bug_exception_AbortData\0"
 343      75675F65 
 343      78636570 
 343      74696F6E 
 343      5F41626F 
 344 023c 07       		.sleb128 7
 345 023d 05       		.uleb128 0x5
 346 023e 6F735F62 		.ascii "os_bug_reset_exit_or_shutdown_failed\0"
 346      75675F72 
 346      65736574 
 346      5F657869 
 346      745F6F72 
 347 0263 08       		.sleb128 8
 348 0264 05       		.uleb128 0x5
 349 0265 6F735F62 		.ascii "os_bug_critical_stack_usage\0"
 349      75675F63 
 349      72697469 
 349      63616C5F 
 349      73746163 
 350 0281 09       		.sleb128 9
GAS LISTING C:\Users\PRESID~1\AppData\Local\Temp\cc7fVbmG.s 			page 11


 351 0282 05       		.uleb128 0x5
 352 0283 6F735F62 		.ascii "os_bug_svc_number_missing\0"
 352      75675F73 
 352      76635F6E 
 352      756D6265 
 352      725F6D69 
 353 029d 0A       		.sleb128 10
 354 029e 00       		.byte	0
 355 029f 04       		.uleb128 0x4
 356 02a0 6F735F73 		.ascii "os_sw_bugs_function_e\0"
 356      775F6275 
 356      67735F66 
 356      756E6374 
 356      696F6E5F 
 357 02b6 04       		.byte	0x4
 358 02b7 03       		.byte	0x3
 359 02b8 3B       		.byte	0x3b
 360 02b9 56040000 		.long	0x456
 361 02bd 05       		.uleb128 0x5
 362 02be 46756E63 		.ascii "Func_NoFunction\0"
 362      5F4E6F46 
 362      756E6374 
 362      696F6E00 
 363 02ce 00       		.sleb128 0
 364 02cf 05       		.uleb128 0x5
 365 02d0 46756E63 		.ascii "Func_SaveTaskEnvironment\0"
 365      5F536176 
 365      65546173 
 365      6B456E76 
 365      69726F6E 
 366 02e9 01       		.sleb128 1
 367 02ea 05       		.uleb128 0x5
 368 02eb 46756E63 		.ascii "Func_RestoreTaskEnvironment\0"
 368      5F526573 
 368      746F7265 
 368      5461736B 
 368      456E7669 
 369 0307 02       		.sleb128 2
 370 0308 05       		.uleb128 0x5
 371 0309 46756E63 		.ascii "Func_CreateTaskEnvironment\0"
 371      5F437265 
 371      61746554 
 371      61736B45 
 371      6E766972 
 372 0324 03       		.sleb128 3
 373 0325 05       		.uleb128 0x5
 374 0326 46756E63 		.ascii "Func_DeleteTaskEnvironment\0"
 374      5F44656C 
 374      65746554 
 374      61736B45 
 374      6E766972 
 375 0341 04       		.sleb128 4
 376 0342 05       		.uleb128 0x5
 377 0343 46756E63 		.ascii "Func_InitTaskEnvironment\0"
 377      5F496E69 
 377      74546173 
 377      6B456E76 
GAS LISTING C:\Users\PRESID~1\AppData\Local\Temp\cc7fVbmG.s 			page 12


 377      69726F6E 
 378 035c 05       		.sleb128 5
 379 035d 05       		.uleb128 0x5
 380 035e 46756E63 		.ascii "Func_StartTask\0"
 380      5F537461 
 380      72745461 
 380      736B00
 381 036d 06       		.sleb128 6
 382 036e 05       		.uleb128 0x5
 383 036f 46756E63 		.ascii "Func_PreemptTask\0"
 383      5F507265 
 383      656D7074 
 383      5461736B 
 383      00
 384 0380 07       		.sleb128 7
 385 0381 05       		.uleb128 0x5
 386 0382 46756E63 		.ascii "Func_TerminateTask\0"
 386      5F546572 
 386      6D696E61 
 386      74655461 
 386      736B00
 387 0395 08       		.sleb128 8
 388 0396 05       		.uleb128 0x5
 389 0397 46756E63 		.ascii "Func_TaskScheduler\0"
 389      5F546173 
 389      6B536368 
 389      6564756C 
 389      657200
 390 03aa 09       		.sleb128 9
 391 03ab 05       		.uleb128 0x5
 392 03ac 46756E63 		.ascii "Func_InitTask\0"
 392      5F496E69 
 392      74546173 
 392      6B00
 393 03ba 0A       		.sleb128 10
 394 03bb 05       		.uleb128 0x5
 395 03bc 46756E63 		.ascii "Func_ActivateTask\0"
 395      5F416374 
 395      69766174 
 395      65546173 
 395      6B00
 396 03ce 0B       		.sleb128 11
 397 03cf 05       		.uleb128 0x5
 398 03d0 46756E63 		.ascii "Func_TaskStateRequest\0"
 398      5F546173 
 398      6B537461 
 398      74655265 
 398      71756573 
 399 03e6 0C       		.sleb128 12
 400 03e7 05       		.uleb128 0x5
 401 03e8 46756E63 		.ascii "Func_Preempt_Task\0"
 401      5F507265 
 401      656D7074 
 401      5F546173 
 401      6B00
 402 03fa 0D       		.sleb128 13
 403 03fb 05       		.uleb128 0x5
GAS LISTING C:\Users\PRESID~1\AppData\Local\Temp\cc7fVbmG.s 			page 13


 404 03fc 46756E63 		.ascii "Func_os_exception\0"
 404      5F6F735F 
 404      65786365 
 404      7074696F 
 404      6E00
 405 040e 0E       		.sleb128 14
 406 040f 05       		.uleb128 0x5
 407 0410 46756E63 		.ascii "Func_CreateTask\0"
 407      5F437265 
 407      61746554 
 407      61736B00 
 408 0420 0F       		.sleb128 15
 409 0421 05       		.uleb128 0x5
 410 0422 46756E63 		.ascii "Func_Shutdown\0"
 410      5F536875 
 410      74646F77 
 410      6E00
 411 0430 10       		.sleb128 16
 412 0431 05       		.uleb128 0x5
 413 0432 46756E63 		.ascii "Func_StackCheck\0"
 413      5F537461 
 413      636B4368 
 413      65636B00 
 414 0442 11       		.sleb128 17
 415 0443 05       		.uleb128 0x5
 416 0444 46756E63 		.ascii "Func_IsrHandler\0"
 416      5F497372 
 416      48616E64 
 416      6C657200 
 417 0454 12       		.sleb128 18
 418 0455 00       		.byte	0
 419 0456 06       		.uleb128 0x6
 420 0457 42696749 		.ascii "BigInt_s\0"
 420      6E745F73 
 420      00
 421 0460 10       		.byte	0x10
 422 0461 03       		.byte	0x3
 423 0462 5B       		.byte	0x5b
 424 0463 77040000 		.long	0x477
 425 0467 07       		.uleb128 0x7
 426 0468 4E756D62 		.ascii "Number\0"
 426      657200
 427 046f 03       		.byte	0x3
 428 0470 64       		.byte	0x64
 429 0471 77040000 		.long	0x477
 430 0475 00       		.byte	0
 431 0476 00       		.byte	0
 432 0477 08       		.uleb128 0x8
 433 0478 C9000000 		.long	0xc9
 434 047c 87040000 		.long	0x487
 435 0480 09       		.uleb128 0x9
 436 0481 87040000 		.long	0x487
 437 0485 0F       		.byte	0xf
 438 0486 00       		.byte	0
 439 0487 03       		.uleb128 0x3
 440 0488 04       		.byte	0x4
 441 0489 07       		.byte	0x7
GAS LISTING C:\Users\PRESID~1\AppData\Local\Temp\cc7fVbmG.s 			page 14


 442 048a 73697A65 		.ascii "sizetype\0"
 442      74797065 
 442      00
 443 0493 02       		.uleb128 0x2
 444 0494 42696749 		.ascii "BigInt\0"
 444      6E7400
 445 049b 03       		.byte	0x3
 446 049c 65       		.byte	0x65
 447 049d 56040000 		.long	0x456
 448 04a1 04       		.uleb128 0x4
 449 04a2 70726976 		.ascii "privilige_mode_e\0"
 449      696C6967 
 449      655F6D6F 
 449      64655F65 
 449      00
 450 04b3 04       		.byte	0x4
 451 04b4 04       		.byte	0x4
 452 04b5 10       		.byte	0x10
 453 04b6 36050000 		.long	0x536
 454 04ba 05       		.uleb128 0x5
 455 04bb 65507269 		.ascii "ePriviligeMode_unpriviliged_thread_mode\0"
 455      76696C69 
 455      67654D6F 
 455      64655F75 
 455      6E707269 
 456 04e3 00       		.sleb128 0
 457 04e4 05       		.uleb128 0x5
 458 04e5 65507269 		.ascii "ePriviligeMode_priviliged_thread_mode\0"
 458      76696C69 
 458      67654D6F 
 458      64655F70 
 458      72697669 
 459 050b 01       		.sleb128 1
 460 050c 05       		.uleb128 0x5
 461 050d 65507269 		.ascii "ePriviligeMode_priviliged_handler_mode\0"
 461      76696C69 
 461      67654D6F 
 461      64655F70 
 461      72697669 
 462 0534 02       		.sleb128 2
 463 0535 00       		.byte	0
 464 0536 02       		.uleb128 0x2
 465 0537 70726976 		.ascii "privilige_mode_t\0"
 465      696C6967 
 465      655F6D6F 
 465      64655F74 
 465      00
 466 0548 04       		.byte	0x4
 467 0549 16       		.byte	0x16
 468 054a A1040000 		.long	0x4a1
 469 054e 04       		.uleb128 0x4
 470 054f 7461736B 		.ascii "task_state_e\0"
 470      5F737461 
 470      74655F65 
 470      00
 471 055c 04       		.byte	0x4
 472 055d 05       		.byte	0x5
GAS LISTING C:\Users\PRESID~1\AppData\Local\Temp\cc7fVbmG.s 			page 15


 473 055e 07       		.byte	0x7
 474 055f A4050000 		.long	0x5a4
 475 0563 05       		.uleb128 0x5
 476 0564 5461736B 		.ascii "Task_unspecified\0"
 476      5F756E73 
 476      70656369 
 476      66696564 
 476      00
 477 0575 00       		.sleb128 0
 478 0576 05       		.uleb128 0x5
 479 0577 5461736B 		.ascii "Task_suspended\0"
 479      5F737573 
 479      70656E64 
 479      656400
 480 0586 01       		.sleb128 1
 481 0587 05       		.uleb128 0x5
 482 0588 5461736B 		.ascii "Task_ready\0"
 482      5F726561 
 482      647900
 483 0593 02       		.sleb128 2
 484 0594 05       		.uleb128 0x5
 485 0595 5461736B 		.ascii "Task_running\0"
 485      5F72756E 
 485      6E696E67 
 485      00
 486 05a2 03       		.sleb128 3
 487 05a3 00       		.byte	0
 488 05a4 02       		.uleb128 0x2
 489 05a5 7461736B 		.ascii "task_state_t\0"
 489      5F737461 
 489      74655F74 
 489      00
 490 05b2 05       		.byte	0x5
 491 05b3 0E       		.byte	0xe
 492 05b4 4E050000 		.long	0x54e
 493 05b8 02       		.uleb128 0x2
 494 05b9 66756E63 		.ascii "func_p_t\0"
 494      5F705F74 
 494      00
 495 05c2 05       		.byte	0x5
 496 05c3 13       		.byte	0x13
 497 05c4 C8050000 		.long	0x5c8
 498 05c8 0A       		.uleb128 0xa
 499 05c9 04       		.byte	0x4
 500 05ca CE050000 		.long	0x5ce
 501 05ce 0B       		.uleb128 0xb
 502 05cf D9050000 		.long	0x5d9
 503 05d3 0C       		.uleb128 0xc
 504 05d4 D9050000 		.long	0x5d9
 505 05d8 00       		.byte	0
 506 05d9 0D       		.uleb128 0xd
 507 05da 04       		.byte	0x4
 508 05db 02       		.uleb128 0x2
 509 05dc 66756E63 		.ascii "func_p_state_change_t\0"
 509      5F705F73 
 509      74617465 
 509      5F636861 
GAS LISTING C:\Users\PRESID~1\AppData\Local\Temp\cc7fVbmG.s 			page 16


 509      6E67655F 
 510 05f2 05       		.byte	0x5
 511 05f3 15       		.byte	0x15
 512 05f4 F8050000 		.long	0x5f8
 513 05f8 0A       		.uleb128 0xa
 514 05f9 04       		.byte	0x4
 515 05fa FE050000 		.long	0x5fe
 516 05fe 0E       		.uleb128 0xe
 517 05ff 92000000 		.long	0x92
 518 0603 12060000 		.long	0x612
 519 0607 0C       		.uleb128 0xc
 520 0608 D9050000 		.long	0x5d9
 521 060c 0C       		.uleb128 0xc
 522 060d A4050000 		.long	0x5a4
 523 0611 00       		.byte	0
 524 0612 02       		.uleb128 0x2
 525 0613 74696D65 		.ascii "timebig_t\0"
 525      6269675F 
 525      7400
 526 061d 05       		.byte	0x5
 527 061e 16       		.byte	0x16
 528 061f 93040000 		.long	0x493
 529 0623 06       		.uleb128 0x6
 530 0624 7461736B 		.ascii "task_group_s\0"
 530      5F67726F 
 530      75705F73 
 530      00
 531 0631 20       		.byte	0x20
 532 0632 05       		.byte	0x5
 533 0633 18       		.byte	0x18
 534 0634 5B060000 		.long	0x65b
 535 0638 0F       		.uleb128 0xf
 536 0639 11000000 		.secrel32	LASF0
 537 063d 05       		.byte	0x5
 538 063e 1A       		.byte	0x1a
 539 063f 12060000 		.long	0x612
 540 0643 00       		.byte	0
 541 0644 07       		.uleb128 0x7
 542 0645 66616972 		.ascii "fair_exe_time\0"
 542      5F657865 
 542      5F74696D 
 542      6500
 543 0653 05       		.byte	0x5
 544 0654 1B       		.byte	0x1b
 545 0655 12060000 		.long	0x612
 546 0659 10       		.byte	0x10
 547 065a 00       		.byte	0
 548 065b 02       		.uleb128 0x2
 549 065c 7461736B 		.ascii "task_group_t\0"
 549      5F67726F 
 549      75705F74 
 549      00
 550 0669 05       		.byte	0x5
 551 066a 1D       		.byte	0x1d
 552 066b 23060000 		.long	0x623
 553 066f 06       		.uleb128 0x6
 554 0670 7461736B 		.ascii "task_s\0"
GAS LISTING C:\Users\PRESID~1\AppData\Local\Temp\cc7fVbmG.s 			page 17


 554      5F7300
 555 0677 AC       		.byte	0xac
 556 0678 05       		.byte	0x5
 557 0679 1F       		.byte	0x1f
 558 067a E3080000 		.long	0x8e3
 559 067e 10       		.uleb128 0x10
 560 067f 61637469 		.ascii "active\0"
 560      766500
 561 0686 05       		.byte	0x5
 562 0687 21       		.byte	0x21
 563 0688 E3080000 		.long	0x8e3
 564 068c 04       		.byte	0x4
 565 068d 01       		.byte	0x1
 566 068e 1F       		.byte	0x1f
 567 068f 00       		.byte	0
 568 0690 10       		.uleb128 0x10
 569 0691 7461736B 		.ascii "task_queued\0"
 569      5F717565 
 569      75656400 
 570 069d 05       		.byte	0x5
 571 069e 22       		.byte	0x22
 572 069f E3080000 		.long	0x8e3
 573 06a3 04       		.byte	0x4
 574 06a4 01       		.byte	0x1
 575 06a5 1E       		.byte	0x1e
 576 06a6 00       		.byte	0
 577 06a7 10       		.uleb128 0x10
 578 06a8 49646C65 		.ascii "IdleTask\0"
 578      5461736B 
 578      00
 579 06b1 05       		.byte	0x5
 580 06b2 23       		.byte	0x23
 581 06b3 E3080000 		.long	0x8e3
 582 06b7 04       		.byte	0x4
 583 06b8 01       		.byte	0x1
 584 06b9 1D       		.byte	0x1d
 585 06ba 00       		.byte	0
 586 06bb 10       		.uleb128 0x10
 587 06bc 46524545 		.ascii "FREE\0"
 587      00
 588 06c1 05       		.byte	0x5
 589 06c2 24       		.byte	0x24
 590 06c3 E3080000 		.long	0x8e3
 591 06c7 04       		.byte	0x4
 592 06c8 1D       		.byte	0x1d
 593 06c9 00       		.byte	0
 594 06ca 00       		.byte	0
 595 06cb 07       		.uleb128 0x7
 596 06cc 4E724F66 		.ascii "NrOfInsAllowed\0"
 596      496E7341 
 596      6C6C6F77 
 596      656400
 597 06db 05       		.byte	0x5
 598 06dc 25       		.byte	0x25
 599 06dd 92000000 		.long	0x92
 600 06e1 04       		.byte	0x4
 601 06e2 07       		.uleb128 0x7
GAS LISTING C:\Users\PRESID~1\AppData\Local\Temp\cc7fVbmG.s 			page 18


 602 06e3 4E724F66 		.ascii "NrOfInsActivated\0"
 602      496E7341 
 602      63746976 
 602      61746564 
 602      00
 603 06f4 05       		.byte	0x5
 604 06f5 26       		.byte	0x26
 605 06f6 92000000 		.long	0x92
 606 06fa 05       		.byte	0x5
 607 06fb 07       		.uleb128 0x7
 608 06fc 57616974 		.ascii "WaitActUntil\0"
 608      41637455 
 608      6E74696C 
 608      00
 609 0709 05       		.byte	0x5
 610 070a 27       		.byte	0x27
 611 070b 12060000 		.long	0x612
 612 070f 06       		.byte	0x6
 613 0710 07       		.uleb128 0x7
 614 0711 77616974 		.ascii "wait_time\0"
 614      5F74696D 
 614      6500
 615 071b 05       		.byte	0x5
 616 071c 28       		.byte	0x28
 617 071d 12060000 		.long	0x612
 618 0721 16       		.byte	0x16
 619 0722 07       		.uleb128 0x7
 620 0723 54696D65 		.ascii "TimeToPrioInc\0"
 620      546F5072 
 620      696F496E 
 620      6300
 621 0731 05       		.byte	0x5
 622 0732 29       		.byte	0x29
 623 0733 12060000 		.long	0x612
 624 0737 26       		.byte	0x26
 625 0738 07       		.uleb128 0x7
 626 0739 6F766572 		.ascii "overwaittime_per_prio_inc_step\0"
 626      77616974 
 626      74696D65 
 626      5F706572 
 626      5F707269 
 627 0758 05       		.byte	0x5
 628 0759 2A       		.byte	0x2a
 629 075a 32010000 		.long	0x132
 630 075e 38       		.byte	0x38
 631 075f 07       		.uleb128 0x7
 632 0760 6D61785F 		.ascii "max_allowed_wait_time\0"
 632      616C6C6F 
 632      7765645F 
 632      77616974 
 632      5F74696D 
 633 0776 05       		.byte	0x5
 634 0777 2B       		.byte	0x2b
 635 0778 12060000 		.long	0x612
 636 077c 3C       		.byte	0x3c
 637 077d 0F       		.uleb128 0xf
 638 077e 11000000 		.secrel32	LASF0
GAS LISTING C:\Users\PRESID~1\AppData\Local\Temp\cc7fVbmG.s 			page 19


 639 0782 05       		.byte	0x5
 640 0783 2C       		.byte	0x2c
 641 0784 12060000 		.long	0x612
 642 0788 4C       		.byte	0x4c
 643 0789 07       		.uleb128 0x7
 644 078a 73746172 		.ascii "start_time\0"
 644      745F7469 
 644      6D6500
 645 0795 05       		.byte	0x5
 646 0796 2D       		.byte	0x2d
 647 0797 12060000 		.long	0x612
 648 079b 5C       		.byte	0x5c
 649 079c 07       		.uleb128 0x7
 650 079d 63757272 		.ascii "current_prio\0"
 650      656E745F 
 650      7072696F 
 650      00
 651 07aa 05       		.byte	0x5
 652 07ab 2E       		.byte	0x2e
 653 07ac 92000000 		.long	0x92
 654 07b0 6C       		.byte	0x6c
 655 07b1 07       		.uleb128 0x7
 656 07b2 64656661 		.ascii "default_prio\0"
 656      756C745F 
 656      7072696F 
 656      00
 657 07bf 05       		.byte	0x5
 658 07c0 2F       		.byte	0x2f
 659 07c1 92000000 		.long	0x92
 660 07c5 6D       		.byte	0x6d
 661 07c6 07       		.uleb128 0x7
 662 07c7 7461736B 		.ascii "task_number\0"
 662      5F6E756D 
 662      62657200 
 663 07d3 05       		.byte	0x5
 664 07d4 30       		.byte	0x30
 665 07d5 F9000000 		.long	0xf9
 666 07d9 70       		.byte	0x70
 667 07da 07       		.uleb128 0x7
 668 07db 667000   		.ascii "fp\0"
 669 07de 05       		.byte	0x5
 670 07df 31       		.byte	0x31
 671 07e0 B8050000 		.long	0x5b8
 672 07e4 74       		.byte	0x74
 673 07e5 07       		.uleb128 0x7
 674 07e6 73746174 		.ascii "state_request\0"
 674      655F7265 
 674      71756573 
 674      7400
 675 07f4 05       		.byte	0x5
 676 07f5 32       		.byte	0x32
 677 07f6 DB050000 		.long	0x5db
 678 07fa 78       		.byte	0x78
 679 07fb 07       		.uleb128 0x7
 680 07fc 7461736B 		.ascii "task_state\0"
 680      5F737461 
 680      746500
GAS LISTING C:\Users\PRESID~1\AppData\Local\Temp\cc7fVbmG.s 			page 20


 681 0807 05       		.byte	0x5
 682 0808 33       		.byte	0x33
 683 0809 A4050000 		.long	0x5a4
 684 080d 7C       		.byte	0x7c
 685 080e 07       		.uleb128 0x7
 686 080f 7461736B 		.ascii "task_group\0"
 686      5F67726F 
 686      757000
 687 081a 05       		.byte	0x5
 688 081b 34       		.byte	0x34
 689 081c F3080000 		.long	0x8f3
 690 0820 80       		.byte	0x80
 691 0821 07       		.uleb128 0x7
 692 0822 45415800 		.ascii "EAX\0"
 693 0826 05       		.byte	0x5
 694 0827 36       		.byte	0x36
 695 0828 F9000000 		.long	0xf9
 696 082c 84       		.byte	0x84
 697 082d 07       		.uleb128 0x7
 698 082e 45425800 		.ascii "EBX\0"
 699 0832 05       		.byte	0x5
 700 0833 37       		.byte	0x37
 701 0834 F9000000 		.long	0xf9
 702 0838 88       		.byte	0x88
 703 0839 07       		.uleb128 0x7
 704 083a 45435800 		.ascii "ECX\0"
 705 083e 05       		.byte	0x5
 706 083f 38       		.byte	0x38
 707 0840 F9000000 		.long	0xf9
 708 0844 8C       		.byte	0x8c
 709 0845 07       		.uleb128 0x7
 710 0846 45445800 		.ascii "EDX\0"
 711 084a 05       		.byte	0x5
 712 084b 39       		.byte	0x39
 713 084c F9000000 		.long	0xf9
 714 0850 90       		.byte	0x90
 715 0851 07       		.uleb128 0x7
 716 0852 70537461 		.ascii "pStackPointer\0"
 716      636B506F 
 716      696E7465 
 716      7200
 717 0860 05       		.byte	0x5
 718 0861 49       		.byte	0x49
 719 0862 F9080000 		.long	0x8f9
 720 0866 94       		.byte	0x94
 721 0867 07       		.uleb128 0x7
 722 0868 70537461 		.ascii "pStackPointerByMalloc\0"
 722      636B506F 
 722      696E7465 
 722      7242794D 
 722      616C6C6F 
 723 087e 05       		.byte	0x5
 724 087f 4A       		.byte	0x4a
 725 0880 F9080000 		.long	0x8f9
 726 0884 98       		.byte	0x98
 727 0885 07       		.uleb128 0x7
 728 0886 70537461 		.ascii "pStackPointerStart\0"
GAS LISTING C:\Users\PRESID~1\AppData\Local\Temp\cc7fVbmG.s 			page 21


 728      636B506F 
 728      696E7465 
 728      72537461 
 728      727400
 729 0899 05       		.byte	0x5
 730 089a 4B       		.byte	0x4b
 731 089b F9080000 		.long	0x8f9
 732 089f 9C       		.byte	0x9c
 733 08a0 07       		.uleb128 0x7
 734 08a1 53746163 		.ascii "StackSize\0"
 734      6B53697A 
 734      6500
 735 08ab 05       		.byte	0x5
 736 08ac 4C       		.byte	0x4c
 737 08ad F9000000 		.long	0xf9
 738 08b1 A0       		.byte	0xa0
 739 08b2 07       		.uleb128 0x7
 740 08b3 70537461 		.ascii "pStackPointerEnd\0"
 740      636B506F 
 740      696E7465 
 740      72456E64 
 740      00
 741 08c4 05       		.byte	0x5
 742 08c5 4D       		.byte	0x4d
 743 08c6 F9080000 		.long	0x8f9
 744 08ca A4       		.byte	0xa4
 745 08cb 07       		.uleb128 0x7
 746 08cc 70726976 		.ascii "privilige_mode\0"
 746      696C6967 
 746      655F6D6F 
 746      646500
 747 08db 05       		.byte	0x5
 748 08dc 4E       		.byte	0x4e
 749 08dd 36050000 		.long	0x536
 750 08e1 A8       		.byte	0xa8
 751 08e2 00       		.byte	0
 752 08e3 03       		.uleb128 0x3
 753 08e4 04       		.byte	0x4
 754 08e5 07       		.byte	0x7
 755 08e6 756E7369 		.ascii "unsigned int\0"
 755      676E6564 
 755      20696E74 
 755      00
 756 08f3 0A       		.uleb128 0xa
 757 08f4 04       		.byte	0x4
 758 08f5 5B060000 		.long	0x65b
 759 08f9 0A       		.uleb128 0xa
 760 08fa 04       		.byte	0x4
 761 08fb 92000000 		.long	0x92
 762 08ff 02       		.uleb128 0x2
 763 0900 7461736B 		.ascii "task_t\0"
 763      5F7400
 764 0907 05       		.byte	0x5
 765 0908 50       		.byte	0x50
 766 0909 6F060000 		.long	0x66f
 767 090d 0A       		.uleb128 0xa
 768 090e 04       		.byte	0x4
GAS LISTING C:\Users\PRESID~1\AppData\Local\Temp\cc7fVbmG.s 			page 22


 769 090f FF080000 		.long	0x8ff
 770 0913 11       		.uleb128 0x11
 771 0914 4F535F54 		.ascii "OS_TaskSaveTaskEnvironment\0"
 771      61736B53 
 771      61766554 
 771      61736B45 
 771      6E766972 
 772 092f 01       		.byte	0x1
 773 0930 0F       		.byte	0xf
 774 0931 00000000 		.long	LFB0
 775 0935 73000000 		.long	LFE0-LFB0
 776 0939 01       		.uleb128 0x1
 777 093a 9C       		.byte	0x9c
 778 093b 4F090000 		.long	0x94f
 779 093f 12       		.uleb128 0x12
 780 0940 7461736B 		.ascii "task\0"
 780      00
 781 0945 01       		.byte	0x1
 782 0946 0F       		.byte	0xf
 783 0947 0D090000 		.long	0x90d
 784 094b 02       		.uleb128 0x2
 785 094c 91       		.byte	0x91
 786 094d 00       		.sleb128 0
 787 094e 00       		.byte	0
 788 094f 11       		.uleb128 0x11
 789 0950 4F535F54 		.ascii "OS_TASK_RESTORETASK_ENVIRONMENT\0"
 789      41534B5F 
 789      52455354 
 789      4F524554 
 789      41534B5F 
 790 0970 01       		.byte	0x1
 791 0971 25       		.byte	0x25
 792 0972 73000000 		.long	LFB1
 793 0976 40000000 		.long	LFE1-LFB1
 794 097a 01       		.uleb128 0x1
 795 097b 9C       		.byte	0x9c
 796 097c 90090000 		.long	0x990
 797 0980 12       		.uleb128 0x12
 798 0981 7461736B 		.ascii "task\0"
 798      00
 799 0986 01       		.byte	0x1
 800 0987 25       		.byte	0x25
 801 0988 0D090000 		.long	0x90d
 802 098c 02       		.uleb128 0x2
 803 098d 91       		.byte	0x91
 804 098e 00       		.sleb128 0
 805 098f 00       		.byte	0
 806 0990 11       		.uleb128 0x11
 807 0991 4F535F54 		.ascii "OS_TASK_RESTORE_SYSTEM_STACK\0"
 807      41534B5F 
 807      52455354 
 807      4F52455F 
 807      53595354 
 808 09ae 01       		.byte	0x1
 809 09af 31       		.byte	0x31
 810 09b0 B3000000 		.long	LFB2
 811 09b4 13000000 		.long	LFE2-LFB2
GAS LISTING C:\Users\PRESID~1\AppData\Local\Temp\cc7fVbmG.s 			page 23


 812 09b8 01       		.uleb128 0x1
 813 09b9 9C       		.byte	0x9c
 814 09ba CD090000 		.long	0x9cd
 815 09be 13       		.uleb128 0x13
 816 09bf 00000000 		.secrel32	LASF1
 817 09c3 01       		.byte	0x1
 818 09c4 31       		.byte	0x31
 819 09c5 CD090000 		.long	0x9cd
 820 09c9 02       		.uleb128 0x2
 821 09ca 91       		.byte	0x91
 822 09cb 00       		.sleb128 0
 823 09cc 00       		.byte	0
 824 09cd 0A       		.uleb128 0xa
 825 09ce 04       		.byte	0x4
 826 09cf C9000000 		.long	0xc9
 827 09d3 11       		.uleb128 0x11
 828 09d4 4F535F54 		.ascii "OS_TASK_SAVE_SYSTEM_STACK\0"
 828      41534B5F 
 828      53415645 
 828      5F535953 
 828      54454D5F 
 829 09ee 01       		.byte	0x1
 830 09ef 35       		.byte	0x35
 831 09f0 C6000000 		.long	LFB3
 832 09f4 13000000 		.long	LFE3-LFB3
 833 09f8 01       		.uleb128 0x1
 834 09f9 9C       		.byte	0x9c
 835 09fa 0D0A0000 		.long	0xa0d
 836 09fe 13       		.uleb128 0x13
 837 09ff 00000000 		.secrel32	LASF1
 838 0a03 01       		.byte	0x1
 839 0a04 35       		.byte	0x35
 840 0a05 CD090000 		.long	0x9cd
 841 0a09 02       		.uleb128 0x2
 842 0a0a 91       		.byte	0x91
 843 0a0b 00       		.sleb128 0
 844 0a0c 00       		.byte	0
 845 0a0d 11       		.uleb128 0x11
 846 0a0e 4F535F54 		.ascii "OS_Task_InitTaskEnvironment\0"
 846      61736B5F 
 846      496E6974 
 846      5461736B 
 846      456E7669 
 847 0a2a 01       		.byte	0x1
 848 0a2b 39       		.byte	0x39
 849 0a2c D9000000 		.long	LFB4
 850 0a30 14010000 		.long	LFE4-LFB4
 851 0a34 01       		.uleb128 0x1
 852 0a35 9C       		.byte	0x9c
 853 0a36 4A0A0000 		.long	0xa4a
 854 0a3a 12       		.uleb128 0x12
 855 0a3b 7461736B 		.ascii "task\0"
 855      00
 856 0a40 01       		.byte	0x1
 857 0a41 39       		.byte	0x39
 858 0a42 0D090000 		.long	0x90d
 859 0a46 02       		.uleb128 0x2
GAS LISTING C:\Users\PRESID~1\AppData\Local\Temp\cc7fVbmG.s 			page 24


 860 0a47 91       		.byte	0x91
 861 0a48 00       		.sleb128 0
 862 0a49 00       		.byte	0
 863 0a4a 08       		.uleb128 0x8
 864 0a4b 0D090000 		.long	0x90d
 865 0a4f 5A0A0000 		.long	0xa5a
 866 0a53 09       		.uleb128 0x9
 867 0a54 87040000 		.long	0x487
 868 0a58 09       		.byte	0x9
 869 0a59 00       		.byte	0
 870 0a5a 14       		.uleb128 0x14
 871 0a5b 5441534B 		.ascii "TASK_PTR\0"
 871      5F505452 
 871      00
 872 0a64 01       		.byte	0x1
 873 0a65 0D       		.byte	0xd
 874 0a66 4A0A0000 		.long	0xa4a
 875 0a6a 05       		.uleb128 0x5
 876 0a6b 03       		.byte	0x3
 877 0a6c 00000000 		.long	_TASK_PTR
 878 0a70 00       		.byte	0
 879              		.section	.debug_abbrev,"dr"
 880              	Ldebug_abbrev0:
 881 0000 01       		.uleb128 0x1
 882 0001 11       		.uleb128 0x11
 883 0002 01       		.byte	0x1
 884 0003 25       		.uleb128 0x25
 885 0004 08       		.uleb128 0x8
 886 0005 13       		.uleb128 0x13
 887 0006 0B       		.uleb128 0xb
 888 0007 03       		.uleb128 0x3
 889 0008 08       		.uleb128 0x8
 890 0009 11       		.uleb128 0x11
 891 000a 01       		.uleb128 0x1
 892 000b 12       		.uleb128 0x12
 893 000c 06       		.uleb128 0x6
 894 000d 10       		.uleb128 0x10
 895 000e 17       		.uleb128 0x17
 896 000f 9942     		.uleb128 0x2119
 897 0011 17       		.uleb128 0x17
 898 0012 00       		.byte	0
 899 0013 00       		.byte	0
 900 0014 02       		.uleb128 0x2
 901 0015 16       		.uleb128 0x16
 902 0016 00       		.byte	0
 903 0017 03       		.uleb128 0x3
 904 0018 08       		.uleb128 0x8
 905 0019 3A       		.uleb128 0x3a
 906 001a 0B       		.uleb128 0xb
 907 001b 3B       		.uleb128 0x3b
 908 001c 0B       		.uleb128 0xb
 909 001d 49       		.uleb128 0x49
 910 001e 13       		.uleb128 0x13
 911 001f 00       		.byte	0
 912 0020 00       		.byte	0
 913 0021 03       		.uleb128 0x3
 914 0022 24       		.uleb128 0x24
GAS LISTING C:\Users\PRESID~1\AppData\Local\Temp\cc7fVbmG.s 			page 25


 915 0023 00       		.byte	0
 916 0024 0B       		.uleb128 0xb
 917 0025 0B       		.uleb128 0xb
 918 0026 3E       		.uleb128 0x3e
 919 0027 0B       		.uleb128 0xb
 920 0028 03       		.uleb128 0x3
 921 0029 08       		.uleb128 0x8
 922 002a 00       		.byte	0
 923 002b 00       		.byte	0
 924 002c 04       		.uleb128 0x4
 925 002d 04       		.uleb128 0x4
 926 002e 01       		.byte	0x1
 927 002f 03       		.uleb128 0x3
 928 0030 08       		.uleb128 0x8
 929 0031 0B       		.uleb128 0xb
 930 0032 0B       		.uleb128 0xb
 931 0033 3A       		.uleb128 0x3a
 932 0034 0B       		.uleb128 0xb
 933 0035 3B       		.uleb128 0x3b
 934 0036 0B       		.uleb128 0xb
 935 0037 01       		.uleb128 0x1
 936 0038 13       		.uleb128 0x13
 937 0039 00       		.byte	0
 938 003a 00       		.byte	0
 939 003b 05       		.uleb128 0x5
 940 003c 28       		.uleb128 0x28
 941 003d 00       		.byte	0
 942 003e 03       		.uleb128 0x3
 943 003f 08       		.uleb128 0x8
 944 0040 1C       		.uleb128 0x1c
 945 0041 0D       		.uleb128 0xd
 946 0042 00       		.byte	0
 947 0043 00       		.byte	0
 948 0044 06       		.uleb128 0x6
 949 0045 13       		.uleb128 0x13
 950 0046 01       		.byte	0x1
 951 0047 03       		.uleb128 0x3
 952 0048 08       		.uleb128 0x8
 953 0049 0B       		.uleb128 0xb
 954 004a 0B       		.uleb128 0xb
 955 004b 3A       		.uleb128 0x3a
 956 004c 0B       		.uleb128 0xb
 957 004d 3B       		.uleb128 0x3b
 958 004e 0B       		.uleb128 0xb
 959 004f 01       		.uleb128 0x1
 960 0050 13       		.uleb128 0x13
 961 0051 00       		.byte	0
 962 0052 00       		.byte	0
 963 0053 07       		.uleb128 0x7
 964 0054 0D       		.uleb128 0xd
 965 0055 00       		.byte	0
 966 0056 03       		.uleb128 0x3
 967 0057 08       		.uleb128 0x8
 968 0058 3A       		.uleb128 0x3a
 969 0059 0B       		.uleb128 0xb
 970 005a 3B       		.uleb128 0x3b
 971 005b 0B       		.uleb128 0xb
GAS LISTING C:\Users\PRESID~1\AppData\Local\Temp\cc7fVbmG.s 			page 26


 972 005c 49       		.uleb128 0x49
 973 005d 13       		.uleb128 0x13
 974 005e 38       		.uleb128 0x38
 975 005f 0B       		.uleb128 0xb
 976 0060 00       		.byte	0
 977 0061 00       		.byte	0
 978 0062 08       		.uleb128 0x8
 979 0063 01       		.uleb128 0x1
 980 0064 01       		.byte	0x1
 981 0065 49       		.uleb128 0x49
 982 0066 13       		.uleb128 0x13
 983 0067 01       		.uleb128 0x1
 984 0068 13       		.uleb128 0x13
 985 0069 00       		.byte	0
 986 006a 00       		.byte	0
 987 006b 09       		.uleb128 0x9
 988 006c 21       		.uleb128 0x21
 989 006d 00       		.byte	0
 990 006e 49       		.uleb128 0x49
 991 006f 13       		.uleb128 0x13
 992 0070 2F       		.uleb128 0x2f
 993 0071 0B       		.uleb128 0xb
 994 0072 00       		.byte	0
 995 0073 00       		.byte	0
 996 0074 0A       		.uleb128 0xa
 997 0075 0F       		.uleb128 0xf
 998 0076 00       		.byte	0
 999 0077 0B       		.uleb128 0xb
 1000 0078 0B       		.uleb128 0xb
 1001 0079 49       		.uleb128 0x49
 1002 007a 13       		.uleb128 0x13
 1003 007b 00       		.byte	0
 1004 007c 00       		.byte	0
 1005 007d 0B       		.uleb128 0xb
 1006 007e 15       		.uleb128 0x15
 1007 007f 01       		.byte	0x1
 1008 0080 27       		.uleb128 0x27
 1009 0081 19       		.uleb128 0x19
 1010 0082 01       		.uleb128 0x1
 1011 0083 13       		.uleb128 0x13
 1012 0084 00       		.byte	0
 1013 0085 00       		.byte	0
 1014 0086 0C       		.uleb128 0xc
 1015 0087 05       		.uleb128 0x5
 1016 0088 00       		.byte	0
 1017 0089 49       		.uleb128 0x49
 1018 008a 13       		.uleb128 0x13
 1019 008b 00       		.byte	0
 1020 008c 00       		.byte	0
 1021 008d 0D       		.uleb128 0xd
 1022 008e 0F       		.uleb128 0xf
 1023 008f 00       		.byte	0
 1024 0090 0B       		.uleb128 0xb
 1025 0091 0B       		.uleb128 0xb
 1026 0092 00       		.byte	0
 1027 0093 00       		.byte	0
 1028 0094 0E       		.uleb128 0xe
GAS LISTING C:\Users\PRESID~1\AppData\Local\Temp\cc7fVbmG.s 			page 27


 1029 0095 15       		.uleb128 0x15
 1030 0096 01       		.byte	0x1
 1031 0097 27       		.uleb128 0x27
 1032 0098 19       		.uleb128 0x19
 1033 0099 49       		.uleb128 0x49
 1034 009a 13       		.uleb128 0x13
 1035 009b 01       		.uleb128 0x1
 1036 009c 13       		.uleb128 0x13
 1037 009d 00       		.byte	0
 1038 009e 00       		.byte	0
 1039 009f 0F       		.uleb128 0xf
 1040 00a0 0D       		.uleb128 0xd
 1041 00a1 00       		.byte	0
 1042 00a2 03       		.uleb128 0x3
 1043 00a3 0E       		.uleb128 0xe
 1044 00a4 3A       		.uleb128 0x3a
 1045 00a5 0B       		.uleb128 0xb
 1046 00a6 3B       		.uleb128 0x3b
 1047 00a7 0B       		.uleb128 0xb
 1048 00a8 49       		.uleb128 0x49
 1049 00a9 13       		.uleb128 0x13
 1050 00aa 38       		.uleb128 0x38
 1051 00ab 0B       		.uleb128 0xb
 1052 00ac 00       		.byte	0
 1053 00ad 00       		.byte	0
 1054 00ae 10       		.uleb128 0x10
 1055 00af 0D       		.uleb128 0xd
 1056 00b0 00       		.byte	0
 1057 00b1 03       		.uleb128 0x3
 1058 00b2 08       		.uleb128 0x8
 1059 00b3 3A       		.uleb128 0x3a
 1060 00b4 0B       		.uleb128 0xb
 1061 00b5 3B       		.uleb128 0x3b
 1062 00b6 0B       		.uleb128 0xb
 1063 00b7 49       		.uleb128 0x49
 1064 00b8 13       		.uleb128 0x13
 1065 00b9 0B       		.uleb128 0xb
 1066 00ba 0B       		.uleb128 0xb
 1067 00bb 0D       		.uleb128 0xd
 1068 00bc 0B       		.uleb128 0xb
 1069 00bd 0C       		.uleb128 0xc
 1070 00be 0B       		.uleb128 0xb
 1071 00bf 38       		.uleb128 0x38
 1072 00c0 0B       		.uleb128 0xb
 1073 00c1 00       		.byte	0
 1074 00c2 00       		.byte	0
 1075 00c3 11       		.uleb128 0x11
 1076 00c4 2E       		.uleb128 0x2e
 1077 00c5 01       		.byte	0x1
 1078 00c6 3F       		.uleb128 0x3f
 1079 00c7 19       		.uleb128 0x19
 1080 00c8 03       		.uleb128 0x3
 1081 00c9 08       		.uleb128 0x8
 1082 00ca 3A       		.uleb128 0x3a
 1083 00cb 0B       		.uleb128 0xb
 1084 00cc 3B       		.uleb128 0x3b
 1085 00cd 0B       		.uleb128 0xb
GAS LISTING C:\Users\PRESID~1\AppData\Local\Temp\cc7fVbmG.s 			page 28


 1086 00ce 27       		.uleb128 0x27
 1087 00cf 19       		.uleb128 0x19
 1088 00d0 11       		.uleb128 0x11
 1089 00d1 01       		.uleb128 0x1
 1090 00d2 12       		.uleb128 0x12
 1091 00d3 06       		.uleb128 0x6
 1092 00d4 40       		.uleb128 0x40
 1093 00d5 18       		.uleb128 0x18
 1094 00d6 9642     		.uleb128 0x2116
 1095 00d8 19       		.uleb128 0x19
 1096 00d9 01       		.uleb128 0x1
 1097 00da 13       		.uleb128 0x13
 1098 00db 00       		.byte	0
 1099 00dc 00       		.byte	0
 1100 00dd 12       		.uleb128 0x12
 1101 00de 05       		.uleb128 0x5
 1102 00df 00       		.byte	0
 1103 00e0 03       		.uleb128 0x3
 1104 00e1 08       		.uleb128 0x8
 1105 00e2 3A       		.uleb128 0x3a
 1106 00e3 0B       		.uleb128 0xb
 1107 00e4 3B       		.uleb128 0x3b
 1108 00e5 0B       		.uleb128 0xb
 1109 00e6 49       		.uleb128 0x49
 1110 00e7 13       		.uleb128 0x13
 1111 00e8 02       		.uleb128 0x2
 1112 00e9 18       		.uleb128 0x18
 1113 00ea 00       		.byte	0
 1114 00eb 00       		.byte	0
 1115 00ec 13       		.uleb128 0x13
 1116 00ed 05       		.uleb128 0x5
 1117 00ee 00       		.byte	0
 1118 00ef 03       		.uleb128 0x3
 1119 00f0 0E       		.uleb128 0xe
 1120 00f1 3A       		.uleb128 0x3a
 1121 00f2 0B       		.uleb128 0xb
 1122 00f3 3B       		.uleb128 0x3b
 1123 00f4 0B       		.uleb128 0xb
 1124 00f5 49       		.uleb128 0x49
 1125 00f6 13       		.uleb128 0x13
 1126 00f7 02       		.uleb128 0x2
 1127 00f8 18       		.uleb128 0x18
 1128 00f9 00       		.byte	0
 1129 00fa 00       		.byte	0
 1130 00fb 14       		.uleb128 0x14
 1131 00fc 34       		.uleb128 0x34
 1132 00fd 00       		.byte	0
 1133 00fe 03       		.uleb128 0x3
 1134 00ff 08       		.uleb128 0x8
 1135 0100 3A       		.uleb128 0x3a
 1136 0101 0B       		.uleb128 0xb
 1137 0102 3B       		.uleb128 0x3b
 1138 0103 0B       		.uleb128 0xb
 1139 0104 49       		.uleb128 0x49
 1140 0105 13       		.uleb128 0x13
 1141 0106 3F       		.uleb128 0x3f
 1142 0107 19       		.uleb128 0x19
GAS LISTING C:\Users\PRESID~1\AppData\Local\Temp\cc7fVbmG.s 			page 29


 1143 0108 02       		.uleb128 0x2
 1144 0109 18       		.uleb128 0x18
 1145 010a 00       		.byte	0
 1146 010b 00       		.byte	0
 1147 010c 00       		.byte	0
 1148              		.section	.debug_aranges,"dr"
 1149 0000 1C000000 		.long	0x1c
 1150 0004 0200     		.word	0x2
 1151 0006 00000000 		.secrel32	Ldebug_info0
 1152 000a 04       		.byte	0x4
 1153 000b 00       		.byte	0
 1154 000c 0000     		.word	0
 1155 000e 0000     		.word	0
 1156 0010 00000000 		.long	Ltext0
 1157 0014 ED010000 		.long	Letext0-Ltext0
 1158 0018 00000000 		.long	0
 1159 001c 00000000 		.long	0
 1160              		.section	.debug_macro,"dr"
 1161              	Ldebug_macro0:
 1162 0000 0400     		.word	0x4
 1163 0002 02       		.byte	0x2
 1164 0003 00000000 		.secrel32	Ldebug_line0
 1165 0007 01       		.byte	0x1
 1166 0008 00       		.uleb128 0
 1167 0009 5F5F5354 		.ascii "__STDC__ 1\0"
 1167      44435F5F 
 1167      203100
 1168 0014 01       		.byte	0x1
 1169 0015 00       		.uleb128 0
 1170 0016 5F5F5354 		.ascii "__STDC_HOSTED__ 1\0"
 1170      44435F48 
 1170      4F535445 
 1170      445F5F20 
 1170      3100
 1171 0028 01       		.byte	0x1
 1172 0029 00       		.uleb128 0
 1173 002a 5F5F474E 		.ascii "__GNUC__ 4\0"
 1173      55435F5F 
 1173      203400
 1174 0035 01       		.byte	0x1
 1175 0036 00       		.uleb128 0
 1176 0037 5F5F474E 		.ascii "__GNUC_MINOR__ 9\0"
 1176      55435F4D 
 1176      494E4F52 
 1176      5F5F2039 
 1176      00
 1177 0048 01       		.byte	0x1
 1178 0049 00       		.uleb128 0
 1179 004a 5F5F474E 		.ascii "__GNUC_PATCHLEVEL__ 3\0"
 1179      55435F50 
 1179      41544348 
 1179      4C455645 
 1179      4C5F5F20 
 1180 0060 01       		.byte	0x1
 1181 0061 00       		.uleb128 0
 1182 0062 5F5F5645 		.ascii "__VERSION__ \"4.9.3\"\0"
 1182      5253494F 
GAS LISTING C:\Users\PRESID~1\AppData\Local\Temp\cc7fVbmG.s 			page 30


 1182      4E5F5F20 
 1182      22342E39 
 1182      2E332200 
 1183 0076 01       		.byte	0x1
 1184 0077 00       		.uleb128 0
 1185 0078 5F5F4154 		.ascii "__ATOMIC_RELAXED 0\0"
 1185      4F4D4943 
 1185      5F52454C 
 1185      41584544 
 1185      203000
 1186 008b 01       		.byte	0x1
 1187 008c 00       		.uleb128 0
 1188 008d 5F5F4154 		.ascii "__ATOMIC_SEQ_CST 5\0"
 1188      4F4D4943 
 1188      5F534551 
 1188      5F435354 
 1188      203500
 1189 00a0 01       		.byte	0x1
 1190 00a1 00       		.uleb128 0
 1191 00a2 5F5F4154 		.ascii "__ATOMIC_ACQUIRE 2\0"
 1191      4F4D4943 
 1191      5F414351 
 1191      55495245 
 1191      203200
 1192 00b5 01       		.byte	0x1
 1193 00b6 00       		.uleb128 0
 1194 00b7 5F5F4154 		.ascii "__ATOMIC_RELEASE 3\0"
 1194      4F4D4943 
 1194      5F52454C 
 1194      45415345 
 1194      203300
 1195 00ca 01       		.byte	0x1
 1196 00cb 00       		.uleb128 0
 1197 00cc 5F5F4154 		.ascii "__ATOMIC_ACQ_REL 4\0"
 1197      4F4D4943 
 1197      5F414351 
 1197      5F52454C 
 1197      203400
 1198 00df 01       		.byte	0x1
 1199 00e0 00       		.uleb128 0
 1200 00e1 5F5F4154 		.ascii "__ATOMIC_CONSUME 1\0"
 1200      4F4D4943 
 1200      5F434F4E 
 1200      53554D45 
 1200      203100
 1201 00f4 01       		.byte	0x1
 1202 00f5 00       		.uleb128 0
 1203 00f6 5F5F4649 		.ascii "__FINITE_MATH_ONLY__ 0\0"
 1203      4E495445 
 1203      5F4D4154 
 1203      485F4F4E 
 1203      4C595F5F 
 1204 010d 01       		.byte	0x1
 1205 010e 00       		.uleb128 0
 1206 010f 5F5F5349 		.ascii "__SIZEOF_INT__ 4\0"
 1206      5A454F46 
 1206      5F494E54 
GAS LISTING C:\Users\PRESID~1\AppData\Local\Temp\cc7fVbmG.s 			page 31


 1206      5F5F2034 
 1206      00
 1207 0120 01       		.byte	0x1
 1208 0121 00       		.uleb128 0
 1209 0122 5F5F5349 		.ascii "__SIZEOF_LONG__ 4\0"
 1209      5A454F46 
 1209      5F4C4F4E 
 1209      475F5F20 
 1209      3400
 1210 0134 01       		.byte	0x1
 1211 0135 00       		.uleb128 0
 1212 0136 5F5F5349 		.ascii "__SIZEOF_LONG_LONG__ 8\0"
 1212      5A454F46 
 1212      5F4C4F4E 
 1212      475F4C4F 
 1212      4E475F5F 
 1213 014d 01       		.byte	0x1
 1214 014e 00       		.uleb128 0
 1215 014f 5F5F5349 		.ascii "__SIZEOF_SHORT__ 2\0"
 1215      5A454F46 
 1215      5F53484F 
 1215      52545F5F 
 1215      203200
 1216 0162 01       		.byte	0x1
 1217 0163 00       		.uleb128 0
 1218 0164 5F5F5349 		.ascii "__SIZEOF_FLOAT__ 4\0"
 1218      5A454F46 
 1218      5F464C4F 
 1218      41545F5F 
 1218      203400
 1219 0177 01       		.byte	0x1
 1220 0178 00       		.uleb128 0
 1221 0179 5F5F5349 		.ascii "__SIZEOF_DOUBLE__ 8\0"
 1221      5A454F46 
 1221      5F444F55 
 1221      424C455F 
 1221      5F203800 
 1222 018d 01       		.byte	0x1
 1223 018e 00       		.uleb128 0
 1224 018f 5F5F5349 		.ascii "__SIZEOF_LONG_DOUBLE__ 12\0"
 1224      5A454F46 
 1224      5F4C4F4E 
 1224      475F444F 
 1224      55424C45 
 1225 01a9 01       		.byte	0x1
 1226 01aa 00       		.uleb128 0
 1227 01ab 5F5F5349 		.ascii "__SIZEOF_SIZE_T__ 4\0"
 1227      5A454F46 
 1227      5F53495A 
 1227      455F545F 
 1227      5F203400 
 1228 01bf 01       		.byte	0x1
 1229 01c0 00       		.uleb128 0
 1230 01c1 5F5F4348 		.ascii "__CHAR_BIT__ 8\0"
 1230      41525F42 
 1230      49545F5F 
 1230      203800
GAS LISTING C:\Users\PRESID~1\AppData\Local\Temp\cc7fVbmG.s 			page 32


 1231 01d0 01       		.byte	0x1
 1232 01d1 00       		.uleb128 0
 1233 01d2 5F5F4249 		.ascii "__BIGGEST_ALIGNMENT__ 16\0"
 1233      47474553 
 1233      545F414C 
 1233      49474E4D 
 1233      454E545F 
 1234 01eb 01       		.byte	0x1
 1235 01ec 00       		.uleb128 0
 1236 01ed 5F5F4F52 		.ascii "__ORDER_LITTLE_ENDIAN__ 1234\0"
 1236      4445525F 
 1236      4C495454 
 1236      4C455F45 
 1236      4E444941 
 1237 020a 01       		.byte	0x1
 1238 020b 00       		.uleb128 0
 1239 020c 5F5F4F52 		.ascii "__ORDER_BIG_ENDIAN__ 4321\0"
 1239      4445525F 
 1239      4249475F 
 1239      454E4449 
 1239      414E5F5F 
 1240 0226 01       		.byte	0x1
 1241 0227 00       		.uleb128 0
 1242 0228 5F5F4F52 		.ascii "__ORDER_PDP_ENDIAN__ 3412\0"
 1242      4445525F 
 1242      5044505F 
 1242      454E4449 
 1242      414E5F5F 
 1243 0242 01       		.byte	0x1
 1244 0243 00       		.uleb128 0
 1245 0244 5F5F4259 		.ascii "__BYTE_ORDER__ __ORDER_LITTLE_ENDIAN__\0"
 1245      54455F4F 
 1245      52444552 
 1245      5F5F205F 
 1245      5F4F5244 
 1246 026b 01       		.byte	0x1
 1247 026c 00       		.uleb128 0
 1248 026d 5F5F464C 		.ascii "__FLOAT_WORD_ORDER__ __ORDER_LITTLE_ENDIAN__\0"
 1248      4F41545F 
 1248      574F5244 
 1248      5F4F5244 
 1248      45525F5F 
 1249 029a 01       		.byte	0x1
 1250 029b 00       		.uleb128 0
 1251 029c 5F5F5349 		.ascii "__SIZEOF_POINTER__ 4\0"
 1251      5A454F46 
 1251      5F504F49 
 1251      4E544552 
 1251      5F5F2034 
 1252 02b1 01       		.byte	0x1
 1253 02b2 00       		.uleb128 0
 1254 02b3 5F5F5349 		.ascii "__SIZE_TYPE__ unsigned int\0"
 1254      5A455F54 
 1254      5950455F 
 1254      5F20756E 
 1254      7369676E 
 1255 02ce 01       		.byte	0x1
GAS LISTING C:\Users\PRESID~1\AppData\Local\Temp\cc7fVbmG.s 			page 33


 1256 02cf 00       		.uleb128 0
 1257 02d0 5F5F5054 		.ascii "__PTRDIFF_TYPE__ int\0"
 1257      52444946 
 1257      465F5459 
 1257      50455F5F 
 1257      20696E74 
 1258 02e5 01       		.byte	0x1
 1259 02e6 00       		.uleb128 0
 1260 02e7 5F5F5743 		.ascii "__WCHAR_TYPE__ short unsigned int\0"
 1260      4841525F 
 1260      54595045 
 1260      5F5F2073 
 1260      686F7274 
 1261 0309 01       		.byte	0x1
 1262 030a 00       		.uleb128 0
 1263 030b 5F5F5749 		.ascii "__WINT_TYPE__ short unsigned int\0"
 1263      4E545F54 
 1263      5950455F 
 1263      5F207368 
 1263      6F727420 
 1264 032c 01       		.byte	0x1
 1265 032d 00       		.uleb128 0
 1266 032e 5F5F494E 		.ascii "__INTMAX_TYPE__ long long int\0"
 1266      544D4158 
 1266      5F545950 
 1266      455F5F20 
 1266      6C6F6E67 
 1267 034c 01       		.byte	0x1
 1268 034d 00       		.uleb128 0
 1269 034e 5F5F5549 		.ascii "__UINTMAX_TYPE__ long long unsigned int\0"
 1269      4E544D41 
 1269      585F5459 
 1269      50455F5F 
 1269      206C6F6E 
 1270 0376 01       		.byte	0x1
 1271 0377 00       		.uleb128 0
 1272 0378 5F5F4348 		.ascii "__CHAR16_TYPE__ short unsigned int\0"
 1272      41523136 
 1272      5F545950 
 1272      455F5F20 
 1272      73686F72 
 1273 039b 01       		.byte	0x1
 1274 039c 00       		.uleb128 0
 1275 039d 5F5F4348 		.ascii "__CHAR32_TYPE__ unsigned int\0"
 1275      41523332 
 1275      5F545950 
 1275      455F5F20 
 1275      756E7369 
 1276 03ba 01       		.byte	0x1
 1277 03bb 00       		.uleb128 0
 1278 03bc 5F5F5349 		.ascii "__SIG_ATOMIC_TYPE__ int\0"
 1278      475F4154 
 1278      4F4D4943 
 1278      5F545950 
 1278      455F5F20 
 1279 03d4 01       		.byte	0x1
 1280 03d5 00       		.uleb128 0
GAS LISTING C:\Users\PRESID~1\AppData\Local\Temp\cc7fVbmG.s 			page 34


 1281 03d6 5F5F494E 		.ascii "__INT8_TYPE__ signed char\0"
 1281      54385F54 
 1281      5950455F 
 1281      5F207369 
 1281      676E6564 
 1282 03f0 01       		.byte	0x1
 1283 03f1 00       		.uleb128 0
 1284 03f2 5F5F494E 		.ascii "__INT16_TYPE__ short int\0"
 1284      5431365F 
 1284      54595045 
 1284      5F5F2073 
 1284      686F7274 
 1285 040b 01       		.byte	0x1
 1286 040c 00       		.uleb128 0
 1287 040d 5F5F494E 		.ascii "__INT32_TYPE__ int\0"
 1287      5433325F 
 1287      54595045 
 1287      5F5F2069 
 1287      6E7400
 1288 0420 01       		.byte	0x1
 1289 0421 00       		.uleb128 0
 1290 0422 5F5F494E 		.ascii "__INT64_TYPE__ long long int\0"
 1290      5436345F 
 1290      54595045 
 1290      5F5F206C 
 1290      6F6E6720 
 1291 043f 01       		.byte	0x1
 1292 0440 00       		.uleb128 0
 1293 0441 5F5F5549 		.ascii "__UINT8_TYPE__ unsigned char\0"
 1293      4E54385F 
 1293      54595045 
 1293      5F5F2075 
 1293      6E736967 
 1294 045e 01       		.byte	0x1
 1295 045f 00       		.uleb128 0
 1296 0460 5F5F5549 		.ascii "__UINT16_TYPE__ short unsigned int\0"
 1296      4E543136 
 1296      5F545950 
 1296      455F5F20 
 1296      73686F72 
 1297 0483 01       		.byte	0x1
 1298 0484 00       		.uleb128 0
 1299 0485 5F5F5549 		.ascii "__UINT32_TYPE__ unsigned int\0"
 1299      4E543332 
 1299      5F545950 
 1299      455F5F20 
 1299      756E7369 
 1300 04a2 01       		.byte	0x1
 1301 04a3 00       		.uleb128 0
 1302 04a4 5F5F5549 		.ascii "__UINT64_TYPE__ long long unsigned int\0"
 1302      4E543634 
 1302      5F545950 
 1302      455F5F20 
 1302      6C6F6E67 
 1303 04cb 01       		.byte	0x1
 1304 04cc 00       		.uleb128 0
 1305 04cd 5F5F494E 		.ascii "__INT_LEAST8_TYPE__ signed char\0"
GAS LISTING C:\Users\PRESID~1\AppData\Local\Temp\cc7fVbmG.s 			page 35


 1305      545F4C45 
 1305      41535438 
 1305      5F545950 
 1305      455F5F20 
 1306 04ed 01       		.byte	0x1
 1307 04ee 00       		.uleb128 0
 1308 04ef 5F5F494E 		.ascii "__INT_LEAST16_TYPE__ short int\0"
 1308      545F4C45 
 1308      41535431 
 1308      365F5459 
 1308      50455F5F 
 1309 050e 01       		.byte	0x1
 1310 050f 00       		.uleb128 0
 1311 0510 5F5F494E 		.ascii "__INT_LEAST32_TYPE__ int\0"
 1311      545F4C45 
 1311      41535433 
 1311      325F5459 
 1311      50455F5F 
 1312 0529 01       		.byte	0x1
 1313 052a 00       		.uleb128 0
 1314 052b 5F5F494E 		.ascii "__INT_LEAST64_TYPE__ long long int\0"
 1314      545F4C45 
 1314      41535436 
 1314      345F5459 
 1314      50455F5F 
 1315 054e 01       		.byte	0x1
 1316 054f 00       		.uleb128 0
 1317 0550 5F5F5549 		.ascii "__UINT_LEAST8_TYPE__ unsigned char\0"
 1317      4E545F4C 
 1317      45415354 
 1317      385F5459 
 1317      50455F5F 
 1318 0573 01       		.byte	0x1
 1319 0574 00       		.uleb128 0
 1320 0575 5F5F5549 		.ascii "__UINT_LEAST16_TYPE__ short unsigned int\0"
 1320      4E545F4C 
 1320      45415354 
 1320      31365F54 
 1320      5950455F 
 1321 059e 01       		.byte	0x1
 1322 059f 00       		.uleb128 0
 1323 05a0 5F5F5549 		.ascii "__UINT_LEAST32_TYPE__ unsigned int\0"
 1323      4E545F4C 
 1323      45415354 
 1323      33325F54 
 1323      5950455F 
 1324 05c3 01       		.byte	0x1
 1325 05c4 00       		.uleb128 0
 1326 05c5 5F5F5549 		.ascii "__UINT_LEAST64_TYPE__ long long unsigned int\0"
 1326      4E545F4C 
 1326      45415354 
 1326      36345F54 
 1326      5950455F 
 1327 05f2 01       		.byte	0x1
 1328 05f3 00       		.uleb128 0
 1329 05f4 5F5F494E 		.ascii "__INT_FAST8_TYPE__ signed char\0"
 1329      545F4641 
GAS LISTING C:\Users\PRESID~1\AppData\Local\Temp\cc7fVbmG.s 			page 36


 1329      5354385F 
 1329      54595045 
 1329      5F5F2073 
 1330 0613 01       		.byte	0x1
 1331 0614 00       		.uleb128 0
 1332 0615 5F5F494E 		.ascii "__INT_FAST16_TYPE__ short int\0"
 1332      545F4641 
 1332      53543136 
 1332      5F545950 
 1332      455F5F20 
 1333 0633 01       		.byte	0x1
 1334 0634 00       		.uleb128 0
 1335 0635 5F5F494E 		.ascii "__INT_FAST32_TYPE__ int\0"
 1335      545F4641 
 1335      53543332 
 1335      5F545950 
 1335      455F5F20 
 1336 064d 01       		.byte	0x1
 1337 064e 00       		.uleb128 0
 1338 064f 5F5F494E 		.ascii "__INT_FAST64_TYPE__ long long int\0"
 1338      545F4641 
 1338      53543634 
 1338      5F545950 
 1338      455F5F20 
 1339 0671 01       		.byte	0x1
 1340 0672 00       		.uleb128 0
 1341 0673 5F5F5549 		.ascii "__UINT_FAST8_TYPE__ unsigned char\0"
 1341      4E545F46 
 1341      41535438 
 1341      5F545950 
 1341      455F5F20 
 1342 0695 01       		.byte	0x1
 1343 0696 00       		.uleb128 0
 1344 0697 5F5F5549 		.ascii "__UINT_FAST16_TYPE__ short unsigned int\0"
 1344      4E545F46 
 1344      41535431 
 1344      365F5459 
 1344      50455F5F 
 1345 06bf 01       		.byte	0x1
 1346 06c0 00       		.uleb128 0
 1347 06c1 5F5F5549 		.ascii "__UINT_FAST32_TYPE__ unsigned int\0"
 1347      4E545F46 
 1347      41535433 
 1347      325F5459 
 1347      50455F5F 
 1348 06e3 01       		.byte	0x1
 1349 06e4 00       		.uleb128 0
 1350 06e5 5F5F5549 		.ascii "__UINT_FAST64_TYPE__ long long unsigned int\0"
 1350      4E545F46 
 1350      41535436 
 1350      345F5459 
 1350      50455F5F 
 1351 0711 01       		.byte	0x1
 1352 0712 00       		.uleb128 0
 1353 0713 5F5F494E 		.ascii "__INTPTR_TYPE__ int\0"
 1353      54505452 
 1353      5F545950 
GAS LISTING C:\Users\PRESID~1\AppData\Local\Temp\cc7fVbmG.s 			page 37


 1353      455F5F20 
 1353      696E7400 
 1354 0727 01       		.byte	0x1
 1355 0728 00       		.uleb128 0
 1356 0729 5F5F5549 		.ascii "__UINTPTR_TYPE__ unsigned int\0"
 1356      4E545054 
 1356      525F5459 
 1356      50455F5F 
 1356      20756E73 
 1357 0747 01       		.byte	0x1
 1358 0748 00       		.uleb128 0
 1359 0749 5F5F6861 		.ascii "__has_include(STR) __has_include__(STR)\0"
 1359      735F696E 
 1359      636C7564 
 1359      65285354 
 1359      5229205F 
 1360 0771 01       		.byte	0x1
 1361 0772 00       		.uleb128 0
 1362 0773 5F5F6861 		.ascii "__has_include_next(STR) __has_include_next__(STR)\0"
 1362      735F696E 
 1362      636C7564 
 1362      655F6E65 
 1362      78742853 
 1363 07a5 01       		.byte	0x1
 1364 07a6 00       		.uleb128 0
 1365 07a7 5F5F4758 		.ascii "__GXX_ABI_VERSION 1002\0"
 1365      585F4142 
 1365      495F5645 
 1365      5253494F 
 1365      4E203130 
 1366 07be 01       		.byte	0x1
 1367 07bf 00       		.uleb128 0
 1368 07c0 5F5F5343 		.ascii "__SCHAR_MAX__ 127\0"
 1368      4841525F 
 1368      4D41585F 
 1368      5F203132 
 1368      3700
 1369 07d2 01       		.byte	0x1
 1370 07d3 00       		.uleb128 0
 1371 07d4 5F5F5348 		.ascii "__SHRT_MAX__ 32767\0"
 1371      52545F4D 
 1371      41585F5F 
 1371      20333237 
 1371      363700
 1372 07e7 01       		.byte	0x1
 1373 07e8 00       		.uleb128 0
 1374 07e9 5F5F494E 		.ascii "__INT_MAX__ 2147483647\0"
 1374      545F4D41 
 1374      585F5F20 
 1374      32313437 
 1374      34383336 
 1375 0800 01       		.byte	0x1
 1376 0801 00       		.uleb128 0
 1377 0802 5F5F4C4F 		.ascii "__LONG_MAX__ 2147483647L\0"
 1377      4E475F4D 
 1377      41585F5F 
 1377      20323134 
GAS LISTING C:\Users\PRESID~1\AppData\Local\Temp\cc7fVbmG.s 			page 38


 1377      37343833 
 1378 081b 01       		.byte	0x1
 1379 081c 00       		.uleb128 0
 1380 081d 5F5F4C4F 		.ascii "__LONG_LONG_MAX__ 9223372036854775807LL\0"
 1380      4E475F4C 
 1380      4F4E475F 
 1380      4D41585F 
 1380      5F203932 
 1381 0845 01       		.byte	0x1
 1382 0846 00       		.uleb128 0
 1383 0847 5F5F5743 		.ascii "__WCHAR_MAX__ 65535\0"
 1383      4841525F 
 1383      4D41585F 
 1383      5F203635 
 1383      35333500 
 1384 085b 01       		.byte	0x1
 1385 085c 00       		.uleb128 0
 1386 085d 5F5F5743 		.ascii "__WCHAR_MIN__ 0\0"
 1386      4841525F 
 1386      4D494E5F 
 1386      5F203000 
 1387 086d 01       		.byte	0x1
 1388 086e 00       		.uleb128 0
 1389 086f 5F5F5749 		.ascii "__WINT_MAX__ 65535\0"
 1389      4E545F4D 
 1389      41585F5F 
 1389      20363535 
 1389      333500
 1390 0882 01       		.byte	0x1
 1391 0883 00       		.uleb128 0
 1392 0884 5F5F5749 		.ascii "__WINT_MIN__ 0\0"
 1392      4E545F4D 
 1392      494E5F5F 
 1392      203000
 1393 0893 01       		.byte	0x1
 1394 0894 00       		.uleb128 0
 1395 0895 5F5F5054 		.ascii "__PTRDIFF_MAX__ 2147483647\0"
 1395      52444946 
 1395      465F4D41 
 1395      585F5F20 
 1395      32313437 
 1396 08b0 01       		.byte	0x1
 1397 08b1 00       		.uleb128 0
 1398 08b2 5F5F5349 		.ascii "__SIZE_MAX__ 4294967295U\0"
 1398      5A455F4D 
 1398      41585F5F 
 1398      20343239 
 1398      34393637 
 1399 08cb 01       		.byte	0x1
 1400 08cc 00       		.uleb128 0
 1401 08cd 5F5F494E 		.ascii "__INTMAX_MAX__ 9223372036854775807LL\0"
 1401      544D4158 
 1401      5F4D4158 
 1401      5F5F2039 
 1401      32323333 
 1402 08f2 01       		.byte	0x1
 1403 08f3 00       		.uleb128 0
GAS LISTING C:\Users\PRESID~1\AppData\Local\Temp\cc7fVbmG.s 			page 39


 1404 08f4 5F5F494E 		.ascii "__INTMAX_C(c) c ## LL\0"
 1404      544D4158 
 1404      5F432863 
 1404      29206320 
 1404      2323204C 
 1405 090a 01       		.byte	0x1
 1406 090b 00       		.uleb128 0
 1407 090c 5F5F5549 		.ascii "__UINTMAX_MAX__ 18446744073709551615ULL\0"
 1407      4E544D41 
 1407      585F4D41 
 1407      585F5F20 
 1407      31383434 
 1408 0934 01       		.byte	0x1
 1409 0935 00       		.uleb128 0
 1410 0936 5F5F5549 		.ascii "__UINTMAX_C(c) c ## ULL\0"
 1410      4E544D41 
 1410      585F4328 
 1410      63292063 
 1410      20232320 
 1411 094e 01       		.byte	0x1
 1412 094f 00       		.uleb128 0
 1413 0950 5F5F5349 		.ascii "__SIG_ATOMIC_MAX__ 2147483647\0"
 1413      475F4154 
 1413      4F4D4943 
 1413      5F4D4158 
 1413      5F5F2032 
 1414 096e 01       		.byte	0x1
 1415 096f 00       		.uleb128 0
 1416 0970 5F5F5349 		.ascii "__SIG_ATOMIC_MIN__ (-__SIG_ATOMIC_MAX__ - 1)\0"
 1416      475F4154 
 1416      4F4D4943 
 1416      5F4D494E 
 1416      5F5F2028 
 1417 099d 01       		.byte	0x1
 1418 099e 00       		.uleb128 0
 1419 099f 5F5F494E 		.ascii "__INT8_MAX__ 127\0"
 1419      54385F4D 
 1419      41585F5F 
 1419      20313237 
 1419      00
 1420 09b0 01       		.byte	0x1
 1421 09b1 00       		.uleb128 0
 1422 09b2 5F5F494E 		.ascii "__INT16_MAX__ 32767\0"
 1422      5431365F 
 1422      4D41585F 
 1422      5F203332 
 1422      37363700 
 1423 09c6 01       		.byte	0x1
 1424 09c7 00       		.uleb128 0
 1425 09c8 5F5F494E 		.ascii "__INT32_MAX__ 2147483647\0"
 1425      5433325F 
 1425      4D41585F 
 1425      5F203231 
 1425      34373438 
 1426 09e1 01       		.byte	0x1
 1427 09e2 00       		.uleb128 0
 1428 09e3 5F5F494E 		.ascii "__INT64_MAX__ 9223372036854775807LL\0"
GAS LISTING C:\Users\PRESID~1\AppData\Local\Temp\cc7fVbmG.s 			page 40


 1428      5436345F 
 1428      4D41585F 
 1428      5F203932 
 1428      32333337 
 1429 0a07 01       		.byte	0x1
 1430 0a08 00       		.uleb128 0
 1431 0a09 5F5F5549 		.ascii "__UINT8_MAX__ 255\0"
 1431      4E54385F 
 1431      4D41585F 
 1431      5F203235 
 1431      3500
 1432 0a1b 01       		.byte	0x1
 1433 0a1c 00       		.uleb128 0
 1434 0a1d 5F5F5549 		.ascii "__UINT16_MAX__ 65535\0"
 1434      4E543136 
 1434      5F4D4158 
 1434      5F5F2036 
 1434      35353335 
 1435 0a32 01       		.byte	0x1
 1436 0a33 00       		.uleb128 0
 1437 0a34 5F5F5549 		.ascii "__UINT32_MAX__ 4294967295U\0"
 1437      4E543332 
 1437      5F4D4158 
 1437      5F5F2034 
 1437      32393439 
 1438 0a4f 01       		.byte	0x1
 1439 0a50 00       		.uleb128 0
 1440 0a51 5F5F5549 		.ascii "__UINT64_MAX__ 18446744073709551615ULL\0"
 1440      4E543634 
 1440      5F4D4158 
 1440      5F5F2031 
 1440      38343436 
 1441 0a78 01       		.byte	0x1
 1442 0a79 00       		.uleb128 0
 1443 0a7a 5F5F494E 		.ascii "__INT_LEAST8_MAX__ 127\0"
 1443      545F4C45 
 1443      41535438 
 1443      5F4D4158 
 1443      5F5F2031 
 1444 0a91 01       		.byte	0x1
 1445 0a92 00       		.uleb128 0
 1446 0a93 5F5F494E 		.ascii "__INT8_C(c) c\0"
 1446      54385F43 
 1446      28632920 
 1446      6300
 1447 0aa1 01       		.byte	0x1
 1448 0aa2 00       		.uleb128 0
 1449 0aa3 5F5F494E 		.ascii "__INT_LEAST16_MAX__ 32767\0"
 1449      545F4C45 
 1449      41535431 
 1449      365F4D41 
 1449      585F5F20 
 1450 0abd 01       		.byte	0x1
 1451 0abe 00       		.uleb128 0
 1452 0abf 5F5F494E 		.ascii "__INT16_C(c) c\0"
 1452      5431365F 
 1452      43286329 
GAS LISTING C:\Users\PRESID~1\AppData\Local\Temp\cc7fVbmG.s 			page 41


 1452      206300
 1453 0ace 01       		.byte	0x1
 1454 0acf 00       		.uleb128 0
 1455 0ad0 5F5F494E 		.ascii "__INT_LEAST32_MAX__ 2147483647\0"
 1455      545F4C45 
 1455      41535433 
 1455      325F4D41 
 1455      585F5F20 
 1456 0aef 01       		.byte	0x1
 1457 0af0 00       		.uleb128 0
 1458 0af1 5F5F494E 		.ascii "__INT32_C(c) c\0"
 1458      5433325F 
 1458      43286329 
 1458      206300
 1459 0b00 01       		.byte	0x1
 1460 0b01 00       		.uleb128 0
 1461 0b02 5F5F494E 		.ascii "__INT_LEAST64_MAX__ 9223372036854775807LL\0"
 1461      545F4C45 
 1461      41535436 
 1461      345F4D41 
 1461      585F5F20 
 1462 0b2c 01       		.byte	0x1
 1463 0b2d 00       		.uleb128 0
 1464 0b2e 5F5F494E 		.ascii "__INT64_C(c) c ## LL\0"
 1464      5436345F 
 1464      43286329 
 1464      20632023 
 1464      23204C4C 
 1465 0b43 01       		.byte	0x1
 1466 0b44 00       		.uleb128 0
 1467 0b45 5F5F5549 		.ascii "__UINT_LEAST8_MAX__ 255\0"
 1467      4E545F4C 
 1467      45415354 
 1467      385F4D41 
 1467      585F5F20 
 1468 0b5d 01       		.byte	0x1
 1469 0b5e 00       		.uleb128 0
 1470 0b5f 5F5F5549 		.ascii "__UINT8_C(c) c\0"
 1470      4E54385F 
 1470      43286329 
 1470      206300
 1471 0b6e 01       		.byte	0x1
 1472 0b6f 00       		.uleb128 0
 1473 0b70 5F5F5549 		.ascii "__UINT_LEAST16_MAX__ 65535\0"
 1473      4E545F4C 
 1473      45415354 
 1473      31365F4D 
 1473      41585F5F 
 1474 0b8b 01       		.byte	0x1
 1475 0b8c 00       		.uleb128 0
 1476 0b8d 5F5F5549 		.ascii "__UINT16_C(c) c\0"
 1476      4E543136 
 1476      5F432863 
 1476      29206300 
 1477 0b9d 01       		.byte	0x1
 1478 0b9e 00       		.uleb128 0
 1479 0b9f 5F5F5549 		.ascii "__UINT_LEAST32_MAX__ 4294967295U\0"
GAS LISTING C:\Users\PRESID~1\AppData\Local\Temp\cc7fVbmG.s 			page 42


 1479      4E545F4C 
 1479      45415354 
 1479      33325F4D 
 1479      41585F5F 
 1480 0bc0 01       		.byte	0x1
 1481 0bc1 00       		.uleb128 0
 1482 0bc2 5F5F5549 		.ascii "__UINT32_C(c) c ## U\0"
 1482      4E543332 
 1482      5F432863 
 1482      29206320 
 1482      23232055 
 1483 0bd7 01       		.byte	0x1
 1484 0bd8 00       		.uleb128 0
 1485 0bd9 5F5F5549 		.ascii "__UINT_LEAST64_MAX__ 18446744073709551615ULL\0"
 1485      4E545F4C 
 1485      45415354 
 1485      36345F4D 
 1485      41585F5F 
 1486 0c06 01       		.byte	0x1
 1487 0c07 00       		.uleb128 0
 1488 0c08 5F5F5549 		.ascii "__UINT64_C(c) c ## ULL\0"
 1488      4E543634 
 1488      5F432863 
 1488      29206320 
 1488      23232055 
 1489 0c1f 01       		.byte	0x1
 1490 0c20 00       		.uleb128 0
 1491 0c21 5F5F494E 		.ascii "__INT_FAST8_MAX__ 127\0"
 1491      545F4641 
 1491      5354385F 
 1491      4D41585F 
 1491      5F203132 
 1492 0c37 01       		.byte	0x1
 1493 0c38 00       		.uleb128 0
 1494 0c39 5F5F494E 		.ascii "__INT_FAST16_MAX__ 32767\0"
 1494      545F4641 
 1494      53543136 
 1494      5F4D4158 
 1494      5F5F2033 
 1495 0c52 01       		.byte	0x1
 1496 0c53 00       		.uleb128 0
 1497 0c54 5F5F494E 		.ascii "__INT_FAST32_MAX__ 2147483647\0"
 1497      545F4641 
 1497      53543332 
 1497      5F4D4158 
 1497      5F5F2032 
 1498 0c72 01       		.byte	0x1
 1499 0c73 00       		.uleb128 0
 1500 0c74 5F5F494E 		.ascii "__INT_FAST64_MAX__ 9223372036854775807LL\0"
 1500      545F4641 
 1500      53543634 
 1500      5F4D4158 
 1500      5F5F2039 
 1501 0c9d 01       		.byte	0x1
 1502 0c9e 00       		.uleb128 0
 1503 0c9f 5F5F5549 		.ascii "__UINT_FAST8_MAX__ 255\0"
 1503      4E545F46 
GAS LISTING C:\Users\PRESID~1\AppData\Local\Temp\cc7fVbmG.s 			page 43


 1503      41535438 
 1503      5F4D4158 
 1503      5F5F2032 
 1504 0cb6 01       		.byte	0x1
 1505 0cb7 00       		.uleb128 0
 1506 0cb8 5F5F5549 		.ascii "__UINT_FAST16_MAX__ 65535\0"
 1506      4E545F46 
 1506      41535431 
 1506      365F4D41 
 1506      585F5F20 
 1507 0cd2 01       		.byte	0x1
 1508 0cd3 00       		.uleb128 0
 1509 0cd4 5F5F5549 		.ascii "__UINT_FAST32_MAX__ 4294967295U\0"
 1509      4E545F46 
 1509      41535433 
 1509      325F4D41 
 1509      585F5F20 
 1510 0cf4 01       		.byte	0x1
 1511 0cf5 00       		.uleb128 0
 1512 0cf6 5F5F5549 		.ascii "__UINT_FAST64_MAX__ 18446744073709551615ULL\0"
 1512      4E545F46 
 1512      41535436 
 1512      345F4D41 
 1512      585F5F20 
 1513 0d22 01       		.byte	0x1
 1514 0d23 00       		.uleb128 0
 1515 0d24 5F5F494E 		.ascii "__INTPTR_MAX__ 2147483647\0"
 1515      54505452 
 1515      5F4D4158 
 1515      5F5F2032 
 1515      31343734 
 1516 0d3e 01       		.byte	0x1
 1517 0d3f 00       		.uleb128 0
 1518 0d40 5F5F5549 		.ascii "__UINTPTR_MAX__ 4294967295U\0"
 1518      4E545054 
 1518      525F4D41 
 1518      585F5F20 
 1518      34323934 
 1519 0d5c 01       		.byte	0x1
 1520 0d5d 00       		.uleb128 0
 1521 0d5e 5F5F4743 		.ascii "__GCC_IEC_559 2\0"
 1521      435F4945 
 1521      435F3535 
 1521      39203200 
 1522 0d6e 01       		.byte	0x1
 1523 0d6f 00       		.uleb128 0
 1524 0d70 5F5F4743 		.ascii "__GCC_IEC_559_COMPLEX 2\0"
 1524      435F4945 
 1524      435F3535 
 1524      395F434F 
 1524      4D504C45 
 1525 0d88 01       		.byte	0x1
 1526 0d89 00       		.uleb128 0
 1527 0d8a 5F5F464C 		.ascii "__FLT_EVAL_METHOD__ 2\0"
 1527      545F4556 
 1527      414C5F4D 
 1527      4554484F 
GAS LISTING C:\Users\PRESID~1\AppData\Local\Temp\cc7fVbmG.s 			page 44


 1527      445F5F20 
 1528 0da0 01       		.byte	0x1
 1529 0da1 00       		.uleb128 0
 1530 0da2 5F5F4445 		.ascii "__DEC_EVAL_METHOD__ 2\0"
 1530      435F4556 
 1530      414C5F4D 
 1530      4554484F 
 1530      445F5F20 
 1531 0db8 01       		.byte	0x1
 1532 0db9 00       		.uleb128 0
 1533 0dba 5F5F464C 		.ascii "__FLT_RADIX__ 2\0"
 1533      545F5241 
 1533      4449585F 
 1533      5F203200 
 1534 0dca 01       		.byte	0x1
 1535 0dcb 00       		.uleb128 0
 1536 0dcc 5F5F464C 		.ascii "__FLT_MANT_DIG__ 24\0"
 1536      545F4D41 
 1536      4E545F44 
 1536      49475F5F 
 1536      20323400 
 1537 0de0 01       		.byte	0x1
 1538 0de1 00       		.uleb128 0
 1539 0de2 5F5F464C 		.ascii "__FLT_DIG__ 6\0"
 1539      545F4449 
 1539      475F5F20 
 1539      3600
 1540 0df0 01       		.byte	0x1
 1541 0df1 00       		.uleb128 0
 1542 0df2 5F5F464C 		.ascii "__FLT_MIN_EXP__ (-125)\0"
 1542      545F4D49 
 1542      4E5F4558 
 1542      505F5F20 
 1542      282D3132 
 1543 0e09 01       		.byte	0x1
 1544 0e0a 00       		.uleb128 0
 1545 0e0b 5F5F464C 		.ascii "__FLT_MIN_10_EXP__ (-37)\0"
 1545      545F4D49 
 1545      4E5F3130 
 1545      5F455850 
 1545      5F5F2028 
 1546 0e24 01       		.byte	0x1
 1547 0e25 00       		.uleb128 0
 1548 0e26 5F5F464C 		.ascii "__FLT_MAX_EXP__ 128\0"
 1548      545F4D41 
 1548      585F4558 
 1548      505F5F20 
 1548      31323800 
 1549 0e3a 01       		.byte	0x1
 1550 0e3b 00       		.uleb128 0
 1551 0e3c 5F5F464C 		.ascii "__FLT_MAX_10_EXP__ 38\0"
 1551      545F4D41 
 1551      585F3130 
 1551      5F455850 
 1551      5F5F2033 
 1552 0e52 01       		.byte	0x1
 1553 0e53 00       		.uleb128 0
GAS LISTING C:\Users\PRESID~1\AppData\Local\Temp\cc7fVbmG.s 			page 45


 1554 0e54 5F5F464C 		.ascii "__FLT_DECIMAL_DIG__ 9\0"
 1554      545F4445 
 1554      43494D41 
 1554      4C5F4449 
 1554      475F5F20 
 1555 0e6a 01       		.byte	0x1
 1556 0e6b 00       		.uleb128 0
 1557 0e6c 5F5F464C 		.ascii "__FLT_MAX__ 3.40282346638528859812e+38F\0"
 1557      545F4D41 
 1557      585F5F20 
 1557      332E3430 
 1557      32383233 
 1558 0e94 01       		.byte	0x1
 1559 0e95 00       		.uleb128 0
 1560 0e96 5F5F464C 		.ascii "__FLT_MIN__ 1.17549435082228750797e-38F\0"
 1560      545F4D49 
 1560      4E5F5F20 
 1560      312E3137 
 1560      35343934 
 1561 0ebe 01       		.byte	0x1
 1562 0ebf 00       		.uleb128 0
 1563 0ec0 5F5F464C 		.ascii "__FLT_EPSILON__ 1.19209289550781250000e-7F\0"
 1563      545F4550 
 1563      53494C4F 
 1563      4E5F5F20 
 1563      312E3139 
 1564 0eeb 01       		.byte	0x1
 1565 0eec 00       		.uleb128 0
 1566 0eed 5F5F464C 		.ascii "__FLT_DENORM_MIN__ 1.40129846432481707092e-45F\0"
 1566      545F4445 
 1566      4E4F524D 
 1566      5F4D494E 
 1566      5F5F2031 
 1567 0f1c 01       		.byte	0x1
 1568 0f1d 00       		.uleb128 0
 1569 0f1e 5F5F464C 		.ascii "__FLT_HAS_DENORM__ 1\0"
 1569      545F4841 
 1569      535F4445 
 1569      4E4F524D 
 1569      5F5F2031 
 1570 0f33 01       		.byte	0x1
 1571 0f34 00       		.uleb128 0
 1572 0f35 5F5F464C 		.ascii "__FLT_HAS_INFINITY__ 1\0"
 1572      545F4841 
 1572      535F494E 
 1572      46494E49 
 1572      54595F5F 
 1573 0f4c 01       		.byte	0x1
 1574 0f4d 00       		.uleb128 0
 1575 0f4e 5F5F464C 		.ascii "__FLT_HAS_QUIET_NAN__ 1\0"
 1575      545F4841 
 1575      535F5155 
 1575      4945545F 
 1575      4E414E5F 
 1576 0f66 01       		.byte	0x1
 1577 0f67 00       		.uleb128 0
 1578 0f68 5F5F4442 		.ascii "__DBL_MANT_DIG__ 53\0"
GAS LISTING C:\Users\PRESID~1\AppData\Local\Temp\cc7fVbmG.s 			page 46


 1578      4C5F4D41 
 1578      4E545F44 
 1578      49475F5F 
 1578      20353300 
 1579 0f7c 01       		.byte	0x1
 1580 0f7d 00       		.uleb128 0
 1581 0f7e 5F5F4442 		.ascii "__DBL_DIG__ 15\0"
 1581      4C5F4449 
 1581      475F5F20 
 1581      313500
 1582 0f8d 01       		.byte	0x1
 1583 0f8e 00       		.uleb128 0
 1584 0f8f 5F5F4442 		.ascii "__DBL_MIN_EXP__ (-1021)\0"
 1584      4C5F4D49 
 1584      4E5F4558 
 1584      505F5F20 
 1584      282D3130 
 1585 0fa7 01       		.byte	0x1
 1586 0fa8 00       		.uleb128 0
 1587 0fa9 5F5F4442 		.ascii "__DBL_MIN_10_EXP__ (-307)\0"
 1587      4C5F4D49 
 1587      4E5F3130 
 1587      5F455850 
 1587      5F5F2028 
 1588 0fc3 01       		.byte	0x1
 1589 0fc4 00       		.uleb128 0
 1590 0fc5 5F5F4442 		.ascii "__DBL_MAX_EXP__ 1024\0"
 1590      4C5F4D41 
 1590      585F4558 
 1590      505F5F20 
 1590      31303234 
 1591 0fda 01       		.byte	0x1
 1592 0fdb 00       		.uleb128 0
 1593 0fdc 5F5F4442 		.ascii "__DBL_MAX_10_EXP__ 308\0"
 1593      4C5F4D41 
 1593      585F3130 
 1593      5F455850 
 1593      5F5F2033 
 1594 0ff3 01       		.byte	0x1
 1595 0ff4 00       		.uleb128 0
 1596 0ff5 5F5F4442 		.ascii "__DBL_DECIMAL_DIG__ 17\0"
 1596      4C5F4445 
 1596      43494D41 
 1596      4C5F4449 
 1596      475F5F20 
 1597 100c 01       		.byte	0x1
 1598 100d 00       		.uleb128 0
 1599 100e 5F5F4442 		.ascii "__DBL_MAX__ ((double)1.79769313486231570815e+308L)\0"
 1599      4C5F4D41 
 1599      585F5F20 
 1599      2828646F 
 1599      75626C65 
 1600 1041 01       		.byte	0x1
 1601 1042 00       		.uleb128 0
 1602 1043 5F5F4442 		.ascii "__DBL_MIN__ ((double)2.22507385850720138309e-308L)\0"
 1602      4C5F4D49 
 1602      4E5F5F20 
GAS LISTING C:\Users\PRESID~1\AppData\Local\Temp\cc7fVbmG.s 			page 47


 1602      2828646F 
 1602      75626C65 
 1603 1076 01       		.byte	0x1
 1604 1077 00       		.uleb128 0
 1605 1078 5F5F4442 		.ascii "__DBL_EPSILON__ ((double)2.22044604925031308085e-16L)\0"
 1605      4C5F4550 
 1605      53494C4F 
 1605      4E5F5F20 
 1605      2828646F 
 1606 10ae 01       		.byte	0x1
 1607 10af 00       		.uleb128 0
 1608 10b0 5F5F4442 		.ascii "__DBL_DENORM_MIN__ ((double)4.94065645841246544177e-324L)\0"
 1608      4C5F4445 
 1608      4E4F524D 
 1608      5F4D494E 
 1608      5F5F2028 
 1609 10ea 01       		.byte	0x1
 1610 10eb 00       		.uleb128 0
 1611 10ec 5F5F4442 		.ascii "__DBL_HAS_DENORM__ 1\0"
 1611      4C5F4841 
 1611      535F4445 
 1611      4E4F524D 
 1611      5F5F2031 
 1612 1101 01       		.byte	0x1
 1613 1102 00       		.uleb128 0
 1614 1103 5F5F4442 		.ascii "__DBL_HAS_INFINITY__ 1\0"
 1614      4C5F4841 
 1614      535F494E 
 1614      46494E49 
 1614      54595F5F 
 1615 111a 01       		.byte	0x1
 1616 111b 00       		.uleb128 0
 1617 111c 5F5F4442 		.ascii "__DBL_HAS_QUIET_NAN__ 1\0"
 1617      4C5F4841 
 1617      535F5155 
 1617      4945545F 
 1617      4E414E5F 
 1618 1134 01       		.byte	0x1
 1619 1135 00       		.uleb128 0
 1620 1136 5F5F4C44 		.ascii "__LDBL_MANT_DIG__ 64\0"
 1620      424C5F4D 
 1620      414E545F 
 1620      4449475F 
 1620      5F203634 
 1621 114b 01       		.byte	0x1
 1622 114c 00       		.uleb128 0
 1623 114d 5F5F4C44 		.ascii "__LDBL_DIG__ 18\0"
 1623      424C5F44 
 1623      49475F5F 
 1623      20313800 
 1624 115d 01       		.byte	0x1
 1625 115e 00       		.uleb128 0
 1626 115f 5F5F4C44 		.ascii "__LDBL_MIN_EXP__ (-16381)\0"
 1626      424C5F4D 
 1626      494E5F45 
 1626      58505F5F 
 1626      20282D31 
GAS LISTING C:\Users\PRESID~1\AppData\Local\Temp\cc7fVbmG.s 			page 48


 1627 1179 01       		.byte	0x1
 1628 117a 00       		.uleb128 0
 1629 117b 5F5F4C44 		.ascii "__LDBL_MIN_10_EXP__ (-4931)\0"
 1629      424C5F4D 
 1629      494E5F31 
 1629      305F4558 
 1629      505F5F20 
 1630 1197 01       		.byte	0x1
 1631 1198 00       		.uleb128 0
 1632 1199 5F5F4C44 		.ascii "__LDBL_MAX_EXP__ 16384\0"
 1632      424C5F4D 
 1632      41585F45 
 1632      58505F5F 
 1632      20313633 
 1633 11b0 01       		.byte	0x1
 1634 11b1 00       		.uleb128 0
 1635 11b2 5F5F4C44 		.ascii "__LDBL_MAX_10_EXP__ 4932\0"
 1635      424C5F4D 
 1635      41585F31 
 1635      305F4558 
 1635      505F5F20 
 1636 11cb 01       		.byte	0x1
 1637 11cc 00       		.uleb128 0
 1638 11cd 5F5F4445 		.ascii "__DECIMAL_DIG__ 21\0"
 1638      43494D41 
 1638      4C5F4449 
 1638      475F5F20 
 1638      323100
 1639 11e0 01       		.byte	0x1
 1640 11e1 00       		.uleb128 0
 1641 11e2 5F5F4C44 		.ascii "__LDBL_MAX__ 1.18973149535723176502e+4932L\0"
 1641      424C5F4D 
 1641      41585F5F 
 1641      20312E31 
 1641      38393733 
 1642 120d 01       		.byte	0x1
 1643 120e 00       		.uleb128 0
 1644 120f 5F5F4C44 		.ascii "__LDBL_MIN__ 3.36210314311209350626e-4932L\0"
 1644      424C5F4D 
 1644      494E5F5F 
 1644      20332E33 
 1644      36323130 
 1645 123a 01       		.byte	0x1
 1646 123b 00       		.uleb128 0
 1647 123c 5F5F4C44 		.ascii "__LDBL_EPSILON__ 1.08420217248550443401e-19L\0"
 1647      424C5F45 
 1647      5053494C 
 1647      4F4E5F5F 
 1647      20312E30 
 1648 1269 01       		.byte	0x1
 1649 126a 00       		.uleb128 0
 1650 126b 5F5F4C44 		.ascii "__LDBL_DENORM_MIN__ 3.64519953188247460253e-4951L\0"
 1650      424C5F44 
 1650      454E4F52 
 1650      4D5F4D49 
 1650      4E5F5F20 
 1651 129d 01       		.byte	0x1
GAS LISTING C:\Users\PRESID~1\AppData\Local\Temp\cc7fVbmG.s 			page 49


 1652 129e 00       		.uleb128 0
 1653 129f 5F5F4C44 		.ascii "__LDBL_HAS_DENORM__ 1\0"
 1653      424C5F48 
 1653      41535F44 
 1653      454E4F52 
 1653      4D5F5F20 
 1654 12b5 01       		.byte	0x1
 1655 12b6 00       		.uleb128 0
 1656 12b7 5F5F4C44 		.ascii "__LDBL_HAS_INFINITY__ 1\0"
 1656      424C5F48 
 1656      41535F49 
 1656      4E46494E 
 1656      4954595F 
 1657 12cf 01       		.byte	0x1
 1658 12d0 00       		.uleb128 0
 1659 12d1 5F5F4C44 		.ascii "__LDBL_HAS_QUIET_NAN__ 1\0"
 1659      424C5F48 
 1659      41535F51 
 1659      55494554 
 1659      5F4E414E 
 1660 12ea 01       		.byte	0x1
 1661 12eb 00       		.uleb128 0
 1662 12ec 5F5F4445 		.ascii "__DEC32_MANT_DIG__ 7\0"
 1662      4333325F 
 1662      4D414E54 
 1662      5F444947 
 1662      5F5F2037 
 1663 1301 01       		.byte	0x1
 1664 1302 00       		.uleb128 0
 1665 1303 5F5F4445 		.ascii "__DEC32_MIN_EXP__ (-94)\0"
 1665      4333325F 
 1665      4D494E5F 
 1665      4558505F 
 1665      5F20282D 
 1666 131b 01       		.byte	0x1
 1667 131c 00       		.uleb128 0
 1668 131d 5F5F4445 		.ascii "__DEC32_MAX_EXP__ 97\0"
 1668      4333325F 
 1668      4D41585F 
 1668      4558505F 
 1668      5F203937 
 1669 1332 01       		.byte	0x1
 1670 1333 00       		.uleb128 0
 1671 1334 5F5F4445 		.ascii "__DEC32_MIN__ 1E-95DF\0"
 1671      4333325F 
 1671      4D494E5F 
 1671      5F203145 
 1671      2D393544 
 1672 134a 01       		.byte	0x1
 1673 134b 00       		.uleb128 0
 1674 134c 5F5F4445 		.ascii "__DEC32_MAX__ 9.999999E96DF\0"
 1674      4333325F 
 1674      4D41585F 
 1674      5F20392E 
 1674      39393939 
 1675 1368 01       		.byte	0x1
 1676 1369 00       		.uleb128 0
GAS LISTING C:\Users\PRESID~1\AppData\Local\Temp\cc7fVbmG.s 			page 50


 1677 136a 5F5F4445 		.ascii "__DEC32_EPSILON__ 1E-6DF\0"
 1677      4333325F 
 1677      45505349 
 1677      4C4F4E5F 
 1677      5F203145 
 1678 1383 01       		.byte	0x1
 1679 1384 00       		.uleb128 0
 1680 1385 5F5F4445 		.ascii "__DEC32_SUBNORMAL_MIN__ 0.000001E-95DF\0"
 1680      4333325F 
 1680      5355424E 
 1680      4F524D41 
 1680      4C5F4D49 
 1681 13ac 01       		.byte	0x1
 1682 13ad 00       		.uleb128 0
 1683 13ae 5F5F4445 		.ascii "__DEC64_MANT_DIG__ 16\0"
 1683      4336345F 
 1683      4D414E54 
 1683      5F444947 
 1683      5F5F2031 
 1684 13c4 01       		.byte	0x1
 1685 13c5 00       		.uleb128 0
 1686 13c6 5F5F4445 		.ascii "__DEC64_MIN_EXP__ (-382)\0"
 1686      4336345F 
 1686      4D494E5F 
 1686      4558505F 
 1686      5F20282D 
 1687 13df 01       		.byte	0x1
 1688 13e0 00       		.uleb128 0
 1689 13e1 5F5F4445 		.ascii "__DEC64_MAX_EXP__ 385\0"
 1689      4336345F 
 1689      4D41585F 
 1689      4558505F 
 1689      5F203338 
 1690 13f7 01       		.byte	0x1
 1691 13f8 00       		.uleb128 0
 1692 13f9 5F5F4445 		.ascii "__DEC64_MIN__ 1E-383DD\0"
 1692      4336345F 
 1692      4D494E5F 
 1692      5F203145 
 1692      2D333833 
 1693 1410 01       		.byte	0x1
 1694 1411 00       		.uleb128 0
 1695 1412 5F5F4445 		.ascii "__DEC64_MAX__ 9.999999999999999E384DD\0"
 1695      4336345F 
 1695      4D41585F 
 1695      5F20392E 
 1695      39393939 
 1696 1438 01       		.byte	0x1
 1697 1439 00       		.uleb128 0
 1698 143a 5F5F4445 		.ascii "__DEC64_EPSILON__ 1E-15DD\0"
 1698      4336345F 
 1698      45505349 
 1698      4C4F4E5F 
 1698      5F203145 
 1699 1454 01       		.byte	0x1
 1700 1455 00       		.uleb128 0
 1701 1456 5F5F4445 		.ascii "__DEC64_SUBNORMAL_MIN__ 0.000000000000001E-383DD\0"
GAS LISTING C:\Users\PRESID~1\AppData\Local\Temp\cc7fVbmG.s 			page 51


 1701      4336345F 
 1701      5355424E 
 1701      4F524D41 
 1701      4C5F4D49 
 1702 1487 01       		.byte	0x1
 1703 1488 00       		.uleb128 0
 1704 1489 5F5F4445 		.ascii "__DEC128_MANT_DIG__ 34\0"
 1704      43313238 
 1704      5F4D414E 
 1704      545F4449 
 1704      475F5F20 
 1705 14a0 01       		.byte	0x1
 1706 14a1 00       		.uleb128 0
 1707 14a2 5F5F4445 		.ascii "__DEC128_MIN_EXP__ (-6142)\0"
 1707      43313238 
 1707      5F4D494E 
 1707      5F455850 
 1707      5F5F2028 
 1708 14bd 01       		.byte	0x1
 1709 14be 00       		.uleb128 0
 1710 14bf 5F5F4445 		.ascii "__DEC128_MAX_EXP__ 6145\0"
 1710      43313238 
 1710      5F4D4158 
 1710      5F455850 
 1710      5F5F2036 
 1711 14d7 01       		.byte	0x1
 1712 14d8 00       		.uleb128 0
 1713 14d9 5F5F4445 		.ascii "__DEC128_MIN__ 1E-6143DL\0"
 1713      43313238 
 1713      5F4D494E 
 1713      5F5F2031 
 1713      452D3631 
 1714 14f2 01       		.byte	0x1
 1715 14f3 00       		.uleb128 0
 1716 14f4 5F5F4445 		.ascii "__DEC128_MAX__ 9.999999999999999999999999999999999E6144DL\0"
 1716      43313238 
 1716      5F4D4158 
 1716      5F5F2039 
 1716      2E393939 
 1717 152e 01       		.byte	0x1
 1718 152f 00       		.uleb128 0
 1719 1530 5F5F4445 		.ascii "__DEC128_EPSILON__ 1E-33DL\0"
 1719      43313238 
 1719      5F455053 
 1719      494C4F4E 
 1719      5F5F2031 
 1720 154b 01       		.byte	0x1
 1721 154c 00       		.uleb128 0
 1722 154d 5F5F4445 		.ascii "__DEC128_SUBNORMAL_MIN__ 0.000000000000000000000000000000001E-6143DL\0"
 1722      43313238 
 1722      5F535542 
 1722      4E4F524D 
 1722      414C5F4D 
 1723 1592 01       		.byte	0x1
 1724 1593 00       		.uleb128 0
 1725 1594 5F5F5245 		.ascii "__REGISTER_PREFIX__ \0"
 1725      47495354 
GAS LISTING C:\Users\PRESID~1\AppData\Local\Temp\cc7fVbmG.s 			page 52


 1725      45525F50 
 1725      52454649 
 1725      585F5F20 
 1726 15a9 01       		.byte	0x1
 1727 15aa 00       		.uleb128 0
 1728 15ab 5F5F5553 		.ascii "__USER_LABEL_PREFIX__ _\0"
 1728      45525F4C 
 1728      4142454C 
 1728      5F505245 
 1728      4649585F 
 1729 15c3 01       		.byte	0x1
 1730 15c4 00       		.uleb128 0
 1731 15c5 5F5F474E 		.ascii "__GNUC_GNU_INLINE__ 1\0"
 1731      55435F47 
 1731      4E555F49 
 1731      4E4C494E 
 1731      455F5F20 
 1732 15db 01       		.byte	0x1
 1733 15dc 00       		.uleb128 0
 1734 15dd 5F5F4E4F 		.ascii "__NO_INLINE__ 1\0"
 1734      5F494E4C 
 1734      494E455F 
 1734      5F203100 
 1735 15ed 01       		.byte	0x1
 1736 15ee 00       		.uleb128 0
 1737 15ef 5F5F5354 		.ascii "__STRICT_ANSI__ 1\0"
 1737      52494354 
 1737      5F414E53 
 1737      495F5F20 
 1737      3100
 1738 1601 01       		.byte	0x1
 1739 1602 00       		.uleb128 0
 1740 1603 5F5F4743 		.ascii "__GCC_ATOMIC_BOOL_LOCK_FREE 1\0"
 1740      435F4154 
 1740      4F4D4943 
 1740      5F424F4F 
 1740      4C5F4C4F 
 1741 1621 01       		.byte	0x1
 1742 1622 00       		.uleb128 0
 1743 1623 5F5F4743 		.ascii "__GCC_ATOMIC_CHAR_LOCK_FREE 1\0"
 1743      435F4154 
 1743      4F4D4943 
 1743      5F434841 
 1743      525F4C4F 
 1744 1641 01       		.byte	0x1
 1745 1642 00       		.uleb128 0
 1746 1643 5F5F4743 		.ascii "__GCC_ATOMIC_CHAR16_T_LOCK_FREE 1\0"
 1746      435F4154 
 1746      4F4D4943 
 1746      5F434841 
 1746      5231365F 
 1747 1665 01       		.byte	0x1
 1748 1666 00       		.uleb128 0
 1749 1667 5F5F4743 		.ascii "__GCC_ATOMIC_CHAR32_T_LOCK_FREE 1\0"
 1749      435F4154 
 1749      4F4D4943 
 1749      5F434841 
GAS LISTING C:\Users\PRESID~1\AppData\Local\Temp\cc7fVbmG.s 			page 53


 1749      5233325F 
 1750 1689 01       		.byte	0x1
 1751 168a 00       		.uleb128 0
 1752 168b 5F5F4743 		.ascii "__GCC_ATOMIC_WCHAR_T_LOCK_FREE 1\0"
 1752      435F4154 
 1752      4F4D4943 
 1752      5F574348 
 1752      41525F54 
 1753 16ac 01       		.byte	0x1
 1754 16ad 00       		.uleb128 0
 1755 16ae 5F5F4743 		.ascii "__GCC_ATOMIC_SHORT_LOCK_FREE 1\0"
 1755      435F4154 
 1755      4F4D4943 
 1755      5F53484F 
 1755      52545F4C 
 1756 16cd 01       		.byte	0x1
 1757 16ce 00       		.uleb128 0
 1758 16cf 5F5F4743 		.ascii "__GCC_ATOMIC_INT_LOCK_FREE 1\0"
 1758      435F4154 
 1758      4F4D4943 
 1758      5F494E54 
 1758      5F4C4F43 
 1759 16ec 01       		.byte	0x1
 1760 16ed 00       		.uleb128 0
 1761 16ee 5F5F4743 		.ascii "__GCC_ATOMIC_LONG_LOCK_FREE 1\0"
 1761      435F4154 
 1761      4F4D4943 
 1761      5F4C4F4E 
 1761      475F4C4F 
 1762 170c 01       		.byte	0x1
 1763 170d 00       		.uleb128 0
 1764 170e 5F5F4743 		.ascii "__GCC_ATOMIC_LLONG_LOCK_FREE 1\0"
 1764      435F4154 
 1764      4F4D4943 
 1764      5F4C4C4F 
 1764      4E475F4C 
 1765 172d 01       		.byte	0x1
 1766 172e 00       		.uleb128 0
 1767 172f 5F5F4743 		.ascii "__GCC_ATOMIC_TEST_AND_SET_TRUEVAL 1\0"
 1767      435F4154 
 1767      4F4D4943 
 1767      5F544553 
 1767      545F414E 
 1768 1753 01       		.byte	0x1
 1769 1754 00       		.uleb128 0
 1770 1755 5F5F4743 		.ascii "__GCC_ATOMIC_POINTER_LOCK_FREE 1\0"
 1770      435F4154 
 1770      4F4D4943 
 1770      5F504F49 
 1770      4E544552 
 1771 1776 01       		.byte	0x1
 1772 1777 00       		.uleb128 0
 1773 1778 5F5F4743 		.ascii "__GCC_HAVE_DWARF2_CFI_ASM 1\0"
 1773      435F4841 
 1773      56455F44 
 1773      57415246 
 1773      325F4346 
GAS LISTING C:\Users\PRESID~1\AppData\Local\Temp\cc7fVbmG.s 			page 54


 1774 1794 01       		.byte	0x1
 1775 1795 00       		.uleb128 0
 1776 1796 5F5F5052 		.ascii "__PRAGMA_REDEFINE_EXTNAME 1\0"
 1776      41474D41 
 1776      5F524544 
 1776      4546494E 
 1776      455F4558 
 1777 17b2 01       		.byte	0x1
 1778 17b3 00       		.uleb128 0
 1779 17b4 5F5F5349 		.ascii "__SIZEOF_WCHAR_T__ 2\0"
 1779      5A454F46 
 1779      5F574348 
 1779      41525F54 
 1779      5F5F2032 
 1780 17c9 01       		.byte	0x1
 1781 17ca 00       		.uleb128 0
 1782 17cb 5F5F5349 		.ascii "__SIZEOF_WINT_T__ 2\0"
 1782      5A454F46 
 1782      5F57494E 
 1782      545F545F 
 1782      5F203200 
 1783 17df 01       		.byte	0x1
 1784 17e0 00       		.uleb128 0
 1785 17e1 5F5F5349 		.ascii "__SIZEOF_PTRDIFF_T__ 4\0"
 1785      5A454F46 
 1785      5F505452 
 1785      44494646 
 1785      5F545F5F 
 1786 17f8 01       		.byte	0x1
 1787 17f9 00       		.uleb128 0
 1788 17fa 5F5F6933 		.ascii "__i386 1\0"
 1788      38362031 
 1788      00
 1789 1803 01       		.byte	0x1
 1790 1804 00       		.uleb128 0
 1791 1805 5F5F6933 		.ascii "__i386__ 1\0"
 1791      38365F5F 
 1791      203100
 1792 1810 01       		.byte	0x1
 1793 1811 00       		.uleb128 0
 1794 1812 5F5F4154 		.ascii "__ATOMIC_HLE_ACQUIRE 65536\0"
 1794      4F4D4943 
 1794      5F484C45 
 1794      5F414351 
 1794      55495245 
 1795 182d 01       		.byte	0x1
 1796 182e 00       		.uleb128 0
 1797 182f 5F5F4154 		.ascii "__ATOMIC_HLE_RELEASE 131072\0"
 1797      4F4D4943 
 1797      5F484C45 
 1797      5F52454C 
 1797      45415345 
 1798 184b 01       		.byte	0x1
 1799 184c 00       		.uleb128 0
 1800 184d 5F5F7475 		.ascii "__tune_i386__ 1\0"
 1800      6E655F69 
 1800      3338365F 
GAS LISTING C:\Users\PRESID~1\AppData\Local\Temp\cc7fVbmG.s 			page 55


 1800      5F203100 
 1801 185d 01       		.byte	0x1
 1802 185e 00       		.uleb128 0
 1803 185f 5F5F636F 		.ascii "__code_model_32__ 1\0"
 1803      64655F6D 
 1803      6F64656C 
 1803      5F33325F 
 1803      5F203100 
 1804 1873 01       		.byte	0x1
 1805 1874 00       		.uleb128 0
 1806 1875 5F583836 		.ascii "_X86_ 1\0"
 1806      5F203100 
 1807 187d 01       		.byte	0x1
 1808 187e 00       		.uleb128 0
 1809 187f 5F5F7374 		.ascii "__stdcall __attribute__((__stdcall__))\0"
 1809      6463616C 
 1809      6C205F5F 
 1809      61747472 
 1809      69627574 
 1810 18a6 01       		.byte	0x1
 1811 18a7 00       		.uleb128 0
 1812 18a8 5F5F6661 		.ascii "__fastcall __attribute__((__fastcall__))\0"
 1812      73746361 
 1812      6C6C205F 
 1812      5F617474 
 1812      72696275 
 1813 18d1 01       		.byte	0x1
 1814 18d2 00       		.uleb128 0
 1815 18d3 5F5F7468 		.ascii "__thiscall __attribute__((__thiscall__))\0"
 1815      69736361 
 1815      6C6C205F 
 1815      5F617474 
 1815      72696275 
 1816 18fc 01       		.byte	0x1
 1817 18fd 00       		.uleb128 0
 1818 18fe 5F5F6364 		.ascii "__cdecl __attribute__((__cdecl__))\0"
 1818      65636C20 
 1818      5F5F6174 
 1818      74726962 
 1818      7574655F 
 1819 1921 01       		.byte	0x1
 1820 1922 00       		.uleb128 0
 1821 1923 5F5F4758 		.ascii "__GXX_MERGED_TYPEINFO_NAMES 0\0"
 1821      585F4D45 
 1821      52474544 
 1821      5F545950 
 1821      45494E46 
 1822 1941 01       		.byte	0x1
 1823 1942 00       		.uleb128 0
 1824 1943 5F5F4758 		.ascii "__GXX_TYPEINFO_EQUALITY_INLINE 0\0"
 1824      585F5459 
 1824      5045494E 
 1824      464F5F45 
 1824      5155414C 
 1825 1964 01       		.byte	0x1
 1826 1965 00       		.uleb128 0
 1827 1966 5F5F4D53 		.ascii "__MSVCRT__ 1\0"
GAS LISTING C:\Users\PRESID~1\AppData\Local\Temp\cc7fVbmG.s 			page 56


 1827      56435254 
 1827      5F5F2031 
 1827      00
 1828 1973 01       		.byte	0x1
 1829 1974 00       		.uleb128 0
 1830 1975 5F5F4D49 		.ascii "__MINGW32__ 1\0"
 1830      4E475733 
 1830      325F5F20 
 1830      3100
 1831 1983 01       		.byte	0x1
 1832 1984 00       		.uleb128 0
 1833 1985 5F57494E 		.ascii "_WIN32 1\0"
 1833      33322031 
 1833      00
 1834 198e 01       		.byte	0x1
 1835 198f 00       		.uleb128 0
 1836 1990 5F5F5749 		.ascii "__WIN32 1\0"
 1836      4E333220 
 1836      3100
 1837 199a 01       		.byte	0x1
 1838 199b 00       		.uleb128 0
 1839 199c 5F5F5749 		.ascii "__WIN32__ 1\0"
 1839      4E33325F 
 1839      5F203100 
 1840 19a8 01       		.byte	0x1
 1841 19a9 00       		.uleb128 0
 1842 19aa 5F5F5749 		.ascii "__WINNT 1\0"
 1842      4E4E5420 
 1842      3100
 1843 19b4 01       		.byte	0x1
 1844 19b5 00       		.uleb128 0
 1845 19b6 5F5F5749 		.ascii "__WINNT__ 1\0"
 1845      4E4E545F 
 1845      5F203100 
 1846 19c2 01       		.byte	0x1
 1847 19c3 00       		.uleb128 0
 1848 19c4 5F494E54 		.ascii "_INTEGRAL_MAX_BITS 64\0"
 1848      45475241 
 1848      4C5F4D41 
 1848      585F4249 
 1848      54532036 
 1849 19da 01       		.byte	0x1
 1850 19db 00       		.uleb128 0
 1851 19dc 5F5F6465 		.ascii "__declspec(x) __attribute__((x))\0"
 1851      636C7370 
 1851      65632878 
 1851      29205F5F 
 1851      61747472 
 1852 19fd 01       		.byte	0x1
 1853 19fe 00       		.uleb128 0
 1854 19ff 5F5F4445 		.ascii "__DECIMAL_BID_FORMAT__ 1\0"
 1854      43494D41 
 1854      4C5F4249 
 1854      445F464F 
 1854      524D4154 
 1855 1a18 01       		.byte	0x1
 1856 1a19 00       		.uleb128 0
GAS LISTING C:\Users\PRESID~1\AppData\Local\Temp\cc7fVbmG.s 			page 57


 1857 1a1a 4346475F 		.ascii "CFG_PROCESSOR 3\0"
 1857      50524F43 
 1857      4553534F 
 1857      52203300 
 1858 1a2a 03       		.byte	0x3
 1859 1a2b 00       		.uleb128 0
 1860 1a2c 01       		.uleb128 0x1
 1861              		.file 6 "E:/NeuOrga/Programmieren/c_cpp/github_os/input/src/os_base/os_firstinc.h"
 1862 1a2d 03       		.byte	0x3
 1863 1a2e 01       		.uleb128 0x1
 1864 1a2f 06       		.uleb128 0x6
 1865 1a30 01       		.byte	0x1
 1866 1a31 02       		.uleb128 0x2
 1867 1a32 5F6F735F 		.ascii "_os_firstinc_h_ \0"
 1867      66697273 
 1867      74696E63 
 1867      5F685F20 
 1867      00
 1868 1a43 03       		.byte	0x3
 1869 1a44 04       		.uleb128 0x4
 1870 1a45 02       		.uleb128 0x2
 1871 1a46 01       		.byte	0x1
 1872 1a47 02       		.uleb128 0x2
 1873 1a48 5F424153 		.ascii "_BASE_TYPES_H_ \0"
 1873      455F5459 
 1873      5045535F 
 1873      485F2000 
 1874 1a58 01       		.byte	0x1
 1875 1a59 04       		.uleb128 0x4
 1876 1a5a 494E5445 		.ascii "INTEGER_LLP64_IL32P64 1\0"
 1876      4745525F 
 1876      4C4C5036 
 1876      345F494C 
 1876      33325036 
 1877 1a72 01       		.byte	0x1
 1878 1a73 05       		.uleb128 0x5
 1879 1a74 494E5445 		.ascii "INTEGER_LP64_I32LP64 2\0"
 1879      4745525F 
 1879      4C503634 
 1879      5F493332 
 1879      4C503634 
 1880 1a8b 01       		.byte	0x1
 1881 1a8c 06       		.uleb128 0x6
 1882 1a8d 494E5445 		.ascii "INTEGER_ILP64 3\0"
 1882      4745525F 
 1882      494C5036 
 1882      34203300 
 1883 1a9d 01       		.byte	0x1
 1884 1a9e 07       		.uleb128 0x7
 1885 1a9f 494E5445 		.ascii "INTEGER_SILP64 4\0"
 1885      4745525F 
 1885      53494C50 
 1885      36342034 
 1885      00
 1886 1ab0 01       		.byte	0x1
 1887 1ab1 09       		.uleb128 0x9
 1888 1ab2 4350505F 		.ascii "CPP_VERSION_NONE 0\0"
GAS LISTING C:\Users\PRESID~1\AppData\Local\Temp\cc7fVbmG.s 			page 58


 1888      56455253 
 1888      494F4E5F 
 1888      4E4F4E45 
 1888      203000
 1889 1ac5 01       		.byte	0x1
 1890 1ac6 0A       		.uleb128 0xa
 1891 1ac7 4350505F 		.ascii "CPP_VERSION_1998 1\0"
 1891      56455253 
 1891      494F4E5F 
 1891      31393938 
 1891      203100
 1892 1ada 01       		.byte	0x1
 1893 1adb 0B       		.uleb128 0xb
 1894 1adc 4350505F 		.ascii "CPP_VERSION_2003 2\0"
 1894      56455253 
 1894      494F4E5F 
 1894      32303033 
 1894      203200
 1895 1aef 01       		.byte	0x1
 1896 1af0 0C       		.uleb128 0xc
 1897 1af1 4350505F 		.ascii "CPP_VERSION_2007 3\0"
 1897      56455253 
 1897      494F4E5F 
 1897      32303037 
 1897      203300
 1898 1b04 01       		.byte	0x1
 1899 1b05 0D       		.uleb128 0xd
 1900 1b06 4350505F 		.ascii "CPP_VERSION_2011 4\0"
 1900      56455253 
 1900      494F4E5F 
 1900      32303131 
 1900      203400
 1901 1b19 01       		.byte	0x1
 1902 1b1a 0E       		.uleb128 0xe
 1903 1b1b 49534F5F 		.ascii "ISO_CPP_VERSION CPP_VERSION_1998\0"
 1903      4350505F 
 1903      56455253 
 1903      494F4E20 
 1903      4350505F 
 1904 1b3c 01       		.byte	0x1
 1905 1b3d 10       		.uleb128 0x10
 1906 1b3e 494E5445 		.ascii "INTEGER_MODEL INTEGER_LLP64_IL32P64\0"
 1906      4745525F 
 1906      4D4F4445 
 1906      4C20494E 
 1906      54454745 
 1907 1b62 04       		.byte	0x4
 1908 1b63 03       		.byte	0x3
 1909 1b64 05       		.uleb128 0x5
 1910 1b65 03       		.uleb128 0x3
 1911 1b66 01       		.byte	0x1
 1912 1b67 02       		.uleb128 0x2
 1913 1b68 5F6F735F 		.ascii "_os_common_h_ \0"
 1913      636F6D6D 
 1913      6F6E5F68 
 1913      5F2000
 1914 1b77 01       		.byte	0x1
GAS LISTING C:\Users\PRESID~1\AppData\Local\Temp\cc7fVbmG.s 			page 59


 1915 1b78 06       		.uleb128 0x6
 1916 1b79 46616C73 		.ascii "False 0\0"
 1916      65203000 
 1917 1b81 01       		.byte	0x1
 1918 1b82 07       		.uleb128 0x7
 1919 1b83 54727565 		.ascii "True 1\0"
 1919      203100
 1920 1b8a 01       		.byte	0x1
 1921 1b8b 08       		.uleb128 0x8
 1922 1b8c 46414C53 		.ascii "FALSE False\0"
 1922      45204661 
 1922      6C736500 
 1923 1b98 01       		.byte	0x1
 1924 1b99 09       		.uleb128 0x9
 1925 1b9a 54525545 		.ascii "TRUE True\0"
 1925      20547275 
 1925      6500
 1926 1ba4 01       		.byte	0x1
 1927 1ba5 0A       		.uleb128 0xa
 1928 1ba6 41636365 		.ascii "Accepted 1\0"
 1928      70746564 
 1928      203100
 1929 1bb1 01       		.byte	0x1
 1930 1bb2 0B       		.uleb128 0xb
 1931 1bb3 52656A65 		.ascii "Rejected 0\0"
 1931      63746564 
 1931      203000
 1932 1bbe 01       		.byte	0x1
 1933 1bbf 0C       		.uleb128 0xc
 1934 1bc0 4C6F6361 		.ascii "Local static\0"
 1934      6C207374 
 1934      61746963 
 1934      00
 1935 1bcd 01       		.byte	0x1
 1936 1bce 0D       		.uleb128 0xd
 1937 1bcf 4C6F6361 		.ascii "Local_inline static __inline__\0"
 1937      6C5F696E 
 1937      6C696E65 
 1937      20737461 
 1937      74696320 
 1938 1bee 01       		.byte	0x1
 1939 1bef 0E       		.uleb128 0xe
 1940 1bf0 476C6F62 		.ascii "Global_inline __inline__\0"
 1940      616C5F69 
 1940      6E6C696E 
 1940      65205F5F 
 1940      696E6C69 
 1941 1c09 01       		.byte	0x1
 1942 1c0a 0F       		.uleb128 0xf
 1943 1c0b 52656665 		.ascii "ReferenceUnusedParameter(x) ((x) = (x))\0"
 1943      72656E63 
 1943      65556E75 
 1943      73656450 
 1943      6172616D 
 1944 1c33 01       		.byte	0x1
 1945 1c34 10       		.uleb128 0x10
 1946 1c35 44796E61 		.ascii "DynamicMemoryUsed False\0"
GAS LISTING C:\Users\PRESID~1\AppData\Local\Temp\cc7fVbmG.s 			page 60


 1946      6D69634D 
 1946      656D6F72 
 1946      79557365 
 1946      64204661 
 1947 1c4d 01       		.byte	0x1
 1948 1c4e 13       		.uleb128 0x13
 1949 1c4f 634D4355 		.ascii "cMCU_X86 3\0"
 1949      5F583836 
 1949      203300
 1950 1c5a 01       		.byte	0x1
 1951 1c5b 14       		.uleb128 0x14
 1952 1c5c 634D4355 		.ascii "cMCU_CORTEX_M4 4\0"
 1952      5F434F52 
 1952      5445585F 
 1952      4D342034 
 1952      00
 1953 1c6d 01       		.byte	0x1
 1954 1c6e 17       		.uleb128 0x17
 1955 1c6f 4E525F4F 		.ascii "NR_OF_CORES 1\0"
 1955      465F434F 
 1955      52455320 
 1955      3100
 1956 1c7d 01       		.byte	0x1
 1957 1c7e 19       		.uleb128 0x19
 1958 1c7f 4D43555F 		.ascii "MCU_CLOCK_IN_HZ ((uint32)168000000u)\0"
 1958      434C4F43 
 1958      4B5F494E 
 1958      5F485A20 
 1958      28287569 
 1959 1ca4 01       		.byte	0x1
 1960 1ca5 1D       		.uleb128 0x1d
 1961 1ca6 44697361 		.ascii "DisableInterrupts() \0"
 1961      626C6549 
 1961      6E746572 
 1961      72757074 
 1961      73282920 
 1962 1cbb 01       		.byte	0x1
 1963 1cbc 1E       		.uleb128 0x1e
 1964 1cbd 456E6162 		.ascii "EnableInterrupts() \0"
 1964      6C65496E 
 1964      74657272 
 1964      75707473 
 1964      28292000 
 1965 1cd1 01       		.byte	0x1
 1966 1cd2 1F       		.uleb128 0x1f
 1967 1cd3 50726976 		.ascii "Privilige_level_save_current() \0"
 1967      696C6967 
 1967      655F6C65 
 1967      76656C5F 
 1967      73617665 
 1968 1cf3 01       		.byte	0x1
 1969 1cf4 20       		.uleb128 0x20
 1970 1cf5 50726976 		.ascii "Privilige_level_enter_kernel_mode() \0"
 1970      696C6967 
 1970      655F6C65 
 1970      76656C5F 
 1970      656E7465 
GAS LISTING C:\Users\PRESID~1\AppData\Local\Temp\cc7fVbmG.s 			page 61


 1971 1d1a 01       		.byte	0x1
 1972 1d1b 21       		.uleb128 0x21
 1973 1d1c 50726976 		.ascii "Privilige_level_restore_saved() \0"
 1973      696C6967 
 1973      655F6C65 
 1973      76656C5F 
 1973      72657374 
 1974 1d3d 01       		.byte	0x1
 1975 1d3e 22       		.uleb128 0x22
 1976 1d3f 48616C74 		.ascii "HaltMcu() \0"
 1976      4D637528 
 1976      292000
 1977 1d4a 01       		.byte	0x1
 1978 1d4b 5A       		.uleb128 0x5a
 1979 1d4c 42696749 		.ascii "BigIntSize 16\0"
 1979      6E745369 
 1979      7A652031 
 1979      3600
 1980 1d5a 04       		.byte	0x4
 1981              		.file 7 "E:/NeuOrga/Programmieren/c_cpp/github_os/input/src/os_base/../os_sim/lld_global.h"
 1982 1d5b 03       		.byte	0x3
 1983 1d5c 08       		.uleb128 0x8
 1984 1d5d 07       		.uleb128 0x7
 1985 1d5e 01       		.byte	0x1
 1986 1d5f 02       		.uleb128 0x2
 1987 1d60 5F6C6C64 		.ascii "_lld_global_h_ \0"
 1987      5F676C6F 
 1987      62616C5F 
 1987      685F2000 
 1988 1d70 03       		.byte	0x3
 1989 1d71 04       		.uleb128 0x4
 1990 1d72 04       		.uleb128 0x4
 1991 1d73 01       		.byte	0x1
 1992 1d74 02       		.uleb128 0x2
 1993 1d75 5F6C6C64 		.ascii "_lld_core_h_ \0"
 1993      5F636F72 
 1993      655F685F 
 1993      2000
 1994              		.file 8 "E:/NeuOrga/Programmieren/c_cpp/github_os/input/src/os_base/../os_sim/../os_base/os_firsti
 1995 1d83 03       		.byte	0x3
 1996 1d84 03       		.uleb128 0x3
 1997 1d85 08       		.uleb128 0x8
 1998 1d86 04       		.byte	0x4
 1999 1d87 04       		.byte	0x4
 2000              		.file 9 "E:/NeuOrga/Programmieren/c_cpp/github_os/input/src/os_base/../os_sim/lld_interrupt.h"
 2001 1d88 03       		.byte	0x3
 2002 1d89 05       		.uleb128 0x5
 2003 1d8a 09       		.uleb128 0x9
 2004 1d8b 01       		.byte	0x1
 2005 1d8c 02       		.uleb128 0x2
 2006 1d8d 5F6C6C64 		.ascii "_lld_interrupt_h_ \0"
 2006      5F696E74 
 2006      65727275 
 2006      70745F68 
 2006      5F2000
 2007 1da0 01       		.byte	0x1
 2008 1da1 05       		.uleb128 0x5
GAS LISTING C:\Users\PRESID~1\AppData\Local\Temp\cc7fVbmG.s 			page 62


 2009 1da2 6F735F69 		.ascii "os_interrupt_swi_1 asm(\"swi 1\")\0"
 2009      6E746572 
 2009      72757074 
 2009      5F737769 
 2009      5F312061 
 2010 1dc2 01       		.byte	0x1
 2011 1dc3 06       		.uleb128 0x6
 2012 1dc4 6F735F69 		.ascii "os_interrupt_swi_2 asm(\"swi 2\")\0"
 2012      6E746572 
 2012      72757074 
 2012      5F737769 
 2012      5F322061 
 2013 1de4 01       		.byte	0x1
 2014 1de5 07       		.uleb128 0x7
 2015 1de6 6F735F69 		.ascii "os_interrupt_swi_3 asm(\"swi 3\")\0"
 2015      6E746572 
 2015      72757074 
 2015      5F737769 
 2015      5F332061 
 2016 1e06 01       		.byte	0x1
 2017 1e07 08       		.uleb128 0x8
 2018 1e08 6F735F69 		.ascii "os_interrupt_swi_4 asm(\"swi 4\")\0"
 2018      6E746572 
 2018      72757074 
 2018      5F737769 
 2018      5F342061 
 2019 1e28 01       		.byte	0x1
 2020 1e29 09       		.uleb128 0x9
 2021 1e2a 6F735F69 		.ascii "os_interrupt_swi_5 asm(\"swi 5\")\0"
 2021      6E746572 
 2021      72757074 
 2021      5F737769 
 2021      5F352061 
 2022 1e4a 04       		.byte	0x4
 2023              		.file 10 "E:/NeuOrga/Programmieren/c_cpp/github_os/input/src/os_base/../os_sim/lld_mmu.h"
 2024 1e4b 03       		.byte	0x3
 2025 1e4c 06       		.uleb128 0x6
 2026 1e4d 0A       		.uleb128 0xa
 2027 1e4e 01       		.byte	0x1
 2028 1e4f 02       		.uleb128 0x2
 2029 1e50 5F6C6C64 		.ascii "_lld_mmu_h_ \0"
 2029      5F6D6D75 
 2029      5F685F20 
 2029      00
 2030 1e5d 04       		.byte	0x4
 2031              		.file 11 "E:/NeuOrga/Programmieren/c_cpp/github_os/input/src/os_base/../os_sim/lld_timer.h"
 2032 1e5e 03       		.byte	0x3
 2033 1e5f 07       		.uleb128 0x7
 2034 1e60 0B       		.uleb128 0xb
 2035 1e61 01       		.byte	0x1
 2036 1e62 02       		.uleb128 0x2
 2037 1e63 5F6C6C64 		.ascii "_lld_timer_h_ \0"
 2037      5F74696D 
 2037      65725F68 
 2037      5F2000
 2038 1e72 04       		.byte	0x4
 2039              		.file 12 "E:/NeuOrga/Programmieren/c_cpp/github_os/input/src/os_base/../os_sim/lld_power.h"
GAS LISTING C:\Users\PRESID~1\AppData\Local\Temp\cc7fVbmG.s 			page 63


 2040 1e73 03       		.byte	0x3
 2041 1e74 08       		.uleb128 0x8
 2042 1e75 0C       		.uleb128 0xc
 2043 1e76 01       		.byte	0x1
 2044 1e77 02       		.uleb128 0x2
 2045 1e78 5F6C6C64 		.ascii "_lld_power_h_ \0"
 2045      5F706F77 
 2045      65725F68 
 2045      5F2000
 2046 1e87 04       		.byte	0x4
 2047              		.file 13 "E:/NeuOrga/Programmieren/c_cpp/github_os/input/src/os_base/../os_sim/lld_ram.h"
 2048 1e88 03       		.byte	0x3
 2049 1e89 09       		.uleb128 0x9
 2050 1e8a 0D       		.uleb128 0xd
 2051 1e8b 01       		.byte	0x1
 2052 1e8c 02       		.uleb128 0x2
 2053 1e8d 5F6C6C64 		.ascii "_lld_ram_h_ \0"
 2053      5F72616D 
 2053      5F685F20 
 2053      00
 2054 1e9a 04       		.byte	0x4
 2055 1e9b 03       		.byte	0x3
 2056 1e9c 0A       		.uleb128 0xa
 2057 1e9d 05       		.uleb128 0x5
 2058 1e9e 01       		.byte	0x1
 2059 1e9f 02       		.uleb128 0x2
 2060 1ea0 5F6F735F 		.ascii "_os_task_common_h_ \0"
 2060      7461736B 
 2060      5F636F6D 
 2060      6D6F6E5F 
 2060      685F2000 
 2061 1eb4 03       		.byte	0x3
 2062 1eb5 03       		.uleb128 0x3
 2063 1eb6 08       		.uleb128 0x8
 2064 1eb7 04       		.byte	0x4
 2065              		.file 14 "E:/NeuOrga/Programmieren/c_cpp/github_os/input/src/os_base/../os_sim/../os_base/os_task_
 2066 1eb8 03       		.byte	0x3
 2067 1eb9 04       		.uleb128 0x4
 2068 1eba 0E       		.uleb128 0xe
 2069 1ebb 01       		.byte	0x1
 2070 1ebc 02       		.uleb128 0x2
 2071 1ebd 5F6F735F 		.ascii "_os_task_config_h_ \0"
 2071      7461736B 
 2071      5F636F6E 
 2071      6669675F 
 2071      685F2000 
 2072 1ed1 01       		.byte	0x1
 2073 1ed2 05       		.uleb128 0x5
 2074 1ed3 53636865 		.ascii "SchedulerFrequency (1.0e3)\0"
 2074      64756C65 
 2074      72467265 
 2074      7175656E 
 2074      63792028 
 2075 1eee 01       		.byte	0x1
 2076 1eef 06       		.uleb128 0x6
 2077 1ef0 4D696E54 		.ascii "MinTimeSlice_s (1.0/SchedulerFrequency)\0"
 2077      696D6553 
GAS LISTING C:\Users\PRESID~1\AppData\Local\Temp\cc7fVbmG.s 			page 64


 2077      6C696365 
 2077      5F732028 
 2077      312E302F 
 2078 1f18 01       		.byte	0x1
 2079 1f19 07       		.uleb128 0x7
 2080 1f1a 4D696E54 		.ascii "MinTimeSlice_us ((1.0/SchedulerFrequency)*1e6)\0"
 2080      696D6553 
 2080      6C696365 
 2080      5F757320 
 2080      2828312E 
 2081 1f49 01       		.byte	0x1
 2082 1f4a 08       		.uleb128 0x8
 2083 1f4b 5461736B 		.ascii "Task_min_time (1e0)\0"
 2083      5F6D696E 
 2083      5F74696D 
 2083      65202831 
 2083      65302900 
 2084 1f5f 01       		.byte	0x1
 2085 1f60 09       		.uleb128 0x9
 2086 1f61 4E554D42 		.ascii "NUMBER_OF_TASKS 10\0"
 2086      45525F4F 
 2086      465F5441 
 2086      534B5320 
 2086      313000
 2087 1f74 01       		.byte	0x1
 2088 1f75 0A       		.uleb128 0xa
 2089 1f76 4D41585F 		.ascii "MAX_RUN_QUEUE_SIZE (NUMBER_OF_TASKS)\0"
 2089      52554E5F 
 2089      51554555 
 2089      455F5349 
 2089      5A452028 
 2090 1f9b 01       		.byte	0x1
 2091 1f9c 0B       		.uleb128 0xb
 2092 1f9d 4D41585F 		.ascii "MAX_RUN_PQUEUE_SIZE MAX_RUN_QUEUE_SIZE\0"
 2092      52554E5F 
 2092      50515545 
 2092      55455F53 
 2092      495A4520 
 2093 1fc4 01       		.byte	0x1
 2094 1fc5 0D       		.uleb128 0xd
 2095 1fc6 5441534B 		.ascii "TASK_STACK_SIZE 2000\0"
 2095      5F535441 
 2095      434B5F53 
 2095      495A4520 
 2095      32303030 
 2096 1fdb 01       		.byte	0x1
 2097 1fdc 10       		.uleb128 0x10
 2098 1fdd 4D535F50 		.ascii "MS_PER_SEC (1000)\0"
 2098      45525F53 
 2098      45432028 
 2098      31303030 
 2098      2900
 2099 1fef 01       		.byte	0x1
 2100 1ff0 11       		.uleb128 0x11
 2101 1ff1 5553455F 		.ascii "USE_STATIC_CREATED_TASKS True\0"
 2101      53544154 
 2101      49435F43 
GAS LISTING C:\Users\PRESID~1\AppData\Local\Temp\cc7fVbmG.s 			page 65


 2101      52454154 
 2101      45445F54 
 2102 200f 04       		.byte	0x4
 2103              		.file 15 "E:/NeuOrga/Programmieren/c_cpp/github_os/input/src/os_base/../os_sim/../os_base/os_init_
 2104 2010 03       		.byte	0x3
 2105 2011 05       		.uleb128 0x5
 2106 2012 0F       		.uleb128 0xf
 2107 2013 01       		.byte	0x1
 2108 2014 02       		.uleb128 0x2
 2109 2015 5F6F735F 		.ascii "_os_init_task_system_h_ \0"
 2109      696E6974 
 2109      5F746173 
 2109      6B5F7379 
 2109      7374656D 
 2110 202e 04       		.byte	0x4
 2111 202f 01       		.byte	0x1
 2112 2030 5F       		.uleb128 0x5f
 2113 2031 6F735F53 		.ascii "os_SaveTaskPtr(task_ptr,task_name) (TASK_PTR[(task_name)] = (task_ptr))\0"
 2113      61766554 
 2113      61736B50 
 2113      74722874 
 2113      61736B5F 
 2114 2079 01       		.byte	0x1
 2115 207a 60       		.uleb128 0x60
 2116 207b 6F735F47 		.ascii "os_GetTaskPtr(task_name) ((task_t*) TASK_PTR[(task_name)])\0"
 2116      65745461 
 2116      736B5074 
 2116      72287461 
 2116      736B5F6E 
 2117 20b6 04       		.byte	0x4
 2118 20b7 04       		.byte	0x4
 2119              		.file 16 "E:/NeuOrga/Programmieren/c_cpp/github_os/input/src/os_base/../os_user_code/led.h"
 2120 20b8 03       		.byte	0x3
 2121 20b9 0C       		.uleb128 0xc
 2122 20ba 10       		.uleb128 0x10
 2123 20bb 01       		.byte	0x1
 2124 20bc 02       		.uleb128 0x2
 2125 20bd 5F4C4544 		.ascii "_LED_H_ \0"
 2125      5F485F20 
 2125      00
 2126 20c6 04       		.byte	0x4
 2127              		.file 17 "E:/NeuOrga/Programmieren/c_cpp/github_os/input/src/os_base/../os_base/os_ram.h"
 2128 20c7 03       		.byte	0x3
 2129 20c8 0E       		.uleb128 0xe
 2130 20c9 11       		.uleb128 0x11
 2131 20ca 01       		.byte	0x1
 2132 20cb 02       		.uleb128 0x2
 2133 20cc 5F4F535F 		.ascii "_OS_RAM_H_ \0"
 2133      52414D5F 
 2133      485F2000 
 2134              		.file 18 "E:/NeuOrga/Programmieren/c_cpp/github_os/input/src/os_base/../os_base/os_firstinc.h"
 2135 20d8 03       		.byte	0x3
 2136 20d9 04       		.uleb128 0x4
 2137 20da 12       		.uleb128 0x12
 2138 20db 04       		.byte	0x4
 2139              		.file 19 "E:/NeuOrga/Programmieren/c_cpp/github_os/input/src/os_base/../os_base/os_stack.h"
 2140 20dc 03       		.byte	0x3
GAS LISTING C:\Users\PRESID~1\AppData\Local\Temp\cc7fVbmG.s 			page 66


 2141 20dd 05       		.uleb128 0x5
 2142 20de 13       		.uleb128 0x13
 2143 20df 01       		.byte	0x1
 2144 20e0 02       		.uleb128 0x2
 2145 20e1 5F6F735F 		.ascii "_os_stack_h_ \0"
 2145      73746163 
 2145      6B5F685F 
 2145      2000
 2146 20ef 01       		.byte	0x1
 2147 20f0 04       		.uleb128 0x4
 2148 20f1 4F535F53 		.ascii "OS_STACK_SIZE 0x200u\0"
 2148      5441434B 
 2148      5F53495A 
 2148      45203078 
 2148      32303075 
 2149 2106 04       		.byte	0x4
 2150              		.file 20 "E:/NeuOrga/Programmieren/c_cpp/github_os/input/src/os_base/../os_base/os_heap.h"
 2151 2107 03       		.byte	0x3
 2152 2108 06       		.uleb128 0x6
 2153 2109 14       		.uleb128 0x14
 2154 210a 01       		.byte	0x1
 2155 210b 02       		.uleb128 0x2
 2156 210c 5F6F735F 		.ascii "_os_heap_h_ \0"
 2156      68656170 
 2156      5F685F20 
 2156      00
 2157 2119 01       		.byte	0x1
 2158 211a 05       		.uleb128 0x5
 2159 211b 48454150 		.ascii "HEAP_SIZE 10000\0"
 2159      5F53495A 
 2159      45203130 
 2159      30303000 
 2160 212b 01       		.byte	0x1
 2161 212c 06       		.uleb128 0x6
 2162 212d 4D494E5F 		.ascii "MIN_BLOCK_SIZE_HEAP 8\0"
 2162      424C4F43 
 2162      4B5F5349 
 2162      5A455F48 
 2162      45415020 
 2163 2143 01       		.byte	0x1
 2164 2144 09       		.uleb128 0x9
 2165 2145 48454150 		.ascii "HEAP_OFFSET_FOR_SIZE 0\0"
 2165      5F4F4646 
 2165      5345545F 
 2165      464F525F 
 2165      53495A45 
 2166 215c 01       		.byte	0x1
 2167 215d 0A       		.uleb128 0xa
 2168 215e 48454150 		.ascii "HEAP_OFFSET_FOR_USED_SIZE 4\0"
 2168      5F4F4646 
 2168      5345545F 
 2168      464F525F 
 2168      55534544 
 2169 217a 01       		.byte	0x1
 2170 217b 0B       		.uleb128 0xb
 2171 217c 48454150 		.ascii "HEAP_OFFSET_FOR_CHUNK 8\0"
 2171      5F4F4646 
GAS LISTING C:\Users\PRESID~1\AppData\Local\Temp\cc7fVbmG.s 			page 67


 2171      5345545F 
 2171      464F525F 
 2171      4348554E 
 2172 2194 04       		.byte	0x4
 2173              		.file 21 "E:/NeuOrga/Programmieren/c_cpp/github_os/input/src/os_base/../os_base/os_main.h"
 2174 2195 03       		.byte	0x3
 2175 2196 07       		.uleb128 0x7
 2176 2197 15       		.uleb128 0x15
 2177 2198 01       		.byte	0x1
 2178 2199 02       		.uleb128 0x2
 2179 219a 5F6F735F 		.ascii "_os_main_h_ \0"
 2179      6D61696E 
 2179      5F685F20 
 2179      00
 2180 21a7 01       		.byte	0x1
 2181 21a8 03       		.uleb128 0x3
 2182 21a9 6F735F69 		.ascii "os_init 0\0"
 2182      6E697420 
 2182      3000
 2183 21b3 01       		.byte	0x1
 2184 21b4 04       		.uleb128 0x4
 2185 21b5 6F735F72 		.ascii "os_running 1\0"
 2185      756E6E69 
 2185      6E672031 
 2185      00
 2186 21c2 01       		.byte	0x1
 2187 21c3 05       		.uleb128 0x5
 2188 21c4 6F735F73 		.ascii "os_shutdown 2\0"
 2188      68757464 
 2188      6F776E20 
 2188      3200
 2189 21d2 04       		.byte	0x4
 2190              		.file 22 "E:/NeuOrga/Programmieren/c_cpp/github_os/input/src/os_base/../os_base/os_task_config.h"
 2191 21d3 03       		.byte	0x3
 2192 21d4 08       		.uleb128 0x8
 2193 21d5 16       		.uleb128 0x16
 2194 21d6 04       		.byte	0x4
 2195              		.file 23 "E:/NeuOrga/Programmieren/c_cpp/github_os/input/src/os_base/../os_base/os_task_common.h"
 2196 21d7 03       		.byte	0x3
 2197 21d8 09       		.uleb128 0x9
 2198 21d9 17       		.uleb128 0x17
 2199 21da 04       		.byte	0x4
 2200 21db 04       		.byte	0x4
 2201              		.file 24 "E:/NeuOrga/Programmieren/c_cpp/github_os/input/src/os_base/../os_base/os_ram_stack.h"
 2202 21dc 03       		.byte	0x3
 2203 21dd 0F       		.uleb128 0xf
 2204 21de 18       		.uleb128 0x18
 2205 21df 01       		.byte	0x1
 2206 21e0 02       		.uleb128 0x2
 2207 21e1 5F4F535F 		.ascii "_OS_RAM_STACK_H_ \0"
 2207      52414D5F 
 2207      53544143 
 2207      4B5F485F 
 2207      2000
 2208 21f3 04       		.byte	0x4
 2209 21f4 04       		.byte	0x4
 2210              		.file 25 "E:/NeuOrga/Programmieren/c_cpp/github_os/input/src/os_base/os_task_common.h"
GAS LISTING C:\Users\PRESID~1\AppData\Local\Temp\cc7fVbmG.s 			page 68


 2211 21f5 03       		.byte	0x3
 2212 21f6 02       		.uleb128 0x2
 2213 21f7 19       		.uleb128 0x19
 2214 21f8 04       		.byte	0x4
 2215              		.file 26 "E:/NeuOrga/Programmieren/c_cpp/github_os/input/src/os_base/os_task_scheduler.h"
 2216 21f9 03       		.byte	0x3
 2217 21fa 03       		.uleb128 0x3
 2218 21fb 1A       		.uleb128 0x1a
 2219 21fc 01       		.byte	0x1
 2220 21fd 02       		.uleb128 0x2
 2221 21fe 5F6F735F 		.ascii "_os_task_scheduler_h_ \0"
 2221      7461736B 
 2221      5F736368 
 2221      6564756C 
 2221      65725F68 
 2222 2215 01       		.byte	0x1
 2223 2216 07       		.uleb128 0x7
 2224 2217 5461736B 		.ascii "Task_0_ptr 0\0"
 2224      5F305F70 
 2224      74722030 
 2224      00
 2225 2224 01       		.byte	0x1
 2226 2225 08       		.uleb128 0x8
 2227 2226 5461736B 		.ascii "Task_1_ptr 1\0"
 2227      5F315F70 
 2227      74722031 
 2227      00
 2228 2233 01       		.byte	0x1
 2229 2234 09       		.uleb128 0x9
 2230 2235 5461736B 		.ascii "Task_2_ptr 2\0"
 2230      5F325F70 
 2230      74722032 
 2230      00
 2231 2242 01       		.byte	0x1
 2232 2243 0A       		.uleb128 0xa
 2233 2244 5461736B 		.ascii "Task_3_ptr 3\0"
 2233      5F335F70 
 2233      74722033 
 2233      00
 2234 2251 01       		.byte	0x1
 2235 2252 0C       		.uleb128 0xc
 2236 2253 4F535F53 		.ascii "OS_SaveTaskPtr(task_ptr,Task_n_ptr) \0"
 2236      61766554 
 2236      61736B50 
 2236      74722874 
 2236      61736B5F 
 2237 2278 04       		.byte	0x4
 2238              		.file 27 "E:/NeuOrga/Programmieren/c_cpp/github_os/input/src/os_base/os_heap.h"
 2239 2279 03       		.byte	0x3
 2240 227a 04       		.uleb128 0x4
 2241 227b 1B       		.uleb128 0x1b
 2242 227c 04       		.byte	0x4
 2243 227d 04       		.byte	0x4
 2244 227e 00       		.byte	0
 2245              		.section	.debug_line,"dr"
 2246              	Ldebug_line0:
 2247 0000 80030000 		.section	.debug_str,"dr"
GAS LISTING C:\Users\PRESID~1\AppData\Local\Temp\cc7fVbmG.s 			page 69


 2247      02003603 
 2247      00000101 
 2247      FB0E0D00 
 2247      01010101 
 2248              	LASF1:
 2249 0000 73797374 		.ascii "system_stack_ptr\0"
 2249      656D5F73 
 2249      7461636B 
 2249      5F707472 
 2249      00
 2250              	LASF0:
 2251 0011 6578655F 		.ascii "exe_time\0"
 2251      74696D65 
 2251      00
 2252              		.ident	"GCC: (GNU) 4.9.3"
GAS LISTING C:\Users\PRESID~1\AppData\Local\Temp\cc7fVbmG.s 			page 70


DEFINED SYMBOLS
                            *ABS*:00000000 os_task_common.c
                            *COM*:00000028 _TASK_PTR
C:\Users\PRESID~1\AppData\Local\Temp\cc7fVbmG.s:7      .text:00000000 _OS_TaskSaveTaskEnvironment
C:\Users\PRESID~1\AppData\Local\Temp\cc7fVbmG.s:63     .text:00000073 _OS_TASK_RESTORETASK_ENVIRONMENT
C:\Users\PRESID~1\AppData\Local\Temp\cc7fVbmG.s:101    .text:000000b3 _OS_TASK_RESTORE_SYSTEM_STACK
C:\Users\PRESID~1\AppData\Local\Temp\cc7fVbmG.s:124    .text:000000c6 _OS_TASK_SAVE_SYSTEM_STACK
C:\Users\PRESID~1\AppData\Local\Temp\cc7fVbmG.s:147    .text:000000d9 _OS_Task_InitTaskEnvironment

UNDEFINED SYMBOLS
_LLF_SAVE_TASK_STACK
_LLF_SAVE_REGISTERS
_OS_SetSwBug
_LLF_RESTORE_TASK_STACK
_LLF_RESTORE_REGISTERS
_LLF_RESTORE_SYSTEM_STACK
_LLF_SAVE_SYSTEM_STACK
_AssignNull
_AssignUint32
_task_state_request
