GAS LISTING C:\Users\PRESID~1\AppData\Local\Temp\ccPWmP62.s 			page 1


   1              		.file	"os_task_scheduler.c"
   2              		.text
   3              	Ltext0:
   4              		.globl	_OS_ACTIVATE_DISPATCHER
   6              	_OS_ACTIVATE_DISPATCHER:
   7              	LFB0:
   8              		.file 1 "E:/NeuOrga/Programmieren/c_cpp/github_os/input/src/os_base/os_task_scheduler.c"
   1:E:/NeuOrga/Programmieren/c_cpp/github_os/input/src/os_base\os_task_scheduler.c **** #include "os_firstinc.h"
   2:E:/NeuOrga/Programmieren/c_cpp/github_os/input/src/os_base\os_task_scheduler.c **** #include "os_common.h"
   3:E:/NeuOrga/Programmieren/c_cpp/github_os/input/src/os_base\os_task_scheduler.c **** #include "os_task_common.h"
   4:E:/NeuOrga/Programmieren/c_cpp/github_os/input/src/os_base\os_task_scheduler.c **** #include "os_task_scheduler.h"
   5:E:/NeuOrga/Programmieren/c_cpp/github_os/input/src/os_base\os_task_scheduler.c **** #include "os_task_queue.h"
   6:E:/NeuOrga/Programmieren/c_cpp/github_os/input/src/os_base\os_task_scheduler.c **** #include "os_stack.h"
   7:E:/NeuOrga/Programmieren/c_cpp/github_os/input/src/os_base\os_task_scheduler.c **** #include "os_exception.h"
   8:E:/NeuOrga/Programmieren/c_cpp/github_os/input/src/os_base\os_task_scheduler.c **** 
   9:E:/NeuOrga/Programmieren/c_cpp/github_os/input/src/os_base\os_task_scheduler.c **** /*
  10:E:/NeuOrga/Programmieren/c_cpp/github_os/input/src/os_base\os_task_scheduler.c **** 1. running     --(terminate)--> suspend : delete scheduling element
  11:E:/NeuOrga/Programmieren/c_cpp/github_os/input/src/os_base\os_task_scheduler.c **** 2. running     --(preempt  )--> ready
  12:E:/NeuOrga/Programmieren/c_cpp/github_os/input/src/os_base\os_task_scheduler.c **** 3. suspend     --(activate )--> ready   : create scheduling element
  13:E:/NeuOrga/Programmieren/c_cpp/github_os/input/src/os_base\os_task_scheduler.c **** 4. ready       --(start    )--> running : use scheduling element
  14:E:/NeuOrga/Programmieren/c_cpp/github_os/input/src/os_base\os_task_scheduler.c **** 5. unspecified --(create   )--> suspend
  15:E:/NeuOrga/Programmieren/c_cpp/github_os/input/src/os_base\os_task_scheduler.c **** */
  16:E:/NeuOrga/Programmieren/c_cpp/github_os/input/src/os_base\os_task_scheduler.c **** 
  17:E:/NeuOrga/Programmieren/c_cpp/github_os/input/src/os_base\os_task_scheduler.c **** 
  18:E:/NeuOrga/Programmieren/c_cpp/github_os/input/src/os_base\os_task_scheduler.c **** LOCAL void task_0(void* task_ptr);
  19:E:/NeuOrga/Programmieren/c_cpp/github_os/input/src/os_base\os_task_scheduler.c **** LOCAL void task_1(void* task_ptr);
  20:E:/NeuOrga/Programmieren/c_cpp/github_os/input/src/os_base\os_task_scheduler.c **** LOCAL void task_2(void* task_ptr);
  21:E:/NeuOrga/Programmieren/c_cpp/github_os/input/src/os_base\os_task_scheduler.c **** LOCAL task_t** os_task_scheduler(void);
  22:E:/NeuOrga/Programmieren/c_cpp/github_os/input/src/os_base\os_task_scheduler.c **** LOCAL void os_preempt_task(task_t* task, scheduling_t* scheduling_task);
  23:E:/NeuOrga/Programmieren/c_cpp/github_os/input/src/os_base\os_task_scheduler.c **** void OS_ACTIVATE_DISPATCHER(void)
  24:E:/NeuOrga/Programmieren/c_cpp/github_os/input/src/os_base\os_task_scheduler.c **** {
   9              		.loc 1 24 0
  10              		.cfi_startproc
  11 0000 55       		pushl	%ebp
  12              		.cfi_def_cfa_offset 8
  13              		.cfi_offset 5, -8
  14 0001 89E5     		movl	%esp, %ebp
  15              		.cfi_def_cfa_register 5
  25:E:/NeuOrga/Programmieren/c_cpp/github_os/input/src/os_base\os_task_scheduler.c **** 
  26:E:/NeuOrga/Programmieren/c_cpp/github_os/input/src/os_base\os_task_scheduler.c ****    /* configure the TCMP */
  27:E:/NeuOrga/Programmieren/c_cpp/github_os/input/src/os_base\os_task_scheduler.c ****    /*
  28:E:/NeuOrga/Programmieren/c_cpp/github_os/input/src/os_base\os_task_scheduler.c ****    Dispatcher function for Core 0:
  29:E:/NeuOrga/Programmieren/c_cpp/github_os/input/src/os_base\os_task_scheduler.c ****    Write Adresse into the config register (interrupts are requested by SWI/SVC???)
  30:E:/NeuOrga/Programmieren/c_cpp/github_os/input/src/os_base\os_task_scheduler.c ****    */
  31:E:/NeuOrga/Programmieren/c_cpp/github_os/input/src/os_base\os_task_scheduler.c ****    /*
  32:E:/NeuOrga/Programmieren/c_cpp/github_os/input/src/os_base\os_task_scheduler.c ****    CLOCK = HCLK / 8
  33:E:/NeuOrga/Programmieren/c_cpp/github_os/input/src/os_base\os_task_scheduler.c ****    vermutlich: CLOCK = 150Mhz / 8 = 18,75 Mhz
  34:E:/NeuOrga/Programmieren/c_cpp/github_os/input/src/os_base\os_task_scheduler.c ****    */
  35:E:/NeuOrga/Programmieren/c_cpp/github_os/input/src/os_base\os_task_scheduler.c **** #if(CFG_PROCESSOR == MCU_CORTEX_M4)
  36:E:/NeuOrga/Programmieren/c_cpp/github_os/input/src/os_base\os_task_scheduler.c ****    *SYSTICK_RLD_VAL_REG = (*SYSTICK_RLD_VAL_REG & 0xFF000000u )| (((uint32)MCU_CLOCK_IN_HZ / ((uint
  37:E:/NeuOrga/Programmieren/c_cpp/github_os/input/src/os_base\os_task_scheduler.c ****    *SYSTICK_CURRENT_VAL_REG = ((uint32)0x00000000u);
  38:E:/NeuOrga/Programmieren/c_cpp/github_os/input/src/os_base\os_task_scheduler.c ****    *SYSTICK_CTRL_STAT_REG = *SYSTICK_CTRL_STAT_REG | SYSTICK_STAT_REG_TICKINT | SYSTICK_STAT_REG_EN
  39:E:/NeuOrga/Programmieren/c_cpp/github_os/input/src/os_base\os_task_scheduler.c **** #endif
  40:E:/NeuOrga/Programmieren/c_cpp/github_os/input/src/os_base\os_task_scheduler.c **** }
  16              		.loc 1 40 0
  17 0003 5D       		popl	%ebp
  18              		.cfi_restore 5
GAS LISTING C:\Users\PRESID~1\AppData\Local\Temp\ccPWmP62.s 			page 2


  19              		.cfi_def_cfa 4, 4
  20 0004 C3       		ret
  21              		.cfi_endproc
  22              	LFE0:
  23              		.globl	_OS_SLEEP_TASK
  25              	_OS_SLEEP_TASK:
  26              	LFB1:
  41:E:/NeuOrga/Programmieren/c_cpp/github_os/input/src/os_base\os_task_scheduler.c **** 
  42:E:/NeuOrga/Programmieren/c_cpp/github_os/input/src/os_base\os_task_scheduler.c **** 
  43:E:/NeuOrga/Programmieren/c_cpp/github_os/input/src/os_base\os_task_scheduler.c **** void OS_SLEEP_TASK(task_t* task, timebig_t usec, scheduling_t* scheduling_task_ptr)
  44:E:/NeuOrga/Programmieren/c_cpp/github_os/input/src/os_base\os_task_scheduler.c **** {
  27              		.loc 1 44 0
  28              		.cfi_startproc
  29 0005 55       		pushl	%ebp
  30              		.cfi_def_cfa_offset 8
  31              		.cfi_offset 5, -8
  32 0006 89E5     		movl	%esp, %ebp
  33              		.cfi_def_cfa_register 5
  34 0008 83EC28   		subl	$40, %esp
  45:E:/NeuOrga/Programmieren/c_cpp/github_os/input/src/os_base\os_task_scheduler.c ****    timebig_t time;
  46:E:/NeuOrga/Programmieren/c_cpp/github_os/input/src/os_base\os_task_scheduler.c ****    OS_GET_CURRENT_TIME(&time);
  35              		.loc 1 46 0
  36 000b 8D45E8   		leal	-24(%ebp), %eax
  37 000e 890424   		movl	%eax, (%esp)
  38 0011 E8000000 		call	_OS_GET_CURRENT_TIME
  38      00
  47:E:/NeuOrga/Programmieren/c_cpp/github_os/input/src/os_base\os_task_scheduler.c ****    /* sleep Task shall do a preempt task with a defined minimum wait time, the actual wait time is 
  48:E:/NeuOrga/Programmieren/c_cpp/github_os/input/src/os_base\os_task_scheduler.c ****    INT_ADD(&task->wait_act_until, &time, &usec);
  39              		.loc 1 48 0
  40 0016 8B4508   		movl	8(%ebp), %eax
  41 0019 8D5006   		leal	6(%eax), %edx
  42 001c 8D450C   		leal	12(%ebp), %eax
  43 001f 89442408 		movl	%eax, 8(%esp)
  44 0023 8D45E8   		leal	-24(%ebp), %eax
  45 0026 89442404 		movl	%eax, 4(%esp)
  46 002a 891424   		movl	%edx, (%esp)
  47 002d E8000000 		call	_INT_ADD
  47      00
  49:E:/NeuOrga/Programmieren/c_cpp/github_os/input/src/os_base\os_task_scheduler.c ****    os_preempt_task(task,scheduling_task_ptr);
  48              		.loc 1 49 0
  49 0032 8B451C   		movl	28(%ebp), %eax
  50 0035 89442404 		movl	%eax, 4(%esp)
  51 0039 8B4508   		movl	8(%ebp), %eax
  52 003c 890424   		movl	%eax, (%esp)
  53 003f E8B10100 		call	_os_preempt_task
  53      00
  50:E:/NeuOrga/Programmieren/c_cpp/github_os/input/src/os_base\os_task_scheduler.c **** }
  54              		.loc 1 50 0
  55 0044 C9       		leave
  56              		.cfi_restore 5
  57              		.cfi_def_cfa 4, 4
  58 0045 C3       		ret
  59              		.cfi_endproc
  60              	LFE1:
  61              		.globl	_OS_TASK_STATE_REQUEST
  63              	_OS_TASK_STATE_REQUEST:
  64              	LFB2:
GAS LISTING C:\Users\PRESID~1\AppData\Local\Temp\ccPWmP62.s 			page 3


  51:E:/NeuOrga/Programmieren/c_cpp/github_os/input/src/os_base\os_task_scheduler.c **** 
  52:E:/NeuOrga/Programmieren/c_cpp/github_os/input/src/os_base\os_task_scheduler.c **** unsigned_char_t OS_TASK_STATE_REQUEST(void* temp_task, task_state_t requested_state)
  53:E:/NeuOrga/Programmieren/c_cpp/github_os/input/src/os_base\os_task_scheduler.c **** {
  65              		.loc 1 53 0
  66              		.cfi_startproc
  67 0046 55       		pushl	%ebp
  68              		.cfi_def_cfa_offset 8
  69              		.cfi_offset 5, -8
  70 0047 89E5     		movl	%esp, %ebp
  71              		.cfi_def_cfa_register 5
  72 0049 83EC28   		subl	$40, %esp
  54:E:/NeuOrga/Programmieren/c_cpp/github_os/input/src/os_base\os_task_scheduler.c ****    unsigned_char_t RequestState = REJECTED;
  73              		.loc 1 54 0
  74 004c C645F700 		movb	$0, -9(%ebp)
  55:E:/NeuOrga/Programmieren/c_cpp/github_os/input/src/os_base\os_task_scheduler.c **** 
  56:E:/NeuOrga/Programmieren/c_cpp/github_os/input/src/os_base\os_task_scheduler.c ****    task_t* task = (task_t*) temp_task;
  75              		.loc 1 56 0
  76 0050 8B4508   		movl	8(%ebp), %eax
  77 0053 8945F0   		movl	%eax, -16(%ebp)
  57:E:/NeuOrga/Programmieren/c_cpp/github_os/input/src/os_base\os_task_scheduler.c **** 
  58:E:/NeuOrga/Programmieren/c_cpp/github_os/input/src/os_base\os_task_scheduler.c ****    switch(requested_state)
  78              		.loc 1 58 0
  79 0056 8B450C   		movl	12(%ebp), %eax
  80 0059 83F801   		cmpl	$1, %eax
  81 005c 743E     		je	L5
  82 005e 83F801   		cmpl	$1, %eax
  83 0061 7213     		jb	L6
  84 0063 83F802   		cmpl	$2, %eax
  85 0066 0F849600 		je	L7
  85      0000
  86 006c 83F803   		cmpl	$3, %eax
  87 006f 7473     		je	L8
  59:E:/NeuOrga/Programmieren/c_cpp/github_os/input/src/os_base\os_task_scheduler.c ****    {
  60:E:/NeuOrga/Programmieren/c_cpp/github_os/input/src/os_base\os_task_scheduler.c ****    case E_TASK_UNSPECIFIED:/* 1. create new task */
  61:E:/NeuOrga/Programmieren/c_cpp/github_os/input/src/os_base\os_task_scheduler.c ****    {
  62:E:/NeuOrga/Programmieren/c_cpp/github_os/input/src/os_base\os_task_scheduler.c ****       switch(task->task_state)
  63:E:/NeuOrga/Programmieren/c_cpp/github_os/input/src/os_base\os_task_scheduler.c ****       {
  64:E:/NeuOrga/Programmieren/c_cpp/github_os/input/src/os_base\os_task_scheduler.c ****       case E_TASK_READY:
  65:E:/NeuOrga/Programmieren/c_cpp/github_os/input/src/os_base\os_task_scheduler.c ****       case E_TASK_RUNNING:
  66:E:/NeuOrga/Programmieren/c_cpp/github_os/input/src/os_base\os_task_scheduler.c ****       case E_TASK_SUSPENDED:
  67:E:/NeuOrga/Programmieren/c_cpp/github_os/input/src/os_base\os_task_scheduler.c ****       {
  68:E:/NeuOrga/Programmieren/c_cpp/github_os/input/src/os_base\os_task_scheduler.c ****          RequestState = REJECTED;
  69:E:/NeuOrga/Programmieren/c_cpp/github_os/input/src/os_base\os_task_scheduler.c ****          break;
  70:E:/NeuOrga/Programmieren/c_cpp/github_os/input/src/os_base\os_task_scheduler.c ****       }
  71:E:/NeuOrga/Programmieren/c_cpp/github_os/input/src/os_base\os_task_scheduler.c ****       default:
  72:E:/NeuOrga/Programmieren/c_cpp/github_os/input/src/os_base\os_task_scheduler.c ****       {
  73:E:/NeuOrga/Programmieren/c_cpp/github_os/input/src/os_base\os_task_scheduler.c ****          task->task_state = E_TASK_UNSPECIFIED;
  74:E:/NeuOrga/Programmieren/c_cpp/github_os/input/src/os_base\os_task_scheduler.c ****          RequestState = ACCEPTED;
  75:E:/NeuOrga/Programmieren/c_cpp/github_os/input/src/os_base\os_task_scheduler.c ****          break;
  76:E:/NeuOrga/Programmieren/c_cpp/github_os/input/src/os_base\os_task_scheduler.c ****       }
  77:E:/NeuOrga/Programmieren/c_cpp/github_os/input/src/os_base\os_task_scheduler.c ****       }
  78:E:/NeuOrga/Programmieren/c_cpp/github_os/input/src/os_base\os_task_scheduler.c ****       break;
  79:E:/NeuOrga/Programmieren/c_cpp/github_os/input/src/os_base\os_task_scheduler.c ****    }
  80:E:/NeuOrga/Programmieren/c_cpp/github_os/input/src/os_base\os_task_scheduler.c ****    case E_TASK_SUSPENDED:
  81:E:/NeuOrga/Programmieren/c_cpp/github_os/input/src/os_base\os_task_scheduler.c ****    {
  82:E:/NeuOrga/Programmieren/c_cpp/github_os/input/src/os_base\os_task_scheduler.c ****       switch(task->task_state)
  83:E:/NeuOrga/Programmieren/c_cpp/github_os/input/src/os_base\os_task_scheduler.c ****       {
GAS LISTING C:\Users\PRESID~1\AppData\Local\Temp\ccPWmP62.s 			page 4


  84:E:/NeuOrga/Programmieren/c_cpp/github_os/input/src/os_base\os_task_scheduler.c ****       case E_TASK_UNSPECIFIED: /* 2. create task transition */
  85:E:/NeuOrga/Programmieren/c_cpp/github_os/input/src/os_base\os_task_scheduler.c ****       {
  86:E:/NeuOrga/Programmieren/c_cpp/github_os/input/src/os_base\os_task_scheduler.c ****          /* no checks */
  87:E:/NeuOrga/Programmieren/c_cpp/github_os/input/src/os_base\os_task_scheduler.c ****          task->task_state = E_TASK_SUSPENDED;
  88:E:/NeuOrga/Programmieren/c_cpp/github_os/input/src/os_base\os_task_scheduler.c ****          RequestState = ACCEPTED;
  89:E:/NeuOrga/Programmieren/c_cpp/github_os/input/src/os_base\os_task_scheduler.c ****          break;
  90:E:/NeuOrga/Programmieren/c_cpp/github_os/input/src/os_base\os_task_scheduler.c ****       }
  91:E:/NeuOrga/Programmieren/c_cpp/github_os/input/src/os_base\os_task_scheduler.c ****       case E_TASK_RUNNING: /* 3. terminate task */
  92:E:/NeuOrga/Programmieren/c_cpp/github_os/input/src/os_base\os_task_scheduler.c ****       {
  93:E:/NeuOrga/Programmieren/c_cpp/github_os/input/src/os_base\os_task_scheduler.c ****          task->task_state = E_TASK_SUSPENDED;
  94:E:/NeuOrga/Programmieren/c_cpp/github_os/input/src/os_base\os_task_scheduler.c ****          RequestState = ACCEPTED;
  95:E:/NeuOrga/Programmieren/c_cpp/github_os/input/src/os_base\os_task_scheduler.c ****          break;
  96:E:/NeuOrga/Programmieren/c_cpp/github_os/input/src/os_base\os_task_scheduler.c ****       }
  97:E:/NeuOrga/Programmieren/c_cpp/github_os/input/src/os_base\os_task_scheduler.c ****       default:
  98:E:/NeuOrga/Programmieren/c_cpp/github_os/input/src/os_base\os_task_scheduler.c ****       {
  99:E:/NeuOrga/Programmieren/c_cpp/github_os/input/src/os_base\os_task_scheduler.c ****          /* no change in states allowed */
 100:E:/NeuOrga/Programmieren/c_cpp/github_os/input/src/os_base\os_task_scheduler.c ****          OS_SET_SW_BUG(E_OS_BUG_TASKSTATE_REQUEST_DENIED, E_FUNC_TASKSTATEREQUEST);
 101:E:/NeuOrga/Programmieren/c_cpp/github_os/input/src/os_base\os_task_scheduler.c ****          break;
 102:E:/NeuOrga/Programmieren/c_cpp/github_os/input/src/os_base\os_task_scheduler.c ****       }
 103:E:/NeuOrga/Programmieren/c_cpp/github_os/input/src/os_base\os_task_scheduler.c ****       }
 104:E:/NeuOrga/Programmieren/c_cpp/github_os/input/src/os_base\os_task_scheduler.c ****       break;
 105:E:/NeuOrga/Programmieren/c_cpp/github_os/input/src/os_base\os_task_scheduler.c ****    }
 106:E:/NeuOrga/Programmieren/c_cpp/github_os/input/src/os_base\os_task_scheduler.c ****    case E_TASK_RUNNING:
 107:E:/NeuOrga/Programmieren/c_cpp/github_os/input/src/os_base\os_task_scheduler.c ****    {
 108:E:/NeuOrga/Programmieren/c_cpp/github_os/input/src/os_base\os_task_scheduler.c ****       switch(task->task_state)
 109:E:/NeuOrga/Programmieren/c_cpp/github_os/input/src/os_base\os_task_scheduler.c ****       {
 110:E:/NeuOrga/Programmieren/c_cpp/github_os/input/src/os_base\os_task_scheduler.c ****       case E_TASK_READY: /* 4. start task transition */
 111:E:/NeuOrga/Programmieren/c_cpp/github_os/input/src/os_base\os_task_scheduler.c ****       {
 112:E:/NeuOrga/Programmieren/c_cpp/github_os/input/src/os_base\os_task_scheduler.c ****          task->task_state = E_TASK_RUNNING;
 113:E:/NeuOrga/Programmieren/c_cpp/github_os/input/src/os_base\os_task_scheduler.c ****          RequestState   = ACCEPTED;
 114:E:/NeuOrga/Programmieren/c_cpp/github_os/input/src/os_base\os_task_scheduler.c ****          break;
 115:E:/NeuOrga/Programmieren/c_cpp/github_os/input/src/os_base\os_task_scheduler.c ****       }
 116:E:/NeuOrga/Programmieren/c_cpp/github_os/input/src/os_base\os_task_scheduler.c ****       default:
 117:E:/NeuOrga/Programmieren/c_cpp/github_os/input/src/os_base\os_task_scheduler.c ****       {
 118:E:/NeuOrga/Programmieren/c_cpp/github_os/input/src/os_base\os_task_scheduler.c ****          /* no change in states allowed */
 119:E:/NeuOrga/Programmieren/c_cpp/github_os/input/src/os_base\os_task_scheduler.c ****          break;
 120:E:/NeuOrga/Programmieren/c_cpp/github_os/input/src/os_base\os_task_scheduler.c ****       }
 121:E:/NeuOrga/Programmieren/c_cpp/github_os/input/src/os_base\os_task_scheduler.c ****       }
 122:E:/NeuOrga/Programmieren/c_cpp/github_os/input/src/os_base\os_task_scheduler.c ****       break;
 123:E:/NeuOrga/Programmieren/c_cpp/github_os/input/src/os_base\os_task_scheduler.c **** 
 124:E:/NeuOrga/Programmieren/c_cpp/github_os/input/src/os_base\os_task_scheduler.c ****    }
 125:E:/NeuOrga/Programmieren/c_cpp/github_os/input/src/os_base\os_task_scheduler.c ****    case E_TASK_READY:
 126:E:/NeuOrga/Programmieren/c_cpp/github_os/input/src/os_base\os_task_scheduler.c ****    {
 127:E:/NeuOrga/Programmieren/c_cpp/github_os/input/src/os_base\os_task_scheduler.c ****       switch(task->task_state)
 128:E:/NeuOrga/Programmieren/c_cpp/github_os/input/src/os_base\os_task_scheduler.c ****       {
 129:E:/NeuOrga/Programmieren/c_cpp/github_os/input/src/os_base\os_task_scheduler.c ****       case E_TASK_SUSPENDED: /* activate task transition */
 130:E:/NeuOrga/Programmieren/c_cpp/github_os/input/src/os_base\os_task_scheduler.c ****       {
 131:E:/NeuOrga/Programmieren/c_cpp/github_os/input/src/os_base\os_task_scheduler.c ****          task->task_state = E_TASK_READY;
 132:E:/NeuOrga/Programmieren/c_cpp/github_os/input/src/os_base\os_task_scheduler.c ****          RequestState   = ACCEPTED;
 133:E:/NeuOrga/Programmieren/c_cpp/github_os/input/src/os_base\os_task_scheduler.c ****          break;
 134:E:/NeuOrga/Programmieren/c_cpp/github_os/input/src/os_base\os_task_scheduler.c ****       }
 135:E:/NeuOrga/Programmieren/c_cpp/github_os/input/src/os_base\os_task_scheduler.c ****       case E_TASK_RUNNING: /* preempt task transition */
 136:E:/NeuOrga/Programmieren/c_cpp/github_os/input/src/os_base\os_task_scheduler.c ****       {
 137:E:/NeuOrga/Programmieren/c_cpp/github_os/input/src/os_base\os_task_scheduler.c ****          task->task_state = E_TASK_READY;
 138:E:/NeuOrga/Programmieren/c_cpp/github_os/input/src/os_base\os_task_scheduler.c ****          RequestState   = ACCEPTED;
 139:E:/NeuOrga/Programmieren/c_cpp/github_os/input/src/os_base\os_task_scheduler.c ****          break;
 140:E:/NeuOrga/Programmieren/c_cpp/github_os/input/src/os_base\os_task_scheduler.c ****       }
GAS LISTING C:\Users\PRESID~1\AppData\Local\Temp\ccPWmP62.s 			page 5


 141:E:/NeuOrga/Programmieren/c_cpp/github_os/input/src/os_base\os_task_scheduler.c ****       case E_TASK_UNSPECIFIED:
 142:E:/NeuOrga/Programmieren/c_cpp/github_os/input/src/os_base\os_task_scheduler.c ****       {
 143:E:/NeuOrga/Programmieren/c_cpp/github_os/input/src/os_base\os_task_scheduler.c ****          task->task_state = E_TASK_READY;
 144:E:/NeuOrga/Programmieren/c_cpp/github_os/input/src/os_base\os_task_scheduler.c ****          RequestState = ACCEPTED;
 145:E:/NeuOrga/Programmieren/c_cpp/github_os/input/src/os_base\os_task_scheduler.c ****          break;
 146:E:/NeuOrga/Programmieren/c_cpp/github_os/input/src/os_base\os_task_scheduler.c ****       }
 147:E:/NeuOrga/Programmieren/c_cpp/github_os/input/src/os_base\os_task_scheduler.c ****       default:
 148:E:/NeuOrga/Programmieren/c_cpp/github_os/input/src/os_base\os_task_scheduler.c ****       {
 149:E:/NeuOrga/Programmieren/c_cpp/github_os/input/src/os_base\os_task_scheduler.c ****          /* no change in states allowed */
 150:E:/NeuOrga/Programmieren/c_cpp/github_os/input/src/os_base\os_task_scheduler.c ****          break;
 151:E:/NeuOrga/Programmieren/c_cpp/github_os/input/src/os_base\os_task_scheduler.c ****       }
 152:E:/NeuOrga/Programmieren/c_cpp/github_os/input/src/os_base\os_task_scheduler.c ****       }
 153:E:/NeuOrga/Programmieren/c_cpp/github_os/input/src/os_base\os_task_scheduler.c ****       break;
 154:E:/NeuOrga/Programmieren/c_cpp/github_os/input/src/os_base\os_task_scheduler.c ****    }
 155:E:/NeuOrga/Programmieren/c_cpp/github_os/input/src/os_base\os_task_scheduler.c ****    default:
 156:E:/NeuOrga/Programmieren/c_cpp/github_os/input/src/os_base\os_task_scheduler.c ****    {
 157:E:/NeuOrga/Programmieren/c_cpp/github_os/input/src/os_base\os_task_scheduler.c ****       break;
  88              		.loc 1 157 0
  89 0071 E9D30000 		jmp	L12
  89      00
  90              	L6:
  62:E:/NeuOrga/Programmieren/c_cpp/github_os/input/src/os_base\os_task_scheduler.c ****       {
  91              		.loc 1 62 0
  92 0076 8B45F0   		movl	-16(%ebp), %eax
  93 0079 8B407C   		movl	124(%eax), %eax
  94 007c 48       		decl	%eax
  95 007d 83F802   		cmpl	$2, %eax
  96 0080 7706     		ja	L9
  68:E:/NeuOrga/Programmieren/c_cpp/github_os/input/src/os_base\os_task_scheduler.c ****          break;
  97              		.loc 1 68 0
  98 0082 C645F700 		movb	$0, -9(%ebp)
  69:E:/NeuOrga/Programmieren/c_cpp/github_os/input/src/os_base\os_task_scheduler.c ****       }
  99              		.loc 1 69 0
 100 0086 EB0F     		jmp	L11
 101              	L9:
  73:E:/NeuOrga/Programmieren/c_cpp/github_os/input/src/os_base\os_task_scheduler.c ****          RequestState = ACCEPTED;
 102              		.loc 1 73 0
 103 0088 8B45F0   		movl	-16(%ebp), %eax
 104 008b C7407C00 		movl	$0, 124(%eax)
 104      000000
  74:E:/NeuOrga/Programmieren/c_cpp/github_os/input/src/os_base\os_task_scheduler.c ****          break;
 105              		.loc 1 74 0
 106 0092 C645F701 		movb	$1, -9(%ebp)
  75:E:/NeuOrga/Programmieren/c_cpp/github_os/input/src/os_base\os_task_scheduler.c ****       }
 107              		.loc 1 75 0
 108 0096 90       		nop
 109              	L11:
  78:E:/NeuOrga/Programmieren/c_cpp/github_os/input/src/os_base\os_task_scheduler.c ****    }
 110              		.loc 1 78 0
 111 0097 E9AD0000 		jmp	L12
 111      00
 112              	L5:
  82:E:/NeuOrga/Programmieren/c_cpp/github_os/input/src/os_base\os_task_scheduler.c ****       {
 113              		.loc 1 82 0
 114 009c 8B45F0   		movl	-16(%ebp), %eax
 115 009f 8B407C   		movl	124(%eax), %eax
 116 00a2 85C0     		testl	%eax, %eax
GAS LISTING C:\Users\PRESID~1\AppData\Local\Temp\ccPWmP62.s 			page 6


 117 00a4 7407     		je	L14
 118 00a6 83F803   		cmpl	$3, %eax
 119 00a9 7412     		je	L15
 120 00ab EB20     		jmp	L27
 121              	L14:
  87:E:/NeuOrga/Programmieren/c_cpp/github_os/input/src/os_base\os_task_scheduler.c ****          RequestState = ACCEPTED;
 122              		.loc 1 87 0
 123 00ad 8B45F0   		movl	-16(%ebp), %eax
 124 00b0 C7407C01 		movl	$1, 124(%eax)
 124      000000
  88:E:/NeuOrga/Programmieren/c_cpp/github_os/input/src/os_base\os_task_scheduler.c ****          break;
 125              		.loc 1 88 0
 126 00b7 C645F701 		movb	$1, -9(%ebp)
  89:E:/NeuOrga/Programmieren/c_cpp/github_os/input/src/os_base\os_task_scheduler.c ****       }
 127              		.loc 1 89 0
 128 00bb EB25     		jmp	L16
 129              	L15:
  93:E:/NeuOrga/Programmieren/c_cpp/github_os/input/src/os_base\os_task_scheduler.c ****          RequestState = ACCEPTED;
 130              		.loc 1 93 0
 131 00bd 8B45F0   		movl	-16(%ebp), %eax
 132 00c0 C7407C01 		movl	$1, 124(%eax)
 132      000000
  94:E:/NeuOrga/Programmieren/c_cpp/github_os/input/src/os_base\os_task_scheduler.c ****          break;
 133              		.loc 1 94 0
 134 00c7 C645F701 		movb	$1, -9(%ebp)
  95:E:/NeuOrga/Programmieren/c_cpp/github_os/input/src/os_base\os_task_scheduler.c ****       }
 135              		.loc 1 95 0
 136 00cb EB15     		jmp	L16
 137              	L27:
 100:E:/NeuOrga/Programmieren/c_cpp/github_os/input/src/os_base\os_task_scheduler.c ****          break;
 138              		.loc 1 100 0
 139 00cd C7442404 		movl	$12, 4(%esp)
 139      0C000000 
 140 00d5 C7042401 		movl	$1, (%esp)
 140      000000
 141 00dc E8000000 		call	_OS_SET_SW_BUG
 141      00
 101:E:/NeuOrga/Programmieren/c_cpp/github_os/input/src/os_base\os_task_scheduler.c ****       }
 142              		.loc 1 101 0
 143 00e1 90       		nop
 144              	L16:
 104:E:/NeuOrga/Programmieren/c_cpp/github_os/input/src/os_base\os_task_scheduler.c ****    }
 145              		.loc 1 104 0
 146 00e2 EB65     		jmp	L12
 147              	L8:
 108:E:/NeuOrga/Programmieren/c_cpp/github_os/input/src/os_base\os_task_scheduler.c ****       {
 148              		.loc 1 108 0
 149 00e4 8B45F0   		movl	-16(%ebp), %eax
 150 00e7 8B407C   		movl	124(%eax), %eax
 151 00ea 83F802   		cmpl	$2, %eax
 152 00ed 7402     		je	L18
 119:E:/NeuOrga/Programmieren/c_cpp/github_os/input/src/os_base\os_task_scheduler.c ****       }
 153              		.loc 1 119 0
 154 00ef EB0F     		jmp	L19
 155              	L18:
 112:E:/NeuOrga/Programmieren/c_cpp/github_os/input/src/os_base\os_task_scheduler.c ****          RequestState   = ACCEPTED;
 156              		.loc 1 112 0
GAS LISTING C:\Users\PRESID~1\AppData\Local\Temp\ccPWmP62.s 			page 7


 157 00f1 8B45F0   		movl	-16(%ebp), %eax
 158 00f4 C7407C03 		movl	$3, 124(%eax)
 158      000000
 113:E:/NeuOrga/Programmieren/c_cpp/github_os/input/src/os_base\os_task_scheduler.c ****          break;
 159              		.loc 1 113 0
 160 00fb C645F701 		movb	$1, -9(%ebp)
 114:E:/NeuOrga/Programmieren/c_cpp/github_os/input/src/os_base\os_task_scheduler.c ****       }
 161              		.loc 1 114 0
 162 00ff 90       		nop
 163              	L19:
 122:E:/NeuOrga/Programmieren/c_cpp/github_os/input/src/os_base\os_task_scheduler.c **** 
 164              		.loc 1 122 0 discriminator 1
 165 0100 EB47     		jmp	L12
 166              	L7:
 127:E:/NeuOrga/Programmieren/c_cpp/github_os/input/src/os_base\os_task_scheduler.c ****       {
 167              		.loc 1 127 0
 168 0102 8B45F0   		movl	-16(%ebp), %eax
 169 0105 8B407C   		movl	124(%eax), %eax
 170 0108 83F801   		cmpl	$1, %eax
 171 010b 740C     		je	L21
 172 010d 83F801   		cmpl	$1, %eax
 173 0110 7227     		jb	L22
 174 0112 83F803   		cmpl	$3, %eax
 175 0115 7412     		je	L23
 150:E:/NeuOrga/Programmieren/c_cpp/github_os/input/src/os_base\os_task_scheduler.c ****       }
 176              		.loc 1 150 0
 177 0117 EB2F     		jmp	L24
 178              	L21:
 131:E:/NeuOrga/Programmieren/c_cpp/github_os/input/src/os_base\os_task_scheduler.c ****          RequestState   = ACCEPTED;
 179              		.loc 1 131 0
 180 0119 8B45F0   		movl	-16(%ebp), %eax
 181 011c C7407C02 		movl	$2, 124(%eax)
 181      000000
 132:E:/NeuOrga/Programmieren/c_cpp/github_os/input/src/os_base\os_task_scheduler.c ****          break;
 182              		.loc 1 132 0
 183 0123 C645F701 		movb	$1, -9(%ebp)
 133:E:/NeuOrga/Programmieren/c_cpp/github_os/input/src/os_base\os_task_scheduler.c ****       }
 184              		.loc 1 133 0
 185 0127 EB1F     		jmp	L24
 186              	L23:
 137:E:/NeuOrga/Programmieren/c_cpp/github_os/input/src/os_base\os_task_scheduler.c ****          RequestState   = ACCEPTED;
 187              		.loc 1 137 0
 188 0129 8B45F0   		movl	-16(%ebp), %eax
 189 012c C7407C02 		movl	$2, 124(%eax)
 189      000000
 138:E:/NeuOrga/Programmieren/c_cpp/github_os/input/src/os_base\os_task_scheduler.c ****          break;
 190              		.loc 1 138 0
 191 0133 C645F701 		movb	$1, -9(%ebp)
 139:E:/NeuOrga/Programmieren/c_cpp/github_os/input/src/os_base\os_task_scheduler.c ****       }
 192              		.loc 1 139 0
 193 0137 EB0F     		jmp	L24
 194              	L22:
 143:E:/NeuOrga/Programmieren/c_cpp/github_os/input/src/os_base\os_task_scheduler.c ****          RequestState = ACCEPTED;
 195              		.loc 1 143 0
 196 0139 8B45F0   		movl	-16(%ebp), %eax
 197 013c C7407C02 		movl	$2, 124(%eax)
 197      000000
GAS LISTING C:\Users\PRESID~1\AppData\Local\Temp\ccPWmP62.s 			page 8


 144:E:/NeuOrga/Programmieren/c_cpp/github_os/input/src/os_base\os_task_scheduler.c ****          break;
 198              		.loc 1 144 0
 199 0143 C645F701 		movb	$1, -9(%ebp)
 145:E:/NeuOrga/Programmieren/c_cpp/github_os/input/src/os_base\os_task_scheduler.c ****       }
 200              		.loc 1 145 0
 201 0147 90       		nop
 202              	L24:
 153:E:/NeuOrga/Programmieren/c_cpp/github_os/input/src/os_base\os_task_scheduler.c ****    }
 203              		.loc 1 153 0 discriminator 2
 204 0148 90       		nop
 205              	L12:
 158:E:/NeuOrga/Programmieren/c_cpp/github_os/input/src/os_base\os_task_scheduler.c ****    }
 159:E:/NeuOrga/Programmieren/c_cpp/github_os/input/src/os_base\os_task_scheduler.c ****    }
 160:E:/NeuOrga/Programmieren/c_cpp/github_os/input/src/os_base\os_task_scheduler.c ****    if(RequestState == REJECTED)
 206              		.loc 1 160 0
 207 0149 807DF700 		cmpb	$0, -9(%ebp)
 208 014d 752F     		jne	L25
 161:E:/NeuOrga/Programmieren/c_cpp/github_os/input/src/os_base\os_task_scheduler.c ****    {
 162:E:/NeuOrga/Programmieren/c_cpp/github_os/input/src/os_base\os_task_scheduler.c ****       TASK_TRANSITION_REJECTED_TASK_ADDR  = task;
 209              		.loc 1 162 0
 210 014f 8B45F0   		movl	-16(%ebp), %eax
 211 0152 A3000000 		movl	%eax, _TASK_TRANSITION_REJECTED_TASK_ADDR
 211      00
 163:E:/NeuOrga/Programmieren/c_cpp/github_os/input/src/os_base\os_task_scheduler.c ****       TASK_TRANSITION_REJECTED_STATE      = requested_state;
 212              		.loc 1 163 0
 213 0157 8B450C   		movl	12(%ebp), %eax
 214 015a A3000000 		movl	%eax, _TASK_TRANSITION_REJECTED_STATE
 214      00
 164:E:/NeuOrga/Programmieren/c_cpp/github_os/input/src/os_base\os_task_scheduler.c ****       TASK_TRANSITION_CURRENT_STATE       = task->task_state;
 215              		.loc 1 164 0
 216 015f 8B45F0   		movl	-16(%ebp), %eax
 217 0162 8B407C   		movl	124(%eax), %eax
 218 0165 A3000000 		movl	%eax, _TASK_TRANSITION_CURRENT_STATE
 218      00
 165:E:/NeuOrga/Programmieren/c_cpp/github_os/input/src/os_base\os_task_scheduler.c ****       OS_SET_SW_BUG(E_OS_BUG_TASKSTATE_REQUEST_DENIED, E_FUNC_TASKSTATEREQUEST);
 219              		.loc 1 165 0
 220 016a C7442404 		movl	$12, 4(%esp)
 220      0C000000 
 221 0172 C7042401 		movl	$1, (%esp)
 221      000000
 222 0179 E8000000 		call	_OS_SET_SW_BUG
 222      00
 223              	L25:
 166:E:/NeuOrga/Programmieren/c_cpp/github_os/input/src/os_base\os_task_scheduler.c ****    }
 167:E:/NeuOrga/Programmieren/c_cpp/github_os/input/src/os_base\os_task_scheduler.c ****    return RequestState;
 224              		.loc 1 167 0
 225 017e 8A45F7   		movb	-9(%ebp), %al
 168:E:/NeuOrga/Programmieren/c_cpp/github_os/input/src/os_base\os_task_scheduler.c **** }
 226              		.loc 1 168 0
 227 0181 C9       		leave
 228              		.cfi_restore 5
 229              		.cfi_def_cfa 4, 4
 230 0182 C3       		ret
 231              		.cfi_endproc
 232              	LFE2:
 233              		.globl	_OS_CREATE_TASK
 235              	_OS_CREATE_TASK:
GAS LISTING C:\Users\PRESID~1\AppData\Local\Temp\ccPWmP62.s 			page 9


 236              	LFB3:
 169:E:/NeuOrga/Programmieren/c_cpp/github_os/input/src/os_base\os_task_scheduler.c **** 
 170:E:/NeuOrga/Programmieren/c_cpp/github_os/input/src/os_base\os_task_scheduler.c **** void OS_CREATE_TASK(task_t* task)
 171:E:/NeuOrga/Programmieren/c_cpp/github_os/input/src/os_base\os_task_scheduler.c **** {
 237              		.loc 1 171 0
 238              		.cfi_startproc
 239 0183 55       		pushl	%ebp
 240              		.cfi_def_cfa_offset 8
 241              		.cfi_offset 5, -8
 242 0184 89E5     		movl	%esp, %ebp
 243              		.cfi_def_cfa_register 5
 244 0186 83EC18   		subl	$24, %esp
 172:E:/NeuOrga/Programmieren/c_cpp/github_os/input/src/os_base\os_task_scheduler.c ****    /*5. unspecified --(create   )--> suspend*/
 173:E:/NeuOrga/Programmieren/c_cpp/github_os/input/src/os_base\os_task_scheduler.c ****    if(task != 0u)
 245              		.loc 1 173 0
 246 0189 837D0800 		cmpl	$0, 8(%ebp)
 247 018d 7450     		je	L29
 174:E:/NeuOrga/Programmieren/c_cpp/github_os/input/src/os_base\os_task_scheduler.c ****    {
 175:E:/NeuOrga/Programmieren/c_cpp/github_os/input/src/os_base\os_task_scheduler.c ****       if(task->state_request != 0u)
 248              		.loc 1 175 0
 249 018f 8B4508   		movl	8(%ebp), %eax
 250 0192 8B4078   		movl	120(%eax), %eax
 251 0195 85C0     		testl	%eax, %eax
 252 0197 7430     		je	L30
 176:E:/NeuOrga/Programmieren/c_cpp/github_os/input/src/os_base\os_task_scheduler.c ****       {
 177:E:/NeuOrga/Programmieren/c_cpp/github_os/input/src/os_base\os_task_scheduler.c ****          if(task->state_request(task, E_TASK_SUSPENDED)== ACCEPTED)
 253              		.loc 1 177 0
 254 0199 8B4508   		movl	8(%ebp), %eax
 255 019c 8B4078   		movl	120(%eax), %eax
 256 019f C7442404 		movl	$1, 4(%esp)
 256      01000000 
 257 01a7 8B5508   		movl	8(%ebp), %edx
 258 01aa 891424   		movl	%edx, (%esp)
 259 01ad FFD0     		call	*%eax
 260 01af 3C01     		cmpb	$1, %al
 261 01b1 7440     		je	L28
 178:E:/NeuOrga/Programmieren/c_cpp/github_os/input/src/os_base\os_task_scheduler.c ****          {
 179:E:/NeuOrga/Programmieren/c_cpp/github_os/input/src/os_base\os_task_scheduler.c ****             /*QAC*/
 180:E:/NeuOrga/Programmieren/c_cpp/github_os/input/src/os_base\os_task_scheduler.c ****          }
 181:E:/NeuOrga/Programmieren/c_cpp/github_os/input/src/os_base\os_task_scheduler.c ****          else
 182:E:/NeuOrga/Programmieren/c_cpp/github_os/input/src/os_base\os_task_scheduler.c ****          {
 183:E:/NeuOrga/Programmieren/c_cpp/github_os/input/src/os_base\os_task_scheduler.c ****             OS_SET_SW_BUG(E_OS_BUG_TASKSTATE_REQUEST_DENIED, E_FUNC_CREATETASK);
 262              		.loc 1 183 0
 263 01b3 C7442404 		movl	$15, 4(%esp)
 263      0F000000 
 264 01bb C7042401 		movl	$1, (%esp)
 264      000000
 265 01c2 E8000000 		call	_OS_SET_SW_BUG
 265      00
 266 01c7 EB2A     		jmp	L28
 267              	L30:
 184:E:/NeuOrga/Programmieren/c_cpp/github_os/input/src/os_base\os_task_scheduler.c ****          }
 185:E:/NeuOrga/Programmieren/c_cpp/github_os/input/src/os_base\os_task_scheduler.c ****       }
 186:E:/NeuOrga/Programmieren/c_cpp/github_os/input/src/os_base\os_task_scheduler.c ****       else
 187:E:/NeuOrga/Programmieren/c_cpp/github_os/input/src/os_base\os_task_scheduler.c ****       {
 188:E:/NeuOrga/Programmieren/c_cpp/github_os/input/src/os_base\os_task_scheduler.c ****          OS_SET_SW_BUG(E_OS_BUG_NULL_POINTER, E_FUNC_CREATETASK);
 268              		.loc 1 188 0
GAS LISTING C:\Users\PRESID~1\AppData\Local\Temp\ccPWmP62.s 			page 10


 269 01c9 C7442404 		movl	$15, 4(%esp)
 269      0F000000 
 270 01d1 C7042402 		movl	$2, (%esp)
 270      000000
 271 01d8 E8000000 		call	_OS_SET_SW_BUG
 271      00
 272 01dd EB14     		jmp	L28
 273              	L29:
 189:E:/NeuOrga/Programmieren/c_cpp/github_os/input/src/os_base\os_task_scheduler.c ****       }
 190:E:/NeuOrga/Programmieren/c_cpp/github_os/input/src/os_base\os_task_scheduler.c ****    }
 191:E:/NeuOrga/Programmieren/c_cpp/github_os/input/src/os_base\os_task_scheduler.c ****    else
 192:E:/NeuOrga/Programmieren/c_cpp/github_os/input/src/os_base\os_task_scheduler.c ****    {
 193:E:/NeuOrga/Programmieren/c_cpp/github_os/input/src/os_base\os_task_scheduler.c ****       OS_SET_SW_BUG(E_OS_BUG_NULL_POINTER, E_FUNC_CREATETASK);
 274              		.loc 1 193 0
 275 01df C7442404 		movl	$15, 4(%esp)
 275      0F000000 
 276 01e7 C7042402 		movl	$2, (%esp)
 276      000000
 277 01ee E8000000 		call	_OS_SET_SW_BUG
 277      00
 278              	L28:
 194:E:/NeuOrga/Programmieren/c_cpp/github_os/input/src/os_base\os_task_scheduler.c ****    }
 195:E:/NeuOrga/Programmieren/c_cpp/github_os/input/src/os_base\os_task_scheduler.c **** }
 279              		.loc 1 195 0
 280 01f3 C9       		leave
 281              		.cfi_restore 5
 282              		.cfi_def_cfa 4, 4
 283 01f4 C3       		ret
 284              		.cfi_endproc
 285              	LFE3:
 287              	_os_preempt_task:
 288              	LFB4:
 196:E:/NeuOrga/Programmieren/c_cpp/github_os/input/src/os_base\os_task_scheduler.c **** void os_preempt_task(task_t* task, scheduling_t* scheduling_task)
 197:E:/NeuOrga/Programmieren/c_cpp/github_os/input/src/os_base\os_task_scheduler.c **** {
 289              		.loc 1 197 0
 290              		.cfi_startproc
 291 01f5 55       		pushl	%ebp
 292              		.cfi_def_cfa_offset 8
 293              		.cfi_offset 5, -8
 294 01f6 89E5     		movl	%esp, %ebp
 295              		.cfi_def_cfa_register 5
 296 01f8 83EC18   		subl	$24, %esp
 198:E:/NeuOrga/Programmieren/c_cpp/github_os/input/src/os_base\os_task_scheduler.c ****    /*2. running     --(preempt  )--> ready*/
 199:E:/NeuOrga/Programmieren/c_cpp/github_os/input/src/os_base\os_task_scheduler.c ****    /* Preempt task
 200:E:/NeuOrga/Programmieren/c_cpp/github_os/input/src/os_base\os_task_scheduler.c ****    - Disable Interrupts
 201:E:/NeuOrga/Programmieren/c_cpp/github_os/input/src/os_base\os_task_scheduler.c ****    - OS_TASK_SAVE_TASK_ENVIRONMENT
 202:E:/NeuOrga/Programmieren/c_cpp/github_os/input/src/os_base\os_task_scheduler.c ****    - add to Schedule Queue / delete from RunQueue
 203:E:/NeuOrga/Programmieren/c_cpp/github_os/input/src/os_base\os_task_scheduler.c ****    - delete active flag
 204:E:/NeuOrga/Programmieren/c_cpp/github_os/input/src/os_base\os_task_scheduler.c ****    - enable Interrupts
 205:E:/NeuOrga/Programmieren/c_cpp/github_os/input/src/os_base\os_task_scheduler.c ****    */
 206:E:/NeuOrga/Programmieren/c_cpp/github_os/input/src/os_base\os_task_scheduler.c ****    if(task != 0u && scheduling_task != 0u)
 297              		.loc 1 206 0
 298 01fb 837D0800 		cmpl	$0, 8(%ebp)
 299 01ff 0F848500 		je	L35
 299      0000
 300              		.loc 1 206 0 is_stmt 0 discriminator 1
 301 0205 837D0C00 		cmpl	$0, 12(%ebp)
GAS LISTING C:\Users\PRESID~1\AppData\Local\Temp\ccPWmP62.s 			page 11


 302 0209 747F     		je	L35
 207:E:/NeuOrga/Programmieren/c_cpp/github_os/input/src/os_base\os_task_scheduler.c ****    {
 208:E:/NeuOrga/Programmieren/c_cpp/github_os/input/src/os_base\os_task_scheduler.c ****       if(task->state_request != 0u)
 303              		.loc 1 208 0 is_stmt 1
 304 020b 8B4508   		movl	8(%ebp), %eax
 305 020e 8B4078   		movl	120(%eax), %eax
 306 0211 85C0     		testl	%eax, %eax
 307 0213 745F     		je	L36
 209:E:/NeuOrga/Programmieren/c_cpp/github_os/input/src/os_base\os_task_scheduler.c ****       {
 210:E:/NeuOrga/Programmieren/c_cpp/github_os/input/src/os_base\os_task_scheduler.c ****          if(task->state_request(task, E_TASK_READY)== ACCEPTED)
 308              		.loc 1 210 0
 309 0215 8B4508   		movl	8(%ebp), %eax
 310 0218 8B4078   		movl	120(%eax), %eax
 311 021b C7442404 		movl	$2, 4(%esp)
 311      02000000 
 312 0223 8B5508   		movl	8(%ebp), %edx
 313 0226 891424   		movl	%edx, (%esp)
 314 0229 FFD0     		call	*%eax
 315 022b 3C01     		cmpb	$1, %al
 316 022d 752F     		jne	L37
 211:E:/NeuOrga/Programmieren/c_cpp/github_os/input/src/os_base\os_task_scheduler.c ****          {
 212:E:/NeuOrga/Programmieren/c_cpp/github_os/input/src/os_base\os_task_scheduler.c ****             DISABLE_INTERRUPTS();
 213:E:/NeuOrga/Programmieren/c_cpp/github_os/input/src/os_base\os_task_scheduler.c ****             OS_TASK_SAVE_TASK_ENVIRONMENT(task);
 317              		.loc 1 213 0
 318 022f 8B4508   		movl	8(%ebp), %eax
 319 0232 890424   		movl	%eax, (%esp)
 320 0235 E8000000 		call	_OS_TASK_SAVE_TASK_ENVIRONMENT
 320      00
 214:E:/NeuOrga/Programmieren/c_cpp/github_os/input/src/os_base\os_task_scheduler.c ****             OS_TASK_RESTORE_SYSTEM_STACK((uint8*)&OS_MAIN_STACK);
 321              		.loc 1 214 0
 322 023a C7042400 		movl	$_OS_MAIN_STACK, (%esp)
 322      000000
 323 0241 E8000000 		call	_OS_TASK_RESTORE_SYSTEM_STACK
 323      00
 215:E:/NeuOrga/Programmieren/c_cpp/github_os/input/src/os_base\os_task_scheduler.c **** 
 216:E:/NeuOrga/Programmieren/c_cpp/github_os/input/src/os_base\os_task_scheduler.c ****             task->active = FALSE;
 324              		.loc 1 216 0
 325 0246 8B4508   		movl	8(%ebp), %eax
 326 0249 8A10     		movb	(%eax), %dl
 327 024b 83E2FE   		andl	$-2, %edx
 328 024e 8810     		movb	%dl, (%eax)
 217:E:/NeuOrga/Programmieren/c_cpp/github_os/input/src/os_base\os_task_scheduler.c ****             /* reset the prio increase for waiting */
 218:E:/NeuOrga/Programmieren/c_cpp/github_os/input/src/os_base\os_task_scheduler.c ****             task->current_prio = task->default_prio;
 329              		.loc 1 218 0
 330 0250 8B4508   		movl	8(%ebp), %eax
 331 0253 8A506D   		movb	109(%eax), %dl
 332 0256 8B4508   		movl	8(%ebp), %eax
 333 0259 88506C   		movb	%dl, 108(%eax)
 208:E:/NeuOrga/Programmieren/c_cpp/github_os/input/src/os_base\os_task_scheduler.c ****       {
 334              		.loc 1 208 0
 335 025c EB40     		jmp	L34
 336              	L37:
 219:E:/NeuOrga/Programmieren/c_cpp/github_os/input/src/os_base\os_task_scheduler.c ****             ENABLE_INTERRUPTS();
 220:E:/NeuOrga/Programmieren/c_cpp/github_os/input/src/os_base\os_task_scheduler.c ****          }
 221:E:/NeuOrga/Programmieren/c_cpp/github_os/input/src/os_base\os_task_scheduler.c ****          else
 222:E:/NeuOrga/Programmieren/c_cpp/github_os/input/src/os_base\os_task_scheduler.c ****          {
 223:E:/NeuOrga/Programmieren/c_cpp/github_os/input/src/os_base\os_task_scheduler.c ****             OS_SET_SW_BUG(E_OS_BUG_TASKSTATE_REQUEST_DENIED, E_FUNC_PREEMPT_TASK);
GAS LISTING C:\Users\PRESID~1\AppData\Local\Temp\ccPWmP62.s 			page 12


 337              		.loc 1 223 0
 338 025e C7442404 		movl	$13, 4(%esp)
 338      0D000000 
 339 0266 C7042401 		movl	$1, (%esp)
 339      000000
 340 026d E8000000 		call	_OS_SET_SW_BUG
 340      00
 208:E:/NeuOrga/Programmieren/c_cpp/github_os/input/src/os_base\os_task_scheduler.c ****       {
 341              		.loc 1 208 0
 342 0272 EB2A     		jmp	L34
 343              	L36:
 224:E:/NeuOrga/Programmieren/c_cpp/github_os/input/src/os_base\os_task_scheduler.c ****          }
 225:E:/NeuOrga/Programmieren/c_cpp/github_os/input/src/os_base\os_task_scheduler.c ****       }
 226:E:/NeuOrga/Programmieren/c_cpp/github_os/input/src/os_base\os_task_scheduler.c ****       else
 227:E:/NeuOrga/Programmieren/c_cpp/github_os/input/src/os_base\os_task_scheduler.c ****       {
 228:E:/NeuOrga/Programmieren/c_cpp/github_os/input/src/os_base\os_task_scheduler.c ****          OS_SET_SW_BUG(E_OS_BUG_NULL_POINTER, E_FUNC_PREEMPT_TASK);
 344              		.loc 1 228 0
 345 0274 C7442404 		movl	$13, 4(%esp)
 345      0D000000 
 346 027c C7042402 		movl	$2, (%esp)
 346      000000
 347 0283 E8000000 		call	_OS_SET_SW_BUG
 347      00
 208:E:/NeuOrga/Programmieren/c_cpp/github_os/input/src/os_base\os_task_scheduler.c ****       {
 348              		.loc 1 208 0
 349 0288 EB14     		jmp	L34
 350              	L35:
 229:E:/NeuOrga/Programmieren/c_cpp/github_os/input/src/os_base\os_task_scheduler.c ****       }
 230:E:/NeuOrga/Programmieren/c_cpp/github_os/input/src/os_base\os_task_scheduler.c ****    }
 231:E:/NeuOrga/Programmieren/c_cpp/github_os/input/src/os_base\os_task_scheduler.c ****    else
 232:E:/NeuOrga/Programmieren/c_cpp/github_os/input/src/os_base\os_task_scheduler.c ****    {
 233:E:/NeuOrga/Programmieren/c_cpp/github_os/input/src/os_base\os_task_scheduler.c ****       OS_SET_SW_BUG(E_OS_BUG_NULL_POINTER, E_FUNC_PREEMPT_TASK);
 351              		.loc 1 233 0
 352 028a C7442404 		movl	$13, 4(%esp)
 352      0D000000 
 353 0292 C7042402 		movl	$2, (%esp)
 353      000000
 354 0299 E8000000 		call	_OS_SET_SW_BUG
 354      00
 355              	L34:
 234:E:/NeuOrga/Programmieren/c_cpp/github_os/input/src/os_base\os_task_scheduler.c ****    }
 235:E:/NeuOrga/Programmieren/c_cpp/github_os/input/src/os_base\os_task_scheduler.c **** }
 356              		.loc 1 235 0
 357 029e C9       		leave
 358              		.cfi_restore 5
 359              		.cfi_def_cfa 4, 4
 360 029f C3       		ret
 361              		.cfi_endproc
 362              	LFE4:
 363              		.globl	_OS_ACTIVATE_TASK
 365              	_OS_ACTIVATE_TASK:
 366              	LFB5:
 236:E:/NeuOrga/Programmieren/c_cpp/github_os/input/src/os_base\os_task_scheduler.c **** 
 237:E:/NeuOrga/Programmieren/c_cpp/github_os/input/src/os_base\os_task_scheduler.c **** void OS_ACTIVATE_TASK(task_t* task)
 238:E:/NeuOrga/Programmieren/c_cpp/github_os/input/src/os_base\os_task_scheduler.c **** {
 367              		.loc 1 238 0
 368              		.cfi_startproc
GAS LISTING C:\Users\PRESID~1\AppData\Local\Temp\ccPWmP62.s 			page 13


 369 02a0 55       		pushl	%ebp
 370              		.cfi_def_cfa_offset 8
 371              		.cfi_offset 5, -8
 372 02a1 89E5     		movl	%esp, %ebp
 373              		.cfi_def_cfa_register 5
 374 02a3 83EC18   		subl	$24, %esp
 239:E:/NeuOrga/Programmieren/c_cpp/github_os/input/src/os_base\os_task_scheduler.c ****    /*
 240:E:/NeuOrga/Programmieren/c_cpp/github_os/input/src/os_base\os_task_scheduler.c ****    Activate Task:
 241:E:/NeuOrga/Programmieren/c_cpp/github_os/input/src/os_base\os_task_scheduler.c ****    - Disable Interrupts
 242:E:/NeuOrga/Programmieren/c_cpp/github_os/input/src/os_base\os_task_scheduler.c ****    - Add to schedule Queue
 243:E:/NeuOrga/Programmieren/c_cpp/github_os/input/src/os_base\os_task_scheduler.c ****    - Enable Interrupts
 244:E:/NeuOrga/Programmieren/c_cpp/github_os/input/src/os_base\os_task_scheduler.c **** 
 245:E:/NeuOrga/Programmieren/c_cpp/github_os/input/src/os_base\os_task_scheduler.c ****    in case of valid request, the content, where the "task_t* task" is point to is stored in TASK_RU
 246:E:/NeuOrga/Programmieren/c_cpp/github_os/input/src/os_base\os_task_scheduler.c ****    */
 247:E:/NeuOrga/Programmieren/c_cpp/github_os/input/src/os_base\os_task_scheduler.c ****    if(task != 0u)
 375              		.loc 1 247 0
 376 02a6 837D0800 		cmpl	$0, 8(%ebp)
 377 02aa 0F84D500 		je	L41
 377      0000
 248:E:/NeuOrga/Programmieren/c_cpp/github_os/input/src/os_base\os_task_scheduler.c ****    {
 249:E:/NeuOrga/Programmieren/c_cpp/github_os/input/src/os_base\os_task_scheduler.c ****       if(task->state_request(task, E_TASK_READY)==ACCEPTED)
 378              		.loc 1 249 0
 379 02b0 8B4508   		movl	8(%ebp), %eax
 380 02b3 8B4078   		movl	120(%eax), %eax
 381 02b6 C7442404 		movl	$2, 4(%esp)
 381      02000000 
 382 02be 8B5508   		movl	8(%ebp), %edx
 383 02c1 891424   		movl	%edx, (%esp)
 384 02c4 FFD0     		call	*%eax
 385 02c6 3C01     		cmpb	$1, %al
 386 02c8 0F85A300 		jne	L43
 386      0000
 250:E:/NeuOrga/Programmieren/c_cpp/github_os/input/src/os_base\os_task_scheduler.c ****       {
 251:E:/NeuOrga/Programmieren/c_cpp/github_os/input/src/os_base\os_task_scheduler.c ****          DISABLE_INTERRUPTS();
 252:E:/NeuOrga/Programmieren/c_cpp/github_os/input/src/os_base\os_task_scheduler.c ****          /* 3. suspended to ready (add to runqueue) */
 253:E:/NeuOrga/Programmieren/c_cpp/github_os/input/src/os_base\os_task_scheduler.c ****          if(task->idle_task == FALSE)
 387              		.loc 1 253 0
 388 02ce 8B4508   		movl	8(%ebp), %eax
 389 02d1 8A00     		movb	(%eax), %al
 390 02d3 83E004   		andl	$4, %eax
 391 02d6 84C0     		testb	%al, %al
 392 02d8 0F858600 		jne	L44
 392      0000
 254:E:/NeuOrga/Programmieren/c_cpp/github_os/input/src/os_base\os_task_scheduler.c ****          {
 255:E:/NeuOrga/Programmieren/c_cpp/github_os/input/src/os_base\os_task_scheduler.c ****             if( (task->active == FALSE)
 393              		.loc 1 255 0
 394 02de 8B4508   		movl	8(%ebp), %eax
 395 02e1 8A00     		movb	(%eax), %al
 396 02e3 83E001   		andl	$1, %eax
 397 02e6 84C0     		testb	%al, %al
 398 02e8 741C     		je	L45
 256:E:/NeuOrga/Programmieren/c_cpp/github_os/input/src/os_base\os_task_scheduler.c ****                   || ( (task->active == TRUE) && (task->nr_of_ins_allowed > task->nr_of_ins_activat
 399              		.loc 1 256 0
 400 02ea 8B4508   		movl	8(%ebp), %eax
 401 02ed 8A00     		movb	(%eax), %al
 402 02ef 83E001   		andl	$1, %eax
 403 02f2 84C0     		testb	%al, %al
GAS LISTING C:\Users\PRESID~1\AppData\Local\Temp\ccPWmP62.s 			page 14


 404 02f4 7456     		je	L46
 405              		.loc 1 256 0 is_stmt 0 discriminator 1
 406 02f6 8B4508   		movl	8(%ebp), %eax
 407 02f9 8A5004   		movb	4(%eax), %dl
 408 02fc 8B4508   		movl	8(%ebp), %eax
 409 02ff 8A4005   		movb	5(%eax), %al
 410 0302 38C2     		cmpb	%al, %dl
 411 0304 7646     		jbe	L46
 412              	L45:
 257:E:/NeuOrga/Programmieren/c_cpp/github_os/input/src/os_base\os_task_scheduler.c ****               )
 258:E:/NeuOrga/Programmieren/c_cpp/github_os/input/src/os_base\os_task_scheduler.c ****             {
 259:E:/NeuOrga/Programmieren/c_cpp/github_os/input/src/os_base\os_task_scheduler.c ****                /* only activate if allowed by rule */
 260:E:/NeuOrga/Programmieren/c_cpp/github_os/input/src/os_base\os_task_scheduler.c ****                task = ADD_TO_TASK_QUEUE(task);
 413              		.loc 1 260 0 is_stmt 1
 414 0306 8B4508   		movl	8(%ebp), %eax
 415 0309 890424   		movl	%eax, (%esp)
 416 030c E8000000 		call	_ADD_TO_TASK_QUEUE
 416      00
 417 0311 894508   		movl	%eax, 8(%ebp)
 261:E:/NeuOrga/Programmieren/c_cpp/github_os/input/src/os_base\os_task_scheduler.c ****                ADD_TO_SCHEDULING_QUEUE(task);
 418              		.loc 1 261 0
 419 0314 8B4508   		movl	8(%ebp), %eax
 420 0317 890424   		movl	%eax, (%esp)
 421 031a E8000000 		call	_ADD_TO_SCHEDULING_QUEUE
 421      00
 262:E:/NeuOrga/Programmieren/c_cpp/github_os/input/src/os_base\os_task_scheduler.c ****                if(task != 0u)
 422              		.loc 1 262 0
 423 031f 837D0800 		cmpl	$0, 8(%ebp)
 424 0323 7411     		je	L47
 263:E:/NeuOrga/Programmieren/c_cpp/github_os/input/src/os_base\os_task_scheduler.c ****                {
 264:E:/NeuOrga/Programmieren/c_cpp/github_os/input/src/os_base\os_task_scheduler.c ****                   task->nr_of_ins_activated++;
 425              		.loc 1 264 0
 426 0325 8B4508   		movl	8(%ebp), %eax
 427 0328 8A4005   		movb	5(%eax), %al
 428 032b 8D5001   		leal	1(%eax), %edx
 429 032e 8B4508   		movl	8(%ebp), %eax
 430 0331 885005   		movb	%dl, 5(%eax)
 262:E:/NeuOrga/Programmieren/c_cpp/github_os/input/src/os_base\os_task_scheduler.c ****                if(task != 0u)
 431              		.loc 1 262 0
 432 0334 EB2C     		jmp	L49
 433              	L47:
 265:E:/NeuOrga/Programmieren/c_cpp/github_os/input/src/os_base\os_task_scheduler.c ****                }
 266:E:/NeuOrga/Programmieren/c_cpp/github_os/input/src/os_base\os_task_scheduler.c ****                else
 267:E:/NeuOrga/Programmieren/c_cpp/github_os/input/src/os_base\os_task_scheduler.c ****                {
 268:E:/NeuOrga/Programmieren/c_cpp/github_os/input/src/os_base\os_task_scheduler.c ****                   OS_SET_SW_BUG(E_OS_BUG_NULL_POINTER,E_FUNC_ACTIVATETASK);
 434              		.loc 1 268 0
 435 0336 C7442404 		movl	$11, 4(%esp)
 435      0B000000 
 436 033e C7042402 		movl	$2, (%esp)
 436      000000
 437 0345 E8000000 		call	_OS_SET_SW_BUG
 437      00
 262:E:/NeuOrga/Programmieren/c_cpp/github_os/input/src/os_base\os_task_scheduler.c ****                {
 438              		.loc 1 262 0
 439 034a EB16     		jmp	L49
 440              	L46:
 269:E:/NeuOrga/Programmieren/c_cpp/github_os/input/src/os_base\os_task_scheduler.c ****                }
GAS LISTING C:\Users\PRESID~1\AppData\Local\Temp\ccPWmP62.s 			page 15


 270:E:/NeuOrga/Programmieren/c_cpp/github_os/input/src/os_base\os_task_scheduler.c ****             }
 271:E:/NeuOrga/Programmieren/c_cpp/github_os/input/src/os_base\os_task_scheduler.c ****             else
 272:E:/NeuOrga/Programmieren/c_cpp/github_os/input/src/os_base\os_task_scheduler.c ****             {
 273:E:/NeuOrga/Programmieren/c_cpp/github_os/input/src/os_base\os_task_scheduler.c ****                /* multiple activation bug occured */
 274:E:/NeuOrga/Programmieren/c_cpp/github_os/input/src/os_base\os_task_scheduler.c ****                OS_SET_SW_BUG(E_OS_BUG_TASKSTATE_REQUEST_DENIED, E_FUNC_ACTIVATETASK);
 441              		.loc 1 274 0
 442 034c C7442404 		movl	$11, 4(%esp)
 442      0B000000 
 443 0354 C7042401 		movl	$1, (%esp)
 443      000000
 444 035b E8000000 		call	_OS_SET_SW_BUG
 444      00
 445 0360 EB23     		jmp	L41
 446              	L49:
 447 0362 EB21     		jmp	L41
 448              	L44:
 275:E:/NeuOrga/Programmieren/c_cpp/github_os/input/src/os_base\os_task_scheduler.c ****             }
 276:E:/NeuOrga/Programmieren/c_cpp/github_os/input/src/os_base\os_task_scheduler.c ****          }
 277:E:/NeuOrga/Programmieren/c_cpp/github_os/input/src/os_base\os_task_scheduler.c ****          else
 278:E:/NeuOrga/Programmieren/c_cpp/github_os/input/src/os_base\os_task_scheduler.c ****          {
 279:E:/NeuOrga/Programmieren/c_cpp/github_os/input/src/os_base\os_task_scheduler.c ****             ADD_TO_IDLE_TASK_QUEUE(task);
 449              		.loc 1 279 0
 450 0364 8B4508   		movl	8(%ebp), %eax
 451 0367 890424   		movl	%eax, (%esp)
 452 036a E8000000 		call	_ADD_TO_IDLE_TASK_QUEUE
 452      00
 453 036f EB14     		jmp	L41
 454              	L43:
 280:E:/NeuOrga/Programmieren/c_cpp/github_os/input/src/os_base\os_task_scheduler.c ****          }
 281:E:/NeuOrga/Programmieren/c_cpp/github_os/input/src/os_base\os_task_scheduler.c ****          ENABLE_INTERRUPTS();
 282:E:/NeuOrga/Programmieren/c_cpp/github_os/input/src/os_base\os_task_scheduler.c ****       }
 283:E:/NeuOrga/Programmieren/c_cpp/github_os/input/src/os_base\os_task_scheduler.c ****       else
 284:E:/NeuOrga/Programmieren/c_cpp/github_os/input/src/os_base\os_task_scheduler.c ****       {
 285:E:/NeuOrga/Programmieren/c_cpp/github_os/input/src/os_base\os_task_scheduler.c ****          OS_SET_SW_BUG(E_OS_BUG_TASKSTATE_REQUEST_DENIED, E_FUNC_ACTIVATETASK);
 455              		.loc 1 285 0
 456 0371 C7442404 		movl	$11, 4(%esp)
 456      0B000000 
 457 0379 C7042401 		movl	$1, (%esp)
 457      000000
 458 0380 E8000000 		call	_OS_SET_SW_BUG
 458      00
 459              	L41:
 286:E:/NeuOrga/Programmieren/c_cpp/github_os/input/src/os_base\os_task_scheduler.c ****       }
 287:E:/NeuOrga/Programmieren/c_cpp/github_os/input/src/os_base\os_task_scheduler.c ****    }
 288:E:/NeuOrga/Programmieren/c_cpp/github_os/input/src/os_base\os_task_scheduler.c **** }
 460              		.loc 1 288 0
 461 0385 C9       		leave
 462              		.cfi_restore 5
 463              		.cfi_def_cfa 4, 4
 464 0386 C3       		ret
 465              		.cfi_endproc
 466              	LFE5:
 467              		.globl	_OS_START_TASK
 469              	_OS_START_TASK:
 470              	LFB6:
 289:E:/NeuOrga/Programmieren/c_cpp/github_os/input/src/os_base\os_task_scheduler.c **** void OS_START_TASK(task_t* task, scheduling_t* scheduling_task)
 290:E:/NeuOrga/Programmieren/c_cpp/github_os/input/src/os_base\os_task_scheduler.c **** {
GAS LISTING C:\Users\PRESID~1\AppData\Local\Temp\ccPWmP62.s 			page 16


 471              		.loc 1 290 0
 472              		.cfi_startproc
 473 0387 55       		pushl	%ebp
 474              		.cfi_def_cfa_offset 8
 475              		.cfi_offset 5, -8
 476 0388 89E5     		movl	%esp, %ebp
 477              		.cfi_def_cfa_register 5
 478 038a 83EC28   		subl	$40, %esp
 291:E:/NeuOrga/Programmieren/c_cpp/github_os/input/src/os_base\os_task_scheduler.c ****    /* OS_START_TASK
 292:E:/NeuOrga/Programmieren/c_cpp/github_os/input/src/os_base\os_task_scheduler.c ****    - Disable interrupts
 293:E:/NeuOrga/Programmieren/c_cpp/github_os/input/src/os_base\os_task_scheduler.c ****    - restore Environment
 294:E:/NeuOrga/Programmieren/c_cpp/github_os/input/src/os_base\os_task_scheduler.c ****    - enable interrupts
 295:E:/NeuOrga/Programmieren/c_cpp/github_os/input/src/os_base\os_task_scheduler.c **** 
 296:E:/NeuOrga/Programmieren/c_cpp/github_os/input/src/os_base\os_task_scheduler.c ****    - Start Task
 297:E:/NeuOrga/Programmieren/c_cpp/github_os/input/src/os_base\os_task_scheduler.c ****     */
 298:E:/NeuOrga/Programmieren/c_cpp/github_os/input/src/os_base\os_task_scheduler.c ****    timebig_t time;
 299:E:/NeuOrga/Programmieren/c_cpp/github_os/input/src/os_base\os_task_scheduler.c **** 
 300:E:/NeuOrga/Programmieren/c_cpp/github_os/input/src/os_base\os_task_scheduler.c ****    if( (task != 0u) && (scheduling_task != 0u)&& ((task->task_queued != FALSE)||(task->idle_task !=
 479              		.loc 1 300 0
 480 038d 837D0800 		cmpl	$0, 8(%ebp)
 481 0391 0F840B01 		je	L51
 481      0000
 482              		.loc 1 300 0 is_stmt 0 discriminator 1
 483 0397 837D0C00 		cmpl	$0, 12(%ebp)
 484 039b 0F840101 		je	L51
 484      0000
 485              		.loc 1 300 0 discriminator 2
 486 03a1 8B4508   		movl	8(%ebp), %eax
 487 03a4 8A00     		movb	(%eax), %al
 488 03a6 83E002   		andl	$2, %eax
 489 03a9 84C0     		testb	%al, %al
 490 03ab 7510     		jne	L53
 491              		.loc 1 300 0 discriminator 3
 492 03ad 8B4508   		movl	8(%ebp), %eax
 493 03b0 8A00     		movb	(%eax), %al
 494 03b2 83E004   		andl	$4, %eax
 495 03b5 84C0     		testb	%al, %al
 496 03b7 0F84E500 		je	L51
 496      0000
 497              	L53:
 301:E:/NeuOrga/Programmieren/c_cpp/github_os/input/src/os_base\os_task_scheduler.c ****    {
 302:E:/NeuOrga/Programmieren/c_cpp/github_os/input/src/os_base\os_task_scheduler.c ****       if(task->state_request !=0u)
 498              		.loc 1 302 0 is_stmt 1
 499 03bd 8B4508   		movl	8(%ebp), %eax
 500 03c0 8B4078   		movl	120(%eax), %eax
 501 03c3 85C0     		testl	%eax, %eax
 502 03c5 0F84C300 		je	L54
 502      0000
 303:E:/NeuOrga/Programmieren/c_cpp/github_os/input/src/os_base\os_task_scheduler.c ****       {
 304:E:/NeuOrga/Programmieren/c_cpp/github_os/input/src/os_base\os_task_scheduler.c ****          if(task->state_request(task, E_TASK_RUNNING)== ACCEPTED)
 503              		.loc 1 304 0
 504 03cb 8B4508   		movl	8(%ebp), %eax
 505 03ce 8B4078   		movl	120(%eax), %eax
 506 03d1 C7442404 		movl	$3, 4(%esp)
 506      03000000 
 507 03d9 8B5508   		movl	8(%ebp), %edx
 508 03dc 891424   		movl	%edx, (%esp)
GAS LISTING C:\Users\PRESID~1\AppData\Local\Temp\ccPWmP62.s 			page 17


 509 03df FFD0     		call	*%eax
 510 03e1 3C01     		cmpb	$1, %al
 511 03e3 0F858F00 		jne	L55
 511      0000
 305:E:/NeuOrga/Programmieren/c_cpp/github_os/input/src/os_base\os_task_scheduler.c ****          {
 306:E:/NeuOrga/Programmieren/c_cpp/github_os/input/src/os_base\os_task_scheduler.c ****             DISABLE_INTERRUPTS();
 307:E:/NeuOrga/Programmieren/c_cpp/github_os/input/src/os_base\os_task_scheduler.c ****             task->active =  TRUE;
 512              		.loc 1 307 0
 513 03e9 8B4508   		movl	8(%ebp), %eax
 514 03ec 8A10     		movb	(%eax), %dl
 515 03ee 83CA01   		orl	$1, %edx
 516 03f1 8810     		movb	%dl, (%eax)
 308:E:/NeuOrga/Programmieren/c_cpp/github_os/input/src/os_base\os_task_scheduler.c ****             ASSIGN_NULL(&task->wait_time);
 517              		.loc 1 308 0
 518 03f3 8B4508   		movl	8(%ebp), %eax
 519 03f6 83C016   		addl	$22, %eax
 520 03f9 890424   		movl	%eax, (%esp)
 521 03fc E8000000 		call	_ASSIGN_NULL
 521      00
 309:E:/NeuOrga/Programmieren/c_cpp/github_os/input/src/os_base\os_task_scheduler.c ****             task->current_prio = task->default_prio;
 522              		.loc 1 309 0
 523 0401 8B4508   		movl	8(%ebp), %eax
 524 0404 8A506D   		movb	109(%eax), %dl
 525 0407 8B4508   		movl	8(%ebp), %eax
 526 040a 88506C   		movb	%dl, 108(%eax)
 310:E:/NeuOrga/Programmieren/c_cpp/github_os/input/src/os_base\os_task_scheduler.c ****             OS_TASK_SAVE_SYSTEM_STACK((uint8*)&OS_MAIN_STACK);
 527              		.loc 1 310 0
 528 040d C7042400 		movl	$_OS_MAIN_STACK, (%esp)
 528      000000
 529 0414 E8000000 		call	_OS_TASK_SAVE_SYSTEM_STACK
 529      00
 311:E:/NeuOrga/Programmieren/c_cpp/github_os/input/src/os_base\os_task_scheduler.c ****             OS_TASK_RESTORETASK_ENVIRONMENT(task);
 530              		.loc 1 311 0
 531 0419 8B4508   		movl	8(%ebp), %eax
 532 041c 890424   		movl	%eax, (%esp)
 533 041f E8000000 		call	_OS_TASK_RESTORETASK_ENVIRONMENT
 533      00
 312:E:/NeuOrga/Programmieren/c_cpp/github_os/input/src/os_base\os_task_scheduler.c ****             OS_GET_CURRENT_TIME(&time);
 534              		.loc 1 312 0
 535 0424 8D45E8   		leal	-24(%ebp), %eax
 536 0427 890424   		movl	%eax, (%esp)
 537 042a E8000000 		call	_OS_GET_CURRENT_TIME
 537      00
 313:E:/NeuOrga/Programmieren/c_cpp/github_os/input/src/os_base\os_task_scheduler.c ****             ASSIGN(&task->start_time, &time);
 538              		.loc 1 313 0
 539 042f 8B4508   		movl	8(%ebp), %eax
 540 0432 8D505C   		leal	92(%eax), %edx
 541 0435 8D45E8   		leal	-24(%ebp), %eax
 542 0438 89442404 		movl	%eax, 4(%esp)
 543 043c 891424   		movl	%edx, (%esp)
 544 043f E8000000 		call	_ASSIGN
 544      00
 314:E:/NeuOrga/Programmieren/c_cpp/github_os/input/src/os_base\os_task_scheduler.c ****             ENABLE_INTERRUPTS();
 315:E:/NeuOrga/Programmieren/c_cpp/github_os/input/src/os_base\os_task_scheduler.c **** 
 316:E:/NeuOrga/Programmieren/c_cpp/github_os/input/src/os_base\os_task_scheduler.c ****             /* task execution shall not happen with disabled interrupts */
 317:E:/NeuOrga/Programmieren/c_cpp/github_os/input/src/os_base\os_task_scheduler.c ****             SET_RUNNING_TASK(task, scheduling_task);
 545              		.loc 1 317 0
GAS LISTING C:\Users\PRESID~1\AppData\Local\Temp\ccPWmP62.s 			page 18


 546 0444 8B450C   		movl	12(%ebp), %eax
 547 0447 89442404 		movl	%eax, 4(%esp)
 548 044b 8B4508   		movl	8(%ebp), %eax
 549 044e 890424   		movl	%eax, (%esp)
 550 0451 E8000000 		call	_SET_RUNNING_TASK
 550      00
 318:E:/NeuOrga/Programmieren/c_cpp/github_os/input/src/os_base\os_task_scheduler.c ****             /* change to user mode... */
 319:E:/NeuOrga/Programmieren/c_cpp/github_os/input/src/os_base\os_task_scheduler.c ****             if(task->privilige_mode == E_PRIVILIGEMODE_UNPRIVILIGED_THREAD_MODE)
 551              		.loc 1 319 0
 552 0456 8B4508   		movl	8(%ebp), %eax
 553 0459 8B80A800 		movl	168(%eax), %eax
 553      0000
 554 045f 85C0     		testl	%eax, %eax
 555 0461 7505     		jne	L56
 320:E:/NeuOrga/Programmieren/c_cpp/github_os/input/src/os_base\os_task_scheduler.c ****             {
 321:E:/NeuOrga/Programmieren/c_cpp/github_os/input/src/os_base\os_task_scheduler.c ****                LLF_CHANGE_TO_UNPRIVILIGED_THREAD_MODE();
 556              		.loc 1 321 0
 557 0463 E8000000 		call	_LLF_CHANGE_TO_UNPRIVILIGED_THREAD_MODE
 557      00
 558              	L56:
 322:E:/NeuOrga/Programmieren/c_cpp/github_os/input/src/os_base\os_task_scheduler.c ****             }
 323:E:/NeuOrga/Programmieren/c_cpp/github_os/input/src/os_base\os_task_scheduler.c **** 
 324:E:/NeuOrga/Programmieren/c_cpp/github_os/input/src/os_base\os_task_scheduler.c ****             /* call the task entry function */
 325:E:/NeuOrga/Programmieren/c_cpp/github_os/input/src/os_base\os_task_scheduler.c ****             task->fp(task);
 559              		.loc 1 325 0
 560 0468 8B4508   		movl	8(%ebp), %eax
 561 046b 8B4074   		movl	116(%eax), %eax
 562 046e 8B5508   		movl	8(%ebp), %edx
 563 0471 891424   		movl	%edx, (%esp)
 564 0474 FFD0     		call	*%eax
 565 0476 EB2A     		jmp	L51
 566              	L55:
 326:E:/NeuOrga/Programmieren/c_cpp/github_os/input/src/os_base\os_task_scheduler.c ****          }
 327:E:/NeuOrga/Programmieren/c_cpp/github_os/input/src/os_base\os_task_scheduler.c ****          else
 328:E:/NeuOrga/Programmieren/c_cpp/github_os/input/src/os_base\os_task_scheduler.c ****          {
 329:E:/NeuOrga/Programmieren/c_cpp/github_os/input/src/os_base\os_task_scheduler.c ****             OS_SET_SW_BUG(E_OS_BUG_TASKSTATE_REQUEST_DENIED, E_FUNC_STARTTASK);
 567              		.loc 1 329 0
 568 0478 C7442404 		movl	$6, 4(%esp)
 568      06000000 
 569 0480 C7042401 		movl	$1, (%esp)
 569      000000
 570 0487 E8000000 		call	_OS_SET_SW_BUG
 570      00
 571 048c EB14     		jmp	L51
 572              	L54:
 330:E:/NeuOrga/Programmieren/c_cpp/github_os/input/src/os_base\os_task_scheduler.c ****          }
 331:E:/NeuOrga/Programmieren/c_cpp/github_os/input/src/os_base\os_task_scheduler.c ****       }
 332:E:/NeuOrga/Programmieren/c_cpp/github_os/input/src/os_base\os_task_scheduler.c ****       else
 333:E:/NeuOrga/Programmieren/c_cpp/github_os/input/src/os_base\os_task_scheduler.c ****       {
 334:E:/NeuOrga/Programmieren/c_cpp/github_os/input/src/os_base\os_task_scheduler.c ****          OS_SET_SW_BUG(E_OS_BUG_NULL_POINTER, E_FUNC_STARTTASK);
 573              		.loc 1 334 0
 574 048e C7442404 		movl	$6, 4(%esp)
 574      06000000 
 575 0496 C7042402 		movl	$2, (%esp)
 575      000000
 576 049d E8000000 		call	_OS_SET_SW_BUG
 576      00
GAS LISTING C:\Users\PRESID~1\AppData\Local\Temp\ccPWmP62.s 			page 19


 577              	L51:
 335:E:/NeuOrga/Programmieren/c_cpp/github_os/input/src/os_base\os_task_scheduler.c ****       }
 336:E:/NeuOrga/Programmieren/c_cpp/github_os/input/src/os_base\os_task_scheduler.c ****    }
 337:E:/NeuOrga/Programmieren/c_cpp/github_os/input/src/os_base\os_task_scheduler.c ****    /* allowed in case of empty QUEUE elements (queue elements which have no activate_task yet recei
 338:E:/NeuOrga/Programmieren/c_cpp/github_os/input/src/os_base\os_task_scheduler.c ****    else
 339:E:/NeuOrga/Programmieren/c_cpp/github_os/input/src/os_base\os_task_scheduler.c ****    {
 340:E:/NeuOrga/Programmieren/c_cpp/github_os/input/src/os_base\os_task_scheduler.c ****        OS_SET_SW_BUG(E_OS_BUG_NULL_POINTER, E_FUNC_STARTTASK);
 341:E:/NeuOrga/Programmieren/c_cpp/github_os/input/src/os_base\os_task_scheduler.c ****    }
 342:E:/NeuOrga/Programmieren/c_cpp/github_os/input/src/os_base\os_task_scheduler.c ****    */
 343:E:/NeuOrga/Programmieren/c_cpp/github_os/input/src/os_base\os_task_scheduler.c **** }
 578              		.loc 1 343 0
 579 04a2 C9       		leave
 580              		.cfi_restore 5
 581              		.cfi_def_cfa 4, 4
 582 04a3 C3       		ret
 583              		.cfi_endproc
 584              	LFE6:
 585              		.globl	_OS_TERMINATE_TASK
 587              	_OS_TERMINATE_TASK:
 588              	LFB7:
 344:E:/NeuOrga/Programmieren/c_cpp/github_os/input/src/os_base\os_task_scheduler.c **** void OS_TERMINATE_TASK(task_t* task, scheduling_t* scheduling_task)
 345:E:/NeuOrga/Programmieren/c_cpp/github_os/input/src/os_base\os_task_scheduler.c **** {
 589              		.loc 1 345 0
 590              		.cfi_startproc
 591 04a4 55       		pushl	%ebp
 592              		.cfi_def_cfa_offset 8
 593              		.cfi_offset 5, -8
 594 04a5 89E5     		movl	%esp, %ebp
 595              		.cfi_def_cfa_register 5
 596 04a7 83EC18   		subl	$24, %esp
 346:E:/NeuOrga/Programmieren/c_cpp/github_os/input/src/os_base\os_task_scheduler.c ****    /* Preempt task
 347:E:/NeuOrga/Programmieren/c_cpp/github_os/input/src/os_base\os_task_scheduler.c ****    - Disable Interrupts
 348:E:/NeuOrga/Programmieren/c_cpp/github_os/input/src/os_base\os_task_scheduler.c ****    - OS_TASK_SAVE_TASK_ENVIRONMENT
 349:E:/NeuOrga/Programmieren/c_cpp/github_os/input/src/os_base\os_task_scheduler.c ****    - add to Schedule Queue / delete from RunQueue
 350:E:/NeuOrga/Programmieren/c_cpp/github_os/input/src/os_base\os_task_scheduler.c ****    - delete active flag
 351:E:/NeuOrga/Programmieren/c_cpp/github_os/input/src/os_base\os_task_scheduler.c ****    - enable Interrupts
 352:E:/NeuOrga/Programmieren/c_cpp/github_os/input/src/os_base\os_task_scheduler.c ****    */
 353:E:/NeuOrga/Programmieren/c_cpp/github_os/input/src/os_base\os_task_scheduler.c ****    if(task != 0u && scheduling_task != 0u)
 597              		.loc 1 353 0
 598 04aa 837D0800 		cmpl	$0, 8(%ebp)
 599 04ae 0F849F00 		je	L59
 599      0000
 600              		.loc 1 353 0 is_stmt 0 discriminator 1
 601 04b4 837D0C00 		cmpl	$0, 12(%ebp)
 602 04b8 0F849500 		je	L59
 602      0000
 354:E:/NeuOrga/Programmieren/c_cpp/github_os/input/src/os_base\os_task_scheduler.c ****    {
 355:E:/NeuOrga/Programmieren/c_cpp/github_os/input/src/os_base\os_task_scheduler.c ****       if(task->state_request != 0u)
 603              		.loc 1 355 0 is_stmt 1
 604 04be 8B4508   		movl	8(%ebp), %eax
 605 04c1 8B4078   		movl	120(%eax), %eax
 606 04c4 85C0     		testl	%eax, %eax
 607 04c6 7475     		je	L60
 356:E:/NeuOrga/Programmieren/c_cpp/github_os/input/src/os_base\os_task_scheduler.c ****       {
 357:E:/NeuOrga/Programmieren/c_cpp/github_os/input/src/os_base\os_task_scheduler.c ****          if(task->state_request(task, E_TASK_SUSPENDED)== ACCEPTED)
 608              		.loc 1 357 0
 609 04c8 8B4508   		movl	8(%ebp), %eax
GAS LISTING C:\Users\PRESID~1\AppData\Local\Temp\ccPWmP62.s 			page 20


 610 04cb 8B4078   		movl	120(%eax), %eax
 611 04ce C7442404 		movl	$1, 4(%esp)
 611      01000000 
 612 04d6 8B5508   		movl	8(%ebp), %edx
 613 04d9 891424   		movl	%edx, (%esp)
 614 04dc FFD0     		call	*%eax
 615 04de 3C01     		cmpb	$1, %al
 616 04e0 7545     		jne	L61
 358:E:/NeuOrga/Programmieren/c_cpp/github_os/input/src/os_base\os_task_scheduler.c ****          {
 359:E:/NeuOrga/Programmieren/c_cpp/github_os/input/src/os_base\os_task_scheduler.c ****             DISABLE_INTERRUPTS();
 360:E:/NeuOrga/Programmieren/c_cpp/github_os/input/src/os_base\os_task_scheduler.c ****             OS_TASK_SAVE_TASK_ENVIRONMENT(task);
 617              		.loc 1 360 0
 618 04e2 8B4508   		movl	8(%ebp), %eax
 619 04e5 890424   		movl	%eax, (%esp)
 620 04e8 E8000000 		call	_OS_TASK_SAVE_TASK_ENVIRONMENT
 620      00
 361:E:/NeuOrga/Programmieren/c_cpp/github_os/input/src/os_base\os_task_scheduler.c ****             OS_TASK_RESTORE_SYSTEM_STACK((uint8*)&OS_MAIN_STACK);
 621              		.loc 1 361 0
 622 04ed C7042400 		movl	$_OS_MAIN_STACK, (%esp)
 622      000000
 623 04f4 E8000000 		call	_OS_TASK_RESTORE_SYSTEM_STACK
 623      00
 362:E:/NeuOrga/Programmieren/c_cpp/github_os/input/src/os_base\os_task_scheduler.c ****             DELETE_FROM_TASK_QUEUE(task);
 624              		.loc 1 362 0
 625 04f9 8B4508   		movl	8(%ebp), %eax
 626 04fc 890424   		movl	%eax, (%esp)
 627 04ff E8000000 		call	_DELETE_FROM_TASK_QUEUE
 627      00
 363:E:/NeuOrga/Programmieren/c_cpp/github_os/input/src/os_base\os_task_scheduler.c ****             DELETE_FROM_SCHEDULING_QUEUE(scheduling_task);
 628              		.loc 1 363 0
 629 0504 8B450C   		movl	12(%ebp), %eax
 630 0507 890424   		movl	%eax, (%esp)
 631 050a E8000000 		call	_DELETE_FROM_SCHEDULING_QUEUE
 631      00
 364:E:/NeuOrga/Programmieren/c_cpp/github_os/input/src/os_base\os_task_scheduler.c **** 
 365:E:/NeuOrga/Programmieren/c_cpp/github_os/input/src/os_base\os_task_scheduler.c ****             task->active = FALSE;
 632              		.loc 1 365 0
 633 050f 8B4508   		movl	8(%ebp), %eax
 634 0512 8A10     		movb	(%eax), %dl
 635 0514 83E2FE   		andl	$-2, %edx
 636 0517 8810     		movb	%dl, (%eax)
 366:E:/NeuOrga/Programmieren/c_cpp/github_os/input/src/os_base\os_task_scheduler.c ****             /* reset the prio increase for waiting */
 367:E:/NeuOrga/Programmieren/c_cpp/github_os/input/src/os_base\os_task_scheduler.c ****             task->current_prio = task->default_prio;
 637              		.loc 1 367 0
 638 0519 8B4508   		movl	8(%ebp), %eax
 639 051c 8A506D   		movb	109(%eax), %dl
 640 051f 8B4508   		movl	8(%ebp), %eax
 641 0522 88506C   		movb	%dl, 108(%eax)
 355:E:/NeuOrga/Programmieren/c_cpp/github_os/input/src/os_base\os_task_scheduler.c ****       {
 642              		.loc 1 355 0
 643 0525 EB40     		jmp	L58
 644              	L61:
 368:E:/NeuOrga/Programmieren/c_cpp/github_os/input/src/os_base\os_task_scheduler.c ****             ENABLE_INTERRUPTS();
 369:E:/NeuOrga/Programmieren/c_cpp/github_os/input/src/os_base\os_task_scheduler.c ****          }
 370:E:/NeuOrga/Programmieren/c_cpp/github_os/input/src/os_base\os_task_scheduler.c ****          else
 371:E:/NeuOrga/Programmieren/c_cpp/github_os/input/src/os_base\os_task_scheduler.c ****          {
 372:E:/NeuOrga/Programmieren/c_cpp/github_os/input/src/os_base\os_task_scheduler.c ****             OS_SET_SW_BUG(E_OS_BUG_TASKSTATE_REQUEST_DENIED, E_FUNC_TERMINATETASK);
GAS LISTING C:\Users\PRESID~1\AppData\Local\Temp\ccPWmP62.s 			page 21


 645              		.loc 1 372 0
 646 0527 C7442404 		movl	$8, 4(%esp)
 646      08000000 
 647 052f C7042401 		movl	$1, (%esp)
 647      000000
 648 0536 E8000000 		call	_OS_SET_SW_BUG
 648      00
 355:E:/NeuOrga/Programmieren/c_cpp/github_os/input/src/os_base\os_task_scheduler.c ****       {
 649              		.loc 1 355 0
 650 053b EB2A     		jmp	L58
 651              	L60:
 373:E:/NeuOrga/Programmieren/c_cpp/github_os/input/src/os_base\os_task_scheduler.c ****          }
 374:E:/NeuOrga/Programmieren/c_cpp/github_os/input/src/os_base\os_task_scheduler.c ****       }
 375:E:/NeuOrga/Programmieren/c_cpp/github_os/input/src/os_base\os_task_scheduler.c ****       else
 376:E:/NeuOrga/Programmieren/c_cpp/github_os/input/src/os_base\os_task_scheduler.c ****       {
 377:E:/NeuOrga/Programmieren/c_cpp/github_os/input/src/os_base\os_task_scheduler.c ****          OS_SET_SW_BUG(E_OS_BUG_NULL_POINTER, E_FUNC_TERMINATETASK);
 652              		.loc 1 377 0
 653 053d C7442404 		movl	$8, 4(%esp)
 653      08000000 
 654 0545 C7042402 		movl	$2, (%esp)
 654      000000
 655 054c E8000000 		call	_OS_SET_SW_BUG
 655      00
 355:E:/NeuOrga/Programmieren/c_cpp/github_os/input/src/os_base\os_task_scheduler.c ****       {
 656              		.loc 1 355 0
 657 0551 EB14     		jmp	L58
 658              	L59:
 378:E:/NeuOrga/Programmieren/c_cpp/github_os/input/src/os_base\os_task_scheduler.c ****       }
 379:E:/NeuOrga/Programmieren/c_cpp/github_os/input/src/os_base\os_task_scheduler.c ****    }
 380:E:/NeuOrga/Programmieren/c_cpp/github_os/input/src/os_base\os_task_scheduler.c ****    else
 381:E:/NeuOrga/Programmieren/c_cpp/github_os/input/src/os_base\os_task_scheduler.c ****    {
 382:E:/NeuOrga/Programmieren/c_cpp/github_os/input/src/os_base\os_task_scheduler.c ****       OS_SET_SW_BUG(E_OS_BUG_NULL_POINTER, E_FUNC_TERMINATETASK);
 659              		.loc 1 382 0
 660 0553 C7442404 		movl	$8, 4(%esp)
 660      08000000 
 661 055b C7042402 		movl	$2, (%esp)
 661      000000
 662 0562 E8000000 		call	_OS_SET_SW_BUG
 662      00
 663              	L58:
 383:E:/NeuOrga/Programmieren/c_cpp/github_os/input/src/os_base\os_task_scheduler.c ****    }
 384:E:/NeuOrga/Programmieren/c_cpp/github_os/input/src/os_base\os_task_scheduler.c **** }
 664              		.loc 1 384 0
 665 0567 C9       		leave
 666              		.cfi_restore 5
 667              		.cfi_def_cfa 4, 4
 668 0568 C3       		ret
 669              		.cfi_endproc
 670              	LFE7:
 671              		.globl	_OS_TASK_DISPATCHER
 673              	_OS_TASK_DISPATCHER:
 674              	LFB8:
 385:E:/NeuOrga/Programmieren/c_cpp/github_os/input/src/os_base\os_task_scheduler.c **** void OS_TASK_DISPATCHER(void)
 386:E:/NeuOrga/Programmieren/c_cpp/github_os/input/src/os_base\os_task_scheduler.c **** {
 675              		.loc 1 386 0
 676              		.cfi_startproc
 677 0569 55       		pushl	%ebp
GAS LISTING C:\Users\PRESID~1\AppData\Local\Temp\ccPWmP62.s 			page 22


 678              		.cfi_def_cfa_offset 8
 679              		.cfi_offset 5, -8
 680 056a 89E5     		movl	%esp, %ebp
 681              		.cfi_def_cfa_register 5
 682 056c 83EC28   		subl	$40, %esp
 387:E:/NeuOrga/Programmieren/c_cpp/github_os/input/src/os_base\os_task_scheduler.c ****    /* called in an certain core context (Core_0/1/2/3)*/
 388:E:/NeuOrga/Programmieren/c_cpp/github_os/input/src/os_base\os_task_scheduler.c **** 
 389:E:/NeuOrga/Programmieren/c_cpp/github_os/input/src/os_base\os_task_scheduler.c **** 
 390:E:/NeuOrga/Programmieren/c_cpp/github_os/input/src/os_base\os_task_scheduler.c ****    /*
 391:E:/NeuOrga/Programmieren/c_cpp/github_os/input/src/os_base\os_task_scheduler.c ****    1. running     --(terminate)--> suspend
 392:E:/NeuOrga/Programmieren/c_cpp/github_os/input/src/os_base\os_task_scheduler.c ****    2. running     --(preempt  )--> ready
 393:E:/NeuOrga/Programmieren/c_cpp/github_os/input/src/os_base\os_task_scheduler.c ****    3. suspend     --(activate )--> ready
 394:E:/NeuOrga/Programmieren/c_cpp/github_os/input/src/os_base\os_task_scheduler.c ****    4. ready       --(start    )--> running
 395:E:/NeuOrga/Programmieren/c_cpp/github_os/input/src/os_base\os_task_scheduler.c ****    5. unspecified --(create   )--> suspend
 396:E:/NeuOrga/Programmieren/c_cpp/github_os/input/src/os_base\os_task_scheduler.c ****    */
 397:E:/NeuOrga/Programmieren/c_cpp/github_os/input/src/os_base\os_task_scheduler.c ****    scheduling_t* scheduling_task_ptr;
 398:E:/NeuOrga/Programmieren/c_cpp/github_os/input/src/os_base\os_task_scheduler.c ****    task_t* task = 0u;
 683              		.loc 1 398 0
 684 056f C745F400 		movl	$0, -12(%ebp)
 684      000000
 399:E:/NeuOrga/Programmieren/c_cpp/github_os/input/src/os_base\os_task_scheduler.c ****    /* get running task */
 400:E:/NeuOrga/Programmieren/c_cpp/github_os/input/src/os_base\os_task_scheduler.c ****    task         = GET_RUNNING_TASK();
 685              		.loc 1 400 0
 686 0576 E8000000 		call	_GET_RUNNING_TASK
 686      00
 687 057b 8945F4   		movl	%eax, -12(%ebp)
 401:E:/NeuOrga/Programmieren/c_cpp/github_os/input/src/os_base\os_task_scheduler.c ****    scheduling_task_ptr = GET_RUNNING_SCHEDULING_QUEUE_ELEMENT_PTR();
 688              		.loc 1 401 0
 689 057e E8000000 		call	_GET_RUNNING_SCHEDULING_QUEUE_ELEMENT_PTR
 689      00
 690 0583 8945F0   		movl	%eax, -16(%ebp)
 402:E:/NeuOrga/Programmieren/c_cpp/github_os/input/src/os_base\os_task_scheduler.c ****    /* Preempt Task */
 403:E:/NeuOrga/Programmieren/c_cpp/github_os/input/src/os_base\os_task_scheduler.c ****    if(task!=0u && scheduling_task_ptr != 0u)
 691              		.loc 1 403 0
 692 0586 837DF400 		cmpl	$0, -12(%ebp)
 693 058a 7418     		je	L66
 694              		.loc 1 403 0 is_stmt 0 discriminator 1
 695 058c 837DF000 		cmpl	$0, -16(%ebp)
 696 0590 7412     		je	L66
 404:E:/NeuOrga/Programmieren/c_cpp/github_os/input/src/os_base\os_task_scheduler.c ****    {
 405:E:/NeuOrga/Programmieren/c_cpp/github_os/input/src/os_base\os_task_scheduler.c ****       OS_TERMINATE_TASK(task, scheduling_task_ptr);
 697              		.loc 1 405 0 is_stmt 1
 698 0592 8B45F0   		movl	-16(%ebp), %eax
 699 0595 89442404 		movl	%eax, 4(%esp)
 700 0599 8B45F4   		movl	-12(%ebp), %eax
 701 059c 890424   		movl	%eax, (%esp)
 702 059f E800FFFF 		call	_OS_TERMINATE_TASK
 702      FF
 703              	L66:
 406:E:/NeuOrga/Programmieren/c_cpp/github_os/input/src/os_base\os_task_scheduler.c ****    }
 407:E:/NeuOrga/Programmieren/c_cpp/github_os/input/src/os_base\os_task_scheduler.c ****    /* ask for the next task to be activated... */
 408:E:/NeuOrga/Programmieren/c_cpp/github_os/input/src/os_base\os_task_scheduler.c ****    scheduling_task_ptr = os_task_scheduler();
 704              		.loc 1 408 0
 705 05a4 E8AC0200 		call	_os_task_scheduler
 705      00
 706 05a9 8945F0   		movl	%eax, -16(%ebp)
 409:E:/NeuOrga/Programmieren/c_cpp/github_os/input/src/os_base\os_task_scheduler.c ****    if(scheduling_task_ptr != 0u)
GAS LISTING C:\Users\PRESID~1\AppData\Local\Temp\ccPWmP62.s 			page 23


 707              		.loc 1 409 0
 708 05ac 837DF000 		cmpl	$0, -16(%ebp)
 709 05b0 740E     		je	L67
 410:E:/NeuOrga/Programmieren/c_cpp/github_os/input/src/os_base\os_task_scheduler.c ****    {
 411:E:/NeuOrga/Programmieren/c_cpp/github_os/input/src/os_base\os_task_scheduler.c ****       task = GET_FROM_TASK_QUEUE(scheduling_task_ptr);
 710              		.loc 1 411 0
 711 05b2 8B45F0   		movl	-16(%ebp), %eax
 712 05b5 890424   		movl	%eax, (%esp)
 713 05b8 E8000000 		call	_GET_FROM_TASK_QUEUE
 713      00
 714 05bd 8945F4   		movl	%eax, -12(%ebp)
 715              	L67:
 412:E:/NeuOrga/Programmieren/c_cpp/github_os/input/src/os_base\os_task_scheduler.c ****    }
 413:E:/NeuOrga/Programmieren/c_cpp/github_os/input/src/os_base\os_task_scheduler.c ****    if(task != 0u && scheduling_task_ptr != 0u)
 716              		.loc 1 413 0
 717 05c0 837DF400 		cmpl	$0, -12(%ebp)
 718 05c4 7418     		je	L65
 719              		.loc 1 413 0 is_stmt 0 discriminator 1
 720 05c6 837DF000 		cmpl	$0, -16(%ebp)
 721 05ca 7412     		je	L65
 414:E:/NeuOrga/Programmieren/c_cpp/github_os/input/src/os_base\os_task_scheduler.c ****    {
 415:E:/NeuOrga/Programmieren/c_cpp/github_os/input/src/os_base\os_task_scheduler.c ****       OS_START_TASK(task, scheduling_task_ptr);
 722              		.loc 1 415 0 is_stmt 1
 723 05cc 8B45F0   		movl	-16(%ebp), %eax
 724 05cf 89442404 		movl	%eax, 4(%esp)
 725 05d3 8B45F4   		movl	-12(%ebp), %eax
 726 05d6 890424   		movl	%eax, (%esp)
 727 05d9 E8A9FDFF 		call	_OS_START_TASK
 727      FF
 728              	L65:
 416:E:/NeuOrga/Programmieren/c_cpp/github_os/input/src/os_base\os_task_scheduler.c ****    }
 417:E:/NeuOrga/Programmieren/c_cpp/github_os/input/src/os_base\os_task_scheduler.c **** }
 729              		.loc 1 417 0
 730 05de C9       		leave
 731              		.cfi_restore 5
 732              		.cfi_def_cfa 4, 4
 733 05df C3       		ret
 734              		.cfi_endproc
 735              	LFE8:
 737              	_task_0:
 738              	LFB9:
 418:E:/NeuOrga/Programmieren/c_cpp/github_os/input/src/os_base\os_task_scheduler.c **** LOCAL void task_0(void* task_ptr)
 419:E:/NeuOrga/Programmieren/c_cpp/github_os/input/src/os_base\os_task_scheduler.c **** {
 739              		.loc 1 419 0
 740              		.cfi_startproc
 741 05e0 55       		pushl	%ebp
 742              		.cfi_def_cfa_offset 8
 743              		.cfi_offset 5, -8
 744 05e1 89E5     		movl	%esp, %ebp
 745              		.cfi_def_cfa_register 5
 420:E:/NeuOrga/Programmieren/c_cpp/github_os/input/src/os_base\os_task_scheduler.c ****    REFERENCE_UNUSED_PARAMETER(task_ptr);
 421:E:/NeuOrga/Programmieren/c_cpp/github_os/input/src/os_base\os_task_scheduler.c ****    HALT_MCU();/* HLT will be ended by timer interrupt, what shall be done with the rest of the func
 422:E:/NeuOrga/Programmieren/c_cpp/github_os/input/src/os_base\os_task_scheduler.c **** }
 746              		.loc 1 422 0
 747 05e3 5D       		popl	%ebp
 748              		.cfi_restore 5
 749              		.cfi_def_cfa 4, 4
GAS LISTING C:\Users\PRESID~1\AppData\Local\Temp\ccPWmP62.s 			page 24


 750 05e4 C3       		ret
 751              		.cfi_endproc
 752              	LFE9:
 754              	_task_1:
 755              	LFB10:
 423:E:/NeuOrga/Programmieren/c_cpp/github_os/input/src/os_base\os_task_scheduler.c **** LOCAL void task_1(void* task_ptr)
 424:E:/NeuOrga/Programmieren/c_cpp/github_os/input/src/os_base\os_task_scheduler.c **** {
 756              		.loc 1 424 0
 757              		.cfi_startproc
 758 05e5 55       		pushl	%ebp
 759              		.cfi_def_cfa_offset 8
 760              		.cfi_offset 5, -8
 761 05e6 89E5     		movl	%esp, %ebp
 762              		.cfi_def_cfa_register 5
 763 05e8 83EC28   		subl	$40, %esp
 425:E:/NeuOrga/Programmieren/c_cpp/github_os/input/src/os_base\os_task_scheduler.c ****    scheduling_t* scheduling_task_ptr = 0u;
 764              		.loc 1 425 0
 765 05eb C745F400 		movl	$0, -12(%ebp)
 765      000000
 426:E:/NeuOrga/Programmieren/c_cpp/github_os/input/src/os_base\os_task_scheduler.c ****    REFERENCE_UNUSED_PARAMETER(task_ptr);
 427:E:/NeuOrga/Programmieren/c_cpp/github_os/input/src/os_base\os_task_scheduler.c ****    /* worker task */
 428:E:/NeuOrga/Programmieren/c_cpp/github_os/input/src/os_base\os_task_scheduler.c ****    scheduling_task_ptr = GET_RUNNING_SCHEDULING_QUEUE_ELEMENT_PTR();
 766              		.loc 1 428 0
 767 05f2 E8000000 		call	_GET_RUNNING_SCHEDULING_QUEUE_ELEMENT_PTR
 767      00
 768 05f7 8945F4   		movl	%eax, -12(%ebp)
 429:E:/NeuOrga/Programmieren/c_cpp/github_os/input/src/os_base\os_task_scheduler.c ****    /* do some things */
 430:E:/NeuOrga/Programmieren/c_cpp/github_os/input/src/os_base\os_task_scheduler.c ****    TASK1_CALL_NR++;
 769              		.loc 1 430 0
 770 05fa A1000000 		movl	_TASK1_CALL_NR, %eax
 770      00
 771 05ff 40       		incl	%eax
 772 0600 A3000000 		movl	%eax, _TASK1_CALL_NR
 772      00
 431:E:/NeuOrga/Programmieren/c_cpp/github_os/input/src/os_base\os_task_scheduler.c **** 
 432:E:/NeuOrga/Programmieren/c_cpp/github_os/input/src/os_base\os_task_scheduler.c **** 
 433:E:/NeuOrga/Programmieren/c_cpp/github_os/input/src/os_base\os_task_scheduler.c ****    /* end */
 434:E:/NeuOrga/Programmieren/c_cpp/github_os/input/src/os_base\os_task_scheduler.c ****    OS_TERMINATE_TASK(task_ptr,scheduling_task_ptr);
 773              		.loc 1 434 0
 774 0605 8B45F4   		movl	-12(%ebp), %eax
 775 0608 89442404 		movl	%eax, 4(%esp)
 776 060c 8B4508   		movl	8(%ebp), %eax
 777 060f 890424   		movl	%eax, (%esp)
 778 0612 E88DFEFF 		call	_OS_TERMINATE_TASK
 778      FF
 435:E:/NeuOrga/Programmieren/c_cpp/github_os/input/src/os_base\os_task_scheduler.c **** }
 779              		.loc 1 435 0
 780 0617 C9       		leave
 781              		.cfi_restore 5
 782              		.cfi_def_cfa 4, 4
 783 0618 C3       		ret
 784              		.cfi_endproc
 785              	LFE10:
 787              	_task_2:
 788              	LFB11:
 436:E:/NeuOrga/Programmieren/c_cpp/github_os/input/src/os_base\os_task_scheduler.c **** LOCAL void task_2(void* task_ptr)
 437:E:/NeuOrga/Programmieren/c_cpp/github_os/input/src/os_base\os_task_scheduler.c **** {
GAS LISTING C:\Users\PRESID~1\AppData\Local\Temp\ccPWmP62.s 			page 25


 789              		.loc 1 437 0
 790              		.cfi_startproc
 791 0619 55       		pushl	%ebp
 792              		.cfi_def_cfa_offset 8
 793              		.cfi_offset 5, -8
 794 061a 89E5     		movl	%esp, %ebp
 795              		.cfi_def_cfa_register 5
 796 061c 83EC28   		subl	$40, %esp
 438:E:/NeuOrga/Programmieren/c_cpp/github_os/input/src/os_base\os_task_scheduler.c ****    scheduling_t* scheduling_task_ptr = 0u;
 797              		.loc 1 438 0
 798 061f C745F400 		movl	$0, -12(%ebp)
 798      000000
 439:E:/NeuOrga/Programmieren/c_cpp/github_os/input/src/os_base\os_task_scheduler.c ****    REFERENCE_UNUSED_PARAMETER(task_ptr);
 440:E:/NeuOrga/Programmieren/c_cpp/github_os/input/src/os_base\os_task_scheduler.c ****    /* worker task */
 441:E:/NeuOrga/Programmieren/c_cpp/github_os/input/src/os_base\os_task_scheduler.c ****    scheduling_task_ptr = GET_RUNNING_SCHEDULING_QUEUE_ELEMENT_PTR();
 799              		.loc 1 441 0
 800 0626 E8000000 		call	_GET_RUNNING_SCHEDULING_QUEUE_ELEMENT_PTR
 800      00
 801 062b 8945F4   		movl	%eax, -12(%ebp)
 442:E:/NeuOrga/Programmieren/c_cpp/github_os/input/src/os_base\os_task_scheduler.c ****    /* do some things */
 443:E:/NeuOrga/Programmieren/c_cpp/github_os/input/src/os_base\os_task_scheduler.c ****    TASK1_CALL_NR++;
 802              		.loc 1 443 0
 803 062e A1000000 		movl	_TASK1_CALL_NR, %eax
 803      00
 804 0633 40       		incl	%eax
 805 0634 A3000000 		movl	%eax, _TASK1_CALL_NR
 805      00
 444:E:/NeuOrga/Programmieren/c_cpp/github_os/input/src/os_base\os_task_scheduler.c **** 
 445:E:/NeuOrga/Programmieren/c_cpp/github_os/input/src/os_base\os_task_scheduler.c **** 
 446:E:/NeuOrga/Programmieren/c_cpp/github_os/input/src/os_base\os_task_scheduler.c ****    /* end */
 447:E:/NeuOrga/Programmieren/c_cpp/github_os/input/src/os_base\os_task_scheduler.c ****    OS_TERMINATE_TASK(task_ptr,scheduling_task_ptr);
 806              		.loc 1 447 0
 807 0639 8B45F4   		movl	-12(%ebp), %eax
 808 063c 89442404 		movl	%eax, 4(%esp)
 809 0640 8B4508   		movl	8(%ebp), %eax
 810 0643 890424   		movl	%eax, (%esp)
 811 0646 E859FEFF 		call	_OS_TERMINATE_TASK
 811      FF
 448:E:/NeuOrga/Programmieren/c_cpp/github_os/input/src/os_base\os_task_scheduler.c **** }
 812              		.loc 1 448 0
 813 064b C9       		leave
 814              		.cfi_restore 5
 815              		.cfi_def_cfa 4, 4
 816 064c C3       		ret
 817              		.cfi_endproc
 818              	LFE11:
 820              	_task_3:
 821              	LFB12:
 449:E:/NeuOrga/Programmieren/c_cpp/github_os/input/src/os_base\os_task_scheduler.c **** LOCAL void task_3(void* task_ptr)
 450:E:/NeuOrga/Programmieren/c_cpp/github_os/input/src/os_base\os_task_scheduler.c **** {
 822              		.loc 1 450 0
 823              		.cfi_startproc
 824 064d 55       		pushl	%ebp
 825              		.cfi_def_cfa_offset 8
 826              		.cfi_offset 5, -8
 827 064e 89E5     		movl	%esp, %ebp
 828              		.cfi_def_cfa_register 5
GAS LISTING C:\Users\PRESID~1\AppData\Local\Temp\ccPWmP62.s 			page 26


 829 0650 83EC28   		subl	$40, %esp
 451:E:/NeuOrga/Programmieren/c_cpp/github_os/input/src/os_base\os_task_scheduler.c ****    scheduling_t* scheduling_task_ptr = 0u;
 830              		.loc 1 451 0
 831 0653 C745F400 		movl	$0, -12(%ebp)
 831      000000
 452:E:/NeuOrga/Programmieren/c_cpp/github_os/input/src/os_base\os_task_scheduler.c ****    REFERENCE_UNUSED_PARAMETER(task_ptr);
 453:E:/NeuOrga/Programmieren/c_cpp/github_os/input/src/os_base\os_task_scheduler.c ****    /* worker task */
 454:E:/NeuOrga/Programmieren/c_cpp/github_os/input/src/os_base\os_task_scheduler.c ****    scheduling_task_ptr = GET_RUNNING_SCHEDULING_QUEUE_ELEMENT_PTR();
 832              		.loc 1 454 0
 833 065a E8000000 		call	_GET_RUNNING_SCHEDULING_QUEUE_ELEMENT_PTR
 833      00
 834 065f 8945F4   		movl	%eax, -12(%ebp)
 455:E:/NeuOrga/Programmieren/c_cpp/github_os/input/src/os_base\os_task_scheduler.c ****    /* do some things */
 456:E:/NeuOrga/Programmieren/c_cpp/github_os/input/src/os_base\os_task_scheduler.c ****    TASK1_CALL_NR++;
 835              		.loc 1 456 0
 836 0662 A1000000 		movl	_TASK1_CALL_NR, %eax
 836      00
 837 0667 40       		incl	%eax
 838 0668 A3000000 		movl	%eax, _TASK1_CALL_NR
 838      00
 457:E:/NeuOrga/Programmieren/c_cpp/github_os/input/src/os_base\os_task_scheduler.c **** 
 458:E:/NeuOrga/Programmieren/c_cpp/github_os/input/src/os_base\os_task_scheduler.c **** 
 459:E:/NeuOrga/Programmieren/c_cpp/github_os/input/src/os_base\os_task_scheduler.c ****    /* end */
 460:E:/NeuOrga/Programmieren/c_cpp/github_os/input/src/os_base\os_task_scheduler.c ****    OS_TERMINATE_TASK(task_ptr,scheduling_task_ptr);
 839              		.loc 1 460 0
 840 066d 8B45F4   		movl	-12(%ebp), %eax
 841 0670 89442404 		movl	%eax, 4(%esp)
 842 0674 8B4508   		movl	8(%ebp), %eax
 843 0677 890424   		movl	%eax, (%esp)
 844 067a E825FEFF 		call	_OS_TERMINATE_TASK
 844      FF
 461:E:/NeuOrga/Programmieren/c_cpp/github_os/input/src/os_base\os_task_scheduler.c **** }
 845              		.loc 1 461 0
 846 067f C9       		leave
 847              		.cfi_restore 5
 848              		.cfi_def_cfa 4, 4
 849 0680 C3       		ret
 850              		.cfi_endproc
 851              	LFE12:
 852              		.globl	_OS_INIT_TASKS
 854              	_OS_INIT_TASKS:
 855              	LFB13:
 462:E:/NeuOrga/Programmieren/c_cpp/github_os/input/src/os_base\os_task_scheduler.c **** void OS_INIT_TASKS(void)
 463:E:/NeuOrga/Programmieren/c_cpp/github_os/input/src/os_base\os_task_scheduler.c **** {
 856              		.loc 1 463 0
 857              		.cfi_startproc
 858 0681 55       		pushl	%ebp
 859              		.cfi_def_cfa_offset 8
 860              		.cfi_offset 5, -8
 861 0682 89E5     		movl	%esp, %ebp
 862              		.cfi_def_cfa_register 5
 863 0684 83EC48   		subl	$72, %esp
 464:E:/NeuOrga/Programmieren/c_cpp/github_os/input/src/os_base\os_task_scheduler.c ****    task_t* task_ptr = 0u;
 864              		.loc 1 464 0
 865 0687 C745F400 		movl	$0, -12(%ebp)
 865      000000
 465:E:/NeuOrga/Programmieren/c_cpp/github_os/input/src/os_base\os_task_scheduler.c ****    OS_GET_CURRENT_TIME(&LAST_CURRENT_TIME);
GAS LISTING C:\Users\PRESID~1\AppData\Local\Temp\ccPWmP62.s 			page 27


 866              		.loc 1 465 0
 867 068e C7042400 		movl	$_LAST_CURRENT_TIME, (%esp)
 867      000000
 868 0695 E8000000 		call	_OS_GET_CURRENT_TIME
 868      00
 466:E:/NeuOrga/Programmieren/c_cpp/github_os/input/src/os_base\os_task_scheduler.c **** 
 467:E:/NeuOrga/Programmieren/c_cpp/github_os/input/src/os_base\os_task_scheduler.c ****    REFERENCE_UNUSED_PARAMETER (TASK_GROUP_1);
 468:E:/NeuOrga/Programmieren/c_cpp/github_os/input/src/os_base\os_task_scheduler.c ****    REFERENCE_UNUSED_PARAMETER (TASK_GROUP_2);
 469:E:/NeuOrga/Programmieren/c_cpp/github_os/input/src/os_base\os_task_scheduler.c ****    REFERENCE_UNUSED_PARAMETER (TASK_GROUP_3);
 470:E:/NeuOrga/Programmieren/c_cpp/github_os/input/src/os_base\os_task_scheduler.c ****    REFERENCE_UNUSED_PARAMETER (TASK_GROUP_4);
 471:E:/NeuOrga/Programmieren/c_cpp/github_os/input/src/os_base\os_task_scheduler.c ****    REFERENCE_UNUSED_PARAMETER (TASK_GROUP_5);
 472:E:/NeuOrga/Programmieren/c_cpp/github_os/input/src/os_base\os_task_scheduler.c **** 
 473:E:/NeuOrga/Programmieren/c_cpp/github_os/input/src/os_base\os_task_scheduler.c ****    /*
 474:E:/NeuOrga/Programmieren/c_cpp/github_os/input/src/os_base\os_task_scheduler.c ****    set task_state for all tasks to E_TASK_UNSPECIFIED
 475:E:/NeuOrga/Programmieren/c_cpp/github_os/input/src/os_base\os_task_scheduler.c ****    */
 476:E:/NeuOrga/Programmieren/c_cpp/github_os/input/src/os_base\os_task_scheduler.c ****    OS_INIT_TASK_QUEUE();
 869              		.loc 1 476 0
 870 069a E8000000 		call	_OS_INIT_TASK_QUEUE
 870      00
 477:E:/NeuOrga/Programmieren/c_cpp/github_os/input/src/os_base\os_task_scheduler.c **** 
 478:E:/NeuOrga/Programmieren/c_cpp/github_os/input/src/os_base\os_task_scheduler.c ****    /* setup idle task */
 479:E:/NeuOrga/Programmieren/c_cpp/github_os/input/src/os_base\os_task_scheduler.c ****    task_ptr = &TASK_0_VAR;
 871              		.loc 1 479 0
 872 069f C745F400 		movl	$_TASK_0_VAR, -12(%ebp)
 872      000000
 480:E:/NeuOrga/Programmieren/c_cpp/github_os/input/src/os_base\os_task_scheduler.c ****    OS_INIT_TASK(task_ptr,                          /* task */
 873              		.loc 1 480 0
 874 06a6 C7442424 		movl	$0, 36(%esp)
 874      00000000 
 875 06ae C7442420 		movl	$0, 32(%esp)
 875      00000000 
 876 06b6 C744241C 		movl	$0, 28(%esp)
 876      00000000 
 877 06be C7442418 		movl	$200, 24(%esp)
 877      C8000000 
 878 06c6 C7442414 		movl	$_TASK_STACK, 20(%esp)
 878      00000000 
 879 06ce C7442410 		movl	$_TASK_GROUP_1, 16(%esp)
 879      00000000 
 880 06d6 C744240C 		movl	$1, 12(%esp)
 880      01000000 
 881 06de C7442408 		movl	$1, 8(%esp)
 881      01000000 
 882 06e6 C7442404 		movl	$_task_0, 4(%esp)
 882      E0050000 
 883 06ee 8B45F4   		movl	-12(%ebp), %eax
 884 06f1 890424   		movl	%eax, (%esp)
 885 06f4 E8000000 		call	_OS_INIT_TASK
 885      00
 481:E:/NeuOrga/Programmieren/c_cpp/github_os/input/src/os_base\os_task_scheduler.c ****                &task_0,                           /* Task Function*/
 482:E:/NeuOrga/Programmieren/c_cpp/github_os/input/src/os_base\os_task_scheduler.c ****                1u,                                 /* Nr of allowed instances*/
 483:E:/NeuOrga/Programmieren/c_cpp/github_os/input/src/os_base\os_task_scheduler.c ****                TRUE,                              /* Idle Task */
 484:E:/NeuOrga/Programmieren/c_cpp/github_os/input/src/os_base\os_task_scheduler.c ****                &TASK_GROUP_1,                     /* Task Group */
 485:E:/NeuOrga/Programmieren/c_cpp/github_os/input/src/os_base\os_task_scheduler.c ****                (unsigned_char_t*)&TASK_STACK[0u],  /* Task_stack */
 486:E:/NeuOrga/Programmieren/c_cpp/github_os/input/src/os_base\os_task_scheduler.c ****                200u,                                /* Stack Size */
 487:E:/NeuOrga/Programmieren/c_cpp/github_os/input/src/os_base\os_task_scheduler.c ****                E_PRIVILIGEMODE_UNPRIVILIGED_THREAD_MODE, /* Unpriviliged Thread Mode */
 488:E:/NeuOrga/Programmieren/c_cpp/github_os/input/src/os_base\os_task_scheduler.c ****                E_CORE0,                            /* Cortex M4 has only 1 core */
GAS LISTING C:\Users\PRESID~1\AppData\Local\Temp\ccPWmP62.s 			page 28


 489:E:/NeuOrga/Programmieren/c_cpp/github_os/input/src/os_base\os_task_scheduler.c ****                0u                                   /* default prio */
 490:E:/NeuOrga/Programmieren/c_cpp/github_os/input/src/os_base\os_task_scheduler.c ****               );
 491:E:/NeuOrga/Programmieren/c_cpp/github_os/input/src/os_base\os_task_scheduler.c ****    ADD_TO_SCHEDULING_QUEUE(task_ptr);
 886              		.loc 1 491 0
 887 06f9 8B45F4   		movl	-12(%ebp), %eax
 888 06fc 890424   		movl	%eax, (%esp)
 889 06ff E8000000 		call	_ADD_TO_SCHEDULING_QUEUE
 889      00
 492:E:/NeuOrga/Programmieren/c_cpp/github_os/input/src/os_base\os_task_scheduler.c ****    OS_SAVE_TASK_PTR(task_ptr, TASK_0_PTR);
 890              		.loc 1 492 0
 891 0704 8B45F4   		movl	-12(%ebp), %eax
 892 0707 A3000000 		movl	%eax, _TASK_PTR
 892      00
 493:E:/NeuOrga/Programmieren/c_cpp/github_os/input/src/os_base\os_task_scheduler.c **** 
 494:E:/NeuOrga/Programmieren/c_cpp/github_os/input/src/os_base\os_task_scheduler.c ****    /* setup worker task */
 495:E:/NeuOrga/Programmieren/c_cpp/github_os/input/src/os_base\os_task_scheduler.c ****    task_ptr = &TASK_1_VAR;
 893              		.loc 1 495 0
 894 070c C745F400 		movl	$_TASK_1_VAR, -12(%ebp)
 894      000000
 496:E:/NeuOrga/Programmieren/c_cpp/github_os/input/src/os_base\os_task_scheduler.c ****    OS_INIT_TASK(task_ptr,      /* task */
 895              		.loc 1 496 0
 896 0713 C7442424 		movl	$1, 36(%esp)
 896      01000000 
 897 071b C7442420 		movl	$0, 32(%esp)
 897      00000000 
 898 0723 C744241C 		movl	$0, 28(%esp)
 898      00000000 
 899 072b C7442418 		movl	$200, 24(%esp)
 899      C8000000 
 900 0733 C7442414 		movl	$_TASK_STACK+2000, 20(%esp)
 900      D0070000 
 901 073b C7442410 		movl	$_TASK_GROUP_1, 16(%esp)
 901      00000000 
 902 0743 C744240C 		movl	$0, 12(%esp)
 902      00000000 
 903 074b C7442408 		movl	$1, 8(%esp)
 903      01000000 
 904 0753 C7442404 		movl	$_task_1, 4(%esp)
 904      E5050000 
 905 075b 8B45F4   		movl	-12(%ebp), %eax
 906 075e 890424   		movl	%eax, (%esp)
 907 0761 E8000000 		call	_OS_INIT_TASK
 907      00
 497:E:/NeuOrga/Programmieren/c_cpp/github_os/input/src/os_base\os_task_scheduler.c ****                &task_1,       /* Task Function*/
 498:E:/NeuOrga/Programmieren/c_cpp/github_os/input/src/os_base\os_task_scheduler.c ****                1u,             /* Nr of allowed instances*/
 499:E:/NeuOrga/Programmieren/c_cpp/github_os/input/src/os_base\os_task_scheduler.c ****                FALSE,          /* Idle Task */
 500:E:/NeuOrga/Programmieren/c_cpp/github_os/input/src/os_base\os_task_scheduler.c ****                &TASK_GROUP_1, /* Task Group */
 501:E:/NeuOrga/Programmieren/c_cpp/github_os/input/src/os_base\os_task_scheduler.c ****                (unsigned_char_t*)&TASK_STACK[1u],/* Task_stack */
 502:E:/NeuOrga/Programmieren/c_cpp/github_os/input/src/os_base\os_task_scheduler.c ****                200u,            /* Stack Size */
 503:E:/NeuOrga/Programmieren/c_cpp/github_os/input/src/os_base\os_task_scheduler.c ****                E_PRIVILIGEMODE_UNPRIVILIGED_THREAD_MODE, /* Unpriviliged Thread Mode */
 504:E:/NeuOrga/Programmieren/c_cpp/github_os/input/src/os_base\os_task_scheduler.c ****                E_CORE0,
 505:E:/NeuOrga/Programmieren/c_cpp/github_os/input/src/os_base\os_task_scheduler.c ****                1u                                   /* default prio */
 506:E:/NeuOrga/Programmieren/c_cpp/github_os/input/src/os_base\os_task_scheduler.c ****               );
 507:E:/NeuOrga/Programmieren/c_cpp/github_os/input/src/os_base\os_task_scheduler.c ****    ADD_TO_SCHEDULING_QUEUE(task_ptr);
 908              		.loc 1 507 0
 909 0766 8B45F4   		movl	-12(%ebp), %eax
 910 0769 890424   		movl	%eax, (%esp)
GAS LISTING C:\Users\PRESID~1\AppData\Local\Temp\ccPWmP62.s 			page 29


 911 076c E8000000 		call	_ADD_TO_SCHEDULING_QUEUE
 911      00
 508:E:/NeuOrga/Programmieren/c_cpp/github_os/input/src/os_base\os_task_scheduler.c ****    OS_SAVE_TASK_PTR(task_ptr, TASK_1_PTR);
 912              		.loc 1 508 0
 913 0771 8B45F4   		movl	-12(%ebp), %eax
 914 0774 A3040000 		movl	%eax, _TASK_PTR+4
 914      00
 509:E:/NeuOrga/Programmieren/c_cpp/github_os/input/src/os_base\os_task_scheduler.c **** 
 510:E:/NeuOrga/Programmieren/c_cpp/github_os/input/src/os_base\os_task_scheduler.c ****    /* setup worker task */
 511:E:/NeuOrga/Programmieren/c_cpp/github_os/input/src/os_base\os_task_scheduler.c ****    task_ptr = &TASK_2_VAR;
 915              		.loc 1 511 0
 916 0779 C745F400 		movl	$_TASK_2_VAR, -12(%ebp)
 916      000000
 512:E:/NeuOrga/Programmieren/c_cpp/github_os/input/src/os_base\os_task_scheduler.c ****    OS_INIT_TASK(task_ptr,      /* task */
 917              		.loc 1 512 0
 918 0780 C7442424 		movl	$2, 36(%esp)
 918      02000000 
 919 0788 C7442420 		movl	$0, 32(%esp)
 919      00000000 
 920 0790 C744241C 		movl	$0, 28(%esp)
 920      00000000 
 921 0798 C7442418 		movl	$200, 24(%esp)
 921      C8000000 
 922 07a0 C7442414 		movl	$_TASK_STACK+4000, 20(%esp)
 922      A00F0000 
 923 07a8 C7442410 		movl	$_TASK_GROUP_2, 16(%esp)
 923      00000000 
 924 07b0 C744240C 		movl	$0, 12(%esp)
 924      00000000 
 925 07b8 C7442408 		movl	$1, 8(%esp)
 925      01000000 
 926 07c0 C7442404 		movl	$_task_2, 4(%esp)
 926      19060000 
 927 07c8 8B45F4   		movl	-12(%ebp), %eax
 928 07cb 890424   		movl	%eax, (%esp)
 929 07ce E8000000 		call	_OS_INIT_TASK
 929      00
 513:E:/NeuOrga/Programmieren/c_cpp/github_os/input/src/os_base\os_task_scheduler.c ****                &task_2,       /* Task Function*/
 514:E:/NeuOrga/Programmieren/c_cpp/github_os/input/src/os_base\os_task_scheduler.c ****                1u,             /* Nr of allowed instances*/
 515:E:/NeuOrga/Programmieren/c_cpp/github_os/input/src/os_base\os_task_scheduler.c ****                FALSE,          /* Idle Task */
 516:E:/NeuOrga/Programmieren/c_cpp/github_os/input/src/os_base\os_task_scheduler.c ****                &TASK_GROUP_2, /* Task Group */
 517:E:/NeuOrga/Programmieren/c_cpp/github_os/input/src/os_base\os_task_scheduler.c ****                (unsigned_char_t*)&TASK_STACK[2u],/* Task_stack */
 518:E:/NeuOrga/Programmieren/c_cpp/github_os/input/src/os_base\os_task_scheduler.c ****                200u,            /* Stack Size */
 519:E:/NeuOrga/Programmieren/c_cpp/github_os/input/src/os_base\os_task_scheduler.c ****                E_PRIVILIGEMODE_UNPRIVILIGED_THREAD_MODE, /* Unpriviliged Thread Mode */
 520:E:/NeuOrga/Programmieren/c_cpp/github_os/input/src/os_base\os_task_scheduler.c ****                E_CORE0,
 521:E:/NeuOrga/Programmieren/c_cpp/github_os/input/src/os_base\os_task_scheduler.c ****                2u                                   /* default prio */
 522:E:/NeuOrga/Programmieren/c_cpp/github_os/input/src/os_base\os_task_scheduler.c ****               );
 523:E:/NeuOrga/Programmieren/c_cpp/github_os/input/src/os_base\os_task_scheduler.c ****    ADD_TO_SCHEDULING_QUEUE(task_ptr);
 930              		.loc 1 523 0
 931 07d3 8B45F4   		movl	-12(%ebp), %eax
 932 07d6 890424   		movl	%eax, (%esp)
 933 07d9 E8000000 		call	_ADD_TO_SCHEDULING_QUEUE
 933      00
 524:E:/NeuOrga/Programmieren/c_cpp/github_os/input/src/os_base\os_task_scheduler.c ****    OS_SAVE_TASK_PTR(task_ptr, TASK_2_PTR);
 934              		.loc 1 524 0
 935 07de 8B45F4   		movl	-12(%ebp), %eax
 936 07e1 A3080000 		movl	%eax, _TASK_PTR+8
GAS LISTING C:\Users\PRESID~1\AppData\Local\Temp\ccPWmP62.s 			page 30


 936      00
 525:E:/NeuOrga/Programmieren/c_cpp/github_os/input/src/os_base\os_task_scheduler.c **** 
 526:E:/NeuOrga/Programmieren/c_cpp/github_os/input/src/os_base\os_task_scheduler.c ****    /* setup worker task */
 527:E:/NeuOrga/Programmieren/c_cpp/github_os/input/src/os_base\os_task_scheduler.c ****    task_ptr = &TASK_3_VAR;
 937              		.loc 1 527 0
 938 07e6 C745F400 		movl	$_TASK_3_VAR, -12(%ebp)
 938      000000
 528:E:/NeuOrga/Programmieren/c_cpp/github_os/input/src/os_base\os_task_scheduler.c ****    OS_INIT_TASK(task_ptr,      /* task */
 939              		.loc 1 528 0
 940 07ed C7442424 		movl	$3, 36(%esp)
 940      03000000 
 941 07f5 C7442420 		movl	$0, 32(%esp)
 941      00000000 
 942 07fd C744241C 		movl	$0, 28(%esp)
 942      00000000 
 943 0805 C7442418 		movl	$200, 24(%esp)
 943      C8000000 
 944 080d C7442414 		movl	$_TASK_STACK+6000, 20(%esp)
 944      70170000 
 945 0815 C7442410 		movl	$_TASK_GROUP_3, 16(%esp)
 945      00000000 
 946 081d C744240C 		movl	$0, 12(%esp)
 946      00000000 
 947 0825 C7442408 		movl	$1, 8(%esp)
 947      01000000 
 948 082d C7442404 		movl	$_task_3, 4(%esp)
 948      4D060000 
 949 0835 8B45F4   		movl	-12(%ebp), %eax
 950 0838 890424   		movl	%eax, (%esp)
 951 083b E8000000 		call	_OS_INIT_TASK
 951      00
 529:E:/NeuOrga/Programmieren/c_cpp/github_os/input/src/os_base\os_task_scheduler.c ****                &task_3,       /* Task Function*/
 530:E:/NeuOrga/Programmieren/c_cpp/github_os/input/src/os_base\os_task_scheduler.c ****                1u,             /* Nr of allowed instances*/
 531:E:/NeuOrga/Programmieren/c_cpp/github_os/input/src/os_base\os_task_scheduler.c ****                FALSE,          /* Idle Task */
 532:E:/NeuOrga/Programmieren/c_cpp/github_os/input/src/os_base\os_task_scheduler.c ****                &TASK_GROUP_3, /* Task Group */
 533:E:/NeuOrga/Programmieren/c_cpp/github_os/input/src/os_base\os_task_scheduler.c ****                (unsigned_char_t*)&TASK_STACK[3u],/* Task_stack */
 534:E:/NeuOrga/Programmieren/c_cpp/github_os/input/src/os_base\os_task_scheduler.c ****                200u,           /* Stack Size */
 535:E:/NeuOrga/Programmieren/c_cpp/github_os/input/src/os_base\os_task_scheduler.c ****                E_PRIVILIGEMODE_UNPRIVILIGED_THREAD_MODE, /* Unpriviliged Thread Mode */
 536:E:/NeuOrga/Programmieren/c_cpp/github_os/input/src/os_base\os_task_scheduler.c ****                E_CORE0,
 537:E:/NeuOrga/Programmieren/c_cpp/github_os/input/src/os_base\os_task_scheduler.c ****                3u                                   /* default prio */
 538:E:/NeuOrga/Programmieren/c_cpp/github_os/input/src/os_base\os_task_scheduler.c ****               );
 539:E:/NeuOrga/Programmieren/c_cpp/github_os/input/src/os_base\os_task_scheduler.c ****    ADD_TO_SCHEDULING_QUEUE(task_ptr);
 952              		.loc 1 539 0
 953 0840 8B45F4   		movl	-12(%ebp), %eax
 954 0843 890424   		movl	%eax, (%esp)
 955 0846 E8000000 		call	_ADD_TO_SCHEDULING_QUEUE
 955      00
 540:E:/NeuOrga/Programmieren/c_cpp/github_os/input/src/os_base\os_task_scheduler.c ****    OS_SAVE_TASK_PTR(task_ptr, TASK_3_PTR);
 956              		.loc 1 540 0
 957 084b 8B45F4   		movl	-12(%ebp), %eax
 958 084e A30C0000 		movl	%eax, _TASK_PTR+12
 958      00
 541:E:/NeuOrga/Programmieren/c_cpp/github_os/input/src/os_base\os_task_scheduler.c **** }
 959              		.loc 1 541 0
 960 0853 C9       		leave
 961              		.cfi_restore 5
 962              		.cfi_def_cfa 4, 4
GAS LISTING C:\Users\PRESID~1\AppData\Local\Temp\ccPWmP62.s 			page 31


 963 0854 C3       		ret
 964              		.cfi_endproc
 965              	LFE13:
 967              	_os_task_scheduler:
 968              	LFB14:
 542:E:/NeuOrga/Programmieren/c_cpp/github_os/input/src/os_base\os_task_scheduler.c **** 
 543:E:/NeuOrga/Programmieren/c_cpp/github_os/input/src/os_base\os_task_scheduler.c **** 
 544:E:/NeuOrga/Programmieren/c_cpp/github_os/input/src/os_base\os_task_scheduler.c **** LOCAL scheduling_t* os_task_scheduler(void)
 545:E:/NeuOrga/Programmieren/c_cpp/github_os/input/src/os_base\os_task_scheduler.c **** {
 969              		.loc 1 545 0
 970              		.cfi_startproc
 971 0855 55       		pushl	%ebp
 972              		.cfi_def_cfa_offset 8
 973              		.cfi_offset 5, -8
 974 0856 89E5     		movl	%esp, %ebp
 975              		.cfi_def_cfa_register 5
 976 0858 83EC68   		subl	$104, %esp
 546:E:/NeuOrga/Programmieren/c_cpp/github_os/input/src/os_base\os_task_scheduler.c **** 
 547:E:/NeuOrga/Programmieren/c_cpp/github_os/input/src/os_base\os_task_scheduler.c ****    scheduling_t*    scheduling_queue_member;
 548:E:/NeuOrga/Programmieren/c_cpp/github_os/input/src/os_base\os_task_scheduler.c ****    unsigned_char_t element_nr;
 549:E:/NeuOrga/Programmieren/c_cpp/github_os/input/src/os_base\os_task_scheduler.c **** 
 550:E:/NeuOrga/Programmieren/c_cpp/github_os/input/src/os_base\os_task_scheduler.c ****    unsigned_char_t Winner_prio = 0u;
 977              		.loc 1 550 0
 978 085b C645F600 		movb	$0, -10(%ebp)
 551:E:/NeuOrga/Programmieren/c_cpp/github_os/input/src/os_base\os_task_scheduler.c ****    task_t*         task = 0u;
 979              		.loc 1 551 0
 980 085f C745EC00 		movl	$0, -20(%ebp)
 980      000000
 552:E:/NeuOrga/Programmieren/c_cpp/github_os/input/src/os_base\os_task_scheduler.c ****    task_t*         Winner_task = 0u;
 981              		.loc 1 552 0
 982 0866 C745E800 		movl	$0, -24(%ebp)
 982      000000
 553:E:/NeuOrga/Programmieren/c_cpp/github_os/input/src/os_base\os_task_scheduler.c ****    scheduling_t*   Winner_scheduling_queue_member = 0u;
 983              		.loc 1 553 0
 984 086d C745F000 		movl	$0, -16(%ebp)
 984      000000
 554:E:/NeuOrga/Programmieren/c_cpp/github_os/input/src/os_base\os_task_scheduler.c ****    timebig_t       delta_time;
 555:E:/NeuOrga/Programmieren/c_cpp/github_os/input/src/os_base\os_task_scheduler.c **** 
 556:E:/NeuOrga/Programmieren/c_cpp/github_os/input/src/os_base\os_task_scheduler.c ****    timebig_t time;
 557:E:/NeuOrga/Programmieren/c_cpp/github_os/input/src/os_base\os_task_scheduler.c **** 
 558:E:/NeuOrga/Programmieren/c_cpp/github_os/input/src/os_base\os_task_scheduler.c ****    OS_GET_CURRENT_TIME(&time);
 985              		.loc 1 558 0
 986 0874 8D45C4   		leal	-60(%ebp), %eax
 987 0877 890424   		movl	%eax, (%esp)
 988 087a E8000000 		call	_OS_GET_CURRENT_TIME
 988      00
 559:E:/NeuOrga/Programmieren/c_cpp/github_os/input/src/os_base\os_task_scheduler.c **** 
 560:E:/NeuOrga/Programmieren/c_cpp/github_os/input/src/os_base\os_task_scheduler.c ****    INT_SUB(&delta_time, &time, &LAST_CURRENT_TIME);
 989              		.loc 1 560 0
 990 087f C7442408 		movl	$_LAST_CURRENT_TIME, 8(%esp)
 990      00000000 
 991 0887 8D45C4   		leal	-60(%ebp), %eax
 992 088a 89442404 		movl	%eax, 4(%esp)
 993 088e 8D45D4   		leal	-44(%ebp), %eax
 994 0891 890424   		movl	%eax, (%esp)
 995 0894 E8000000 		call	_INT_SUB
 995      00
GAS LISTING C:\Users\PRESID~1\AppData\Local\Temp\ccPWmP62.s 			page 32


 561:E:/NeuOrga/Programmieren/c_cpp/github_os/input/src/os_base\os_task_scheduler.c **** 
 562:E:/NeuOrga/Programmieren/c_cpp/github_os/input/src/os_base\os_task_scheduler.c ****    ASSIGN(&LAST_CURRENT_TIME,&time);
 996              		.loc 1 562 0
 997 0899 8D45C4   		leal	-60(%ebp), %eax
 998 089c 89442404 		movl	%eax, 4(%esp)
 999 08a0 C7042400 		movl	$_LAST_CURRENT_TIME, (%esp)
 999      000000
 1000 08a7 E8000000 		call	_ASSIGN
 1000      00
 563:E:/NeuOrga/Programmieren/c_cpp/github_os/input/src/os_base\os_task_scheduler.c **** 
 564:E:/NeuOrga/Programmieren/c_cpp/github_os/input/src/os_base\os_task_scheduler.c ****    REFERENCE_UNUSED_PARAMETER(Winner_task);
 565:E:/NeuOrga/Programmieren/c_cpp/github_os/input/src/os_base\os_task_scheduler.c ****    /*
 566:E:/NeuOrga/Programmieren/c_cpp/github_os/input/src/os_base\os_task_scheduler.c ****    x const for single task: task->default_prio // low = 0,.....high=100
 567:E:/NeuOrga/Programmieren/c_cpp/github_os/input/src/os_base\os_task_scheduler.c ****    x var   for single task: task->current_prio // see prio_std
 568:E:/NeuOrga/Programmieren/c_cpp/github_os/input/src/os_base\os_task_scheduler.c ****    x var   for single task: task->wait_time    //
 569:E:/NeuOrga/Programmieren/c_cpp/github_os/input/src/os_base\os_task_scheduler.c ****    x var   for single task: task->exe_time
 570:E:/NeuOrga/Programmieren/c_cpp/github_os/input/src/os_base\os_task_scheduler.c ****    x const for single task: task->time_to_prio_inc
 571:E:/NeuOrga/Programmieren/c_cpp/github_os/input/src/os_base\os_task_scheduler.c ****    x const for single task: task->max_allowed_wait_time
 572:E:/NeuOrga/Programmieren/c_cpp/github_os/input/src/os_base\os_task_scheduler.c ****    x const for single task: task->min_allowed_wait_time
 573:E:/NeuOrga/Programmieren/c_cpp/github_os/input/src/os_base\os_task_scheduler.c ****    x const for single task: task->overwaittime_per_prio_inc_step //e.g. 100*MinTimeSlice_us
 574:E:/NeuOrga/Programmieren/c_cpp/github_os/input/src/os_base\os_task_scheduler.c ****    x const for single task: task->task_group  //to allow processor access control by groups (e.g. u
 575:E:/NeuOrga/Programmieren/c_cpp/github_os/input/src/os_base\os_task_scheduler.c ****    x const for single task: task->wait_act_until
 576:E:/NeuOrga/Programmieren/c_cpp/github_os/input/src/os_base\os_task_scheduler.c ****    (task_group is designed to allow proccessor access control between e.g. Customer Software Task a
 577:E:/NeuOrga/Programmieren/c_cpp/github_os/input/src/os_base\os_task_scheduler.c ****    */
 578:E:/NeuOrga/Programmieren/c_cpp/github_os/input/src/os_base\os_task_scheduler.c ****    FOR_ALL_TASKS_IN_QUEUE(element_nr)
 1001              		.loc 1 578 0
 1002 08ac C645F700 		movb	$0, -9(%ebp)
 1003 08b0 E93B0100 		jmp	L75
 1003      00
 1004              	L83:
 579:E:/NeuOrga/Programmieren/c_cpp/github_os/input/src/os_base\os_task_scheduler.c ****    {
 580:E:/NeuOrga/Programmieren/c_cpp/github_os/input/src/os_base\os_task_scheduler.c ****       scheduling_queue_member = GET_FROM_SCHEDULING_QUEUE(element_nr);
 1005              		.loc 1 580 0
 1006 08b5 0FB645F7 		movzbl	-9(%ebp), %eax
 1007 08b9 890424   		movl	%eax, (%esp)
 1008 08bc E8000000 		call	_GET_FROM_SCHEDULING_QUEUE
 1008      00
 1009 08c1 8945E4   		movl	%eax, -28(%ebp)
 581:E:/NeuOrga/Programmieren/c_cpp/github_os/input/src/os_base\os_task_scheduler.c ****       /*task will have a pointer on the task_obj, and might be equal to "(task_t*) 0" */
 582:E:/NeuOrga/Programmieren/c_cpp/github_os/input/src/os_base\os_task_scheduler.c ****       task             = GET_FROM_TASK_QUEUE(scheduling_queue_member);
 1010              		.loc 1 582 0
 1011 08c4 8B45E4   		movl	-28(%ebp), %eax
 1012 08c7 890424   		movl	%eax, (%esp)
 1013 08ca E8000000 		call	_GET_FROM_TASK_QUEUE
 1013      00
 1014 08cf 8945EC   		movl	%eax, -20(%ebp)
 583:E:/NeuOrga/Programmieren/c_cpp/github_os/input/src/os_base\os_task_scheduler.c ****       /* increase prio: high numbers->high prio */
 584:E:/NeuOrga/Programmieren/c_cpp/github_os/input/src/os_base\os_task_scheduler.c ****       if((task != 0u)&&(task->task_queued != FALSE))
 1015              		.loc 1 584 0
 1016 08d2 837DEC00 		cmpl	$0, -20(%ebp)
 1017 08d6 0F840D01 		je	L76
 1017      0000
 1018              		.loc 1 584 0 is_stmt 0 discriminator 1
 1019 08dc 8B45EC   		movl	-20(%ebp), %eax
 1020 08df 8A00     		movb	(%eax), %al
 1021 08e1 83E002   		andl	$2, %eax
 1022 08e4 84C0     		testb	%al, %al
GAS LISTING C:\Users\PRESID~1\AppData\Local\Temp\ccPWmP62.s 			page 33


 1023 08e6 0F84FD00 		je	L76
 1023      0000
 585:E:/NeuOrga/Programmieren/c_cpp/github_os/input/src/os_base\os_task_scheduler.c ****       {
 586:E:/NeuOrga/Programmieren/c_cpp/github_os/input/src/os_base\os_task_scheduler.c ****          if(IS_GREATER_OR_EQUAL(&task->wait_time, &task->time_to_prio_inc))
 1024              		.loc 1 586 0 is_stmt 1
 1025 08ec 8B45EC   		movl	-20(%ebp), %eax
 1026 08ef 8D5026   		leal	38(%eax), %edx
 1027 08f2 8B45EC   		movl	-20(%ebp), %eax
 1028 08f5 83C016   		addl	$22, %eax
 1029 08f8 89542404 		movl	%edx, 4(%esp)
 1030 08fc 890424   		movl	%eax, (%esp)
 1031 08ff E8000000 		call	_IS_GREATER_OR_EQUAL
 1031      00
 1032 0904 84C0     		testb	%al, %al
 1033 0906 7414     		je	L77
 587:E:/NeuOrga/Programmieren/c_cpp/github_os/input/src/os_base\os_task_scheduler.c ****          {
 588:E:/NeuOrga/Programmieren/c_cpp/github_os/input/src/os_base\os_task_scheduler.c ****             task->current_prio = task->current_prio + task->overwaittime_per_prio_inc_step;
 1034              		.loc 1 588 0
 1035 0908 8B45EC   		movl	-20(%ebp), %eax
 1036 090b 8A506C   		movb	108(%eax), %dl
 1037 090e 8B45EC   		movl	-20(%ebp), %eax
 1038 0911 8B4038   		movl	56(%eax), %eax
 1039 0914 01C2     		addl	%eax, %edx
 1040 0916 8B45EC   		movl	-20(%ebp), %eax
 1041 0919 88506C   		movb	%dl, 108(%eax)
 1042              	L77:
 589:E:/NeuOrga/Programmieren/c_cpp/github_os/input/src/os_base\os_task_scheduler.c ****          }
 590:E:/NeuOrga/Programmieren/c_cpp/github_os/input/src/os_base\os_task_scheduler.c ****          /* in case wait condition not yet fulfilled, set prio to 0 */
 591:E:/NeuOrga/Programmieren/c_cpp/github_os/input/src/os_base\os_task_scheduler.c ****          if(IS_GREATER(&task->wait_act_until, &time))
 1043              		.loc 1 591 0
 1044 091c 8B45EC   		movl	-20(%ebp), %eax
 1045 091f 8D5006   		leal	6(%eax), %edx
 1046 0922 8D45C4   		leal	-60(%ebp), %eax
 1047 0925 89442404 		movl	%eax, 4(%esp)
 1048 0929 891424   		movl	%edx, (%esp)
 1049 092c E8000000 		call	_IS_GREATER
 1049      00
 1050 0931 84C0     		testb	%al, %al
 1051 0933 7407     		je	L78
 592:E:/NeuOrga/Programmieren/c_cpp/github_os/input/src/os_base\os_task_scheduler.c ****          {
 593:E:/NeuOrga/Programmieren/c_cpp/github_os/input/src/os_base\os_task_scheduler.c ****             task->current_prio = 0u;
 1052              		.loc 1 593 0
 1053 0935 8B45EC   		movl	-20(%ebp), %eax
 1054 0938 C6406C00 		movb	$0, 108(%eax)
 1055              	L78:
 594:E:/NeuOrga/Programmieren/c_cpp/github_os/input/src/os_base\os_task_scheduler.c ****          }
 595:E:/NeuOrga/Programmieren/c_cpp/github_os/input/src/os_base\os_task_scheduler.c ****          if(IS_GREATER(&task->wait_time,&task->max_allowed_wait_time))
 1056              		.loc 1 595 0
 1057 093c 8B45EC   		movl	-20(%ebp), %eax
 1058 093f 8D503C   		leal	60(%eax), %edx
 1059 0942 8B45EC   		movl	-20(%ebp), %eax
 1060 0945 83C016   		addl	$22, %eax
 1061 0948 89542404 		movl	%edx, 4(%esp)
 1062 094c 890424   		movl	%eax, (%esp)
 1063 094f E8000000 		call	_IS_GREATER
 1063      00
 1064 0954 84C0     		testb	%al, %al
GAS LISTING C:\Users\PRESID~1\AppData\Local\Temp\ccPWmP62.s 			page 34


 1065 0956 7414     		je	L79
 596:E:/NeuOrga/Programmieren/c_cpp/github_os/input/src/os_base\os_task_scheduler.c ****          {
 597:E:/NeuOrga/Programmieren/c_cpp/github_os/input/src/os_base\os_task_scheduler.c ****             /* set bug */
 598:E:/NeuOrga/Programmieren/c_cpp/github_os/input/src/os_base\os_task_scheduler.c ****             OS_SET_SW_BUG(E_OS_BUG_MAX_WAIT_TIME_REACHED, E_FUNC_TASKSCHEDULER);
 1066              		.loc 1 598 0
 1067 0958 C7442404 		movl	$9, 4(%esp)
 1067      09000000 
 1068 0960 C704240B 		movl	$11, (%esp)
 1068      000000
 1069 0967 E8000000 		call	_OS_SET_SW_BUG
 1069      00
 1070              	L79:
 599:E:/NeuOrga/Programmieren/c_cpp/github_os/input/src/os_base\os_task_scheduler.c ****          }
 600:E:/NeuOrga/Programmieren/c_cpp/github_os/input/src/os_base\os_task_scheduler.c ****          /* not active TASK_RUN_QUEUE elements have no valid task_group!!*/
 601:E:/NeuOrga/Programmieren/c_cpp/github_os/input/src/os_base\os_task_scheduler.c ****          if(task->task_group!=0u)
 1071              		.loc 1 601 0
 1072 096c 8B45EC   		movl	-20(%ebp), %eax
 1073 096f 8B808000 		movl	128(%eax), %eax
 1073      0000
 1074 0975 85C0     		testl	%eax, %eax
 1075 0977 745C     		je	L80
 602:E:/NeuOrga/Programmieren/c_cpp/github_os/input/src/os_base\os_task_scheduler.c ****          {
 603:E:/NeuOrga/Programmieren/c_cpp/github_os/input/src/os_base\os_task_scheduler.c ****             /* usage the exe time for scheduling strategy */
 604:E:/NeuOrga/Programmieren/c_cpp/github_os/input/src/os_base\os_task_scheduler.c ****             if(IS_GREATER(&task->task_group->exe_time, &task->task_group->fair_exe_time) != FALSE)
 1076              		.loc 1 604 0
 1077 0979 8B45EC   		movl	-20(%ebp), %eax
 1078 097c 8B808000 		movl	128(%eax), %eax
 1078      0000
 1079 0982 8D5010   		leal	16(%eax), %edx
 1080 0985 8B45EC   		movl	-20(%ebp), %eax
 1081 0988 8B808000 		movl	128(%eax), %eax
 1081      0000
 1082 098e 89542404 		movl	%edx, 4(%esp)
 1083 0992 890424   		movl	%eax, (%esp)
 1084 0995 E8000000 		call	_IS_GREATER
 1084      00
 1085 099a 84C0     		testb	%al, %al
 1086 099c 744B     		je	L76
 1087              	LBB2:
 605:E:/NeuOrga/Programmieren/c_cpp/github_os/input/src/os_base\os_task_scheduler.c ****             {
 606:E:/NeuOrga/Programmieren/c_cpp/github_os/input/src/os_base\os_task_scheduler.c ****                timebig_t tTime;
 607:E:/NeuOrga/Programmieren/c_cpp/github_os/input/src/os_base\os_task_scheduler.c ****                ASSIGN_UINT32(&tTime, TASK_MIN_TIME);
 1088              		.loc 1 607 0
 1089 099e C7442404 		movl	$1, 4(%esp)
 1089      01000000 
 1090 09a6 8D45B4   		leal	-76(%ebp), %eax
 1091 09a9 890424   		movl	%eax, (%esp)
 1092 09ac E8000000 		call	_ASSIGN_UINT32
 1092      00
 608:E:/NeuOrga/Programmieren/c_cpp/github_os/input/src/os_base\os_task_scheduler.c ****                if(IS_GREATER_OR_EQUAL(&task->exe_time, &tTime))/* guarantee min time */
 1093              		.loc 1 608 0
 1094 09b1 8B45EC   		movl	-20(%ebp), %eax
 1095 09b4 8D504C   		leal	76(%eax), %edx
 1096 09b7 8D45B4   		leal	-76(%ebp), %eax
 1097 09ba 89442404 		movl	%eax, 4(%esp)
 1098 09be 891424   		movl	%edx, (%esp)
 1099 09c1 E8000000 		call	_IS_GREATER_OR_EQUAL
GAS LISTING C:\Users\PRESID~1\AppData\Local\Temp\ccPWmP62.s 			page 35


 1099      00
 1100 09c6 84C0     		testb	%al, %al
 1101 09c8 7409     		je	L81
 609:E:/NeuOrga/Programmieren/c_cpp/github_os/input/src/os_base\os_task_scheduler.c ****                {
 610:E:/NeuOrga/Programmieren/c_cpp/github_os/input/src/os_base\os_task_scheduler.c ****                   task->current_prio = 0u;
 1102              		.loc 1 610 0
 1103 09ca 8B45EC   		movl	-20(%ebp), %eax
 1104 09cd C6406C00 		movb	$0, 108(%eax)
 1105              	LBE2:
 1106 09d1 EB16     		jmp	L76
 1107              	L81:
 1108 09d3 EB14     		jmp	L76
 1109              	L80:
 611:E:/NeuOrga/Programmieren/c_cpp/github_os/input/src/os_base\os_task_scheduler.c ****                }
 612:E:/NeuOrga/Programmieren/c_cpp/github_os/input/src/os_base\os_task_scheduler.c ****             }
 613:E:/NeuOrga/Programmieren/c_cpp/github_os/input/src/os_base\os_task_scheduler.c ****          }
 614:E:/NeuOrga/Programmieren/c_cpp/github_os/input/src/os_base\os_task_scheduler.c ****          else
 615:E:/NeuOrga/Programmieren/c_cpp/github_os/input/src/os_base\os_task_scheduler.c ****          {
 616:E:/NeuOrga/Programmieren/c_cpp/github_os/input/src/os_base\os_task_scheduler.c ****             OS_SET_SW_BUG(E_OS_BUG_NULL_POINTER, E_FUNC_TASKSCHEDULER);
 1110              		.loc 1 616 0
 1111 09d5 C7442404 		movl	$9, 4(%esp)
 1111      09000000 
 1112 09dd C7042402 		movl	$2, (%esp)
 1112      000000
 1113 09e4 E8000000 		call	_OS_SET_SW_BUG
 1113      00
 1114              	L76:
 578:E:/NeuOrga/Programmieren/c_cpp/github_os/input/src/os_base\os_task_scheduler.c ****    {
 1115              		.loc 1 578 0 discriminator 2
 1116 09e9 8A45F7   		movb	-9(%ebp), %al
 1117 09ec 40       		incl	%eax
 1118 09ed 8845F7   		movb	%al, -9(%ebp)
 1119              	L75:
 578:E:/NeuOrga/Programmieren/c_cpp/github_os/input/src/os_base\os_task_scheduler.c ****    {
 1120              		.loc 1 578 0 is_stmt 0 discriminator 1
 1121 09f0 807DF709 		cmpb	$9, -9(%ebp)
 1122 09f4 0F86BBFE 		jbe	L83
 1122      FFFF
 617:E:/NeuOrga/Programmieren/c_cpp/github_os/input/src/os_base\os_task_scheduler.c ****          }
 618:E:/NeuOrga/Programmieren/c_cpp/github_os/input/src/os_base\os_task_scheduler.c ****       }
 619:E:/NeuOrga/Programmieren/c_cpp/github_os/input/src/os_base\os_task_scheduler.c ****       /* do not set bug, because task =0 is used for empty queue elements
 620:E:/NeuOrga/Programmieren/c_cpp/github_os/input/src/os_base\os_task_scheduler.c ****       else
 621:E:/NeuOrga/Programmieren/c_cpp/github_os/input/src/os_base\os_task_scheduler.c ****       {
 622:E:/NeuOrga/Programmieren/c_cpp/github_os/input/src/os_base\os_task_scheduler.c ****           OS_SET_SW_BUG(E_OS_BUG_NULL_POINTER, E_FUNC_TASKSCHEDULER);
 623:E:/NeuOrga/Programmieren/c_cpp/github_os/input/src/os_base\os_task_scheduler.c ****       }
 624:E:/NeuOrga/Programmieren/c_cpp/github_os/input/src/os_base\os_task_scheduler.c ****       */
 625:E:/NeuOrga/Programmieren/c_cpp/github_os/input/src/os_base\os_task_scheduler.c ****    }
 626:E:/NeuOrga/Programmieren/c_cpp/github_os/input/src/os_base\os_task_scheduler.c ****    FOR_ALL_TASKS_IN_QUEUE(element_nr)
 1123              		.loc 1 626 0 is_stmt 1
 1124 09fa C645F700 		movb	$0, -9(%ebp)
 1125 09fe EB75     		jmp	L84
 1126              	L87:
 627:E:/NeuOrga/Programmieren/c_cpp/github_os/input/src/os_base\os_task_scheduler.c ****    {
 628:E:/NeuOrga/Programmieren/c_cpp/github_os/input/src/os_base\os_task_scheduler.c ****       scheduling_queue_member = GET_FROM_SCHEDULING_QUEUE(element_nr);
 1127              		.loc 1 628 0
 1128 0a00 0FB645F7 		movzbl	-9(%ebp), %eax
 1129 0a04 890424   		movl	%eax, (%esp)
GAS LISTING C:\Users\PRESID~1\AppData\Local\Temp\ccPWmP62.s 			page 36


 1130 0a07 E8000000 		call	_GET_FROM_SCHEDULING_QUEUE
 1130      00
 1131 0a0c 8945E4   		movl	%eax, -28(%ebp)
 629:E:/NeuOrga/Programmieren/c_cpp/github_os/input/src/os_base\os_task_scheduler.c ****       task             = GET_FROM_TASK_QUEUE(scheduling_queue_member);
 1132              		.loc 1 629 0
 1133 0a0f 8B45E4   		movl	-28(%ebp), %eax
 1134 0a12 890424   		movl	%eax, (%esp)
 1135 0a15 E8000000 		call	_GET_FROM_TASK_QUEUE
 1135      00
 1136 0a1a 8945EC   		movl	%eax, -20(%ebp)
 630:E:/NeuOrga/Programmieren/c_cpp/github_os/input/src/os_base\os_task_scheduler.c ****       if(task != 0u)
 1137              		.loc 1 630 0
 1138 0a1d 837DEC00 		cmpl	$0, -20(%ebp)
 1139 0a21 744B     		je	L85
 631:E:/NeuOrga/Programmieren/c_cpp/github_os/input/src/os_base\os_task_scheduler.c ****       {
 632:E:/NeuOrga/Programmieren/c_cpp/github_os/input/src/os_base\os_task_scheduler.c ****          /*update wait time */
 633:E:/NeuOrga/Programmieren/c_cpp/github_os/input/src/os_base\os_task_scheduler.c ****          if(task->idle_task != TRUE)
 1140              		.loc 1 633 0
 1141 0a23 8B45EC   		movl	-20(%ebp), %eax
 1142 0a26 8A00     		movb	(%eax), %al
 1143 0a28 83E004   		andl	$4, %eax
 1144 0a2b 84C0     		testb	%al, %al
 1145 0a2d 751F     		jne	L86
 634:E:/NeuOrga/Programmieren/c_cpp/github_os/input/src/os_base\os_task_scheduler.c ****          {
 635:E:/NeuOrga/Programmieren/c_cpp/github_os/input/src/os_base\os_task_scheduler.c ****             INT_ADD(&task->wait_time, &task->wait_time, &delta_time);
 1146              		.loc 1 635 0
 1147 0a2f 8B45EC   		movl	-20(%ebp), %eax
 1148 0a32 8D4816   		leal	22(%eax), %ecx
 1149 0a35 8B45EC   		movl	-20(%ebp), %eax
 1150 0a38 8D5016   		leal	22(%eax), %edx
 1151 0a3b 8D45D4   		leal	-44(%ebp), %eax
 1152 0a3e 89442408 		movl	%eax, 8(%esp)
 1153 0a42 894C2404 		movl	%ecx, 4(%esp)
 1154 0a46 891424   		movl	%edx, (%esp)
 1155 0a49 E8000000 		call	_INT_ADD
 1155      00
 1156              	L86:
 636:E:/NeuOrga/Programmieren/c_cpp/github_os/input/src/os_base\os_task_scheduler.c ****          }
 637:E:/NeuOrga/Programmieren/c_cpp/github_os/input/src/os_base\os_task_scheduler.c ****          /* search for task with highest prio and assign it to Winner_task */
 638:E:/NeuOrga/Programmieren/c_cpp/github_os/input/src/os_base\os_task_scheduler.c ****          if(task->current_prio > Winner_prio)
 1157              		.loc 1 638 0
 1158 0a4e 8B45EC   		movl	-20(%ebp), %eax
 1159 0a51 8A406C   		movb	108(%eax), %al
 1160 0a54 3A45F6   		cmpb	-10(%ebp), %al
 1161 0a57 7615     		jbe	L85
 639:E:/NeuOrga/Programmieren/c_cpp/github_os/input/src/os_base\os_task_scheduler.c ****          {
 640:E:/NeuOrga/Programmieren/c_cpp/github_os/input/src/os_base\os_task_scheduler.c ****             Winner_prio = task->current_prio;
 1162              		.loc 1 640 0
 1163 0a59 8B45EC   		movl	-20(%ebp), %eax
 1164 0a5c 8A406C   		movb	108(%eax), %al
 1165 0a5f 8845F6   		movb	%al, -10(%ebp)
 641:E:/NeuOrga/Programmieren/c_cpp/github_os/input/src/os_base\os_task_scheduler.c ****             Winner_task = task;
 1166              		.loc 1 641 0
 1167 0a62 8B45EC   		movl	-20(%ebp), %eax
 1168 0a65 8945E8   		movl	%eax, -24(%ebp)
 642:E:/NeuOrga/Programmieren/c_cpp/github_os/input/src/os_base\os_task_scheduler.c ****             Winner_scheduling_queue_member = scheduling_queue_member;
 1169              		.loc 1 642 0
GAS LISTING C:\Users\PRESID~1\AppData\Local\Temp\ccPWmP62.s 			page 37


 1170 0a68 8B45E4   		movl	-28(%ebp), %eax
 1171 0a6b 8945F0   		movl	%eax, -16(%ebp)
 1172              	L85:
 626:E:/NeuOrga/Programmieren/c_cpp/github_os/input/src/os_base\os_task_scheduler.c ****    {
 1173              		.loc 1 626 0 discriminator 2
 1174 0a6e 8A45F7   		movb	-9(%ebp), %al
 1175 0a71 40       		incl	%eax
 1176 0a72 8845F7   		movb	%al, -9(%ebp)
 1177              	L84:
 626:E:/NeuOrga/Programmieren/c_cpp/github_os/input/src/os_base\os_task_scheduler.c ****    {
 1178              		.loc 1 626 0 is_stmt 0 discriminator 1
 1179 0a75 807DF709 		cmpb	$9, -9(%ebp)
 1180 0a79 7685     		jbe	L87
 643:E:/NeuOrga/Programmieren/c_cpp/github_os/input/src/os_base\os_task_scheduler.c ****          }
 644:E:/NeuOrga/Programmieren/c_cpp/github_os/input/src/os_base\os_task_scheduler.c **** 
 645:E:/NeuOrga/Programmieren/c_cpp/github_os/input/src/os_base\os_task_scheduler.c ****       }
 646:E:/NeuOrga/Programmieren/c_cpp/github_os/input/src/os_base\os_task_scheduler.c ****       /* do not set bug, because task =0 is used for empty queue elements
 647:E:/NeuOrga/Programmieren/c_cpp/github_os/input/src/os_base\os_task_scheduler.c ****       else
 648:E:/NeuOrga/Programmieren/c_cpp/github_os/input/src/os_base\os_task_scheduler.c ****       {
 649:E:/NeuOrga/Programmieren/c_cpp/github_os/input/src/os_base\os_task_scheduler.c ****           OS_SET_SW_BUG(E_OS_BUG_NULL_POINTER, E_FUNC_TASKSCHEDULER);
 650:E:/NeuOrga/Programmieren/c_cpp/github_os/input/src/os_base\os_task_scheduler.c ****       }
 651:E:/NeuOrga/Programmieren/c_cpp/github_os/input/src/os_base\os_task_scheduler.c ****       */
 652:E:/NeuOrga/Programmieren/c_cpp/github_os/input/src/os_base\os_task_scheduler.c ****    }
 653:E:/NeuOrga/Programmieren/c_cpp/github_os/input/src/os_base\os_task_scheduler.c ****    return Winner_scheduling_queue_member;
 1181              		.loc 1 653 0 is_stmt 1
 1182 0a7b 8B45F0   		movl	-16(%ebp), %eax
 654:E:/NeuOrga/Programmieren/c_cpp/github_os/input/src/os_base\os_task_scheduler.c **** }
 1183              		.loc 1 654 0
 1184 0a7e C9       		leave
 1185              		.cfi_restore 5
 1186              		.cfi_def_cfa 4, 4
 1187 0a7f C3       		ret
 1188              		.cfi_endproc
 1189              	LFE14:
 1190              	Letext0:
 1191              		.file 2 "E:/NeuOrga/Programmieren/c_cpp/github_os/input/src/os_base/../os_base/os_base_types.h"
 1192              		.file 3 "E:/NeuOrga/Programmieren/c_cpp/github_os/input/src/os_base/../os_base/os_common.h"
 1193              		.file 4 "E:/NeuOrga/Programmieren/c_cpp/github_os/input/src/os_base/../os_sim/lld_core.h"
 1194              		.file 5 "E:/NeuOrga/Programmieren/c_cpp/github_os/input/src/os_base/../os_sim/../os_base/os_task_c
 1195              		.file 6 "E:/NeuOrga/Programmieren/c_cpp/github_os/input/src/os_base/../os_base/os_ram.h"
 1196              		.file 7 "E:/NeuOrga/Programmieren/c_cpp/github_os/input/src/os_base/../os_base/os_ram_stack.h"
 1197              		.section	.debug_info,"dr"
 1198              	Ldebug_info0:
 1199 0000 60100000 		.long	0x1060
 1200 0004 0400     		.word	0x4
 1201 0006 00000000 		.secrel32	Ldebug_abbrev0
 1202 000a 04       		.byte	0x4
 1203 000b 01       		.uleb128 0x1
 1204 000c 474E5520 		.ascii "GNU C 4.9.3 -march=i386 -g3 -O0 -std=c90\0"
 1204      4320342E 
 1204      392E3320 
 1204      2D6D6172 
 1204      63683D69 
 1205 0035 01       		.byte	0x1
 1206 0036 453A5C4E 		.ascii "E:\\NeuOrga\\Programmieren\\c_cpp\\github_os\\input\\src\\os_base\\os_task_scheduler.c\0"
 1206      65754F72 
 1206      67615C50 
GAS LISTING C:\Users\PRESID~1\AppData\Local\Temp\ccPWmP62.s 			page 38


 1206      726F6772 
 1206      616D6D69 
 1207 0085 00000000 		.long	Ltext0
 1208 0089 800A0000 		.long	Letext0-Ltext0
 1209 008d 00000000 		.secrel32	Ldebug_line0
 1210 0091 00000000 		.secrel32	Ldebug_macro0
 1211 0095 02       		.uleb128 0x2
 1212 0096 756E7369 		.ascii "unsigned_char_t\0"
 1212      676E6564 
 1212      5F636861 
 1212      725F7400 
 1213 00a6 02       		.byte	0x2
 1214 00a7 11       		.byte	0x11
 1215 00a8 AC000000 		.long	0xac
 1216 00ac 03       		.uleb128 0x3
 1217 00ad 01       		.byte	0x1
 1218 00ae 08       		.byte	0x8
 1219 00af 756E7369 		.ascii "unsigned char\0"
 1219      676E6564 
 1219      20636861 
 1219      7200
 1220 00bd 03       		.uleb128 0x3
 1221 00be 01       		.byte	0x1
 1222 00bf 06       		.byte	0x6
 1223 00c0 7369676E 		.ascii "signed char\0"
 1223      65642063 
 1223      68617200 
 1224 00cc 02       		.uleb128 0x2
 1225 00cd 75696E74 		.ascii "uint8\0"
 1225      3800
 1226 00d3 02       		.byte	0x2
 1227 00d4 15       		.byte	0x15
 1228 00d5 AC000000 		.long	0xac
 1229 00d9 03       		.uleb128 0x3
 1230 00da 02       		.byte	0x2
 1231 00db 07       		.byte	0x7
 1232 00dc 73686F72 		.ascii "short unsigned int\0"
 1232      7420756E 
 1232      7369676E 
 1232      65642069 
 1232      6E7400
 1233 00ef 03       		.uleb128 0x3
 1234 00f0 02       		.byte	0x2
 1235 00f1 05       		.byte	0x5
 1236 00f2 73686F72 		.ascii "short int\0"
 1236      7420696E 
 1236      7400
 1237 00fc 02       		.uleb128 0x2
 1238 00fd 756E7369 		.ascii "unsigned_int32_t\0"
 1238      676E6564 
 1238      5F696E74 
 1238      33325F74 
 1238      00
 1239 010e 02       		.byte	0x2
 1240 010f 1B       		.byte	0x1b
 1241 0110 14010000 		.long	0x114
 1242 0114 03       		.uleb128 0x3
GAS LISTING C:\Users\PRESID~1\AppData\Local\Temp\ccPWmP62.s 			page 39


 1243 0115 04       		.byte	0x4
 1244 0116 07       		.byte	0x7
 1245 0117 6C6F6E67 		.ascii "long unsigned int\0"
 1245      20756E73 
 1245      69676E65 
 1245      6420696E 
 1245      7400
 1246 0129 03       		.uleb128 0x3
 1247 012a 04       		.byte	0x4
 1248 012b 05       		.byte	0x5
 1249 012c 6C6F6E67 		.ascii "long int\0"
 1249      20696E74 
 1249      00
 1250 0135 02       		.uleb128 0x2
 1251 0136 75696E74 		.ascii "uint32\0"
 1251      333200
 1252 013d 02       		.byte	0x2
 1253 013e 1D       		.byte	0x1d
 1254 013f 14010000 		.long	0x114
 1255 0143 04       		.uleb128 0x4
 1256 0144 6F735F73 		.ascii "os_sw_bugs_e\0"
 1256      775F6275 
 1256      67735F65 
 1256      00
 1257 0151 04       		.byte	0x4
 1258 0152 03       		.byte	0x3
 1259 0153 28       		.byte	0x28
 1260 0154 D9020000 		.long	0x2d9
 1261 0158 05       		.uleb128 0x5
 1262 0159 455F4F53 		.ascii "E_OS_BUG_NO_BUG\0"
 1262      5F425547 
 1262      5F4E4F5F 
 1262      42554700 
 1263 0169 00       		.sleb128 0
 1264 016a 05       		.uleb128 0x5
 1265 016b 455F4F53 		.ascii "E_OS_BUG_TASKSTATE_REQUEST_DENIED\0"
 1265      5F425547 
 1265      5F544153 
 1265      4B535441 
 1265      54455F52 
 1266 018d 01       		.sleb128 1
 1267 018e 05       		.uleb128 0x5
 1268 018f 455F4F53 		.ascii "E_OS_BUG_NULL_POINTER\0"
 1268      5F425547 
 1268      5F4E554C 
 1268      4C5F504F 
 1268      494E5445 
 1269 01a5 02       		.sleb128 2
 1270 01a6 05       		.uleb128 0x5
 1271 01a7 455F4F53 		.ascii "E_OS_BUG_TASK_MAX_WAIT_TIME_REACHED\0"
 1271      5F425547 
 1271      5F544153 
 1271      4B5F4D41 
 1271      585F5741 
 1272 01cb 03       		.sleb128 3
 1273 01cc 05       		.uleb128 0x5
 1274 01cd 455F4F53 		.ascii "E_OS_BUG_TASK_UNSPECIFIED\0"
GAS LISTING C:\Users\PRESID~1\AppData\Local\Temp\ccPWmP62.s 			page 40


 1274      5F425547 
 1274      5F544153 
 1274      4B5F554E 
 1274      53504543 
 1275 01e7 04       		.sleb128 4
 1276 01e8 05       		.uleb128 0x5
 1277 01e9 455F4F53 		.ascii "E_OS_BUG_EXCEPTION_UNDEFINSTRUCTION\0"
 1277      5F425547 
 1277      5F455843 
 1277      45505449 
 1277      4F4E5F55 
 1278 020d 05       		.sleb128 5
 1279 020e 05       		.uleb128 0x5
 1280 020f 455F4F53 		.ascii "E_OS_BUG_EXCEPTION_ABORTPREFETCH\0"
 1280      5F425547 
 1280      5F455843 
 1280      45505449 
 1280      4F4E5F41 
 1281 0230 06       		.sleb128 6
 1282 0231 05       		.uleb128 0x5
 1283 0232 455F4F53 		.ascii "E_OS_BUG_EXCEPTION_ABORTDATA\0"
 1283      5F425547 
 1283      5F455843 
 1283      45505449 
 1283      4F4E5F41 
 1284 024f 07       		.sleb128 7
 1285 0250 05       		.uleb128 0x5
 1286 0251 455F4F53 		.ascii "E_OS_BUG_RESET_EXIT_OR_SHUTDOWN_FAILED\0"
 1286      5F425547 
 1286      5F524553 
 1286      45545F45 
 1286      5849545F 
 1287 0278 08       		.sleb128 8
 1288 0279 05       		.uleb128 0x5
 1289 027a 455F4F53 		.ascii "E_OS_BUG_CRITICAL_STACK_USAGE\0"
 1289      5F425547 
 1289      5F435249 
 1289      54494341 
 1289      4C5F5354 
 1290 0298 09       		.sleb128 9
 1291 0299 05       		.uleb128 0x5
 1292 029a 455F4F53 		.ascii "E_OS_BUG_SVC_NUMBER_MISSING\0"
 1292      5F425547 
 1292      5F535643 
 1292      5F4E554D 
 1292      4245525F 
 1293 02b6 0A       		.sleb128 10
 1294 02b7 05       		.uleb128 0x5
 1295 02b8 455F4F53 		.ascii "E_OS_BUG_MAX_WAIT_TIME_REACHED\0"
 1295      5F425547 
 1295      5F4D4158 
 1295      5F574149 
 1295      545F5449 
 1296 02d7 0B       		.sleb128 11
 1297 02d8 00       		.byte	0
 1298 02d9 04       		.uleb128 0x4
 1299 02da 6F735F73 		.ascii "os_sw_bugs_function_e\0"
GAS LISTING C:\Users\PRESID~1\AppData\Local\Temp\ccPWmP62.s 			page 41


 1299      775F6275 
 1299      67735F66 
 1299      756E6374 
 1299      696F6E5F 
 1300 02f0 04       		.byte	0x4
 1301 02f1 03       		.byte	0x3
 1302 02f2 39       		.byte	0x39
 1303 02f3 CD040000 		.long	0x4cd
 1304 02f7 05       		.uleb128 0x5
 1305 02f8 455F4655 		.ascii "E_FUNC_NOFUNCTION\0"
 1305      4E435F4E 
 1305      4F46554E 
 1305      4354494F 
 1305      4E00
 1306 030a 00       		.sleb128 0
 1307 030b 05       		.uleb128 0x5
 1308 030c 455F4655 		.ascii "E_FUNC_SAVETASKENVIRONMENT\0"
 1308      4E435F53 
 1308      41564554 
 1308      41534B45 
 1308      4E564952 
 1309 0327 01       		.sleb128 1
 1310 0328 05       		.uleb128 0x5
 1311 0329 455F4655 		.ascii "E_FUNC_RESTORETASKENVIRONMENT\0"
 1311      4E435F52 
 1311      4553544F 
 1311      52455441 
 1311      534B454E 
 1312 0347 02       		.sleb128 2
 1313 0348 05       		.uleb128 0x5
 1314 0349 455F4655 		.ascii "E_FUNC_CREATETASKENVIRONMENT\0"
 1314      4E435F43 
 1314      52454154 
 1314      45544153 
 1314      4B454E56 
 1315 0366 03       		.sleb128 3
 1316 0367 05       		.uleb128 0x5
 1317 0368 455F4655 		.ascii "E_FUNC_DELETETASKENVIRONMENT\0"
 1317      4E435F44 
 1317      454C4554 
 1317      45544153 
 1317      4B454E56 
 1318 0385 04       		.sleb128 4
 1319 0386 05       		.uleb128 0x5
 1320 0387 455F4655 		.ascii "E_FUNC_INITTASKENVIRONMENT\0"
 1320      4E435F49 
 1320      4E495454 
 1320      41534B45 
 1320      4E564952 
 1321 03a2 05       		.sleb128 5
 1322 03a3 05       		.uleb128 0x5
 1323 03a4 455F4655 		.ascii "E_FUNC_STARTTASK\0"
 1323      4E435F53 
 1323      54415254 
 1323      5441534B 
 1323      00
 1324 03b5 06       		.sleb128 6
GAS LISTING C:\Users\PRESID~1\AppData\Local\Temp\ccPWmP62.s 			page 42


 1325 03b6 05       		.uleb128 0x5
 1326 03b7 455F4655 		.ascii "E_FUNC_PREEMPTTASK\0"
 1326      4E435F50 
 1326      5245454D 
 1326      50545441 
 1326      534B00
 1327 03ca 07       		.sleb128 7
 1328 03cb 05       		.uleb128 0x5
 1329 03cc 455F4655 		.ascii "E_FUNC_TERMINATETASK\0"
 1329      4E435F54 
 1329      45524D49 
 1329      4E415445 
 1329      5441534B 
 1330 03e1 08       		.sleb128 8
 1331 03e2 05       		.uleb128 0x5
 1332 03e3 455F4655 		.ascii "E_FUNC_TASKSCHEDULER\0"
 1332      4E435F54 
 1332      41534B53 
 1332      43484544 
 1332      554C4552 
 1333 03f8 09       		.sleb128 9
 1334 03f9 05       		.uleb128 0x5
 1335 03fa 455F4655 		.ascii "E_FUNC_INITTASK\0"
 1335      4E435F49 
 1335      4E495454 
 1335      41534B00 
 1336 040a 0A       		.sleb128 10
 1337 040b 05       		.uleb128 0x5
 1338 040c 455F4655 		.ascii "E_FUNC_ACTIVATETASK\0"
 1338      4E435F41 
 1338      43544956 
 1338      41544554 
 1338      41534B00 
 1339 0420 0B       		.sleb128 11
 1340 0421 05       		.uleb128 0x5
 1341 0422 455F4655 		.ascii "E_FUNC_TASKSTATEREQUEST\0"
 1341      4E435F54 
 1341      41534B53 
 1341      54415445 
 1341      52455155 
 1342 043a 0C       		.sleb128 12
 1343 043b 05       		.uleb128 0x5
 1344 043c 455F4655 		.ascii "E_FUNC_PREEMPT_TASK\0"
 1344      4E435F50 
 1344      5245454D 
 1344      50545F54 
 1344      41534B00 
 1345 0450 0D       		.sleb128 13
 1346 0451 05       		.uleb128 0x5
 1347 0452 455F4655 		.ascii "E_FUNC_OS_EXCEPTION\0"
 1347      4E435F4F 
 1347      535F4558 
 1347      43455054 
 1347      494F4E00 
 1348 0466 0E       		.sleb128 14
 1349 0467 05       		.uleb128 0x5
 1350 0468 455F4655 		.ascii "E_FUNC_CREATETASK\0"
GAS LISTING C:\Users\PRESID~1\AppData\Local\Temp\ccPWmP62.s 			page 43


 1350      4E435F43 
 1350      52454154 
 1350      45544153 
 1350      4B00
 1351 047a 0F       		.sleb128 15
 1352 047b 05       		.uleb128 0x5
 1353 047c 455F4655 		.ascii "E_FUNC_SHUTDOWN\0"
 1353      4E435F53 
 1353      48555444 
 1353      4F574E00 
 1354 048c 10       		.sleb128 16
 1355 048d 05       		.uleb128 0x5
 1356 048e 455F4655 		.ascii "E_FUNC_STACKCHECK\0"
 1356      4E435F53 
 1356      5441434B 
 1356      43484543 
 1356      4B00
 1357 04a0 11       		.sleb128 17
 1358 04a1 05       		.uleb128 0x5
 1359 04a2 455F4655 		.ascii "E_FUNC_ISRHANDLER\0"
 1359      4E435F49 
 1359      53524841 
 1359      4E444C45 
 1359      5200
 1360 04b4 12       		.sleb128 18
 1361 04b5 05       		.uleb128 0x5
 1362 04b6 455F4655 		.ascii "E_FUNC_STATE_HANDLER\0"
 1362      4E435F53 
 1362      54415445 
 1362      5F48414E 
 1362      444C4552 
 1363 04cb 13       		.sleb128 19
 1364 04cc 00       		.byte	0
 1365 04cd 06       		.uleb128 0x6
 1366 04ce 6269675F 		.ascii "big_int_s\0"
 1366      696E745F 
 1366      7300
 1367 04d8 10       		.byte	0x10
 1368 04d9 03       		.byte	0x3
 1369 04da 57       		.byte	0x57
 1370 04db EF040000 		.long	0x4ef
 1371 04df 07       		.uleb128 0x7
 1372 04e0 6E756D62 		.ascii "number\0"
 1372      657200
 1373 04e7 03       		.byte	0x3
 1374 04e8 60       		.byte	0x60
 1375 04e9 EF040000 		.long	0x4ef
 1376 04ed 00       		.byte	0
 1377 04ee 00       		.byte	0
 1378 04ef 08       		.uleb128 0x8
 1379 04f0 CC000000 		.long	0xcc
 1380 04f4 FF040000 		.long	0x4ff
 1381 04f8 09       		.uleb128 0x9
 1382 04f9 FF040000 		.long	0x4ff
 1383 04fd 0F       		.byte	0xf
 1384 04fe 00       		.byte	0
 1385 04ff 03       		.uleb128 0x3
GAS LISTING C:\Users\PRESID~1\AppData\Local\Temp\ccPWmP62.s 			page 44


 1386 0500 04       		.byte	0x4
 1387 0501 07       		.byte	0x7
 1388 0502 73697A65 		.ascii "sizetype\0"
 1388      74797065 
 1388      00
 1389 050b 02       		.uleb128 0x2
 1390 050c 6269675F 		.ascii "big_int\0"
 1390      696E7400 
 1391 0514 03       		.byte	0x3
 1392 0515 61       		.byte	0x61
 1393 0516 CD040000 		.long	0x4cd
 1394 051a 02       		.uleb128 0x2
 1395 051b 74696D65 		.ascii "timebig_t\0"
 1395      6269675F 
 1395      7400
 1396 0525 03       		.byte	0x3
 1397 0526 63       		.byte	0x63
 1398 0527 0B050000 		.long	0x50b
 1399 052b 04       		.uleb128 0x4
 1400 052c 636F7265 		.ascii "coreid_e\0"
 1400      69645F65 
 1400      00
 1401 0535 04       		.byte	0x4
 1402 0536 04       		.byte	0x4
 1403 0537 04       		.byte	0x4
 1404 0538 65050000 		.long	0x565
 1405 053c 05       		.uleb128 0x5
 1406 053d 455F434F 		.ascii "E_CORE0\0"
 1406      52453000 
 1407 0545 00       		.sleb128 0
 1408 0546 05       		.uleb128 0x5
 1409 0547 455F434F 		.ascii "E_CORE1\0"
 1409      52453100 
 1410 054f 01       		.sleb128 1
 1411 0550 05       		.uleb128 0x5
 1412 0551 455F434F 		.ascii "E_CORE2\0"
 1412      52453200 
 1413 0559 02       		.sleb128 2
 1414 055a 05       		.uleb128 0x5
 1415 055b 455F434F 		.ascii "E_CORE3\0"
 1415      52453300 
 1416 0563 03       		.sleb128 3
 1417 0564 00       		.byte	0
 1418 0565 04       		.uleb128 0x4
 1419 0566 70726976 		.ascii "privilige_mode_e\0"
 1419      696C6967 
 1419      655F6D6F 
 1419      64655F65 
 1419      00
 1420 0577 04       		.byte	0x4
 1421 0578 04       		.byte	0x4
 1422 0579 10       		.byte	0x10
 1423 057a FD050000 		.long	0x5fd
 1424 057e 05       		.uleb128 0x5
 1425 057f 455F5052 		.ascii "E_PRIVILIGEMODE_UNPRIVILIGED_THREAD_MODE\0"
 1425      4956494C 
 1425      4947454D 
GAS LISTING C:\Users\PRESID~1\AppData\Local\Temp\ccPWmP62.s 			page 45


 1425      4F44455F 
 1425      554E5052 
 1426 05a8 00       		.sleb128 0
 1427 05a9 05       		.uleb128 0x5
 1428 05aa 455F5052 		.ascii "E_PRIVILIGEMODE_PRIVILIGED_THREAD_MODE\0"
 1428      4956494C 
 1428      4947454D 
 1428      4F44455F 
 1428      50524956 
 1429 05d1 01       		.sleb128 1
 1430 05d2 05       		.uleb128 0x5
 1431 05d3 455F5052 		.ascii "E_PRIVILIGEMODE_PRIVILIGED_HANDLER_MODE\0"
 1431      4956494C 
 1431      4947454D 
 1431      4F44455F 
 1431      50524956 
 1432 05fb 02       		.sleb128 2
 1433 05fc 00       		.byte	0
 1434 05fd 02       		.uleb128 0x2
 1435 05fe 70726976 		.ascii "privilige_mode_t\0"
 1435      696C6967 
 1435      655F6D6F 
 1435      64655F74 
 1435      00
 1436 060f 04       		.byte	0x4
 1437 0610 16       		.byte	0x16
 1438 0611 65050000 		.long	0x565
 1439 0615 04       		.uleb128 0x4
 1440 0616 7461736B 		.ascii "task_state_e\0"
 1440      5F737461 
 1440      74655F65 
 1440      00
 1441 0623 04       		.byte	0x4
 1442 0624 05       		.byte	0x5
 1443 0625 07       		.byte	0x7
 1444 0626 73060000 		.long	0x673
 1445 062a 05       		.uleb128 0x5
 1446 062b 455F5441 		.ascii "E_TASK_UNSPECIFIED\0"
 1446      534B5F55 
 1446      4E535045 
 1446      43494649 
 1446      454400
 1447 063e 00       		.sleb128 0
 1448 063f 05       		.uleb128 0x5
 1449 0640 455F5441 		.ascii "E_TASK_SUSPENDED\0"
 1449      534B5F53 
 1449      55535045 
 1449      4E444544 
 1449      00
 1450 0651 01       		.sleb128 1
 1451 0652 05       		.uleb128 0x5
 1452 0653 455F5441 		.ascii "E_TASK_READY\0"
 1452      534B5F52 
 1452      45414459 
 1452      00
 1453 0660 02       		.sleb128 2
 1454 0661 05       		.uleb128 0x5
GAS LISTING C:\Users\PRESID~1\AppData\Local\Temp\ccPWmP62.s 			page 46


 1455 0662 455F5441 		.ascii "E_TASK_RUNNING\0"
 1455      534B5F52 
 1455      554E4E49 
 1455      4E4700
 1456 0671 03       		.sleb128 3
 1457 0672 00       		.byte	0
 1458 0673 02       		.uleb128 0x2
 1459 0674 7461736B 		.ascii "task_state_t\0"
 1459      5F737461 
 1459      74655F74 
 1459      00
 1460 0681 05       		.byte	0x5
 1461 0682 0E       		.byte	0xe
 1462 0683 15060000 		.long	0x615
 1463 0687 02       		.uleb128 0x2
 1464 0688 66756E63 		.ascii "func_p_t\0"
 1464      5F705F74 
 1464      00
 1465 0691 05       		.byte	0x5
 1466 0692 13       		.byte	0x13
 1467 0693 97060000 		.long	0x697
 1468 0697 0A       		.uleb128 0xa
 1469 0698 04       		.byte	0x4
 1470 0699 9D060000 		.long	0x69d
 1471 069d 0B       		.uleb128 0xb
 1472 069e A8060000 		.long	0x6a8
 1473 06a2 0C       		.uleb128 0xc
 1474 06a3 A8060000 		.long	0x6a8
 1475 06a7 00       		.byte	0
 1476 06a8 0D       		.uleb128 0xd
 1477 06a9 04       		.byte	0x4
 1478 06aa 02       		.uleb128 0x2
 1479 06ab 66756E63 		.ascii "func_p_state_change_t\0"
 1479      5F705F73 
 1479      74617465 
 1479      5F636861 
 1479      6E67655F 
 1480 06c1 05       		.byte	0x5
 1481 06c2 15       		.byte	0x15
 1482 06c3 C7060000 		.long	0x6c7
 1483 06c7 0A       		.uleb128 0xa
 1484 06c8 04       		.byte	0x4
 1485 06c9 CD060000 		.long	0x6cd
 1486 06cd 0E       		.uleb128 0xe
 1487 06ce 95000000 		.long	0x95
 1488 06d2 E1060000 		.long	0x6e1
 1489 06d6 0C       		.uleb128 0xc
 1490 06d7 A8060000 		.long	0x6a8
 1491 06db 0C       		.uleb128 0xc
 1492 06dc 73060000 		.long	0x673
 1493 06e0 00       		.byte	0
 1494 06e1 06       		.uleb128 0x6
 1495 06e2 7461736B 		.ascii "task_group_s\0"
 1495      5F67726F 
 1495      75705F73 
 1495      00
 1496 06ef 20       		.byte	0x20
GAS LISTING C:\Users\PRESID~1\AppData\Local\Temp\ccPWmP62.s 			page 47


 1497 06f0 05       		.byte	0x5
 1498 06f1 18       		.byte	0x18
 1499 06f2 19070000 		.long	0x719
 1500 06f6 0F       		.uleb128 0xf
 1501 06f7 09000000 		.secrel32	LASF0
 1502 06fb 05       		.byte	0x5
 1503 06fc 1A       		.byte	0x1a
 1504 06fd 1A050000 		.long	0x51a
 1505 0701 00       		.byte	0
 1506 0702 07       		.uleb128 0x7
 1507 0703 66616972 		.ascii "fair_exe_time\0"
 1507      5F657865 
 1507      5F74696D 
 1507      6500
 1508 0711 05       		.byte	0x5
 1509 0712 1B       		.byte	0x1b
 1510 0713 1A050000 		.long	0x51a
 1511 0717 10       		.byte	0x10
 1512 0718 00       		.byte	0
 1513 0719 02       		.uleb128 0x2
 1514 071a 7461736B 		.ascii "task_group_t\0"
 1514      5F67726F 
 1514      75705F74 
 1514      00
 1515 0727 05       		.byte	0x5
 1516 0728 1D       		.byte	0x1d
 1517 0729 E1060000 		.long	0x6e1
 1518 072d 06       		.uleb128 0x6
 1519 072e 7461736B 		.ascii "task_s\0"
 1519      5F7300
 1520 0735 AC       		.byte	0xac
 1521 0736 05       		.byte	0x5
 1522 0737 1F       		.byte	0x1f
 1523 0738 BA090000 		.long	0x9ba
 1524 073c 10       		.uleb128 0x10
 1525 073d 61637469 		.ascii "active\0"
 1525      766500
 1526 0744 05       		.byte	0x5
 1527 0745 21       		.byte	0x21
 1528 0746 BA090000 		.long	0x9ba
 1529 074a 04       		.byte	0x4
 1530 074b 01       		.byte	0x1
 1531 074c 1F       		.byte	0x1f
 1532 074d 00       		.byte	0
 1533 074e 10       		.uleb128 0x10
 1534 074f 7461736B 		.ascii "task_queued\0"
 1534      5F717565 
 1534      75656400 
 1535 075b 05       		.byte	0x5
 1536 075c 22       		.byte	0x22
 1537 075d BA090000 		.long	0x9ba
 1538 0761 04       		.byte	0x4
 1539 0762 01       		.byte	0x1
 1540 0763 1E       		.byte	0x1e
 1541 0764 00       		.byte	0
 1542 0765 10       		.uleb128 0x10
 1543 0766 69646C65 		.ascii "idle_task\0"
GAS LISTING C:\Users\PRESID~1\AppData\Local\Temp\ccPWmP62.s 			page 48


 1543      5F746173 
 1543      6B00
 1544 0770 05       		.byte	0x5
 1545 0771 23       		.byte	0x23
 1546 0772 BA090000 		.long	0x9ba
 1547 0776 04       		.byte	0x4
 1548 0777 01       		.byte	0x1
 1549 0778 1D       		.byte	0x1d
 1550 0779 00       		.byte	0
 1551 077a 10       		.uleb128 0x10
 1552 077b 66726565 		.ascii "free\0"
 1552      00
 1553 0780 05       		.byte	0x5
 1554 0781 24       		.byte	0x24
 1555 0782 BA090000 		.long	0x9ba
 1556 0786 04       		.byte	0x4
 1557 0787 1D       		.byte	0x1d
 1558 0788 00       		.byte	0
 1559 0789 00       		.byte	0
 1560 078a 07       		.uleb128 0x7
 1561 078b 6E725F6F 		.ascii "nr_of_ins_allowed\0"
 1561      665F696E 
 1561      735F616C 
 1561      6C6F7765 
 1561      6400
 1562 079d 05       		.byte	0x5
 1563 079e 25       		.byte	0x25
 1564 079f 95000000 		.long	0x95
 1565 07a3 04       		.byte	0x4
 1566 07a4 07       		.uleb128 0x7
 1567 07a5 6E725F6F 		.ascii "nr_of_ins_activated\0"
 1567      665F696E 
 1567      735F6163 
 1567      74697661 
 1567      74656400 
 1568 07b9 05       		.byte	0x5
 1569 07ba 26       		.byte	0x26
 1570 07bb 95000000 		.long	0x95
 1571 07bf 05       		.byte	0x5
 1572 07c0 07       		.uleb128 0x7
 1573 07c1 77616974 		.ascii "wait_act_until\0"
 1573      5F616374 
 1573      5F756E74 
 1573      696C00
 1574 07d0 05       		.byte	0x5
 1575 07d1 27       		.byte	0x27
 1576 07d2 1A050000 		.long	0x51a
 1577 07d6 06       		.byte	0x6
 1578 07d7 07       		.uleb128 0x7
 1579 07d8 77616974 		.ascii "wait_time\0"
 1579      5F74696D 
 1579      6500
 1580 07e2 05       		.byte	0x5
 1581 07e3 28       		.byte	0x28
 1582 07e4 1A050000 		.long	0x51a
 1583 07e8 16       		.byte	0x16
 1584 07e9 07       		.uleb128 0x7
GAS LISTING C:\Users\PRESID~1\AppData\Local\Temp\ccPWmP62.s 			page 49


 1585 07ea 74696D65 		.ascii "time_to_prio_inc\0"
 1585      5F746F5F 
 1585      7072696F 
 1585      5F696E63 
 1585      00
 1586 07fb 05       		.byte	0x5
 1587 07fc 29       		.byte	0x29
 1588 07fd 1A050000 		.long	0x51a
 1589 0801 26       		.byte	0x26
 1590 0802 07       		.uleb128 0x7
 1591 0803 6F766572 		.ascii "overwaittime_per_prio_inc_step\0"
 1591      77616974 
 1591      74696D65 
 1591      5F706572 
 1591      5F707269 
 1592 0822 05       		.byte	0x5
 1593 0823 2A       		.byte	0x2a
 1594 0824 35010000 		.long	0x135
 1595 0828 38       		.byte	0x38
 1596 0829 07       		.uleb128 0x7
 1597 082a 6D61785F 		.ascii "max_allowed_wait_time\0"
 1597      616C6C6F 
 1597      7765645F 
 1597      77616974 
 1597      5F74696D 
 1598 0840 05       		.byte	0x5
 1599 0841 2B       		.byte	0x2b
 1600 0842 1A050000 		.long	0x51a
 1601 0846 3C       		.byte	0x3c
 1602 0847 0F       		.uleb128 0xf
 1603 0848 09000000 		.secrel32	LASF0
 1604 084c 05       		.byte	0x5
 1605 084d 2C       		.byte	0x2c
 1606 084e 1A050000 		.long	0x51a
 1607 0852 4C       		.byte	0x4c
 1608 0853 07       		.uleb128 0x7
 1609 0854 73746172 		.ascii "start_time\0"
 1609      745F7469 
 1609      6D6500
 1610 085f 05       		.byte	0x5
 1611 0860 2D       		.byte	0x2d
 1612 0861 1A050000 		.long	0x51a
 1613 0865 5C       		.byte	0x5c
 1614 0866 07       		.uleb128 0x7
 1615 0867 63757272 		.ascii "current_prio\0"
 1615      656E745F 
 1615      7072696F 
 1615      00
 1616 0874 05       		.byte	0x5
 1617 0875 2E       		.byte	0x2e
 1618 0876 95000000 		.long	0x95
 1619 087a 6C       		.byte	0x6c
 1620 087b 07       		.uleb128 0x7
 1621 087c 64656661 		.ascii "default_prio\0"
 1621      756C745F 
 1621      7072696F 
 1621      00
GAS LISTING C:\Users\PRESID~1\AppData\Local\Temp\ccPWmP62.s 			page 50


 1622 0889 05       		.byte	0x5
 1623 088a 2F       		.byte	0x2f
 1624 088b 95000000 		.long	0x95
 1625 088f 6D       		.byte	0x6d
 1626 0890 07       		.uleb128 0x7
 1627 0891 7461736B 		.ascii "task_number\0"
 1627      5F6E756D 
 1627      62657200 
 1628 089d 05       		.byte	0x5
 1629 089e 30       		.byte	0x30
 1630 089f FC000000 		.long	0xfc
 1631 08a3 70       		.byte	0x70
 1632 08a4 07       		.uleb128 0x7
 1633 08a5 667000   		.ascii "fp\0"
 1634 08a8 05       		.byte	0x5
 1635 08a9 31       		.byte	0x31
 1636 08aa 87060000 		.long	0x687
 1637 08ae 74       		.byte	0x74
 1638 08af 07       		.uleb128 0x7
 1639 08b0 73746174 		.ascii "state_request\0"
 1639      655F7265 
 1639      71756573 
 1639      7400
 1640 08be 05       		.byte	0x5
 1641 08bf 32       		.byte	0x32
 1642 08c0 AA060000 		.long	0x6aa
 1643 08c4 78       		.byte	0x78
 1644 08c5 07       		.uleb128 0x7
 1645 08c6 7461736B 		.ascii "task_state\0"
 1645      5F737461 
 1645      746500
 1646 08d1 05       		.byte	0x5
 1647 08d2 33       		.byte	0x33
 1648 08d3 73060000 		.long	0x673
 1649 08d7 7C       		.byte	0x7c
 1650 08d8 07       		.uleb128 0x7
 1651 08d9 7461736B 		.ascii "task_group\0"
 1651      5F67726F 
 1651      757000
 1652 08e4 05       		.byte	0x5
 1653 08e5 34       		.byte	0x34
 1654 08e6 CA090000 		.long	0x9ca
 1655 08ea 80       		.byte	0x80
 1656 08eb 07       		.uleb128 0x7
 1657 08ec 65617800 		.ascii "eax\0"
 1658 08f0 05       		.byte	0x5
 1659 08f1 36       		.byte	0x36
 1660 08f2 FC000000 		.long	0xfc
 1661 08f6 84       		.byte	0x84
 1662 08f7 07       		.uleb128 0x7
 1663 08f8 65627800 		.ascii "ebx\0"
 1664 08fc 05       		.byte	0x5
 1665 08fd 37       		.byte	0x37
 1666 08fe FC000000 		.long	0xfc
 1667 0902 88       		.byte	0x88
 1668 0903 07       		.uleb128 0x7
 1669 0904 65637800 		.ascii "ecx\0"
GAS LISTING C:\Users\PRESID~1\AppData\Local\Temp\ccPWmP62.s 			page 51


 1670 0908 05       		.byte	0x5
 1671 0909 38       		.byte	0x38
 1672 090a FC000000 		.long	0xfc
 1673 090e 8C       		.byte	0x8c
 1674 090f 07       		.uleb128 0x7
 1675 0910 65647800 		.ascii "edx\0"
 1676 0914 05       		.byte	0x5
 1677 0915 39       		.byte	0x39
 1678 0916 FC000000 		.long	0xfc
 1679 091a 90       		.byte	0x90
 1680 091b 07       		.uleb128 0x7
 1681 091c 705F7374 		.ascii "p_stack_pointer\0"
 1681      61636B5F 
 1681      706F696E 
 1681      74657200 
 1682 092c 05       		.byte	0x5
 1683 092d 49       		.byte	0x49
 1684 092e D0090000 		.long	0x9d0
 1685 0932 94       		.byte	0x94
 1686 0933 07       		.uleb128 0x7
 1687 0934 705F7374 		.ascii "p_stack_pointer_by_malloc\0"
 1687      61636B5F 
 1687      706F696E 
 1687      7465725F 
 1687      62795F6D 
 1688 094e 05       		.byte	0x5
 1689 094f 4A       		.byte	0x4a
 1690 0950 D0090000 		.long	0x9d0
 1691 0954 98       		.byte	0x98
 1692 0955 07       		.uleb128 0x7
 1693 0956 705F7374 		.ascii "p_stack_pointer_start\0"
 1693      61636B5F 
 1693      706F696E 
 1693      7465725F 
 1693      73746172 
 1694 096c 05       		.byte	0x5
 1695 096d 4B       		.byte	0x4b
 1696 096e D0090000 		.long	0x9d0
 1697 0972 9C       		.byte	0x9c
 1698 0973 07       		.uleb128 0x7
 1699 0974 73746163 		.ascii "stack_size\0"
 1699      6B5F7369 
 1699      7A6500
 1700 097f 05       		.byte	0x5
 1701 0980 4C       		.byte	0x4c
 1702 0981 FC000000 		.long	0xfc
 1703 0985 A0       		.byte	0xa0
 1704 0986 07       		.uleb128 0x7
 1705 0987 705F7374 		.ascii "p_stack_pointer_end\0"
 1705      61636B5F 
 1705      706F696E 
 1705      7465725F 
 1705      656E6400 
 1706 099b 05       		.byte	0x5
 1707 099c 4D       		.byte	0x4d
 1708 099d D0090000 		.long	0x9d0
 1709 09a1 A4       		.byte	0xa4
GAS LISTING C:\Users\PRESID~1\AppData\Local\Temp\ccPWmP62.s 			page 52


 1710 09a2 07       		.uleb128 0x7
 1711 09a3 70726976 		.ascii "privilige_mode\0"
 1711      696C6967 
 1711      655F6D6F 
 1711      646500
 1712 09b2 05       		.byte	0x5
 1713 09b3 4E       		.byte	0x4e
 1714 09b4 FD050000 		.long	0x5fd
 1715 09b8 A8       		.byte	0xa8
 1716 09b9 00       		.byte	0
 1717 09ba 03       		.uleb128 0x3
 1718 09bb 04       		.byte	0x4
 1719 09bc 07       		.byte	0x7
 1720 09bd 756E7369 		.ascii "unsigned int\0"
 1720      676E6564 
 1720      20696E74 
 1720      00
 1721 09ca 0A       		.uleb128 0xa
 1722 09cb 04       		.byte	0x4
 1723 09cc 19070000 		.long	0x719
 1724 09d0 0A       		.uleb128 0xa
 1725 09d1 04       		.byte	0x4
 1726 09d2 95000000 		.long	0x95
 1727 09d6 02       		.uleb128 0x2
 1728 09d7 7461736B 		.ascii "task_t\0"
 1728      5F7400
 1729 09de 05       		.byte	0x5
 1730 09df 50       		.byte	0x50
 1731 09e0 2D070000 		.long	0x72d
 1732 09e4 02       		.uleb128 0x2
 1733 09e5 73636865 		.ascii "scheduling_t\0"
 1733      64756C69 
 1733      6E675F74 
 1733      00
 1734 09f2 05       		.byte	0x5
 1735 09f3 51       		.byte	0x51
 1736 09f4 F8090000 		.long	0x9f8
 1737 09f8 0A       		.uleb128 0xa
 1738 09f9 04       		.byte	0x4
 1739 09fa D6090000 		.long	0x9d6
 1740 09fe 02       		.uleb128 0x2
 1741 09ff 73636865 		.ascii "scheduler_time_t\0"
 1741      64756C65 
 1741      725F7469 
 1741      6D655F74 
 1741      00
 1742 0a10 05       		.byte	0x5
 1743 0a11 5D       		.byte	0x5d
 1744 0a12 1A050000 		.long	0x51a
 1745 0a16 11       		.uleb128 0x11
 1746 0a17 4F535F41 		.ascii "OS_ACTIVATE_DISPATCHER\0"
 1746      43544956 
 1746      4154455F 
 1746      44495350 
 1746      41544348 
 1747 0a2e 01       		.byte	0x1
 1748 0a2f 17       		.byte	0x17
GAS LISTING C:\Users\PRESID~1\AppData\Local\Temp\ccPWmP62.s 			page 53


 1749 0a30 00000000 		.long	LFB0
 1750 0a34 05000000 		.long	LFE0-LFB0
 1751 0a38 01       		.uleb128 0x1
 1752 0a39 9C       		.byte	0x9c
 1753 0a3a 12       		.uleb128 0x12
 1754 0a3b 4F535F53 		.ascii "OS_SLEEP_TASK\0"
 1754      4C454550 
 1754      5F544153 
 1754      4B00
 1755 0a49 01       		.byte	0x1
 1756 0a4a 2B       		.byte	0x2b
 1757 0a4b 05000000 		.long	LFB1
 1758 0a4f 41000000 		.long	LFE1-LFB1
 1759 0a53 01       		.uleb128 0x1
 1760 0a54 9C       		.byte	0x9c
 1761 0a55 940A0000 		.long	0xa94
 1762 0a59 13       		.uleb128 0x13
 1763 0a5a 22000000 		.secrel32	LASF1
 1764 0a5e 01       		.byte	0x1
 1765 0a5f 2B       		.byte	0x2b
 1766 0a60 F8090000 		.long	0x9f8
 1767 0a64 02       		.uleb128 0x2
 1768 0a65 91       		.byte	0x91
 1769 0a66 00       		.sleb128 0
 1770 0a67 14       		.uleb128 0x14
 1771 0a68 75736563 		.ascii "usec\0"
 1771      00
 1772 0a6d 01       		.byte	0x1
 1773 0a6e 2B       		.byte	0x2b
 1774 0a6f 1A050000 		.long	0x51a
 1775 0a73 02       		.uleb128 0x2
 1776 0a74 91       		.byte	0x91
 1777 0a75 04       		.sleb128 4
 1778 0a76 13       		.uleb128 0x13
 1779 0a77 27000000 		.secrel32	LASF2
 1780 0a7b 01       		.byte	0x1
 1781 0a7c 2B       		.byte	0x2b
 1782 0a7d 940A0000 		.long	0xa94
 1783 0a81 02       		.uleb128 0x2
 1784 0a82 91       		.byte	0x91
 1785 0a83 14       		.sleb128 20
 1786 0a84 15       		.uleb128 0x15
 1787 0a85 74696D65 		.ascii "time\0"
 1787      00
 1788 0a8a 01       		.byte	0x1
 1789 0a8b 2D       		.byte	0x2d
 1790 0a8c 1A050000 		.long	0x51a
 1791 0a90 02       		.uleb128 0x2
 1792 0a91 91       		.byte	0x91
 1793 0a92 60       		.sleb128 -32
 1794 0a93 00       		.byte	0
 1795 0a94 0A       		.uleb128 0xa
 1796 0a95 04       		.byte	0x4
 1797 0a96 E4090000 		.long	0x9e4
 1798 0a9a 16       		.uleb128 0x16
 1799 0a9b 4F535F54 		.ascii "OS_TASK_STATE_REQUEST\0"
 1799      41534B5F 
GAS LISTING C:\Users\PRESID~1\AppData\Local\Temp\ccPWmP62.s 			page 54


 1799      53544154 
 1799      455F5245 
 1799      51554553 
 1800 0ab1 01       		.byte	0x1
 1801 0ab2 34       		.byte	0x34
 1802 0ab3 95000000 		.long	0x95
 1803 0ab7 46000000 		.long	LFB2
 1804 0abb 3D010000 		.long	LFE2-LFB2
 1805 0abf 01       		.uleb128 0x1
 1806 0ac0 9C       		.byte	0x9c
 1807 0ac1 190B0000 		.long	0xb19
 1808 0ac5 14       		.uleb128 0x14
 1809 0ac6 74656D70 		.ascii "temp_task\0"
 1809      5F746173 
 1809      6B00
 1810 0ad0 01       		.byte	0x1
 1811 0ad1 34       		.byte	0x34
 1812 0ad2 A8060000 		.long	0x6a8
 1813 0ad6 02       		.uleb128 0x2
 1814 0ad7 91       		.byte	0x91
 1815 0ad8 00       		.sleb128 0
 1816 0ad9 14       		.uleb128 0x14
 1817 0ada 72657175 		.ascii "requested_state\0"
 1817      65737465 
 1817      645F7374 
 1817      61746500 
 1818 0aea 01       		.byte	0x1
 1819 0aeb 34       		.byte	0x34
 1820 0aec 73060000 		.long	0x673
 1821 0af0 02       		.uleb128 0x2
 1822 0af1 91       		.byte	0x91
 1823 0af2 04       		.sleb128 4
 1824 0af3 15       		.uleb128 0x15
 1825 0af4 52657175 		.ascii "RequestState\0"
 1825      65737453 
 1825      74617465 
 1825      00
 1826 0b01 01       		.byte	0x1
 1827 0b02 36       		.byte	0x36
 1828 0b03 95000000 		.long	0x95
 1829 0b07 02       		.uleb128 0x2
 1830 0b08 91       		.byte	0x91
 1831 0b09 6F       		.sleb128 -17
 1832 0b0a 17       		.uleb128 0x17
 1833 0b0b 22000000 		.secrel32	LASF1
 1834 0b0f 01       		.byte	0x1
 1835 0b10 38       		.byte	0x38
 1836 0b11 F8090000 		.long	0x9f8
 1837 0b15 02       		.uleb128 0x2
 1838 0b16 91       		.byte	0x91
 1839 0b17 68       		.sleb128 -24
 1840 0b18 00       		.byte	0
 1841 0b19 12       		.uleb128 0x12
 1842 0b1a 4F535F43 		.ascii "OS_CREATE_TASK\0"
 1842      52454154 
 1842      455F5441 
 1842      534B00
GAS LISTING C:\Users\PRESID~1\AppData\Local\Temp\ccPWmP62.s 			page 55


 1843 0b29 01       		.byte	0x1
 1844 0b2a AA       		.byte	0xaa
 1845 0b2b 83010000 		.long	LFB3
 1846 0b2f 72000000 		.long	LFE3-LFB3
 1847 0b33 01       		.uleb128 0x1
 1848 0b34 9C       		.byte	0x9c
 1849 0b35 480B0000 		.long	0xb48
 1850 0b39 13       		.uleb128 0x13
 1851 0b3a 22000000 		.secrel32	LASF1
 1852 0b3e 01       		.byte	0x1
 1853 0b3f AA       		.byte	0xaa
 1854 0b40 F8090000 		.long	0x9f8
 1855 0b44 02       		.uleb128 0x2
 1856 0b45 91       		.byte	0x91
 1857 0b46 00       		.sleb128 0
 1858 0b47 00       		.byte	0
 1859 0b48 18       		.uleb128 0x18
 1860 0b49 6F735F70 		.ascii "os_preempt_task\0"
 1860      7265656D 
 1860      70745F74 
 1860      61736B00 
 1861 0b59 01       		.byte	0x1
 1862 0b5a C4       		.byte	0xc4
 1863 0b5b F5010000 		.long	LFB4
 1864 0b5f AB000000 		.long	LFE4-LFB4
 1865 0b63 01       		.uleb128 0x1
 1866 0b64 9C       		.byte	0x9c
 1867 0b65 860B0000 		.long	0xb86
 1868 0b69 13       		.uleb128 0x13
 1869 0b6a 22000000 		.secrel32	LASF1
 1870 0b6e 01       		.byte	0x1
 1871 0b6f C4       		.byte	0xc4
 1872 0b70 F8090000 		.long	0x9f8
 1873 0b74 02       		.uleb128 0x2
 1874 0b75 91       		.byte	0x91
 1875 0b76 00       		.sleb128 0
 1876 0b77 13       		.uleb128 0x13
 1877 0b78 12000000 		.secrel32	LASF3
 1878 0b7c 01       		.byte	0x1
 1879 0b7d C4       		.byte	0xc4
 1880 0b7e 940A0000 		.long	0xa94
 1881 0b82 02       		.uleb128 0x2
 1882 0b83 91       		.byte	0x91
 1883 0b84 04       		.sleb128 4
 1884 0b85 00       		.byte	0
 1885 0b86 12       		.uleb128 0x12
 1886 0b87 4F535F41 		.ascii "OS_ACTIVATE_TASK\0"
 1886      43544956 
 1886      4154455F 
 1886      5441534B 
 1886      00
 1887 0b98 01       		.byte	0x1
 1888 0b99 ED       		.byte	0xed
 1889 0b9a A0020000 		.long	LFB5
 1890 0b9e E7000000 		.long	LFE5-LFB5
 1891 0ba2 01       		.uleb128 0x1
 1892 0ba3 9C       		.byte	0x9c
GAS LISTING C:\Users\PRESID~1\AppData\Local\Temp\ccPWmP62.s 			page 56


 1893 0ba4 B70B0000 		.long	0xbb7
 1894 0ba8 13       		.uleb128 0x13
 1895 0ba9 22000000 		.secrel32	LASF1
 1896 0bad 01       		.byte	0x1
 1897 0bae ED       		.byte	0xed
 1898 0baf F8090000 		.long	0x9f8
 1899 0bb3 02       		.uleb128 0x2
 1900 0bb4 91       		.byte	0x91
 1901 0bb5 00       		.sleb128 0
 1902 0bb6 00       		.byte	0
 1903 0bb7 19       		.uleb128 0x19
 1904 0bb8 4F535F53 		.ascii "OS_START_TASK\0"
 1904      54415254 
 1904      5F544153 
 1904      4B00
 1905 0bc6 01       		.byte	0x1
 1906 0bc7 2101     		.word	0x121
 1907 0bc9 87030000 		.long	LFB6
 1908 0bcd 1D010000 		.long	LFE6-LFB6
 1909 0bd1 01       		.uleb128 0x1
 1910 0bd2 9C       		.byte	0x9c
 1911 0bd3 060C0000 		.long	0xc06
 1912 0bd7 1A       		.uleb128 0x1a
 1913 0bd8 22000000 		.secrel32	LASF1
 1914 0bdc 01       		.byte	0x1
 1915 0bdd 2101     		.word	0x121
 1916 0bdf F8090000 		.long	0x9f8
 1917 0be3 02       		.uleb128 0x2
 1918 0be4 91       		.byte	0x91
 1919 0be5 00       		.sleb128 0
 1920 0be6 1A       		.uleb128 0x1a
 1921 0be7 12000000 		.secrel32	LASF3
 1922 0beb 01       		.byte	0x1
 1923 0bec 2101     		.word	0x121
 1924 0bee 940A0000 		.long	0xa94
 1925 0bf2 02       		.uleb128 0x2
 1926 0bf3 91       		.byte	0x91
 1927 0bf4 04       		.sleb128 4
 1928 0bf5 1B       		.uleb128 0x1b
 1929 0bf6 74696D65 		.ascii "time\0"
 1929      00
 1930 0bfb 01       		.byte	0x1
 1931 0bfc 2A01     		.word	0x12a
 1932 0bfe 1A050000 		.long	0x51a
 1933 0c02 02       		.uleb128 0x2
 1934 0c03 91       		.byte	0x91
 1935 0c04 60       		.sleb128 -32
 1936 0c05 00       		.byte	0
 1937 0c06 19       		.uleb128 0x19
 1938 0c07 4F535F54 		.ascii "OS_TERMINATE_TASK\0"
 1938      45524D49 
 1938      4E415445 
 1938      5F544153 
 1938      4B00
 1939 0c19 01       		.byte	0x1
 1940 0c1a 5801     		.word	0x158
 1941 0c1c A4040000 		.long	LFB7
GAS LISTING C:\Users\PRESID~1\AppData\Local\Temp\ccPWmP62.s 			page 57


 1942 0c20 C5000000 		.long	LFE7-LFB7
 1943 0c24 01       		.uleb128 0x1
 1944 0c25 9C       		.byte	0x9c
 1945 0c26 490C0000 		.long	0xc49
 1946 0c2a 1A       		.uleb128 0x1a
 1947 0c2b 22000000 		.secrel32	LASF1
 1948 0c2f 01       		.byte	0x1
 1949 0c30 5801     		.word	0x158
 1950 0c32 F8090000 		.long	0x9f8
 1951 0c36 02       		.uleb128 0x2
 1952 0c37 91       		.byte	0x91
 1953 0c38 00       		.sleb128 0
 1954 0c39 1A       		.uleb128 0x1a
 1955 0c3a 12000000 		.secrel32	LASF3
 1956 0c3e 01       		.byte	0x1
 1957 0c3f 5801     		.word	0x158
 1958 0c41 940A0000 		.long	0xa94
 1959 0c45 02       		.uleb128 0x2
 1960 0c46 91       		.byte	0x91
 1961 0c47 04       		.sleb128 4
 1962 0c48 00       		.byte	0
 1963 0c49 19       		.uleb128 0x19
 1964 0c4a 4F535F54 		.ascii "OS_TASK_DISPATCHER\0"
 1964      41534B5F 
 1964      44495350 
 1964      41544348 
 1964      455200
 1965 0c5d 01       		.byte	0x1
 1966 0c5e 8101     		.word	0x181
 1967 0c60 69050000 		.long	LFB8
 1968 0c64 77000000 		.long	LFE8-LFB8
 1969 0c68 01       		.uleb128 0x1
 1970 0c69 9C       		.byte	0x9c
 1971 0c6a 8D0C0000 		.long	0xc8d
 1972 0c6e 1C       		.uleb128 0x1c
 1973 0c6f 27000000 		.secrel32	LASF2
 1974 0c73 01       		.byte	0x1
 1975 0c74 8D01     		.word	0x18d
 1976 0c76 940A0000 		.long	0xa94
 1977 0c7a 02       		.uleb128 0x2
 1978 0c7b 91       		.byte	0x91
 1979 0c7c 68       		.sleb128 -24
 1980 0c7d 1C       		.uleb128 0x1c
 1981 0c7e 22000000 		.secrel32	LASF1
 1982 0c82 01       		.byte	0x1
 1983 0c83 8E01     		.word	0x18e
 1984 0c85 F8090000 		.long	0x9f8
 1985 0c89 02       		.uleb128 0x2
 1986 0c8a 91       		.byte	0x91
 1987 0c8b 6C       		.sleb128 -20
 1988 0c8c 00       		.byte	0
 1989 0c8d 1D       		.uleb128 0x1d
 1990 0c8e 7461736B 		.ascii "task_0\0"
 1990      5F3000
 1991 0c95 01       		.byte	0x1
 1992 0c96 A201     		.word	0x1a2
 1993 0c98 E0050000 		.long	LFB9
GAS LISTING C:\Users\PRESID~1\AppData\Local\Temp\ccPWmP62.s 			page 58


 1994 0c9c 05000000 		.long	LFE9-LFB9
 1995 0ca0 01       		.uleb128 0x1
 1996 0ca1 9C       		.byte	0x9c
 1997 0ca2 B60C0000 		.long	0xcb6
 1998 0ca6 1A       		.uleb128 0x1a
 1999 0ca7 00000000 		.secrel32	LASF4
 2000 0cab 01       		.byte	0x1
 2001 0cac A201     		.word	0x1a2
 2002 0cae A8060000 		.long	0x6a8
 2003 0cb2 02       		.uleb128 0x2
 2004 0cb3 91       		.byte	0x91
 2005 0cb4 00       		.sleb128 0
 2006 0cb5 00       		.byte	0
 2007 0cb6 1E       		.uleb128 0x1e
 2008 0cb7 7461736B 		.ascii "task_1\0"
 2008      5F3100
 2009 0cbe 01       		.byte	0x1
 2010 0cbf A701     		.word	0x1a7
 2011 0cc1 E5050000 		.long	LFB10
 2012 0cc5 34000000 		.long	LFE10-LFB10
 2013 0cc9 01       		.uleb128 0x1
 2014 0cca 9C       		.byte	0x9c
 2015 0ccb EE0C0000 		.long	0xcee
 2016 0ccf 1A       		.uleb128 0x1a
 2017 0cd0 00000000 		.secrel32	LASF4
 2018 0cd4 01       		.byte	0x1
 2019 0cd5 A701     		.word	0x1a7
 2020 0cd7 A8060000 		.long	0x6a8
 2021 0cdb 02       		.uleb128 0x2
 2022 0cdc 91       		.byte	0x91
 2023 0cdd 00       		.sleb128 0
 2024 0cde 1C       		.uleb128 0x1c
 2025 0cdf 27000000 		.secrel32	LASF2
 2026 0ce3 01       		.byte	0x1
 2027 0ce4 A901     		.word	0x1a9
 2028 0ce6 940A0000 		.long	0xa94
 2029 0cea 02       		.uleb128 0x2
 2030 0ceb 91       		.byte	0x91
 2031 0cec 6C       		.sleb128 -20
 2032 0ced 00       		.byte	0
 2033 0cee 1E       		.uleb128 0x1e
 2034 0cef 7461736B 		.ascii "task_2\0"
 2034      5F3200
 2035 0cf6 01       		.byte	0x1
 2036 0cf7 B401     		.word	0x1b4
 2037 0cf9 19060000 		.long	LFB11
 2038 0cfd 34000000 		.long	LFE11-LFB11
 2039 0d01 01       		.uleb128 0x1
 2040 0d02 9C       		.byte	0x9c
 2041 0d03 260D0000 		.long	0xd26
 2042 0d07 1A       		.uleb128 0x1a
 2043 0d08 00000000 		.secrel32	LASF4
 2044 0d0c 01       		.byte	0x1
 2045 0d0d B401     		.word	0x1b4
 2046 0d0f A8060000 		.long	0x6a8
 2047 0d13 02       		.uleb128 0x2
 2048 0d14 91       		.byte	0x91
GAS LISTING C:\Users\PRESID~1\AppData\Local\Temp\ccPWmP62.s 			page 59


 2049 0d15 00       		.sleb128 0
 2050 0d16 1C       		.uleb128 0x1c
 2051 0d17 27000000 		.secrel32	LASF2
 2052 0d1b 01       		.byte	0x1
 2053 0d1c B601     		.word	0x1b6
 2054 0d1e 940A0000 		.long	0xa94
 2055 0d22 02       		.uleb128 0x2
 2056 0d23 91       		.byte	0x91
 2057 0d24 6C       		.sleb128 -20
 2058 0d25 00       		.byte	0
 2059 0d26 1E       		.uleb128 0x1e
 2060 0d27 7461736B 		.ascii "task_3\0"
 2060      5F3300
 2061 0d2e 01       		.byte	0x1
 2062 0d2f C101     		.word	0x1c1
 2063 0d31 4D060000 		.long	LFB12
 2064 0d35 34000000 		.long	LFE12-LFB12
 2065 0d39 01       		.uleb128 0x1
 2066 0d3a 9C       		.byte	0x9c
 2067 0d3b 5E0D0000 		.long	0xd5e
 2068 0d3f 1A       		.uleb128 0x1a
 2069 0d40 00000000 		.secrel32	LASF4
 2070 0d44 01       		.byte	0x1
 2071 0d45 C101     		.word	0x1c1
 2072 0d47 A8060000 		.long	0x6a8
 2073 0d4b 02       		.uleb128 0x2
 2074 0d4c 91       		.byte	0x91
 2075 0d4d 00       		.sleb128 0
 2076 0d4e 1C       		.uleb128 0x1c
 2077 0d4f 27000000 		.secrel32	LASF2
 2078 0d53 01       		.byte	0x1
 2079 0d54 C301     		.word	0x1c3
 2080 0d56 940A0000 		.long	0xa94
 2081 0d5a 02       		.uleb128 0x2
 2082 0d5b 91       		.byte	0x91
 2083 0d5c 6C       		.sleb128 -20
 2084 0d5d 00       		.byte	0
 2085 0d5e 19       		.uleb128 0x19
 2086 0d5f 4F535F49 		.ascii "OS_INIT_TASKS\0"
 2086      4E49545F 
 2086      5441534B 
 2086      5300
 2087 0d6d 01       		.byte	0x1
 2088 0d6e CE01     		.word	0x1ce
 2089 0d70 81060000 		.long	LFB13
 2090 0d74 D4010000 		.long	LFE13-LFB13
 2091 0d78 01       		.uleb128 0x1
 2092 0d79 9C       		.byte	0x9c
 2093 0d7a 8E0D0000 		.long	0xd8e
 2094 0d7e 1C       		.uleb128 0x1c
 2095 0d7f 00000000 		.secrel32	LASF4
 2096 0d83 01       		.byte	0x1
 2097 0d84 D001     		.word	0x1d0
 2098 0d86 F8090000 		.long	0x9f8
 2099 0d8a 02       		.uleb128 0x2
 2100 0d8b 91       		.byte	0x91
 2101 0d8c 6C       		.sleb128 -20
GAS LISTING C:\Users\PRESID~1\AppData\Local\Temp\ccPWmP62.s 			page 60


 2102 0d8d 00       		.byte	0
 2103 0d8e 1F       		.uleb128 0x1f
 2104 0d8f 6F735F74 		.ascii "os_task_scheduler\0"
 2104      61736B5F 
 2104      73636865 
 2104      64756C65 
 2104      7200
 2105 0da1 01       		.byte	0x1
 2106 0da2 2002     		.word	0x220
 2107 0da4 9A0E0000 		.long	0xe9a
 2108 0da8 55080000 		.long	LFB14
 2109 0dac 2B020000 		.long	LFE14-LFB14
 2110 0db0 01       		.uleb128 0x1
 2111 0db1 9C       		.byte	0x9c
 2112 0db2 9A0E0000 		.long	0xe9a
 2113 0db6 1B       		.uleb128 0x1b
 2114 0db7 73636865 		.ascii "scheduling_queue_member\0"
 2114      64756C69 
 2114      6E675F71 
 2114      75657565 
 2114      5F6D656D 
 2115 0dcf 01       		.byte	0x1
 2116 0dd0 2302     		.word	0x223
 2117 0dd2 940A0000 		.long	0xa94
 2118 0dd6 02       		.uleb128 0x2
 2119 0dd7 91       		.byte	0x91
 2120 0dd8 5C       		.sleb128 -36
 2121 0dd9 1B       		.uleb128 0x1b
 2122 0dda 656C656D 		.ascii "element_nr\0"
 2122      656E745F 
 2122      6E7200
 2123 0de5 01       		.byte	0x1
 2124 0de6 2402     		.word	0x224
 2125 0de8 95000000 		.long	0x95
 2126 0dec 02       		.uleb128 0x2
 2127 0ded 91       		.byte	0x91
 2128 0dee 6F       		.sleb128 -17
 2129 0def 1B       		.uleb128 0x1b
 2130 0df0 57696E6E 		.ascii "Winner_prio\0"
 2130      65725F70 
 2130      72696F00 
 2131 0dfc 01       		.byte	0x1
 2132 0dfd 2602     		.word	0x226
 2133 0dff 95000000 		.long	0x95
 2134 0e03 02       		.uleb128 0x2
 2135 0e04 91       		.byte	0x91
 2136 0e05 6E       		.sleb128 -18
 2137 0e06 1C       		.uleb128 0x1c
 2138 0e07 22000000 		.secrel32	LASF1
 2139 0e0b 01       		.byte	0x1
 2140 0e0c 2702     		.word	0x227
 2141 0e0e F8090000 		.long	0x9f8
 2142 0e12 02       		.uleb128 0x2
 2143 0e13 91       		.byte	0x91
 2144 0e14 64       		.sleb128 -28
 2145 0e15 1B       		.uleb128 0x1b
 2146 0e16 57696E6E 		.ascii "Winner_task\0"
GAS LISTING C:\Users\PRESID~1\AppData\Local\Temp\ccPWmP62.s 			page 61


 2146      65725F74 
 2146      61736B00 
 2147 0e22 01       		.byte	0x1
 2148 0e23 2802     		.word	0x228
 2149 0e25 F8090000 		.long	0x9f8
 2150 0e29 02       		.uleb128 0x2
 2151 0e2a 91       		.byte	0x91
 2152 0e2b 60       		.sleb128 -32
 2153 0e2c 1B       		.uleb128 0x1b
 2154 0e2d 57696E6E 		.ascii "Winner_scheduling_queue_member\0"
 2154      65725F73 
 2154      63686564 
 2154      756C696E 
 2154      675F7175 
 2155 0e4c 01       		.byte	0x1
 2156 0e4d 2902     		.word	0x229
 2157 0e4f 940A0000 		.long	0xa94
 2158 0e53 02       		.uleb128 0x2
 2159 0e54 91       		.byte	0x91
 2160 0e55 68       		.sleb128 -24
 2161 0e56 1B       		.uleb128 0x1b
 2162 0e57 64656C74 		.ascii "delta_time\0"
 2162      615F7469 
 2162      6D6500
 2163 0e62 01       		.byte	0x1
 2164 0e63 2A02     		.word	0x22a
 2165 0e65 1A050000 		.long	0x51a
 2166 0e69 02       		.uleb128 0x2
 2167 0e6a 91       		.byte	0x91
 2168 0e6b 4C       		.sleb128 -52
 2169 0e6c 1B       		.uleb128 0x1b
 2170 0e6d 74696D65 		.ascii "time\0"
 2170      00
 2171 0e72 01       		.byte	0x1
 2172 0e73 2C02     		.word	0x22c
 2173 0e75 1A050000 		.long	0x51a
 2174 0e79 03       		.uleb128 0x3
 2175 0e7a 91       		.byte	0x91
 2176 0e7b BC7F     		.sleb128 -68
 2177 0e7d 20       		.uleb128 0x20
 2178 0e7e 9E090000 		.long	LBB2
 2179 0e82 33000000 		.long	LBE2-LBB2
 2180 0e86 1B       		.uleb128 0x1b
 2181 0e87 7454696D 		.ascii "tTime\0"
 2181      6500
 2182 0e8d 01       		.byte	0x1
 2183 0e8e 5E02     		.word	0x25e
 2184 0e90 1A050000 		.long	0x51a
 2185 0e94 03       		.uleb128 0x3
 2186 0e95 91       		.byte	0x91
 2187 0e96 AC7F     		.sleb128 -84
 2188 0e98 00       		.byte	0
 2189 0e99 00       		.byte	0
 2190 0e9a 0A       		.uleb128 0xa
 2191 0e9b 04       		.byte	0x4
 2192 0e9c F8090000 		.long	0x9f8
 2193 0ea0 08       		.uleb128 0x8
GAS LISTING C:\Users\PRESID~1\AppData\Local\Temp\ccPWmP62.s 			page 62


 2194 0ea1 F8090000 		.long	0x9f8
 2195 0ea5 B00E0000 		.long	0xeb0
 2196 0ea9 09       		.uleb128 0x9
 2197 0eaa FF040000 		.long	0x4ff
 2198 0eae 09       		.byte	0x9
 2199 0eaf 00       		.byte	0
 2200 0eb0 21       		.uleb128 0x21
 2201 0eb1 5441534B 		.ascii "TASK_PTR\0"
 2201      5F505452 
 2201      00
 2202 0eba 05       		.byte	0x5
 2203 0ebb 5B       		.byte	0x5b
 2204 0ebc A00E0000 		.long	0xea0
 2205 0ec0 21       		.uleb128 0x21
 2206 0ec1 5441534B 		.ascii "TASK1_CALL_NR\0"
 2206      315F4341 
 2206      4C4C5F4E 
 2206      5200
 2207 0ecf 06       		.byte	0x6
 2208 0ed0 1E       		.byte	0x1e
 2209 0ed1 D50E0000 		.long	0xed5
 2210 0ed5 22       		.uleb128 0x22
 2211 0ed6 35010000 		.long	0x135
 2212 0eda 08       		.uleb128 0x8
 2213 0edb 95000000 		.long	0x95
 2214 0edf F10E0000 		.long	0xef1
 2215 0ee3 09       		.uleb128 0x9
 2216 0ee4 FF040000 		.long	0x4ff
 2217 0ee8 09       		.byte	0x9
 2218 0ee9 23       		.uleb128 0x23
 2219 0eea FF040000 		.long	0x4ff
 2220 0eee CF07     		.word	0x7cf
 2221 0ef0 00       		.byte	0
 2222 0ef1 21       		.uleb128 0x21
 2223 0ef2 5441534B 		.ascii "TASK_STACK\0"
 2223      5F535441 
 2223      434B00
 2224 0efd 06       		.byte	0x6
 2225 0efe 26       		.byte	0x26
 2226 0eff DA0E0000 		.long	0xeda
 2227 0f03 21       		.uleb128 0x21
 2228 0f04 4C415354 		.ascii "LAST_CURRENT_TIME\0"
 2228      5F435552 
 2228      52454E54 
 2228      5F54494D 
 2228      4500
 2229 0f16 06       		.byte	0x6
 2230 0f17 27       		.byte	0x27
 2231 0f18 FE090000 		.long	0x9fe
 2232 0f1c 21       		.uleb128 0x21
 2233 0f1d 5441534B 		.ascii "TASK_0_VAR\0"
 2233      5F305F56 
 2233      415200
 2234 0f28 06       		.byte	0x6
 2235 0f29 2E       		.byte	0x2e
 2236 0f2a D6090000 		.long	0x9d6
 2237 0f2e 21       		.uleb128 0x21
GAS LISTING C:\Users\PRESID~1\AppData\Local\Temp\ccPWmP62.s 			page 63


 2238 0f2f 5441534B 		.ascii "TASK_1_VAR\0"
 2238      5F315F56 
 2238      415200
 2239 0f3a 06       		.byte	0x6
 2240 0f3b 2E       		.byte	0x2e
 2241 0f3c D6090000 		.long	0x9d6
 2242 0f40 21       		.uleb128 0x21
 2243 0f41 5441534B 		.ascii "TASK_2_VAR\0"
 2243      5F325F56 
 2243      415200
 2244 0f4c 06       		.byte	0x6
 2245 0f4d 2E       		.byte	0x2e
 2246 0f4e D6090000 		.long	0x9d6
 2247 0f52 21       		.uleb128 0x21
 2248 0f53 5441534B 		.ascii "TASK_3_VAR\0"
 2248      5F335F56 
 2248      415200
 2249 0f5e 06       		.byte	0x6
 2250 0f5f 2E       		.byte	0x2e
 2251 0f60 D6090000 		.long	0x9d6
 2252 0f64 21       		.uleb128 0x21
 2253 0f65 5441534B 		.ascii "TASK_GROUP_1\0"
 2253      5F47524F 
 2253      55505F31 
 2253      00
 2254 0f72 06       		.byte	0x6
 2255 0f73 2F       		.byte	0x2f
 2256 0f74 19070000 		.long	0x719
 2257 0f78 21       		.uleb128 0x21
 2258 0f79 5441534B 		.ascii "TASK_GROUP_2\0"
 2258      5F47524F 
 2258      55505F32 
 2258      00
 2259 0f86 06       		.byte	0x6
 2260 0f87 2F       		.byte	0x2f
 2261 0f88 19070000 		.long	0x719
 2262 0f8c 21       		.uleb128 0x21
 2263 0f8d 5441534B 		.ascii "TASK_GROUP_3\0"
 2263      5F47524F 
 2263      55505F33 
 2263      00
 2264 0f9a 06       		.byte	0x6
 2265 0f9b 2F       		.byte	0x2f
 2266 0f9c 19070000 		.long	0x719
 2267 0fa0 21       		.uleb128 0x21
 2268 0fa1 5441534B 		.ascii "TASK_GROUP_4\0"
 2268      5F47524F 
 2268      55505F34 
 2268      00
 2269 0fae 06       		.byte	0x6
 2270 0faf 2F       		.byte	0x2f
 2271 0fb0 19070000 		.long	0x719
 2272 0fb4 21       		.uleb128 0x21
 2273 0fb5 5441534B 		.ascii "TASK_GROUP_5\0"
 2273      5F47524F 
 2273      55505F35 
 2273      00
GAS LISTING C:\Users\PRESID~1\AppData\Local\Temp\ccPWmP62.s 			page 64


 2274 0fc2 06       		.byte	0x6
 2275 0fc3 2F       		.byte	0x2f
 2276 0fc4 19070000 		.long	0x719
 2277 0fc8 21       		.uleb128 0x21
 2278 0fc9 5441534B 		.ascii "TASK_TRANSITION_REJECTED_TASK_ADDR\0"
 2278      5F545241 
 2278      4E534954 
 2278      494F4E5F 
 2278      52454A45 
 2279 0fec 06       		.byte	0x6
 2280 0fed 30       		.byte	0x30
 2281 0fee F8090000 		.long	0x9f8
 2282 0ff2 21       		.uleb128 0x21
 2283 0ff3 5441534B 		.ascii "TASK_TRANSITION_REJECTED_STATE\0"
 2283      5F545241 
 2283      4E534954 
 2283      494F4E5F 
 2283      52454A45 
 2284 1012 06       		.byte	0x6
 2285 1013 31       		.byte	0x31
 2286 1014 73060000 		.long	0x673
 2287 1018 21       		.uleb128 0x21
 2288 1019 5441534B 		.ascii "TASK_TRANSITION_CURRENT_STATE\0"
 2288      5F545241 
 2288      4E534954 
 2288      494F4E5F 
 2288      43555252 
 2289 1037 06       		.byte	0x6
 2290 1038 32       		.byte	0x32
 2291 1039 73060000 		.long	0x673
 2292 103d 08       		.uleb128 0x8
 2293 103e 95000000 		.long	0x95
 2294 1042 4E100000 		.long	0x104e
 2295 1046 23       		.uleb128 0x23
 2296 1047 FF040000 		.long	0x4ff
 2297 104b FF01     		.word	0x1ff
 2298 104d 00       		.byte	0
 2299 104e 21       		.uleb128 0x21
 2300 104f 4F535F4D 		.ascii "OS_MAIN_STACK\0"
 2300      41494E5F 
 2300      53544143 
 2300      4B00
 2301 105d 07       		.byte	0x7
 2302 105e 0C       		.byte	0xc
 2303 105f 3D100000 		.long	0x103d
 2304 1063 00       		.byte	0
 2305              		.section	.debug_abbrev,"dr"
 2306              	Ldebug_abbrev0:
 2307 0000 01       		.uleb128 0x1
 2308 0001 11       		.uleb128 0x11
 2309 0002 01       		.byte	0x1
 2310 0003 25       		.uleb128 0x25
 2311 0004 08       		.uleb128 0x8
 2312 0005 13       		.uleb128 0x13
 2313 0006 0B       		.uleb128 0xb
 2314 0007 03       		.uleb128 0x3
 2315 0008 08       		.uleb128 0x8
GAS LISTING C:\Users\PRESID~1\AppData\Local\Temp\ccPWmP62.s 			page 65


 2316 0009 11       		.uleb128 0x11
 2317 000a 01       		.uleb128 0x1
 2318 000b 12       		.uleb128 0x12
 2319 000c 06       		.uleb128 0x6
 2320 000d 10       		.uleb128 0x10
 2321 000e 17       		.uleb128 0x17
 2322 000f 9942     		.uleb128 0x2119
 2323 0011 17       		.uleb128 0x17
 2324 0012 00       		.byte	0
 2325 0013 00       		.byte	0
 2326 0014 02       		.uleb128 0x2
 2327 0015 16       		.uleb128 0x16
 2328 0016 00       		.byte	0
 2329 0017 03       		.uleb128 0x3
 2330 0018 08       		.uleb128 0x8
 2331 0019 3A       		.uleb128 0x3a
 2332 001a 0B       		.uleb128 0xb
 2333 001b 3B       		.uleb128 0x3b
 2334 001c 0B       		.uleb128 0xb
 2335 001d 49       		.uleb128 0x49
 2336 001e 13       		.uleb128 0x13
 2337 001f 00       		.byte	0
 2338 0020 00       		.byte	0
 2339 0021 03       		.uleb128 0x3
 2340 0022 24       		.uleb128 0x24
 2341 0023 00       		.byte	0
 2342 0024 0B       		.uleb128 0xb
 2343 0025 0B       		.uleb128 0xb
 2344 0026 3E       		.uleb128 0x3e
 2345 0027 0B       		.uleb128 0xb
 2346 0028 03       		.uleb128 0x3
 2347 0029 08       		.uleb128 0x8
 2348 002a 00       		.byte	0
 2349 002b 00       		.byte	0
 2350 002c 04       		.uleb128 0x4
 2351 002d 04       		.uleb128 0x4
 2352 002e 01       		.byte	0x1
 2353 002f 03       		.uleb128 0x3
 2354 0030 08       		.uleb128 0x8
 2355 0031 0B       		.uleb128 0xb
 2356 0032 0B       		.uleb128 0xb
 2357 0033 3A       		.uleb128 0x3a
 2358 0034 0B       		.uleb128 0xb
 2359 0035 3B       		.uleb128 0x3b
 2360 0036 0B       		.uleb128 0xb
 2361 0037 01       		.uleb128 0x1
 2362 0038 13       		.uleb128 0x13
 2363 0039 00       		.byte	0
 2364 003a 00       		.byte	0
 2365 003b 05       		.uleb128 0x5
 2366 003c 28       		.uleb128 0x28
 2367 003d 00       		.byte	0
 2368 003e 03       		.uleb128 0x3
 2369 003f 08       		.uleb128 0x8
 2370 0040 1C       		.uleb128 0x1c
 2371 0041 0D       		.uleb128 0xd
 2372 0042 00       		.byte	0
GAS LISTING C:\Users\PRESID~1\AppData\Local\Temp\ccPWmP62.s 			page 66


 2373 0043 00       		.byte	0
 2374 0044 06       		.uleb128 0x6
 2375 0045 13       		.uleb128 0x13
 2376 0046 01       		.byte	0x1
 2377 0047 03       		.uleb128 0x3
 2378 0048 08       		.uleb128 0x8
 2379 0049 0B       		.uleb128 0xb
 2380 004a 0B       		.uleb128 0xb
 2381 004b 3A       		.uleb128 0x3a
 2382 004c 0B       		.uleb128 0xb
 2383 004d 3B       		.uleb128 0x3b
 2384 004e 0B       		.uleb128 0xb
 2385 004f 01       		.uleb128 0x1
 2386 0050 13       		.uleb128 0x13
 2387 0051 00       		.byte	0
 2388 0052 00       		.byte	0
 2389 0053 07       		.uleb128 0x7
 2390 0054 0D       		.uleb128 0xd
 2391 0055 00       		.byte	0
 2392 0056 03       		.uleb128 0x3
 2393 0057 08       		.uleb128 0x8
 2394 0058 3A       		.uleb128 0x3a
 2395 0059 0B       		.uleb128 0xb
 2396 005a 3B       		.uleb128 0x3b
 2397 005b 0B       		.uleb128 0xb
 2398 005c 49       		.uleb128 0x49
 2399 005d 13       		.uleb128 0x13
 2400 005e 38       		.uleb128 0x38
 2401 005f 0B       		.uleb128 0xb
 2402 0060 00       		.byte	0
 2403 0061 00       		.byte	0
 2404 0062 08       		.uleb128 0x8
 2405 0063 01       		.uleb128 0x1
 2406 0064 01       		.byte	0x1
 2407 0065 49       		.uleb128 0x49
 2408 0066 13       		.uleb128 0x13
 2409 0067 01       		.uleb128 0x1
 2410 0068 13       		.uleb128 0x13
 2411 0069 00       		.byte	0
 2412 006a 00       		.byte	0
 2413 006b 09       		.uleb128 0x9
 2414 006c 21       		.uleb128 0x21
 2415 006d 00       		.byte	0
 2416 006e 49       		.uleb128 0x49
 2417 006f 13       		.uleb128 0x13
 2418 0070 2F       		.uleb128 0x2f
 2419 0071 0B       		.uleb128 0xb
 2420 0072 00       		.byte	0
 2421 0073 00       		.byte	0
 2422 0074 0A       		.uleb128 0xa
 2423 0075 0F       		.uleb128 0xf
 2424 0076 00       		.byte	0
 2425 0077 0B       		.uleb128 0xb
 2426 0078 0B       		.uleb128 0xb
 2427 0079 49       		.uleb128 0x49
 2428 007a 13       		.uleb128 0x13
 2429 007b 00       		.byte	0
GAS LISTING C:\Users\PRESID~1\AppData\Local\Temp\ccPWmP62.s 			page 67


 2430 007c 00       		.byte	0
 2431 007d 0B       		.uleb128 0xb
 2432 007e 15       		.uleb128 0x15
 2433 007f 01       		.byte	0x1
 2434 0080 27       		.uleb128 0x27
 2435 0081 19       		.uleb128 0x19
 2436 0082 01       		.uleb128 0x1
 2437 0083 13       		.uleb128 0x13
 2438 0084 00       		.byte	0
 2439 0085 00       		.byte	0
 2440 0086 0C       		.uleb128 0xc
 2441 0087 05       		.uleb128 0x5
 2442 0088 00       		.byte	0
 2443 0089 49       		.uleb128 0x49
 2444 008a 13       		.uleb128 0x13
 2445 008b 00       		.byte	0
 2446 008c 00       		.byte	0
 2447 008d 0D       		.uleb128 0xd
 2448 008e 0F       		.uleb128 0xf
 2449 008f 00       		.byte	0
 2450 0090 0B       		.uleb128 0xb
 2451 0091 0B       		.uleb128 0xb
 2452 0092 00       		.byte	0
 2453 0093 00       		.byte	0
 2454 0094 0E       		.uleb128 0xe
 2455 0095 15       		.uleb128 0x15
 2456 0096 01       		.byte	0x1
 2457 0097 27       		.uleb128 0x27
 2458 0098 19       		.uleb128 0x19
 2459 0099 49       		.uleb128 0x49
 2460 009a 13       		.uleb128 0x13
 2461 009b 01       		.uleb128 0x1
 2462 009c 13       		.uleb128 0x13
 2463 009d 00       		.byte	0
 2464 009e 00       		.byte	0
 2465 009f 0F       		.uleb128 0xf
 2466 00a0 0D       		.uleb128 0xd
 2467 00a1 00       		.byte	0
 2468 00a2 03       		.uleb128 0x3
 2469 00a3 0E       		.uleb128 0xe
 2470 00a4 3A       		.uleb128 0x3a
 2471 00a5 0B       		.uleb128 0xb
 2472 00a6 3B       		.uleb128 0x3b
 2473 00a7 0B       		.uleb128 0xb
 2474 00a8 49       		.uleb128 0x49
 2475 00a9 13       		.uleb128 0x13
 2476 00aa 38       		.uleb128 0x38
 2477 00ab 0B       		.uleb128 0xb
 2478 00ac 00       		.byte	0
 2479 00ad 00       		.byte	0
 2480 00ae 10       		.uleb128 0x10
 2481 00af 0D       		.uleb128 0xd
 2482 00b0 00       		.byte	0
 2483 00b1 03       		.uleb128 0x3
 2484 00b2 08       		.uleb128 0x8
 2485 00b3 3A       		.uleb128 0x3a
 2486 00b4 0B       		.uleb128 0xb
GAS LISTING C:\Users\PRESID~1\AppData\Local\Temp\ccPWmP62.s 			page 68


 2487 00b5 3B       		.uleb128 0x3b
 2488 00b6 0B       		.uleb128 0xb
 2489 00b7 49       		.uleb128 0x49
 2490 00b8 13       		.uleb128 0x13
 2491 00b9 0B       		.uleb128 0xb
 2492 00ba 0B       		.uleb128 0xb
 2493 00bb 0D       		.uleb128 0xd
 2494 00bc 0B       		.uleb128 0xb
 2495 00bd 0C       		.uleb128 0xc
 2496 00be 0B       		.uleb128 0xb
 2497 00bf 38       		.uleb128 0x38
 2498 00c0 0B       		.uleb128 0xb
 2499 00c1 00       		.byte	0
 2500 00c2 00       		.byte	0
 2501 00c3 11       		.uleb128 0x11
 2502 00c4 2E       		.uleb128 0x2e
 2503 00c5 00       		.byte	0
 2504 00c6 3F       		.uleb128 0x3f
 2505 00c7 19       		.uleb128 0x19
 2506 00c8 03       		.uleb128 0x3
 2507 00c9 08       		.uleb128 0x8
 2508 00ca 3A       		.uleb128 0x3a
 2509 00cb 0B       		.uleb128 0xb
 2510 00cc 3B       		.uleb128 0x3b
 2511 00cd 0B       		.uleb128 0xb
 2512 00ce 27       		.uleb128 0x27
 2513 00cf 19       		.uleb128 0x19
 2514 00d0 11       		.uleb128 0x11
 2515 00d1 01       		.uleb128 0x1
 2516 00d2 12       		.uleb128 0x12
 2517 00d3 06       		.uleb128 0x6
 2518 00d4 40       		.uleb128 0x40
 2519 00d5 18       		.uleb128 0x18
 2520 00d6 9742     		.uleb128 0x2117
 2521 00d8 19       		.uleb128 0x19
 2522 00d9 00       		.byte	0
 2523 00da 00       		.byte	0
 2524 00db 12       		.uleb128 0x12
 2525 00dc 2E       		.uleb128 0x2e
 2526 00dd 01       		.byte	0x1
 2527 00de 3F       		.uleb128 0x3f
 2528 00df 19       		.uleb128 0x19
 2529 00e0 03       		.uleb128 0x3
 2530 00e1 08       		.uleb128 0x8
 2531 00e2 3A       		.uleb128 0x3a
 2532 00e3 0B       		.uleb128 0xb
 2533 00e4 3B       		.uleb128 0x3b
 2534 00e5 0B       		.uleb128 0xb
 2535 00e6 27       		.uleb128 0x27
 2536 00e7 19       		.uleb128 0x19
 2537 00e8 11       		.uleb128 0x11
 2538 00e9 01       		.uleb128 0x1
 2539 00ea 12       		.uleb128 0x12
 2540 00eb 06       		.uleb128 0x6
 2541 00ec 40       		.uleb128 0x40
 2542 00ed 18       		.uleb128 0x18
 2543 00ee 9642     		.uleb128 0x2116
GAS LISTING C:\Users\PRESID~1\AppData\Local\Temp\ccPWmP62.s 			page 69


 2544 00f0 19       		.uleb128 0x19
 2545 00f1 01       		.uleb128 0x1
 2546 00f2 13       		.uleb128 0x13
 2547 00f3 00       		.byte	0
 2548 00f4 00       		.byte	0
 2549 00f5 13       		.uleb128 0x13
 2550 00f6 05       		.uleb128 0x5
 2551 00f7 00       		.byte	0
 2552 00f8 03       		.uleb128 0x3
 2553 00f9 0E       		.uleb128 0xe
 2554 00fa 3A       		.uleb128 0x3a
 2555 00fb 0B       		.uleb128 0xb
 2556 00fc 3B       		.uleb128 0x3b
 2557 00fd 0B       		.uleb128 0xb
 2558 00fe 49       		.uleb128 0x49
 2559 00ff 13       		.uleb128 0x13
 2560 0100 02       		.uleb128 0x2
 2561 0101 18       		.uleb128 0x18
 2562 0102 00       		.byte	0
 2563 0103 00       		.byte	0
 2564 0104 14       		.uleb128 0x14
 2565 0105 05       		.uleb128 0x5
 2566 0106 00       		.byte	0
 2567 0107 03       		.uleb128 0x3
 2568 0108 08       		.uleb128 0x8
 2569 0109 3A       		.uleb128 0x3a
 2570 010a 0B       		.uleb128 0xb
 2571 010b 3B       		.uleb128 0x3b
 2572 010c 0B       		.uleb128 0xb
 2573 010d 49       		.uleb128 0x49
 2574 010e 13       		.uleb128 0x13
 2575 010f 02       		.uleb128 0x2
 2576 0110 18       		.uleb128 0x18
 2577 0111 00       		.byte	0
 2578 0112 00       		.byte	0
 2579 0113 15       		.uleb128 0x15
 2580 0114 34       		.uleb128 0x34
 2581 0115 00       		.byte	0
 2582 0116 03       		.uleb128 0x3
 2583 0117 08       		.uleb128 0x8
 2584 0118 3A       		.uleb128 0x3a
 2585 0119 0B       		.uleb128 0xb
 2586 011a 3B       		.uleb128 0x3b
 2587 011b 0B       		.uleb128 0xb
 2588 011c 49       		.uleb128 0x49
 2589 011d 13       		.uleb128 0x13
 2590 011e 02       		.uleb128 0x2
 2591 011f 18       		.uleb128 0x18
 2592 0120 00       		.byte	0
 2593 0121 00       		.byte	0
 2594 0122 16       		.uleb128 0x16
 2595 0123 2E       		.uleb128 0x2e
 2596 0124 01       		.byte	0x1
 2597 0125 3F       		.uleb128 0x3f
 2598 0126 19       		.uleb128 0x19
 2599 0127 03       		.uleb128 0x3
 2600 0128 08       		.uleb128 0x8
GAS LISTING C:\Users\PRESID~1\AppData\Local\Temp\ccPWmP62.s 			page 70


 2601 0129 3A       		.uleb128 0x3a
 2602 012a 0B       		.uleb128 0xb
 2603 012b 3B       		.uleb128 0x3b
 2604 012c 0B       		.uleb128 0xb
 2605 012d 27       		.uleb128 0x27
 2606 012e 19       		.uleb128 0x19
 2607 012f 49       		.uleb128 0x49
 2608 0130 13       		.uleb128 0x13
 2609 0131 11       		.uleb128 0x11
 2610 0132 01       		.uleb128 0x1
 2611 0133 12       		.uleb128 0x12
 2612 0134 06       		.uleb128 0x6
 2613 0135 40       		.uleb128 0x40
 2614 0136 18       		.uleb128 0x18
 2615 0137 9642     		.uleb128 0x2116
 2616 0139 19       		.uleb128 0x19
 2617 013a 01       		.uleb128 0x1
 2618 013b 13       		.uleb128 0x13
 2619 013c 00       		.byte	0
 2620 013d 00       		.byte	0
 2621 013e 17       		.uleb128 0x17
 2622 013f 34       		.uleb128 0x34
 2623 0140 00       		.byte	0
 2624 0141 03       		.uleb128 0x3
 2625 0142 0E       		.uleb128 0xe
 2626 0143 3A       		.uleb128 0x3a
 2627 0144 0B       		.uleb128 0xb
 2628 0145 3B       		.uleb128 0x3b
 2629 0146 0B       		.uleb128 0xb
 2630 0147 49       		.uleb128 0x49
 2631 0148 13       		.uleb128 0x13
 2632 0149 02       		.uleb128 0x2
 2633 014a 18       		.uleb128 0x18
 2634 014b 00       		.byte	0
 2635 014c 00       		.byte	0
 2636 014d 18       		.uleb128 0x18
 2637 014e 2E       		.uleb128 0x2e
 2638 014f 01       		.byte	0x1
 2639 0150 03       		.uleb128 0x3
 2640 0151 08       		.uleb128 0x8
 2641 0152 3A       		.uleb128 0x3a
 2642 0153 0B       		.uleb128 0xb
 2643 0154 3B       		.uleb128 0x3b
 2644 0155 0B       		.uleb128 0xb
 2645 0156 27       		.uleb128 0x27
 2646 0157 19       		.uleb128 0x19
 2647 0158 11       		.uleb128 0x11
 2648 0159 01       		.uleb128 0x1
 2649 015a 12       		.uleb128 0x12
 2650 015b 06       		.uleb128 0x6
 2651 015c 40       		.uleb128 0x40
 2652 015d 18       		.uleb128 0x18
 2653 015e 9642     		.uleb128 0x2116
 2654 0160 19       		.uleb128 0x19
 2655 0161 01       		.uleb128 0x1
 2656 0162 13       		.uleb128 0x13
 2657 0163 00       		.byte	0
GAS LISTING C:\Users\PRESID~1\AppData\Local\Temp\ccPWmP62.s 			page 71


 2658 0164 00       		.byte	0
 2659 0165 19       		.uleb128 0x19
 2660 0166 2E       		.uleb128 0x2e
 2661 0167 01       		.byte	0x1
 2662 0168 3F       		.uleb128 0x3f
 2663 0169 19       		.uleb128 0x19
 2664 016a 03       		.uleb128 0x3
 2665 016b 08       		.uleb128 0x8
 2666 016c 3A       		.uleb128 0x3a
 2667 016d 0B       		.uleb128 0xb
 2668 016e 3B       		.uleb128 0x3b
 2669 016f 05       		.uleb128 0x5
 2670 0170 27       		.uleb128 0x27
 2671 0171 19       		.uleb128 0x19
 2672 0172 11       		.uleb128 0x11
 2673 0173 01       		.uleb128 0x1
 2674 0174 12       		.uleb128 0x12
 2675 0175 06       		.uleb128 0x6
 2676 0176 40       		.uleb128 0x40
 2677 0177 18       		.uleb128 0x18
 2678 0178 9642     		.uleb128 0x2116
 2679 017a 19       		.uleb128 0x19
 2680 017b 01       		.uleb128 0x1
 2681 017c 13       		.uleb128 0x13
 2682 017d 00       		.byte	0
 2683 017e 00       		.byte	0
 2684 017f 1A       		.uleb128 0x1a
 2685 0180 05       		.uleb128 0x5
 2686 0181 00       		.byte	0
 2687 0182 03       		.uleb128 0x3
 2688 0183 0E       		.uleb128 0xe
 2689 0184 3A       		.uleb128 0x3a
 2690 0185 0B       		.uleb128 0xb
 2691 0186 3B       		.uleb128 0x3b
 2692 0187 05       		.uleb128 0x5
 2693 0188 49       		.uleb128 0x49
 2694 0189 13       		.uleb128 0x13
 2695 018a 02       		.uleb128 0x2
 2696 018b 18       		.uleb128 0x18
 2697 018c 00       		.byte	0
 2698 018d 00       		.byte	0
 2699 018e 1B       		.uleb128 0x1b
 2700 018f 34       		.uleb128 0x34
 2701 0190 00       		.byte	0
 2702 0191 03       		.uleb128 0x3
 2703 0192 08       		.uleb128 0x8
 2704 0193 3A       		.uleb128 0x3a
 2705 0194 0B       		.uleb128 0xb
 2706 0195 3B       		.uleb128 0x3b
 2707 0196 05       		.uleb128 0x5
 2708 0197 49       		.uleb128 0x49
 2709 0198 13       		.uleb128 0x13
 2710 0199 02       		.uleb128 0x2
 2711 019a 18       		.uleb128 0x18
 2712 019b 00       		.byte	0
 2713 019c 00       		.byte	0
 2714 019d 1C       		.uleb128 0x1c
GAS LISTING C:\Users\PRESID~1\AppData\Local\Temp\ccPWmP62.s 			page 72


 2715 019e 34       		.uleb128 0x34
 2716 019f 00       		.byte	0
 2717 01a0 03       		.uleb128 0x3
 2718 01a1 0E       		.uleb128 0xe
 2719 01a2 3A       		.uleb128 0x3a
 2720 01a3 0B       		.uleb128 0xb
 2721 01a4 3B       		.uleb128 0x3b
 2722 01a5 05       		.uleb128 0x5
 2723 01a6 49       		.uleb128 0x49
 2724 01a7 13       		.uleb128 0x13
 2725 01a8 02       		.uleb128 0x2
 2726 01a9 18       		.uleb128 0x18
 2727 01aa 00       		.byte	0
 2728 01ab 00       		.byte	0
 2729 01ac 1D       		.uleb128 0x1d
 2730 01ad 2E       		.uleb128 0x2e
 2731 01ae 01       		.byte	0x1
 2732 01af 03       		.uleb128 0x3
 2733 01b0 08       		.uleb128 0x8
 2734 01b1 3A       		.uleb128 0x3a
 2735 01b2 0B       		.uleb128 0xb
 2736 01b3 3B       		.uleb128 0x3b
 2737 01b4 05       		.uleb128 0x5
 2738 01b5 27       		.uleb128 0x27
 2739 01b6 19       		.uleb128 0x19
 2740 01b7 11       		.uleb128 0x11
 2741 01b8 01       		.uleb128 0x1
 2742 01b9 12       		.uleb128 0x12
 2743 01ba 06       		.uleb128 0x6
 2744 01bb 40       		.uleb128 0x40
 2745 01bc 18       		.uleb128 0x18
 2746 01bd 9742     		.uleb128 0x2117
 2747 01bf 19       		.uleb128 0x19
 2748 01c0 01       		.uleb128 0x1
 2749 01c1 13       		.uleb128 0x13
 2750 01c2 00       		.byte	0
 2751 01c3 00       		.byte	0
 2752 01c4 1E       		.uleb128 0x1e
 2753 01c5 2E       		.uleb128 0x2e
 2754 01c6 01       		.byte	0x1
 2755 01c7 03       		.uleb128 0x3
 2756 01c8 08       		.uleb128 0x8
 2757 01c9 3A       		.uleb128 0x3a
 2758 01ca 0B       		.uleb128 0xb
 2759 01cb 3B       		.uleb128 0x3b
 2760 01cc 05       		.uleb128 0x5
 2761 01cd 27       		.uleb128 0x27
 2762 01ce 19       		.uleb128 0x19
 2763 01cf 11       		.uleb128 0x11
 2764 01d0 01       		.uleb128 0x1
 2765 01d1 12       		.uleb128 0x12
 2766 01d2 06       		.uleb128 0x6
 2767 01d3 40       		.uleb128 0x40
 2768 01d4 18       		.uleb128 0x18
 2769 01d5 9642     		.uleb128 0x2116
 2770 01d7 19       		.uleb128 0x19
 2771 01d8 01       		.uleb128 0x1
GAS LISTING C:\Users\PRESID~1\AppData\Local\Temp\ccPWmP62.s 			page 73


 2772 01d9 13       		.uleb128 0x13
 2773 01da 00       		.byte	0
 2774 01db 00       		.byte	0
 2775 01dc 1F       		.uleb128 0x1f
 2776 01dd 2E       		.uleb128 0x2e
 2777 01de 01       		.byte	0x1
 2778 01df 03       		.uleb128 0x3
 2779 01e0 08       		.uleb128 0x8
 2780 01e1 3A       		.uleb128 0x3a
 2781 01e2 0B       		.uleb128 0xb
 2782 01e3 3B       		.uleb128 0x3b
 2783 01e4 05       		.uleb128 0x5
 2784 01e5 27       		.uleb128 0x27
 2785 01e6 19       		.uleb128 0x19
 2786 01e7 49       		.uleb128 0x49
 2787 01e8 13       		.uleb128 0x13
 2788 01e9 11       		.uleb128 0x11
 2789 01ea 01       		.uleb128 0x1
 2790 01eb 12       		.uleb128 0x12
 2791 01ec 06       		.uleb128 0x6
 2792 01ed 40       		.uleb128 0x40
 2793 01ee 18       		.uleb128 0x18
 2794 01ef 9642     		.uleb128 0x2116
 2795 01f1 19       		.uleb128 0x19
 2796 01f2 01       		.uleb128 0x1
 2797 01f3 13       		.uleb128 0x13
 2798 01f4 00       		.byte	0
 2799 01f5 00       		.byte	0
 2800 01f6 20       		.uleb128 0x20
 2801 01f7 0B       		.uleb128 0xb
 2802 01f8 01       		.byte	0x1
 2803 01f9 11       		.uleb128 0x11
 2804 01fa 01       		.uleb128 0x1
 2805 01fb 12       		.uleb128 0x12
 2806 01fc 06       		.uleb128 0x6
 2807 01fd 00       		.byte	0
 2808 01fe 00       		.byte	0
 2809 01ff 21       		.uleb128 0x21
 2810 0200 34       		.uleb128 0x34
 2811 0201 00       		.byte	0
 2812 0202 03       		.uleb128 0x3
 2813 0203 08       		.uleb128 0x8
 2814 0204 3A       		.uleb128 0x3a
 2815 0205 0B       		.uleb128 0xb
 2816 0206 3B       		.uleb128 0x3b
 2817 0207 0B       		.uleb128 0xb
 2818 0208 49       		.uleb128 0x49
 2819 0209 13       		.uleb128 0x13
 2820 020a 3F       		.uleb128 0x3f
 2821 020b 19       		.uleb128 0x19
 2822 020c 3C       		.uleb128 0x3c
 2823 020d 19       		.uleb128 0x19
 2824 020e 00       		.byte	0
 2825 020f 00       		.byte	0
 2826 0210 22       		.uleb128 0x22
 2827 0211 35       		.uleb128 0x35
 2828 0212 00       		.byte	0
GAS LISTING C:\Users\PRESID~1\AppData\Local\Temp\ccPWmP62.s 			page 74


 2829 0213 49       		.uleb128 0x49
 2830 0214 13       		.uleb128 0x13
 2831 0215 00       		.byte	0
 2832 0216 00       		.byte	0
 2833 0217 23       		.uleb128 0x23
 2834 0218 21       		.uleb128 0x21
 2835 0219 00       		.byte	0
 2836 021a 49       		.uleb128 0x49
 2837 021b 13       		.uleb128 0x13
 2838 021c 2F       		.uleb128 0x2f
 2839 021d 05       		.uleb128 0x5
 2840 021e 00       		.byte	0
 2841 021f 00       		.byte	0
 2842 0220 00       		.byte	0
 2843              		.section	.debug_aranges,"dr"
 2844 0000 1C000000 		.long	0x1c
 2845 0004 0200     		.word	0x2
 2846 0006 00000000 		.secrel32	Ldebug_info0
 2847 000a 04       		.byte	0x4
 2848 000b 00       		.byte	0
 2849 000c 0000     		.word	0
 2850 000e 0000     		.word	0
 2851 0010 00000000 		.long	Ltext0
 2852 0014 800A0000 		.long	Letext0-Ltext0
 2853 0018 00000000 		.long	0
 2854 001c 00000000 		.long	0
 2855              		.section	.debug_macro,"dr"
 2856              	Ldebug_macro0:
 2857 0000 0400     		.word	0x4
 2858 0002 02       		.byte	0x2
 2859 0003 00000000 		.secrel32	Ldebug_line0
 2860 0007 01       		.byte	0x1
 2861 0008 00       		.uleb128 0
 2862 0009 5F5F5354 		.ascii "__STDC__ 1\0"
 2862      44435F5F 
 2862      203100
 2863 0014 01       		.byte	0x1
 2864 0015 00       		.uleb128 0
 2865 0016 5F5F5354 		.ascii "__STDC_HOSTED__ 1\0"
 2865      44435F48 
 2865      4F535445 
 2865      445F5F20 
 2865      3100
 2866 0028 01       		.byte	0x1
 2867 0029 00       		.uleb128 0
 2868 002a 5F5F474E 		.ascii "__GNUC__ 4\0"
 2868      55435F5F 
 2868      203400
 2869 0035 01       		.byte	0x1
 2870 0036 00       		.uleb128 0
 2871 0037 5F5F474E 		.ascii "__GNUC_MINOR__ 9\0"
 2871      55435F4D 
 2871      494E4F52 
 2871      5F5F2039 
 2871      00
 2872 0048 01       		.byte	0x1
 2873 0049 00       		.uleb128 0
GAS LISTING C:\Users\PRESID~1\AppData\Local\Temp\ccPWmP62.s 			page 75


 2874 004a 5F5F474E 		.ascii "__GNUC_PATCHLEVEL__ 3\0"
 2874      55435F50 
 2874      41544348 
 2874      4C455645 
 2874      4C5F5F20 
 2875 0060 01       		.byte	0x1
 2876 0061 00       		.uleb128 0
 2877 0062 5F5F5645 		.ascii "__VERSION__ \"4.9.3\"\0"
 2877      5253494F 
 2877      4E5F5F20 
 2877      22342E39 
 2877      2E332200 
 2878 0076 01       		.byte	0x1
 2879 0077 00       		.uleb128 0
 2880 0078 5F5F4154 		.ascii "__ATOMIC_RELAXED 0\0"
 2880      4F4D4943 
 2880      5F52454C 
 2880      41584544 
 2880      203000
 2881 008b 01       		.byte	0x1
 2882 008c 00       		.uleb128 0
 2883 008d 5F5F4154 		.ascii "__ATOMIC_SEQ_CST 5\0"
 2883      4F4D4943 
 2883      5F534551 
 2883      5F435354 
 2883      203500
 2884 00a0 01       		.byte	0x1
 2885 00a1 00       		.uleb128 0
 2886 00a2 5F5F4154 		.ascii "__ATOMIC_ACQUIRE 2\0"
 2886      4F4D4943 
 2886      5F414351 
 2886      55495245 
 2886      203200
 2887 00b5 01       		.byte	0x1
 2888 00b6 00       		.uleb128 0
 2889 00b7 5F5F4154 		.ascii "__ATOMIC_RELEASE 3\0"
 2889      4F4D4943 
 2889      5F52454C 
 2889      45415345 
 2889      203300
 2890 00ca 01       		.byte	0x1
 2891 00cb 00       		.uleb128 0
 2892 00cc 5F5F4154 		.ascii "__ATOMIC_ACQ_REL 4\0"
 2892      4F4D4943 
 2892      5F414351 
 2892      5F52454C 
 2892      203400
 2893 00df 01       		.byte	0x1
 2894 00e0 00       		.uleb128 0
 2895 00e1 5F5F4154 		.ascii "__ATOMIC_CONSUME 1\0"
 2895      4F4D4943 
 2895      5F434F4E 
 2895      53554D45 
 2895      203100
 2896 00f4 01       		.byte	0x1
 2897 00f5 00       		.uleb128 0
 2898 00f6 5F5F4649 		.ascii "__FINITE_MATH_ONLY__ 0\0"
GAS LISTING C:\Users\PRESID~1\AppData\Local\Temp\ccPWmP62.s 			page 76


 2898      4E495445 
 2898      5F4D4154 
 2898      485F4F4E 
 2898      4C595F5F 
 2899 010d 01       		.byte	0x1
 2900 010e 00       		.uleb128 0
 2901 010f 5F5F5349 		.ascii "__SIZEOF_INT__ 4\0"
 2901      5A454F46 
 2901      5F494E54 
 2901      5F5F2034 
 2901      00
 2902 0120 01       		.byte	0x1
 2903 0121 00       		.uleb128 0
 2904 0122 5F5F5349 		.ascii "__SIZEOF_LONG__ 4\0"
 2904      5A454F46 
 2904      5F4C4F4E 
 2904      475F5F20 
 2904      3400
 2905 0134 01       		.byte	0x1
 2906 0135 00       		.uleb128 0
 2907 0136 5F5F5349 		.ascii "__SIZEOF_LONG_LONG__ 8\0"
 2907      5A454F46 
 2907      5F4C4F4E 
 2907      475F4C4F 
 2907      4E475F5F 
 2908 014d 01       		.byte	0x1
 2909 014e 00       		.uleb128 0
 2910 014f 5F5F5349 		.ascii "__SIZEOF_SHORT__ 2\0"
 2910      5A454F46 
 2910      5F53484F 
 2910      52545F5F 
 2910      203200
 2911 0162 01       		.byte	0x1
 2912 0163 00       		.uleb128 0
 2913 0164 5F5F5349 		.ascii "__SIZEOF_FLOAT__ 4\0"
 2913      5A454F46 
 2913      5F464C4F 
 2913      41545F5F 
 2913      203400
 2914 0177 01       		.byte	0x1
 2915 0178 00       		.uleb128 0
 2916 0179 5F5F5349 		.ascii "__SIZEOF_DOUBLE__ 8\0"
 2916      5A454F46 
 2916      5F444F55 
 2916      424C455F 
 2916      5F203800 
 2917 018d 01       		.byte	0x1
 2918 018e 00       		.uleb128 0
 2919 018f 5F5F5349 		.ascii "__SIZEOF_LONG_DOUBLE__ 12\0"
 2919      5A454F46 
 2919      5F4C4F4E 
 2919      475F444F 
 2919      55424C45 
 2920 01a9 01       		.byte	0x1
 2921 01aa 00       		.uleb128 0
 2922 01ab 5F5F5349 		.ascii "__SIZEOF_SIZE_T__ 4\0"
 2922      5A454F46 
GAS LISTING C:\Users\PRESID~1\AppData\Local\Temp\ccPWmP62.s 			page 77


 2922      5F53495A 
 2922      455F545F 
 2922      5F203400 
 2923 01bf 01       		.byte	0x1
 2924 01c0 00       		.uleb128 0
 2925 01c1 5F5F4348 		.ascii "__CHAR_BIT__ 8\0"
 2925      41525F42 
 2925      49545F5F 
 2925      203800
 2926 01d0 01       		.byte	0x1
 2927 01d1 00       		.uleb128 0
 2928 01d2 5F5F4249 		.ascii "__BIGGEST_ALIGNMENT__ 16\0"
 2928      47474553 
 2928      545F414C 
 2928      49474E4D 
 2928      454E545F 
 2929 01eb 01       		.byte	0x1
 2930 01ec 00       		.uleb128 0
 2931 01ed 5F5F4F52 		.ascii "__ORDER_LITTLE_ENDIAN__ 1234\0"
 2931      4445525F 
 2931      4C495454 
 2931      4C455F45 
 2931      4E444941 
 2932 020a 01       		.byte	0x1
 2933 020b 00       		.uleb128 0
 2934 020c 5F5F4F52 		.ascii "__ORDER_BIG_ENDIAN__ 4321\0"
 2934      4445525F 
 2934      4249475F 
 2934      454E4449 
 2934      414E5F5F 
 2935 0226 01       		.byte	0x1
 2936 0227 00       		.uleb128 0
 2937 0228 5F5F4F52 		.ascii "__ORDER_PDP_ENDIAN__ 3412\0"
 2937      4445525F 
 2937      5044505F 
 2937      454E4449 
 2937      414E5F5F 
 2938 0242 01       		.byte	0x1
 2939 0243 00       		.uleb128 0
 2940 0244 5F5F4259 		.ascii "__BYTE_ORDER__ __ORDER_LITTLE_ENDIAN__\0"
 2940      54455F4F 
 2940      52444552 
 2940      5F5F205F 
 2940      5F4F5244 
 2941 026b 01       		.byte	0x1
 2942 026c 00       		.uleb128 0
 2943 026d 5F5F464C 		.ascii "__FLOAT_WORD_ORDER__ __ORDER_LITTLE_ENDIAN__\0"
 2943      4F41545F 
 2943      574F5244 
 2943      5F4F5244 
 2943      45525F5F 
 2944 029a 01       		.byte	0x1
 2945 029b 00       		.uleb128 0
 2946 029c 5F5F5349 		.ascii "__SIZEOF_POINTER__ 4\0"
 2946      5A454F46 
 2946      5F504F49 
 2946      4E544552 
GAS LISTING C:\Users\PRESID~1\AppData\Local\Temp\ccPWmP62.s 			page 78


 2946      5F5F2034 
 2947 02b1 01       		.byte	0x1
 2948 02b2 00       		.uleb128 0
 2949 02b3 5F5F5349 		.ascii "__SIZE_TYPE__ unsigned int\0"
 2949      5A455F54 
 2949      5950455F 
 2949      5F20756E 
 2949      7369676E 
 2950 02ce 01       		.byte	0x1
 2951 02cf 00       		.uleb128 0
 2952 02d0 5F5F5054 		.ascii "__PTRDIFF_TYPE__ int\0"
 2952      52444946 
 2952      465F5459 
 2952      50455F5F 
 2952      20696E74 
 2953 02e5 01       		.byte	0x1
 2954 02e6 00       		.uleb128 0
 2955 02e7 5F5F5743 		.ascii "__WCHAR_TYPE__ short unsigned int\0"
 2955      4841525F 
 2955      54595045 
 2955      5F5F2073 
 2955      686F7274 
 2956 0309 01       		.byte	0x1
 2957 030a 00       		.uleb128 0
 2958 030b 5F5F5749 		.ascii "__WINT_TYPE__ short unsigned int\0"
 2958      4E545F54 
 2958      5950455F 
 2958      5F207368 
 2958      6F727420 
 2959 032c 01       		.byte	0x1
 2960 032d 00       		.uleb128 0
 2961 032e 5F5F494E 		.ascii "__INTMAX_TYPE__ long long int\0"
 2961      544D4158 
 2961      5F545950 
 2961      455F5F20 
 2961      6C6F6E67 
 2962 034c 01       		.byte	0x1
 2963 034d 00       		.uleb128 0
 2964 034e 5F5F5549 		.ascii "__UINTMAX_TYPE__ long long unsigned int\0"
 2964      4E544D41 
 2964      585F5459 
 2964      50455F5F 
 2964      206C6F6E 
 2965 0376 01       		.byte	0x1
 2966 0377 00       		.uleb128 0
 2967 0378 5F5F4348 		.ascii "__CHAR16_TYPE__ short unsigned int\0"
 2967      41523136 
 2967      5F545950 
 2967      455F5F20 
 2967      73686F72 
 2968 039b 01       		.byte	0x1
 2969 039c 00       		.uleb128 0
 2970 039d 5F5F4348 		.ascii "__CHAR32_TYPE__ unsigned int\0"
 2970      41523332 
 2970      5F545950 
 2970      455F5F20 
 2970      756E7369 
GAS LISTING C:\Users\PRESID~1\AppData\Local\Temp\ccPWmP62.s 			page 79


 2971 03ba 01       		.byte	0x1
 2972 03bb 00       		.uleb128 0
 2973 03bc 5F5F5349 		.ascii "__SIG_ATOMIC_TYPE__ int\0"
 2973      475F4154 
 2973      4F4D4943 
 2973      5F545950 
 2973      455F5F20 
 2974 03d4 01       		.byte	0x1
 2975 03d5 00       		.uleb128 0
 2976 03d6 5F5F494E 		.ascii "__INT8_TYPE__ signed char\0"
 2976      54385F54 
 2976      5950455F 
 2976      5F207369 
 2976      676E6564 
 2977 03f0 01       		.byte	0x1
 2978 03f1 00       		.uleb128 0
 2979 03f2 5F5F494E 		.ascii "__INT16_TYPE__ short int\0"
 2979      5431365F 
 2979      54595045 
 2979      5F5F2073 
 2979      686F7274 
 2980 040b 01       		.byte	0x1
 2981 040c 00       		.uleb128 0
 2982 040d 5F5F494E 		.ascii "__INT32_TYPE__ int\0"
 2982      5433325F 
 2982      54595045 
 2982      5F5F2069 
 2982      6E7400
 2983 0420 01       		.byte	0x1
 2984 0421 00       		.uleb128 0
 2985 0422 5F5F494E 		.ascii "__INT64_TYPE__ long long int\0"
 2985      5436345F 
 2985      54595045 
 2985      5F5F206C 
 2985      6F6E6720 
 2986 043f 01       		.byte	0x1
 2987 0440 00       		.uleb128 0
 2988 0441 5F5F5549 		.ascii "__UINT8_TYPE__ unsigned char\0"
 2988      4E54385F 
 2988      54595045 
 2988      5F5F2075 
 2988      6E736967 
 2989 045e 01       		.byte	0x1
 2990 045f 00       		.uleb128 0
 2991 0460 5F5F5549 		.ascii "__UINT16_TYPE__ short unsigned int\0"
 2991      4E543136 
 2991      5F545950 
 2991      455F5F20 
 2991      73686F72 
 2992 0483 01       		.byte	0x1
 2993 0484 00       		.uleb128 0
 2994 0485 5F5F5549 		.ascii "__UINT32_TYPE__ unsigned int\0"
 2994      4E543332 
 2994      5F545950 
 2994      455F5F20 
 2994      756E7369 
 2995 04a2 01       		.byte	0x1
GAS LISTING C:\Users\PRESID~1\AppData\Local\Temp\ccPWmP62.s 			page 80


 2996 04a3 00       		.uleb128 0
 2997 04a4 5F5F5549 		.ascii "__UINT64_TYPE__ long long unsigned int\0"
 2997      4E543634 
 2997      5F545950 
 2997      455F5F20 
 2997      6C6F6E67 
 2998 04cb 01       		.byte	0x1
 2999 04cc 00       		.uleb128 0
 3000 04cd 5F5F494E 		.ascii "__INT_LEAST8_TYPE__ signed char\0"
 3000      545F4C45 
 3000      41535438 
 3000      5F545950 
 3000      455F5F20 
 3001 04ed 01       		.byte	0x1
 3002 04ee 00       		.uleb128 0
 3003 04ef 5F5F494E 		.ascii "__INT_LEAST16_TYPE__ short int\0"
 3003      545F4C45 
 3003      41535431 
 3003      365F5459 
 3003      50455F5F 
 3004 050e 01       		.byte	0x1
 3005 050f 00       		.uleb128 0
 3006 0510 5F5F494E 		.ascii "__INT_LEAST32_TYPE__ int\0"
 3006      545F4C45 
 3006      41535433 
 3006      325F5459 
 3006      50455F5F 
 3007 0529 01       		.byte	0x1
 3008 052a 00       		.uleb128 0
 3009 052b 5F5F494E 		.ascii "__INT_LEAST64_TYPE__ long long int\0"
 3009      545F4C45 
 3009      41535436 
 3009      345F5459 
 3009      50455F5F 
 3010 054e 01       		.byte	0x1
 3011 054f 00       		.uleb128 0
 3012 0550 5F5F5549 		.ascii "__UINT_LEAST8_TYPE__ unsigned char\0"
 3012      4E545F4C 
 3012      45415354 
 3012      385F5459 
 3012      50455F5F 
 3013 0573 01       		.byte	0x1
 3014 0574 00       		.uleb128 0
 3015 0575 5F5F5549 		.ascii "__UINT_LEAST16_TYPE__ short unsigned int\0"
 3015      4E545F4C 
 3015      45415354 
 3015      31365F54 
 3015      5950455F 
 3016 059e 01       		.byte	0x1
 3017 059f 00       		.uleb128 0
 3018 05a0 5F5F5549 		.ascii "__UINT_LEAST32_TYPE__ unsigned int\0"
 3018      4E545F4C 
 3018      45415354 
 3018      33325F54 
 3018      5950455F 
 3019 05c3 01       		.byte	0x1
 3020 05c4 00       		.uleb128 0
GAS LISTING C:\Users\PRESID~1\AppData\Local\Temp\ccPWmP62.s 			page 81


 3021 05c5 5F5F5549 		.ascii "__UINT_LEAST64_TYPE__ long long unsigned int\0"
 3021      4E545F4C 
 3021      45415354 
 3021      36345F54 
 3021      5950455F 
 3022 05f2 01       		.byte	0x1
 3023 05f3 00       		.uleb128 0
 3024 05f4 5F5F494E 		.ascii "__INT_FAST8_TYPE__ signed char\0"
 3024      545F4641 
 3024      5354385F 
 3024      54595045 
 3024      5F5F2073 
 3025 0613 01       		.byte	0x1
 3026 0614 00       		.uleb128 0
 3027 0615 5F5F494E 		.ascii "__INT_FAST16_TYPE__ short int\0"
 3027      545F4641 
 3027      53543136 
 3027      5F545950 
 3027      455F5F20 
 3028 0633 01       		.byte	0x1
 3029 0634 00       		.uleb128 0
 3030 0635 5F5F494E 		.ascii "__INT_FAST32_TYPE__ int\0"
 3030      545F4641 
 3030      53543332 
 3030      5F545950 
 3030      455F5F20 
 3031 064d 01       		.byte	0x1
 3032 064e 00       		.uleb128 0
 3033 064f 5F5F494E 		.ascii "__INT_FAST64_TYPE__ long long int\0"
 3033      545F4641 
 3033      53543634 
 3033      5F545950 
 3033      455F5F20 
 3034 0671 01       		.byte	0x1
 3035 0672 00       		.uleb128 0
 3036 0673 5F5F5549 		.ascii "__UINT_FAST8_TYPE__ unsigned char\0"
 3036      4E545F46 
 3036      41535438 
 3036      5F545950 
 3036      455F5F20 
 3037 0695 01       		.byte	0x1
 3038 0696 00       		.uleb128 0
 3039 0697 5F5F5549 		.ascii "__UINT_FAST16_TYPE__ short unsigned int\0"
 3039      4E545F46 
 3039      41535431 
 3039      365F5459 
 3039      50455F5F 
 3040 06bf 01       		.byte	0x1
 3041 06c0 00       		.uleb128 0
 3042 06c1 5F5F5549 		.ascii "__UINT_FAST32_TYPE__ unsigned int\0"
 3042      4E545F46 
 3042      41535433 
 3042      325F5459 
 3042      50455F5F 
 3043 06e3 01       		.byte	0x1
 3044 06e4 00       		.uleb128 0
 3045 06e5 5F5F5549 		.ascii "__UINT_FAST64_TYPE__ long long unsigned int\0"
GAS LISTING C:\Users\PRESID~1\AppData\Local\Temp\ccPWmP62.s 			page 82


 3045      4E545F46 
 3045      41535436 
 3045      345F5459 
 3045      50455F5F 
 3046 0711 01       		.byte	0x1
 3047 0712 00       		.uleb128 0
 3048 0713 5F5F494E 		.ascii "__INTPTR_TYPE__ int\0"
 3048      54505452 
 3048      5F545950 
 3048      455F5F20 
 3048      696E7400 
 3049 0727 01       		.byte	0x1
 3050 0728 00       		.uleb128 0
 3051 0729 5F5F5549 		.ascii "__UINTPTR_TYPE__ unsigned int\0"
 3051      4E545054 
 3051      525F5459 
 3051      50455F5F 
 3051      20756E73 
 3052 0747 01       		.byte	0x1
 3053 0748 00       		.uleb128 0
 3054 0749 5F5F6861 		.ascii "__has_include(STR) __has_include__(STR)\0"
 3054      735F696E 
 3054      636C7564 
 3054      65285354 
 3054      5229205F 
 3055 0771 01       		.byte	0x1
 3056 0772 00       		.uleb128 0
 3057 0773 5F5F6861 		.ascii "__has_include_next(STR) __has_include_next__(STR)\0"
 3057      735F696E 
 3057      636C7564 
 3057      655F6E65 
 3057      78742853 
 3058 07a5 01       		.byte	0x1
 3059 07a6 00       		.uleb128 0
 3060 07a7 5F5F4758 		.ascii "__GXX_ABI_VERSION 1002\0"
 3060      585F4142 
 3060      495F5645 
 3060      5253494F 
 3060      4E203130 
 3061 07be 01       		.byte	0x1
 3062 07bf 00       		.uleb128 0
 3063 07c0 5F5F5343 		.ascii "__SCHAR_MAX__ 127\0"
 3063      4841525F 
 3063      4D41585F 
 3063      5F203132 
 3063      3700
 3064 07d2 01       		.byte	0x1
 3065 07d3 00       		.uleb128 0
 3066 07d4 5F5F5348 		.ascii "__SHRT_MAX__ 32767\0"
 3066      52545F4D 
 3066      41585F5F 
 3066      20333237 
 3066      363700
 3067 07e7 01       		.byte	0x1
 3068 07e8 00       		.uleb128 0
 3069 07e9 5F5F494E 		.ascii "__INT_MAX__ 2147483647\0"
 3069      545F4D41 
GAS LISTING C:\Users\PRESID~1\AppData\Local\Temp\ccPWmP62.s 			page 83


 3069      585F5F20 
 3069      32313437 
 3069      34383336 
 3070 0800 01       		.byte	0x1
 3071 0801 00       		.uleb128 0
 3072 0802 5F5F4C4F 		.ascii "__LONG_MAX__ 2147483647L\0"
 3072      4E475F4D 
 3072      41585F5F 
 3072      20323134 
 3072      37343833 
 3073 081b 01       		.byte	0x1
 3074 081c 00       		.uleb128 0
 3075 081d 5F5F4C4F 		.ascii "__LONG_LONG_MAX__ 9223372036854775807LL\0"
 3075      4E475F4C 
 3075      4F4E475F 
 3075      4D41585F 
 3075      5F203932 
 3076 0845 01       		.byte	0x1
 3077 0846 00       		.uleb128 0
 3078 0847 5F5F5743 		.ascii "__WCHAR_MAX__ 65535\0"
 3078      4841525F 
 3078      4D41585F 
 3078      5F203635 
 3078      35333500 
 3079 085b 01       		.byte	0x1
 3080 085c 00       		.uleb128 0
 3081 085d 5F5F5743 		.ascii "__WCHAR_MIN__ 0\0"
 3081      4841525F 
 3081      4D494E5F 
 3081      5F203000 
 3082 086d 01       		.byte	0x1
 3083 086e 00       		.uleb128 0
 3084 086f 5F5F5749 		.ascii "__WINT_MAX__ 65535\0"
 3084      4E545F4D 
 3084      41585F5F 
 3084      20363535 
 3084      333500
 3085 0882 01       		.byte	0x1
 3086 0883 00       		.uleb128 0
 3087 0884 5F5F5749 		.ascii "__WINT_MIN__ 0\0"
 3087      4E545F4D 
 3087      494E5F5F 
 3087      203000
 3088 0893 01       		.byte	0x1
 3089 0894 00       		.uleb128 0
 3090 0895 5F5F5054 		.ascii "__PTRDIFF_MAX__ 2147483647\0"
 3090      52444946 
 3090      465F4D41 
 3090      585F5F20 
 3090      32313437 
 3091 08b0 01       		.byte	0x1
 3092 08b1 00       		.uleb128 0
 3093 08b2 5F5F5349 		.ascii "__SIZE_MAX__ 4294967295U\0"
 3093      5A455F4D 
 3093      41585F5F 
 3093      20343239 
 3093      34393637 
GAS LISTING C:\Users\PRESID~1\AppData\Local\Temp\ccPWmP62.s 			page 84


 3094 08cb 01       		.byte	0x1
 3095 08cc 00       		.uleb128 0
 3096 08cd 5F5F494E 		.ascii "__INTMAX_MAX__ 9223372036854775807LL\0"
 3096      544D4158 
 3096      5F4D4158 
 3096      5F5F2039 
 3096      32323333 
 3097 08f2 01       		.byte	0x1
 3098 08f3 00       		.uleb128 0
 3099 08f4 5F5F494E 		.ascii "__INTMAX_C(c) c ## LL\0"
 3099      544D4158 
 3099      5F432863 
 3099      29206320 
 3099      2323204C 
 3100 090a 01       		.byte	0x1
 3101 090b 00       		.uleb128 0
 3102 090c 5F5F5549 		.ascii "__UINTMAX_MAX__ 18446744073709551615ULL\0"
 3102      4E544D41 
 3102      585F4D41 
 3102      585F5F20 
 3102      31383434 
 3103 0934 01       		.byte	0x1
 3104 0935 00       		.uleb128 0
 3105 0936 5F5F5549 		.ascii "__UINTMAX_C(c) c ## ULL\0"
 3105      4E544D41 
 3105      585F4328 
 3105      63292063 
 3105      20232320 
 3106 094e 01       		.byte	0x1
 3107 094f 00       		.uleb128 0
 3108 0950 5F5F5349 		.ascii "__SIG_ATOMIC_MAX__ 2147483647\0"
 3108      475F4154 
 3108      4F4D4943 
 3108      5F4D4158 
 3108      5F5F2032 
 3109 096e 01       		.byte	0x1
 3110 096f 00       		.uleb128 0
 3111 0970 5F5F5349 		.ascii "__SIG_ATOMIC_MIN__ (-__SIG_ATOMIC_MAX__ - 1)\0"
 3111      475F4154 
 3111      4F4D4943 
 3111      5F4D494E 
 3111      5F5F2028 
 3112 099d 01       		.byte	0x1
 3113 099e 00       		.uleb128 0
 3114 099f 5F5F494E 		.ascii "__INT8_MAX__ 127\0"
 3114      54385F4D 
 3114      41585F5F 
 3114      20313237 
 3114      00
 3115 09b0 01       		.byte	0x1
 3116 09b1 00       		.uleb128 0
 3117 09b2 5F5F494E 		.ascii "__INT16_MAX__ 32767\0"
 3117      5431365F 
 3117      4D41585F 
 3117      5F203332 
 3117      37363700 
 3118 09c6 01       		.byte	0x1
GAS LISTING C:\Users\PRESID~1\AppData\Local\Temp\ccPWmP62.s 			page 85


 3119 09c7 00       		.uleb128 0
 3120 09c8 5F5F494E 		.ascii "__INT32_MAX__ 2147483647\0"
 3120      5433325F 
 3120      4D41585F 
 3120      5F203231 
 3120      34373438 
 3121 09e1 01       		.byte	0x1
 3122 09e2 00       		.uleb128 0
 3123 09e3 5F5F494E 		.ascii "__INT64_MAX__ 9223372036854775807LL\0"
 3123      5436345F 
 3123      4D41585F 
 3123      5F203932 
 3123      32333337 
 3124 0a07 01       		.byte	0x1
 3125 0a08 00       		.uleb128 0
 3126 0a09 5F5F5549 		.ascii "__UINT8_MAX__ 255\0"
 3126      4E54385F 
 3126      4D41585F 
 3126      5F203235 
 3126      3500
 3127 0a1b 01       		.byte	0x1
 3128 0a1c 00       		.uleb128 0
 3129 0a1d 5F5F5549 		.ascii "__UINT16_MAX__ 65535\0"
 3129      4E543136 
 3129      5F4D4158 
 3129      5F5F2036 
 3129      35353335 
 3130 0a32 01       		.byte	0x1
 3131 0a33 00       		.uleb128 0
 3132 0a34 5F5F5549 		.ascii "__UINT32_MAX__ 4294967295U\0"
 3132      4E543332 
 3132      5F4D4158 
 3132      5F5F2034 
 3132      32393439 
 3133 0a4f 01       		.byte	0x1
 3134 0a50 00       		.uleb128 0
 3135 0a51 5F5F5549 		.ascii "__UINT64_MAX__ 18446744073709551615ULL\0"
 3135      4E543634 
 3135      5F4D4158 
 3135      5F5F2031 
 3135      38343436 
 3136 0a78 01       		.byte	0x1
 3137 0a79 00       		.uleb128 0
 3138 0a7a 5F5F494E 		.ascii "__INT_LEAST8_MAX__ 127\0"
 3138      545F4C45 
 3138      41535438 
 3138      5F4D4158 
 3138      5F5F2031 
 3139 0a91 01       		.byte	0x1
 3140 0a92 00       		.uleb128 0
 3141 0a93 5F5F494E 		.ascii "__INT8_C(c) c\0"
 3141      54385F43 
 3141      28632920 
 3141      6300
 3142 0aa1 01       		.byte	0x1
 3143 0aa2 00       		.uleb128 0
 3144 0aa3 5F5F494E 		.ascii "__INT_LEAST16_MAX__ 32767\0"
GAS LISTING C:\Users\PRESID~1\AppData\Local\Temp\ccPWmP62.s 			page 86


 3144      545F4C45 
 3144      41535431 
 3144      365F4D41 
 3144      585F5F20 
 3145 0abd 01       		.byte	0x1
 3146 0abe 00       		.uleb128 0
 3147 0abf 5F5F494E 		.ascii "__INT16_C(c) c\0"
 3147      5431365F 
 3147      43286329 
 3147      206300
 3148 0ace 01       		.byte	0x1
 3149 0acf 00       		.uleb128 0
 3150 0ad0 5F5F494E 		.ascii "__INT_LEAST32_MAX__ 2147483647\0"
 3150      545F4C45 
 3150      41535433 
 3150      325F4D41 
 3150      585F5F20 
 3151 0aef 01       		.byte	0x1
 3152 0af0 00       		.uleb128 0
 3153 0af1 5F5F494E 		.ascii "__INT32_C(c) c\0"
 3153      5433325F 
 3153      43286329 
 3153      206300
 3154 0b00 01       		.byte	0x1
 3155 0b01 00       		.uleb128 0
 3156 0b02 5F5F494E 		.ascii "__INT_LEAST64_MAX__ 9223372036854775807LL\0"
 3156      545F4C45 
 3156      41535436 
 3156      345F4D41 
 3156      585F5F20 
 3157 0b2c 01       		.byte	0x1
 3158 0b2d 00       		.uleb128 0
 3159 0b2e 5F5F494E 		.ascii "__INT64_C(c) c ## LL\0"
 3159      5436345F 
 3159      43286329 
 3159      20632023 
 3159      23204C4C 
 3160 0b43 01       		.byte	0x1
 3161 0b44 00       		.uleb128 0
 3162 0b45 5F5F5549 		.ascii "__UINT_LEAST8_MAX__ 255\0"
 3162      4E545F4C 
 3162      45415354 
 3162      385F4D41 
 3162      585F5F20 
 3163 0b5d 01       		.byte	0x1
 3164 0b5e 00       		.uleb128 0
 3165 0b5f 5F5F5549 		.ascii "__UINT8_C(c) c\0"
 3165      4E54385F 
 3165      43286329 
 3165      206300
 3166 0b6e 01       		.byte	0x1
 3167 0b6f 00       		.uleb128 0
 3168 0b70 5F5F5549 		.ascii "__UINT_LEAST16_MAX__ 65535\0"
 3168      4E545F4C 
 3168      45415354 
 3168      31365F4D 
 3168      41585F5F 
GAS LISTING C:\Users\PRESID~1\AppData\Local\Temp\ccPWmP62.s 			page 87


 3169 0b8b 01       		.byte	0x1
 3170 0b8c 00       		.uleb128 0
 3171 0b8d 5F5F5549 		.ascii "__UINT16_C(c) c\0"
 3171      4E543136 
 3171      5F432863 
 3171      29206300 
 3172 0b9d 01       		.byte	0x1
 3173 0b9e 00       		.uleb128 0
 3174 0b9f 5F5F5549 		.ascii "__UINT_LEAST32_MAX__ 4294967295U\0"
 3174      4E545F4C 
 3174      45415354 
 3174      33325F4D 
 3174      41585F5F 
 3175 0bc0 01       		.byte	0x1
 3176 0bc1 00       		.uleb128 0
 3177 0bc2 5F5F5549 		.ascii "__UINT32_C(c) c ## U\0"
 3177      4E543332 
 3177      5F432863 
 3177      29206320 
 3177      23232055 
 3178 0bd7 01       		.byte	0x1
 3179 0bd8 00       		.uleb128 0
 3180 0bd9 5F5F5549 		.ascii "__UINT_LEAST64_MAX__ 18446744073709551615ULL\0"
 3180      4E545F4C 
 3180      45415354 
 3180      36345F4D 
 3180      41585F5F 
 3181 0c06 01       		.byte	0x1
 3182 0c07 00       		.uleb128 0
 3183 0c08 5F5F5549 		.ascii "__UINT64_C(c) c ## ULL\0"
 3183      4E543634 
 3183      5F432863 
 3183      29206320 
 3183      23232055 
 3184 0c1f 01       		.byte	0x1
 3185 0c20 00       		.uleb128 0
 3186 0c21 5F5F494E 		.ascii "__INT_FAST8_MAX__ 127\0"
 3186      545F4641 
 3186      5354385F 
 3186      4D41585F 
 3186      5F203132 
 3187 0c37 01       		.byte	0x1
 3188 0c38 00       		.uleb128 0
 3189 0c39 5F5F494E 		.ascii "__INT_FAST16_MAX__ 32767\0"
 3189      545F4641 
 3189      53543136 
 3189      5F4D4158 
 3189      5F5F2033 
 3190 0c52 01       		.byte	0x1
 3191 0c53 00       		.uleb128 0
 3192 0c54 5F5F494E 		.ascii "__INT_FAST32_MAX__ 2147483647\0"
 3192      545F4641 
 3192      53543332 
 3192      5F4D4158 
 3192      5F5F2032 
 3193 0c72 01       		.byte	0x1
 3194 0c73 00       		.uleb128 0
GAS LISTING C:\Users\PRESID~1\AppData\Local\Temp\ccPWmP62.s 			page 88


 3195 0c74 5F5F494E 		.ascii "__INT_FAST64_MAX__ 9223372036854775807LL\0"
 3195      545F4641 
 3195      53543634 
 3195      5F4D4158 
 3195      5F5F2039 
 3196 0c9d 01       		.byte	0x1
 3197 0c9e 00       		.uleb128 0
 3198 0c9f 5F5F5549 		.ascii "__UINT_FAST8_MAX__ 255\0"
 3198      4E545F46 
 3198      41535438 
 3198      5F4D4158 
 3198      5F5F2032 
 3199 0cb6 01       		.byte	0x1
 3200 0cb7 00       		.uleb128 0
 3201 0cb8 5F5F5549 		.ascii "__UINT_FAST16_MAX__ 65535\0"
 3201      4E545F46 
 3201      41535431 
 3201      365F4D41 
 3201      585F5F20 
 3202 0cd2 01       		.byte	0x1
 3203 0cd3 00       		.uleb128 0
 3204 0cd4 5F5F5549 		.ascii "__UINT_FAST32_MAX__ 4294967295U\0"
 3204      4E545F46 
 3204      41535433 
 3204      325F4D41 
 3204      585F5F20 
 3205 0cf4 01       		.byte	0x1
 3206 0cf5 00       		.uleb128 0
 3207 0cf6 5F5F5549 		.ascii "__UINT_FAST64_MAX__ 18446744073709551615ULL\0"
 3207      4E545F46 
 3207      41535436 
 3207      345F4D41 
 3207      585F5F20 
 3208 0d22 01       		.byte	0x1
 3209 0d23 00       		.uleb128 0
 3210 0d24 5F5F494E 		.ascii "__INTPTR_MAX__ 2147483647\0"
 3210      54505452 
 3210      5F4D4158 
 3210      5F5F2032 
 3210      31343734 
 3211 0d3e 01       		.byte	0x1
 3212 0d3f 00       		.uleb128 0
 3213 0d40 5F5F5549 		.ascii "__UINTPTR_MAX__ 4294967295U\0"
 3213      4E545054 
 3213      525F4D41 
 3213      585F5F20 
 3213      34323934 
 3214 0d5c 01       		.byte	0x1
 3215 0d5d 00       		.uleb128 0
 3216 0d5e 5F5F4743 		.ascii "__GCC_IEC_559 2\0"
 3216      435F4945 
 3216      435F3535 
 3216      39203200 
 3217 0d6e 01       		.byte	0x1
 3218 0d6f 00       		.uleb128 0
 3219 0d70 5F5F4743 		.ascii "__GCC_IEC_559_COMPLEX 2\0"
 3219      435F4945 
GAS LISTING C:\Users\PRESID~1\AppData\Local\Temp\ccPWmP62.s 			page 89


 3219      435F3535 
 3219      395F434F 
 3219      4D504C45 
 3220 0d88 01       		.byte	0x1
 3221 0d89 00       		.uleb128 0
 3222 0d8a 5F5F464C 		.ascii "__FLT_EVAL_METHOD__ 2\0"
 3222      545F4556 
 3222      414C5F4D 
 3222      4554484F 
 3222      445F5F20 
 3223 0da0 01       		.byte	0x1
 3224 0da1 00       		.uleb128 0
 3225 0da2 5F5F4445 		.ascii "__DEC_EVAL_METHOD__ 2\0"
 3225      435F4556 
 3225      414C5F4D 
 3225      4554484F 
 3225      445F5F20 
 3226 0db8 01       		.byte	0x1
 3227 0db9 00       		.uleb128 0
 3228 0dba 5F5F464C 		.ascii "__FLT_RADIX__ 2\0"
 3228      545F5241 
 3228      4449585F 
 3228      5F203200 
 3229 0dca 01       		.byte	0x1
 3230 0dcb 00       		.uleb128 0
 3231 0dcc 5F5F464C 		.ascii "__FLT_MANT_DIG__ 24\0"
 3231      545F4D41 
 3231      4E545F44 
 3231      49475F5F 
 3231      20323400 
 3232 0de0 01       		.byte	0x1
 3233 0de1 00       		.uleb128 0
 3234 0de2 5F5F464C 		.ascii "__FLT_DIG__ 6\0"
 3234      545F4449 
 3234      475F5F20 
 3234      3600
 3235 0df0 01       		.byte	0x1
 3236 0df1 00       		.uleb128 0
 3237 0df2 5F5F464C 		.ascii "__FLT_MIN_EXP__ (-125)\0"
 3237      545F4D49 
 3237      4E5F4558 
 3237      505F5F20 
 3237      282D3132 
 3238 0e09 01       		.byte	0x1
 3239 0e0a 00       		.uleb128 0
 3240 0e0b 5F5F464C 		.ascii "__FLT_MIN_10_EXP__ (-37)\0"
 3240      545F4D49 
 3240      4E5F3130 
 3240      5F455850 
 3240      5F5F2028 
 3241 0e24 01       		.byte	0x1
 3242 0e25 00       		.uleb128 0
 3243 0e26 5F5F464C 		.ascii "__FLT_MAX_EXP__ 128\0"
 3243      545F4D41 
 3243      585F4558 
 3243      505F5F20 
 3243      31323800 
GAS LISTING C:\Users\PRESID~1\AppData\Local\Temp\ccPWmP62.s 			page 90


 3244 0e3a 01       		.byte	0x1
 3245 0e3b 00       		.uleb128 0
 3246 0e3c 5F5F464C 		.ascii "__FLT_MAX_10_EXP__ 38\0"
 3246      545F4D41 
 3246      585F3130 
 3246      5F455850 
 3246      5F5F2033 
 3247 0e52 01       		.byte	0x1
 3248 0e53 00       		.uleb128 0
 3249 0e54 5F5F464C 		.ascii "__FLT_DECIMAL_DIG__ 9\0"
 3249      545F4445 
 3249      43494D41 
 3249      4C5F4449 
 3249      475F5F20 
 3250 0e6a 01       		.byte	0x1
 3251 0e6b 00       		.uleb128 0
 3252 0e6c 5F5F464C 		.ascii "__FLT_MAX__ 3.40282346638528859812e+38F\0"
 3252      545F4D41 
 3252      585F5F20 
 3252      332E3430 
 3252      32383233 
 3253 0e94 01       		.byte	0x1
 3254 0e95 00       		.uleb128 0
 3255 0e96 5F5F464C 		.ascii "__FLT_MIN__ 1.17549435082228750797e-38F\0"
 3255      545F4D49 
 3255      4E5F5F20 
 3255      312E3137 
 3255      35343934 
 3256 0ebe 01       		.byte	0x1
 3257 0ebf 00       		.uleb128 0
 3258 0ec0 5F5F464C 		.ascii "__FLT_EPSILON__ 1.19209289550781250000e-7F\0"
 3258      545F4550 
 3258      53494C4F 
 3258      4E5F5F20 
 3258      312E3139 
 3259 0eeb 01       		.byte	0x1
 3260 0eec 00       		.uleb128 0
 3261 0eed 5F5F464C 		.ascii "__FLT_DENORM_MIN__ 1.40129846432481707092e-45F\0"
 3261      545F4445 
 3261      4E4F524D 
 3261      5F4D494E 
 3261      5F5F2031 
 3262 0f1c 01       		.byte	0x1
 3263 0f1d 00       		.uleb128 0
 3264 0f1e 5F5F464C 		.ascii "__FLT_HAS_DENORM__ 1\0"
 3264      545F4841 
 3264      535F4445 
 3264      4E4F524D 
 3264      5F5F2031 
 3265 0f33 01       		.byte	0x1
 3266 0f34 00       		.uleb128 0
 3267 0f35 5F5F464C 		.ascii "__FLT_HAS_INFINITY__ 1\0"
 3267      545F4841 
 3267      535F494E 
 3267      46494E49 
 3267      54595F5F 
 3268 0f4c 01       		.byte	0x1
GAS LISTING C:\Users\PRESID~1\AppData\Local\Temp\ccPWmP62.s 			page 91


 3269 0f4d 00       		.uleb128 0
 3270 0f4e 5F5F464C 		.ascii "__FLT_HAS_QUIET_NAN__ 1\0"
 3270      545F4841 
 3270      535F5155 
 3270      4945545F 
 3270      4E414E5F 
 3271 0f66 01       		.byte	0x1
 3272 0f67 00       		.uleb128 0
 3273 0f68 5F5F4442 		.ascii "__DBL_MANT_DIG__ 53\0"
 3273      4C5F4D41 
 3273      4E545F44 
 3273      49475F5F 
 3273      20353300 
 3274 0f7c 01       		.byte	0x1
 3275 0f7d 00       		.uleb128 0
 3276 0f7e 5F5F4442 		.ascii "__DBL_DIG__ 15\0"
 3276      4C5F4449 
 3276      475F5F20 
 3276      313500
 3277 0f8d 01       		.byte	0x1
 3278 0f8e 00       		.uleb128 0
 3279 0f8f 5F5F4442 		.ascii "__DBL_MIN_EXP__ (-1021)\0"
 3279      4C5F4D49 
 3279      4E5F4558 
 3279      505F5F20 
 3279      282D3130 
 3280 0fa7 01       		.byte	0x1
 3281 0fa8 00       		.uleb128 0
 3282 0fa9 5F5F4442 		.ascii "__DBL_MIN_10_EXP__ (-307)\0"
 3282      4C5F4D49 
 3282      4E5F3130 
 3282      5F455850 
 3282      5F5F2028 
 3283 0fc3 01       		.byte	0x1
 3284 0fc4 00       		.uleb128 0
 3285 0fc5 5F5F4442 		.ascii "__DBL_MAX_EXP__ 1024\0"
 3285      4C5F4D41 
 3285      585F4558 
 3285      505F5F20 
 3285      31303234 
 3286 0fda 01       		.byte	0x1
 3287 0fdb 00       		.uleb128 0
 3288 0fdc 5F5F4442 		.ascii "__DBL_MAX_10_EXP__ 308\0"
 3288      4C5F4D41 
 3288      585F3130 
 3288      5F455850 
 3288      5F5F2033 
 3289 0ff3 01       		.byte	0x1
 3290 0ff4 00       		.uleb128 0
 3291 0ff5 5F5F4442 		.ascii "__DBL_DECIMAL_DIG__ 17\0"
 3291      4C5F4445 
 3291      43494D41 
 3291      4C5F4449 
 3291      475F5F20 
 3292 100c 01       		.byte	0x1
 3293 100d 00       		.uleb128 0
 3294 100e 5F5F4442 		.ascii "__DBL_MAX__ ((double)1.79769313486231570815e+308L)\0"
GAS LISTING C:\Users\PRESID~1\AppData\Local\Temp\ccPWmP62.s 			page 92


 3294      4C5F4D41 
 3294      585F5F20 
 3294      2828646F 
 3294      75626C65 
 3295 1041 01       		.byte	0x1
 3296 1042 00       		.uleb128 0
 3297 1043 5F5F4442 		.ascii "__DBL_MIN__ ((double)2.22507385850720138309e-308L)\0"
 3297      4C5F4D49 
 3297      4E5F5F20 
 3297      2828646F 
 3297      75626C65 
 3298 1076 01       		.byte	0x1
 3299 1077 00       		.uleb128 0
 3300 1078 5F5F4442 		.ascii "__DBL_EPSILON__ ((double)2.22044604925031308085e-16L)\0"
 3300      4C5F4550 
 3300      53494C4F 
 3300      4E5F5F20 
 3300      2828646F 
 3301 10ae 01       		.byte	0x1
 3302 10af 00       		.uleb128 0
 3303 10b0 5F5F4442 		.ascii "__DBL_DENORM_MIN__ ((double)4.94065645841246544177e-324L)\0"
 3303      4C5F4445 
 3303      4E4F524D 
 3303      5F4D494E 
 3303      5F5F2028 
 3304 10ea 01       		.byte	0x1
 3305 10eb 00       		.uleb128 0
 3306 10ec 5F5F4442 		.ascii "__DBL_HAS_DENORM__ 1\0"
 3306      4C5F4841 
 3306      535F4445 
 3306      4E4F524D 
 3306      5F5F2031 
 3307 1101 01       		.byte	0x1
 3308 1102 00       		.uleb128 0
 3309 1103 5F5F4442 		.ascii "__DBL_HAS_INFINITY__ 1\0"
 3309      4C5F4841 
 3309      535F494E 
 3309      46494E49 
 3309      54595F5F 
 3310 111a 01       		.byte	0x1
 3311 111b 00       		.uleb128 0
 3312 111c 5F5F4442 		.ascii "__DBL_HAS_QUIET_NAN__ 1\0"
 3312      4C5F4841 
 3312      535F5155 
 3312      4945545F 
 3312      4E414E5F 
 3313 1134 01       		.byte	0x1
 3314 1135 00       		.uleb128 0
 3315 1136 5F5F4C44 		.ascii "__LDBL_MANT_DIG__ 64\0"
 3315      424C5F4D 
 3315      414E545F 
 3315      4449475F 
 3315      5F203634 
 3316 114b 01       		.byte	0x1
 3317 114c 00       		.uleb128 0
 3318 114d 5F5F4C44 		.ascii "__LDBL_DIG__ 18\0"
 3318      424C5F44 
GAS LISTING C:\Users\PRESID~1\AppData\Local\Temp\ccPWmP62.s 			page 93


 3318      49475F5F 
 3318      20313800 
 3319 115d 01       		.byte	0x1
 3320 115e 00       		.uleb128 0
 3321 115f 5F5F4C44 		.ascii "__LDBL_MIN_EXP__ (-16381)\0"
 3321      424C5F4D 
 3321      494E5F45 
 3321      58505F5F 
 3321      20282D31 
 3322 1179 01       		.byte	0x1
 3323 117a 00       		.uleb128 0
 3324 117b 5F5F4C44 		.ascii "__LDBL_MIN_10_EXP__ (-4931)\0"
 3324      424C5F4D 
 3324      494E5F31 
 3324      305F4558 
 3324      505F5F20 
 3325 1197 01       		.byte	0x1
 3326 1198 00       		.uleb128 0
 3327 1199 5F5F4C44 		.ascii "__LDBL_MAX_EXP__ 16384\0"
 3327      424C5F4D 
 3327      41585F45 
 3327      58505F5F 
 3327      20313633 
 3328 11b0 01       		.byte	0x1
 3329 11b1 00       		.uleb128 0
 3330 11b2 5F5F4C44 		.ascii "__LDBL_MAX_10_EXP__ 4932\0"
 3330      424C5F4D 
 3330      41585F31 
 3330      305F4558 
 3330      505F5F20 
 3331 11cb 01       		.byte	0x1
 3332 11cc 00       		.uleb128 0
 3333 11cd 5F5F4445 		.ascii "__DECIMAL_DIG__ 21\0"
 3333      43494D41 
 3333      4C5F4449 
 3333      475F5F20 
 3333      323100
 3334 11e0 01       		.byte	0x1
 3335 11e1 00       		.uleb128 0
 3336 11e2 5F5F4C44 		.ascii "__LDBL_MAX__ 1.18973149535723176502e+4932L\0"
 3336      424C5F4D 
 3336      41585F5F 
 3336      20312E31 
 3336      38393733 
 3337 120d 01       		.byte	0x1
 3338 120e 00       		.uleb128 0
 3339 120f 5F5F4C44 		.ascii "__LDBL_MIN__ 3.36210314311209350626e-4932L\0"
 3339      424C5F4D 
 3339      494E5F5F 
 3339      20332E33 
 3339      36323130 
 3340 123a 01       		.byte	0x1
 3341 123b 00       		.uleb128 0
 3342 123c 5F5F4C44 		.ascii "__LDBL_EPSILON__ 1.08420217248550443401e-19L\0"
 3342      424C5F45 
 3342      5053494C 
 3342      4F4E5F5F 
GAS LISTING C:\Users\PRESID~1\AppData\Local\Temp\ccPWmP62.s 			page 94


 3342      20312E30 
 3343 1269 01       		.byte	0x1
 3344 126a 00       		.uleb128 0
 3345 126b 5F5F4C44 		.ascii "__LDBL_DENORM_MIN__ 3.64519953188247460253e-4951L\0"
 3345      424C5F44 
 3345      454E4F52 
 3345      4D5F4D49 
 3345      4E5F5F20 
 3346 129d 01       		.byte	0x1
 3347 129e 00       		.uleb128 0
 3348 129f 5F5F4C44 		.ascii "__LDBL_HAS_DENORM__ 1\0"
 3348      424C5F48 
 3348      41535F44 
 3348      454E4F52 
 3348      4D5F5F20 
 3349 12b5 01       		.byte	0x1
 3350 12b6 00       		.uleb128 0
 3351 12b7 5F5F4C44 		.ascii "__LDBL_HAS_INFINITY__ 1\0"
 3351      424C5F48 
 3351      41535F49 
 3351      4E46494E 
 3351      4954595F 
 3352 12cf 01       		.byte	0x1
 3353 12d0 00       		.uleb128 0
 3354 12d1 5F5F4C44 		.ascii "__LDBL_HAS_QUIET_NAN__ 1\0"
 3354      424C5F48 
 3354      41535F51 
 3354      55494554 
 3354      5F4E414E 
 3355 12ea 01       		.byte	0x1
 3356 12eb 00       		.uleb128 0
 3357 12ec 5F5F4445 		.ascii "__DEC32_MANT_DIG__ 7\0"
 3357      4333325F 
 3357      4D414E54 
 3357      5F444947 
 3357      5F5F2037 
 3358 1301 01       		.byte	0x1
 3359 1302 00       		.uleb128 0
 3360 1303 5F5F4445 		.ascii "__DEC32_MIN_EXP__ (-94)\0"
 3360      4333325F 
 3360      4D494E5F 
 3360      4558505F 
 3360      5F20282D 
 3361 131b 01       		.byte	0x1
 3362 131c 00       		.uleb128 0
 3363 131d 5F5F4445 		.ascii "__DEC32_MAX_EXP__ 97\0"
 3363      4333325F 
 3363      4D41585F 
 3363      4558505F 
 3363      5F203937 
 3364 1332 01       		.byte	0x1
 3365 1333 00       		.uleb128 0
 3366 1334 5F5F4445 		.ascii "__DEC32_MIN__ 1E-95DF\0"
 3366      4333325F 
 3366      4D494E5F 
 3366      5F203145 
 3366      2D393544 
GAS LISTING C:\Users\PRESID~1\AppData\Local\Temp\ccPWmP62.s 			page 95


 3367 134a 01       		.byte	0x1
 3368 134b 00       		.uleb128 0
 3369 134c 5F5F4445 		.ascii "__DEC32_MAX__ 9.999999E96DF\0"
 3369      4333325F 
 3369      4D41585F 
 3369      5F20392E 
 3369      39393939 
 3370 1368 01       		.byte	0x1
 3371 1369 00       		.uleb128 0
 3372 136a 5F5F4445 		.ascii "__DEC32_EPSILON__ 1E-6DF\0"
 3372      4333325F 
 3372      45505349 
 3372      4C4F4E5F 
 3372      5F203145 
 3373 1383 01       		.byte	0x1
 3374 1384 00       		.uleb128 0
 3375 1385 5F5F4445 		.ascii "__DEC32_SUBNORMAL_MIN__ 0.000001E-95DF\0"
 3375      4333325F 
 3375      5355424E 
 3375      4F524D41 
 3375      4C5F4D49 
 3376 13ac 01       		.byte	0x1
 3377 13ad 00       		.uleb128 0
 3378 13ae 5F5F4445 		.ascii "__DEC64_MANT_DIG__ 16\0"
 3378      4336345F 
 3378      4D414E54 
 3378      5F444947 
 3378      5F5F2031 
 3379 13c4 01       		.byte	0x1
 3380 13c5 00       		.uleb128 0
 3381 13c6 5F5F4445 		.ascii "__DEC64_MIN_EXP__ (-382)\0"
 3381      4336345F 
 3381      4D494E5F 
 3381      4558505F 
 3381      5F20282D 
 3382 13df 01       		.byte	0x1
 3383 13e0 00       		.uleb128 0
 3384 13e1 5F5F4445 		.ascii "__DEC64_MAX_EXP__ 385\0"
 3384      4336345F 
 3384      4D41585F 
 3384      4558505F 
 3384      5F203338 
 3385 13f7 01       		.byte	0x1
 3386 13f8 00       		.uleb128 0
 3387 13f9 5F5F4445 		.ascii "__DEC64_MIN__ 1E-383DD\0"
 3387      4336345F 
 3387      4D494E5F 
 3387      5F203145 
 3387      2D333833 
 3388 1410 01       		.byte	0x1
 3389 1411 00       		.uleb128 0
 3390 1412 5F5F4445 		.ascii "__DEC64_MAX__ 9.999999999999999E384DD\0"
 3390      4336345F 
 3390      4D41585F 
 3390      5F20392E 
 3390      39393939 
 3391 1438 01       		.byte	0x1
GAS LISTING C:\Users\PRESID~1\AppData\Local\Temp\ccPWmP62.s 			page 96


 3392 1439 00       		.uleb128 0
 3393 143a 5F5F4445 		.ascii "__DEC64_EPSILON__ 1E-15DD\0"
 3393      4336345F 
 3393      45505349 
 3393      4C4F4E5F 
 3393      5F203145 
 3394 1454 01       		.byte	0x1
 3395 1455 00       		.uleb128 0
 3396 1456 5F5F4445 		.ascii "__DEC64_SUBNORMAL_MIN__ 0.000000000000001E-383DD\0"
 3396      4336345F 
 3396      5355424E 
 3396      4F524D41 
 3396      4C5F4D49 
 3397 1487 01       		.byte	0x1
 3398 1488 00       		.uleb128 0
 3399 1489 5F5F4445 		.ascii "__DEC128_MANT_DIG__ 34\0"
 3399      43313238 
 3399      5F4D414E 
 3399      545F4449 
 3399      475F5F20 
 3400 14a0 01       		.byte	0x1
 3401 14a1 00       		.uleb128 0
 3402 14a2 5F5F4445 		.ascii "__DEC128_MIN_EXP__ (-6142)\0"
 3402      43313238 
 3402      5F4D494E 
 3402      5F455850 
 3402      5F5F2028 
 3403 14bd 01       		.byte	0x1
 3404 14be 00       		.uleb128 0
 3405 14bf 5F5F4445 		.ascii "__DEC128_MAX_EXP__ 6145\0"
 3405      43313238 
 3405      5F4D4158 
 3405      5F455850 
 3405      5F5F2036 
 3406 14d7 01       		.byte	0x1
 3407 14d8 00       		.uleb128 0
 3408 14d9 5F5F4445 		.ascii "__DEC128_MIN__ 1E-6143DL\0"
 3408      43313238 
 3408      5F4D494E 
 3408      5F5F2031 
 3408      452D3631 
 3409 14f2 01       		.byte	0x1
 3410 14f3 00       		.uleb128 0
 3411 14f4 5F5F4445 		.ascii "__DEC128_MAX__ 9.999999999999999999999999999999999E6144DL\0"
 3411      43313238 
 3411      5F4D4158 
 3411      5F5F2039 
 3411      2E393939 
 3412 152e 01       		.byte	0x1
 3413 152f 00       		.uleb128 0
 3414 1530 5F5F4445 		.ascii "__DEC128_EPSILON__ 1E-33DL\0"
 3414      43313238 
 3414      5F455053 
 3414      494C4F4E 
 3414      5F5F2031 
 3415 154b 01       		.byte	0x1
 3416 154c 00       		.uleb128 0
GAS LISTING C:\Users\PRESID~1\AppData\Local\Temp\ccPWmP62.s 			page 97


 3417 154d 5F5F4445 		.ascii "__DEC128_SUBNORMAL_MIN__ 0.000000000000000000000000000000001E-6143DL\0"
 3417      43313238 
 3417      5F535542 
 3417      4E4F524D 
 3417      414C5F4D 
 3418 1592 01       		.byte	0x1
 3419 1593 00       		.uleb128 0
 3420 1594 5F5F5245 		.ascii "__REGISTER_PREFIX__ \0"
 3420      47495354 
 3420      45525F50 
 3420      52454649 
 3420      585F5F20 
 3421 15a9 01       		.byte	0x1
 3422 15aa 00       		.uleb128 0
 3423 15ab 5F5F5553 		.ascii "__USER_LABEL_PREFIX__ _\0"
 3423      45525F4C 
 3423      4142454C 
 3423      5F505245 
 3423      4649585F 
 3424 15c3 01       		.byte	0x1
 3425 15c4 00       		.uleb128 0
 3426 15c5 5F5F474E 		.ascii "__GNUC_GNU_INLINE__ 1\0"
 3426      55435F47 
 3426      4E555F49 
 3426      4E4C494E 
 3426      455F5F20 
 3427 15db 01       		.byte	0x1
 3428 15dc 00       		.uleb128 0
 3429 15dd 5F5F4E4F 		.ascii "__NO_INLINE__ 1\0"
 3429      5F494E4C 
 3429      494E455F 
 3429      5F203100 
 3430 15ed 01       		.byte	0x1
 3431 15ee 00       		.uleb128 0
 3432 15ef 5F5F5354 		.ascii "__STRICT_ANSI__ 1\0"
 3432      52494354 
 3432      5F414E53 
 3432      495F5F20 
 3432      3100
 3433 1601 01       		.byte	0x1
 3434 1602 00       		.uleb128 0
 3435 1603 5F5F4743 		.ascii "__GCC_ATOMIC_BOOL_LOCK_FREE 1\0"
 3435      435F4154 
 3435      4F4D4943 
 3435      5F424F4F 
 3435      4C5F4C4F 
 3436 1621 01       		.byte	0x1
 3437 1622 00       		.uleb128 0
 3438 1623 5F5F4743 		.ascii "__GCC_ATOMIC_CHAR_LOCK_FREE 1\0"
 3438      435F4154 
 3438      4F4D4943 
 3438      5F434841 
 3438      525F4C4F 
 3439 1641 01       		.byte	0x1
 3440 1642 00       		.uleb128 0
 3441 1643 5F5F4743 		.ascii "__GCC_ATOMIC_CHAR16_T_LOCK_FREE 1\0"
 3441      435F4154 
GAS LISTING C:\Users\PRESID~1\AppData\Local\Temp\ccPWmP62.s 			page 98


 3441      4F4D4943 
 3441      5F434841 
 3441      5231365F 
 3442 1665 01       		.byte	0x1
 3443 1666 00       		.uleb128 0
 3444 1667 5F5F4743 		.ascii "__GCC_ATOMIC_CHAR32_T_LOCK_FREE 1\0"
 3444      435F4154 
 3444      4F4D4943 
 3444      5F434841 
 3444      5233325F 
 3445 1689 01       		.byte	0x1
 3446 168a 00       		.uleb128 0
 3447 168b 5F5F4743 		.ascii "__GCC_ATOMIC_WCHAR_T_LOCK_FREE 1\0"
 3447      435F4154 
 3447      4F4D4943 
 3447      5F574348 
 3447      41525F54 
 3448 16ac 01       		.byte	0x1
 3449 16ad 00       		.uleb128 0
 3450 16ae 5F5F4743 		.ascii "__GCC_ATOMIC_SHORT_LOCK_FREE 1\0"
 3450      435F4154 
 3450      4F4D4943 
 3450      5F53484F 
 3450      52545F4C 
 3451 16cd 01       		.byte	0x1
 3452 16ce 00       		.uleb128 0
 3453 16cf 5F5F4743 		.ascii "__GCC_ATOMIC_INT_LOCK_FREE 1\0"
 3453      435F4154 
 3453      4F4D4943 
 3453      5F494E54 
 3453      5F4C4F43 
 3454 16ec 01       		.byte	0x1
 3455 16ed 00       		.uleb128 0
 3456 16ee 5F5F4743 		.ascii "__GCC_ATOMIC_LONG_LOCK_FREE 1\0"
 3456      435F4154 
 3456      4F4D4943 
 3456      5F4C4F4E 
 3456      475F4C4F 
 3457 170c 01       		.byte	0x1
 3458 170d 00       		.uleb128 0
 3459 170e 5F5F4743 		.ascii "__GCC_ATOMIC_LLONG_LOCK_FREE 1\0"
 3459      435F4154 
 3459      4F4D4943 
 3459      5F4C4C4F 
 3459      4E475F4C 
 3460 172d 01       		.byte	0x1
 3461 172e 00       		.uleb128 0
 3462 172f 5F5F4743 		.ascii "__GCC_ATOMIC_TEST_AND_SET_TRUEVAL 1\0"
 3462      435F4154 
 3462      4F4D4943 
 3462      5F544553 
 3462      545F414E 
 3463 1753 01       		.byte	0x1
 3464 1754 00       		.uleb128 0
 3465 1755 5F5F4743 		.ascii "__GCC_ATOMIC_POINTER_LOCK_FREE 1\0"
 3465      435F4154 
 3465      4F4D4943 
GAS LISTING C:\Users\PRESID~1\AppData\Local\Temp\ccPWmP62.s 			page 99


 3465      5F504F49 
 3465      4E544552 
 3466 1776 01       		.byte	0x1
 3467 1777 00       		.uleb128 0
 3468 1778 5F5F4743 		.ascii "__GCC_HAVE_DWARF2_CFI_ASM 1\0"
 3468      435F4841 
 3468      56455F44 
 3468      57415246 
 3468      325F4346 
 3469 1794 01       		.byte	0x1
 3470 1795 00       		.uleb128 0
 3471 1796 5F5F5052 		.ascii "__PRAGMA_REDEFINE_EXTNAME 1\0"
 3471      41474D41 
 3471      5F524544 
 3471      4546494E 
 3471      455F4558 
 3472 17b2 01       		.byte	0x1
 3473 17b3 00       		.uleb128 0
 3474 17b4 5F5F5349 		.ascii "__SIZEOF_WCHAR_T__ 2\0"
 3474      5A454F46 
 3474      5F574348 
 3474      41525F54 
 3474      5F5F2032 
 3475 17c9 01       		.byte	0x1
 3476 17ca 00       		.uleb128 0
 3477 17cb 5F5F5349 		.ascii "__SIZEOF_WINT_T__ 2\0"
 3477      5A454F46 
 3477      5F57494E 
 3477      545F545F 
 3477      5F203200 
 3478 17df 01       		.byte	0x1
 3479 17e0 00       		.uleb128 0
 3480 17e1 5F5F5349 		.ascii "__SIZEOF_PTRDIFF_T__ 4\0"
 3480      5A454F46 
 3480      5F505452 
 3480      44494646 
 3480      5F545F5F 
 3481 17f8 01       		.byte	0x1
 3482 17f9 00       		.uleb128 0
 3483 17fa 5F5F6933 		.ascii "__i386 1\0"
 3483      38362031 
 3483      00
 3484 1803 01       		.byte	0x1
 3485 1804 00       		.uleb128 0
 3486 1805 5F5F6933 		.ascii "__i386__ 1\0"
 3486      38365F5F 
 3486      203100
 3487 1810 01       		.byte	0x1
 3488 1811 00       		.uleb128 0
 3489 1812 5F5F4154 		.ascii "__ATOMIC_HLE_ACQUIRE 65536\0"
 3489      4F4D4943 
 3489      5F484C45 
 3489      5F414351 
 3489      55495245 
 3490 182d 01       		.byte	0x1
 3491 182e 00       		.uleb128 0
 3492 182f 5F5F4154 		.ascii "__ATOMIC_HLE_RELEASE 131072\0"
GAS LISTING C:\Users\PRESID~1\AppData\Local\Temp\ccPWmP62.s 			page 100


 3492      4F4D4943 
 3492      5F484C45 
 3492      5F52454C 
 3492      45415345 
 3493 184b 01       		.byte	0x1
 3494 184c 00       		.uleb128 0
 3495 184d 5F5F7475 		.ascii "__tune_i386__ 1\0"
 3495      6E655F69 
 3495      3338365F 
 3495      5F203100 
 3496 185d 01       		.byte	0x1
 3497 185e 00       		.uleb128 0
 3498 185f 5F5F636F 		.ascii "__code_model_32__ 1\0"
 3498      64655F6D 
 3498      6F64656C 
 3498      5F33325F 
 3498      5F203100 
 3499 1873 01       		.byte	0x1
 3500 1874 00       		.uleb128 0
 3501 1875 5F583836 		.ascii "_X86_ 1\0"
 3501      5F203100 
 3502 187d 01       		.byte	0x1
 3503 187e 00       		.uleb128 0
 3504 187f 5F5F7374 		.ascii "__stdcall __attribute__((__stdcall__))\0"
 3504      6463616C 
 3504      6C205F5F 
 3504      61747472 
 3504      69627574 
 3505 18a6 01       		.byte	0x1
 3506 18a7 00       		.uleb128 0
 3507 18a8 5F5F6661 		.ascii "__fastcall __attribute__((__fastcall__))\0"
 3507      73746361 
 3507      6C6C205F 
 3507      5F617474 
 3507      72696275 
 3508 18d1 01       		.byte	0x1
 3509 18d2 00       		.uleb128 0
 3510 18d3 5F5F7468 		.ascii "__thiscall __attribute__((__thiscall__))\0"
 3510      69736361 
 3510      6C6C205F 
 3510      5F617474 
 3510      72696275 
 3511 18fc 01       		.byte	0x1
 3512 18fd 00       		.uleb128 0
 3513 18fe 5F5F6364 		.ascii "__cdecl __attribute__((__cdecl__))\0"
 3513      65636C20 
 3513      5F5F6174 
 3513      74726962 
 3513      7574655F 
 3514 1921 01       		.byte	0x1
 3515 1922 00       		.uleb128 0
 3516 1923 5F5F4758 		.ascii "__GXX_MERGED_TYPEINFO_NAMES 0\0"
 3516      585F4D45 
 3516      52474544 
 3516      5F545950 
 3516      45494E46 
 3517 1941 01       		.byte	0x1
GAS LISTING C:\Users\PRESID~1\AppData\Local\Temp\ccPWmP62.s 			page 101


 3518 1942 00       		.uleb128 0
 3519 1943 5F5F4758 		.ascii "__GXX_TYPEINFO_EQUALITY_INLINE 0\0"
 3519      585F5459 
 3519      5045494E 
 3519      464F5F45 
 3519      5155414C 
 3520 1964 01       		.byte	0x1
 3521 1965 00       		.uleb128 0
 3522 1966 5F5F4D53 		.ascii "__MSVCRT__ 1\0"
 3522      56435254 
 3522      5F5F2031 
 3522      00
 3523 1973 01       		.byte	0x1
 3524 1974 00       		.uleb128 0
 3525 1975 5F5F4D49 		.ascii "__MINGW32__ 1\0"
 3525      4E475733 
 3525      325F5F20 
 3525      3100
 3526 1983 01       		.byte	0x1
 3527 1984 00       		.uleb128 0
 3528 1985 5F57494E 		.ascii "_WIN32 1\0"
 3528      33322031 
 3528      00
 3529 198e 01       		.byte	0x1
 3530 198f 00       		.uleb128 0
 3531 1990 5F5F5749 		.ascii "__WIN32 1\0"
 3531      4E333220 
 3531      3100
 3532 199a 01       		.byte	0x1
 3533 199b 00       		.uleb128 0
 3534 199c 5F5F5749 		.ascii "__WIN32__ 1\0"
 3534      4E33325F 
 3534      5F203100 
 3535 19a8 01       		.byte	0x1
 3536 19a9 00       		.uleb128 0
 3537 19aa 5F5F5749 		.ascii "__WINNT 1\0"
 3537      4E4E5420 
 3537      3100
 3538 19b4 01       		.byte	0x1
 3539 19b5 00       		.uleb128 0
 3540 19b6 5F5F5749 		.ascii "__WINNT__ 1\0"
 3540      4E4E545F 
 3540      5F203100 
 3541 19c2 01       		.byte	0x1
 3542 19c3 00       		.uleb128 0
 3543 19c4 5F494E54 		.ascii "_INTEGRAL_MAX_BITS 64\0"
 3543      45475241 
 3543      4C5F4D41 
 3543      585F4249 
 3543      54532036 
 3544 19da 01       		.byte	0x1
 3545 19db 00       		.uleb128 0
 3546 19dc 5F5F6465 		.ascii "__declspec(x) __attribute__((x))\0"
 3546      636C7370 
 3546      65632878 
 3546      29205F5F 
 3546      61747472 
GAS LISTING C:\Users\PRESID~1\AppData\Local\Temp\ccPWmP62.s 			page 102


 3547 19fd 01       		.byte	0x1
 3548 19fe 00       		.uleb128 0
 3549 19ff 5F5F4445 		.ascii "__DECIMAL_BID_FORMAT__ 1\0"
 3549      43494D41 
 3549      4C5F4249 
 3549      445F464F 
 3549      524D4154 
 3550 1a18 01       		.byte	0x1
 3551 1a19 00       		.uleb128 0
 3552 1a1a 4346475F 		.ascii "CFG_PROCESSOR 3\0"
 3552      50524F43 
 3552      4553534F 
 3552      52203300 
 3553 1a2a 03       		.byte	0x3
 3554 1a2b 00       		.uleb128 0
 3555 1a2c 01       		.uleb128 0x1
 3556              		.file 8 "E:/NeuOrga/Programmieren/c_cpp/github_os/input/src/os_base/os_firstinc.h"
 3557 1a2d 03       		.byte	0x3
 3558 1a2e 01       		.uleb128 0x1
 3559 1a2f 08       		.uleb128 0x8
 3560 1a30 01       		.byte	0x1
 3561 1a31 02       		.uleb128 0x2
 3562 1a32 5F4F535F 		.ascii "_OS_FIRSTINC_H_ \0"
 3562      46495253 
 3562      54494E43 
 3562      5F485F20 
 3562      00
 3563              		.file 9 "E:/NeuOrga/Programmieren/c_cpp/github_os/input/src/os_base/../os_config.h"
 3564 1a43 03       		.byte	0x3
 3565 1a44 04       		.uleb128 0x4
 3566 1a45 09       		.uleb128 0x9
 3567 1a46 01       		.byte	0x1
 3568 1a47 02       		.uleb128 0x2
 3569 1a48 5F4F535F 		.ascii "_OS_CONFIG_H_ \0"
 3569      434F4E46 
 3569      49475F48 
 3569      5F2000
 3570 1a57 01       		.byte	0x1
 3571 1a58 05       		.uleb128 0x5
 3572 1a59 494E5445 		.ascii "INTEGER_LLP64_IL32P64 1u\0"
 3572      4745525F 
 3572      4C4C5036 
 3572      345F494C 
 3572      33325036 
 3573 1a72 01       		.byte	0x1
 3574 1a73 06       		.uleb128 0x6
 3575 1a74 494E5445 		.ascii "INTEGER_LP64_I32LP64 2u\0"
 3575      4745525F 
 3575      4C503634 
 3575      5F493332 
 3575      4C503634 
 3576 1a8c 01       		.byte	0x1
 3577 1a8d 07       		.uleb128 0x7
 3578 1a8e 494E5445 		.ascii "INTEGER_ILP64 3u\0"
 3578      4745525F 
 3578      494C5036 
 3578      34203375 
GAS LISTING C:\Users\PRESID~1\AppData\Local\Temp\ccPWmP62.s 			page 103


 3578      00
 3579 1a9f 01       		.byte	0x1
 3580 1aa0 08       		.uleb128 0x8
 3581 1aa1 494E5445 		.ascii "INTEGER_SILP64 4u\0"
 3581      4745525F 
 3581      53494C50 
 3581      36342034 
 3581      7500
 3582 1ab3 01       		.byte	0x1
 3583 1ab4 09       		.uleb128 0x9
 3584 1ab5 494E5445 		.ascii "INTEGER_MODEL INTEGER_LLP64_IL32P64\0"
 3584      4745525F 
 3584      4D4F4445 
 3584      4C20494E 
 3584      54454745 
 3585 1ad9 01       		.byte	0x1
 3586 1ada 0C       		.uleb128 0xc
 3587 1adb 4350505F 		.ascii "CPP_VERSION_NONE 0u\0"
 3587      56455253 
 3587      494F4E5F 
 3587      4E4F4E45 
 3587      20307500 
 3588 1aef 01       		.byte	0x1
 3589 1af0 0D       		.uleb128 0xd
 3590 1af1 4350505F 		.ascii "CPP_VERSION_1998 1u\0"
 3590      56455253 
 3590      494F4E5F 
 3590      31393938 
 3590      20317500 
 3591 1b05 01       		.byte	0x1
 3592 1b06 0E       		.uleb128 0xe
 3593 1b07 4350505F 		.ascii "CPP_VERSION_2003 2u\0"
 3593      56455253 
 3593      494F4E5F 
 3593      32303033 
 3593      20327500 
 3594 1b1b 01       		.byte	0x1
 3595 1b1c 0F       		.uleb128 0xf
 3596 1b1d 4350505F 		.ascii "CPP_VERSION_2007 3u\0"
 3596      56455253 
 3596      494F4E5F 
 3596      32303037 
 3596      20337500 
 3597 1b31 01       		.byte	0x1
 3598 1b32 10       		.uleb128 0x10
 3599 1b33 4350505F 		.ascii "CPP_VERSION_2011 4u\0"
 3599      56455253 
 3599      494F4E5F 
 3599      32303131 
 3599      20347500 
 3600 1b47 01       		.byte	0x1
 3601 1b48 11       		.uleb128 0x11
 3602 1b49 49534F5F 		.ascii "ISO_CPP_VERSION CPP_VERSION_1998\0"
 3602      4350505F 
 3602      56455253 
 3602      494F4E20 
 3602      4350505F 
GAS LISTING C:\Users\PRESID~1\AppData\Local\Temp\ccPWmP62.s 			page 104


 3603 1b6a 01       		.byte	0x1
 3604 1b6b 14       		.uleb128 0x14
 3605 1b6c 4249475F 		.ascii "BIG_INT_SIZE 16u\0"
 3605      494E545F 
 3605      53495A45 
 3605      20313675 
 3605      00
 3606 1b7d 01       		.byte	0x1
 3607 1b7e 17       		.uleb128 0x17
 3608 1b7f 4E525F4F 		.ascii "NR_OF_CORES 1u\0"
 3608      465F434F 
 3608      52455320 
 3608      317500
 3609 1b8e 01       		.byte	0x1
 3610 1b8f 1B       		.uleb128 0x1b
 3611 1b90 4D43555F 		.ascii "MCU_CLOCK_IN_HZ ((uint32)168000000u)\0"
 3611      434C4F43 
 3611      4B5F494E 
 3611      5F485A20 
 3611      28287569 
 3612 1bb5 01       		.byte	0x1
 3613 1bb6 1D       		.uleb128 0x1d
 3614 1bb7 44594E41 		.ascii "DYNAMIC_MEMORY_USED FALSE\0"
 3614      4D49435F 
 3614      4D454D4F 
 3614      52595F55 
 3614      53454420 
 3615 1bd1 01       		.byte	0x1
 3616 1bd2 1E       		.uleb128 0x1e
 3617 1bd3 4C4F4F50 		.ascii "LOOPTIME_IN_USEC ((uint32)10000u)\0"
 3617      54494D45 
 3617      5F494E5F 
 3617      55534543 
 3617      20282875 
 3618 1bf5 01       		.byte	0x1
 3619 1bf6 21       		.uleb128 0x21
 3620 1bf7 48454150 		.ascii "HEAP_SIZE 10000u\0"
 3620      5F53495A 
 3620      45203130 
 3620      30303075 
 3620      00
 3621 1c08 01       		.byte	0x1
 3622 1c09 22       		.uleb128 0x22
 3623 1c0a 4D494E5F 		.ascii "MIN_BLOCK_SIZE_HEAP 8u\0"
 3623      424C4F43 
 3623      4B5F5349 
 3623      5A455F48 
 3623      45415020 
 3624 1c21 01       		.byte	0x1
 3625 1c22 23       		.uleb128 0x23
 3626 1c23 48454150 		.ascii "HEAP_OFFSET_FOR_SIZE 0u\0"
 3626      5F4F4646 
 3626      5345545F 
 3626      464F525F 
 3626      53495A45 
 3627 1c3b 01       		.byte	0x1
 3628 1c3c 24       		.uleb128 0x24
GAS LISTING C:\Users\PRESID~1\AppData\Local\Temp\ccPWmP62.s 			page 105


 3629 1c3d 48454150 		.ascii "HEAP_OFFSET_FOR_USED_SIZE 4u\0"
 3629      5F4F4646 
 3629      5345545F 
 3629      464F525F 
 3629      55534544 
 3630 1c5a 01       		.byte	0x1
 3631 1c5b 25       		.uleb128 0x25
 3632 1c5c 48454150 		.ascii "HEAP_OFFSET_FOR_CHUNK 8u\0"
 3632      5F4F4646 
 3632      5345545F 
 3632      464F525F 
 3632      4348554E 
 3633 1c75 01       		.byte	0x1
 3634 1c76 28       		.uleb128 0x28
 3635 1c77 4F535F53 		.ascii "OS_STACK_SIZE 0x200u\0"
 3635      5441434B 
 3635      5F53495A 
 3635      45203078 
 3635      32303075 
 3636 1c8c 04       		.byte	0x4
 3637 1c8d 03       		.byte	0x3
 3638 1c8e 05       		.uleb128 0x5
 3639 1c8f 02       		.uleb128 0x2
 3640 1c90 01       		.byte	0x1
 3641 1c91 02       		.uleb128 0x2
 3642 1c92 5F4F535F 		.ascii "_OS_BASE_TYPES_H_ \0"
 3642      42415345 
 3642      5F545950 
 3642      45535F48 
 3642      5F2000
 3643 1ca5 04       		.byte	0x4
 3644 1ca6 03       		.byte	0x3
 3645 1ca7 06       		.uleb128 0x6
 3646 1ca8 03       		.uleb128 0x3
 3647 1ca9 01       		.byte	0x1
 3648 1caa 02       		.uleb128 0x2
 3649 1cab 5F4F535F 		.ascii "_OS_COMMON_H_ \0"
 3649      434F4D4D 
 3649      4F4E5F48 
 3649      5F2000
 3650 1cba 01       		.byte	0x1
 3651 1cbb 06       		.uleb128 0x6
 3652 1cbc 46414C53 		.ascii "FALSE 0u\0"
 3652      45203075 
 3652      00
 3653 1cc5 01       		.byte	0x1
 3654 1cc6 07       		.uleb128 0x7
 3655 1cc7 54525545 		.ascii "TRUE 1u\0"
 3655      20317500 
 3656 1ccf 01       		.byte	0x1
 3657 1cd0 08       		.uleb128 0x8
 3658 1cd1 41434345 		.ascii "ACCEPTED 1u\0"
 3658      50544544 
 3658      20317500 
 3659 1cdd 01       		.byte	0x1
 3660 1cde 09       		.uleb128 0x9
 3661 1cdf 52454A45 		.ascii "REJECTED 0u\0"
GAS LISTING C:\Users\PRESID~1\AppData\Local\Temp\ccPWmP62.s 			page 106


 3661      43544544 
 3661      20307500 
 3662 1ceb 01       		.byte	0x1
 3663 1cec 0A       		.uleb128 0xa
 3664 1ced 4C4F4341 		.ascii "LOCAL static\0"
 3664      4C207374 
 3664      61746963 
 3664      00
 3665 1cfa 01       		.byte	0x1
 3666 1cfb 0B       		.uleb128 0xb
 3667 1cfc 4C4F4341 		.ascii "LOCAL_INLINE static __inline__\0"
 3667      4C5F494E 
 3667      4C494E45 
 3667      20737461 
 3667      74696320 
 3668 1d1b 01       		.byte	0x1
 3669 1d1c 0C       		.uleb128 0xc
 3670 1d1d 474C4F42 		.ascii "GLOBAL_INLINE __inline__\0"
 3670      414C5F49 
 3670      4E4C494E 
 3670      45205F5F 
 3670      696E6C69 
 3671 1d36 01       		.byte	0x1
 3672 1d37 0D       		.uleb128 0xd
 3673 1d38 52454645 		.ascii "REFERENCE_UNUSED_PARAMETER(x) ((x) = (x))\0"
 3673      52454E43 
 3673      455F554E 
 3673      55534544 
 3673      5F504152 
 3674 1d62 01       		.byte	0x1
 3675 1d63 10       		.uleb128 0x10
 3676 1d64 4D43555F 		.ascii "MCU_X86 3\0"
 3676      58383620 
 3676      3300
 3677 1d6e 01       		.byte	0x1
 3678 1d6f 11       		.uleb128 0x11
 3679 1d70 4D43555F 		.ascii "MCU_CORTEX_M4 4\0"
 3679      434F5254 
 3679      45585F4D 
 3679      34203400 
 3680 1d80 01       		.byte	0x1
 3681 1d81 14       		.uleb128 0x14
 3682 1d82 4457545F 		.ascii "DWT_CTRL ((volatile uint32*)0xE0001000u)\0"
 3682      4354524C 
 3682      20282876 
 3682      6F6C6174 
 3682      696C6520 
 3683 1dab 01       		.byte	0x1
 3684 1dac 15       		.uleb128 0x15
 3685 1dad 4457545F 		.ascii "DWT_CYCCNT ((volatile uint32*)0xE0001004u)\0"
 3685      43594343 
 3685      4E542028 
 3685      28766F6C 
 3685      6174696C 
 3686 1dd8 01       		.byte	0x1
 3687 1dd9 16       		.uleb128 0x16
 3688 1dda 4457545F 		.ascii "DWT_LAR ((volatile uint32*)0xE0001FB0u)\0"
GAS LISTING C:\Users\PRESID~1\AppData\Local\Temp\ccPWmP62.s 			page 107


 3688      4C415220 
 3688      2828766F 
 3688      6C617469 
 3688      6C652075 
 3689 1e02 01       		.byte	0x1
 3690 1e03 17       		.uleb128 0x17
 3691 1e04 5343425F 		.ascii "SCB_DEMCR ((volatile uint32*)0xE000EDFCu)\0"
 3691      44454D43 
 3691      52202828 
 3691      766F6C61 
 3691      74696C65 
 3692 1e2e 01       		.byte	0x1
 3693 1e2f 1A       		.uleb128 0x1a
 3694 1e30 44495341 		.ascii "DISABLE_INTERRUPTS() \0"
 3694      424C455F 
 3694      494E5445 
 3694      52525550 
 3694      54532829 
 3695 1e46 01       		.byte	0x1
 3696 1e47 1B       		.uleb128 0x1b
 3697 1e48 454E4142 		.ascii "ENABLE_INTERRUPTS() \0"
 3697      4C455F49 
 3697      4E544552 
 3697      52555054 
 3697      53282920 
 3698 1e5d 01       		.byte	0x1
 3699 1e5e 1C       		.uleb128 0x1c
 3700 1e5f 50524956 		.ascii "PRIVILIGE_LEVEL_SAVE_CURRENT() \0"
 3700      494C4947 
 3700      455F4C45 
 3700      56454C5F 
 3700      53415645 
 3701 1e7f 01       		.byte	0x1
 3702 1e80 1D       		.uleb128 0x1d
 3703 1e81 50524956 		.ascii "PRIVILIGE_LEVEL_ENTER_KERNEL_MODE() \0"
 3703      494C4947 
 3703      455F4C45 
 3703      56454C5F 
 3703      454E5445 
 3704 1ea6 01       		.byte	0x1
 3705 1ea7 1E       		.uleb128 0x1e
 3706 1ea8 50524956 		.ascii "PRIVILIGE_LEVEL_RESTORE_SAVED() \0"
 3706      494C4947 
 3706      455F4C45 
 3706      56454C5F 
 3706      52455354 
 3707 1ec9 01       		.byte	0x1
 3708 1eca 1F       		.uleb128 0x1f
 3709 1ecb 48414C54 		.ascii "HALT_MCU() \0"
 3709      5F4D4355 
 3709      28292000 
 3710 1ed7 04       		.byte	0x4
 3711              		.file 10 "E:/NeuOrga/Programmieren/c_cpp/github_os/input/src/os_base/../os_sim/lld_global.h"
 3712 1ed8 03       		.byte	0x3
 3713 1ed9 09       		.uleb128 0x9
 3714 1eda 0A       		.uleb128 0xa
 3715 1edb 01       		.byte	0x1
GAS LISTING C:\Users\PRESID~1\AppData\Local\Temp\ccPWmP62.s 			page 108


 3716 1edc 02       		.uleb128 0x2
 3717 1edd 5F4C4C44 		.ascii "_LLD_GLOBAL_H_ \0"
 3717      5F474C4F 
 3717      42414C5F 
 3717      485F2000 
 3718 1eed 03       		.byte	0x3
 3719 1eee 04       		.uleb128 0x4
 3720 1eef 04       		.uleb128 0x4
 3721 1ef0 01       		.byte	0x1
 3722 1ef1 02       		.uleb128 0x2
 3723 1ef2 5F4C4C44 		.ascii "_LLD_CORE_H_ \0"
 3723      5F434F52 
 3723      455F485F 
 3723      2000
 3724              		.file 11 "E:/NeuOrga/Programmieren/c_cpp/github_os/input/src/os_base/../os_sim/../os_base/os_first
 3725 1f00 03       		.byte	0x3
 3726 1f01 03       		.uleb128 0x3
 3727 1f02 0B       		.uleb128 0xb
 3728 1f03 04       		.byte	0x4
 3729 1f04 04       		.byte	0x4
 3730              		.file 12 "E:/NeuOrga/Programmieren/c_cpp/github_os/input/src/os_base/../os_sim/lld_interrupt.h"
 3731 1f05 03       		.byte	0x3
 3732 1f06 05       		.uleb128 0x5
 3733 1f07 0C       		.uleb128 0xc
 3734 1f08 01       		.byte	0x1
 3735 1f09 02       		.uleb128 0x2
 3736 1f0a 5F4C4C44 		.ascii "_LLD_INTERRUPT_H_ \0"
 3736      5F494E54 
 3736      45525255 
 3736      50545F48 
 3736      5F2000
 3737 1f1d 01       		.byte	0x1
 3738 1f1e 05       		.uleb128 0x5
 3739 1f1f 4F535F49 		.ascii "OS_INTERRUPT_SWI_1 asm(\"swi 1\")\0"
 3739      4E544552 
 3739      52555054 
 3739      5F535749 
 3739      5F312061 
 3740 1f3f 01       		.byte	0x1
 3741 1f40 06       		.uleb128 0x6
 3742 1f41 4F535F49 		.ascii "OS_INTERRUPT_SWI_2 asm(\"swi 2\")\0"
 3742      4E544552 
 3742      52555054 
 3742      5F535749 
 3742      5F322061 
 3743 1f61 01       		.byte	0x1
 3744 1f62 07       		.uleb128 0x7
 3745 1f63 4F535F49 		.ascii "OS_INTERRUPT_SWI_3 asm(\"swi 3\")\0"
 3745      4E544552 
 3745      52555054 
 3745      5F535749 
 3745      5F332061 
 3746 1f83 01       		.byte	0x1
 3747 1f84 08       		.uleb128 0x8
 3748 1f85 4F535F49 		.ascii "OS_INTERRUPT_SWI_4 asm(\"swi 4\")\0"
 3748      4E544552 
 3748      52555054 
GAS LISTING C:\Users\PRESID~1\AppData\Local\Temp\ccPWmP62.s 			page 109


 3748      5F535749 
 3748      5F342061 
 3749 1fa5 01       		.byte	0x1
 3750 1fa6 09       		.uleb128 0x9
 3751 1fa7 4F535F49 		.ascii "OS_INTERRUPT_SWI_5 asm(\"swi 5\")\0"
 3751      4E544552 
 3751      52555054 
 3751      5F535749 
 3751      5F352061 
 3752 1fc7 04       		.byte	0x4
 3753              		.file 13 "E:/NeuOrga/Programmieren/c_cpp/github_os/input/src/os_base/../os_sim/lld_mmu.h"
 3754 1fc8 03       		.byte	0x3
 3755 1fc9 06       		.uleb128 0x6
 3756 1fca 0D       		.uleb128 0xd
 3757 1fcb 01       		.byte	0x1
 3758 1fcc 02       		.uleb128 0x2
 3759 1fcd 5F4C4C44 		.ascii "_LLD_MMU_H_ \0"
 3759      5F4D4D55 
 3759      5F485F20 
 3759      00
 3760 1fda 04       		.byte	0x4
 3761              		.file 14 "E:/NeuOrga/Programmieren/c_cpp/github_os/input/src/os_base/../os_sim/lld_timer.h"
 3762 1fdb 03       		.byte	0x3
 3763 1fdc 07       		.uleb128 0x7
 3764 1fdd 0E       		.uleb128 0xe
 3765 1fde 01       		.byte	0x1
 3766 1fdf 02       		.uleb128 0x2
 3767 1fe0 5F4C4C44 		.ascii "_LLD_TIMER_H_ \0"
 3767      5F54494D 
 3767      45525F48 
 3767      5F2000
 3768 1fef 04       		.byte	0x4
 3769              		.file 15 "E:/NeuOrga/Programmieren/c_cpp/github_os/input/src/os_base/../os_sim/lld_power.h"
 3770 1ff0 03       		.byte	0x3
 3771 1ff1 08       		.uleb128 0x8
 3772 1ff2 0F       		.uleb128 0xf
 3773 1ff3 01       		.byte	0x1
 3774 1ff4 02       		.uleb128 0x2
 3775 1ff5 5F4C4C44 		.ascii "_LLD_POWER_H_ \0"
 3775      5F504F57 
 3775      45525F48 
 3775      5F2000
 3776 2004 04       		.byte	0x4
 3777              		.file 16 "E:/NeuOrga/Programmieren/c_cpp/github_os/input/src/os_base/../os_sim/lld_ram.h"
 3778 2005 03       		.byte	0x3
 3779 2006 09       		.uleb128 0x9
 3780 2007 10       		.uleb128 0x10
 3781 2008 01       		.byte	0x1
 3782 2009 02       		.uleb128 0x2
 3783 200a 5F4C4C44 		.ascii "_LLD_RAM_H_ \0"
 3783      5F52414D 
 3783      5F485F20 
 3783      00
 3784 2017 04       		.byte	0x4
 3785 2018 03       		.byte	0x3
 3786 2019 0A       		.uleb128 0xa
 3787 201a 05       		.uleb128 0x5
GAS LISTING C:\Users\PRESID~1\AppData\Local\Temp\ccPWmP62.s 			page 110


 3788 201b 01       		.byte	0x1
 3789 201c 02       		.uleb128 0x2
 3790 201d 5F4F535F 		.ascii "_OS_TASK_COMMON_H_ \0"
 3790      5441534B 
 3790      5F434F4D 
 3790      4D4F4E5F 
 3790      485F2000 
 3791 2031 03       		.byte	0x3
 3792 2032 03       		.uleb128 0x3
 3793 2033 0B       		.uleb128 0xb
 3794 2034 04       		.byte	0x4
 3795              		.file 17 "E:/NeuOrga/Programmieren/c_cpp/github_os/input/src/os_base/../os_sim/../os_base/os_task_
 3796 2035 03       		.byte	0x3
 3797 2036 04       		.uleb128 0x4
 3798 2037 11       		.uleb128 0x11
 3799 2038 01       		.byte	0x1
 3800 2039 02       		.uleb128 0x2
 3801 203a 5F4F535F 		.ascii "_OS_TASK_CONFIG_H_ \0"
 3801      5441534B 
 3801      5F434F4E 
 3801      4649475F 
 3801      485F2000 
 3802 204e 01       		.byte	0x1
 3803 204f 05       		.uleb128 0x5
 3804 2050 5441534B 		.ascii "TASK_MIN_TIME (1e0)\0"
 3804      5F4D494E 
 3804      5F54494D 
 3804      45202831 
 3804      65302900 
 3805 2064 01       		.byte	0x1
 3806 2065 06       		.uleb128 0x6
 3807 2066 4E554D42 		.ascii "NUMBER_OF_TASKS 10u\0"
 3807      45525F4F 
 3807      465F5441 
 3807      534B5320 
 3807      31307500 
 3808 207a 01       		.byte	0x1
 3809 207b 07       		.uleb128 0x7
 3810 207c 4D41585F 		.ascii "MAX_RUN_QUEUE_SIZE (NUMBER_OF_TASKS)\0"
 3810      52554E5F 
 3810      51554555 
 3810      455F5349 
 3810      5A452028 
 3811 20a1 01       		.byte	0x1
 3812 20a2 08       		.uleb128 0x8
 3813 20a3 4D41585F 		.ascii "MAX_RUN_PQUEUE_SIZE MAX_RUN_QUEUE_SIZE\0"
 3813      52554E5F 
 3813      50515545 
 3813      55455F53 
 3813      495A4520 
 3814 20ca 01       		.byte	0x1
 3815 20cb 0A       		.uleb128 0xa
 3816 20cc 5441534B 		.ascii "TASK_STACK_SIZE 2000u\0"
 3816      5F535441 
 3816      434B5F53 
 3816      495A4520 
 3816      32303030 
GAS LISTING C:\Users\PRESID~1\AppData\Local\Temp\ccPWmP62.s 			page 111


 3817 20e2 01       		.byte	0x1
 3818 20e3 0D       		.uleb128 0xd
 3819 20e4 4D535F50 		.ascii "MS_PER_SEC 1000u\0"
 3819      45525F53 
 3819      45432031 
 3819      30303075 
 3819      00
 3820 20f5 01       		.byte	0x1
 3821 20f6 0E       		.uleb128 0xe
 3822 20f7 5553455F 		.ascii "USE_STATIC_CREATED_TASKS TRUE\0"
 3822      53544154 
 3822      49435F43 
 3822      52454154 
 3822      45445F54 
 3823 2115 04       		.byte	0x4
 3824              		.file 18 "E:/NeuOrga/Programmieren/c_cpp/github_os/input/src/os_base/../os_sim/../os_base/os_init_
 3825 2116 03       		.byte	0x3
 3826 2117 05       		.uleb128 0x5
 3827 2118 12       		.uleb128 0x12
 3828 2119 01       		.byte	0x1
 3829 211a 02       		.uleb128 0x2
 3830 211b 5F4F535F 		.ascii "_OS_INIT_TASK_SYSTEM_H_ \0"
 3830      494E4954 
 3830      5F544153 
 3830      4B5F5359 
 3830      5354454D 
 3831 2134 04       		.byte	0x4
 3832 2135 01       		.byte	0x1
 3833 2136 5F       		.uleb128 0x5f
 3834 2137 4F535F53 		.ascii "OS_SAVE_TASK_PTR(task_ptr,task_name) (TASK_PTR[(task_name)] = (task_ptr))\0"
 3834      4156455F 
 3834      5441534B 
 3834      5F505452 
 3834      28746173 
 3835 2181 01       		.byte	0x1
 3836 2182 60       		.uleb128 0x60
 3837 2183 4F535F47 		.ascii "OS_GET_TASK_PTR(task_name) ((task_t*) TASK_PTR[(task_name)])\0"
 3837      45545F54 
 3837      41534B5F 
 3837      50545228 
 3837      7461736B 
 3838 21c0 04       		.byte	0x4
 3839 21c1 04       		.byte	0x4
 3840              		.file 19 "E:/NeuOrga/Programmieren/c_cpp/github_os/input/src/os_base/../os_user_code/led.h"
 3841 21c2 03       		.byte	0x3
 3842 21c3 0D       		.uleb128 0xd
 3843 21c4 13       		.uleb128 0x13
 3844 21c5 01       		.byte	0x1
 3845 21c6 02       		.uleb128 0x2
 3846 21c7 5F4C4544 		.ascii "_LED_H_ \0"
 3846      5F485F20 
 3846      00
 3847 21d0 04       		.byte	0x4
 3848 21d1 03       		.byte	0x3
 3849 21d2 0F       		.uleb128 0xf
 3850 21d3 06       		.uleb128 0x6
 3851 21d4 01       		.byte	0x1
GAS LISTING C:\Users\PRESID~1\AppData\Local\Temp\ccPWmP62.s 			page 112


 3852 21d5 02       		.uleb128 0x2
 3853 21d6 5F4F535F 		.ascii "_OS_RAM_H_ \0"
 3853      52414D5F 
 3853      485F2000 
 3854              		.file 20 "E:/NeuOrga/Programmieren/c_cpp/github_os/input/src/os_base/../os_base/os_firstinc.h"
 3855 21e2 03       		.byte	0x3
 3856 21e3 04       		.uleb128 0x4
 3857 21e4 14       		.uleb128 0x14
 3858 21e5 04       		.byte	0x4
 3859              		.file 21 "E:/NeuOrga/Programmieren/c_cpp/github_os/input/src/os_base/../os_base/os_stack.h"
 3860 21e6 03       		.byte	0x3
 3861 21e7 05       		.uleb128 0x5
 3862 21e8 15       		.uleb128 0x15
 3863 21e9 01       		.byte	0x1
 3864 21ea 02       		.uleb128 0x2
 3865 21eb 5F4F535F 		.ascii "_OS_STACK_H_ \0"
 3865      53544143 
 3865      4B5F485F 
 3865      2000
 3866 21f9 04       		.byte	0x4
 3867              		.file 22 "E:/NeuOrga/Programmieren/c_cpp/github_os/input/src/os_base/../os_base/os_heap.h"
 3868 21fa 03       		.byte	0x3
 3869 21fb 06       		.uleb128 0x6
 3870 21fc 16       		.uleb128 0x16
 3871 21fd 01       		.byte	0x1
 3872 21fe 02       		.uleb128 0x2
 3873 21ff 5F4F535F 		.ascii "_OS_HEAP_H_ \0"
 3873      48454150 
 3873      5F485F20 
 3873      00
 3874 220c 04       		.byte	0x4
 3875              		.file 23 "E:/NeuOrga/Programmieren/c_cpp/github_os/input/src/os_base/../os_base/os_main.h"
 3876 220d 03       		.byte	0x3
 3877 220e 07       		.uleb128 0x7
 3878 220f 17       		.uleb128 0x17
 3879 2210 01       		.byte	0x1
 3880 2211 02       		.uleb128 0x2
 3881 2212 5F4F535F 		.ascii "_OS_MAIN_H_ \0"
 3881      4D41494E 
 3881      5F485F20 
 3881      00
 3882 221f 04       		.byte	0x4
 3883              		.file 24 "E:/NeuOrga/Programmieren/c_cpp/github_os/input/src/os_base/../os_base/os_task_config.h"
 3884 2220 03       		.byte	0x3
 3885 2221 08       		.uleb128 0x8
 3886 2222 18       		.uleb128 0x18
 3887 2223 04       		.byte	0x4
 3888              		.file 25 "E:/NeuOrga/Programmieren/c_cpp/github_os/input/src/os_base/../os_base/os_task_common.h"
 3889 2224 03       		.byte	0x3
 3890 2225 09       		.uleb128 0x9
 3891 2226 19       		.uleb128 0x19
 3892 2227 04       		.byte	0x4
 3893 2228 04       		.byte	0x4
 3894 2229 03       		.byte	0x3
 3895 222a 10       		.uleb128 0x10
 3896 222b 07       		.uleb128 0x7
 3897 222c 01       		.byte	0x1
GAS LISTING C:\Users\PRESID~1\AppData\Local\Temp\ccPWmP62.s 			page 113


 3898 222d 02       		.uleb128 0x2
 3899 222e 5F4F535F 		.ascii "_OS_RAM_STACK_H_ \0"
 3899      52414D5F 
 3899      53544143 
 3899      4B5F485F 
 3899      2000
 3900 2240 04       		.byte	0x4
 3901 2241 04       		.byte	0x4
 3902              		.file 26 "E:/NeuOrga/Programmieren/c_cpp/github_os/input/src/os_base/os_common.h"
 3903 2242 03       		.byte	0x3
 3904 2243 02       		.uleb128 0x2
 3905 2244 1A       		.uleb128 0x1a
 3906 2245 04       		.byte	0x4
 3907              		.file 27 "E:/NeuOrga/Programmieren/c_cpp/github_os/input/src/os_base/os_task_common.h"
 3908 2246 03       		.byte	0x3
 3909 2247 03       		.uleb128 0x3
 3910 2248 1B       		.uleb128 0x1b
 3911 2249 04       		.byte	0x4
 3912              		.file 28 "E:/NeuOrga/Programmieren/c_cpp/github_os/input/src/os_base/os_task_scheduler.h"
 3913 224a 03       		.byte	0x3
 3914 224b 04       		.uleb128 0x4
 3915 224c 1C       		.uleb128 0x1c
 3916 224d 01       		.byte	0x1
 3917 224e 02       		.uleb128 0x2
 3918 224f 5F4F535F 		.ascii "_OS_TASK_SCHEDULER_H_ \0"
 3918      5441534B 
 3918      5F534348 
 3918      4544554C 
 3918      45525F48 
 3919 2266 01       		.byte	0x1
 3920 2267 07       		.uleb128 0x7
 3921 2268 5441534B 		.ascii "TASK_0_PTR 0u\0"
 3921      5F305F50 
 3921      54522030 
 3921      7500
 3922 2276 01       		.byte	0x1
 3923 2277 08       		.uleb128 0x8
 3924 2278 5441534B 		.ascii "TASK_1_PTR 1u\0"
 3924      5F315F50 
 3924      54522031 
 3924      7500
 3925 2286 01       		.byte	0x1
 3926 2287 09       		.uleb128 0x9
 3927 2288 5441534B 		.ascii "TASK_2_PTR 2u\0"
 3927      5F325F50 
 3927      54522032 
 3927      7500
 3928 2296 01       		.byte	0x1
 3929 2297 0A       		.uleb128 0xa
 3930 2298 5441534B 		.ascii "TASK_3_PTR 3u\0"
 3930      5F335F50 
 3930      54522033 
 3930      7500
 3931 22a6 04       		.byte	0x4
 3932              		.file 29 "E:/NeuOrga/Programmieren/c_cpp/github_os/input/src/os_base/os_task_queue.h"
 3933 22a7 03       		.byte	0x3
 3934 22a8 05       		.uleb128 0x5
GAS LISTING C:\Users\PRESID~1\AppData\Local\Temp\ccPWmP62.s 			page 114


 3935 22a9 1D       		.uleb128 0x1d
 3936 22aa 01       		.byte	0x1
 3937 22ab 02       		.uleb128 0x2
 3938 22ac 5F4F535F 		.ascii "_OS_TASK_QUEUE_H_ \0"
 3938      5441534B 
 3938      5F515545 
 3938      55455F48 
 3938      5F2000
 3939 22bf 01       		.byte	0x1
 3940 22c0 06       		.uleb128 0x6
 3941 22c1 46495253 		.ascii "FIRST_TASK (0u)\0"
 3941      545F5441 
 3941      534B2028 
 3941      30752900 
 3942 22d1 01       		.byte	0x1
 3943 22d2 07       		.uleb128 0x7
 3944 22d3 4C415354 		.ascii "LAST_TASK (MAX_RUN_QUEUE_SIZE-1u)\0"
 3944      5F544153 
 3944      4B20284D 
 3944      41585F52 
 3944      554E5F51 
 3945 22f5 01       		.byte	0x1
 3946 22f6 09       		.uleb128 0x9
 3947 22f7 464F525F 		.ascii "FOR_ALL_TASKS_IN_QUEUE(var) for((var) = FIRST_TASK; (var) <= LAST_TASK; (var)++)\0"
 3947      414C4C5F 
 3947      5441534B 
 3947      535F494E 
 3947      5F515545 
 3948 2348 04       		.byte	0x4
 3949              		.file 30 "E:/NeuOrga/Programmieren/c_cpp/github_os/input/src/os_base/os_stack.h"
 3950 2349 03       		.byte	0x3
 3951 234a 06       		.uleb128 0x6
 3952 234b 1E       		.uleb128 0x1e
 3953 234c 04       		.byte	0x4
 3954              		.file 31 "E:/NeuOrga/Programmieren/c_cpp/github_os/input/src/os_base/os_exception.h"
 3955 234d 03       		.byte	0x3
 3956 234e 07       		.uleb128 0x7
 3957 234f 1F       		.uleb128 0x1f
 3958 2350 01       		.byte	0x1
 3959 2351 02       		.uleb128 0x2
 3960 2352 5F4F535F 		.ascii "_OS_EXCEPTION_H_ \0"
 3960      45584345 
 3960      5054494F 
 3960      4E5F485F 
 3960      2000
 3961 2364 01       		.byte	0x1
 3962 2365 05       		.uleb128 0x5
 3963 2366 48415244 		.ascii "HARDFAULT_STATUS_REG ((volatile uint32*)0xE000ED2Cu)\0"
 3963      4641554C 
 3963      545F5354 
 3963      41545553 
 3963      5F524547 
 3964 239b 01       		.byte	0x1
 3965 239c 06       		.uleb128 0x6
 3966 239d 4D454D5F 		.ascii "MEM_MANAG_FAULT_STATUS_REG ((volatile uint8*)0xE000ED28u)\0"
 3966      4D414E41 
 3966      475F4641 
GAS LISTING C:\Users\PRESID~1\AppData\Local\Temp\ccPWmP62.s 			page 115


 3966      554C545F 
 3966      53544154 
 3967 23d7 01       		.byte	0x1
 3968 23d8 07       		.uleb128 0x7
 3969 23d9 4255535F 		.ascii "BUS_FAULT_STATUS_REG ((volatile uint8*)0xE000ED29u)\0"
 3969      4641554C 
 3969      545F5354 
 3969      41545553 
 3969      5F524547 
 3970 240d 01       		.byte	0x1
 3971 240e 08       		.uleb128 0x8
 3972 240f 55534147 		.ascii "USAGE_FAULT_STATUS_REG ((volatile uint16*)0xE000ED2Au)\0"
 3972      455F4641 
 3972      554C545F 
 3972      53544154 
 3972      55535F52 
 3973 2446 01       		.byte	0x1
 3974 2447 09       		.uleb128 0x9
 3975 2448 4D454D5F 		.ascii "MEM_FAULT_ADDR_REG ((volatile uint32*)0xE000ED34u)\0"
 3975      4641554C 
 3975      545F4144 
 3975      44525F52 
 3975      45472028 
 3976 247b 01       		.byte	0x1
 3977 247c 0A       		.uleb128 0xa
 3978 247d 4255535F 		.ascii "BUS_FAULT_ADDR_REG ((volatile uint32*)0xE000ED38u)\0"
 3978      4641554C 
 3978      545F4144 
 3978      44525F52 
 3978      45472028 
 3979 24b0 01       		.byte	0x1
 3980 24b1 0B       		.uleb128 0xb
 3981 24b2 4155585F 		.ascii "AUX_FAULT_STATUS_REG ((volatile uint32*)0xE000ED3Cu)\0"
 3981      4641554C 
 3981      545F5354 
 3981      41545553 
 3981      5F524547 
 3982 24e7 01       		.byte	0x1
 3983 24e8 0E       		.uleb128 0xe
 3984 24e9 53595354 		.ascii "SYSTICK_CTRL_STAT_REG ((uint32*)0xE000E010u)\0"
 3984      49434B5F 
 3984      4354524C 
 3984      5F535441 
 3984      545F5245 
 3985 2516 01       		.byte	0x1
 3986 2517 0F       		.uleb128 0xf
 3987 2518 53595354 		.ascii "SYSTICK_RLD_VAL_REG ((uint32*)0xE000E014u)\0"
 3987      49434B5F 
 3987      524C445F 
 3987      56414C5F 
 3987      52454720 
 3988 2543 01       		.byte	0x1
 3989 2544 10       		.uleb128 0x10
 3990 2545 53595354 		.ascii "SYSTICK_CURRENT_VAL_REG ((uint32*)0xE000E018u)\0"
 3990      49434B5F 
 3990      43555252 
 3990      454E545F 
GAS LISTING C:\Users\PRESID~1\AppData\Local\Temp\ccPWmP62.s 			page 116


 3990      56414C5F 
 3991 2574 01       		.byte	0x1
 3992 2575 11       		.uleb128 0x11
 3993 2576 53595354 		.ascii "SYSTICK_CALIB_VAL_REG ((uint32*)0xE000E01Cu)\0"
 3993      49434B5F 
 3993      43414C49 
 3993      425F5641 
 3993      4C5F5245 
 3994 25a3 01       		.byte	0x1
 3995 25a4 12       		.uleb128 0x12
 3996 25a5 53595354 		.ascii "SYSTICK_STAT_REG_CLKSRC_AHB ((uint32 )0x00000004u)\0"
 3996      49434B5F 
 3996      53544154 
 3996      5F524547 
 3996      5F434C4B 
 3997 25d8 01       		.byte	0x1
 3998 25d9 13       		.uleb128 0x13
 3999 25da 53595354 		.ascii "SYSTICK_STAT_REG_CLKSRC_AHB_8 ((uint32 )0x00000000u)\0"
 3999      49434B5F 
 3999      53544154 
 3999      5F524547 
 3999      5F434C4B 
 4000 260f 01       		.byte	0x1
 4001 2610 14       		.uleb128 0x14
 4002 2611 53595354 		.ascii "SYSTICK_STAT_REG_TICKINT ((uint32 )0x00000002u)\0"
 4002      49434B5F 
 4002      53544154 
 4002      5F524547 
 4002      5F544943 
 4003 2641 01       		.byte	0x1
 4004 2642 15       		.uleb128 0x15
 4005 2643 53595354 		.ascii "SYSTICK_STAT_REG_ENABLE ((uint32 )0x00000001u)\0"
 4005      49434B5F 
 4005      53544154 
 4005      5F524547 
 4005      5F454E41 
 4006 2672 01       		.byte	0x1
 4007 2673 18       		.uleb128 0x18
 4008 2674 5359535F 		.ascii "SYS_HANDLER_CTRL_STATE_REG ((uint32*)0xE000ED24u)\0"
 4008      48414E44 
 4008      4C45525F 
 4008      4354524C 
 4008      5F535441 
 4009 26a6 01       		.byte	0x1
 4010 26a7 19       		.uleb128 0x19
 4011 26a8 5359535F 		.ascii "SYS_HANDLER_CTRL_STATE_BIT_MASK_USGFAULTENA ((uint32 )0x00040000u)\0"
 4011      48414E44 
 4011      4C45525F 
 4011      4354524C 
 4011      5F535441 
 4012 26eb 01       		.byte	0x1
 4013 26ec 1A       		.uleb128 0x1a
 4014 26ed 5359535F 		.ascii "SYS_HANDLER_CTRL_STATE_BIT_MASK_BUSFAULTENA ((uint32 )0x00020000u)\0"
 4014      48414E44 
 4014      4C45525F 
 4014      4354524C 
 4014      5F535441 
GAS LISTING C:\Users\PRESID~1\AppData\Local\Temp\ccPWmP62.s 			page 117


 4015 2730 01       		.byte	0x1
 4016 2731 1B       		.uleb128 0x1b
 4017 2732 5359535F 		.ascii "SYS_HANDLER_CTRL_STATE_BIT_MASK_MEMFAULTENA ((uint32 )0x00010000u)\0"
 4017      48414E44 
 4017      4C45525F 
 4017      4354524C 
 4017      5F535441 
 4018 2775 01       		.byte	0x1
 4019 2776 1C       		.uleb128 0x1c
 4020 2777 5359535F 		.ascii "SYS_HANDLER_CTRL_STATE_ENA_ALL_EXCEP (*SYS_HANDLER_CTRL_STATE_REG = *SYS_HANDLER_CTRL_STAT
 4020      48414E44 
 4020      4C45525F 
 4020      4354524C 
 4020      5F535441 
 4021 2862 04       		.byte	0x4
 4022 2863 04       		.byte	0x4
 4023 2864 00       		.byte	0
 4024              		.section	.debug_line,"dr"
 4025              	Ldebug_line0:
 4026 0000 84050000 		.section	.debug_str,"dr"
 4026      0200BB03 
 4026      00000101 
 4026      FB0E0D00 
 4026      01010101 
 4027              	LASF4:
 4028 0000 7461736B 		.ascii "task_ptr\0"
 4028      5F707472 
 4028      00
 4029              	LASF0:
 4030 0009 6578655F 		.ascii "exe_time\0"
 4030      74696D65 
 4030      00
 4031              	LASF3:
 4032 0012 73636865 		.ascii "scheduling_task\0"
 4032      64756C69 
 4032      6E675F74 
 4032      61736B00 
 4033              	LASF1:
 4034 0022 7461736B 		.ascii "task\0"
 4034      00
 4035              	LASF2:
 4036 0027 73636865 		.ascii "scheduling_task_ptr\0"
 4036      64756C69 
 4036      6E675F74 
 4036      61736B5F 
 4036      70747200 
 4037              		.ident	"GCC: (GNU) 4.9.3"
GAS LISTING C:\Users\PRESID~1\AppData\Local\Temp\ccPWmP62.s 			page 118


DEFINED SYMBOLS
                            *ABS*:00000000 os_task_scheduler.c
C:\Users\PRESID~1\AppData\Local\Temp\ccPWmP62.s:6      .text:00000000 _OS_ACTIVATE_DISPATCHER
C:\Users\PRESID~1\AppData\Local\Temp\ccPWmP62.s:25     .text:00000005 _OS_SLEEP_TASK
C:\Users\PRESID~1\AppData\Local\Temp\ccPWmP62.s:63     .text:00000046 _OS_TASK_STATE_REQUEST
C:\Users\PRESID~1\AppData\Local\Temp\ccPWmP62.s:235    .text:00000183 _OS_CREATE_TASK
C:\Users\PRESID~1\AppData\Local\Temp\ccPWmP62.s:287    .text:000001f5 _os_preempt_task
C:\Users\PRESID~1\AppData\Local\Temp\ccPWmP62.s:365    .text:000002a0 _OS_ACTIVATE_TASK
C:\Users\PRESID~1\AppData\Local\Temp\ccPWmP62.s:469    .text:00000387 _OS_START_TASK
C:\Users\PRESID~1\AppData\Local\Temp\ccPWmP62.s:587    .text:000004a4 _OS_TERMINATE_TASK
C:\Users\PRESID~1\AppData\Local\Temp\ccPWmP62.s:673    .text:00000569 _OS_TASK_DISPATCHER
C:\Users\PRESID~1\AppData\Local\Temp\ccPWmP62.s:737    .text:000005e0 _task_0
C:\Users\PRESID~1\AppData\Local\Temp\ccPWmP62.s:754    .text:000005e5 _task_1
C:\Users\PRESID~1\AppData\Local\Temp\ccPWmP62.s:787    .text:00000619 _task_2
C:\Users\PRESID~1\AppData\Local\Temp\ccPWmP62.s:820    .text:0000064d _task_3
C:\Users\PRESID~1\AppData\Local\Temp\ccPWmP62.s:854    .text:00000681 _OS_INIT_TASKS
C:\Users\PRESID~1\AppData\Local\Temp\ccPWmP62.s:967    .text:00000855 _os_task_scheduler

UNDEFINED SYMBOLS
_TASK_TRANSITION_REJECTED_TASK_ADDR
_TASK_TRANSITION_REJECTED_STATE
_TASK_TRANSITION_CURRENT_STATE
_OS_MAIN_STACK
_TASK1_CALL_NR
_LAST_CURRENT_TIME
_TASK_0_VAR
_TASK_STACK
_TASK_GROUP_1
_TASK_PTR
_TASK_1_VAR
_TASK_2_VAR
_TASK_GROUP_2
_TASK_3_VAR
_TASK_GROUP_3
_OS_GET_CURRENT_TIME
_INT_ADD
_OS_SET_SW_BUG
_OS_TASK_SAVE_TASK_ENVIRONMENT
_OS_TASK_RESTORE_SYSTEM_STACK
_ADD_TO_TASK_QUEUE
_ADD_TO_SCHEDULING_QUEUE
_ADD_TO_IDLE_TASK_QUEUE
_ASSIGN_NULL
_OS_TASK_SAVE_SYSTEM_STACK
_OS_TASK_RESTORETASK_ENVIRONMENT
_ASSIGN
_SET_RUNNING_TASK
_LLF_CHANGE_TO_UNPRIVILIGED_THREAD_MODE
_DELETE_FROM_TASK_QUEUE
_DELETE_FROM_SCHEDULING_QUEUE
_GET_RUNNING_TASK
_GET_RUNNING_SCHEDULING_QUEUE_ELEMENT_PTR
_GET_FROM_TASK_QUEUE
_OS_INIT_TASK_QUEUE
_OS_INIT_TASK
_INT_SUB
_GET_FROM_SCHEDULING_QUEUE
GAS LISTING C:\Users\PRESID~1\AppData\Local\Temp\ccPWmP62.s 			page 119


_IS_GREATER_OR_EQUAL
_IS_GREATER
_ASSIGN_UINT32
