GAS LISTING C:\Users\PRESID~1\AppData\Local\Temp\ccrN058O.s 			page 1


   1              		.file	"os_task_scheduler.c"
   2              		.text
   3              	Ltext0:
   4              	.lcomm _TASK_STACK,1000,32
   5              	.lcomm _LAST_CURRENT_TIME,4,4
   6              		.globl	_OS_ACTIVATE_DISPATCHER
   8              	_OS_ACTIVATE_DISPATCHER:
   9              	LFB0:
  10              		.file 1 "E:/NeuOrga/Programmieren/c_cpp/github_os/input/src/os_base/os_task_scheduler.c"
   1:E:/NeuOrga/Programmieren/c_cpp/github_os/input/src/os_base\os_task_scheduler.c **** #include "os_firstinc.h"
   2:E:/NeuOrga/Programmieren/c_cpp/github_os/input/src/os_base\os_task_scheduler.c **** #include "os_common.h"
   3:E:/NeuOrga/Programmieren/c_cpp/github_os/input/src/os_base\os_task_scheduler.c **** #include "os_task_common.h"
   4:E:/NeuOrga/Programmieren/c_cpp/github_os/input/src/os_base\os_task_scheduler.c **** #include "os_task_scheduler.h"
   5:E:/NeuOrga/Programmieren/c_cpp/github_os/input/src/os_base\os_task_scheduler.c **** #include "os_task_queue.h"
   6:E:/NeuOrga/Programmieren/c_cpp/github_os/input/src/os_base\os_task_scheduler.c **** #include "os_stack.h"
   7:E:/NeuOrga/Programmieren/c_cpp/github_os/input/src/os_base\os_task_scheduler.c **** 
   8:E:/NeuOrga/Programmieren/c_cpp/github_os/input/src/os_base\os_task_scheduler.c **** /*
   9:E:/NeuOrga/Programmieren/c_cpp/github_os/input/src/os_base\os_task_scheduler.c **** 1. running     --(terminate)--> suspend
  10:E:/NeuOrga/Programmieren/c_cpp/github_os/input/src/os_base\os_task_scheduler.c **** 2. running     --(preempt  )--> ready
  11:E:/NeuOrga/Programmieren/c_cpp/github_os/input/src/os_base\os_task_scheduler.c **** 3. suspend     --(activate )--> ready
  12:E:/NeuOrga/Programmieren/c_cpp/github_os/input/src/os_base\os_task_scheduler.c **** 4. ready       --(start    )--> running
  13:E:/NeuOrga/Programmieren/c_cpp/github_os/input/src/os_base\os_task_scheduler.c **** 5. unspecified --(create   )--> suspend
  14:E:/NeuOrga/Programmieren/c_cpp/github_os/input/src/os_base\os_task_scheduler.c **** */
  15:E:/NeuOrga/Programmieren/c_cpp/github_os/input/src/os_base\os_task_scheduler.c **** 
  16:E:/NeuOrga/Programmieren/c_cpp/github_os/input/src/os_base\os_task_scheduler.c **** Local void OS_STARTTASK(task_t* task);
  17:E:/NeuOrga/Programmieren/c_cpp/github_os/input/src/os_base\os_task_scheduler.c **** Local void TASK_0(void* task_ptr);
  18:E:/NeuOrga/Programmieren/c_cpp/github_os/input/src/os_base\os_task_scheduler.c **** Local void TASK_1(void* task_ptr);
  19:E:/NeuOrga/Programmieren/c_cpp/github_os/input/src/os_base\os_task_scheduler.c **** Local void TASK_2(void* task_ptr);
  20:E:/NeuOrga/Programmieren/c_cpp/github_os/input/src/os_base\os_task_scheduler.c **** Local task_t* OS_TaskScheduler();
  21:E:/NeuOrga/Programmieren/c_cpp/github_os/input/src/os_base\os_task_scheduler.c **** 
  22:E:/NeuOrga/Programmieren/c_cpp/github_os/input/src/os_base\os_task_scheduler.c **** Local unsigned_char_t   TASK_STACK[MAX_RUN_QUEUE_SIZE][TASK_STACK_SIZE];
  23:E:/NeuOrga/Programmieren/c_cpp/github_os/input/src/os_base\os_task_scheduler.c **** Local scheduler_time_t LAST_CURRENT_TIME = 0;
  24:E:/NeuOrga/Programmieren/c_cpp/github_os/input/src/os_base\os_task_scheduler.c **** 
  25:E:/NeuOrga/Programmieren/c_cpp/github_os/input/src/os_base\os_task_scheduler.c **** 
  26:E:/NeuOrga/Programmieren/c_cpp/github_os/input/src/os_base\os_task_scheduler.c **** void OS_ACTIVATE_DISPATCHER(void)
  27:E:/NeuOrga/Programmieren/c_cpp/github_os/input/src/os_base\os_task_scheduler.c **** {
  11              		.loc 1 27 0
  12              		.cfi_startproc
  13 0000 55       		pushl	%ebp
  14              		.cfi_def_cfa_offset 8
  15              		.cfi_offset 5, -8
  16 0001 89E5     		movl	%esp, %ebp
  17              		.cfi_def_cfa_register 5
  28:E:/NeuOrga/Programmieren/c_cpp/github_os/input/src/os_base\os_task_scheduler.c **** 
  29:E:/NeuOrga/Programmieren/c_cpp/github_os/input/src/os_base\os_task_scheduler.c ****    /* configure the TCMP */
  30:E:/NeuOrga/Programmieren/c_cpp/github_os/input/src/os_base\os_task_scheduler.c ****    /*
  31:E:/NeuOrga/Programmieren/c_cpp/github_os/input/src/os_base\os_task_scheduler.c ****    Dispatcher function for Core 0:
  32:E:/NeuOrga/Programmieren/c_cpp/github_os/input/src/os_base\os_task_scheduler.c ****     -> ISR_TASK_DISPATCH_C0
  33:E:/NeuOrga/Programmieren/c_cpp/github_os/input/src/os_base\os_task_scheduler.c ****    Write Adresse into the config register (interrupts are requested by SWI/SVC???)
  34:E:/NeuOrga/Programmieren/c_cpp/github_os/input/src/os_base\os_task_scheduler.c ****    */
  35:E:/NeuOrga/Programmieren/c_cpp/github_os/input/src/os_base\os_task_scheduler.c ****    #define SYSTICK_CTRL_STAT_REG ((uint32*)0xE000E010)
  36:E:/NeuOrga/Programmieren/c_cpp/github_os/input/src/os_base\os_task_scheduler.c ****    #define SYSTICK_RLD_VAL_REG   ((uint32*)0xE000E014)
  37:E:/NeuOrga/Programmieren/c_cpp/github_os/input/src/os_base\os_task_scheduler.c ****    #define SYSTICK_CURRENT_VAL_REG ((uint32*)0xE000E018)
  38:E:/NeuOrga/Programmieren/c_cpp/github_os/input/src/os_base\os_task_scheduler.c ****    #define SYSTICK_STAT_REG_TICKINT ((uint32)0x00000002)
  39:E:/NeuOrga/Programmieren/c_cpp/github_os/input/src/os_base\os_task_scheduler.c ****    #define SYSTICK_STAT_REG_ENABLE  ((uint32)0x00000001)
  40:E:/NeuOrga/Programmieren/c_cpp/github_os/input/src/os_base\os_task_scheduler.c ****    #define LOOPTIME_IN_USEC ((uint32)10000u)
  41:E:/NeuOrga/Programmieren/c_cpp/github_os/input/src/os_base\os_task_scheduler.c ****    /*
GAS LISTING C:\Users\PRESID~1\AppData\Local\Temp\ccrN058O.s 			page 2


  42:E:/NeuOrga/Programmieren/c_cpp/github_os/input/src/os_base\os_task_scheduler.c ****    CLOCK = HCLK / 8
  43:E:/NeuOrga/Programmieren/c_cpp/github_os/input/src/os_base\os_task_scheduler.c ****    vermutlich: CLOCK = 150Mhz / 8 = 18,75 Mhz
  44:E:/NeuOrga/Programmieren/c_cpp/github_os/input/src/os_base\os_task_scheduler.c ****    */
  45:E:/NeuOrga/Programmieren/c_cpp/github_os/input/src/os_base\os_task_scheduler.c ****    #if(CFG_PROCESSOR == cMCU_CORTEX_M4)
  46:E:/NeuOrga/Programmieren/c_cpp/github_os/input/src/os_base\os_task_scheduler.c ****    *SYSTICK_RLD_VAL_REG = *SYSTICK_RLD_VAL_REG | (((uint32)MCU_CLOCK_IN_HZ * LOOPTIME_IN_USEC) / ((
  47:E:/NeuOrga/Programmieren/c_cpp/github_os/input/src/os_base\os_task_scheduler.c ****    *SYSTICK_CURRENT_VAL_REG = ((uint32)0x00000000);
  48:E:/NeuOrga/Programmieren/c_cpp/github_os/input/src/os_base\os_task_scheduler.c ****    *SYSTICK_CTRL_STAT_REG = *SYSTICK_CTRL_STAT_REG | SYSTICK_STAT_REG_TICKINT | SYSTICK_STAT_REG_EN
  49:E:/NeuOrga/Programmieren/c_cpp/github_os/input/src/os_base\os_task_scheduler.c ****    #endif
  50:E:/NeuOrga/Programmieren/c_cpp/github_os/input/src/os_base\os_task_scheduler.c **** }
  18              		.loc 1 50 0
  19 0003 5D       		popl	%ebp
  20              		.cfi_restore 5
  21              		.cfi_def_cfa 4, 4
  22 0004 C3       		ret
  23              		.cfi_endproc
  24              	LFE0:
  25              		.globl	_OS_SLEEPTASK
  27              	_OS_SLEEPTASK:
  28              	LFB1:
  51:E:/NeuOrga/Programmieren/c_cpp/github_os/input/src/os_base\os_task_scheduler.c **** 
  52:E:/NeuOrga/Programmieren/c_cpp/github_os/input/src/os_base\os_task_scheduler.c **** 
  53:E:/NeuOrga/Programmieren/c_cpp/github_os/input/src/os_base\os_task_scheduler.c **** void OS_SLEEPTASK(task_t* task, task_time_t millisec)
  54:E:/NeuOrga/Programmieren/c_cpp/github_os/input/src/os_base\os_task_scheduler.c **** {
  29              		.loc 1 54 0
  30              		.cfi_startproc
  31 0005 55       		pushl	%ebp
  32              		.cfi_def_cfa_offset 8
  33              		.cfi_offset 5, -8
  34 0006 89E5     		movl	%esp, %ebp
  35              		.cfi_def_cfa_register 5
  36 0008 83EC08   		subl	$8, %esp
  55:E:/NeuOrga/Programmieren/c_cpp/github_os/input/src/os_base\os_task_scheduler.c ****    task->WaitActUntil = Get_current_time() + millisec;
  37              		.loc 1 55 0
  38 000b E8000000 		call	_Get_current_time
  38      00
  39 0010 89C2     		movl	%eax, %edx
  40 0012 8B450C   		movl	12(%ebp), %eax
  41 0015 01C2     		addl	%eax, %edx
  42 0017 8B4508   		movl	8(%ebp), %eax
  43 001a 895008   		movl	%edx, 8(%eax)
  56:E:/NeuOrga/Programmieren/c_cpp/github_os/input/src/os_base\os_task_scheduler.c **** }
  44              		.loc 1 56 0
  45 001d C9       		leave
  46              		.cfi_restore 5
  47              		.cfi_def_cfa 4, 4
  48 001e C3       		ret
  49              		.cfi_endproc
  50              	LFE1:
  51              		.globl	_task_state_request
  53              	_task_state_request:
  54              	LFB2:
  57:E:/NeuOrga/Programmieren/c_cpp/github_os/input/src/os_base\os_task_scheduler.c **** 
  58:E:/NeuOrga/Programmieren/c_cpp/github_os/input/src/os_base\os_task_scheduler.c **** unsigned_char_t task_state_request(void* temp_task, task_state_t requested_state)
  59:E:/NeuOrga/Programmieren/c_cpp/github_os/input/src/os_base\os_task_scheduler.c **** {
  55              		.loc 1 59 0
  56              		.cfi_startproc
  57 001f 55       		pushl	%ebp
GAS LISTING C:\Users\PRESID~1\AppData\Local\Temp\ccrN058O.s 			page 3


  58              		.cfi_def_cfa_offset 8
  59              		.cfi_offset 5, -8
  60 0020 89E5     		movl	%esp, %ebp
  61              		.cfi_def_cfa_register 5
  62 0022 83EC28   		subl	$40, %esp
  60:E:/NeuOrga/Programmieren/c_cpp/github_os/input/src/os_base\os_task_scheduler.c ****    unsigned_char_t RequestState = Rejected;
  63              		.loc 1 60 0
  64 0025 C645F700 		movb	$0, -9(%ebp)
  61:E:/NeuOrga/Programmieren/c_cpp/github_os/input/src/os_base\os_task_scheduler.c **** 
  62:E:/NeuOrga/Programmieren/c_cpp/github_os/input/src/os_base\os_task_scheduler.c ****    task_t* task = (task_t*) temp_task;
  65              		.loc 1 62 0
  66 0029 8B4508   		movl	8(%ebp), %eax
  67 002c 8945F0   		movl	%eax, -16(%ebp)
  63:E:/NeuOrga/Programmieren/c_cpp/github_os/input/src/os_base\os_task_scheduler.c **** 
  64:E:/NeuOrga/Programmieren/c_cpp/github_os/input/src/os_base\os_task_scheduler.c ****    switch(requested_state)
  68              		.loc 1 64 0
  69 002f 8B450C   		movl	12(%ebp), %eax
  70 0032 83F801   		cmpl	$1, %eax
  71 0035 743E     		je	L5
  72 0037 83F801   		cmpl	$1, %eax
  73 003a 7213     		jb	L6
  74 003c 83F802   		cmpl	$2, %eax
  75 003f 0F848000 		je	L7
  75      0000
  76 0045 83F803   		cmpl	$3, %eax
  77 0048 745D     		je	L8
  65:E:/NeuOrga/Programmieren/c_cpp/github_os/input/src/os_base\os_task_scheduler.c ****    {
  66:E:/NeuOrga/Programmieren/c_cpp/github_os/input/src/os_base\os_task_scheduler.c ****    case Task_unspecified:/* 1. create new task */
  67:E:/NeuOrga/Programmieren/c_cpp/github_os/input/src/os_base\os_task_scheduler.c ****    {
  68:E:/NeuOrga/Programmieren/c_cpp/github_os/input/src/os_base\os_task_scheduler.c ****       switch(task->task_state)
  69:E:/NeuOrga/Programmieren/c_cpp/github_os/input/src/os_base\os_task_scheduler.c ****       {
  70:E:/NeuOrga/Programmieren/c_cpp/github_os/input/src/os_base\os_task_scheduler.c ****       case Task_ready:
  71:E:/NeuOrga/Programmieren/c_cpp/github_os/input/src/os_base\os_task_scheduler.c ****       case Task_running:
  72:E:/NeuOrga/Programmieren/c_cpp/github_os/input/src/os_base\os_task_scheduler.c ****       case Task_suspended:
  73:E:/NeuOrga/Programmieren/c_cpp/github_os/input/src/os_base\os_task_scheduler.c ****       {
  74:E:/NeuOrga/Programmieren/c_cpp/github_os/input/src/os_base\os_task_scheduler.c ****          RequestState = Rejected;
  75:E:/NeuOrga/Programmieren/c_cpp/github_os/input/src/os_base\os_task_scheduler.c ****          break;
  76:E:/NeuOrga/Programmieren/c_cpp/github_os/input/src/os_base\os_task_scheduler.c ****       }
  77:E:/NeuOrga/Programmieren/c_cpp/github_os/input/src/os_base\os_task_scheduler.c ****       default:
  78:E:/NeuOrga/Programmieren/c_cpp/github_os/input/src/os_base\os_task_scheduler.c ****       {
  79:E:/NeuOrga/Programmieren/c_cpp/github_os/input/src/os_base\os_task_scheduler.c ****          task->task_state = Task_unspecified;
  80:E:/NeuOrga/Programmieren/c_cpp/github_os/input/src/os_base\os_task_scheduler.c ****          RequestState = Accepted;
  81:E:/NeuOrga/Programmieren/c_cpp/github_os/input/src/os_base\os_task_scheduler.c ****          break;
  82:E:/NeuOrga/Programmieren/c_cpp/github_os/input/src/os_base\os_task_scheduler.c ****       }
  83:E:/NeuOrga/Programmieren/c_cpp/github_os/input/src/os_base\os_task_scheduler.c ****       }
  84:E:/NeuOrga/Programmieren/c_cpp/github_os/input/src/os_base\os_task_scheduler.c ****       break;
  85:E:/NeuOrga/Programmieren/c_cpp/github_os/input/src/os_base\os_task_scheduler.c ****    }
  86:E:/NeuOrga/Programmieren/c_cpp/github_os/input/src/os_base\os_task_scheduler.c ****    case Task_suspended:
  87:E:/NeuOrga/Programmieren/c_cpp/github_os/input/src/os_base\os_task_scheduler.c ****    {
  88:E:/NeuOrga/Programmieren/c_cpp/github_os/input/src/os_base\os_task_scheduler.c ****       switch(task->task_state)
  89:E:/NeuOrga/Programmieren/c_cpp/github_os/input/src/os_base\os_task_scheduler.c ****       {
  90:E:/NeuOrga/Programmieren/c_cpp/github_os/input/src/os_base\os_task_scheduler.c ****       case Task_unspecified: /* 2. create task transition */
  91:E:/NeuOrga/Programmieren/c_cpp/github_os/input/src/os_base\os_task_scheduler.c ****       {
  92:E:/NeuOrga/Programmieren/c_cpp/github_os/input/src/os_base\os_task_scheduler.c ****          /* no checks */
  93:E:/NeuOrga/Programmieren/c_cpp/github_os/input/src/os_base\os_task_scheduler.c ****          task->task_state = Task_suspended;
  94:E:/NeuOrga/Programmieren/c_cpp/github_os/input/src/os_base\os_task_scheduler.c ****          RequestState = Accepted;
  95:E:/NeuOrga/Programmieren/c_cpp/github_os/input/src/os_base\os_task_scheduler.c ****          break;
GAS LISTING C:\Users\PRESID~1\AppData\Local\Temp\ccrN058O.s 			page 4


  96:E:/NeuOrga/Programmieren/c_cpp/github_os/input/src/os_base\os_task_scheduler.c ****       }
  97:E:/NeuOrga/Programmieren/c_cpp/github_os/input/src/os_base\os_task_scheduler.c ****       case Task_running: /* 3. terminate task */
  98:E:/NeuOrga/Programmieren/c_cpp/github_os/input/src/os_base\os_task_scheduler.c ****       {
  99:E:/NeuOrga/Programmieren/c_cpp/github_os/input/src/os_base\os_task_scheduler.c ****          task->task_state = Task_suspended;
 100:E:/NeuOrga/Programmieren/c_cpp/github_os/input/src/os_base\os_task_scheduler.c ****          RequestState = Accepted;
 101:E:/NeuOrga/Programmieren/c_cpp/github_os/input/src/os_base\os_task_scheduler.c ****          break;
 102:E:/NeuOrga/Programmieren/c_cpp/github_os/input/src/os_base\os_task_scheduler.c ****       }
 103:E:/NeuOrga/Programmieren/c_cpp/github_os/input/src/os_base\os_task_scheduler.c ****       default:
 104:E:/NeuOrga/Programmieren/c_cpp/github_os/input/src/os_base\os_task_scheduler.c ****       {
 105:E:/NeuOrga/Programmieren/c_cpp/github_os/input/src/os_base\os_task_scheduler.c ****          /* no change in states allowed */
 106:E:/NeuOrga/Programmieren/c_cpp/github_os/input/src/os_base\os_task_scheduler.c ****          break;
 107:E:/NeuOrga/Programmieren/c_cpp/github_os/input/src/os_base\os_task_scheduler.c ****       }
 108:E:/NeuOrga/Programmieren/c_cpp/github_os/input/src/os_base\os_task_scheduler.c ****       }
 109:E:/NeuOrga/Programmieren/c_cpp/github_os/input/src/os_base\os_task_scheduler.c ****       break;
 110:E:/NeuOrga/Programmieren/c_cpp/github_os/input/src/os_base\os_task_scheduler.c ****    }
 111:E:/NeuOrga/Programmieren/c_cpp/github_os/input/src/os_base\os_task_scheduler.c ****    case Task_running:
 112:E:/NeuOrga/Programmieren/c_cpp/github_os/input/src/os_base\os_task_scheduler.c ****    {
 113:E:/NeuOrga/Programmieren/c_cpp/github_os/input/src/os_base\os_task_scheduler.c ****       switch(task->task_state)
 114:E:/NeuOrga/Programmieren/c_cpp/github_os/input/src/os_base\os_task_scheduler.c ****       {
 115:E:/NeuOrga/Programmieren/c_cpp/github_os/input/src/os_base\os_task_scheduler.c ****       case Task_ready: /* 4. start task transition */
 116:E:/NeuOrga/Programmieren/c_cpp/github_os/input/src/os_base\os_task_scheduler.c ****       {
 117:E:/NeuOrga/Programmieren/c_cpp/github_os/input/src/os_base\os_task_scheduler.c ****          task->task_state = Task_running;
 118:E:/NeuOrga/Programmieren/c_cpp/github_os/input/src/os_base\os_task_scheduler.c ****          RequestState   = Accepted;
 119:E:/NeuOrga/Programmieren/c_cpp/github_os/input/src/os_base\os_task_scheduler.c ****          break;
 120:E:/NeuOrga/Programmieren/c_cpp/github_os/input/src/os_base\os_task_scheduler.c ****       }
 121:E:/NeuOrga/Programmieren/c_cpp/github_os/input/src/os_base\os_task_scheduler.c ****       default:
 122:E:/NeuOrga/Programmieren/c_cpp/github_os/input/src/os_base\os_task_scheduler.c ****       {
 123:E:/NeuOrga/Programmieren/c_cpp/github_os/input/src/os_base\os_task_scheduler.c ****          /* no change in states allowed */
 124:E:/NeuOrga/Programmieren/c_cpp/github_os/input/src/os_base\os_task_scheduler.c ****          break;
 125:E:/NeuOrga/Programmieren/c_cpp/github_os/input/src/os_base\os_task_scheduler.c ****       }
 126:E:/NeuOrga/Programmieren/c_cpp/github_os/input/src/os_base\os_task_scheduler.c ****       }
 127:E:/NeuOrga/Programmieren/c_cpp/github_os/input/src/os_base\os_task_scheduler.c ****       break;
 128:E:/NeuOrga/Programmieren/c_cpp/github_os/input/src/os_base\os_task_scheduler.c **** 
 129:E:/NeuOrga/Programmieren/c_cpp/github_os/input/src/os_base\os_task_scheduler.c ****    }
 130:E:/NeuOrga/Programmieren/c_cpp/github_os/input/src/os_base\os_task_scheduler.c ****    case Task_ready:
 131:E:/NeuOrga/Programmieren/c_cpp/github_os/input/src/os_base\os_task_scheduler.c ****    {
 132:E:/NeuOrga/Programmieren/c_cpp/github_os/input/src/os_base\os_task_scheduler.c ****       switch(task->task_state)
 133:E:/NeuOrga/Programmieren/c_cpp/github_os/input/src/os_base\os_task_scheduler.c ****       {
 134:E:/NeuOrga/Programmieren/c_cpp/github_os/input/src/os_base\os_task_scheduler.c ****       case Task_suspended: /* activate task transition */
 135:E:/NeuOrga/Programmieren/c_cpp/github_os/input/src/os_base\os_task_scheduler.c ****       {
 136:E:/NeuOrga/Programmieren/c_cpp/github_os/input/src/os_base\os_task_scheduler.c ****          task->task_state = Task_ready;
 137:E:/NeuOrga/Programmieren/c_cpp/github_os/input/src/os_base\os_task_scheduler.c ****          RequestState   = Accepted;
 138:E:/NeuOrga/Programmieren/c_cpp/github_os/input/src/os_base\os_task_scheduler.c ****          break;
 139:E:/NeuOrga/Programmieren/c_cpp/github_os/input/src/os_base\os_task_scheduler.c ****       }
 140:E:/NeuOrga/Programmieren/c_cpp/github_os/input/src/os_base\os_task_scheduler.c ****       case Task_running: /* preempt task transition */
 141:E:/NeuOrga/Programmieren/c_cpp/github_os/input/src/os_base\os_task_scheduler.c ****       {
 142:E:/NeuOrga/Programmieren/c_cpp/github_os/input/src/os_base\os_task_scheduler.c ****          task->task_state = Task_ready;
 143:E:/NeuOrga/Programmieren/c_cpp/github_os/input/src/os_base\os_task_scheduler.c ****          RequestState   = Accepted;
 144:E:/NeuOrga/Programmieren/c_cpp/github_os/input/src/os_base\os_task_scheduler.c ****          break;
 145:E:/NeuOrga/Programmieren/c_cpp/github_os/input/src/os_base\os_task_scheduler.c ****       }
 146:E:/NeuOrga/Programmieren/c_cpp/github_os/input/src/os_base\os_task_scheduler.c ****       default:
 147:E:/NeuOrga/Programmieren/c_cpp/github_os/input/src/os_base\os_task_scheduler.c ****       {
 148:E:/NeuOrga/Programmieren/c_cpp/github_os/input/src/os_base\os_task_scheduler.c ****          /* no change in states allowed */
 149:E:/NeuOrga/Programmieren/c_cpp/github_os/input/src/os_base\os_task_scheduler.c ****          break;
 150:E:/NeuOrga/Programmieren/c_cpp/github_os/input/src/os_base\os_task_scheduler.c ****       }
 151:E:/NeuOrga/Programmieren/c_cpp/github_os/input/src/os_base\os_task_scheduler.c ****       }
 152:E:/NeuOrga/Programmieren/c_cpp/github_os/input/src/os_base\os_task_scheduler.c ****       break;
GAS LISTING C:\Users\PRESID~1\AppData\Local\Temp\ccrN058O.s 			page 5


 153:E:/NeuOrga/Programmieren/c_cpp/github_os/input/src/os_base\os_task_scheduler.c ****    }
 154:E:/NeuOrga/Programmieren/c_cpp/github_os/input/src/os_base\os_task_scheduler.c ****    default:
 155:E:/NeuOrga/Programmieren/c_cpp/github_os/input/src/os_base\os_task_scheduler.c ****    {
 156:E:/NeuOrga/Programmieren/c_cpp/github_os/input/src/os_base\os_task_scheduler.c ****       break;
  78              		.loc 1 156 0
  79 004a E9A80000 		jmp	L12
  79      00
  80              	L6:
  68:E:/NeuOrga/Programmieren/c_cpp/github_os/input/src/os_base\os_task_scheduler.c ****       {
  81              		.loc 1 68 0
  82 004f 8B45F0   		movl	-16(%ebp), %eax
  83 0052 8B4034   		movl	52(%eax), %eax
  84 0055 48       		decl	%eax
  85 0056 83F802   		cmpl	$2, %eax
  86 0059 7706     		ja	L9
  74:E:/NeuOrga/Programmieren/c_cpp/github_os/input/src/os_base\os_task_scheduler.c ****          break;
  87              		.loc 1 74 0
  88 005b C645F700 		movb	$0, -9(%ebp)
  75:E:/NeuOrga/Programmieren/c_cpp/github_os/input/src/os_base\os_task_scheduler.c ****       }
  89              		.loc 1 75 0
  90 005f EB0F     		jmp	L11
  91              	L9:
  79:E:/NeuOrga/Programmieren/c_cpp/github_os/input/src/os_base\os_task_scheduler.c ****          RequestState = Accepted;
  92              		.loc 1 79 0
  93 0061 8B45F0   		movl	-16(%ebp), %eax
  94 0064 C7403400 		movl	$0, 52(%eax)
  94      000000
  80:E:/NeuOrga/Programmieren/c_cpp/github_os/input/src/os_base\os_task_scheduler.c ****          break;
  95              		.loc 1 80 0
  96 006b C645F701 		movb	$1, -9(%ebp)
  81:E:/NeuOrga/Programmieren/c_cpp/github_os/input/src/os_base\os_task_scheduler.c ****       }
  97              		.loc 1 81 0
  98 006f 90       		nop
  99              	L11:
  84:E:/NeuOrga/Programmieren/c_cpp/github_os/input/src/os_base\os_task_scheduler.c ****    }
 100              		.loc 1 84 0
 101 0070 E9820000 		jmp	L12
 101      00
 102              	L5:
  88:E:/NeuOrga/Programmieren/c_cpp/github_os/input/src/os_base\os_task_scheduler.c ****       {
 103              		.loc 1 88 0
 104 0075 8B45F0   		movl	-16(%ebp), %eax
 105 0078 8B4034   		movl	52(%eax), %eax
 106 007b 85C0     		testl	%eax, %eax
 107 007d 7407     		je	L14
 108 007f 83F803   		cmpl	$3, %eax
 109 0082 7412     		je	L15
 106:E:/NeuOrga/Programmieren/c_cpp/github_os/input/src/os_base\os_task_scheduler.c ****       }
 110              		.loc 1 106 0
 111 0084 EB1F     		jmp	L16
 112              	L14:
  93:E:/NeuOrga/Programmieren/c_cpp/github_os/input/src/os_base\os_task_scheduler.c ****          RequestState = Accepted;
 113              		.loc 1 93 0
 114 0086 8B45F0   		movl	-16(%ebp), %eax
 115 0089 C7403401 		movl	$1, 52(%eax)
 115      000000
  94:E:/NeuOrga/Programmieren/c_cpp/github_os/input/src/os_base\os_task_scheduler.c ****          break;
GAS LISTING C:\Users\PRESID~1\AppData\Local\Temp\ccrN058O.s 			page 6


 116              		.loc 1 94 0
 117 0090 C645F701 		movb	$1, -9(%ebp)
  95:E:/NeuOrga/Programmieren/c_cpp/github_os/input/src/os_base\os_task_scheduler.c ****       }
 118              		.loc 1 95 0
 119 0094 EB0F     		jmp	L16
 120              	L15:
  99:E:/NeuOrga/Programmieren/c_cpp/github_os/input/src/os_base\os_task_scheduler.c ****          RequestState = Accepted;
 121              		.loc 1 99 0
 122 0096 8B45F0   		movl	-16(%ebp), %eax
 123 0099 C7403401 		movl	$1, 52(%eax)
 123      000000
 100:E:/NeuOrga/Programmieren/c_cpp/github_os/input/src/os_base\os_task_scheduler.c ****          break;
 124              		.loc 1 100 0
 125 00a0 C645F701 		movb	$1, -9(%ebp)
 101:E:/NeuOrga/Programmieren/c_cpp/github_os/input/src/os_base\os_task_scheduler.c ****       }
 126              		.loc 1 101 0
 127 00a4 90       		nop
 128              	L16:
 109:E:/NeuOrga/Programmieren/c_cpp/github_os/input/src/os_base\os_task_scheduler.c ****    }
 129              		.loc 1 109 0 discriminator 1
 130 00a5 EB50     		jmp	L12
 131              	L8:
 113:E:/NeuOrga/Programmieren/c_cpp/github_os/input/src/os_base\os_task_scheduler.c ****       {
 132              		.loc 1 113 0
 133 00a7 8B45F0   		movl	-16(%ebp), %eax
 134 00aa 8B4034   		movl	52(%eax), %eax
 135 00ad 83F802   		cmpl	$2, %eax
 136 00b0 7402     		je	L18
 124:E:/NeuOrga/Programmieren/c_cpp/github_os/input/src/os_base\os_task_scheduler.c ****       }
 137              		.loc 1 124 0
 138 00b2 EB0F     		jmp	L19
 139              	L18:
 117:E:/NeuOrga/Programmieren/c_cpp/github_os/input/src/os_base\os_task_scheduler.c ****          RequestState   = Accepted;
 140              		.loc 1 117 0
 141 00b4 8B45F0   		movl	-16(%ebp), %eax
 142 00b7 C7403403 		movl	$3, 52(%eax)
 142      000000
 118:E:/NeuOrga/Programmieren/c_cpp/github_os/input/src/os_base\os_task_scheduler.c ****          break;
 143              		.loc 1 118 0
 144 00be C645F701 		movb	$1, -9(%ebp)
 119:E:/NeuOrga/Programmieren/c_cpp/github_os/input/src/os_base\os_task_scheduler.c ****       }
 145              		.loc 1 119 0
 146 00c2 90       		nop
 147              	L19:
 127:E:/NeuOrga/Programmieren/c_cpp/github_os/input/src/os_base\os_task_scheduler.c **** 
 148              		.loc 1 127 0 discriminator 2
 149 00c3 EB32     		jmp	L12
 150              	L7:
 132:E:/NeuOrga/Programmieren/c_cpp/github_os/input/src/os_base\os_task_scheduler.c ****       {
 151              		.loc 1 132 0
 152 00c5 8B45F0   		movl	-16(%ebp), %eax
 153 00c8 8B4034   		movl	52(%eax), %eax
 154 00cb 83F801   		cmpl	$1, %eax
 155 00ce 7407     		je	L21
 156 00d0 83F803   		cmpl	$3, %eax
 157 00d3 7412     		je	L22
 149:E:/NeuOrga/Programmieren/c_cpp/github_os/input/src/os_base\os_task_scheduler.c ****       }
GAS LISTING C:\Users\PRESID~1\AppData\Local\Temp\ccrN058O.s 			page 7


 158              		.loc 1 149 0
 159 00d5 EB1F     		jmp	L23
 160              	L21:
 136:E:/NeuOrga/Programmieren/c_cpp/github_os/input/src/os_base\os_task_scheduler.c ****          RequestState   = Accepted;
 161              		.loc 1 136 0
 162 00d7 8B45F0   		movl	-16(%ebp), %eax
 163 00da C7403402 		movl	$2, 52(%eax)
 163      000000
 137:E:/NeuOrga/Programmieren/c_cpp/github_os/input/src/os_base\os_task_scheduler.c ****          break;
 164              		.loc 1 137 0
 165 00e1 C645F701 		movb	$1, -9(%ebp)
 138:E:/NeuOrga/Programmieren/c_cpp/github_os/input/src/os_base\os_task_scheduler.c ****       }
 166              		.loc 1 138 0
 167 00e5 EB0F     		jmp	L23
 168              	L22:
 142:E:/NeuOrga/Programmieren/c_cpp/github_os/input/src/os_base\os_task_scheduler.c ****          RequestState   = Accepted;
 169              		.loc 1 142 0
 170 00e7 8B45F0   		movl	-16(%ebp), %eax
 171 00ea C7403402 		movl	$2, 52(%eax)
 171      000000
 143:E:/NeuOrga/Programmieren/c_cpp/github_os/input/src/os_base\os_task_scheduler.c ****          break;
 172              		.loc 1 143 0
 173 00f1 C645F701 		movb	$1, -9(%ebp)
 144:E:/NeuOrga/Programmieren/c_cpp/github_os/input/src/os_base\os_task_scheduler.c ****       }
 174              		.loc 1 144 0
 175 00f5 90       		nop
 176              	L23:
 152:E:/NeuOrga/Programmieren/c_cpp/github_os/input/src/os_base\os_task_scheduler.c ****    }
 177              		.loc 1 152 0 discriminator 3
 178 00f6 90       		nop
 179              	L12:
 157:E:/NeuOrga/Programmieren/c_cpp/github_os/input/src/os_base\os_task_scheduler.c ****    }
 158:E:/NeuOrga/Programmieren/c_cpp/github_os/input/src/os_base\os_task_scheduler.c ****    }
 159:E:/NeuOrga/Programmieren/c_cpp/github_os/input/src/os_base\os_task_scheduler.c ****    if(RequestState == Rejected)
 180              		.loc 1 159 0
 181 00f7 807DF700 		cmpb	$0, -9(%ebp)
 182 00fb 7514     		jne	L24
 160:E:/NeuOrga/Programmieren/c_cpp/github_os/input/src/os_base\os_task_scheduler.c ****    {
 161:E:/NeuOrga/Programmieren/c_cpp/github_os/input/src/os_base\os_task_scheduler.c ****       OS_SET_SW_BUG(os_bug_taskstate_request_denied, Func_TaskStateRequest);
 183              		.loc 1 161 0
 184 00fd C7442404 		movl	$11, 4(%esp)
 184      0B000000 
 185 0105 C7042401 		movl	$1, (%esp)
 185      000000
 186 010c E8000000 		call	_OS_SET_SW_BUG
 186      00
 187              	L24:
 162:E:/NeuOrga/Programmieren/c_cpp/github_os/input/src/os_base\os_task_scheduler.c ****    }
 163:E:/NeuOrga/Programmieren/c_cpp/github_os/input/src/os_base\os_task_scheduler.c ****    return RequestState;
 188              		.loc 1 163 0
 189 0111 8A45F7   		movb	-9(%ebp), %al
 164:E:/NeuOrga/Programmieren/c_cpp/github_os/input/src/os_base\os_task_scheduler.c **** }
 190              		.loc 1 164 0
 191 0114 C9       		leave
 192              		.cfi_restore 5
 193              		.cfi_def_cfa 4, 4
 194 0115 C3       		ret
GAS LISTING C:\Users\PRESID~1\AppData\Local\Temp\ccrN058O.s 			page 8


 195              		.cfi_endproc
 196              	LFE2:
 197              		.globl	_OS_ActivateTask
 199              	_OS_ActivateTask:
 200              	LFB3:
 165:E:/NeuOrga/Programmieren/c_cpp/github_os/input/src/os_base\os_task_scheduler.c **** void OS_ActivateTask(task_t* task)
 166:E:/NeuOrga/Programmieren/c_cpp/github_os/input/src/os_base\os_task_scheduler.c **** {
 201              		.loc 1 166 0
 202              		.cfi_startproc
 203 0116 55       		pushl	%ebp
 204              		.cfi_def_cfa_offset 8
 205              		.cfi_offset 5, -8
 206 0117 89E5     		movl	%esp, %ebp
 207              		.cfi_def_cfa_register 5
 208 0119 83EC18   		subl	$24, %esp
 167:E:/NeuOrga/Programmieren/c_cpp/github_os/input/src/os_base\os_task_scheduler.c ****    /*
 168:E:/NeuOrga/Programmieren/c_cpp/github_os/input/src/os_base\os_task_scheduler.c ****    Activate Task:
 169:E:/NeuOrga/Programmieren/c_cpp/github_os/input/src/os_base\os_task_scheduler.c ****    - Disable Interrupts
 170:E:/NeuOrga/Programmieren/c_cpp/github_os/input/src/os_base\os_task_scheduler.c ****    - Add to schedule Queue
 171:E:/NeuOrga/Programmieren/c_cpp/github_os/input/src/os_base\os_task_scheduler.c ****    - Enable Interrupts
 172:E:/NeuOrga/Programmieren/c_cpp/github_os/input/src/os_base\os_task_scheduler.c **** 
 173:E:/NeuOrga/Programmieren/c_cpp/github_os/input/src/os_base\os_task_scheduler.c ****    in case of valid request, the content, where the "task_t* task" is point to is stored in TASK_RU
 174:E:/NeuOrga/Programmieren/c_cpp/github_os/input/src/os_base\os_task_scheduler.c ****    */
 175:E:/NeuOrga/Programmieren/c_cpp/github_os/input/src/os_base\os_task_scheduler.c ****    if(task != 0)
 209              		.loc 1 175 0
 210 011c 837D0800 		cmpl	$0, 8(%ebp)
 211 0120 0F84AC00 		je	L26
 211      0000
 176:E:/NeuOrga/Programmieren/c_cpp/github_os/input/src/os_base\os_task_scheduler.c ****    {
 177:E:/NeuOrga/Programmieren/c_cpp/github_os/input/src/os_base\os_task_scheduler.c ****       if((task->IdleTask != False)||(task->state_request(task, Task_ready)==Accepted))
 212              		.loc 1 177 0
 213 0126 8B4508   		movl	8(%ebp), %eax
 214 0129 8A00     		movb	(%eax), %al
 215 012b 83E004   		andl	$4, %eax
 216 012e 84C0     		testb	%al, %al
 217 0130 751A     		jne	L28
 218              		.loc 1 177 0 is_stmt 0 discriminator 1
 219 0132 8B4508   		movl	8(%ebp), %eax
 220 0135 8B4030   		movl	48(%eax), %eax
 221 0138 C7442404 		movl	$2, 4(%esp)
 221      02000000 
 222 0140 8B5508   		movl	8(%ebp), %edx
 223 0143 891424   		movl	%edx, (%esp)
 224 0146 FFD0     		call	*%eax
 225 0148 3C01     		cmpb	$1, %al
 226 014a 7572     		jne	L29
 227              	L28:
 178:E:/NeuOrga/Programmieren/c_cpp/github_os/input/src/os_base\os_task_scheduler.c ****       {
 179:E:/NeuOrga/Programmieren/c_cpp/github_os/input/src/os_base\os_task_scheduler.c ****          DisableInterrupts();
 180:E:/NeuOrga/Programmieren/c_cpp/github_os/input/src/os_base\os_task_scheduler.c ****          /* 3. suspended to ready (add to runqueue) */
 181:E:/NeuOrga/Programmieren/c_cpp/github_os/input/src/os_base\os_task_scheduler.c ****          if(task->IdleTask == False)
 228              		.loc 1 181 0 is_stmt 1
 229 014c 8B4508   		movl	8(%ebp), %eax
 230 014f 8A00     		movb	(%eax), %al
 231 0151 83E004   		andl	$4, %eax
 232 0154 84C0     		testb	%al, %al
 233 0156 7557     		jne	L30
GAS LISTING C:\Users\PRESID~1\AppData\Local\Temp\ccrN058O.s 			page 9


 182:E:/NeuOrga/Programmieren/c_cpp/github_os/input/src/os_base\os_task_scheduler.c ****          {
 183:E:/NeuOrga/Programmieren/c_cpp/github_os/input/src/os_base\os_task_scheduler.c ****             if( (task->active == False)
 234              		.loc 1 183 0
 235 0158 8B4508   		movl	8(%ebp), %eax
 236 015b 8A00     		movb	(%eax), %al
 237 015d 83E001   		andl	$1, %eax
 238 0160 84C0     		testb	%al, %al
 239 0162 741C     		je	L31
 184:E:/NeuOrga/Programmieren/c_cpp/github_os/input/src/os_base\os_task_scheduler.c ****                   || ( (task->active == True) && (task->NrOfInsAllowed > task->NrOfInsActivated) )/
 240              		.loc 1 184 0
 241 0164 8B4508   		movl	8(%ebp), %eax
 242 0167 8A00     		movb	(%eax), %al
 243 0169 83E001   		andl	$1, %eax
 244 016c 84C0     		testb	%al, %al
 245 016e 744C     		je	L33
 246              		.loc 1 184 0 is_stmt 0 discriminator 1
 247 0170 8B4508   		movl	8(%ebp), %eax
 248 0173 8A5004   		movb	4(%eax), %dl
 249 0176 8B4508   		movl	8(%ebp), %eax
 250 0179 8A4005   		movb	5(%eax), %al
 251 017c 38C2     		cmpb	%al, %dl
 252 017e 763C     		jbe	L33
 253              	L31:
 185:E:/NeuOrga/Programmieren/c_cpp/github_os/input/src/os_base\os_task_scheduler.c ****               )
 186:E:/NeuOrga/Programmieren/c_cpp/github_os/input/src/os_base\os_task_scheduler.c ****             {
 187:E:/NeuOrga/Programmieren/c_cpp/github_os/input/src/os_base\os_task_scheduler.c ****                /* only activate if allowed by rule */
 188:E:/NeuOrga/Programmieren/c_cpp/github_os/input/src/os_base\os_task_scheduler.c ****                task = AddToTaskQueue(task);
 254              		.loc 1 188 0 is_stmt 1
 255 0180 8B4508   		movl	8(%ebp), %eax
 256 0183 890424   		movl	%eax, (%esp)
 257 0186 E8000000 		call	_AddToTaskQueue
 257      00
 258 018b 894508   		movl	%eax, 8(%ebp)
 189:E:/NeuOrga/Programmieren/c_cpp/github_os/input/src/os_base\os_task_scheduler.c **** 
 190:E:/NeuOrga/Programmieren/c_cpp/github_os/input/src/os_base\os_task_scheduler.c ****                AddToLinkList(task);
 259              		.loc 1 190 0
 260 018e 8B4508   		movl	8(%ebp), %eax
 261 0191 890424   		movl	%eax, (%esp)
 262 0194 E8000000 		call	_AddToLinkList
 262      00
 191:E:/NeuOrga/Programmieren/c_cpp/github_os/input/src/os_base\os_task_scheduler.c ****                UpdateLinkList();
 263              		.loc 1 191 0
 264 0199 E8000000 		call	_UpdateLinkList
 264      00
 192:E:/NeuOrga/Programmieren/c_cpp/github_os/input/src/os_base\os_task_scheduler.c ****                task->NrOfInsActivated++;
 265              		.loc 1 192 0
 266 019e 8B4508   		movl	8(%ebp), %eax
 267 01a1 8A4005   		movb	5(%eax), %al
 268 01a4 8D5001   		leal	1(%eax), %edx
 269 01a7 8B4508   		movl	8(%ebp), %eax
 270 01aa 885005   		movb	%dl, 5(%eax)
 181:E:/NeuOrga/Programmieren/c_cpp/github_os/input/src/os_base\os_task_scheduler.c ****          {
 271              		.loc 1 181 0
 272 01ad EB23     		jmp	L26
 273              	L30:
 193:E:/NeuOrga/Programmieren/c_cpp/github_os/input/src/os_base\os_task_scheduler.c ****             }
 194:E:/NeuOrga/Programmieren/c_cpp/github_os/input/src/os_base\os_task_scheduler.c ****             else
GAS LISTING C:\Users\PRESID~1\AppData\Local\Temp\ccrN058O.s 			page 10


 195:E:/NeuOrga/Programmieren/c_cpp/github_os/input/src/os_base\os_task_scheduler.c ****             {
 196:E:/NeuOrga/Programmieren/c_cpp/github_os/input/src/os_base\os_task_scheduler.c ****                /* multiple activation bug occured */
 197:E:/NeuOrga/Programmieren/c_cpp/github_os/input/src/os_base\os_task_scheduler.c ****             }
 198:E:/NeuOrga/Programmieren/c_cpp/github_os/input/src/os_base\os_task_scheduler.c ****          }
 199:E:/NeuOrga/Programmieren/c_cpp/github_os/input/src/os_base\os_task_scheduler.c ****          else
 200:E:/NeuOrga/Programmieren/c_cpp/github_os/input/src/os_base\os_task_scheduler.c ****          {
 201:E:/NeuOrga/Programmieren/c_cpp/github_os/input/src/os_base\os_task_scheduler.c ****             AddToIdleTaskQueue(task);
 274              		.loc 1 201 0
 275 01af 8B4508   		movl	8(%ebp), %eax
 276 01b2 890424   		movl	%eax, (%esp)
 277 01b5 E8000000 		call	_AddToIdleTaskQueue
 277      00
 181:E:/NeuOrga/Programmieren/c_cpp/github_os/input/src/os_base\os_task_scheduler.c ****          {
 278              		.loc 1 181 0
 279 01ba EB16     		jmp	L26
 280              	L33:
 181:E:/NeuOrga/Programmieren/c_cpp/github_os/input/src/os_base\os_task_scheduler.c ****          {
 281              		.loc 1 181 0 is_stmt 0 discriminator 1
 282 01bc EB14     		jmp	L26
 283              	L29:
 202:E:/NeuOrga/Programmieren/c_cpp/github_os/input/src/os_base\os_task_scheduler.c ****          }
 203:E:/NeuOrga/Programmieren/c_cpp/github_os/input/src/os_base\os_task_scheduler.c ****          EnableInterrupts();
 204:E:/NeuOrga/Programmieren/c_cpp/github_os/input/src/os_base\os_task_scheduler.c ****       }
 205:E:/NeuOrga/Programmieren/c_cpp/github_os/input/src/os_base\os_task_scheduler.c ****       else
 206:E:/NeuOrga/Programmieren/c_cpp/github_os/input/src/os_base\os_task_scheduler.c ****       {
 207:E:/NeuOrga/Programmieren/c_cpp/github_os/input/src/os_base\os_task_scheduler.c ****          OS_SET_SW_BUG(os_bug_taskstate_request_denied, Func_ActivateTask);
 284              		.loc 1 207 0 is_stmt 1
 285 01be C7442404 		movl	$10, 4(%esp)
 285      0A000000 
 286 01c6 C7042401 		movl	$1, (%esp)
 286      000000
 287 01cd E8000000 		call	_OS_SET_SW_BUG
 287      00
 288              	L26:
 208:E:/NeuOrga/Programmieren/c_cpp/github_os/input/src/os_base\os_task_scheduler.c ****       }
 209:E:/NeuOrga/Programmieren/c_cpp/github_os/input/src/os_base\os_task_scheduler.c ****    }
 210:E:/NeuOrga/Programmieren/c_cpp/github_os/input/src/os_base\os_task_scheduler.c **** }
 289              		.loc 1 210 0
 290 01d2 C9       		leave
 291              		.cfi_restore 5
 292              		.cfi_def_cfa 4, 4
 293 01d3 C3       		ret
 294              		.cfi_endproc
 295              	LFE3:
 297              	_OS_STARTTASK:
 298              	LFB4:
 211:E:/NeuOrga/Programmieren/c_cpp/github_os/input/src/os_base\os_task_scheduler.c **** Local void OS_STARTTASK(task_t* task)
 212:E:/NeuOrga/Programmieren/c_cpp/github_os/input/src/os_base\os_task_scheduler.c **** {
 299              		.loc 1 212 0
 300              		.cfi_startproc
 301 01d4 55       		pushl	%ebp
 302              		.cfi_def_cfa_offset 8
 303              		.cfi_offset 5, -8
 304 01d5 89E5     		movl	%esp, %ebp
 305              		.cfi_def_cfa_register 5
 306 01d7 83EC18   		subl	$24, %esp
 213:E:/NeuOrga/Programmieren/c_cpp/github_os/input/src/os_base\os_task_scheduler.c ****    /* OS_STARTTASK
GAS LISTING C:\Users\PRESID~1\AppData\Local\Temp\ccrN058O.s 			page 11


 214:E:/NeuOrga/Programmieren/c_cpp/github_os/input/src/os_base\os_task_scheduler.c ****    - Disable interrupts
 215:E:/NeuOrga/Programmieren/c_cpp/github_os/input/src/os_base\os_task_scheduler.c ****    - restore Environment
 216:E:/NeuOrga/Programmieren/c_cpp/github_os/input/src/os_base\os_task_scheduler.c ****    - enable interrupts
 217:E:/NeuOrga/Programmieren/c_cpp/github_os/input/src/os_base\os_task_scheduler.c **** 
 218:E:/NeuOrga/Programmieren/c_cpp/github_os/input/src/os_base\os_task_scheduler.c ****    - Start Task
 219:E:/NeuOrga/Programmieren/c_cpp/github_os/input/src/os_base\os_task_scheduler.c ****     */
 220:E:/NeuOrga/Programmieren/c_cpp/github_os/input/src/os_base\os_task_scheduler.c ****    if(task != 0 && ((task->task_queued != False)||(task->IdleTask != False)))
 307              		.loc 1 220 0
 308 01da 837D0800 		cmpl	$0, 8(%ebp)
 309 01de 0F84E500 		je	L34
 309      0000
 310              		.loc 1 220 0 is_stmt 0 discriminator 1
 311 01e4 8B4508   		movl	8(%ebp), %eax
 312 01e7 8A00     		movb	(%eax), %al
 313 01e9 83E002   		andl	$2, %eax
 314 01ec 84C0     		testb	%al, %al
 315 01ee 7510     		jne	L36
 316              		.loc 1 220 0 discriminator 2
 317 01f0 8B4508   		movl	8(%ebp), %eax
 318 01f3 8A00     		movb	(%eax), %al
 319 01f5 83E004   		andl	$4, %eax
 320 01f8 84C0     		testb	%al, %al
 321 01fa 0F84C900 		je	L34
 321      0000
 322              	L36:
 221:E:/NeuOrga/Programmieren/c_cpp/github_os/input/src/os_base\os_task_scheduler.c ****    {
 222:E:/NeuOrga/Programmieren/c_cpp/github_os/input/src/os_base\os_task_scheduler.c ****       if(task->state_request !=0)
 323              		.loc 1 222 0 is_stmt 1
 324 0200 8B4508   		movl	8(%ebp), %eax
 325 0203 8B4030   		movl	48(%eax), %eax
 326 0206 85C0     		testl	%eax, %eax
 327 0208 0F84A700 		je	L37
 327      0000
 223:E:/NeuOrga/Programmieren/c_cpp/github_os/input/src/os_base\os_task_scheduler.c ****       {
 224:E:/NeuOrga/Programmieren/c_cpp/github_os/input/src/os_base\os_task_scheduler.c ****          if(task->state_request(task, Task_running)== Accepted)
 328              		.loc 1 224 0
 329 020e 8B4508   		movl	8(%ebp), %eax
 330 0211 8B4030   		movl	48(%eax), %eax
 331 0214 C7442404 		movl	$3, 4(%esp)
 331      03000000 
 332 021c 8B5508   		movl	8(%ebp), %edx
 333 021f 891424   		movl	%edx, (%esp)
 334 0222 FFD0     		call	*%eax
 335 0224 3C01     		cmpb	$1, %al
 336 0226 7577     		jne	L38
 225:E:/NeuOrga/Programmieren/c_cpp/github_os/input/src/os_base\os_task_scheduler.c ****          {
 226:E:/NeuOrga/Programmieren/c_cpp/github_os/input/src/os_base\os_task_scheduler.c ****             DisableInterrupts();
 227:E:/NeuOrga/Programmieren/c_cpp/github_os/input/src/os_base\os_task_scheduler.c ****             task->active =  True;
 337              		.loc 1 227 0
 338 0228 8B4508   		movl	8(%ebp), %eax
 339 022b 8A10     		movb	(%eax), %dl
 340 022d 83CA01   		orl	$1, %edx
 341 0230 8810     		movb	%dl, (%eax)
 228:E:/NeuOrga/Programmieren/c_cpp/github_os/input/src/os_base\os_task_scheduler.c ****             task->wait_time = 0;
 342              		.loc 1 228 0
 343 0232 8B4508   		movl	8(%ebp), %eax
 344 0235 C7400C00 		movl	$0, 12(%eax)
GAS LISTING C:\Users\PRESID~1\AppData\Local\Temp\ccrN058O.s 			page 12


 344      000000
 229:E:/NeuOrga/Programmieren/c_cpp/github_os/input/src/os_base\os_task_scheduler.c ****             task->current_prio = task->default_prio;
 345              		.loc 1 229 0
 346 023c 8B4508   		movl	8(%ebp), %eax
 347 023f 8A5025   		movb	37(%eax), %dl
 348 0242 8B4508   		movl	8(%ebp), %eax
 349 0245 885024   		movb	%dl, 36(%eax)
 230:E:/NeuOrga/Programmieren/c_cpp/github_os/input/src/os_base\os_task_scheduler.c ****             OS_TASK_SAVE_SYSTEM_STACK(&OS_STACK[GET_CORE_ID()][0]);
 350              		.loc 1 230 0
 351 0248 E8000000 		call	_GET_CORE_ID
 351      00
 352 024d C1E008   		sall	$8, %eax
 353 0250 05000000 		addl	$_OS_STACK, %eax
 353      00
 354 0255 890424   		movl	%eax, (%esp)
 355 0258 E8000000 		call	_OS_TASK_SAVE_SYSTEM_STACK
 355      00
 231:E:/NeuOrga/Programmieren/c_cpp/github_os/input/src/os_base\os_task_scheduler.c ****             OS_TASK_RESTORETASK_ENVIRONMENT(task);
 356              		.loc 1 231 0
 357 025d 8B4508   		movl	8(%ebp), %eax
 358 0260 890424   		movl	%eax, (%esp)
 359 0263 E8000000 		call	_OS_TASK_RESTORETASK_ENVIRONMENT
 359      00
 232:E:/NeuOrga/Programmieren/c_cpp/github_os/input/src/os_base\os_task_scheduler.c ****             task->start_time = Get_current_time();
 360              		.loc 1 232 0
 361 0268 E8000000 		call	_Get_current_time
 361      00
 362 026d 89C2     		movl	%eax, %edx
 363 026f 8B4508   		movl	8(%ebp), %eax
 364 0272 895020   		movl	%edx, 32(%eax)
 233:E:/NeuOrga/Programmieren/c_cpp/github_os/input/src/os_base\os_task_scheduler.c ****             EnableInterrupts();
 234:E:/NeuOrga/Programmieren/c_cpp/github_os/input/src/os_base\os_task_scheduler.c **** 
 235:E:/NeuOrga/Programmieren/c_cpp/github_os/input/src/os_base\os_task_scheduler.c ****             /* task execution shall not happen with disabled interrupts */
 236:E:/NeuOrga/Programmieren/c_cpp/github_os/input/src/os_base\os_task_scheduler.c ****             SET_RUNNING_TASK(task);
 365              		.loc 1 236 0
 366 0275 8B4508   		movl	8(%ebp), %eax
 367 0278 890424   		movl	%eax, (%esp)
 368 027b E8000000 		call	_SET_RUNNING_TASK
 368      00
 237:E:/NeuOrga/Programmieren/c_cpp/github_os/input/src/os_base\os_task_scheduler.c ****             /* change to user mode... */
 238:E:/NeuOrga/Programmieren/c_cpp/github_os/input/src/os_base\os_task_scheduler.c ****             if(task->privilige_mode == ePriviligeMode_unpriviliged_thread_mode)
 369              		.loc 1 238 0
 370 0280 8B4508   		movl	8(%ebp), %eax
 371 0283 8B4060   		movl	96(%eax), %eax
 372 0286 85C0     		testl	%eax, %eax
 373 0288 7505     		jne	L39
 239:E:/NeuOrga/Programmieren/c_cpp/github_os/input/src/os_base\os_task_scheduler.c ****             {
 240:E:/NeuOrga/Programmieren/c_cpp/github_os/input/src/os_base\os_task_scheduler.c ****                LLF_CHANGE_TO_UNPRIVILIGED_THREAD_MODE();
 374              		.loc 1 240 0
 375 028a E8000000 		call	_LLF_CHANGE_TO_UNPRIVILIGED_THREAD_MODE
 375      00
 376              	L39:
 241:E:/NeuOrga/Programmieren/c_cpp/github_os/input/src/os_base\os_task_scheduler.c ****             }            
 242:E:/NeuOrga/Programmieren/c_cpp/github_os/input/src/os_base\os_task_scheduler.c ****   
 243:E:/NeuOrga/Programmieren/c_cpp/github_os/input/src/os_base\os_task_scheduler.c ****             /* call the task entry function */  
 244:E:/NeuOrga/Programmieren/c_cpp/github_os/input/src/os_base\os_task_scheduler.c ****             task->fp(task);
 377              		.loc 1 244 0
GAS LISTING C:\Users\PRESID~1\AppData\Local\Temp\ccrN058O.s 			page 13


 378 028f 8B4508   		movl	8(%ebp), %eax
 379 0292 8B402C   		movl	44(%eax), %eax
 380 0295 8B5508   		movl	8(%ebp), %edx
 381 0298 891424   		movl	%edx, (%esp)
 382 029b FFD0     		call	*%eax
 383 029d EB2A     		jmp	L34
 384              	L38:
 245:E:/NeuOrga/Programmieren/c_cpp/github_os/input/src/os_base\os_task_scheduler.c ****          }
 246:E:/NeuOrga/Programmieren/c_cpp/github_os/input/src/os_base\os_task_scheduler.c ****          else
 247:E:/NeuOrga/Programmieren/c_cpp/github_os/input/src/os_base\os_task_scheduler.c ****          {
 248:E:/NeuOrga/Programmieren/c_cpp/github_os/input/src/os_base\os_task_scheduler.c ****             OS_SET_SW_BUG(os_bug_taskstate_request_denied, Func_StartTask);
 385              		.loc 1 248 0
 386 029f C7442404 		movl	$5, 4(%esp)
 386      05000000 
 387 02a7 C7042401 		movl	$1, (%esp)
 387      000000
 388 02ae E8000000 		call	_OS_SET_SW_BUG
 388      00
 389 02b3 EB14     		jmp	L34
 390              	L37:
 249:E:/NeuOrga/Programmieren/c_cpp/github_os/input/src/os_base\os_task_scheduler.c ****          }
 250:E:/NeuOrga/Programmieren/c_cpp/github_os/input/src/os_base\os_task_scheduler.c **** 
 251:E:/NeuOrga/Programmieren/c_cpp/github_os/input/src/os_base\os_task_scheduler.c ****       }
 252:E:/NeuOrga/Programmieren/c_cpp/github_os/input/src/os_base\os_task_scheduler.c ****       else
 253:E:/NeuOrga/Programmieren/c_cpp/github_os/input/src/os_base\os_task_scheduler.c ****       {
 254:E:/NeuOrga/Programmieren/c_cpp/github_os/input/src/os_base\os_task_scheduler.c ****          OS_SET_SW_BUG(os_bug_null_pointer, Func_StartTask);
 391              		.loc 1 254 0
 392 02b5 C7442404 		movl	$5, 4(%esp)
 392      05000000 
 393 02bd C7042402 		movl	$2, (%esp)
 393      000000
 394 02c4 E8000000 		call	_OS_SET_SW_BUG
 394      00
 395              	L34:
 255:E:/NeuOrga/Programmieren/c_cpp/github_os/input/src/os_base\os_task_scheduler.c ****       }
 256:E:/NeuOrga/Programmieren/c_cpp/github_os/input/src/os_base\os_task_scheduler.c ****    }
 257:E:/NeuOrga/Programmieren/c_cpp/github_os/input/src/os_base\os_task_scheduler.c ****    /* allowed in case of empty QUEUE elements (queue elements which have no activate_task yet recei
 258:E:/NeuOrga/Programmieren/c_cpp/github_os/input/src/os_base\os_task_scheduler.c ****    else
 259:E:/NeuOrga/Programmieren/c_cpp/github_os/input/src/os_base\os_task_scheduler.c ****    {
 260:E:/NeuOrga/Programmieren/c_cpp/github_os/input/src/os_base\os_task_scheduler.c ****        OS_SET_SW_BUG(os_bug_null_pointer, Func_StartTask);
 261:E:/NeuOrga/Programmieren/c_cpp/github_os/input/src/os_base\os_task_scheduler.c ****    }
 262:E:/NeuOrga/Programmieren/c_cpp/github_os/input/src/os_base\os_task_scheduler.c ****    */
 263:E:/NeuOrga/Programmieren/c_cpp/github_os/input/src/os_base\os_task_scheduler.c **** }
 396              		.loc 1 263 0
 397 02c9 C9       		leave
 398              		.cfi_restore 5
 399              		.cfi_def_cfa 4, 4
 400 02ca C3       		ret
 401              		.cfi_endproc
 402              	LFE4:
 403              		.globl	_OS_TERMINATE_TASK
 405              	_OS_TERMINATE_TASK:
 406              	LFB5:
 264:E:/NeuOrga/Programmieren/c_cpp/github_os/input/src/os_base\os_task_scheduler.c **** void OS_TERMINATE_TASK(task_t* task)
 265:E:/NeuOrga/Programmieren/c_cpp/github_os/input/src/os_base\os_task_scheduler.c **** {
 407              		.loc 1 265 0
 408              		.cfi_startproc
GAS LISTING C:\Users\PRESID~1\AppData\Local\Temp\ccrN058O.s 			page 14


 409 02cb 55       		pushl	%ebp
 410              		.cfi_def_cfa_offset 8
 411              		.cfi_offset 5, -8
 412 02cc 89E5     		movl	%esp, %ebp
 413              		.cfi_def_cfa_register 5
 414 02ce 83EC18   		subl	$24, %esp
 266:E:/NeuOrga/Programmieren/c_cpp/github_os/input/src/os_base\os_task_scheduler.c ****    /* Preempt task
 267:E:/NeuOrga/Programmieren/c_cpp/github_os/input/src/os_base\os_task_scheduler.c ****    - Disable Interrupts
 268:E:/NeuOrga/Programmieren/c_cpp/github_os/input/src/os_base\os_task_scheduler.c ****    - os_TASK_SAVETASK_ENVIRONMENT
 269:E:/NeuOrga/Programmieren/c_cpp/github_os/input/src/os_base\os_task_scheduler.c ****    - add to Schedule Queue / delete from RunQueue
 270:E:/NeuOrga/Programmieren/c_cpp/github_os/input/src/os_base\os_task_scheduler.c ****    - delete active flag
 271:E:/NeuOrga/Programmieren/c_cpp/github_os/input/src/os_base\os_task_scheduler.c ****    - enable Interrupts
 272:E:/NeuOrga/Programmieren/c_cpp/github_os/input/src/os_base\os_task_scheduler.c ****    */
 273:E:/NeuOrga/Programmieren/c_cpp/github_os/input/src/os_base\os_task_scheduler.c ****    if(task != 0)
 415              		.loc 1 273 0
 416 02d1 837D0800 		cmpl	$0, 8(%ebp)
 417 02d5 0F849400 		je	L42
 417      0000
 274:E:/NeuOrga/Programmieren/c_cpp/github_os/input/src/os_base\os_task_scheduler.c ****    {
 275:E:/NeuOrga/Programmieren/c_cpp/github_os/input/src/os_base\os_task_scheduler.c ****       if(task->state_request != 0)
 418              		.loc 1 275 0
 419 02db 8B4508   		movl	8(%ebp), %eax
 420 02de 8B4030   		movl	48(%eax), %eax
 421 02e1 85C0     		testl	%eax, %eax
 422 02e3 7474     		je	L43
 276:E:/NeuOrga/Programmieren/c_cpp/github_os/input/src/os_base\os_task_scheduler.c ****       {
 277:E:/NeuOrga/Programmieren/c_cpp/github_os/input/src/os_base\os_task_scheduler.c ****          if((task->IdleTask != False)||(task->state_request(task, Task_ready)== Accepted))
 423              		.loc 1 277 0
 424 02e5 8B4508   		movl	8(%ebp), %eax
 425 02e8 8A00     		movb	(%eax), %al
 426 02ea 83E004   		andl	$4, %eax
 427 02ed 84C0     		testb	%al, %al
 428 02ef 751A     		jne	L44
 429              		.loc 1 277 0 is_stmt 0 discriminator 1
 430 02f1 8B4508   		movl	8(%ebp), %eax
 431 02f4 8B4030   		movl	48(%eax), %eax
 432 02f7 C7442404 		movl	$2, 4(%esp)
 432      02000000 
 433 02ff 8B5508   		movl	8(%ebp), %edx
 434 0302 891424   		movl	%edx, (%esp)
 435 0305 FFD0     		call	*%eax
 436 0307 3C01     		cmpb	$1, %al
 437 0309 7538     		jne	L45
 438              	L44:
 278:E:/NeuOrga/Programmieren/c_cpp/github_os/input/src/os_base\os_task_scheduler.c ****          {
 279:E:/NeuOrga/Programmieren/c_cpp/github_os/input/src/os_base\os_task_scheduler.c ****             DisableInterrupts();
 280:E:/NeuOrga/Programmieren/c_cpp/github_os/input/src/os_base\os_task_scheduler.c ****             OS_TASK_SAVETASK_ENVIRONMENT(task);
 439              		.loc 1 280 0 is_stmt 1
 440 030b 8B4508   		movl	8(%ebp), %eax
 441 030e 890424   		movl	%eax, (%esp)
 442 0311 E8000000 		call	_OS_TASK_SAVETASK_ENVIRONMENT
 442      00
 281:E:/NeuOrga/Programmieren/c_cpp/github_os/input/src/os_base\os_task_scheduler.c ****             OS_TASK_RESTORE_SYSTEM_STACK(&OS_STACK[GET_CORE_ID()][0]);
 443              		.loc 1 281 0
 444 0316 E8000000 		call	_GET_CORE_ID
 444      00
 445 031b C1E008   		sall	$8, %eax
GAS LISTING C:\Users\PRESID~1\AppData\Local\Temp\ccrN058O.s 			page 15


 446 031e 05000000 		addl	$_OS_STACK, %eax
 446      00
 447 0323 890424   		movl	%eax, (%esp)
 448 0326 E8000000 		call	_OS_TASK_RESTORE_SYSTEM_STACK
 448      00
 282:E:/NeuOrga/Programmieren/c_cpp/github_os/input/src/os_base\os_task_scheduler.c **** 
 283:E:/NeuOrga/Programmieren/c_cpp/github_os/input/src/os_base\os_task_scheduler.c ****             task->active = False;
 449              		.loc 1 283 0
 450 032b 8B4508   		movl	8(%ebp), %eax
 451 032e 8A10     		movb	(%eax), %dl
 452 0330 83E2FE   		andl	$-2, %edx
 453 0333 8810     		movb	%dl, (%eax)
 284:E:/NeuOrga/Programmieren/c_cpp/github_os/input/src/os_base\os_task_scheduler.c ****             /* reset the prio increase for waiting */
 285:E:/NeuOrga/Programmieren/c_cpp/github_os/input/src/os_base\os_task_scheduler.c ****             task->current_prio = task->default_prio;
 454              		.loc 1 285 0
 455 0335 8B4508   		movl	8(%ebp), %eax
 456 0338 8A5025   		movb	37(%eax), %dl
 457 033b 8B4508   		movl	8(%ebp), %eax
 458 033e 885024   		movb	%dl, 36(%eax)
 459 0341 EB40     		jmp	L41
 460              	L45:
 286:E:/NeuOrga/Programmieren/c_cpp/github_os/input/src/os_base\os_task_scheduler.c ****             EnableInterrupts();
 287:E:/NeuOrga/Programmieren/c_cpp/github_os/input/src/os_base\os_task_scheduler.c ****          }
 288:E:/NeuOrga/Programmieren/c_cpp/github_os/input/src/os_base\os_task_scheduler.c ****          else
 289:E:/NeuOrga/Programmieren/c_cpp/github_os/input/src/os_base\os_task_scheduler.c ****          {
 290:E:/NeuOrga/Programmieren/c_cpp/github_os/input/src/os_base\os_task_scheduler.c ****             OS_SET_SW_BUG(os_bug_taskstate_request_denied, Func_TerminateTask);
 461              		.loc 1 290 0
 462 0343 C7442404 		movl	$7, 4(%esp)
 462      07000000 
 463 034b C7042401 		movl	$1, (%esp)
 463      000000
 464 0352 E8000000 		call	_OS_SET_SW_BUG
 464      00
 465 0357 EB2A     		jmp	L41
 466              	L43:
 291:E:/NeuOrga/Programmieren/c_cpp/github_os/input/src/os_base\os_task_scheduler.c ****          }
 292:E:/NeuOrga/Programmieren/c_cpp/github_os/input/src/os_base\os_task_scheduler.c ****       }
 293:E:/NeuOrga/Programmieren/c_cpp/github_os/input/src/os_base\os_task_scheduler.c ****       else
 294:E:/NeuOrga/Programmieren/c_cpp/github_os/input/src/os_base\os_task_scheduler.c ****       {
 295:E:/NeuOrga/Programmieren/c_cpp/github_os/input/src/os_base\os_task_scheduler.c ****          OS_SET_SW_BUG(os_bug_null_pointer, Func_TerminateTask);
 467              		.loc 1 295 0
 468 0359 C7442404 		movl	$7, 4(%esp)
 468      07000000 
 469 0361 C7042402 		movl	$2, (%esp)
 469      000000
 470 0368 E8000000 		call	_OS_SET_SW_BUG
 470      00
 471 036d EB14     		jmp	L41
 472              	L42:
 296:E:/NeuOrga/Programmieren/c_cpp/github_os/input/src/os_base\os_task_scheduler.c ****       }
 297:E:/NeuOrga/Programmieren/c_cpp/github_os/input/src/os_base\os_task_scheduler.c **** 
 298:E:/NeuOrga/Programmieren/c_cpp/github_os/input/src/os_base\os_task_scheduler.c ****    }
 299:E:/NeuOrga/Programmieren/c_cpp/github_os/input/src/os_base\os_task_scheduler.c ****    else
 300:E:/NeuOrga/Programmieren/c_cpp/github_os/input/src/os_base\os_task_scheduler.c ****    {
 301:E:/NeuOrga/Programmieren/c_cpp/github_os/input/src/os_base\os_task_scheduler.c ****       OS_SET_SW_BUG(os_bug_null_pointer, Func_TerminateTask);
 473              		.loc 1 301 0
 474 036f C7442404 		movl	$7, 4(%esp)
GAS LISTING C:\Users\PRESID~1\AppData\Local\Temp\ccrN058O.s 			page 16


 474      07000000 
 475 0377 C7042402 		movl	$2, (%esp)
 475      000000
 476 037e E8000000 		call	_OS_SET_SW_BUG
 476      00
 477              	L41:
 302:E:/NeuOrga/Programmieren/c_cpp/github_os/input/src/os_base\os_task_scheduler.c ****    }
 303:E:/NeuOrga/Programmieren/c_cpp/github_os/input/src/os_base\os_task_scheduler.c **** }
 478              		.loc 1 303 0
 479 0383 C9       		leave
 480              		.cfi_restore 5
 481              		.cfi_def_cfa 4, 4
 482 0384 C3       		ret
 483              		.cfi_endproc
 484              	LFE5:
 485              		.globl	_OS_TASK_DISPATCHER
 487              	_OS_TASK_DISPATCHER:
 488              	LFB6:
 304:E:/NeuOrga/Programmieren/c_cpp/github_os/input/src/os_base\os_task_scheduler.c **** void OS_TASK_DISPATCHER(void)
 305:E:/NeuOrga/Programmieren/c_cpp/github_os/input/src/os_base\os_task_scheduler.c **** {
 489              		.loc 1 305 0
 490              		.cfi_startproc
 491 0385 55       		pushl	%ebp
 492              		.cfi_def_cfa_offset 8
 493              		.cfi_offset 5, -8
 494 0386 89E5     		movl	%esp, %ebp
 495              		.cfi_def_cfa_register 5
 496 0388 83EC28   		subl	$40, %esp
 306:E:/NeuOrga/Programmieren/c_cpp/github_os/input/src/os_base\os_task_scheduler.c ****    /* called in an certain core context (Core_0/1/2/3)*/
 307:E:/NeuOrga/Programmieren/c_cpp/github_os/input/src/os_base\os_task_scheduler.c **** 
 308:E:/NeuOrga/Programmieren/c_cpp/github_os/input/src/os_base\os_task_scheduler.c **** 
 309:E:/NeuOrga/Programmieren/c_cpp/github_os/input/src/os_base\os_task_scheduler.c ****    /*
 310:E:/NeuOrga/Programmieren/c_cpp/github_os/input/src/os_base\os_task_scheduler.c ****    1. running     --(terminate)--> suspend
 311:E:/NeuOrga/Programmieren/c_cpp/github_os/input/src/os_base\os_task_scheduler.c ****    2. running     --(preempt  )--> ready
 312:E:/NeuOrga/Programmieren/c_cpp/github_os/input/src/os_base\os_task_scheduler.c ****    3. suspend     --(activate )--> ready
 313:E:/NeuOrga/Programmieren/c_cpp/github_os/input/src/os_base\os_task_scheduler.c ****    4. ready       --(start    )--> running
 314:E:/NeuOrga/Programmieren/c_cpp/github_os/input/src/os_base\os_task_scheduler.c ****    5. unspecified --(create   )--> suspend
 315:E:/NeuOrga/Programmieren/c_cpp/github_os/input/src/os_base\os_task_scheduler.c ****    */
 316:E:/NeuOrga/Programmieren/c_cpp/github_os/input/src/os_base\os_task_scheduler.c ****    task_t* task = 0;
 497              		.loc 1 316 0
 498 038b C745F400 		movl	$0, -12(%ebp)
 498      000000
 317:E:/NeuOrga/Programmieren/c_cpp/github_os/input/src/os_base\os_task_scheduler.c ****    /* get running task */
 318:E:/NeuOrga/Programmieren/c_cpp/github_os/input/src/os_base\os_task_scheduler.c ****    task = GetRunningTask(); /* bug: at first call of TaskSheduler*//* might reply tasks in state re
 499              		.loc 1 318 0
 500 0392 E8000000 		call	_GetRunningTask
 500      00
 501 0397 8945F4   		movl	%eax, -12(%ebp)
 319:E:/NeuOrga/Programmieren/c_cpp/github_os/input/src/os_base\os_task_scheduler.c **** 
 320:E:/NeuOrga/Programmieren/c_cpp/github_os/input/src/os_base\os_task_scheduler.c ****    /* Preempt Task */
 321:E:/NeuOrga/Programmieren/c_cpp/github_os/input/src/os_base\os_task_scheduler.c ****    if(task!=0)
 502              		.loc 1 321 0
 503 039a 837DF400 		cmpl	$0, -12(%ebp)
 504 039e 740B     		je	L50
 322:E:/NeuOrga/Programmieren/c_cpp/github_os/input/src/os_base\os_task_scheduler.c ****    {
 323:E:/NeuOrga/Programmieren/c_cpp/github_os/input/src/os_base\os_task_scheduler.c ****       OS_TERMINATE_TASK(task);   
 505              		.loc 1 323 0
GAS LISTING C:\Users\PRESID~1\AppData\Local\Temp\ccrN058O.s 			page 17


 506 03a0 8B45F4   		movl	-12(%ebp), %eax
 507 03a3 890424   		movl	%eax, (%esp)
 508 03a6 E820FFFF 		call	_OS_TERMINATE_TASK
 508      FF
 509              	L50:
 324:E:/NeuOrga/Programmieren/c_cpp/github_os/input/src/os_base\os_task_scheduler.c ****    }   
 325:E:/NeuOrga/Programmieren/c_cpp/github_os/input/src/os_base\os_task_scheduler.c ****    
 326:E:/NeuOrga/Programmieren/c_cpp/github_os/input/src/os_base\os_task_scheduler.c **** 
 327:E:/NeuOrga/Programmieren/c_cpp/github_os/input/src/os_base\os_task_scheduler.c ****    /* ask for the next task to be activated... */
 328:E:/NeuOrga/Programmieren/c_cpp/github_os/input/src/os_base\os_task_scheduler.c ****    task = OS_TaskScheduler();
 510              		.loc 1 328 0
 511 03ab E8CB0100 		call	_OS_TaskScheduler
 511      00
 512 03b0 8945F4   		movl	%eax, -12(%ebp)
 329:E:/NeuOrga/Programmieren/c_cpp/github_os/input/src/os_base\os_task_scheduler.c **** 
 330:E:/NeuOrga/Programmieren/c_cpp/github_os/input/src/os_base\os_task_scheduler.c ****    OS_STARTTASK(task);
 513              		.loc 1 330 0
 514 03b3 8B45F4   		movl	-12(%ebp), %eax
 515 03b6 890424   		movl	%eax, (%esp)
 516 03b9 E816FEFF 		call	_OS_STARTTASK
 516      FF
 331:E:/NeuOrga/Programmieren/c_cpp/github_os/input/src/os_base\os_task_scheduler.c **** }
 517              		.loc 1 331 0
 518 03be C9       		leave
 519              		.cfi_restore 5
 520              		.cfi_def_cfa 4, 4
 521 03bf C3       		ret
 522              		.cfi_endproc
 523              	LFE6:
 525              	_TASK_0:
 526              	LFB7:
 332:E:/NeuOrga/Programmieren/c_cpp/github_os/input/src/os_base\os_task_scheduler.c **** Local void TASK_0(void* task_ptr)
 333:E:/NeuOrga/Programmieren/c_cpp/github_os/input/src/os_base\os_task_scheduler.c **** {
 527              		.loc 1 333 0
 528              		.cfi_startproc
 529 03c0 55       		pushl	%ebp
 530              		.cfi_def_cfa_offset 8
 531              		.cfi_offset 5, -8
 532 03c1 89E5     		movl	%esp, %ebp
 533              		.cfi_def_cfa_register 5
 334:E:/NeuOrga/Programmieren/c_cpp/github_os/input/src/os_base\os_task_scheduler.c ****    ReferenceUnusedParameter(task_ptr);
 335:E:/NeuOrga/Programmieren/c_cpp/github_os/input/src/os_base\os_task_scheduler.c ****    HaltMcu();/* HLT will be ended by timer interrupt, what shall be done with the rest of the funct
 336:E:/NeuOrga/Programmieren/c_cpp/github_os/input/src/os_base\os_task_scheduler.c **** }
 534              		.loc 1 336 0
 535 03c3 5D       		popl	%ebp
 536              		.cfi_restore 5
 537              		.cfi_def_cfa 4, 4
 538 03c4 C3       		ret
 539              		.cfi_endproc
 540              	LFE7:
 542              	_TASK_1:
 543              	LFB8:
 337:E:/NeuOrga/Programmieren/c_cpp/github_os/input/src/os_base\os_task_scheduler.c **** Local void TASK_1(void* task_ptr)
 338:E:/NeuOrga/Programmieren/c_cpp/github_os/input/src/os_base\os_task_scheduler.c **** {
 544              		.loc 1 338 0
 545              		.cfi_startproc
 546 03c5 55       		pushl	%ebp
GAS LISTING C:\Users\PRESID~1\AppData\Local\Temp\ccrN058O.s 			page 18


 547              		.cfi_def_cfa_offset 8
 548              		.cfi_offset 5, -8
 549 03c6 89E5     		movl	%esp, %ebp
 550              		.cfi_def_cfa_register 5
 551 03c8 83EC18   		subl	$24, %esp
 339:E:/NeuOrga/Programmieren/c_cpp/github_os/input/src/os_base\os_task_scheduler.c ****    ReferenceUnusedParameter(task_ptr);
 340:E:/NeuOrga/Programmieren/c_cpp/github_os/input/src/os_base\os_task_scheduler.c ****    /* worker task */
 341:E:/NeuOrga/Programmieren/c_cpp/github_os/input/src/os_base\os_task_scheduler.c **** 
 342:E:/NeuOrga/Programmieren/c_cpp/github_os/input/src/os_base\os_task_scheduler.c ****    /* do some things */
 343:E:/NeuOrga/Programmieren/c_cpp/github_os/input/src/os_base\os_task_scheduler.c ****    /*while(1) {}*/
 344:E:/NeuOrga/Programmieren/c_cpp/github_os/input/src/os_base\os_task_scheduler.c ****    OS_SLEEPTASK((task_t*)task_ptr, 100000000);
 552              		.loc 1 344 0
 553 03cb C7442404 		movl	$100000000, 4(%esp)
 553      00E1F505 
 554 03d3 8B4508   		movl	8(%ebp), %eax
 555 03d6 890424   		movl	%eax, (%esp)
 556 03d9 E827FCFF 		call	_OS_SLEEPTASK
 556      FF
 345:E:/NeuOrga/Programmieren/c_cpp/github_os/input/src/os_base\os_task_scheduler.c **** 
 346:E:/NeuOrga/Programmieren/c_cpp/github_os/input/src/os_base\os_task_scheduler.c ****    /* end */
 347:E:/NeuOrga/Programmieren/c_cpp/github_os/input/src/os_base\os_task_scheduler.c **** }
 557              		.loc 1 347 0
 558 03de C9       		leave
 559              		.cfi_restore 5
 560              		.cfi_def_cfa 4, 4
 561 03df C3       		ret
 562              		.cfi_endproc
 563              	LFE8:
 565              	_TASK_2:
 566              	LFB9:
 348:E:/NeuOrga/Programmieren/c_cpp/github_os/input/src/os_base\os_task_scheduler.c **** Local void TASK_2(void* task_ptr)
 349:E:/NeuOrga/Programmieren/c_cpp/github_os/input/src/os_base\os_task_scheduler.c **** {
 567              		.loc 1 349 0
 568              		.cfi_startproc
 569 03e0 55       		pushl	%ebp
 570              		.cfi_def_cfa_offset 8
 571              		.cfi_offset 5, -8
 572 03e1 89E5     		movl	%esp, %ebp
 573              		.cfi_def_cfa_register 5
 350:E:/NeuOrga/Programmieren/c_cpp/github_os/input/src/os_base\os_task_scheduler.c ****    ReferenceUnusedParameter(task_ptr);
 351:E:/NeuOrga/Programmieren/c_cpp/github_os/input/src/os_base\os_task_scheduler.c ****    /* worker task */
 352:E:/NeuOrga/Programmieren/c_cpp/github_os/input/src/os_base\os_task_scheduler.c **** 
 353:E:/NeuOrga/Programmieren/c_cpp/github_os/input/src/os_base\os_task_scheduler.c ****    /* do some things */
 354:E:/NeuOrga/Programmieren/c_cpp/github_os/input/src/os_base\os_task_scheduler.c ****    /*while(1) {}*/
 355:E:/NeuOrga/Programmieren/c_cpp/github_os/input/src/os_base\os_task_scheduler.c **** 
 356:E:/NeuOrga/Programmieren/c_cpp/github_os/input/src/os_base\os_task_scheduler.c ****    /* end */
 357:E:/NeuOrga/Programmieren/c_cpp/github_os/input/src/os_base\os_task_scheduler.c **** }
 574              		.loc 1 357 0
 575 03e3 5D       		popl	%ebp
 576              		.cfi_restore 5
 577              		.cfi_def_cfa 4, 4
 578 03e4 C3       		ret
 579              		.cfi_endproc
 580              	LFE9:
 582              	_TASK_3:
 583              	LFB10:
 358:E:/NeuOrga/Programmieren/c_cpp/github_os/input/src/os_base\os_task_scheduler.c **** Local void TASK_3(void* task_ptr)
GAS LISTING C:\Users\PRESID~1\AppData\Local\Temp\ccrN058O.s 			page 19


 359:E:/NeuOrga/Programmieren/c_cpp/github_os/input/src/os_base\os_task_scheduler.c **** {
 584              		.loc 1 359 0
 585              		.cfi_startproc
 586 03e5 55       		pushl	%ebp
 587              		.cfi_def_cfa_offset 8
 588              		.cfi_offset 5, -8
 589 03e6 89E5     		movl	%esp, %ebp
 590              		.cfi_def_cfa_register 5
 360:E:/NeuOrga/Programmieren/c_cpp/github_os/input/src/os_base\os_task_scheduler.c ****    ReferenceUnusedParameter(task_ptr);
 361:E:/NeuOrga/Programmieren/c_cpp/github_os/input/src/os_base\os_task_scheduler.c ****    /* worker task */
 362:E:/NeuOrga/Programmieren/c_cpp/github_os/input/src/os_base\os_task_scheduler.c **** 
 363:E:/NeuOrga/Programmieren/c_cpp/github_os/input/src/os_base\os_task_scheduler.c ****    /* do some things */
 364:E:/NeuOrga/Programmieren/c_cpp/github_os/input/src/os_base\os_task_scheduler.c ****    /*while(1) {}*/
 365:E:/NeuOrga/Programmieren/c_cpp/github_os/input/src/os_base\os_task_scheduler.c **** 
 366:E:/NeuOrga/Programmieren/c_cpp/github_os/input/src/os_base\os_task_scheduler.c ****    /* end */
 367:E:/NeuOrga/Programmieren/c_cpp/github_os/input/src/os_base\os_task_scheduler.c **** }
 591              		.loc 1 367 0
 592 03e8 5D       		popl	%ebp
 593              		.cfi_restore 5
 594              		.cfi_def_cfa 4, 4
 595 03e9 C3       		ret
 596              		.cfi_endproc
 597              	LFE10:
 598              		.globl	_OS_INIT_TASKS
 600              	_OS_INIT_TASKS:
 601              	LFB11:
 368:E:/NeuOrga/Programmieren/c_cpp/github_os/input/src/os_base\os_task_scheduler.c **** void OS_INIT_TASKS(void)
 369:E:/NeuOrga/Programmieren/c_cpp/github_os/input/src/os_base\os_task_scheduler.c **** {
 602              		.loc 1 369 0
 603              		.cfi_startproc
 604 03ea 55       		pushl	%ebp
 605              		.cfi_def_cfa_offset 8
 606              		.cfi_offset 5, -8
 607 03eb 89E5     		movl	%esp, %ebp
 608              		.cfi_def_cfa_register 5
 609 03ed 83EC48   		subl	$72, %esp
 370:E:/NeuOrga/Programmieren/c_cpp/github_os/input/src/os_base\os_task_scheduler.c ****    Local task_t task_0, task_1, task_2, task_3;
 371:E:/NeuOrga/Programmieren/c_cpp/github_os/input/src/os_base\os_task_scheduler.c ****    Local task_group_t TASK_GROUP_1;
 372:E:/NeuOrga/Programmieren/c_cpp/github_os/input/src/os_base\os_task_scheduler.c ****    Local task_group_t TASK_GROUP_2;
 373:E:/NeuOrga/Programmieren/c_cpp/github_os/input/src/os_base\os_task_scheduler.c ****    Local task_group_t TASK_GROUP_3;
 374:E:/NeuOrga/Programmieren/c_cpp/github_os/input/src/os_base\os_task_scheduler.c ****    Local task_group_t TASK_GROUP_4;
 375:E:/NeuOrga/Programmieren/c_cpp/github_os/input/src/os_base\os_task_scheduler.c ****    Local task_group_t TASK_GROUP_5;
 376:E:/NeuOrga/Programmieren/c_cpp/github_os/input/src/os_base\os_task_scheduler.c ****    task_t* task_ptr = 0;
 610              		.loc 1 376 0
 611 03f0 C745F400 		movl	$0, -12(%ebp)
 611      000000
 377:E:/NeuOrga/Programmieren/c_cpp/github_os/input/src/os_base\os_task_scheduler.c ****    LAST_CURRENT_TIME = Get_current_time();
 612              		.loc 1 377 0
 613 03f7 E8000000 		call	_Get_current_time
 613      00
 614 03fc A3E80300 		movl	%eax, _LAST_CURRENT_TIME
 614      00
 378:E:/NeuOrga/Programmieren/c_cpp/github_os/input/src/os_base\os_task_scheduler.c **** 
 379:E:/NeuOrga/Programmieren/c_cpp/github_os/input/src/os_base\os_task_scheduler.c ****    ReferenceUnusedParameter (TASK_GROUP_1);
 380:E:/NeuOrga/Programmieren/c_cpp/github_os/input/src/os_base\os_task_scheduler.c ****    ReferenceUnusedParameter (TASK_GROUP_2);
 381:E:/NeuOrga/Programmieren/c_cpp/github_os/input/src/os_base\os_task_scheduler.c ****    ReferenceUnusedParameter (TASK_GROUP_3);
 382:E:/NeuOrga/Programmieren/c_cpp/github_os/input/src/os_base\os_task_scheduler.c ****    ReferenceUnusedParameter (TASK_GROUP_4);
GAS LISTING C:\Users\PRESID~1\AppData\Local\Temp\ccrN058O.s 			page 20


 383:E:/NeuOrga/Programmieren/c_cpp/github_os/input/src/os_base\os_task_scheduler.c ****    ReferenceUnusedParameter (TASK_GROUP_5);
 384:E:/NeuOrga/Programmieren/c_cpp/github_os/input/src/os_base\os_task_scheduler.c **** 
 385:E:/NeuOrga/Programmieren/c_cpp/github_os/input/src/os_base\os_task_scheduler.c ****     /*
 386:E:/NeuOrga/Programmieren/c_cpp/github_os/input/src/os_base\os_task_scheduler.c ****    set task_state for all tasks to Task_unspecified
 387:E:/NeuOrga/Programmieren/c_cpp/github_os/input/src/os_base\os_task_scheduler.c ****     */
 388:E:/NeuOrga/Programmieren/c_cpp/github_os/input/src/os_base\os_task_scheduler.c ****    OS_INIT_TASK_QUEUE();
 615              		.loc 1 388 0
 616 0401 E8000000 		call	_OS_INIT_TASK_QUEUE
 616      00
 389:E:/NeuOrga/Programmieren/c_cpp/github_os/input/src/os_base\os_task_scheduler.c **** 
 390:E:/NeuOrga/Programmieren/c_cpp/github_os/input/src/os_base\os_task_scheduler.c ****    /* setup idle task */
 391:E:/NeuOrga/Programmieren/c_cpp/github_os/input/src/os_base\os_task_scheduler.c ****    task_ptr = &task_0;
 617              		.loc 1 391 0
 618 0406 C745F420 		movl	$_task_0.1366, -12(%ebp)
 618      040000
 392:E:/NeuOrga/Programmieren/c_cpp/github_os/input/src/os_base\os_task_scheduler.c ****    OS_INIT_TASK(task_ptr,                          /* task */
 619              		.loc 1 392 0
 620 040d C7442424 		movl	$0, 36(%esp)
 620      00000000 
 621 0415 C7442420 		movl	$0, 32(%esp)
 621      00000000 
 622 041d C744241C 		movl	$0, 28(%esp)
 622      00000000 
 623 0425 C7442418 		movl	$200, 24(%esp)
 623      C8000000 
 624 042d C7442414 		movl	$_TASK_STACK, 20(%esp)
 624      00000000 
 625 0435 C7442410 		movl	$_TASK_GROUP_1.1370, 16(%esp)
 625      EC030000 
 626 043d C744240C 		movl	$1, 12(%esp)
 626      01000000 
 627 0445 C7442408 		movl	$1, 8(%esp)
 627      01000000 
 628 044d C7442404 		movl	$_TASK_0, 4(%esp)
 628      C0030000 
 629 0455 8B45F4   		movl	-12(%ebp), %eax
 630 0458 890424   		movl	%eax, (%esp)
 631 045b E8000000 		call	_OS_INIT_TASK
 631      00
 393:E:/NeuOrga/Programmieren/c_cpp/github_os/input/src/os_base\os_task_scheduler.c ****                 &TASK_0,                           /* Task Function*/
 394:E:/NeuOrga/Programmieren/c_cpp/github_os/input/src/os_base\os_task_scheduler.c ****                 1,                                 /* Nr of allowed instances*/
 395:E:/NeuOrga/Programmieren/c_cpp/github_os/input/src/os_base\os_task_scheduler.c ****                 True,                              /* Idle Task */
 396:E:/NeuOrga/Programmieren/c_cpp/github_os/input/src/os_base\os_task_scheduler.c ****                 &TASK_GROUP_1,                     /* Task Group */
 397:E:/NeuOrga/Programmieren/c_cpp/github_os/input/src/os_base\os_task_scheduler.c ****                 (unsigned_char_t*)&TASK_STACK[0],  /* Task_stack */
 398:E:/NeuOrga/Programmieren/c_cpp/github_os/input/src/os_base\os_task_scheduler.c ****                 200,                                /* Stack Size */
 399:E:/NeuOrga/Programmieren/c_cpp/github_os/input/src/os_base\os_task_scheduler.c ****                 ePriviligeMode_unpriviliged_thread_mode, /* Unpriviliged Thread Mode */
 400:E:/NeuOrga/Programmieren/c_cpp/github_os/input/src/os_base\os_task_scheduler.c ****                 Core0,                            /* Cortex M4 has only 1 core */
 401:E:/NeuOrga/Programmieren/c_cpp/github_os/input/src/os_base\os_task_scheduler.c ****                 0                                   /* default prio */
 402:E:/NeuOrga/Programmieren/c_cpp/github_os/input/src/os_base\os_task_scheduler.c ****                );
 403:E:/NeuOrga/Programmieren/c_cpp/github_os/input/src/os_base\os_task_scheduler.c ****    OS_SaveTaskPtr(task_ptr, Task_0_ptr);
 404:E:/NeuOrga/Programmieren/c_cpp/github_os/input/src/os_base\os_task_scheduler.c **** 
 405:E:/NeuOrga/Programmieren/c_cpp/github_os/input/src/os_base\os_task_scheduler.c ****    /*set the idle-task as first running task, otherwise preempt might fail */
 406:E:/NeuOrga/Programmieren/c_cpp/github_os/input/src/os_base\os_task_scheduler.c ****    SET_RUNNING_TASK(task_ptr);
 632              		.loc 1 406 0
 633 0460 8B45F4   		movl	-12(%ebp), %eax
 634 0463 890424   		movl	%eax, (%esp)
 635 0466 E8000000 		call	_SET_RUNNING_TASK
GAS LISTING C:\Users\PRESID~1\AppData\Local\Temp\ccrN058O.s 			page 21


 635      00
 407:E:/NeuOrga/Programmieren/c_cpp/github_os/input/src/os_base\os_task_scheduler.c **** 
 408:E:/NeuOrga/Programmieren/c_cpp/github_os/input/src/os_base\os_task_scheduler.c ****    /* setup worker task */
 409:E:/NeuOrga/Programmieren/c_cpp/github_os/input/src/os_base\os_task_scheduler.c ****    task_ptr = &task_1;
 636              		.loc 1 409 0
 637 046b C745F4A0 		movl	$_task_1.1367, -12(%ebp)
 637      040000
 410:E:/NeuOrga/Programmieren/c_cpp/github_os/input/src/os_base\os_task_scheduler.c ****    OS_INIT_TASK(task_ptr,      /* task */
 638              		.loc 1 410 0
 639 0472 C7442424 		movl	$1, 36(%esp)
 639      01000000 
 640 047a C7442420 		movl	$0, 32(%esp)
 640      00000000 
 641 0482 C744241C 		movl	$0, 28(%esp)
 641      00000000 
 642 048a C7442418 		movl	$200, 24(%esp)
 642      C8000000 
 643 0492 C7442414 		movl	$_TASK_STACK+200, 20(%esp)
 643      C8000000 
 644 049a C7442410 		movl	$_TASK_GROUP_1.1370, 16(%esp)
 644      EC030000 
 645 04a2 C744240C 		movl	$0, 12(%esp)
 645      00000000 
 646 04aa C7442408 		movl	$1, 8(%esp)
 646      01000000 
 647 04b2 C7442404 		movl	$_TASK_1, 4(%esp)
 647      C5030000 
 648 04ba 8B45F4   		movl	-12(%ebp), %eax
 649 04bd 890424   		movl	%eax, (%esp)
 650 04c0 E8000000 		call	_OS_INIT_TASK
 650      00
 411:E:/NeuOrga/Programmieren/c_cpp/github_os/input/src/os_base\os_task_scheduler.c ****                 &TASK_1,       /* Task Function*/
 412:E:/NeuOrga/Programmieren/c_cpp/github_os/input/src/os_base\os_task_scheduler.c ****                 1,             /* Nr of allowed instances*/
 413:E:/NeuOrga/Programmieren/c_cpp/github_os/input/src/os_base\os_task_scheduler.c ****                 False,          /* Idle Task */
 414:E:/NeuOrga/Programmieren/c_cpp/github_os/input/src/os_base\os_task_scheduler.c ****                 &TASK_GROUP_1, /* Task Group */
 415:E:/NeuOrga/Programmieren/c_cpp/github_os/input/src/os_base\os_task_scheduler.c ****                 (unsigned_char_t*)&TASK_STACK[1],/* Task_stack */
 416:E:/NeuOrga/Programmieren/c_cpp/github_os/input/src/os_base\os_task_scheduler.c ****                 200,            /* Stack Size */
 417:E:/NeuOrga/Programmieren/c_cpp/github_os/input/src/os_base\os_task_scheduler.c ****                 ePriviligeMode_unpriviliged_thread_mode, /* Unpriviliged Thread Mode */
 418:E:/NeuOrga/Programmieren/c_cpp/github_os/input/src/os_base\os_task_scheduler.c ****                 Core0,
 419:E:/NeuOrga/Programmieren/c_cpp/github_os/input/src/os_base\os_task_scheduler.c ****                 1                                   /* default prio */
 420:E:/NeuOrga/Programmieren/c_cpp/github_os/input/src/os_base\os_task_scheduler.c ****                );
 421:E:/NeuOrga/Programmieren/c_cpp/github_os/input/src/os_base\os_task_scheduler.c ****    OS_SaveTaskPtr(task_ptr, Task_1_ptr);
 422:E:/NeuOrga/Programmieren/c_cpp/github_os/input/src/os_base\os_task_scheduler.c **** 
 423:E:/NeuOrga/Programmieren/c_cpp/github_os/input/src/os_base\os_task_scheduler.c ****    /* setup worker task */
 424:E:/NeuOrga/Programmieren/c_cpp/github_os/input/src/os_base\os_task_scheduler.c ****    task_ptr = &task_2;
 651              		.loc 1 424 0
 652 04c5 C745F420 		movl	$_task_2.1368, -12(%ebp)
 652      050000
 425:E:/NeuOrga/Programmieren/c_cpp/github_os/input/src/os_base\os_task_scheduler.c ****    OS_INIT_TASK(task_ptr,      /* task */
 653              		.loc 1 425 0
 654 04cc C7442424 		movl	$2, 36(%esp)
 654      02000000 
 655 04d4 C7442420 		movl	$0, 32(%esp)
 655      00000000 
 656 04dc C744241C 		movl	$0, 28(%esp)
 656      00000000 
 657 04e4 C7442418 		movl	$200, 24(%esp)
GAS LISTING C:\Users\PRESID~1\AppData\Local\Temp\ccrN058O.s 			page 22


 657      C8000000 
 658 04ec C7442414 		movl	$_TASK_STACK+400, 20(%esp)
 658      90010000 
 659 04f4 C7442410 		movl	$_TASK_GROUP_2.1371, 16(%esp)
 659      F4030000 
 660 04fc C744240C 		movl	$0, 12(%esp)
 660      00000000 
 661 0504 C7442408 		movl	$1, 8(%esp)
 661      01000000 
 662 050c C7442404 		movl	$_TASK_2, 4(%esp)
 662      E0030000 
 663 0514 8B45F4   		movl	-12(%ebp), %eax
 664 0517 890424   		movl	%eax, (%esp)
 665 051a E8000000 		call	_OS_INIT_TASK
 665      00
 426:E:/NeuOrga/Programmieren/c_cpp/github_os/input/src/os_base\os_task_scheduler.c ****                 &TASK_2,       /* Task Function*/
 427:E:/NeuOrga/Programmieren/c_cpp/github_os/input/src/os_base\os_task_scheduler.c ****                 1,             /* Nr of allowed instances*/
 428:E:/NeuOrga/Programmieren/c_cpp/github_os/input/src/os_base\os_task_scheduler.c ****                 False,          /* Idle Task */
 429:E:/NeuOrga/Programmieren/c_cpp/github_os/input/src/os_base\os_task_scheduler.c ****                 &TASK_GROUP_2, /* Task Group */
 430:E:/NeuOrga/Programmieren/c_cpp/github_os/input/src/os_base\os_task_scheduler.c ****                 (unsigned_char_t*)&TASK_STACK[2],/* Task_stack */
 431:E:/NeuOrga/Programmieren/c_cpp/github_os/input/src/os_base\os_task_scheduler.c ****                 200,            /* Stack Size */
 432:E:/NeuOrga/Programmieren/c_cpp/github_os/input/src/os_base\os_task_scheduler.c ****                 ePriviligeMode_unpriviliged_thread_mode, /* Unpriviliged Thread Mode */
 433:E:/NeuOrga/Programmieren/c_cpp/github_os/input/src/os_base\os_task_scheduler.c ****                 Core0,
 434:E:/NeuOrga/Programmieren/c_cpp/github_os/input/src/os_base\os_task_scheduler.c ****                 2                                   /* default prio */                
 435:E:/NeuOrga/Programmieren/c_cpp/github_os/input/src/os_base\os_task_scheduler.c ****                );
 436:E:/NeuOrga/Programmieren/c_cpp/github_os/input/src/os_base\os_task_scheduler.c ****    OS_SaveTaskPtr(task_ptr, Task_2_ptr);
 437:E:/NeuOrga/Programmieren/c_cpp/github_os/input/src/os_base\os_task_scheduler.c **** 
 438:E:/NeuOrga/Programmieren/c_cpp/github_os/input/src/os_base\os_task_scheduler.c ****    /* setup worker task */
 439:E:/NeuOrga/Programmieren/c_cpp/github_os/input/src/os_base\os_task_scheduler.c ****    task_ptr = &task_3;
 666              		.loc 1 439 0
 667 051f C745F4A0 		movl	$_task_3.1369, -12(%ebp)
 667      050000
 440:E:/NeuOrga/Programmieren/c_cpp/github_os/input/src/os_base\os_task_scheduler.c ****    OS_INIT_TASK(task_ptr,      /* task */
 668              		.loc 1 440 0
 669 0526 C7442424 		movl	$3, 36(%esp)
 669      03000000 
 670 052e C7442420 		movl	$0, 32(%esp)
 670      00000000 
 671 0536 C744241C 		movl	$0, 28(%esp)
 671      00000000 
 672 053e C7442418 		movl	$200, 24(%esp)
 672      C8000000 
 673 0546 C7442414 		movl	$_TASK_STACK+600, 20(%esp)
 673      58020000 
 674 054e C7442410 		movl	$_TASK_GROUP_3.1372, 16(%esp)
 674      FC030000 
 675 0556 C744240C 		movl	$0, 12(%esp)
 675      00000000 
 676 055e C7442408 		movl	$1, 8(%esp)
 676      01000000 
 677 0566 C7442404 		movl	$_TASK_3, 4(%esp)
 677      E5030000 
 678 056e 8B45F4   		movl	-12(%ebp), %eax
 679 0571 890424   		movl	%eax, (%esp)
 680 0574 E8000000 		call	_OS_INIT_TASK
 680      00
 441:E:/NeuOrga/Programmieren/c_cpp/github_os/input/src/os_base\os_task_scheduler.c ****                 &TASK_3,       /* Task Function*/
GAS LISTING C:\Users\PRESID~1\AppData\Local\Temp\ccrN058O.s 			page 23


 442:E:/NeuOrga/Programmieren/c_cpp/github_os/input/src/os_base\os_task_scheduler.c ****                 1,             /* Nr of allowed instances*/
 443:E:/NeuOrga/Programmieren/c_cpp/github_os/input/src/os_base\os_task_scheduler.c ****                 False,          /* Idle Task */
 444:E:/NeuOrga/Programmieren/c_cpp/github_os/input/src/os_base\os_task_scheduler.c ****                 &TASK_GROUP_3, /* Task Group */
 445:E:/NeuOrga/Programmieren/c_cpp/github_os/input/src/os_base\os_task_scheduler.c ****                 (unsigned_char_t*)&TASK_STACK[3],/* Task_stack */
 446:E:/NeuOrga/Programmieren/c_cpp/github_os/input/src/os_base\os_task_scheduler.c ****                 200,           /* Stack Size */
 447:E:/NeuOrga/Programmieren/c_cpp/github_os/input/src/os_base\os_task_scheduler.c ****                 ePriviligeMode_unpriviliged_thread_mode, /* Unpriviliged Thread Mode */
 448:E:/NeuOrga/Programmieren/c_cpp/github_os/input/src/os_base\os_task_scheduler.c ****                 Core0,
 449:E:/NeuOrga/Programmieren/c_cpp/github_os/input/src/os_base\os_task_scheduler.c ****                 3                                   /* default prio */                             
 450:E:/NeuOrga/Programmieren/c_cpp/github_os/input/src/os_base\os_task_scheduler.c ****                );
 451:E:/NeuOrga/Programmieren/c_cpp/github_os/input/src/os_base\os_task_scheduler.c ****    OS_SaveTaskPtr(task_ptr, Task_3_ptr);   
 452:E:/NeuOrga/Programmieren/c_cpp/github_os/input/src/os_base\os_task_scheduler.c **** }
 681              		.loc 1 452 0
 682 0579 C9       		leave
 683              		.cfi_restore 5
 684              		.cfi_def_cfa 4, 4
 685 057a C3       		ret
 686              		.cfi_endproc
 687              	LFE11:
 689              	_OS_TaskScheduler:
 690              	LFB12:
 453:E:/NeuOrga/Programmieren/c_cpp/github_os/input/src/os_base\os_task_scheduler.c **** 
 454:E:/NeuOrga/Programmieren/c_cpp/github_os/input/src/os_base\os_task_scheduler.c **** 
 455:E:/NeuOrga/Programmieren/c_cpp/github_os/input/src/os_base\os_task_scheduler.c **** Local task_t* OS_TaskScheduler(void)
 456:E:/NeuOrga/Programmieren/c_cpp/github_os/input/src/os_base\os_task_scheduler.c **** {
 691              		.loc 1 456 0
 692              		.cfi_startproc
 693 057b 55       		pushl	%ebp
 694              		.cfi_def_cfa_offset 8
 695              		.cfi_offset 5, -8
 696 057c 89E5     		movl	%esp, %ebp
 697              		.cfi_def_cfa_register 5
 698 057e 53       		pushl	%ebx
 699 057f 83EC34   		subl	$52, %esp
 700              		.cfi_offset 3, -12
 457:E:/NeuOrga/Programmieren/c_cpp/github_os/input/src/os_base\os_task_scheduler.c ****    Local task_t* task = 0;
 458:E:/NeuOrga/Programmieren/c_cpp/github_os/input/src/os_base\os_task_scheduler.c ****    Local unsigned_char_t Winner_prio = 0;
 459:E:/NeuOrga/Programmieren/c_cpp/github_os/input/src/os_base\os_task_scheduler.c ****    task_t*         Winner_task = 0;
 701              		.loc 1 459 0
 702 0582 C745F400 		movl	$0, -12(%ebp)
 702      000000
 460:E:/NeuOrga/Programmieren/c_cpp/github_os/input/src/os_base\os_task_scheduler.c ****    Local link_list_t*    link_list_member;
 461:E:/NeuOrga/Programmieren/c_cpp/github_os/input/src/os_base\os_task_scheduler.c ****    unsigned_char_t       element_nr;
 462:E:/NeuOrga/Programmieren/c_cpp/github_os/input/src/os_base\os_task_scheduler.c **** 
 463:E:/NeuOrga/Programmieren/c_cpp/github_os/input/src/os_base\os_task_scheduler.c ****    scheduler_time_t delta_time = Get_current_time() - LAST_CURRENT_TIME;
 703              		.loc 1 463 0
 704 0589 E8000000 		call	_Get_current_time
 704      00
 705 058e 89C2     		movl	%eax, %edx
 706 0590 A1E80300 		movl	_LAST_CURRENT_TIME, %eax
 706      00
 707 0595 29C2     		subl	%eax, %edx
 708 0597 89D0     		movl	%edx, %eax
 709 0599 8945EC   		movl	%eax, -20(%ebp)
 464:E:/NeuOrga/Programmieren/c_cpp/github_os/input/src/os_base\os_task_scheduler.c ****    LAST_CURRENT_TIME = Get_current_time();
 710              		.loc 1 464 0
 711 059c E8000000 		call	_Get_current_time
 711      00
GAS LISTING C:\Users\PRESID~1\AppData\Local\Temp\ccrN058O.s 			page 24


 712 05a1 A3E80300 		movl	%eax, _LAST_CURRENT_TIME
 712      00
 465:E:/NeuOrga/Programmieren/c_cpp/github_os/input/src/os_base\os_task_scheduler.c **** 
 466:E:/NeuOrga/Programmieren/c_cpp/github_os/input/src/os_base\os_task_scheduler.c ****    /*
 467:E:/NeuOrga/Programmieren/c_cpp/github_os/input/src/os_base\os_task_scheduler.c ****    x const for single task: task->default_prio // low = 0,.....high=100
 468:E:/NeuOrga/Programmieren/c_cpp/github_os/input/src/os_base\os_task_scheduler.c ****    x var   for single task: task->current_prio // see prio_std
 469:E:/NeuOrga/Programmieren/c_cpp/github_os/input/src/os_base\os_task_scheduler.c ****    x var   for single task: task->wait_time    //
 470:E:/NeuOrga/Programmieren/c_cpp/github_os/input/src/os_base\os_task_scheduler.c ****    x var   for single task: task->exe_time
 471:E:/NeuOrga/Programmieren/c_cpp/github_os/input/src/os_base\os_task_scheduler.c ****    x const for single task: task->TimeToPrioInc
 472:E:/NeuOrga/Programmieren/c_cpp/github_os/input/src/os_base\os_task_scheduler.c ****    x const for single task: task->max_allowed_wait_time
 473:E:/NeuOrga/Programmieren/c_cpp/github_os/input/src/os_base\os_task_scheduler.c ****    x const for single task: task->min_allowed_wait_time
 474:E:/NeuOrga/Programmieren/c_cpp/github_os/input/src/os_base\os_task_scheduler.c ****    x const for single task: task->overwaittime_per_prio_inc_step //e.g. 100*MinTimeSlice_us
 475:E:/NeuOrga/Programmieren/c_cpp/github_os/input/src/os_base\os_task_scheduler.c ****    x const for single task: task->task_group  //to allow processor access control by groups (e.g. u
 476:E:/NeuOrga/Programmieren/c_cpp/github_os/input/src/os_base\os_task_scheduler.c ****    x const for single task: task->WaitActUntil
 477:E:/NeuOrga/Programmieren/c_cpp/github_os/input/src/os_base\os_task_scheduler.c ****    (task_group is designed to allow proccessor access control between e.g. Customer Software Task a
 478:E:/NeuOrga/Programmieren/c_cpp/github_os/input/src/os_base\os_task_scheduler.c ****    */
 479:E:/NeuOrga/Programmieren/c_cpp/github_os/input/src/os_base\os_task_scheduler.c ****    For_all_tasks_in_queue(element_nr)
 713              		.loc 1 479 0
 714 05a6 C645F300 		movb	$0, -13(%ebp)
 715 05aa E9230100 		jmp	L57
 715      00
 716              	L65:
 480:E:/NeuOrga/Programmieren/c_cpp/github_os/input/src/os_base\os_task_scheduler.c ****    {
 481:E:/NeuOrga/Programmieren/c_cpp/github_os/input/src/os_base\os_task_scheduler.c ****       link_list_member = GetFromLinkList(element_nr);
 717              		.loc 1 481 0
 718 05af 0FB645F3 		movzbl	-13(%ebp), %eax
 719 05b3 890424   		movl	%eax, (%esp)
 720 05b6 E8000000 		call	_GetFromLinkList
 720      00
 721 05bb A3040600 		movl	%eax, _link_list_member.1382
 721      00
 482:E:/NeuOrga/Programmieren/c_cpp/github_os/input/src/os_base\os_task_scheduler.c ****       /*task will have a pointer on the task_obj, and might be equal to "(task_t*) 0" */
 483:E:/NeuOrga/Programmieren/c_cpp/github_os/input/src/os_base\os_task_scheduler.c ****       task             = GetFromTaskQueue(link_list_member);
 722              		.loc 1 483 0
 723 05c0 A1040600 		movl	_link_list_member.1382, %eax
 723      00
 724 05c5 890424   		movl	%eax, (%esp)
 725 05c8 E8000000 		call	_GetFromTaskQueue
 725      00
 726 05cd A3080600 		movl	%eax, _task.1379
 726      00
 484:E:/NeuOrga/Programmieren/c_cpp/github_os/input/src/os_base\os_task_scheduler.c ****       /* increase prio: high numbers->high prio */
 485:E:/NeuOrga/Programmieren/c_cpp/github_os/input/src/os_base\os_task_scheduler.c ****       if((task != 0)&&(task->task_queued != False))
 727              		.loc 1 485 0
 728 05d2 A1080600 		movl	_task.1379, %eax
 728      00
 729 05d7 85C0     		testl	%eax, %eax
 730 05d9 0F84EC00 		je	L58
 730      0000
 731              		.loc 1 485 0 is_stmt 0 discriminator 1
 732 05df A1080600 		movl	_task.1379, %eax
 732      00
 733 05e4 8A00     		movb	(%eax), %al
 734 05e6 83E002   		andl	$2, %eax
 735 05e9 84C0     		testb	%al, %al
 736 05eb 0F84DA00 		je	L58
 736      0000
GAS LISTING C:\Users\PRESID~1\AppData\Local\Temp\ccrN058O.s 			page 25


 486:E:/NeuOrga/Programmieren/c_cpp/github_os/input/src/os_base\os_task_scheduler.c ****       {
 487:E:/NeuOrga/Programmieren/c_cpp/github_os/input/src/os_base\os_task_scheduler.c ****          if(task->wait_time >= task->TimeToPrioInc)
 737              		.loc 1 487 0 is_stmt 1
 738 05f1 A1080600 		movl	_task.1379, %eax
 738      00
 739 05f6 8B500C   		movl	12(%eax), %edx
 740 05f9 A1080600 		movl	_task.1379, %eax
 740      00
 741 05fe 8B4010   		movl	16(%eax), %eax
 742 0601 39C2     		cmpl	%eax, %edx
 743 0603 721C     		jb	L59
 488:E:/NeuOrga/Programmieren/c_cpp/github_os/input/src/os_base\os_task_scheduler.c ****          {
 489:E:/NeuOrga/Programmieren/c_cpp/github_os/input/src/os_base\os_task_scheduler.c ****             task->current_prio = task->current_prio + task->overwaittime_per_prio_inc_step;
 744              		.loc 1 489 0
 745 0605 A1080600 		movl	_task.1379, %eax
 745      00
 746 060a 8B150806 		movl	_task.1379, %edx
 746      0000
 747 0610 8A4A24   		movb	36(%edx), %cl
 748 0613 8B150806 		movl	_task.1379, %edx
 748      0000
 749 0619 8B5214   		movl	20(%edx), %edx
 750 061c 01CA     		addl	%ecx, %edx
 751 061e 885024   		movb	%dl, 36(%eax)
 752              	L59:
 490:E:/NeuOrga/Programmieren/c_cpp/github_os/input/src/os_base\os_task_scheduler.c ****          }
 491:E:/NeuOrga/Programmieren/c_cpp/github_os/input/src/os_base\os_task_scheduler.c ****          /* in case wait condition not yet fulfilled, set prio to 0 */
 492:E:/NeuOrga/Programmieren/c_cpp/github_os/input/src/os_base\os_task_scheduler.c ****          if(task->WaitActUntil > Get_current_time())
 753              		.loc 1 492 0
 754 0621 A1080600 		movl	_task.1379, %eax
 754      00
 755 0626 8B5808   		movl	8(%eax), %ebx
 756 0629 E8000000 		call	_Get_current_time
 756      00
 757 062e 39C3     		cmpl	%eax, %ebx
 758 0630 7609     		jbe	L60
 493:E:/NeuOrga/Programmieren/c_cpp/github_os/input/src/os_base\os_task_scheduler.c ****          {
 494:E:/NeuOrga/Programmieren/c_cpp/github_os/input/src/os_base\os_task_scheduler.c ****             task->current_prio = 0;
 759              		.loc 1 494 0
 760 0632 A1080600 		movl	_task.1379, %eax
 760      00
 761 0637 C6402400 		movb	$0, 36(%eax)
 762              	L60:
 495:E:/NeuOrga/Programmieren/c_cpp/github_os/input/src/os_base\os_task_scheduler.c ****          }
 496:E:/NeuOrga/Programmieren/c_cpp/github_os/input/src/os_base\os_task_scheduler.c ****          if(task->wait_time > task->max_allowed_wait_time)
 763              		.loc 1 496 0
 764 063b A1080600 		movl	_task.1379, %eax
 764      00
 765 0640 8B500C   		movl	12(%eax), %edx
 766 0643 A1080600 		movl	_task.1379, %eax
 766      00
 767 0648 8B4018   		movl	24(%eax), %eax
 768 064b 39C2     		cmpl	%eax, %edx
 769 064d 7614     		jbe	L61
 497:E:/NeuOrga/Programmieren/c_cpp/github_os/input/src/os_base\os_task_scheduler.c ****          {
 498:E:/NeuOrga/Programmieren/c_cpp/github_os/input/src/os_base\os_task_scheduler.c ****             /* set bug */
 499:E:/NeuOrga/Programmieren/c_cpp/github_os/input/src/os_base\os_task_scheduler.c ****             OS_SET_SW_BUG(os_bug_task_max_wait_time_reached, Func_TaskScheduler);
GAS LISTING C:\Users\PRESID~1\AppData\Local\Temp\ccrN058O.s 			page 26


 770              		.loc 1 499 0
 771 064f C7442404 		movl	$8, 4(%esp)
 771      08000000 
 772 0657 C7042403 		movl	$3, (%esp)
 772      000000
 773 065e E8000000 		call	_OS_SET_SW_BUG
 773      00
 774              	L61:
 500:E:/NeuOrga/Programmieren/c_cpp/github_os/input/src/os_base\os_task_scheduler.c ****          }
 501:E:/NeuOrga/Programmieren/c_cpp/github_os/input/src/os_base\os_task_scheduler.c ****          /* not active TASK_RUN_QUEUE elements have no valid task_group!!*/
 502:E:/NeuOrga/Programmieren/c_cpp/github_os/input/src/os_base\os_task_scheduler.c ****          if(task->task_group!=0)
 775              		.loc 1 502 0
 776 0663 A1080600 		movl	_task.1379, %eax
 776      00
 777 0668 8B4038   		movl	56(%eax), %eax
 778 066b 85C0     		testl	%eax, %eax
 779 066d 7448     		je	L62
 503:E:/NeuOrga/Programmieren/c_cpp/github_os/input/src/os_base\os_task_scheduler.c ****          {
 504:E:/NeuOrga/Programmieren/c_cpp/github_os/input/src/os_base\os_task_scheduler.c ****             /* usage the exe time for scheduling strategy */
 505:E:/NeuOrga/Programmieren/c_cpp/github_os/input/src/os_base\os_task_scheduler.c ****             if(task->task_group->exe_time > task->task_group->fair_exe_time)
 780              		.loc 1 505 0
 781 066f A1080600 		movl	_task.1379, %eax
 781      00
 782 0674 8B4038   		movl	56(%eax), %eax
 783 0677 8B10     		movl	(%eax), %edx
 784 0679 A1080600 		movl	_task.1379, %eax
 784      00
 785 067e 8B4038   		movl	56(%eax), %eax
 786 0681 8B4004   		movl	4(%eax), %eax
 787 0684 39C2     		cmpl	%eax, %edx
 788 0686 7643     		jbe	L58
 506:E:/NeuOrga/Programmieren/c_cpp/github_os/input/src/os_base\os_task_scheduler.c ****             {
 507:E:/NeuOrga/Programmieren/c_cpp/github_os/input/src/os_base\os_task_scheduler.c ****                if(task->exe_time > Task_min_time)/* guarantee min time */
 789              		.loc 1 507 0
 790 0688 A1080600 		movl	_task.1379, %eax
 790      00
 791 068d 8B401C   		movl	28(%eax), %eax
 792 0690 8945E0   		movl	%eax, -32(%ebp)
 793 0693 C745E400 		movl	$0, -28(%ebp)
 793      000000
 794 069a DF6DE0   		fildq	-32(%ebp)
 795 069d D9E8     		fld1
 796 069f D9C9     		fxch	%st(1)
 797 06a1 DAE9     		fucompp
 798 06a3 DFE0     		fnstsw	%ax
 799 06a5 F6C445   		testb	$69, %ah
 800 06a8 7402     		je	L73
 801 06aa EB1F     		jmp	L58
 802              	L73:
 508:E:/NeuOrga/Programmieren/c_cpp/github_os/input/src/os_base\os_task_scheduler.c ****                {
 509:E:/NeuOrga/Programmieren/c_cpp/github_os/input/src/os_base\os_task_scheduler.c ****                   task->current_prio = 0;
 803              		.loc 1 509 0
 804 06ac A1080600 		movl	_task.1379, %eax
 804      00
 805 06b1 C6402400 		movb	$0, 36(%eax)
 806 06b5 EB14     		jmp	L58
 807              	L62:
GAS LISTING C:\Users\PRESID~1\AppData\Local\Temp\ccrN058O.s 			page 27


 510:E:/NeuOrga/Programmieren/c_cpp/github_os/input/src/os_base\os_task_scheduler.c **** 
 511:E:/NeuOrga/Programmieren/c_cpp/github_os/input/src/os_base\os_task_scheduler.c ****                }
 512:E:/NeuOrga/Programmieren/c_cpp/github_os/input/src/os_base\os_task_scheduler.c ****             }
 513:E:/NeuOrga/Programmieren/c_cpp/github_os/input/src/os_base\os_task_scheduler.c ****          }
 514:E:/NeuOrga/Programmieren/c_cpp/github_os/input/src/os_base\os_task_scheduler.c ****          else
 515:E:/NeuOrga/Programmieren/c_cpp/github_os/input/src/os_base\os_task_scheduler.c ****          {
 516:E:/NeuOrga/Programmieren/c_cpp/github_os/input/src/os_base\os_task_scheduler.c ****             OS_SET_SW_BUG(os_bug_null_pointer, Func_TaskScheduler);
 808              		.loc 1 516 0
 809 06b7 C7442404 		movl	$8, 4(%esp)
 809      08000000 
 810 06bf C7042402 		movl	$2, (%esp)
 810      000000
 811 06c6 E8000000 		call	_OS_SET_SW_BUG
 811      00
 812              	L58:
 479:E:/NeuOrga/Programmieren/c_cpp/github_os/input/src/os_base\os_task_scheduler.c ****    {
 813              		.loc 1 479 0 discriminator 2
 814 06cb 8A45F3   		movb	-13(%ebp), %al
 815 06ce 40       		incl	%eax
 816 06cf 8845F3   		movb	%al, -13(%ebp)
 817              	L57:
 479:E:/NeuOrga/Programmieren/c_cpp/github_os/input/src/os_base\os_task_scheduler.c ****    {
 818              		.loc 1 479 0 is_stmt 0 discriminator 1
 819 06d2 807DF304 		cmpb	$4, -13(%ebp)
 820 06d6 0F86D3FE 		jbe	L65
 820      FFFF
 517:E:/NeuOrga/Programmieren/c_cpp/github_os/input/src/os_base\os_task_scheduler.c ****          }
 518:E:/NeuOrga/Programmieren/c_cpp/github_os/input/src/os_base\os_task_scheduler.c ****       }
 519:E:/NeuOrga/Programmieren/c_cpp/github_os/input/src/os_base\os_task_scheduler.c ****       /* do not set bug, because task =0 is used for empty queue elements
 520:E:/NeuOrga/Programmieren/c_cpp/github_os/input/src/os_base\os_task_scheduler.c ****       else
 521:E:/NeuOrga/Programmieren/c_cpp/github_os/input/src/os_base\os_task_scheduler.c ****       {
 522:E:/NeuOrga/Programmieren/c_cpp/github_os/input/src/os_base\os_task_scheduler.c ****           OS_SET_SW_BUG(os_bug_null_pointer, Func_TaskScheduler);
 523:E:/NeuOrga/Programmieren/c_cpp/github_os/input/src/os_base\os_task_scheduler.c ****       }
 524:E:/NeuOrga/Programmieren/c_cpp/github_os/input/src/os_base\os_task_scheduler.c ****       */
 525:E:/NeuOrga/Programmieren/c_cpp/github_os/input/src/os_base\os_task_scheduler.c ****    }
 526:E:/NeuOrga/Programmieren/c_cpp/github_os/input/src/os_base\os_task_scheduler.c ****    For_all_tasks_in_queue(element_nr)
 821              		.loc 1 526 0 is_stmt 1
 822 06dc C645F300 		movb	$0, -13(%ebp)
 823 06e0 EB7D     		jmp	L66
 824              	L69:
 527:E:/NeuOrga/Programmieren/c_cpp/github_os/input/src/os_base\os_task_scheduler.c ****    {
 528:E:/NeuOrga/Programmieren/c_cpp/github_os/input/src/os_base\os_task_scheduler.c ****       link_list_member = GetFromLinkList(element_nr);
 825              		.loc 1 528 0
 826 06e2 0FB645F3 		movzbl	-13(%ebp), %eax
 827 06e6 890424   		movl	%eax, (%esp)
 828 06e9 E8000000 		call	_GetFromLinkList
 828      00
 829 06ee A3040600 		movl	%eax, _link_list_member.1382
 829      00
 529:E:/NeuOrga/Programmieren/c_cpp/github_os/input/src/os_base\os_task_scheduler.c ****       task             = GetFromTaskQueue(link_list_member);
 830              		.loc 1 529 0
 831 06f3 A1040600 		movl	_link_list_member.1382, %eax
 831      00
 832 06f8 890424   		movl	%eax, (%esp)
 833 06fb E8000000 		call	_GetFromTaskQueue
 833      00
 834 0700 A3080600 		movl	%eax, _task.1379
GAS LISTING C:\Users\PRESID~1\AppData\Local\Temp\ccrN058O.s 			page 28


 834      00
 530:E:/NeuOrga/Programmieren/c_cpp/github_os/input/src/os_base\os_task_scheduler.c ****       if(task != 0)
 835              		.loc 1 530 0
 836 0705 A1080600 		movl	_task.1379, %eax
 836      00
 837 070a 85C0     		testl	%eax, %eax
 838 070c 744A     		je	L67
 531:E:/NeuOrga/Programmieren/c_cpp/github_os/input/src/os_base\os_task_scheduler.c ****       {
 532:E:/NeuOrga/Programmieren/c_cpp/github_os/input/src/os_base\os_task_scheduler.c ****          /*update wait time */
 533:E:/NeuOrga/Programmieren/c_cpp/github_os/input/src/os_base\os_task_scheduler.c ****          if(task->IdleTask != True)
 839              		.loc 1 533 0
 840 070e A1080600 		movl	_task.1379, %eax
 840      00
 841 0713 8A00     		movb	(%eax), %al
 842 0715 83E004   		andl	$4, %eax
 843 0718 84C0     		testb	%al, %al
 844 071a 7516     		jne	L68
 534:E:/NeuOrga/Programmieren/c_cpp/github_os/input/src/os_base\os_task_scheduler.c ****          {
 535:E:/NeuOrga/Programmieren/c_cpp/github_os/input/src/os_base\os_task_scheduler.c ****             task->wait_time += delta_time;
 845              		.loc 1 535 0
 846 071c A1080600 		movl	_task.1379, %eax
 846      00
 847 0721 8B150806 		movl	_task.1379, %edx
 847      0000
 848 0727 8B4A0C   		movl	12(%edx), %ecx
 849 072a 8B55EC   		movl	-20(%ebp), %edx
 850 072d 01CA     		addl	%ecx, %edx
 851 072f 89500C   		movl	%edx, 12(%eax)
 852              	L68:
 536:E:/NeuOrga/Programmieren/c_cpp/github_os/input/src/os_base\os_task_scheduler.c ****          }
 537:E:/NeuOrga/Programmieren/c_cpp/github_os/input/src/os_base\os_task_scheduler.c ****          /* search for task with highest prio and assign it to Winner_task */
 538:E:/NeuOrga/Programmieren/c_cpp/github_os/input/src/os_base\os_task_scheduler.c ****          if(task->current_prio > Winner_prio)
 853              		.loc 1 538 0
 854 0732 A1080600 		movl	_task.1379, %eax
 854      00
 855 0737 8A5024   		movb	36(%eax), %dl
 856 073a A00C0600 		movb	_Winner_prio.1380, %al
 856      00
 857 073f 38C2     		cmpb	%al, %dl
 858 0741 7615     		jbe	L67
 539:E:/NeuOrga/Programmieren/c_cpp/github_os/input/src/os_base\os_task_scheduler.c ****          {
 540:E:/NeuOrga/Programmieren/c_cpp/github_os/input/src/os_base\os_task_scheduler.c ****             Winner_prio = task->current_prio;
 859              		.loc 1 540 0
 860 0743 A1080600 		movl	_task.1379, %eax
 860      00
 861 0748 8A4024   		movb	36(%eax), %al
 862 074b A20C0600 		movb	%al, _Winner_prio.1380
 862      00
 541:E:/NeuOrga/Programmieren/c_cpp/github_os/input/src/os_base\os_task_scheduler.c ****             Winner_task = task;
 863              		.loc 1 541 0
 864 0750 A1080600 		movl	_task.1379, %eax
 864      00
 865 0755 8945F4   		movl	%eax, -12(%ebp)
 866              	L67:
 526:E:/NeuOrga/Programmieren/c_cpp/github_os/input/src/os_base\os_task_scheduler.c ****    {
 867              		.loc 1 526 0 discriminator 2
 868 0758 8A45F3   		movb	-13(%ebp), %al
GAS LISTING C:\Users\PRESID~1\AppData\Local\Temp\ccrN058O.s 			page 29


 869 075b 40       		incl	%eax
 870 075c 8845F3   		movb	%al, -13(%ebp)
 871              	L66:
 526:E:/NeuOrga/Programmieren/c_cpp/github_os/input/src/os_base\os_task_scheduler.c ****    {
 872              		.loc 1 526 0 is_stmt 0 discriminator 1
 873 075f 807DF304 		cmpb	$4, -13(%ebp)
 874 0763 0F8679FF 		jbe	L69
 874      FFFF
 542:E:/NeuOrga/Programmieren/c_cpp/github_os/input/src/os_base\os_task_scheduler.c ****          }
 543:E:/NeuOrga/Programmieren/c_cpp/github_os/input/src/os_base\os_task_scheduler.c **** 
 544:E:/NeuOrga/Programmieren/c_cpp/github_os/input/src/os_base\os_task_scheduler.c ****       }
 545:E:/NeuOrga/Programmieren/c_cpp/github_os/input/src/os_base\os_task_scheduler.c ****       /* do not set bug, because task =0 is used for empty queue elements
 546:E:/NeuOrga/Programmieren/c_cpp/github_os/input/src/os_base\os_task_scheduler.c ****       else
 547:E:/NeuOrga/Programmieren/c_cpp/github_os/input/src/os_base\os_task_scheduler.c ****       {
 548:E:/NeuOrga/Programmieren/c_cpp/github_os/input/src/os_base\os_task_scheduler.c ****           OS_SET_SW_BUG(os_bug_null_pointer, Func_TaskScheduler);
 549:E:/NeuOrga/Programmieren/c_cpp/github_os/input/src/os_base\os_task_scheduler.c ****       }
 550:E:/NeuOrga/Programmieren/c_cpp/github_os/input/src/os_base\os_task_scheduler.c ****       */
 551:E:/NeuOrga/Programmieren/c_cpp/github_os/input/src/os_base\os_task_scheduler.c ****    }
 552:E:/NeuOrga/Programmieren/c_cpp/github_os/input/src/os_base\os_task_scheduler.c ****    /* prevent deathlook by permanently winning same task */
 553:E:/NeuOrga/Programmieren/c_cpp/github_os/input/src/os_base\os_task_scheduler.c ****    if(Winner_task != 0)
 875              		.loc 1 553 0 is_stmt 1
 876 0769 837DF400 		cmpl	$0, -12(%ebp)
 877 076d 7409     		je	L70
 554:E:/NeuOrga/Programmieren/c_cpp/github_os/input/src/os_base\os_task_scheduler.c ****    {
 555:E:/NeuOrga/Programmieren/c_cpp/github_os/input/src/os_base\os_task_scheduler.c ****       Winner_task->current_prio = 0;
 878              		.loc 1 555 0
 879 076f 8B45F4   		movl	-12(%ebp), %eax
 880 0772 C6402400 		movb	$0, 36(%eax)
 881 0776 EB08     		jmp	L71
 882              	L70:
 556:E:/NeuOrga/Programmieren/c_cpp/github_os/input/src/os_base\os_task_scheduler.c ****    }
 557:E:/NeuOrga/Programmieren/c_cpp/github_os/input/src/os_base\os_task_scheduler.c ****    else
 558:E:/NeuOrga/Programmieren/c_cpp/github_os/input/src/os_base\os_task_scheduler.c ****    {
 559:E:/NeuOrga/Programmieren/c_cpp/github_os/input/src/os_base\os_task_scheduler.c ****       Winner_task = GetIdleTask();
 883              		.loc 1 559 0
 884 0778 E8000000 		call	_GetIdleTask
 884      00
 885 077d 8945F4   		movl	%eax, -12(%ebp)
 886              	L71:
 560:E:/NeuOrga/Programmieren/c_cpp/github_os/input/src/os_base\os_task_scheduler.c ****    }
 561:E:/NeuOrga/Programmieren/c_cpp/github_os/input/src/os_base\os_task_scheduler.c ****    return Winner_task;
 887              		.loc 1 561 0
 888 0780 8B45F4   		movl	-12(%ebp), %eax
 562:E:/NeuOrga/Programmieren/c_cpp/github_os/input/src/os_base\os_task_scheduler.c **** }
 889              		.loc 1 562 0
 890 0783 83C434   		addl	$52, %esp
 891 0786 5B       		popl	%ebx
 892              		.cfi_restore 3
 893 0787 5D       		popl	%ebp
 894              		.cfi_restore 5
 895              		.cfi_def_cfa 4, 4
 896 0788 C3       		ret
 897              		.cfi_endproc
 898              	LFE12:
 899              		.globl	_ISR_TASK_DISPATCH_C0
 901              	_ISR_TASK_DISPATCH_C0:
 902              	LFB13:
GAS LISTING C:\Users\PRESID~1\AppData\Local\Temp\ccrN058O.s 			page 30


 563:E:/NeuOrga/Programmieren/c_cpp/github_os/input/src/os_base\os_task_scheduler.c **** 
 564:E:/NeuOrga/Programmieren/c_cpp/github_os/input/src/os_base\os_task_scheduler.c **** void ISR_TASK_DISPATCH_C0(void)
 565:E:/NeuOrga/Programmieren/c_cpp/github_os/input/src/os_base\os_task_scheduler.c **** {
 903              		.loc 1 565 0
 904              		.cfi_startproc
 905 0789 55       		pushl	%ebp
 906              		.cfi_def_cfa_offset 8
 907              		.cfi_offset 5, -8
 908 078a 89E5     		movl	%esp, %ebp
 909              		.cfi_def_cfa_register 5
 910 078c 83EC08   		subl	$8, %esp
 566:E:/NeuOrga/Programmieren/c_cpp/github_os/input/src/os_base\os_task_scheduler.c ****    #if(NR_OF_CORES != 1u)
 567:E:/NeuOrga/Programmieren/c_cpp/github_os/input/src/os_base\os_task_scheduler.c ****    #warn "task scheduler should know which core it is running, to select the correct task to termin
 568:E:/NeuOrga/Programmieren/c_cpp/github_os/input/src/os_base\os_task_scheduler.c ****    #endif 
 569:E:/NeuOrga/Programmieren/c_cpp/github_os/input/src/os_base\os_task_scheduler.c ****    OS_TASK_DISPATCHER();
 911              		.loc 1 569 0
 912 078f E8F1FBFF 		call	_OS_TASK_DISPATCHER
 912      FF
 570:E:/NeuOrga/Programmieren/c_cpp/github_os/input/src/os_base\os_task_scheduler.c **** 
 571:E:/NeuOrga/Programmieren/c_cpp/github_os/input/src/os_base\os_task_scheduler.c **** }
 913              		.loc 1 571 0
 914 0794 C9       		leave
 915              		.cfi_restore 5
 916              		.cfi_def_cfa 4, 4
 917 0795 C3       		ret
 918              		.cfi_endproc
 919              	LFE13:
 920              	.lcomm _TASK_GROUP_1.1370,8,4
 921              	.lcomm _TASK_GROUP_2.1371,8,4
 922              	.lcomm _TASK_GROUP_3.1372,8,4
 923              	.lcomm _TASK_GROUP_4.1373,8,4
 924              	.lcomm _TASK_GROUP_5.1374,8,4
 925              	.lcomm _task_0.1366,100,32
 926              	.lcomm _task_1.1367,100,32
 927              	.lcomm _task_2.1368,100,32
 928              	.lcomm _task_3.1369,100,32
 929              	.lcomm _link_list_member.1382,4,4
 930              	.lcomm _task.1379,4,4
 931              	.lcomm _Winner_prio.1380,1,1
 932              	Letext0:
 933              		.file 2 "E:/NeuOrga/Programmieren/c_cpp/github_os/input/src/os_base/../os_base/os_base_types.h"
 934              		.file 3 "E:/NeuOrga/Programmieren/c_cpp/github_os/input/src/os_base/../os_base/os_common.h"
 935              		.file 4 "E:/NeuOrga/Programmieren/c_cpp/github_os/input/src/os_base/../os_sim/lld_core.h"
 936              		.file 5 "E:/NeuOrga/Programmieren/c_cpp/github_os/input/src/os_base/../os_sim/../os_base/os_task_c
 937              		.file 6 "E:/NeuOrga/Programmieren/c_cpp/github_os/input/src/os_base/os_task_scheduler.h"
 938              		.file 7 "E:/NeuOrga/Programmieren/c_cpp/github_os/input/src/os_base/os_task_queue.h"
 939              		.file 8 "E:/NeuOrga/Programmieren/c_cpp/github_os/input/src/os_base/../os_base/os_ram.h"
 940 0796 9090     		.section	.debug_info,"dr"
 941              	Ldebug_info0:
 942 0000 C10C0000 		.long	0xcc1
 943 0004 0400     		.word	0x4
 944 0006 00000000 		.secrel32	Ldebug_abbrev0
 945 000a 04       		.byte	0x4
 946 000b 01       		.uleb128 0x1
 947 000c 474E5520 		.ascii "GNU C 4.9.3 -march=i386 -g3 -O0 -std=c90\0"
 947      4320342E 
 947      392E3320 
GAS LISTING C:\Users\PRESID~1\AppData\Local\Temp\ccrN058O.s 			page 31


 947      2D6D6172 
 947      63683D69 
 948 0035 01       		.byte	0x1
 949 0036 453A5C4E 		.ascii "E:\\NeuOrga\\Programmieren\\c_cpp\\github_os\\input\\src\\os_base\\os_task_scheduler.c\0"
 949      65754F72 
 949      67615C50 
 949      726F6772 
 949      616D6D69 
 950 0085 00000000 		.long	Ltext0
 951 0089 96070000 		.long	Letext0-Ltext0
 952 008d 00000000 		.secrel32	Ldebug_line0
 953 0091 00000000 		.secrel32	Ldebug_macro0
 954 0095 02       		.uleb128 0x2
 955 0096 756E7369 		.ascii "unsigned_char_t\0"
 955      676E6564 
 955      5F636861 
 955      725F7400 
 956 00a6 02       		.byte	0x2
 957 00a7 1D       		.byte	0x1d
 958 00a8 AC000000 		.long	0xac
 959 00ac 03       		.uleb128 0x3
 960 00ad 01       		.byte	0x1
 961 00ae 08       		.byte	0x8
 962 00af 756E7369 		.ascii "unsigned char\0"
 962      676E6564 
 962      20636861 
 962      7200
 963 00bd 03       		.uleb128 0x3
 964 00be 02       		.byte	0x2
 965 00bf 07       		.byte	0x7
 966 00c0 73686F72 		.ascii "short unsigned int\0"
 966      7420756E 
 966      7369676E 
 966      65642069 
 966      6E7400
 967 00d3 02       		.uleb128 0x2
 968 00d4 756E7369 		.ascii "unsigned_int32_t\0"
 968      676E6564 
 968      5F696E74 
 968      33325F74 
 968      00
 969 00e5 02       		.byte	0x2
 970 00e6 22       		.byte	0x22
 971 00e7 EB000000 		.long	0xeb
 972 00eb 03       		.uleb128 0x3
 973 00ec 04       		.byte	0x4
 974 00ed 07       		.byte	0x7
 975 00ee 6C6F6E67 		.ascii "long unsigned int\0"
 975      20756E73 
 975      69676E65 
 975      6420696E 
 975      7400
 976 0100 04       		.uleb128 0x4
 977 0101 6F735F73 		.ascii "os_sw_bugs_e\0"
 977      775F6275 
 977      67735F65 
 977      00
GAS LISTING C:\Users\PRESID~1\AppData\Local\Temp\ccrN058O.s 			page 32


 978 010e 04       		.byte	0x4
 979 010f 03       		.byte	0x3
 980 0110 2A       		.byte	0x2a
 981 0111 FE010000 		.long	0x1fe
 982 0115 05       		.uleb128 0x5
 983 0116 6F735F62 		.ascii "os_bug_no_bug\0"
 983      75675F6E 
 983      6F5F6275 
 983      6700
 984 0124 00       		.sleb128 0
 985 0125 05       		.uleb128 0x5
 986 0126 6F735F62 		.ascii "os_bug_taskstate_request_denied\0"
 986      75675F74 
 986      61736B73 
 986      74617465 
 986      5F726571 
 987 0146 01       		.sleb128 1
 988 0147 05       		.uleb128 0x5
 989 0148 6F735F62 		.ascii "os_bug_null_pointer\0"
 989      75675F6E 
 989      756C6C5F 
 989      706F696E 
 989      74657200 
 990 015c 02       		.sleb128 2
 991 015d 05       		.uleb128 0x5
 992 015e 6F735F62 		.ascii "os_bug_task_max_wait_time_reached\0"
 992      75675F74 
 992      61736B5F 
 992      6D61785F 
 992      77616974 
 993 0180 03       		.sleb128 3
 994 0181 05       		.uleb128 0x5
 995 0182 6F735F62 		.ascii "os_bug_Task_unspecified\0"
 995      75675F54 
 995      61736B5F 
 995      756E7370 
 995      65636966 
 996 019a 04       		.sleb128 4
 997 019b 05       		.uleb128 0x5
 998 019c 6F735F62 		.ascii "os_bug_exception_UndefInstruction\0"
 998      75675F65 
 998      78636570 
 998      74696F6E 
 998      5F556E64 
 999 01be 05       		.sleb128 5
 1000 01bf 05       		.uleb128 0x5
 1001 01c0 6F735F62 		.ascii "os_bug_exception_AbortPrefetch\0"
 1001      75675F65 
 1001      78636570 
 1001      74696F6E 
 1001      5F41626F 
 1002 01df 06       		.sleb128 6
 1003 01e0 05       		.uleb128 0x5
 1004 01e1 6F735F62 		.ascii "os_bug_exception_AbortData\0"
 1004      75675F65 
 1004      78636570 
 1004      74696F6E 
GAS LISTING C:\Users\PRESID~1\AppData\Local\Temp\ccrN058O.s 			page 33


 1004      5F41626F 
 1005 01fc 07       		.sleb128 7
 1006 01fd 00       		.byte	0
 1007 01fe 04       		.uleb128 0x4
 1008 01ff 6F735F73 		.ascii "os_sw_bugs_function_e\0"
 1008      775F6275 
 1008      67735F66 
 1008      756E6374 
 1008      696F6E5F 
 1009 0215 04       		.byte	0x4
 1010 0216 03       		.byte	0x3
 1011 0217 36       		.byte	0x36
 1012 0218 40030000 		.long	0x340
 1013 021c 05       		.uleb128 0x5
 1014 021d 46756E63 		.ascii "Func_NoFunction\0"
 1014      5F4E6F46 
 1014      756E6374 
 1014      696F6E00 
 1015 022d 00       		.sleb128 0
 1016 022e 05       		.uleb128 0x5
 1017 022f 46756E63 		.ascii "Func_SaveTaskEnvironment\0"
 1017      5F536176 
 1017      65546173 
 1017      6B456E76 
 1017      69726F6E 
 1018 0248 01       		.sleb128 1
 1019 0249 05       		.uleb128 0x5
 1020 024a 46756E63 		.ascii "Func_RestoreTaskEnvironment\0"
 1020      5F526573 
 1020      746F7265 
 1020      5461736B 
 1020      456E7669 
 1021 0266 02       		.sleb128 2
 1022 0267 05       		.uleb128 0x5
 1023 0268 46756E63 		.ascii "Func_CreateTaskEnvironment\0"
 1023      5F437265 
 1023      61746554 
 1023      61736B45 
 1023      6E766972 
 1024 0283 03       		.sleb128 3
 1025 0284 05       		.uleb128 0x5
 1026 0285 46756E63 		.ascii "Func_DeleteTaskEnvironment\0"
 1026      5F44656C 
 1026      65746554 
 1026      61736B45 
 1026      6E766972 
 1027 02a0 04       		.sleb128 4
 1028 02a1 05       		.uleb128 0x5
 1029 02a2 46756E63 		.ascii "Func_StartTask\0"
 1029      5F537461 
 1029      72745461 
 1029      736B00
 1030 02b1 05       		.sleb128 5
 1031 02b2 05       		.uleb128 0x5
 1032 02b3 46756E63 		.ascii "Func_PreemptTask\0"
 1032      5F507265 
 1032      656D7074 
GAS LISTING C:\Users\PRESID~1\AppData\Local\Temp\ccrN058O.s 			page 34


 1032      5461736B 
 1032      00
 1033 02c4 06       		.sleb128 6
 1034 02c5 05       		.uleb128 0x5
 1035 02c6 46756E63 		.ascii "Func_TerminateTask\0"
 1035      5F546572 
 1035      6D696E61 
 1035      74655461 
 1035      736B00
 1036 02d9 07       		.sleb128 7
 1037 02da 05       		.uleb128 0x5
 1038 02db 46756E63 		.ascii "Func_TaskScheduler\0"
 1038      5F546173 
 1038      6B536368 
 1038      6564756C 
 1038      657200
 1039 02ee 08       		.sleb128 8
 1040 02ef 05       		.uleb128 0x5
 1041 02f0 46756E63 		.ascii "Func_InitTask\0"
 1041      5F496E69 
 1041      74546173 
 1041      6B00
 1042 02fe 09       		.sleb128 9
 1043 02ff 05       		.uleb128 0x5
 1044 0300 46756E63 		.ascii "Func_ActivateTask\0"
 1044      5F416374 
 1044      69766174 
 1044      65546173 
 1044      6B00
 1045 0312 0A       		.sleb128 10
 1046 0313 05       		.uleb128 0x5
 1047 0314 46756E63 		.ascii "Func_TaskStateRequest\0"
 1047      5F546173 
 1047      6B537461 
 1047      74655265 
 1047      71756573 
 1048 032a 0B       		.sleb128 11
 1049 032b 05       		.uleb128 0x5
 1050 032c 46756E63 		.ascii "Func_os_exception\0"
 1050      5F6F735F 
 1050      65786365 
 1050      7074696F 
 1050      6E00
 1051 033e 0C       		.sleb128 12
 1052 033f 00       		.byte	0
 1053 0340 04       		.uleb128 0x4
 1054 0341 436F7265 		.ascii "CoreID_e\0"
 1054      49445F65 
 1054      00
 1055 034a 04       		.byte	0x4
 1056 034b 04       		.byte	0x4
 1057 034c 04       		.byte	0x4
 1058 034d 72030000 		.long	0x372
 1059 0351 05       		.uleb128 0x5
 1060 0352 436F7265 		.ascii "Core0\0"
 1060      3000
 1061 0358 00       		.sleb128 0
GAS LISTING C:\Users\PRESID~1\AppData\Local\Temp\ccrN058O.s 			page 35


 1062 0359 05       		.uleb128 0x5
 1063 035a 436F7265 		.ascii "Core1\0"
 1063      3100
 1064 0360 01       		.sleb128 1
 1065 0361 05       		.uleb128 0x5
 1066 0362 436F7265 		.ascii "Core2\0"
 1066      3200
 1067 0368 02       		.sleb128 2
 1068 0369 05       		.uleb128 0x5
 1069 036a 436F7265 		.ascii "Core3\0"
 1069      3300
 1070 0370 03       		.sleb128 3
 1071 0371 00       		.byte	0
 1072 0372 04       		.uleb128 0x4
 1073 0373 70726976 		.ascii "privilige_mode_e\0"
 1073      696C6967 
 1073      655F6D6F 
 1073      64655F65 
 1073      00
 1074 0384 04       		.byte	0x4
 1075 0385 04       		.byte	0x4
 1076 0386 10       		.byte	0x10
 1077 0387 07040000 		.long	0x407
 1078 038b 05       		.uleb128 0x5
 1079 038c 65507269 		.ascii "ePriviligeMode_unpriviliged_thread_mode\0"
 1079      76696C69 
 1079      67654D6F 
 1079      64655F75 
 1079      6E707269 
 1080 03b4 00       		.sleb128 0
 1081 03b5 05       		.uleb128 0x5
 1082 03b6 65507269 		.ascii "ePriviligeMode_priviliged_thread_mode\0"
 1082      76696C69 
 1082      67654D6F 
 1082      64655F70 
 1082      72697669 
 1083 03dc 01       		.sleb128 1
 1084 03dd 05       		.uleb128 0x5
 1085 03de 65507269 		.ascii "ePriviligeMode_priviliged_handler_mode\0"
 1085      76696C69 
 1085      67654D6F 
 1085      64655F70 
 1085      72697669 
 1086 0405 02       		.sleb128 2
 1087 0406 00       		.byte	0
 1088 0407 02       		.uleb128 0x2
 1089 0408 70726976 		.ascii "privilige_mode_t\0"
 1089      696C6967 
 1089      655F6D6F 
 1089      64655F74 
 1089      00
 1090 0419 04       		.byte	0x4
 1091 041a 16       		.byte	0x16
 1092 041b 72030000 		.long	0x372
 1093 041f 04       		.uleb128 0x4
 1094 0420 7461736B 		.ascii "task_state_e\0"
 1094      5F737461 
GAS LISTING C:\Users\PRESID~1\AppData\Local\Temp\ccrN058O.s 			page 36


 1094      74655F65 
 1094      00
 1095 042d 04       		.byte	0x4
 1096 042e 05       		.byte	0x5
 1097 042f 07       		.byte	0x7
 1098 0430 75040000 		.long	0x475
 1099 0434 05       		.uleb128 0x5
 1100 0435 5461736B 		.ascii "Task_unspecified\0"
 1100      5F756E73 
 1100      70656369 
 1100      66696564 
 1100      00
 1101 0446 00       		.sleb128 0
 1102 0447 05       		.uleb128 0x5
 1103 0448 5461736B 		.ascii "Task_suspended\0"
 1103      5F737573 
 1103      70656E64 
 1103      656400
 1104 0457 01       		.sleb128 1
 1105 0458 05       		.uleb128 0x5
 1106 0459 5461736B 		.ascii "Task_ready\0"
 1106      5F726561 
 1106      647900
 1107 0464 02       		.sleb128 2
 1108 0465 05       		.uleb128 0x5
 1109 0466 5461736B 		.ascii "Task_running\0"
 1109      5F72756E 
 1109      6E696E67 
 1109      00
 1110 0473 03       		.sleb128 3
 1111 0474 00       		.byte	0
 1112 0475 02       		.uleb128 0x2
 1113 0476 7461736B 		.ascii "task_state_t\0"
 1113      5F737461 
 1113      74655F74 
 1113      00
 1114 0483 05       		.byte	0x5
 1115 0484 0E       		.byte	0xe
 1116 0485 1F040000 		.long	0x41f
 1117 0489 02       		.uleb128 0x2
 1118 048a 66756E63 		.ascii "func_p_t\0"
 1118      5F705F74 
 1118      00
 1119 0493 05       		.byte	0x5
 1120 0494 13       		.byte	0x13
 1121 0495 99040000 		.long	0x499
 1122 0499 06       		.uleb128 0x6
 1123 049a 04       		.byte	0x4
 1124 049b 9F040000 		.long	0x49f
 1125 049f 07       		.uleb128 0x7
 1126 04a0 AA040000 		.long	0x4aa
 1127 04a4 08       		.uleb128 0x8
 1128 04a5 AA040000 		.long	0x4aa
 1129 04a9 00       		.byte	0
 1130 04aa 09       		.uleb128 0x9
 1131 04ab 04       		.byte	0x4
 1132 04ac 02       		.uleb128 0x2
GAS LISTING C:\Users\PRESID~1\AppData\Local\Temp\ccrN058O.s 			page 37


 1133 04ad 66756E63 		.ascii "func_p_state_change_t\0"
 1133      5F705F73 
 1133      74617465 
 1133      5F636861 
 1133      6E67655F 
 1134 04c3 05       		.byte	0x5
 1135 04c4 15       		.byte	0x15
 1136 04c5 C9040000 		.long	0x4c9
 1137 04c9 06       		.uleb128 0x6
 1138 04ca 04       		.byte	0x4
 1139 04cb CF040000 		.long	0x4cf
 1140 04cf 0A       		.uleb128 0xa
 1141 04d0 95000000 		.long	0x95
 1142 04d4 E3040000 		.long	0x4e3
 1143 04d8 08       		.uleb128 0x8
 1144 04d9 AA040000 		.long	0x4aa
 1145 04dd 08       		.uleb128 0x8
 1146 04de 75040000 		.long	0x475
 1147 04e2 00       		.byte	0
 1148 04e3 0B       		.uleb128 0xb
 1149 04e4 7461736B 		.ascii "task_group_s\0"
 1149      5F67726F 
 1149      75705F73 
 1149      00
 1150 04f1 08       		.byte	0x8
 1151 04f2 05       		.byte	0x5
 1152 04f3 16       		.byte	0x16
 1153 04f4 1B050000 		.long	0x51b
 1154 04f8 0C       		.uleb128 0xc
 1155 04f9 0E000000 		.secrel32	LASF0
 1156 04fd 05       		.byte	0x5
 1157 04fe 18       		.byte	0x18
 1158 04ff D3000000 		.long	0xd3
 1159 0503 00       		.byte	0
 1160 0504 0D       		.uleb128 0xd
 1161 0505 66616972 		.ascii "fair_exe_time\0"
 1161      5F657865 
 1161      5F74696D 
 1161      6500
 1162 0513 05       		.byte	0x5
 1163 0514 19       		.byte	0x19
 1164 0515 D3000000 		.long	0xd3
 1165 0519 04       		.byte	0x4
 1166 051a 00       		.byte	0
 1167 051b 02       		.uleb128 0x2
 1168 051c 7461736B 		.ascii "task_group_t\0"
 1168      5F67726F 
 1168      75705F74 
 1168      00
 1169 0529 05       		.byte	0x5
 1170 052a 1B       		.byte	0x1b
 1171 052b E3040000 		.long	0x4e3
 1172 052f 0B       		.uleb128 0xb
 1173 0530 7461736B 		.ascii "task_s\0"
 1173      5F7300
 1174 0537 64       		.byte	0x64
 1175 0538 05       		.byte	0x5
GAS LISTING C:\Users\PRESID~1\AppData\Local\Temp\ccrN058O.s 			page 38


 1176 0539 1D       		.byte	0x1d
 1177 053a A3070000 		.long	0x7a3
 1178 053e 0E       		.uleb128 0xe
 1179 053f 61637469 		.ascii "active\0"
 1179      766500
 1180 0546 05       		.byte	0x5
 1181 0547 1F       		.byte	0x1f
 1182 0548 A3070000 		.long	0x7a3
 1183 054c 04       		.byte	0x4
 1184 054d 01       		.byte	0x1
 1185 054e 1F       		.byte	0x1f
 1186 054f 00       		.byte	0
 1187 0550 0E       		.uleb128 0xe
 1188 0551 7461736B 		.ascii "task_queued\0"
 1188      5F717565 
 1188      75656400 
 1189 055d 05       		.byte	0x5
 1190 055e 20       		.byte	0x20
 1191 055f A3070000 		.long	0x7a3
 1192 0563 04       		.byte	0x4
 1193 0564 01       		.byte	0x1
 1194 0565 1E       		.byte	0x1e
 1195 0566 00       		.byte	0
 1196 0567 0E       		.uleb128 0xe
 1197 0568 49646C65 		.ascii "IdleTask\0"
 1197      5461736B 
 1197      00
 1198 0571 05       		.byte	0x5
 1199 0572 21       		.byte	0x21
 1200 0573 A3070000 		.long	0x7a3
 1201 0577 04       		.byte	0x4
 1202 0578 01       		.byte	0x1
 1203 0579 1D       		.byte	0x1d
 1204 057a 00       		.byte	0
 1205 057b 0E       		.uleb128 0xe
 1206 057c 46524545 		.ascii "FREE\0"
 1206      00
 1207 0581 05       		.byte	0x5
 1208 0582 22       		.byte	0x22
 1209 0583 A3070000 		.long	0x7a3
 1210 0587 04       		.byte	0x4
 1211 0588 1D       		.byte	0x1d
 1212 0589 00       		.byte	0
 1213 058a 00       		.byte	0
 1214 058b 0D       		.uleb128 0xd
 1215 058c 4E724F66 		.ascii "NrOfInsAllowed\0"
 1215      496E7341 
 1215      6C6C6F77 
 1215      656400
 1216 059b 05       		.byte	0x5
 1217 059c 23       		.byte	0x23
 1218 059d 95000000 		.long	0x95
 1219 05a1 04       		.byte	0x4
 1220 05a2 0D       		.uleb128 0xd
 1221 05a3 4E724F66 		.ascii "NrOfInsActivated\0"
 1221      496E7341 
 1221      63746976 
GAS LISTING C:\Users\PRESID~1\AppData\Local\Temp\ccrN058O.s 			page 39


 1221      61746564 
 1221      00
 1222 05b4 05       		.byte	0x5
 1223 05b5 24       		.byte	0x24
 1224 05b6 95000000 		.long	0x95
 1225 05ba 05       		.byte	0x5
 1226 05bb 0D       		.uleb128 0xd
 1227 05bc 57616974 		.ascii "WaitActUntil\0"
 1227      41637455 
 1227      6E74696C 
 1227      00
 1228 05c9 05       		.byte	0x5
 1229 05ca 25       		.byte	0x25
 1230 05cb D3000000 		.long	0xd3
 1231 05cf 08       		.byte	0x8
 1232 05d0 0D       		.uleb128 0xd
 1233 05d1 77616974 		.ascii "wait_time\0"
 1233      5F74696D 
 1233      6500
 1234 05db 05       		.byte	0x5
 1235 05dc 26       		.byte	0x26
 1236 05dd D3000000 		.long	0xd3
 1237 05e1 0C       		.byte	0xc
 1238 05e2 0D       		.uleb128 0xd
 1239 05e3 54696D65 		.ascii "TimeToPrioInc\0"
 1239      546F5072 
 1239      696F496E 
 1239      6300
 1240 05f1 05       		.byte	0x5
 1241 05f2 27       		.byte	0x27
 1242 05f3 D3000000 		.long	0xd3
 1243 05f7 10       		.byte	0x10
 1244 05f8 0D       		.uleb128 0xd
 1245 05f9 6F766572 		.ascii "overwaittime_per_prio_inc_step\0"
 1245      77616974 
 1245      74696D65 
 1245      5F706572 
 1245      5F707269 
 1246 0618 05       		.byte	0x5
 1247 0619 28       		.byte	0x28
 1248 061a D3000000 		.long	0xd3
 1249 061e 14       		.byte	0x14
 1250 061f 0D       		.uleb128 0xd
 1251 0620 6D61785F 		.ascii "max_allowed_wait_time\0"
 1251      616C6C6F 
 1251      7765645F 
 1251      77616974 
 1251      5F74696D 
 1252 0636 05       		.byte	0x5
 1253 0637 29       		.byte	0x29
 1254 0638 D3000000 		.long	0xd3
 1255 063c 18       		.byte	0x18
 1256 063d 0C       		.uleb128 0xc
 1257 063e 0E000000 		.secrel32	LASF0
 1258 0642 05       		.byte	0x5
 1259 0643 2A       		.byte	0x2a
 1260 0644 D3000000 		.long	0xd3
GAS LISTING C:\Users\PRESID~1\AppData\Local\Temp\ccrN058O.s 			page 40


 1261 0648 1C       		.byte	0x1c
 1262 0649 0D       		.uleb128 0xd
 1263 064a 73746172 		.ascii "start_time\0"
 1263      745F7469 
 1263      6D6500
 1264 0655 05       		.byte	0x5
 1265 0656 2B       		.byte	0x2b
 1266 0657 D3000000 		.long	0xd3
 1267 065b 20       		.byte	0x20
 1268 065c 0D       		.uleb128 0xd
 1269 065d 63757272 		.ascii "current_prio\0"
 1269      656E745F 
 1269      7072696F 
 1269      00
 1270 066a 05       		.byte	0x5
 1271 066b 2C       		.byte	0x2c
 1272 066c 95000000 		.long	0x95
 1273 0670 24       		.byte	0x24
 1274 0671 0D       		.uleb128 0xd
 1275 0672 64656661 		.ascii "default_prio\0"
 1275      756C745F 
 1275      7072696F 
 1275      00
 1276 067f 05       		.byte	0x5
 1277 0680 2D       		.byte	0x2d
 1278 0681 95000000 		.long	0x95
 1279 0685 25       		.byte	0x25
 1280 0686 0D       		.uleb128 0xd
 1281 0687 7461736B 		.ascii "task_number\0"
 1281      5F6E756D 
 1281      62657200 
 1282 0693 05       		.byte	0x5
 1283 0694 2E       		.byte	0x2e
 1284 0695 D3000000 		.long	0xd3
 1285 0699 28       		.byte	0x28
 1286 069a 0D       		.uleb128 0xd
 1287 069b 667000   		.ascii "fp\0"
 1288 069e 05       		.byte	0x5
 1289 069f 2F       		.byte	0x2f
 1290 06a0 89040000 		.long	0x489
 1291 06a4 2C       		.byte	0x2c
 1292 06a5 0D       		.uleb128 0xd
 1293 06a6 73746174 		.ascii "state_request\0"
 1293      655F7265 
 1293      71756573 
 1293      7400
 1294 06b4 05       		.byte	0x5
 1295 06b5 30       		.byte	0x30
 1296 06b6 AC040000 		.long	0x4ac
 1297 06ba 30       		.byte	0x30
 1298 06bb 0D       		.uleb128 0xd
 1299 06bc 7461736B 		.ascii "task_state\0"
 1299      5F737461 
 1299      746500
 1300 06c7 05       		.byte	0x5
 1301 06c8 31       		.byte	0x31
 1302 06c9 75040000 		.long	0x475
GAS LISTING C:\Users\PRESID~1\AppData\Local\Temp\ccrN058O.s 			page 41


 1303 06cd 34       		.byte	0x34
 1304 06ce 0D       		.uleb128 0xd
 1305 06cf 7461736B 		.ascii "task_group\0"
 1305      5F67726F 
 1305      757000
 1306 06da 05       		.byte	0x5
 1307 06db 32       		.byte	0x32
 1308 06dc B3070000 		.long	0x7b3
 1309 06e0 38       		.byte	0x38
 1310 06e1 0D       		.uleb128 0xd
 1311 06e2 45415800 		.ascii "EAX\0"
 1312 06e6 05       		.byte	0x5
 1313 06e7 34       		.byte	0x34
 1314 06e8 D3000000 		.long	0xd3
 1315 06ec 3C       		.byte	0x3c
 1316 06ed 0D       		.uleb128 0xd
 1317 06ee 45425800 		.ascii "EBX\0"
 1318 06f2 05       		.byte	0x5
 1319 06f3 35       		.byte	0x35
 1320 06f4 D3000000 		.long	0xd3
 1321 06f8 40       		.byte	0x40
 1322 06f9 0D       		.uleb128 0xd
 1323 06fa 45435800 		.ascii "ECX\0"
 1324 06fe 05       		.byte	0x5
 1325 06ff 36       		.byte	0x36
 1326 0700 D3000000 		.long	0xd3
 1327 0704 44       		.byte	0x44
 1328 0705 0D       		.uleb128 0xd
 1329 0706 45445800 		.ascii "EDX\0"
 1330 070a 05       		.byte	0x5
 1331 070b 37       		.byte	0x37
 1332 070c D3000000 		.long	0xd3
 1333 0710 48       		.byte	0x48
 1334 0711 0D       		.uleb128 0xd
 1335 0712 70537461 		.ascii "pStackPointer\0"
 1335      636B506F 
 1335      696E7465 
 1335      7200
 1336 0720 05       		.byte	0x5
 1337 0721 47       		.byte	0x47
 1338 0722 B9070000 		.long	0x7b9
 1339 0726 4C       		.byte	0x4c
 1340 0727 0D       		.uleb128 0xd
 1341 0728 70537461 		.ascii "pStackPointerByMalloc\0"
 1341      636B506F 
 1341      696E7465 
 1341      7242794D 
 1341      616C6C6F 
 1342 073e 05       		.byte	0x5
 1343 073f 48       		.byte	0x48
 1344 0740 B9070000 		.long	0x7b9
 1345 0744 50       		.byte	0x50
 1346 0745 0D       		.uleb128 0xd
 1347 0746 70537461 		.ascii "pStackPointerStart\0"
 1347      636B506F 
 1347      696E7465 
 1347      72537461 
GAS LISTING C:\Users\PRESID~1\AppData\Local\Temp\ccrN058O.s 			page 42


 1347      727400
 1348 0759 05       		.byte	0x5
 1349 075a 49       		.byte	0x49
 1350 075b B9070000 		.long	0x7b9
 1351 075f 54       		.byte	0x54
 1352 0760 0D       		.uleb128 0xd
 1353 0761 53746163 		.ascii "StackSize\0"
 1353      6B53697A 
 1353      6500
 1354 076b 05       		.byte	0x5
 1355 076c 4A       		.byte	0x4a
 1356 076d D3000000 		.long	0xd3
 1357 0771 58       		.byte	0x58
 1358 0772 0D       		.uleb128 0xd
 1359 0773 70537461 		.ascii "pStackPointerEnd\0"
 1359      636B506F 
 1359      696E7465 
 1359      72456E64 
 1359      00
 1360 0784 05       		.byte	0x5
 1361 0785 4B       		.byte	0x4b
 1362 0786 B9070000 		.long	0x7b9
 1363 078a 5C       		.byte	0x5c
 1364 078b 0D       		.uleb128 0xd
 1365 078c 70726976 		.ascii "privilige_mode\0"
 1365      696C6967 
 1365      655F6D6F 
 1365      646500
 1366 079b 05       		.byte	0x5
 1367 079c 4C       		.byte	0x4c
 1368 079d 07040000 		.long	0x407
 1369 07a1 60       		.byte	0x60
 1370 07a2 00       		.byte	0
 1371 07a3 03       		.uleb128 0x3
 1372 07a4 04       		.byte	0x4
 1373 07a5 07       		.byte	0x7
 1374 07a6 756E7369 		.ascii "unsigned int\0"
 1374      676E6564 
 1374      20696E74 
 1374      00
 1375 07b3 06       		.uleb128 0x6
 1376 07b4 04       		.byte	0x4
 1377 07b5 1B050000 		.long	0x51b
 1378 07b9 06       		.uleb128 0x6
 1379 07ba 04       		.byte	0x4
 1380 07bb 95000000 		.long	0x95
 1381 07bf 02       		.uleb128 0x2
 1382 07c0 7461736B 		.ascii "task_t\0"
 1382      5F7400
 1383 07c7 05       		.byte	0x5
 1384 07c8 4E       		.byte	0x4e
 1385 07c9 2F050000 		.long	0x52f
 1386 07cd 02       		.uleb128 0x2
 1387 07ce 73636865 		.ascii "scheduler_time_t\0"
 1387      64756C65 
 1387      725F7469 
 1387      6D655F74 
GAS LISTING C:\Users\PRESID~1\AppData\Local\Temp\ccrN058O.s 			page 43


 1387      00
 1388 07df 05       		.byte	0x5
 1389 07e0 5B       		.byte	0x5b
 1390 07e1 A3070000 		.long	0x7a3
 1391 07e5 02       		.uleb128 0x2
 1392 07e6 7461736B 		.ascii "task_time_t\0"
 1392      5F74696D 
 1392      655F7400 
 1393 07f2 06       		.byte	0x6
 1394 07f3 0F       		.byte	0xf
 1395 07f4 A3070000 		.long	0x7a3
 1396 07f8 02       		.uleb128 0x2
 1397 07f9 6C696E6B 		.ascii "link_list_t\0"
 1397      5F6C6973 
 1397      745F7400 
 1398 0805 07       		.byte	0x7
 1399 0806 0B       		.byte	0xb
 1400 0807 AA040000 		.long	0x4aa
 1401 080b 0F       		.uleb128 0xf
 1402 080c 4F535F41 		.ascii "OS_ACTIVATE_DISPATCHER\0"
 1402      43544956 
 1402      4154455F 
 1402      44495350 
 1402      41544348 
 1403 0823 01       		.byte	0x1
 1404 0824 1A       		.byte	0x1a
 1405 0825 00000000 		.long	LFB0
 1406 0829 05000000 		.long	LFE0-LFB0
 1407 082d 01       		.uleb128 0x1
 1408 082e 9C       		.byte	0x9c
 1409 082f 10       		.uleb128 0x10
 1410 0830 4F535F53 		.ascii "OS_SLEEPTASK\0"
 1410      4C454550 
 1410      5441534B 
 1410      00
 1411 083d 01       		.byte	0x1
 1412 083e 35       		.byte	0x35
 1413 083f 05000000 		.long	LFB1
 1414 0843 1A000000 		.long	LFE1-LFB1
 1415 0847 01       		.uleb128 0x1
 1416 0848 9C       		.byte	0x9c
 1417 0849 6F080000 		.long	0x86f
 1418 084d 11       		.uleb128 0x11
 1419 084e 00000000 		.secrel32	LASF1
 1420 0852 01       		.byte	0x1
 1421 0853 35       		.byte	0x35
 1422 0854 6F080000 		.long	0x86f
 1423 0858 02       		.uleb128 0x2
 1424 0859 91       		.byte	0x91
 1425 085a 00       		.sleb128 0
 1426 085b 12       		.uleb128 0x12
 1427 085c 6D696C6C 		.ascii "millisec\0"
 1427      69736563 
 1427      00
 1428 0865 01       		.byte	0x1
 1429 0866 35       		.byte	0x35
 1430 0867 E5070000 		.long	0x7e5
GAS LISTING C:\Users\PRESID~1\AppData\Local\Temp\ccrN058O.s 			page 44


 1431 086b 02       		.uleb128 0x2
 1432 086c 91       		.byte	0x91
 1433 086d 04       		.sleb128 4
 1434 086e 00       		.byte	0
 1435 086f 06       		.uleb128 0x6
 1436 0870 04       		.byte	0x4
 1437 0871 BF070000 		.long	0x7bf
 1438 0875 13       		.uleb128 0x13
 1439 0876 7461736B 		.ascii "task_state_request\0"
 1439      5F737461 
 1439      74655F72 
 1439      65717565 
 1439      737400
 1440 0889 01       		.byte	0x1
 1441 088a 3A       		.byte	0x3a
 1442 088b 95000000 		.long	0x95
 1443 088f 1F000000 		.long	LFB2
 1444 0893 F7000000 		.long	LFE2-LFB2
 1445 0897 01       		.uleb128 0x1
 1446 0898 9C       		.byte	0x9c
 1447 0899 F1080000 		.long	0x8f1
 1448 089d 12       		.uleb128 0x12
 1449 089e 74656D70 		.ascii "temp_task\0"
 1449      5F746173 
 1449      6B00
 1450 08a8 01       		.byte	0x1
 1451 08a9 3A       		.byte	0x3a
 1452 08aa AA040000 		.long	0x4aa
 1453 08ae 02       		.uleb128 0x2
 1454 08af 91       		.byte	0x91
 1455 08b0 00       		.sleb128 0
 1456 08b1 12       		.uleb128 0x12
 1457 08b2 72657175 		.ascii "requested_state\0"
 1457      65737465 
 1457      645F7374 
 1457      61746500 
 1458 08c2 01       		.byte	0x1
 1459 08c3 3A       		.byte	0x3a
 1460 08c4 75040000 		.long	0x475
 1461 08c8 02       		.uleb128 0x2
 1462 08c9 91       		.byte	0x91
 1463 08ca 04       		.sleb128 4
 1464 08cb 14       		.uleb128 0x14
 1465 08cc 52657175 		.ascii "RequestState\0"
 1465      65737453 
 1465      74617465 
 1465      00
 1466 08d9 01       		.byte	0x1
 1467 08da 3C       		.byte	0x3c
 1468 08db 95000000 		.long	0x95
 1469 08df 02       		.uleb128 0x2
 1470 08e0 91       		.byte	0x91
 1471 08e1 6F       		.sleb128 -17
 1472 08e2 15       		.uleb128 0x15
 1473 08e3 00000000 		.secrel32	LASF1
 1474 08e7 01       		.byte	0x1
 1475 08e8 3E       		.byte	0x3e
GAS LISTING C:\Users\PRESID~1\AppData\Local\Temp\ccrN058O.s 			page 45


 1476 08e9 6F080000 		.long	0x86f
 1477 08ed 02       		.uleb128 0x2
 1478 08ee 91       		.byte	0x91
 1479 08ef 68       		.sleb128 -24
 1480 08f0 00       		.byte	0
 1481 08f1 10       		.uleb128 0x10
 1482 08f2 4F535F41 		.ascii "OS_ActivateTask\0"
 1482      63746976 
 1482      61746554 
 1482      61736B00 
 1483 0902 01       		.byte	0x1
 1484 0903 A5       		.byte	0xa5
 1485 0904 16010000 		.long	LFB3
 1486 0908 BE000000 		.long	LFE3-LFB3
 1487 090c 01       		.uleb128 0x1
 1488 090d 9C       		.byte	0x9c
 1489 090e 21090000 		.long	0x921
 1490 0912 11       		.uleb128 0x11
 1491 0913 00000000 		.secrel32	LASF1
 1492 0917 01       		.byte	0x1
 1493 0918 A5       		.byte	0xa5
 1494 0919 6F080000 		.long	0x86f
 1495 091d 02       		.uleb128 0x2
 1496 091e 91       		.byte	0x91
 1497 091f 00       		.sleb128 0
 1498 0920 00       		.byte	0
 1499 0921 16       		.uleb128 0x16
 1500 0922 4F535F53 		.ascii "OS_STARTTASK\0"
 1500      54415254 
 1500      5441534B 
 1500      00
 1501 092f 01       		.byte	0x1
 1502 0930 D3       		.byte	0xd3
 1503 0931 D4010000 		.long	LFB4
 1504 0935 F7000000 		.long	LFE4-LFB4
 1505 0939 01       		.uleb128 0x1
 1506 093a 9C       		.byte	0x9c
 1507 093b 4E090000 		.long	0x94e
 1508 093f 11       		.uleb128 0x11
 1509 0940 00000000 		.secrel32	LASF1
 1510 0944 01       		.byte	0x1
 1511 0945 D3       		.byte	0xd3
 1512 0946 6F080000 		.long	0x86f
 1513 094a 02       		.uleb128 0x2
 1514 094b 91       		.byte	0x91
 1515 094c 00       		.sleb128 0
 1516 094d 00       		.byte	0
 1517 094e 17       		.uleb128 0x17
 1518 094f 4F535F54 		.ascii "OS_TERMINATE_TASK\0"
 1518      45524D49 
 1518      4E415445 
 1518      5F544153 
 1518      4B00
 1519 0961 01       		.byte	0x1
 1520 0962 0801     		.word	0x108
 1521 0964 CB020000 		.long	LFB5
 1522 0968 BA000000 		.long	LFE5-LFB5
GAS LISTING C:\Users\PRESID~1\AppData\Local\Temp\ccrN058O.s 			page 46


 1523 096c 01       		.uleb128 0x1
 1524 096d 9C       		.byte	0x9c
 1525 096e 82090000 		.long	0x982
 1526 0972 18       		.uleb128 0x18
 1527 0973 00000000 		.secrel32	LASF1
 1528 0977 01       		.byte	0x1
 1529 0978 0801     		.word	0x108
 1530 097a 6F080000 		.long	0x86f
 1531 097e 02       		.uleb128 0x2
 1532 097f 91       		.byte	0x91
 1533 0980 00       		.sleb128 0
 1534 0981 00       		.byte	0
 1535 0982 17       		.uleb128 0x17
 1536 0983 4F535F54 		.ascii "OS_TASK_DISPATCHER\0"
 1536      41534B5F 
 1536      44495350 
 1536      41544348 
 1536      455200
 1537 0996 01       		.byte	0x1
 1538 0997 3001     		.word	0x130
 1539 0999 85030000 		.long	LFB6
 1540 099d 3B000000 		.long	LFE6-LFB6
 1541 09a1 01       		.uleb128 0x1
 1542 09a2 9C       		.byte	0x9c
 1543 09a3 B7090000 		.long	0x9b7
 1544 09a7 19       		.uleb128 0x19
 1545 09a8 00000000 		.secrel32	LASF1
 1546 09ac 01       		.byte	0x1
 1547 09ad 3C01     		.word	0x13c
 1548 09af 6F080000 		.long	0x86f
 1549 09b3 02       		.uleb128 0x2
 1550 09b4 91       		.byte	0x91
 1551 09b5 6C       		.sleb128 -20
 1552 09b6 00       		.byte	0
 1553 09b7 1A       		.uleb128 0x1a
 1554 09b8 5441534B 		.ascii "TASK_0\0"
 1554      5F3000
 1555 09bf 01       		.byte	0x1
 1556 09c0 4C01     		.word	0x14c
 1557 09c2 C0030000 		.long	LFB7
 1558 09c6 05000000 		.long	LFE7-LFB7
 1559 09ca 01       		.uleb128 0x1
 1560 09cb 9C       		.byte	0x9c
 1561 09cc E0090000 		.long	0x9e0
 1562 09d0 18       		.uleb128 0x18
 1563 09d1 05000000 		.secrel32	LASF2
 1564 09d5 01       		.byte	0x1
 1565 09d6 4C01     		.word	0x14c
 1566 09d8 AA040000 		.long	0x4aa
 1567 09dc 02       		.uleb128 0x2
 1568 09dd 91       		.byte	0x91
 1569 09de 00       		.sleb128 0
 1570 09df 00       		.byte	0
 1571 09e0 1B       		.uleb128 0x1b
 1572 09e1 5441534B 		.ascii "TASK_1\0"
 1572      5F3100
 1573 09e8 01       		.byte	0x1
GAS LISTING C:\Users\PRESID~1\AppData\Local\Temp\ccrN058O.s 			page 47


 1574 09e9 5101     		.word	0x151
 1575 09eb C5030000 		.long	LFB8
 1576 09ef 1B000000 		.long	LFE8-LFB8
 1577 09f3 01       		.uleb128 0x1
 1578 09f4 9C       		.byte	0x9c
 1579 09f5 090A0000 		.long	0xa09
 1580 09f9 18       		.uleb128 0x18
 1581 09fa 05000000 		.secrel32	LASF2
 1582 09fe 01       		.byte	0x1
 1583 09ff 5101     		.word	0x151
 1584 0a01 AA040000 		.long	0x4aa
 1585 0a05 02       		.uleb128 0x2
 1586 0a06 91       		.byte	0x91
 1587 0a07 00       		.sleb128 0
 1588 0a08 00       		.byte	0
 1589 0a09 1A       		.uleb128 0x1a
 1590 0a0a 5441534B 		.ascii "TASK_2\0"
 1590      5F3200
 1591 0a11 01       		.byte	0x1
 1592 0a12 5C01     		.word	0x15c
 1593 0a14 E0030000 		.long	LFB9
 1594 0a18 05000000 		.long	LFE9-LFB9
 1595 0a1c 01       		.uleb128 0x1
 1596 0a1d 9C       		.byte	0x9c
 1597 0a1e 320A0000 		.long	0xa32
 1598 0a22 18       		.uleb128 0x18
 1599 0a23 05000000 		.secrel32	LASF2
 1600 0a27 01       		.byte	0x1
 1601 0a28 5C01     		.word	0x15c
 1602 0a2a AA040000 		.long	0x4aa
 1603 0a2e 02       		.uleb128 0x2
 1604 0a2f 91       		.byte	0x91
 1605 0a30 00       		.sleb128 0
 1606 0a31 00       		.byte	0
 1607 0a32 1A       		.uleb128 0x1a
 1608 0a33 5441534B 		.ascii "TASK_3\0"
 1608      5F3300
 1609 0a3a 01       		.byte	0x1
 1610 0a3b 6601     		.word	0x166
 1611 0a3d E5030000 		.long	LFB10
 1612 0a41 05000000 		.long	LFE10-LFB10
 1613 0a45 01       		.uleb128 0x1
 1614 0a46 9C       		.byte	0x9c
 1615 0a47 5B0A0000 		.long	0xa5b
 1616 0a4b 18       		.uleb128 0x18
 1617 0a4c 05000000 		.secrel32	LASF2
 1618 0a50 01       		.byte	0x1
 1619 0a51 6601     		.word	0x166
 1620 0a53 AA040000 		.long	0x4aa
 1621 0a57 02       		.uleb128 0x2
 1622 0a58 91       		.byte	0x91
 1623 0a59 00       		.sleb128 0
 1624 0a5a 00       		.byte	0
 1625 0a5b 17       		.uleb128 0x17
 1626 0a5c 4F535F49 		.ascii "OS_INIT_TASKS\0"
 1626      4E49545F 
 1626      5441534B 
GAS LISTING C:\Users\PRESID~1\AppData\Local\Temp\ccrN058O.s 			page 48


 1626      5300
 1627 0a6a 01       		.byte	0x1
 1628 0a6b 7001     		.word	0x170
 1629 0a6d EA030000 		.long	LFB11
 1630 0a71 91010000 		.long	LFE11-LFB11
 1631 0a75 01       		.uleb128 0x1
 1632 0a76 9C       		.byte	0x9c
 1633 0a77 660B0000 		.long	0xb66
 1634 0a7b 1C       		.uleb128 0x1c
 1635 0a7c 7461736B 		.ascii "task_0\0"
 1635      5F3000
 1636 0a83 01       		.byte	0x1
 1637 0a84 7201     		.word	0x172
 1638 0a86 BF070000 		.long	0x7bf
 1639 0a8a 05       		.uleb128 0x5
 1640 0a8b 03       		.byte	0x3
 1641 0a8c 20040000 		.long	_task_0.1366
 1642 0a90 1C       		.uleb128 0x1c
 1643 0a91 7461736B 		.ascii "task_1\0"
 1643      5F3100
 1644 0a98 01       		.byte	0x1
 1645 0a99 7201     		.word	0x172
 1646 0a9b BF070000 		.long	0x7bf
 1647 0a9f 05       		.uleb128 0x5
 1648 0aa0 03       		.byte	0x3
 1649 0aa1 A0040000 		.long	_task_1.1367
 1650 0aa5 1C       		.uleb128 0x1c
 1651 0aa6 7461736B 		.ascii "task_2\0"
 1651      5F3200
 1652 0aad 01       		.byte	0x1
 1653 0aae 7201     		.word	0x172
 1654 0ab0 BF070000 		.long	0x7bf
 1655 0ab4 05       		.uleb128 0x5
 1656 0ab5 03       		.byte	0x3
 1657 0ab6 20050000 		.long	_task_2.1368
 1658 0aba 1C       		.uleb128 0x1c
 1659 0abb 7461736B 		.ascii "task_3\0"
 1659      5F3300
 1660 0ac2 01       		.byte	0x1
 1661 0ac3 7201     		.word	0x172
 1662 0ac5 BF070000 		.long	0x7bf
 1663 0ac9 05       		.uleb128 0x5
 1664 0aca 03       		.byte	0x3
 1665 0acb A0050000 		.long	_task_3.1369
 1666 0acf 1C       		.uleb128 0x1c
 1667 0ad0 5441534B 		.ascii "TASK_GROUP_1\0"
 1667      5F47524F 
 1667      55505F31 
 1667      00
 1668 0add 01       		.byte	0x1
 1669 0ade 7301     		.word	0x173
 1670 0ae0 1B050000 		.long	0x51b
 1671 0ae4 05       		.uleb128 0x5
 1672 0ae5 03       		.byte	0x3
 1673 0ae6 EC030000 		.long	_TASK_GROUP_1.1370
 1674 0aea 1C       		.uleb128 0x1c
 1675 0aeb 5441534B 		.ascii "TASK_GROUP_2\0"
GAS LISTING C:\Users\PRESID~1\AppData\Local\Temp\ccrN058O.s 			page 49


 1675      5F47524F 
 1675      55505F32 
 1675      00
 1676 0af8 01       		.byte	0x1
 1677 0af9 7401     		.word	0x174
 1678 0afb 1B050000 		.long	0x51b
 1679 0aff 05       		.uleb128 0x5
 1680 0b00 03       		.byte	0x3
 1681 0b01 F4030000 		.long	_TASK_GROUP_2.1371
 1682 0b05 1C       		.uleb128 0x1c
 1683 0b06 5441534B 		.ascii "TASK_GROUP_3\0"
 1683      5F47524F 
 1683      55505F33 
 1683      00
 1684 0b13 01       		.byte	0x1
 1685 0b14 7501     		.word	0x175
 1686 0b16 1B050000 		.long	0x51b
 1687 0b1a 05       		.uleb128 0x5
 1688 0b1b 03       		.byte	0x3
 1689 0b1c FC030000 		.long	_TASK_GROUP_3.1372
 1690 0b20 1C       		.uleb128 0x1c
 1691 0b21 5441534B 		.ascii "TASK_GROUP_4\0"
 1691      5F47524F 
 1691      55505F34 
 1691      00
 1692 0b2e 01       		.byte	0x1
 1693 0b2f 7601     		.word	0x176
 1694 0b31 1B050000 		.long	0x51b
 1695 0b35 05       		.uleb128 0x5
 1696 0b36 03       		.byte	0x3
 1697 0b37 04040000 		.long	_TASK_GROUP_4.1373
 1698 0b3b 1C       		.uleb128 0x1c
 1699 0b3c 5441534B 		.ascii "TASK_GROUP_5\0"
 1699      5F47524F 
 1699      55505F35 
 1699      00
 1700 0b49 01       		.byte	0x1
 1701 0b4a 7701     		.word	0x177
 1702 0b4c 1B050000 		.long	0x51b
 1703 0b50 05       		.uleb128 0x5
 1704 0b51 03       		.byte	0x3
 1705 0b52 0C040000 		.long	_TASK_GROUP_5.1374
 1706 0b56 19       		.uleb128 0x19
 1707 0b57 05000000 		.secrel32	LASF2
 1708 0b5b 01       		.byte	0x1
 1709 0b5c 7801     		.word	0x178
 1710 0b5e 6F080000 		.long	0x86f
 1711 0b62 02       		.uleb128 0x2
 1712 0b63 91       		.byte	0x91
 1713 0b64 6C       		.sleb128 -20
 1714 0b65 00       		.byte	0
 1715 0b66 1D       		.uleb128 0x1d
 1716 0b67 4F535F54 		.ascii "OS_TaskScheduler\0"
 1716      61736B53 
 1716      63686564 
 1716      756C6572 
 1716      00
GAS LISTING C:\Users\PRESID~1\AppData\Local\Temp\ccrN058O.s 			page 50


 1717 0b78 01       		.byte	0x1
 1718 0b79 C701     		.word	0x1c7
 1719 0b7b 6F080000 		.long	0x86f
 1720 0b7f 7B050000 		.long	LFB12
 1721 0b83 0E020000 		.long	LFE12-LFB12
 1722 0b87 01       		.uleb128 0x1
 1723 0b88 9C       		.byte	0x9c
 1724 0b89 1C0C0000 		.long	0xc1c
 1725 0b8d 19       		.uleb128 0x19
 1726 0b8e 00000000 		.secrel32	LASF1
 1727 0b92 01       		.byte	0x1
 1728 0b93 C901     		.word	0x1c9
 1729 0b95 6F080000 		.long	0x86f
 1730 0b99 05       		.uleb128 0x5
 1731 0b9a 03       		.byte	0x3
 1732 0b9b 08060000 		.long	_task.1379
 1733 0b9f 1C       		.uleb128 0x1c
 1734 0ba0 57696E6E 		.ascii "Winner_prio\0"
 1734      65725F70 
 1734      72696F00 
 1735 0bac 01       		.byte	0x1
 1736 0bad CA01     		.word	0x1ca
 1737 0baf 95000000 		.long	0x95
 1738 0bb3 05       		.uleb128 0x5
 1739 0bb4 03       		.byte	0x3
 1740 0bb5 0C060000 		.long	_Winner_prio.1380
 1741 0bb9 1C       		.uleb128 0x1c
 1742 0bba 57696E6E 		.ascii "Winner_task\0"
 1742      65725F74 
 1742      61736B00 
 1743 0bc6 01       		.byte	0x1
 1744 0bc7 CB01     		.word	0x1cb
 1745 0bc9 6F080000 		.long	0x86f
 1746 0bcd 02       		.uleb128 0x2
 1747 0bce 91       		.byte	0x91
 1748 0bcf 6C       		.sleb128 -20
 1749 0bd0 1C       		.uleb128 0x1c
 1750 0bd1 6C696E6B 		.ascii "link_list_member\0"
 1750      5F6C6973 
 1750      745F6D65 
 1750      6D626572 
 1750      00
 1751 0be2 01       		.byte	0x1
 1752 0be3 CC01     		.word	0x1cc
 1753 0be5 1C0C0000 		.long	0xc1c
 1754 0be9 05       		.uleb128 0x5
 1755 0bea 03       		.byte	0x3
 1756 0beb 04060000 		.long	_link_list_member.1382
 1757 0bef 1C       		.uleb128 0x1c
 1758 0bf0 656C656D 		.ascii "element_nr\0"
 1758      656E745F 
 1758      6E7200
 1759 0bfb 01       		.byte	0x1
 1760 0bfc CD01     		.word	0x1cd
 1761 0bfe 95000000 		.long	0x95
 1762 0c02 02       		.uleb128 0x2
 1763 0c03 91       		.byte	0x91
GAS LISTING C:\Users\PRESID~1\AppData\Local\Temp\ccrN058O.s 			page 51


 1764 0c04 6B       		.sleb128 -21
 1765 0c05 1C       		.uleb128 0x1c
 1766 0c06 64656C74 		.ascii "delta_time\0"
 1766      615F7469 
 1766      6D6500
 1767 0c11 01       		.byte	0x1
 1768 0c12 CF01     		.word	0x1cf
 1769 0c14 CD070000 		.long	0x7cd
 1770 0c18 02       		.uleb128 0x2
 1771 0c19 91       		.byte	0x91
 1772 0c1a 64       		.sleb128 -28
 1773 0c1b 00       		.byte	0
 1774 0c1c 06       		.uleb128 0x6
 1775 0c1d 04       		.byte	0x4
 1776 0c1e F8070000 		.long	0x7f8
 1777 0c22 1E       		.uleb128 0x1e
 1778 0c23 4953525F 		.ascii "ISR_TASK_DISPATCH_C0\0"
 1778      5441534B 
 1778      5F444953 
 1778      50415443 
 1778      485F4330 
 1779 0c38 01       		.byte	0x1
 1780 0c39 3402     		.word	0x234
 1781 0c3b 89070000 		.long	LFB13
 1782 0c3f 0D000000 		.long	LFE13-LFB13
 1783 0c43 01       		.uleb128 0x1
 1784 0c44 9C       		.byte	0x9c
 1785 0c45 1F       		.uleb128 0x1f
 1786 0c46 95000000 		.long	0x95
 1787 0c4a 5B0C0000 		.long	0xc5b
 1788 0c4e 20       		.uleb128 0x20
 1789 0c4f 5B0C0000 		.long	0xc5b
 1790 0c53 04       		.byte	0x4
 1791 0c54 20       		.uleb128 0x20
 1792 0c55 5B0C0000 		.long	0xc5b
 1793 0c59 C7       		.byte	0xc7
 1794 0c5a 00       		.byte	0
 1795 0c5b 03       		.uleb128 0x3
 1796 0c5c 04       		.byte	0x4
 1797 0c5d 07       		.byte	0x7
 1798 0c5e 73697A65 		.ascii "sizetype\0"
 1798      74797065 
 1798      00
 1799 0c67 14       		.uleb128 0x14
 1800 0c68 5441534B 		.ascii "TASK_STACK\0"
 1800      5F535441 
 1800      434B00
 1801 0c73 01       		.byte	0x1
 1802 0c74 16       		.byte	0x16
 1803 0c75 450C0000 		.long	0xc45
 1804 0c79 05       		.uleb128 0x5
 1805 0c7a 03       		.byte	0x3
 1806 0c7b 00000000 		.long	_TASK_STACK
 1807 0c7f 14       		.uleb128 0x14
 1808 0c80 4C415354 		.ascii "LAST_CURRENT_TIME\0"
 1808      5F435552 
 1808      52454E54 
GAS LISTING C:\Users\PRESID~1\AppData\Local\Temp\ccrN058O.s 			page 52


 1808      5F54494D 
 1808      4500
 1809 0c92 01       		.byte	0x1
 1810 0c93 17       		.byte	0x17
 1811 0c94 CD070000 		.long	0x7cd
 1812 0c98 05       		.uleb128 0x5
 1813 0c99 03       		.byte	0x3
 1814 0c9a E8030000 		.long	_LAST_CURRENT_TIME
 1815 0c9e 1F       		.uleb128 0x1f
 1816 0c9f 95000000 		.long	0x95
 1817 0ca3 B40C0000 		.long	0xcb4
 1818 0ca7 20       		.uleb128 0x20
 1819 0ca8 5B0C0000 		.long	0xc5b
 1820 0cac 00       		.byte	0
 1821 0cad 20       		.uleb128 0x20
 1822 0cae 5B0C0000 		.long	0xc5b
 1823 0cb2 FF       		.byte	0xff
 1824 0cb3 00       		.byte	0
 1825 0cb4 21       		.uleb128 0x21
 1826 0cb5 4F535F53 		.ascii "OS_STACK\0"
 1826      5441434B 
 1826      00
 1827 0cbe 08       		.byte	0x8
 1828 0cbf 0D       		.byte	0xd
 1829 0cc0 9E0C0000 		.long	0xc9e
 1830 0cc4 00       		.byte	0
 1831              		.section	.debug_abbrev,"dr"
 1832              	Ldebug_abbrev0:
 1833 0000 01       		.uleb128 0x1
 1834 0001 11       		.uleb128 0x11
 1835 0002 01       		.byte	0x1
 1836 0003 25       		.uleb128 0x25
 1837 0004 08       		.uleb128 0x8
 1838 0005 13       		.uleb128 0x13
 1839 0006 0B       		.uleb128 0xb
 1840 0007 03       		.uleb128 0x3
 1841 0008 08       		.uleb128 0x8
 1842 0009 11       		.uleb128 0x11
 1843 000a 01       		.uleb128 0x1
 1844 000b 12       		.uleb128 0x12
 1845 000c 06       		.uleb128 0x6
 1846 000d 10       		.uleb128 0x10
 1847 000e 17       		.uleb128 0x17
 1848 000f 9942     		.uleb128 0x2119
 1849 0011 17       		.uleb128 0x17
 1850 0012 00       		.byte	0
 1851 0013 00       		.byte	0
 1852 0014 02       		.uleb128 0x2
 1853 0015 16       		.uleb128 0x16
 1854 0016 00       		.byte	0
 1855 0017 03       		.uleb128 0x3
 1856 0018 08       		.uleb128 0x8
 1857 0019 3A       		.uleb128 0x3a
 1858 001a 0B       		.uleb128 0xb
 1859 001b 3B       		.uleb128 0x3b
 1860 001c 0B       		.uleb128 0xb
 1861 001d 49       		.uleb128 0x49
GAS LISTING C:\Users\PRESID~1\AppData\Local\Temp\ccrN058O.s 			page 53


 1862 001e 13       		.uleb128 0x13
 1863 001f 00       		.byte	0
 1864 0020 00       		.byte	0
 1865 0021 03       		.uleb128 0x3
 1866 0022 24       		.uleb128 0x24
 1867 0023 00       		.byte	0
 1868 0024 0B       		.uleb128 0xb
 1869 0025 0B       		.uleb128 0xb
 1870 0026 3E       		.uleb128 0x3e
 1871 0027 0B       		.uleb128 0xb
 1872 0028 03       		.uleb128 0x3
 1873 0029 08       		.uleb128 0x8
 1874 002a 00       		.byte	0
 1875 002b 00       		.byte	0
 1876 002c 04       		.uleb128 0x4
 1877 002d 04       		.uleb128 0x4
 1878 002e 01       		.byte	0x1
 1879 002f 03       		.uleb128 0x3
 1880 0030 08       		.uleb128 0x8
 1881 0031 0B       		.uleb128 0xb
 1882 0032 0B       		.uleb128 0xb
 1883 0033 3A       		.uleb128 0x3a
 1884 0034 0B       		.uleb128 0xb
 1885 0035 3B       		.uleb128 0x3b
 1886 0036 0B       		.uleb128 0xb
 1887 0037 01       		.uleb128 0x1
 1888 0038 13       		.uleb128 0x13
 1889 0039 00       		.byte	0
 1890 003a 00       		.byte	0
 1891 003b 05       		.uleb128 0x5
 1892 003c 28       		.uleb128 0x28
 1893 003d 00       		.byte	0
 1894 003e 03       		.uleb128 0x3
 1895 003f 08       		.uleb128 0x8
 1896 0040 1C       		.uleb128 0x1c
 1897 0041 0D       		.uleb128 0xd
 1898 0042 00       		.byte	0
 1899 0043 00       		.byte	0
 1900 0044 06       		.uleb128 0x6
 1901 0045 0F       		.uleb128 0xf
 1902 0046 00       		.byte	0
 1903 0047 0B       		.uleb128 0xb
 1904 0048 0B       		.uleb128 0xb
 1905 0049 49       		.uleb128 0x49
 1906 004a 13       		.uleb128 0x13
 1907 004b 00       		.byte	0
 1908 004c 00       		.byte	0
 1909 004d 07       		.uleb128 0x7
 1910 004e 15       		.uleb128 0x15
 1911 004f 01       		.byte	0x1
 1912 0050 27       		.uleb128 0x27
 1913 0051 19       		.uleb128 0x19
 1914 0052 01       		.uleb128 0x1
 1915 0053 13       		.uleb128 0x13
 1916 0054 00       		.byte	0
 1917 0055 00       		.byte	0
 1918 0056 08       		.uleb128 0x8
GAS LISTING C:\Users\PRESID~1\AppData\Local\Temp\ccrN058O.s 			page 54


 1919 0057 05       		.uleb128 0x5
 1920 0058 00       		.byte	0
 1921 0059 49       		.uleb128 0x49
 1922 005a 13       		.uleb128 0x13
 1923 005b 00       		.byte	0
 1924 005c 00       		.byte	0
 1925 005d 09       		.uleb128 0x9
 1926 005e 0F       		.uleb128 0xf
 1927 005f 00       		.byte	0
 1928 0060 0B       		.uleb128 0xb
 1929 0061 0B       		.uleb128 0xb
 1930 0062 00       		.byte	0
 1931 0063 00       		.byte	0
 1932 0064 0A       		.uleb128 0xa
 1933 0065 15       		.uleb128 0x15
 1934 0066 01       		.byte	0x1
 1935 0067 27       		.uleb128 0x27
 1936 0068 19       		.uleb128 0x19
 1937 0069 49       		.uleb128 0x49
 1938 006a 13       		.uleb128 0x13
 1939 006b 01       		.uleb128 0x1
 1940 006c 13       		.uleb128 0x13
 1941 006d 00       		.byte	0
 1942 006e 00       		.byte	0
 1943 006f 0B       		.uleb128 0xb
 1944 0070 13       		.uleb128 0x13
 1945 0071 01       		.byte	0x1
 1946 0072 03       		.uleb128 0x3
 1947 0073 08       		.uleb128 0x8
 1948 0074 0B       		.uleb128 0xb
 1949 0075 0B       		.uleb128 0xb
 1950 0076 3A       		.uleb128 0x3a
 1951 0077 0B       		.uleb128 0xb
 1952 0078 3B       		.uleb128 0x3b
 1953 0079 0B       		.uleb128 0xb
 1954 007a 01       		.uleb128 0x1
 1955 007b 13       		.uleb128 0x13
 1956 007c 00       		.byte	0
 1957 007d 00       		.byte	0
 1958 007e 0C       		.uleb128 0xc
 1959 007f 0D       		.uleb128 0xd
 1960 0080 00       		.byte	0
 1961 0081 03       		.uleb128 0x3
 1962 0082 0E       		.uleb128 0xe
 1963 0083 3A       		.uleb128 0x3a
 1964 0084 0B       		.uleb128 0xb
 1965 0085 3B       		.uleb128 0x3b
 1966 0086 0B       		.uleb128 0xb
 1967 0087 49       		.uleb128 0x49
 1968 0088 13       		.uleb128 0x13
 1969 0089 38       		.uleb128 0x38
 1970 008a 0B       		.uleb128 0xb
 1971 008b 00       		.byte	0
 1972 008c 00       		.byte	0
 1973 008d 0D       		.uleb128 0xd
 1974 008e 0D       		.uleb128 0xd
 1975 008f 00       		.byte	0
GAS LISTING C:\Users\PRESID~1\AppData\Local\Temp\ccrN058O.s 			page 55


 1976 0090 03       		.uleb128 0x3
 1977 0091 08       		.uleb128 0x8
 1978 0092 3A       		.uleb128 0x3a
 1979 0093 0B       		.uleb128 0xb
 1980 0094 3B       		.uleb128 0x3b
 1981 0095 0B       		.uleb128 0xb
 1982 0096 49       		.uleb128 0x49
 1983 0097 13       		.uleb128 0x13
 1984 0098 38       		.uleb128 0x38
 1985 0099 0B       		.uleb128 0xb
 1986 009a 00       		.byte	0
 1987 009b 00       		.byte	0
 1988 009c 0E       		.uleb128 0xe
 1989 009d 0D       		.uleb128 0xd
 1990 009e 00       		.byte	0
 1991 009f 03       		.uleb128 0x3
 1992 00a0 08       		.uleb128 0x8
 1993 00a1 3A       		.uleb128 0x3a
 1994 00a2 0B       		.uleb128 0xb
 1995 00a3 3B       		.uleb128 0x3b
 1996 00a4 0B       		.uleb128 0xb
 1997 00a5 49       		.uleb128 0x49
 1998 00a6 13       		.uleb128 0x13
 1999 00a7 0B       		.uleb128 0xb
 2000 00a8 0B       		.uleb128 0xb
 2001 00a9 0D       		.uleb128 0xd
 2002 00aa 0B       		.uleb128 0xb
 2003 00ab 0C       		.uleb128 0xc
 2004 00ac 0B       		.uleb128 0xb
 2005 00ad 38       		.uleb128 0x38
 2006 00ae 0B       		.uleb128 0xb
 2007 00af 00       		.byte	0
 2008 00b0 00       		.byte	0
 2009 00b1 0F       		.uleb128 0xf
 2010 00b2 2E       		.uleb128 0x2e
 2011 00b3 00       		.byte	0
 2012 00b4 3F       		.uleb128 0x3f
 2013 00b5 19       		.uleb128 0x19
 2014 00b6 03       		.uleb128 0x3
 2015 00b7 08       		.uleb128 0x8
 2016 00b8 3A       		.uleb128 0x3a
 2017 00b9 0B       		.uleb128 0xb
 2018 00ba 3B       		.uleb128 0x3b
 2019 00bb 0B       		.uleb128 0xb
 2020 00bc 27       		.uleb128 0x27
 2021 00bd 19       		.uleb128 0x19
 2022 00be 11       		.uleb128 0x11
 2023 00bf 01       		.uleb128 0x1
 2024 00c0 12       		.uleb128 0x12
 2025 00c1 06       		.uleb128 0x6
 2026 00c2 40       		.uleb128 0x40
 2027 00c3 18       		.uleb128 0x18
 2028 00c4 9742     		.uleb128 0x2117
 2029 00c6 19       		.uleb128 0x19
 2030 00c7 00       		.byte	0
 2031 00c8 00       		.byte	0
 2032 00c9 10       		.uleb128 0x10
GAS LISTING C:\Users\PRESID~1\AppData\Local\Temp\ccrN058O.s 			page 56


 2033 00ca 2E       		.uleb128 0x2e
 2034 00cb 01       		.byte	0x1
 2035 00cc 3F       		.uleb128 0x3f
 2036 00cd 19       		.uleb128 0x19
 2037 00ce 03       		.uleb128 0x3
 2038 00cf 08       		.uleb128 0x8
 2039 00d0 3A       		.uleb128 0x3a
 2040 00d1 0B       		.uleb128 0xb
 2041 00d2 3B       		.uleb128 0x3b
 2042 00d3 0B       		.uleb128 0xb
 2043 00d4 27       		.uleb128 0x27
 2044 00d5 19       		.uleb128 0x19
 2045 00d6 11       		.uleb128 0x11
 2046 00d7 01       		.uleb128 0x1
 2047 00d8 12       		.uleb128 0x12
 2048 00d9 06       		.uleb128 0x6
 2049 00da 40       		.uleb128 0x40
 2050 00db 18       		.uleb128 0x18
 2051 00dc 9642     		.uleb128 0x2116
 2052 00de 19       		.uleb128 0x19
 2053 00df 01       		.uleb128 0x1
 2054 00e0 13       		.uleb128 0x13
 2055 00e1 00       		.byte	0
 2056 00e2 00       		.byte	0
 2057 00e3 11       		.uleb128 0x11
 2058 00e4 05       		.uleb128 0x5
 2059 00e5 00       		.byte	0
 2060 00e6 03       		.uleb128 0x3
 2061 00e7 0E       		.uleb128 0xe
 2062 00e8 3A       		.uleb128 0x3a
 2063 00e9 0B       		.uleb128 0xb
 2064 00ea 3B       		.uleb128 0x3b
 2065 00eb 0B       		.uleb128 0xb
 2066 00ec 49       		.uleb128 0x49
 2067 00ed 13       		.uleb128 0x13
 2068 00ee 02       		.uleb128 0x2
 2069 00ef 18       		.uleb128 0x18
 2070 00f0 00       		.byte	0
 2071 00f1 00       		.byte	0
 2072 00f2 12       		.uleb128 0x12
 2073 00f3 05       		.uleb128 0x5
 2074 00f4 00       		.byte	0
 2075 00f5 03       		.uleb128 0x3
 2076 00f6 08       		.uleb128 0x8
 2077 00f7 3A       		.uleb128 0x3a
 2078 00f8 0B       		.uleb128 0xb
 2079 00f9 3B       		.uleb128 0x3b
 2080 00fa 0B       		.uleb128 0xb
 2081 00fb 49       		.uleb128 0x49
 2082 00fc 13       		.uleb128 0x13
 2083 00fd 02       		.uleb128 0x2
 2084 00fe 18       		.uleb128 0x18
 2085 00ff 00       		.byte	0
 2086 0100 00       		.byte	0
 2087 0101 13       		.uleb128 0x13
 2088 0102 2E       		.uleb128 0x2e
 2089 0103 01       		.byte	0x1
GAS LISTING C:\Users\PRESID~1\AppData\Local\Temp\ccrN058O.s 			page 57


 2090 0104 3F       		.uleb128 0x3f
 2091 0105 19       		.uleb128 0x19
 2092 0106 03       		.uleb128 0x3
 2093 0107 08       		.uleb128 0x8
 2094 0108 3A       		.uleb128 0x3a
 2095 0109 0B       		.uleb128 0xb
 2096 010a 3B       		.uleb128 0x3b
 2097 010b 0B       		.uleb128 0xb
 2098 010c 27       		.uleb128 0x27
 2099 010d 19       		.uleb128 0x19
 2100 010e 49       		.uleb128 0x49
 2101 010f 13       		.uleb128 0x13
 2102 0110 11       		.uleb128 0x11
 2103 0111 01       		.uleb128 0x1
 2104 0112 12       		.uleb128 0x12
 2105 0113 06       		.uleb128 0x6
 2106 0114 40       		.uleb128 0x40
 2107 0115 18       		.uleb128 0x18
 2108 0116 9642     		.uleb128 0x2116
 2109 0118 19       		.uleb128 0x19
 2110 0119 01       		.uleb128 0x1
 2111 011a 13       		.uleb128 0x13
 2112 011b 00       		.byte	0
 2113 011c 00       		.byte	0
 2114 011d 14       		.uleb128 0x14
 2115 011e 34       		.uleb128 0x34
 2116 011f 00       		.byte	0
 2117 0120 03       		.uleb128 0x3
 2118 0121 08       		.uleb128 0x8
 2119 0122 3A       		.uleb128 0x3a
 2120 0123 0B       		.uleb128 0xb
 2121 0124 3B       		.uleb128 0x3b
 2122 0125 0B       		.uleb128 0xb
 2123 0126 49       		.uleb128 0x49
 2124 0127 13       		.uleb128 0x13
 2125 0128 02       		.uleb128 0x2
 2126 0129 18       		.uleb128 0x18
 2127 012a 00       		.byte	0
 2128 012b 00       		.byte	0
 2129 012c 15       		.uleb128 0x15
 2130 012d 34       		.uleb128 0x34
 2131 012e 00       		.byte	0
 2132 012f 03       		.uleb128 0x3
 2133 0130 0E       		.uleb128 0xe
 2134 0131 3A       		.uleb128 0x3a
 2135 0132 0B       		.uleb128 0xb
 2136 0133 3B       		.uleb128 0x3b
 2137 0134 0B       		.uleb128 0xb
 2138 0135 49       		.uleb128 0x49
 2139 0136 13       		.uleb128 0x13
 2140 0137 02       		.uleb128 0x2
 2141 0138 18       		.uleb128 0x18
 2142 0139 00       		.byte	0
 2143 013a 00       		.byte	0
 2144 013b 16       		.uleb128 0x16
 2145 013c 2E       		.uleb128 0x2e
 2146 013d 01       		.byte	0x1
GAS LISTING C:\Users\PRESID~1\AppData\Local\Temp\ccrN058O.s 			page 58


 2147 013e 03       		.uleb128 0x3
 2148 013f 08       		.uleb128 0x8
 2149 0140 3A       		.uleb128 0x3a
 2150 0141 0B       		.uleb128 0xb
 2151 0142 3B       		.uleb128 0x3b
 2152 0143 0B       		.uleb128 0xb
 2153 0144 27       		.uleb128 0x27
 2154 0145 19       		.uleb128 0x19
 2155 0146 11       		.uleb128 0x11
 2156 0147 01       		.uleb128 0x1
 2157 0148 12       		.uleb128 0x12
 2158 0149 06       		.uleb128 0x6
 2159 014a 40       		.uleb128 0x40
 2160 014b 18       		.uleb128 0x18
 2161 014c 9642     		.uleb128 0x2116
 2162 014e 19       		.uleb128 0x19
 2163 014f 01       		.uleb128 0x1
 2164 0150 13       		.uleb128 0x13
 2165 0151 00       		.byte	0
 2166 0152 00       		.byte	0
 2167 0153 17       		.uleb128 0x17
 2168 0154 2E       		.uleb128 0x2e
 2169 0155 01       		.byte	0x1
 2170 0156 3F       		.uleb128 0x3f
 2171 0157 19       		.uleb128 0x19
 2172 0158 03       		.uleb128 0x3
 2173 0159 08       		.uleb128 0x8
 2174 015a 3A       		.uleb128 0x3a
 2175 015b 0B       		.uleb128 0xb
 2176 015c 3B       		.uleb128 0x3b
 2177 015d 05       		.uleb128 0x5
 2178 015e 27       		.uleb128 0x27
 2179 015f 19       		.uleb128 0x19
 2180 0160 11       		.uleb128 0x11
 2181 0161 01       		.uleb128 0x1
 2182 0162 12       		.uleb128 0x12
 2183 0163 06       		.uleb128 0x6
 2184 0164 40       		.uleb128 0x40
 2185 0165 18       		.uleb128 0x18
 2186 0166 9642     		.uleb128 0x2116
 2187 0168 19       		.uleb128 0x19
 2188 0169 01       		.uleb128 0x1
 2189 016a 13       		.uleb128 0x13
 2190 016b 00       		.byte	0
 2191 016c 00       		.byte	0
 2192 016d 18       		.uleb128 0x18
 2193 016e 05       		.uleb128 0x5
 2194 016f 00       		.byte	0
 2195 0170 03       		.uleb128 0x3
 2196 0171 0E       		.uleb128 0xe
 2197 0172 3A       		.uleb128 0x3a
 2198 0173 0B       		.uleb128 0xb
 2199 0174 3B       		.uleb128 0x3b
 2200 0175 05       		.uleb128 0x5
 2201 0176 49       		.uleb128 0x49
 2202 0177 13       		.uleb128 0x13
 2203 0178 02       		.uleb128 0x2
GAS LISTING C:\Users\PRESID~1\AppData\Local\Temp\ccrN058O.s 			page 59


 2204 0179 18       		.uleb128 0x18
 2205 017a 00       		.byte	0
 2206 017b 00       		.byte	0
 2207 017c 19       		.uleb128 0x19
 2208 017d 34       		.uleb128 0x34
 2209 017e 00       		.byte	0
 2210 017f 03       		.uleb128 0x3
 2211 0180 0E       		.uleb128 0xe
 2212 0181 3A       		.uleb128 0x3a
 2213 0182 0B       		.uleb128 0xb
 2214 0183 3B       		.uleb128 0x3b
 2215 0184 05       		.uleb128 0x5
 2216 0185 49       		.uleb128 0x49
 2217 0186 13       		.uleb128 0x13
 2218 0187 02       		.uleb128 0x2
 2219 0188 18       		.uleb128 0x18
 2220 0189 00       		.byte	0
 2221 018a 00       		.byte	0
 2222 018b 1A       		.uleb128 0x1a
 2223 018c 2E       		.uleb128 0x2e
 2224 018d 01       		.byte	0x1
 2225 018e 03       		.uleb128 0x3
 2226 018f 08       		.uleb128 0x8
 2227 0190 3A       		.uleb128 0x3a
 2228 0191 0B       		.uleb128 0xb
 2229 0192 3B       		.uleb128 0x3b
 2230 0193 05       		.uleb128 0x5
 2231 0194 27       		.uleb128 0x27
 2232 0195 19       		.uleb128 0x19
 2233 0196 11       		.uleb128 0x11
 2234 0197 01       		.uleb128 0x1
 2235 0198 12       		.uleb128 0x12
 2236 0199 06       		.uleb128 0x6
 2237 019a 40       		.uleb128 0x40
 2238 019b 18       		.uleb128 0x18
 2239 019c 9742     		.uleb128 0x2117
 2240 019e 19       		.uleb128 0x19
 2241 019f 01       		.uleb128 0x1
 2242 01a0 13       		.uleb128 0x13
 2243 01a1 00       		.byte	0
 2244 01a2 00       		.byte	0
 2245 01a3 1B       		.uleb128 0x1b
 2246 01a4 2E       		.uleb128 0x2e
 2247 01a5 01       		.byte	0x1
 2248 01a6 03       		.uleb128 0x3
 2249 01a7 08       		.uleb128 0x8
 2250 01a8 3A       		.uleb128 0x3a
 2251 01a9 0B       		.uleb128 0xb
 2252 01aa 3B       		.uleb128 0x3b
 2253 01ab 05       		.uleb128 0x5
 2254 01ac 27       		.uleb128 0x27
 2255 01ad 19       		.uleb128 0x19
 2256 01ae 11       		.uleb128 0x11
 2257 01af 01       		.uleb128 0x1
 2258 01b0 12       		.uleb128 0x12
 2259 01b1 06       		.uleb128 0x6
 2260 01b2 40       		.uleb128 0x40
GAS LISTING C:\Users\PRESID~1\AppData\Local\Temp\ccrN058O.s 			page 60


 2261 01b3 18       		.uleb128 0x18
 2262 01b4 9642     		.uleb128 0x2116
 2263 01b6 19       		.uleb128 0x19
 2264 01b7 01       		.uleb128 0x1
 2265 01b8 13       		.uleb128 0x13
 2266 01b9 00       		.byte	0
 2267 01ba 00       		.byte	0
 2268 01bb 1C       		.uleb128 0x1c
 2269 01bc 34       		.uleb128 0x34
 2270 01bd 00       		.byte	0
 2271 01be 03       		.uleb128 0x3
 2272 01bf 08       		.uleb128 0x8
 2273 01c0 3A       		.uleb128 0x3a
 2274 01c1 0B       		.uleb128 0xb
 2275 01c2 3B       		.uleb128 0x3b
 2276 01c3 05       		.uleb128 0x5
 2277 01c4 49       		.uleb128 0x49
 2278 01c5 13       		.uleb128 0x13
 2279 01c6 02       		.uleb128 0x2
 2280 01c7 18       		.uleb128 0x18
 2281 01c8 00       		.byte	0
 2282 01c9 00       		.byte	0
 2283 01ca 1D       		.uleb128 0x1d
 2284 01cb 2E       		.uleb128 0x2e
 2285 01cc 01       		.byte	0x1
 2286 01cd 03       		.uleb128 0x3
 2287 01ce 08       		.uleb128 0x8
 2288 01cf 3A       		.uleb128 0x3a
 2289 01d0 0B       		.uleb128 0xb
 2290 01d1 3B       		.uleb128 0x3b
 2291 01d2 05       		.uleb128 0x5
 2292 01d3 27       		.uleb128 0x27
 2293 01d4 19       		.uleb128 0x19
 2294 01d5 49       		.uleb128 0x49
 2295 01d6 13       		.uleb128 0x13
 2296 01d7 11       		.uleb128 0x11
 2297 01d8 01       		.uleb128 0x1
 2298 01d9 12       		.uleb128 0x12
 2299 01da 06       		.uleb128 0x6
 2300 01db 40       		.uleb128 0x40
 2301 01dc 18       		.uleb128 0x18
 2302 01dd 9642     		.uleb128 0x2116
 2303 01df 19       		.uleb128 0x19
 2304 01e0 01       		.uleb128 0x1
 2305 01e1 13       		.uleb128 0x13
 2306 01e2 00       		.byte	0
 2307 01e3 00       		.byte	0
 2308 01e4 1E       		.uleb128 0x1e
 2309 01e5 2E       		.uleb128 0x2e
 2310 01e6 00       		.byte	0
 2311 01e7 3F       		.uleb128 0x3f
 2312 01e8 19       		.uleb128 0x19
 2313 01e9 03       		.uleb128 0x3
 2314 01ea 08       		.uleb128 0x8
 2315 01eb 3A       		.uleb128 0x3a
 2316 01ec 0B       		.uleb128 0xb
 2317 01ed 3B       		.uleb128 0x3b
GAS LISTING C:\Users\PRESID~1\AppData\Local\Temp\ccrN058O.s 			page 61


 2318 01ee 05       		.uleb128 0x5
 2319 01ef 27       		.uleb128 0x27
 2320 01f0 19       		.uleb128 0x19
 2321 01f1 11       		.uleb128 0x11
 2322 01f2 01       		.uleb128 0x1
 2323 01f3 12       		.uleb128 0x12
 2324 01f4 06       		.uleb128 0x6
 2325 01f5 40       		.uleb128 0x40
 2326 01f6 18       		.uleb128 0x18
 2327 01f7 9642     		.uleb128 0x2116
 2328 01f9 19       		.uleb128 0x19
 2329 01fa 00       		.byte	0
 2330 01fb 00       		.byte	0
 2331 01fc 1F       		.uleb128 0x1f
 2332 01fd 01       		.uleb128 0x1
 2333 01fe 01       		.byte	0x1
 2334 01ff 49       		.uleb128 0x49
 2335 0200 13       		.uleb128 0x13
 2336 0201 01       		.uleb128 0x1
 2337 0202 13       		.uleb128 0x13
 2338 0203 00       		.byte	0
 2339 0204 00       		.byte	0
 2340 0205 20       		.uleb128 0x20
 2341 0206 21       		.uleb128 0x21
 2342 0207 00       		.byte	0
 2343 0208 49       		.uleb128 0x49
 2344 0209 13       		.uleb128 0x13
 2345 020a 2F       		.uleb128 0x2f
 2346 020b 0B       		.uleb128 0xb
 2347 020c 00       		.byte	0
 2348 020d 00       		.byte	0
 2349 020e 21       		.uleb128 0x21
 2350 020f 34       		.uleb128 0x34
 2351 0210 00       		.byte	0
 2352 0211 03       		.uleb128 0x3
 2353 0212 08       		.uleb128 0x8
 2354 0213 3A       		.uleb128 0x3a
 2355 0214 0B       		.uleb128 0xb
 2356 0215 3B       		.uleb128 0x3b
 2357 0216 0B       		.uleb128 0xb
 2358 0217 49       		.uleb128 0x49
 2359 0218 13       		.uleb128 0x13
 2360 0219 3F       		.uleb128 0x3f
 2361 021a 19       		.uleb128 0x19
 2362 021b 3C       		.uleb128 0x3c
 2363 021c 19       		.uleb128 0x19
 2364 021d 00       		.byte	0
 2365 021e 00       		.byte	0
 2366 021f 00       		.byte	0
 2367              		.section	.debug_aranges,"dr"
 2368 0000 1C000000 		.long	0x1c
 2369 0004 0200     		.word	0x2
 2370 0006 00000000 		.secrel32	Ldebug_info0
 2371 000a 04       		.byte	0x4
 2372 000b 00       		.byte	0
 2373 000c 0000     		.word	0
 2374 000e 0000     		.word	0
GAS LISTING C:\Users\PRESID~1\AppData\Local\Temp\ccrN058O.s 			page 62


 2375 0010 00000000 		.long	Ltext0
 2376 0014 96070000 		.long	Letext0-Ltext0
 2377 0018 00000000 		.long	0
 2378 001c 00000000 		.long	0
 2379              		.section	.debug_macro,"dr"
 2380              	Ldebug_macro0:
 2381 0000 0400     		.word	0x4
 2382 0002 02       		.byte	0x2
 2383 0003 00000000 		.secrel32	Ldebug_line0
 2384 0007 01       		.byte	0x1
 2385 0008 00       		.uleb128 0
 2386 0009 5F5F5354 		.ascii "__STDC__ 1\0"
 2386      44435F5F 
 2386      203100
 2387 0014 01       		.byte	0x1
 2388 0015 00       		.uleb128 0
 2389 0016 5F5F5354 		.ascii "__STDC_HOSTED__ 1\0"
 2389      44435F48 
 2389      4F535445 
 2389      445F5F20 
 2389      3100
 2390 0028 01       		.byte	0x1
 2391 0029 00       		.uleb128 0
 2392 002a 5F5F474E 		.ascii "__GNUC__ 4\0"
 2392      55435F5F 
 2392      203400
 2393 0035 01       		.byte	0x1
 2394 0036 00       		.uleb128 0
 2395 0037 5F5F474E 		.ascii "__GNUC_MINOR__ 9\0"
 2395      55435F4D 
 2395      494E4F52 
 2395      5F5F2039 
 2395      00
 2396 0048 01       		.byte	0x1
 2397 0049 00       		.uleb128 0
 2398 004a 5F5F474E 		.ascii "__GNUC_PATCHLEVEL__ 3\0"
 2398      55435F50 
 2398      41544348 
 2398      4C455645 
 2398      4C5F5F20 
 2399 0060 01       		.byte	0x1
 2400 0061 00       		.uleb128 0
 2401 0062 5F5F5645 		.ascii "__VERSION__ \"4.9.3\"\0"
 2401      5253494F 
 2401      4E5F5F20 
 2401      22342E39 
 2401      2E332200 
 2402 0076 01       		.byte	0x1
 2403 0077 00       		.uleb128 0
 2404 0078 5F5F4154 		.ascii "__ATOMIC_RELAXED 0\0"
 2404      4F4D4943 
 2404      5F52454C 
 2404      41584544 
 2404      203000
 2405 008b 01       		.byte	0x1
 2406 008c 00       		.uleb128 0
 2407 008d 5F5F4154 		.ascii "__ATOMIC_SEQ_CST 5\0"
GAS LISTING C:\Users\PRESID~1\AppData\Local\Temp\ccrN058O.s 			page 63


 2407      4F4D4943 
 2407      5F534551 
 2407      5F435354 
 2407      203500
 2408 00a0 01       		.byte	0x1
 2409 00a1 00       		.uleb128 0
 2410 00a2 5F5F4154 		.ascii "__ATOMIC_ACQUIRE 2\0"
 2410      4F4D4943 
 2410      5F414351 
 2410      55495245 
 2410      203200
 2411 00b5 01       		.byte	0x1
 2412 00b6 00       		.uleb128 0
 2413 00b7 5F5F4154 		.ascii "__ATOMIC_RELEASE 3\0"
 2413      4F4D4943 
 2413      5F52454C 
 2413      45415345 
 2413      203300
 2414 00ca 01       		.byte	0x1
 2415 00cb 00       		.uleb128 0
 2416 00cc 5F5F4154 		.ascii "__ATOMIC_ACQ_REL 4\0"
 2416      4F4D4943 
 2416      5F414351 
 2416      5F52454C 
 2416      203400
 2417 00df 01       		.byte	0x1
 2418 00e0 00       		.uleb128 0
 2419 00e1 5F5F4154 		.ascii "__ATOMIC_CONSUME 1\0"
 2419      4F4D4943 
 2419      5F434F4E 
 2419      53554D45 
 2419      203100
 2420 00f4 01       		.byte	0x1
 2421 00f5 00       		.uleb128 0
 2422 00f6 5F5F4649 		.ascii "__FINITE_MATH_ONLY__ 0\0"
 2422      4E495445 
 2422      5F4D4154 
 2422      485F4F4E 
 2422      4C595F5F 
 2423 010d 01       		.byte	0x1
 2424 010e 00       		.uleb128 0
 2425 010f 5F5F5349 		.ascii "__SIZEOF_INT__ 4\0"
 2425      5A454F46 
 2425      5F494E54 
 2425      5F5F2034 
 2425      00
 2426 0120 01       		.byte	0x1
 2427 0121 00       		.uleb128 0
 2428 0122 5F5F5349 		.ascii "__SIZEOF_LONG__ 4\0"
 2428      5A454F46 
 2428      5F4C4F4E 
 2428      475F5F20 
 2428      3400
 2429 0134 01       		.byte	0x1
 2430 0135 00       		.uleb128 0
 2431 0136 5F5F5349 		.ascii "__SIZEOF_LONG_LONG__ 8\0"
 2431      5A454F46 
GAS LISTING C:\Users\PRESID~1\AppData\Local\Temp\ccrN058O.s 			page 64


 2431      5F4C4F4E 
 2431      475F4C4F 
 2431      4E475F5F 
 2432 014d 01       		.byte	0x1
 2433 014e 00       		.uleb128 0
 2434 014f 5F5F5349 		.ascii "__SIZEOF_SHORT__ 2\0"
 2434      5A454F46 
 2434      5F53484F 
 2434      52545F5F 
 2434      203200
 2435 0162 01       		.byte	0x1
 2436 0163 00       		.uleb128 0
 2437 0164 5F5F5349 		.ascii "__SIZEOF_FLOAT__ 4\0"
 2437      5A454F46 
 2437      5F464C4F 
 2437      41545F5F 
 2437      203400
 2438 0177 01       		.byte	0x1
 2439 0178 00       		.uleb128 0
 2440 0179 5F5F5349 		.ascii "__SIZEOF_DOUBLE__ 8\0"
 2440      5A454F46 
 2440      5F444F55 
 2440      424C455F 
 2440      5F203800 
 2441 018d 01       		.byte	0x1
 2442 018e 00       		.uleb128 0
 2443 018f 5F5F5349 		.ascii "__SIZEOF_LONG_DOUBLE__ 12\0"
 2443      5A454F46 
 2443      5F4C4F4E 
 2443      475F444F 
 2443      55424C45 
 2444 01a9 01       		.byte	0x1
 2445 01aa 00       		.uleb128 0
 2446 01ab 5F5F5349 		.ascii "__SIZEOF_SIZE_T__ 4\0"
 2446      5A454F46 
 2446      5F53495A 
 2446      455F545F 
 2446      5F203400 
 2447 01bf 01       		.byte	0x1
 2448 01c0 00       		.uleb128 0
 2449 01c1 5F5F4348 		.ascii "__CHAR_BIT__ 8\0"
 2449      41525F42 
 2449      49545F5F 
 2449      203800
 2450 01d0 01       		.byte	0x1
 2451 01d1 00       		.uleb128 0
 2452 01d2 5F5F4249 		.ascii "__BIGGEST_ALIGNMENT__ 16\0"
 2452      47474553 
 2452      545F414C 
 2452      49474E4D 
 2452      454E545F 
 2453 01eb 01       		.byte	0x1
 2454 01ec 00       		.uleb128 0
 2455 01ed 5F5F4F52 		.ascii "__ORDER_LITTLE_ENDIAN__ 1234\0"
 2455      4445525F 
 2455      4C495454 
 2455      4C455F45 
GAS LISTING C:\Users\PRESID~1\AppData\Local\Temp\ccrN058O.s 			page 65


 2455      4E444941 
 2456 020a 01       		.byte	0x1
 2457 020b 00       		.uleb128 0
 2458 020c 5F5F4F52 		.ascii "__ORDER_BIG_ENDIAN__ 4321\0"
 2458      4445525F 
 2458      4249475F 
 2458      454E4449 
 2458      414E5F5F 
 2459 0226 01       		.byte	0x1
 2460 0227 00       		.uleb128 0
 2461 0228 5F5F4F52 		.ascii "__ORDER_PDP_ENDIAN__ 3412\0"
 2461      4445525F 
 2461      5044505F 
 2461      454E4449 
 2461      414E5F5F 
 2462 0242 01       		.byte	0x1
 2463 0243 00       		.uleb128 0
 2464 0244 5F5F4259 		.ascii "__BYTE_ORDER__ __ORDER_LITTLE_ENDIAN__\0"
 2464      54455F4F 
 2464      52444552 
 2464      5F5F205F 
 2464      5F4F5244 
 2465 026b 01       		.byte	0x1
 2466 026c 00       		.uleb128 0
 2467 026d 5F5F464C 		.ascii "__FLOAT_WORD_ORDER__ __ORDER_LITTLE_ENDIAN__\0"
 2467      4F41545F 
 2467      574F5244 
 2467      5F4F5244 
 2467      45525F5F 
 2468 029a 01       		.byte	0x1
 2469 029b 00       		.uleb128 0
 2470 029c 5F5F5349 		.ascii "__SIZEOF_POINTER__ 4\0"
 2470      5A454F46 
 2470      5F504F49 
 2470      4E544552 
 2470      5F5F2034 
 2471 02b1 01       		.byte	0x1
 2472 02b2 00       		.uleb128 0
 2473 02b3 5F5F5349 		.ascii "__SIZE_TYPE__ unsigned int\0"
 2473      5A455F54 
 2473      5950455F 
 2473      5F20756E 
 2473      7369676E 
 2474 02ce 01       		.byte	0x1
 2475 02cf 00       		.uleb128 0
 2476 02d0 5F5F5054 		.ascii "__PTRDIFF_TYPE__ int\0"
 2476      52444946 
 2476      465F5459 
 2476      50455F5F 
 2476      20696E74 
 2477 02e5 01       		.byte	0x1
 2478 02e6 00       		.uleb128 0
 2479 02e7 5F5F5743 		.ascii "__WCHAR_TYPE__ short unsigned int\0"
 2479      4841525F 
 2479      54595045 
 2479      5F5F2073 
 2479      686F7274 
GAS LISTING C:\Users\PRESID~1\AppData\Local\Temp\ccrN058O.s 			page 66


 2480 0309 01       		.byte	0x1
 2481 030a 00       		.uleb128 0
 2482 030b 5F5F5749 		.ascii "__WINT_TYPE__ short unsigned int\0"
 2482      4E545F54 
 2482      5950455F 
 2482      5F207368 
 2482      6F727420 
 2483 032c 01       		.byte	0x1
 2484 032d 00       		.uleb128 0
 2485 032e 5F5F494E 		.ascii "__INTMAX_TYPE__ long long int\0"
 2485      544D4158 
 2485      5F545950 
 2485      455F5F20 
 2485      6C6F6E67 
 2486 034c 01       		.byte	0x1
 2487 034d 00       		.uleb128 0
 2488 034e 5F5F5549 		.ascii "__UINTMAX_TYPE__ long long unsigned int\0"
 2488      4E544D41 
 2488      585F5459 
 2488      50455F5F 
 2488      206C6F6E 
 2489 0376 01       		.byte	0x1
 2490 0377 00       		.uleb128 0
 2491 0378 5F5F4348 		.ascii "__CHAR16_TYPE__ short unsigned int\0"
 2491      41523136 
 2491      5F545950 
 2491      455F5F20 
 2491      73686F72 
 2492 039b 01       		.byte	0x1
 2493 039c 00       		.uleb128 0
 2494 039d 5F5F4348 		.ascii "__CHAR32_TYPE__ unsigned int\0"
 2494      41523332 
 2494      5F545950 
 2494      455F5F20 
 2494      756E7369 
 2495 03ba 01       		.byte	0x1
 2496 03bb 00       		.uleb128 0
 2497 03bc 5F5F5349 		.ascii "__SIG_ATOMIC_TYPE__ int\0"
 2497      475F4154 
 2497      4F4D4943 
 2497      5F545950 
 2497      455F5F20 
 2498 03d4 01       		.byte	0x1
 2499 03d5 00       		.uleb128 0
 2500 03d6 5F5F494E 		.ascii "__INT8_TYPE__ signed char\0"
 2500      54385F54 
 2500      5950455F 
 2500      5F207369 
 2500      676E6564 
 2501 03f0 01       		.byte	0x1
 2502 03f1 00       		.uleb128 0
 2503 03f2 5F5F494E 		.ascii "__INT16_TYPE__ short int\0"
 2503      5431365F 
 2503      54595045 
 2503      5F5F2073 
 2503      686F7274 
 2504 040b 01       		.byte	0x1
GAS LISTING C:\Users\PRESID~1\AppData\Local\Temp\ccrN058O.s 			page 67


 2505 040c 00       		.uleb128 0
 2506 040d 5F5F494E 		.ascii "__INT32_TYPE__ int\0"
 2506      5433325F 
 2506      54595045 
 2506      5F5F2069 
 2506      6E7400
 2507 0420 01       		.byte	0x1
 2508 0421 00       		.uleb128 0
 2509 0422 5F5F494E 		.ascii "__INT64_TYPE__ long long int\0"
 2509      5436345F 
 2509      54595045 
 2509      5F5F206C 
 2509      6F6E6720 
 2510 043f 01       		.byte	0x1
 2511 0440 00       		.uleb128 0
 2512 0441 5F5F5549 		.ascii "__UINT8_TYPE__ unsigned char\0"
 2512      4E54385F 
 2512      54595045 
 2512      5F5F2075 
 2512      6E736967 
 2513 045e 01       		.byte	0x1
 2514 045f 00       		.uleb128 0
 2515 0460 5F5F5549 		.ascii "__UINT16_TYPE__ short unsigned int\0"
 2515      4E543136 
 2515      5F545950 
 2515      455F5F20 
 2515      73686F72 
 2516 0483 01       		.byte	0x1
 2517 0484 00       		.uleb128 0
 2518 0485 5F5F5549 		.ascii "__UINT32_TYPE__ unsigned int\0"
 2518      4E543332 
 2518      5F545950 
 2518      455F5F20 
 2518      756E7369 
 2519 04a2 01       		.byte	0x1
 2520 04a3 00       		.uleb128 0
 2521 04a4 5F5F5549 		.ascii "__UINT64_TYPE__ long long unsigned int\0"
 2521      4E543634 
 2521      5F545950 
 2521      455F5F20 
 2521      6C6F6E67 
 2522 04cb 01       		.byte	0x1
 2523 04cc 00       		.uleb128 0
 2524 04cd 5F5F494E 		.ascii "__INT_LEAST8_TYPE__ signed char\0"
 2524      545F4C45 
 2524      41535438 
 2524      5F545950 
 2524      455F5F20 
 2525 04ed 01       		.byte	0x1
 2526 04ee 00       		.uleb128 0
 2527 04ef 5F5F494E 		.ascii "__INT_LEAST16_TYPE__ short int\0"
 2527      545F4C45 
 2527      41535431 
 2527      365F5459 
 2527      50455F5F 
 2528 050e 01       		.byte	0x1
 2529 050f 00       		.uleb128 0
GAS LISTING C:\Users\PRESID~1\AppData\Local\Temp\ccrN058O.s 			page 68


 2530 0510 5F5F494E 		.ascii "__INT_LEAST32_TYPE__ int\0"
 2530      545F4C45 
 2530      41535433 
 2530      325F5459 
 2530      50455F5F 
 2531 0529 01       		.byte	0x1
 2532 052a 00       		.uleb128 0
 2533 052b 5F5F494E 		.ascii "__INT_LEAST64_TYPE__ long long int\0"
 2533      545F4C45 
 2533      41535436 
 2533      345F5459 
 2533      50455F5F 
 2534 054e 01       		.byte	0x1
 2535 054f 00       		.uleb128 0
 2536 0550 5F5F5549 		.ascii "__UINT_LEAST8_TYPE__ unsigned char\0"
 2536      4E545F4C 
 2536      45415354 
 2536      385F5459 
 2536      50455F5F 
 2537 0573 01       		.byte	0x1
 2538 0574 00       		.uleb128 0
 2539 0575 5F5F5549 		.ascii "__UINT_LEAST16_TYPE__ short unsigned int\0"
 2539      4E545F4C 
 2539      45415354 
 2539      31365F54 
 2539      5950455F 
 2540 059e 01       		.byte	0x1
 2541 059f 00       		.uleb128 0
 2542 05a0 5F5F5549 		.ascii "__UINT_LEAST32_TYPE__ unsigned int\0"
 2542      4E545F4C 
 2542      45415354 
 2542      33325F54 
 2542      5950455F 
 2543 05c3 01       		.byte	0x1
 2544 05c4 00       		.uleb128 0
 2545 05c5 5F5F5549 		.ascii "__UINT_LEAST64_TYPE__ long long unsigned int\0"
 2545      4E545F4C 
 2545      45415354 
 2545      36345F54 
 2545      5950455F 
 2546 05f2 01       		.byte	0x1
 2547 05f3 00       		.uleb128 0
 2548 05f4 5F5F494E 		.ascii "__INT_FAST8_TYPE__ signed char\0"
 2548      545F4641 
 2548      5354385F 
 2548      54595045 
 2548      5F5F2073 
 2549 0613 01       		.byte	0x1
 2550 0614 00       		.uleb128 0
 2551 0615 5F5F494E 		.ascii "__INT_FAST16_TYPE__ short int\0"
 2551      545F4641 
 2551      53543136 
 2551      5F545950 
 2551      455F5F20 
 2552 0633 01       		.byte	0x1
 2553 0634 00       		.uleb128 0
 2554 0635 5F5F494E 		.ascii "__INT_FAST32_TYPE__ int\0"
GAS LISTING C:\Users\PRESID~1\AppData\Local\Temp\ccrN058O.s 			page 69


 2554      545F4641 
 2554      53543332 
 2554      5F545950 
 2554      455F5F20 
 2555 064d 01       		.byte	0x1
 2556 064e 00       		.uleb128 0
 2557 064f 5F5F494E 		.ascii "__INT_FAST64_TYPE__ long long int\0"
 2557      545F4641 
 2557      53543634 
 2557      5F545950 
 2557      455F5F20 
 2558 0671 01       		.byte	0x1
 2559 0672 00       		.uleb128 0
 2560 0673 5F5F5549 		.ascii "__UINT_FAST8_TYPE__ unsigned char\0"
 2560      4E545F46 
 2560      41535438 
 2560      5F545950 
 2560      455F5F20 
 2561 0695 01       		.byte	0x1
 2562 0696 00       		.uleb128 0
 2563 0697 5F5F5549 		.ascii "__UINT_FAST16_TYPE__ short unsigned int\0"
 2563      4E545F46 
 2563      41535431 
 2563      365F5459 
 2563      50455F5F 
 2564 06bf 01       		.byte	0x1
 2565 06c0 00       		.uleb128 0
 2566 06c1 5F5F5549 		.ascii "__UINT_FAST32_TYPE__ unsigned int\0"
 2566      4E545F46 
 2566      41535433 
 2566      325F5459 
 2566      50455F5F 
 2567 06e3 01       		.byte	0x1
 2568 06e4 00       		.uleb128 0
 2569 06e5 5F5F5549 		.ascii "__UINT_FAST64_TYPE__ long long unsigned int\0"
 2569      4E545F46 
 2569      41535436 
 2569      345F5459 
 2569      50455F5F 
 2570 0711 01       		.byte	0x1
 2571 0712 00       		.uleb128 0
 2572 0713 5F5F494E 		.ascii "__INTPTR_TYPE__ int\0"
 2572      54505452 
 2572      5F545950 
 2572      455F5F20 
 2572      696E7400 
 2573 0727 01       		.byte	0x1
 2574 0728 00       		.uleb128 0
 2575 0729 5F5F5549 		.ascii "__UINTPTR_TYPE__ unsigned int\0"
 2575      4E545054 
 2575      525F5459 
 2575      50455F5F 
 2575      20756E73 
 2576 0747 01       		.byte	0x1
 2577 0748 00       		.uleb128 0
 2578 0749 5F5F6861 		.ascii "__has_include(STR) __has_include__(STR)\0"
 2578      735F696E 
GAS LISTING C:\Users\PRESID~1\AppData\Local\Temp\ccrN058O.s 			page 70


 2578      636C7564 
 2578      65285354 
 2578      5229205F 
 2579 0771 01       		.byte	0x1
 2580 0772 00       		.uleb128 0
 2581 0773 5F5F6861 		.ascii "__has_include_next(STR) __has_include_next__(STR)\0"
 2581      735F696E 
 2581      636C7564 
 2581      655F6E65 
 2581      78742853 
 2582 07a5 01       		.byte	0x1
 2583 07a6 00       		.uleb128 0
 2584 07a7 5F5F4758 		.ascii "__GXX_ABI_VERSION 1002\0"
 2584      585F4142 
 2584      495F5645 
 2584      5253494F 
 2584      4E203130 
 2585 07be 01       		.byte	0x1
 2586 07bf 00       		.uleb128 0
 2587 07c0 5F5F5343 		.ascii "__SCHAR_MAX__ 127\0"
 2587      4841525F 
 2587      4D41585F 
 2587      5F203132 
 2587      3700
 2588 07d2 01       		.byte	0x1
 2589 07d3 00       		.uleb128 0
 2590 07d4 5F5F5348 		.ascii "__SHRT_MAX__ 32767\0"
 2590      52545F4D 
 2590      41585F5F 
 2590      20333237 
 2590      363700
 2591 07e7 01       		.byte	0x1
 2592 07e8 00       		.uleb128 0
 2593 07e9 5F5F494E 		.ascii "__INT_MAX__ 2147483647\0"
 2593      545F4D41 
 2593      585F5F20 
 2593      32313437 
 2593      34383336 
 2594 0800 01       		.byte	0x1
 2595 0801 00       		.uleb128 0
 2596 0802 5F5F4C4F 		.ascii "__LONG_MAX__ 2147483647L\0"
 2596      4E475F4D 
 2596      41585F5F 
 2596      20323134 
 2596      37343833 
 2597 081b 01       		.byte	0x1
 2598 081c 00       		.uleb128 0
 2599 081d 5F5F4C4F 		.ascii "__LONG_LONG_MAX__ 9223372036854775807LL\0"
 2599      4E475F4C 
 2599      4F4E475F 
 2599      4D41585F 
 2599      5F203932 
 2600 0845 01       		.byte	0x1
 2601 0846 00       		.uleb128 0
 2602 0847 5F5F5743 		.ascii "__WCHAR_MAX__ 65535\0"
 2602      4841525F 
 2602      4D41585F 
GAS LISTING C:\Users\PRESID~1\AppData\Local\Temp\ccrN058O.s 			page 71


 2602      5F203635 
 2602      35333500 
 2603 085b 01       		.byte	0x1
 2604 085c 00       		.uleb128 0
 2605 085d 5F5F5743 		.ascii "__WCHAR_MIN__ 0\0"
 2605      4841525F 
 2605      4D494E5F 
 2605      5F203000 
 2606 086d 01       		.byte	0x1
 2607 086e 00       		.uleb128 0
 2608 086f 5F5F5749 		.ascii "__WINT_MAX__ 65535\0"
 2608      4E545F4D 
 2608      41585F5F 
 2608      20363535 
 2608      333500
 2609 0882 01       		.byte	0x1
 2610 0883 00       		.uleb128 0
 2611 0884 5F5F5749 		.ascii "__WINT_MIN__ 0\0"
 2611      4E545F4D 
 2611      494E5F5F 
 2611      203000
 2612 0893 01       		.byte	0x1
 2613 0894 00       		.uleb128 0
 2614 0895 5F5F5054 		.ascii "__PTRDIFF_MAX__ 2147483647\0"
 2614      52444946 
 2614      465F4D41 
 2614      585F5F20 
 2614      32313437 
 2615 08b0 01       		.byte	0x1
 2616 08b1 00       		.uleb128 0
 2617 08b2 5F5F5349 		.ascii "__SIZE_MAX__ 4294967295U\0"
 2617      5A455F4D 
 2617      41585F5F 
 2617      20343239 
 2617      34393637 
 2618 08cb 01       		.byte	0x1
 2619 08cc 00       		.uleb128 0
 2620 08cd 5F5F494E 		.ascii "__INTMAX_MAX__ 9223372036854775807LL\0"
 2620      544D4158 
 2620      5F4D4158 
 2620      5F5F2039 
 2620      32323333 
 2621 08f2 01       		.byte	0x1
 2622 08f3 00       		.uleb128 0
 2623 08f4 5F5F494E 		.ascii "__INTMAX_C(c) c ## LL\0"
 2623      544D4158 
 2623      5F432863 
 2623      29206320 
 2623      2323204C 
 2624 090a 01       		.byte	0x1
 2625 090b 00       		.uleb128 0
 2626 090c 5F5F5549 		.ascii "__UINTMAX_MAX__ 18446744073709551615ULL\0"
 2626      4E544D41 
 2626      585F4D41 
 2626      585F5F20 
 2626      31383434 
 2627 0934 01       		.byte	0x1
GAS LISTING C:\Users\PRESID~1\AppData\Local\Temp\ccrN058O.s 			page 72


 2628 0935 00       		.uleb128 0
 2629 0936 5F5F5549 		.ascii "__UINTMAX_C(c) c ## ULL\0"
 2629      4E544D41 
 2629      585F4328 
 2629      63292063 
 2629      20232320 
 2630 094e 01       		.byte	0x1
 2631 094f 00       		.uleb128 0
 2632 0950 5F5F5349 		.ascii "__SIG_ATOMIC_MAX__ 2147483647\0"
 2632      475F4154 
 2632      4F4D4943 
 2632      5F4D4158 
 2632      5F5F2032 
 2633 096e 01       		.byte	0x1
 2634 096f 00       		.uleb128 0
 2635 0970 5F5F5349 		.ascii "__SIG_ATOMIC_MIN__ (-__SIG_ATOMIC_MAX__ - 1)\0"
 2635      475F4154 
 2635      4F4D4943 
 2635      5F4D494E 
 2635      5F5F2028 
 2636 099d 01       		.byte	0x1
 2637 099e 00       		.uleb128 0
 2638 099f 5F5F494E 		.ascii "__INT8_MAX__ 127\0"
 2638      54385F4D 
 2638      41585F5F 
 2638      20313237 
 2638      00
 2639 09b0 01       		.byte	0x1
 2640 09b1 00       		.uleb128 0
 2641 09b2 5F5F494E 		.ascii "__INT16_MAX__ 32767\0"
 2641      5431365F 
 2641      4D41585F 
 2641      5F203332 
 2641      37363700 
 2642 09c6 01       		.byte	0x1
 2643 09c7 00       		.uleb128 0
 2644 09c8 5F5F494E 		.ascii "__INT32_MAX__ 2147483647\0"
 2644      5433325F 
 2644      4D41585F 
 2644      5F203231 
 2644      34373438 
 2645 09e1 01       		.byte	0x1
 2646 09e2 00       		.uleb128 0
 2647 09e3 5F5F494E 		.ascii "__INT64_MAX__ 9223372036854775807LL\0"
 2647      5436345F 
 2647      4D41585F 
 2647      5F203932 
 2647      32333337 
 2648 0a07 01       		.byte	0x1
 2649 0a08 00       		.uleb128 0
 2650 0a09 5F5F5549 		.ascii "__UINT8_MAX__ 255\0"
 2650      4E54385F 
 2650      4D41585F 
 2650      5F203235 
 2650      3500
 2651 0a1b 01       		.byte	0x1
 2652 0a1c 00       		.uleb128 0
GAS LISTING C:\Users\PRESID~1\AppData\Local\Temp\ccrN058O.s 			page 73


 2653 0a1d 5F5F5549 		.ascii "__UINT16_MAX__ 65535\0"
 2653      4E543136 
 2653      5F4D4158 
 2653      5F5F2036 
 2653      35353335 
 2654 0a32 01       		.byte	0x1
 2655 0a33 00       		.uleb128 0
 2656 0a34 5F5F5549 		.ascii "__UINT32_MAX__ 4294967295U\0"
 2656      4E543332 
 2656      5F4D4158 
 2656      5F5F2034 
 2656      32393439 
 2657 0a4f 01       		.byte	0x1
 2658 0a50 00       		.uleb128 0
 2659 0a51 5F5F5549 		.ascii "__UINT64_MAX__ 18446744073709551615ULL\0"
 2659      4E543634 
 2659      5F4D4158 
 2659      5F5F2031 
 2659      38343436 
 2660 0a78 01       		.byte	0x1
 2661 0a79 00       		.uleb128 0
 2662 0a7a 5F5F494E 		.ascii "__INT_LEAST8_MAX__ 127\0"
 2662      545F4C45 
 2662      41535438 
 2662      5F4D4158 
 2662      5F5F2031 
 2663 0a91 01       		.byte	0x1
 2664 0a92 00       		.uleb128 0
 2665 0a93 5F5F494E 		.ascii "__INT8_C(c) c\0"
 2665      54385F43 
 2665      28632920 
 2665      6300
 2666 0aa1 01       		.byte	0x1
 2667 0aa2 00       		.uleb128 0
 2668 0aa3 5F5F494E 		.ascii "__INT_LEAST16_MAX__ 32767\0"
 2668      545F4C45 
 2668      41535431 
 2668      365F4D41 
 2668      585F5F20 
 2669 0abd 01       		.byte	0x1
 2670 0abe 00       		.uleb128 0
 2671 0abf 5F5F494E 		.ascii "__INT16_C(c) c\0"
 2671      5431365F 
 2671      43286329 
 2671      206300
 2672 0ace 01       		.byte	0x1
 2673 0acf 00       		.uleb128 0
 2674 0ad0 5F5F494E 		.ascii "__INT_LEAST32_MAX__ 2147483647\0"
 2674      545F4C45 
 2674      41535433 
 2674      325F4D41 
 2674      585F5F20 
 2675 0aef 01       		.byte	0x1
 2676 0af0 00       		.uleb128 0
 2677 0af1 5F5F494E 		.ascii "__INT32_C(c) c\0"
 2677      5433325F 
 2677      43286329 
GAS LISTING C:\Users\PRESID~1\AppData\Local\Temp\ccrN058O.s 			page 74


 2677      206300
 2678 0b00 01       		.byte	0x1
 2679 0b01 00       		.uleb128 0
 2680 0b02 5F5F494E 		.ascii "__INT_LEAST64_MAX__ 9223372036854775807LL\0"
 2680      545F4C45 
 2680      41535436 
 2680      345F4D41 
 2680      585F5F20 
 2681 0b2c 01       		.byte	0x1
 2682 0b2d 00       		.uleb128 0
 2683 0b2e 5F5F494E 		.ascii "__INT64_C(c) c ## LL\0"
 2683      5436345F 
 2683      43286329 
 2683      20632023 
 2683      23204C4C 
 2684 0b43 01       		.byte	0x1
 2685 0b44 00       		.uleb128 0
 2686 0b45 5F5F5549 		.ascii "__UINT_LEAST8_MAX__ 255\0"
 2686      4E545F4C 
 2686      45415354 
 2686      385F4D41 
 2686      585F5F20 
 2687 0b5d 01       		.byte	0x1
 2688 0b5e 00       		.uleb128 0
 2689 0b5f 5F5F5549 		.ascii "__UINT8_C(c) c\0"
 2689      4E54385F 
 2689      43286329 
 2689      206300
 2690 0b6e 01       		.byte	0x1
 2691 0b6f 00       		.uleb128 0
 2692 0b70 5F5F5549 		.ascii "__UINT_LEAST16_MAX__ 65535\0"
 2692      4E545F4C 
 2692      45415354 
 2692      31365F4D 
 2692      41585F5F 
 2693 0b8b 01       		.byte	0x1
 2694 0b8c 00       		.uleb128 0
 2695 0b8d 5F5F5549 		.ascii "__UINT16_C(c) c\0"
 2695      4E543136 
 2695      5F432863 
 2695      29206300 
 2696 0b9d 01       		.byte	0x1
 2697 0b9e 00       		.uleb128 0
 2698 0b9f 5F5F5549 		.ascii "__UINT_LEAST32_MAX__ 4294967295U\0"
 2698      4E545F4C 
 2698      45415354 
 2698      33325F4D 
 2698      41585F5F 
 2699 0bc0 01       		.byte	0x1
 2700 0bc1 00       		.uleb128 0
 2701 0bc2 5F5F5549 		.ascii "__UINT32_C(c) c ## U\0"
 2701      4E543332 
 2701      5F432863 
 2701      29206320 
 2701      23232055 
 2702 0bd7 01       		.byte	0x1
 2703 0bd8 00       		.uleb128 0
GAS LISTING C:\Users\PRESID~1\AppData\Local\Temp\ccrN058O.s 			page 75


 2704 0bd9 5F5F5549 		.ascii "__UINT_LEAST64_MAX__ 18446744073709551615ULL\0"
 2704      4E545F4C 
 2704      45415354 
 2704      36345F4D 
 2704      41585F5F 
 2705 0c06 01       		.byte	0x1
 2706 0c07 00       		.uleb128 0
 2707 0c08 5F5F5549 		.ascii "__UINT64_C(c) c ## ULL\0"
 2707      4E543634 
 2707      5F432863 
 2707      29206320 
 2707      23232055 
 2708 0c1f 01       		.byte	0x1
 2709 0c20 00       		.uleb128 0
 2710 0c21 5F5F494E 		.ascii "__INT_FAST8_MAX__ 127\0"
 2710      545F4641 
 2710      5354385F 
 2710      4D41585F 
 2710      5F203132 
 2711 0c37 01       		.byte	0x1
 2712 0c38 00       		.uleb128 0
 2713 0c39 5F5F494E 		.ascii "__INT_FAST16_MAX__ 32767\0"
 2713      545F4641 
 2713      53543136 
 2713      5F4D4158 
 2713      5F5F2033 
 2714 0c52 01       		.byte	0x1
 2715 0c53 00       		.uleb128 0
 2716 0c54 5F5F494E 		.ascii "__INT_FAST32_MAX__ 2147483647\0"
 2716      545F4641 
 2716      53543332 
 2716      5F4D4158 
 2716      5F5F2032 
 2717 0c72 01       		.byte	0x1
 2718 0c73 00       		.uleb128 0
 2719 0c74 5F5F494E 		.ascii "__INT_FAST64_MAX__ 9223372036854775807LL\0"
 2719      545F4641 
 2719      53543634 
 2719      5F4D4158 
 2719      5F5F2039 
 2720 0c9d 01       		.byte	0x1
 2721 0c9e 00       		.uleb128 0
 2722 0c9f 5F5F5549 		.ascii "__UINT_FAST8_MAX__ 255\0"
 2722      4E545F46 
 2722      41535438 
 2722      5F4D4158 
 2722      5F5F2032 
 2723 0cb6 01       		.byte	0x1
 2724 0cb7 00       		.uleb128 0
 2725 0cb8 5F5F5549 		.ascii "__UINT_FAST16_MAX__ 65535\0"
 2725      4E545F46 
 2725      41535431 
 2725      365F4D41 
 2725      585F5F20 
 2726 0cd2 01       		.byte	0x1
 2727 0cd3 00       		.uleb128 0
 2728 0cd4 5F5F5549 		.ascii "__UINT_FAST32_MAX__ 4294967295U\0"
GAS LISTING C:\Users\PRESID~1\AppData\Local\Temp\ccrN058O.s 			page 76


 2728      4E545F46 
 2728      41535433 
 2728      325F4D41 
 2728      585F5F20 
 2729 0cf4 01       		.byte	0x1
 2730 0cf5 00       		.uleb128 0
 2731 0cf6 5F5F5549 		.ascii "__UINT_FAST64_MAX__ 18446744073709551615ULL\0"
 2731      4E545F46 
 2731      41535436 
 2731      345F4D41 
 2731      585F5F20 
 2732 0d22 01       		.byte	0x1
 2733 0d23 00       		.uleb128 0
 2734 0d24 5F5F494E 		.ascii "__INTPTR_MAX__ 2147483647\0"
 2734      54505452 
 2734      5F4D4158 
 2734      5F5F2032 
 2734      31343734 
 2735 0d3e 01       		.byte	0x1
 2736 0d3f 00       		.uleb128 0
 2737 0d40 5F5F5549 		.ascii "__UINTPTR_MAX__ 4294967295U\0"
 2737      4E545054 
 2737      525F4D41 
 2737      585F5F20 
 2737      34323934 
 2738 0d5c 01       		.byte	0x1
 2739 0d5d 00       		.uleb128 0
 2740 0d5e 5F5F4743 		.ascii "__GCC_IEC_559 2\0"
 2740      435F4945 
 2740      435F3535 
 2740      39203200 
 2741 0d6e 01       		.byte	0x1
 2742 0d6f 00       		.uleb128 0
 2743 0d70 5F5F4743 		.ascii "__GCC_IEC_559_COMPLEX 2\0"
 2743      435F4945 
 2743      435F3535 
 2743      395F434F 
 2743      4D504C45 
 2744 0d88 01       		.byte	0x1
 2745 0d89 00       		.uleb128 0
 2746 0d8a 5F5F464C 		.ascii "__FLT_EVAL_METHOD__ 2\0"
 2746      545F4556 
 2746      414C5F4D 
 2746      4554484F 
 2746      445F5F20 
 2747 0da0 01       		.byte	0x1
 2748 0da1 00       		.uleb128 0
 2749 0da2 5F5F4445 		.ascii "__DEC_EVAL_METHOD__ 2\0"
 2749      435F4556 
 2749      414C5F4D 
 2749      4554484F 
 2749      445F5F20 
 2750 0db8 01       		.byte	0x1
 2751 0db9 00       		.uleb128 0
 2752 0dba 5F5F464C 		.ascii "__FLT_RADIX__ 2\0"
 2752      545F5241 
 2752      4449585F 
GAS LISTING C:\Users\PRESID~1\AppData\Local\Temp\ccrN058O.s 			page 77


 2752      5F203200 
 2753 0dca 01       		.byte	0x1
 2754 0dcb 00       		.uleb128 0
 2755 0dcc 5F5F464C 		.ascii "__FLT_MANT_DIG__ 24\0"
 2755      545F4D41 
 2755      4E545F44 
 2755      49475F5F 
 2755      20323400 
 2756 0de0 01       		.byte	0x1
 2757 0de1 00       		.uleb128 0
 2758 0de2 5F5F464C 		.ascii "__FLT_DIG__ 6\0"
 2758      545F4449 
 2758      475F5F20 
 2758      3600
 2759 0df0 01       		.byte	0x1
 2760 0df1 00       		.uleb128 0
 2761 0df2 5F5F464C 		.ascii "__FLT_MIN_EXP__ (-125)\0"
 2761      545F4D49 
 2761      4E5F4558 
 2761      505F5F20 
 2761      282D3132 
 2762 0e09 01       		.byte	0x1
 2763 0e0a 00       		.uleb128 0
 2764 0e0b 5F5F464C 		.ascii "__FLT_MIN_10_EXP__ (-37)\0"
 2764      545F4D49 
 2764      4E5F3130 
 2764      5F455850 
 2764      5F5F2028 
 2765 0e24 01       		.byte	0x1
 2766 0e25 00       		.uleb128 0
 2767 0e26 5F5F464C 		.ascii "__FLT_MAX_EXP__ 128\0"
 2767      545F4D41 
 2767      585F4558 
 2767      505F5F20 
 2767      31323800 
 2768 0e3a 01       		.byte	0x1
 2769 0e3b 00       		.uleb128 0
 2770 0e3c 5F5F464C 		.ascii "__FLT_MAX_10_EXP__ 38\0"
 2770      545F4D41 
 2770      585F3130 
 2770      5F455850 
 2770      5F5F2033 
 2771 0e52 01       		.byte	0x1
 2772 0e53 00       		.uleb128 0
 2773 0e54 5F5F464C 		.ascii "__FLT_DECIMAL_DIG__ 9\0"
 2773      545F4445 
 2773      43494D41 
 2773      4C5F4449 
 2773      475F5F20 
 2774 0e6a 01       		.byte	0x1
 2775 0e6b 00       		.uleb128 0
 2776 0e6c 5F5F464C 		.ascii "__FLT_MAX__ 3.40282346638528859812e+38F\0"
 2776      545F4D41 
 2776      585F5F20 
 2776      332E3430 
 2776      32383233 
 2777 0e94 01       		.byte	0x1
GAS LISTING C:\Users\PRESID~1\AppData\Local\Temp\ccrN058O.s 			page 78


 2778 0e95 00       		.uleb128 0
 2779 0e96 5F5F464C 		.ascii "__FLT_MIN__ 1.17549435082228750797e-38F\0"
 2779      545F4D49 
 2779      4E5F5F20 
 2779      312E3137 
 2779      35343934 
 2780 0ebe 01       		.byte	0x1
 2781 0ebf 00       		.uleb128 0
 2782 0ec0 5F5F464C 		.ascii "__FLT_EPSILON__ 1.19209289550781250000e-7F\0"
 2782      545F4550 
 2782      53494C4F 
 2782      4E5F5F20 
 2782      312E3139 
 2783 0eeb 01       		.byte	0x1
 2784 0eec 00       		.uleb128 0
 2785 0eed 5F5F464C 		.ascii "__FLT_DENORM_MIN__ 1.40129846432481707092e-45F\0"
 2785      545F4445 
 2785      4E4F524D 
 2785      5F4D494E 
 2785      5F5F2031 
 2786 0f1c 01       		.byte	0x1
 2787 0f1d 00       		.uleb128 0
 2788 0f1e 5F5F464C 		.ascii "__FLT_HAS_DENORM__ 1\0"
 2788      545F4841 
 2788      535F4445 
 2788      4E4F524D 
 2788      5F5F2031 
 2789 0f33 01       		.byte	0x1
 2790 0f34 00       		.uleb128 0
 2791 0f35 5F5F464C 		.ascii "__FLT_HAS_INFINITY__ 1\0"
 2791      545F4841 
 2791      535F494E 
 2791      46494E49 
 2791      54595F5F 
 2792 0f4c 01       		.byte	0x1
 2793 0f4d 00       		.uleb128 0
 2794 0f4e 5F5F464C 		.ascii "__FLT_HAS_QUIET_NAN__ 1\0"
 2794      545F4841 
 2794      535F5155 
 2794      4945545F 
 2794      4E414E5F 
 2795 0f66 01       		.byte	0x1
 2796 0f67 00       		.uleb128 0
 2797 0f68 5F5F4442 		.ascii "__DBL_MANT_DIG__ 53\0"
 2797      4C5F4D41 
 2797      4E545F44 
 2797      49475F5F 
 2797      20353300 
 2798 0f7c 01       		.byte	0x1
 2799 0f7d 00       		.uleb128 0
 2800 0f7e 5F5F4442 		.ascii "__DBL_DIG__ 15\0"
 2800      4C5F4449 
 2800      475F5F20 
 2800      313500
 2801 0f8d 01       		.byte	0x1
 2802 0f8e 00       		.uleb128 0
 2803 0f8f 5F5F4442 		.ascii "__DBL_MIN_EXP__ (-1021)\0"
GAS LISTING C:\Users\PRESID~1\AppData\Local\Temp\ccrN058O.s 			page 79


 2803      4C5F4D49 
 2803      4E5F4558 
 2803      505F5F20 
 2803      282D3130 
 2804 0fa7 01       		.byte	0x1
 2805 0fa8 00       		.uleb128 0
 2806 0fa9 5F5F4442 		.ascii "__DBL_MIN_10_EXP__ (-307)\0"
 2806      4C5F4D49 
 2806      4E5F3130 
 2806      5F455850 
 2806      5F5F2028 
 2807 0fc3 01       		.byte	0x1
 2808 0fc4 00       		.uleb128 0
 2809 0fc5 5F5F4442 		.ascii "__DBL_MAX_EXP__ 1024\0"
 2809      4C5F4D41 
 2809      585F4558 
 2809      505F5F20 
 2809      31303234 
 2810 0fda 01       		.byte	0x1
 2811 0fdb 00       		.uleb128 0
 2812 0fdc 5F5F4442 		.ascii "__DBL_MAX_10_EXP__ 308\0"
 2812      4C5F4D41 
 2812      585F3130 
 2812      5F455850 
 2812      5F5F2033 
 2813 0ff3 01       		.byte	0x1
 2814 0ff4 00       		.uleb128 0
 2815 0ff5 5F5F4442 		.ascii "__DBL_DECIMAL_DIG__ 17\0"
 2815      4C5F4445 
 2815      43494D41 
 2815      4C5F4449 
 2815      475F5F20 
 2816 100c 01       		.byte	0x1
 2817 100d 00       		.uleb128 0
 2818 100e 5F5F4442 		.ascii "__DBL_MAX__ ((double)1.79769313486231570815e+308L)\0"
 2818      4C5F4D41 
 2818      585F5F20 
 2818      2828646F 
 2818      75626C65 
 2819 1041 01       		.byte	0x1
 2820 1042 00       		.uleb128 0
 2821 1043 5F5F4442 		.ascii "__DBL_MIN__ ((double)2.22507385850720138309e-308L)\0"
 2821      4C5F4D49 
 2821      4E5F5F20 
 2821      2828646F 
 2821      75626C65 
 2822 1076 01       		.byte	0x1
 2823 1077 00       		.uleb128 0
 2824 1078 5F5F4442 		.ascii "__DBL_EPSILON__ ((double)2.22044604925031308085e-16L)\0"
 2824      4C5F4550 
 2824      53494C4F 
 2824      4E5F5F20 
 2824      2828646F 
 2825 10ae 01       		.byte	0x1
 2826 10af 00       		.uleb128 0
 2827 10b0 5F5F4442 		.ascii "__DBL_DENORM_MIN__ ((double)4.94065645841246544177e-324L)\0"
 2827      4C5F4445 
GAS LISTING C:\Users\PRESID~1\AppData\Local\Temp\ccrN058O.s 			page 80


 2827      4E4F524D 
 2827      5F4D494E 
 2827      5F5F2028 
 2828 10ea 01       		.byte	0x1
 2829 10eb 00       		.uleb128 0
 2830 10ec 5F5F4442 		.ascii "__DBL_HAS_DENORM__ 1\0"
 2830      4C5F4841 
 2830      535F4445 
 2830      4E4F524D 
 2830      5F5F2031 
 2831 1101 01       		.byte	0x1
 2832 1102 00       		.uleb128 0
 2833 1103 5F5F4442 		.ascii "__DBL_HAS_INFINITY__ 1\0"
 2833      4C5F4841 
 2833      535F494E 
 2833      46494E49 
 2833      54595F5F 
 2834 111a 01       		.byte	0x1
 2835 111b 00       		.uleb128 0
 2836 111c 5F5F4442 		.ascii "__DBL_HAS_QUIET_NAN__ 1\0"
 2836      4C5F4841 
 2836      535F5155 
 2836      4945545F 
 2836      4E414E5F 
 2837 1134 01       		.byte	0x1
 2838 1135 00       		.uleb128 0
 2839 1136 5F5F4C44 		.ascii "__LDBL_MANT_DIG__ 64\0"
 2839      424C5F4D 
 2839      414E545F 
 2839      4449475F 
 2839      5F203634 
 2840 114b 01       		.byte	0x1
 2841 114c 00       		.uleb128 0
 2842 114d 5F5F4C44 		.ascii "__LDBL_DIG__ 18\0"
 2842      424C5F44 
 2842      49475F5F 
 2842      20313800 
 2843 115d 01       		.byte	0x1
 2844 115e 00       		.uleb128 0
 2845 115f 5F5F4C44 		.ascii "__LDBL_MIN_EXP__ (-16381)\0"
 2845      424C5F4D 
 2845      494E5F45 
 2845      58505F5F 
 2845      20282D31 
 2846 1179 01       		.byte	0x1
 2847 117a 00       		.uleb128 0
 2848 117b 5F5F4C44 		.ascii "__LDBL_MIN_10_EXP__ (-4931)\0"
 2848      424C5F4D 
 2848      494E5F31 
 2848      305F4558 
 2848      505F5F20 
 2849 1197 01       		.byte	0x1
 2850 1198 00       		.uleb128 0
 2851 1199 5F5F4C44 		.ascii "__LDBL_MAX_EXP__ 16384\0"
 2851      424C5F4D 
 2851      41585F45 
 2851      58505F5F 
GAS LISTING C:\Users\PRESID~1\AppData\Local\Temp\ccrN058O.s 			page 81


 2851      20313633 
 2852 11b0 01       		.byte	0x1
 2853 11b1 00       		.uleb128 0
 2854 11b2 5F5F4C44 		.ascii "__LDBL_MAX_10_EXP__ 4932\0"
 2854      424C5F4D 
 2854      41585F31 
 2854      305F4558 
 2854      505F5F20 
 2855 11cb 01       		.byte	0x1
 2856 11cc 00       		.uleb128 0
 2857 11cd 5F5F4445 		.ascii "__DECIMAL_DIG__ 21\0"
 2857      43494D41 
 2857      4C5F4449 
 2857      475F5F20 
 2857      323100
 2858 11e0 01       		.byte	0x1
 2859 11e1 00       		.uleb128 0
 2860 11e2 5F5F4C44 		.ascii "__LDBL_MAX__ 1.18973149535723176502e+4932L\0"
 2860      424C5F4D 
 2860      41585F5F 
 2860      20312E31 
 2860      38393733 
 2861 120d 01       		.byte	0x1
 2862 120e 00       		.uleb128 0
 2863 120f 5F5F4C44 		.ascii "__LDBL_MIN__ 3.36210314311209350626e-4932L\0"
 2863      424C5F4D 
 2863      494E5F5F 
 2863      20332E33 
 2863      36323130 
 2864 123a 01       		.byte	0x1
 2865 123b 00       		.uleb128 0
 2866 123c 5F5F4C44 		.ascii "__LDBL_EPSILON__ 1.08420217248550443401e-19L\0"
 2866      424C5F45 
 2866      5053494C 
 2866      4F4E5F5F 
 2866      20312E30 
 2867 1269 01       		.byte	0x1
 2868 126a 00       		.uleb128 0
 2869 126b 5F5F4C44 		.ascii "__LDBL_DENORM_MIN__ 3.64519953188247460253e-4951L\0"
 2869      424C5F44 
 2869      454E4F52 
 2869      4D5F4D49 
 2869      4E5F5F20 
 2870 129d 01       		.byte	0x1
 2871 129e 00       		.uleb128 0
 2872 129f 5F5F4C44 		.ascii "__LDBL_HAS_DENORM__ 1\0"
 2872      424C5F48 
 2872      41535F44 
 2872      454E4F52 
 2872      4D5F5F20 
 2873 12b5 01       		.byte	0x1
 2874 12b6 00       		.uleb128 0
 2875 12b7 5F5F4C44 		.ascii "__LDBL_HAS_INFINITY__ 1\0"
 2875      424C5F48 
 2875      41535F49 
 2875      4E46494E 
 2875      4954595F 
GAS LISTING C:\Users\PRESID~1\AppData\Local\Temp\ccrN058O.s 			page 82


 2876 12cf 01       		.byte	0x1
 2877 12d0 00       		.uleb128 0
 2878 12d1 5F5F4C44 		.ascii "__LDBL_HAS_QUIET_NAN__ 1\0"
 2878      424C5F48 
 2878      41535F51 
 2878      55494554 
 2878      5F4E414E 
 2879 12ea 01       		.byte	0x1
 2880 12eb 00       		.uleb128 0
 2881 12ec 5F5F4445 		.ascii "__DEC32_MANT_DIG__ 7\0"
 2881      4333325F 
 2881      4D414E54 
 2881      5F444947 
 2881      5F5F2037 
 2882 1301 01       		.byte	0x1
 2883 1302 00       		.uleb128 0
 2884 1303 5F5F4445 		.ascii "__DEC32_MIN_EXP__ (-94)\0"
 2884      4333325F 
 2884      4D494E5F 
 2884      4558505F 
 2884      5F20282D 
 2885 131b 01       		.byte	0x1
 2886 131c 00       		.uleb128 0
 2887 131d 5F5F4445 		.ascii "__DEC32_MAX_EXP__ 97\0"
 2887      4333325F 
 2887      4D41585F 
 2887      4558505F 
 2887      5F203937 
 2888 1332 01       		.byte	0x1
 2889 1333 00       		.uleb128 0
 2890 1334 5F5F4445 		.ascii "__DEC32_MIN__ 1E-95DF\0"
 2890      4333325F 
 2890      4D494E5F 
 2890      5F203145 
 2890      2D393544 
 2891 134a 01       		.byte	0x1
 2892 134b 00       		.uleb128 0
 2893 134c 5F5F4445 		.ascii "__DEC32_MAX__ 9.999999E96DF\0"
 2893      4333325F 
 2893      4D41585F 
 2893      5F20392E 
 2893      39393939 
 2894 1368 01       		.byte	0x1
 2895 1369 00       		.uleb128 0
 2896 136a 5F5F4445 		.ascii "__DEC32_EPSILON__ 1E-6DF\0"
 2896      4333325F 
 2896      45505349 
 2896      4C4F4E5F 
 2896      5F203145 
 2897 1383 01       		.byte	0x1
 2898 1384 00       		.uleb128 0
 2899 1385 5F5F4445 		.ascii "__DEC32_SUBNORMAL_MIN__ 0.000001E-95DF\0"
 2899      4333325F 
 2899      5355424E 
 2899      4F524D41 
 2899      4C5F4D49 
 2900 13ac 01       		.byte	0x1
GAS LISTING C:\Users\PRESID~1\AppData\Local\Temp\ccrN058O.s 			page 83


 2901 13ad 00       		.uleb128 0
 2902 13ae 5F5F4445 		.ascii "__DEC64_MANT_DIG__ 16\0"
 2902      4336345F 
 2902      4D414E54 
 2902      5F444947 
 2902      5F5F2031 
 2903 13c4 01       		.byte	0x1
 2904 13c5 00       		.uleb128 0
 2905 13c6 5F5F4445 		.ascii "__DEC64_MIN_EXP__ (-382)\0"
 2905      4336345F 
 2905      4D494E5F 
 2905      4558505F 
 2905      5F20282D 
 2906 13df 01       		.byte	0x1
 2907 13e0 00       		.uleb128 0
 2908 13e1 5F5F4445 		.ascii "__DEC64_MAX_EXP__ 385\0"
 2908      4336345F 
 2908      4D41585F 
 2908      4558505F 
 2908      5F203338 
 2909 13f7 01       		.byte	0x1
 2910 13f8 00       		.uleb128 0
 2911 13f9 5F5F4445 		.ascii "__DEC64_MIN__ 1E-383DD\0"
 2911      4336345F 
 2911      4D494E5F 
 2911      5F203145 
 2911      2D333833 
 2912 1410 01       		.byte	0x1
 2913 1411 00       		.uleb128 0
 2914 1412 5F5F4445 		.ascii "__DEC64_MAX__ 9.999999999999999E384DD\0"
 2914      4336345F 
 2914      4D41585F 
 2914      5F20392E 
 2914      39393939 
 2915 1438 01       		.byte	0x1
 2916 1439 00       		.uleb128 0
 2917 143a 5F5F4445 		.ascii "__DEC64_EPSILON__ 1E-15DD\0"
 2917      4336345F 
 2917      45505349 
 2917      4C4F4E5F 
 2917      5F203145 
 2918 1454 01       		.byte	0x1
 2919 1455 00       		.uleb128 0
 2920 1456 5F5F4445 		.ascii "__DEC64_SUBNORMAL_MIN__ 0.000000000000001E-383DD\0"
 2920      4336345F 
 2920      5355424E 
 2920      4F524D41 
 2920      4C5F4D49 
 2921 1487 01       		.byte	0x1
 2922 1488 00       		.uleb128 0
 2923 1489 5F5F4445 		.ascii "__DEC128_MANT_DIG__ 34\0"
 2923      43313238 
 2923      5F4D414E 
 2923      545F4449 
 2923      475F5F20 
 2924 14a0 01       		.byte	0x1
 2925 14a1 00       		.uleb128 0
GAS LISTING C:\Users\PRESID~1\AppData\Local\Temp\ccrN058O.s 			page 84


 2926 14a2 5F5F4445 		.ascii "__DEC128_MIN_EXP__ (-6142)\0"
 2926      43313238 
 2926      5F4D494E 
 2926      5F455850 
 2926      5F5F2028 
 2927 14bd 01       		.byte	0x1
 2928 14be 00       		.uleb128 0
 2929 14bf 5F5F4445 		.ascii "__DEC128_MAX_EXP__ 6145\0"
 2929      43313238 
 2929      5F4D4158 
 2929      5F455850 
 2929      5F5F2036 
 2930 14d7 01       		.byte	0x1
 2931 14d8 00       		.uleb128 0
 2932 14d9 5F5F4445 		.ascii "__DEC128_MIN__ 1E-6143DL\0"
 2932      43313238 
 2932      5F4D494E 
 2932      5F5F2031 
 2932      452D3631 
 2933 14f2 01       		.byte	0x1
 2934 14f3 00       		.uleb128 0
 2935 14f4 5F5F4445 		.ascii "__DEC128_MAX__ 9.999999999999999999999999999999999E6144DL\0"
 2935      43313238 
 2935      5F4D4158 
 2935      5F5F2039 
 2935      2E393939 
 2936 152e 01       		.byte	0x1
 2937 152f 00       		.uleb128 0
 2938 1530 5F5F4445 		.ascii "__DEC128_EPSILON__ 1E-33DL\0"
 2938      43313238 
 2938      5F455053 
 2938      494C4F4E 
 2938      5F5F2031 
 2939 154b 01       		.byte	0x1
 2940 154c 00       		.uleb128 0
 2941 154d 5F5F4445 		.ascii "__DEC128_SUBNORMAL_MIN__ 0.000000000000000000000000000000001E-6143DL\0"
 2941      43313238 
 2941      5F535542 
 2941      4E4F524D 
 2941      414C5F4D 
 2942 1592 01       		.byte	0x1
 2943 1593 00       		.uleb128 0
 2944 1594 5F5F5245 		.ascii "__REGISTER_PREFIX__ \0"
 2944      47495354 
 2944      45525F50 
 2944      52454649 
 2944      585F5F20 
 2945 15a9 01       		.byte	0x1
 2946 15aa 00       		.uleb128 0
 2947 15ab 5F5F5553 		.ascii "__USER_LABEL_PREFIX__ _\0"
 2947      45525F4C 
 2947      4142454C 
 2947      5F505245 
 2947      4649585F 
 2948 15c3 01       		.byte	0x1
 2949 15c4 00       		.uleb128 0
 2950 15c5 5F5F474E 		.ascii "__GNUC_GNU_INLINE__ 1\0"
GAS LISTING C:\Users\PRESID~1\AppData\Local\Temp\ccrN058O.s 			page 85


 2950      55435F47 
 2950      4E555F49 
 2950      4E4C494E 
 2950      455F5F20 
 2951 15db 01       		.byte	0x1
 2952 15dc 00       		.uleb128 0
 2953 15dd 5F5F4E4F 		.ascii "__NO_INLINE__ 1\0"
 2953      5F494E4C 
 2953      494E455F 
 2953      5F203100 
 2954 15ed 01       		.byte	0x1
 2955 15ee 00       		.uleb128 0
 2956 15ef 5F5F5354 		.ascii "__STRICT_ANSI__ 1\0"
 2956      52494354 
 2956      5F414E53 
 2956      495F5F20 
 2956      3100
 2957 1601 01       		.byte	0x1
 2958 1602 00       		.uleb128 0
 2959 1603 5F5F4743 		.ascii "__GCC_ATOMIC_BOOL_LOCK_FREE 1\0"
 2959      435F4154 
 2959      4F4D4943 
 2959      5F424F4F 
 2959      4C5F4C4F 
 2960 1621 01       		.byte	0x1
 2961 1622 00       		.uleb128 0
 2962 1623 5F5F4743 		.ascii "__GCC_ATOMIC_CHAR_LOCK_FREE 1\0"
 2962      435F4154 
 2962      4F4D4943 
 2962      5F434841 
 2962      525F4C4F 
 2963 1641 01       		.byte	0x1
 2964 1642 00       		.uleb128 0
 2965 1643 5F5F4743 		.ascii "__GCC_ATOMIC_CHAR16_T_LOCK_FREE 1\0"
 2965      435F4154 
 2965      4F4D4943 
 2965      5F434841 
 2965      5231365F 
 2966 1665 01       		.byte	0x1
 2967 1666 00       		.uleb128 0
 2968 1667 5F5F4743 		.ascii "__GCC_ATOMIC_CHAR32_T_LOCK_FREE 1\0"
 2968      435F4154 
 2968      4F4D4943 
 2968      5F434841 
 2968      5233325F 
 2969 1689 01       		.byte	0x1
 2970 168a 00       		.uleb128 0
 2971 168b 5F5F4743 		.ascii "__GCC_ATOMIC_WCHAR_T_LOCK_FREE 1\0"
 2971      435F4154 
 2971      4F4D4943 
 2971      5F574348 
 2971      41525F54 
 2972 16ac 01       		.byte	0x1
 2973 16ad 00       		.uleb128 0
 2974 16ae 5F5F4743 		.ascii "__GCC_ATOMIC_SHORT_LOCK_FREE 1\0"
 2974      435F4154 
 2974      4F4D4943 
GAS LISTING C:\Users\PRESID~1\AppData\Local\Temp\ccrN058O.s 			page 86


 2974      5F53484F 
 2974      52545F4C 
 2975 16cd 01       		.byte	0x1
 2976 16ce 00       		.uleb128 0
 2977 16cf 5F5F4743 		.ascii "__GCC_ATOMIC_INT_LOCK_FREE 1\0"
 2977      435F4154 
 2977      4F4D4943 
 2977      5F494E54 
 2977      5F4C4F43 
 2978 16ec 01       		.byte	0x1
 2979 16ed 00       		.uleb128 0
 2980 16ee 5F5F4743 		.ascii "__GCC_ATOMIC_LONG_LOCK_FREE 1\0"
 2980      435F4154 
 2980      4F4D4943 
 2980      5F4C4F4E 
 2980      475F4C4F 
 2981 170c 01       		.byte	0x1
 2982 170d 00       		.uleb128 0
 2983 170e 5F5F4743 		.ascii "__GCC_ATOMIC_LLONG_LOCK_FREE 1\0"
 2983      435F4154 
 2983      4F4D4943 
 2983      5F4C4C4F 
 2983      4E475F4C 
 2984 172d 01       		.byte	0x1
 2985 172e 00       		.uleb128 0
 2986 172f 5F5F4743 		.ascii "__GCC_ATOMIC_TEST_AND_SET_TRUEVAL 1\0"
 2986      435F4154 
 2986      4F4D4943 
 2986      5F544553 
 2986      545F414E 
 2987 1753 01       		.byte	0x1
 2988 1754 00       		.uleb128 0
 2989 1755 5F5F4743 		.ascii "__GCC_ATOMIC_POINTER_LOCK_FREE 1\0"
 2989      435F4154 
 2989      4F4D4943 
 2989      5F504F49 
 2989      4E544552 
 2990 1776 01       		.byte	0x1
 2991 1777 00       		.uleb128 0
 2992 1778 5F5F4743 		.ascii "__GCC_HAVE_DWARF2_CFI_ASM 1\0"
 2992      435F4841 
 2992      56455F44 
 2992      57415246 
 2992      325F4346 
 2993 1794 01       		.byte	0x1
 2994 1795 00       		.uleb128 0
 2995 1796 5F5F5052 		.ascii "__PRAGMA_REDEFINE_EXTNAME 1\0"
 2995      41474D41 
 2995      5F524544 
 2995      4546494E 
 2995      455F4558 
 2996 17b2 01       		.byte	0x1
 2997 17b3 00       		.uleb128 0
 2998 17b4 5F5F5349 		.ascii "__SIZEOF_WCHAR_T__ 2\0"
 2998      5A454F46 
 2998      5F574348 
 2998      41525F54 
GAS LISTING C:\Users\PRESID~1\AppData\Local\Temp\ccrN058O.s 			page 87


 2998      5F5F2032 
 2999 17c9 01       		.byte	0x1
 3000 17ca 00       		.uleb128 0
 3001 17cb 5F5F5349 		.ascii "__SIZEOF_WINT_T__ 2\0"
 3001      5A454F46 
 3001      5F57494E 
 3001      545F545F 
 3001      5F203200 
 3002 17df 01       		.byte	0x1
 3003 17e0 00       		.uleb128 0
 3004 17e1 5F5F5349 		.ascii "__SIZEOF_PTRDIFF_T__ 4\0"
 3004      5A454F46 
 3004      5F505452 
 3004      44494646 
 3004      5F545F5F 
 3005 17f8 01       		.byte	0x1
 3006 17f9 00       		.uleb128 0
 3007 17fa 5F5F6933 		.ascii "__i386 1\0"
 3007      38362031 
 3007      00
 3008 1803 01       		.byte	0x1
 3009 1804 00       		.uleb128 0
 3010 1805 5F5F6933 		.ascii "__i386__ 1\0"
 3010      38365F5F 
 3010      203100
 3011 1810 01       		.byte	0x1
 3012 1811 00       		.uleb128 0
 3013 1812 5F5F4154 		.ascii "__ATOMIC_HLE_ACQUIRE 65536\0"
 3013      4F4D4943 
 3013      5F484C45 
 3013      5F414351 
 3013      55495245 
 3014 182d 01       		.byte	0x1
 3015 182e 00       		.uleb128 0
 3016 182f 5F5F4154 		.ascii "__ATOMIC_HLE_RELEASE 131072\0"
 3016      4F4D4943 
 3016      5F484C45 
 3016      5F52454C 
 3016      45415345 
 3017 184b 01       		.byte	0x1
 3018 184c 00       		.uleb128 0
 3019 184d 5F5F7475 		.ascii "__tune_i386__ 1\0"
 3019      6E655F69 
 3019      3338365F 
 3019      5F203100 
 3020 185d 01       		.byte	0x1
 3021 185e 00       		.uleb128 0
 3022 185f 5F5F636F 		.ascii "__code_model_32__ 1\0"
 3022      64655F6D 
 3022      6F64656C 
 3022      5F33325F 
 3022      5F203100 
 3023 1873 01       		.byte	0x1
 3024 1874 00       		.uleb128 0
 3025 1875 5F583836 		.ascii "_X86_ 1\0"
 3025      5F203100 
 3026 187d 01       		.byte	0x1
GAS LISTING C:\Users\PRESID~1\AppData\Local\Temp\ccrN058O.s 			page 88


 3027 187e 00       		.uleb128 0
 3028 187f 5F5F7374 		.ascii "__stdcall __attribute__((__stdcall__))\0"
 3028      6463616C 
 3028      6C205F5F 
 3028      61747472 
 3028      69627574 
 3029 18a6 01       		.byte	0x1
 3030 18a7 00       		.uleb128 0
 3031 18a8 5F5F6661 		.ascii "__fastcall __attribute__((__fastcall__))\0"
 3031      73746361 
 3031      6C6C205F 
 3031      5F617474 
 3031      72696275 
 3032 18d1 01       		.byte	0x1
 3033 18d2 00       		.uleb128 0
 3034 18d3 5F5F7468 		.ascii "__thiscall __attribute__((__thiscall__))\0"
 3034      69736361 
 3034      6C6C205F 
 3034      5F617474 
 3034      72696275 
 3035 18fc 01       		.byte	0x1
 3036 18fd 00       		.uleb128 0
 3037 18fe 5F5F6364 		.ascii "__cdecl __attribute__((__cdecl__))\0"
 3037      65636C20 
 3037      5F5F6174 
 3037      74726962 
 3037      7574655F 
 3038 1921 01       		.byte	0x1
 3039 1922 00       		.uleb128 0
 3040 1923 5F5F4758 		.ascii "__GXX_MERGED_TYPEINFO_NAMES 0\0"
 3040      585F4D45 
 3040      52474544 
 3040      5F545950 
 3040      45494E46 
 3041 1941 01       		.byte	0x1
 3042 1942 00       		.uleb128 0
 3043 1943 5F5F4758 		.ascii "__GXX_TYPEINFO_EQUALITY_INLINE 0\0"
 3043      585F5459 
 3043      5045494E 
 3043      464F5F45 
 3043      5155414C 
 3044 1964 01       		.byte	0x1
 3045 1965 00       		.uleb128 0
 3046 1966 5F5F4D53 		.ascii "__MSVCRT__ 1\0"
 3046      56435254 
 3046      5F5F2031 
 3046      00
 3047 1973 01       		.byte	0x1
 3048 1974 00       		.uleb128 0
 3049 1975 5F5F4D49 		.ascii "__MINGW32__ 1\0"
 3049      4E475733 
 3049      325F5F20 
 3049      3100
 3050 1983 01       		.byte	0x1
 3051 1984 00       		.uleb128 0
 3052 1985 5F57494E 		.ascii "_WIN32 1\0"
 3052      33322031 
GAS LISTING C:\Users\PRESID~1\AppData\Local\Temp\ccrN058O.s 			page 89


 3052      00
 3053 198e 01       		.byte	0x1
 3054 198f 00       		.uleb128 0
 3055 1990 5F5F5749 		.ascii "__WIN32 1\0"
 3055      4E333220 
 3055      3100
 3056 199a 01       		.byte	0x1
 3057 199b 00       		.uleb128 0
 3058 199c 5F5F5749 		.ascii "__WIN32__ 1\0"
 3058      4E33325F 
 3058      5F203100 
 3059 19a8 01       		.byte	0x1
 3060 19a9 00       		.uleb128 0
 3061 19aa 5F5F5749 		.ascii "__WINNT 1\0"
 3061      4E4E5420 
 3061      3100
 3062 19b4 01       		.byte	0x1
 3063 19b5 00       		.uleb128 0
 3064 19b6 5F5F5749 		.ascii "__WINNT__ 1\0"
 3064      4E4E545F 
 3064      5F203100 
 3065 19c2 01       		.byte	0x1
 3066 19c3 00       		.uleb128 0
 3067 19c4 5F494E54 		.ascii "_INTEGRAL_MAX_BITS 64\0"
 3067      45475241 
 3067      4C5F4D41 
 3067      585F4249 
 3067      54532036 
 3068 19da 01       		.byte	0x1
 3069 19db 00       		.uleb128 0
 3070 19dc 5F5F6465 		.ascii "__declspec(x) __attribute__((x))\0"
 3070      636C7370 
 3070      65632878 
 3070      29205F5F 
 3070      61747472 
 3071 19fd 01       		.byte	0x1
 3072 19fe 00       		.uleb128 0
 3073 19ff 5F5F4445 		.ascii "__DECIMAL_BID_FORMAT__ 1\0"
 3073      43494D41 
 3073      4C5F4249 
 3073      445F464F 
 3073      524D4154 
 3074 1a18 01       		.byte	0x1
 3075 1a19 00       		.uleb128 0
 3076 1a1a 4346475F 		.ascii "CFG_PROCESSOR 3\0"
 3076      50524F43 
 3076      4553534F 
 3076      52203300 
 3077 1a2a 03       		.byte	0x3
 3078 1a2b 00       		.uleb128 0
 3079 1a2c 01       		.uleb128 0x1
 3080              		.file 9 "E:/NeuOrga/Programmieren/c_cpp/github_os/input/src/os_base/os_firstinc.h"
 3081 1a2d 03       		.byte	0x3
 3082 1a2e 01       		.uleb128 0x1
 3083 1a2f 09       		.uleb128 0x9
 3084 1a30 01       		.byte	0x1
 3085 1a31 02       		.uleb128 0x2
GAS LISTING C:\Users\PRESID~1\AppData\Local\Temp\ccrN058O.s 			page 90


 3086 1a32 5F6F735F 		.ascii "_os_firstinc_h_ \0"
 3086      66697273 
 3086      74696E63 
 3086      5F685F20 
 3086      00
 3087 1a43 03       		.byte	0x3
 3088 1a44 04       		.uleb128 0x4
 3089 1a45 02       		.uleb128 0x2
 3090 1a46 01       		.byte	0x1
 3091 1a47 02       		.uleb128 0x2
 3092 1a48 5F424153 		.ascii "_BASE_TYPES_H_ \0"
 3092      455F5459 
 3092      5045535F 
 3092      485F2000 
 3093 1a58 01       		.byte	0x1
 3094 1a59 04       		.uleb128 0x4
 3095 1a5a 494E5445 		.ascii "INTEGER_LLP64_IL32P64 1\0"
 3095      4745525F 
 3095      4C4C5036 
 3095      345F494C 
 3095      33325036 
 3096 1a72 01       		.byte	0x1
 3097 1a73 05       		.uleb128 0x5
 3098 1a74 494E5445 		.ascii "INTEGER_LP64_I32LP64 2\0"
 3098      4745525F 
 3098      4C503634 
 3098      5F493332 
 3098      4C503634 
 3099 1a8b 01       		.byte	0x1
 3100 1a8c 06       		.uleb128 0x6
 3101 1a8d 494E5445 		.ascii "INTEGER_ILP64 3\0"
 3101      4745525F 
 3101      494C5036 
 3101      34203300 
 3102 1a9d 01       		.byte	0x1
 3103 1a9e 07       		.uleb128 0x7
 3104 1a9f 494E5445 		.ascii "INTEGER_SILP64 4\0"
 3104      4745525F 
 3104      53494C50 
 3104      36342034 
 3104      00
 3105 1ab0 01       		.byte	0x1
 3106 1ab1 09       		.uleb128 0x9
 3107 1ab2 4350505F 		.ascii "CPP_VERSION_NONE 0\0"
 3107      56455253 
 3107      494F4E5F 
 3107      4E4F4E45 
 3107      203000
 3108 1ac5 01       		.byte	0x1
 3109 1ac6 0A       		.uleb128 0xa
 3110 1ac7 4350505F 		.ascii "CPP_VERSION_1998 1\0"
 3110      56455253 
 3110      494F4E5F 
 3110      31393938 
 3110      203100
 3111 1ada 01       		.byte	0x1
 3112 1adb 0B       		.uleb128 0xb
GAS LISTING C:\Users\PRESID~1\AppData\Local\Temp\ccrN058O.s 			page 91


 3113 1adc 4350505F 		.ascii "CPP_VERSION_2003 2\0"
 3113      56455253 
 3113      494F4E5F 
 3113      32303033 
 3113      203200
 3114 1aef 01       		.byte	0x1
 3115 1af0 0C       		.uleb128 0xc
 3116 1af1 4350505F 		.ascii "CPP_VERSION_2007 3\0"
 3116      56455253 
 3116      494F4E5F 
 3116      32303037 
 3116      203300
 3117 1b04 01       		.byte	0x1
 3118 1b05 0D       		.uleb128 0xd
 3119 1b06 4350505F 		.ascii "CPP_VERSION_2011 4\0"
 3119      56455253 
 3119      494F4E5F 
 3119      32303131 
 3119      203400
 3120 1b19 01       		.byte	0x1
 3121 1b1a 0E       		.uleb128 0xe
 3122 1b1b 49534F5F 		.ascii "ISO_CPP_VERSION CPP_VERSION_1998\0"
 3122      4350505F 
 3122      56455253 
 3122      494F4E20 
 3122      4350505F 
 3123 1b3c 01       		.byte	0x1
 3124 1b3d 10       		.uleb128 0x10
 3125 1b3e 494E5445 		.ascii "INTEGER_MODEL INTEGER_LLP64_IL32P64\0"
 3125      4745525F 
 3125      4D4F4445 
 3125      4C20494E 
 3125      54454745 
 3126 1b62 04       		.byte	0x4
 3127 1b63 03       		.byte	0x3
 3128 1b64 05       		.uleb128 0x5
 3129 1b65 03       		.uleb128 0x3
 3130 1b66 01       		.byte	0x1
 3131 1b67 02       		.uleb128 0x2
 3132 1b68 5F6F735F 		.ascii "_os_common_h_ \0"
 3132      636F6D6D 
 3132      6F6E5F68 
 3132      5F2000
 3133 1b77 01       		.byte	0x1
 3134 1b78 06       		.uleb128 0x6
 3135 1b79 46616C73 		.ascii "False 0\0"
 3135      65203000 
 3136 1b81 01       		.byte	0x1
 3137 1b82 07       		.uleb128 0x7
 3138 1b83 54727565 		.ascii "True 1\0"
 3138      203100
 3139 1b8a 01       		.byte	0x1
 3140 1b8b 08       		.uleb128 0x8
 3141 1b8c 46414C53 		.ascii "FALSE False\0"
 3141      45204661 
 3141      6C736500 
 3142 1b98 01       		.byte	0x1
GAS LISTING C:\Users\PRESID~1\AppData\Local\Temp\ccrN058O.s 			page 92


 3143 1b99 09       		.uleb128 0x9
 3144 1b9a 54525545 		.ascii "TRUE True\0"
 3144      20547275 
 3144      6500
 3145 1ba4 01       		.byte	0x1
 3146 1ba5 0A       		.uleb128 0xa
 3147 1ba6 41636365 		.ascii "Accepted 1\0"
 3147      70746564 
 3147      203100
 3148 1bb1 01       		.byte	0x1
 3149 1bb2 0B       		.uleb128 0xb
 3150 1bb3 52656A65 		.ascii "Rejected 0\0"
 3150      63746564 
 3150      203000
 3151 1bbe 01       		.byte	0x1
 3152 1bbf 0C       		.uleb128 0xc
 3153 1bc0 4C6F6361 		.ascii "Local static\0"
 3153      6C207374 
 3153      61746963 
 3153      00
 3154 1bcd 01       		.byte	0x1
 3155 1bce 0D       		.uleb128 0xd
 3156 1bcf 4C6F6361 		.ascii "Local_inline static __inline__\0"
 3156      6C5F696E 
 3156      6C696E65 
 3156      20737461 
 3156      74696320 
 3157 1bee 01       		.byte	0x1
 3158 1bef 0E       		.uleb128 0xe
 3159 1bf0 476C6F62 		.ascii "Global_inline __inline__\0"
 3159      616C5F69 
 3159      6E6C696E 
 3159      65205F5F 
 3159      696E6C69 
 3160 1c09 01       		.byte	0x1
 3161 1c0a 0F       		.uleb128 0xf
 3162 1c0b 52656665 		.ascii "ReferenceUnusedParameter(x) ((x) = (x))\0"
 3162      72656E63 
 3162      65556E75 
 3162      73656450 
 3162      6172616D 
 3163 1c33 01       		.byte	0x1
 3164 1c34 12       		.uleb128 0x12
 3165 1c35 634D4355 		.ascii "cMCU_X86 3\0"
 3165      5F583836 
 3165      203300
 3166 1c40 01       		.byte	0x1
 3167 1c41 13       		.uleb128 0x13
 3168 1c42 634D4355 		.ascii "cMCU_CORTEX_M4 4\0"
 3168      5F434F52 
 3168      5445585F 
 3168      4D342034 
 3168      00
 3169 1c53 01       		.byte	0x1
 3170 1c54 16       		.uleb128 0x16
 3171 1c55 4E525F4F 		.ascii "NR_OF_CORES 1\0"
 3171      465F434F 
GAS LISTING C:\Users\PRESID~1\AppData\Local\Temp\ccrN058O.s 			page 93


 3171      52455320 
 3171      3100
 3172 1c63 01       		.byte	0x1
 3173 1c64 18       		.uleb128 0x18
 3174 1c65 4D43555F 		.ascii "MCU_CLOCK_IN_HZ ((uint32)168000000u)\0"
 3174      434C4F43 
 3174      4B5F494E 
 3174      5F485A20 
 3174      28287569 
 3175 1c8a 01       		.byte	0x1
 3176 1c8b 1C       		.uleb128 0x1c
 3177 1c8c 44697361 		.ascii "DisableInterrupts() \0"
 3177      626C6549 
 3177      6E746572 
 3177      72757074 
 3177      73282920 
 3178 1ca1 01       		.byte	0x1
 3179 1ca2 1D       		.uleb128 0x1d
 3180 1ca3 456E6162 		.ascii "EnableInterrupts() \0"
 3180      6C65496E 
 3180      74657272 
 3180      75707473 
 3180      28292000 
 3181 1cb7 01       		.byte	0x1
 3182 1cb8 1E       		.uleb128 0x1e
 3183 1cb9 50726976 		.ascii "Privilige_level_save_current() \0"
 3183      696C6967 
 3183      655F6C65 
 3183      76656C5F 
 3183      73617665 
 3184 1cd9 01       		.byte	0x1
 3185 1cda 1F       		.uleb128 0x1f
 3186 1cdb 50726976 		.ascii "Privilige_level_enter_kernel_mode() \0"
 3186      696C6967 
 3186      655F6C65 
 3186      76656C5F 
 3186      656E7465 
 3187 1d00 01       		.byte	0x1
 3188 1d01 20       		.uleb128 0x20
 3189 1d02 50726976 		.ascii "Privilige_level_restore_saved() \0"
 3189      696C6967 
 3189      655F6C65 
 3189      76656C5F 
 3189      72657374 
 3190 1d23 01       		.byte	0x1
 3191 1d24 21       		.uleb128 0x21
 3192 1d25 48616C74 		.ascii "HaltMcu() \0"
 3192      4D637528 
 3192      292000
 3193 1d30 04       		.byte	0x4
 3194 1d31 03       		.byte	0x3
 3195 1d32 07       		.uleb128 0x7
 3196 1d33 08       		.uleb128 0x8
 3197 1d34 01       		.byte	0x1
 3198 1d35 02       		.uleb128 0x2
 3199 1d36 5F4F535F 		.ascii "_OS_RAM_H_ \0"
 3199      52414D5F 
GAS LISTING C:\Users\PRESID~1\AppData\Local\Temp\ccrN058O.s 			page 94


 3199      485F2000 
 3200              		.file 10 "E:/NeuOrga/Programmieren/c_cpp/github_os/input/src/os_base/../os_base/os_firstinc.h"
 3201 1d42 03       		.byte	0x3
 3202 1d43 04       		.uleb128 0x4
 3203 1d44 0A       		.uleb128 0xa
 3204 1d45 04       		.byte	0x4
 3205              		.file 11 "E:/NeuOrga/Programmieren/c_cpp/github_os/input/src/os_base/../os_base/os_stack.h"
 3206 1d46 03       		.byte	0x3
 3207 1d47 05       		.uleb128 0x5
 3208 1d48 0B       		.uleb128 0xb
 3209 1d49 01       		.byte	0x1
 3210 1d4a 02       		.uleb128 0x2
 3211 1d4b 5F6F735F 		.ascii "_os_stack_h_ \0"
 3211      73746163 
 3211      6B5F685F 
 3211      2000
 3212 1d59 01       		.byte	0x1
 3213 1d5a 04       		.uleb128 0x4
 3214 1d5b 4F535F53 		.ascii "OS_STACK_SIZE 0x100\0"
 3214      5441434B 
 3214      5F53495A 
 3214      45203078 
 3214      31303000 
 3215 1d6f 01       		.byte	0x1
 3216 1d70 06       		.uleb128 0x6
 3217 1d71 4F535F53 		.ascii "OS_STACK_SIZE_END 0x01u\0"
 3217      5441434B 
 3217      5F53495A 
 3217      455F454E 
 3217      44203078 
 3218 1d89 04       		.byte	0x4
 3219              		.file 12 "E:/NeuOrga/Programmieren/c_cpp/github_os/input/src/os_base/../os_base/os_heap.h"
 3220 1d8a 03       		.byte	0x3
 3221 1d8b 06       		.uleb128 0x6
 3222 1d8c 0C       		.uleb128 0xc
 3223 1d8d 01       		.byte	0x1
 3224 1d8e 02       		.uleb128 0x2
 3225 1d8f 5F6F735F 		.ascii "_os_heap_h_ \0"
 3225      68656170 
 3225      5F685F20 
 3225      00
 3226 1d9c 01       		.byte	0x1
 3227 1d9d 05       		.uleb128 0x5
 3228 1d9e 48454150 		.ascii "HEAP_SIZE 10000\0"
 3228      5F53495A 
 3228      45203130 
 3228      30303000 
 3229 1dae 01       		.byte	0x1
 3230 1daf 06       		.uleb128 0x6
 3231 1db0 4D494E5F 		.ascii "MIN_BLOCK_SIZE_HEAP 8\0"
 3231      424C4F43 
 3231      4B5F5349 
 3231      5A455F48 
 3231      45415020 
 3232 1dc6 01       		.byte	0x1
 3233 1dc7 09       		.uleb128 0x9
 3234 1dc8 48454150 		.ascii "HEAP_OFFSET_FOR_SIZE 0\0"
GAS LISTING C:\Users\PRESID~1\AppData\Local\Temp\ccrN058O.s 			page 95


 3234      5F4F4646 
 3234      5345545F 
 3234      464F525F 
 3234      53495A45 
 3235 1ddf 01       		.byte	0x1
 3236 1de0 0A       		.uleb128 0xa
 3237 1de1 48454150 		.ascii "HEAP_OFFSET_FOR_USED_SIZE 4\0"
 3237      5F4F4646 
 3237      5345545F 
 3237      464F525F 
 3237      55534544 
 3238 1dfd 01       		.byte	0x1
 3239 1dfe 0B       		.uleb128 0xb
 3240 1dff 48454150 		.ascii "HEAP_OFFSET_FOR_CHUNK 8\0"
 3240      5F4F4646 
 3240      5345545F 
 3240      464F525F 
 3240      4348554E 
 3241 1e17 04       		.byte	0x4
 3242              		.file 13 "E:/NeuOrga/Programmieren/c_cpp/github_os/input/src/os_base/../os_base/os_main.h"
 3243 1e18 03       		.byte	0x3
 3244 1e19 07       		.uleb128 0x7
 3245 1e1a 0D       		.uleb128 0xd
 3246 1e1b 01       		.byte	0x1
 3247 1e1c 02       		.uleb128 0x2
 3248 1e1d 5F6F735F 		.ascii "_os_main_h_ \0"
 3248      6D61696E 
 3248      5F685F20 
 3248      00
 3249 1e2a 01       		.byte	0x1
 3250 1e2b 03       		.uleb128 0x3
 3251 1e2c 6F735F69 		.ascii "os_init 0\0"
 3251      6E697420 
 3251      3000
 3252 1e36 01       		.byte	0x1
 3253 1e37 04       		.uleb128 0x4
 3254 1e38 6F735F72 		.ascii "os_running 1\0"
 3254      756E6E69 
 3254      6E672031 
 3254      00
 3255 1e45 01       		.byte	0x1
 3256 1e46 05       		.uleb128 0x5
 3257 1e47 6F735F73 		.ascii "os_shutdown 2\0"
 3257      68757464 
 3257      6F776E20 
 3257      3200
 3258 1e55 04       		.byte	0x4
 3259 1e56 04       		.byte	0x4
 3260              		.file 14 "E:/NeuOrga/Programmieren/c_cpp/github_os/input/src/os_base/../os_sim/lld_global.h"
 3261 1e57 03       		.byte	0x3
 3262 1e58 0A       		.uleb128 0xa
 3263 1e59 0E       		.uleb128 0xe
 3264 1e5a 01       		.byte	0x1
 3265 1e5b 02       		.uleb128 0x2
 3266 1e5c 5F6C6C64 		.ascii "_lld_global_h_ \0"
 3266      5F676C6F 
 3266      62616C5F 
GAS LISTING C:\Users\PRESID~1\AppData\Local\Temp\ccrN058O.s 			page 96


 3266      685F2000 
 3267 1e6c 03       		.byte	0x3
 3268 1e6d 04       		.uleb128 0x4
 3269 1e6e 04       		.uleb128 0x4
 3270 1e6f 01       		.byte	0x1
 3271 1e70 02       		.uleb128 0x2
 3272 1e71 5F6C6C64 		.ascii "_lld_core_h_ \0"
 3272      5F636F72 
 3272      655F685F 
 3272      2000
 3273              		.file 15 "E:/NeuOrga/Programmieren/c_cpp/github_os/input/src/os_base/../os_sim/../os_base/os_first
 3274 1e7f 03       		.byte	0x3
 3275 1e80 03       		.uleb128 0x3
 3276 1e81 0F       		.uleb128 0xf
 3277 1e82 04       		.byte	0x4
 3278 1e83 04       		.byte	0x4
 3279              		.file 16 "E:/NeuOrga/Programmieren/c_cpp/github_os/input/src/os_base/../os_sim/lld_interrupt.h"
 3280 1e84 03       		.byte	0x3
 3281 1e85 05       		.uleb128 0x5
 3282 1e86 10       		.uleb128 0x10
 3283 1e87 01       		.byte	0x1
 3284 1e88 02       		.uleb128 0x2
 3285 1e89 5F6C6C64 		.ascii "_lld_interrupt_h_ \0"
 3285      5F696E74 
 3285      65727275 
 3285      70745F68 
 3285      5F2000
 3286 1e9c 01       		.byte	0x1
 3287 1e9d 05       		.uleb128 0x5
 3288 1e9e 6F735F69 		.ascii "os_interrupt_swi_1 asm(\"swi 1\")\0"
 3288      6E746572 
 3288      72757074 
 3288      5F737769 
 3288      5F312061 
 3289 1ebe 01       		.byte	0x1
 3290 1ebf 06       		.uleb128 0x6
 3291 1ec0 6F735F69 		.ascii "os_interrupt_swi_2 asm(\"swi 2\")\0"
 3291      6E746572 
 3291      72757074 
 3291      5F737769 
 3291      5F322061 
 3292 1ee0 01       		.byte	0x1
 3293 1ee1 07       		.uleb128 0x7
 3294 1ee2 6F735F69 		.ascii "os_interrupt_swi_3 asm(\"swi 3\")\0"
 3294      6E746572 
 3294      72757074 
 3294      5F737769 
 3294      5F332061 
 3295 1f02 01       		.byte	0x1
 3296 1f03 08       		.uleb128 0x8
 3297 1f04 6F735F69 		.ascii "os_interrupt_swi_4 asm(\"swi 4\")\0"
 3297      6E746572 
 3297      72757074 
 3297      5F737769 
 3297      5F342061 
 3298 1f24 01       		.byte	0x1
 3299 1f25 09       		.uleb128 0x9
GAS LISTING C:\Users\PRESID~1\AppData\Local\Temp\ccrN058O.s 			page 97


 3300 1f26 6F735F69 		.ascii "os_interrupt_swi_5 asm(\"swi 5\")\0"
 3300      6E746572 
 3300      72757074 
 3300      5F737769 
 3300      5F352061 
 3301 1f46 04       		.byte	0x4
 3302              		.file 17 "E:/NeuOrga/Programmieren/c_cpp/github_os/input/src/os_base/../os_sim/lld_mmu.h"
 3303 1f47 03       		.byte	0x3
 3304 1f48 06       		.uleb128 0x6
 3305 1f49 11       		.uleb128 0x11
 3306 1f4a 01       		.byte	0x1
 3307 1f4b 02       		.uleb128 0x2
 3308 1f4c 5F6C6C64 		.ascii "_lld_mmu_h_ \0"
 3308      5F6D6D75 
 3308      5F685F20 
 3308      00
 3309 1f59 04       		.byte	0x4
 3310              		.file 18 "E:/NeuOrga/Programmieren/c_cpp/github_os/input/src/os_base/../os_sim/lld_timer.h"
 3311 1f5a 03       		.byte	0x3
 3312 1f5b 07       		.uleb128 0x7
 3313 1f5c 12       		.uleb128 0x12
 3314 1f5d 01       		.byte	0x1
 3315 1f5e 02       		.uleb128 0x2
 3316 1f5f 5F6C6C64 		.ascii "_lld_timer_h_ \0"
 3316      5F74696D 
 3316      65725F68 
 3316      5F2000
 3317 1f6e 04       		.byte	0x4
 3318              		.file 19 "E:/NeuOrga/Programmieren/c_cpp/github_os/input/src/os_base/../os_sim/lld_power.h"
 3319 1f6f 03       		.byte	0x3
 3320 1f70 08       		.uleb128 0x8
 3321 1f71 13       		.uleb128 0x13
 3322 1f72 01       		.byte	0x1
 3323 1f73 02       		.uleb128 0x2
 3324 1f74 5F6C6C64 		.ascii "_lld_power_h_ \0"
 3324      5F706F77 
 3324      65725F68 
 3324      5F2000
 3325 1f83 04       		.byte	0x4
 3326              		.file 20 "E:/NeuOrga/Programmieren/c_cpp/github_os/input/src/os_base/../os_sim/lld_ram.h"
 3327 1f84 03       		.byte	0x3
 3328 1f85 09       		.uleb128 0x9
 3329 1f86 14       		.uleb128 0x14
 3330 1f87 01       		.byte	0x1
 3331 1f88 02       		.uleb128 0x2
 3332 1f89 5F6C6C64 		.ascii "_lld_ram_h_ \0"
 3332      5F72616D 
 3332      5F685F20 
 3332      00
 3333 1f96 04       		.byte	0x4
 3334 1f97 03       		.byte	0x3
 3335 1f98 0A       		.uleb128 0xa
 3336 1f99 05       		.uleb128 0x5
 3337 1f9a 01       		.byte	0x1
 3338 1f9b 02       		.uleb128 0x2
 3339 1f9c 5F6F735F 		.ascii "_os_task_common_h_ \0"
 3339      7461736B 
GAS LISTING C:\Users\PRESID~1\AppData\Local\Temp\ccrN058O.s 			page 98


 3339      5F636F6D 
 3339      6D6F6E5F 
 3339      685F2000 
 3340 1fb0 03       		.byte	0x3
 3341 1fb1 03       		.uleb128 0x3
 3342 1fb2 0F       		.uleb128 0xf
 3343 1fb3 04       		.byte	0x4
 3344              		.file 21 "E:/NeuOrga/Programmieren/c_cpp/github_os/input/src/os_base/../os_sim/../os_base/os_task_
 3345 1fb4 03       		.byte	0x3
 3346 1fb5 04       		.uleb128 0x4
 3347 1fb6 15       		.uleb128 0x15
 3348 1fb7 01       		.byte	0x1
 3349 1fb8 02       		.uleb128 0x2
 3350 1fb9 5F6F735F 		.ascii "_os_task_config_h_ \0"
 3350      7461736B 
 3350      5F636F6E 
 3350      6669675F 
 3350      685F2000 
 3351 1fcd 01       		.byte	0x1
 3352 1fce 05       		.uleb128 0x5
 3353 1fcf 53636865 		.ascii "SchedulerFrequency (1.0e3)\0"
 3353      64756C65 
 3353      72467265 
 3353      7175656E 
 3353      63792028 
 3354 1fea 01       		.byte	0x1
 3355 1feb 06       		.uleb128 0x6
 3356 1fec 4D696E54 		.ascii "MinTimeSlice_s (1.0/SchedulerFrequency)\0"
 3356      696D6553 
 3356      6C696365 
 3356      5F732028 
 3356      312E302F 
 3357 2014 01       		.byte	0x1
 3358 2015 07       		.uleb128 0x7
 3359 2016 4D696E54 		.ascii "MinTimeSlice_us ((1.0/SchedulerFrequency)*1e6)\0"
 3359      696D6553 
 3359      6C696365 
 3359      5F757320 
 3359      2828312E 
 3360 2045 01       		.byte	0x1
 3361 2046 08       		.uleb128 0x8
 3362 2047 5461736B 		.ascii "Task_min_time (1e0)\0"
 3362      5F6D696E 
 3362      5F74696D 
 3362      65202831 
 3362      65302900 
 3363 205b 01       		.byte	0x1
 3364 205c 09       		.uleb128 0x9
 3365 205d 4E554D42 		.ascii "NUMBER_OF_TASKS 5\0"
 3365      45525F4F 
 3365      465F5441 
 3365      534B5320 
 3365      3500
 3366 206f 01       		.byte	0x1
 3367 2070 0A       		.uleb128 0xa
 3368 2071 4D41585F 		.ascii "MAX_RUN_QUEUE_SIZE (NUMBER_OF_TASKS)\0"
 3368      52554E5F 
GAS LISTING C:\Users\PRESID~1\AppData\Local\Temp\ccrN058O.s 			page 99


 3368      51554555 
 3368      455F5349 
 3368      5A452028 
 3369 2096 01       		.byte	0x1
 3370 2097 0B       		.uleb128 0xb
 3371 2098 4D41585F 		.ascii "MAX_RUN_PQUEUE_SIZE MAX_RUN_QUEUE_SIZE\0"
 3371      52554E5F 
 3371      50515545 
 3371      55455F53 
 3371      495A4520 
 3372 20bf 01       		.byte	0x1
 3373 20c0 0D       		.uleb128 0xd
 3374 20c1 5441534B 		.ascii "TASK_STACK_SIZE 200\0"
 3374      5F535441 
 3374      434B5F53 
 3374      495A4520 
 3374      32303000 
 3375 20d5 01       		.byte	0x1
 3376 20d6 10       		.uleb128 0x10
 3377 20d7 4D535F50 		.ascii "MS_PER_SEC (1000)\0"
 3377      45525F53 
 3377      45432028 
 3377      31303030 
 3377      2900
 3378 20e9 01       		.byte	0x1
 3379 20ea 11       		.uleb128 0x11
 3380 20eb 5553455F 		.ascii "USE_STATIC_CREATED_TASKS True\0"
 3380      53544154 
 3380      49435F43 
 3380      52454154 
 3380      45445F54 
 3381 2109 04       		.byte	0x4
 3382              		.file 22 "E:/NeuOrga/Programmieren/c_cpp/github_os/input/src/os_base/../os_sim/../os_base/os_init_
 3383 210a 03       		.byte	0x3
 3384 210b 05       		.uleb128 0x5
 3385 210c 16       		.uleb128 0x16
 3386 210d 01       		.byte	0x1
 3387 210e 02       		.uleb128 0x2
 3388 210f 5F6F735F 		.ascii "_os_init_task_system_h_ \0"
 3388      696E6974 
 3388      5F746173 
 3388      6B5F7379 
 3388      7374656D 
 3389 2128 04       		.byte	0x4
 3390 2129 01       		.byte	0x1
 3391 212a 5D       		.uleb128 0x5d
 3392 212b 6F735F53 		.ascii "os_SaveTaskPtr(task_ptr,task_name) (TASK_PTR[(task_name)] = (task_ptr))\0"
 3392      61766554 
 3392      61736B50 
 3392      74722874 
 3392      61736B5F 
 3393 2173 01       		.byte	0x1
 3394 2174 5E       		.uleb128 0x5e
 3395 2175 6F735F47 		.ascii "os_GetTaskPtr(task_name) ((task_t*) TASK_PTR[(task_name)])\0"
 3395      65745461 
 3395      736B5074 
 3395      72287461 
GAS LISTING C:\Users\PRESID~1\AppData\Local\Temp\ccrN058O.s 			page 100


 3395      736B5F6E 
 3396 21b0 04       		.byte	0x4
 3397 21b1 04       		.byte	0x4
 3398              		.file 23 "E:/NeuOrga/Programmieren/c_cpp/github_os/input/src/os_base/../os_user_code/led.h"
 3399 21b2 03       		.byte	0x3
 3400 21b3 0E       		.uleb128 0xe
 3401 21b4 17       		.uleb128 0x17
 3402 21b5 01       		.byte	0x1
 3403 21b6 02       		.uleb128 0x2
 3404 21b7 5F4C4544 		.ascii "_LED_H_ \0"
 3404      5F485F20 
 3404      00
 3405 21c0 04       		.byte	0x4
 3406 21c1 04       		.byte	0x4
 3407              		.file 24 "E:/NeuOrga/Programmieren/c_cpp/github_os/input/src/os_base/os_common.h"
 3408 21c2 03       		.byte	0x3
 3409 21c3 02       		.uleb128 0x2
 3410 21c4 18       		.uleb128 0x18
 3411 21c5 04       		.byte	0x4
 3412              		.file 25 "E:/NeuOrga/Programmieren/c_cpp/github_os/input/src/os_base/os_task_common.h"
 3413 21c6 03       		.byte	0x3
 3414 21c7 03       		.uleb128 0x3
 3415 21c8 19       		.uleb128 0x19
 3416 21c9 04       		.byte	0x4
 3417 21ca 03       		.byte	0x3
 3418 21cb 04       		.uleb128 0x4
 3419 21cc 06       		.uleb128 0x6
 3420 21cd 01       		.byte	0x1
 3421 21ce 02       		.uleb128 0x2
 3422 21cf 5F6F735F 		.ascii "_os_task_scheduler_h_ \0"
 3422      7461736B 
 3422      5F736368 
 3422      6564756C 
 3422      65725F68 
 3423 21e6 01       		.byte	0x1
 3424 21e7 07       		.uleb128 0x7
 3425 21e8 5461736B 		.ascii "Task_0_ptr 0\0"
 3425      5F305F70 
 3425      74722030 
 3425      00
 3426 21f5 01       		.byte	0x1
 3427 21f6 08       		.uleb128 0x8
 3428 21f7 5461736B 		.ascii "Task_1_ptr 1\0"
 3428      5F315F70 
 3428      74722031 
 3428      00
 3429 2204 01       		.byte	0x1
 3430 2205 09       		.uleb128 0x9
 3431 2206 5461736B 		.ascii "Task_2_ptr 2\0"
 3431      5F325F70 
 3431      74722032 
 3431      00
 3432 2213 01       		.byte	0x1
 3433 2214 0A       		.uleb128 0xa
 3434 2215 5461736B 		.ascii "Task_3_ptr 3\0"
 3434      5F335F70 
 3434      74722033 
GAS LISTING C:\Users\PRESID~1\AppData\Local\Temp\ccrN058O.s 			page 101


 3434      00
 3435 2222 01       		.byte	0x1
 3436 2223 0C       		.uleb128 0xc
 3437 2224 4F535F53 		.ascii "OS_SaveTaskPtr(task_ptr,Task_n_ptr) \0"
 3437      61766554 
 3437      61736B50 
 3437      74722874 
 3437      61736B5F 
 3438 2249 04       		.byte	0x4
 3439 224a 03       		.byte	0x3
 3440 224b 05       		.uleb128 0x5
 3441 224c 07       		.uleb128 0x7
 3442 224d 01       		.byte	0x1
 3443 224e 02       		.uleb128 0x2
 3444 224f 5F6F735F 		.ascii "_os_task_queue_h_ \0"
 3444      7461736B 
 3444      5F717565 
 3444      75655F68 
 3444      5F2000
 3445 2262 01       		.byte	0x1
 3446 2263 06       		.uleb128 0x6
 3447 2264 46697273 		.ascii "First_task (0)\0"
 3447      745F7461 
 3447      736B2028 
 3447      302900
 3448 2273 01       		.byte	0x1
 3449 2274 07       		.uleb128 0x7
 3450 2275 4C617374 		.ascii "Last_task (MAX_RUN_QUEUE_SIZE-1)\0"
 3450      5F746173 
 3450      6B20284D 
 3450      41585F52 
 3450      554E5F51 
 3451 2296 01       		.byte	0x1
 3452 2297 09       		.uleb128 0x9
 3453 2298 466F725F 		.ascii "For_all_tasks_in_queue(var) for((var) = First_task; (var) <= Last_task; (var)++)\0"
 3453      616C6C5F 
 3453      7461736B 
 3453      735F696E 
 3453      5F717565 
 3454 22e9 04       		.byte	0x4
 3455              		.file 26 "E:/NeuOrga/Programmieren/c_cpp/github_os/input/src/os_base/os_stack.h"
 3456 22ea 03       		.byte	0x3
 3457 22eb 06       		.uleb128 0x6
 3458 22ec 1A       		.uleb128 0x1a
 3459 22ed 04       		.byte	0x4
 3460 22ee 01       		.byte	0x1
 3461 22ef 23       		.uleb128 0x23
 3462 22f0 53595354 		.ascii "SYSTICK_CTRL_STAT_REG ((uint32*)0xE000E010)\0"
 3462      49434B5F 
 3462      4354524C 
 3462      5F535441 
 3462      545F5245 
 3463 231c 01       		.byte	0x1
 3464 231d 24       		.uleb128 0x24
 3465 231e 53595354 		.ascii "SYSTICK_RLD_VAL_REG ((uint32*)0xE000E014)\0"
 3465      49434B5F 
 3465      524C445F 
GAS LISTING C:\Users\PRESID~1\AppData\Local\Temp\ccrN058O.s 			page 102


 3465      56414C5F 
 3465      52454720 
 3466 2348 01       		.byte	0x1
 3467 2349 25       		.uleb128 0x25
 3468 234a 53595354 		.ascii "SYSTICK_CURRENT_VAL_REG ((uint32*)0xE000E018)\0"
 3468      49434B5F 
 3468      43555252 
 3468      454E545F 
 3468      56414C5F 
 3469 2378 01       		.byte	0x1
 3470 2379 26       		.uleb128 0x26
 3471 237a 53595354 		.ascii "SYSTICK_STAT_REG_TICKINT ((uint32)0x00000002)\0"
 3471      49434B5F 
 3471      53544154 
 3471      5F524547 
 3471      5F544943 
 3472 23a8 01       		.byte	0x1
 3473 23a9 27       		.uleb128 0x27
 3474 23aa 53595354 		.ascii "SYSTICK_STAT_REG_ENABLE ((uint32)0x00000001)\0"
 3474      49434B5F 
 3474      53544154 
 3474      5F524547 
 3474      5F454E41 
 3475 23d7 01       		.byte	0x1
 3476 23d8 28       		.uleb128 0x28
 3477 23d9 4C4F4F50 		.ascii "LOOPTIME_IN_USEC ((uint32)10000u)\0"
 3477      54494D45 
 3477      5F494E5F 
 3477      55534543 
 3477      20282875 
 3478 23fb 04       		.byte	0x4
 3479 23fc 00       		.byte	0
 3480              		.section	.debug_line,"dr"
 3481              	Ldebug_line0:
 3482 0000 83040000 		.section	.debug_str,"dr"
 3482      02002203 
 3482      00000101 
 3482      FB0E0D00 
 3482      01010101 
 3483              	LASF1:
 3484 0000 7461736B 		.ascii "task\0"
 3484      00
 3485              	LASF2:
 3486 0005 7461736B 		.ascii "task_ptr\0"
 3486      5F707472 
 3486      00
 3487              	LASF0:
 3488 000e 6578655F 		.ascii "exe_time\0"
 3488      74696D65 
 3488      00
 3489              		.ident	"GCC: (GNU) 4.9.3"
GAS LISTING C:\Users\PRESID~1\AppData\Local\Temp\ccrN058O.s 			page 103


DEFINED SYMBOLS
                            *ABS*:00000000 os_task_scheduler.c
C:\Users\PRESID~1\AppData\Local\Temp\ccrN058O.s:4      .bss:00000000 _TASK_STACK
C:\Users\PRESID~1\AppData\Local\Temp\ccrN058O.s:5      .bss:000003e8 _LAST_CURRENT_TIME
C:\Users\PRESID~1\AppData\Local\Temp\ccrN058O.s:8      .text:00000000 _OS_ACTIVATE_DISPATCHER
C:\Users\PRESID~1\AppData\Local\Temp\ccrN058O.s:27     .text:00000005 _OS_SLEEPTASK
C:\Users\PRESID~1\AppData\Local\Temp\ccrN058O.s:53     .text:0000001f _task_state_request
C:\Users\PRESID~1\AppData\Local\Temp\ccrN058O.s:199    .text:00000116 _OS_ActivateTask
C:\Users\PRESID~1\AppData\Local\Temp\ccrN058O.s:297    .text:000001d4 _OS_STARTTASK
C:\Users\PRESID~1\AppData\Local\Temp\ccrN058O.s:405    .text:000002cb _OS_TERMINATE_TASK
C:\Users\PRESID~1\AppData\Local\Temp\ccrN058O.s:487    .text:00000385 _OS_TASK_DISPATCHER
C:\Users\PRESID~1\AppData\Local\Temp\ccrN058O.s:525    .text:000003c0 _TASK_0
C:\Users\PRESID~1\AppData\Local\Temp\ccrN058O.s:542    .text:000003c5 _TASK_1
C:\Users\PRESID~1\AppData\Local\Temp\ccrN058O.s:565    .text:000003e0 _TASK_2
C:\Users\PRESID~1\AppData\Local\Temp\ccrN058O.s:582    .text:000003e5 _TASK_3
C:\Users\PRESID~1\AppData\Local\Temp\ccrN058O.s:600    .text:000003ea _OS_INIT_TASKS
C:\Users\PRESID~1\AppData\Local\Temp\ccrN058O.s:925    .bss:00000420 _task_0.1366
C:\Users\PRESID~1\AppData\Local\Temp\ccrN058O.s:920    .bss:000003ec _TASK_GROUP_1.1370
C:\Users\PRESID~1\AppData\Local\Temp\ccrN058O.s:926    .bss:000004a0 _task_1.1367
C:\Users\PRESID~1\AppData\Local\Temp\ccrN058O.s:927    .bss:00000520 _task_2.1368
C:\Users\PRESID~1\AppData\Local\Temp\ccrN058O.s:921    .bss:000003f4 _TASK_GROUP_2.1371
C:\Users\PRESID~1\AppData\Local\Temp\ccrN058O.s:928    .bss:000005a0 _task_3.1369
C:\Users\PRESID~1\AppData\Local\Temp\ccrN058O.s:922    .bss:000003fc _TASK_GROUP_3.1372
C:\Users\PRESID~1\AppData\Local\Temp\ccrN058O.s:689    .text:0000057b _OS_TaskScheduler
C:\Users\PRESID~1\AppData\Local\Temp\ccrN058O.s:929    .bss:00000604 _link_list_member.1382
C:\Users\PRESID~1\AppData\Local\Temp\ccrN058O.s:930    .bss:00000608 _task.1379
C:\Users\PRESID~1\AppData\Local\Temp\ccrN058O.s:930    .bss:0000060c _Winner_prio.1380
C:\Users\PRESID~1\AppData\Local\Temp\ccrN058O.s:901    .text:00000789 _ISR_TASK_DISPATCH_C0
C:\Users\PRESID~1\AppData\Local\Temp\ccrN058O.s:923    .bss:00000404 _TASK_GROUP_4.1373
C:\Users\PRESID~1\AppData\Local\Temp\ccrN058O.s:924    .bss:0000040c _TASK_GROUP_5.1374

UNDEFINED SYMBOLS
_OS_STACK
_Get_current_time
_OS_SET_SW_BUG
_AddToTaskQueue
_AddToLinkList
_UpdateLinkList
_AddToIdleTaskQueue
_GET_CORE_ID
_OS_TASK_SAVE_SYSTEM_STACK
_OS_TASK_RESTORETASK_ENVIRONMENT
_SET_RUNNING_TASK
_LLF_CHANGE_TO_UNPRIVILIGED_THREAD_MODE
_OS_TASK_SAVETASK_ENVIRONMENT
_OS_TASK_RESTORE_SYSTEM_STACK
_GetRunningTask
_OS_INIT_TASK_QUEUE
_OS_INIT_TASK
_GetFromLinkList
_GetFromTaskQueue
_GetIdleTask
