GAS LISTING C:\Users\PRESID~1\AppData\Local\Temp\ccdWwDHD.s 			page 1


   1              		.file	"os_task_scheduler.c"
   2              		.text
   3              	Ltext0:
   4              		.globl	_OS_ActivateDispatcher
   6              	_OS_ActivateDispatcher:
   7              	LFB0:
   8              		.file 1 "E:/NeuOrga/Programmieren/c_cpp/github_os/input/src/os_base/os_task_scheduler.c"
   1:E:/NeuOrga/Programmieren/c_cpp/github_os/input/src/os_base\os_task_scheduler.c **** #include "os_firstinc.h"
   2:E:/NeuOrga/Programmieren/c_cpp/github_os/input/src/os_base\os_task_scheduler.c **** #include "os_common.h"
   3:E:/NeuOrga/Programmieren/c_cpp/github_os/input/src/os_base\os_task_scheduler.c **** #include "os_task_common.h"
   4:E:/NeuOrga/Programmieren/c_cpp/github_os/input/src/os_base\os_task_scheduler.c **** #include "os_task_scheduler.h"
   5:E:/NeuOrga/Programmieren/c_cpp/github_os/input/src/os_base\os_task_scheduler.c **** #include "os_task_queue.h"
   6:E:/NeuOrga/Programmieren/c_cpp/github_os/input/src/os_base\os_task_scheduler.c **** #include "os_stack.h"
   7:E:/NeuOrga/Programmieren/c_cpp/github_os/input/src/os_base\os_task_scheduler.c **** 
   8:E:/NeuOrga/Programmieren/c_cpp/github_os/input/src/os_base\os_task_scheduler.c **** /*
   9:E:/NeuOrga/Programmieren/c_cpp/github_os/input/src/os_base\os_task_scheduler.c **** 1. running     --(terminate)--> suspend : delete scheduling element
  10:E:/NeuOrga/Programmieren/c_cpp/github_os/input/src/os_base\os_task_scheduler.c **** 2. running     --(preempt  )--> ready
  11:E:/NeuOrga/Programmieren/c_cpp/github_os/input/src/os_base\os_task_scheduler.c **** 3. suspend     --(activate )--> ready   : create scheduling element
  12:E:/NeuOrga/Programmieren/c_cpp/github_os/input/src/os_base\os_task_scheduler.c **** 4. ready       --(start    )--> running : use scheduling element
  13:E:/NeuOrga/Programmieren/c_cpp/github_os/input/src/os_base\os_task_scheduler.c **** 5. unspecified --(create   )--> suspend
  14:E:/NeuOrga/Programmieren/c_cpp/github_os/input/src/os_base\os_task_scheduler.c **** */
  15:E:/NeuOrga/Programmieren/c_cpp/github_os/input/src/os_base\os_task_scheduler.c **** 
  16:E:/NeuOrga/Programmieren/c_cpp/github_os/input/src/os_base\os_task_scheduler.c **** 
  17:E:/NeuOrga/Programmieren/c_cpp/github_os/input/src/os_base\os_task_scheduler.c **** Local void TASK_0(void* task_ptr);
  18:E:/NeuOrga/Programmieren/c_cpp/github_os/input/src/os_base\os_task_scheduler.c **** Local void TASK_1(void* task_ptr);
  19:E:/NeuOrga/Programmieren/c_cpp/github_os/input/src/os_base\os_task_scheduler.c **** Local void TASK_2(void* task_ptr);
  20:E:/NeuOrga/Programmieren/c_cpp/github_os/input/src/os_base\os_task_scheduler.c **** Local task_t** OS_TaskScheduler();
  21:E:/NeuOrga/Programmieren/c_cpp/github_os/input/src/os_base\os_task_scheduler.c **** Local void OS_PreemptTask(task_t* task, scheduling_t* scheduling_task);
  22:E:/NeuOrga/Programmieren/c_cpp/github_os/input/src/os_base\os_task_scheduler.c **** void OS_ActivateDispatcher(void)
  23:E:/NeuOrga/Programmieren/c_cpp/github_os/input/src/os_base\os_task_scheduler.c **** {
   9              		.loc 1 23 0
  10              		.cfi_startproc
  11 0000 55       		pushl	%ebp
  12              		.cfi_def_cfa_offset 8
  13              		.cfi_offset 5, -8
  14 0001 89E5     		movl	%esp, %ebp
  15              		.cfi_def_cfa_register 5
  24:E:/NeuOrga/Programmieren/c_cpp/github_os/input/src/os_base\os_task_scheduler.c **** 
  25:E:/NeuOrga/Programmieren/c_cpp/github_os/input/src/os_base\os_task_scheduler.c ****    /* configure the TCMP */
  26:E:/NeuOrga/Programmieren/c_cpp/github_os/input/src/os_base\os_task_scheduler.c ****    /*
  27:E:/NeuOrga/Programmieren/c_cpp/github_os/input/src/os_base\os_task_scheduler.c ****    Dispatcher function for Core 0:
  28:E:/NeuOrga/Programmieren/c_cpp/github_os/input/src/os_base\os_task_scheduler.c ****    Write Adresse into the config register (interrupts are requested by SWI/SVC???)
  29:E:/NeuOrga/Programmieren/c_cpp/github_os/input/src/os_base\os_task_scheduler.c ****    */
  30:E:/NeuOrga/Programmieren/c_cpp/github_os/input/src/os_base\os_task_scheduler.c ****    #define SYSTICK_CTRL_STAT_REG ((uint32*)0xE000E010)
  31:E:/NeuOrga/Programmieren/c_cpp/github_os/input/src/os_base\os_task_scheduler.c ****    #define SYSTICK_RLD_VAL_REG   ((uint32*)0xE000E014)
  32:E:/NeuOrga/Programmieren/c_cpp/github_os/input/src/os_base\os_task_scheduler.c ****    #define SYSTICK_CURRENT_VAL_REG ((uint32*)0xE000E018)
  33:E:/NeuOrga/Programmieren/c_cpp/github_os/input/src/os_base\os_task_scheduler.c ****    #define SYSTICK_STAT_REG_TICKINT ((uint32)0x00000002)
  34:E:/NeuOrga/Programmieren/c_cpp/github_os/input/src/os_base\os_task_scheduler.c ****    #define SYSTICK_STAT_REG_ENABLE  ((uint32)0x00000001)
  35:E:/NeuOrga/Programmieren/c_cpp/github_os/input/src/os_base\os_task_scheduler.c ****    #define LOOPTIME_IN_USEC ((uint32)10000u)
  36:E:/NeuOrga/Programmieren/c_cpp/github_os/input/src/os_base\os_task_scheduler.c ****    /*
  37:E:/NeuOrga/Programmieren/c_cpp/github_os/input/src/os_base\os_task_scheduler.c ****    CLOCK = HCLK / 8
  38:E:/NeuOrga/Programmieren/c_cpp/github_os/input/src/os_base\os_task_scheduler.c ****    vermutlich: CLOCK = 150Mhz / 8 = 18,75 Mhz
  39:E:/NeuOrga/Programmieren/c_cpp/github_os/input/src/os_base\os_task_scheduler.c ****    */
  40:E:/NeuOrga/Programmieren/c_cpp/github_os/input/src/os_base\os_task_scheduler.c ****    #if(CFG_PROCESSOR == cMCU_CORTEX_M4)
  41:E:/NeuOrga/Programmieren/c_cpp/github_os/input/src/os_base\os_task_scheduler.c ****    *SYSTICK_RLD_VAL_REG = (*SYSTICK_RLD_VAL_REG & 0xFF000000 )| (((uint32)MCU_CLOCK_IN_HZ / ((uint3
  42:E:/NeuOrga/Programmieren/c_cpp/github_os/input/src/os_base\os_task_scheduler.c ****    *SYSTICK_CURRENT_VAL_REG = ((uint32)0x00000000);
  43:E:/NeuOrga/Programmieren/c_cpp/github_os/input/src/os_base\os_task_scheduler.c ****    *SYSTICK_CTRL_STAT_REG = *SYSTICK_CTRL_STAT_REG | SYSTICK_STAT_REG_TICKINT | SYSTICK_STAT_REG_EN
GAS LISTING C:\Users\PRESID~1\AppData\Local\Temp\ccdWwDHD.s 			page 2


  44:E:/NeuOrga/Programmieren/c_cpp/github_os/input/src/os_base\os_task_scheduler.c ****    #endif
  45:E:/NeuOrga/Programmieren/c_cpp/github_os/input/src/os_base\os_task_scheduler.c **** }
  16              		.loc 1 45 0
  17 0003 5D       		popl	%ebp
  18              		.cfi_restore 5
  19              		.cfi_def_cfa 4, 4
  20 0004 C3       		ret
  21              		.cfi_endproc
  22              	LFE0:
  23              		.globl	_OS_SleepTask
  25              	_OS_SleepTask:
  26              	LFB1:
  46:E:/NeuOrga/Programmieren/c_cpp/github_os/input/src/os_base\os_task_scheduler.c **** 
  47:E:/NeuOrga/Programmieren/c_cpp/github_os/input/src/os_base\os_task_scheduler.c **** 
  48:E:/NeuOrga/Programmieren/c_cpp/github_os/input/src/os_base\os_task_scheduler.c **** void OS_SleepTask(task_t* task, task_time_t millisec, scheduling_t* scheduling_task_ptr)
  49:E:/NeuOrga/Programmieren/c_cpp/github_os/input/src/os_base\os_task_scheduler.c **** {
  27              		.loc 1 49 0
  28              		.cfi_startproc
  29 0005 55       		pushl	%ebp
  30              		.cfi_def_cfa_offset 8
  31              		.cfi_offset 5, -8
  32 0006 89E5     		movl	%esp, %ebp
  33              		.cfi_def_cfa_register 5
  34 0008 83EC18   		subl	$24, %esp
  50:E:/NeuOrga/Programmieren/c_cpp/github_os/input/src/os_base\os_task_scheduler.c ****    /* sleep Task shall do a preempt task with a defined minimum wait time, the actual wait time is 
  51:E:/NeuOrga/Programmieren/c_cpp/github_os/input/src/os_base\os_task_scheduler.c ****    task->WaitActUntil = OS_GetCurrentTime() + millisec;
  35              		.loc 1 51 0
  36 000b E8000000 		call	_OS_GetCurrentTime
  36      00
  37 0010 89C2     		movl	%eax, %edx
  38 0012 8B450C   		movl	12(%ebp), %eax
  39 0015 01C2     		addl	%eax, %edx
  40 0017 8B4508   		movl	8(%ebp), %eax
  41 001a 895008   		movl	%edx, 8(%eax)
  52:E:/NeuOrga/Programmieren/c_cpp/github_os/input/src/os_base\os_task_scheduler.c ****    OS_PreemptTask(task,scheduling_task_ptr);
  42              		.loc 1 52 0
  43 001d 8B4510   		movl	16(%ebp), %eax
  44 0020 89442404 		movl	%eax, 4(%esp)
  45 0024 8B4508   		movl	8(%ebp), %eax
  46 0027 890424   		movl	%eax, (%esp)
  47 002a E89B0100 		call	_OS_PreemptTask
  47      00
  53:E:/NeuOrga/Programmieren/c_cpp/github_os/input/src/os_base\os_task_scheduler.c **** }
  48              		.loc 1 53 0
  49 002f C9       		leave
  50              		.cfi_restore 5
  51              		.cfi_def_cfa 4, 4
  52 0030 C3       		ret
  53              		.cfi_endproc
  54              	LFE1:
  55              		.globl	_task_state_request
  57              	_task_state_request:
  58              	LFB2:
  54:E:/NeuOrga/Programmieren/c_cpp/github_os/input/src/os_base\os_task_scheduler.c **** 
  55:E:/NeuOrga/Programmieren/c_cpp/github_os/input/src/os_base\os_task_scheduler.c **** unsigned_char_t task_state_request(void* temp_task, task_state_t requested_state)
  56:E:/NeuOrga/Programmieren/c_cpp/github_os/input/src/os_base\os_task_scheduler.c **** {
  59              		.loc 1 56 0
GAS LISTING C:\Users\PRESID~1\AppData\Local\Temp\ccdWwDHD.s 			page 3


  60              		.cfi_startproc
  61 0031 55       		pushl	%ebp
  62              		.cfi_def_cfa_offset 8
  63              		.cfi_offset 5, -8
  64 0032 89E5     		movl	%esp, %ebp
  65              		.cfi_def_cfa_register 5
  66 0034 83EC28   		subl	$40, %esp
  57:E:/NeuOrga/Programmieren/c_cpp/github_os/input/src/os_base\os_task_scheduler.c ****    unsigned_char_t RequestState = Rejected;
  67              		.loc 1 57 0
  68 0037 C645F700 		movb	$0, -9(%ebp)
  58:E:/NeuOrga/Programmieren/c_cpp/github_os/input/src/os_base\os_task_scheduler.c **** 
  59:E:/NeuOrga/Programmieren/c_cpp/github_os/input/src/os_base\os_task_scheduler.c ****    task_t* task = (task_t*) temp_task;
  69              		.loc 1 59 0
  70 003b 8B4508   		movl	8(%ebp), %eax
  71 003e 8945F0   		movl	%eax, -16(%ebp)
  60:E:/NeuOrga/Programmieren/c_cpp/github_os/input/src/os_base\os_task_scheduler.c **** 
  61:E:/NeuOrga/Programmieren/c_cpp/github_os/input/src/os_base\os_task_scheduler.c ****    switch(requested_state)
  72              		.loc 1 61 0
  73 0041 8B450C   		movl	12(%ebp), %eax
  74 0044 83F801   		cmpl	$1, %eax
  75 0047 743E     		je	L5
  76 0049 83F801   		cmpl	$1, %eax
  77 004c 7213     		jb	L6
  78 004e 83F802   		cmpl	$2, %eax
  79 0051 0F848000 		je	L7
  79      0000
  80 0057 83F803   		cmpl	$3, %eax
  81 005a 745D     		je	L8
  62:E:/NeuOrga/Programmieren/c_cpp/github_os/input/src/os_base\os_task_scheduler.c ****    {
  63:E:/NeuOrga/Programmieren/c_cpp/github_os/input/src/os_base\os_task_scheduler.c ****    case Task_unspecified:/* 1. create new task */
  64:E:/NeuOrga/Programmieren/c_cpp/github_os/input/src/os_base\os_task_scheduler.c ****    {
  65:E:/NeuOrga/Programmieren/c_cpp/github_os/input/src/os_base\os_task_scheduler.c ****       switch(task->task_state)
  66:E:/NeuOrga/Programmieren/c_cpp/github_os/input/src/os_base\os_task_scheduler.c ****       {
  67:E:/NeuOrga/Programmieren/c_cpp/github_os/input/src/os_base\os_task_scheduler.c ****       case Task_ready:
  68:E:/NeuOrga/Programmieren/c_cpp/github_os/input/src/os_base\os_task_scheduler.c ****       case Task_running:
  69:E:/NeuOrga/Programmieren/c_cpp/github_os/input/src/os_base\os_task_scheduler.c ****       case Task_suspended:
  70:E:/NeuOrga/Programmieren/c_cpp/github_os/input/src/os_base\os_task_scheduler.c ****       {
  71:E:/NeuOrga/Programmieren/c_cpp/github_os/input/src/os_base\os_task_scheduler.c ****          RequestState = Rejected;
  72:E:/NeuOrga/Programmieren/c_cpp/github_os/input/src/os_base\os_task_scheduler.c ****          break;
  73:E:/NeuOrga/Programmieren/c_cpp/github_os/input/src/os_base\os_task_scheduler.c ****       }
  74:E:/NeuOrga/Programmieren/c_cpp/github_os/input/src/os_base\os_task_scheduler.c ****       default:
  75:E:/NeuOrga/Programmieren/c_cpp/github_os/input/src/os_base\os_task_scheduler.c ****       {
  76:E:/NeuOrga/Programmieren/c_cpp/github_os/input/src/os_base\os_task_scheduler.c ****          task->task_state = Task_unspecified;
  77:E:/NeuOrga/Programmieren/c_cpp/github_os/input/src/os_base\os_task_scheduler.c ****          RequestState = Accepted;
  78:E:/NeuOrga/Programmieren/c_cpp/github_os/input/src/os_base\os_task_scheduler.c ****          break;
  79:E:/NeuOrga/Programmieren/c_cpp/github_os/input/src/os_base\os_task_scheduler.c ****       }
  80:E:/NeuOrga/Programmieren/c_cpp/github_os/input/src/os_base\os_task_scheduler.c ****       }
  81:E:/NeuOrga/Programmieren/c_cpp/github_os/input/src/os_base\os_task_scheduler.c ****       break;
  82:E:/NeuOrga/Programmieren/c_cpp/github_os/input/src/os_base\os_task_scheduler.c ****    }
  83:E:/NeuOrga/Programmieren/c_cpp/github_os/input/src/os_base\os_task_scheduler.c ****    case Task_suspended:
  84:E:/NeuOrga/Programmieren/c_cpp/github_os/input/src/os_base\os_task_scheduler.c ****    {
  85:E:/NeuOrga/Programmieren/c_cpp/github_os/input/src/os_base\os_task_scheduler.c ****       switch(task->task_state)
  86:E:/NeuOrga/Programmieren/c_cpp/github_os/input/src/os_base\os_task_scheduler.c ****       {
  87:E:/NeuOrga/Programmieren/c_cpp/github_os/input/src/os_base\os_task_scheduler.c ****       case Task_unspecified: /* 2. create task transition */
  88:E:/NeuOrga/Programmieren/c_cpp/github_os/input/src/os_base\os_task_scheduler.c ****       {
  89:E:/NeuOrga/Programmieren/c_cpp/github_os/input/src/os_base\os_task_scheduler.c ****          /* no checks */
  90:E:/NeuOrga/Programmieren/c_cpp/github_os/input/src/os_base\os_task_scheduler.c ****          task->task_state = Task_suspended;
GAS LISTING C:\Users\PRESID~1\AppData\Local\Temp\ccdWwDHD.s 			page 4


  91:E:/NeuOrga/Programmieren/c_cpp/github_os/input/src/os_base\os_task_scheduler.c ****          RequestState = Accepted;
  92:E:/NeuOrga/Programmieren/c_cpp/github_os/input/src/os_base\os_task_scheduler.c ****          break;
  93:E:/NeuOrga/Programmieren/c_cpp/github_os/input/src/os_base\os_task_scheduler.c ****       }
  94:E:/NeuOrga/Programmieren/c_cpp/github_os/input/src/os_base\os_task_scheduler.c ****       case Task_running: /* 3. terminate task */
  95:E:/NeuOrga/Programmieren/c_cpp/github_os/input/src/os_base\os_task_scheduler.c ****       {
  96:E:/NeuOrga/Programmieren/c_cpp/github_os/input/src/os_base\os_task_scheduler.c ****          task->task_state = Task_suspended;
  97:E:/NeuOrga/Programmieren/c_cpp/github_os/input/src/os_base\os_task_scheduler.c ****          RequestState = Accepted;
  98:E:/NeuOrga/Programmieren/c_cpp/github_os/input/src/os_base\os_task_scheduler.c ****          break;
  99:E:/NeuOrga/Programmieren/c_cpp/github_os/input/src/os_base\os_task_scheduler.c ****       }
 100:E:/NeuOrga/Programmieren/c_cpp/github_os/input/src/os_base\os_task_scheduler.c ****       default:
 101:E:/NeuOrga/Programmieren/c_cpp/github_os/input/src/os_base\os_task_scheduler.c ****       {
 102:E:/NeuOrga/Programmieren/c_cpp/github_os/input/src/os_base\os_task_scheduler.c ****          /* no change in states allowed */
 103:E:/NeuOrga/Programmieren/c_cpp/github_os/input/src/os_base\os_task_scheduler.c ****          break;
 104:E:/NeuOrga/Programmieren/c_cpp/github_os/input/src/os_base\os_task_scheduler.c ****       }
 105:E:/NeuOrga/Programmieren/c_cpp/github_os/input/src/os_base\os_task_scheduler.c ****       }
 106:E:/NeuOrga/Programmieren/c_cpp/github_os/input/src/os_base\os_task_scheduler.c ****       break;
 107:E:/NeuOrga/Programmieren/c_cpp/github_os/input/src/os_base\os_task_scheduler.c ****    }
 108:E:/NeuOrga/Programmieren/c_cpp/github_os/input/src/os_base\os_task_scheduler.c ****    case Task_running:
 109:E:/NeuOrga/Programmieren/c_cpp/github_os/input/src/os_base\os_task_scheduler.c ****    {
 110:E:/NeuOrga/Programmieren/c_cpp/github_os/input/src/os_base\os_task_scheduler.c ****       switch(task->task_state)
 111:E:/NeuOrga/Programmieren/c_cpp/github_os/input/src/os_base\os_task_scheduler.c ****       {
 112:E:/NeuOrga/Programmieren/c_cpp/github_os/input/src/os_base\os_task_scheduler.c ****       case Task_ready: /* 4. start task transition */
 113:E:/NeuOrga/Programmieren/c_cpp/github_os/input/src/os_base\os_task_scheduler.c ****       {
 114:E:/NeuOrga/Programmieren/c_cpp/github_os/input/src/os_base\os_task_scheduler.c ****          task->task_state = Task_running;
 115:E:/NeuOrga/Programmieren/c_cpp/github_os/input/src/os_base\os_task_scheduler.c ****          RequestState   = Accepted;
 116:E:/NeuOrga/Programmieren/c_cpp/github_os/input/src/os_base\os_task_scheduler.c ****          break;
 117:E:/NeuOrga/Programmieren/c_cpp/github_os/input/src/os_base\os_task_scheduler.c ****       }
 118:E:/NeuOrga/Programmieren/c_cpp/github_os/input/src/os_base\os_task_scheduler.c ****       default:
 119:E:/NeuOrga/Programmieren/c_cpp/github_os/input/src/os_base\os_task_scheduler.c ****       {
 120:E:/NeuOrga/Programmieren/c_cpp/github_os/input/src/os_base\os_task_scheduler.c ****          /* no change in states allowed */
 121:E:/NeuOrga/Programmieren/c_cpp/github_os/input/src/os_base\os_task_scheduler.c ****          break;
 122:E:/NeuOrga/Programmieren/c_cpp/github_os/input/src/os_base\os_task_scheduler.c ****       }
 123:E:/NeuOrga/Programmieren/c_cpp/github_os/input/src/os_base\os_task_scheduler.c ****       }
 124:E:/NeuOrga/Programmieren/c_cpp/github_os/input/src/os_base\os_task_scheduler.c ****       break;
 125:E:/NeuOrga/Programmieren/c_cpp/github_os/input/src/os_base\os_task_scheduler.c **** 
 126:E:/NeuOrga/Programmieren/c_cpp/github_os/input/src/os_base\os_task_scheduler.c ****    }
 127:E:/NeuOrga/Programmieren/c_cpp/github_os/input/src/os_base\os_task_scheduler.c ****    case Task_ready:
 128:E:/NeuOrga/Programmieren/c_cpp/github_os/input/src/os_base\os_task_scheduler.c ****    {
 129:E:/NeuOrga/Programmieren/c_cpp/github_os/input/src/os_base\os_task_scheduler.c ****       switch(task->task_state)
 130:E:/NeuOrga/Programmieren/c_cpp/github_os/input/src/os_base\os_task_scheduler.c ****       {
 131:E:/NeuOrga/Programmieren/c_cpp/github_os/input/src/os_base\os_task_scheduler.c ****       case Task_suspended: /* activate task transition */
 132:E:/NeuOrga/Programmieren/c_cpp/github_os/input/src/os_base\os_task_scheduler.c ****       {
 133:E:/NeuOrga/Programmieren/c_cpp/github_os/input/src/os_base\os_task_scheduler.c ****          task->task_state = Task_ready;
 134:E:/NeuOrga/Programmieren/c_cpp/github_os/input/src/os_base\os_task_scheduler.c ****          RequestState   = Accepted;
 135:E:/NeuOrga/Programmieren/c_cpp/github_os/input/src/os_base\os_task_scheduler.c ****          break;
 136:E:/NeuOrga/Programmieren/c_cpp/github_os/input/src/os_base\os_task_scheduler.c ****       }
 137:E:/NeuOrga/Programmieren/c_cpp/github_os/input/src/os_base\os_task_scheduler.c ****       case Task_running: /* preempt task transition */
 138:E:/NeuOrga/Programmieren/c_cpp/github_os/input/src/os_base\os_task_scheduler.c ****       {
 139:E:/NeuOrga/Programmieren/c_cpp/github_os/input/src/os_base\os_task_scheduler.c ****          task->task_state = Task_ready;
 140:E:/NeuOrga/Programmieren/c_cpp/github_os/input/src/os_base\os_task_scheduler.c ****          RequestState   = Accepted;
 141:E:/NeuOrga/Programmieren/c_cpp/github_os/input/src/os_base\os_task_scheduler.c ****          break;
 142:E:/NeuOrga/Programmieren/c_cpp/github_os/input/src/os_base\os_task_scheduler.c ****       }
 143:E:/NeuOrga/Programmieren/c_cpp/github_os/input/src/os_base\os_task_scheduler.c ****       case Task_unspecified:
 144:E:/NeuOrga/Programmieren/c_cpp/github_os/input/src/os_base\os_task_scheduler.c ****       {
 145:E:/NeuOrga/Programmieren/c_cpp/github_os/input/src/os_base\os_task_scheduler.c ****           task->task_state = Task_ready;
 146:E:/NeuOrga/Programmieren/c_cpp/github_os/input/src/os_base\os_task_scheduler.c ****           RequestState = Accepted;
 147:E:/NeuOrga/Programmieren/c_cpp/github_os/input/src/os_base\os_task_scheduler.c ****           break;
GAS LISTING C:\Users\PRESID~1\AppData\Local\Temp\ccdWwDHD.s 			page 5


 148:E:/NeuOrga/Programmieren/c_cpp/github_os/input/src/os_base\os_task_scheduler.c ****       }
 149:E:/NeuOrga/Programmieren/c_cpp/github_os/input/src/os_base\os_task_scheduler.c ****       default:
 150:E:/NeuOrga/Programmieren/c_cpp/github_os/input/src/os_base\os_task_scheduler.c ****       {
 151:E:/NeuOrga/Programmieren/c_cpp/github_os/input/src/os_base\os_task_scheduler.c ****          /* no change in states allowed */
 152:E:/NeuOrga/Programmieren/c_cpp/github_os/input/src/os_base\os_task_scheduler.c ****          break;
 153:E:/NeuOrga/Programmieren/c_cpp/github_os/input/src/os_base\os_task_scheduler.c ****       }
 154:E:/NeuOrga/Programmieren/c_cpp/github_os/input/src/os_base\os_task_scheduler.c ****       }
 155:E:/NeuOrga/Programmieren/c_cpp/github_os/input/src/os_base\os_task_scheduler.c ****       break;
 156:E:/NeuOrga/Programmieren/c_cpp/github_os/input/src/os_base\os_task_scheduler.c ****    }
 157:E:/NeuOrga/Programmieren/c_cpp/github_os/input/src/os_base\os_task_scheduler.c ****    default:
 158:E:/NeuOrga/Programmieren/c_cpp/github_os/input/src/os_base\os_task_scheduler.c ****    {
 159:E:/NeuOrga/Programmieren/c_cpp/github_os/input/src/os_base\os_task_scheduler.c ****       break;
  82              		.loc 1 159 0
  83 005c E9BD0000 		jmp	L12
  83      00
  84              	L6:
  65:E:/NeuOrga/Programmieren/c_cpp/github_os/input/src/os_base\os_task_scheduler.c ****       {
  85              		.loc 1 65 0
  86 0061 8B45F0   		movl	-16(%ebp), %eax
  87 0064 8B4034   		movl	52(%eax), %eax
  88 0067 48       		decl	%eax
  89 0068 83F802   		cmpl	$2, %eax
  90 006b 7706     		ja	L9
  71:E:/NeuOrga/Programmieren/c_cpp/github_os/input/src/os_base\os_task_scheduler.c ****          break;
  91              		.loc 1 71 0
  92 006d C645F700 		movb	$0, -9(%ebp)
  72:E:/NeuOrga/Programmieren/c_cpp/github_os/input/src/os_base\os_task_scheduler.c ****       }
  93              		.loc 1 72 0
  94 0071 EB0F     		jmp	L11
  95              	L9:
  76:E:/NeuOrga/Programmieren/c_cpp/github_os/input/src/os_base\os_task_scheduler.c ****          RequestState = Accepted;
  96              		.loc 1 76 0
  97 0073 8B45F0   		movl	-16(%ebp), %eax
  98 0076 C7403400 		movl	$0, 52(%eax)
  98      000000
  77:E:/NeuOrga/Programmieren/c_cpp/github_os/input/src/os_base\os_task_scheduler.c ****          break;
  99              		.loc 1 77 0
 100 007d C645F701 		movb	$1, -9(%ebp)
  78:E:/NeuOrga/Programmieren/c_cpp/github_os/input/src/os_base\os_task_scheduler.c ****       }
 101              		.loc 1 78 0
 102 0081 90       		nop
 103              	L11:
  81:E:/NeuOrga/Programmieren/c_cpp/github_os/input/src/os_base\os_task_scheduler.c ****    }
 104              		.loc 1 81 0
 105 0082 E9970000 		jmp	L12
 105      00
 106              	L5:
  85:E:/NeuOrga/Programmieren/c_cpp/github_os/input/src/os_base\os_task_scheduler.c ****       {
 107              		.loc 1 85 0
 108 0087 8B45F0   		movl	-16(%ebp), %eax
 109 008a 8B4034   		movl	52(%eax), %eax
 110 008d 85C0     		testl	%eax, %eax
 111 008f 7407     		je	L14
 112 0091 83F803   		cmpl	$3, %eax
 113 0094 7412     		je	L15
 103:E:/NeuOrga/Programmieren/c_cpp/github_os/input/src/os_base\os_task_scheduler.c ****       }
 114              		.loc 1 103 0
GAS LISTING C:\Users\PRESID~1\AppData\Local\Temp\ccdWwDHD.s 			page 6


 115 0096 EB1F     		jmp	L16
 116              	L14:
  90:E:/NeuOrga/Programmieren/c_cpp/github_os/input/src/os_base\os_task_scheduler.c ****          RequestState = Accepted;
 117              		.loc 1 90 0
 118 0098 8B45F0   		movl	-16(%ebp), %eax
 119 009b C7403401 		movl	$1, 52(%eax)
 119      000000
  91:E:/NeuOrga/Programmieren/c_cpp/github_os/input/src/os_base\os_task_scheduler.c ****          break;
 120              		.loc 1 91 0
 121 00a2 C645F701 		movb	$1, -9(%ebp)
  92:E:/NeuOrga/Programmieren/c_cpp/github_os/input/src/os_base\os_task_scheduler.c ****       }
 122              		.loc 1 92 0
 123 00a6 EB0F     		jmp	L16
 124              	L15:
  96:E:/NeuOrga/Programmieren/c_cpp/github_os/input/src/os_base\os_task_scheduler.c ****          RequestState = Accepted;
 125              		.loc 1 96 0
 126 00a8 8B45F0   		movl	-16(%ebp), %eax
 127 00ab C7403401 		movl	$1, 52(%eax)
 127      000000
  97:E:/NeuOrga/Programmieren/c_cpp/github_os/input/src/os_base\os_task_scheduler.c ****          break;
 128              		.loc 1 97 0
 129 00b2 C645F701 		movb	$1, -9(%ebp)
  98:E:/NeuOrga/Programmieren/c_cpp/github_os/input/src/os_base\os_task_scheduler.c ****       }
 130              		.loc 1 98 0
 131 00b6 90       		nop
 132              	L16:
 106:E:/NeuOrga/Programmieren/c_cpp/github_os/input/src/os_base\os_task_scheduler.c ****    }
 133              		.loc 1 106 0 discriminator 1
 134 00b7 EB65     		jmp	L12
 135              	L8:
 110:E:/NeuOrga/Programmieren/c_cpp/github_os/input/src/os_base\os_task_scheduler.c ****       {
 136              		.loc 1 110 0
 137 00b9 8B45F0   		movl	-16(%ebp), %eax
 138 00bc 8B4034   		movl	52(%eax), %eax
 139 00bf 83F802   		cmpl	$2, %eax
 140 00c2 7402     		je	L18
 121:E:/NeuOrga/Programmieren/c_cpp/github_os/input/src/os_base\os_task_scheduler.c ****       }
 141              		.loc 1 121 0
 142 00c4 EB0F     		jmp	L19
 143              	L18:
 114:E:/NeuOrga/Programmieren/c_cpp/github_os/input/src/os_base\os_task_scheduler.c ****          RequestState   = Accepted;
 144              		.loc 1 114 0
 145 00c6 8B45F0   		movl	-16(%ebp), %eax
 146 00c9 C7403403 		movl	$3, 52(%eax)
 146      000000
 115:E:/NeuOrga/Programmieren/c_cpp/github_os/input/src/os_base\os_task_scheduler.c ****          break;
 147              		.loc 1 115 0
 148 00d0 C645F701 		movb	$1, -9(%ebp)
 116:E:/NeuOrga/Programmieren/c_cpp/github_os/input/src/os_base\os_task_scheduler.c ****       }
 149              		.loc 1 116 0
 150 00d4 90       		nop
 151              	L19:
 124:E:/NeuOrga/Programmieren/c_cpp/github_os/input/src/os_base\os_task_scheduler.c **** 
 152              		.loc 1 124 0 discriminator 2
 153 00d5 EB47     		jmp	L12
 154              	L7:
 129:E:/NeuOrga/Programmieren/c_cpp/github_os/input/src/os_base\os_task_scheduler.c ****       {
GAS LISTING C:\Users\PRESID~1\AppData\Local\Temp\ccdWwDHD.s 			page 7


 155              		.loc 1 129 0
 156 00d7 8B45F0   		movl	-16(%ebp), %eax
 157 00da 8B4034   		movl	52(%eax), %eax
 158 00dd 83F801   		cmpl	$1, %eax
 159 00e0 740C     		je	L21
 160 00e2 83F801   		cmpl	$1, %eax
 161 00e5 7227     		jb	L22
 162 00e7 83F803   		cmpl	$3, %eax
 163 00ea 7412     		je	L23
 152:E:/NeuOrga/Programmieren/c_cpp/github_os/input/src/os_base\os_task_scheduler.c ****       }
 164              		.loc 1 152 0
 165 00ec EB2F     		jmp	L24
 166              	L21:
 133:E:/NeuOrga/Programmieren/c_cpp/github_os/input/src/os_base\os_task_scheduler.c ****          RequestState   = Accepted;
 167              		.loc 1 133 0
 168 00ee 8B45F0   		movl	-16(%ebp), %eax
 169 00f1 C7403402 		movl	$2, 52(%eax)
 169      000000
 134:E:/NeuOrga/Programmieren/c_cpp/github_os/input/src/os_base\os_task_scheduler.c ****          break;
 170              		.loc 1 134 0
 171 00f8 C645F701 		movb	$1, -9(%ebp)
 135:E:/NeuOrga/Programmieren/c_cpp/github_os/input/src/os_base\os_task_scheduler.c ****       }
 172              		.loc 1 135 0
 173 00fc EB1F     		jmp	L24
 174              	L23:
 139:E:/NeuOrga/Programmieren/c_cpp/github_os/input/src/os_base\os_task_scheduler.c ****          RequestState   = Accepted;
 175              		.loc 1 139 0
 176 00fe 8B45F0   		movl	-16(%ebp), %eax
 177 0101 C7403402 		movl	$2, 52(%eax)
 177      000000
 140:E:/NeuOrga/Programmieren/c_cpp/github_os/input/src/os_base\os_task_scheduler.c ****          break;
 178              		.loc 1 140 0
 179 0108 C645F701 		movb	$1, -9(%ebp)
 141:E:/NeuOrga/Programmieren/c_cpp/github_os/input/src/os_base\os_task_scheduler.c ****       }
 180              		.loc 1 141 0
 181 010c EB0F     		jmp	L24
 182              	L22:
 145:E:/NeuOrga/Programmieren/c_cpp/github_os/input/src/os_base\os_task_scheduler.c ****           RequestState = Accepted;
 183              		.loc 1 145 0
 184 010e 8B45F0   		movl	-16(%ebp), %eax
 185 0111 C7403402 		movl	$2, 52(%eax)
 185      000000
 146:E:/NeuOrga/Programmieren/c_cpp/github_os/input/src/os_base\os_task_scheduler.c ****           break;
 186              		.loc 1 146 0
 187 0118 C645F701 		movb	$1, -9(%ebp)
 147:E:/NeuOrga/Programmieren/c_cpp/github_os/input/src/os_base\os_task_scheduler.c ****       }
 188              		.loc 1 147 0
 189 011c 90       		nop
 190              	L24:
 155:E:/NeuOrga/Programmieren/c_cpp/github_os/input/src/os_base\os_task_scheduler.c ****    }
 191              		.loc 1 155 0 discriminator 3
 192 011d 90       		nop
 193              	L12:
 160:E:/NeuOrga/Programmieren/c_cpp/github_os/input/src/os_base\os_task_scheduler.c ****    }
 161:E:/NeuOrga/Programmieren/c_cpp/github_os/input/src/os_base\os_task_scheduler.c ****    }
 162:E:/NeuOrga/Programmieren/c_cpp/github_os/input/src/os_base\os_task_scheduler.c ****    if(RequestState == Rejected)
 194              		.loc 1 162 0
GAS LISTING C:\Users\PRESID~1\AppData\Local\Temp\ccdWwDHD.s 			page 8


 195 011e 807DF700 		cmpb	$0, -9(%ebp)
 196 0122 752F     		jne	L25
 163:E:/NeuOrga/Programmieren/c_cpp/github_os/input/src/os_base\os_task_scheduler.c ****    {
 164:E:/NeuOrga/Programmieren/c_cpp/github_os/input/src/os_base\os_task_scheduler.c ****       TASK_TRANSITION_REJECTED_TASK_ADDR  = task;
 197              		.loc 1 164 0
 198 0124 8B45F0   		movl	-16(%ebp), %eax
 199 0127 A3000000 		movl	%eax, _TASK_TRANSITION_REJECTED_TASK_ADDR
 199      00
 165:E:/NeuOrga/Programmieren/c_cpp/github_os/input/src/os_base\os_task_scheduler.c ****       TASK_TRANSITION_REJECTED_STATE      = requested_state;
 200              		.loc 1 165 0
 201 012c 8B450C   		movl	12(%ebp), %eax
 202 012f A3000000 		movl	%eax, _TASK_TRANSITION_REJECTED_STATE
 202      00
 166:E:/NeuOrga/Programmieren/c_cpp/github_os/input/src/os_base\os_task_scheduler.c ****       TASK_TRANSITION_CURRENT_STATE       = task->task_state;
 203              		.loc 1 166 0
 204 0134 8B45F0   		movl	-16(%ebp), %eax
 205 0137 8B4034   		movl	52(%eax), %eax
 206 013a A3000000 		movl	%eax, _TASK_TRANSITION_CURRENT_STATE
 206      00
 167:E:/NeuOrga/Programmieren/c_cpp/github_os/input/src/os_base\os_task_scheduler.c ****       OS_SetSwBug(os_bug_taskstate_request_denied, Func_TaskStateRequest);
 207              		.loc 1 167 0
 208 013f C7442404 		movl	$12, 4(%esp)
 208      0C000000 
 209 0147 C7042401 		movl	$1, (%esp)
 209      000000
 210 014e E8000000 		call	_OS_SetSwBug
 210      00
 211              	L25:
 168:E:/NeuOrga/Programmieren/c_cpp/github_os/input/src/os_base\os_task_scheduler.c **** 
 169:E:/NeuOrga/Programmieren/c_cpp/github_os/input/src/os_base\os_task_scheduler.c **** 
 170:E:/NeuOrga/Programmieren/c_cpp/github_os/input/src/os_base\os_task_scheduler.c ****    }
 171:E:/NeuOrga/Programmieren/c_cpp/github_os/input/src/os_base\os_task_scheduler.c ****    return RequestState;
 212              		.loc 1 171 0
 213 0153 8A45F7   		movb	-9(%ebp), %al
 172:E:/NeuOrga/Programmieren/c_cpp/github_os/input/src/os_base\os_task_scheduler.c **** }
 214              		.loc 1 172 0
 215 0156 C9       		leave
 216              		.cfi_restore 5
 217              		.cfi_def_cfa 4, 4
 218 0157 C3       		ret
 219              		.cfi_endproc
 220              	LFE2:
 221              		.globl	_OS_CreateTask
 223              	_OS_CreateTask:
 224              	LFB3:
 173:E:/NeuOrga/Programmieren/c_cpp/github_os/input/src/os_base\os_task_scheduler.c **** 
 174:E:/NeuOrga/Programmieren/c_cpp/github_os/input/src/os_base\os_task_scheduler.c **** void OS_CreateTask(task_t* task)
 175:E:/NeuOrga/Programmieren/c_cpp/github_os/input/src/os_base\os_task_scheduler.c **** {
 225              		.loc 1 175 0
 226              		.cfi_startproc
 227 0158 55       		pushl	%ebp
 228              		.cfi_def_cfa_offset 8
 229              		.cfi_offset 5, -8
 230 0159 89E5     		movl	%esp, %ebp
 231              		.cfi_def_cfa_register 5
 232 015b 83EC18   		subl	$24, %esp
 176:E:/NeuOrga/Programmieren/c_cpp/github_os/input/src/os_base\os_task_scheduler.c ****    /*5. unspecified --(create   )--> suspend*/
GAS LISTING C:\Users\PRESID~1\AppData\Local\Temp\ccdWwDHD.s 			page 9


 177:E:/NeuOrga/Programmieren/c_cpp/github_os/input/src/os_base\os_task_scheduler.c ****    if(task != 0)
 233              		.loc 1 177 0
 234 015e 837D0800 		cmpl	$0, 8(%ebp)
 235 0162 7450     		je	L28
 178:E:/NeuOrga/Programmieren/c_cpp/github_os/input/src/os_base\os_task_scheduler.c ****    {
 179:E:/NeuOrga/Programmieren/c_cpp/github_os/input/src/os_base\os_task_scheduler.c ****       if(task->state_request != 0)
 236              		.loc 1 179 0
 237 0164 8B4508   		movl	8(%ebp), %eax
 238 0167 8B4030   		movl	48(%eax), %eax
 239 016a 85C0     		testl	%eax, %eax
 240 016c 7430     		je	L29
 180:E:/NeuOrga/Programmieren/c_cpp/github_os/input/src/os_base\os_task_scheduler.c ****       {
 181:E:/NeuOrga/Programmieren/c_cpp/github_os/input/src/os_base\os_task_scheduler.c ****          if(task->state_request(task, Task_suspended)== Accepted)
 241              		.loc 1 181 0
 242 016e 8B4508   		movl	8(%ebp), %eax
 243 0171 8B4030   		movl	48(%eax), %eax
 244 0174 C7442404 		movl	$1, 4(%esp)
 244      01000000 
 245 017c 8B5508   		movl	8(%ebp), %edx
 246 017f 891424   		movl	%edx, (%esp)
 247 0182 FFD0     		call	*%eax
 248 0184 3C01     		cmpb	$1, %al
 249 0186 7440     		je	L27
 182:E:/NeuOrga/Programmieren/c_cpp/github_os/input/src/os_base\os_task_scheduler.c ****          {
 183:E:/NeuOrga/Programmieren/c_cpp/github_os/input/src/os_base\os_task_scheduler.c ****             /*QAC*/
 184:E:/NeuOrga/Programmieren/c_cpp/github_os/input/src/os_base\os_task_scheduler.c ****          }
 185:E:/NeuOrga/Programmieren/c_cpp/github_os/input/src/os_base\os_task_scheduler.c ****          else
 186:E:/NeuOrga/Programmieren/c_cpp/github_os/input/src/os_base\os_task_scheduler.c ****          {
 187:E:/NeuOrga/Programmieren/c_cpp/github_os/input/src/os_base\os_task_scheduler.c ****             OS_SetSwBug(os_bug_taskstate_request_denied, Func_CreateTask);
 250              		.loc 1 187 0
 251 0188 C7442404 		movl	$15, 4(%esp)
 251      0F000000 
 252 0190 C7042401 		movl	$1, (%esp)
 252      000000
 253 0197 E8000000 		call	_OS_SetSwBug
 253      00
 254 019c EB2A     		jmp	L27
 255              	L29:
 188:E:/NeuOrga/Programmieren/c_cpp/github_os/input/src/os_base\os_task_scheduler.c ****          }
 189:E:/NeuOrga/Programmieren/c_cpp/github_os/input/src/os_base\os_task_scheduler.c ****       }
 190:E:/NeuOrga/Programmieren/c_cpp/github_os/input/src/os_base\os_task_scheduler.c ****       else
 191:E:/NeuOrga/Programmieren/c_cpp/github_os/input/src/os_base\os_task_scheduler.c ****       {
 192:E:/NeuOrga/Programmieren/c_cpp/github_os/input/src/os_base\os_task_scheduler.c ****          OS_SetSwBug(os_bug_null_pointer, Func_CreateTask);
 256              		.loc 1 192 0
 257 019e C7442404 		movl	$15, 4(%esp)
 257      0F000000 
 258 01a6 C7042402 		movl	$2, (%esp)
 258      000000
 259 01ad E8000000 		call	_OS_SetSwBug
 259      00
 260 01b2 EB14     		jmp	L27
 261              	L28:
 193:E:/NeuOrga/Programmieren/c_cpp/github_os/input/src/os_base\os_task_scheduler.c ****       }
 194:E:/NeuOrga/Programmieren/c_cpp/github_os/input/src/os_base\os_task_scheduler.c ****    }
 195:E:/NeuOrga/Programmieren/c_cpp/github_os/input/src/os_base\os_task_scheduler.c ****    else
 196:E:/NeuOrga/Programmieren/c_cpp/github_os/input/src/os_base\os_task_scheduler.c ****    {
 197:E:/NeuOrga/Programmieren/c_cpp/github_os/input/src/os_base\os_task_scheduler.c ****       OS_SetSwBug(os_bug_null_pointer, Func_CreateTask);
GAS LISTING C:\Users\PRESID~1\AppData\Local\Temp\ccdWwDHD.s 			page 10


 262              		.loc 1 197 0
 263 01b4 C7442404 		movl	$15, 4(%esp)
 263      0F000000 
 264 01bc C7042402 		movl	$2, (%esp)
 264      000000
 265 01c3 E8000000 		call	_OS_SetSwBug
 265      00
 266              	L27:
 198:E:/NeuOrga/Programmieren/c_cpp/github_os/input/src/os_base\os_task_scheduler.c ****    }
 199:E:/NeuOrga/Programmieren/c_cpp/github_os/input/src/os_base\os_task_scheduler.c **** }
 267              		.loc 1 199 0
 268 01c8 C9       		leave
 269              		.cfi_restore 5
 270              		.cfi_def_cfa 4, 4
 271 01c9 C3       		ret
 272              		.cfi_endproc
 273              	LFE3:
 275              	_OS_PreemptTask:
 276              	LFB4:
 200:E:/NeuOrga/Programmieren/c_cpp/github_os/input/src/os_base\os_task_scheduler.c **** void OS_PreemptTask(task_t* task, scheduling_t* scheduling_task)
 201:E:/NeuOrga/Programmieren/c_cpp/github_os/input/src/os_base\os_task_scheduler.c **** {
 277              		.loc 1 201 0
 278              		.cfi_startproc
 279 01ca 55       		pushl	%ebp
 280              		.cfi_def_cfa_offset 8
 281              		.cfi_offset 5, -8
 282 01cb 89E5     		movl	%esp, %ebp
 283              		.cfi_def_cfa_register 5
 284 01cd 83EC18   		subl	$24, %esp
 202:E:/NeuOrga/Programmieren/c_cpp/github_os/input/src/os_base\os_task_scheduler.c ****    /*2. running     --(preempt  )--> ready*/
 203:E:/NeuOrga/Programmieren/c_cpp/github_os/input/src/os_base\os_task_scheduler.c ****    /* Preempt task
 204:E:/NeuOrga/Programmieren/c_cpp/github_os/input/src/os_base\os_task_scheduler.c ****    - Disable Interrupts
 205:E:/NeuOrga/Programmieren/c_cpp/github_os/input/src/os_base\os_task_scheduler.c ****    - OS_TaskSaveTaskEnvironment
 206:E:/NeuOrga/Programmieren/c_cpp/github_os/input/src/os_base\os_task_scheduler.c ****    - add to Schedule Queue / delete from RunQueue
 207:E:/NeuOrga/Programmieren/c_cpp/github_os/input/src/os_base\os_task_scheduler.c ****    - delete active flag
 208:E:/NeuOrga/Programmieren/c_cpp/github_os/input/src/os_base\os_task_scheduler.c ****    - enable Interrupts
 209:E:/NeuOrga/Programmieren/c_cpp/github_os/input/src/os_base\os_task_scheduler.c ****    */
 210:E:/NeuOrga/Programmieren/c_cpp/github_os/input/src/os_base\os_task_scheduler.c ****    if(task != 0 && scheduling_task != 0)
 285              		.loc 1 210 0
 286 01d0 837D0800 		cmpl	$0, 8(%ebp)
 287 01d4 0F849B00 		je	L34
 287      0000
 288              		.loc 1 210 0 is_stmt 0 discriminator 1
 289 01da 837D0C00 		cmpl	$0, 12(%ebp)
 290 01de 0F849100 		je	L34
 290      0000
 211:E:/NeuOrga/Programmieren/c_cpp/github_os/input/src/os_base\os_task_scheduler.c ****    {
 212:E:/NeuOrga/Programmieren/c_cpp/github_os/input/src/os_base\os_task_scheduler.c ****       if(task->state_request != 0)
 291              		.loc 1 212 0 is_stmt 1
 292 01e4 8B4508   		movl	8(%ebp), %eax
 293 01e7 8B4030   		movl	48(%eax), %eax
 294 01ea 85C0     		testl	%eax, %eax
 295 01ec 7471     		je	L35
 213:E:/NeuOrga/Programmieren/c_cpp/github_os/input/src/os_base\os_task_scheduler.c ****       {
 214:E:/NeuOrga/Programmieren/c_cpp/github_os/input/src/os_base\os_task_scheduler.c ****          if(task->state_request(task, Task_ready)== Accepted)
 296              		.loc 1 214 0
 297 01ee 8B4508   		movl	8(%ebp), %eax
GAS LISTING C:\Users\PRESID~1\AppData\Local\Temp\ccdWwDHD.s 			page 11


 298 01f1 8B4030   		movl	48(%eax), %eax
 299 01f4 C7442404 		movl	$2, 4(%esp)
 299      02000000 
 300 01fc 8B5508   		movl	8(%ebp), %edx
 301 01ff 891424   		movl	%edx, (%esp)
 302 0202 FFD0     		call	*%eax
 303 0204 3C01     		cmpb	$1, %al
 304 0206 7541     		jne	L36
 215:E:/NeuOrga/Programmieren/c_cpp/github_os/input/src/os_base\os_task_scheduler.c ****          {
 216:E:/NeuOrga/Programmieren/c_cpp/github_os/input/src/os_base\os_task_scheduler.c ****             DisableInterrupts();
 217:E:/NeuOrga/Programmieren/c_cpp/github_os/input/src/os_base\os_task_scheduler.c ****             OS_TaskSaveTaskEnvironment(task);
 305              		.loc 1 217 0
 306 0208 8B4508   		movl	8(%ebp), %eax
 307 020b 890424   		movl	%eax, (%esp)
 308 020e E8000000 		call	_OS_TaskSaveTaskEnvironment
 308      00
 218:E:/NeuOrga/Programmieren/c_cpp/github_os/input/src/os_base\os_task_scheduler.c ****             OS_TASK_RESTORE_SYSTEM_STACK(&OS_STACK[OS_GetCoreId()][0]);
 309              		.loc 1 218 0
 310 0213 E8000000 		call	_OS_GetCoreId
 310      00
 311 0218 89C2     		movl	%eax, %edx
 312 021a 89D0     		movl	%edx, %eax
 313 021c C1E002   		sall	$2, %eax
 314 021f 01D0     		addl	%edx, %eax
 315 0221 C1E00C   		sall	$12, %eax
 316 0224 05000000 		addl	$_OS_STACK, %eax
 316      00
 317 0229 890424   		movl	%eax, (%esp)
 318 022c E8000000 		call	_OS_TASK_RESTORE_SYSTEM_STACK
 318      00
 219:E:/NeuOrga/Programmieren/c_cpp/github_os/input/src/os_base\os_task_scheduler.c ****             
 220:E:/NeuOrga/Programmieren/c_cpp/github_os/input/src/os_base\os_task_scheduler.c ****             task->active = False;
 319              		.loc 1 220 0
 320 0231 8B4508   		movl	8(%ebp), %eax
 321 0234 8A10     		movb	(%eax), %dl
 322 0236 83E2FE   		andl	$-2, %edx
 323 0239 8810     		movb	%dl, (%eax)
 221:E:/NeuOrga/Programmieren/c_cpp/github_os/input/src/os_base\os_task_scheduler.c ****             /* reset the prio increase for waiting */
 222:E:/NeuOrga/Programmieren/c_cpp/github_os/input/src/os_base\os_task_scheduler.c ****             task->current_prio = task->default_prio;
 324              		.loc 1 222 0
 325 023b 8B4508   		movl	8(%ebp), %eax
 326 023e 8A5025   		movb	37(%eax), %dl
 327 0241 8B4508   		movl	8(%ebp), %eax
 328 0244 885024   		movb	%dl, 36(%eax)
 212:E:/NeuOrga/Programmieren/c_cpp/github_os/input/src/os_base\os_task_scheduler.c ****       {
 329              		.loc 1 212 0
 330 0247 EB40     		jmp	L33
 331              	L36:
 223:E:/NeuOrga/Programmieren/c_cpp/github_os/input/src/os_base\os_task_scheduler.c ****             EnableInterrupts();
 224:E:/NeuOrga/Programmieren/c_cpp/github_os/input/src/os_base\os_task_scheduler.c ****          }
 225:E:/NeuOrga/Programmieren/c_cpp/github_os/input/src/os_base\os_task_scheduler.c ****          else
 226:E:/NeuOrga/Programmieren/c_cpp/github_os/input/src/os_base\os_task_scheduler.c ****          {
 227:E:/NeuOrga/Programmieren/c_cpp/github_os/input/src/os_base\os_task_scheduler.c ****             OS_SetSwBug(os_bug_taskstate_request_denied, Func_Preempt_Task);
 332              		.loc 1 227 0
 333 0249 C7442404 		movl	$13, 4(%esp)
 333      0D000000 
 334 0251 C7042401 		movl	$1, (%esp)
GAS LISTING C:\Users\PRESID~1\AppData\Local\Temp\ccdWwDHD.s 			page 12


 334      000000
 335 0258 E8000000 		call	_OS_SetSwBug
 335      00
 212:E:/NeuOrga/Programmieren/c_cpp/github_os/input/src/os_base\os_task_scheduler.c ****       {
 336              		.loc 1 212 0
 337 025d EB2A     		jmp	L33
 338              	L35:
 228:E:/NeuOrga/Programmieren/c_cpp/github_os/input/src/os_base\os_task_scheduler.c ****          }
 229:E:/NeuOrga/Programmieren/c_cpp/github_os/input/src/os_base\os_task_scheduler.c ****       }
 230:E:/NeuOrga/Programmieren/c_cpp/github_os/input/src/os_base\os_task_scheduler.c ****       else
 231:E:/NeuOrga/Programmieren/c_cpp/github_os/input/src/os_base\os_task_scheduler.c ****       {
 232:E:/NeuOrga/Programmieren/c_cpp/github_os/input/src/os_base\os_task_scheduler.c ****          OS_SetSwBug(os_bug_null_pointer, Func_Preempt_Task);
 339              		.loc 1 232 0
 340 025f C7442404 		movl	$13, 4(%esp)
 340      0D000000 
 341 0267 C7042402 		movl	$2, (%esp)
 341      000000
 342 026e E8000000 		call	_OS_SetSwBug
 342      00
 212:E:/NeuOrga/Programmieren/c_cpp/github_os/input/src/os_base\os_task_scheduler.c ****       {
 343              		.loc 1 212 0
 344 0273 EB14     		jmp	L33
 345              	L34:
 233:E:/NeuOrga/Programmieren/c_cpp/github_os/input/src/os_base\os_task_scheduler.c ****       }
 234:E:/NeuOrga/Programmieren/c_cpp/github_os/input/src/os_base\os_task_scheduler.c **** 
 235:E:/NeuOrga/Programmieren/c_cpp/github_os/input/src/os_base\os_task_scheduler.c ****    }
 236:E:/NeuOrga/Programmieren/c_cpp/github_os/input/src/os_base\os_task_scheduler.c ****    else
 237:E:/NeuOrga/Programmieren/c_cpp/github_os/input/src/os_base\os_task_scheduler.c ****    {
 238:E:/NeuOrga/Programmieren/c_cpp/github_os/input/src/os_base\os_task_scheduler.c ****       OS_SetSwBug(os_bug_null_pointer, Func_Preempt_Task);
 346              		.loc 1 238 0
 347 0275 C7442404 		movl	$13, 4(%esp)
 347      0D000000 
 348 027d C7042402 		movl	$2, (%esp)
 348      000000
 349 0284 E8000000 		call	_OS_SetSwBug
 349      00
 350              	L33:
 239:E:/NeuOrga/Programmieren/c_cpp/github_os/input/src/os_base\os_task_scheduler.c ****    }
 240:E:/NeuOrga/Programmieren/c_cpp/github_os/input/src/os_base\os_task_scheduler.c **** }
 351              		.loc 1 240 0
 352 0289 C9       		leave
 353              		.cfi_restore 5
 354              		.cfi_def_cfa 4, 4
 355 028a C3       		ret
 356              		.cfi_endproc
 357              	LFE4:
 358              		.globl	_OS_ActivateTask
 360              	_OS_ActivateTask:
 361              	LFB5:
 241:E:/NeuOrga/Programmieren/c_cpp/github_os/input/src/os_base\os_task_scheduler.c **** 
 242:E:/NeuOrga/Programmieren/c_cpp/github_os/input/src/os_base\os_task_scheduler.c **** void OS_ActivateTask(task_t* task)
 243:E:/NeuOrga/Programmieren/c_cpp/github_os/input/src/os_base\os_task_scheduler.c **** {
 362              		.loc 1 243 0
 363              		.cfi_startproc
 364 028b 55       		pushl	%ebp
 365              		.cfi_def_cfa_offset 8
 366              		.cfi_offset 5, -8
GAS LISTING C:\Users\PRESID~1\AppData\Local\Temp\ccdWwDHD.s 			page 13


 367 028c 89E5     		movl	%esp, %ebp
 368              		.cfi_def_cfa_register 5
 369 028e 83EC18   		subl	$24, %esp
 244:E:/NeuOrga/Programmieren/c_cpp/github_os/input/src/os_base\os_task_scheduler.c ****    /*
 245:E:/NeuOrga/Programmieren/c_cpp/github_os/input/src/os_base\os_task_scheduler.c ****    Activate Task:
 246:E:/NeuOrga/Programmieren/c_cpp/github_os/input/src/os_base\os_task_scheduler.c ****    - Disable Interrupts
 247:E:/NeuOrga/Programmieren/c_cpp/github_os/input/src/os_base\os_task_scheduler.c ****    - Add to schedule Queue
 248:E:/NeuOrga/Programmieren/c_cpp/github_os/input/src/os_base\os_task_scheduler.c ****    - Enable Interrupts
 249:E:/NeuOrga/Programmieren/c_cpp/github_os/input/src/os_base\os_task_scheduler.c **** 
 250:E:/NeuOrga/Programmieren/c_cpp/github_os/input/src/os_base\os_task_scheduler.c ****    in case of valid request, the content, where the "task_t* task" is point to is stored in TASK_RU
 251:E:/NeuOrga/Programmieren/c_cpp/github_os/input/src/os_base\os_task_scheduler.c ****    */
 252:E:/NeuOrga/Programmieren/c_cpp/github_os/input/src/os_base\os_task_scheduler.c ****    if(task != 0)
 370              		.loc 1 252 0
 371 0291 837D0800 		cmpl	$0, 8(%ebp)
 372 0295 0F849900 		je	L40
 372      0000
 253:E:/NeuOrga/Programmieren/c_cpp/github_os/input/src/os_base\os_task_scheduler.c ****    {
 254:E:/NeuOrga/Programmieren/c_cpp/github_os/input/src/os_base\os_task_scheduler.c ****       if(task->state_request(task, Task_ready)==Accepted)
 373              		.loc 1 254 0
 374 029b 8B4508   		movl	8(%ebp), %eax
 375 029e 8B4030   		movl	48(%eax), %eax
 376 02a1 C7442404 		movl	$2, 4(%esp)
 376      02000000 
 377 02a9 8B5508   		movl	8(%ebp), %edx
 378 02ac 891424   		movl	%edx, (%esp)
 379 02af FFD0     		call	*%eax
 380 02b1 3C01     		cmpb	$1, %al
 381 02b3 756B     		jne	L42
 255:E:/NeuOrga/Programmieren/c_cpp/github_os/input/src/os_base\os_task_scheduler.c ****       {
 256:E:/NeuOrga/Programmieren/c_cpp/github_os/input/src/os_base\os_task_scheduler.c ****          DisableInterrupts();
 257:E:/NeuOrga/Programmieren/c_cpp/github_os/input/src/os_base\os_task_scheduler.c ****          /* 3. suspended to ready (add to runqueue) */
 258:E:/NeuOrga/Programmieren/c_cpp/github_os/input/src/os_base\os_task_scheduler.c ****          if(task->IdleTask == False)
 382              		.loc 1 258 0
 383 02b5 8B4508   		movl	8(%ebp), %eax
 384 02b8 8A00     		movb	(%eax), %al
 385 02ba 83E004   		andl	$4, %eax
 386 02bd 84C0     		testb	%al, %al
 387 02bf 7552     		jne	L43
 259:E:/NeuOrga/Programmieren/c_cpp/github_os/input/src/os_base\os_task_scheduler.c ****          {
 260:E:/NeuOrga/Programmieren/c_cpp/github_os/input/src/os_base\os_task_scheduler.c ****             if( (task->active == False)
 388              		.loc 1 260 0
 389 02c1 8B4508   		movl	8(%ebp), %eax
 390 02c4 8A00     		movb	(%eax), %al
 391 02c6 83E001   		andl	$1, %eax
 392 02c9 84C0     		testb	%al, %al
 393 02cb 741C     		je	L44
 261:E:/NeuOrga/Programmieren/c_cpp/github_os/input/src/os_base\os_task_scheduler.c ****                   || ( (task->active == True) && (task->NrOfInsAllowed > task->NrOfInsActivated) )/
 394              		.loc 1 261 0
 395 02cd 8B4508   		movl	8(%ebp), %eax
 396 02d0 8A00     		movb	(%eax), %al
 397 02d2 83E001   		andl	$1, %eax
 398 02d5 84C0     		testb	%al, %al
 399 02d7 745B     		je	L40
 400              		.loc 1 261 0 is_stmt 0 discriminator 1
 401 02d9 8B4508   		movl	8(%ebp), %eax
 402 02dc 8A5004   		movb	4(%eax), %dl
 403 02df 8B4508   		movl	8(%ebp), %eax
GAS LISTING C:\Users\PRESID~1\AppData\Local\Temp\ccdWwDHD.s 			page 14


 404 02e2 8A4005   		movb	5(%eax), %al
 405 02e5 38C2     		cmpb	%al, %dl
 406 02e7 764B     		jbe	L40
 407              	L44:
 262:E:/NeuOrga/Programmieren/c_cpp/github_os/input/src/os_base\os_task_scheduler.c ****               )
 263:E:/NeuOrga/Programmieren/c_cpp/github_os/input/src/os_base\os_task_scheduler.c ****             {
 264:E:/NeuOrga/Programmieren/c_cpp/github_os/input/src/os_base\os_task_scheduler.c ****                /* only activate if allowed by rule */
 265:E:/NeuOrga/Programmieren/c_cpp/github_os/input/src/os_base\os_task_scheduler.c ****                task = AddToTaskQueue(task);
 408              		.loc 1 265 0 is_stmt 1
 409 02e9 8B4508   		movl	8(%ebp), %eax
 410 02ec 890424   		movl	%eax, (%esp)
 411 02ef E8000000 		call	_AddToTaskQueue
 411      00
 412 02f4 894508   		movl	%eax, 8(%ebp)
 266:E:/NeuOrga/Programmieren/c_cpp/github_os/input/src/os_base\os_task_scheduler.c **** 
 267:E:/NeuOrga/Programmieren/c_cpp/github_os/input/src/os_base\os_task_scheduler.c ****                AddToSchedulingQueue(task);
 413              		.loc 1 267 0
 414 02f7 8B4508   		movl	8(%ebp), %eax
 415 02fa 890424   		movl	%eax, (%esp)
 416 02fd E8000000 		call	_AddToSchedulingQueue
 416      00
 268:E:/NeuOrga/Programmieren/c_cpp/github_os/input/src/os_base\os_task_scheduler.c ****                task->NrOfInsActivated++;
 417              		.loc 1 268 0
 418 0302 8B4508   		movl	8(%ebp), %eax
 419 0305 8A4005   		movb	5(%eax), %al
 420 0308 8D5001   		leal	1(%eax), %edx
 421 030b 8B4508   		movl	8(%ebp), %eax
 422 030e 885005   		movb	%dl, 5(%eax)
 423 0311 EB21     		jmp	L40
 424              	L43:
 269:E:/NeuOrga/Programmieren/c_cpp/github_os/input/src/os_base\os_task_scheduler.c ****             }
 270:E:/NeuOrga/Programmieren/c_cpp/github_os/input/src/os_base\os_task_scheduler.c ****             else
 271:E:/NeuOrga/Programmieren/c_cpp/github_os/input/src/os_base\os_task_scheduler.c ****             {
 272:E:/NeuOrga/Programmieren/c_cpp/github_os/input/src/os_base\os_task_scheduler.c ****                /* multiple activation bug occured */
 273:E:/NeuOrga/Programmieren/c_cpp/github_os/input/src/os_base\os_task_scheduler.c ****             }
 274:E:/NeuOrga/Programmieren/c_cpp/github_os/input/src/os_base\os_task_scheduler.c ****          }
 275:E:/NeuOrga/Programmieren/c_cpp/github_os/input/src/os_base\os_task_scheduler.c ****          else
 276:E:/NeuOrga/Programmieren/c_cpp/github_os/input/src/os_base\os_task_scheduler.c ****          {
 277:E:/NeuOrga/Programmieren/c_cpp/github_os/input/src/os_base\os_task_scheduler.c ****             AddToIdleTaskQueue(task);
 425              		.loc 1 277 0
 426 0313 8B4508   		movl	8(%ebp), %eax
 427 0316 890424   		movl	%eax, (%esp)
 428 0319 E8000000 		call	_AddToIdleTaskQueue
 428      00
 429 031e EB14     		jmp	L40
 430              	L42:
 278:E:/NeuOrga/Programmieren/c_cpp/github_os/input/src/os_base\os_task_scheduler.c ****          }
 279:E:/NeuOrga/Programmieren/c_cpp/github_os/input/src/os_base\os_task_scheduler.c ****          EnableInterrupts();
 280:E:/NeuOrga/Programmieren/c_cpp/github_os/input/src/os_base\os_task_scheduler.c ****       }
 281:E:/NeuOrga/Programmieren/c_cpp/github_os/input/src/os_base\os_task_scheduler.c ****       else
 282:E:/NeuOrga/Programmieren/c_cpp/github_os/input/src/os_base\os_task_scheduler.c ****       {
 283:E:/NeuOrga/Programmieren/c_cpp/github_os/input/src/os_base\os_task_scheduler.c ****          OS_SetSwBug(os_bug_taskstate_request_denied, Func_ActivateTask);
 431              		.loc 1 283 0
 432 0320 C7442404 		movl	$11, 4(%esp)
 432      0B000000 
 433 0328 C7042401 		movl	$1, (%esp)
 433      000000
GAS LISTING C:\Users\PRESID~1\AppData\Local\Temp\ccdWwDHD.s 			page 15


 434 032f E8000000 		call	_OS_SetSwBug
 434      00
 435              	L40:
 284:E:/NeuOrga/Programmieren/c_cpp/github_os/input/src/os_base\os_task_scheduler.c ****       }
 285:E:/NeuOrga/Programmieren/c_cpp/github_os/input/src/os_base\os_task_scheduler.c ****    }
 286:E:/NeuOrga/Programmieren/c_cpp/github_os/input/src/os_base\os_task_scheduler.c **** }
 436              		.loc 1 286 0
 437 0334 C9       		leave
 438              		.cfi_restore 5
 439              		.cfi_def_cfa 4, 4
 440 0335 C3       		ret
 441              		.cfi_endproc
 442              	LFE5:
 443              		.globl	_OS_StartTask
 445              	_OS_StartTask:
 446              	LFB6:
 287:E:/NeuOrga/Programmieren/c_cpp/github_os/input/src/os_base\os_task_scheduler.c **** void OS_StartTask(task_t* task, scheduling_t* scheduling_task)
 288:E:/NeuOrga/Programmieren/c_cpp/github_os/input/src/os_base\os_task_scheduler.c **** {
 447              		.loc 1 288 0
 448              		.cfi_startproc
 449 0336 55       		pushl	%ebp
 450              		.cfi_def_cfa_offset 8
 451              		.cfi_offset 5, -8
 452 0337 89E5     		movl	%esp, %ebp
 453              		.cfi_def_cfa_register 5
 454 0339 83EC18   		subl	$24, %esp
 289:E:/NeuOrga/Programmieren/c_cpp/github_os/input/src/os_base\os_task_scheduler.c ****    /* OS_StartTask
 290:E:/NeuOrga/Programmieren/c_cpp/github_os/input/src/os_base\os_task_scheduler.c ****    - Disable interrupts
 291:E:/NeuOrga/Programmieren/c_cpp/github_os/input/src/os_base\os_task_scheduler.c ****    - restore Environment
 292:E:/NeuOrga/Programmieren/c_cpp/github_os/input/src/os_base\os_task_scheduler.c ****    - enable interrupts
 293:E:/NeuOrga/Programmieren/c_cpp/github_os/input/src/os_base\os_task_scheduler.c **** 
 294:E:/NeuOrga/Programmieren/c_cpp/github_os/input/src/os_base\os_task_scheduler.c ****    - Start Task
 295:E:/NeuOrga/Programmieren/c_cpp/github_os/input/src/os_base\os_task_scheduler.c ****     */
 296:E:/NeuOrga/Programmieren/c_cpp/github_os/input/src/os_base\os_task_scheduler.c ****    if( (task != 0) && (scheduling_task != 0)&& ((task->task_queued != False)||(task->IdleTask != Fa
 455              		.loc 1 296 0
 456 033c 837D0800 		cmpl	$0, 8(%ebp)
 457 0340 0F840301 		je	L47
 457      0000
 458              		.loc 1 296 0 is_stmt 0 discriminator 1
 459 0346 837D0C00 		cmpl	$0, 12(%ebp)
 460 034a 0F84F900 		je	L47
 460      0000
 461              		.loc 1 296 0 discriminator 2
 462 0350 8B4508   		movl	8(%ebp), %eax
 463 0353 8A00     		movb	(%eax), %al
 464 0355 83E002   		andl	$2, %eax
 465 0358 84C0     		testb	%al, %al
 466 035a 7510     		jne	L49
 467              		.loc 1 296 0 discriminator 3
 468 035c 8B4508   		movl	8(%ebp), %eax
 469 035f 8A00     		movb	(%eax), %al
 470 0361 83E004   		andl	$4, %eax
 471 0364 84C0     		testb	%al, %al
 472 0366 0F84DD00 		je	L47
 472      0000
 473              	L49:
 297:E:/NeuOrga/Programmieren/c_cpp/github_os/input/src/os_base\os_task_scheduler.c ****    {
GAS LISTING C:\Users\PRESID~1\AppData\Local\Temp\ccdWwDHD.s 			page 16


 298:E:/NeuOrga/Programmieren/c_cpp/github_os/input/src/os_base\os_task_scheduler.c ****       if(task->state_request !=0)
 474              		.loc 1 298 0 is_stmt 1
 475 036c 8B4508   		movl	8(%ebp), %eax
 476 036f 8B4030   		movl	48(%eax), %eax
 477 0372 85C0     		testl	%eax, %eax
 478 0374 0F84BB00 		je	L50
 478      0000
 299:E:/NeuOrga/Programmieren/c_cpp/github_os/input/src/os_base\os_task_scheduler.c ****       {
 300:E:/NeuOrga/Programmieren/c_cpp/github_os/input/src/os_base\os_task_scheduler.c ****          if(task->state_request(task, Task_running)== Accepted)
 479              		.loc 1 300 0
 480 037a 8B4508   		movl	8(%ebp), %eax
 481 037d 8B4030   		movl	48(%eax), %eax
 482 0380 C7442404 		movl	$3, 4(%esp)
 482      03000000 
 483 0388 8B5508   		movl	8(%ebp), %edx
 484 038b 891424   		movl	%edx, (%esp)
 485 038e FFD0     		call	*%eax
 486 0390 3C01     		cmpb	$1, %al
 487 0392 0F858700 		jne	L51
 487      0000
 301:E:/NeuOrga/Programmieren/c_cpp/github_os/input/src/os_base\os_task_scheduler.c ****          {
 302:E:/NeuOrga/Programmieren/c_cpp/github_os/input/src/os_base\os_task_scheduler.c ****             DisableInterrupts();
 303:E:/NeuOrga/Programmieren/c_cpp/github_os/input/src/os_base\os_task_scheduler.c ****             task->active =  True;
 488              		.loc 1 303 0
 489 0398 8B4508   		movl	8(%ebp), %eax
 490 039b 8A10     		movb	(%eax), %dl
 491 039d 83CA01   		orl	$1, %edx
 492 03a0 8810     		movb	%dl, (%eax)
 304:E:/NeuOrga/Programmieren/c_cpp/github_os/input/src/os_base\os_task_scheduler.c ****             task->wait_time = 0;
 493              		.loc 1 304 0
 494 03a2 8B4508   		movl	8(%ebp), %eax
 495 03a5 C7400C00 		movl	$0, 12(%eax)
 495      000000
 305:E:/NeuOrga/Programmieren/c_cpp/github_os/input/src/os_base\os_task_scheduler.c ****             task->current_prio = task->default_prio;
 496              		.loc 1 305 0
 497 03ac 8B4508   		movl	8(%ebp), %eax
 498 03af 8A5025   		movb	37(%eax), %dl
 499 03b2 8B4508   		movl	8(%ebp), %eax
 500 03b5 885024   		movb	%dl, 36(%eax)
 306:E:/NeuOrga/Programmieren/c_cpp/github_os/input/src/os_base\os_task_scheduler.c ****             OS_TASK_SAVE_SYSTEM_STACK(&OS_STACK[OS_GetCoreId()][0]);
 501              		.loc 1 306 0
 502 03b8 E8000000 		call	_OS_GetCoreId
 502      00
 503 03bd 89C2     		movl	%eax, %edx
 504 03bf 89D0     		movl	%edx, %eax
 505 03c1 C1E002   		sall	$2, %eax
 506 03c4 01D0     		addl	%edx, %eax
 507 03c6 C1E00C   		sall	$12, %eax
 508 03c9 05000000 		addl	$_OS_STACK, %eax
 508      00
 509 03ce 890424   		movl	%eax, (%esp)
 510 03d1 E8000000 		call	_OS_TASK_SAVE_SYSTEM_STACK
 510      00
 307:E:/NeuOrga/Programmieren/c_cpp/github_os/input/src/os_base\os_task_scheduler.c ****             OS_TASK_RESTORETASK_ENVIRONMENT(task);
 511              		.loc 1 307 0
 512 03d6 8B4508   		movl	8(%ebp), %eax
 513 03d9 890424   		movl	%eax, (%esp)
GAS LISTING C:\Users\PRESID~1\AppData\Local\Temp\ccdWwDHD.s 			page 17


 514 03dc E8000000 		call	_OS_TASK_RESTORETASK_ENVIRONMENT
 514      00
 308:E:/NeuOrga/Programmieren/c_cpp/github_os/input/src/os_base\os_task_scheduler.c ****             task->start_time = OS_GetCurrentTime();
 515              		.loc 1 308 0
 516 03e1 E8000000 		call	_OS_GetCurrentTime
 516      00
 517 03e6 89C2     		movl	%eax, %edx
 518 03e8 8B4508   		movl	8(%ebp), %eax
 519 03eb 895020   		movl	%edx, 32(%eax)
 309:E:/NeuOrga/Programmieren/c_cpp/github_os/input/src/os_base\os_task_scheduler.c ****             EnableInterrupts();
 310:E:/NeuOrga/Programmieren/c_cpp/github_os/input/src/os_base\os_task_scheduler.c **** 
 311:E:/NeuOrga/Programmieren/c_cpp/github_os/input/src/os_base\os_task_scheduler.c ****             /* task execution shall not happen with disabled interrupts */
 312:E:/NeuOrga/Programmieren/c_cpp/github_os/input/src/os_base\os_task_scheduler.c ****             SET_RUNNING_TASK(task, scheduling_task);
 520              		.loc 1 312 0
 521 03ee 8B450C   		movl	12(%ebp), %eax
 522 03f1 89442404 		movl	%eax, 4(%esp)
 523 03f5 8B4508   		movl	8(%ebp), %eax
 524 03f8 890424   		movl	%eax, (%esp)
 525 03fb E8000000 		call	_SET_RUNNING_TASK
 525      00
 313:E:/NeuOrga/Programmieren/c_cpp/github_os/input/src/os_base\os_task_scheduler.c ****             /* change to user mode... */
 314:E:/NeuOrga/Programmieren/c_cpp/github_os/input/src/os_base\os_task_scheduler.c ****             if(task->privilige_mode == ePriviligeMode_unpriviliged_thread_mode)
 526              		.loc 1 314 0
 527 0400 8B4508   		movl	8(%ebp), %eax
 528 0403 8B4060   		movl	96(%eax), %eax
 529 0406 85C0     		testl	%eax, %eax
 530 0408 7505     		jne	L52
 315:E:/NeuOrga/Programmieren/c_cpp/github_os/input/src/os_base\os_task_scheduler.c ****             {
 316:E:/NeuOrga/Programmieren/c_cpp/github_os/input/src/os_base\os_task_scheduler.c ****                LLF_CHANGE_TO_UNPRIVILIGED_THREAD_MODE();
 531              		.loc 1 316 0
 532 040a E8000000 		call	_LLF_CHANGE_TO_UNPRIVILIGED_THREAD_MODE
 532      00
 533              	L52:
 317:E:/NeuOrga/Programmieren/c_cpp/github_os/input/src/os_base\os_task_scheduler.c ****             }
 318:E:/NeuOrga/Programmieren/c_cpp/github_os/input/src/os_base\os_task_scheduler.c **** 
 319:E:/NeuOrga/Programmieren/c_cpp/github_os/input/src/os_base\os_task_scheduler.c ****             /* call the task entry function */
 320:E:/NeuOrga/Programmieren/c_cpp/github_os/input/src/os_base\os_task_scheduler.c ****             task->fp(task);
 534              		.loc 1 320 0
 535 040f 8B4508   		movl	8(%ebp), %eax
 536 0412 8B402C   		movl	44(%eax), %eax
 537 0415 8B5508   		movl	8(%ebp), %edx
 538 0418 891424   		movl	%edx, (%esp)
 539 041b FFD0     		call	*%eax
 540 041d EB2A     		jmp	L47
 541              	L51:
 321:E:/NeuOrga/Programmieren/c_cpp/github_os/input/src/os_base\os_task_scheduler.c ****          }
 322:E:/NeuOrga/Programmieren/c_cpp/github_os/input/src/os_base\os_task_scheduler.c ****          else
 323:E:/NeuOrga/Programmieren/c_cpp/github_os/input/src/os_base\os_task_scheduler.c ****          {
 324:E:/NeuOrga/Programmieren/c_cpp/github_os/input/src/os_base\os_task_scheduler.c ****             OS_SetSwBug(os_bug_taskstate_request_denied, Func_StartTask);
 542              		.loc 1 324 0
 543 041f C7442404 		movl	$6, 4(%esp)
 543      06000000 
 544 0427 C7042401 		movl	$1, (%esp)
 544      000000
 545 042e E8000000 		call	_OS_SetSwBug
 545      00
 546 0433 EB14     		jmp	L47
GAS LISTING C:\Users\PRESID~1\AppData\Local\Temp\ccdWwDHD.s 			page 18


 547              	L50:
 325:E:/NeuOrga/Programmieren/c_cpp/github_os/input/src/os_base\os_task_scheduler.c ****          }
 326:E:/NeuOrga/Programmieren/c_cpp/github_os/input/src/os_base\os_task_scheduler.c **** 
 327:E:/NeuOrga/Programmieren/c_cpp/github_os/input/src/os_base\os_task_scheduler.c ****       }
 328:E:/NeuOrga/Programmieren/c_cpp/github_os/input/src/os_base\os_task_scheduler.c ****       else
 329:E:/NeuOrga/Programmieren/c_cpp/github_os/input/src/os_base\os_task_scheduler.c ****       {
 330:E:/NeuOrga/Programmieren/c_cpp/github_os/input/src/os_base\os_task_scheduler.c ****          OS_SetSwBug(os_bug_null_pointer, Func_StartTask);
 548              		.loc 1 330 0
 549 0435 C7442404 		movl	$6, 4(%esp)
 549      06000000 
 550 043d C7042402 		movl	$2, (%esp)
 550      000000
 551 0444 E8000000 		call	_OS_SetSwBug
 551      00
 552              	L47:
 331:E:/NeuOrga/Programmieren/c_cpp/github_os/input/src/os_base\os_task_scheduler.c ****       }
 332:E:/NeuOrga/Programmieren/c_cpp/github_os/input/src/os_base\os_task_scheduler.c ****    }
 333:E:/NeuOrga/Programmieren/c_cpp/github_os/input/src/os_base\os_task_scheduler.c ****    /* allowed in case of empty QUEUE elements (queue elements which have no activate_task yet recei
 334:E:/NeuOrga/Programmieren/c_cpp/github_os/input/src/os_base\os_task_scheduler.c ****    else
 335:E:/NeuOrga/Programmieren/c_cpp/github_os/input/src/os_base\os_task_scheduler.c ****    {
 336:E:/NeuOrga/Programmieren/c_cpp/github_os/input/src/os_base\os_task_scheduler.c ****        OS_SetSwBug(os_bug_null_pointer, Func_StartTask);
 337:E:/NeuOrga/Programmieren/c_cpp/github_os/input/src/os_base\os_task_scheduler.c ****    }
 338:E:/NeuOrga/Programmieren/c_cpp/github_os/input/src/os_base\os_task_scheduler.c ****    */
 339:E:/NeuOrga/Programmieren/c_cpp/github_os/input/src/os_base\os_task_scheduler.c **** }
 553              		.loc 1 339 0
 554 0449 C9       		leave
 555              		.cfi_restore 5
 556              		.cfi_def_cfa 4, 4
 557 044a C3       		ret
 558              		.cfi_endproc
 559              	LFE6:
 560              		.globl	_OS_TerminateTask
 562              	_OS_TerminateTask:
 563              	LFB7:
 340:E:/NeuOrga/Programmieren/c_cpp/github_os/input/src/os_base\os_task_scheduler.c **** void OS_TerminateTask(task_t* task, scheduling_t* scheduling_task)
 341:E:/NeuOrga/Programmieren/c_cpp/github_os/input/src/os_base\os_task_scheduler.c **** {
 564              		.loc 1 341 0
 565              		.cfi_startproc
 566 044b 55       		pushl	%ebp
 567              		.cfi_def_cfa_offset 8
 568              		.cfi_offset 5, -8
 569 044c 89E5     		movl	%esp, %ebp
 570              		.cfi_def_cfa_register 5
 571 044e 83EC18   		subl	$24, %esp
 342:E:/NeuOrga/Programmieren/c_cpp/github_os/input/src/os_base\os_task_scheduler.c ****    /* Preempt task
 343:E:/NeuOrga/Programmieren/c_cpp/github_os/input/src/os_base\os_task_scheduler.c ****    - Disable Interrupts
 344:E:/NeuOrga/Programmieren/c_cpp/github_os/input/src/os_base\os_task_scheduler.c ****    - OS_TaskSaveTaskEnvironment
 345:E:/NeuOrga/Programmieren/c_cpp/github_os/input/src/os_base\os_task_scheduler.c ****    - add to Schedule Queue / delete from RunQueue
 346:E:/NeuOrga/Programmieren/c_cpp/github_os/input/src/os_base\os_task_scheduler.c ****    - delete active flag
 347:E:/NeuOrga/Programmieren/c_cpp/github_os/input/src/os_base\os_task_scheduler.c ****    - enable Interrupts
 348:E:/NeuOrga/Programmieren/c_cpp/github_os/input/src/os_base\os_task_scheduler.c ****    */
 349:E:/NeuOrga/Programmieren/c_cpp/github_os/input/src/os_base\os_task_scheduler.c ****    if(task != 0 && scheduling_task != 0)
 572              		.loc 1 349 0
 573 0451 837D0800 		cmpl	$0, 8(%ebp)
 574 0455 0F84B500 		je	L55
 574      0000
 575              		.loc 1 349 0 is_stmt 0 discriminator 1
GAS LISTING C:\Users\PRESID~1\AppData\Local\Temp\ccdWwDHD.s 			page 19


 576 045b 837D0C00 		cmpl	$0, 12(%ebp)
 577 045f 0F84AB00 		je	L55
 577      0000
 350:E:/NeuOrga/Programmieren/c_cpp/github_os/input/src/os_base\os_task_scheduler.c ****    {
 351:E:/NeuOrga/Programmieren/c_cpp/github_os/input/src/os_base\os_task_scheduler.c ****       if(task->state_request != 0)
 578              		.loc 1 351 0 is_stmt 1
 579 0465 8B4508   		movl	8(%ebp), %eax
 580 0468 8B4030   		movl	48(%eax), %eax
 581 046b 85C0     		testl	%eax, %eax
 582 046d 0F848700 		je	L56
 582      0000
 352:E:/NeuOrga/Programmieren/c_cpp/github_os/input/src/os_base\os_task_scheduler.c ****       {
 353:E:/NeuOrga/Programmieren/c_cpp/github_os/input/src/os_base\os_task_scheduler.c ****          if(task->state_request(task, Task_suspended)== Accepted)
 583              		.loc 1 353 0
 584 0473 8B4508   		movl	8(%ebp), %eax
 585 0476 8B4030   		movl	48(%eax), %eax
 586 0479 C7442404 		movl	$1, 4(%esp)
 586      01000000 
 587 0481 8B5508   		movl	8(%ebp), %edx
 588 0484 891424   		movl	%edx, (%esp)
 589 0487 FFD0     		call	*%eax
 590 0489 3C01     		cmpb	$1, %al
 591 048b 7557     		jne	L57
 354:E:/NeuOrga/Programmieren/c_cpp/github_os/input/src/os_base\os_task_scheduler.c ****          {
 355:E:/NeuOrga/Programmieren/c_cpp/github_os/input/src/os_base\os_task_scheduler.c ****             DisableInterrupts();
 356:E:/NeuOrga/Programmieren/c_cpp/github_os/input/src/os_base\os_task_scheduler.c ****             OS_TaskSaveTaskEnvironment(task);
 592              		.loc 1 356 0
 593 048d 8B4508   		movl	8(%ebp), %eax
 594 0490 890424   		movl	%eax, (%esp)
 595 0493 E8000000 		call	_OS_TaskSaveTaskEnvironment
 595      00
 357:E:/NeuOrga/Programmieren/c_cpp/github_os/input/src/os_base\os_task_scheduler.c ****             OS_TASK_RESTORE_SYSTEM_STACK(&OS_STACK[OS_GetCoreId()][0]);
 596              		.loc 1 357 0
 597 0498 E8000000 		call	_OS_GetCoreId
 597      00
 598 049d 89C2     		movl	%eax, %edx
 599 049f 89D0     		movl	%edx, %eax
 600 04a1 C1E002   		sall	$2, %eax
 601 04a4 01D0     		addl	%edx, %eax
 602 04a6 C1E00C   		sall	$12, %eax
 603 04a9 05000000 		addl	$_OS_STACK, %eax
 603      00
 604 04ae 890424   		movl	%eax, (%esp)
 605 04b1 E8000000 		call	_OS_TASK_RESTORE_SYSTEM_STACK
 605      00
 358:E:/NeuOrga/Programmieren/c_cpp/github_os/input/src/os_base\os_task_scheduler.c ****             DeleteFromTaskQueue(task);
 606              		.loc 1 358 0
 607 04b6 8B4508   		movl	8(%ebp), %eax
 608 04b9 890424   		movl	%eax, (%esp)
 609 04bc E8000000 		call	_DeleteFromTaskQueue
 609      00
 359:E:/NeuOrga/Programmieren/c_cpp/github_os/input/src/os_base\os_task_scheduler.c ****             DeleteFromSchedulingQueue(scheduling_task);
 610              		.loc 1 359 0
 611 04c1 8B450C   		movl	12(%ebp), %eax
 612 04c4 890424   		movl	%eax, (%esp)
 613 04c7 E8000000 		call	_DeleteFromSchedulingQueue
 613      00
GAS LISTING C:\Users\PRESID~1\AppData\Local\Temp\ccdWwDHD.s 			page 20


 360:E:/NeuOrga/Programmieren/c_cpp/github_os/input/src/os_base\os_task_scheduler.c **** 
 361:E:/NeuOrga/Programmieren/c_cpp/github_os/input/src/os_base\os_task_scheduler.c ****             task->active = False;
 614              		.loc 1 361 0
 615 04cc 8B4508   		movl	8(%ebp), %eax
 616 04cf 8A10     		movb	(%eax), %dl
 617 04d1 83E2FE   		andl	$-2, %edx
 618 04d4 8810     		movb	%dl, (%eax)
 362:E:/NeuOrga/Programmieren/c_cpp/github_os/input/src/os_base\os_task_scheduler.c ****             /* reset the prio increase for waiting */
 363:E:/NeuOrga/Programmieren/c_cpp/github_os/input/src/os_base\os_task_scheduler.c ****             task->current_prio = task->default_prio;
 619              		.loc 1 363 0
 620 04d6 8B4508   		movl	8(%ebp), %eax
 621 04d9 8A5025   		movb	37(%eax), %dl
 622 04dc 8B4508   		movl	8(%ebp), %eax
 623 04df 885024   		movb	%dl, 36(%eax)
 351:E:/NeuOrga/Programmieren/c_cpp/github_os/input/src/os_base\os_task_scheduler.c ****       {
 624              		.loc 1 351 0
 625 04e2 EB40     		jmp	L54
 626              	L57:
 364:E:/NeuOrga/Programmieren/c_cpp/github_os/input/src/os_base\os_task_scheduler.c ****             EnableInterrupts();
 365:E:/NeuOrga/Programmieren/c_cpp/github_os/input/src/os_base\os_task_scheduler.c ****          }
 366:E:/NeuOrga/Programmieren/c_cpp/github_os/input/src/os_base\os_task_scheduler.c ****          else
 367:E:/NeuOrga/Programmieren/c_cpp/github_os/input/src/os_base\os_task_scheduler.c ****          {
 368:E:/NeuOrga/Programmieren/c_cpp/github_os/input/src/os_base\os_task_scheduler.c ****             OS_SetSwBug(os_bug_taskstate_request_denied, Func_TerminateTask);
 627              		.loc 1 368 0
 628 04e4 C7442404 		movl	$8, 4(%esp)
 628      08000000 
 629 04ec C7042401 		movl	$1, (%esp)
 629      000000
 630 04f3 E8000000 		call	_OS_SetSwBug
 630      00
 351:E:/NeuOrga/Programmieren/c_cpp/github_os/input/src/os_base\os_task_scheduler.c ****       {
 631              		.loc 1 351 0
 632 04f8 EB2A     		jmp	L54
 633              	L56:
 369:E:/NeuOrga/Programmieren/c_cpp/github_os/input/src/os_base\os_task_scheduler.c ****          }
 370:E:/NeuOrga/Programmieren/c_cpp/github_os/input/src/os_base\os_task_scheduler.c ****       }
 371:E:/NeuOrga/Programmieren/c_cpp/github_os/input/src/os_base\os_task_scheduler.c ****       else
 372:E:/NeuOrga/Programmieren/c_cpp/github_os/input/src/os_base\os_task_scheduler.c ****       {
 373:E:/NeuOrga/Programmieren/c_cpp/github_os/input/src/os_base\os_task_scheduler.c ****          OS_SetSwBug(os_bug_null_pointer, Func_TerminateTask);
 634              		.loc 1 373 0
 635 04fa C7442404 		movl	$8, 4(%esp)
 635      08000000 
 636 0502 C7042402 		movl	$2, (%esp)
 636      000000
 637 0509 E8000000 		call	_OS_SetSwBug
 637      00
 351:E:/NeuOrga/Programmieren/c_cpp/github_os/input/src/os_base\os_task_scheduler.c ****       {
 638              		.loc 1 351 0
 639 050e EB14     		jmp	L54
 640              	L55:
 374:E:/NeuOrga/Programmieren/c_cpp/github_os/input/src/os_base\os_task_scheduler.c ****       }
 375:E:/NeuOrga/Programmieren/c_cpp/github_os/input/src/os_base\os_task_scheduler.c **** 
 376:E:/NeuOrga/Programmieren/c_cpp/github_os/input/src/os_base\os_task_scheduler.c ****    }
 377:E:/NeuOrga/Programmieren/c_cpp/github_os/input/src/os_base\os_task_scheduler.c ****    else
 378:E:/NeuOrga/Programmieren/c_cpp/github_os/input/src/os_base\os_task_scheduler.c ****    {
 379:E:/NeuOrga/Programmieren/c_cpp/github_os/input/src/os_base\os_task_scheduler.c ****       OS_SetSwBug(os_bug_null_pointer, Func_TerminateTask);
 641              		.loc 1 379 0
GAS LISTING C:\Users\PRESID~1\AppData\Local\Temp\ccdWwDHD.s 			page 21


 642 0510 C7442404 		movl	$8, 4(%esp)
 642      08000000 
 643 0518 C7042402 		movl	$2, (%esp)
 643      000000
 644 051f E8000000 		call	_OS_SetSwBug
 644      00
 645              	L54:
 380:E:/NeuOrga/Programmieren/c_cpp/github_os/input/src/os_base\os_task_scheduler.c ****    }
 381:E:/NeuOrga/Programmieren/c_cpp/github_os/input/src/os_base\os_task_scheduler.c **** }
 646              		.loc 1 381 0
 647 0524 C9       		leave
 648              		.cfi_restore 5
 649              		.cfi_def_cfa 4, 4
 650 0525 C3       		ret
 651              		.cfi_endproc
 652              	LFE7:
 653              		.globl	_OS_TaskDispatcher
 655              	_OS_TaskDispatcher:
 656              	LFB8:
 382:E:/NeuOrga/Programmieren/c_cpp/github_os/input/src/os_base\os_task_scheduler.c **** void OS_TaskDispatcher(void)
 383:E:/NeuOrga/Programmieren/c_cpp/github_os/input/src/os_base\os_task_scheduler.c **** {
 657              		.loc 1 383 0
 658              		.cfi_startproc
 659 0526 55       		pushl	%ebp
 660              		.cfi_def_cfa_offset 8
 661              		.cfi_offset 5, -8
 662 0527 89E5     		movl	%esp, %ebp
 663              		.cfi_def_cfa_register 5
 664 0529 83EC28   		subl	$40, %esp
 384:E:/NeuOrga/Programmieren/c_cpp/github_os/input/src/os_base\os_task_scheduler.c ****    /* called in an certain core context (Core_0/1/2/3)*/
 385:E:/NeuOrga/Programmieren/c_cpp/github_os/input/src/os_base\os_task_scheduler.c **** 
 386:E:/NeuOrga/Programmieren/c_cpp/github_os/input/src/os_base\os_task_scheduler.c **** 
 387:E:/NeuOrga/Programmieren/c_cpp/github_os/input/src/os_base\os_task_scheduler.c ****    /*
 388:E:/NeuOrga/Programmieren/c_cpp/github_os/input/src/os_base\os_task_scheduler.c ****    1. running     --(terminate)--> suspend
 389:E:/NeuOrga/Programmieren/c_cpp/github_os/input/src/os_base\os_task_scheduler.c ****    2. running     --(preempt  )--> ready
 390:E:/NeuOrga/Programmieren/c_cpp/github_os/input/src/os_base\os_task_scheduler.c ****    3. suspend     --(activate )--> ready
 391:E:/NeuOrga/Programmieren/c_cpp/github_os/input/src/os_base\os_task_scheduler.c ****    4. ready       --(start    )--> running
 392:E:/NeuOrga/Programmieren/c_cpp/github_os/input/src/os_base\os_task_scheduler.c ****    5. unspecified --(create   )--> suspend
 393:E:/NeuOrga/Programmieren/c_cpp/github_os/input/src/os_base\os_task_scheduler.c ****    */
 394:E:/NeuOrga/Programmieren/c_cpp/github_os/input/src/os_base\os_task_scheduler.c ****    scheduling_t* scheduling_task_ptr;
 395:E:/NeuOrga/Programmieren/c_cpp/github_os/input/src/os_base\os_task_scheduler.c ****    task_t* task = 0;
 665              		.loc 1 395 0
 666 052c C745F400 		movl	$0, -12(%ebp)
 666      000000
 396:E:/NeuOrga/Programmieren/c_cpp/github_os/input/src/os_base\os_task_scheduler.c ****    /* get running task */
 397:E:/NeuOrga/Programmieren/c_cpp/github_os/input/src/os_base\os_task_scheduler.c ****    task         = GetRunningTask();
 667              		.loc 1 397 0
 668 0533 E8000000 		call	_GetRunningTask
 668      00
 669 0538 8945F4   		movl	%eax, -12(%ebp)
 398:E:/NeuOrga/Programmieren/c_cpp/github_os/input/src/os_base\os_task_scheduler.c ****    scheduling_task_ptr = GetRunningSchedulingQueueElementPtr();
 670              		.loc 1 398 0
 671 053b E8000000 		call	_GetRunningSchedulingQueueElementPtr
 671      00
 672 0540 8945F0   		movl	%eax, -16(%ebp)
 399:E:/NeuOrga/Programmieren/c_cpp/github_os/input/src/os_base\os_task_scheduler.c ****    /* Preempt Task */
 400:E:/NeuOrga/Programmieren/c_cpp/github_os/input/src/os_base\os_task_scheduler.c ****    if(task!=0 && scheduling_task_ptr != 0)
GAS LISTING C:\Users\PRESID~1\AppData\Local\Temp\ccdWwDHD.s 			page 22


 673              		.loc 1 400 0
 674 0543 837DF400 		cmpl	$0, -12(%ebp)
 675 0547 7418     		je	L62
 676              		.loc 1 400 0 is_stmt 0 discriminator 1
 677 0549 837DF000 		cmpl	$0, -16(%ebp)
 678 054d 7412     		je	L62
 401:E:/NeuOrga/Programmieren/c_cpp/github_os/input/src/os_base\os_task_scheduler.c ****    {
 402:E:/NeuOrga/Programmieren/c_cpp/github_os/input/src/os_base\os_task_scheduler.c ****       OS_TerminateTask(task, scheduling_task_ptr);
 679              		.loc 1 402 0 is_stmt 1
 680 054f 8B45F0   		movl	-16(%ebp), %eax
 681 0552 89442404 		movl	%eax, 4(%esp)
 682 0556 8B45F4   		movl	-12(%ebp), %eax
 683 0559 890424   		movl	%eax, (%esp)
 684 055c E8EAFEFF 		call	_OS_TerminateTask
 684      FF
 685              	L62:
 403:E:/NeuOrga/Programmieren/c_cpp/github_os/input/src/os_base\os_task_scheduler.c ****    }
 404:E:/NeuOrga/Programmieren/c_cpp/github_os/input/src/os_base\os_task_scheduler.c **** 
 405:E:/NeuOrga/Programmieren/c_cpp/github_os/input/src/os_base\os_task_scheduler.c **** 
 406:E:/NeuOrga/Programmieren/c_cpp/github_os/input/src/os_base\os_task_scheduler.c ****    /* ask for the next task to be activated... */
 407:E:/NeuOrga/Programmieren/c_cpp/github_os/input/src/os_base\os_task_scheduler.c ****    scheduling_task_ptr = OS_TaskScheduler();
 686              		.loc 1 407 0
 687 0561 E84A0200 		call	_OS_TaskScheduler
 687      00
 688 0566 8945F0   		movl	%eax, -16(%ebp)
 408:E:/NeuOrga/Programmieren/c_cpp/github_os/input/src/os_base\os_task_scheduler.c ****    if(scheduling_task_ptr != 0)
 689              		.loc 1 408 0
 690 0569 837DF000 		cmpl	$0, -16(%ebp)
 691 056d 740E     		je	L63
 409:E:/NeuOrga/Programmieren/c_cpp/github_os/input/src/os_base\os_task_scheduler.c ****    {
 410:E:/NeuOrga/Programmieren/c_cpp/github_os/input/src/os_base\os_task_scheduler.c ****       task = GetFromTaskQueue(scheduling_task_ptr);
 692              		.loc 1 410 0
 693 056f 8B45F0   		movl	-16(%ebp), %eax
 694 0572 890424   		movl	%eax, (%esp)
 695 0575 E8000000 		call	_GetFromTaskQueue
 695      00
 696 057a 8945F4   		movl	%eax, -12(%ebp)
 697              	L63:
 411:E:/NeuOrga/Programmieren/c_cpp/github_os/input/src/os_base\os_task_scheduler.c ****    }
 412:E:/NeuOrga/Programmieren/c_cpp/github_os/input/src/os_base\os_task_scheduler.c ****    if(task != 0 && scheduling_task_ptr != 0)
 698              		.loc 1 412 0
 699 057d 837DF400 		cmpl	$0, -12(%ebp)
 700 0581 7418     		je	L61
 701              		.loc 1 412 0 is_stmt 0 discriminator 1
 702 0583 837DF000 		cmpl	$0, -16(%ebp)
 703 0587 7412     		je	L61
 413:E:/NeuOrga/Programmieren/c_cpp/github_os/input/src/os_base\os_task_scheduler.c ****    {
 414:E:/NeuOrga/Programmieren/c_cpp/github_os/input/src/os_base\os_task_scheduler.c ****        OS_StartTask(task, scheduling_task_ptr);
 704              		.loc 1 414 0 is_stmt 1
 705 0589 8B45F0   		movl	-16(%ebp), %eax
 706 058c 89442404 		movl	%eax, 4(%esp)
 707 0590 8B45F4   		movl	-12(%ebp), %eax
 708 0593 890424   		movl	%eax, (%esp)
 709 0596 E89BFDFF 		call	_OS_StartTask
 709      FF
 710              	L61:
 415:E:/NeuOrga/Programmieren/c_cpp/github_os/input/src/os_base\os_task_scheduler.c ****    }
GAS LISTING C:\Users\PRESID~1\AppData\Local\Temp\ccdWwDHD.s 			page 23


 416:E:/NeuOrga/Programmieren/c_cpp/github_os/input/src/os_base\os_task_scheduler.c **** }
 711              		.loc 1 416 0
 712 059b C9       		leave
 713              		.cfi_restore 5
 714              		.cfi_def_cfa 4, 4
 715 059c C3       		ret
 716              		.cfi_endproc
 717              	LFE8:
 719              	_TASK_0:
 720              	LFB9:
 417:E:/NeuOrga/Programmieren/c_cpp/github_os/input/src/os_base\os_task_scheduler.c **** Local void TASK_0(void* task_ptr)
 418:E:/NeuOrga/Programmieren/c_cpp/github_os/input/src/os_base\os_task_scheduler.c **** {
 721              		.loc 1 418 0
 722              		.cfi_startproc
 723 059d 55       		pushl	%ebp
 724              		.cfi_def_cfa_offset 8
 725              		.cfi_offset 5, -8
 726 059e 89E5     		movl	%esp, %ebp
 727              		.cfi_def_cfa_register 5
 419:E:/NeuOrga/Programmieren/c_cpp/github_os/input/src/os_base\os_task_scheduler.c ****    ReferenceUnusedParameter(task_ptr);
 420:E:/NeuOrga/Programmieren/c_cpp/github_os/input/src/os_base\os_task_scheduler.c ****    HaltMcu();/* HLT will be ended by timer interrupt, what shall be done with the rest of the funct
 421:E:/NeuOrga/Programmieren/c_cpp/github_os/input/src/os_base\os_task_scheduler.c **** }
 728              		.loc 1 421 0
 729 05a0 5D       		popl	%ebp
 730              		.cfi_restore 5
 731              		.cfi_def_cfa 4, 4
 732 05a1 C3       		ret
 733              		.cfi_endproc
 734              	LFE9:
 736              	_TASK_1:
 737              	LFB10:
 422:E:/NeuOrga/Programmieren/c_cpp/github_os/input/src/os_base\os_task_scheduler.c **** Local void TASK_1(void* task_ptr)
 423:E:/NeuOrga/Programmieren/c_cpp/github_os/input/src/os_base\os_task_scheduler.c **** {
 738              		.loc 1 423 0
 739              		.cfi_startproc
 740 05a2 55       		pushl	%ebp
 741              		.cfi_def_cfa_offset 8
 742              		.cfi_offset 5, -8
 743 05a3 89E5     		movl	%esp, %ebp
 744              		.cfi_def_cfa_register 5
 745 05a5 83EC28   		subl	$40, %esp
 424:E:/NeuOrga/Programmieren/c_cpp/github_os/input/src/os_base\os_task_scheduler.c ****    scheduling_t* scheduling_task_ptr = 0;
 746              		.loc 1 424 0
 747 05a8 C745F400 		movl	$0, -12(%ebp)
 747      000000
 425:E:/NeuOrga/Programmieren/c_cpp/github_os/input/src/os_base\os_task_scheduler.c ****    ReferenceUnusedParameter(task_ptr);
 426:E:/NeuOrga/Programmieren/c_cpp/github_os/input/src/os_base\os_task_scheduler.c ****    /* worker task */
 427:E:/NeuOrga/Programmieren/c_cpp/github_os/input/src/os_base\os_task_scheduler.c ****    scheduling_task_ptr = GetRunningSchedulingQueueElementPtr();
 748              		.loc 1 427 0
 749 05af E8000000 		call	_GetRunningSchedulingQueueElementPtr
 749      00
 750 05b4 8945F4   		movl	%eax, -12(%ebp)
 428:E:/NeuOrga/Programmieren/c_cpp/github_os/input/src/os_base\os_task_scheduler.c ****    /* do some things */
 429:E:/NeuOrga/Programmieren/c_cpp/github_os/input/src/os_base\os_task_scheduler.c ****    /*while(1) {}*/
 430:E:/NeuOrga/Programmieren/c_cpp/github_os/input/src/os_base\os_task_scheduler.c ****    TASK1_CALL_NR++;
 751              		.loc 1 430 0
 752 05b7 A1000000 		movl	_TASK1_CALL_NR, %eax
GAS LISTING C:\Users\PRESID~1\AppData\Local\Temp\ccdWwDHD.s 			page 24


 752      00
 753 05bc 40       		incl	%eax
 754 05bd A3000000 		movl	%eax, _TASK1_CALL_NR
 754      00
 431:E:/NeuOrga/Programmieren/c_cpp/github_os/input/src/os_base\os_task_scheduler.c ****    OS_SleepTask((task_t*)task_ptr, 10, scheduling_task_ptr);
 755              		.loc 1 431 0
 756 05c2 8B45F4   		movl	-12(%ebp), %eax
 757 05c5 89442408 		movl	%eax, 8(%esp)
 758 05c9 C7442404 		movl	$10, 4(%esp)
 758      0A000000 
 759 05d1 8B4508   		movl	8(%ebp), %eax
 760 05d4 890424   		movl	%eax, (%esp)
 761 05d7 E829FAFF 		call	_OS_SleepTask
 761      FF
 432:E:/NeuOrga/Programmieren/c_cpp/github_os/input/src/os_base\os_task_scheduler.c ****    #if (CFG_PROCESSOR != cMCU_X86)
 433:E:/NeuOrga/Programmieren/c_cpp/github_os/input/src/os_base\os_task_scheduler.c ****    while(1) {}
 434:E:/NeuOrga/Programmieren/c_cpp/github_os/input/src/os_base\os_task_scheduler.c ****    #endif
 435:E:/NeuOrga/Programmieren/c_cpp/github_os/input/src/os_base\os_task_scheduler.c ****    /* end */
 436:E:/NeuOrga/Programmieren/c_cpp/github_os/input/src/os_base\os_task_scheduler.c **** }
 762              		.loc 1 436 0
 763 05dc C9       		leave
 764              		.cfi_restore 5
 765              		.cfi_def_cfa 4, 4
 766 05dd C3       		ret
 767              		.cfi_endproc
 768              	LFE10:
 770              	_TASK_2:
 771              	LFB11:
 437:E:/NeuOrga/Programmieren/c_cpp/github_os/input/src/os_base\os_task_scheduler.c **** Local void TASK_2(void* task_ptr)
 438:E:/NeuOrga/Programmieren/c_cpp/github_os/input/src/os_base\os_task_scheduler.c **** {
 772              		.loc 1 438 0
 773              		.cfi_startproc
 774 05de 55       		pushl	%ebp
 775              		.cfi_def_cfa_offset 8
 776              		.cfi_offset 5, -8
 777 05df 89E5     		movl	%esp, %ebp
 778              		.cfi_def_cfa_register 5
 439:E:/NeuOrga/Programmieren/c_cpp/github_os/input/src/os_base\os_task_scheduler.c ****    ReferenceUnusedParameter(task_ptr);
 440:E:/NeuOrga/Programmieren/c_cpp/github_os/input/src/os_base\os_task_scheduler.c ****    /* worker task */
 441:E:/NeuOrga/Programmieren/c_cpp/github_os/input/src/os_base\os_task_scheduler.c **** 
 442:E:/NeuOrga/Programmieren/c_cpp/github_os/input/src/os_base\os_task_scheduler.c ****    /* do some things */
 443:E:/NeuOrga/Programmieren/c_cpp/github_os/input/src/os_base\os_task_scheduler.c ****    TASK2_CALL_NR++;
 779              		.loc 1 443 0
 780 05e1 A1000000 		movl	_TASK2_CALL_NR, %eax
 780      00
 781 05e6 40       		incl	%eax
 782 05e7 A3000000 		movl	%eax, _TASK2_CALL_NR
 782      00
 444:E:/NeuOrga/Programmieren/c_cpp/github_os/input/src/os_base\os_task_scheduler.c ****    #if (CFG_PROCESSOR != cMCU_X86)
 445:E:/NeuOrga/Programmieren/c_cpp/github_os/input/src/os_base\os_task_scheduler.c ****    while(1) {}
 446:E:/NeuOrga/Programmieren/c_cpp/github_os/input/src/os_base\os_task_scheduler.c ****    #endif
 447:E:/NeuOrga/Programmieren/c_cpp/github_os/input/src/os_base\os_task_scheduler.c ****    /* end */
 448:E:/NeuOrga/Programmieren/c_cpp/github_os/input/src/os_base\os_task_scheduler.c **** }
 783              		.loc 1 448 0
 784 05ec 5D       		popl	%ebp
 785              		.cfi_restore 5
 786              		.cfi_def_cfa 4, 4
GAS LISTING C:\Users\PRESID~1\AppData\Local\Temp\ccdWwDHD.s 			page 25


 787 05ed C3       		ret
 788              		.cfi_endproc
 789              	LFE11:
 791              	_TASK_3:
 792              	LFB12:
 449:E:/NeuOrga/Programmieren/c_cpp/github_os/input/src/os_base\os_task_scheduler.c **** Local void TASK_3(void* task_ptr)
 450:E:/NeuOrga/Programmieren/c_cpp/github_os/input/src/os_base\os_task_scheduler.c **** {
 793              		.loc 1 450 0
 794              		.cfi_startproc
 795 05ee 55       		pushl	%ebp
 796              		.cfi_def_cfa_offset 8
 797              		.cfi_offset 5, -8
 798 05ef 89E5     		movl	%esp, %ebp
 799              		.cfi_def_cfa_register 5
 451:E:/NeuOrga/Programmieren/c_cpp/github_os/input/src/os_base\os_task_scheduler.c ****    ReferenceUnusedParameter(task_ptr);
 452:E:/NeuOrga/Programmieren/c_cpp/github_os/input/src/os_base\os_task_scheduler.c ****    /* worker task */
 453:E:/NeuOrga/Programmieren/c_cpp/github_os/input/src/os_base\os_task_scheduler.c **** 
 454:E:/NeuOrga/Programmieren/c_cpp/github_os/input/src/os_base\os_task_scheduler.c ****    /* do some things */
 455:E:/NeuOrga/Programmieren/c_cpp/github_os/input/src/os_base\os_task_scheduler.c ****    TASK3_CALL_NR++;
 800              		.loc 1 455 0
 801 05f1 A1000000 		movl	_TASK3_CALL_NR, %eax
 801      00
 802 05f6 40       		incl	%eax
 803 05f7 A3000000 		movl	%eax, _TASK3_CALL_NR
 803      00
 456:E:/NeuOrga/Programmieren/c_cpp/github_os/input/src/os_base\os_task_scheduler.c ****    #if (CFG_PROCESSOR != cMCU_X86)
 457:E:/NeuOrga/Programmieren/c_cpp/github_os/input/src/os_base\os_task_scheduler.c ****    while(1) {}
 458:E:/NeuOrga/Programmieren/c_cpp/github_os/input/src/os_base\os_task_scheduler.c ****    #endif
 459:E:/NeuOrga/Programmieren/c_cpp/github_os/input/src/os_base\os_task_scheduler.c ****    /* end */
 460:E:/NeuOrga/Programmieren/c_cpp/github_os/input/src/os_base\os_task_scheduler.c **** }
 804              		.loc 1 460 0
 805 05fc 5D       		popl	%ebp
 806              		.cfi_restore 5
 807              		.cfi_def_cfa 4, 4
 808 05fd C3       		ret
 809              		.cfi_endproc
 810              	LFE12:
 811              		.globl	_OS_InitTasks
 813              	_OS_InitTasks:
 814              	LFB13:
 461:E:/NeuOrga/Programmieren/c_cpp/github_os/input/src/os_base\os_task_scheduler.c **** void OS_InitTasks(void)
 462:E:/NeuOrga/Programmieren/c_cpp/github_os/input/src/os_base\os_task_scheduler.c **** {
 815              		.loc 1 462 0
 816              		.cfi_startproc
 817 05fe 55       		pushl	%ebp
 818              		.cfi_def_cfa_offset 8
 819              		.cfi_offset 5, -8
 820 05ff 89E5     		movl	%esp, %ebp
 821              		.cfi_def_cfa_register 5
 822 0601 83EC48   		subl	$72, %esp
 463:E:/NeuOrga/Programmieren/c_cpp/github_os/input/src/os_base\os_task_scheduler.c ****    task_t* task_ptr = 0;
 823              		.loc 1 463 0
 824 0604 C745F400 		movl	$0, -12(%ebp)
 824      000000
 464:E:/NeuOrga/Programmieren/c_cpp/github_os/input/src/os_base\os_task_scheduler.c ****    LAST_CURRENT_TIME = OS_GetCurrentTime();
 825              		.loc 1 464 0
 826 060b E8000000 		call	_OS_GetCurrentTime
GAS LISTING C:\Users\PRESID~1\AppData\Local\Temp\ccdWwDHD.s 			page 26


 826      00
 827 0610 A3000000 		movl	%eax, _LAST_CURRENT_TIME
 827      00
 465:E:/NeuOrga/Programmieren/c_cpp/github_os/input/src/os_base\os_task_scheduler.c **** 
 466:E:/NeuOrga/Programmieren/c_cpp/github_os/input/src/os_base\os_task_scheduler.c ****    ReferenceUnusedParameter (TASK_GROUP_1);
 467:E:/NeuOrga/Programmieren/c_cpp/github_os/input/src/os_base\os_task_scheduler.c ****    ReferenceUnusedParameter (TASK_GROUP_2);
 468:E:/NeuOrga/Programmieren/c_cpp/github_os/input/src/os_base\os_task_scheduler.c ****    ReferenceUnusedParameter (TASK_GROUP_3);
 469:E:/NeuOrga/Programmieren/c_cpp/github_os/input/src/os_base\os_task_scheduler.c ****    ReferenceUnusedParameter (TASK_GROUP_4);
 470:E:/NeuOrga/Programmieren/c_cpp/github_os/input/src/os_base\os_task_scheduler.c ****    ReferenceUnusedParameter (TASK_GROUP_5);
 471:E:/NeuOrga/Programmieren/c_cpp/github_os/input/src/os_base\os_task_scheduler.c **** 
 472:E:/NeuOrga/Programmieren/c_cpp/github_os/input/src/os_base\os_task_scheduler.c ****     /*
 473:E:/NeuOrga/Programmieren/c_cpp/github_os/input/src/os_base\os_task_scheduler.c ****    set task_state for all tasks to Task_unspecified
 474:E:/NeuOrga/Programmieren/c_cpp/github_os/input/src/os_base\os_task_scheduler.c ****     */
 475:E:/NeuOrga/Programmieren/c_cpp/github_os/input/src/os_base\os_task_scheduler.c ****    OS_InitTaskQueue();
 828              		.loc 1 475 0
 829 0615 E8000000 		call	_OS_InitTaskQueue
 829      00
 476:E:/NeuOrga/Programmieren/c_cpp/github_os/input/src/os_base\os_task_scheduler.c **** 
 477:E:/NeuOrga/Programmieren/c_cpp/github_os/input/src/os_base\os_task_scheduler.c ****    /* setup idle task */
 478:E:/NeuOrga/Programmieren/c_cpp/github_os/input/src/os_base\os_task_scheduler.c ****    task_ptr = &TASK_0_VAR;
 830              		.loc 1 478 0
 831 061a C745F400 		movl	$_TASK_0_VAR, -12(%ebp)
 831      000000
 479:E:/NeuOrga/Programmieren/c_cpp/github_os/input/src/os_base\os_task_scheduler.c ****    OS_InitTask(task_ptr,                          /* task */
 832              		.loc 1 479 0
 833 0621 C7442424 		movl	$0, 36(%esp)
 833      00000000 
 834 0629 C7442420 		movl	$0, 32(%esp)
 834      00000000 
 835 0631 C744241C 		movl	$0, 28(%esp)
 835      00000000 
 836 0639 C7442418 		movl	$200, 24(%esp)
 836      C8000000 
 837 0641 C7442414 		movl	$_TASK_STACK, 20(%esp)
 837      00000000 
 838 0649 C7442410 		movl	$_TASK_GROUP_1, 16(%esp)
 838      00000000 
 839 0651 C744240C 		movl	$1, 12(%esp)
 839      01000000 
 840 0659 C7442408 		movl	$1, 8(%esp)
 840      01000000 
 841 0661 C7442404 		movl	$_TASK_0, 4(%esp)
 841      9D050000 
 842 0669 8B45F4   		movl	-12(%ebp), %eax
 843 066c 890424   		movl	%eax, (%esp)
 844 066f E8000000 		call	_OS_InitTask
 844      00
 480:E:/NeuOrga/Programmieren/c_cpp/github_os/input/src/os_base\os_task_scheduler.c ****                 &TASK_0,                           /* Task Function*/
 481:E:/NeuOrga/Programmieren/c_cpp/github_os/input/src/os_base\os_task_scheduler.c ****                 1,                                 /* Nr of allowed instances*/
 482:E:/NeuOrga/Programmieren/c_cpp/github_os/input/src/os_base\os_task_scheduler.c ****                 True,                              /* Idle Task */
 483:E:/NeuOrga/Programmieren/c_cpp/github_os/input/src/os_base\os_task_scheduler.c ****                 &TASK_GROUP_1,                     /* Task Group */
 484:E:/NeuOrga/Programmieren/c_cpp/github_os/input/src/os_base\os_task_scheduler.c ****                 (unsigned_char_t*)&TASK_STACK[0],  /* Task_stack */
 485:E:/NeuOrga/Programmieren/c_cpp/github_os/input/src/os_base\os_task_scheduler.c ****                 200,                                /* Stack Size */
 486:E:/NeuOrga/Programmieren/c_cpp/github_os/input/src/os_base\os_task_scheduler.c ****                 ePriviligeMode_unpriviliged_thread_mode, /* Unpriviliged Thread Mode */
 487:E:/NeuOrga/Programmieren/c_cpp/github_os/input/src/os_base\os_task_scheduler.c ****                 Core0,                            /* Cortex M4 has only 1 core */
 488:E:/NeuOrga/Programmieren/c_cpp/github_os/input/src/os_base\os_task_scheduler.c ****                 0                                   /* default prio */
 489:E:/NeuOrga/Programmieren/c_cpp/github_os/input/src/os_base\os_task_scheduler.c ****                );
GAS LISTING C:\Users\PRESID~1\AppData\Local\Temp\ccdWwDHD.s 			page 27


 490:E:/NeuOrga/Programmieren/c_cpp/github_os/input/src/os_base\os_task_scheduler.c ****    AddToSchedulingQueue(task_ptr);
 845              		.loc 1 490 0
 846 0674 8B45F4   		movl	-12(%ebp), %eax
 847 0677 890424   		movl	%eax, (%esp)
 848 067a E8000000 		call	_AddToSchedulingQueue
 848      00
 491:E:/NeuOrga/Programmieren/c_cpp/github_os/input/src/os_base\os_task_scheduler.c ****    OS_SaveTaskPtr(task_ptr, Task_0_ptr);
 492:E:/NeuOrga/Programmieren/c_cpp/github_os/input/src/os_base\os_task_scheduler.c **** 
 493:E:/NeuOrga/Programmieren/c_cpp/github_os/input/src/os_base\os_task_scheduler.c ****    /* setup worker task */
 494:E:/NeuOrga/Programmieren/c_cpp/github_os/input/src/os_base\os_task_scheduler.c ****    task_ptr = &TASK_1_VAR;
 849              		.loc 1 494 0
 850 067f C745F400 		movl	$_TASK_1_VAR, -12(%ebp)
 850      000000
 495:E:/NeuOrga/Programmieren/c_cpp/github_os/input/src/os_base\os_task_scheduler.c ****    OS_InitTask(task_ptr,      /* task */
 851              		.loc 1 495 0
 852 0686 C7442424 		movl	$1, 36(%esp)
 852      01000000 
 853 068e C7442420 		movl	$0, 32(%esp)
 853      00000000 
 854 0696 C744241C 		movl	$0, 28(%esp)
 854      00000000 
 855 069e C7442418 		movl	$200, 24(%esp)
 855      C8000000 
 856 06a6 C7442414 		movl	$_TASK_STACK+2000, 20(%esp)
 856      D0070000 
 857 06ae C7442410 		movl	$_TASK_GROUP_1, 16(%esp)
 857      00000000 
 858 06b6 C744240C 		movl	$0, 12(%esp)
 858      00000000 
 859 06be C7442408 		movl	$1, 8(%esp)
 859      01000000 
 860 06c6 C7442404 		movl	$_TASK_1, 4(%esp)
 860      A2050000 
 861 06ce 8B45F4   		movl	-12(%ebp), %eax
 862 06d1 890424   		movl	%eax, (%esp)
 863 06d4 E8000000 		call	_OS_InitTask
 863      00
 496:E:/NeuOrga/Programmieren/c_cpp/github_os/input/src/os_base\os_task_scheduler.c ****                 &TASK_1,       /* Task Function*/
 497:E:/NeuOrga/Programmieren/c_cpp/github_os/input/src/os_base\os_task_scheduler.c ****                 1,             /* Nr of allowed instances*/
 498:E:/NeuOrga/Programmieren/c_cpp/github_os/input/src/os_base\os_task_scheduler.c ****                 False,          /* Idle Task */
 499:E:/NeuOrga/Programmieren/c_cpp/github_os/input/src/os_base\os_task_scheduler.c ****                 &TASK_GROUP_1, /* Task Group */
 500:E:/NeuOrga/Programmieren/c_cpp/github_os/input/src/os_base\os_task_scheduler.c ****                 (unsigned_char_t*)&TASK_STACK[1],/* Task_stack */
 501:E:/NeuOrga/Programmieren/c_cpp/github_os/input/src/os_base\os_task_scheduler.c ****                 200,            /* Stack Size */
 502:E:/NeuOrga/Programmieren/c_cpp/github_os/input/src/os_base\os_task_scheduler.c ****                 ePriviligeMode_unpriviliged_thread_mode, /* Unpriviliged Thread Mode */
 503:E:/NeuOrga/Programmieren/c_cpp/github_os/input/src/os_base\os_task_scheduler.c ****                 Core0,
 504:E:/NeuOrga/Programmieren/c_cpp/github_os/input/src/os_base\os_task_scheduler.c ****                 1                                   /* default prio */
 505:E:/NeuOrga/Programmieren/c_cpp/github_os/input/src/os_base\os_task_scheduler.c ****                );
 506:E:/NeuOrga/Programmieren/c_cpp/github_os/input/src/os_base\os_task_scheduler.c ****    AddToSchedulingQueue(task_ptr);               
 864              		.loc 1 506 0
 865 06d9 8B45F4   		movl	-12(%ebp), %eax
 866 06dc 890424   		movl	%eax, (%esp)
 867 06df E8000000 		call	_AddToSchedulingQueue
 867      00
 507:E:/NeuOrga/Programmieren/c_cpp/github_os/input/src/os_base\os_task_scheduler.c ****    OS_SaveTaskPtr(task_ptr, Task_1_ptr);
 508:E:/NeuOrga/Programmieren/c_cpp/github_os/input/src/os_base\os_task_scheduler.c **** 
 509:E:/NeuOrga/Programmieren/c_cpp/github_os/input/src/os_base\os_task_scheduler.c ****    /* setup worker task */
 510:E:/NeuOrga/Programmieren/c_cpp/github_os/input/src/os_base\os_task_scheduler.c ****    task_ptr = &TASK_2_VAR;
GAS LISTING C:\Users\PRESID~1\AppData\Local\Temp\ccdWwDHD.s 			page 28


 868              		.loc 1 510 0
 869 06e4 C745F400 		movl	$_TASK_2_VAR, -12(%ebp)
 869      000000
 511:E:/NeuOrga/Programmieren/c_cpp/github_os/input/src/os_base\os_task_scheduler.c ****    OS_InitTask(task_ptr,      /* task */
 870              		.loc 1 511 0
 871 06eb C7442424 		movl	$2, 36(%esp)
 871      02000000 
 872 06f3 C7442420 		movl	$0, 32(%esp)
 872      00000000 
 873 06fb C744241C 		movl	$0, 28(%esp)
 873      00000000 
 874 0703 C7442418 		movl	$200, 24(%esp)
 874      C8000000 
 875 070b C7442414 		movl	$_TASK_STACK+4000, 20(%esp)
 875      A00F0000 
 876 0713 C7442410 		movl	$_TASK_GROUP_2, 16(%esp)
 876      00000000 
 877 071b C744240C 		movl	$0, 12(%esp)
 877      00000000 
 878 0723 C7442408 		movl	$1, 8(%esp)
 878      01000000 
 879 072b C7442404 		movl	$_TASK_2, 4(%esp)
 879      DE050000 
 880 0733 8B45F4   		movl	-12(%ebp), %eax
 881 0736 890424   		movl	%eax, (%esp)
 882 0739 E8000000 		call	_OS_InitTask
 882      00
 512:E:/NeuOrga/Programmieren/c_cpp/github_os/input/src/os_base\os_task_scheduler.c ****                 &TASK_2,       /* Task Function*/
 513:E:/NeuOrga/Programmieren/c_cpp/github_os/input/src/os_base\os_task_scheduler.c ****                 1,             /* Nr of allowed instances*/
 514:E:/NeuOrga/Programmieren/c_cpp/github_os/input/src/os_base\os_task_scheduler.c ****                 False,          /* Idle Task */
 515:E:/NeuOrga/Programmieren/c_cpp/github_os/input/src/os_base\os_task_scheduler.c ****                 &TASK_GROUP_2, /* Task Group */
 516:E:/NeuOrga/Programmieren/c_cpp/github_os/input/src/os_base\os_task_scheduler.c ****                 (unsigned_char_t*)&TASK_STACK[2],/* Task_stack */
 517:E:/NeuOrga/Programmieren/c_cpp/github_os/input/src/os_base\os_task_scheduler.c ****                 200,            /* Stack Size */
 518:E:/NeuOrga/Programmieren/c_cpp/github_os/input/src/os_base\os_task_scheduler.c ****                 ePriviligeMode_unpriviliged_thread_mode, /* Unpriviliged Thread Mode */
 519:E:/NeuOrga/Programmieren/c_cpp/github_os/input/src/os_base\os_task_scheduler.c ****                 Core0,
 520:E:/NeuOrga/Programmieren/c_cpp/github_os/input/src/os_base\os_task_scheduler.c ****                 2                                   /* default prio */
 521:E:/NeuOrga/Programmieren/c_cpp/github_os/input/src/os_base\os_task_scheduler.c ****                );
 522:E:/NeuOrga/Programmieren/c_cpp/github_os/input/src/os_base\os_task_scheduler.c ****    AddToSchedulingQueue(task_ptr);               
 883              		.loc 1 522 0
 884 073e 8B45F4   		movl	-12(%ebp), %eax
 885 0741 890424   		movl	%eax, (%esp)
 886 0744 E8000000 		call	_AddToSchedulingQueue
 886      00
 523:E:/NeuOrga/Programmieren/c_cpp/github_os/input/src/os_base\os_task_scheduler.c ****    OS_SaveTaskPtr(task_ptr, Task_2_ptr);
 524:E:/NeuOrga/Programmieren/c_cpp/github_os/input/src/os_base\os_task_scheduler.c **** 
 525:E:/NeuOrga/Programmieren/c_cpp/github_os/input/src/os_base\os_task_scheduler.c ****    /* setup worker task */
 526:E:/NeuOrga/Programmieren/c_cpp/github_os/input/src/os_base\os_task_scheduler.c ****    task_ptr = &TASK_3_VAR;
 887              		.loc 1 526 0
 888 0749 C745F400 		movl	$_TASK_3_VAR, -12(%ebp)
 888      000000
 527:E:/NeuOrga/Programmieren/c_cpp/github_os/input/src/os_base\os_task_scheduler.c ****    OS_InitTask(task_ptr,      /* task */
 889              		.loc 1 527 0
 890 0750 C7442424 		movl	$3, 36(%esp)
 890      03000000 
 891 0758 C7442420 		movl	$0, 32(%esp)
 891      00000000 
 892 0760 C744241C 		movl	$0, 28(%esp)
GAS LISTING C:\Users\PRESID~1\AppData\Local\Temp\ccdWwDHD.s 			page 29


 892      00000000 
 893 0768 C7442418 		movl	$200, 24(%esp)
 893      C8000000 
 894 0770 C7442414 		movl	$_TASK_STACK+6000, 20(%esp)
 894      70170000 
 895 0778 C7442410 		movl	$_TASK_GROUP_3, 16(%esp)
 895      00000000 
 896 0780 C744240C 		movl	$0, 12(%esp)
 896      00000000 
 897 0788 C7442408 		movl	$1, 8(%esp)
 897      01000000 
 898 0790 C7442404 		movl	$_TASK_3, 4(%esp)
 898      EE050000 
 899 0798 8B45F4   		movl	-12(%ebp), %eax
 900 079b 890424   		movl	%eax, (%esp)
 901 079e E8000000 		call	_OS_InitTask
 901      00
 528:E:/NeuOrga/Programmieren/c_cpp/github_os/input/src/os_base\os_task_scheduler.c ****                 &TASK_3,       /* Task Function*/
 529:E:/NeuOrga/Programmieren/c_cpp/github_os/input/src/os_base\os_task_scheduler.c ****                 1,             /* Nr of allowed instances*/
 530:E:/NeuOrga/Programmieren/c_cpp/github_os/input/src/os_base\os_task_scheduler.c ****                 False,          /* Idle Task */
 531:E:/NeuOrga/Programmieren/c_cpp/github_os/input/src/os_base\os_task_scheduler.c ****                 &TASK_GROUP_3, /* Task Group */
 532:E:/NeuOrga/Programmieren/c_cpp/github_os/input/src/os_base\os_task_scheduler.c ****                 (unsigned_char_t*)&TASK_STACK[3],/* Task_stack */
 533:E:/NeuOrga/Programmieren/c_cpp/github_os/input/src/os_base\os_task_scheduler.c ****                 200,           /* Stack Size */
 534:E:/NeuOrga/Programmieren/c_cpp/github_os/input/src/os_base\os_task_scheduler.c ****                 ePriviligeMode_unpriviliged_thread_mode, /* Unpriviliged Thread Mode */
 535:E:/NeuOrga/Programmieren/c_cpp/github_os/input/src/os_base\os_task_scheduler.c ****                 Core0,
 536:E:/NeuOrga/Programmieren/c_cpp/github_os/input/src/os_base\os_task_scheduler.c ****                 3                                   /* default prio */
 537:E:/NeuOrga/Programmieren/c_cpp/github_os/input/src/os_base\os_task_scheduler.c ****                );
 538:E:/NeuOrga/Programmieren/c_cpp/github_os/input/src/os_base\os_task_scheduler.c ****    AddToSchedulingQueue(task_ptr);               
 902              		.loc 1 538 0
 903 07a3 8B45F4   		movl	-12(%ebp), %eax
 904 07a6 890424   		movl	%eax, (%esp)
 905 07a9 E8000000 		call	_AddToSchedulingQueue
 905      00
 539:E:/NeuOrga/Programmieren/c_cpp/github_os/input/src/os_base\os_task_scheduler.c ****    OS_SaveTaskPtr(task_ptr, Task_3_ptr);
 540:E:/NeuOrga/Programmieren/c_cpp/github_os/input/src/os_base\os_task_scheduler.c **** }
 906              		.loc 1 540 0
 907 07ae C9       		leave
 908              		.cfi_restore 5
 909              		.cfi_def_cfa 4, 4
 910 07af C3       		ret
 911              		.cfi_endproc
 912              	LFE13:
 914              	_OS_TaskScheduler:
 915              	LFB14:
 541:E:/NeuOrga/Programmieren/c_cpp/github_os/input/src/os_base\os_task_scheduler.c **** 
 542:E:/NeuOrga/Programmieren/c_cpp/github_os/input/src/os_base\os_task_scheduler.c **** 
 543:E:/NeuOrga/Programmieren/c_cpp/github_os/input/src/os_base\os_task_scheduler.c **** Local scheduling_t* OS_TaskScheduler(void)
 544:E:/NeuOrga/Programmieren/c_cpp/github_os/input/src/os_base\os_task_scheduler.c **** {
 916              		.loc 1 544 0
 917              		.cfi_startproc
 918 07b0 55       		pushl	%ebp
 919              		.cfi_def_cfa_offset 8
 920              		.cfi_offset 5, -8
 921 07b1 89E5     		movl	%esp, %ebp
 922              		.cfi_def_cfa_register 5
 923 07b3 53       		pushl	%ebx
 924 07b4 83EC44   		subl	$68, %esp
GAS LISTING C:\Users\PRESID~1\AppData\Local\Temp\ccdWwDHD.s 			page 30


 925              		.cfi_offset 3, -12
 545:E:/NeuOrga/Programmieren/c_cpp/github_os/input/src/os_base\os_task_scheduler.c **** 
 546:E:/NeuOrga/Programmieren/c_cpp/github_os/input/src/os_base\os_task_scheduler.c ****    scheduling_t*    scheduling_queue_member;
 547:E:/NeuOrga/Programmieren/c_cpp/github_os/input/src/os_base\os_task_scheduler.c ****    unsigned_char_t element_nr;
 548:E:/NeuOrga/Programmieren/c_cpp/github_os/input/src/os_base\os_task_scheduler.c **** 
 549:E:/NeuOrga/Programmieren/c_cpp/github_os/input/src/os_base\os_task_scheduler.c ****    unsigned_char_t Winner_prio = 0;
 926              		.loc 1 549 0
 927 07b7 C645F600 		movb	$0, -10(%ebp)
 550:E:/NeuOrga/Programmieren/c_cpp/github_os/input/src/os_base\os_task_scheduler.c ****    task_t*         task = 0;
 928              		.loc 1 550 0
 929 07bb C745EC00 		movl	$0, -20(%ebp)
 929      000000
 551:E:/NeuOrga/Programmieren/c_cpp/github_os/input/src/os_base\os_task_scheduler.c ****    task_t*         Winner_task = 0;
 930              		.loc 1 551 0
 931 07c2 C745E800 		movl	$0, -24(%ebp)
 931      000000
 552:E:/NeuOrga/Programmieren/c_cpp/github_os/input/src/os_base\os_task_scheduler.c ****    scheduling_t*   Winner_scheduling_queue_member = 0;
 932              		.loc 1 552 0
 933 07c9 C745F000 		movl	$0, -16(%ebp)
 933      000000
 553:E:/NeuOrga/Programmieren/c_cpp/github_os/input/src/os_base\os_task_scheduler.c ****    scheduler_time_t delta_time = OS_GetCurrentTime() - LAST_CURRENT_TIME;
 934              		.loc 1 553 0
 935 07d0 E8000000 		call	_OS_GetCurrentTime
 935      00
 936 07d5 89C2     		movl	%eax, %edx
 937 07d7 A1000000 		movl	_LAST_CURRENT_TIME, %eax
 937      00
 938 07dc 29C2     		subl	%eax, %edx
 939 07de 89D0     		movl	%edx, %eax
 940 07e0 8945E4   		movl	%eax, -28(%ebp)
 554:E:/NeuOrga/Programmieren/c_cpp/github_os/input/src/os_base\os_task_scheduler.c **** 
 555:E:/NeuOrga/Programmieren/c_cpp/github_os/input/src/os_base\os_task_scheduler.c ****    LAST_CURRENT_TIME = OS_GetCurrentTime();
 941              		.loc 1 555 0
 942 07e3 E8000000 		call	_OS_GetCurrentTime
 942      00
 943 07e8 A3000000 		movl	%eax, _LAST_CURRENT_TIME
 943      00
 556:E:/NeuOrga/Programmieren/c_cpp/github_os/input/src/os_base\os_task_scheduler.c **** 
 557:E:/NeuOrga/Programmieren/c_cpp/github_os/input/src/os_base\os_task_scheduler.c ****    ReferenceUnusedParameter(Winner_task);
 558:E:/NeuOrga/Programmieren/c_cpp/github_os/input/src/os_base\os_task_scheduler.c ****    /*
 559:E:/NeuOrga/Programmieren/c_cpp/github_os/input/src/os_base\os_task_scheduler.c ****    x const for single task: task->default_prio // low = 0,.....high=100
 560:E:/NeuOrga/Programmieren/c_cpp/github_os/input/src/os_base\os_task_scheduler.c ****    x var   for single task: task->current_prio // see prio_std
 561:E:/NeuOrga/Programmieren/c_cpp/github_os/input/src/os_base\os_task_scheduler.c ****    x var   for single task: task->wait_time    //
 562:E:/NeuOrga/Programmieren/c_cpp/github_os/input/src/os_base\os_task_scheduler.c ****    x var   for single task: task->exe_time
 563:E:/NeuOrga/Programmieren/c_cpp/github_os/input/src/os_base\os_task_scheduler.c ****    x const for single task: task->TimeToPrioInc
 564:E:/NeuOrga/Programmieren/c_cpp/github_os/input/src/os_base\os_task_scheduler.c ****    x const for single task: task->max_allowed_wait_time
 565:E:/NeuOrga/Programmieren/c_cpp/github_os/input/src/os_base\os_task_scheduler.c ****    x const for single task: task->min_allowed_wait_time
 566:E:/NeuOrga/Programmieren/c_cpp/github_os/input/src/os_base\os_task_scheduler.c ****    x const for single task: task->overwaittime_per_prio_inc_step //e.g. 100*MinTimeSlice_us
 567:E:/NeuOrga/Programmieren/c_cpp/github_os/input/src/os_base\os_task_scheduler.c ****    x const for single task: task->task_group  //to allow processor access control by groups (e.g. u
 568:E:/NeuOrga/Programmieren/c_cpp/github_os/input/src/os_base\os_task_scheduler.c ****    x const for single task: task->WaitActUntil
 569:E:/NeuOrga/Programmieren/c_cpp/github_os/input/src/os_base\os_task_scheduler.c ****    (task_group is designed to allow proccessor access control between e.g. Customer Software Task a
 570:E:/NeuOrga/Programmieren/c_cpp/github_os/input/src/os_base\os_task_scheduler.c ****    */
 571:E:/NeuOrga/Programmieren/c_cpp/github_os/input/src/os_base\os_task_scheduler.c ****    For_all_tasks_in_queue(element_nr)
 944              		.loc 1 571 0
 945 07ed C645F700 		movb	$0, -9(%ebp)
 946 07f1 E9FA0000 		jmp	L71
 946      00
GAS LISTING C:\Users\PRESID~1\AppData\Local\Temp\ccdWwDHD.s 			page 31


 947              	L79:
 572:E:/NeuOrga/Programmieren/c_cpp/github_os/input/src/os_base\os_task_scheduler.c ****    {
 573:E:/NeuOrga/Programmieren/c_cpp/github_os/input/src/os_base\os_task_scheduler.c ****       scheduling_queue_member = GetFromSchedulingQueue(element_nr);
 948              		.loc 1 573 0
 949 07f6 0FB645F7 		movzbl	-9(%ebp), %eax
 950 07fa 890424   		movl	%eax, (%esp)
 951 07fd E8000000 		call	_GetFromSchedulingQueue
 951      00
 952 0802 8945E0   		movl	%eax, -32(%ebp)
 574:E:/NeuOrga/Programmieren/c_cpp/github_os/input/src/os_base\os_task_scheduler.c ****       /*task will have a pointer on the task_obj, and might be equal to "(task_t*) 0" */
 575:E:/NeuOrga/Programmieren/c_cpp/github_os/input/src/os_base\os_task_scheduler.c ****       task             = GetFromTaskQueue(scheduling_queue_member);
 953              		.loc 1 575 0
 954 0805 8B45E0   		movl	-32(%ebp), %eax
 955 0808 890424   		movl	%eax, (%esp)
 956 080b E8000000 		call	_GetFromTaskQueue
 956      00
 957 0810 8945EC   		movl	%eax, -20(%ebp)
 576:E:/NeuOrga/Programmieren/c_cpp/github_os/input/src/os_base\os_task_scheduler.c ****       /* increase prio: high numbers->high prio */
 577:E:/NeuOrga/Programmieren/c_cpp/github_os/input/src/os_base\os_task_scheduler.c ****       if((task != 0)&&(task->task_queued != False))
 958              		.loc 1 577 0
 959 0813 837DEC00 		cmpl	$0, -20(%ebp)
 960 0817 0F84CC00 		je	L72
 960      0000
 961              		.loc 1 577 0 is_stmt 0 discriminator 1
 962 081d 8B45EC   		movl	-20(%ebp), %eax
 963 0820 8A00     		movb	(%eax), %al
 964 0822 83E002   		andl	$2, %eax
 965 0825 84C0     		testb	%al, %al
 966 0827 0F84BC00 		je	L72
 966      0000
 578:E:/NeuOrga/Programmieren/c_cpp/github_os/input/src/os_base\os_task_scheduler.c ****       {
 579:E:/NeuOrga/Programmieren/c_cpp/github_os/input/src/os_base\os_task_scheduler.c ****          if(task->wait_time >= task->TimeToPrioInc)
 967              		.loc 1 579 0 is_stmt 1
 968 082d 8B45EC   		movl	-20(%ebp), %eax
 969 0830 8B500C   		movl	12(%eax), %edx
 970 0833 8B45EC   		movl	-20(%ebp), %eax
 971 0836 8B4010   		movl	16(%eax), %eax
 972 0839 39C2     		cmpl	%eax, %edx
 973 083b 7214     		jb	L73
 580:E:/NeuOrga/Programmieren/c_cpp/github_os/input/src/os_base\os_task_scheduler.c ****          {
 581:E:/NeuOrga/Programmieren/c_cpp/github_os/input/src/os_base\os_task_scheduler.c ****             task->current_prio = task->current_prio + task->overwaittime_per_prio_inc_step;
 974              		.loc 1 581 0
 975 083d 8B45EC   		movl	-20(%ebp), %eax
 976 0840 8A5024   		movb	36(%eax), %dl
 977 0843 8B45EC   		movl	-20(%ebp), %eax
 978 0846 8B4014   		movl	20(%eax), %eax
 979 0849 01C2     		addl	%eax, %edx
 980 084b 8B45EC   		movl	-20(%ebp), %eax
 981 084e 885024   		movb	%dl, 36(%eax)
 982              	L73:
 582:E:/NeuOrga/Programmieren/c_cpp/github_os/input/src/os_base\os_task_scheduler.c ****          }
 583:E:/NeuOrga/Programmieren/c_cpp/github_os/input/src/os_base\os_task_scheduler.c ****          /* in case wait condition not yet fulfilled, set prio to 0 */
 584:E:/NeuOrga/Programmieren/c_cpp/github_os/input/src/os_base\os_task_scheduler.c ****          if(task->WaitActUntil > OS_GetCurrentTime())
 983              		.loc 1 584 0
 984 0851 8B45EC   		movl	-20(%ebp), %eax
 985 0854 8B5808   		movl	8(%eax), %ebx
 986 0857 E8000000 		call	_OS_GetCurrentTime
GAS LISTING C:\Users\PRESID~1\AppData\Local\Temp\ccdWwDHD.s 			page 32


 986      00
 987 085c 39C3     		cmpl	%eax, %ebx
 988 085e 7607     		jbe	L74
 585:E:/NeuOrga/Programmieren/c_cpp/github_os/input/src/os_base\os_task_scheduler.c ****          {
 586:E:/NeuOrga/Programmieren/c_cpp/github_os/input/src/os_base\os_task_scheduler.c ****             task->current_prio = 0;
 989              		.loc 1 586 0
 990 0860 8B45EC   		movl	-20(%ebp), %eax
 991 0863 C6402400 		movb	$0, 36(%eax)
 992              	L74:
 587:E:/NeuOrga/Programmieren/c_cpp/github_os/input/src/os_base\os_task_scheduler.c ****          }
 588:E:/NeuOrga/Programmieren/c_cpp/github_os/input/src/os_base\os_task_scheduler.c ****          if(task->wait_time > task->max_allowed_wait_time)
 993              		.loc 1 588 0
 994 0867 8B45EC   		movl	-20(%ebp), %eax
 995 086a 8B500C   		movl	12(%eax), %edx
 996 086d 8B45EC   		movl	-20(%ebp), %eax
 997 0870 8B4018   		movl	24(%eax), %eax
 998 0873 39C2     		cmpl	%eax, %edx
 999 0875 7614     		jbe	L75
 589:E:/NeuOrga/Programmieren/c_cpp/github_os/input/src/os_base\os_task_scheduler.c ****          {
 590:E:/NeuOrga/Programmieren/c_cpp/github_os/input/src/os_base\os_task_scheduler.c ****             /* set bug */
 591:E:/NeuOrga/Programmieren/c_cpp/github_os/input/src/os_base\os_task_scheduler.c ****             OS_SetSwBug(os_bug_task_max_wait_time_reached, Func_TaskScheduler);
 1000              		.loc 1 591 0
 1001 0877 C7442404 		movl	$9, 4(%esp)
 1001      09000000 
 1002 087f C7042403 		movl	$3, (%esp)
 1002      000000
 1003 0886 E8000000 		call	_OS_SetSwBug
 1003      00
 1004              	L75:
 592:E:/NeuOrga/Programmieren/c_cpp/github_os/input/src/os_base\os_task_scheduler.c ****          }
 593:E:/NeuOrga/Programmieren/c_cpp/github_os/input/src/os_base\os_task_scheduler.c ****          /* not active TASK_RUN_QUEUE elements have no valid task_group!!*/
 594:E:/NeuOrga/Programmieren/c_cpp/github_os/input/src/os_base\os_task_scheduler.c ****          if(task->task_group!=0)
 1005              		.loc 1 594 0
 1006 088b 8B45EC   		movl	-20(%ebp), %eax
 1007 088e 8B4038   		movl	56(%eax), %eax
 1008 0891 85C0     		testl	%eax, %eax
 1009 0893 7440     		je	L76
 595:E:/NeuOrga/Programmieren/c_cpp/github_os/input/src/os_base\os_task_scheduler.c ****          {
 596:E:/NeuOrga/Programmieren/c_cpp/github_os/input/src/os_base\os_task_scheduler.c ****             /* usage the exe time for scheduling strategy */
 597:E:/NeuOrga/Programmieren/c_cpp/github_os/input/src/os_base\os_task_scheduler.c ****             if(task->task_group->exe_time > task->task_group->fair_exe_time)
 1010              		.loc 1 597 0
 1011 0895 8B45EC   		movl	-20(%ebp), %eax
 1012 0898 8B4038   		movl	56(%eax), %eax
 1013 089b 8B10     		movl	(%eax), %edx
 1014 089d 8B45EC   		movl	-20(%ebp), %eax
 1015 08a0 8B4038   		movl	56(%eax), %eax
 1016 08a3 8B4004   		movl	4(%eax), %eax
 1017 08a6 39C2     		cmpl	%eax, %edx
 1018 08a8 763F     		jbe	L72
 598:E:/NeuOrga/Programmieren/c_cpp/github_os/input/src/os_base\os_task_scheduler.c ****             {
 599:E:/NeuOrga/Programmieren/c_cpp/github_os/input/src/os_base\os_task_scheduler.c ****                if(task->exe_time > Task_min_time)/* guarantee min time */
 1019              		.loc 1 599 0
 1020 08aa 8B45EC   		movl	-20(%ebp), %eax
 1021 08ad 8B401C   		movl	28(%eax), %eax
 1022 08b0 8945D0   		movl	%eax, -48(%ebp)
 1023 08b3 C745D400 		movl	$0, -44(%ebp)
 1023      000000
GAS LISTING C:\Users\PRESID~1\AppData\Local\Temp\ccdWwDHD.s 			page 33


 1024 08ba DF6DD0   		fildq	-48(%ebp)
 1025 08bd D9E8     		fld1
 1026 08bf D9C9     		fxch	%st(1)
 1027 08c1 DAE9     		fucompp
 1028 08c3 DFE0     		fnstsw	%ax
 1029 08c5 F6C445   		testb	$69, %ah
 1030 08c8 7402     		je	L85
 1031 08ca EB1D     		jmp	L72
 1032              	L85:
 600:E:/NeuOrga/Programmieren/c_cpp/github_os/input/src/os_base\os_task_scheduler.c ****                {
 601:E:/NeuOrga/Programmieren/c_cpp/github_os/input/src/os_base\os_task_scheduler.c ****                   task->current_prio = 0;
 1033              		.loc 1 601 0
 1034 08cc 8B45EC   		movl	-20(%ebp), %eax
 1035 08cf C6402400 		movb	$0, 36(%eax)
 1036 08d3 EB14     		jmp	L72
 1037              	L76:
 602:E:/NeuOrga/Programmieren/c_cpp/github_os/input/src/os_base\os_task_scheduler.c **** 
 603:E:/NeuOrga/Programmieren/c_cpp/github_os/input/src/os_base\os_task_scheduler.c ****                }
 604:E:/NeuOrga/Programmieren/c_cpp/github_os/input/src/os_base\os_task_scheduler.c ****             }
 605:E:/NeuOrga/Programmieren/c_cpp/github_os/input/src/os_base\os_task_scheduler.c ****          }
 606:E:/NeuOrga/Programmieren/c_cpp/github_os/input/src/os_base\os_task_scheduler.c ****          else
 607:E:/NeuOrga/Programmieren/c_cpp/github_os/input/src/os_base\os_task_scheduler.c ****          {
 608:E:/NeuOrga/Programmieren/c_cpp/github_os/input/src/os_base\os_task_scheduler.c ****             OS_SetSwBug(os_bug_null_pointer, Func_TaskScheduler);
 1038              		.loc 1 608 0
 1039 08d5 C7442404 		movl	$9, 4(%esp)
 1039      09000000 
 1040 08dd C7042402 		movl	$2, (%esp)
 1040      000000
 1041 08e4 E8000000 		call	_OS_SetSwBug
 1041      00
 1042              	L72:
 571:E:/NeuOrga/Programmieren/c_cpp/github_os/input/src/os_base\os_task_scheduler.c ****    {
 1043              		.loc 1 571 0 discriminator 2
 1044 08e9 8A45F7   		movb	-9(%ebp), %al
 1045 08ec 40       		incl	%eax
 1046 08ed 8845F7   		movb	%al, -9(%ebp)
 1047              	L71:
 571:E:/NeuOrga/Programmieren/c_cpp/github_os/input/src/os_base\os_task_scheduler.c ****    {
 1048              		.loc 1 571 0 is_stmt 0 discriminator 1
 1049 08f0 807DF709 		cmpb	$9, -9(%ebp)
 1050 08f4 0F86FCFE 		jbe	L79
 1050      FFFF
 609:E:/NeuOrga/Programmieren/c_cpp/github_os/input/src/os_base\os_task_scheduler.c ****          }
 610:E:/NeuOrga/Programmieren/c_cpp/github_os/input/src/os_base\os_task_scheduler.c ****       }
 611:E:/NeuOrga/Programmieren/c_cpp/github_os/input/src/os_base\os_task_scheduler.c ****       /* do not set bug, because task =0 is used for empty queue elements
 612:E:/NeuOrga/Programmieren/c_cpp/github_os/input/src/os_base\os_task_scheduler.c ****       else
 613:E:/NeuOrga/Programmieren/c_cpp/github_os/input/src/os_base\os_task_scheduler.c ****       {
 614:E:/NeuOrga/Programmieren/c_cpp/github_os/input/src/os_base\os_task_scheduler.c ****           OS_SetSwBug(os_bug_null_pointer, Func_TaskScheduler);
 615:E:/NeuOrga/Programmieren/c_cpp/github_os/input/src/os_base\os_task_scheduler.c ****       }
 616:E:/NeuOrga/Programmieren/c_cpp/github_os/input/src/os_base\os_task_scheduler.c ****       */
 617:E:/NeuOrga/Programmieren/c_cpp/github_os/input/src/os_base\os_task_scheduler.c ****    }
 618:E:/NeuOrga/Programmieren/c_cpp/github_os/input/src/os_base\os_task_scheduler.c ****    For_all_tasks_in_queue(element_nr)
 1051              		.loc 1 618 0 is_stmt 1
 1052 08fa C645F700 		movb	$0, -9(%ebp)
 1053 08fe EB67     		jmp	L80
 1054              	L83:
 619:E:/NeuOrga/Programmieren/c_cpp/github_os/input/src/os_base\os_task_scheduler.c ****    {
GAS LISTING C:\Users\PRESID~1\AppData\Local\Temp\ccdWwDHD.s 			page 34


 620:E:/NeuOrga/Programmieren/c_cpp/github_os/input/src/os_base\os_task_scheduler.c ****       scheduling_queue_member = GetFromSchedulingQueue(element_nr);
 1055              		.loc 1 620 0
 1056 0900 0FB645F7 		movzbl	-9(%ebp), %eax
 1057 0904 890424   		movl	%eax, (%esp)
 1058 0907 E8000000 		call	_GetFromSchedulingQueue
 1058      00
 1059 090c 8945E0   		movl	%eax, -32(%ebp)
 621:E:/NeuOrga/Programmieren/c_cpp/github_os/input/src/os_base\os_task_scheduler.c ****       task             = GetFromTaskQueue(scheduling_queue_member);
 1060              		.loc 1 621 0
 1061 090f 8B45E0   		movl	-32(%ebp), %eax
 1062 0912 890424   		movl	%eax, (%esp)
 1063 0915 E8000000 		call	_GetFromTaskQueue
 1063      00
 1064 091a 8945EC   		movl	%eax, -20(%ebp)
 622:E:/NeuOrga/Programmieren/c_cpp/github_os/input/src/os_base\os_task_scheduler.c ****       if(task != 0)
 1065              		.loc 1 622 0
 1066 091d 837DEC00 		cmpl	$0, -20(%ebp)
 1067 0921 743D     		je	L81
 623:E:/NeuOrga/Programmieren/c_cpp/github_os/input/src/os_base\os_task_scheduler.c ****       {
 624:E:/NeuOrga/Programmieren/c_cpp/github_os/input/src/os_base\os_task_scheduler.c ****          /*update wait time */
 625:E:/NeuOrga/Programmieren/c_cpp/github_os/input/src/os_base\os_task_scheduler.c ****          if(task->IdleTask != True)
 1068              		.loc 1 625 0
 1069 0923 8B45EC   		movl	-20(%ebp), %eax
 1070 0926 8A00     		movb	(%eax), %al
 1071 0928 83E004   		andl	$4, %eax
 1072 092b 84C0     		testb	%al, %al
 1073 092d 7511     		jne	L82
 626:E:/NeuOrga/Programmieren/c_cpp/github_os/input/src/os_base\os_task_scheduler.c ****          {
 627:E:/NeuOrga/Programmieren/c_cpp/github_os/input/src/os_base\os_task_scheduler.c ****             task->wait_time += delta_time;
 1074              		.loc 1 627 0
 1075 092f 8B45EC   		movl	-20(%ebp), %eax
 1076 0932 8B500C   		movl	12(%eax), %edx
 1077 0935 8B45E4   		movl	-28(%ebp), %eax
 1078 0938 01C2     		addl	%eax, %edx
 1079 093a 8B45EC   		movl	-20(%ebp), %eax
 1080 093d 89500C   		movl	%edx, 12(%eax)
 1081              	L82:
 628:E:/NeuOrga/Programmieren/c_cpp/github_os/input/src/os_base\os_task_scheduler.c ****          }
 629:E:/NeuOrga/Programmieren/c_cpp/github_os/input/src/os_base\os_task_scheduler.c ****          /* search for task with highest prio and assign it to Winner_task */
 630:E:/NeuOrga/Programmieren/c_cpp/github_os/input/src/os_base\os_task_scheduler.c ****          if(task->current_prio > Winner_prio)
 1082              		.loc 1 630 0
 1083 0940 8B45EC   		movl	-20(%ebp), %eax
 1084 0943 8A4024   		movb	36(%eax), %al
 1085 0946 3A45F6   		cmpb	-10(%ebp), %al
 1086 0949 7615     		jbe	L81
 631:E:/NeuOrga/Programmieren/c_cpp/github_os/input/src/os_base\os_task_scheduler.c ****          {
 632:E:/NeuOrga/Programmieren/c_cpp/github_os/input/src/os_base\os_task_scheduler.c ****             Winner_prio = task->current_prio;
 1087              		.loc 1 632 0
 1088 094b 8B45EC   		movl	-20(%ebp), %eax
 1089 094e 8A4024   		movb	36(%eax), %al
 1090 0951 8845F6   		movb	%al, -10(%ebp)
 633:E:/NeuOrga/Programmieren/c_cpp/github_os/input/src/os_base\os_task_scheduler.c ****             Winner_task = task;
 1091              		.loc 1 633 0
 1092 0954 8B45EC   		movl	-20(%ebp), %eax
 1093 0957 8945E8   		movl	%eax, -24(%ebp)
 634:E:/NeuOrga/Programmieren/c_cpp/github_os/input/src/os_base\os_task_scheduler.c ****             Winner_scheduling_queue_member = scheduling_queue_member;
 1094              		.loc 1 634 0
GAS LISTING C:\Users\PRESID~1\AppData\Local\Temp\ccdWwDHD.s 			page 35


 1095 095a 8B45E0   		movl	-32(%ebp), %eax
 1096 095d 8945F0   		movl	%eax, -16(%ebp)
 1097              	L81:
 618:E:/NeuOrga/Programmieren/c_cpp/github_os/input/src/os_base\os_task_scheduler.c ****    {
 1098              		.loc 1 618 0 discriminator 2
 1099 0960 8A45F7   		movb	-9(%ebp), %al
 1100 0963 40       		incl	%eax
 1101 0964 8845F7   		movb	%al, -9(%ebp)
 1102              	L80:
 618:E:/NeuOrga/Programmieren/c_cpp/github_os/input/src/os_base\os_task_scheduler.c ****    {
 1103              		.loc 1 618 0 is_stmt 0 discriminator 1
 1104 0967 807DF709 		cmpb	$9, -9(%ebp)
 1105 096b 7693     		jbe	L83
 635:E:/NeuOrga/Programmieren/c_cpp/github_os/input/src/os_base\os_task_scheduler.c ****          }
 636:E:/NeuOrga/Programmieren/c_cpp/github_os/input/src/os_base\os_task_scheduler.c **** 
 637:E:/NeuOrga/Programmieren/c_cpp/github_os/input/src/os_base\os_task_scheduler.c ****       }
 638:E:/NeuOrga/Programmieren/c_cpp/github_os/input/src/os_base\os_task_scheduler.c ****       /* do not set bug, because task =0 is used for empty queue elements
 639:E:/NeuOrga/Programmieren/c_cpp/github_os/input/src/os_base\os_task_scheduler.c ****       else
 640:E:/NeuOrga/Programmieren/c_cpp/github_os/input/src/os_base\os_task_scheduler.c ****       {
 641:E:/NeuOrga/Programmieren/c_cpp/github_os/input/src/os_base\os_task_scheduler.c ****           OS_SetSwBug(os_bug_null_pointer, Func_TaskScheduler);
 642:E:/NeuOrga/Programmieren/c_cpp/github_os/input/src/os_base\os_task_scheduler.c ****       }
 643:E:/NeuOrga/Programmieren/c_cpp/github_os/input/src/os_base\os_task_scheduler.c ****       */
 644:E:/NeuOrga/Programmieren/c_cpp/github_os/input/src/os_base\os_task_scheduler.c ****    }
 645:E:/NeuOrga/Programmieren/c_cpp/github_os/input/src/os_base\os_task_scheduler.c ****    return Winner_scheduling_queue_member;
 1106              		.loc 1 645 0 is_stmt 1
 1107 096d 8B45F0   		movl	-16(%ebp), %eax
 646:E:/NeuOrga/Programmieren/c_cpp/github_os/input/src/os_base\os_task_scheduler.c **** }
 1108              		.loc 1 646 0
 1109 0970 83C444   		addl	$68, %esp
 1110 0973 5B       		popl	%ebx
 1111              		.cfi_restore 3
 1112 0974 5D       		popl	%ebp
 1113              		.cfi_restore 5
 1114              		.cfi_def_cfa 4, 4
 1115 0975 C3       		ret
 1116              		.cfi_endproc
 1117              	LFE14:
 1118              	Letext0:
 1119              		.file 2 "E:/NeuOrga/Programmieren/c_cpp/github_os/input/src/os_base/../os_base/os_base_types.h"
 1120              		.file 3 "E:/NeuOrga/Programmieren/c_cpp/github_os/input/src/os_base/../os_base/os_common.h"
 1121              		.file 4 "E:/NeuOrga/Programmieren/c_cpp/github_os/input/src/os_base/../os_sim/lld_core.h"
 1122              		.file 5 "E:/NeuOrga/Programmieren/c_cpp/github_os/input/src/os_base/../os_sim/../os_base/os_task_c
 1123              		.file 6 "E:/NeuOrga/Programmieren/c_cpp/github_os/input/src/os_base/os_task_scheduler.h"
 1124              		.file 7 "E:/NeuOrga/Programmieren/c_cpp/github_os/input/src/os_base/../os_base/os_ram.h"
 1125 0976 9090     		.section	.debug_info,"dr"
 1126              	Ldebug_info0:
 1127 0000 4F0E0000 		.long	0xe4f
 1128 0004 0400     		.word	0x4
 1129 0006 00000000 		.secrel32	Ldebug_abbrev0
 1130 000a 04       		.byte	0x4
 1131 000b 01       		.uleb128 0x1
 1132 000c 474E5520 		.ascii "GNU C 4.9.3 -march=i386 -g3 -O0 -std=c90\0"
 1132      4320342E 
 1132      392E3320 
 1132      2D6D6172 
 1132      63683D69 
 1133 0035 01       		.byte	0x1
GAS LISTING C:\Users\PRESID~1\AppData\Local\Temp\ccdWwDHD.s 			page 36


 1134 0036 453A5C4E 		.ascii "E:\\NeuOrga\\Programmieren\\c_cpp\\github_os\\input\\src\\os_base\\os_task_scheduler.c\0"
 1134      65754F72 
 1134      67615C50 
 1134      726F6772 
 1134      616D6D69 
 1135 0085 00000000 		.long	Ltext0
 1136 0089 76090000 		.long	Letext0-Ltext0
 1137 008d 00000000 		.secrel32	Ldebug_line0
 1138 0091 00000000 		.secrel32	Ldebug_macro0
 1139 0095 02       		.uleb128 0x2
 1140 0096 756E7369 		.ascii "unsigned_char_t\0"
 1140      676E6564 
 1140      5F636861 
 1140      725F7400 
 1141 00a6 02       		.byte	0x2
 1142 00a7 1D       		.byte	0x1d
 1143 00a8 AC000000 		.long	0xac
 1144 00ac 03       		.uleb128 0x3
 1145 00ad 01       		.byte	0x1
 1146 00ae 08       		.byte	0x8
 1147 00af 756E7369 		.ascii "unsigned char\0"
 1147      676E6564 
 1147      20636861 
 1147      7200
 1148 00bd 03       		.uleb128 0x3
 1149 00be 02       		.byte	0x2
 1150 00bf 07       		.byte	0x7
 1151 00c0 73686F72 		.ascii "short unsigned int\0"
 1151      7420756E 
 1151      7369676E 
 1151      65642069 
 1151      6E7400
 1152 00d3 02       		.uleb128 0x2
 1153 00d4 756E7369 		.ascii "unsigned_int32_t\0"
 1153      676E6564 
 1153      5F696E74 
 1153      33325F74 
 1153      00
 1154 00e5 02       		.byte	0x2
 1155 00e6 22       		.byte	0x22
 1156 00e7 EB000000 		.long	0xeb
 1157 00eb 03       		.uleb128 0x3
 1158 00ec 04       		.byte	0x4
 1159 00ed 07       		.byte	0x7
 1160 00ee 6C6F6E67 		.ascii "long unsigned int\0"
 1160      20756E73 
 1160      69676E65 
 1160      6420696E 
 1160      7400
 1161 0100 02       		.uleb128 0x2
 1162 0101 75696E74 		.ascii "uint32\0"
 1162      333200
 1163 0108 02       		.byte	0x2
 1164 0109 23       		.byte	0x23
 1165 010a EB000000 		.long	0xeb
 1166 010e 04       		.uleb128 0x4
 1167 010f 6F735F73 		.ascii "os_sw_bugs_e\0"
GAS LISTING C:\Users\PRESID~1\AppData\Local\Temp\ccdWwDHD.s 			page 37


 1167      775F6275 
 1167      67735F65 
 1167      00
 1168 011c 04       		.byte	0x4
 1169 011d 03       		.byte	0x3
 1170 011e 2A       		.byte	0x2a
 1171 011f 0C020000 		.long	0x20c
 1172 0123 05       		.uleb128 0x5
 1173 0124 6F735F62 		.ascii "os_bug_no_bug\0"
 1173      75675F6E 
 1173      6F5F6275 
 1173      6700
 1174 0132 00       		.sleb128 0
 1175 0133 05       		.uleb128 0x5
 1176 0134 6F735F62 		.ascii "os_bug_taskstate_request_denied\0"
 1176      75675F74 
 1176      61736B73 
 1176      74617465 
 1176      5F726571 
 1177 0154 01       		.sleb128 1
 1178 0155 05       		.uleb128 0x5
 1179 0156 6F735F62 		.ascii "os_bug_null_pointer\0"
 1179      75675F6E 
 1179      756C6C5F 
 1179      706F696E 
 1179      74657200 
 1180 016a 02       		.sleb128 2
 1181 016b 05       		.uleb128 0x5
 1182 016c 6F735F62 		.ascii "os_bug_task_max_wait_time_reached\0"
 1182      75675F74 
 1182      61736B5F 
 1182      6D61785F 
 1182      77616974 
 1183 018e 03       		.sleb128 3
 1184 018f 05       		.uleb128 0x5
 1185 0190 6F735F62 		.ascii "os_bug_Task_unspecified\0"
 1185      75675F54 
 1185      61736B5F 
 1185      756E7370 
 1185      65636966 
 1186 01a8 04       		.sleb128 4
 1187 01a9 05       		.uleb128 0x5
 1188 01aa 6F735F62 		.ascii "os_bug_exception_UndefInstruction\0"
 1188      75675F65 
 1188      78636570 
 1188      74696F6E 
 1188      5F556E64 
 1189 01cc 05       		.sleb128 5
 1190 01cd 05       		.uleb128 0x5
 1191 01ce 6F735F62 		.ascii "os_bug_exception_AbortPrefetch\0"
 1191      75675F65 
 1191      78636570 
 1191      74696F6E 
 1191      5F41626F 
 1192 01ed 06       		.sleb128 6
 1193 01ee 05       		.uleb128 0x5
 1194 01ef 6F735F62 		.ascii "os_bug_exception_AbortData\0"
GAS LISTING C:\Users\PRESID~1\AppData\Local\Temp\ccdWwDHD.s 			page 38


 1194      75675F65 
 1194      78636570 
 1194      74696F6E 
 1194      5F41626F 
 1195 020a 07       		.sleb128 7
 1196 020b 00       		.byte	0
 1197 020c 04       		.uleb128 0x4
 1198 020d 6F735F73 		.ascii "os_sw_bugs_function_e\0"
 1198      775F6275 
 1198      67735F66 
 1198      756E6374 
 1198      696F6E5F 
 1199 0223 04       		.byte	0x4
 1200 0224 03       		.byte	0x3
 1201 0225 36       		.byte	0x36
 1202 0226 8F030000 		.long	0x38f
 1203 022a 05       		.uleb128 0x5
 1204 022b 46756E63 		.ascii "Func_NoFunction\0"
 1204      5F4E6F46 
 1204      756E6374 
 1204      696F6E00 
 1205 023b 00       		.sleb128 0
 1206 023c 05       		.uleb128 0x5
 1207 023d 46756E63 		.ascii "Func_SaveTaskEnvironment\0"
 1207      5F536176 
 1207      65546173 
 1207      6B456E76 
 1207      69726F6E 
 1208 0256 01       		.sleb128 1
 1209 0257 05       		.uleb128 0x5
 1210 0258 46756E63 		.ascii "Func_RestoreTaskEnvironment\0"
 1210      5F526573 
 1210      746F7265 
 1210      5461736B 
 1210      456E7669 
 1211 0274 02       		.sleb128 2
 1212 0275 05       		.uleb128 0x5
 1213 0276 46756E63 		.ascii "Func_CreateTaskEnvironment\0"
 1213      5F437265 
 1213      61746554 
 1213      61736B45 
 1213      6E766972 
 1214 0291 03       		.sleb128 3
 1215 0292 05       		.uleb128 0x5
 1216 0293 46756E63 		.ascii "Func_DeleteTaskEnvironment\0"
 1216      5F44656C 
 1216      65746554 
 1216      61736B45 
 1216      6E766972 
 1217 02ae 04       		.sleb128 4
 1218 02af 05       		.uleb128 0x5
 1219 02b0 46756E63 		.ascii "Func_InitTaskEnvironment\0"
 1219      5F496E69 
 1219      74546173 
 1219      6B456E76 
 1219      69726F6E 
 1220 02c9 05       		.sleb128 5
GAS LISTING C:\Users\PRESID~1\AppData\Local\Temp\ccdWwDHD.s 			page 39


 1221 02ca 05       		.uleb128 0x5
 1222 02cb 46756E63 		.ascii "Func_StartTask\0"
 1222      5F537461 
 1222      72745461 
 1222      736B00
 1223 02da 06       		.sleb128 6
 1224 02db 05       		.uleb128 0x5
 1225 02dc 46756E63 		.ascii "Func_PreemptTask\0"
 1225      5F507265 
 1225      656D7074 
 1225      5461736B 
 1225      00
 1226 02ed 07       		.sleb128 7
 1227 02ee 05       		.uleb128 0x5
 1228 02ef 46756E63 		.ascii "Func_TerminateTask\0"
 1228      5F546572 
 1228      6D696E61 
 1228      74655461 
 1228      736B00
 1229 0302 08       		.sleb128 8
 1230 0303 05       		.uleb128 0x5
 1231 0304 46756E63 		.ascii "Func_TaskScheduler\0"
 1231      5F546173 
 1231      6B536368 
 1231      6564756C 
 1231      657200
 1232 0317 09       		.sleb128 9
 1233 0318 05       		.uleb128 0x5
 1234 0319 46756E63 		.ascii "Func_InitTask\0"
 1234      5F496E69 
 1234      74546173 
 1234      6B00
 1235 0327 0A       		.sleb128 10
 1236 0328 05       		.uleb128 0x5
 1237 0329 46756E63 		.ascii "Func_ActivateTask\0"
 1237      5F416374 
 1237      69766174 
 1237      65546173 
 1237      6B00
 1238 033b 0B       		.sleb128 11
 1239 033c 05       		.uleb128 0x5
 1240 033d 46756E63 		.ascii "Func_TaskStateRequest\0"
 1240      5F546173 
 1240      6B537461 
 1240      74655265 
 1240      71756573 
 1241 0353 0C       		.sleb128 12
 1242 0354 05       		.uleb128 0x5
 1243 0355 46756E63 		.ascii "Func_Preempt_Task\0"
 1243      5F507265 
 1243      656D7074 
 1243      5F546173 
 1243      6B00
 1244 0367 0D       		.sleb128 13
 1245 0368 05       		.uleb128 0x5
 1246 0369 46756E63 		.ascii "Func_os_exception\0"
 1246      5F6F735F 
GAS LISTING C:\Users\PRESID~1\AppData\Local\Temp\ccdWwDHD.s 			page 40


 1246      65786365 
 1246      7074696F 
 1246      6E00
 1247 037b 0E       		.sleb128 14
 1248 037c 05       		.uleb128 0x5
 1249 037d 46756E63 		.ascii "Func_CreateTask\0"
 1249      5F437265 
 1249      61746554 
 1249      61736B00 
 1250 038d 0F       		.sleb128 15
 1251 038e 00       		.byte	0
 1252 038f 04       		.uleb128 0x4
 1253 0390 436F7265 		.ascii "CoreID_e\0"
 1253      49445F65 
 1253      00
 1254 0399 04       		.byte	0x4
 1255 039a 04       		.byte	0x4
 1256 039b 04       		.byte	0x4
 1257 039c C1030000 		.long	0x3c1
 1258 03a0 05       		.uleb128 0x5
 1259 03a1 436F7265 		.ascii "Core0\0"
 1259      3000
 1260 03a7 00       		.sleb128 0
 1261 03a8 05       		.uleb128 0x5
 1262 03a9 436F7265 		.ascii "Core1\0"
 1262      3100
 1263 03af 01       		.sleb128 1
 1264 03b0 05       		.uleb128 0x5
 1265 03b1 436F7265 		.ascii "Core2\0"
 1265      3200
 1266 03b7 02       		.sleb128 2
 1267 03b8 05       		.uleb128 0x5
 1268 03b9 436F7265 		.ascii "Core3\0"
 1268      3300
 1269 03bf 03       		.sleb128 3
 1270 03c0 00       		.byte	0
 1271 03c1 04       		.uleb128 0x4
 1272 03c2 70726976 		.ascii "privilige_mode_e\0"
 1272      696C6967 
 1272      655F6D6F 
 1272      64655F65 
 1272      00
 1273 03d3 04       		.byte	0x4
 1274 03d4 04       		.byte	0x4
 1275 03d5 10       		.byte	0x10
 1276 03d6 56040000 		.long	0x456
 1277 03da 05       		.uleb128 0x5
 1278 03db 65507269 		.ascii "ePriviligeMode_unpriviliged_thread_mode\0"
 1278      76696C69 
 1278      67654D6F 
 1278      64655F75 
 1278      6E707269 
 1279 0403 00       		.sleb128 0
 1280 0404 05       		.uleb128 0x5
 1281 0405 65507269 		.ascii "ePriviligeMode_priviliged_thread_mode\0"
 1281      76696C69 
 1281      67654D6F 
GAS LISTING C:\Users\PRESID~1\AppData\Local\Temp\ccdWwDHD.s 			page 41


 1281      64655F70 
 1281      72697669 
 1282 042b 01       		.sleb128 1
 1283 042c 05       		.uleb128 0x5
 1284 042d 65507269 		.ascii "ePriviligeMode_priviliged_handler_mode\0"
 1284      76696C69 
 1284      67654D6F 
 1284      64655F70 
 1284      72697669 
 1285 0454 02       		.sleb128 2
 1286 0455 00       		.byte	0
 1287 0456 02       		.uleb128 0x2
 1288 0457 70726976 		.ascii "privilige_mode_t\0"
 1288      696C6967 
 1288      655F6D6F 
 1288      64655F74 
 1288      00
 1289 0468 04       		.byte	0x4
 1290 0469 16       		.byte	0x16
 1291 046a C1030000 		.long	0x3c1
 1292 046e 04       		.uleb128 0x4
 1293 046f 7461736B 		.ascii "task_state_e\0"
 1293      5F737461 
 1293      74655F65 
 1293      00
 1294 047c 04       		.byte	0x4
 1295 047d 05       		.byte	0x5
 1296 047e 07       		.byte	0x7
 1297 047f C4040000 		.long	0x4c4
 1298 0483 05       		.uleb128 0x5
 1299 0484 5461736B 		.ascii "Task_unspecified\0"
 1299      5F756E73 
 1299      70656369 
 1299      66696564 
 1299      00
 1300 0495 00       		.sleb128 0
 1301 0496 05       		.uleb128 0x5
 1302 0497 5461736B 		.ascii "Task_suspended\0"
 1302      5F737573 
 1302      70656E64 
 1302      656400
 1303 04a6 01       		.sleb128 1
 1304 04a7 05       		.uleb128 0x5
 1305 04a8 5461736B 		.ascii "Task_ready\0"
 1305      5F726561 
 1305      647900
 1306 04b3 02       		.sleb128 2
 1307 04b4 05       		.uleb128 0x5
 1308 04b5 5461736B 		.ascii "Task_running\0"
 1308      5F72756E 
 1308      6E696E67 
 1308      00
 1309 04c2 03       		.sleb128 3
 1310 04c3 00       		.byte	0
 1311 04c4 02       		.uleb128 0x2
 1312 04c5 7461736B 		.ascii "task_state_t\0"
 1312      5F737461 
GAS LISTING C:\Users\PRESID~1\AppData\Local\Temp\ccdWwDHD.s 			page 42


 1312      74655F74 
 1312      00
 1313 04d2 05       		.byte	0x5
 1314 04d3 0E       		.byte	0xe
 1315 04d4 6E040000 		.long	0x46e
 1316 04d8 02       		.uleb128 0x2
 1317 04d9 66756E63 		.ascii "func_p_t\0"
 1317      5F705F74 
 1317      00
 1318 04e2 05       		.byte	0x5
 1319 04e3 13       		.byte	0x13
 1320 04e4 E8040000 		.long	0x4e8
 1321 04e8 06       		.uleb128 0x6
 1322 04e9 04       		.byte	0x4
 1323 04ea EE040000 		.long	0x4ee
 1324 04ee 07       		.uleb128 0x7
 1325 04ef F9040000 		.long	0x4f9
 1326 04f3 08       		.uleb128 0x8
 1327 04f4 F9040000 		.long	0x4f9
 1328 04f8 00       		.byte	0
 1329 04f9 09       		.uleb128 0x9
 1330 04fa 04       		.byte	0x4
 1331 04fb 02       		.uleb128 0x2
 1332 04fc 66756E63 		.ascii "func_p_state_change_t\0"
 1332      5F705F73 
 1332      74617465 
 1332      5F636861 
 1332      6E67655F 
 1333 0512 05       		.byte	0x5
 1334 0513 15       		.byte	0x15
 1335 0514 18050000 		.long	0x518
 1336 0518 06       		.uleb128 0x6
 1337 0519 04       		.byte	0x4
 1338 051a 1E050000 		.long	0x51e
 1339 051e 0A       		.uleb128 0xa
 1340 051f 95000000 		.long	0x95
 1341 0523 32050000 		.long	0x532
 1342 0527 08       		.uleb128 0x8
 1343 0528 F9040000 		.long	0x4f9
 1344 052c 08       		.uleb128 0x8
 1345 052d C4040000 		.long	0x4c4
 1346 0531 00       		.byte	0
 1347 0532 0B       		.uleb128 0xb
 1348 0533 7461736B 		.ascii "task_group_s\0"
 1348      5F67726F 
 1348      75705F73 
 1348      00
 1349 0540 08       		.byte	0x8
 1350 0541 05       		.byte	0x5
 1351 0542 17       		.byte	0x17
 1352 0543 6A050000 		.long	0x56a
 1353 0547 0C       		.uleb128 0xc
 1354 0548 09000000 		.secrel32	LASF0
 1355 054c 05       		.byte	0x5
 1356 054d 19       		.byte	0x19
 1357 054e D3000000 		.long	0xd3
 1358 0552 00       		.byte	0
GAS LISTING C:\Users\PRESID~1\AppData\Local\Temp\ccdWwDHD.s 			page 43


 1359 0553 0D       		.uleb128 0xd
 1360 0554 66616972 		.ascii "fair_exe_time\0"
 1360      5F657865 
 1360      5F74696D 
 1360      6500
 1361 0562 05       		.byte	0x5
 1362 0563 1A       		.byte	0x1a
 1363 0564 D3000000 		.long	0xd3
 1364 0568 04       		.byte	0x4
 1365 0569 00       		.byte	0
 1366 056a 02       		.uleb128 0x2
 1367 056b 7461736B 		.ascii "task_group_t\0"
 1367      5F67726F 
 1367      75705F74 
 1367      00
 1368 0578 05       		.byte	0x5
 1369 0579 1C       		.byte	0x1c
 1370 057a 32050000 		.long	0x532
 1371 057e 0B       		.uleb128 0xb
 1372 057f 7461736B 		.ascii "task_s\0"
 1372      5F7300
 1373 0586 64       		.byte	0x64
 1374 0587 05       		.byte	0x5
 1375 0588 1E       		.byte	0x1e
 1376 0589 F2070000 		.long	0x7f2
 1377 058d 0E       		.uleb128 0xe
 1378 058e 61637469 		.ascii "active\0"
 1378      766500
 1379 0595 05       		.byte	0x5
 1380 0596 20       		.byte	0x20
 1381 0597 F2070000 		.long	0x7f2
 1382 059b 04       		.byte	0x4
 1383 059c 01       		.byte	0x1
 1384 059d 1F       		.byte	0x1f
 1385 059e 00       		.byte	0
 1386 059f 0E       		.uleb128 0xe
 1387 05a0 7461736B 		.ascii "task_queued\0"
 1387      5F717565 
 1387      75656400 
 1388 05ac 05       		.byte	0x5
 1389 05ad 21       		.byte	0x21
 1390 05ae F2070000 		.long	0x7f2
 1391 05b2 04       		.byte	0x4
 1392 05b3 01       		.byte	0x1
 1393 05b4 1E       		.byte	0x1e
 1394 05b5 00       		.byte	0
 1395 05b6 0E       		.uleb128 0xe
 1396 05b7 49646C65 		.ascii "IdleTask\0"
 1396      5461736B 
 1396      00
 1397 05c0 05       		.byte	0x5
 1398 05c1 22       		.byte	0x22
 1399 05c2 F2070000 		.long	0x7f2
 1400 05c6 04       		.byte	0x4
 1401 05c7 01       		.byte	0x1
 1402 05c8 1D       		.byte	0x1d
 1403 05c9 00       		.byte	0
GAS LISTING C:\Users\PRESID~1\AppData\Local\Temp\ccdWwDHD.s 			page 44


 1404 05ca 0E       		.uleb128 0xe
 1405 05cb 46524545 		.ascii "FREE\0"
 1405      00
 1406 05d0 05       		.byte	0x5
 1407 05d1 23       		.byte	0x23
 1408 05d2 F2070000 		.long	0x7f2
 1409 05d6 04       		.byte	0x4
 1410 05d7 1D       		.byte	0x1d
 1411 05d8 00       		.byte	0
 1412 05d9 00       		.byte	0
 1413 05da 0D       		.uleb128 0xd
 1414 05db 4E724F66 		.ascii "NrOfInsAllowed\0"
 1414      496E7341 
 1414      6C6C6F77 
 1414      656400
 1415 05ea 05       		.byte	0x5
 1416 05eb 24       		.byte	0x24
 1417 05ec 95000000 		.long	0x95
 1418 05f0 04       		.byte	0x4
 1419 05f1 0D       		.uleb128 0xd
 1420 05f2 4E724F66 		.ascii "NrOfInsActivated\0"
 1420      496E7341 
 1420      63746976 
 1420      61746564 
 1420      00
 1421 0603 05       		.byte	0x5
 1422 0604 25       		.byte	0x25
 1423 0605 95000000 		.long	0x95
 1424 0609 05       		.byte	0x5
 1425 060a 0D       		.uleb128 0xd
 1426 060b 57616974 		.ascii "WaitActUntil\0"
 1426      41637455 
 1426      6E74696C 
 1426      00
 1427 0618 05       		.byte	0x5
 1428 0619 26       		.byte	0x26
 1429 061a D3000000 		.long	0xd3
 1430 061e 08       		.byte	0x8
 1431 061f 0D       		.uleb128 0xd
 1432 0620 77616974 		.ascii "wait_time\0"
 1432      5F74696D 
 1432      6500
 1433 062a 05       		.byte	0x5
 1434 062b 27       		.byte	0x27
 1435 062c D3000000 		.long	0xd3
 1436 0630 0C       		.byte	0xc
 1437 0631 0D       		.uleb128 0xd
 1438 0632 54696D65 		.ascii "TimeToPrioInc\0"
 1438      546F5072 
 1438      696F496E 
 1438      6300
 1439 0640 05       		.byte	0x5
 1440 0641 28       		.byte	0x28
 1441 0642 D3000000 		.long	0xd3
 1442 0646 10       		.byte	0x10
 1443 0647 0D       		.uleb128 0xd
 1444 0648 6F766572 		.ascii "overwaittime_per_prio_inc_step\0"
GAS LISTING C:\Users\PRESID~1\AppData\Local\Temp\ccdWwDHD.s 			page 45


 1444      77616974 
 1444      74696D65 
 1444      5F706572 
 1444      5F707269 
 1445 0667 05       		.byte	0x5
 1446 0668 29       		.byte	0x29
 1447 0669 D3000000 		.long	0xd3
 1448 066d 14       		.byte	0x14
 1449 066e 0D       		.uleb128 0xd
 1450 066f 6D61785F 		.ascii "max_allowed_wait_time\0"
 1450      616C6C6F 
 1450      7765645F 
 1450      77616974 
 1450      5F74696D 
 1451 0685 05       		.byte	0x5
 1452 0686 2A       		.byte	0x2a
 1453 0687 D3000000 		.long	0xd3
 1454 068b 18       		.byte	0x18
 1455 068c 0C       		.uleb128 0xc
 1456 068d 09000000 		.secrel32	LASF0
 1457 0691 05       		.byte	0x5
 1458 0692 2B       		.byte	0x2b
 1459 0693 D3000000 		.long	0xd3
 1460 0697 1C       		.byte	0x1c
 1461 0698 0D       		.uleb128 0xd
 1462 0699 73746172 		.ascii "start_time\0"
 1462      745F7469 
 1462      6D6500
 1463 06a4 05       		.byte	0x5
 1464 06a5 2C       		.byte	0x2c
 1465 06a6 D3000000 		.long	0xd3
 1466 06aa 20       		.byte	0x20
 1467 06ab 0D       		.uleb128 0xd
 1468 06ac 63757272 		.ascii "current_prio\0"
 1468      656E745F 
 1468      7072696F 
 1468      00
 1469 06b9 05       		.byte	0x5
 1470 06ba 2D       		.byte	0x2d
 1471 06bb 95000000 		.long	0x95
 1472 06bf 24       		.byte	0x24
 1473 06c0 0D       		.uleb128 0xd
 1474 06c1 64656661 		.ascii "default_prio\0"
 1474      756C745F 
 1474      7072696F 
 1474      00
 1475 06ce 05       		.byte	0x5
 1476 06cf 2E       		.byte	0x2e
 1477 06d0 95000000 		.long	0x95
 1478 06d4 25       		.byte	0x25
 1479 06d5 0D       		.uleb128 0xd
 1480 06d6 7461736B 		.ascii "task_number\0"
 1480      5F6E756D 
 1480      62657200 
 1481 06e2 05       		.byte	0x5
 1482 06e3 2F       		.byte	0x2f
 1483 06e4 D3000000 		.long	0xd3
GAS LISTING C:\Users\PRESID~1\AppData\Local\Temp\ccdWwDHD.s 			page 46


 1484 06e8 28       		.byte	0x28
 1485 06e9 0D       		.uleb128 0xd
 1486 06ea 667000   		.ascii "fp\0"
 1487 06ed 05       		.byte	0x5
 1488 06ee 30       		.byte	0x30
 1489 06ef D8040000 		.long	0x4d8
 1490 06f3 2C       		.byte	0x2c
 1491 06f4 0D       		.uleb128 0xd
 1492 06f5 73746174 		.ascii "state_request\0"
 1492      655F7265 
 1492      71756573 
 1492      7400
 1493 0703 05       		.byte	0x5
 1494 0704 31       		.byte	0x31
 1495 0705 FB040000 		.long	0x4fb
 1496 0709 30       		.byte	0x30
 1497 070a 0D       		.uleb128 0xd
 1498 070b 7461736B 		.ascii "task_state\0"
 1498      5F737461 
 1498      746500
 1499 0716 05       		.byte	0x5
 1500 0717 32       		.byte	0x32
 1501 0718 C4040000 		.long	0x4c4
 1502 071c 34       		.byte	0x34
 1503 071d 0D       		.uleb128 0xd
 1504 071e 7461736B 		.ascii "task_group\0"
 1504      5F67726F 
 1504      757000
 1505 0729 05       		.byte	0x5
 1506 072a 33       		.byte	0x33
 1507 072b 02080000 		.long	0x802
 1508 072f 38       		.byte	0x38
 1509 0730 0D       		.uleb128 0xd
 1510 0731 45415800 		.ascii "EAX\0"
 1511 0735 05       		.byte	0x5
 1512 0736 35       		.byte	0x35
 1513 0737 D3000000 		.long	0xd3
 1514 073b 3C       		.byte	0x3c
 1515 073c 0D       		.uleb128 0xd
 1516 073d 45425800 		.ascii "EBX\0"
 1517 0741 05       		.byte	0x5
 1518 0742 36       		.byte	0x36
 1519 0743 D3000000 		.long	0xd3
 1520 0747 40       		.byte	0x40
 1521 0748 0D       		.uleb128 0xd
 1522 0749 45435800 		.ascii "ECX\0"
 1523 074d 05       		.byte	0x5
 1524 074e 37       		.byte	0x37
 1525 074f D3000000 		.long	0xd3
 1526 0753 44       		.byte	0x44
 1527 0754 0D       		.uleb128 0xd
 1528 0755 45445800 		.ascii "EDX\0"
 1529 0759 05       		.byte	0x5
 1530 075a 38       		.byte	0x38
 1531 075b D3000000 		.long	0xd3
 1532 075f 48       		.byte	0x48
 1533 0760 0D       		.uleb128 0xd
GAS LISTING C:\Users\PRESID~1\AppData\Local\Temp\ccdWwDHD.s 			page 47


 1534 0761 70537461 		.ascii "pStackPointer\0"
 1534      636B506F 
 1534      696E7465 
 1534      7200
 1535 076f 05       		.byte	0x5
 1536 0770 48       		.byte	0x48
 1537 0771 08080000 		.long	0x808
 1538 0775 4C       		.byte	0x4c
 1539 0776 0D       		.uleb128 0xd
 1540 0777 70537461 		.ascii "pStackPointerByMalloc\0"
 1540      636B506F 
 1540      696E7465 
 1540      7242794D 
 1540      616C6C6F 
 1541 078d 05       		.byte	0x5
 1542 078e 49       		.byte	0x49
 1543 078f 08080000 		.long	0x808
 1544 0793 50       		.byte	0x50
 1545 0794 0D       		.uleb128 0xd
 1546 0795 70537461 		.ascii "pStackPointerStart\0"
 1546      636B506F 
 1546      696E7465 
 1546      72537461 
 1546      727400
 1547 07a8 05       		.byte	0x5
 1548 07a9 4A       		.byte	0x4a
 1549 07aa 08080000 		.long	0x808
 1550 07ae 54       		.byte	0x54
 1551 07af 0D       		.uleb128 0xd
 1552 07b0 53746163 		.ascii "StackSize\0"
 1552      6B53697A 
 1552      6500
 1553 07ba 05       		.byte	0x5
 1554 07bb 4B       		.byte	0x4b
 1555 07bc D3000000 		.long	0xd3
 1556 07c0 58       		.byte	0x58
 1557 07c1 0D       		.uleb128 0xd
 1558 07c2 70537461 		.ascii "pStackPointerEnd\0"
 1558      636B506F 
 1558      696E7465 
 1558      72456E64 
 1558      00
 1559 07d3 05       		.byte	0x5
 1560 07d4 4C       		.byte	0x4c
 1561 07d5 08080000 		.long	0x808
 1562 07d9 5C       		.byte	0x5c
 1563 07da 0D       		.uleb128 0xd
 1564 07db 70726976 		.ascii "privilige_mode\0"
 1564      696C6967 
 1564      655F6D6F 
 1564      646500
 1565 07ea 05       		.byte	0x5
 1566 07eb 4D       		.byte	0x4d
 1567 07ec 56040000 		.long	0x456
 1568 07f0 60       		.byte	0x60
 1569 07f1 00       		.byte	0
 1570 07f2 03       		.uleb128 0x3
GAS LISTING C:\Users\PRESID~1\AppData\Local\Temp\ccdWwDHD.s 			page 48


 1571 07f3 04       		.byte	0x4
 1572 07f4 07       		.byte	0x7
 1573 07f5 756E7369 		.ascii "unsigned int\0"
 1573      676E6564 
 1573      20696E74 
 1573      00
 1574 0802 06       		.uleb128 0x6
 1575 0803 04       		.byte	0x4
 1576 0804 6A050000 		.long	0x56a
 1577 0808 06       		.uleb128 0x6
 1578 0809 04       		.byte	0x4
 1579 080a 95000000 		.long	0x95
 1580 080e 02       		.uleb128 0x2
 1581 080f 7461736B 		.ascii "task_t\0"
 1581      5F7400
 1582 0816 05       		.byte	0x5
 1583 0817 4F       		.byte	0x4f
 1584 0818 7E050000 		.long	0x57e
 1585 081c 02       		.uleb128 0x2
 1586 081d 73636865 		.ascii "scheduling_t\0"
 1586      64756C69 
 1586      6E675F74 
 1586      00
 1587 082a 05       		.byte	0x5
 1588 082b 50       		.byte	0x50
 1589 082c 30080000 		.long	0x830
 1590 0830 06       		.uleb128 0x6
 1591 0831 04       		.byte	0x4
 1592 0832 0E080000 		.long	0x80e
 1593 0836 02       		.uleb128 0x2
 1594 0837 73636865 		.ascii "scheduler_time_t\0"
 1594      64756C65 
 1594      725F7469 
 1594      6D655F74 
 1594      00
 1595 0848 05       		.byte	0x5
 1596 0849 5D       		.byte	0x5d
 1597 084a F2070000 		.long	0x7f2
 1598 084e 02       		.uleb128 0x2
 1599 084f 7461736B 		.ascii "task_time_t\0"
 1599      5F74696D 
 1599      655F7400 
 1600 085b 06       		.byte	0x6
 1601 085c 0F       		.byte	0xf
 1602 085d F2070000 		.long	0x7f2
 1603 0861 0F       		.uleb128 0xf
 1604 0862 4F535F41 		.ascii "OS_ActivateDispatcher\0"
 1604      63746976 
 1604      61746544 
 1604      69737061 
 1604      74636865 
 1605 0878 01       		.byte	0x1
 1606 0879 16       		.byte	0x16
 1607 087a 00000000 		.long	LFB0
 1608 087e 05000000 		.long	LFE0-LFB0
 1609 0882 01       		.uleb128 0x1
 1610 0883 9C       		.byte	0x9c
GAS LISTING C:\Users\PRESID~1\AppData\Local\Temp\ccdWwDHD.s 			page 49


 1611 0884 10       		.uleb128 0x10
 1612 0885 4F535F53 		.ascii "OS_SleepTask\0"
 1612      6C656570 
 1612      5461736B 
 1612      00
 1613 0892 01       		.byte	0x1
 1614 0893 30       		.byte	0x30
 1615 0894 05000000 		.long	LFB1
 1616 0898 2C000000 		.long	LFE1-LFB1
 1617 089c 01       		.uleb128 0x1
 1618 089d 9C       		.byte	0x9c
 1619 089e D2080000 		.long	0x8d2
 1620 08a2 11       		.uleb128 0x11
 1621 08a3 22000000 		.secrel32	LASF1
 1622 08a7 01       		.byte	0x1
 1623 08a8 30       		.byte	0x30
 1624 08a9 30080000 		.long	0x830
 1625 08ad 02       		.uleb128 0x2
 1626 08ae 91       		.byte	0x91
 1627 08af 00       		.sleb128 0
 1628 08b0 12       		.uleb128 0x12
 1629 08b1 6D696C6C 		.ascii "millisec\0"
 1629      69736563 
 1629      00
 1630 08ba 01       		.byte	0x1
 1631 08bb 30       		.byte	0x30
 1632 08bc 4E080000 		.long	0x84e
 1633 08c0 02       		.uleb128 0x2
 1634 08c1 91       		.byte	0x91
 1635 08c2 04       		.sleb128 4
 1636 08c3 11       		.uleb128 0x11
 1637 08c4 27000000 		.secrel32	LASF2
 1638 08c8 01       		.byte	0x1
 1639 08c9 30       		.byte	0x30
 1640 08ca D2080000 		.long	0x8d2
 1641 08ce 02       		.uleb128 0x2
 1642 08cf 91       		.byte	0x91
 1643 08d0 08       		.sleb128 8
 1644 08d1 00       		.byte	0
 1645 08d2 06       		.uleb128 0x6
 1646 08d3 04       		.byte	0x4
 1647 08d4 1C080000 		.long	0x81c
 1648 08d8 13       		.uleb128 0x13
 1649 08d9 7461736B 		.ascii "task_state_request\0"
 1649      5F737461 
 1649      74655F72 
 1649      65717565 
 1649      737400
 1650 08ec 01       		.byte	0x1
 1651 08ed 37       		.byte	0x37
 1652 08ee 95000000 		.long	0x95
 1653 08f2 31000000 		.long	LFB2
 1654 08f6 27010000 		.long	LFE2-LFB2
 1655 08fa 01       		.uleb128 0x1
 1656 08fb 9C       		.byte	0x9c
 1657 08fc 54090000 		.long	0x954
 1658 0900 12       		.uleb128 0x12
GAS LISTING C:\Users\PRESID~1\AppData\Local\Temp\ccdWwDHD.s 			page 50


 1659 0901 74656D70 		.ascii "temp_task\0"
 1659      5F746173 
 1659      6B00
 1660 090b 01       		.byte	0x1
 1661 090c 37       		.byte	0x37
 1662 090d F9040000 		.long	0x4f9
 1663 0911 02       		.uleb128 0x2
 1664 0912 91       		.byte	0x91
 1665 0913 00       		.sleb128 0
 1666 0914 12       		.uleb128 0x12
 1667 0915 72657175 		.ascii "requested_state\0"
 1667      65737465 
 1667      645F7374 
 1667      61746500 
 1668 0925 01       		.byte	0x1
 1669 0926 37       		.byte	0x37
 1670 0927 C4040000 		.long	0x4c4
 1671 092b 02       		.uleb128 0x2
 1672 092c 91       		.byte	0x91
 1673 092d 04       		.sleb128 4
 1674 092e 14       		.uleb128 0x14
 1675 092f 52657175 		.ascii "RequestState\0"
 1675      65737453 
 1675      74617465 
 1675      00
 1676 093c 01       		.byte	0x1
 1677 093d 39       		.byte	0x39
 1678 093e 95000000 		.long	0x95
 1679 0942 02       		.uleb128 0x2
 1680 0943 91       		.byte	0x91
 1681 0944 6F       		.sleb128 -17
 1682 0945 15       		.uleb128 0x15
 1683 0946 22000000 		.secrel32	LASF1
 1684 094a 01       		.byte	0x1
 1685 094b 3B       		.byte	0x3b
 1686 094c 30080000 		.long	0x830
 1687 0950 02       		.uleb128 0x2
 1688 0951 91       		.byte	0x91
 1689 0952 68       		.sleb128 -24
 1690 0953 00       		.byte	0
 1691 0954 10       		.uleb128 0x10
 1692 0955 4F535F43 		.ascii "OS_CreateTask\0"
 1692      72656174 
 1692      65546173 
 1692      6B00
 1693 0963 01       		.byte	0x1
 1694 0964 AE       		.byte	0xae
 1695 0965 58010000 		.long	LFB3
 1696 0969 72000000 		.long	LFE3-LFB3
 1697 096d 01       		.uleb128 0x1
 1698 096e 9C       		.byte	0x9c
 1699 096f 82090000 		.long	0x982
 1700 0973 11       		.uleb128 0x11
 1701 0974 22000000 		.secrel32	LASF1
 1702 0978 01       		.byte	0x1
 1703 0979 AE       		.byte	0xae
 1704 097a 30080000 		.long	0x830
GAS LISTING C:\Users\PRESID~1\AppData\Local\Temp\ccdWwDHD.s 			page 51


 1705 097e 02       		.uleb128 0x2
 1706 097f 91       		.byte	0x91
 1707 0980 00       		.sleb128 0
 1708 0981 00       		.byte	0
 1709 0982 16       		.uleb128 0x16
 1710 0983 4F535F50 		.ascii "OS_PreemptTask\0"
 1710      7265656D 
 1710      70745461 
 1710      736B00
 1711 0992 01       		.byte	0x1
 1712 0993 C8       		.byte	0xc8
 1713 0994 CA010000 		.long	LFB4
 1714 0998 C1000000 		.long	LFE4-LFB4
 1715 099c 01       		.uleb128 0x1
 1716 099d 9C       		.byte	0x9c
 1717 099e BF090000 		.long	0x9bf
 1718 09a2 11       		.uleb128 0x11
 1719 09a3 22000000 		.secrel32	LASF1
 1720 09a7 01       		.byte	0x1
 1721 09a8 C8       		.byte	0xc8
 1722 09a9 30080000 		.long	0x830
 1723 09ad 02       		.uleb128 0x2
 1724 09ae 91       		.byte	0x91
 1725 09af 00       		.sleb128 0
 1726 09b0 11       		.uleb128 0x11
 1727 09b1 12000000 		.secrel32	LASF3
 1728 09b5 01       		.byte	0x1
 1729 09b6 C8       		.byte	0xc8
 1730 09b7 D2080000 		.long	0x8d2
 1731 09bb 02       		.uleb128 0x2
 1732 09bc 91       		.byte	0x91
 1733 09bd 04       		.sleb128 4
 1734 09be 00       		.byte	0
 1735 09bf 10       		.uleb128 0x10
 1736 09c0 4F535F41 		.ascii "OS_ActivateTask\0"
 1736      63746976 
 1736      61746554 
 1736      61736B00 
 1737 09d0 01       		.byte	0x1
 1738 09d1 F2       		.byte	0xf2
 1739 09d2 8B020000 		.long	LFB5
 1740 09d6 AB000000 		.long	LFE5-LFB5
 1741 09da 01       		.uleb128 0x1
 1742 09db 9C       		.byte	0x9c
 1743 09dc EF090000 		.long	0x9ef
 1744 09e0 11       		.uleb128 0x11
 1745 09e1 22000000 		.secrel32	LASF1
 1746 09e5 01       		.byte	0x1
 1747 09e6 F2       		.byte	0xf2
 1748 09e7 30080000 		.long	0x830
 1749 09eb 02       		.uleb128 0x2
 1750 09ec 91       		.byte	0x91
 1751 09ed 00       		.sleb128 0
 1752 09ee 00       		.byte	0
 1753 09ef 17       		.uleb128 0x17
 1754 09f0 4F535F53 		.ascii "OS_StartTask\0"
 1754      74617274 
GAS LISTING C:\Users\PRESID~1\AppData\Local\Temp\ccdWwDHD.s 			page 52


 1754      5461736B 
 1754      00
 1755 09fd 01       		.byte	0x1
 1756 09fe 1F01     		.word	0x11f
 1757 0a00 36030000 		.long	LFB6
 1758 0a04 15010000 		.long	LFE6-LFB6
 1759 0a08 01       		.uleb128 0x1
 1760 0a09 9C       		.byte	0x9c
 1761 0a0a 2D0A0000 		.long	0xa2d
 1762 0a0e 18       		.uleb128 0x18
 1763 0a0f 22000000 		.secrel32	LASF1
 1764 0a13 01       		.byte	0x1
 1765 0a14 1F01     		.word	0x11f
 1766 0a16 30080000 		.long	0x830
 1767 0a1a 02       		.uleb128 0x2
 1768 0a1b 91       		.byte	0x91
 1769 0a1c 00       		.sleb128 0
 1770 0a1d 18       		.uleb128 0x18
 1771 0a1e 12000000 		.secrel32	LASF3
 1772 0a22 01       		.byte	0x1
 1773 0a23 1F01     		.word	0x11f
 1774 0a25 D2080000 		.long	0x8d2
 1775 0a29 02       		.uleb128 0x2
 1776 0a2a 91       		.byte	0x91
 1777 0a2b 04       		.sleb128 4
 1778 0a2c 00       		.byte	0
 1779 0a2d 17       		.uleb128 0x17
 1780 0a2e 4F535F54 		.ascii "OS_TerminateTask\0"
 1780      65726D69 
 1780      6E617465 
 1780      5461736B 
 1780      00
 1781 0a3f 01       		.byte	0x1
 1782 0a40 5401     		.word	0x154
 1783 0a42 4B040000 		.long	LFB7
 1784 0a46 DB000000 		.long	LFE7-LFB7
 1785 0a4a 01       		.uleb128 0x1
 1786 0a4b 9C       		.byte	0x9c
 1787 0a4c 6F0A0000 		.long	0xa6f
 1788 0a50 18       		.uleb128 0x18
 1789 0a51 22000000 		.secrel32	LASF1
 1790 0a55 01       		.byte	0x1
 1791 0a56 5401     		.word	0x154
 1792 0a58 30080000 		.long	0x830
 1793 0a5c 02       		.uleb128 0x2
 1794 0a5d 91       		.byte	0x91
 1795 0a5e 00       		.sleb128 0
 1796 0a5f 18       		.uleb128 0x18
 1797 0a60 12000000 		.secrel32	LASF3
 1798 0a64 01       		.byte	0x1
 1799 0a65 5401     		.word	0x154
 1800 0a67 D2080000 		.long	0x8d2
 1801 0a6b 02       		.uleb128 0x2
 1802 0a6c 91       		.byte	0x91
 1803 0a6d 04       		.sleb128 4
 1804 0a6e 00       		.byte	0
 1805 0a6f 17       		.uleb128 0x17
GAS LISTING C:\Users\PRESID~1\AppData\Local\Temp\ccdWwDHD.s 			page 53


 1806 0a70 4F535F54 		.ascii "OS_TaskDispatcher\0"
 1806      61736B44 
 1806      69737061 
 1806      74636865 
 1806      7200
 1807 0a82 01       		.byte	0x1
 1808 0a83 7E01     		.word	0x17e
 1809 0a85 26050000 		.long	LFB8
 1810 0a89 77000000 		.long	LFE8-LFB8
 1811 0a8d 01       		.uleb128 0x1
 1812 0a8e 9C       		.byte	0x9c
 1813 0a8f B20A0000 		.long	0xab2
 1814 0a93 19       		.uleb128 0x19
 1815 0a94 27000000 		.secrel32	LASF2
 1816 0a98 01       		.byte	0x1
 1817 0a99 8A01     		.word	0x18a
 1818 0a9b D2080000 		.long	0x8d2
 1819 0a9f 02       		.uleb128 0x2
 1820 0aa0 91       		.byte	0x91
 1821 0aa1 68       		.sleb128 -24
 1822 0aa2 19       		.uleb128 0x19
 1823 0aa3 22000000 		.secrel32	LASF1
 1824 0aa7 01       		.byte	0x1
 1825 0aa8 8B01     		.word	0x18b
 1826 0aaa 30080000 		.long	0x830
 1827 0aae 02       		.uleb128 0x2
 1828 0aaf 91       		.byte	0x91
 1829 0ab0 6C       		.sleb128 -20
 1830 0ab1 00       		.byte	0
 1831 0ab2 1A       		.uleb128 0x1a
 1832 0ab3 5441534B 		.ascii "TASK_0\0"
 1832      5F3000
 1833 0aba 01       		.byte	0x1
 1834 0abb A101     		.word	0x1a1
 1835 0abd 9D050000 		.long	LFB9
 1836 0ac1 05000000 		.long	LFE9-LFB9
 1837 0ac5 01       		.uleb128 0x1
 1838 0ac6 9C       		.byte	0x9c
 1839 0ac7 DB0A0000 		.long	0xadb
 1840 0acb 18       		.uleb128 0x18
 1841 0acc 00000000 		.secrel32	LASF4
 1842 0ad0 01       		.byte	0x1
 1843 0ad1 A101     		.word	0x1a1
 1844 0ad3 F9040000 		.long	0x4f9
 1845 0ad7 02       		.uleb128 0x2
 1846 0ad8 91       		.byte	0x91
 1847 0ad9 00       		.sleb128 0
 1848 0ada 00       		.byte	0
 1849 0adb 1B       		.uleb128 0x1b
 1850 0adc 5441534B 		.ascii "TASK_1\0"
 1850      5F3100
 1851 0ae3 01       		.byte	0x1
 1852 0ae4 A601     		.word	0x1a6
 1853 0ae6 A2050000 		.long	LFB10
 1854 0aea 3C000000 		.long	LFE10-LFB10
 1855 0aee 01       		.uleb128 0x1
 1856 0aef 9C       		.byte	0x9c
GAS LISTING C:\Users\PRESID~1\AppData\Local\Temp\ccdWwDHD.s 			page 54


 1857 0af0 130B0000 		.long	0xb13
 1858 0af4 18       		.uleb128 0x18
 1859 0af5 00000000 		.secrel32	LASF4
 1860 0af9 01       		.byte	0x1
 1861 0afa A601     		.word	0x1a6
 1862 0afc F9040000 		.long	0x4f9
 1863 0b00 02       		.uleb128 0x2
 1864 0b01 91       		.byte	0x91
 1865 0b02 00       		.sleb128 0
 1866 0b03 19       		.uleb128 0x19
 1867 0b04 27000000 		.secrel32	LASF2
 1868 0b08 01       		.byte	0x1
 1869 0b09 A801     		.word	0x1a8
 1870 0b0b D2080000 		.long	0x8d2
 1871 0b0f 02       		.uleb128 0x2
 1872 0b10 91       		.byte	0x91
 1873 0b11 6C       		.sleb128 -20
 1874 0b12 00       		.byte	0
 1875 0b13 1A       		.uleb128 0x1a
 1876 0b14 5441534B 		.ascii "TASK_2\0"
 1876      5F3200
 1877 0b1b 01       		.byte	0x1
 1878 0b1c B501     		.word	0x1b5
 1879 0b1e DE050000 		.long	LFB11
 1880 0b22 10000000 		.long	LFE11-LFB11
 1881 0b26 01       		.uleb128 0x1
 1882 0b27 9C       		.byte	0x9c
 1883 0b28 3C0B0000 		.long	0xb3c
 1884 0b2c 18       		.uleb128 0x18
 1885 0b2d 00000000 		.secrel32	LASF4
 1886 0b31 01       		.byte	0x1
 1887 0b32 B501     		.word	0x1b5
 1888 0b34 F9040000 		.long	0x4f9
 1889 0b38 02       		.uleb128 0x2
 1890 0b39 91       		.byte	0x91
 1891 0b3a 00       		.sleb128 0
 1892 0b3b 00       		.byte	0
 1893 0b3c 1A       		.uleb128 0x1a
 1894 0b3d 5441534B 		.ascii "TASK_3\0"
 1894      5F3300
 1895 0b44 01       		.byte	0x1
 1896 0b45 C101     		.word	0x1c1
 1897 0b47 EE050000 		.long	LFB12
 1898 0b4b 10000000 		.long	LFE12-LFB12
 1899 0b4f 01       		.uleb128 0x1
 1900 0b50 9C       		.byte	0x9c
 1901 0b51 650B0000 		.long	0xb65
 1902 0b55 18       		.uleb128 0x18
 1903 0b56 00000000 		.secrel32	LASF4
 1904 0b5a 01       		.byte	0x1
 1905 0b5b C101     		.word	0x1c1
 1906 0b5d F9040000 		.long	0x4f9
 1907 0b61 02       		.uleb128 0x2
 1908 0b62 91       		.byte	0x91
 1909 0b63 00       		.sleb128 0
 1910 0b64 00       		.byte	0
 1911 0b65 17       		.uleb128 0x17
GAS LISTING C:\Users\PRESID~1\AppData\Local\Temp\ccdWwDHD.s 			page 55


 1912 0b66 4F535F49 		.ascii "OS_InitTasks\0"
 1912      6E697454 
 1912      61736B73 
 1912      00
 1913 0b73 01       		.byte	0x1
 1914 0b74 CD01     		.word	0x1cd
 1915 0b76 FE050000 		.long	LFB13
 1916 0b7a B2010000 		.long	LFE13-LFB13
 1917 0b7e 01       		.uleb128 0x1
 1918 0b7f 9C       		.byte	0x9c
 1919 0b80 940B0000 		.long	0xb94
 1920 0b84 19       		.uleb128 0x19
 1921 0b85 00000000 		.secrel32	LASF4
 1922 0b89 01       		.byte	0x1
 1923 0b8a CF01     		.word	0x1cf
 1924 0b8c 30080000 		.long	0x830
 1925 0b90 02       		.uleb128 0x2
 1926 0b91 91       		.byte	0x91
 1927 0b92 6C       		.sleb128 -20
 1928 0b93 00       		.byte	0
 1929 0b94 1C       		.uleb128 0x1c
 1930 0b95 4F535F54 		.ascii "OS_TaskScheduler\0"
 1930      61736B53 
 1930      63686564 
 1930      756C6572 
 1930      00
 1931 0ba6 01       		.byte	0x1
 1932 0ba7 1F02     		.word	0x21f
 1933 0ba9 720C0000 		.long	0xc72
 1934 0bad B0070000 		.long	LFB14
 1935 0bb1 C6010000 		.long	LFE14-LFB14
 1936 0bb5 01       		.uleb128 0x1
 1937 0bb6 9C       		.byte	0x9c
 1938 0bb7 720C0000 		.long	0xc72
 1939 0bbb 1D       		.uleb128 0x1d
 1940 0bbc 73636865 		.ascii "scheduling_queue_member\0"
 1940      64756C69 
 1940      6E675F71 
 1940      75657565 
 1940      5F6D656D 
 1941 0bd4 01       		.byte	0x1
 1942 0bd5 2202     		.word	0x222
 1943 0bd7 D2080000 		.long	0x8d2
 1944 0bdb 02       		.uleb128 0x2
 1945 0bdc 91       		.byte	0x91
 1946 0bdd 58       		.sleb128 -40
 1947 0bde 1D       		.uleb128 0x1d
 1948 0bdf 656C656D 		.ascii "element_nr\0"
 1948      656E745F 
 1948      6E7200
 1949 0bea 01       		.byte	0x1
 1950 0beb 2302     		.word	0x223
 1951 0bed 95000000 		.long	0x95
 1952 0bf1 02       		.uleb128 0x2
 1953 0bf2 91       		.byte	0x91
 1954 0bf3 6F       		.sleb128 -17
 1955 0bf4 1D       		.uleb128 0x1d
GAS LISTING C:\Users\PRESID~1\AppData\Local\Temp\ccdWwDHD.s 			page 56


 1956 0bf5 57696E6E 		.ascii "Winner_prio\0"
 1956      65725F70 
 1956      72696F00 
 1957 0c01 01       		.byte	0x1
 1958 0c02 2502     		.word	0x225
 1959 0c04 95000000 		.long	0x95
 1960 0c08 02       		.uleb128 0x2
 1961 0c09 91       		.byte	0x91
 1962 0c0a 6E       		.sleb128 -18
 1963 0c0b 19       		.uleb128 0x19
 1964 0c0c 22000000 		.secrel32	LASF1
 1965 0c10 01       		.byte	0x1
 1966 0c11 2602     		.word	0x226
 1967 0c13 30080000 		.long	0x830
 1968 0c17 02       		.uleb128 0x2
 1969 0c18 91       		.byte	0x91
 1970 0c19 64       		.sleb128 -28
 1971 0c1a 1D       		.uleb128 0x1d
 1972 0c1b 57696E6E 		.ascii "Winner_task\0"
 1972      65725F74 
 1972      61736B00 
 1973 0c27 01       		.byte	0x1
 1974 0c28 2702     		.word	0x227
 1975 0c2a 30080000 		.long	0x830
 1976 0c2e 02       		.uleb128 0x2
 1977 0c2f 91       		.byte	0x91
 1978 0c30 60       		.sleb128 -32
 1979 0c31 1D       		.uleb128 0x1d
 1980 0c32 57696E6E 		.ascii "Winner_scheduling_queue_member\0"
 1980      65725F73 
 1980      63686564 
 1980      756C696E 
 1980      675F7175 
 1981 0c51 01       		.byte	0x1
 1982 0c52 2802     		.word	0x228
 1983 0c54 D2080000 		.long	0x8d2
 1984 0c58 02       		.uleb128 0x2
 1985 0c59 91       		.byte	0x91
 1986 0c5a 68       		.sleb128 -24
 1987 0c5b 1D       		.uleb128 0x1d
 1988 0c5c 64656C74 		.ascii "delta_time\0"
 1988      615F7469 
 1988      6D6500
 1989 0c67 01       		.byte	0x1
 1990 0c68 2902     		.word	0x229
 1991 0c6a 36080000 		.long	0x836
 1992 0c6e 02       		.uleb128 0x2
 1993 0c6f 91       		.byte	0x91
 1994 0c70 5C       		.sleb128 -36
 1995 0c71 00       		.byte	0
 1996 0c72 06       		.uleb128 0x6
 1997 0c73 04       		.byte	0x4
 1998 0c74 30080000 		.long	0x830
 1999 0c78 1E       		.uleb128 0x1e
 2000 0c79 95000000 		.long	0x95
 2001 0c7d 8F0C0000 		.long	0xc8f
 2002 0c81 1F       		.uleb128 0x1f
GAS LISTING C:\Users\PRESID~1\AppData\Local\Temp\ccdWwDHD.s 			page 57


 2003 0c82 8F0C0000 		.long	0xc8f
 2004 0c86 00       		.byte	0
 2005 0c87 20       		.uleb128 0x20
 2006 0c88 8F0C0000 		.long	0xc8f
 2007 0c8c FF4F     		.word	0x4fff
 2008 0c8e 00       		.byte	0
 2009 0c8f 03       		.uleb128 0x3
 2010 0c90 04       		.byte	0x4
 2011 0c91 07       		.byte	0x7
 2012 0c92 73697A65 		.ascii "sizetype\0"
 2012      74797065 
 2012      00
 2013 0c9b 21       		.uleb128 0x21
 2014 0c9c 4F535F53 		.ascii "OS_STACK\0"
 2014      5441434B 
 2014      00
 2015 0ca5 07       		.byte	0x7
 2016 0ca6 0E       		.byte	0xe
 2017 0ca7 780C0000 		.long	0xc78
 2018 0cab 21       		.uleb128 0x21
 2019 0cac 5441534B 		.ascii "TASK1_CALL_NR\0"
 2019      315F4341 
 2019      4C4C5F4E 
 2019      5200
 2020 0cba 07       		.byte	0x7
 2021 0cbb 20       		.byte	0x20
 2022 0cbc C00C0000 		.long	0xcc0
 2023 0cc0 22       		.uleb128 0x22
 2024 0cc1 00010000 		.long	0x100
 2025 0cc5 21       		.uleb128 0x21
 2026 0cc6 5441534B 		.ascii "TASK2_CALL_NR\0"
 2026      325F4341 
 2026      4C4C5F4E 
 2026      5200
 2027 0cd4 07       		.byte	0x7
 2028 0cd5 21       		.byte	0x21
 2029 0cd6 C00C0000 		.long	0xcc0
 2030 0cda 21       		.uleb128 0x21
 2031 0cdb 5441534B 		.ascii "TASK3_CALL_NR\0"
 2031      335F4341 
 2031      4C4C5F4E 
 2031      5200
 2032 0ce9 07       		.byte	0x7
 2033 0cea 22       		.byte	0x22
 2034 0ceb C00C0000 		.long	0xcc0
 2035 0cef 1E       		.uleb128 0x1e
 2036 0cf0 95000000 		.long	0x95
 2037 0cf4 060D0000 		.long	0xd06
 2038 0cf8 1F       		.uleb128 0x1f
 2039 0cf9 8F0C0000 		.long	0xc8f
 2040 0cfd 09       		.byte	0x9
 2041 0cfe 20       		.uleb128 0x20
 2042 0cff 8F0C0000 		.long	0xc8f
 2043 0d03 CF07     		.word	0x7cf
 2044 0d05 00       		.byte	0
 2045 0d06 21       		.uleb128 0x21
 2046 0d07 5441534B 		.ascii "TASK_STACK\0"
GAS LISTING C:\Users\PRESID~1\AppData\Local\Temp\ccdWwDHD.s 			page 58


 2046      5F535441 
 2046      434B00
 2047 0d12 07       		.byte	0x7
 2048 0d13 25       		.byte	0x25
 2049 0d14 EF0C0000 		.long	0xcef
 2050 0d18 21       		.uleb128 0x21
 2051 0d19 4C415354 		.ascii "LAST_CURRENT_TIME\0"
 2051      5F435552 
 2051      52454E54 
 2051      5F54494D 
 2051      4500
 2052 0d2b 07       		.byte	0x7
 2053 0d2c 26       		.byte	0x26
 2054 0d2d 36080000 		.long	0x836
 2055 0d31 21       		.uleb128 0x21
 2056 0d32 5441534B 		.ascii "TASK_0_VAR\0"
 2056      5F305F56 
 2056      415200
 2057 0d3d 07       		.byte	0x7
 2058 0d3e 2D       		.byte	0x2d
 2059 0d3f 0E080000 		.long	0x80e
 2060 0d43 21       		.uleb128 0x21
 2061 0d44 5441534B 		.ascii "TASK_1_VAR\0"
 2061      5F315F56 
 2061      415200
 2062 0d4f 07       		.byte	0x7
 2063 0d50 2D       		.byte	0x2d
 2064 0d51 0E080000 		.long	0x80e
 2065 0d55 21       		.uleb128 0x21
 2066 0d56 5441534B 		.ascii "TASK_2_VAR\0"
 2066      5F325F56 
 2066      415200
 2067 0d61 07       		.byte	0x7
 2068 0d62 2D       		.byte	0x2d
 2069 0d63 0E080000 		.long	0x80e
 2070 0d67 21       		.uleb128 0x21
 2071 0d68 5441534B 		.ascii "TASK_3_VAR\0"
 2071      5F335F56 
 2071      415200
 2072 0d73 07       		.byte	0x7
 2073 0d74 2D       		.byte	0x2d
 2074 0d75 0E080000 		.long	0x80e
 2075 0d79 21       		.uleb128 0x21
 2076 0d7a 5441534B 		.ascii "TASK_GROUP_1\0"
 2076      5F47524F 
 2076      55505F31 
 2076      00
 2077 0d87 07       		.byte	0x7
 2078 0d88 2E       		.byte	0x2e
 2079 0d89 6A050000 		.long	0x56a
 2080 0d8d 21       		.uleb128 0x21
 2081 0d8e 5441534B 		.ascii "TASK_GROUP_2\0"
 2081      5F47524F 
 2081      55505F32 
 2081      00
 2082 0d9b 07       		.byte	0x7
 2083 0d9c 2E       		.byte	0x2e
GAS LISTING C:\Users\PRESID~1\AppData\Local\Temp\ccdWwDHD.s 			page 59


 2084 0d9d 6A050000 		.long	0x56a
 2085 0da1 21       		.uleb128 0x21
 2086 0da2 5441534B 		.ascii "TASK_GROUP_3\0"
 2086      5F47524F 
 2086      55505F33 
 2086      00
 2087 0daf 07       		.byte	0x7
 2088 0db0 2E       		.byte	0x2e
 2089 0db1 6A050000 		.long	0x56a
 2090 0db5 21       		.uleb128 0x21
 2091 0db6 5441534B 		.ascii "TASK_GROUP_4\0"
 2091      5F47524F 
 2091      55505F34 
 2091      00
 2092 0dc3 07       		.byte	0x7
 2093 0dc4 2E       		.byte	0x2e
 2094 0dc5 6A050000 		.long	0x56a
 2095 0dc9 21       		.uleb128 0x21
 2096 0dca 5441534B 		.ascii "TASK_GROUP_5\0"
 2096      5F47524F 
 2096      55505F35 
 2096      00
 2097 0dd7 07       		.byte	0x7
 2098 0dd8 2E       		.byte	0x2e
 2099 0dd9 6A050000 		.long	0x56a
 2100 0ddd 21       		.uleb128 0x21
 2101 0dde 5441534B 		.ascii "TASK_TRANSITION_REJECTED_TASK_ADDR\0"
 2101      5F545241 
 2101      4E534954 
 2101      494F4E5F 
 2101      52454A45 
 2102 0e01 07       		.byte	0x7
 2103 0e02 2F       		.byte	0x2f
 2104 0e03 30080000 		.long	0x830
 2105 0e07 21       		.uleb128 0x21
 2106 0e08 5441534B 		.ascii "TASK_TRANSITION_REJECTED_STATE\0"
 2106      5F545241 
 2106      4E534954 
 2106      494F4E5F 
 2106      52454A45 
 2107 0e27 07       		.byte	0x7
 2108 0e28 30       		.byte	0x30
 2109 0e29 C4040000 		.long	0x4c4
 2110 0e2d 21       		.uleb128 0x21
 2111 0e2e 5441534B 		.ascii "TASK_TRANSITION_CURRENT_STATE\0"
 2111      5F545241 
 2111      4E534954 
 2111      494F4E5F 
 2111      43555252 
 2112 0e4c 07       		.byte	0x7
 2113 0e4d 31       		.byte	0x31
 2114 0e4e C4040000 		.long	0x4c4
 2115 0e52 00       		.byte	0
 2116              		.section	.debug_abbrev,"dr"
 2117              	Ldebug_abbrev0:
 2118 0000 01       		.uleb128 0x1
 2119 0001 11       		.uleb128 0x11
GAS LISTING C:\Users\PRESID~1\AppData\Local\Temp\ccdWwDHD.s 			page 60


 2120 0002 01       		.byte	0x1
 2121 0003 25       		.uleb128 0x25
 2122 0004 08       		.uleb128 0x8
 2123 0005 13       		.uleb128 0x13
 2124 0006 0B       		.uleb128 0xb
 2125 0007 03       		.uleb128 0x3
 2126 0008 08       		.uleb128 0x8
 2127 0009 11       		.uleb128 0x11
 2128 000a 01       		.uleb128 0x1
 2129 000b 12       		.uleb128 0x12
 2130 000c 06       		.uleb128 0x6
 2131 000d 10       		.uleb128 0x10
 2132 000e 17       		.uleb128 0x17
 2133 000f 9942     		.uleb128 0x2119
 2134 0011 17       		.uleb128 0x17
 2135 0012 00       		.byte	0
 2136 0013 00       		.byte	0
 2137 0014 02       		.uleb128 0x2
 2138 0015 16       		.uleb128 0x16
 2139 0016 00       		.byte	0
 2140 0017 03       		.uleb128 0x3
 2141 0018 08       		.uleb128 0x8
 2142 0019 3A       		.uleb128 0x3a
 2143 001a 0B       		.uleb128 0xb
 2144 001b 3B       		.uleb128 0x3b
 2145 001c 0B       		.uleb128 0xb
 2146 001d 49       		.uleb128 0x49
 2147 001e 13       		.uleb128 0x13
 2148 001f 00       		.byte	0
 2149 0020 00       		.byte	0
 2150 0021 03       		.uleb128 0x3
 2151 0022 24       		.uleb128 0x24
 2152 0023 00       		.byte	0
 2153 0024 0B       		.uleb128 0xb
 2154 0025 0B       		.uleb128 0xb
 2155 0026 3E       		.uleb128 0x3e
 2156 0027 0B       		.uleb128 0xb
 2157 0028 03       		.uleb128 0x3
 2158 0029 08       		.uleb128 0x8
 2159 002a 00       		.byte	0
 2160 002b 00       		.byte	0
 2161 002c 04       		.uleb128 0x4
 2162 002d 04       		.uleb128 0x4
 2163 002e 01       		.byte	0x1
 2164 002f 03       		.uleb128 0x3
 2165 0030 08       		.uleb128 0x8
 2166 0031 0B       		.uleb128 0xb
 2167 0032 0B       		.uleb128 0xb
 2168 0033 3A       		.uleb128 0x3a
 2169 0034 0B       		.uleb128 0xb
 2170 0035 3B       		.uleb128 0x3b
 2171 0036 0B       		.uleb128 0xb
 2172 0037 01       		.uleb128 0x1
 2173 0038 13       		.uleb128 0x13
 2174 0039 00       		.byte	0
 2175 003a 00       		.byte	0
 2176 003b 05       		.uleb128 0x5
GAS LISTING C:\Users\PRESID~1\AppData\Local\Temp\ccdWwDHD.s 			page 61


 2177 003c 28       		.uleb128 0x28
 2178 003d 00       		.byte	0
 2179 003e 03       		.uleb128 0x3
 2180 003f 08       		.uleb128 0x8
 2181 0040 1C       		.uleb128 0x1c
 2182 0041 0D       		.uleb128 0xd
 2183 0042 00       		.byte	0
 2184 0043 00       		.byte	0
 2185 0044 06       		.uleb128 0x6
 2186 0045 0F       		.uleb128 0xf
 2187 0046 00       		.byte	0
 2188 0047 0B       		.uleb128 0xb
 2189 0048 0B       		.uleb128 0xb
 2190 0049 49       		.uleb128 0x49
 2191 004a 13       		.uleb128 0x13
 2192 004b 00       		.byte	0
 2193 004c 00       		.byte	0
 2194 004d 07       		.uleb128 0x7
 2195 004e 15       		.uleb128 0x15
 2196 004f 01       		.byte	0x1
 2197 0050 27       		.uleb128 0x27
 2198 0051 19       		.uleb128 0x19
 2199 0052 01       		.uleb128 0x1
 2200 0053 13       		.uleb128 0x13
 2201 0054 00       		.byte	0
 2202 0055 00       		.byte	0
 2203 0056 08       		.uleb128 0x8
 2204 0057 05       		.uleb128 0x5
 2205 0058 00       		.byte	0
 2206 0059 49       		.uleb128 0x49
 2207 005a 13       		.uleb128 0x13
 2208 005b 00       		.byte	0
 2209 005c 00       		.byte	0
 2210 005d 09       		.uleb128 0x9
 2211 005e 0F       		.uleb128 0xf
 2212 005f 00       		.byte	0
 2213 0060 0B       		.uleb128 0xb
 2214 0061 0B       		.uleb128 0xb
 2215 0062 00       		.byte	0
 2216 0063 00       		.byte	0
 2217 0064 0A       		.uleb128 0xa
 2218 0065 15       		.uleb128 0x15
 2219 0066 01       		.byte	0x1
 2220 0067 27       		.uleb128 0x27
 2221 0068 19       		.uleb128 0x19
 2222 0069 49       		.uleb128 0x49
 2223 006a 13       		.uleb128 0x13
 2224 006b 01       		.uleb128 0x1
 2225 006c 13       		.uleb128 0x13
 2226 006d 00       		.byte	0
 2227 006e 00       		.byte	0
 2228 006f 0B       		.uleb128 0xb
 2229 0070 13       		.uleb128 0x13
 2230 0071 01       		.byte	0x1
 2231 0072 03       		.uleb128 0x3
 2232 0073 08       		.uleb128 0x8
 2233 0074 0B       		.uleb128 0xb
GAS LISTING C:\Users\PRESID~1\AppData\Local\Temp\ccdWwDHD.s 			page 62


 2234 0075 0B       		.uleb128 0xb
 2235 0076 3A       		.uleb128 0x3a
 2236 0077 0B       		.uleb128 0xb
 2237 0078 3B       		.uleb128 0x3b
 2238 0079 0B       		.uleb128 0xb
 2239 007a 01       		.uleb128 0x1
 2240 007b 13       		.uleb128 0x13
 2241 007c 00       		.byte	0
 2242 007d 00       		.byte	0
 2243 007e 0C       		.uleb128 0xc
 2244 007f 0D       		.uleb128 0xd
 2245 0080 00       		.byte	0
 2246 0081 03       		.uleb128 0x3
 2247 0082 0E       		.uleb128 0xe
 2248 0083 3A       		.uleb128 0x3a
 2249 0084 0B       		.uleb128 0xb
 2250 0085 3B       		.uleb128 0x3b
 2251 0086 0B       		.uleb128 0xb
 2252 0087 49       		.uleb128 0x49
 2253 0088 13       		.uleb128 0x13
 2254 0089 38       		.uleb128 0x38
 2255 008a 0B       		.uleb128 0xb
 2256 008b 00       		.byte	0
 2257 008c 00       		.byte	0
 2258 008d 0D       		.uleb128 0xd
 2259 008e 0D       		.uleb128 0xd
 2260 008f 00       		.byte	0
 2261 0090 03       		.uleb128 0x3
 2262 0091 08       		.uleb128 0x8
 2263 0092 3A       		.uleb128 0x3a
 2264 0093 0B       		.uleb128 0xb
 2265 0094 3B       		.uleb128 0x3b
 2266 0095 0B       		.uleb128 0xb
 2267 0096 49       		.uleb128 0x49
 2268 0097 13       		.uleb128 0x13
 2269 0098 38       		.uleb128 0x38
 2270 0099 0B       		.uleb128 0xb
 2271 009a 00       		.byte	0
 2272 009b 00       		.byte	0
 2273 009c 0E       		.uleb128 0xe
 2274 009d 0D       		.uleb128 0xd
 2275 009e 00       		.byte	0
 2276 009f 03       		.uleb128 0x3
 2277 00a0 08       		.uleb128 0x8
 2278 00a1 3A       		.uleb128 0x3a
 2279 00a2 0B       		.uleb128 0xb
 2280 00a3 3B       		.uleb128 0x3b
 2281 00a4 0B       		.uleb128 0xb
 2282 00a5 49       		.uleb128 0x49
 2283 00a6 13       		.uleb128 0x13
 2284 00a7 0B       		.uleb128 0xb
 2285 00a8 0B       		.uleb128 0xb
 2286 00a9 0D       		.uleb128 0xd
 2287 00aa 0B       		.uleb128 0xb
 2288 00ab 0C       		.uleb128 0xc
 2289 00ac 0B       		.uleb128 0xb
 2290 00ad 38       		.uleb128 0x38
GAS LISTING C:\Users\PRESID~1\AppData\Local\Temp\ccdWwDHD.s 			page 63


 2291 00ae 0B       		.uleb128 0xb
 2292 00af 00       		.byte	0
 2293 00b0 00       		.byte	0
 2294 00b1 0F       		.uleb128 0xf
 2295 00b2 2E       		.uleb128 0x2e
 2296 00b3 00       		.byte	0
 2297 00b4 3F       		.uleb128 0x3f
 2298 00b5 19       		.uleb128 0x19
 2299 00b6 03       		.uleb128 0x3
 2300 00b7 08       		.uleb128 0x8
 2301 00b8 3A       		.uleb128 0x3a
 2302 00b9 0B       		.uleb128 0xb
 2303 00ba 3B       		.uleb128 0x3b
 2304 00bb 0B       		.uleb128 0xb
 2305 00bc 27       		.uleb128 0x27
 2306 00bd 19       		.uleb128 0x19
 2307 00be 11       		.uleb128 0x11
 2308 00bf 01       		.uleb128 0x1
 2309 00c0 12       		.uleb128 0x12
 2310 00c1 06       		.uleb128 0x6
 2311 00c2 40       		.uleb128 0x40
 2312 00c3 18       		.uleb128 0x18
 2313 00c4 9742     		.uleb128 0x2117
 2314 00c6 19       		.uleb128 0x19
 2315 00c7 00       		.byte	0
 2316 00c8 00       		.byte	0
 2317 00c9 10       		.uleb128 0x10
 2318 00ca 2E       		.uleb128 0x2e
 2319 00cb 01       		.byte	0x1
 2320 00cc 3F       		.uleb128 0x3f
 2321 00cd 19       		.uleb128 0x19
 2322 00ce 03       		.uleb128 0x3
 2323 00cf 08       		.uleb128 0x8
 2324 00d0 3A       		.uleb128 0x3a
 2325 00d1 0B       		.uleb128 0xb
 2326 00d2 3B       		.uleb128 0x3b
 2327 00d3 0B       		.uleb128 0xb
 2328 00d4 27       		.uleb128 0x27
 2329 00d5 19       		.uleb128 0x19
 2330 00d6 11       		.uleb128 0x11
 2331 00d7 01       		.uleb128 0x1
 2332 00d8 12       		.uleb128 0x12
 2333 00d9 06       		.uleb128 0x6
 2334 00da 40       		.uleb128 0x40
 2335 00db 18       		.uleb128 0x18
 2336 00dc 9642     		.uleb128 0x2116
 2337 00de 19       		.uleb128 0x19
 2338 00df 01       		.uleb128 0x1
 2339 00e0 13       		.uleb128 0x13
 2340 00e1 00       		.byte	0
 2341 00e2 00       		.byte	0
 2342 00e3 11       		.uleb128 0x11
 2343 00e4 05       		.uleb128 0x5
 2344 00e5 00       		.byte	0
 2345 00e6 03       		.uleb128 0x3
 2346 00e7 0E       		.uleb128 0xe
 2347 00e8 3A       		.uleb128 0x3a
GAS LISTING C:\Users\PRESID~1\AppData\Local\Temp\ccdWwDHD.s 			page 64


 2348 00e9 0B       		.uleb128 0xb
 2349 00ea 3B       		.uleb128 0x3b
 2350 00eb 0B       		.uleb128 0xb
 2351 00ec 49       		.uleb128 0x49
 2352 00ed 13       		.uleb128 0x13
 2353 00ee 02       		.uleb128 0x2
 2354 00ef 18       		.uleb128 0x18
 2355 00f0 00       		.byte	0
 2356 00f1 00       		.byte	0
 2357 00f2 12       		.uleb128 0x12
 2358 00f3 05       		.uleb128 0x5
 2359 00f4 00       		.byte	0
 2360 00f5 03       		.uleb128 0x3
 2361 00f6 08       		.uleb128 0x8
 2362 00f7 3A       		.uleb128 0x3a
 2363 00f8 0B       		.uleb128 0xb
 2364 00f9 3B       		.uleb128 0x3b
 2365 00fa 0B       		.uleb128 0xb
 2366 00fb 49       		.uleb128 0x49
 2367 00fc 13       		.uleb128 0x13
 2368 00fd 02       		.uleb128 0x2
 2369 00fe 18       		.uleb128 0x18
 2370 00ff 00       		.byte	0
 2371 0100 00       		.byte	0
 2372 0101 13       		.uleb128 0x13
 2373 0102 2E       		.uleb128 0x2e
 2374 0103 01       		.byte	0x1
 2375 0104 3F       		.uleb128 0x3f
 2376 0105 19       		.uleb128 0x19
 2377 0106 03       		.uleb128 0x3
 2378 0107 08       		.uleb128 0x8
 2379 0108 3A       		.uleb128 0x3a
 2380 0109 0B       		.uleb128 0xb
 2381 010a 3B       		.uleb128 0x3b
 2382 010b 0B       		.uleb128 0xb
 2383 010c 27       		.uleb128 0x27
 2384 010d 19       		.uleb128 0x19
 2385 010e 49       		.uleb128 0x49
 2386 010f 13       		.uleb128 0x13
 2387 0110 11       		.uleb128 0x11
 2388 0111 01       		.uleb128 0x1
 2389 0112 12       		.uleb128 0x12
 2390 0113 06       		.uleb128 0x6
 2391 0114 40       		.uleb128 0x40
 2392 0115 18       		.uleb128 0x18
 2393 0116 9642     		.uleb128 0x2116
 2394 0118 19       		.uleb128 0x19
 2395 0119 01       		.uleb128 0x1
 2396 011a 13       		.uleb128 0x13
 2397 011b 00       		.byte	0
 2398 011c 00       		.byte	0
 2399 011d 14       		.uleb128 0x14
 2400 011e 34       		.uleb128 0x34
 2401 011f 00       		.byte	0
 2402 0120 03       		.uleb128 0x3
 2403 0121 08       		.uleb128 0x8
 2404 0122 3A       		.uleb128 0x3a
GAS LISTING C:\Users\PRESID~1\AppData\Local\Temp\ccdWwDHD.s 			page 65


 2405 0123 0B       		.uleb128 0xb
 2406 0124 3B       		.uleb128 0x3b
 2407 0125 0B       		.uleb128 0xb
 2408 0126 49       		.uleb128 0x49
 2409 0127 13       		.uleb128 0x13
 2410 0128 02       		.uleb128 0x2
 2411 0129 18       		.uleb128 0x18
 2412 012a 00       		.byte	0
 2413 012b 00       		.byte	0
 2414 012c 15       		.uleb128 0x15
 2415 012d 34       		.uleb128 0x34
 2416 012e 00       		.byte	0
 2417 012f 03       		.uleb128 0x3
 2418 0130 0E       		.uleb128 0xe
 2419 0131 3A       		.uleb128 0x3a
 2420 0132 0B       		.uleb128 0xb
 2421 0133 3B       		.uleb128 0x3b
 2422 0134 0B       		.uleb128 0xb
 2423 0135 49       		.uleb128 0x49
 2424 0136 13       		.uleb128 0x13
 2425 0137 02       		.uleb128 0x2
 2426 0138 18       		.uleb128 0x18
 2427 0139 00       		.byte	0
 2428 013a 00       		.byte	0
 2429 013b 16       		.uleb128 0x16
 2430 013c 2E       		.uleb128 0x2e
 2431 013d 01       		.byte	0x1
 2432 013e 03       		.uleb128 0x3
 2433 013f 08       		.uleb128 0x8
 2434 0140 3A       		.uleb128 0x3a
 2435 0141 0B       		.uleb128 0xb
 2436 0142 3B       		.uleb128 0x3b
 2437 0143 0B       		.uleb128 0xb
 2438 0144 27       		.uleb128 0x27
 2439 0145 19       		.uleb128 0x19
 2440 0146 11       		.uleb128 0x11
 2441 0147 01       		.uleb128 0x1
 2442 0148 12       		.uleb128 0x12
 2443 0149 06       		.uleb128 0x6
 2444 014a 40       		.uleb128 0x40
 2445 014b 18       		.uleb128 0x18
 2446 014c 9642     		.uleb128 0x2116
 2447 014e 19       		.uleb128 0x19
 2448 014f 01       		.uleb128 0x1
 2449 0150 13       		.uleb128 0x13
 2450 0151 00       		.byte	0
 2451 0152 00       		.byte	0
 2452 0153 17       		.uleb128 0x17
 2453 0154 2E       		.uleb128 0x2e
 2454 0155 01       		.byte	0x1
 2455 0156 3F       		.uleb128 0x3f
 2456 0157 19       		.uleb128 0x19
 2457 0158 03       		.uleb128 0x3
 2458 0159 08       		.uleb128 0x8
 2459 015a 3A       		.uleb128 0x3a
 2460 015b 0B       		.uleb128 0xb
 2461 015c 3B       		.uleb128 0x3b
GAS LISTING C:\Users\PRESID~1\AppData\Local\Temp\ccdWwDHD.s 			page 66


 2462 015d 05       		.uleb128 0x5
 2463 015e 27       		.uleb128 0x27
 2464 015f 19       		.uleb128 0x19
 2465 0160 11       		.uleb128 0x11
 2466 0161 01       		.uleb128 0x1
 2467 0162 12       		.uleb128 0x12
 2468 0163 06       		.uleb128 0x6
 2469 0164 40       		.uleb128 0x40
 2470 0165 18       		.uleb128 0x18
 2471 0166 9642     		.uleb128 0x2116
 2472 0168 19       		.uleb128 0x19
 2473 0169 01       		.uleb128 0x1
 2474 016a 13       		.uleb128 0x13
 2475 016b 00       		.byte	0
 2476 016c 00       		.byte	0
 2477 016d 18       		.uleb128 0x18
 2478 016e 05       		.uleb128 0x5
 2479 016f 00       		.byte	0
 2480 0170 03       		.uleb128 0x3
 2481 0171 0E       		.uleb128 0xe
 2482 0172 3A       		.uleb128 0x3a
 2483 0173 0B       		.uleb128 0xb
 2484 0174 3B       		.uleb128 0x3b
 2485 0175 05       		.uleb128 0x5
 2486 0176 49       		.uleb128 0x49
 2487 0177 13       		.uleb128 0x13
 2488 0178 02       		.uleb128 0x2
 2489 0179 18       		.uleb128 0x18
 2490 017a 00       		.byte	0
 2491 017b 00       		.byte	0
 2492 017c 19       		.uleb128 0x19
 2493 017d 34       		.uleb128 0x34
 2494 017e 00       		.byte	0
 2495 017f 03       		.uleb128 0x3
 2496 0180 0E       		.uleb128 0xe
 2497 0181 3A       		.uleb128 0x3a
 2498 0182 0B       		.uleb128 0xb
 2499 0183 3B       		.uleb128 0x3b
 2500 0184 05       		.uleb128 0x5
 2501 0185 49       		.uleb128 0x49
 2502 0186 13       		.uleb128 0x13
 2503 0187 02       		.uleb128 0x2
 2504 0188 18       		.uleb128 0x18
 2505 0189 00       		.byte	0
 2506 018a 00       		.byte	0
 2507 018b 1A       		.uleb128 0x1a
 2508 018c 2E       		.uleb128 0x2e
 2509 018d 01       		.byte	0x1
 2510 018e 03       		.uleb128 0x3
 2511 018f 08       		.uleb128 0x8
 2512 0190 3A       		.uleb128 0x3a
 2513 0191 0B       		.uleb128 0xb
 2514 0192 3B       		.uleb128 0x3b
 2515 0193 05       		.uleb128 0x5
 2516 0194 27       		.uleb128 0x27
 2517 0195 19       		.uleb128 0x19
 2518 0196 11       		.uleb128 0x11
GAS LISTING C:\Users\PRESID~1\AppData\Local\Temp\ccdWwDHD.s 			page 67


 2519 0197 01       		.uleb128 0x1
 2520 0198 12       		.uleb128 0x12
 2521 0199 06       		.uleb128 0x6
 2522 019a 40       		.uleb128 0x40
 2523 019b 18       		.uleb128 0x18
 2524 019c 9742     		.uleb128 0x2117
 2525 019e 19       		.uleb128 0x19
 2526 019f 01       		.uleb128 0x1
 2527 01a0 13       		.uleb128 0x13
 2528 01a1 00       		.byte	0
 2529 01a2 00       		.byte	0
 2530 01a3 1B       		.uleb128 0x1b
 2531 01a4 2E       		.uleb128 0x2e
 2532 01a5 01       		.byte	0x1
 2533 01a6 03       		.uleb128 0x3
 2534 01a7 08       		.uleb128 0x8
 2535 01a8 3A       		.uleb128 0x3a
 2536 01a9 0B       		.uleb128 0xb
 2537 01aa 3B       		.uleb128 0x3b
 2538 01ab 05       		.uleb128 0x5
 2539 01ac 27       		.uleb128 0x27
 2540 01ad 19       		.uleb128 0x19
 2541 01ae 11       		.uleb128 0x11
 2542 01af 01       		.uleb128 0x1
 2543 01b0 12       		.uleb128 0x12
 2544 01b1 06       		.uleb128 0x6
 2545 01b2 40       		.uleb128 0x40
 2546 01b3 18       		.uleb128 0x18
 2547 01b4 9642     		.uleb128 0x2116
 2548 01b6 19       		.uleb128 0x19
 2549 01b7 01       		.uleb128 0x1
 2550 01b8 13       		.uleb128 0x13
 2551 01b9 00       		.byte	0
 2552 01ba 00       		.byte	0
 2553 01bb 1C       		.uleb128 0x1c
 2554 01bc 2E       		.uleb128 0x2e
 2555 01bd 01       		.byte	0x1
 2556 01be 03       		.uleb128 0x3
 2557 01bf 08       		.uleb128 0x8
 2558 01c0 3A       		.uleb128 0x3a
 2559 01c1 0B       		.uleb128 0xb
 2560 01c2 3B       		.uleb128 0x3b
 2561 01c3 05       		.uleb128 0x5
 2562 01c4 27       		.uleb128 0x27
 2563 01c5 19       		.uleb128 0x19
 2564 01c6 49       		.uleb128 0x49
 2565 01c7 13       		.uleb128 0x13
 2566 01c8 11       		.uleb128 0x11
 2567 01c9 01       		.uleb128 0x1
 2568 01ca 12       		.uleb128 0x12
 2569 01cb 06       		.uleb128 0x6
 2570 01cc 40       		.uleb128 0x40
 2571 01cd 18       		.uleb128 0x18
 2572 01ce 9642     		.uleb128 0x2116
 2573 01d0 19       		.uleb128 0x19
 2574 01d1 01       		.uleb128 0x1
 2575 01d2 13       		.uleb128 0x13
GAS LISTING C:\Users\PRESID~1\AppData\Local\Temp\ccdWwDHD.s 			page 68


 2576 01d3 00       		.byte	0
 2577 01d4 00       		.byte	0
 2578 01d5 1D       		.uleb128 0x1d
 2579 01d6 34       		.uleb128 0x34
 2580 01d7 00       		.byte	0
 2581 01d8 03       		.uleb128 0x3
 2582 01d9 08       		.uleb128 0x8
 2583 01da 3A       		.uleb128 0x3a
 2584 01db 0B       		.uleb128 0xb
 2585 01dc 3B       		.uleb128 0x3b
 2586 01dd 05       		.uleb128 0x5
 2587 01de 49       		.uleb128 0x49
 2588 01df 13       		.uleb128 0x13
 2589 01e0 02       		.uleb128 0x2
 2590 01e1 18       		.uleb128 0x18
 2591 01e2 00       		.byte	0
 2592 01e3 00       		.byte	0
 2593 01e4 1E       		.uleb128 0x1e
 2594 01e5 01       		.uleb128 0x1
 2595 01e6 01       		.byte	0x1
 2596 01e7 49       		.uleb128 0x49
 2597 01e8 13       		.uleb128 0x13
 2598 01e9 01       		.uleb128 0x1
 2599 01ea 13       		.uleb128 0x13
 2600 01eb 00       		.byte	0
 2601 01ec 00       		.byte	0
 2602 01ed 1F       		.uleb128 0x1f
 2603 01ee 21       		.uleb128 0x21
 2604 01ef 00       		.byte	0
 2605 01f0 49       		.uleb128 0x49
 2606 01f1 13       		.uleb128 0x13
 2607 01f2 2F       		.uleb128 0x2f
 2608 01f3 0B       		.uleb128 0xb
 2609 01f4 00       		.byte	0
 2610 01f5 00       		.byte	0
 2611 01f6 20       		.uleb128 0x20
 2612 01f7 21       		.uleb128 0x21
 2613 01f8 00       		.byte	0
 2614 01f9 49       		.uleb128 0x49
 2615 01fa 13       		.uleb128 0x13
 2616 01fb 2F       		.uleb128 0x2f
 2617 01fc 05       		.uleb128 0x5
 2618 01fd 00       		.byte	0
 2619 01fe 00       		.byte	0
 2620 01ff 21       		.uleb128 0x21
 2621 0200 34       		.uleb128 0x34
 2622 0201 00       		.byte	0
 2623 0202 03       		.uleb128 0x3
 2624 0203 08       		.uleb128 0x8
 2625 0204 3A       		.uleb128 0x3a
 2626 0205 0B       		.uleb128 0xb
 2627 0206 3B       		.uleb128 0x3b
 2628 0207 0B       		.uleb128 0xb
 2629 0208 49       		.uleb128 0x49
 2630 0209 13       		.uleb128 0x13
 2631 020a 3F       		.uleb128 0x3f
 2632 020b 19       		.uleb128 0x19
GAS LISTING C:\Users\PRESID~1\AppData\Local\Temp\ccdWwDHD.s 			page 69


 2633 020c 3C       		.uleb128 0x3c
 2634 020d 19       		.uleb128 0x19
 2635 020e 00       		.byte	0
 2636 020f 00       		.byte	0
 2637 0210 22       		.uleb128 0x22
 2638 0211 35       		.uleb128 0x35
 2639 0212 00       		.byte	0
 2640 0213 49       		.uleb128 0x49
 2641 0214 13       		.uleb128 0x13
 2642 0215 00       		.byte	0
 2643 0216 00       		.byte	0
 2644 0217 00       		.byte	0
 2645              		.section	.debug_aranges,"dr"
 2646 0000 1C000000 		.long	0x1c
 2647 0004 0200     		.word	0x2
 2648 0006 00000000 		.secrel32	Ldebug_info0
 2649 000a 04       		.byte	0x4
 2650 000b 00       		.byte	0
 2651 000c 0000     		.word	0
 2652 000e 0000     		.word	0
 2653 0010 00000000 		.long	Ltext0
 2654 0014 76090000 		.long	Letext0-Ltext0
 2655 0018 00000000 		.long	0
 2656 001c 00000000 		.long	0
 2657              		.section	.debug_macro,"dr"
 2658              	Ldebug_macro0:
 2659 0000 0400     		.word	0x4
 2660 0002 02       		.byte	0x2
 2661 0003 00000000 		.secrel32	Ldebug_line0
 2662 0007 01       		.byte	0x1
 2663 0008 00       		.uleb128 0
 2664 0009 5F5F5354 		.ascii "__STDC__ 1\0"
 2664      44435F5F 
 2664      203100
 2665 0014 01       		.byte	0x1
 2666 0015 00       		.uleb128 0
 2667 0016 5F5F5354 		.ascii "__STDC_HOSTED__ 1\0"
 2667      44435F48 
 2667      4F535445 
 2667      445F5F20 
 2667      3100
 2668 0028 01       		.byte	0x1
 2669 0029 00       		.uleb128 0
 2670 002a 5F5F474E 		.ascii "__GNUC__ 4\0"
 2670      55435F5F 
 2670      203400
 2671 0035 01       		.byte	0x1
 2672 0036 00       		.uleb128 0
 2673 0037 5F5F474E 		.ascii "__GNUC_MINOR__ 9\0"
 2673      55435F4D 
 2673      494E4F52 
 2673      5F5F2039 
 2673      00
 2674 0048 01       		.byte	0x1
 2675 0049 00       		.uleb128 0
 2676 004a 5F5F474E 		.ascii "__GNUC_PATCHLEVEL__ 3\0"
 2676      55435F50 
GAS LISTING C:\Users\PRESID~1\AppData\Local\Temp\ccdWwDHD.s 			page 70


 2676      41544348 
 2676      4C455645 
 2676      4C5F5F20 
 2677 0060 01       		.byte	0x1
 2678 0061 00       		.uleb128 0
 2679 0062 5F5F5645 		.ascii "__VERSION__ \"4.9.3\"\0"
 2679      5253494F 
 2679      4E5F5F20 
 2679      22342E39 
 2679      2E332200 
 2680 0076 01       		.byte	0x1
 2681 0077 00       		.uleb128 0
 2682 0078 5F5F4154 		.ascii "__ATOMIC_RELAXED 0\0"
 2682      4F4D4943 
 2682      5F52454C 
 2682      41584544 
 2682      203000
 2683 008b 01       		.byte	0x1
 2684 008c 00       		.uleb128 0
 2685 008d 5F5F4154 		.ascii "__ATOMIC_SEQ_CST 5\0"
 2685      4F4D4943 
 2685      5F534551 
 2685      5F435354 
 2685      203500
 2686 00a0 01       		.byte	0x1
 2687 00a1 00       		.uleb128 0
 2688 00a2 5F5F4154 		.ascii "__ATOMIC_ACQUIRE 2\0"
 2688      4F4D4943 
 2688      5F414351 
 2688      55495245 
 2688      203200
 2689 00b5 01       		.byte	0x1
 2690 00b6 00       		.uleb128 0
 2691 00b7 5F5F4154 		.ascii "__ATOMIC_RELEASE 3\0"
 2691      4F4D4943 
 2691      5F52454C 
 2691      45415345 
 2691      203300
 2692 00ca 01       		.byte	0x1
 2693 00cb 00       		.uleb128 0
 2694 00cc 5F5F4154 		.ascii "__ATOMIC_ACQ_REL 4\0"
 2694      4F4D4943 
 2694      5F414351 
 2694      5F52454C 
 2694      203400
 2695 00df 01       		.byte	0x1
 2696 00e0 00       		.uleb128 0
 2697 00e1 5F5F4154 		.ascii "__ATOMIC_CONSUME 1\0"
 2697      4F4D4943 
 2697      5F434F4E 
 2697      53554D45 
 2697      203100
 2698 00f4 01       		.byte	0x1
 2699 00f5 00       		.uleb128 0
 2700 00f6 5F5F4649 		.ascii "__FINITE_MATH_ONLY__ 0\0"
 2700      4E495445 
 2700      5F4D4154 
GAS LISTING C:\Users\PRESID~1\AppData\Local\Temp\ccdWwDHD.s 			page 71


 2700      485F4F4E 
 2700      4C595F5F 
 2701 010d 01       		.byte	0x1
 2702 010e 00       		.uleb128 0
 2703 010f 5F5F5349 		.ascii "__SIZEOF_INT__ 4\0"
 2703      5A454F46 
 2703      5F494E54 
 2703      5F5F2034 
 2703      00
 2704 0120 01       		.byte	0x1
 2705 0121 00       		.uleb128 0
 2706 0122 5F5F5349 		.ascii "__SIZEOF_LONG__ 4\0"
 2706      5A454F46 
 2706      5F4C4F4E 
 2706      475F5F20 
 2706      3400
 2707 0134 01       		.byte	0x1
 2708 0135 00       		.uleb128 0
 2709 0136 5F5F5349 		.ascii "__SIZEOF_LONG_LONG__ 8\0"
 2709      5A454F46 
 2709      5F4C4F4E 
 2709      475F4C4F 
 2709      4E475F5F 
 2710 014d 01       		.byte	0x1
 2711 014e 00       		.uleb128 0
 2712 014f 5F5F5349 		.ascii "__SIZEOF_SHORT__ 2\0"
 2712      5A454F46 
 2712      5F53484F 
 2712      52545F5F 
 2712      203200
 2713 0162 01       		.byte	0x1
 2714 0163 00       		.uleb128 0
 2715 0164 5F5F5349 		.ascii "__SIZEOF_FLOAT__ 4\0"
 2715      5A454F46 
 2715      5F464C4F 
 2715      41545F5F 
 2715      203400
 2716 0177 01       		.byte	0x1
 2717 0178 00       		.uleb128 0
 2718 0179 5F5F5349 		.ascii "__SIZEOF_DOUBLE__ 8\0"
 2718      5A454F46 
 2718      5F444F55 
 2718      424C455F 
 2718      5F203800 
 2719 018d 01       		.byte	0x1
 2720 018e 00       		.uleb128 0
 2721 018f 5F5F5349 		.ascii "__SIZEOF_LONG_DOUBLE__ 12\0"
 2721      5A454F46 
 2721      5F4C4F4E 
 2721      475F444F 
 2721      55424C45 
 2722 01a9 01       		.byte	0x1
 2723 01aa 00       		.uleb128 0
 2724 01ab 5F5F5349 		.ascii "__SIZEOF_SIZE_T__ 4\0"
 2724      5A454F46 
 2724      5F53495A 
 2724      455F545F 
GAS LISTING C:\Users\PRESID~1\AppData\Local\Temp\ccdWwDHD.s 			page 72


 2724      5F203400 
 2725 01bf 01       		.byte	0x1
 2726 01c0 00       		.uleb128 0
 2727 01c1 5F5F4348 		.ascii "__CHAR_BIT__ 8\0"
 2727      41525F42 
 2727      49545F5F 
 2727      203800
 2728 01d0 01       		.byte	0x1
 2729 01d1 00       		.uleb128 0
 2730 01d2 5F5F4249 		.ascii "__BIGGEST_ALIGNMENT__ 16\0"
 2730      47474553 
 2730      545F414C 
 2730      49474E4D 
 2730      454E545F 
 2731 01eb 01       		.byte	0x1
 2732 01ec 00       		.uleb128 0
 2733 01ed 5F5F4F52 		.ascii "__ORDER_LITTLE_ENDIAN__ 1234\0"
 2733      4445525F 
 2733      4C495454 
 2733      4C455F45 
 2733      4E444941 
 2734 020a 01       		.byte	0x1
 2735 020b 00       		.uleb128 0
 2736 020c 5F5F4F52 		.ascii "__ORDER_BIG_ENDIAN__ 4321\0"
 2736      4445525F 
 2736      4249475F 
 2736      454E4449 
 2736      414E5F5F 
 2737 0226 01       		.byte	0x1
 2738 0227 00       		.uleb128 0
 2739 0228 5F5F4F52 		.ascii "__ORDER_PDP_ENDIAN__ 3412\0"
 2739      4445525F 
 2739      5044505F 
 2739      454E4449 
 2739      414E5F5F 
 2740 0242 01       		.byte	0x1
 2741 0243 00       		.uleb128 0
 2742 0244 5F5F4259 		.ascii "__BYTE_ORDER__ __ORDER_LITTLE_ENDIAN__\0"
 2742      54455F4F 
 2742      52444552 
 2742      5F5F205F 
 2742      5F4F5244 
 2743 026b 01       		.byte	0x1
 2744 026c 00       		.uleb128 0
 2745 026d 5F5F464C 		.ascii "__FLOAT_WORD_ORDER__ __ORDER_LITTLE_ENDIAN__\0"
 2745      4F41545F 
 2745      574F5244 
 2745      5F4F5244 
 2745      45525F5F 
 2746 029a 01       		.byte	0x1
 2747 029b 00       		.uleb128 0
 2748 029c 5F5F5349 		.ascii "__SIZEOF_POINTER__ 4\0"
 2748      5A454F46 
 2748      5F504F49 
 2748      4E544552 
 2748      5F5F2034 
 2749 02b1 01       		.byte	0x1
GAS LISTING C:\Users\PRESID~1\AppData\Local\Temp\ccdWwDHD.s 			page 73


 2750 02b2 00       		.uleb128 0
 2751 02b3 5F5F5349 		.ascii "__SIZE_TYPE__ unsigned int\0"
 2751      5A455F54 
 2751      5950455F 
 2751      5F20756E 
 2751      7369676E 
 2752 02ce 01       		.byte	0x1
 2753 02cf 00       		.uleb128 0
 2754 02d0 5F5F5054 		.ascii "__PTRDIFF_TYPE__ int\0"
 2754      52444946 
 2754      465F5459 
 2754      50455F5F 
 2754      20696E74 
 2755 02e5 01       		.byte	0x1
 2756 02e6 00       		.uleb128 0
 2757 02e7 5F5F5743 		.ascii "__WCHAR_TYPE__ short unsigned int\0"
 2757      4841525F 
 2757      54595045 
 2757      5F5F2073 
 2757      686F7274 
 2758 0309 01       		.byte	0x1
 2759 030a 00       		.uleb128 0
 2760 030b 5F5F5749 		.ascii "__WINT_TYPE__ short unsigned int\0"
 2760      4E545F54 
 2760      5950455F 
 2760      5F207368 
 2760      6F727420 
 2761 032c 01       		.byte	0x1
 2762 032d 00       		.uleb128 0
 2763 032e 5F5F494E 		.ascii "__INTMAX_TYPE__ long long int\0"
 2763      544D4158 
 2763      5F545950 
 2763      455F5F20 
 2763      6C6F6E67 
 2764 034c 01       		.byte	0x1
 2765 034d 00       		.uleb128 0
 2766 034e 5F5F5549 		.ascii "__UINTMAX_TYPE__ long long unsigned int\0"
 2766      4E544D41 
 2766      585F5459 
 2766      50455F5F 
 2766      206C6F6E 
 2767 0376 01       		.byte	0x1
 2768 0377 00       		.uleb128 0
 2769 0378 5F5F4348 		.ascii "__CHAR16_TYPE__ short unsigned int\0"
 2769      41523136 
 2769      5F545950 
 2769      455F5F20 
 2769      73686F72 
 2770 039b 01       		.byte	0x1
 2771 039c 00       		.uleb128 0
 2772 039d 5F5F4348 		.ascii "__CHAR32_TYPE__ unsigned int\0"
 2772      41523332 
 2772      5F545950 
 2772      455F5F20 
 2772      756E7369 
 2773 03ba 01       		.byte	0x1
 2774 03bb 00       		.uleb128 0
GAS LISTING C:\Users\PRESID~1\AppData\Local\Temp\ccdWwDHD.s 			page 74


 2775 03bc 5F5F5349 		.ascii "__SIG_ATOMIC_TYPE__ int\0"
 2775      475F4154 
 2775      4F4D4943 
 2775      5F545950 
 2775      455F5F20 
 2776 03d4 01       		.byte	0x1
 2777 03d5 00       		.uleb128 0
 2778 03d6 5F5F494E 		.ascii "__INT8_TYPE__ signed char\0"
 2778      54385F54 
 2778      5950455F 
 2778      5F207369 
 2778      676E6564 
 2779 03f0 01       		.byte	0x1
 2780 03f1 00       		.uleb128 0
 2781 03f2 5F5F494E 		.ascii "__INT16_TYPE__ short int\0"
 2781      5431365F 
 2781      54595045 
 2781      5F5F2073 
 2781      686F7274 
 2782 040b 01       		.byte	0x1
 2783 040c 00       		.uleb128 0
 2784 040d 5F5F494E 		.ascii "__INT32_TYPE__ int\0"
 2784      5433325F 
 2784      54595045 
 2784      5F5F2069 
 2784      6E7400
 2785 0420 01       		.byte	0x1
 2786 0421 00       		.uleb128 0
 2787 0422 5F5F494E 		.ascii "__INT64_TYPE__ long long int\0"
 2787      5436345F 
 2787      54595045 
 2787      5F5F206C 
 2787      6F6E6720 
 2788 043f 01       		.byte	0x1
 2789 0440 00       		.uleb128 0
 2790 0441 5F5F5549 		.ascii "__UINT8_TYPE__ unsigned char\0"
 2790      4E54385F 
 2790      54595045 
 2790      5F5F2075 
 2790      6E736967 
 2791 045e 01       		.byte	0x1
 2792 045f 00       		.uleb128 0
 2793 0460 5F5F5549 		.ascii "__UINT16_TYPE__ short unsigned int\0"
 2793      4E543136 
 2793      5F545950 
 2793      455F5F20 
 2793      73686F72 
 2794 0483 01       		.byte	0x1
 2795 0484 00       		.uleb128 0
 2796 0485 5F5F5549 		.ascii "__UINT32_TYPE__ unsigned int\0"
 2796      4E543332 
 2796      5F545950 
 2796      455F5F20 
 2796      756E7369 
 2797 04a2 01       		.byte	0x1
 2798 04a3 00       		.uleb128 0
 2799 04a4 5F5F5549 		.ascii "__UINT64_TYPE__ long long unsigned int\0"
GAS LISTING C:\Users\PRESID~1\AppData\Local\Temp\ccdWwDHD.s 			page 75


 2799      4E543634 
 2799      5F545950 
 2799      455F5F20 
 2799      6C6F6E67 
 2800 04cb 01       		.byte	0x1
 2801 04cc 00       		.uleb128 0
 2802 04cd 5F5F494E 		.ascii "__INT_LEAST8_TYPE__ signed char\0"
 2802      545F4C45 
 2802      41535438 
 2802      5F545950 
 2802      455F5F20 
 2803 04ed 01       		.byte	0x1
 2804 04ee 00       		.uleb128 0
 2805 04ef 5F5F494E 		.ascii "__INT_LEAST16_TYPE__ short int\0"
 2805      545F4C45 
 2805      41535431 
 2805      365F5459 
 2805      50455F5F 
 2806 050e 01       		.byte	0x1
 2807 050f 00       		.uleb128 0
 2808 0510 5F5F494E 		.ascii "__INT_LEAST32_TYPE__ int\0"
 2808      545F4C45 
 2808      41535433 
 2808      325F5459 
 2808      50455F5F 
 2809 0529 01       		.byte	0x1
 2810 052a 00       		.uleb128 0
 2811 052b 5F5F494E 		.ascii "__INT_LEAST64_TYPE__ long long int\0"
 2811      545F4C45 
 2811      41535436 
 2811      345F5459 
 2811      50455F5F 
 2812 054e 01       		.byte	0x1
 2813 054f 00       		.uleb128 0
 2814 0550 5F5F5549 		.ascii "__UINT_LEAST8_TYPE__ unsigned char\0"
 2814      4E545F4C 
 2814      45415354 
 2814      385F5459 
 2814      50455F5F 
 2815 0573 01       		.byte	0x1
 2816 0574 00       		.uleb128 0
 2817 0575 5F5F5549 		.ascii "__UINT_LEAST16_TYPE__ short unsigned int\0"
 2817      4E545F4C 
 2817      45415354 
 2817      31365F54 
 2817      5950455F 
 2818 059e 01       		.byte	0x1
 2819 059f 00       		.uleb128 0
 2820 05a0 5F5F5549 		.ascii "__UINT_LEAST32_TYPE__ unsigned int\0"
 2820      4E545F4C 
 2820      45415354 
 2820      33325F54 
 2820      5950455F 
 2821 05c3 01       		.byte	0x1
 2822 05c4 00       		.uleb128 0
 2823 05c5 5F5F5549 		.ascii "__UINT_LEAST64_TYPE__ long long unsigned int\0"
 2823      4E545F4C 
GAS LISTING C:\Users\PRESID~1\AppData\Local\Temp\ccdWwDHD.s 			page 76


 2823      45415354 
 2823      36345F54 
 2823      5950455F 
 2824 05f2 01       		.byte	0x1
 2825 05f3 00       		.uleb128 0
 2826 05f4 5F5F494E 		.ascii "__INT_FAST8_TYPE__ signed char\0"
 2826      545F4641 
 2826      5354385F 
 2826      54595045 
 2826      5F5F2073 
 2827 0613 01       		.byte	0x1
 2828 0614 00       		.uleb128 0
 2829 0615 5F5F494E 		.ascii "__INT_FAST16_TYPE__ short int\0"
 2829      545F4641 
 2829      53543136 
 2829      5F545950 
 2829      455F5F20 
 2830 0633 01       		.byte	0x1
 2831 0634 00       		.uleb128 0
 2832 0635 5F5F494E 		.ascii "__INT_FAST32_TYPE__ int\0"
 2832      545F4641 
 2832      53543332 
 2832      5F545950 
 2832      455F5F20 
 2833 064d 01       		.byte	0x1
 2834 064e 00       		.uleb128 0
 2835 064f 5F5F494E 		.ascii "__INT_FAST64_TYPE__ long long int\0"
 2835      545F4641 
 2835      53543634 
 2835      5F545950 
 2835      455F5F20 
 2836 0671 01       		.byte	0x1
 2837 0672 00       		.uleb128 0
 2838 0673 5F5F5549 		.ascii "__UINT_FAST8_TYPE__ unsigned char\0"
 2838      4E545F46 
 2838      41535438 
 2838      5F545950 
 2838      455F5F20 
 2839 0695 01       		.byte	0x1
 2840 0696 00       		.uleb128 0
 2841 0697 5F5F5549 		.ascii "__UINT_FAST16_TYPE__ short unsigned int\0"
 2841      4E545F46 
 2841      41535431 
 2841      365F5459 
 2841      50455F5F 
 2842 06bf 01       		.byte	0x1
 2843 06c0 00       		.uleb128 0
 2844 06c1 5F5F5549 		.ascii "__UINT_FAST32_TYPE__ unsigned int\0"
 2844      4E545F46 
 2844      41535433 
 2844      325F5459 
 2844      50455F5F 
 2845 06e3 01       		.byte	0x1
 2846 06e4 00       		.uleb128 0
 2847 06e5 5F5F5549 		.ascii "__UINT_FAST64_TYPE__ long long unsigned int\0"
 2847      4E545F46 
 2847      41535436 
GAS LISTING C:\Users\PRESID~1\AppData\Local\Temp\ccdWwDHD.s 			page 77


 2847      345F5459 
 2847      50455F5F 
 2848 0711 01       		.byte	0x1
 2849 0712 00       		.uleb128 0
 2850 0713 5F5F494E 		.ascii "__INTPTR_TYPE__ int\0"
 2850      54505452 
 2850      5F545950 
 2850      455F5F20 
 2850      696E7400 
 2851 0727 01       		.byte	0x1
 2852 0728 00       		.uleb128 0
 2853 0729 5F5F5549 		.ascii "__UINTPTR_TYPE__ unsigned int\0"
 2853      4E545054 
 2853      525F5459 
 2853      50455F5F 
 2853      20756E73 
 2854 0747 01       		.byte	0x1
 2855 0748 00       		.uleb128 0
 2856 0749 5F5F6861 		.ascii "__has_include(STR) __has_include__(STR)\0"
 2856      735F696E 
 2856      636C7564 
 2856      65285354 
 2856      5229205F 
 2857 0771 01       		.byte	0x1
 2858 0772 00       		.uleb128 0
 2859 0773 5F5F6861 		.ascii "__has_include_next(STR) __has_include_next__(STR)\0"
 2859      735F696E 
 2859      636C7564 
 2859      655F6E65 
 2859      78742853 
 2860 07a5 01       		.byte	0x1
 2861 07a6 00       		.uleb128 0
 2862 07a7 5F5F4758 		.ascii "__GXX_ABI_VERSION 1002\0"
 2862      585F4142 
 2862      495F5645 
 2862      5253494F 
 2862      4E203130 
 2863 07be 01       		.byte	0x1
 2864 07bf 00       		.uleb128 0
 2865 07c0 5F5F5343 		.ascii "__SCHAR_MAX__ 127\0"
 2865      4841525F 
 2865      4D41585F 
 2865      5F203132 
 2865      3700
 2866 07d2 01       		.byte	0x1
 2867 07d3 00       		.uleb128 0
 2868 07d4 5F5F5348 		.ascii "__SHRT_MAX__ 32767\0"
 2868      52545F4D 
 2868      41585F5F 
 2868      20333237 
 2868      363700
 2869 07e7 01       		.byte	0x1
 2870 07e8 00       		.uleb128 0
 2871 07e9 5F5F494E 		.ascii "__INT_MAX__ 2147483647\0"
 2871      545F4D41 
 2871      585F5F20 
 2871      32313437 
GAS LISTING C:\Users\PRESID~1\AppData\Local\Temp\ccdWwDHD.s 			page 78


 2871      34383336 
 2872 0800 01       		.byte	0x1
 2873 0801 00       		.uleb128 0
 2874 0802 5F5F4C4F 		.ascii "__LONG_MAX__ 2147483647L\0"
 2874      4E475F4D 
 2874      41585F5F 
 2874      20323134 
 2874      37343833 
 2875 081b 01       		.byte	0x1
 2876 081c 00       		.uleb128 0
 2877 081d 5F5F4C4F 		.ascii "__LONG_LONG_MAX__ 9223372036854775807LL\0"
 2877      4E475F4C 
 2877      4F4E475F 
 2877      4D41585F 
 2877      5F203932 
 2878 0845 01       		.byte	0x1
 2879 0846 00       		.uleb128 0
 2880 0847 5F5F5743 		.ascii "__WCHAR_MAX__ 65535\0"
 2880      4841525F 
 2880      4D41585F 
 2880      5F203635 
 2880      35333500 
 2881 085b 01       		.byte	0x1
 2882 085c 00       		.uleb128 0
 2883 085d 5F5F5743 		.ascii "__WCHAR_MIN__ 0\0"
 2883      4841525F 
 2883      4D494E5F 
 2883      5F203000 
 2884 086d 01       		.byte	0x1
 2885 086e 00       		.uleb128 0
 2886 086f 5F5F5749 		.ascii "__WINT_MAX__ 65535\0"
 2886      4E545F4D 
 2886      41585F5F 
 2886      20363535 
 2886      333500
 2887 0882 01       		.byte	0x1
 2888 0883 00       		.uleb128 0
 2889 0884 5F5F5749 		.ascii "__WINT_MIN__ 0\0"
 2889      4E545F4D 
 2889      494E5F5F 
 2889      203000
 2890 0893 01       		.byte	0x1
 2891 0894 00       		.uleb128 0
 2892 0895 5F5F5054 		.ascii "__PTRDIFF_MAX__ 2147483647\0"
 2892      52444946 
 2892      465F4D41 
 2892      585F5F20 
 2892      32313437 
 2893 08b0 01       		.byte	0x1
 2894 08b1 00       		.uleb128 0
 2895 08b2 5F5F5349 		.ascii "__SIZE_MAX__ 4294967295U\0"
 2895      5A455F4D 
 2895      41585F5F 
 2895      20343239 
 2895      34393637 
 2896 08cb 01       		.byte	0x1
 2897 08cc 00       		.uleb128 0
GAS LISTING C:\Users\PRESID~1\AppData\Local\Temp\ccdWwDHD.s 			page 79


 2898 08cd 5F5F494E 		.ascii "__INTMAX_MAX__ 9223372036854775807LL\0"
 2898      544D4158 
 2898      5F4D4158 
 2898      5F5F2039 
 2898      32323333 
 2899 08f2 01       		.byte	0x1
 2900 08f3 00       		.uleb128 0
 2901 08f4 5F5F494E 		.ascii "__INTMAX_C(c) c ## LL\0"
 2901      544D4158 
 2901      5F432863 
 2901      29206320 
 2901      2323204C 
 2902 090a 01       		.byte	0x1
 2903 090b 00       		.uleb128 0
 2904 090c 5F5F5549 		.ascii "__UINTMAX_MAX__ 18446744073709551615ULL\0"
 2904      4E544D41 
 2904      585F4D41 
 2904      585F5F20 
 2904      31383434 
 2905 0934 01       		.byte	0x1
 2906 0935 00       		.uleb128 0
 2907 0936 5F5F5549 		.ascii "__UINTMAX_C(c) c ## ULL\0"
 2907      4E544D41 
 2907      585F4328 
 2907      63292063 
 2907      20232320 
 2908 094e 01       		.byte	0x1
 2909 094f 00       		.uleb128 0
 2910 0950 5F5F5349 		.ascii "__SIG_ATOMIC_MAX__ 2147483647\0"
 2910      475F4154 
 2910      4F4D4943 
 2910      5F4D4158 
 2910      5F5F2032 
 2911 096e 01       		.byte	0x1
 2912 096f 00       		.uleb128 0
 2913 0970 5F5F5349 		.ascii "__SIG_ATOMIC_MIN__ (-__SIG_ATOMIC_MAX__ - 1)\0"
 2913      475F4154 
 2913      4F4D4943 
 2913      5F4D494E 
 2913      5F5F2028 
 2914 099d 01       		.byte	0x1
 2915 099e 00       		.uleb128 0
 2916 099f 5F5F494E 		.ascii "__INT8_MAX__ 127\0"
 2916      54385F4D 
 2916      41585F5F 
 2916      20313237 
 2916      00
 2917 09b0 01       		.byte	0x1
 2918 09b1 00       		.uleb128 0
 2919 09b2 5F5F494E 		.ascii "__INT16_MAX__ 32767\0"
 2919      5431365F 
 2919      4D41585F 
 2919      5F203332 
 2919      37363700 
 2920 09c6 01       		.byte	0x1
 2921 09c7 00       		.uleb128 0
 2922 09c8 5F5F494E 		.ascii "__INT32_MAX__ 2147483647\0"
GAS LISTING C:\Users\PRESID~1\AppData\Local\Temp\ccdWwDHD.s 			page 80


 2922      5433325F 
 2922      4D41585F 
 2922      5F203231 
 2922      34373438 
 2923 09e1 01       		.byte	0x1
 2924 09e2 00       		.uleb128 0
 2925 09e3 5F5F494E 		.ascii "__INT64_MAX__ 9223372036854775807LL\0"
 2925      5436345F 
 2925      4D41585F 
 2925      5F203932 
 2925      32333337 
 2926 0a07 01       		.byte	0x1
 2927 0a08 00       		.uleb128 0
 2928 0a09 5F5F5549 		.ascii "__UINT8_MAX__ 255\0"
 2928      4E54385F 
 2928      4D41585F 
 2928      5F203235 
 2928      3500
 2929 0a1b 01       		.byte	0x1
 2930 0a1c 00       		.uleb128 0
 2931 0a1d 5F5F5549 		.ascii "__UINT16_MAX__ 65535\0"
 2931      4E543136 
 2931      5F4D4158 
 2931      5F5F2036 
 2931      35353335 
 2932 0a32 01       		.byte	0x1
 2933 0a33 00       		.uleb128 0
 2934 0a34 5F5F5549 		.ascii "__UINT32_MAX__ 4294967295U\0"
 2934      4E543332 
 2934      5F4D4158 
 2934      5F5F2034 
 2934      32393439 
 2935 0a4f 01       		.byte	0x1
 2936 0a50 00       		.uleb128 0
 2937 0a51 5F5F5549 		.ascii "__UINT64_MAX__ 18446744073709551615ULL\0"
 2937      4E543634 
 2937      5F4D4158 
 2937      5F5F2031 
 2937      38343436 
 2938 0a78 01       		.byte	0x1
 2939 0a79 00       		.uleb128 0
 2940 0a7a 5F5F494E 		.ascii "__INT_LEAST8_MAX__ 127\0"
 2940      545F4C45 
 2940      41535438 
 2940      5F4D4158 
 2940      5F5F2031 
 2941 0a91 01       		.byte	0x1
 2942 0a92 00       		.uleb128 0
 2943 0a93 5F5F494E 		.ascii "__INT8_C(c) c\0"
 2943      54385F43 
 2943      28632920 
 2943      6300
 2944 0aa1 01       		.byte	0x1
 2945 0aa2 00       		.uleb128 0
 2946 0aa3 5F5F494E 		.ascii "__INT_LEAST16_MAX__ 32767\0"
 2946      545F4C45 
 2946      41535431 
GAS LISTING C:\Users\PRESID~1\AppData\Local\Temp\ccdWwDHD.s 			page 81


 2946      365F4D41 
 2946      585F5F20 
 2947 0abd 01       		.byte	0x1
 2948 0abe 00       		.uleb128 0
 2949 0abf 5F5F494E 		.ascii "__INT16_C(c) c\0"
 2949      5431365F 
 2949      43286329 
 2949      206300
 2950 0ace 01       		.byte	0x1
 2951 0acf 00       		.uleb128 0
 2952 0ad0 5F5F494E 		.ascii "__INT_LEAST32_MAX__ 2147483647\0"
 2952      545F4C45 
 2952      41535433 
 2952      325F4D41 
 2952      585F5F20 
 2953 0aef 01       		.byte	0x1
 2954 0af0 00       		.uleb128 0
 2955 0af1 5F5F494E 		.ascii "__INT32_C(c) c\0"
 2955      5433325F 
 2955      43286329 
 2955      206300
 2956 0b00 01       		.byte	0x1
 2957 0b01 00       		.uleb128 0
 2958 0b02 5F5F494E 		.ascii "__INT_LEAST64_MAX__ 9223372036854775807LL\0"
 2958      545F4C45 
 2958      41535436 
 2958      345F4D41 
 2958      585F5F20 
 2959 0b2c 01       		.byte	0x1
 2960 0b2d 00       		.uleb128 0
 2961 0b2e 5F5F494E 		.ascii "__INT64_C(c) c ## LL\0"
 2961      5436345F 
 2961      43286329 
 2961      20632023 
 2961      23204C4C 
 2962 0b43 01       		.byte	0x1
 2963 0b44 00       		.uleb128 0
 2964 0b45 5F5F5549 		.ascii "__UINT_LEAST8_MAX__ 255\0"
 2964      4E545F4C 
 2964      45415354 
 2964      385F4D41 
 2964      585F5F20 
 2965 0b5d 01       		.byte	0x1
 2966 0b5e 00       		.uleb128 0
 2967 0b5f 5F5F5549 		.ascii "__UINT8_C(c) c\0"
 2967      4E54385F 
 2967      43286329 
 2967      206300
 2968 0b6e 01       		.byte	0x1
 2969 0b6f 00       		.uleb128 0
 2970 0b70 5F5F5549 		.ascii "__UINT_LEAST16_MAX__ 65535\0"
 2970      4E545F4C 
 2970      45415354 
 2970      31365F4D 
 2970      41585F5F 
 2971 0b8b 01       		.byte	0x1
 2972 0b8c 00       		.uleb128 0
GAS LISTING C:\Users\PRESID~1\AppData\Local\Temp\ccdWwDHD.s 			page 82


 2973 0b8d 5F5F5549 		.ascii "__UINT16_C(c) c\0"
 2973      4E543136 
 2973      5F432863 
 2973      29206300 
 2974 0b9d 01       		.byte	0x1
 2975 0b9e 00       		.uleb128 0
 2976 0b9f 5F5F5549 		.ascii "__UINT_LEAST32_MAX__ 4294967295U\0"
 2976      4E545F4C 
 2976      45415354 
 2976      33325F4D 
 2976      41585F5F 
 2977 0bc0 01       		.byte	0x1
 2978 0bc1 00       		.uleb128 0
 2979 0bc2 5F5F5549 		.ascii "__UINT32_C(c) c ## U\0"
 2979      4E543332 
 2979      5F432863 
 2979      29206320 
 2979      23232055 
 2980 0bd7 01       		.byte	0x1
 2981 0bd8 00       		.uleb128 0
 2982 0bd9 5F5F5549 		.ascii "__UINT_LEAST64_MAX__ 18446744073709551615ULL\0"
 2982      4E545F4C 
 2982      45415354 
 2982      36345F4D 
 2982      41585F5F 
 2983 0c06 01       		.byte	0x1
 2984 0c07 00       		.uleb128 0
 2985 0c08 5F5F5549 		.ascii "__UINT64_C(c) c ## ULL\0"
 2985      4E543634 
 2985      5F432863 
 2985      29206320 
 2985      23232055 
 2986 0c1f 01       		.byte	0x1
 2987 0c20 00       		.uleb128 0
 2988 0c21 5F5F494E 		.ascii "__INT_FAST8_MAX__ 127\0"
 2988      545F4641 
 2988      5354385F 
 2988      4D41585F 
 2988      5F203132 
 2989 0c37 01       		.byte	0x1
 2990 0c38 00       		.uleb128 0
 2991 0c39 5F5F494E 		.ascii "__INT_FAST16_MAX__ 32767\0"
 2991      545F4641 
 2991      53543136 
 2991      5F4D4158 
 2991      5F5F2033 
 2992 0c52 01       		.byte	0x1
 2993 0c53 00       		.uleb128 0
 2994 0c54 5F5F494E 		.ascii "__INT_FAST32_MAX__ 2147483647\0"
 2994      545F4641 
 2994      53543332 
 2994      5F4D4158 
 2994      5F5F2032 
 2995 0c72 01       		.byte	0x1
 2996 0c73 00       		.uleb128 0
 2997 0c74 5F5F494E 		.ascii "__INT_FAST64_MAX__ 9223372036854775807LL\0"
 2997      545F4641 
GAS LISTING C:\Users\PRESID~1\AppData\Local\Temp\ccdWwDHD.s 			page 83


 2997      53543634 
 2997      5F4D4158 
 2997      5F5F2039 
 2998 0c9d 01       		.byte	0x1
 2999 0c9e 00       		.uleb128 0
 3000 0c9f 5F5F5549 		.ascii "__UINT_FAST8_MAX__ 255\0"
 3000      4E545F46 
 3000      41535438 
 3000      5F4D4158 
 3000      5F5F2032 
 3001 0cb6 01       		.byte	0x1
 3002 0cb7 00       		.uleb128 0
 3003 0cb8 5F5F5549 		.ascii "__UINT_FAST16_MAX__ 65535\0"
 3003      4E545F46 
 3003      41535431 
 3003      365F4D41 
 3003      585F5F20 
 3004 0cd2 01       		.byte	0x1
 3005 0cd3 00       		.uleb128 0
 3006 0cd4 5F5F5549 		.ascii "__UINT_FAST32_MAX__ 4294967295U\0"
 3006      4E545F46 
 3006      41535433 
 3006      325F4D41 
 3006      585F5F20 
 3007 0cf4 01       		.byte	0x1
 3008 0cf5 00       		.uleb128 0
 3009 0cf6 5F5F5549 		.ascii "__UINT_FAST64_MAX__ 18446744073709551615ULL\0"
 3009      4E545F46 
 3009      41535436 
 3009      345F4D41 
 3009      585F5F20 
 3010 0d22 01       		.byte	0x1
 3011 0d23 00       		.uleb128 0
 3012 0d24 5F5F494E 		.ascii "__INTPTR_MAX__ 2147483647\0"
 3012      54505452 
 3012      5F4D4158 
 3012      5F5F2032 
 3012      31343734 
 3013 0d3e 01       		.byte	0x1
 3014 0d3f 00       		.uleb128 0
 3015 0d40 5F5F5549 		.ascii "__UINTPTR_MAX__ 4294967295U\0"
 3015      4E545054 
 3015      525F4D41 
 3015      585F5F20 
 3015      34323934 
 3016 0d5c 01       		.byte	0x1
 3017 0d5d 00       		.uleb128 0
 3018 0d5e 5F5F4743 		.ascii "__GCC_IEC_559 2\0"
 3018      435F4945 
 3018      435F3535 
 3018      39203200 
 3019 0d6e 01       		.byte	0x1
 3020 0d6f 00       		.uleb128 0
 3021 0d70 5F5F4743 		.ascii "__GCC_IEC_559_COMPLEX 2\0"
 3021      435F4945 
 3021      435F3535 
 3021      395F434F 
GAS LISTING C:\Users\PRESID~1\AppData\Local\Temp\ccdWwDHD.s 			page 84


 3021      4D504C45 
 3022 0d88 01       		.byte	0x1
 3023 0d89 00       		.uleb128 0
 3024 0d8a 5F5F464C 		.ascii "__FLT_EVAL_METHOD__ 2\0"
 3024      545F4556 
 3024      414C5F4D 
 3024      4554484F 
 3024      445F5F20 
 3025 0da0 01       		.byte	0x1
 3026 0da1 00       		.uleb128 0
 3027 0da2 5F5F4445 		.ascii "__DEC_EVAL_METHOD__ 2\0"
 3027      435F4556 
 3027      414C5F4D 
 3027      4554484F 
 3027      445F5F20 
 3028 0db8 01       		.byte	0x1
 3029 0db9 00       		.uleb128 0
 3030 0dba 5F5F464C 		.ascii "__FLT_RADIX__ 2\0"
 3030      545F5241 
 3030      4449585F 
 3030      5F203200 
 3031 0dca 01       		.byte	0x1
 3032 0dcb 00       		.uleb128 0
 3033 0dcc 5F5F464C 		.ascii "__FLT_MANT_DIG__ 24\0"
 3033      545F4D41 
 3033      4E545F44 
 3033      49475F5F 
 3033      20323400 
 3034 0de0 01       		.byte	0x1
 3035 0de1 00       		.uleb128 0
 3036 0de2 5F5F464C 		.ascii "__FLT_DIG__ 6\0"
 3036      545F4449 
 3036      475F5F20 
 3036      3600
 3037 0df0 01       		.byte	0x1
 3038 0df1 00       		.uleb128 0
 3039 0df2 5F5F464C 		.ascii "__FLT_MIN_EXP__ (-125)\0"
 3039      545F4D49 
 3039      4E5F4558 
 3039      505F5F20 
 3039      282D3132 
 3040 0e09 01       		.byte	0x1
 3041 0e0a 00       		.uleb128 0
 3042 0e0b 5F5F464C 		.ascii "__FLT_MIN_10_EXP__ (-37)\0"
 3042      545F4D49 
 3042      4E5F3130 
 3042      5F455850 
 3042      5F5F2028 
 3043 0e24 01       		.byte	0x1
 3044 0e25 00       		.uleb128 0
 3045 0e26 5F5F464C 		.ascii "__FLT_MAX_EXP__ 128\0"
 3045      545F4D41 
 3045      585F4558 
 3045      505F5F20 
 3045      31323800 
 3046 0e3a 01       		.byte	0x1
 3047 0e3b 00       		.uleb128 0
GAS LISTING C:\Users\PRESID~1\AppData\Local\Temp\ccdWwDHD.s 			page 85


 3048 0e3c 5F5F464C 		.ascii "__FLT_MAX_10_EXP__ 38\0"
 3048      545F4D41 
 3048      585F3130 
 3048      5F455850 
 3048      5F5F2033 
 3049 0e52 01       		.byte	0x1
 3050 0e53 00       		.uleb128 0
 3051 0e54 5F5F464C 		.ascii "__FLT_DECIMAL_DIG__ 9\0"
 3051      545F4445 
 3051      43494D41 
 3051      4C5F4449 
 3051      475F5F20 
 3052 0e6a 01       		.byte	0x1
 3053 0e6b 00       		.uleb128 0
 3054 0e6c 5F5F464C 		.ascii "__FLT_MAX__ 3.40282346638528859812e+38F\0"
 3054      545F4D41 
 3054      585F5F20 
 3054      332E3430 
 3054      32383233 
 3055 0e94 01       		.byte	0x1
 3056 0e95 00       		.uleb128 0
 3057 0e96 5F5F464C 		.ascii "__FLT_MIN__ 1.17549435082228750797e-38F\0"
 3057      545F4D49 
 3057      4E5F5F20 
 3057      312E3137 
 3057      35343934 
 3058 0ebe 01       		.byte	0x1
 3059 0ebf 00       		.uleb128 0
 3060 0ec0 5F5F464C 		.ascii "__FLT_EPSILON__ 1.19209289550781250000e-7F\0"
 3060      545F4550 
 3060      53494C4F 
 3060      4E5F5F20 
 3060      312E3139 
 3061 0eeb 01       		.byte	0x1
 3062 0eec 00       		.uleb128 0
 3063 0eed 5F5F464C 		.ascii "__FLT_DENORM_MIN__ 1.40129846432481707092e-45F\0"
 3063      545F4445 
 3063      4E4F524D 
 3063      5F4D494E 
 3063      5F5F2031 
 3064 0f1c 01       		.byte	0x1
 3065 0f1d 00       		.uleb128 0
 3066 0f1e 5F5F464C 		.ascii "__FLT_HAS_DENORM__ 1\0"
 3066      545F4841 
 3066      535F4445 
 3066      4E4F524D 
 3066      5F5F2031 
 3067 0f33 01       		.byte	0x1
 3068 0f34 00       		.uleb128 0
 3069 0f35 5F5F464C 		.ascii "__FLT_HAS_INFINITY__ 1\0"
 3069      545F4841 
 3069      535F494E 
 3069      46494E49 
 3069      54595F5F 
 3070 0f4c 01       		.byte	0x1
 3071 0f4d 00       		.uleb128 0
 3072 0f4e 5F5F464C 		.ascii "__FLT_HAS_QUIET_NAN__ 1\0"
GAS LISTING C:\Users\PRESID~1\AppData\Local\Temp\ccdWwDHD.s 			page 86


 3072      545F4841 
 3072      535F5155 
 3072      4945545F 
 3072      4E414E5F 
 3073 0f66 01       		.byte	0x1
 3074 0f67 00       		.uleb128 0
 3075 0f68 5F5F4442 		.ascii "__DBL_MANT_DIG__ 53\0"
 3075      4C5F4D41 
 3075      4E545F44 
 3075      49475F5F 
 3075      20353300 
 3076 0f7c 01       		.byte	0x1
 3077 0f7d 00       		.uleb128 0
 3078 0f7e 5F5F4442 		.ascii "__DBL_DIG__ 15\0"
 3078      4C5F4449 
 3078      475F5F20 
 3078      313500
 3079 0f8d 01       		.byte	0x1
 3080 0f8e 00       		.uleb128 0
 3081 0f8f 5F5F4442 		.ascii "__DBL_MIN_EXP__ (-1021)\0"
 3081      4C5F4D49 
 3081      4E5F4558 
 3081      505F5F20 
 3081      282D3130 
 3082 0fa7 01       		.byte	0x1
 3083 0fa8 00       		.uleb128 0
 3084 0fa9 5F5F4442 		.ascii "__DBL_MIN_10_EXP__ (-307)\0"
 3084      4C5F4D49 
 3084      4E5F3130 
 3084      5F455850 
 3084      5F5F2028 
 3085 0fc3 01       		.byte	0x1
 3086 0fc4 00       		.uleb128 0
 3087 0fc5 5F5F4442 		.ascii "__DBL_MAX_EXP__ 1024\0"
 3087      4C5F4D41 
 3087      585F4558 
 3087      505F5F20 
 3087      31303234 
 3088 0fda 01       		.byte	0x1
 3089 0fdb 00       		.uleb128 0
 3090 0fdc 5F5F4442 		.ascii "__DBL_MAX_10_EXP__ 308\0"
 3090      4C5F4D41 
 3090      585F3130 
 3090      5F455850 
 3090      5F5F2033 
 3091 0ff3 01       		.byte	0x1
 3092 0ff4 00       		.uleb128 0
 3093 0ff5 5F5F4442 		.ascii "__DBL_DECIMAL_DIG__ 17\0"
 3093      4C5F4445 
 3093      43494D41 
 3093      4C5F4449 
 3093      475F5F20 
 3094 100c 01       		.byte	0x1
 3095 100d 00       		.uleb128 0
 3096 100e 5F5F4442 		.ascii "__DBL_MAX__ ((double)1.79769313486231570815e+308L)\0"
 3096      4C5F4D41 
 3096      585F5F20 
GAS LISTING C:\Users\PRESID~1\AppData\Local\Temp\ccdWwDHD.s 			page 87


 3096      2828646F 
 3096      75626C65 
 3097 1041 01       		.byte	0x1
 3098 1042 00       		.uleb128 0
 3099 1043 5F5F4442 		.ascii "__DBL_MIN__ ((double)2.22507385850720138309e-308L)\0"
 3099      4C5F4D49 
 3099      4E5F5F20 
 3099      2828646F 
 3099      75626C65 
 3100 1076 01       		.byte	0x1
 3101 1077 00       		.uleb128 0
 3102 1078 5F5F4442 		.ascii "__DBL_EPSILON__ ((double)2.22044604925031308085e-16L)\0"
 3102      4C5F4550 
 3102      53494C4F 
 3102      4E5F5F20 
 3102      2828646F 
 3103 10ae 01       		.byte	0x1
 3104 10af 00       		.uleb128 0
 3105 10b0 5F5F4442 		.ascii "__DBL_DENORM_MIN__ ((double)4.94065645841246544177e-324L)\0"
 3105      4C5F4445 
 3105      4E4F524D 
 3105      5F4D494E 
 3105      5F5F2028 
 3106 10ea 01       		.byte	0x1
 3107 10eb 00       		.uleb128 0
 3108 10ec 5F5F4442 		.ascii "__DBL_HAS_DENORM__ 1\0"
 3108      4C5F4841 
 3108      535F4445 
 3108      4E4F524D 
 3108      5F5F2031 
 3109 1101 01       		.byte	0x1
 3110 1102 00       		.uleb128 0
 3111 1103 5F5F4442 		.ascii "__DBL_HAS_INFINITY__ 1\0"
 3111      4C5F4841 
 3111      535F494E 
 3111      46494E49 
 3111      54595F5F 
 3112 111a 01       		.byte	0x1
 3113 111b 00       		.uleb128 0
 3114 111c 5F5F4442 		.ascii "__DBL_HAS_QUIET_NAN__ 1\0"
 3114      4C5F4841 
 3114      535F5155 
 3114      4945545F 
 3114      4E414E5F 
 3115 1134 01       		.byte	0x1
 3116 1135 00       		.uleb128 0
 3117 1136 5F5F4C44 		.ascii "__LDBL_MANT_DIG__ 64\0"
 3117      424C5F4D 
 3117      414E545F 
 3117      4449475F 
 3117      5F203634 
 3118 114b 01       		.byte	0x1
 3119 114c 00       		.uleb128 0
 3120 114d 5F5F4C44 		.ascii "__LDBL_DIG__ 18\0"
 3120      424C5F44 
 3120      49475F5F 
 3120      20313800 
GAS LISTING C:\Users\PRESID~1\AppData\Local\Temp\ccdWwDHD.s 			page 88


 3121 115d 01       		.byte	0x1
 3122 115e 00       		.uleb128 0
 3123 115f 5F5F4C44 		.ascii "__LDBL_MIN_EXP__ (-16381)\0"
 3123      424C5F4D 
 3123      494E5F45 
 3123      58505F5F 
 3123      20282D31 
 3124 1179 01       		.byte	0x1
 3125 117a 00       		.uleb128 0
 3126 117b 5F5F4C44 		.ascii "__LDBL_MIN_10_EXP__ (-4931)\0"
 3126      424C5F4D 
 3126      494E5F31 
 3126      305F4558 
 3126      505F5F20 
 3127 1197 01       		.byte	0x1
 3128 1198 00       		.uleb128 0
 3129 1199 5F5F4C44 		.ascii "__LDBL_MAX_EXP__ 16384\0"
 3129      424C5F4D 
 3129      41585F45 
 3129      58505F5F 
 3129      20313633 
 3130 11b0 01       		.byte	0x1
 3131 11b1 00       		.uleb128 0
 3132 11b2 5F5F4C44 		.ascii "__LDBL_MAX_10_EXP__ 4932\0"
 3132      424C5F4D 
 3132      41585F31 
 3132      305F4558 
 3132      505F5F20 
 3133 11cb 01       		.byte	0x1
 3134 11cc 00       		.uleb128 0
 3135 11cd 5F5F4445 		.ascii "__DECIMAL_DIG__ 21\0"
 3135      43494D41 
 3135      4C5F4449 
 3135      475F5F20 
 3135      323100
 3136 11e0 01       		.byte	0x1
 3137 11e1 00       		.uleb128 0
 3138 11e2 5F5F4C44 		.ascii "__LDBL_MAX__ 1.18973149535723176502e+4932L\0"
 3138      424C5F4D 
 3138      41585F5F 
 3138      20312E31 
 3138      38393733 
 3139 120d 01       		.byte	0x1
 3140 120e 00       		.uleb128 0
 3141 120f 5F5F4C44 		.ascii "__LDBL_MIN__ 3.36210314311209350626e-4932L\0"
 3141      424C5F4D 
 3141      494E5F5F 
 3141      20332E33 
 3141      36323130 
 3142 123a 01       		.byte	0x1
 3143 123b 00       		.uleb128 0
 3144 123c 5F5F4C44 		.ascii "__LDBL_EPSILON__ 1.08420217248550443401e-19L\0"
 3144      424C5F45 
 3144      5053494C 
 3144      4F4E5F5F 
 3144      20312E30 
 3145 1269 01       		.byte	0x1
GAS LISTING C:\Users\PRESID~1\AppData\Local\Temp\ccdWwDHD.s 			page 89


 3146 126a 00       		.uleb128 0
 3147 126b 5F5F4C44 		.ascii "__LDBL_DENORM_MIN__ 3.64519953188247460253e-4951L\0"
 3147      424C5F44 
 3147      454E4F52 
 3147      4D5F4D49 
 3147      4E5F5F20 
 3148 129d 01       		.byte	0x1
 3149 129e 00       		.uleb128 0
 3150 129f 5F5F4C44 		.ascii "__LDBL_HAS_DENORM__ 1\0"
 3150      424C5F48 
 3150      41535F44 
 3150      454E4F52 
 3150      4D5F5F20 
 3151 12b5 01       		.byte	0x1
 3152 12b6 00       		.uleb128 0
 3153 12b7 5F5F4C44 		.ascii "__LDBL_HAS_INFINITY__ 1\0"
 3153      424C5F48 
 3153      41535F49 
 3153      4E46494E 
 3153      4954595F 
 3154 12cf 01       		.byte	0x1
 3155 12d0 00       		.uleb128 0
 3156 12d1 5F5F4C44 		.ascii "__LDBL_HAS_QUIET_NAN__ 1\0"
 3156      424C5F48 
 3156      41535F51 
 3156      55494554 
 3156      5F4E414E 
 3157 12ea 01       		.byte	0x1
 3158 12eb 00       		.uleb128 0
 3159 12ec 5F5F4445 		.ascii "__DEC32_MANT_DIG__ 7\0"
 3159      4333325F 
 3159      4D414E54 
 3159      5F444947 
 3159      5F5F2037 
 3160 1301 01       		.byte	0x1
 3161 1302 00       		.uleb128 0
 3162 1303 5F5F4445 		.ascii "__DEC32_MIN_EXP__ (-94)\0"
 3162      4333325F 
 3162      4D494E5F 
 3162      4558505F 
 3162      5F20282D 
 3163 131b 01       		.byte	0x1
 3164 131c 00       		.uleb128 0
 3165 131d 5F5F4445 		.ascii "__DEC32_MAX_EXP__ 97\0"
 3165      4333325F 
 3165      4D41585F 
 3165      4558505F 
 3165      5F203937 
 3166 1332 01       		.byte	0x1
 3167 1333 00       		.uleb128 0
 3168 1334 5F5F4445 		.ascii "__DEC32_MIN__ 1E-95DF\0"
 3168      4333325F 
 3168      4D494E5F 
 3168      5F203145 
 3168      2D393544 
 3169 134a 01       		.byte	0x1
 3170 134b 00       		.uleb128 0
GAS LISTING C:\Users\PRESID~1\AppData\Local\Temp\ccdWwDHD.s 			page 90


 3171 134c 5F5F4445 		.ascii "__DEC32_MAX__ 9.999999E96DF\0"
 3171      4333325F 
 3171      4D41585F 
 3171      5F20392E 
 3171      39393939 
 3172 1368 01       		.byte	0x1
 3173 1369 00       		.uleb128 0
 3174 136a 5F5F4445 		.ascii "__DEC32_EPSILON__ 1E-6DF\0"
 3174      4333325F 
 3174      45505349 
 3174      4C4F4E5F 
 3174      5F203145 
 3175 1383 01       		.byte	0x1
 3176 1384 00       		.uleb128 0
 3177 1385 5F5F4445 		.ascii "__DEC32_SUBNORMAL_MIN__ 0.000001E-95DF\0"
 3177      4333325F 
 3177      5355424E 
 3177      4F524D41 
 3177      4C5F4D49 
 3178 13ac 01       		.byte	0x1
 3179 13ad 00       		.uleb128 0
 3180 13ae 5F5F4445 		.ascii "__DEC64_MANT_DIG__ 16\0"
 3180      4336345F 
 3180      4D414E54 
 3180      5F444947 
 3180      5F5F2031 
 3181 13c4 01       		.byte	0x1
 3182 13c5 00       		.uleb128 0
 3183 13c6 5F5F4445 		.ascii "__DEC64_MIN_EXP__ (-382)\0"
 3183      4336345F 
 3183      4D494E5F 
 3183      4558505F 
 3183      5F20282D 
 3184 13df 01       		.byte	0x1
 3185 13e0 00       		.uleb128 0
 3186 13e1 5F5F4445 		.ascii "__DEC64_MAX_EXP__ 385\0"
 3186      4336345F 
 3186      4D41585F 
 3186      4558505F 
 3186      5F203338 
 3187 13f7 01       		.byte	0x1
 3188 13f8 00       		.uleb128 0
 3189 13f9 5F5F4445 		.ascii "__DEC64_MIN__ 1E-383DD\0"
 3189      4336345F 
 3189      4D494E5F 
 3189      5F203145 
 3189      2D333833 
 3190 1410 01       		.byte	0x1
 3191 1411 00       		.uleb128 0
 3192 1412 5F5F4445 		.ascii "__DEC64_MAX__ 9.999999999999999E384DD\0"
 3192      4336345F 
 3192      4D41585F 
 3192      5F20392E 
 3192      39393939 
 3193 1438 01       		.byte	0x1
 3194 1439 00       		.uleb128 0
 3195 143a 5F5F4445 		.ascii "__DEC64_EPSILON__ 1E-15DD\0"
GAS LISTING C:\Users\PRESID~1\AppData\Local\Temp\ccdWwDHD.s 			page 91


 3195      4336345F 
 3195      45505349 
 3195      4C4F4E5F 
 3195      5F203145 
 3196 1454 01       		.byte	0x1
 3197 1455 00       		.uleb128 0
 3198 1456 5F5F4445 		.ascii "__DEC64_SUBNORMAL_MIN__ 0.000000000000001E-383DD\0"
 3198      4336345F 
 3198      5355424E 
 3198      4F524D41 
 3198      4C5F4D49 
 3199 1487 01       		.byte	0x1
 3200 1488 00       		.uleb128 0
 3201 1489 5F5F4445 		.ascii "__DEC128_MANT_DIG__ 34\0"
 3201      43313238 
 3201      5F4D414E 
 3201      545F4449 
 3201      475F5F20 
 3202 14a0 01       		.byte	0x1
 3203 14a1 00       		.uleb128 0
 3204 14a2 5F5F4445 		.ascii "__DEC128_MIN_EXP__ (-6142)\0"
 3204      43313238 
 3204      5F4D494E 
 3204      5F455850 
 3204      5F5F2028 
 3205 14bd 01       		.byte	0x1
 3206 14be 00       		.uleb128 0
 3207 14bf 5F5F4445 		.ascii "__DEC128_MAX_EXP__ 6145\0"
 3207      43313238 
 3207      5F4D4158 
 3207      5F455850 
 3207      5F5F2036 
 3208 14d7 01       		.byte	0x1
 3209 14d8 00       		.uleb128 0
 3210 14d9 5F5F4445 		.ascii "__DEC128_MIN__ 1E-6143DL\0"
 3210      43313238 
 3210      5F4D494E 
 3210      5F5F2031 
 3210      452D3631 
 3211 14f2 01       		.byte	0x1
 3212 14f3 00       		.uleb128 0
 3213 14f4 5F5F4445 		.ascii "__DEC128_MAX__ 9.999999999999999999999999999999999E6144DL\0"
 3213      43313238 
 3213      5F4D4158 
 3213      5F5F2039 
 3213      2E393939 
 3214 152e 01       		.byte	0x1
 3215 152f 00       		.uleb128 0
 3216 1530 5F5F4445 		.ascii "__DEC128_EPSILON__ 1E-33DL\0"
 3216      43313238 
 3216      5F455053 
 3216      494C4F4E 
 3216      5F5F2031 
 3217 154b 01       		.byte	0x1
 3218 154c 00       		.uleb128 0
 3219 154d 5F5F4445 		.ascii "__DEC128_SUBNORMAL_MIN__ 0.000000000000000000000000000000001E-6143DL\0"
 3219      43313238 
GAS LISTING C:\Users\PRESID~1\AppData\Local\Temp\ccdWwDHD.s 			page 92


 3219      5F535542 
 3219      4E4F524D 
 3219      414C5F4D 
 3220 1592 01       		.byte	0x1
 3221 1593 00       		.uleb128 0
 3222 1594 5F5F5245 		.ascii "__REGISTER_PREFIX__ \0"
 3222      47495354 
 3222      45525F50 
 3222      52454649 
 3222      585F5F20 
 3223 15a9 01       		.byte	0x1
 3224 15aa 00       		.uleb128 0
 3225 15ab 5F5F5553 		.ascii "__USER_LABEL_PREFIX__ _\0"
 3225      45525F4C 
 3225      4142454C 
 3225      5F505245 
 3225      4649585F 
 3226 15c3 01       		.byte	0x1
 3227 15c4 00       		.uleb128 0
 3228 15c5 5F5F474E 		.ascii "__GNUC_GNU_INLINE__ 1\0"
 3228      55435F47 
 3228      4E555F49 
 3228      4E4C494E 
 3228      455F5F20 
 3229 15db 01       		.byte	0x1
 3230 15dc 00       		.uleb128 0
 3231 15dd 5F5F4E4F 		.ascii "__NO_INLINE__ 1\0"
 3231      5F494E4C 
 3231      494E455F 
 3231      5F203100 
 3232 15ed 01       		.byte	0x1
 3233 15ee 00       		.uleb128 0
 3234 15ef 5F5F5354 		.ascii "__STRICT_ANSI__ 1\0"
 3234      52494354 
 3234      5F414E53 
 3234      495F5F20 
 3234      3100
 3235 1601 01       		.byte	0x1
 3236 1602 00       		.uleb128 0
 3237 1603 5F5F4743 		.ascii "__GCC_ATOMIC_BOOL_LOCK_FREE 1\0"
 3237      435F4154 
 3237      4F4D4943 
 3237      5F424F4F 
 3237      4C5F4C4F 
 3238 1621 01       		.byte	0x1
 3239 1622 00       		.uleb128 0
 3240 1623 5F5F4743 		.ascii "__GCC_ATOMIC_CHAR_LOCK_FREE 1\0"
 3240      435F4154 
 3240      4F4D4943 
 3240      5F434841 
 3240      525F4C4F 
 3241 1641 01       		.byte	0x1
 3242 1642 00       		.uleb128 0
 3243 1643 5F5F4743 		.ascii "__GCC_ATOMIC_CHAR16_T_LOCK_FREE 1\0"
 3243      435F4154 
 3243      4F4D4943 
 3243      5F434841 
GAS LISTING C:\Users\PRESID~1\AppData\Local\Temp\ccdWwDHD.s 			page 93


 3243      5231365F 
 3244 1665 01       		.byte	0x1
 3245 1666 00       		.uleb128 0
 3246 1667 5F5F4743 		.ascii "__GCC_ATOMIC_CHAR32_T_LOCK_FREE 1\0"
 3246      435F4154 
 3246      4F4D4943 
 3246      5F434841 
 3246      5233325F 
 3247 1689 01       		.byte	0x1
 3248 168a 00       		.uleb128 0
 3249 168b 5F5F4743 		.ascii "__GCC_ATOMIC_WCHAR_T_LOCK_FREE 1\0"
 3249      435F4154 
 3249      4F4D4943 
 3249      5F574348 
 3249      41525F54 
 3250 16ac 01       		.byte	0x1
 3251 16ad 00       		.uleb128 0
 3252 16ae 5F5F4743 		.ascii "__GCC_ATOMIC_SHORT_LOCK_FREE 1\0"
 3252      435F4154 
 3252      4F4D4943 
 3252      5F53484F 
 3252      52545F4C 
 3253 16cd 01       		.byte	0x1
 3254 16ce 00       		.uleb128 0
 3255 16cf 5F5F4743 		.ascii "__GCC_ATOMIC_INT_LOCK_FREE 1\0"
 3255      435F4154 
 3255      4F4D4943 
 3255      5F494E54 
 3255      5F4C4F43 
 3256 16ec 01       		.byte	0x1
 3257 16ed 00       		.uleb128 0
 3258 16ee 5F5F4743 		.ascii "__GCC_ATOMIC_LONG_LOCK_FREE 1\0"
 3258      435F4154 
 3258      4F4D4943 
 3258      5F4C4F4E 
 3258      475F4C4F 
 3259 170c 01       		.byte	0x1
 3260 170d 00       		.uleb128 0
 3261 170e 5F5F4743 		.ascii "__GCC_ATOMIC_LLONG_LOCK_FREE 1\0"
 3261      435F4154 
 3261      4F4D4943 
 3261      5F4C4C4F 
 3261      4E475F4C 
 3262 172d 01       		.byte	0x1
 3263 172e 00       		.uleb128 0
 3264 172f 5F5F4743 		.ascii "__GCC_ATOMIC_TEST_AND_SET_TRUEVAL 1\0"
 3264      435F4154 
 3264      4F4D4943 
 3264      5F544553 
 3264      545F414E 
 3265 1753 01       		.byte	0x1
 3266 1754 00       		.uleb128 0
 3267 1755 5F5F4743 		.ascii "__GCC_ATOMIC_POINTER_LOCK_FREE 1\0"
 3267      435F4154 
 3267      4F4D4943 
 3267      5F504F49 
 3267      4E544552 
GAS LISTING C:\Users\PRESID~1\AppData\Local\Temp\ccdWwDHD.s 			page 94


 3268 1776 01       		.byte	0x1
 3269 1777 00       		.uleb128 0
 3270 1778 5F5F4743 		.ascii "__GCC_HAVE_DWARF2_CFI_ASM 1\0"
 3270      435F4841 
 3270      56455F44 
 3270      57415246 
 3270      325F4346 
 3271 1794 01       		.byte	0x1
 3272 1795 00       		.uleb128 0
 3273 1796 5F5F5052 		.ascii "__PRAGMA_REDEFINE_EXTNAME 1\0"
 3273      41474D41 
 3273      5F524544 
 3273      4546494E 
 3273      455F4558 
 3274 17b2 01       		.byte	0x1
 3275 17b3 00       		.uleb128 0
 3276 17b4 5F5F5349 		.ascii "__SIZEOF_WCHAR_T__ 2\0"
 3276      5A454F46 
 3276      5F574348 
 3276      41525F54 
 3276      5F5F2032 
 3277 17c9 01       		.byte	0x1
 3278 17ca 00       		.uleb128 0
 3279 17cb 5F5F5349 		.ascii "__SIZEOF_WINT_T__ 2\0"
 3279      5A454F46 
 3279      5F57494E 
 3279      545F545F 
 3279      5F203200 
 3280 17df 01       		.byte	0x1
 3281 17e0 00       		.uleb128 0
 3282 17e1 5F5F5349 		.ascii "__SIZEOF_PTRDIFF_T__ 4\0"
 3282      5A454F46 
 3282      5F505452 
 3282      44494646 
 3282      5F545F5F 
 3283 17f8 01       		.byte	0x1
 3284 17f9 00       		.uleb128 0
 3285 17fa 5F5F6933 		.ascii "__i386 1\0"
 3285      38362031 
 3285      00
 3286 1803 01       		.byte	0x1
 3287 1804 00       		.uleb128 0
 3288 1805 5F5F6933 		.ascii "__i386__ 1\0"
 3288      38365F5F 
 3288      203100
 3289 1810 01       		.byte	0x1
 3290 1811 00       		.uleb128 0
 3291 1812 5F5F4154 		.ascii "__ATOMIC_HLE_ACQUIRE 65536\0"
 3291      4F4D4943 
 3291      5F484C45 
 3291      5F414351 
 3291      55495245 
 3292 182d 01       		.byte	0x1
 3293 182e 00       		.uleb128 0
 3294 182f 5F5F4154 		.ascii "__ATOMIC_HLE_RELEASE 131072\0"
 3294      4F4D4943 
 3294      5F484C45 
GAS LISTING C:\Users\PRESID~1\AppData\Local\Temp\ccdWwDHD.s 			page 95


 3294      5F52454C 
 3294      45415345 
 3295 184b 01       		.byte	0x1
 3296 184c 00       		.uleb128 0
 3297 184d 5F5F7475 		.ascii "__tune_i386__ 1\0"
 3297      6E655F69 
 3297      3338365F 
 3297      5F203100 
 3298 185d 01       		.byte	0x1
 3299 185e 00       		.uleb128 0
 3300 185f 5F5F636F 		.ascii "__code_model_32__ 1\0"
 3300      64655F6D 
 3300      6F64656C 
 3300      5F33325F 
 3300      5F203100 
 3301 1873 01       		.byte	0x1
 3302 1874 00       		.uleb128 0
 3303 1875 5F583836 		.ascii "_X86_ 1\0"
 3303      5F203100 
 3304 187d 01       		.byte	0x1
 3305 187e 00       		.uleb128 0
 3306 187f 5F5F7374 		.ascii "__stdcall __attribute__((__stdcall__))\0"
 3306      6463616C 
 3306      6C205F5F 
 3306      61747472 
 3306      69627574 
 3307 18a6 01       		.byte	0x1
 3308 18a7 00       		.uleb128 0
 3309 18a8 5F5F6661 		.ascii "__fastcall __attribute__((__fastcall__))\0"
 3309      73746361 
 3309      6C6C205F 
 3309      5F617474 
 3309      72696275 
 3310 18d1 01       		.byte	0x1
 3311 18d2 00       		.uleb128 0
 3312 18d3 5F5F7468 		.ascii "__thiscall __attribute__((__thiscall__))\0"
 3312      69736361 
 3312      6C6C205F 
 3312      5F617474 
 3312      72696275 
 3313 18fc 01       		.byte	0x1
 3314 18fd 00       		.uleb128 0
 3315 18fe 5F5F6364 		.ascii "__cdecl __attribute__((__cdecl__))\0"
 3315      65636C20 
 3315      5F5F6174 
 3315      74726962 
 3315      7574655F 
 3316 1921 01       		.byte	0x1
 3317 1922 00       		.uleb128 0
 3318 1923 5F5F4758 		.ascii "__GXX_MERGED_TYPEINFO_NAMES 0\0"
 3318      585F4D45 
 3318      52474544 
 3318      5F545950 
 3318      45494E46 
 3319 1941 01       		.byte	0x1
 3320 1942 00       		.uleb128 0
 3321 1943 5F5F4758 		.ascii "__GXX_TYPEINFO_EQUALITY_INLINE 0\0"
GAS LISTING C:\Users\PRESID~1\AppData\Local\Temp\ccdWwDHD.s 			page 96


 3321      585F5459 
 3321      5045494E 
 3321      464F5F45 
 3321      5155414C 
 3322 1964 01       		.byte	0x1
 3323 1965 00       		.uleb128 0
 3324 1966 5F5F4D53 		.ascii "__MSVCRT__ 1\0"
 3324      56435254 
 3324      5F5F2031 
 3324      00
 3325 1973 01       		.byte	0x1
 3326 1974 00       		.uleb128 0
 3327 1975 5F5F4D49 		.ascii "__MINGW32__ 1\0"
 3327      4E475733 
 3327      325F5F20 
 3327      3100
 3328 1983 01       		.byte	0x1
 3329 1984 00       		.uleb128 0
 3330 1985 5F57494E 		.ascii "_WIN32 1\0"
 3330      33322031 
 3330      00
 3331 198e 01       		.byte	0x1
 3332 198f 00       		.uleb128 0
 3333 1990 5F5F5749 		.ascii "__WIN32 1\0"
 3333      4E333220 
 3333      3100
 3334 199a 01       		.byte	0x1
 3335 199b 00       		.uleb128 0
 3336 199c 5F5F5749 		.ascii "__WIN32__ 1\0"
 3336      4E33325F 
 3336      5F203100 
 3337 19a8 01       		.byte	0x1
 3338 19a9 00       		.uleb128 0
 3339 19aa 5F5F5749 		.ascii "__WINNT 1\0"
 3339      4E4E5420 
 3339      3100
 3340 19b4 01       		.byte	0x1
 3341 19b5 00       		.uleb128 0
 3342 19b6 5F5F5749 		.ascii "__WINNT__ 1\0"
 3342      4E4E545F 
 3342      5F203100 
 3343 19c2 01       		.byte	0x1
 3344 19c3 00       		.uleb128 0
 3345 19c4 5F494E54 		.ascii "_INTEGRAL_MAX_BITS 64\0"
 3345      45475241 
 3345      4C5F4D41 
 3345      585F4249 
 3345      54532036 
 3346 19da 01       		.byte	0x1
 3347 19db 00       		.uleb128 0
 3348 19dc 5F5F6465 		.ascii "__declspec(x) __attribute__((x))\0"
 3348      636C7370 
 3348      65632878 
 3348      29205F5F 
 3348      61747472 
 3349 19fd 01       		.byte	0x1
 3350 19fe 00       		.uleb128 0
GAS LISTING C:\Users\PRESID~1\AppData\Local\Temp\ccdWwDHD.s 			page 97


 3351 19ff 5F5F4445 		.ascii "__DECIMAL_BID_FORMAT__ 1\0"
 3351      43494D41 
 3351      4C5F4249 
 3351      445F464F 
 3351      524D4154 
 3352 1a18 01       		.byte	0x1
 3353 1a19 00       		.uleb128 0
 3354 1a1a 4346475F 		.ascii "CFG_PROCESSOR 3\0"
 3354      50524F43 
 3354      4553534F 
 3354      52203300 
 3355 1a2a 03       		.byte	0x3
 3356 1a2b 00       		.uleb128 0
 3357 1a2c 01       		.uleb128 0x1
 3358              		.file 8 "E:/NeuOrga/Programmieren/c_cpp/github_os/input/src/os_base/os_firstinc.h"
 3359 1a2d 03       		.byte	0x3
 3360 1a2e 01       		.uleb128 0x1
 3361 1a2f 08       		.uleb128 0x8
 3362 1a30 01       		.byte	0x1
 3363 1a31 02       		.uleb128 0x2
 3364 1a32 5F6F735F 		.ascii "_os_firstinc_h_ \0"
 3364      66697273 
 3364      74696E63 
 3364      5F685F20 
 3364      00
 3365 1a43 03       		.byte	0x3
 3366 1a44 04       		.uleb128 0x4
 3367 1a45 02       		.uleb128 0x2
 3368 1a46 01       		.byte	0x1
 3369 1a47 02       		.uleb128 0x2
 3370 1a48 5F424153 		.ascii "_BASE_TYPES_H_ \0"
 3370      455F5459 
 3370      5045535F 
 3370      485F2000 
 3371 1a58 01       		.byte	0x1
 3372 1a59 04       		.uleb128 0x4
 3373 1a5a 494E5445 		.ascii "INTEGER_LLP64_IL32P64 1\0"
 3373      4745525F 
 3373      4C4C5036 
 3373      345F494C 
 3373      33325036 
 3374 1a72 01       		.byte	0x1
 3375 1a73 05       		.uleb128 0x5
 3376 1a74 494E5445 		.ascii "INTEGER_LP64_I32LP64 2\0"
 3376      4745525F 
 3376      4C503634 
 3376      5F493332 
 3376      4C503634 
 3377 1a8b 01       		.byte	0x1
 3378 1a8c 06       		.uleb128 0x6
 3379 1a8d 494E5445 		.ascii "INTEGER_ILP64 3\0"
 3379      4745525F 
 3379      494C5036 
 3379      34203300 
 3380 1a9d 01       		.byte	0x1
 3381 1a9e 07       		.uleb128 0x7
 3382 1a9f 494E5445 		.ascii "INTEGER_SILP64 4\0"
GAS LISTING C:\Users\PRESID~1\AppData\Local\Temp\ccdWwDHD.s 			page 98


 3382      4745525F 
 3382      53494C50 
 3382      36342034 
 3382      00
 3383 1ab0 01       		.byte	0x1
 3384 1ab1 09       		.uleb128 0x9
 3385 1ab2 4350505F 		.ascii "CPP_VERSION_NONE 0\0"
 3385      56455253 
 3385      494F4E5F 
 3385      4E4F4E45 
 3385      203000
 3386 1ac5 01       		.byte	0x1
 3387 1ac6 0A       		.uleb128 0xa
 3388 1ac7 4350505F 		.ascii "CPP_VERSION_1998 1\0"
 3388      56455253 
 3388      494F4E5F 
 3388      31393938 
 3388      203100
 3389 1ada 01       		.byte	0x1
 3390 1adb 0B       		.uleb128 0xb
 3391 1adc 4350505F 		.ascii "CPP_VERSION_2003 2\0"
 3391      56455253 
 3391      494F4E5F 
 3391      32303033 
 3391      203200
 3392 1aef 01       		.byte	0x1
 3393 1af0 0C       		.uleb128 0xc
 3394 1af1 4350505F 		.ascii "CPP_VERSION_2007 3\0"
 3394      56455253 
 3394      494F4E5F 
 3394      32303037 
 3394      203300
 3395 1b04 01       		.byte	0x1
 3396 1b05 0D       		.uleb128 0xd
 3397 1b06 4350505F 		.ascii "CPP_VERSION_2011 4\0"
 3397      56455253 
 3397      494F4E5F 
 3397      32303131 
 3397      203400
 3398 1b19 01       		.byte	0x1
 3399 1b1a 0E       		.uleb128 0xe
 3400 1b1b 49534F5F 		.ascii "ISO_CPP_VERSION CPP_VERSION_1998\0"
 3400      4350505F 
 3400      56455253 
 3400      494F4E20 
 3400      4350505F 
 3401 1b3c 01       		.byte	0x1
 3402 1b3d 10       		.uleb128 0x10
 3403 1b3e 494E5445 		.ascii "INTEGER_MODEL INTEGER_LLP64_IL32P64\0"
 3403      4745525F 
 3403      4D4F4445 
 3403      4C20494E 
 3403      54454745 
 3404 1b62 04       		.byte	0x4
 3405 1b63 03       		.byte	0x3
 3406 1b64 05       		.uleb128 0x5
 3407 1b65 03       		.uleb128 0x3
GAS LISTING C:\Users\PRESID~1\AppData\Local\Temp\ccdWwDHD.s 			page 99


 3408 1b66 01       		.byte	0x1
 3409 1b67 02       		.uleb128 0x2
 3410 1b68 5F6F735F 		.ascii "_os_common_h_ \0"
 3410      636F6D6D 
 3410      6F6E5F68 
 3410      5F2000
 3411 1b77 01       		.byte	0x1
 3412 1b78 06       		.uleb128 0x6
 3413 1b79 46616C73 		.ascii "False 0\0"
 3413      65203000 
 3414 1b81 01       		.byte	0x1
 3415 1b82 07       		.uleb128 0x7
 3416 1b83 54727565 		.ascii "True 1\0"
 3416      203100
 3417 1b8a 01       		.byte	0x1
 3418 1b8b 08       		.uleb128 0x8
 3419 1b8c 46414C53 		.ascii "FALSE False\0"
 3419      45204661 
 3419      6C736500 
 3420 1b98 01       		.byte	0x1
 3421 1b99 09       		.uleb128 0x9
 3422 1b9a 54525545 		.ascii "TRUE True\0"
 3422      20547275 
 3422      6500
 3423 1ba4 01       		.byte	0x1
 3424 1ba5 0A       		.uleb128 0xa
 3425 1ba6 41636365 		.ascii "Accepted 1\0"
 3425      70746564 
 3425      203100
 3426 1bb1 01       		.byte	0x1
 3427 1bb2 0B       		.uleb128 0xb
 3428 1bb3 52656A65 		.ascii "Rejected 0\0"
 3428      63746564 
 3428      203000
 3429 1bbe 01       		.byte	0x1
 3430 1bbf 0C       		.uleb128 0xc
 3431 1bc0 4C6F6361 		.ascii "Local static\0"
 3431      6C207374 
 3431      61746963 
 3431      00
 3432 1bcd 01       		.byte	0x1
 3433 1bce 0D       		.uleb128 0xd
 3434 1bcf 4C6F6361 		.ascii "Local_inline static __inline__\0"
 3434      6C5F696E 
 3434      6C696E65 
 3434      20737461 
 3434      74696320 
 3435 1bee 01       		.byte	0x1
 3436 1bef 0E       		.uleb128 0xe
 3437 1bf0 476C6F62 		.ascii "Global_inline __inline__\0"
 3437      616C5F69 
 3437      6E6C696E 
 3437      65205F5F 
 3437      696E6C69 
 3438 1c09 01       		.byte	0x1
 3439 1c0a 0F       		.uleb128 0xf
 3440 1c0b 52656665 		.ascii "ReferenceUnusedParameter(x) ((x) = (x))\0"
GAS LISTING C:\Users\PRESID~1\AppData\Local\Temp\ccdWwDHD.s 			page 100


 3440      72656E63 
 3440      65556E75 
 3440      73656450 
 3440      6172616D 
 3441 1c33 01       		.byte	0x1
 3442 1c34 12       		.uleb128 0x12
 3443 1c35 634D4355 		.ascii "cMCU_X86 3\0"
 3443      5F583836 
 3443      203300
 3444 1c40 01       		.byte	0x1
 3445 1c41 13       		.uleb128 0x13
 3446 1c42 634D4355 		.ascii "cMCU_CORTEX_M4 4\0"
 3446      5F434F52 
 3446      5445585F 
 3446      4D342034 
 3446      00
 3447 1c53 01       		.byte	0x1
 3448 1c54 16       		.uleb128 0x16
 3449 1c55 4E525F4F 		.ascii "NR_OF_CORES 1\0"
 3449      465F434F 
 3449      52455320 
 3449      3100
 3450 1c63 01       		.byte	0x1
 3451 1c64 18       		.uleb128 0x18
 3452 1c65 4D43555F 		.ascii "MCU_CLOCK_IN_HZ ((uint32)168000000u)\0"
 3452      434C4F43 
 3452      4B5F494E 
 3452      5F485A20 
 3452      28287569 
 3453 1c8a 01       		.byte	0x1
 3454 1c8b 1C       		.uleb128 0x1c
 3455 1c8c 44697361 		.ascii "DisableInterrupts() \0"
 3455      626C6549 
 3455      6E746572 
 3455      72757074 
 3455      73282920 
 3456 1ca1 01       		.byte	0x1
 3457 1ca2 1D       		.uleb128 0x1d
 3458 1ca3 456E6162 		.ascii "EnableInterrupts() \0"
 3458      6C65496E 
 3458      74657272 
 3458      75707473 
 3458      28292000 
 3459 1cb7 01       		.byte	0x1
 3460 1cb8 1E       		.uleb128 0x1e
 3461 1cb9 50726976 		.ascii "Privilige_level_save_current() \0"
 3461      696C6967 
 3461      655F6C65 
 3461      76656C5F 
 3461      73617665 
 3462 1cd9 01       		.byte	0x1
 3463 1cda 1F       		.uleb128 0x1f
 3464 1cdb 50726976 		.ascii "Privilige_level_enter_kernel_mode() \0"
 3464      696C6967 
 3464      655F6C65 
 3464      76656C5F 
 3464      656E7465 
GAS LISTING C:\Users\PRESID~1\AppData\Local\Temp\ccdWwDHD.s 			page 101


 3465 1d00 01       		.byte	0x1
 3466 1d01 20       		.uleb128 0x20
 3467 1d02 50726976 		.ascii "Privilige_level_restore_saved() \0"
 3467      696C6967 
 3467      655F6C65 
 3467      76656C5F 
 3467      72657374 
 3468 1d23 01       		.byte	0x1
 3469 1d24 21       		.uleb128 0x21
 3470 1d25 48616C74 		.ascii "HaltMcu() \0"
 3470      4D637528 
 3470      292000
 3471 1d30 04       		.byte	0x4
 3472              		.file 9 "E:/NeuOrga/Programmieren/c_cpp/github_os/input/src/os_base/../os_sim/lld_global.h"
 3473 1d31 03       		.byte	0x3
 3474 1d32 08       		.uleb128 0x8
 3475 1d33 09       		.uleb128 0x9
 3476 1d34 01       		.byte	0x1
 3477 1d35 02       		.uleb128 0x2
 3478 1d36 5F6C6C64 		.ascii "_lld_global_h_ \0"
 3478      5F676C6F 
 3478      62616C5F 
 3478      685F2000 
 3479 1d46 03       		.byte	0x3
 3480 1d47 04       		.uleb128 0x4
 3481 1d48 04       		.uleb128 0x4
 3482 1d49 01       		.byte	0x1
 3483 1d4a 02       		.uleb128 0x2
 3484 1d4b 5F6C6C64 		.ascii "_lld_core_h_ \0"
 3484      5F636F72 
 3484      655F685F 
 3484      2000
 3485              		.file 10 "E:/NeuOrga/Programmieren/c_cpp/github_os/input/src/os_base/../os_sim/../os_base/os_first
 3486 1d59 03       		.byte	0x3
 3487 1d5a 03       		.uleb128 0x3
 3488 1d5b 0A       		.uleb128 0xa
 3489 1d5c 04       		.byte	0x4
 3490 1d5d 04       		.byte	0x4
 3491              		.file 11 "E:/NeuOrga/Programmieren/c_cpp/github_os/input/src/os_base/../os_sim/lld_interrupt.h"
 3492 1d5e 03       		.byte	0x3
 3493 1d5f 05       		.uleb128 0x5
 3494 1d60 0B       		.uleb128 0xb
 3495 1d61 01       		.byte	0x1
 3496 1d62 02       		.uleb128 0x2
 3497 1d63 5F6C6C64 		.ascii "_lld_interrupt_h_ \0"
 3497      5F696E74 
 3497      65727275 
 3497      70745F68 
 3497      5F2000
 3498 1d76 01       		.byte	0x1
 3499 1d77 05       		.uleb128 0x5
 3500 1d78 6F735F69 		.ascii "os_interrupt_swi_1 asm(\"swi 1\")\0"
 3500      6E746572 
 3500      72757074 
 3500      5F737769 
 3500      5F312061 
 3501 1d98 01       		.byte	0x1
GAS LISTING C:\Users\PRESID~1\AppData\Local\Temp\ccdWwDHD.s 			page 102


 3502 1d99 06       		.uleb128 0x6
 3503 1d9a 6F735F69 		.ascii "os_interrupt_swi_2 asm(\"swi 2\")\0"
 3503      6E746572 
 3503      72757074 
 3503      5F737769 
 3503      5F322061 
 3504 1dba 01       		.byte	0x1
 3505 1dbb 07       		.uleb128 0x7
 3506 1dbc 6F735F69 		.ascii "os_interrupt_swi_3 asm(\"swi 3\")\0"
 3506      6E746572 
 3506      72757074 
 3506      5F737769 
 3506      5F332061 
 3507 1ddc 01       		.byte	0x1
 3508 1ddd 08       		.uleb128 0x8
 3509 1dde 6F735F69 		.ascii "os_interrupt_swi_4 asm(\"swi 4\")\0"
 3509      6E746572 
 3509      72757074 
 3509      5F737769 
 3509      5F342061 
 3510 1dfe 01       		.byte	0x1
 3511 1dff 09       		.uleb128 0x9
 3512 1e00 6F735F69 		.ascii "os_interrupt_swi_5 asm(\"swi 5\")\0"
 3512      6E746572 
 3512      72757074 
 3512      5F737769 
 3512      5F352061 
 3513 1e20 04       		.byte	0x4
 3514              		.file 12 "E:/NeuOrga/Programmieren/c_cpp/github_os/input/src/os_base/../os_sim/lld_mmu.h"
 3515 1e21 03       		.byte	0x3
 3516 1e22 06       		.uleb128 0x6
 3517 1e23 0C       		.uleb128 0xc
 3518 1e24 01       		.byte	0x1
 3519 1e25 02       		.uleb128 0x2
 3520 1e26 5F6C6C64 		.ascii "_lld_mmu_h_ \0"
 3520      5F6D6D75 
 3520      5F685F20 
 3520      00
 3521 1e33 04       		.byte	0x4
 3522              		.file 13 "E:/NeuOrga/Programmieren/c_cpp/github_os/input/src/os_base/../os_sim/lld_timer.h"
 3523 1e34 03       		.byte	0x3
 3524 1e35 07       		.uleb128 0x7
 3525 1e36 0D       		.uleb128 0xd
 3526 1e37 01       		.byte	0x1
 3527 1e38 02       		.uleb128 0x2
 3528 1e39 5F6C6C64 		.ascii "_lld_timer_h_ \0"
 3528      5F74696D 
 3528      65725F68 
 3528      5F2000
 3529 1e48 04       		.byte	0x4
 3530              		.file 14 "E:/NeuOrga/Programmieren/c_cpp/github_os/input/src/os_base/../os_sim/lld_power.h"
 3531 1e49 03       		.byte	0x3
 3532 1e4a 08       		.uleb128 0x8
 3533 1e4b 0E       		.uleb128 0xe
 3534 1e4c 01       		.byte	0x1
 3535 1e4d 02       		.uleb128 0x2
 3536 1e4e 5F6C6C64 		.ascii "_lld_power_h_ \0"
GAS LISTING C:\Users\PRESID~1\AppData\Local\Temp\ccdWwDHD.s 			page 103


 3536      5F706F77 
 3536      65725F68 
 3536      5F2000
 3537 1e5d 04       		.byte	0x4
 3538              		.file 15 "E:/NeuOrga/Programmieren/c_cpp/github_os/input/src/os_base/../os_sim/lld_ram.h"
 3539 1e5e 03       		.byte	0x3
 3540 1e5f 09       		.uleb128 0x9
 3541 1e60 0F       		.uleb128 0xf
 3542 1e61 01       		.byte	0x1
 3543 1e62 02       		.uleb128 0x2
 3544 1e63 5F6C6C64 		.ascii "_lld_ram_h_ \0"
 3544      5F72616D 
 3544      5F685F20 
 3544      00
 3545 1e70 04       		.byte	0x4
 3546 1e71 03       		.byte	0x3
 3547 1e72 0A       		.uleb128 0xa
 3548 1e73 05       		.uleb128 0x5
 3549 1e74 01       		.byte	0x1
 3550 1e75 02       		.uleb128 0x2
 3551 1e76 5F6F735F 		.ascii "_os_task_common_h_ \0"
 3551      7461736B 
 3551      5F636F6D 
 3551      6D6F6E5F 
 3551      685F2000 
 3552 1e8a 03       		.byte	0x3
 3553 1e8b 03       		.uleb128 0x3
 3554 1e8c 0A       		.uleb128 0xa
 3555 1e8d 04       		.byte	0x4
 3556              		.file 16 "E:/NeuOrga/Programmieren/c_cpp/github_os/input/src/os_base/../os_sim/../os_base/os_task_
 3557 1e8e 03       		.byte	0x3
 3558 1e8f 04       		.uleb128 0x4
 3559 1e90 10       		.uleb128 0x10
 3560 1e91 01       		.byte	0x1
 3561 1e92 02       		.uleb128 0x2
 3562 1e93 5F6F735F 		.ascii "_os_task_config_h_ \0"
 3562      7461736B 
 3562      5F636F6E 
 3562      6669675F 
 3562      685F2000 
 3563 1ea7 01       		.byte	0x1
 3564 1ea8 05       		.uleb128 0x5
 3565 1ea9 53636865 		.ascii "SchedulerFrequency (1.0e3)\0"
 3565      64756C65 
 3565      72467265 
 3565      7175656E 
 3565      63792028 
 3566 1ec4 01       		.byte	0x1
 3567 1ec5 06       		.uleb128 0x6
 3568 1ec6 4D696E54 		.ascii "MinTimeSlice_s (1.0/SchedulerFrequency)\0"
 3568      696D6553 
 3568      6C696365 
 3568      5F732028 
 3568      312E302F 
 3569 1eee 01       		.byte	0x1
 3570 1eef 07       		.uleb128 0x7
 3571 1ef0 4D696E54 		.ascii "MinTimeSlice_us ((1.0/SchedulerFrequency)*1e6)\0"
GAS LISTING C:\Users\PRESID~1\AppData\Local\Temp\ccdWwDHD.s 			page 104


 3571      696D6553 
 3571      6C696365 
 3571      5F757320 
 3571      2828312E 
 3572 1f1f 01       		.byte	0x1
 3573 1f20 08       		.uleb128 0x8
 3574 1f21 5461736B 		.ascii "Task_min_time (1e0)\0"
 3574      5F6D696E 
 3574      5F74696D 
 3574      65202831 
 3574      65302900 
 3575 1f35 01       		.byte	0x1
 3576 1f36 09       		.uleb128 0x9
 3577 1f37 4E554D42 		.ascii "NUMBER_OF_TASKS 10\0"
 3577      45525F4F 
 3577      465F5441 
 3577      534B5320 
 3577      313000
 3578 1f4a 01       		.byte	0x1
 3579 1f4b 0A       		.uleb128 0xa
 3580 1f4c 4D41585F 		.ascii "MAX_RUN_QUEUE_SIZE (NUMBER_OF_TASKS)\0"
 3580      52554E5F 
 3580      51554555 
 3580      455F5349 
 3580      5A452028 
 3581 1f71 01       		.byte	0x1
 3582 1f72 0B       		.uleb128 0xb
 3583 1f73 4D41585F 		.ascii "MAX_RUN_PQUEUE_SIZE MAX_RUN_QUEUE_SIZE\0"
 3583      52554E5F 
 3583      50515545 
 3583      55455F53 
 3583      495A4520 
 3584 1f9a 01       		.byte	0x1
 3585 1f9b 0D       		.uleb128 0xd
 3586 1f9c 5441534B 		.ascii "TASK_STACK_SIZE 2000\0"
 3586      5F535441 
 3586      434B5F53 
 3586      495A4520 
 3586      32303030 
 3587 1fb1 01       		.byte	0x1
 3588 1fb2 10       		.uleb128 0x10
 3589 1fb3 4D535F50 		.ascii "MS_PER_SEC (1000)\0"
 3589      45525F53 
 3589      45432028 
 3589      31303030 
 3589      2900
 3590 1fc5 01       		.byte	0x1
 3591 1fc6 11       		.uleb128 0x11
 3592 1fc7 5553455F 		.ascii "USE_STATIC_CREATED_TASKS True\0"
 3592      53544154 
 3592      49435F43 
 3592      52454154 
 3592      45445F54 
 3593 1fe5 04       		.byte	0x4
 3594              		.file 17 "E:/NeuOrga/Programmieren/c_cpp/github_os/input/src/os_base/../os_sim/../os_base/os_init_
 3595 1fe6 03       		.byte	0x3
 3596 1fe7 05       		.uleb128 0x5
GAS LISTING C:\Users\PRESID~1\AppData\Local\Temp\ccdWwDHD.s 			page 105


 3597 1fe8 11       		.uleb128 0x11
 3598 1fe9 01       		.byte	0x1
 3599 1fea 02       		.uleb128 0x2
 3600 1feb 5F6F735F 		.ascii "_os_init_task_system_h_ \0"
 3600      696E6974 
 3600      5F746173 
 3600      6B5F7379 
 3600      7374656D 
 3601 2004 04       		.byte	0x4
 3602 2005 01       		.byte	0x1
 3603 2006 5F       		.uleb128 0x5f
 3604 2007 6F735F53 		.ascii "os_SaveTaskPtr(task_ptr,task_name) (TASK_PTR[(task_name)] = (task_ptr))\0"
 3604      61766554 
 3604      61736B50 
 3604      74722874 
 3604      61736B5F 
 3605 204f 01       		.byte	0x1
 3606 2050 60       		.uleb128 0x60
 3607 2051 6F735F47 		.ascii "os_GetTaskPtr(task_name) ((task_t*) TASK_PTR[(task_name)])\0"
 3607      65745461 
 3607      736B5074 
 3607      72287461 
 3607      736B5F6E 
 3608 208c 04       		.byte	0x4
 3609 208d 04       		.byte	0x4
 3610              		.file 18 "E:/NeuOrga/Programmieren/c_cpp/github_os/input/src/os_base/../os_user_code/led.h"
 3611 208e 03       		.byte	0x3
 3612 208f 0C       		.uleb128 0xc
 3613 2090 12       		.uleb128 0x12
 3614 2091 01       		.byte	0x1
 3615 2092 02       		.uleb128 0x2
 3616 2093 5F4C4544 		.ascii "_LED_H_ \0"
 3616      5F485F20 
 3616      00
 3617 209c 04       		.byte	0x4
 3618 209d 03       		.byte	0x3
 3619 209e 0E       		.uleb128 0xe
 3620 209f 07       		.uleb128 0x7
 3621 20a0 01       		.byte	0x1
 3622 20a1 02       		.uleb128 0x2
 3623 20a2 5F4F535F 		.ascii "_OS_RAM_H_ \0"
 3623      52414D5F 
 3623      485F2000 
 3624              		.file 19 "E:/NeuOrga/Programmieren/c_cpp/github_os/input/src/os_base/../os_base/os_firstinc.h"
 3625 20ae 03       		.byte	0x3
 3626 20af 04       		.uleb128 0x4
 3627 20b0 13       		.uleb128 0x13
 3628 20b1 04       		.byte	0x4
 3629              		.file 20 "E:/NeuOrga/Programmieren/c_cpp/github_os/input/src/os_base/../os_base/os_stack.h"
 3630 20b2 03       		.byte	0x3
 3631 20b3 05       		.uleb128 0x5
 3632 20b4 14       		.uleb128 0x14
 3633 20b5 01       		.byte	0x1
 3634 20b6 02       		.uleb128 0x2
 3635 20b7 5F6F735F 		.ascii "_os_stack_h_ \0"
 3635      73746163 
 3635      6B5F685F 
GAS LISTING C:\Users\PRESID~1\AppData\Local\Temp\ccdWwDHD.s 			page 106


 3635      2000
 3636 20c5 01       		.byte	0x1
 3637 20c6 04       		.uleb128 0x4
 3638 20c7 4F535F53 		.ascii "OS_STACK_SIZE 0x5000u\0"
 3638      5441434B 
 3638      5F53495A 
 3638      45203078 
 3638      35303030 
 3639 20dd 01       		.byte	0x1
 3640 20de 06       		.uleb128 0x6
 3641 20df 4F535F53 		.ascii "OS_STACK_SIZE_END 0x01u\0"
 3641      5441434B 
 3641      5F53495A 
 3641      455F454E 
 3641      44203078 
 3642 20f7 04       		.byte	0x4
 3643              		.file 21 "E:/NeuOrga/Programmieren/c_cpp/github_os/input/src/os_base/../os_base/os_heap.h"
 3644 20f8 03       		.byte	0x3
 3645 20f9 06       		.uleb128 0x6
 3646 20fa 15       		.uleb128 0x15
 3647 20fb 01       		.byte	0x1
 3648 20fc 02       		.uleb128 0x2
 3649 20fd 5F6F735F 		.ascii "_os_heap_h_ \0"
 3649      68656170 
 3649      5F685F20 
 3649      00
 3650 210a 01       		.byte	0x1
 3651 210b 05       		.uleb128 0x5
 3652 210c 48454150 		.ascii "HEAP_SIZE 10000\0"
 3652      5F53495A 
 3652      45203130 
 3652      30303000 
 3653 211c 01       		.byte	0x1
 3654 211d 06       		.uleb128 0x6
 3655 211e 4D494E5F 		.ascii "MIN_BLOCK_SIZE_HEAP 8\0"
 3655      424C4F43 
 3655      4B5F5349 
 3655      5A455F48 
 3655      45415020 
 3656 2134 01       		.byte	0x1
 3657 2135 09       		.uleb128 0x9
 3658 2136 48454150 		.ascii "HEAP_OFFSET_FOR_SIZE 0\0"
 3658      5F4F4646 
 3658      5345545F 
 3658      464F525F 
 3658      53495A45 
 3659 214d 01       		.byte	0x1
 3660 214e 0A       		.uleb128 0xa
 3661 214f 48454150 		.ascii "HEAP_OFFSET_FOR_USED_SIZE 4\0"
 3661      5F4F4646 
 3661      5345545F 
 3661      464F525F 
 3661      55534544 
 3662 216b 01       		.byte	0x1
 3663 216c 0B       		.uleb128 0xb
 3664 216d 48454150 		.ascii "HEAP_OFFSET_FOR_CHUNK 8\0"
 3664      5F4F4646 
GAS LISTING C:\Users\PRESID~1\AppData\Local\Temp\ccdWwDHD.s 			page 107


 3664      5345545F 
 3664      464F525F 
 3664      4348554E 
 3665 2185 04       		.byte	0x4
 3666              		.file 22 "E:/NeuOrga/Programmieren/c_cpp/github_os/input/src/os_base/../os_base/os_main.h"
 3667 2186 03       		.byte	0x3
 3668 2187 07       		.uleb128 0x7
 3669 2188 16       		.uleb128 0x16
 3670 2189 01       		.byte	0x1
 3671 218a 02       		.uleb128 0x2
 3672 218b 5F6F735F 		.ascii "_os_main_h_ \0"
 3672      6D61696E 
 3672      5F685F20 
 3672      00
 3673 2198 01       		.byte	0x1
 3674 2199 03       		.uleb128 0x3
 3675 219a 6F735F69 		.ascii "os_init 0\0"
 3675      6E697420 
 3675      3000
 3676 21a4 01       		.byte	0x1
 3677 21a5 04       		.uleb128 0x4
 3678 21a6 6F735F72 		.ascii "os_running 1\0"
 3678      756E6E69 
 3678      6E672031 
 3678      00
 3679 21b3 01       		.byte	0x1
 3680 21b4 05       		.uleb128 0x5
 3681 21b5 6F735F73 		.ascii "os_shutdown 2\0"
 3681      68757464 
 3681      6F776E20 
 3681      3200
 3682 21c3 04       		.byte	0x4
 3683              		.file 23 "E:/NeuOrga/Programmieren/c_cpp/github_os/input/src/os_base/../os_base/os_task_config.h"
 3684 21c4 03       		.byte	0x3
 3685 21c5 08       		.uleb128 0x8
 3686 21c6 17       		.uleb128 0x17
 3687 21c7 04       		.byte	0x4
 3688              		.file 24 "E:/NeuOrga/Programmieren/c_cpp/github_os/input/src/os_base/../os_base/os_task_common.h"
 3689 21c8 03       		.byte	0x3
 3690 21c9 09       		.uleb128 0x9
 3691 21ca 18       		.uleb128 0x18
 3692 21cb 04       		.byte	0x4
 3693 21cc 04       		.byte	0x4
 3694 21cd 04       		.byte	0x4
 3695              		.file 25 "E:/NeuOrga/Programmieren/c_cpp/github_os/input/src/os_base/os_common.h"
 3696 21ce 03       		.byte	0x3
 3697 21cf 02       		.uleb128 0x2
 3698 21d0 19       		.uleb128 0x19
 3699 21d1 04       		.byte	0x4
 3700              		.file 26 "E:/NeuOrga/Programmieren/c_cpp/github_os/input/src/os_base/os_task_common.h"
 3701 21d2 03       		.byte	0x3
 3702 21d3 03       		.uleb128 0x3
 3703 21d4 1A       		.uleb128 0x1a
 3704 21d5 04       		.byte	0x4
 3705 21d6 03       		.byte	0x3
 3706 21d7 04       		.uleb128 0x4
 3707 21d8 06       		.uleb128 0x6
GAS LISTING C:\Users\PRESID~1\AppData\Local\Temp\ccdWwDHD.s 			page 108


 3708 21d9 01       		.byte	0x1
 3709 21da 02       		.uleb128 0x2
 3710 21db 5F6F735F 		.ascii "_os_task_scheduler_h_ \0"
 3710      7461736B 
 3710      5F736368 
 3710      6564756C 
 3710      65725F68 
 3711 21f2 01       		.byte	0x1
 3712 21f3 07       		.uleb128 0x7
 3713 21f4 5461736B 		.ascii "Task_0_ptr 0\0"
 3713      5F305F70 
 3713      74722030 
 3713      00
 3714 2201 01       		.byte	0x1
 3715 2202 08       		.uleb128 0x8
 3716 2203 5461736B 		.ascii "Task_1_ptr 1\0"
 3716      5F315F70 
 3716      74722031 
 3716      00
 3717 2210 01       		.byte	0x1
 3718 2211 09       		.uleb128 0x9
 3719 2212 5461736B 		.ascii "Task_2_ptr 2\0"
 3719      5F325F70 
 3719      74722032 
 3719      00
 3720 221f 01       		.byte	0x1
 3721 2220 0A       		.uleb128 0xa
 3722 2221 5461736B 		.ascii "Task_3_ptr 3\0"
 3722      5F335F70 
 3722      74722033 
 3722      00
 3723 222e 01       		.byte	0x1
 3724 222f 0C       		.uleb128 0xc
 3725 2230 4F535F53 		.ascii "OS_SaveTaskPtr(task_ptr,Task_n_ptr) \0"
 3725      61766554 
 3725      61736B50 
 3725      74722874 
 3725      61736B5F 
 3726 2255 04       		.byte	0x4
 3727              		.file 27 "E:/NeuOrga/Programmieren/c_cpp/github_os/input/src/os_base/os_task_queue.h"
 3728 2256 03       		.byte	0x3
 3729 2257 05       		.uleb128 0x5
 3730 2258 1B       		.uleb128 0x1b
 3731 2259 01       		.byte	0x1
 3732 225a 02       		.uleb128 0x2
 3733 225b 5F6F735F 		.ascii "_os_task_queue_h_ \0"
 3733      7461736B 
 3733      5F717565 
 3733      75655F68 
 3733      5F2000
 3734 226e 01       		.byte	0x1
 3735 226f 06       		.uleb128 0x6
 3736 2270 46697273 		.ascii "First_task (0)\0"
 3736      745F7461 
 3736      736B2028 
 3736      302900
 3737 227f 01       		.byte	0x1
GAS LISTING C:\Users\PRESID~1\AppData\Local\Temp\ccdWwDHD.s 			page 109


 3738 2280 07       		.uleb128 0x7
 3739 2281 4C617374 		.ascii "Last_task (MAX_RUN_QUEUE_SIZE-1)\0"
 3739      5F746173 
 3739      6B20284D 
 3739      41585F52 
 3739      554E5F51 
 3740 22a2 01       		.byte	0x1
 3741 22a3 09       		.uleb128 0x9
 3742 22a4 466F725F 		.ascii "For_all_tasks_in_queue(var) for((var) = First_task; (var) <= Last_task; (var)++)\0"
 3742      616C6C5F 
 3742      7461736B 
 3742      735F696E 
 3742      5F717565 
 3743 22f5 04       		.byte	0x4
 3744              		.file 28 "E:/NeuOrga/Programmieren/c_cpp/github_os/input/src/os_base/os_stack.h"
 3745 22f6 03       		.byte	0x3
 3746 22f7 06       		.uleb128 0x6
 3747 22f8 1C       		.uleb128 0x1c
 3748 22f9 04       		.byte	0x4
 3749 22fa 01       		.byte	0x1
 3750 22fb 1E       		.uleb128 0x1e
 3751 22fc 53595354 		.ascii "SYSTICK_CTRL_STAT_REG ((uint32*)0xE000E010)\0"
 3751      49434B5F 
 3751      4354524C 
 3751      5F535441 
 3751      545F5245 
 3752 2328 01       		.byte	0x1
 3753 2329 1F       		.uleb128 0x1f
 3754 232a 53595354 		.ascii "SYSTICK_RLD_VAL_REG ((uint32*)0xE000E014)\0"
 3754      49434B5F 
 3754      524C445F 
 3754      56414C5F 
 3754      52454720 
 3755 2354 01       		.byte	0x1
 3756 2355 20       		.uleb128 0x20
 3757 2356 53595354 		.ascii "SYSTICK_CURRENT_VAL_REG ((uint32*)0xE000E018)\0"
 3757      49434B5F 
 3757      43555252 
 3757      454E545F 
 3757      56414C5F 
 3758 2384 01       		.byte	0x1
 3759 2385 21       		.uleb128 0x21
 3760 2386 53595354 		.ascii "SYSTICK_STAT_REG_TICKINT ((uint32)0x00000002)\0"
 3760      49434B5F 
 3760      53544154 
 3760      5F524547 
 3760      5F544943 
 3761 23b4 01       		.byte	0x1
 3762 23b5 22       		.uleb128 0x22
 3763 23b6 53595354 		.ascii "SYSTICK_STAT_REG_ENABLE ((uint32)0x00000001)\0"
 3763      49434B5F 
 3763      53544154 
 3763      5F524547 
 3763      5F454E41 
 3764 23e3 01       		.byte	0x1
 3765 23e4 23       		.uleb128 0x23
 3766 23e5 4C4F4F50 		.ascii "LOOPTIME_IN_USEC ((uint32)10000u)\0"
GAS LISTING C:\Users\PRESID~1\AppData\Local\Temp\ccdWwDHD.s 			page 110


 3766      54494D45 
 3766      5F494E5F 
 3766      55534543 
 3766      20282875 
 3767 2407 04       		.byte	0x4
 3768 2408 00       		.byte	0
 3769              		.section	.debug_line,"dr"
 3770              	Ldebug_line0:
 3771 0000 FB040000 		.section	.debug_str,"dr"
 3771      02004A03 
 3771      00000101 
 3771      FB0E0D00 
 3771      01010101 
 3772              	LASF4:
 3773 0000 7461736B 		.ascii "task_ptr\0"
 3773      5F707472 
 3773      00
 3774              	LASF0:
 3775 0009 6578655F 		.ascii "exe_time\0"
 3775      74696D65 
 3775      00
 3776              	LASF3:
 3777 0012 73636865 		.ascii "scheduling_task\0"
 3777      64756C69 
 3777      6E675F74 
 3777      61736B00 
 3778              	LASF1:
 3779 0022 7461736B 		.ascii "task\0"
 3779      00
 3780              	LASF2:
 3781 0027 73636865 		.ascii "scheduling_task_ptr\0"
 3781      64756C69 
 3781      6E675F74 
 3781      61736B5F 
 3781      70747200 
 3782              		.ident	"GCC: (GNU) 4.9.3"
GAS LISTING C:\Users\PRESID~1\AppData\Local\Temp\ccdWwDHD.s 			page 111


DEFINED SYMBOLS
                            *ABS*:00000000 os_task_scheduler.c
C:\Users\PRESID~1\AppData\Local\Temp\ccdWwDHD.s:6      .text:00000000 _OS_ActivateDispatcher
C:\Users\PRESID~1\AppData\Local\Temp\ccdWwDHD.s:25     .text:00000005 _OS_SleepTask
C:\Users\PRESID~1\AppData\Local\Temp\ccdWwDHD.s:57     .text:00000031 _task_state_request
C:\Users\PRESID~1\AppData\Local\Temp\ccdWwDHD.s:223    .text:00000158 _OS_CreateTask
C:\Users\PRESID~1\AppData\Local\Temp\ccdWwDHD.s:275    .text:000001ca _OS_PreemptTask
C:\Users\PRESID~1\AppData\Local\Temp\ccdWwDHD.s:360    .text:0000028b _OS_ActivateTask
C:\Users\PRESID~1\AppData\Local\Temp\ccdWwDHD.s:445    .text:00000336 _OS_StartTask
C:\Users\PRESID~1\AppData\Local\Temp\ccdWwDHD.s:562    .text:0000044b _OS_TerminateTask
C:\Users\PRESID~1\AppData\Local\Temp\ccdWwDHD.s:655    .text:00000526 _OS_TaskDispatcher
C:\Users\PRESID~1\AppData\Local\Temp\ccdWwDHD.s:719    .text:0000059d _TASK_0
C:\Users\PRESID~1\AppData\Local\Temp\ccdWwDHD.s:736    .text:000005a2 _TASK_1
C:\Users\PRESID~1\AppData\Local\Temp\ccdWwDHD.s:770    .text:000005de _TASK_2
C:\Users\PRESID~1\AppData\Local\Temp\ccdWwDHD.s:791    .text:000005ee _TASK_3
C:\Users\PRESID~1\AppData\Local\Temp\ccdWwDHD.s:813    .text:000005fe _OS_InitTasks
C:\Users\PRESID~1\AppData\Local\Temp\ccdWwDHD.s:914    .text:000007b0 _OS_TaskScheduler

UNDEFINED SYMBOLS
_TASK_TRANSITION_REJECTED_TASK_ADDR
_TASK_TRANSITION_REJECTED_STATE
_TASK_TRANSITION_CURRENT_STATE
_OS_STACK
_TASK1_CALL_NR
_TASK2_CALL_NR
_TASK3_CALL_NR
_LAST_CURRENT_TIME
_TASK_0_VAR
_TASK_STACK
_TASK_GROUP_1
_TASK_1_VAR
_TASK_2_VAR
_TASK_GROUP_2
_TASK_3_VAR
_TASK_GROUP_3
_OS_GetCurrentTime
_OS_SetSwBug
_OS_TaskSaveTaskEnvironment
_OS_GetCoreId
_OS_TASK_RESTORE_SYSTEM_STACK
_AddToTaskQueue
_AddToSchedulingQueue
_AddToIdleTaskQueue
_OS_TASK_SAVE_SYSTEM_STACK
_OS_TASK_RESTORETASK_ENVIRONMENT
_SET_RUNNING_TASK
_LLF_CHANGE_TO_UNPRIVILIGED_THREAD_MODE
_DeleteFromTaskQueue
_DeleteFromSchedulingQueue
_GetRunningTask
_GetRunningSchedulingQueueElementPtr
_GetFromTaskQueue
_OS_InitTaskQueue
_OS_InitTask
_GetFromSchedulingQueue
