GAS LISTING C:\Users\PRESID~1\AppData\Local\Temp\cc50m3V3.s 			page 1


   1              		.file	"os_task_scheduler.c"
   2              		.text
   3              	Ltext0:
   4              	.lcomm _TASK_STACK,1000,32
   5              	.lcomm _LAST_CURRENT_TIME,4,4
   6              		.globl	_OS_ACTIVATE_DISPATCHER
   8              	_OS_ACTIVATE_DISPATCHER:
   9              	LFB0:
  10              		.file 1 "E:/NeuOrga/Programmieren/c_cpp/github_os/input/src/os_base/os_task_scheduler.c"
   1:E:/NeuOrga/Programmieren/c_cpp/github_os/input/src/os_base\os_task_scheduler.c **** #include "os_firstinc.h"
   2:E:/NeuOrga/Programmieren/c_cpp/github_os/input/src/os_base\os_task_scheduler.c **** #include "os_common.h"
   3:E:/NeuOrga/Programmieren/c_cpp/github_os/input/src/os_base\os_task_scheduler.c **** #include "os_task_common.h"
   4:E:/NeuOrga/Programmieren/c_cpp/github_os/input/src/os_base\os_task_scheduler.c **** #include "os_task_scheduler.h"
   5:E:/NeuOrga/Programmieren/c_cpp/github_os/input/src/os_base\os_task_scheduler.c **** #include "os_task_queue.h"
   6:E:/NeuOrga/Programmieren/c_cpp/github_os/input/src/os_base\os_task_scheduler.c **** #include "os_stack.h"
   7:E:/NeuOrga/Programmieren/c_cpp/github_os/input/src/os_base\os_task_scheduler.c **** 
   8:E:/NeuOrga/Programmieren/c_cpp/github_os/input/src/os_base\os_task_scheduler.c **** /*
   9:E:/NeuOrga/Programmieren/c_cpp/github_os/input/src/os_base\os_task_scheduler.c **** 1. running     --(terminate)--> suspend
  10:E:/NeuOrga/Programmieren/c_cpp/github_os/input/src/os_base\os_task_scheduler.c **** 2. running     --(preempt  )--> ready
  11:E:/NeuOrga/Programmieren/c_cpp/github_os/input/src/os_base\os_task_scheduler.c **** 3. suspend     --(activate )--> ready
  12:E:/NeuOrga/Programmieren/c_cpp/github_os/input/src/os_base\os_task_scheduler.c **** 4. ready       --(start    )--> running
  13:E:/NeuOrga/Programmieren/c_cpp/github_os/input/src/os_base\os_task_scheduler.c **** 5. unspecified --(create   )--> suspend
  14:E:/NeuOrga/Programmieren/c_cpp/github_os/input/src/os_base\os_task_scheduler.c **** */
  15:E:/NeuOrga/Programmieren/c_cpp/github_os/input/src/os_base\os_task_scheduler.c **** 
  16:E:/NeuOrga/Programmieren/c_cpp/github_os/input/src/os_base\os_task_scheduler.c **** Local void OS_STARTTASK(task_t* task);
  17:E:/NeuOrga/Programmieren/c_cpp/github_os/input/src/os_base\os_task_scheduler.c **** Local void TASK_0(void* task_ptr);
  18:E:/NeuOrga/Programmieren/c_cpp/github_os/input/src/os_base\os_task_scheduler.c **** Local void TASK_1(void* task_ptr);
  19:E:/NeuOrga/Programmieren/c_cpp/github_os/input/src/os_base\os_task_scheduler.c **** Local void TASK_2(void* task_ptr);
  20:E:/NeuOrga/Programmieren/c_cpp/github_os/input/src/os_base\os_task_scheduler.c **** Local task_t* OS_TaskScheduler();
  21:E:/NeuOrga/Programmieren/c_cpp/github_os/input/src/os_base\os_task_scheduler.c **** 
  22:E:/NeuOrga/Programmieren/c_cpp/github_os/input/src/os_base\os_task_scheduler.c **** Local unsigned_char_t   TASK_STACK[MAX_RUN_QUEUE_SIZE][TASK_STACK_SIZE];
  23:E:/NeuOrga/Programmieren/c_cpp/github_os/input/src/os_base\os_task_scheduler.c **** Local scheduler_time_t LAST_CURRENT_TIME = 0;
  24:E:/NeuOrga/Programmieren/c_cpp/github_os/input/src/os_base\os_task_scheduler.c **** 
  25:E:/NeuOrga/Programmieren/c_cpp/github_os/input/src/os_base\os_task_scheduler.c **** 
  26:E:/NeuOrga/Programmieren/c_cpp/github_os/input/src/os_base\os_task_scheduler.c **** void OS_ACTIVATE_DISPATCHER(void)
  27:E:/NeuOrga/Programmieren/c_cpp/github_os/input/src/os_base\os_task_scheduler.c **** {
  11              		.loc 1 27 0
  12              		.cfi_startproc
  13 0000 55       		pushl	%ebp
  14              		.cfi_def_cfa_offset 8
  15              		.cfi_offset 5, -8
  16 0001 89E5     		movl	%esp, %ebp
  17              		.cfi_def_cfa_register 5
  28:E:/NeuOrga/Programmieren/c_cpp/github_os/input/src/os_base\os_task_scheduler.c **** 
  29:E:/NeuOrga/Programmieren/c_cpp/github_os/input/src/os_base\os_task_scheduler.c ****    /* configure the TCMP */
  30:E:/NeuOrga/Programmieren/c_cpp/github_os/input/src/os_base\os_task_scheduler.c ****    /*
  31:E:/NeuOrga/Programmieren/c_cpp/github_os/input/src/os_base\os_task_scheduler.c ****    Dispatcher function for Core 0:
  32:E:/NeuOrga/Programmieren/c_cpp/github_os/input/src/os_base\os_task_scheduler.c ****     -> ISR_TASK_DISPATCH_C0
  33:E:/NeuOrga/Programmieren/c_cpp/github_os/input/src/os_base\os_task_scheduler.c ****    Write Adresse into the config register (interrupts are requested by SWI/SVC???)
  34:E:/NeuOrga/Programmieren/c_cpp/github_os/input/src/os_base\os_task_scheduler.c ****    */
  35:E:/NeuOrga/Programmieren/c_cpp/github_os/input/src/os_base\os_task_scheduler.c ****    #define SYSTICK_CTRL_STAT_REG ((uint32*)0xE000E010)
  36:E:/NeuOrga/Programmieren/c_cpp/github_os/input/src/os_base\os_task_scheduler.c ****    #define SYSTICK_RLD_VAL_REG   ((uint32*)0xE000E014)
  37:E:/NeuOrga/Programmieren/c_cpp/github_os/input/src/os_base\os_task_scheduler.c ****    #define SYSTICK_CURRENT_VAL_REG ((uint32*)0xE000E018)
  38:E:/NeuOrga/Programmieren/c_cpp/github_os/input/src/os_base\os_task_scheduler.c ****    #define SYSTICK_STAT_REG_TICKINT ((uint32)0x00000002)
  39:E:/NeuOrga/Programmieren/c_cpp/github_os/input/src/os_base\os_task_scheduler.c ****    #define SYSTICK_STAT_REG_ENABLE  ((uint32)0x00000001)
  40:E:/NeuOrga/Programmieren/c_cpp/github_os/input/src/os_base\os_task_scheduler.c ****    #define LOOPTIME_IN_USEC ((uint32)10000u)
  41:E:/NeuOrga/Programmieren/c_cpp/github_os/input/src/os_base\os_task_scheduler.c ****    /*
GAS LISTING C:\Users\PRESID~1\AppData\Local\Temp\cc50m3V3.s 			page 2


  42:E:/NeuOrga/Programmieren/c_cpp/github_os/input/src/os_base\os_task_scheduler.c ****    CLOCK = HCLK / 8
  43:E:/NeuOrga/Programmieren/c_cpp/github_os/input/src/os_base\os_task_scheduler.c ****    vermutlich: CLOCK = 150Mhz / 8 = 18,75 Mhz
  44:E:/NeuOrga/Programmieren/c_cpp/github_os/input/src/os_base\os_task_scheduler.c ****    */
  45:E:/NeuOrga/Programmieren/c_cpp/github_os/input/src/os_base\os_task_scheduler.c ****    #if(CFG_PROCESSOR == cMCU_CORTEX_M4)
  46:E:/NeuOrga/Programmieren/c_cpp/github_os/input/src/os_base\os_task_scheduler.c ****    *SYSTICK_RLD_VAL_REG = *SYSTICK_RLD_VAL_REG | (((uint32)MCU_CLOCK_IN_HZ * LOOPTIME_IN_USEC) / ((
  47:E:/NeuOrga/Programmieren/c_cpp/github_os/input/src/os_base\os_task_scheduler.c ****    *SYSTICK_CURRENT_VAL_REG = ((uint32)0x00000000);
  48:E:/NeuOrga/Programmieren/c_cpp/github_os/input/src/os_base\os_task_scheduler.c ****    *SYSTICK_CTRL_STAT_REG = *SYSTICK_CTRL_STAT_REG | SYSTICK_STAT_REG_TICKINT | SYSTICK_STAT_REG_EN
  49:E:/NeuOrga/Programmieren/c_cpp/github_os/input/src/os_base\os_task_scheduler.c ****    #endif
  50:E:/NeuOrga/Programmieren/c_cpp/github_os/input/src/os_base\os_task_scheduler.c **** }
  18              		.loc 1 50 0
  19 0003 5D       		popl	%ebp
  20              		.cfi_restore 5
  21              		.cfi_def_cfa 4, 4
  22 0004 C3       		ret
  23              		.cfi_endproc
  24              	LFE0:
  25              		.globl	_OS_SLEEPTASK
  27              	_OS_SLEEPTASK:
  28              	LFB1:
  51:E:/NeuOrga/Programmieren/c_cpp/github_os/input/src/os_base\os_task_scheduler.c **** 
  52:E:/NeuOrga/Programmieren/c_cpp/github_os/input/src/os_base\os_task_scheduler.c **** 
  53:E:/NeuOrga/Programmieren/c_cpp/github_os/input/src/os_base\os_task_scheduler.c **** void OS_SLEEPTASK(task_t* task, task_time_t millisec)
  54:E:/NeuOrga/Programmieren/c_cpp/github_os/input/src/os_base\os_task_scheduler.c **** {
  29              		.loc 1 54 0
  30              		.cfi_startproc
  31 0005 55       		pushl	%ebp
  32              		.cfi_def_cfa_offset 8
  33              		.cfi_offset 5, -8
  34 0006 89E5     		movl	%esp, %ebp
  35              		.cfi_def_cfa_register 5
  36 0008 83EC08   		subl	$8, %esp
  55:E:/NeuOrga/Programmieren/c_cpp/github_os/input/src/os_base\os_task_scheduler.c ****    task->WaitActUntil = Get_current_time() + millisec;
  37              		.loc 1 55 0
  38 000b E8000000 		call	_Get_current_time
  38      00
  39 0010 89C2     		movl	%eax, %edx
  40 0012 8B450C   		movl	12(%ebp), %eax
  41 0015 01C2     		addl	%eax, %edx
  42 0017 8B4508   		movl	8(%ebp), %eax
  43 001a 895008   		movl	%edx, 8(%eax)
  56:E:/NeuOrga/Programmieren/c_cpp/github_os/input/src/os_base\os_task_scheduler.c **** }
  44              		.loc 1 56 0
  45 001d C9       		leave
  46              		.cfi_restore 5
  47              		.cfi_def_cfa 4, 4
  48 001e C3       		ret
  49              		.cfi_endproc
  50              	LFE1:
  51              		.globl	_task_state_request
  53              	_task_state_request:
  54              	LFB2:
  57:E:/NeuOrga/Programmieren/c_cpp/github_os/input/src/os_base\os_task_scheduler.c **** 
  58:E:/NeuOrga/Programmieren/c_cpp/github_os/input/src/os_base\os_task_scheduler.c **** unsigned_char_t task_state_request(void* temp_task, task_state_t requested_state)
  59:E:/NeuOrga/Programmieren/c_cpp/github_os/input/src/os_base\os_task_scheduler.c **** {
  55              		.loc 1 59 0
  56              		.cfi_startproc
  57 001f 55       		pushl	%ebp
GAS LISTING C:\Users\PRESID~1\AppData\Local\Temp\cc50m3V3.s 			page 3


  58              		.cfi_def_cfa_offset 8
  59              		.cfi_offset 5, -8
  60 0020 89E5     		movl	%esp, %ebp
  61              		.cfi_def_cfa_register 5
  62 0022 83EC28   		subl	$40, %esp
  60:E:/NeuOrga/Programmieren/c_cpp/github_os/input/src/os_base\os_task_scheduler.c ****    unsigned_char_t RequestState = Rejected;
  63              		.loc 1 60 0
  64 0025 C645F700 		movb	$0, -9(%ebp)
  61:E:/NeuOrga/Programmieren/c_cpp/github_os/input/src/os_base\os_task_scheduler.c **** 
  62:E:/NeuOrga/Programmieren/c_cpp/github_os/input/src/os_base\os_task_scheduler.c ****    task_t* task = (task_t*) temp_task;
  65              		.loc 1 62 0
  66 0029 8B4508   		movl	8(%ebp), %eax
  67 002c 8945F0   		movl	%eax, -16(%ebp)
  63:E:/NeuOrga/Programmieren/c_cpp/github_os/input/src/os_base\os_task_scheduler.c **** 
  64:E:/NeuOrga/Programmieren/c_cpp/github_os/input/src/os_base\os_task_scheduler.c ****    switch(requested_state)
  68              		.loc 1 64 0
  69 002f 8B450C   		movl	12(%ebp), %eax
  70 0032 83F801   		cmpl	$1, %eax
  71 0035 743E     		je	L5
  72 0037 83F801   		cmpl	$1, %eax
  73 003a 7213     		jb	L6
  74 003c 83F802   		cmpl	$2, %eax
  75 003f 0F848000 		je	L7
  75      0000
  76 0045 83F803   		cmpl	$3, %eax
  77 0048 745D     		je	L8
  65:E:/NeuOrga/Programmieren/c_cpp/github_os/input/src/os_base\os_task_scheduler.c ****    {
  66:E:/NeuOrga/Programmieren/c_cpp/github_os/input/src/os_base\os_task_scheduler.c ****    case Task_unspecified:/* 1. create new task */
  67:E:/NeuOrga/Programmieren/c_cpp/github_os/input/src/os_base\os_task_scheduler.c ****    {
  68:E:/NeuOrga/Programmieren/c_cpp/github_os/input/src/os_base\os_task_scheduler.c ****       switch(task->task_state)
  69:E:/NeuOrga/Programmieren/c_cpp/github_os/input/src/os_base\os_task_scheduler.c ****       {
  70:E:/NeuOrga/Programmieren/c_cpp/github_os/input/src/os_base\os_task_scheduler.c ****       case Task_ready:
  71:E:/NeuOrga/Programmieren/c_cpp/github_os/input/src/os_base\os_task_scheduler.c ****       case Task_running:
  72:E:/NeuOrga/Programmieren/c_cpp/github_os/input/src/os_base\os_task_scheduler.c ****       case Task_suspended:
  73:E:/NeuOrga/Programmieren/c_cpp/github_os/input/src/os_base\os_task_scheduler.c ****       {
  74:E:/NeuOrga/Programmieren/c_cpp/github_os/input/src/os_base\os_task_scheduler.c ****          RequestState = Rejected;
  75:E:/NeuOrga/Programmieren/c_cpp/github_os/input/src/os_base\os_task_scheduler.c ****          break;
  76:E:/NeuOrga/Programmieren/c_cpp/github_os/input/src/os_base\os_task_scheduler.c ****       }
  77:E:/NeuOrga/Programmieren/c_cpp/github_os/input/src/os_base\os_task_scheduler.c ****       default:
  78:E:/NeuOrga/Programmieren/c_cpp/github_os/input/src/os_base\os_task_scheduler.c ****       {
  79:E:/NeuOrga/Programmieren/c_cpp/github_os/input/src/os_base\os_task_scheduler.c ****          task->task_state = Task_unspecified;
  80:E:/NeuOrga/Programmieren/c_cpp/github_os/input/src/os_base\os_task_scheduler.c ****          RequestState = Accepted;
  81:E:/NeuOrga/Programmieren/c_cpp/github_os/input/src/os_base\os_task_scheduler.c ****          break;
  82:E:/NeuOrga/Programmieren/c_cpp/github_os/input/src/os_base\os_task_scheduler.c ****       }
  83:E:/NeuOrga/Programmieren/c_cpp/github_os/input/src/os_base\os_task_scheduler.c ****       }
  84:E:/NeuOrga/Programmieren/c_cpp/github_os/input/src/os_base\os_task_scheduler.c ****       break;
  85:E:/NeuOrga/Programmieren/c_cpp/github_os/input/src/os_base\os_task_scheduler.c ****    }
  86:E:/NeuOrga/Programmieren/c_cpp/github_os/input/src/os_base\os_task_scheduler.c ****    case Task_suspended:
  87:E:/NeuOrga/Programmieren/c_cpp/github_os/input/src/os_base\os_task_scheduler.c ****    {
  88:E:/NeuOrga/Programmieren/c_cpp/github_os/input/src/os_base\os_task_scheduler.c ****       switch(task->task_state)
  89:E:/NeuOrga/Programmieren/c_cpp/github_os/input/src/os_base\os_task_scheduler.c ****       {
  90:E:/NeuOrga/Programmieren/c_cpp/github_os/input/src/os_base\os_task_scheduler.c ****       case Task_unspecified: /* 2. create task transition */
  91:E:/NeuOrga/Programmieren/c_cpp/github_os/input/src/os_base\os_task_scheduler.c ****       {
  92:E:/NeuOrga/Programmieren/c_cpp/github_os/input/src/os_base\os_task_scheduler.c ****          /* no checks */
  93:E:/NeuOrga/Programmieren/c_cpp/github_os/input/src/os_base\os_task_scheduler.c ****          task->task_state = Task_suspended;
  94:E:/NeuOrga/Programmieren/c_cpp/github_os/input/src/os_base\os_task_scheduler.c ****          RequestState = Accepted;
  95:E:/NeuOrga/Programmieren/c_cpp/github_os/input/src/os_base\os_task_scheduler.c ****          break;
GAS LISTING C:\Users\PRESID~1\AppData\Local\Temp\cc50m3V3.s 			page 4


  96:E:/NeuOrga/Programmieren/c_cpp/github_os/input/src/os_base\os_task_scheduler.c ****       }
  97:E:/NeuOrga/Programmieren/c_cpp/github_os/input/src/os_base\os_task_scheduler.c ****       case Task_running: /* 3. terminate task */
  98:E:/NeuOrga/Programmieren/c_cpp/github_os/input/src/os_base\os_task_scheduler.c ****       {
  99:E:/NeuOrga/Programmieren/c_cpp/github_os/input/src/os_base\os_task_scheduler.c ****          task->task_state = Task_suspended;
 100:E:/NeuOrga/Programmieren/c_cpp/github_os/input/src/os_base\os_task_scheduler.c ****          RequestState = Accepted;
 101:E:/NeuOrga/Programmieren/c_cpp/github_os/input/src/os_base\os_task_scheduler.c ****          break;
 102:E:/NeuOrga/Programmieren/c_cpp/github_os/input/src/os_base\os_task_scheduler.c ****       }
 103:E:/NeuOrga/Programmieren/c_cpp/github_os/input/src/os_base\os_task_scheduler.c ****       default:
 104:E:/NeuOrga/Programmieren/c_cpp/github_os/input/src/os_base\os_task_scheduler.c ****       {
 105:E:/NeuOrga/Programmieren/c_cpp/github_os/input/src/os_base\os_task_scheduler.c ****          /* no change in states allowed */
 106:E:/NeuOrga/Programmieren/c_cpp/github_os/input/src/os_base\os_task_scheduler.c ****          break;
 107:E:/NeuOrga/Programmieren/c_cpp/github_os/input/src/os_base\os_task_scheduler.c ****       }
 108:E:/NeuOrga/Programmieren/c_cpp/github_os/input/src/os_base\os_task_scheduler.c ****       }
 109:E:/NeuOrga/Programmieren/c_cpp/github_os/input/src/os_base\os_task_scheduler.c ****       break;
 110:E:/NeuOrga/Programmieren/c_cpp/github_os/input/src/os_base\os_task_scheduler.c ****    }
 111:E:/NeuOrga/Programmieren/c_cpp/github_os/input/src/os_base\os_task_scheduler.c ****    case Task_running:
 112:E:/NeuOrga/Programmieren/c_cpp/github_os/input/src/os_base\os_task_scheduler.c ****    {
 113:E:/NeuOrga/Programmieren/c_cpp/github_os/input/src/os_base\os_task_scheduler.c ****       switch(task->task_state)
 114:E:/NeuOrga/Programmieren/c_cpp/github_os/input/src/os_base\os_task_scheduler.c ****       {
 115:E:/NeuOrga/Programmieren/c_cpp/github_os/input/src/os_base\os_task_scheduler.c ****       case Task_ready: /* 4. start task transition */
 116:E:/NeuOrga/Programmieren/c_cpp/github_os/input/src/os_base\os_task_scheduler.c ****       {
 117:E:/NeuOrga/Programmieren/c_cpp/github_os/input/src/os_base\os_task_scheduler.c ****          task->task_state = Task_running;
 118:E:/NeuOrga/Programmieren/c_cpp/github_os/input/src/os_base\os_task_scheduler.c ****          RequestState   = Accepted;
 119:E:/NeuOrga/Programmieren/c_cpp/github_os/input/src/os_base\os_task_scheduler.c ****          break;
 120:E:/NeuOrga/Programmieren/c_cpp/github_os/input/src/os_base\os_task_scheduler.c ****       }
 121:E:/NeuOrga/Programmieren/c_cpp/github_os/input/src/os_base\os_task_scheduler.c ****       default:
 122:E:/NeuOrga/Programmieren/c_cpp/github_os/input/src/os_base\os_task_scheduler.c ****       {
 123:E:/NeuOrga/Programmieren/c_cpp/github_os/input/src/os_base\os_task_scheduler.c ****          /* no change in states allowed */
 124:E:/NeuOrga/Programmieren/c_cpp/github_os/input/src/os_base\os_task_scheduler.c ****          break;
 125:E:/NeuOrga/Programmieren/c_cpp/github_os/input/src/os_base\os_task_scheduler.c ****       }
 126:E:/NeuOrga/Programmieren/c_cpp/github_os/input/src/os_base\os_task_scheduler.c ****       }
 127:E:/NeuOrga/Programmieren/c_cpp/github_os/input/src/os_base\os_task_scheduler.c ****       break;
 128:E:/NeuOrga/Programmieren/c_cpp/github_os/input/src/os_base\os_task_scheduler.c **** 
 129:E:/NeuOrga/Programmieren/c_cpp/github_os/input/src/os_base\os_task_scheduler.c ****    }
 130:E:/NeuOrga/Programmieren/c_cpp/github_os/input/src/os_base\os_task_scheduler.c ****    case Task_ready:
 131:E:/NeuOrga/Programmieren/c_cpp/github_os/input/src/os_base\os_task_scheduler.c ****    {
 132:E:/NeuOrga/Programmieren/c_cpp/github_os/input/src/os_base\os_task_scheduler.c ****       switch(task->task_state)
 133:E:/NeuOrga/Programmieren/c_cpp/github_os/input/src/os_base\os_task_scheduler.c ****       {
 134:E:/NeuOrga/Programmieren/c_cpp/github_os/input/src/os_base\os_task_scheduler.c ****       case Task_suspended: /* activate task transition */
 135:E:/NeuOrga/Programmieren/c_cpp/github_os/input/src/os_base\os_task_scheduler.c ****       {
 136:E:/NeuOrga/Programmieren/c_cpp/github_os/input/src/os_base\os_task_scheduler.c ****          task->task_state = Task_ready;
 137:E:/NeuOrga/Programmieren/c_cpp/github_os/input/src/os_base\os_task_scheduler.c ****          RequestState   = Accepted;
 138:E:/NeuOrga/Programmieren/c_cpp/github_os/input/src/os_base\os_task_scheduler.c ****          break;
 139:E:/NeuOrga/Programmieren/c_cpp/github_os/input/src/os_base\os_task_scheduler.c ****       }
 140:E:/NeuOrga/Programmieren/c_cpp/github_os/input/src/os_base\os_task_scheduler.c ****       case Task_running: /* preempt task transition */
 141:E:/NeuOrga/Programmieren/c_cpp/github_os/input/src/os_base\os_task_scheduler.c ****       {
 142:E:/NeuOrga/Programmieren/c_cpp/github_os/input/src/os_base\os_task_scheduler.c ****          task->task_state = Task_ready;
 143:E:/NeuOrga/Programmieren/c_cpp/github_os/input/src/os_base\os_task_scheduler.c ****          RequestState   = Accepted;
 144:E:/NeuOrga/Programmieren/c_cpp/github_os/input/src/os_base\os_task_scheduler.c ****          break;
 145:E:/NeuOrga/Programmieren/c_cpp/github_os/input/src/os_base\os_task_scheduler.c ****       }
 146:E:/NeuOrga/Programmieren/c_cpp/github_os/input/src/os_base\os_task_scheduler.c ****       default:
 147:E:/NeuOrga/Programmieren/c_cpp/github_os/input/src/os_base\os_task_scheduler.c ****       {
 148:E:/NeuOrga/Programmieren/c_cpp/github_os/input/src/os_base\os_task_scheduler.c ****          /* no change in states allowed */
 149:E:/NeuOrga/Programmieren/c_cpp/github_os/input/src/os_base\os_task_scheduler.c ****          break;
 150:E:/NeuOrga/Programmieren/c_cpp/github_os/input/src/os_base\os_task_scheduler.c ****       }
 151:E:/NeuOrga/Programmieren/c_cpp/github_os/input/src/os_base\os_task_scheduler.c ****       }
 152:E:/NeuOrga/Programmieren/c_cpp/github_os/input/src/os_base\os_task_scheduler.c ****       break;
GAS LISTING C:\Users\PRESID~1\AppData\Local\Temp\cc50m3V3.s 			page 5


 153:E:/NeuOrga/Programmieren/c_cpp/github_os/input/src/os_base\os_task_scheduler.c ****    }
 154:E:/NeuOrga/Programmieren/c_cpp/github_os/input/src/os_base\os_task_scheduler.c ****    default:
 155:E:/NeuOrga/Programmieren/c_cpp/github_os/input/src/os_base\os_task_scheduler.c ****    {
 156:E:/NeuOrga/Programmieren/c_cpp/github_os/input/src/os_base\os_task_scheduler.c ****       break;
  78              		.loc 1 156 0
  79 004a E9A80000 		jmp	L12
  79      00
  80              	L6:
  68:E:/NeuOrga/Programmieren/c_cpp/github_os/input/src/os_base\os_task_scheduler.c ****       {
  81              		.loc 1 68 0
  82 004f 8B45F0   		movl	-16(%ebp), %eax
  83 0052 8B4034   		movl	52(%eax), %eax
  84 0055 48       		decl	%eax
  85 0056 83F802   		cmpl	$2, %eax
  86 0059 7706     		ja	L9
  74:E:/NeuOrga/Programmieren/c_cpp/github_os/input/src/os_base\os_task_scheduler.c ****          break;
  87              		.loc 1 74 0
  88 005b C645F700 		movb	$0, -9(%ebp)
  75:E:/NeuOrga/Programmieren/c_cpp/github_os/input/src/os_base\os_task_scheduler.c ****       }
  89              		.loc 1 75 0
  90 005f EB0F     		jmp	L11
  91              	L9:
  79:E:/NeuOrga/Programmieren/c_cpp/github_os/input/src/os_base\os_task_scheduler.c ****          RequestState = Accepted;
  92              		.loc 1 79 0
  93 0061 8B45F0   		movl	-16(%ebp), %eax
  94 0064 C7403400 		movl	$0, 52(%eax)
  94      000000
  80:E:/NeuOrga/Programmieren/c_cpp/github_os/input/src/os_base\os_task_scheduler.c ****          break;
  95              		.loc 1 80 0
  96 006b C645F701 		movb	$1, -9(%ebp)
  81:E:/NeuOrga/Programmieren/c_cpp/github_os/input/src/os_base\os_task_scheduler.c ****       }
  97              		.loc 1 81 0
  98 006f 90       		nop
  99              	L11:
  84:E:/NeuOrga/Programmieren/c_cpp/github_os/input/src/os_base\os_task_scheduler.c ****    }
 100              		.loc 1 84 0
 101 0070 E9820000 		jmp	L12
 101      00
 102              	L5:
  88:E:/NeuOrga/Programmieren/c_cpp/github_os/input/src/os_base\os_task_scheduler.c ****       {
 103              		.loc 1 88 0
 104 0075 8B45F0   		movl	-16(%ebp), %eax
 105 0078 8B4034   		movl	52(%eax), %eax
 106 007b 85C0     		testl	%eax, %eax
 107 007d 7407     		je	L14
 108 007f 83F803   		cmpl	$3, %eax
 109 0082 7412     		je	L15
 106:E:/NeuOrga/Programmieren/c_cpp/github_os/input/src/os_base\os_task_scheduler.c ****       }
 110              		.loc 1 106 0
 111 0084 EB1F     		jmp	L16
 112              	L14:
  93:E:/NeuOrga/Programmieren/c_cpp/github_os/input/src/os_base\os_task_scheduler.c ****          RequestState = Accepted;
 113              		.loc 1 93 0
 114 0086 8B45F0   		movl	-16(%ebp), %eax
 115 0089 C7403401 		movl	$1, 52(%eax)
 115      000000
  94:E:/NeuOrga/Programmieren/c_cpp/github_os/input/src/os_base\os_task_scheduler.c ****          break;
GAS LISTING C:\Users\PRESID~1\AppData\Local\Temp\cc50m3V3.s 			page 6


 116              		.loc 1 94 0
 117 0090 C645F701 		movb	$1, -9(%ebp)
  95:E:/NeuOrga/Programmieren/c_cpp/github_os/input/src/os_base\os_task_scheduler.c ****       }
 118              		.loc 1 95 0
 119 0094 EB0F     		jmp	L16
 120              	L15:
  99:E:/NeuOrga/Programmieren/c_cpp/github_os/input/src/os_base\os_task_scheduler.c ****          RequestState = Accepted;
 121              		.loc 1 99 0
 122 0096 8B45F0   		movl	-16(%ebp), %eax
 123 0099 C7403401 		movl	$1, 52(%eax)
 123      000000
 100:E:/NeuOrga/Programmieren/c_cpp/github_os/input/src/os_base\os_task_scheduler.c ****          break;
 124              		.loc 1 100 0
 125 00a0 C645F701 		movb	$1, -9(%ebp)
 101:E:/NeuOrga/Programmieren/c_cpp/github_os/input/src/os_base\os_task_scheduler.c ****       }
 126              		.loc 1 101 0
 127 00a4 90       		nop
 128              	L16:
 109:E:/NeuOrga/Programmieren/c_cpp/github_os/input/src/os_base\os_task_scheduler.c ****    }
 129              		.loc 1 109 0 discriminator 1
 130 00a5 EB50     		jmp	L12
 131              	L8:
 113:E:/NeuOrga/Programmieren/c_cpp/github_os/input/src/os_base\os_task_scheduler.c ****       {
 132              		.loc 1 113 0
 133 00a7 8B45F0   		movl	-16(%ebp), %eax
 134 00aa 8B4034   		movl	52(%eax), %eax
 135 00ad 83F802   		cmpl	$2, %eax
 136 00b0 7402     		je	L18
 124:E:/NeuOrga/Programmieren/c_cpp/github_os/input/src/os_base\os_task_scheduler.c ****       }
 137              		.loc 1 124 0
 138 00b2 EB0F     		jmp	L19
 139              	L18:
 117:E:/NeuOrga/Programmieren/c_cpp/github_os/input/src/os_base\os_task_scheduler.c ****          RequestState   = Accepted;
 140              		.loc 1 117 0
 141 00b4 8B45F0   		movl	-16(%ebp), %eax
 142 00b7 C7403403 		movl	$3, 52(%eax)
 142      000000
 118:E:/NeuOrga/Programmieren/c_cpp/github_os/input/src/os_base\os_task_scheduler.c ****          break;
 143              		.loc 1 118 0
 144 00be C645F701 		movb	$1, -9(%ebp)
 119:E:/NeuOrga/Programmieren/c_cpp/github_os/input/src/os_base\os_task_scheduler.c ****       }
 145              		.loc 1 119 0
 146 00c2 90       		nop
 147              	L19:
 127:E:/NeuOrga/Programmieren/c_cpp/github_os/input/src/os_base\os_task_scheduler.c **** 
 148              		.loc 1 127 0 discriminator 2
 149 00c3 EB32     		jmp	L12
 150              	L7:
 132:E:/NeuOrga/Programmieren/c_cpp/github_os/input/src/os_base\os_task_scheduler.c ****       {
 151              		.loc 1 132 0
 152 00c5 8B45F0   		movl	-16(%ebp), %eax
 153 00c8 8B4034   		movl	52(%eax), %eax
 154 00cb 83F801   		cmpl	$1, %eax
 155 00ce 7407     		je	L21
 156 00d0 83F803   		cmpl	$3, %eax
 157 00d3 7412     		je	L22
 149:E:/NeuOrga/Programmieren/c_cpp/github_os/input/src/os_base\os_task_scheduler.c ****       }
GAS LISTING C:\Users\PRESID~1\AppData\Local\Temp\cc50m3V3.s 			page 7


 158              		.loc 1 149 0
 159 00d5 EB1F     		jmp	L23
 160              	L21:
 136:E:/NeuOrga/Programmieren/c_cpp/github_os/input/src/os_base\os_task_scheduler.c ****          RequestState   = Accepted;
 161              		.loc 1 136 0
 162 00d7 8B45F0   		movl	-16(%ebp), %eax
 163 00da C7403402 		movl	$2, 52(%eax)
 163      000000
 137:E:/NeuOrga/Programmieren/c_cpp/github_os/input/src/os_base\os_task_scheduler.c ****          break;
 164              		.loc 1 137 0
 165 00e1 C645F701 		movb	$1, -9(%ebp)
 138:E:/NeuOrga/Programmieren/c_cpp/github_os/input/src/os_base\os_task_scheduler.c ****       }
 166              		.loc 1 138 0
 167 00e5 EB0F     		jmp	L23
 168              	L22:
 142:E:/NeuOrga/Programmieren/c_cpp/github_os/input/src/os_base\os_task_scheduler.c ****          RequestState   = Accepted;
 169              		.loc 1 142 0
 170 00e7 8B45F0   		movl	-16(%ebp), %eax
 171 00ea C7403402 		movl	$2, 52(%eax)
 171      000000
 143:E:/NeuOrga/Programmieren/c_cpp/github_os/input/src/os_base\os_task_scheduler.c ****          break;
 172              		.loc 1 143 0
 173 00f1 C645F701 		movb	$1, -9(%ebp)
 144:E:/NeuOrga/Programmieren/c_cpp/github_os/input/src/os_base\os_task_scheduler.c ****       }
 174              		.loc 1 144 0
 175 00f5 90       		nop
 176              	L23:
 152:E:/NeuOrga/Programmieren/c_cpp/github_os/input/src/os_base\os_task_scheduler.c ****    }
 177              		.loc 1 152 0 discriminator 3
 178 00f6 90       		nop
 179              	L12:
 157:E:/NeuOrga/Programmieren/c_cpp/github_os/input/src/os_base\os_task_scheduler.c ****    }
 158:E:/NeuOrga/Programmieren/c_cpp/github_os/input/src/os_base\os_task_scheduler.c ****    }
 159:E:/NeuOrga/Programmieren/c_cpp/github_os/input/src/os_base\os_task_scheduler.c ****    if(RequestState == Rejected)
 180              		.loc 1 159 0
 181 00f7 807DF700 		cmpb	$0, -9(%ebp)
 182 00fb 7514     		jne	L24
 160:E:/NeuOrga/Programmieren/c_cpp/github_os/input/src/os_base\os_task_scheduler.c ****    {
 161:E:/NeuOrga/Programmieren/c_cpp/github_os/input/src/os_base\os_task_scheduler.c ****       OS_SET_SW_BUG(os_bug_taskstate_request_denied, Func_TaskStateRequest);
 183              		.loc 1 161 0
 184 00fd C7442404 		movl	$11, 4(%esp)
 184      0B000000 
 185 0105 C7042401 		movl	$1, (%esp)
 185      000000
 186 010c E8000000 		call	_OS_SET_SW_BUG
 186      00
 187              	L24:
 162:E:/NeuOrga/Programmieren/c_cpp/github_os/input/src/os_base\os_task_scheduler.c ****    }
 163:E:/NeuOrga/Programmieren/c_cpp/github_os/input/src/os_base\os_task_scheduler.c ****    return RequestState;
 188              		.loc 1 163 0
 189 0111 8A45F7   		movb	-9(%ebp), %al
 164:E:/NeuOrga/Programmieren/c_cpp/github_os/input/src/os_base\os_task_scheduler.c **** }
 190              		.loc 1 164 0
 191 0114 C9       		leave
 192              		.cfi_restore 5
 193              		.cfi_def_cfa 4, 4
 194 0115 C3       		ret
GAS LISTING C:\Users\PRESID~1\AppData\Local\Temp\cc50m3V3.s 			page 8


 195              		.cfi_endproc
 196              	LFE2:
 197              		.globl	_OS_ActivateTask
 199              	_OS_ActivateTask:
 200              	LFB3:
 165:E:/NeuOrga/Programmieren/c_cpp/github_os/input/src/os_base\os_task_scheduler.c **** void OS_ActivateTask(task_t* task)
 166:E:/NeuOrga/Programmieren/c_cpp/github_os/input/src/os_base\os_task_scheduler.c **** {
 201              		.loc 1 166 0
 202              		.cfi_startproc
 203 0116 55       		pushl	%ebp
 204              		.cfi_def_cfa_offset 8
 205              		.cfi_offset 5, -8
 206 0117 89E5     		movl	%esp, %ebp
 207              		.cfi_def_cfa_register 5
 208 0119 83EC18   		subl	$24, %esp
 167:E:/NeuOrga/Programmieren/c_cpp/github_os/input/src/os_base\os_task_scheduler.c ****    /*
 168:E:/NeuOrga/Programmieren/c_cpp/github_os/input/src/os_base\os_task_scheduler.c ****    Activate Task:
 169:E:/NeuOrga/Programmieren/c_cpp/github_os/input/src/os_base\os_task_scheduler.c ****    - Disable Interrupts
 170:E:/NeuOrga/Programmieren/c_cpp/github_os/input/src/os_base\os_task_scheduler.c ****    - Add to schedule Queue
 171:E:/NeuOrga/Programmieren/c_cpp/github_os/input/src/os_base\os_task_scheduler.c ****    - Enable Interrupts
 172:E:/NeuOrga/Programmieren/c_cpp/github_os/input/src/os_base\os_task_scheduler.c **** 
 173:E:/NeuOrga/Programmieren/c_cpp/github_os/input/src/os_base\os_task_scheduler.c ****    in case of valid request, the content, where the "task_t* task" is point to is stored in TASK_RU
 174:E:/NeuOrga/Programmieren/c_cpp/github_os/input/src/os_base\os_task_scheduler.c ****    */
 175:E:/NeuOrga/Programmieren/c_cpp/github_os/input/src/os_base\os_task_scheduler.c ****    if(task != 0)
 209              		.loc 1 175 0
 210 011c 837D0800 		cmpl	$0, 8(%ebp)
 211 0120 0F84AC00 		je	L26
 211      0000
 176:E:/NeuOrga/Programmieren/c_cpp/github_os/input/src/os_base\os_task_scheduler.c ****    {
 177:E:/NeuOrga/Programmieren/c_cpp/github_os/input/src/os_base\os_task_scheduler.c ****       if((task->IdleTask != False)||(task->state_request(task, Task_ready)==Accepted))
 212              		.loc 1 177 0
 213 0126 8B4508   		movl	8(%ebp), %eax
 214 0129 8A00     		movb	(%eax), %al
 215 012b 83E004   		andl	$4, %eax
 216 012e 84C0     		testb	%al, %al
 217 0130 751A     		jne	L28
 218              		.loc 1 177 0 is_stmt 0 discriminator 1
 219 0132 8B4508   		movl	8(%ebp), %eax
 220 0135 8B4030   		movl	48(%eax), %eax
 221 0138 C7442404 		movl	$2, 4(%esp)
 221      02000000 
 222 0140 8B5508   		movl	8(%ebp), %edx
 223 0143 891424   		movl	%edx, (%esp)
 224 0146 FFD0     		call	*%eax
 225 0148 3C01     		cmpb	$1, %al
 226 014a 7572     		jne	L29
 227              	L28:
 178:E:/NeuOrga/Programmieren/c_cpp/github_os/input/src/os_base\os_task_scheduler.c ****       {
 179:E:/NeuOrga/Programmieren/c_cpp/github_os/input/src/os_base\os_task_scheduler.c ****          DisableInterrupts();
 180:E:/NeuOrga/Programmieren/c_cpp/github_os/input/src/os_base\os_task_scheduler.c ****          /* 3. suspended to ready (add to runqueue) */
 181:E:/NeuOrga/Programmieren/c_cpp/github_os/input/src/os_base\os_task_scheduler.c ****          if(task->IdleTask == False)
 228              		.loc 1 181 0 is_stmt 1
 229 014c 8B4508   		movl	8(%ebp), %eax
 230 014f 8A00     		movb	(%eax), %al
 231 0151 83E004   		andl	$4, %eax
 232 0154 84C0     		testb	%al, %al
 233 0156 7557     		jne	L30
GAS LISTING C:\Users\PRESID~1\AppData\Local\Temp\cc50m3V3.s 			page 9


 182:E:/NeuOrga/Programmieren/c_cpp/github_os/input/src/os_base\os_task_scheduler.c ****          {
 183:E:/NeuOrga/Programmieren/c_cpp/github_os/input/src/os_base\os_task_scheduler.c ****             if( (task->active == False)
 234              		.loc 1 183 0
 235 0158 8B4508   		movl	8(%ebp), %eax
 236 015b 8A00     		movb	(%eax), %al
 237 015d 83E001   		andl	$1, %eax
 238 0160 84C0     		testb	%al, %al
 239 0162 741C     		je	L31
 184:E:/NeuOrga/Programmieren/c_cpp/github_os/input/src/os_base\os_task_scheduler.c ****                   || ( (task->active == True) && (task->NrOfInsAllowed > task->NrOfInsActivated) )
 240              		.loc 1 184 0
 241 0164 8B4508   		movl	8(%ebp), %eax
 242 0167 8A00     		movb	(%eax), %al
 243 0169 83E001   		andl	$1, %eax
 244 016c 84C0     		testb	%al, %al
 245 016e 744C     		je	L33
 246              		.loc 1 184 0 is_stmt 0 discriminator 1
 247 0170 8B4508   		movl	8(%ebp), %eax
 248 0173 8A5004   		movb	4(%eax), %dl
 249 0176 8B4508   		movl	8(%ebp), %eax
 250 0179 8A4005   		movb	5(%eax), %al
 251 017c 38C2     		cmpb	%al, %dl
 252 017e 763C     		jbe	L33
 253              	L31:
 185:E:/NeuOrga/Programmieren/c_cpp/github_os/input/src/os_base\os_task_scheduler.c ****               )
 186:E:/NeuOrga/Programmieren/c_cpp/github_os/input/src/os_base\os_task_scheduler.c ****             {
 187:E:/NeuOrga/Programmieren/c_cpp/github_os/input/src/os_base\os_task_scheduler.c ****                /* only activate if allowed by rule */
 188:E:/NeuOrga/Programmieren/c_cpp/github_os/input/src/os_base\os_task_scheduler.c ****                task = AddToTaskQueue(task);
 254              		.loc 1 188 0 is_stmt 1
 255 0180 8B4508   		movl	8(%ebp), %eax
 256 0183 890424   		movl	%eax, (%esp)
 257 0186 E8000000 		call	_AddToTaskQueue
 257      00
 258 018b 894508   		movl	%eax, 8(%ebp)
 189:E:/NeuOrga/Programmieren/c_cpp/github_os/input/src/os_base\os_task_scheduler.c **** 
 190:E:/NeuOrga/Programmieren/c_cpp/github_os/input/src/os_base\os_task_scheduler.c ****                AddToLinkList(task);
 259              		.loc 1 190 0
 260 018e 8B4508   		movl	8(%ebp), %eax
 261 0191 890424   		movl	%eax, (%esp)
 262 0194 E8000000 		call	_AddToLinkList
 262      00
 191:E:/NeuOrga/Programmieren/c_cpp/github_os/input/src/os_base\os_task_scheduler.c ****                UpdateLinkList();
 263              		.loc 1 191 0
 264 0199 E8000000 		call	_UpdateLinkList
 264      00
 192:E:/NeuOrga/Programmieren/c_cpp/github_os/input/src/os_base\os_task_scheduler.c ****                task->NrOfInsActivated++;
 265              		.loc 1 192 0
 266 019e 8B4508   		movl	8(%ebp), %eax
 267 01a1 8A4005   		movb	5(%eax), %al
 268 01a4 8D5001   		leal	1(%eax), %edx
 269 01a7 8B4508   		movl	8(%ebp), %eax
 270 01aa 885005   		movb	%dl, 5(%eax)
 181:E:/NeuOrga/Programmieren/c_cpp/github_os/input/src/os_base\os_task_scheduler.c ****          {
 271              		.loc 1 181 0
 272 01ad EB23     		jmp	L26
 273              	L30:
 193:E:/NeuOrga/Programmieren/c_cpp/github_os/input/src/os_base\os_task_scheduler.c ****             }
 194:E:/NeuOrga/Programmieren/c_cpp/github_os/input/src/os_base\os_task_scheduler.c ****             else
GAS LISTING C:\Users\PRESID~1\AppData\Local\Temp\cc50m3V3.s 			page 10


 195:E:/NeuOrga/Programmieren/c_cpp/github_os/input/src/os_base\os_task_scheduler.c ****             {
 196:E:/NeuOrga/Programmieren/c_cpp/github_os/input/src/os_base\os_task_scheduler.c ****                /* multiple activation bug occured */
 197:E:/NeuOrga/Programmieren/c_cpp/github_os/input/src/os_base\os_task_scheduler.c ****             }
 198:E:/NeuOrga/Programmieren/c_cpp/github_os/input/src/os_base\os_task_scheduler.c ****          }
 199:E:/NeuOrga/Programmieren/c_cpp/github_os/input/src/os_base\os_task_scheduler.c ****          else
 200:E:/NeuOrga/Programmieren/c_cpp/github_os/input/src/os_base\os_task_scheduler.c ****          {
 201:E:/NeuOrga/Programmieren/c_cpp/github_os/input/src/os_base\os_task_scheduler.c ****             AddToIdleTaskQueue(task);
 274              		.loc 1 201 0
 275 01af 8B4508   		movl	8(%ebp), %eax
 276 01b2 890424   		movl	%eax, (%esp)
 277 01b5 E8000000 		call	_AddToIdleTaskQueue
 277      00
 181:E:/NeuOrga/Programmieren/c_cpp/github_os/input/src/os_base\os_task_scheduler.c ****          {
 278              		.loc 1 181 0
 279 01ba EB16     		jmp	L26
 280              	L33:
 181:E:/NeuOrga/Programmieren/c_cpp/github_os/input/src/os_base\os_task_scheduler.c ****          {
 281              		.loc 1 181 0 is_stmt 0 discriminator 1
 282 01bc EB14     		jmp	L26
 283              	L29:
 202:E:/NeuOrga/Programmieren/c_cpp/github_os/input/src/os_base\os_task_scheduler.c ****          }
 203:E:/NeuOrga/Programmieren/c_cpp/github_os/input/src/os_base\os_task_scheduler.c ****          EnableInterrupts();
 204:E:/NeuOrga/Programmieren/c_cpp/github_os/input/src/os_base\os_task_scheduler.c ****       }
 205:E:/NeuOrga/Programmieren/c_cpp/github_os/input/src/os_base\os_task_scheduler.c ****       else
 206:E:/NeuOrga/Programmieren/c_cpp/github_os/input/src/os_base\os_task_scheduler.c ****       {
 207:E:/NeuOrga/Programmieren/c_cpp/github_os/input/src/os_base\os_task_scheduler.c ****          OS_SET_SW_BUG(os_bug_taskstate_request_denied, Func_ActivateTask);
 284              		.loc 1 207 0 is_stmt 1
 285 01be C7442404 		movl	$10, 4(%esp)
 285      0A000000 
 286 01c6 C7042401 		movl	$1, (%esp)
 286      000000
 287 01cd E8000000 		call	_OS_SET_SW_BUG
 287      00
 288              	L26:
 208:E:/NeuOrga/Programmieren/c_cpp/github_os/input/src/os_base\os_task_scheduler.c ****       }
 209:E:/NeuOrga/Programmieren/c_cpp/github_os/input/src/os_base\os_task_scheduler.c ****    }
 210:E:/NeuOrga/Programmieren/c_cpp/github_os/input/src/os_base\os_task_scheduler.c **** }
 289              		.loc 1 210 0
 290 01d2 C9       		leave
 291              		.cfi_restore 5
 292              		.cfi_def_cfa 4, 4
 293 01d3 C3       		ret
 294              		.cfi_endproc
 295              	LFE3:
 297              	_OS_STARTTASK:
 298              	LFB4:
 211:E:/NeuOrga/Programmieren/c_cpp/github_os/input/src/os_base\os_task_scheduler.c **** Local void OS_STARTTASK(task_t* task)
 212:E:/NeuOrga/Programmieren/c_cpp/github_os/input/src/os_base\os_task_scheduler.c **** {
 299              		.loc 1 212 0
 300              		.cfi_startproc
 301 01d4 55       		pushl	%ebp
 302              		.cfi_def_cfa_offset 8
 303              		.cfi_offset 5, -8
 304 01d5 89E5     		movl	%esp, %ebp
 305              		.cfi_def_cfa_register 5
 306 01d7 83EC18   		subl	$24, %esp
 213:E:/NeuOrga/Programmieren/c_cpp/github_os/input/src/os_base\os_task_scheduler.c ****    /* OS_STARTTASK
GAS LISTING C:\Users\PRESID~1\AppData\Local\Temp\cc50m3V3.s 			page 11


 214:E:/NeuOrga/Programmieren/c_cpp/github_os/input/src/os_base\os_task_scheduler.c ****    - Disable interrupts
 215:E:/NeuOrga/Programmieren/c_cpp/github_os/input/src/os_base\os_task_scheduler.c ****    - restore Environment
 216:E:/NeuOrga/Programmieren/c_cpp/github_os/input/src/os_base\os_task_scheduler.c ****    - enable interrupts
 217:E:/NeuOrga/Programmieren/c_cpp/github_os/input/src/os_base\os_task_scheduler.c **** 
 218:E:/NeuOrga/Programmieren/c_cpp/github_os/input/src/os_base\os_task_scheduler.c ****    - Start Task
 219:E:/NeuOrga/Programmieren/c_cpp/github_os/input/src/os_base\os_task_scheduler.c ****     */
 220:E:/NeuOrga/Programmieren/c_cpp/github_os/input/src/os_base\os_task_scheduler.c ****    if(task != 0 && ((task->task_queued != False)||(task->IdleTask != False)))
 307              		.loc 1 220 0
 308 01da 837D0800 		cmpl	$0, 8(%ebp)
 309 01de 0F84E500 		je	L34
 309      0000
 310              		.loc 1 220 0 is_stmt 0 discriminator 1
 311 01e4 8B4508   		movl	8(%ebp), %eax
 312 01e7 8A00     		movb	(%eax), %al
 313 01e9 83E002   		andl	$2, %eax
 314 01ec 84C0     		testb	%al, %al
 315 01ee 7510     		jne	L36
 316              		.loc 1 220 0 discriminator 2
 317 01f0 8B4508   		movl	8(%ebp), %eax
 318 01f3 8A00     		movb	(%eax), %al
 319 01f5 83E004   		andl	$4, %eax
 320 01f8 84C0     		testb	%al, %al
 321 01fa 0F84C900 		je	L34
 321      0000
 322              	L36:
 221:E:/NeuOrga/Programmieren/c_cpp/github_os/input/src/os_base\os_task_scheduler.c ****    {
 222:E:/NeuOrga/Programmieren/c_cpp/github_os/input/src/os_base\os_task_scheduler.c ****       if(task->state_request !=0)
 323              		.loc 1 222 0 is_stmt 1
 324 0200 8B4508   		movl	8(%ebp), %eax
 325 0203 8B4030   		movl	48(%eax), %eax
 326 0206 85C0     		testl	%eax, %eax
 327 0208 0F84A700 		je	L37
 327      0000
 223:E:/NeuOrga/Programmieren/c_cpp/github_os/input/src/os_base\os_task_scheduler.c ****       {
 224:E:/NeuOrga/Programmieren/c_cpp/github_os/input/src/os_base\os_task_scheduler.c ****          if(task->state_request(task, Task_running)== Accepted)
 328              		.loc 1 224 0
 329 020e 8B4508   		movl	8(%ebp), %eax
 330 0211 8B4030   		movl	48(%eax), %eax
 331 0214 C7442404 		movl	$3, 4(%esp)
 331      03000000 
 332 021c 8B5508   		movl	8(%ebp), %edx
 333 021f 891424   		movl	%edx, (%esp)
 334 0222 FFD0     		call	*%eax
 335 0224 3C01     		cmpb	$1, %al
 336 0226 7577     		jne	L38
 225:E:/NeuOrga/Programmieren/c_cpp/github_os/input/src/os_base\os_task_scheduler.c ****          {
 226:E:/NeuOrga/Programmieren/c_cpp/github_os/input/src/os_base\os_task_scheduler.c ****             DisableInterrupts();
 227:E:/NeuOrga/Programmieren/c_cpp/github_os/input/src/os_base\os_task_scheduler.c ****             task->active =  True;
 337              		.loc 1 227 0
 338 0228 8B4508   		movl	8(%ebp), %eax
 339 022b 8A10     		movb	(%eax), %dl
 340 022d 83CA01   		orl	$1, %edx
 341 0230 8810     		movb	%dl, (%eax)
 228:E:/NeuOrga/Programmieren/c_cpp/github_os/input/src/os_base\os_task_scheduler.c ****             task->wait_time = 0;
 342              		.loc 1 228 0
 343 0232 8B4508   		movl	8(%ebp), %eax
 344 0235 C7400C00 		movl	$0, 12(%eax)
GAS LISTING C:\Users\PRESID~1\AppData\Local\Temp\cc50m3V3.s 			page 12


 344      000000
 229:E:/NeuOrga/Programmieren/c_cpp/github_os/input/src/os_base\os_task_scheduler.c ****             task->current_prio = task->default_prio;
 345              		.loc 1 229 0
 346 023c 8B4508   		movl	8(%ebp), %eax
 347 023f 8A5025   		movb	37(%eax), %dl
 348 0242 8B4508   		movl	8(%ebp), %eax
 349 0245 885024   		movb	%dl, 36(%eax)
 230:E:/NeuOrga/Programmieren/c_cpp/github_os/input/src/os_base\os_task_scheduler.c ****             OS_TASK_SAVE_SYSTEM_STACK(&OS_STACK[GET_CORE_ID()][0]);
 350              		.loc 1 230 0
 351 0248 E8000000 		call	_GET_CORE_ID
 351      00
 352 024d C1E008   		sall	$8, %eax
 353 0250 05000000 		addl	$_OS_STACK, %eax
 353      00
 354 0255 890424   		movl	%eax, (%esp)
 355 0258 E8000000 		call	_OS_TASK_SAVE_SYSTEM_STACK
 355      00
 231:E:/NeuOrga/Programmieren/c_cpp/github_os/input/src/os_base\os_task_scheduler.c ****             OS_TASK_RESTORETASK_ENVIRONMENT(task);
 356              		.loc 1 231 0
 357 025d 8B4508   		movl	8(%ebp), %eax
 358 0260 890424   		movl	%eax, (%esp)
 359 0263 E8000000 		call	_OS_TASK_RESTORETASK_ENVIRONMENT
 359      00
 232:E:/NeuOrga/Programmieren/c_cpp/github_os/input/src/os_base\os_task_scheduler.c ****             task->start_time = Get_current_time();
 360              		.loc 1 232 0
 361 0268 E8000000 		call	_Get_current_time
 361      00
 362 026d 89C2     		movl	%eax, %edx
 363 026f 8B4508   		movl	8(%ebp), %eax
 364 0272 895020   		movl	%edx, 32(%eax)
 233:E:/NeuOrga/Programmieren/c_cpp/github_os/input/src/os_base\os_task_scheduler.c ****             EnableInterrupts();
 234:E:/NeuOrga/Programmieren/c_cpp/github_os/input/src/os_base\os_task_scheduler.c **** 
 235:E:/NeuOrga/Programmieren/c_cpp/github_os/input/src/os_base\os_task_scheduler.c ****             /* task execution shall not happen with disabled interrupts */
 236:E:/NeuOrga/Programmieren/c_cpp/github_os/input/src/os_base\os_task_scheduler.c ****             SET_RUNNING_TASK(task);
 365              		.loc 1 236 0
 366 0275 8B4508   		movl	8(%ebp), %eax
 367 0278 890424   		movl	%eax, (%esp)
 368 027b E8000000 		call	_SET_RUNNING_TASK
 368      00
 237:E:/NeuOrga/Programmieren/c_cpp/github_os/input/src/os_base\os_task_scheduler.c ****             /* change to user mode... */
 238:E:/NeuOrga/Programmieren/c_cpp/github_os/input/src/os_base\os_task_scheduler.c ****             if(task->task_kernel_mode == False)
 369              		.loc 1 238 0
 370 0280 8B4508   		movl	8(%ebp), %eax
 371 0283 8A4060   		movb	96(%eax), %al
 372 0286 84C0     		testb	%al, %al
 373 0288 7505     		jne	L39
 239:E:/NeuOrga/Programmieren/c_cpp/github_os/input/src/os_base\os_task_scheduler.c ****             {
 240:E:/NeuOrga/Programmieren/c_cpp/github_os/input/src/os_base\os_task_scheduler.c ****                LLF_CHANGE_TO_USER_MODE();
 374              		.loc 1 240 0
 375 028a E8000000 		call	_LLF_CHANGE_TO_USER_MODE
 375      00
 376              	L39:
 241:E:/NeuOrga/Programmieren/c_cpp/github_os/input/src/os_base\os_task_scheduler.c ****             }            
 242:E:/NeuOrga/Programmieren/c_cpp/github_os/input/src/os_base\os_task_scheduler.c ****   
 243:E:/NeuOrga/Programmieren/c_cpp/github_os/input/src/os_base\os_task_scheduler.c ****             /* call the task entry function */  
 244:E:/NeuOrga/Programmieren/c_cpp/github_os/input/src/os_base\os_task_scheduler.c ****             task->fp(task);
 377              		.loc 1 244 0
GAS LISTING C:\Users\PRESID~1\AppData\Local\Temp\cc50m3V3.s 			page 13


 378 028f 8B4508   		movl	8(%ebp), %eax
 379 0292 8B402C   		movl	44(%eax), %eax
 380 0295 8B5508   		movl	8(%ebp), %edx
 381 0298 891424   		movl	%edx, (%esp)
 382 029b FFD0     		call	*%eax
 383 029d EB2A     		jmp	L34
 384              	L38:
 245:E:/NeuOrga/Programmieren/c_cpp/github_os/input/src/os_base\os_task_scheduler.c ****          }
 246:E:/NeuOrga/Programmieren/c_cpp/github_os/input/src/os_base\os_task_scheduler.c ****          else
 247:E:/NeuOrga/Programmieren/c_cpp/github_os/input/src/os_base\os_task_scheduler.c ****          {
 248:E:/NeuOrga/Programmieren/c_cpp/github_os/input/src/os_base\os_task_scheduler.c ****             OS_SET_SW_BUG(os_bug_taskstate_request_denied, Func_StartTask);
 385              		.loc 1 248 0
 386 029f C7442404 		movl	$5, 4(%esp)
 386      05000000 
 387 02a7 C7042401 		movl	$1, (%esp)
 387      000000
 388 02ae E8000000 		call	_OS_SET_SW_BUG
 388      00
 389 02b3 EB14     		jmp	L34
 390              	L37:
 249:E:/NeuOrga/Programmieren/c_cpp/github_os/input/src/os_base\os_task_scheduler.c ****          }
 250:E:/NeuOrga/Programmieren/c_cpp/github_os/input/src/os_base\os_task_scheduler.c **** 
 251:E:/NeuOrga/Programmieren/c_cpp/github_os/input/src/os_base\os_task_scheduler.c ****       }
 252:E:/NeuOrga/Programmieren/c_cpp/github_os/input/src/os_base\os_task_scheduler.c ****       else
 253:E:/NeuOrga/Programmieren/c_cpp/github_os/input/src/os_base\os_task_scheduler.c ****       {
 254:E:/NeuOrga/Programmieren/c_cpp/github_os/input/src/os_base\os_task_scheduler.c ****          OS_SET_SW_BUG(os_bug_null_pointer, Func_StartTask);
 391              		.loc 1 254 0
 392 02b5 C7442404 		movl	$5, 4(%esp)
 392      05000000 
 393 02bd C7042402 		movl	$2, (%esp)
 393      000000
 394 02c4 E8000000 		call	_OS_SET_SW_BUG
 394      00
 395              	L34:
 255:E:/NeuOrga/Programmieren/c_cpp/github_os/input/src/os_base\os_task_scheduler.c ****       }
 256:E:/NeuOrga/Programmieren/c_cpp/github_os/input/src/os_base\os_task_scheduler.c ****    }
 257:E:/NeuOrga/Programmieren/c_cpp/github_os/input/src/os_base\os_task_scheduler.c ****    /* allowed in case of empty QUEUE elements (queue elements which have no activate_task yet recei
 258:E:/NeuOrga/Programmieren/c_cpp/github_os/input/src/os_base\os_task_scheduler.c ****    else
 259:E:/NeuOrga/Programmieren/c_cpp/github_os/input/src/os_base\os_task_scheduler.c ****    {
 260:E:/NeuOrga/Programmieren/c_cpp/github_os/input/src/os_base\os_task_scheduler.c ****        OS_SET_SW_BUG(os_bug_null_pointer, Func_StartTask);
 261:E:/NeuOrga/Programmieren/c_cpp/github_os/input/src/os_base\os_task_scheduler.c ****    }
 262:E:/NeuOrga/Programmieren/c_cpp/github_os/input/src/os_base\os_task_scheduler.c ****    */
 263:E:/NeuOrga/Programmieren/c_cpp/github_os/input/src/os_base\os_task_scheduler.c **** }
 396              		.loc 1 263 0
 397 02c9 C9       		leave
 398              		.cfi_restore 5
 399              		.cfi_def_cfa 4, 4
 400 02ca C3       		ret
 401              		.cfi_endproc
 402              	LFE4:
 403              		.globl	_OS_TERMINATE_TASK
 405              	_OS_TERMINATE_TASK:
 406              	LFB5:
 264:E:/NeuOrga/Programmieren/c_cpp/github_os/input/src/os_base\os_task_scheduler.c **** void OS_TERMINATE_TASK(task_t* task)
 265:E:/NeuOrga/Programmieren/c_cpp/github_os/input/src/os_base\os_task_scheduler.c **** {
 407              		.loc 1 265 0
 408              		.cfi_startproc
GAS LISTING C:\Users\PRESID~1\AppData\Local\Temp\cc50m3V3.s 			page 14


 409 02cb 55       		pushl	%ebp
 410              		.cfi_def_cfa_offset 8
 411              		.cfi_offset 5, -8
 412 02cc 89E5     		movl	%esp, %ebp
 413              		.cfi_def_cfa_register 5
 414 02ce 83EC18   		subl	$24, %esp
 266:E:/NeuOrga/Programmieren/c_cpp/github_os/input/src/os_base\os_task_scheduler.c ****    /* Preempt task
 267:E:/NeuOrga/Programmieren/c_cpp/github_os/input/src/os_base\os_task_scheduler.c ****    - Disable Interrupts
 268:E:/NeuOrga/Programmieren/c_cpp/github_os/input/src/os_base\os_task_scheduler.c ****    - os_TASK_SAVETASK_ENVIRONMENT
 269:E:/NeuOrga/Programmieren/c_cpp/github_os/input/src/os_base\os_task_scheduler.c ****    - add to Schedule Queue / delete from RunQueue
 270:E:/NeuOrga/Programmieren/c_cpp/github_os/input/src/os_base\os_task_scheduler.c ****    - delete active flag
 271:E:/NeuOrga/Programmieren/c_cpp/github_os/input/src/os_base\os_task_scheduler.c ****    - enable Interrupts
 272:E:/NeuOrga/Programmieren/c_cpp/github_os/input/src/os_base\os_task_scheduler.c ****    */
 273:E:/NeuOrga/Programmieren/c_cpp/github_os/input/src/os_base\os_task_scheduler.c ****    if(task != 0)
 415              		.loc 1 273 0
 416 02d1 837D0800 		cmpl	$0, 8(%ebp)
 417 02d5 0F849400 		je	L42
 417      0000
 274:E:/NeuOrga/Programmieren/c_cpp/github_os/input/src/os_base\os_task_scheduler.c ****    {
 275:E:/NeuOrga/Programmieren/c_cpp/github_os/input/src/os_base\os_task_scheduler.c ****       if(task->state_request != 0)
 418              		.loc 1 275 0
 419 02db 8B4508   		movl	8(%ebp), %eax
 420 02de 8B4030   		movl	48(%eax), %eax
 421 02e1 85C0     		testl	%eax, %eax
 422 02e3 7474     		je	L43
 276:E:/NeuOrga/Programmieren/c_cpp/github_os/input/src/os_base\os_task_scheduler.c ****       {
 277:E:/NeuOrga/Programmieren/c_cpp/github_os/input/src/os_base\os_task_scheduler.c ****          if((task->IdleTask != False)||(task->state_request(task, Task_ready)== Accepted))
 423              		.loc 1 277 0
 424 02e5 8B4508   		movl	8(%ebp), %eax
 425 02e8 8A00     		movb	(%eax), %al
 426 02ea 83E004   		andl	$4, %eax
 427 02ed 84C0     		testb	%al, %al
 428 02ef 751A     		jne	L44
 429              		.loc 1 277 0 is_stmt 0 discriminator 1
 430 02f1 8B4508   		movl	8(%ebp), %eax
 431 02f4 8B4030   		movl	48(%eax), %eax
 432 02f7 C7442404 		movl	$2, 4(%esp)
 432      02000000 
 433 02ff 8B5508   		movl	8(%ebp), %edx
 434 0302 891424   		movl	%edx, (%esp)
 435 0305 FFD0     		call	*%eax
 436 0307 3C01     		cmpb	$1, %al
 437 0309 7538     		jne	L45
 438              	L44:
 278:E:/NeuOrga/Programmieren/c_cpp/github_os/input/src/os_base\os_task_scheduler.c ****          {
 279:E:/NeuOrga/Programmieren/c_cpp/github_os/input/src/os_base\os_task_scheduler.c ****             DisableInterrupts();
 280:E:/NeuOrga/Programmieren/c_cpp/github_os/input/src/os_base\os_task_scheduler.c ****             OS_TASK_SAVETASK_ENVIRONMENT(task);
 439              		.loc 1 280 0 is_stmt 1
 440 030b 8B4508   		movl	8(%ebp), %eax
 441 030e 890424   		movl	%eax, (%esp)
 442 0311 E8000000 		call	_OS_TASK_SAVETASK_ENVIRONMENT
 442      00
 281:E:/NeuOrga/Programmieren/c_cpp/github_os/input/src/os_base\os_task_scheduler.c ****             OS_TASK_RESTORE_SYSTEM_STACK(&OS_STACK[GET_CORE_ID()][0]);
 443              		.loc 1 281 0
 444 0316 E8000000 		call	_GET_CORE_ID
 444      00
 445 031b C1E008   		sall	$8, %eax
GAS LISTING C:\Users\PRESID~1\AppData\Local\Temp\cc50m3V3.s 			page 15


 446 031e 05000000 		addl	$_OS_STACK, %eax
 446      00
 447 0323 890424   		movl	%eax, (%esp)
 448 0326 E8000000 		call	_OS_TASK_RESTORE_SYSTEM_STACK
 448      00
 282:E:/NeuOrga/Programmieren/c_cpp/github_os/input/src/os_base\os_task_scheduler.c **** 
 283:E:/NeuOrga/Programmieren/c_cpp/github_os/input/src/os_base\os_task_scheduler.c ****             task->active = False;
 449              		.loc 1 283 0
 450 032b 8B4508   		movl	8(%ebp), %eax
 451 032e 8A10     		movb	(%eax), %dl
 452 0330 83E2FE   		andl	$-2, %edx
 453 0333 8810     		movb	%dl, (%eax)
 284:E:/NeuOrga/Programmieren/c_cpp/github_os/input/src/os_base\os_task_scheduler.c ****             /* reset the prio increase for waiting */
 285:E:/NeuOrga/Programmieren/c_cpp/github_os/input/src/os_base\os_task_scheduler.c ****             task->current_prio = task->default_prio;
 454              		.loc 1 285 0
 455 0335 8B4508   		movl	8(%ebp), %eax
 456 0338 8A5025   		movb	37(%eax), %dl
 457 033b 8B4508   		movl	8(%ebp), %eax
 458 033e 885024   		movb	%dl, 36(%eax)
 459 0341 EB40     		jmp	L41
 460              	L45:
 286:E:/NeuOrga/Programmieren/c_cpp/github_os/input/src/os_base\os_task_scheduler.c ****             EnableInterrupts();
 287:E:/NeuOrga/Programmieren/c_cpp/github_os/input/src/os_base\os_task_scheduler.c ****          }
 288:E:/NeuOrga/Programmieren/c_cpp/github_os/input/src/os_base\os_task_scheduler.c ****          else
 289:E:/NeuOrga/Programmieren/c_cpp/github_os/input/src/os_base\os_task_scheduler.c ****          {
 290:E:/NeuOrga/Programmieren/c_cpp/github_os/input/src/os_base\os_task_scheduler.c ****             OS_SET_SW_BUG(os_bug_taskstate_request_denied, Func_TerminateTask);
 461              		.loc 1 290 0
 462 0343 C7442404 		movl	$7, 4(%esp)
 462      07000000 
 463 034b C7042401 		movl	$1, (%esp)
 463      000000
 464 0352 E8000000 		call	_OS_SET_SW_BUG
 464      00
 465 0357 EB2A     		jmp	L41
 466              	L43:
 291:E:/NeuOrga/Programmieren/c_cpp/github_os/input/src/os_base\os_task_scheduler.c ****          }
 292:E:/NeuOrga/Programmieren/c_cpp/github_os/input/src/os_base\os_task_scheduler.c ****       }
 293:E:/NeuOrga/Programmieren/c_cpp/github_os/input/src/os_base\os_task_scheduler.c ****       else
 294:E:/NeuOrga/Programmieren/c_cpp/github_os/input/src/os_base\os_task_scheduler.c ****       {
 295:E:/NeuOrga/Programmieren/c_cpp/github_os/input/src/os_base\os_task_scheduler.c ****          OS_SET_SW_BUG(os_bug_null_pointer, Func_TerminateTask);
 467              		.loc 1 295 0
 468 0359 C7442404 		movl	$7, 4(%esp)
 468      07000000 
 469 0361 C7042402 		movl	$2, (%esp)
 469      000000
 470 0368 E8000000 		call	_OS_SET_SW_BUG
 470      00
 471 036d EB14     		jmp	L41
 472              	L42:
 296:E:/NeuOrga/Programmieren/c_cpp/github_os/input/src/os_base\os_task_scheduler.c ****       }
 297:E:/NeuOrga/Programmieren/c_cpp/github_os/input/src/os_base\os_task_scheduler.c **** 
 298:E:/NeuOrga/Programmieren/c_cpp/github_os/input/src/os_base\os_task_scheduler.c ****    }
 299:E:/NeuOrga/Programmieren/c_cpp/github_os/input/src/os_base\os_task_scheduler.c ****    else
 300:E:/NeuOrga/Programmieren/c_cpp/github_os/input/src/os_base\os_task_scheduler.c ****    {
 301:E:/NeuOrga/Programmieren/c_cpp/github_os/input/src/os_base\os_task_scheduler.c ****       OS_SET_SW_BUG(os_bug_null_pointer, Func_TerminateTask);
 473              		.loc 1 301 0
 474 036f C7442404 		movl	$7, 4(%esp)
GAS LISTING C:\Users\PRESID~1\AppData\Local\Temp\cc50m3V3.s 			page 16


 474      07000000 
 475 0377 C7042402 		movl	$2, (%esp)
 475      000000
 476 037e E8000000 		call	_OS_SET_SW_BUG
 476      00
 477              	L41:
 302:E:/NeuOrga/Programmieren/c_cpp/github_os/input/src/os_base\os_task_scheduler.c ****    }
 303:E:/NeuOrga/Programmieren/c_cpp/github_os/input/src/os_base\os_task_scheduler.c **** }
 478              		.loc 1 303 0
 479 0383 C9       		leave
 480              		.cfi_restore 5
 481              		.cfi_def_cfa 4, 4
 482 0384 C3       		ret
 483              		.cfi_endproc
 484              	LFE5:
 485              		.globl	_OS_TASK_DISPATCHER
 487              	_OS_TASK_DISPATCHER:
 488              	LFB6:
 304:E:/NeuOrga/Programmieren/c_cpp/github_os/input/src/os_base\os_task_scheduler.c **** void OS_TASK_DISPATCHER(void)
 305:E:/NeuOrga/Programmieren/c_cpp/github_os/input/src/os_base\os_task_scheduler.c **** {
 489              		.loc 1 305 0
 490              		.cfi_startproc
 491 0385 55       		pushl	%ebp
 492              		.cfi_def_cfa_offset 8
 493              		.cfi_offset 5, -8
 494 0386 89E5     		movl	%esp, %ebp
 495              		.cfi_def_cfa_register 5
 496 0388 83EC28   		subl	$40, %esp
 306:E:/NeuOrga/Programmieren/c_cpp/github_os/input/src/os_base\os_task_scheduler.c ****    /* called in an certain core context (Core_0/1/2/3)*/
 307:E:/NeuOrga/Programmieren/c_cpp/github_os/input/src/os_base\os_task_scheduler.c **** 
 308:E:/NeuOrga/Programmieren/c_cpp/github_os/input/src/os_base\os_task_scheduler.c **** 
 309:E:/NeuOrga/Programmieren/c_cpp/github_os/input/src/os_base\os_task_scheduler.c ****    /*
 310:E:/NeuOrga/Programmieren/c_cpp/github_os/input/src/os_base\os_task_scheduler.c ****    1. running     --(terminate)--> suspend
 311:E:/NeuOrga/Programmieren/c_cpp/github_os/input/src/os_base\os_task_scheduler.c ****    2. running     --(preempt  )--> ready
 312:E:/NeuOrga/Programmieren/c_cpp/github_os/input/src/os_base\os_task_scheduler.c ****    3. suspend     --(activate )--> ready
 313:E:/NeuOrga/Programmieren/c_cpp/github_os/input/src/os_base\os_task_scheduler.c ****    4. ready       --(start    )--> running
 314:E:/NeuOrga/Programmieren/c_cpp/github_os/input/src/os_base\os_task_scheduler.c ****    5. unspecified --(create   )--> suspend
 315:E:/NeuOrga/Programmieren/c_cpp/github_os/input/src/os_base\os_task_scheduler.c ****    */
 316:E:/NeuOrga/Programmieren/c_cpp/github_os/input/src/os_base\os_task_scheduler.c ****    task_t* task = 0;
 497              		.loc 1 316 0
 498 038b C745F400 		movl	$0, -12(%ebp)
 498      000000
 317:E:/NeuOrga/Programmieren/c_cpp/github_os/input/src/os_base\os_task_scheduler.c ****    /* get running task */
 318:E:/NeuOrga/Programmieren/c_cpp/github_os/input/src/os_base\os_task_scheduler.c ****    task = GetRunningTask(); /* bug: at first call of TaskSheduler*//* might reply tasks in state re
 499              		.loc 1 318 0
 500 0392 E8000000 		call	_GetRunningTask
 500      00
 501 0397 8945F4   		movl	%eax, -12(%ebp)
 319:E:/NeuOrga/Programmieren/c_cpp/github_os/input/src/os_base\os_task_scheduler.c **** 
 320:E:/NeuOrga/Programmieren/c_cpp/github_os/input/src/os_base\os_task_scheduler.c ****    /* Preempt Task */
 321:E:/NeuOrga/Programmieren/c_cpp/github_os/input/src/os_base\os_task_scheduler.c ****    if(task!=0)
 502              		.loc 1 321 0
 503 039a 837DF400 		cmpl	$0, -12(%ebp)
 504 039e 740B     		je	L50
 322:E:/NeuOrga/Programmieren/c_cpp/github_os/input/src/os_base\os_task_scheduler.c ****    {
 323:E:/NeuOrga/Programmieren/c_cpp/github_os/input/src/os_base\os_task_scheduler.c ****       OS_TERMINATE_TASK(task);   
 505              		.loc 1 323 0
GAS LISTING C:\Users\PRESID~1\AppData\Local\Temp\cc50m3V3.s 			page 17


 506 03a0 8B45F4   		movl	-12(%ebp), %eax
 507 03a3 890424   		movl	%eax, (%esp)
 508 03a6 E820FFFF 		call	_OS_TERMINATE_TASK
 508      FF
 509              	L50:
 324:E:/NeuOrga/Programmieren/c_cpp/github_os/input/src/os_base\os_task_scheduler.c ****    }   
 325:E:/NeuOrga/Programmieren/c_cpp/github_os/input/src/os_base\os_task_scheduler.c ****    
 326:E:/NeuOrga/Programmieren/c_cpp/github_os/input/src/os_base\os_task_scheduler.c **** 
 327:E:/NeuOrga/Programmieren/c_cpp/github_os/input/src/os_base\os_task_scheduler.c ****    /* ask for the next task to be activated... */
 328:E:/NeuOrga/Programmieren/c_cpp/github_os/input/src/os_base\os_task_scheduler.c ****    task = OS_TaskScheduler();
 510              		.loc 1 328 0
 511 03ab E88B0100 		call	_OS_TaskScheduler
 511      00
 512 03b0 8945F4   		movl	%eax, -12(%ebp)
 329:E:/NeuOrga/Programmieren/c_cpp/github_os/input/src/os_base\os_task_scheduler.c **** 
 330:E:/NeuOrga/Programmieren/c_cpp/github_os/input/src/os_base\os_task_scheduler.c ****    OS_STARTTASK(task);
 513              		.loc 1 330 0
 514 03b3 8B45F4   		movl	-12(%ebp), %eax
 515 03b6 890424   		movl	%eax, (%esp)
 516 03b9 E816FEFF 		call	_OS_STARTTASK
 516      FF
 331:E:/NeuOrga/Programmieren/c_cpp/github_os/input/src/os_base\os_task_scheduler.c **** }
 517              		.loc 1 331 0
 518 03be C9       		leave
 519              		.cfi_restore 5
 520              		.cfi_def_cfa 4, 4
 521 03bf C3       		ret
 522              		.cfi_endproc
 523              	LFE6:
 525              	_TASK_0:
 526              	LFB7:
 332:E:/NeuOrga/Programmieren/c_cpp/github_os/input/src/os_base\os_task_scheduler.c **** Local void TASK_0(void* task_ptr)
 333:E:/NeuOrga/Programmieren/c_cpp/github_os/input/src/os_base\os_task_scheduler.c **** {
 527              		.loc 1 333 0
 528              		.cfi_startproc
 529 03c0 55       		pushl	%ebp
 530              		.cfi_def_cfa_offset 8
 531              		.cfi_offset 5, -8
 532 03c1 89E5     		movl	%esp, %ebp
 533              		.cfi_def_cfa_register 5
 334:E:/NeuOrga/Programmieren/c_cpp/github_os/input/src/os_base\os_task_scheduler.c ****    ReferenceUnusedParameter(task_ptr);
 335:E:/NeuOrga/Programmieren/c_cpp/github_os/input/src/os_base\os_task_scheduler.c ****    HaltMcu();/* HLT will be ended by timer interrupt, what shall be done with the rest of the funct
 336:E:/NeuOrga/Programmieren/c_cpp/github_os/input/src/os_base\os_task_scheduler.c **** }
 534              		.loc 1 336 0
 535 03c3 5D       		popl	%ebp
 536              		.cfi_restore 5
 537              		.cfi_def_cfa 4, 4
 538 03c4 C3       		ret
 539              		.cfi_endproc
 540              	LFE7:
 542              	_TASK_1:
 543              	LFB8:
 337:E:/NeuOrga/Programmieren/c_cpp/github_os/input/src/os_base\os_task_scheduler.c **** Local void TASK_1(void* task_ptr)
 338:E:/NeuOrga/Programmieren/c_cpp/github_os/input/src/os_base\os_task_scheduler.c **** {
 544              		.loc 1 338 0
 545              		.cfi_startproc
 546 03c5 55       		pushl	%ebp
GAS LISTING C:\Users\PRESID~1\AppData\Local\Temp\cc50m3V3.s 			page 18


 547              		.cfi_def_cfa_offset 8
 548              		.cfi_offset 5, -8
 549 03c6 89E5     		movl	%esp, %ebp
 550              		.cfi_def_cfa_register 5
 551 03c8 83EC18   		subl	$24, %esp
 339:E:/NeuOrga/Programmieren/c_cpp/github_os/input/src/os_base\os_task_scheduler.c ****    ReferenceUnusedParameter(task_ptr);
 340:E:/NeuOrga/Programmieren/c_cpp/github_os/input/src/os_base\os_task_scheduler.c ****    /* worker task */
 341:E:/NeuOrga/Programmieren/c_cpp/github_os/input/src/os_base\os_task_scheduler.c **** 
 342:E:/NeuOrga/Programmieren/c_cpp/github_os/input/src/os_base\os_task_scheduler.c ****    /* do some things */
 343:E:/NeuOrga/Programmieren/c_cpp/github_os/input/src/os_base\os_task_scheduler.c ****    /*while(1) {}*/
 344:E:/NeuOrga/Programmieren/c_cpp/github_os/input/src/os_base\os_task_scheduler.c ****    OS_SLEEPTASK((task_t*)task_ptr, 100000000);
 552              		.loc 1 344 0
 553 03cb C7442404 		movl	$100000000, 4(%esp)
 553      00E1F505 
 554 03d3 8B4508   		movl	8(%ebp), %eax
 555 03d6 890424   		movl	%eax, (%esp)
 556 03d9 E827FCFF 		call	_OS_SLEEPTASK
 556      FF
 345:E:/NeuOrga/Programmieren/c_cpp/github_os/input/src/os_base\os_task_scheduler.c **** 
 346:E:/NeuOrga/Programmieren/c_cpp/github_os/input/src/os_base\os_task_scheduler.c ****    /* end */
 347:E:/NeuOrga/Programmieren/c_cpp/github_os/input/src/os_base\os_task_scheduler.c **** }
 557              		.loc 1 347 0
 558 03de C9       		leave
 559              		.cfi_restore 5
 560              		.cfi_def_cfa 4, 4
 561 03df C3       		ret
 562              		.cfi_endproc
 563              	LFE8:
 565              	_TASK_2:
 566              	LFB9:
 348:E:/NeuOrga/Programmieren/c_cpp/github_os/input/src/os_base\os_task_scheduler.c **** Local void TASK_2(void* task_ptr)
 349:E:/NeuOrga/Programmieren/c_cpp/github_os/input/src/os_base\os_task_scheduler.c **** {
 567              		.loc 1 349 0
 568              		.cfi_startproc
 569 03e0 55       		pushl	%ebp
 570              		.cfi_def_cfa_offset 8
 571              		.cfi_offset 5, -8
 572 03e1 89E5     		movl	%esp, %ebp
 573              		.cfi_def_cfa_register 5
 350:E:/NeuOrga/Programmieren/c_cpp/github_os/input/src/os_base\os_task_scheduler.c ****    ReferenceUnusedParameter(task_ptr);
 351:E:/NeuOrga/Programmieren/c_cpp/github_os/input/src/os_base\os_task_scheduler.c ****    /* worker task */
 352:E:/NeuOrga/Programmieren/c_cpp/github_os/input/src/os_base\os_task_scheduler.c **** 
 353:E:/NeuOrga/Programmieren/c_cpp/github_os/input/src/os_base\os_task_scheduler.c ****    /* do some things */
 354:E:/NeuOrga/Programmieren/c_cpp/github_os/input/src/os_base\os_task_scheduler.c ****    /*while(1) {}*/
 355:E:/NeuOrga/Programmieren/c_cpp/github_os/input/src/os_base\os_task_scheduler.c **** 
 356:E:/NeuOrga/Programmieren/c_cpp/github_os/input/src/os_base\os_task_scheduler.c ****    /* end */
 357:E:/NeuOrga/Programmieren/c_cpp/github_os/input/src/os_base\os_task_scheduler.c **** }
 574              		.loc 1 357 0
 575 03e3 5D       		popl	%ebp
 576              		.cfi_restore 5
 577              		.cfi_def_cfa 4, 4
 578 03e4 C3       		ret
 579              		.cfi_endproc
 580              	LFE9:
 582              	_TASK_3:
 583              	LFB10:
 358:E:/NeuOrga/Programmieren/c_cpp/github_os/input/src/os_base\os_task_scheduler.c **** Local void TASK_3(void* task_ptr)
GAS LISTING C:\Users\PRESID~1\AppData\Local\Temp\cc50m3V3.s 			page 19


 359:E:/NeuOrga/Programmieren/c_cpp/github_os/input/src/os_base\os_task_scheduler.c **** {
 584              		.loc 1 359 0
 585              		.cfi_startproc
 586 03e5 55       		pushl	%ebp
 587              		.cfi_def_cfa_offset 8
 588              		.cfi_offset 5, -8
 589 03e6 89E5     		movl	%esp, %ebp
 590              		.cfi_def_cfa_register 5
 360:E:/NeuOrga/Programmieren/c_cpp/github_os/input/src/os_base\os_task_scheduler.c ****    ReferenceUnusedParameter(task_ptr);
 361:E:/NeuOrga/Programmieren/c_cpp/github_os/input/src/os_base\os_task_scheduler.c ****    /* worker task */
 362:E:/NeuOrga/Programmieren/c_cpp/github_os/input/src/os_base\os_task_scheduler.c **** 
 363:E:/NeuOrga/Programmieren/c_cpp/github_os/input/src/os_base\os_task_scheduler.c ****    /* do some things */
 364:E:/NeuOrga/Programmieren/c_cpp/github_os/input/src/os_base\os_task_scheduler.c ****    /*while(1) {}*/
 365:E:/NeuOrga/Programmieren/c_cpp/github_os/input/src/os_base\os_task_scheduler.c **** 
 366:E:/NeuOrga/Programmieren/c_cpp/github_os/input/src/os_base\os_task_scheduler.c ****    /* end */
 367:E:/NeuOrga/Programmieren/c_cpp/github_os/input/src/os_base\os_task_scheduler.c **** }
 591              		.loc 1 367 0
 592 03e8 5D       		popl	%ebp
 593              		.cfi_restore 5
 594              		.cfi_def_cfa 4, 4
 595 03e9 C3       		ret
 596              		.cfi_endproc
 597              	LFE10:
 598              		.globl	_OS_INIT_TASKS
 600              	_OS_INIT_TASKS:
 601              	LFB11:
 368:E:/NeuOrga/Programmieren/c_cpp/github_os/input/src/os_base\os_task_scheduler.c **** void OS_INIT_TASKS(void)
 369:E:/NeuOrga/Programmieren/c_cpp/github_os/input/src/os_base\os_task_scheduler.c **** {
 602              		.loc 1 369 0
 603              		.cfi_startproc
 604 03ea 55       		pushl	%ebp
 605              		.cfi_def_cfa_offset 8
 606              		.cfi_offset 5, -8
 607 03eb 89E5     		movl	%esp, %ebp
 608              		.cfi_def_cfa_register 5
 609 03ed 83EC38   		subl	$56, %esp
 370:E:/NeuOrga/Programmieren/c_cpp/github_os/input/src/os_base\os_task_scheduler.c ****    Local task_t task_0, task_1, task_2, task_3;
 371:E:/NeuOrga/Programmieren/c_cpp/github_os/input/src/os_base\os_task_scheduler.c ****    Local task_group_t TASK_GROUP_1;
 372:E:/NeuOrga/Programmieren/c_cpp/github_os/input/src/os_base\os_task_scheduler.c ****    Local task_group_t TASK_GROUP_2;
 373:E:/NeuOrga/Programmieren/c_cpp/github_os/input/src/os_base\os_task_scheduler.c ****    Local task_group_t TASK_GROUP_3;
 374:E:/NeuOrga/Programmieren/c_cpp/github_os/input/src/os_base\os_task_scheduler.c ****    Local task_group_t TASK_GROUP_4;
 375:E:/NeuOrga/Programmieren/c_cpp/github_os/input/src/os_base\os_task_scheduler.c ****    Local task_group_t TASK_GROUP_5;
 376:E:/NeuOrga/Programmieren/c_cpp/github_os/input/src/os_base\os_task_scheduler.c ****    task_t* task_ptr = 0;
 610              		.loc 1 376 0
 611 03f0 C745F400 		movl	$0, -12(%ebp)
 611      000000
 377:E:/NeuOrga/Programmieren/c_cpp/github_os/input/src/os_base\os_task_scheduler.c ****    LAST_CURRENT_TIME = Get_current_time();
 612              		.loc 1 377 0
 613 03f7 E8000000 		call	_Get_current_time
 613      00
 614 03fc A3E80300 		movl	%eax, _LAST_CURRENT_TIME
 614      00
 378:E:/NeuOrga/Programmieren/c_cpp/github_os/input/src/os_base\os_task_scheduler.c **** 
 379:E:/NeuOrga/Programmieren/c_cpp/github_os/input/src/os_base\os_task_scheduler.c ****    ReferenceUnusedParameter (TASK_GROUP_1);
 380:E:/NeuOrga/Programmieren/c_cpp/github_os/input/src/os_base\os_task_scheduler.c ****    ReferenceUnusedParameter (TASK_GROUP_2);
 381:E:/NeuOrga/Programmieren/c_cpp/github_os/input/src/os_base\os_task_scheduler.c ****    ReferenceUnusedParameter (TASK_GROUP_3);
 382:E:/NeuOrga/Programmieren/c_cpp/github_os/input/src/os_base\os_task_scheduler.c ****    ReferenceUnusedParameter (TASK_GROUP_4);
GAS LISTING C:\Users\PRESID~1\AppData\Local\Temp\cc50m3V3.s 			page 20


 383:E:/NeuOrga/Programmieren/c_cpp/github_os/input/src/os_base\os_task_scheduler.c ****    ReferenceUnusedParameter (TASK_GROUP_5);
 384:E:/NeuOrga/Programmieren/c_cpp/github_os/input/src/os_base\os_task_scheduler.c **** 
 385:E:/NeuOrga/Programmieren/c_cpp/github_os/input/src/os_base\os_task_scheduler.c ****     /*
 386:E:/NeuOrga/Programmieren/c_cpp/github_os/input/src/os_base\os_task_scheduler.c ****    set task_state for all tasks to Task_unspecified
 387:E:/NeuOrga/Programmieren/c_cpp/github_os/input/src/os_base\os_task_scheduler.c ****     */
 388:E:/NeuOrga/Programmieren/c_cpp/github_os/input/src/os_base\os_task_scheduler.c ****    OS_INIT_TASK_QUEUE();
 615              		.loc 1 388 0
 616 0401 E8000000 		call	_OS_INIT_TASK_QUEUE
 616      00
 389:E:/NeuOrga/Programmieren/c_cpp/github_os/input/src/os_base\os_task_scheduler.c **** 
 390:E:/NeuOrga/Programmieren/c_cpp/github_os/input/src/os_base\os_task_scheduler.c ****    /* setup idle task */
 391:E:/NeuOrga/Programmieren/c_cpp/github_os/input/src/os_base\os_task_scheduler.c ****    task_ptr = &task_0;
 617              		.loc 1 391 0
 618 0406 C745F420 		movl	$_task_0.1359, -12(%ebp)
 618      040000
 392:E:/NeuOrga/Programmieren/c_cpp/github_os/input/src/os_base\os_task_scheduler.c ****    OS_INIT_TASK(task_ptr,                          /* task */
 619              		.loc 1 392 0
 620 040d C744241C 		movl	$1, 28(%esp)
 620      01000000 
 621 0415 C7442418 		movl	$200, 24(%esp)
 621      C8000000 
 622 041d C7442414 		movl	$_TASK_STACK, 20(%esp)
 622      00000000 
 623 0425 C7442410 		movl	$_TASK_GROUP_1.1363, 16(%esp)
 623      EC030000 
 624 042d C744240C 		movl	$1, 12(%esp)
 624      01000000 
 625 0435 C7442408 		movl	$1, 8(%esp)
 625      01000000 
 626 043d C7442404 		movl	$_TASK_0, 4(%esp)
 626      C0030000 
 627 0445 8B45F4   		movl	-12(%ebp), %eax
 628 0448 890424   		movl	%eax, (%esp)
 629 044b E8000000 		call	_OS_INIT_TASK
 629      00
 393:E:/NeuOrga/Programmieren/c_cpp/github_os/input/src/os_base\os_task_scheduler.c ****                 &TASK_0,                           /* Task Function*/
 394:E:/NeuOrga/Programmieren/c_cpp/github_os/input/src/os_base\os_task_scheduler.c ****                 1,                                 /* Nr of allowed instances*/
 395:E:/NeuOrga/Programmieren/c_cpp/github_os/input/src/os_base\os_task_scheduler.c ****                 True,                              /* Idle Task */
 396:E:/NeuOrga/Programmieren/c_cpp/github_os/input/src/os_base\os_task_scheduler.c ****                 &TASK_GROUP_1,                     /* Task Group */
 397:E:/NeuOrga/Programmieren/c_cpp/github_os/input/src/os_base\os_task_scheduler.c ****                 (unsigned_char_t*)&TASK_STACK[0],  /* Task_stack */
 398:E:/NeuOrga/Programmieren/c_cpp/github_os/input/src/os_base\os_task_scheduler.c ****                 200,                                /* Stack Size */
 399:E:/NeuOrga/Programmieren/c_cpp/github_os/input/src/os_base\os_task_scheduler.c ****                 True                                /* Kernel Mode */
 400:E:/NeuOrga/Programmieren/c_cpp/github_os/input/src/os_base\os_task_scheduler.c ****                );
 401:E:/NeuOrga/Programmieren/c_cpp/github_os/input/src/os_base\os_task_scheduler.c ****    OS_SaveTaskPtr(task_ptr, Task_0_ptr);
 402:E:/NeuOrga/Programmieren/c_cpp/github_os/input/src/os_base\os_task_scheduler.c **** 
 403:E:/NeuOrga/Programmieren/c_cpp/github_os/input/src/os_base\os_task_scheduler.c ****    /*set the idle-task as first running task, otherwise preempt might fail */
 404:E:/NeuOrga/Programmieren/c_cpp/github_os/input/src/os_base\os_task_scheduler.c ****    SET_RUNNING_TASK(task_ptr);
 630              		.loc 1 404 0
 631 0450 8B45F4   		movl	-12(%ebp), %eax
 632 0453 890424   		movl	%eax, (%esp)
 633 0456 E8000000 		call	_SET_RUNNING_TASK
 633      00
 405:E:/NeuOrga/Programmieren/c_cpp/github_os/input/src/os_base\os_task_scheduler.c **** 
 406:E:/NeuOrga/Programmieren/c_cpp/github_os/input/src/os_base\os_task_scheduler.c ****    /* setup worker task */
 407:E:/NeuOrga/Programmieren/c_cpp/github_os/input/src/os_base\os_task_scheduler.c ****    task_ptr = &task_1;
 634              		.loc 1 407 0
 635 045b C745F4A0 		movl	$_task_1.1360, -12(%ebp)
GAS LISTING C:\Users\PRESID~1\AppData\Local\Temp\cc50m3V3.s 			page 21


 635      040000
 408:E:/NeuOrga/Programmieren/c_cpp/github_os/input/src/os_base\os_task_scheduler.c ****    OS_INIT_TASK(task_ptr,      /* task */
 636              		.loc 1 408 0
 637 0462 C744241C 		movl	$0, 28(%esp)
 637      00000000 
 638 046a C7442418 		movl	$200, 24(%esp)
 638      C8000000 
 639 0472 C7442414 		movl	$_TASK_STACK+200, 20(%esp)
 639      C8000000 
 640 047a C7442410 		movl	$_TASK_GROUP_1.1363, 16(%esp)
 640      EC030000 
 641 0482 C744240C 		movl	$0, 12(%esp)
 641      00000000 
 642 048a C7442408 		movl	$1, 8(%esp)
 642      01000000 
 643 0492 C7442404 		movl	$_TASK_1, 4(%esp)
 643      C5030000 
 644 049a 8B45F4   		movl	-12(%ebp), %eax
 645 049d 890424   		movl	%eax, (%esp)
 646 04a0 E8000000 		call	_OS_INIT_TASK
 646      00
 409:E:/NeuOrga/Programmieren/c_cpp/github_os/input/src/os_base\os_task_scheduler.c ****                 &TASK_1,       /* Task Function*/
 410:E:/NeuOrga/Programmieren/c_cpp/github_os/input/src/os_base\os_task_scheduler.c ****                 1,             /* Nr of allowed instances*/
 411:E:/NeuOrga/Programmieren/c_cpp/github_os/input/src/os_base\os_task_scheduler.c ****                 False,          /* Idle Task */
 412:E:/NeuOrga/Programmieren/c_cpp/github_os/input/src/os_base\os_task_scheduler.c ****                 &TASK_GROUP_1, /* Task Group */
 413:E:/NeuOrga/Programmieren/c_cpp/github_os/input/src/os_base\os_task_scheduler.c ****                 (unsigned_char_t*)&TASK_STACK[1],/* Task_stack */
 414:E:/NeuOrga/Programmieren/c_cpp/github_os/input/src/os_base\os_task_scheduler.c ****                 200,            /* Stack Size */
 415:E:/NeuOrga/Programmieren/c_cpp/github_os/input/src/os_base\os_task_scheduler.c ****                 False           /* Kernel Mode */
 416:E:/NeuOrga/Programmieren/c_cpp/github_os/input/src/os_base\os_task_scheduler.c ****                );
 417:E:/NeuOrga/Programmieren/c_cpp/github_os/input/src/os_base\os_task_scheduler.c ****    OS_SaveTaskPtr(task_ptr, Task_1_ptr);
 418:E:/NeuOrga/Programmieren/c_cpp/github_os/input/src/os_base\os_task_scheduler.c **** 
 419:E:/NeuOrga/Programmieren/c_cpp/github_os/input/src/os_base\os_task_scheduler.c ****    /* setup worker task */
 420:E:/NeuOrga/Programmieren/c_cpp/github_os/input/src/os_base\os_task_scheduler.c ****    task_ptr = &task_2;
 647              		.loc 1 420 0
 648 04a5 C745F420 		movl	$_task_2.1361, -12(%ebp)
 648      050000
 421:E:/NeuOrga/Programmieren/c_cpp/github_os/input/src/os_base\os_task_scheduler.c ****    OS_INIT_TASK(task_ptr,      /* task */
 649              		.loc 1 421 0
 650 04ac C744241C 		movl	$0, 28(%esp)
 650      00000000 
 651 04b4 C7442418 		movl	$200, 24(%esp)
 651      C8000000 
 652 04bc C7442414 		movl	$_TASK_STACK+400, 20(%esp)
 652      90010000 
 653 04c4 C7442410 		movl	$_TASK_GROUP_2.1364, 16(%esp)
 653      F4030000 
 654 04cc C744240C 		movl	$0, 12(%esp)
 654      00000000 
 655 04d4 C7442408 		movl	$1, 8(%esp)
 655      01000000 
 656 04dc C7442404 		movl	$_TASK_2, 4(%esp)
 656      E0030000 
 657 04e4 8B45F4   		movl	-12(%ebp), %eax
 658 04e7 890424   		movl	%eax, (%esp)
 659 04ea E8000000 		call	_OS_INIT_TASK
 659      00
 422:E:/NeuOrga/Programmieren/c_cpp/github_os/input/src/os_base\os_task_scheduler.c ****                 &TASK_2,       /* Task Function*/
GAS LISTING C:\Users\PRESID~1\AppData\Local\Temp\cc50m3V3.s 			page 22


 423:E:/NeuOrga/Programmieren/c_cpp/github_os/input/src/os_base\os_task_scheduler.c ****                 1,             /* Nr of allowed instances*/
 424:E:/NeuOrga/Programmieren/c_cpp/github_os/input/src/os_base\os_task_scheduler.c ****                 False,          /* Idle Task */
 425:E:/NeuOrga/Programmieren/c_cpp/github_os/input/src/os_base\os_task_scheduler.c ****                 &TASK_GROUP_2, /* Task Group */
 426:E:/NeuOrga/Programmieren/c_cpp/github_os/input/src/os_base\os_task_scheduler.c ****                 (unsigned_char_t*)&TASK_STACK[2],/* Task_stack */
 427:E:/NeuOrga/Programmieren/c_cpp/github_os/input/src/os_base\os_task_scheduler.c ****                 200,            /* Stack Size */
 428:E:/NeuOrga/Programmieren/c_cpp/github_os/input/src/os_base\os_task_scheduler.c ****                 False           /* Kernel Mode */
 429:E:/NeuOrga/Programmieren/c_cpp/github_os/input/src/os_base\os_task_scheduler.c ****                );
 430:E:/NeuOrga/Programmieren/c_cpp/github_os/input/src/os_base\os_task_scheduler.c ****    OS_SaveTaskPtr(task_ptr, Task_2_ptr);
 431:E:/NeuOrga/Programmieren/c_cpp/github_os/input/src/os_base\os_task_scheduler.c **** 
 432:E:/NeuOrga/Programmieren/c_cpp/github_os/input/src/os_base\os_task_scheduler.c ****    /* setup worker task */
 433:E:/NeuOrga/Programmieren/c_cpp/github_os/input/src/os_base\os_task_scheduler.c ****    task_ptr = &task_3;
 660              		.loc 1 433 0
 661 04ef C745F4A0 		movl	$_task_3.1362, -12(%ebp)
 661      050000
 434:E:/NeuOrga/Programmieren/c_cpp/github_os/input/src/os_base\os_task_scheduler.c ****    OS_INIT_TASK(task_ptr,      /* task */
 662              		.loc 1 434 0
 663 04f6 C744241C 		movl	$1, 28(%esp)
 663      01000000 
 664 04fe C7442418 		movl	$200, 24(%esp)
 664      C8000000 
 665 0506 C7442414 		movl	$_TASK_STACK+600, 20(%esp)
 665      58020000 
 666 050e C7442410 		movl	$_TASK_GROUP_3.1365, 16(%esp)
 666      FC030000 
 667 0516 C744240C 		movl	$0, 12(%esp)
 667      00000000 
 668 051e C7442408 		movl	$1, 8(%esp)
 668      01000000 
 669 0526 C7442404 		movl	$_TASK_3, 4(%esp)
 669      E5030000 
 670 052e 8B45F4   		movl	-12(%ebp), %eax
 671 0531 890424   		movl	%eax, (%esp)
 672 0534 E8000000 		call	_OS_INIT_TASK
 672      00
 435:E:/NeuOrga/Programmieren/c_cpp/github_os/input/src/os_base\os_task_scheduler.c ****                 &TASK_3,       /* Task Function*/
 436:E:/NeuOrga/Programmieren/c_cpp/github_os/input/src/os_base\os_task_scheduler.c ****                 1,             /* Nr of allowed instances*/
 437:E:/NeuOrga/Programmieren/c_cpp/github_os/input/src/os_base\os_task_scheduler.c ****                 False,          /* Idle Task */
 438:E:/NeuOrga/Programmieren/c_cpp/github_os/input/src/os_base\os_task_scheduler.c ****                 &TASK_GROUP_3, /* Task Group */
 439:E:/NeuOrga/Programmieren/c_cpp/github_os/input/src/os_base\os_task_scheduler.c ****                 (unsigned_char_t*)&TASK_STACK[3],/* Task_stack */
 440:E:/NeuOrga/Programmieren/c_cpp/github_os/input/src/os_base\os_task_scheduler.c ****                 200,           /* Stack Size */
 441:E:/NeuOrga/Programmieren/c_cpp/github_os/input/src/os_base\os_task_scheduler.c ****                 True                                /* Kernel Mode */
 442:E:/NeuOrga/Programmieren/c_cpp/github_os/input/src/os_base\os_task_scheduler.c ****                );
 443:E:/NeuOrga/Programmieren/c_cpp/github_os/input/src/os_base\os_task_scheduler.c ****    OS_SaveTaskPtr(task_ptr, Task_3_ptr);   
 444:E:/NeuOrga/Programmieren/c_cpp/github_os/input/src/os_base\os_task_scheduler.c **** }
 673              		.loc 1 444 0
 674 0539 C9       		leave
 675              		.cfi_restore 5
 676              		.cfi_def_cfa 4, 4
 677 053a C3       		ret
 678              		.cfi_endproc
 679              	LFE11:
 681              	_OS_TaskScheduler:
 682              	LFB12:
 445:E:/NeuOrga/Programmieren/c_cpp/github_os/input/src/os_base\os_task_scheduler.c **** 
 446:E:/NeuOrga/Programmieren/c_cpp/github_os/input/src/os_base\os_task_scheduler.c **** 
 447:E:/NeuOrga/Programmieren/c_cpp/github_os/input/src/os_base\os_task_scheduler.c **** Local task_t* OS_TaskScheduler(void)
 448:E:/NeuOrga/Programmieren/c_cpp/github_os/input/src/os_base\os_task_scheduler.c **** {
GAS LISTING C:\Users\PRESID~1\AppData\Local\Temp\cc50m3V3.s 			page 23


 683              		.loc 1 448 0
 684              		.cfi_startproc
 685 053b 55       		pushl	%ebp
 686              		.cfi_def_cfa_offset 8
 687              		.cfi_offset 5, -8
 688 053c 89E5     		movl	%esp, %ebp
 689              		.cfi_def_cfa_register 5
 690 053e 53       		pushl	%ebx
 691 053f 83EC34   		subl	$52, %esp
 692              		.cfi_offset 3, -12
 449:E:/NeuOrga/Programmieren/c_cpp/github_os/input/src/os_base\os_task_scheduler.c ****    Local task_t* task = 0;
 450:E:/NeuOrga/Programmieren/c_cpp/github_os/input/src/os_base\os_task_scheduler.c ****    Local unsigned_char_t Winner_prio = 0;
 451:E:/NeuOrga/Programmieren/c_cpp/github_os/input/src/os_base\os_task_scheduler.c ****    task_t*         Winner_task = 0;
 693              		.loc 1 451 0
 694 0542 C745F400 		movl	$0, -12(%ebp)
 694      000000
 452:E:/NeuOrga/Programmieren/c_cpp/github_os/input/src/os_base\os_task_scheduler.c ****    Local link_list_t*    link_list_member;
 453:E:/NeuOrga/Programmieren/c_cpp/github_os/input/src/os_base\os_task_scheduler.c ****    unsigned_char_t       element_nr;
 454:E:/NeuOrga/Programmieren/c_cpp/github_os/input/src/os_base\os_task_scheduler.c **** 
 455:E:/NeuOrga/Programmieren/c_cpp/github_os/input/src/os_base\os_task_scheduler.c ****    scheduler_time_t delta_time = Get_current_time() - LAST_CURRENT_TIME;
 695              		.loc 1 455 0
 696 0549 E8000000 		call	_Get_current_time
 696      00
 697 054e 89C2     		movl	%eax, %edx
 698 0550 A1E80300 		movl	_LAST_CURRENT_TIME, %eax
 698      00
 699 0555 29C2     		subl	%eax, %edx
 700 0557 89D0     		movl	%edx, %eax
 701 0559 8945EC   		movl	%eax, -20(%ebp)
 456:E:/NeuOrga/Programmieren/c_cpp/github_os/input/src/os_base\os_task_scheduler.c ****    LAST_CURRENT_TIME = Get_current_time();
 702              		.loc 1 456 0
 703 055c E8000000 		call	_Get_current_time
 703      00
 704 0561 A3E80300 		movl	%eax, _LAST_CURRENT_TIME
 704      00
 457:E:/NeuOrga/Programmieren/c_cpp/github_os/input/src/os_base\os_task_scheduler.c **** 
 458:E:/NeuOrga/Programmieren/c_cpp/github_os/input/src/os_base\os_task_scheduler.c ****    /*
 459:E:/NeuOrga/Programmieren/c_cpp/github_os/input/src/os_base\os_task_scheduler.c ****    x const for single task: task->default_prio // low = 0,.....high=100
 460:E:/NeuOrga/Programmieren/c_cpp/github_os/input/src/os_base\os_task_scheduler.c ****    x var   for single task: task->current_prio // see prio_std
 461:E:/NeuOrga/Programmieren/c_cpp/github_os/input/src/os_base\os_task_scheduler.c ****    x var   for single task: task->wait_time    //
 462:E:/NeuOrga/Programmieren/c_cpp/github_os/input/src/os_base\os_task_scheduler.c ****    x var   for single task: task->exe_time
 463:E:/NeuOrga/Programmieren/c_cpp/github_os/input/src/os_base\os_task_scheduler.c ****    x const for single task: task->TimeToPrioInc
 464:E:/NeuOrga/Programmieren/c_cpp/github_os/input/src/os_base\os_task_scheduler.c ****    x const for single task: task->max_allowed_wait_time
 465:E:/NeuOrga/Programmieren/c_cpp/github_os/input/src/os_base\os_task_scheduler.c ****    x const for single task: task->min_allowed_wait_time
 466:E:/NeuOrga/Programmieren/c_cpp/github_os/input/src/os_base\os_task_scheduler.c ****    x const for single task: task->overwaittime_per_prio_inc_step //e.g. 100*MinTimeSlice_us
 467:E:/NeuOrga/Programmieren/c_cpp/github_os/input/src/os_base\os_task_scheduler.c ****    x const for single task: task->task_group  //to allow processor access control by groups (e.g. u
 468:E:/NeuOrga/Programmieren/c_cpp/github_os/input/src/os_base\os_task_scheduler.c ****    x const for single task: task->WaitActUntil
 469:E:/NeuOrga/Programmieren/c_cpp/github_os/input/src/os_base\os_task_scheduler.c ****    (task_group is designed to allow proccessor access control between e.g. Customer Software Task a
 470:E:/NeuOrga/Programmieren/c_cpp/github_os/input/src/os_base\os_task_scheduler.c ****    */
 471:E:/NeuOrga/Programmieren/c_cpp/github_os/input/src/os_base\os_task_scheduler.c ****    For_all_tasks_in_queue(element_nr)
 705              		.loc 1 471 0
 706 0566 C645F300 		movb	$0, -13(%ebp)
 707 056a E9230100 		jmp	L57
 707      00
 708              	L65:
 472:E:/NeuOrga/Programmieren/c_cpp/github_os/input/src/os_base\os_task_scheduler.c ****    {
 473:E:/NeuOrga/Programmieren/c_cpp/github_os/input/src/os_base\os_task_scheduler.c ****       link_list_member = GetFromLinkList(element_nr);
GAS LISTING C:\Users\PRESID~1\AppData\Local\Temp\cc50m3V3.s 			page 24


 709              		.loc 1 473 0
 710 056f 0FB645F3 		movzbl	-13(%ebp), %eax
 711 0573 890424   		movl	%eax, (%esp)
 712 0576 E8000000 		call	_GetFromLinkList
 712      00
 713 057b A3040600 		movl	%eax, _link_list_member.1375
 713      00
 474:E:/NeuOrga/Programmieren/c_cpp/github_os/input/src/os_base\os_task_scheduler.c ****       /*task will have a pointer on the task_obj, and might be equal to "(task_t*) 0" */
 475:E:/NeuOrga/Programmieren/c_cpp/github_os/input/src/os_base\os_task_scheduler.c ****       task             = GetFromTaskQueue(link_list_member);
 714              		.loc 1 475 0
 715 0580 A1040600 		movl	_link_list_member.1375, %eax
 715      00
 716 0585 890424   		movl	%eax, (%esp)
 717 0588 E8000000 		call	_GetFromTaskQueue
 717      00
 718 058d A3080600 		movl	%eax, _task.1372
 718      00
 476:E:/NeuOrga/Programmieren/c_cpp/github_os/input/src/os_base\os_task_scheduler.c ****       /* increase prio: high numbers->high prio */
 477:E:/NeuOrga/Programmieren/c_cpp/github_os/input/src/os_base\os_task_scheduler.c ****       if((task != 0)&&(task->task_queued != False))
 719              		.loc 1 477 0
 720 0592 A1080600 		movl	_task.1372, %eax
 720      00
 721 0597 85C0     		testl	%eax, %eax
 722 0599 0F84EC00 		je	L58
 722      0000
 723              		.loc 1 477 0 is_stmt 0 discriminator 1
 724 059f A1080600 		movl	_task.1372, %eax
 724      00
 725 05a4 8A00     		movb	(%eax), %al
 726 05a6 83E002   		andl	$2, %eax
 727 05a9 84C0     		testb	%al, %al
 728 05ab 0F84DA00 		je	L58
 728      0000
 478:E:/NeuOrga/Programmieren/c_cpp/github_os/input/src/os_base\os_task_scheduler.c ****       {
 479:E:/NeuOrga/Programmieren/c_cpp/github_os/input/src/os_base\os_task_scheduler.c ****          if(task->wait_time >= task->TimeToPrioInc)
 729              		.loc 1 479 0 is_stmt 1
 730 05b1 A1080600 		movl	_task.1372, %eax
 730      00
 731 05b6 8B500C   		movl	12(%eax), %edx
 732 05b9 A1080600 		movl	_task.1372, %eax
 732      00
 733 05be 8B4010   		movl	16(%eax), %eax
 734 05c1 39C2     		cmpl	%eax, %edx
 735 05c3 721C     		jb	L59
 480:E:/NeuOrga/Programmieren/c_cpp/github_os/input/src/os_base\os_task_scheduler.c ****          {
 481:E:/NeuOrga/Programmieren/c_cpp/github_os/input/src/os_base\os_task_scheduler.c ****             task->current_prio = task->current_prio + task->overwaittime_per_prio_inc_step;
 736              		.loc 1 481 0
 737 05c5 A1080600 		movl	_task.1372, %eax
 737      00
 738 05ca 8B150806 		movl	_task.1372, %edx
 738      0000
 739 05d0 8A4A24   		movb	36(%edx), %cl
 740 05d3 8B150806 		movl	_task.1372, %edx
 740      0000
 741 05d9 8B5214   		movl	20(%edx), %edx
 742 05dc 01CA     		addl	%ecx, %edx
 743 05de 885024   		movb	%dl, 36(%eax)
GAS LISTING C:\Users\PRESID~1\AppData\Local\Temp\cc50m3V3.s 			page 25


 744              	L59:
 482:E:/NeuOrga/Programmieren/c_cpp/github_os/input/src/os_base\os_task_scheduler.c ****          }
 483:E:/NeuOrga/Programmieren/c_cpp/github_os/input/src/os_base\os_task_scheduler.c ****          /* in case wait condition not yet fulfilled, set prio to 0 */
 484:E:/NeuOrga/Programmieren/c_cpp/github_os/input/src/os_base\os_task_scheduler.c ****          if(task->WaitActUntil > Get_current_time())
 745              		.loc 1 484 0
 746 05e1 A1080600 		movl	_task.1372, %eax
 746      00
 747 05e6 8B5808   		movl	8(%eax), %ebx
 748 05e9 E8000000 		call	_Get_current_time
 748      00
 749 05ee 39C3     		cmpl	%eax, %ebx
 750 05f0 7609     		jbe	L60
 485:E:/NeuOrga/Programmieren/c_cpp/github_os/input/src/os_base\os_task_scheduler.c ****          {
 486:E:/NeuOrga/Programmieren/c_cpp/github_os/input/src/os_base\os_task_scheduler.c ****             task->current_prio = 0;
 751              		.loc 1 486 0
 752 05f2 A1080600 		movl	_task.1372, %eax
 752      00
 753 05f7 C6402400 		movb	$0, 36(%eax)
 754              	L60:
 487:E:/NeuOrga/Programmieren/c_cpp/github_os/input/src/os_base\os_task_scheduler.c ****          }
 488:E:/NeuOrga/Programmieren/c_cpp/github_os/input/src/os_base\os_task_scheduler.c ****          if(task->wait_time > task->max_allowed_wait_time)
 755              		.loc 1 488 0
 756 05fb A1080600 		movl	_task.1372, %eax
 756      00
 757 0600 8B500C   		movl	12(%eax), %edx
 758 0603 A1080600 		movl	_task.1372, %eax
 758      00
 759 0608 8B4018   		movl	24(%eax), %eax
 760 060b 39C2     		cmpl	%eax, %edx
 761 060d 7614     		jbe	L61
 489:E:/NeuOrga/Programmieren/c_cpp/github_os/input/src/os_base\os_task_scheduler.c ****          {
 490:E:/NeuOrga/Programmieren/c_cpp/github_os/input/src/os_base\os_task_scheduler.c ****             /* set bug */
 491:E:/NeuOrga/Programmieren/c_cpp/github_os/input/src/os_base\os_task_scheduler.c ****             OS_SET_SW_BUG(os_bug_task_max_wait_time_reached, Func_TaskScheduler);
 762              		.loc 1 491 0
 763 060f C7442404 		movl	$8, 4(%esp)
 763      08000000 
 764 0617 C7042403 		movl	$3, (%esp)
 764      000000
 765 061e E8000000 		call	_OS_SET_SW_BUG
 765      00
 766              	L61:
 492:E:/NeuOrga/Programmieren/c_cpp/github_os/input/src/os_base\os_task_scheduler.c ****          }
 493:E:/NeuOrga/Programmieren/c_cpp/github_os/input/src/os_base\os_task_scheduler.c ****          /* not active TASK_RUN_QUEUE elements have no valid task_group!!*/
 494:E:/NeuOrga/Programmieren/c_cpp/github_os/input/src/os_base\os_task_scheduler.c ****          if(task->task_group!=0)
 767              		.loc 1 494 0
 768 0623 A1080600 		movl	_task.1372, %eax
 768      00
 769 0628 8B4038   		movl	56(%eax), %eax
 770 062b 85C0     		testl	%eax, %eax
 771 062d 7448     		je	L62
 495:E:/NeuOrga/Programmieren/c_cpp/github_os/input/src/os_base\os_task_scheduler.c ****          {
 496:E:/NeuOrga/Programmieren/c_cpp/github_os/input/src/os_base\os_task_scheduler.c ****             /* usage the exe time for scheduling strategy */
 497:E:/NeuOrga/Programmieren/c_cpp/github_os/input/src/os_base\os_task_scheduler.c ****             if(task->task_group->exe_time > task->task_group->fair_exe_time)
 772              		.loc 1 497 0
 773 062f A1080600 		movl	_task.1372, %eax
 773      00
 774 0634 8B4038   		movl	56(%eax), %eax
GAS LISTING C:\Users\PRESID~1\AppData\Local\Temp\cc50m3V3.s 			page 26


 775 0637 8B10     		movl	(%eax), %edx
 776 0639 A1080600 		movl	_task.1372, %eax
 776      00
 777 063e 8B4038   		movl	56(%eax), %eax
 778 0641 8B4004   		movl	4(%eax), %eax
 779 0644 39C2     		cmpl	%eax, %edx
 780 0646 7643     		jbe	L58
 498:E:/NeuOrga/Programmieren/c_cpp/github_os/input/src/os_base\os_task_scheduler.c ****             {
 499:E:/NeuOrga/Programmieren/c_cpp/github_os/input/src/os_base\os_task_scheduler.c ****                if(task->exe_time > Task_min_time)/* guarantee min time */
 781              		.loc 1 499 0
 782 0648 A1080600 		movl	_task.1372, %eax
 782      00
 783 064d 8B401C   		movl	28(%eax), %eax
 784 0650 8945E0   		movl	%eax, -32(%ebp)
 785 0653 C745E400 		movl	$0, -28(%ebp)
 785      000000
 786 065a DF6DE0   		fildq	-32(%ebp)
 787 065d D9E8     		fld1
 788 065f D9C9     		fxch	%st(1)
 789 0661 DAE9     		fucompp
 790 0663 DFE0     		fnstsw	%ax
 791 0665 F6C445   		testb	$69, %ah
 792 0668 7402     		je	L73
 793 066a EB1F     		jmp	L58
 794              	L73:
 500:E:/NeuOrga/Programmieren/c_cpp/github_os/input/src/os_base\os_task_scheduler.c ****                {
 501:E:/NeuOrga/Programmieren/c_cpp/github_os/input/src/os_base\os_task_scheduler.c ****                   task->current_prio = 0;
 795              		.loc 1 501 0
 796 066c A1080600 		movl	_task.1372, %eax
 796      00
 797 0671 C6402400 		movb	$0, 36(%eax)
 798 0675 EB14     		jmp	L58
 799              	L62:
 502:E:/NeuOrga/Programmieren/c_cpp/github_os/input/src/os_base\os_task_scheduler.c **** 
 503:E:/NeuOrga/Programmieren/c_cpp/github_os/input/src/os_base\os_task_scheduler.c ****                }
 504:E:/NeuOrga/Programmieren/c_cpp/github_os/input/src/os_base\os_task_scheduler.c ****             }
 505:E:/NeuOrga/Programmieren/c_cpp/github_os/input/src/os_base\os_task_scheduler.c ****          }
 506:E:/NeuOrga/Programmieren/c_cpp/github_os/input/src/os_base\os_task_scheduler.c ****          else
 507:E:/NeuOrga/Programmieren/c_cpp/github_os/input/src/os_base\os_task_scheduler.c ****          {
 508:E:/NeuOrga/Programmieren/c_cpp/github_os/input/src/os_base\os_task_scheduler.c ****             OS_SET_SW_BUG(os_bug_null_pointer, Func_TaskScheduler);
 800              		.loc 1 508 0
 801 0677 C7442404 		movl	$8, 4(%esp)
 801      08000000 
 802 067f C7042402 		movl	$2, (%esp)
 802      000000
 803 0686 E8000000 		call	_OS_SET_SW_BUG
 803      00
 804              	L58:
 471:E:/NeuOrga/Programmieren/c_cpp/github_os/input/src/os_base\os_task_scheduler.c ****    {
 805              		.loc 1 471 0 discriminator 2
 806 068b 8A45F3   		movb	-13(%ebp), %al
 807 068e 40       		incl	%eax
 808 068f 8845F3   		movb	%al, -13(%ebp)
 809              	L57:
 471:E:/NeuOrga/Programmieren/c_cpp/github_os/input/src/os_base\os_task_scheduler.c ****    {
 810              		.loc 1 471 0 is_stmt 0 discriminator 1
 811 0692 807DF304 		cmpb	$4, -13(%ebp)
GAS LISTING C:\Users\PRESID~1\AppData\Local\Temp\cc50m3V3.s 			page 27


 812 0696 0F86D3FE 		jbe	L65
 812      FFFF
 509:E:/NeuOrga/Programmieren/c_cpp/github_os/input/src/os_base\os_task_scheduler.c ****          }
 510:E:/NeuOrga/Programmieren/c_cpp/github_os/input/src/os_base\os_task_scheduler.c ****       }
 511:E:/NeuOrga/Programmieren/c_cpp/github_os/input/src/os_base\os_task_scheduler.c ****       /* do not set bug, because task =0 is used for empty queue elements
 512:E:/NeuOrga/Programmieren/c_cpp/github_os/input/src/os_base\os_task_scheduler.c ****       else
 513:E:/NeuOrga/Programmieren/c_cpp/github_os/input/src/os_base\os_task_scheduler.c ****       {
 514:E:/NeuOrga/Programmieren/c_cpp/github_os/input/src/os_base\os_task_scheduler.c ****           OS_SET_SW_BUG(os_bug_null_pointer, Func_TaskScheduler);
 515:E:/NeuOrga/Programmieren/c_cpp/github_os/input/src/os_base\os_task_scheduler.c ****       }
 516:E:/NeuOrga/Programmieren/c_cpp/github_os/input/src/os_base\os_task_scheduler.c ****       */
 517:E:/NeuOrga/Programmieren/c_cpp/github_os/input/src/os_base\os_task_scheduler.c ****    }
 518:E:/NeuOrga/Programmieren/c_cpp/github_os/input/src/os_base\os_task_scheduler.c ****    For_all_tasks_in_queue(element_nr)
 813              		.loc 1 518 0 is_stmt 1
 814 069c C645F300 		movb	$0, -13(%ebp)
 815 06a0 EB7D     		jmp	L66
 816              	L69:
 519:E:/NeuOrga/Programmieren/c_cpp/github_os/input/src/os_base\os_task_scheduler.c ****    {
 520:E:/NeuOrga/Programmieren/c_cpp/github_os/input/src/os_base\os_task_scheduler.c ****       link_list_member = GetFromLinkList(element_nr);
 817              		.loc 1 520 0
 818 06a2 0FB645F3 		movzbl	-13(%ebp), %eax
 819 06a6 890424   		movl	%eax, (%esp)
 820 06a9 E8000000 		call	_GetFromLinkList
 820      00
 821 06ae A3040600 		movl	%eax, _link_list_member.1375
 821      00
 521:E:/NeuOrga/Programmieren/c_cpp/github_os/input/src/os_base\os_task_scheduler.c ****       task             = GetFromTaskQueue(link_list_member);
 822              		.loc 1 521 0
 823 06b3 A1040600 		movl	_link_list_member.1375, %eax
 823      00
 824 06b8 890424   		movl	%eax, (%esp)
 825 06bb E8000000 		call	_GetFromTaskQueue
 825      00
 826 06c0 A3080600 		movl	%eax, _task.1372
 826      00
 522:E:/NeuOrga/Programmieren/c_cpp/github_os/input/src/os_base\os_task_scheduler.c ****       if(task != 0)
 827              		.loc 1 522 0
 828 06c5 A1080600 		movl	_task.1372, %eax
 828      00
 829 06ca 85C0     		testl	%eax, %eax
 830 06cc 744A     		je	L67
 523:E:/NeuOrga/Programmieren/c_cpp/github_os/input/src/os_base\os_task_scheduler.c ****       {
 524:E:/NeuOrga/Programmieren/c_cpp/github_os/input/src/os_base\os_task_scheduler.c ****          /*update wait time */
 525:E:/NeuOrga/Programmieren/c_cpp/github_os/input/src/os_base\os_task_scheduler.c ****          if(task->IdleTask != True)
 831              		.loc 1 525 0
 832 06ce A1080600 		movl	_task.1372, %eax
 832      00
 833 06d3 8A00     		movb	(%eax), %al
 834 06d5 83E004   		andl	$4, %eax
 835 06d8 84C0     		testb	%al, %al
 836 06da 7516     		jne	L68
 526:E:/NeuOrga/Programmieren/c_cpp/github_os/input/src/os_base\os_task_scheduler.c ****          {
 527:E:/NeuOrga/Programmieren/c_cpp/github_os/input/src/os_base\os_task_scheduler.c ****             task->wait_time += delta_time;
 837              		.loc 1 527 0
 838 06dc A1080600 		movl	_task.1372, %eax
 838      00
 839 06e1 8B150806 		movl	_task.1372, %edx
 839      0000
GAS LISTING C:\Users\PRESID~1\AppData\Local\Temp\cc50m3V3.s 			page 28


 840 06e7 8B4A0C   		movl	12(%edx), %ecx
 841 06ea 8B55EC   		movl	-20(%ebp), %edx
 842 06ed 01CA     		addl	%ecx, %edx
 843 06ef 89500C   		movl	%edx, 12(%eax)
 844              	L68:
 528:E:/NeuOrga/Programmieren/c_cpp/github_os/input/src/os_base\os_task_scheduler.c ****          }
 529:E:/NeuOrga/Programmieren/c_cpp/github_os/input/src/os_base\os_task_scheduler.c ****          /* search for task with highest prio and assign it to Winner_task */
 530:E:/NeuOrga/Programmieren/c_cpp/github_os/input/src/os_base\os_task_scheduler.c ****          if(task->current_prio > Winner_prio)
 845              		.loc 1 530 0
 846 06f2 A1080600 		movl	_task.1372, %eax
 846      00
 847 06f7 8A5024   		movb	36(%eax), %dl
 848 06fa A00C0600 		movb	_Winner_prio.1373, %al
 848      00
 849 06ff 38C2     		cmpb	%al, %dl
 850 0701 7615     		jbe	L67
 531:E:/NeuOrga/Programmieren/c_cpp/github_os/input/src/os_base\os_task_scheduler.c ****          {
 532:E:/NeuOrga/Programmieren/c_cpp/github_os/input/src/os_base\os_task_scheduler.c ****             Winner_prio = task->current_prio;
 851              		.loc 1 532 0
 852 0703 A1080600 		movl	_task.1372, %eax
 852      00
 853 0708 8A4024   		movb	36(%eax), %al
 854 070b A20C0600 		movb	%al, _Winner_prio.1373
 854      00
 533:E:/NeuOrga/Programmieren/c_cpp/github_os/input/src/os_base\os_task_scheduler.c ****             Winner_task = task;
 855              		.loc 1 533 0
 856 0710 A1080600 		movl	_task.1372, %eax
 856      00
 857 0715 8945F4   		movl	%eax, -12(%ebp)
 858              	L67:
 518:E:/NeuOrga/Programmieren/c_cpp/github_os/input/src/os_base\os_task_scheduler.c ****    {
 859              		.loc 1 518 0 discriminator 2
 860 0718 8A45F3   		movb	-13(%ebp), %al
 861 071b 40       		incl	%eax
 862 071c 8845F3   		movb	%al, -13(%ebp)
 863              	L66:
 518:E:/NeuOrga/Programmieren/c_cpp/github_os/input/src/os_base\os_task_scheduler.c ****    {
 864              		.loc 1 518 0 is_stmt 0 discriminator 1
 865 071f 807DF304 		cmpb	$4, -13(%ebp)
 866 0723 0F8679FF 		jbe	L69
 866      FFFF
 534:E:/NeuOrga/Programmieren/c_cpp/github_os/input/src/os_base\os_task_scheduler.c ****          }
 535:E:/NeuOrga/Programmieren/c_cpp/github_os/input/src/os_base\os_task_scheduler.c **** 
 536:E:/NeuOrga/Programmieren/c_cpp/github_os/input/src/os_base\os_task_scheduler.c ****       }
 537:E:/NeuOrga/Programmieren/c_cpp/github_os/input/src/os_base\os_task_scheduler.c ****       /* do not set bug, because task =0 is used for empty queue elements
 538:E:/NeuOrga/Programmieren/c_cpp/github_os/input/src/os_base\os_task_scheduler.c ****       else
 539:E:/NeuOrga/Programmieren/c_cpp/github_os/input/src/os_base\os_task_scheduler.c ****       {
 540:E:/NeuOrga/Programmieren/c_cpp/github_os/input/src/os_base\os_task_scheduler.c ****           OS_SET_SW_BUG(os_bug_null_pointer, Func_TaskScheduler);
 541:E:/NeuOrga/Programmieren/c_cpp/github_os/input/src/os_base\os_task_scheduler.c ****       }
 542:E:/NeuOrga/Programmieren/c_cpp/github_os/input/src/os_base\os_task_scheduler.c ****       */
 543:E:/NeuOrga/Programmieren/c_cpp/github_os/input/src/os_base\os_task_scheduler.c ****    }
 544:E:/NeuOrga/Programmieren/c_cpp/github_os/input/src/os_base\os_task_scheduler.c ****    /* prevent deathlook by permanently winning same task */
 545:E:/NeuOrga/Programmieren/c_cpp/github_os/input/src/os_base\os_task_scheduler.c ****    if(Winner_task != 0)
 867              		.loc 1 545 0 is_stmt 1
 868 0729 837DF400 		cmpl	$0, -12(%ebp)
 869 072d 7409     		je	L70
 546:E:/NeuOrga/Programmieren/c_cpp/github_os/input/src/os_base\os_task_scheduler.c ****    {
GAS LISTING C:\Users\PRESID~1\AppData\Local\Temp\cc50m3V3.s 			page 29


 547:E:/NeuOrga/Programmieren/c_cpp/github_os/input/src/os_base\os_task_scheduler.c ****       Winner_task->current_prio = 0;
 870              		.loc 1 547 0
 871 072f 8B45F4   		movl	-12(%ebp), %eax
 872 0732 C6402400 		movb	$0, 36(%eax)
 873 0736 EB08     		jmp	L71
 874              	L70:
 548:E:/NeuOrga/Programmieren/c_cpp/github_os/input/src/os_base\os_task_scheduler.c ****    }
 549:E:/NeuOrga/Programmieren/c_cpp/github_os/input/src/os_base\os_task_scheduler.c ****    else
 550:E:/NeuOrga/Programmieren/c_cpp/github_os/input/src/os_base\os_task_scheduler.c ****    {
 551:E:/NeuOrga/Programmieren/c_cpp/github_os/input/src/os_base\os_task_scheduler.c ****       Winner_task = GetIdleTask();
 875              		.loc 1 551 0
 876 0738 E8000000 		call	_GetIdleTask
 876      00
 877 073d 8945F4   		movl	%eax, -12(%ebp)
 878              	L71:
 552:E:/NeuOrga/Programmieren/c_cpp/github_os/input/src/os_base\os_task_scheduler.c ****    }
 553:E:/NeuOrga/Programmieren/c_cpp/github_os/input/src/os_base\os_task_scheduler.c ****    return Winner_task;
 879              		.loc 1 553 0
 880 0740 8B45F4   		movl	-12(%ebp), %eax
 554:E:/NeuOrga/Programmieren/c_cpp/github_os/input/src/os_base\os_task_scheduler.c **** }
 881              		.loc 1 554 0
 882 0743 83C434   		addl	$52, %esp
 883 0746 5B       		popl	%ebx
 884              		.cfi_restore 3
 885 0747 5D       		popl	%ebp
 886              		.cfi_restore 5
 887              		.cfi_def_cfa 4, 4
 888 0748 C3       		ret
 889              		.cfi_endproc
 890              	LFE12:
 891              		.globl	_ISR_TASK_DISPATCH_C0
 893              	_ISR_TASK_DISPATCH_C0:
 894              	LFB13:
 555:E:/NeuOrga/Programmieren/c_cpp/github_os/input/src/os_base\os_task_scheduler.c **** 
 556:E:/NeuOrga/Programmieren/c_cpp/github_os/input/src/os_base\os_task_scheduler.c **** void ISR_TASK_DISPATCH_C0(void)
 557:E:/NeuOrga/Programmieren/c_cpp/github_os/input/src/os_base\os_task_scheduler.c **** {
 895              		.loc 1 557 0
 896              		.cfi_startproc
 897 0749 55       		pushl	%ebp
 898              		.cfi_def_cfa_offset 8
 899              		.cfi_offset 5, -8
 900 074a 89E5     		movl	%esp, %ebp
 901              		.cfi_def_cfa_register 5
 902 074c 83EC08   		subl	$8, %esp
 558:E:/NeuOrga/Programmieren/c_cpp/github_os/input/src/os_base\os_task_scheduler.c ****    /*#warn "task scheduler should know which core it is running, to select the correct task to term
 559:E:/NeuOrga/Programmieren/c_cpp/github_os/input/src/os_base\os_task_scheduler.c ****    OS_TASK_DISPATCHER();
 903              		.loc 1 559 0
 904 074f E831FCFF 		call	_OS_TASK_DISPATCHER
 904      FF
 560:E:/NeuOrga/Programmieren/c_cpp/github_os/input/src/os_base\os_task_scheduler.c **** 
 561:E:/NeuOrga/Programmieren/c_cpp/github_os/input/src/os_base\os_task_scheduler.c **** }
 905              		.loc 1 561 0
 906 0754 C9       		leave
 907              		.cfi_restore 5
 908              		.cfi_def_cfa 4, 4
 909 0755 C3       		ret
 910              		.cfi_endproc
GAS LISTING C:\Users\PRESID~1\AppData\Local\Temp\cc50m3V3.s 			page 30


 911              	LFE13:
 912              	.lcomm _TASK_GROUP_1.1363,8,4
 913              	.lcomm _TASK_GROUP_2.1364,8,4
 914              	.lcomm _TASK_GROUP_3.1365,8,4
 915              	.lcomm _TASK_GROUP_4.1366,8,4
 916              	.lcomm _TASK_GROUP_5.1367,8,4
 917              	.lcomm _task_0.1359,100,32
 918              	.lcomm _task_1.1360,100,32
 919              	.lcomm _task_2.1361,100,32
 920              	.lcomm _task_3.1362,100,32
 921              	.lcomm _link_list_member.1375,4,4
 922              	.lcomm _task.1372,4,4
 923              	.lcomm _Winner_prio.1373,1,1
 924              	Letext0:
 925              		.file 2 "E:/NeuOrga/Programmieren/c_cpp/github_os/input/src/os_base/../os_base/os_base_types.h"
 926              		.file 3 "E:/NeuOrga/Programmieren/c_cpp/github_os/input/src/os_base/../os_base/os_common.h"
 927              		.file 4 "E:/NeuOrga/Programmieren/c_cpp/github_os/input/src/os_base/../os_sim/../os_base/os_task_c
 928              		.file 5 "E:/NeuOrga/Programmieren/c_cpp/github_os/input/src/os_base/os_task_scheduler.h"
 929              		.file 6 "E:/NeuOrga/Programmieren/c_cpp/github_os/input/src/os_base/os_task_queue.h"
 930              		.file 7 "E:/NeuOrga/Programmieren/c_cpp/github_os/input/src/os_base/../os_base/os_ram.h"
 931 0756 9090     		.section	.debug_info,"dr"
 932              	Ldebug_info0:
 933 0000 E40B0000 		.long	0xbe4
 934 0004 0400     		.word	0x4
 935 0006 00000000 		.secrel32	Ldebug_abbrev0
 936 000a 04       		.byte	0x4
 937 000b 01       		.uleb128 0x1
 938 000c 474E5520 		.ascii "GNU C 4.9.3 -march=i386 -g3 -O0 -std=c90\0"
 938      4320342E 
 938      392E3320 
 938      2D6D6172 
 938      63683D69 
 939 0035 01       		.byte	0x1
 940 0036 453A5C4E 		.ascii "E:\\NeuOrga\\Programmieren\\c_cpp\\github_os\\input\\src\\os_base\\os_task_scheduler.c\0"
 940      65754F72 
 940      67615C50 
 940      726F6772 
 940      616D6D69 
 941 0085 00000000 		.long	Ltext0
 942 0089 56070000 		.long	Letext0-Ltext0
 943 008d 00000000 		.secrel32	Ldebug_line0
 944 0091 00000000 		.secrel32	Ldebug_macro0
 945 0095 02       		.uleb128 0x2
 946 0096 756E7369 		.ascii "unsigned_char_t\0"
 946      676E6564 
 946      5F636861 
 946      725F7400 
 947 00a6 02       		.byte	0x2
 948 00a7 1D       		.byte	0x1d
 949 00a8 AC000000 		.long	0xac
 950 00ac 03       		.uleb128 0x3
 951 00ad 01       		.byte	0x1
 952 00ae 08       		.byte	0x8
 953 00af 756E7369 		.ascii "unsigned char\0"
 953      676E6564 
 953      20636861 
 953      7200
GAS LISTING C:\Users\PRESID~1\AppData\Local\Temp\cc50m3V3.s 			page 31


 954 00bd 03       		.uleb128 0x3
 955 00be 02       		.byte	0x2
 956 00bf 07       		.byte	0x7
 957 00c0 73686F72 		.ascii "short unsigned int\0"
 957      7420756E 
 957      7369676E 
 957      65642069 
 957      6E7400
 958 00d3 02       		.uleb128 0x2
 959 00d4 756E7369 		.ascii "unsigned_int32_t\0"
 959      676E6564 
 959      5F696E74 
 959      33325F74 
 959      00
 960 00e5 02       		.byte	0x2
 961 00e6 22       		.byte	0x22
 962 00e7 EB000000 		.long	0xeb
 963 00eb 03       		.uleb128 0x3
 964 00ec 04       		.byte	0x4
 965 00ed 07       		.byte	0x7
 966 00ee 6C6F6E67 		.ascii "long unsigned int\0"
 966      20756E73 
 966      69676E65 
 966      6420696E 
 966      7400
 967 0100 04       		.uleb128 0x4
 968 0101 6F735F73 		.ascii "os_sw_bugs_e\0"
 968      775F6275 
 968      67735F65 
 968      00
 969 010e 04       		.byte	0x4
 970 010f 03       		.byte	0x3
 971 0110 29       		.byte	0x29
 972 0111 FE010000 		.long	0x1fe
 973 0115 05       		.uleb128 0x5
 974 0116 6F735F62 		.ascii "os_bug_no_bug\0"
 974      75675F6E 
 974      6F5F6275 
 974      6700
 975 0124 00       		.sleb128 0
 976 0125 05       		.uleb128 0x5
 977 0126 6F735F62 		.ascii "os_bug_taskstate_request_denied\0"
 977      75675F74 
 977      61736B73 
 977      74617465 
 977      5F726571 
 978 0146 01       		.sleb128 1
 979 0147 05       		.uleb128 0x5
 980 0148 6F735F62 		.ascii "os_bug_null_pointer\0"
 980      75675F6E 
 980      756C6C5F 
 980      706F696E 
 980      74657200 
 981 015c 02       		.sleb128 2
 982 015d 05       		.uleb128 0x5
 983 015e 6F735F62 		.ascii "os_bug_task_max_wait_time_reached\0"
 983      75675F74 
GAS LISTING C:\Users\PRESID~1\AppData\Local\Temp\cc50m3V3.s 			page 32


 983      61736B5F 
 983      6D61785F 
 983      77616974 
 984 0180 03       		.sleb128 3
 985 0181 05       		.uleb128 0x5
 986 0182 6F735F62 		.ascii "os_bug_Task_unspecified\0"
 986      75675F54 
 986      61736B5F 
 986      756E7370 
 986      65636966 
 987 019a 04       		.sleb128 4
 988 019b 05       		.uleb128 0x5
 989 019c 6F735F62 		.ascii "os_bug_exception_UndefInstruction\0"
 989      75675F65 
 989      78636570 
 989      74696F6E 
 989      5F556E64 
 990 01be 05       		.sleb128 5
 991 01bf 05       		.uleb128 0x5
 992 01c0 6F735F62 		.ascii "os_bug_exception_AbortPrefetch\0"
 992      75675F65 
 992      78636570 
 992      74696F6E 
 992      5F41626F 
 993 01df 06       		.sleb128 6
 994 01e0 05       		.uleb128 0x5
 995 01e1 6F735F62 		.ascii "os_bug_exception_AbortData\0"
 995      75675F65 
 995      78636570 
 995      74696F6E 
 995      5F41626F 
 996 01fc 07       		.sleb128 7
 997 01fd 00       		.byte	0
 998 01fe 04       		.uleb128 0x4
 999 01ff 6F735F73 		.ascii "os_sw_bugs_function_e\0"
 999      775F6275 
 999      67735F66 
 999      756E6374 
 999      696F6E5F 
 1000 0215 04       		.byte	0x4
 1001 0216 03       		.byte	0x3
 1002 0217 35       		.byte	0x35
 1003 0218 40030000 		.long	0x340
 1004 021c 05       		.uleb128 0x5
 1005 021d 46756E63 		.ascii "Func_NoFunction\0"
 1005      5F4E6F46 
 1005      756E6374 
 1005      696F6E00 
 1006 022d 00       		.sleb128 0
 1007 022e 05       		.uleb128 0x5
 1008 022f 46756E63 		.ascii "Func_SaveTaskEnvironment\0"
 1008      5F536176 
 1008      65546173 
 1008      6B456E76 
 1008      69726F6E 
 1009 0248 01       		.sleb128 1
 1010 0249 05       		.uleb128 0x5
GAS LISTING C:\Users\PRESID~1\AppData\Local\Temp\cc50m3V3.s 			page 33


 1011 024a 46756E63 		.ascii "Func_RestoreTaskEnvironment\0"
 1011      5F526573 
 1011      746F7265 
 1011      5461736B 
 1011      456E7669 
 1012 0266 02       		.sleb128 2
 1013 0267 05       		.uleb128 0x5
 1014 0268 46756E63 		.ascii "Func_CreateTaskEnvironment\0"
 1014      5F437265 
 1014      61746554 
 1014      61736B45 
 1014      6E766972 
 1015 0283 03       		.sleb128 3
 1016 0284 05       		.uleb128 0x5
 1017 0285 46756E63 		.ascii "Func_DeleteTaskEnvironment\0"
 1017      5F44656C 
 1017      65746554 
 1017      61736B45 
 1017      6E766972 
 1018 02a0 04       		.sleb128 4
 1019 02a1 05       		.uleb128 0x5
 1020 02a2 46756E63 		.ascii "Func_StartTask\0"
 1020      5F537461 
 1020      72745461 
 1020      736B00
 1021 02b1 05       		.sleb128 5
 1022 02b2 05       		.uleb128 0x5
 1023 02b3 46756E63 		.ascii "Func_PreemptTask\0"
 1023      5F507265 
 1023      656D7074 
 1023      5461736B 
 1023      00
 1024 02c4 06       		.sleb128 6
 1025 02c5 05       		.uleb128 0x5
 1026 02c6 46756E63 		.ascii "Func_TerminateTask\0"
 1026      5F546572 
 1026      6D696E61 
 1026      74655461 
 1026      736B00
 1027 02d9 07       		.sleb128 7
 1028 02da 05       		.uleb128 0x5
 1029 02db 46756E63 		.ascii "Func_TaskScheduler\0"
 1029      5F546173 
 1029      6B536368 
 1029      6564756C 
 1029      657200
 1030 02ee 08       		.sleb128 8
 1031 02ef 05       		.uleb128 0x5
 1032 02f0 46756E63 		.ascii "Func_InitTask\0"
 1032      5F496E69 
 1032      74546173 
 1032      6B00
 1033 02fe 09       		.sleb128 9
 1034 02ff 05       		.uleb128 0x5
 1035 0300 46756E63 		.ascii "Func_ActivateTask\0"
 1035      5F416374 
 1035      69766174 
GAS LISTING C:\Users\PRESID~1\AppData\Local\Temp\cc50m3V3.s 			page 34


 1035      65546173 
 1035      6B00
 1036 0312 0A       		.sleb128 10
 1037 0313 05       		.uleb128 0x5
 1038 0314 46756E63 		.ascii "Func_TaskStateRequest\0"
 1038      5F546173 
 1038      6B537461 
 1038      74655265 
 1038      71756573 
 1039 032a 0B       		.sleb128 11
 1040 032b 05       		.uleb128 0x5
 1041 032c 46756E63 		.ascii "Func_os_exception\0"
 1041      5F6F735F 
 1041      65786365 
 1041      7074696F 
 1041      6E00
 1042 033e 0C       		.sleb128 12
 1043 033f 00       		.byte	0
 1044 0340 04       		.uleb128 0x4
 1045 0341 7461736B 		.ascii "task_state_e\0"
 1045      5F737461 
 1045      74655F65 
 1045      00
 1046 034e 04       		.byte	0x4
 1047 034f 04       		.byte	0x4
 1048 0350 07       		.byte	0x7
 1049 0351 96030000 		.long	0x396
 1050 0355 05       		.uleb128 0x5
 1051 0356 5461736B 		.ascii "Task_unspecified\0"
 1051      5F756E73 
 1051      70656369 
 1051      66696564 
 1051      00
 1052 0367 00       		.sleb128 0
 1053 0368 05       		.uleb128 0x5
 1054 0369 5461736B 		.ascii "Task_suspended\0"
 1054      5F737573 
 1054      70656E64 
 1054      656400
 1055 0378 01       		.sleb128 1
 1056 0379 05       		.uleb128 0x5
 1057 037a 5461736B 		.ascii "Task_ready\0"
 1057      5F726561 
 1057      647900
 1058 0385 02       		.sleb128 2
 1059 0386 05       		.uleb128 0x5
 1060 0387 5461736B 		.ascii "Task_running\0"
 1060      5F72756E 
 1060      6E696E67 
 1060      00
 1061 0394 03       		.sleb128 3
 1062 0395 00       		.byte	0
 1063 0396 02       		.uleb128 0x2
 1064 0397 7461736B 		.ascii "task_state_t\0"
 1064      5F737461 
 1064      74655F74 
 1064      00
GAS LISTING C:\Users\PRESID~1\AppData\Local\Temp\cc50m3V3.s 			page 35


 1065 03a4 04       		.byte	0x4
 1066 03a5 0E       		.byte	0xe
 1067 03a6 40030000 		.long	0x340
 1068 03aa 02       		.uleb128 0x2
 1069 03ab 66756E63 		.ascii "func_p_t\0"
 1069      5F705F74 
 1069      00
 1070 03b4 04       		.byte	0x4
 1071 03b5 13       		.byte	0x13
 1072 03b6 BA030000 		.long	0x3ba
 1073 03ba 06       		.uleb128 0x6
 1074 03bb 04       		.byte	0x4
 1075 03bc C0030000 		.long	0x3c0
 1076 03c0 07       		.uleb128 0x7
 1077 03c1 CB030000 		.long	0x3cb
 1078 03c5 08       		.uleb128 0x8
 1079 03c6 CB030000 		.long	0x3cb
 1080 03ca 00       		.byte	0
 1081 03cb 09       		.uleb128 0x9
 1082 03cc 04       		.byte	0x4
 1083 03cd 02       		.uleb128 0x2
 1084 03ce 66756E63 		.ascii "func_p_state_change_t\0"
 1084      5F705F73 
 1084      74617465 
 1084      5F636861 
 1084      6E67655F 
 1085 03e4 04       		.byte	0x4
 1086 03e5 15       		.byte	0x15
 1087 03e6 EA030000 		.long	0x3ea
 1088 03ea 06       		.uleb128 0x6
 1089 03eb 04       		.byte	0x4
 1090 03ec F0030000 		.long	0x3f0
 1091 03f0 0A       		.uleb128 0xa
 1092 03f1 95000000 		.long	0x95
 1093 03f5 04040000 		.long	0x404
 1094 03f9 08       		.uleb128 0x8
 1095 03fa CB030000 		.long	0x3cb
 1096 03fe 08       		.uleb128 0x8
 1097 03ff 96030000 		.long	0x396
 1098 0403 00       		.byte	0
 1099 0404 0B       		.uleb128 0xb
 1100 0405 7461736B 		.ascii "task_group_s\0"
 1100      5F67726F 
 1100      75705F73 
 1100      00
 1101 0412 08       		.byte	0x8
 1102 0413 04       		.byte	0x4
 1103 0414 16       		.byte	0x16
 1104 0415 3C040000 		.long	0x43c
 1105 0419 0C       		.uleb128 0xc
 1106 041a 0E000000 		.secrel32	LASF0
 1107 041e 04       		.byte	0x4
 1108 041f 18       		.byte	0x18
 1109 0420 D3000000 		.long	0xd3
 1110 0424 00       		.byte	0
 1111 0425 0D       		.uleb128 0xd
 1112 0426 66616972 		.ascii "fair_exe_time\0"
GAS LISTING C:\Users\PRESID~1\AppData\Local\Temp\cc50m3V3.s 			page 36


 1112      5F657865 
 1112      5F74696D 
 1112      6500
 1113 0434 04       		.byte	0x4
 1114 0435 19       		.byte	0x19
 1115 0436 D3000000 		.long	0xd3
 1116 043a 04       		.byte	0x4
 1117 043b 00       		.byte	0
 1118 043c 02       		.uleb128 0x2
 1119 043d 7461736B 		.ascii "task_group_t\0"
 1119      5F67726F 
 1119      75705F74 
 1119      00
 1120 044a 04       		.byte	0x4
 1121 044b 1B       		.byte	0x1b
 1122 044c 04040000 		.long	0x404
 1123 0450 0B       		.uleb128 0xb
 1124 0451 7461736B 		.ascii "task_s\0"
 1124      5F7300
 1125 0458 64       		.byte	0x64
 1126 0459 04       		.byte	0x4
 1127 045a 1D       		.byte	0x1d
 1128 045b C6060000 		.long	0x6c6
 1129 045f 0E       		.uleb128 0xe
 1130 0460 61637469 		.ascii "active\0"
 1130      766500
 1131 0467 04       		.byte	0x4
 1132 0468 1F       		.byte	0x1f
 1133 0469 C6060000 		.long	0x6c6
 1134 046d 04       		.byte	0x4
 1135 046e 01       		.byte	0x1
 1136 046f 1F       		.byte	0x1f
 1137 0470 00       		.byte	0
 1138 0471 0E       		.uleb128 0xe
 1139 0472 7461736B 		.ascii "task_queued\0"
 1139      5F717565 
 1139      75656400 
 1140 047e 04       		.byte	0x4
 1141 047f 20       		.byte	0x20
 1142 0480 C6060000 		.long	0x6c6
 1143 0484 04       		.byte	0x4
 1144 0485 01       		.byte	0x1
 1145 0486 1E       		.byte	0x1e
 1146 0487 00       		.byte	0
 1147 0488 0E       		.uleb128 0xe
 1148 0489 49646C65 		.ascii "IdleTask\0"
 1148      5461736B 
 1148      00
 1149 0492 04       		.byte	0x4
 1150 0493 21       		.byte	0x21
 1151 0494 C6060000 		.long	0x6c6
 1152 0498 04       		.byte	0x4
 1153 0499 01       		.byte	0x1
 1154 049a 1D       		.byte	0x1d
 1155 049b 00       		.byte	0
 1156 049c 0E       		.uleb128 0xe
 1157 049d 46524545 		.ascii "FREE\0"
GAS LISTING C:\Users\PRESID~1\AppData\Local\Temp\cc50m3V3.s 			page 37


 1157      00
 1158 04a2 04       		.byte	0x4
 1159 04a3 22       		.byte	0x22
 1160 04a4 C6060000 		.long	0x6c6
 1161 04a8 04       		.byte	0x4
 1162 04a9 1D       		.byte	0x1d
 1163 04aa 00       		.byte	0
 1164 04ab 00       		.byte	0
 1165 04ac 0D       		.uleb128 0xd
 1166 04ad 4E724F66 		.ascii "NrOfInsAllowed\0"
 1166      496E7341 
 1166      6C6C6F77 
 1166      656400
 1167 04bc 04       		.byte	0x4
 1168 04bd 23       		.byte	0x23
 1169 04be 95000000 		.long	0x95
 1170 04c2 04       		.byte	0x4
 1171 04c3 0D       		.uleb128 0xd
 1172 04c4 4E724F66 		.ascii "NrOfInsActivated\0"
 1172      496E7341 
 1172      63746976 
 1172      61746564 
 1172      00
 1173 04d5 04       		.byte	0x4
 1174 04d6 24       		.byte	0x24
 1175 04d7 95000000 		.long	0x95
 1176 04db 05       		.byte	0x5
 1177 04dc 0D       		.uleb128 0xd
 1178 04dd 57616974 		.ascii "WaitActUntil\0"
 1178      41637455 
 1178      6E74696C 
 1178      00
 1179 04ea 04       		.byte	0x4
 1180 04eb 25       		.byte	0x25
 1181 04ec D3000000 		.long	0xd3
 1182 04f0 08       		.byte	0x8
 1183 04f1 0D       		.uleb128 0xd
 1184 04f2 77616974 		.ascii "wait_time\0"
 1184      5F74696D 
 1184      6500
 1185 04fc 04       		.byte	0x4
 1186 04fd 26       		.byte	0x26
 1187 04fe D3000000 		.long	0xd3
 1188 0502 0C       		.byte	0xc
 1189 0503 0D       		.uleb128 0xd
 1190 0504 54696D65 		.ascii "TimeToPrioInc\0"
 1190      546F5072 
 1190      696F496E 
 1190      6300
 1191 0512 04       		.byte	0x4
 1192 0513 27       		.byte	0x27
 1193 0514 D3000000 		.long	0xd3
 1194 0518 10       		.byte	0x10
 1195 0519 0D       		.uleb128 0xd
 1196 051a 6F766572 		.ascii "overwaittime_per_prio_inc_step\0"
 1196      77616974 
 1196      74696D65 
GAS LISTING C:\Users\PRESID~1\AppData\Local\Temp\cc50m3V3.s 			page 38


 1196      5F706572 
 1196      5F707269 
 1197 0539 04       		.byte	0x4
 1198 053a 28       		.byte	0x28
 1199 053b D3000000 		.long	0xd3
 1200 053f 14       		.byte	0x14
 1201 0540 0D       		.uleb128 0xd
 1202 0541 6D61785F 		.ascii "max_allowed_wait_time\0"
 1202      616C6C6F 
 1202      7765645F 
 1202      77616974 
 1202      5F74696D 
 1203 0557 04       		.byte	0x4
 1204 0558 29       		.byte	0x29
 1205 0559 D3000000 		.long	0xd3
 1206 055d 18       		.byte	0x18
 1207 055e 0C       		.uleb128 0xc
 1208 055f 0E000000 		.secrel32	LASF0
 1209 0563 04       		.byte	0x4
 1210 0564 2A       		.byte	0x2a
 1211 0565 D3000000 		.long	0xd3
 1212 0569 1C       		.byte	0x1c
 1213 056a 0D       		.uleb128 0xd
 1214 056b 73746172 		.ascii "start_time\0"
 1214      745F7469 
 1214      6D6500
 1215 0576 04       		.byte	0x4
 1216 0577 2B       		.byte	0x2b
 1217 0578 D3000000 		.long	0xd3
 1218 057c 20       		.byte	0x20
 1219 057d 0D       		.uleb128 0xd
 1220 057e 63757272 		.ascii "current_prio\0"
 1220      656E745F 
 1220      7072696F 
 1220      00
 1221 058b 04       		.byte	0x4
 1222 058c 2C       		.byte	0x2c
 1223 058d 95000000 		.long	0x95
 1224 0591 24       		.byte	0x24
 1225 0592 0D       		.uleb128 0xd
 1226 0593 64656661 		.ascii "default_prio\0"
 1226      756C745F 
 1226      7072696F 
 1226      00
 1227 05a0 04       		.byte	0x4
 1228 05a1 2D       		.byte	0x2d
 1229 05a2 95000000 		.long	0x95
 1230 05a6 25       		.byte	0x25
 1231 05a7 0D       		.uleb128 0xd
 1232 05a8 7461736B 		.ascii "task_number\0"
 1232      5F6E756D 
 1232      62657200 
 1233 05b4 04       		.byte	0x4
 1234 05b5 2E       		.byte	0x2e
 1235 05b6 D3000000 		.long	0xd3
 1236 05ba 28       		.byte	0x28
 1237 05bb 0D       		.uleb128 0xd
GAS LISTING C:\Users\PRESID~1\AppData\Local\Temp\cc50m3V3.s 			page 39


 1238 05bc 667000   		.ascii "fp\0"
 1239 05bf 04       		.byte	0x4
 1240 05c0 2F       		.byte	0x2f
 1241 05c1 AA030000 		.long	0x3aa
 1242 05c5 2C       		.byte	0x2c
 1243 05c6 0D       		.uleb128 0xd
 1244 05c7 73746174 		.ascii "state_request\0"
 1244      655F7265 
 1244      71756573 
 1244      7400
 1245 05d5 04       		.byte	0x4
 1246 05d6 30       		.byte	0x30
 1247 05d7 CD030000 		.long	0x3cd
 1248 05db 30       		.byte	0x30
 1249 05dc 0D       		.uleb128 0xd
 1250 05dd 7461736B 		.ascii "task_state\0"
 1250      5F737461 
 1250      746500
 1251 05e8 04       		.byte	0x4
 1252 05e9 31       		.byte	0x31
 1253 05ea 96030000 		.long	0x396
 1254 05ee 34       		.byte	0x34
 1255 05ef 0D       		.uleb128 0xd
 1256 05f0 7461736B 		.ascii "task_group\0"
 1256      5F67726F 
 1256      757000
 1257 05fb 04       		.byte	0x4
 1258 05fc 32       		.byte	0x32
 1259 05fd D6060000 		.long	0x6d6
 1260 0601 38       		.byte	0x38
 1261 0602 0D       		.uleb128 0xd
 1262 0603 45415800 		.ascii "EAX\0"
 1263 0607 04       		.byte	0x4
 1264 0608 34       		.byte	0x34
 1265 0609 D3000000 		.long	0xd3
 1266 060d 3C       		.byte	0x3c
 1267 060e 0D       		.uleb128 0xd
 1268 060f 45425800 		.ascii "EBX\0"
 1269 0613 04       		.byte	0x4
 1270 0614 35       		.byte	0x35
 1271 0615 D3000000 		.long	0xd3
 1272 0619 40       		.byte	0x40
 1273 061a 0D       		.uleb128 0xd
 1274 061b 45435800 		.ascii "ECX\0"
 1275 061f 04       		.byte	0x4
 1276 0620 36       		.byte	0x36
 1277 0621 D3000000 		.long	0xd3
 1278 0625 44       		.byte	0x44
 1279 0626 0D       		.uleb128 0xd
 1280 0627 45445800 		.ascii "EDX\0"
 1281 062b 04       		.byte	0x4
 1282 062c 37       		.byte	0x37
 1283 062d D3000000 		.long	0xd3
 1284 0631 48       		.byte	0x48
 1285 0632 0D       		.uleb128 0xd
 1286 0633 70537461 		.ascii "pStackPointer\0"
 1286      636B506F 
GAS LISTING C:\Users\PRESID~1\AppData\Local\Temp\cc50m3V3.s 			page 40


 1286      696E7465 
 1286      7200
 1287 0641 04       		.byte	0x4
 1288 0642 47       		.byte	0x47
 1289 0643 DC060000 		.long	0x6dc
 1290 0647 4C       		.byte	0x4c
 1291 0648 0D       		.uleb128 0xd
 1292 0649 70537461 		.ascii "pStackPointerByMalloc\0"
 1292      636B506F 
 1292      696E7465 
 1292      7242794D 
 1292      616C6C6F 
 1293 065f 04       		.byte	0x4
 1294 0660 48       		.byte	0x48
 1295 0661 DC060000 		.long	0x6dc
 1296 0665 50       		.byte	0x50
 1297 0666 0D       		.uleb128 0xd
 1298 0667 70537461 		.ascii "pStackPointerStart\0"
 1298      636B506F 
 1298      696E7465 
 1298      72537461 
 1298      727400
 1299 067a 04       		.byte	0x4
 1300 067b 49       		.byte	0x49
 1301 067c DC060000 		.long	0x6dc
 1302 0680 54       		.byte	0x54
 1303 0681 0D       		.uleb128 0xd
 1304 0682 53746163 		.ascii "StackSize\0"
 1304      6B53697A 
 1304      6500
 1305 068c 04       		.byte	0x4
 1306 068d 4A       		.byte	0x4a
 1307 068e D3000000 		.long	0xd3
 1308 0692 58       		.byte	0x58
 1309 0693 0D       		.uleb128 0xd
 1310 0694 70537461 		.ascii "pStackPointerEnd\0"
 1310      636B506F 
 1310      696E7465 
 1310      72456E64 
 1310      00
 1311 06a5 04       		.byte	0x4
 1312 06a6 4B       		.byte	0x4b
 1313 06a7 DC060000 		.long	0x6dc
 1314 06ab 5C       		.byte	0x5c
 1315 06ac 0D       		.uleb128 0xd
 1316 06ad 7461736B 		.ascii "task_kernel_mode\0"
 1316      5F6B6572 
 1316      6E656C5F 
 1316      6D6F6465 
 1316      00
 1317 06be 04       		.byte	0x4
 1318 06bf 4C       		.byte	0x4c
 1319 06c0 95000000 		.long	0x95
 1320 06c4 60       		.byte	0x60
 1321 06c5 00       		.byte	0
 1322 06c6 03       		.uleb128 0x3
 1323 06c7 04       		.byte	0x4
GAS LISTING C:\Users\PRESID~1\AppData\Local\Temp\cc50m3V3.s 			page 41


 1324 06c8 07       		.byte	0x7
 1325 06c9 756E7369 		.ascii "unsigned int\0"
 1325      676E6564 
 1325      20696E74 
 1325      00
 1326 06d6 06       		.uleb128 0x6
 1327 06d7 04       		.byte	0x4
 1328 06d8 3C040000 		.long	0x43c
 1329 06dc 06       		.uleb128 0x6
 1330 06dd 04       		.byte	0x4
 1331 06de 95000000 		.long	0x95
 1332 06e2 02       		.uleb128 0x2
 1333 06e3 7461736B 		.ascii "task_t\0"
 1333      5F7400
 1334 06ea 04       		.byte	0x4
 1335 06eb 4E       		.byte	0x4e
 1336 06ec 50040000 		.long	0x450
 1337 06f0 02       		.uleb128 0x2
 1338 06f1 73636865 		.ascii "scheduler_time_t\0"
 1338      64756C65 
 1338      725F7469 
 1338      6D655F74 
 1338      00
 1339 0702 04       		.byte	0x4
 1340 0703 5B       		.byte	0x5b
 1341 0704 C6060000 		.long	0x6c6
 1342 0708 02       		.uleb128 0x2
 1343 0709 7461736B 		.ascii "task_time_t\0"
 1343      5F74696D 
 1343      655F7400 
 1344 0715 05       		.byte	0x5
 1345 0716 0F       		.byte	0xf
 1346 0717 C6060000 		.long	0x6c6
 1347 071b 02       		.uleb128 0x2
 1348 071c 6C696E6B 		.ascii "link_list_t\0"
 1348      5F6C6973 
 1348      745F7400 
 1349 0728 06       		.byte	0x6
 1350 0729 0B       		.byte	0xb
 1351 072a CB030000 		.long	0x3cb
 1352 072e 0F       		.uleb128 0xf
 1353 072f 4F535F41 		.ascii "OS_ACTIVATE_DISPATCHER\0"
 1353      43544956 
 1353      4154455F 
 1353      44495350 
 1353      41544348 
 1354 0746 01       		.byte	0x1
 1355 0747 1A       		.byte	0x1a
 1356 0748 00000000 		.long	LFB0
 1357 074c 05000000 		.long	LFE0-LFB0
 1358 0750 01       		.uleb128 0x1
 1359 0751 9C       		.byte	0x9c
 1360 0752 10       		.uleb128 0x10
 1361 0753 4F535F53 		.ascii "OS_SLEEPTASK\0"
 1361      4C454550 
 1361      5441534B 
 1361      00
GAS LISTING C:\Users\PRESID~1\AppData\Local\Temp\cc50m3V3.s 			page 42


 1362 0760 01       		.byte	0x1
 1363 0761 35       		.byte	0x35
 1364 0762 05000000 		.long	LFB1
 1365 0766 1A000000 		.long	LFE1-LFB1
 1366 076a 01       		.uleb128 0x1
 1367 076b 9C       		.byte	0x9c
 1368 076c 92070000 		.long	0x792
 1369 0770 11       		.uleb128 0x11
 1370 0771 00000000 		.secrel32	LASF1
 1371 0775 01       		.byte	0x1
 1372 0776 35       		.byte	0x35
 1373 0777 92070000 		.long	0x792
 1374 077b 02       		.uleb128 0x2
 1375 077c 91       		.byte	0x91
 1376 077d 00       		.sleb128 0
 1377 077e 12       		.uleb128 0x12
 1378 077f 6D696C6C 		.ascii "millisec\0"
 1378      69736563 
 1378      00
 1379 0788 01       		.byte	0x1
 1380 0789 35       		.byte	0x35
 1381 078a 08070000 		.long	0x708
 1382 078e 02       		.uleb128 0x2
 1383 078f 91       		.byte	0x91
 1384 0790 04       		.sleb128 4
 1385 0791 00       		.byte	0
 1386 0792 06       		.uleb128 0x6
 1387 0793 04       		.byte	0x4
 1388 0794 E2060000 		.long	0x6e2
 1389 0798 13       		.uleb128 0x13
 1390 0799 7461736B 		.ascii "task_state_request\0"
 1390      5F737461 
 1390      74655F72 
 1390      65717565 
 1390      737400
 1391 07ac 01       		.byte	0x1
 1392 07ad 3A       		.byte	0x3a
 1393 07ae 95000000 		.long	0x95
 1394 07b2 1F000000 		.long	LFB2
 1395 07b6 F7000000 		.long	LFE2-LFB2
 1396 07ba 01       		.uleb128 0x1
 1397 07bb 9C       		.byte	0x9c
 1398 07bc 14080000 		.long	0x814
 1399 07c0 12       		.uleb128 0x12
 1400 07c1 74656D70 		.ascii "temp_task\0"
 1400      5F746173 
 1400      6B00
 1401 07cb 01       		.byte	0x1
 1402 07cc 3A       		.byte	0x3a
 1403 07cd CB030000 		.long	0x3cb
 1404 07d1 02       		.uleb128 0x2
 1405 07d2 91       		.byte	0x91
 1406 07d3 00       		.sleb128 0
 1407 07d4 12       		.uleb128 0x12
 1408 07d5 72657175 		.ascii "requested_state\0"
 1408      65737465 
 1408      645F7374 
GAS LISTING C:\Users\PRESID~1\AppData\Local\Temp\cc50m3V3.s 			page 43


 1408      61746500 
 1409 07e5 01       		.byte	0x1
 1410 07e6 3A       		.byte	0x3a
 1411 07e7 96030000 		.long	0x396
 1412 07eb 02       		.uleb128 0x2
 1413 07ec 91       		.byte	0x91
 1414 07ed 04       		.sleb128 4
 1415 07ee 14       		.uleb128 0x14
 1416 07ef 52657175 		.ascii "RequestState\0"
 1416      65737453 
 1416      74617465 
 1416      00
 1417 07fc 01       		.byte	0x1
 1418 07fd 3C       		.byte	0x3c
 1419 07fe 95000000 		.long	0x95
 1420 0802 02       		.uleb128 0x2
 1421 0803 91       		.byte	0x91
 1422 0804 6F       		.sleb128 -17
 1423 0805 15       		.uleb128 0x15
 1424 0806 00000000 		.secrel32	LASF1
 1425 080a 01       		.byte	0x1
 1426 080b 3E       		.byte	0x3e
 1427 080c 92070000 		.long	0x792
 1428 0810 02       		.uleb128 0x2
 1429 0811 91       		.byte	0x91
 1430 0812 68       		.sleb128 -24
 1431 0813 00       		.byte	0
 1432 0814 10       		.uleb128 0x10
 1433 0815 4F535F41 		.ascii "OS_ActivateTask\0"
 1433      63746976 
 1433      61746554 
 1433      61736B00 
 1434 0825 01       		.byte	0x1
 1435 0826 A5       		.byte	0xa5
 1436 0827 16010000 		.long	LFB3
 1437 082b BE000000 		.long	LFE3-LFB3
 1438 082f 01       		.uleb128 0x1
 1439 0830 9C       		.byte	0x9c
 1440 0831 44080000 		.long	0x844
 1441 0835 11       		.uleb128 0x11
 1442 0836 00000000 		.secrel32	LASF1
 1443 083a 01       		.byte	0x1
 1444 083b A5       		.byte	0xa5
 1445 083c 92070000 		.long	0x792
 1446 0840 02       		.uleb128 0x2
 1447 0841 91       		.byte	0x91
 1448 0842 00       		.sleb128 0
 1449 0843 00       		.byte	0
 1450 0844 16       		.uleb128 0x16
 1451 0845 4F535F53 		.ascii "OS_STARTTASK\0"
 1451      54415254 
 1451      5441534B 
 1451      00
 1452 0852 01       		.byte	0x1
 1453 0853 D3       		.byte	0xd3
 1454 0854 D4010000 		.long	LFB4
 1455 0858 F7000000 		.long	LFE4-LFB4
GAS LISTING C:\Users\PRESID~1\AppData\Local\Temp\cc50m3V3.s 			page 44


 1456 085c 01       		.uleb128 0x1
 1457 085d 9C       		.byte	0x9c
 1458 085e 71080000 		.long	0x871
 1459 0862 11       		.uleb128 0x11
 1460 0863 00000000 		.secrel32	LASF1
 1461 0867 01       		.byte	0x1
 1462 0868 D3       		.byte	0xd3
 1463 0869 92070000 		.long	0x792
 1464 086d 02       		.uleb128 0x2
 1465 086e 91       		.byte	0x91
 1466 086f 00       		.sleb128 0
 1467 0870 00       		.byte	0
 1468 0871 17       		.uleb128 0x17
 1469 0872 4F535F54 		.ascii "OS_TERMINATE_TASK\0"
 1469      45524D49 
 1469      4E415445 
 1469      5F544153 
 1469      4B00
 1470 0884 01       		.byte	0x1
 1471 0885 0801     		.word	0x108
 1472 0887 CB020000 		.long	LFB5
 1473 088b BA000000 		.long	LFE5-LFB5
 1474 088f 01       		.uleb128 0x1
 1475 0890 9C       		.byte	0x9c
 1476 0891 A5080000 		.long	0x8a5
 1477 0895 18       		.uleb128 0x18
 1478 0896 00000000 		.secrel32	LASF1
 1479 089a 01       		.byte	0x1
 1480 089b 0801     		.word	0x108
 1481 089d 92070000 		.long	0x792
 1482 08a1 02       		.uleb128 0x2
 1483 08a2 91       		.byte	0x91
 1484 08a3 00       		.sleb128 0
 1485 08a4 00       		.byte	0
 1486 08a5 17       		.uleb128 0x17
 1487 08a6 4F535F54 		.ascii "OS_TASK_DISPATCHER\0"
 1487      41534B5F 
 1487      44495350 
 1487      41544348 
 1487      455200
 1488 08b9 01       		.byte	0x1
 1489 08ba 3001     		.word	0x130
 1490 08bc 85030000 		.long	LFB6
 1491 08c0 3B000000 		.long	LFE6-LFB6
 1492 08c4 01       		.uleb128 0x1
 1493 08c5 9C       		.byte	0x9c
 1494 08c6 DA080000 		.long	0x8da
 1495 08ca 19       		.uleb128 0x19
 1496 08cb 00000000 		.secrel32	LASF1
 1497 08cf 01       		.byte	0x1
 1498 08d0 3C01     		.word	0x13c
 1499 08d2 92070000 		.long	0x792
 1500 08d6 02       		.uleb128 0x2
 1501 08d7 91       		.byte	0x91
 1502 08d8 6C       		.sleb128 -20
 1503 08d9 00       		.byte	0
 1504 08da 1A       		.uleb128 0x1a
GAS LISTING C:\Users\PRESID~1\AppData\Local\Temp\cc50m3V3.s 			page 45


 1505 08db 5441534B 		.ascii "TASK_0\0"
 1505      5F3000
 1506 08e2 01       		.byte	0x1
 1507 08e3 4C01     		.word	0x14c
 1508 08e5 C0030000 		.long	LFB7
 1509 08e9 05000000 		.long	LFE7-LFB7
 1510 08ed 01       		.uleb128 0x1
 1511 08ee 9C       		.byte	0x9c
 1512 08ef 03090000 		.long	0x903
 1513 08f3 18       		.uleb128 0x18
 1514 08f4 05000000 		.secrel32	LASF2
 1515 08f8 01       		.byte	0x1
 1516 08f9 4C01     		.word	0x14c
 1517 08fb CB030000 		.long	0x3cb
 1518 08ff 02       		.uleb128 0x2
 1519 0900 91       		.byte	0x91
 1520 0901 00       		.sleb128 0
 1521 0902 00       		.byte	0
 1522 0903 1B       		.uleb128 0x1b
 1523 0904 5441534B 		.ascii "TASK_1\0"
 1523      5F3100
 1524 090b 01       		.byte	0x1
 1525 090c 5101     		.word	0x151
 1526 090e C5030000 		.long	LFB8
 1527 0912 1B000000 		.long	LFE8-LFB8
 1528 0916 01       		.uleb128 0x1
 1529 0917 9C       		.byte	0x9c
 1530 0918 2C090000 		.long	0x92c
 1531 091c 18       		.uleb128 0x18
 1532 091d 05000000 		.secrel32	LASF2
 1533 0921 01       		.byte	0x1
 1534 0922 5101     		.word	0x151
 1535 0924 CB030000 		.long	0x3cb
 1536 0928 02       		.uleb128 0x2
 1537 0929 91       		.byte	0x91
 1538 092a 00       		.sleb128 0
 1539 092b 00       		.byte	0
 1540 092c 1A       		.uleb128 0x1a
 1541 092d 5441534B 		.ascii "TASK_2\0"
 1541      5F3200
 1542 0934 01       		.byte	0x1
 1543 0935 5C01     		.word	0x15c
 1544 0937 E0030000 		.long	LFB9
 1545 093b 05000000 		.long	LFE9-LFB9
 1546 093f 01       		.uleb128 0x1
 1547 0940 9C       		.byte	0x9c
 1548 0941 55090000 		.long	0x955
 1549 0945 18       		.uleb128 0x18
 1550 0946 05000000 		.secrel32	LASF2
 1551 094a 01       		.byte	0x1
 1552 094b 5C01     		.word	0x15c
 1553 094d CB030000 		.long	0x3cb
 1554 0951 02       		.uleb128 0x2
 1555 0952 91       		.byte	0x91
 1556 0953 00       		.sleb128 0
 1557 0954 00       		.byte	0
 1558 0955 1A       		.uleb128 0x1a
GAS LISTING C:\Users\PRESID~1\AppData\Local\Temp\cc50m3V3.s 			page 46


 1559 0956 5441534B 		.ascii "TASK_3\0"
 1559      5F3300
 1560 095d 01       		.byte	0x1
 1561 095e 6601     		.word	0x166
 1562 0960 E5030000 		.long	LFB10
 1563 0964 05000000 		.long	LFE10-LFB10
 1564 0968 01       		.uleb128 0x1
 1565 0969 9C       		.byte	0x9c
 1566 096a 7E090000 		.long	0x97e
 1567 096e 18       		.uleb128 0x18
 1568 096f 05000000 		.secrel32	LASF2
 1569 0973 01       		.byte	0x1
 1570 0974 6601     		.word	0x166
 1571 0976 CB030000 		.long	0x3cb
 1572 097a 02       		.uleb128 0x2
 1573 097b 91       		.byte	0x91
 1574 097c 00       		.sleb128 0
 1575 097d 00       		.byte	0
 1576 097e 17       		.uleb128 0x17
 1577 097f 4F535F49 		.ascii "OS_INIT_TASKS\0"
 1577      4E49545F 
 1577      5441534B 
 1577      5300
 1578 098d 01       		.byte	0x1
 1579 098e 7001     		.word	0x170
 1580 0990 EA030000 		.long	LFB11
 1581 0994 51010000 		.long	LFE11-LFB11
 1582 0998 01       		.uleb128 0x1
 1583 0999 9C       		.byte	0x9c
 1584 099a 890A0000 		.long	0xa89
 1585 099e 1C       		.uleb128 0x1c
 1586 099f 7461736B 		.ascii "task_0\0"
 1586      5F3000
 1587 09a6 01       		.byte	0x1
 1588 09a7 7201     		.word	0x172
 1589 09a9 E2060000 		.long	0x6e2
 1590 09ad 05       		.uleb128 0x5
 1591 09ae 03       		.byte	0x3
 1592 09af 20040000 		.long	_task_0.1359
 1593 09b3 1C       		.uleb128 0x1c
 1594 09b4 7461736B 		.ascii "task_1\0"
 1594      5F3100
 1595 09bb 01       		.byte	0x1
 1596 09bc 7201     		.word	0x172
 1597 09be E2060000 		.long	0x6e2
 1598 09c2 05       		.uleb128 0x5
 1599 09c3 03       		.byte	0x3
 1600 09c4 A0040000 		.long	_task_1.1360
 1601 09c8 1C       		.uleb128 0x1c
 1602 09c9 7461736B 		.ascii "task_2\0"
 1602      5F3200
 1603 09d0 01       		.byte	0x1
 1604 09d1 7201     		.word	0x172
 1605 09d3 E2060000 		.long	0x6e2
 1606 09d7 05       		.uleb128 0x5
 1607 09d8 03       		.byte	0x3
 1608 09d9 20050000 		.long	_task_2.1361
GAS LISTING C:\Users\PRESID~1\AppData\Local\Temp\cc50m3V3.s 			page 47


 1609 09dd 1C       		.uleb128 0x1c
 1610 09de 7461736B 		.ascii "task_3\0"
 1610      5F3300
 1611 09e5 01       		.byte	0x1
 1612 09e6 7201     		.word	0x172
 1613 09e8 E2060000 		.long	0x6e2
 1614 09ec 05       		.uleb128 0x5
 1615 09ed 03       		.byte	0x3
 1616 09ee A0050000 		.long	_task_3.1362
 1617 09f2 1C       		.uleb128 0x1c
 1618 09f3 5441534B 		.ascii "TASK_GROUP_1\0"
 1618      5F47524F 
 1618      55505F31 
 1618      00
 1619 0a00 01       		.byte	0x1
 1620 0a01 7301     		.word	0x173
 1621 0a03 3C040000 		.long	0x43c
 1622 0a07 05       		.uleb128 0x5
 1623 0a08 03       		.byte	0x3
 1624 0a09 EC030000 		.long	_TASK_GROUP_1.1363
 1625 0a0d 1C       		.uleb128 0x1c
 1626 0a0e 5441534B 		.ascii "TASK_GROUP_2\0"
 1626      5F47524F 
 1626      55505F32 
 1626      00
 1627 0a1b 01       		.byte	0x1
 1628 0a1c 7401     		.word	0x174
 1629 0a1e 3C040000 		.long	0x43c
 1630 0a22 05       		.uleb128 0x5
 1631 0a23 03       		.byte	0x3
 1632 0a24 F4030000 		.long	_TASK_GROUP_2.1364
 1633 0a28 1C       		.uleb128 0x1c
 1634 0a29 5441534B 		.ascii "TASK_GROUP_3\0"
 1634      5F47524F 
 1634      55505F33 
 1634      00
 1635 0a36 01       		.byte	0x1
 1636 0a37 7501     		.word	0x175
 1637 0a39 3C040000 		.long	0x43c
 1638 0a3d 05       		.uleb128 0x5
 1639 0a3e 03       		.byte	0x3
 1640 0a3f FC030000 		.long	_TASK_GROUP_3.1365
 1641 0a43 1C       		.uleb128 0x1c
 1642 0a44 5441534B 		.ascii "TASK_GROUP_4\0"
 1642      5F47524F 
 1642      55505F34 
 1642      00
 1643 0a51 01       		.byte	0x1
 1644 0a52 7601     		.word	0x176
 1645 0a54 3C040000 		.long	0x43c
 1646 0a58 05       		.uleb128 0x5
 1647 0a59 03       		.byte	0x3
 1648 0a5a 04040000 		.long	_TASK_GROUP_4.1366
 1649 0a5e 1C       		.uleb128 0x1c
 1650 0a5f 5441534B 		.ascii "TASK_GROUP_5\0"
 1650      5F47524F 
 1650      55505F35 
GAS LISTING C:\Users\PRESID~1\AppData\Local\Temp\cc50m3V3.s 			page 48


 1650      00
 1651 0a6c 01       		.byte	0x1
 1652 0a6d 7701     		.word	0x177
 1653 0a6f 3C040000 		.long	0x43c
 1654 0a73 05       		.uleb128 0x5
 1655 0a74 03       		.byte	0x3
 1656 0a75 0C040000 		.long	_TASK_GROUP_5.1367
 1657 0a79 19       		.uleb128 0x19
 1658 0a7a 05000000 		.secrel32	LASF2
 1659 0a7e 01       		.byte	0x1
 1660 0a7f 7801     		.word	0x178
 1661 0a81 92070000 		.long	0x792
 1662 0a85 02       		.uleb128 0x2
 1663 0a86 91       		.byte	0x91
 1664 0a87 6C       		.sleb128 -20
 1665 0a88 00       		.byte	0
 1666 0a89 1D       		.uleb128 0x1d
 1667 0a8a 4F535F54 		.ascii "OS_TaskScheduler\0"
 1667      61736B53 
 1667      63686564 
 1667      756C6572 
 1667      00
 1668 0a9b 01       		.byte	0x1
 1669 0a9c BF01     		.word	0x1bf
 1670 0a9e 92070000 		.long	0x792
 1671 0aa2 3B050000 		.long	LFB12
 1672 0aa6 0E020000 		.long	LFE12-LFB12
 1673 0aaa 01       		.uleb128 0x1
 1674 0aab 9C       		.byte	0x9c
 1675 0aac 3F0B0000 		.long	0xb3f
 1676 0ab0 19       		.uleb128 0x19
 1677 0ab1 00000000 		.secrel32	LASF1
 1678 0ab5 01       		.byte	0x1
 1679 0ab6 C101     		.word	0x1c1
 1680 0ab8 92070000 		.long	0x792
 1681 0abc 05       		.uleb128 0x5
 1682 0abd 03       		.byte	0x3
 1683 0abe 08060000 		.long	_task.1372
 1684 0ac2 1C       		.uleb128 0x1c
 1685 0ac3 57696E6E 		.ascii "Winner_prio\0"
 1685      65725F70 
 1685      72696F00 
 1686 0acf 01       		.byte	0x1
 1687 0ad0 C201     		.word	0x1c2
 1688 0ad2 95000000 		.long	0x95
 1689 0ad6 05       		.uleb128 0x5
 1690 0ad7 03       		.byte	0x3
 1691 0ad8 0C060000 		.long	_Winner_prio.1373
 1692 0adc 1C       		.uleb128 0x1c
 1693 0add 57696E6E 		.ascii "Winner_task\0"
 1693      65725F74 
 1693      61736B00 
 1694 0ae9 01       		.byte	0x1
 1695 0aea C301     		.word	0x1c3
 1696 0aec 92070000 		.long	0x792
 1697 0af0 02       		.uleb128 0x2
 1698 0af1 91       		.byte	0x91
GAS LISTING C:\Users\PRESID~1\AppData\Local\Temp\cc50m3V3.s 			page 49


 1699 0af2 6C       		.sleb128 -20
 1700 0af3 1C       		.uleb128 0x1c
 1701 0af4 6C696E6B 		.ascii "link_list_member\0"
 1701      5F6C6973 
 1701      745F6D65 
 1701      6D626572 
 1701      00
 1702 0b05 01       		.byte	0x1
 1703 0b06 C401     		.word	0x1c4
 1704 0b08 3F0B0000 		.long	0xb3f
 1705 0b0c 05       		.uleb128 0x5
 1706 0b0d 03       		.byte	0x3
 1707 0b0e 04060000 		.long	_link_list_member.1375
 1708 0b12 1C       		.uleb128 0x1c
 1709 0b13 656C656D 		.ascii "element_nr\0"
 1709      656E745F 
 1709      6E7200
 1710 0b1e 01       		.byte	0x1
 1711 0b1f C501     		.word	0x1c5
 1712 0b21 95000000 		.long	0x95
 1713 0b25 02       		.uleb128 0x2
 1714 0b26 91       		.byte	0x91
 1715 0b27 6B       		.sleb128 -21
 1716 0b28 1C       		.uleb128 0x1c
 1717 0b29 64656C74 		.ascii "delta_time\0"
 1717      615F7469 
 1717      6D6500
 1718 0b34 01       		.byte	0x1
 1719 0b35 C701     		.word	0x1c7
 1720 0b37 F0060000 		.long	0x6f0
 1721 0b3b 02       		.uleb128 0x2
 1722 0b3c 91       		.byte	0x91
 1723 0b3d 64       		.sleb128 -28
 1724 0b3e 00       		.byte	0
 1725 0b3f 06       		.uleb128 0x6
 1726 0b40 04       		.byte	0x4
 1727 0b41 1B070000 		.long	0x71b
 1728 0b45 1E       		.uleb128 0x1e
 1729 0b46 4953525F 		.ascii "ISR_TASK_DISPATCH_C0\0"
 1729      5441534B 
 1729      5F444953 
 1729      50415443 
 1729      485F4330 
 1730 0b5b 01       		.byte	0x1
 1731 0b5c 2C02     		.word	0x22c
 1732 0b5e 49070000 		.long	LFB13
 1733 0b62 0D000000 		.long	LFE13-LFB13
 1734 0b66 01       		.uleb128 0x1
 1735 0b67 9C       		.byte	0x9c
 1736 0b68 1F       		.uleb128 0x1f
 1737 0b69 95000000 		.long	0x95
 1738 0b6d 7E0B0000 		.long	0xb7e
 1739 0b71 20       		.uleb128 0x20
 1740 0b72 7E0B0000 		.long	0xb7e
 1741 0b76 04       		.byte	0x4
 1742 0b77 20       		.uleb128 0x20
 1743 0b78 7E0B0000 		.long	0xb7e
GAS LISTING C:\Users\PRESID~1\AppData\Local\Temp\cc50m3V3.s 			page 50


 1744 0b7c C7       		.byte	0xc7
 1745 0b7d 00       		.byte	0
 1746 0b7e 03       		.uleb128 0x3
 1747 0b7f 04       		.byte	0x4
 1748 0b80 07       		.byte	0x7
 1749 0b81 73697A65 		.ascii "sizetype\0"
 1749      74797065 
 1749      00
 1750 0b8a 14       		.uleb128 0x14
 1751 0b8b 5441534B 		.ascii "TASK_STACK\0"
 1751      5F535441 
 1751      434B00
 1752 0b96 01       		.byte	0x1
 1753 0b97 16       		.byte	0x16
 1754 0b98 680B0000 		.long	0xb68
 1755 0b9c 05       		.uleb128 0x5
 1756 0b9d 03       		.byte	0x3
 1757 0b9e 00000000 		.long	_TASK_STACK
 1758 0ba2 14       		.uleb128 0x14
 1759 0ba3 4C415354 		.ascii "LAST_CURRENT_TIME\0"
 1759      5F435552 
 1759      52454E54 
 1759      5F54494D 
 1759      4500
 1760 0bb5 01       		.byte	0x1
 1761 0bb6 17       		.byte	0x17
 1762 0bb7 F0060000 		.long	0x6f0
 1763 0bbb 05       		.uleb128 0x5
 1764 0bbc 03       		.byte	0x3
 1765 0bbd E8030000 		.long	_LAST_CURRENT_TIME
 1766 0bc1 1F       		.uleb128 0x1f
 1767 0bc2 95000000 		.long	0x95
 1768 0bc6 D70B0000 		.long	0xbd7
 1769 0bca 20       		.uleb128 0x20
 1770 0bcb 7E0B0000 		.long	0xb7e
 1771 0bcf 00       		.byte	0
 1772 0bd0 20       		.uleb128 0x20
 1773 0bd1 7E0B0000 		.long	0xb7e
 1774 0bd5 FF       		.byte	0xff
 1775 0bd6 00       		.byte	0
 1776 0bd7 21       		.uleb128 0x21
 1777 0bd8 4F535F53 		.ascii "OS_STACK\0"
 1777      5441434B 
 1777      00
 1778 0be1 07       		.byte	0x7
 1779 0be2 0D       		.byte	0xd
 1780 0be3 C10B0000 		.long	0xbc1
 1781 0be7 00       		.byte	0
 1782              		.section	.debug_abbrev,"dr"
 1783              	Ldebug_abbrev0:
 1784 0000 01       		.uleb128 0x1
 1785 0001 11       		.uleb128 0x11
 1786 0002 01       		.byte	0x1
 1787 0003 25       		.uleb128 0x25
 1788 0004 08       		.uleb128 0x8
 1789 0005 13       		.uleb128 0x13
 1790 0006 0B       		.uleb128 0xb
GAS LISTING C:\Users\PRESID~1\AppData\Local\Temp\cc50m3V3.s 			page 51


 1791 0007 03       		.uleb128 0x3
 1792 0008 08       		.uleb128 0x8
 1793 0009 11       		.uleb128 0x11
 1794 000a 01       		.uleb128 0x1
 1795 000b 12       		.uleb128 0x12
 1796 000c 06       		.uleb128 0x6
 1797 000d 10       		.uleb128 0x10
 1798 000e 17       		.uleb128 0x17
 1799 000f 9942     		.uleb128 0x2119
 1800 0011 17       		.uleb128 0x17
 1801 0012 00       		.byte	0
 1802 0013 00       		.byte	0
 1803 0014 02       		.uleb128 0x2
 1804 0015 16       		.uleb128 0x16
 1805 0016 00       		.byte	0
 1806 0017 03       		.uleb128 0x3
 1807 0018 08       		.uleb128 0x8
 1808 0019 3A       		.uleb128 0x3a
 1809 001a 0B       		.uleb128 0xb
 1810 001b 3B       		.uleb128 0x3b
 1811 001c 0B       		.uleb128 0xb
 1812 001d 49       		.uleb128 0x49
 1813 001e 13       		.uleb128 0x13
 1814 001f 00       		.byte	0
 1815 0020 00       		.byte	0
 1816 0021 03       		.uleb128 0x3
 1817 0022 24       		.uleb128 0x24
 1818 0023 00       		.byte	0
 1819 0024 0B       		.uleb128 0xb
 1820 0025 0B       		.uleb128 0xb
 1821 0026 3E       		.uleb128 0x3e
 1822 0027 0B       		.uleb128 0xb
 1823 0028 03       		.uleb128 0x3
 1824 0029 08       		.uleb128 0x8
 1825 002a 00       		.byte	0
 1826 002b 00       		.byte	0
 1827 002c 04       		.uleb128 0x4
 1828 002d 04       		.uleb128 0x4
 1829 002e 01       		.byte	0x1
 1830 002f 03       		.uleb128 0x3
 1831 0030 08       		.uleb128 0x8
 1832 0031 0B       		.uleb128 0xb
 1833 0032 0B       		.uleb128 0xb
 1834 0033 3A       		.uleb128 0x3a
 1835 0034 0B       		.uleb128 0xb
 1836 0035 3B       		.uleb128 0x3b
 1837 0036 0B       		.uleb128 0xb
 1838 0037 01       		.uleb128 0x1
 1839 0038 13       		.uleb128 0x13
 1840 0039 00       		.byte	0
 1841 003a 00       		.byte	0
 1842 003b 05       		.uleb128 0x5
 1843 003c 28       		.uleb128 0x28
 1844 003d 00       		.byte	0
 1845 003e 03       		.uleb128 0x3
 1846 003f 08       		.uleb128 0x8
 1847 0040 1C       		.uleb128 0x1c
GAS LISTING C:\Users\PRESID~1\AppData\Local\Temp\cc50m3V3.s 			page 52


 1848 0041 0D       		.uleb128 0xd
 1849 0042 00       		.byte	0
 1850 0043 00       		.byte	0
 1851 0044 06       		.uleb128 0x6
 1852 0045 0F       		.uleb128 0xf
 1853 0046 00       		.byte	0
 1854 0047 0B       		.uleb128 0xb
 1855 0048 0B       		.uleb128 0xb
 1856 0049 49       		.uleb128 0x49
 1857 004a 13       		.uleb128 0x13
 1858 004b 00       		.byte	0
 1859 004c 00       		.byte	0
 1860 004d 07       		.uleb128 0x7
 1861 004e 15       		.uleb128 0x15
 1862 004f 01       		.byte	0x1
 1863 0050 27       		.uleb128 0x27
 1864 0051 19       		.uleb128 0x19
 1865 0052 01       		.uleb128 0x1
 1866 0053 13       		.uleb128 0x13
 1867 0054 00       		.byte	0
 1868 0055 00       		.byte	0
 1869 0056 08       		.uleb128 0x8
 1870 0057 05       		.uleb128 0x5
 1871 0058 00       		.byte	0
 1872 0059 49       		.uleb128 0x49
 1873 005a 13       		.uleb128 0x13
 1874 005b 00       		.byte	0
 1875 005c 00       		.byte	0
 1876 005d 09       		.uleb128 0x9
 1877 005e 0F       		.uleb128 0xf
 1878 005f 00       		.byte	0
 1879 0060 0B       		.uleb128 0xb
 1880 0061 0B       		.uleb128 0xb
 1881 0062 00       		.byte	0
 1882 0063 00       		.byte	0
 1883 0064 0A       		.uleb128 0xa
 1884 0065 15       		.uleb128 0x15
 1885 0066 01       		.byte	0x1
 1886 0067 27       		.uleb128 0x27
 1887 0068 19       		.uleb128 0x19
 1888 0069 49       		.uleb128 0x49
 1889 006a 13       		.uleb128 0x13
 1890 006b 01       		.uleb128 0x1
 1891 006c 13       		.uleb128 0x13
 1892 006d 00       		.byte	0
 1893 006e 00       		.byte	0
 1894 006f 0B       		.uleb128 0xb
 1895 0070 13       		.uleb128 0x13
 1896 0071 01       		.byte	0x1
 1897 0072 03       		.uleb128 0x3
 1898 0073 08       		.uleb128 0x8
 1899 0074 0B       		.uleb128 0xb
 1900 0075 0B       		.uleb128 0xb
 1901 0076 3A       		.uleb128 0x3a
 1902 0077 0B       		.uleb128 0xb
 1903 0078 3B       		.uleb128 0x3b
 1904 0079 0B       		.uleb128 0xb
GAS LISTING C:\Users\PRESID~1\AppData\Local\Temp\cc50m3V3.s 			page 53


 1905 007a 01       		.uleb128 0x1
 1906 007b 13       		.uleb128 0x13
 1907 007c 00       		.byte	0
 1908 007d 00       		.byte	0
 1909 007e 0C       		.uleb128 0xc
 1910 007f 0D       		.uleb128 0xd
 1911 0080 00       		.byte	0
 1912 0081 03       		.uleb128 0x3
 1913 0082 0E       		.uleb128 0xe
 1914 0083 3A       		.uleb128 0x3a
 1915 0084 0B       		.uleb128 0xb
 1916 0085 3B       		.uleb128 0x3b
 1917 0086 0B       		.uleb128 0xb
 1918 0087 49       		.uleb128 0x49
 1919 0088 13       		.uleb128 0x13
 1920 0089 38       		.uleb128 0x38
 1921 008a 0B       		.uleb128 0xb
 1922 008b 00       		.byte	0
 1923 008c 00       		.byte	0
 1924 008d 0D       		.uleb128 0xd
 1925 008e 0D       		.uleb128 0xd
 1926 008f 00       		.byte	0
 1927 0090 03       		.uleb128 0x3
 1928 0091 08       		.uleb128 0x8
 1929 0092 3A       		.uleb128 0x3a
 1930 0093 0B       		.uleb128 0xb
 1931 0094 3B       		.uleb128 0x3b
 1932 0095 0B       		.uleb128 0xb
 1933 0096 49       		.uleb128 0x49
 1934 0097 13       		.uleb128 0x13
 1935 0098 38       		.uleb128 0x38
 1936 0099 0B       		.uleb128 0xb
 1937 009a 00       		.byte	0
 1938 009b 00       		.byte	0
 1939 009c 0E       		.uleb128 0xe
 1940 009d 0D       		.uleb128 0xd
 1941 009e 00       		.byte	0
 1942 009f 03       		.uleb128 0x3
 1943 00a0 08       		.uleb128 0x8
 1944 00a1 3A       		.uleb128 0x3a
 1945 00a2 0B       		.uleb128 0xb
 1946 00a3 3B       		.uleb128 0x3b
 1947 00a4 0B       		.uleb128 0xb
 1948 00a5 49       		.uleb128 0x49
 1949 00a6 13       		.uleb128 0x13
 1950 00a7 0B       		.uleb128 0xb
 1951 00a8 0B       		.uleb128 0xb
 1952 00a9 0D       		.uleb128 0xd
 1953 00aa 0B       		.uleb128 0xb
 1954 00ab 0C       		.uleb128 0xc
 1955 00ac 0B       		.uleb128 0xb
 1956 00ad 38       		.uleb128 0x38
 1957 00ae 0B       		.uleb128 0xb
 1958 00af 00       		.byte	0
 1959 00b0 00       		.byte	0
 1960 00b1 0F       		.uleb128 0xf
 1961 00b2 2E       		.uleb128 0x2e
GAS LISTING C:\Users\PRESID~1\AppData\Local\Temp\cc50m3V3.s 			page 54


 1962 00b3 00       		.byte	0
 1963 00b4 3F       		.uleb128 0x3f
 1964 00b5 19       		.uleb128 0x19
 1965 00b6 03       		.uleb128 0x3
 1966 00b7 08       		.uleb128 0x8
 1967 00b8 3A       		.uleb128 0x3a
 1968 00b9 0B       		.uleb128 0xb
 1969 00ba 3B       		.uleb128 0x3b
 1970 00bb 0B       		.uleb128 0xb
 1971 00bc 27       		.uleb128 0x27
 1972 00bd 19       		.uleb128 0x19
 1973 00be 11       		.uleb128 0x11
 1974 00bf 01       		.uleb128 0x1
 1975 00c0 12       		.uleb128 0x12
 1976 00c1 06       		.uleb128 0x6
 1977 00c2 40       		.uleb128 0x40
 1978 00c3 18       		.uleb128 0x18
 1979 00c4 9742     		.uleb128 0x2117
 1980 00c6 19       		.uleb128 0x19
 1981 00c7 00       		.byte	0
 1982 00c8 00       		.byte	0
 1983 00c9 10       		.uleb128 0x10
 1984 00ca 2E       		.uleb128 0x2e
 1985 00cb 01       		.byte	0x1
 1986 00cc 3F       		.uleb128 0x3f
 1987 00cd 19       		.uleb128 0x19
 1988 00ce 03       		.uleb128 0x3
 1989 00cf 08       		.uleb128 0x8
 1990 00d0 3A       		.uleb128 0x3a
 1991 00d1 0B       		.uleb128 0xb
 1992 00d2 3B       		.uleb128 0x3b
 1993 00d3 0B       		.uleb128 0xb
 1994 00d4 27       		.uleb128 0x27
 1995 00d5 19       		.uleb128 0x19
 1996 00d6 11       		.uleb128 0x11
 1997 00d7 01       		.uleb128 0x1
 1998 00d8 12       		.uleb128 0x12
 1999 00d9 06       		.uleb128 0x6
 2000 00da 40       		.uleb128 0x40
 2001 00db 18       		.uleb128 0x18
 2002 00dc 9642     		.uleb128 0x2116
 2003 00de 19       		.uleb128 0x19
 2004 00df 01       		.uleb128 0x1
 2005 00e0 13       		.uleb128 0x13
 2006 00e1 00       		.byte	0
 2007 00e2 00       		.byte	0
 2008 00e3 11       		.uleb128 0x11
 2009 00e4 05       		.uleb128 0x5
 2010 00e5 00       		.byte	0
 2011 00e6 03       		.uleb128 0x3
 2012 00e7 0E       		.uleb128 0xe
 2013 00e8 3A       		.uleb128 0x3a
 2014 00e9 0B       		.uleb128 0xb
 2015 00ea 3B       		.uleb128 0x3b
 2016 00eb 0B       		.uleb128 0xb
 2017 00ec 49       		.uleb128 0x49
 2018 00ed 13       		.uleb128 0x13
GAS LISTING C:\Users\PRESID~1\AppData\Local\Temp\cc50m3V3.s 			page 55


 2019 00ee 02       		.uleb128 0x2
 2020 00ef 18       		.uleb128 0x18
 2021 00f0 00       		.byte	0
 2022 00f1 00       		.byte	0
 2023 00f2 12       		.uleb128 0x12
 2024 00f3 05       		.uleb128 0x5
 2025 00f4 00       		.byte	0
 2026 00f5 03       		.uleb128 0x3
 2027 00f6 08       		.uleb128 0x8
 2028 00f7 3A       		.uleb128 0x3a
 2029 00f8 0B       		.uleb128 0xb
 2030 00f9 3B       		.uleb128 0x3b
 2031 00fa 0B       		.uleb128 0xb
 2032 00fb 49       		.uleb128 0x49
 2033 00fc 13       		.uleb128 0x13
 2034 00fd 02       		.uleb128 0x2
 2035 00fe 18       		.uleb128 0x18
 2036 00ff 00       		.byte	0
 2037 0100 00       		.byte	0
 2038 0101 13       		.uleb128 0x13
 2039 0102 2E       		.uleb128 0x2e
 2040 0103 01       		.byte	0x1
 2041 0104 3F       		.uleb128 0x3f
 2042 0105 19       		.uleb128 0x19
 2043 0106 03       		.uleb128 0x3
 2044 0107 08       		.uleb128 0x8
 2045 0108 3A       		.uleb128 0x3a
 2046 0109 0B       		.uleb128 0xb
 2047 010a 3B       		.uleb128 0x3b
 2048 010b 0B       		.uleb128 0xb
 2049 010c 27       		.uleb128 0x27
 2050 010d 19       		.uleb128 0x19
 2051 010e 49       		.uleb128 0x49
 2052 010f 13       		.uleb128 0x13
 2053 0110 11       		.uleb128 0x11
 2054 0111 01       		.uleb128 0x1
 2055 0112 12       		.uleb128 0x12
 2056 0113 06       		.uleb128 0x6
 2057 0114 40       		.uleb128 0x40
 2058 0115 18       		.uleb128 0x18
 2059 0116 9642     		.uleb128 0x2116
 2060 0118 19       		.uleb128 0x19
 2061 0119 01       		.uleb128 0x1
 2062 011a 13       		.uleb128 0x13
 2063 011b 00       		.byte	0
 2064 011c 00       		.byte	0
 2065 011d 14       		.uleb128 0x14
 2066 011e 34       		.uleb128 0x34
 2067 011f 00       		.byte	0
 2068 0120 03       		.uleb128 0x3
 2069 0121 08       		.uleb128 0x8
 2070 0122 3A       		.uleb128 0x3a
 2071 0123 0B       		.uleb128 0xb
 2072 0124 3B       		.uleb128 0x3b
 2073 0125 0B       		.uleb128 0xb
 2074 0126 49       		.uleb128 0x49
 2075 0127 13       		.uleb128 0x13
GAS LISTING C:\Users\PRESID~1\AppData\Local\Temp\cc50m3V3.s 			page 56


 2076 0128 02       		.uleb128 0x2
 2077 0129 18       		.uleb128 0x18
 2078 012a 00       		.byte	0
 2079 012b 00       		.byte	0
 2080 012c 15       		.uleb128 0x15
 2081 012d 34       		.uleb128 0x34
 2082 012e 00       		.byte	0
 2083 012f 03       		.uleb128 0x3
 2084 0130 0E       		.uleb128 0xe
 2085 0131 3A       		.uleb128 0x3a
 2086 0132 0B       		.uleb128 0xb
 2087 0133 3B       		.uleb128 0x3b
 2088 0134 0B       		.uleb128 0xb
 2089 0135 49       		.uleb128 0x49
 2090 0136 13       		.uleb128 0x13
 2091 0137 02       		.uleb128 0x2
 2092 0138 18       		.uleb128 0x18
 2093 0139 00       		.byte	0
 2094 013a 00       		.byte	0
 2095 013b 16       		.uleb128 0x16
 2096 013c 2E       		.uleb128 0x2e
 2097 013d 01       		.byte	0x1
 2098 013e 03       		.uleb128 0x3
 2099 013f 08       		.uleb128 0x8
 2100 0140 3A       		.uleb128 0x3a
 2101 0141 0B       		.uleb128 0xb
 2102 0142 3B       		.uleb128 0x3b
 2103 0143 0B       		.uleb128 0xb
 2104 0144 27       		.uleb128 0x27
 2105 0145 19       		.uleb128 0x19
 2106 0146 11       		.uleb128 0x11
 2107 0147 01       		.uleb128 0x1
 2108 0148 12       		.uleb128 0x12
 2109 0149 06       		.uleb128 0x6
 2110 014a 40       		.uleb128 0x40
 2111 014b 18       		.uleb128 0x18
 2112 014c 9642     		.uleb128 0x2116
 2113 014e 19       		.uleb128 0x19
 2114 014f 01       		.uleb128 0x1
 2115 0150 13       		.uleb128 0x13
 2116 0151 00       		.byte	0
 2117 0152 00       		.byte	0
 2118 0153 17       		.uleb128 0x17
 2119 0154 2E       		.uleb128 0x2e
 2120 0155 01       		.byte	0x1
 2121 0156 3F       		.uleb128 0x3f
 2122 0157 19       		.uleb128 0x19
 2123 0158 03       		.uleb128 0x3
 2124 0159 08       		.uleb128 0x8
 2125 015a 3A       		.uleb128 0x3a
 2126 015b 0B       		.uleb128 0xb
 2127 015c 3B       		.uleb128 0x3b
 2128 015d 05       		.uleb128 0x5
 2129 015e 27       		.uleb128 0x27
 2130 015f 19       		.uleb128 0x19
 2131 0160 11       		.uleb128 0x11
 2132 0161 01       		.uleb128 0x1
GAS LISTING C:\Users\PRESID~1\AppData\Local\Temp\cc50m3V3.s 			page 57


 2133 0162 12       		.uleb128 0x12
 2134 0163 06       		.uleb128 0x6
 2135 0164 40       		.uleb128 0x40
 2136 0165 18       		.uleb128 0x18
 2137 0166 9642     		.uleb128 0x2116
 2138 0168 19       		.uleb128 0x19
 2139 0169 01       		.uleb128 0x1
 2140 016a 13       		.uleb128 0x13
 2141 016b 00       		.byte	0
 2142 016c 00       		.byte	0
 2143 016d 18       		.uleb128 0x18
 2144 016e 05       		.uleb128 0x5
 2145 016f 00       		.byte	0
 2146 0170 03       		.uleb128 0x3
 2147 0171 0E       		.uleb128 0xe
 2148 0172 3A       		.uleb128 0x3a
 2149 0173 0B       		.uleb128 0xb
 2150 0174 3B       		.uleb128 0x3b
 2151 0175 05       		.uleb128 0x5
 2152 0176 49       		.uleb128 0x49
 2153 0177 13       		.uleb128 0x13
 2154 0178 02       		.uleb128 0x2
 2155 0179 18       		.uleb128 0x18
 2156 017a 00       		.byte	0
 2157 017b 00       		.byte	0
 2158 017c 19       		.uleb128 0x19
 2159 017d 34       		.uleb128 0x34
 2160 017e 00       		.byte	0
 2161 017f 03       		.uleb128 0x3
 2162 0180 0E       		.uleb128 0xe
 2163 0181 3A       		.uleb128 0x3a
 2164 0182 0B       		.uleb128 0xb
 2165 0183 3B       		.uleb128 0x3b
 2166 0184 05       		.uleb128 0x5
 2167 0185 49       		.uleb128 0x49
 2168 0186 13       		.uleb128 0x13
 2169 0187 02       		.uleb128 0x2
 2170 0188 18       		.uleb128 0x18
 2171 0189 00       		.byte	0
 2172 018a 00       		.byte	0
 2173 018b 1A       		.uleb128 0x1a
 2174 018c 2E       		.uleb128 0x2e
 2175 018d 01       		.byte	0x1
 2176 018e 03       		.uleb128 0x3
 2177 018f 08       		.uleb128 0x8
 2178 0190 3A       		.uleb128 0x3a
 2179 0191 0B       		.uleb128 0xb
 2180 0192 3B       		.uleb128 0x3b
 2181 0193 05       		.uleb128 0x5
 2182 0194 27       		.uleb128 0x27
 2183 0195 19       		.uleb128 0x19
 2184 0196 11       		.uleb128 0x11
 2185 0197 01       		.uleb128 0x1
 2186 0198 12       		.uleb128 0x12
 2187 0199 06       		.uleb128 0x6
 2188 019a 40       		.uleb128 0x40
 2189 019b 18       		.uleb128 0x18
GAS LISTING C:\Users\PRESID~1\AppData\Local\Temp\cc50m3V3.s 			page 58


 2190 019c 9742     		.uleb128 0x2117
 2191 019e 19       		.uleb128 0x19
 2192 019f 01       		.uleb128 0x1
 2193 01a0 13       		.uleb128 0x13
 2194 01a1 00       		.byte	0
 2195 01a2 00       		.byte	0
 2196 01a3 1B       		.uleb128 0x1b
 2197 01a4 2E       		.uleb128 0x2e
 2198 01a5 01       		.byte	0x1
 2199 01a6 03       		.uleb128 0x3
 2200 01a7 08       		.uleb128 0x8
 2201 01a8 3A       		.uleb128 0x3a
 2202 01a9 0B       		.uleb128 0xb
 2203 01aa 3B       		.uleb128 0x3b
 2204 01ab 05       		.uleb128 0x5
 2205 01ac 27       		.uleb128 0x27
 2206 01ad 19       		.uleb128 0x19
 2207 01ae 11       		.uleb128 0x11
 2208 01af 01       		.uleb128 0x1
 2209 01b0 12       		.uleb128 0x12
 2210 01b1 06       		.uleb128 0x6
 2211 01b2 40       		.uleb128 0x40
 2212 01b3 18       		.uleb128 0x18
 2213 01b4 9642     		.uleb128 0x2116
 2214 01b6 19       		.uleb128 0x19
 2215 01b7 01       		.uleb128 0x1
 2216 01b8 13       		.uleb128 0x13
 2217 01b9 00       		.byte	0
 2218 01ba 00       		.byte	0
 2219 01bb 1C       		.uleb128 0x1c
 2220 01bc 34       		.uleb128 0x34
 2221 01bd 00       		.byte	0
 2222 01be 03       		.uleb128 0x3
 2223 01bf 08       		.uleb128 0x8
 2224 01c0 3A       		.uleb128 0x3a
 2225 01c1 0B       		.uleb128 0xb
 2226 01c2 3B       		.uleb128 0x3b
 2227 01c3 05       		.uleb128 0x5
 2228 01c4 49       		.uleb128 0x49
 2229 01c5 13       		.uleb128 0x13
 2230 01c6 02       		.uleb128 0x2
 2231 01c7 18       		.uleb128 0x18
 2232 01c8 00       		.byte	0
 2233 01c9 00       		.byte	0
 2234 01ca 1D       		.uleb128 0x1d
 2235 01cb 2E       		.uleb128 0x2e
 2236 01cc 01       		.byte	0x1
 2237 01cd 03       		.uleb128 0x3
 2238 01ce 08       		.uleb128 0x8
 2239 01cf 3A       		.uleb128 0x3a
 2240 01d0 0B       		.uleb128 0xb
 2241 01d1 3B       		.uleb128 0x3b
 2242 01d2 05       		.uleb128 0x5
 2243 01d3 27       		.uleb128 0x27
 2244 01d4 19       		.uleb128 0x19
 2245 01d5 49       		.uleb128 0x49
 2246 01d6 13       		.uleb128 0x13
GAS LISTING C:\Users\PRESID~1\AppData\Local\Temp\cc50m3V3.s 			page 59


 2247 01d7 11       		.uleb128 0x11
 2248 01d8 01       		.uleb128 0x1
 2249 01d9 12       		.uleb128 0x12
 2250 01da 06       		.uleb128 0x6
 2251 01db 40       		.uleb128 0x40
 2252 01dc 18       		.uleb128 0x18
 2253 01dd 9642     		.uleb128 0x2116
 2254 01df 19       		.uleb128 0x19
 2255 01e0 01       		.uleb128 0x1
 2256 01e1 13       		.uleb128 0x13
 2257 01e2 00       		.byte	0
 2258 01e3 00       		.byte	0
 2259 01e4 1E       		.uleb128 0x1e
 2260 01e5 2E       		.uleb128 0x2e
 2261 01e6 00       		.byte	0
 2262 01e7 3F       		.uleb128 0x3f
 2263 01e8 19       		.uleb128 0x19
 2264 01e9 03       		.uleb128 0x3
 2265 01ea 08       		.uleb128 0x8
 2266 01eb 3A       		.uleb128 0x3a
 2267 01ec 0B       		.uleb128 0xb
 2268 01ed 3B       		.uleb128 0x3b
 2269 01ee 05       		.uleb128 0x5
 2270 01ef 27       		.uleb128 0x27
 2271 01f0 19       		.uleb128 0x19
 2272 01f1 11       		.uleb128 0x11
 2273 01f2 01       		.uleb128 0x1
 2274 01f3 12       		.uleb128 0x12
 2275 01f4 06       		.uleb128 0x6
 2276 01f5 40       		.uleb128 0x40
 2277 01f6 18       		.uleb128 0x18
 2278 01f7 9642     		.uleb128 0x2116
 2279 01f9 19       		.uleb128 0x19
 2280 01fa 00       		.byte	0
 2281 01fb 00       		.byte	0
 2282 01fc 1F       		.uleb128 0x1f
 2283 01fd 01       		.uleb128 0x1
 2284 01fe 01       		.byte	0x1
 2285 01ff 49       		.uleb128 0x49
 2286 0200 13       		.uleb128 0x13
 2287 0201 01       		.uleb128 0x1
 2288 0202 13       		.uleb128 0x13
 2289 0203 00       		.byte	0
 2290 0204 00       		.byte	0
 2291 0205 20       		.uleb128 0x20
 2292 0206 21       		.uleb128 0x21
 2293 0207 00       		.byte	0
 2294 0208 49       		.uleb128 0x49
 2295 0209 13       		.uleb128 0x13
 2296 020a 2F       		.uleb128 0x2f
 2297 020b 0B       		.uleb128 0xb
 2298 020c 00       		.byte	0
 2299 020d 00       		.byte	0
 2300 020e 21       		.uleb128 0x21
 2301 020f 34       		.uleb128 0x34
 2302 0210 00       		.byte	0
 2303 0211 03       		.uleb128 0x3
GAS LISTING C:\Users\PRESID~1\AppData\Local\Temp\cc50m3V3.s 			page 60


 2304 0212 08       		.uleb128 0x8
 2305 0213 3A       		.uleb128 0x3a
 2306 0214 0B       		.uleb128 0xb
 2307 0215 3B       		.uleb128 0x3b
 2308 0216 0B       		.uleb128 0xb
 2309 0217 49       		.uleb128 0x49
 2310 0218 13       		.uleb128 0x13
 2311 0219 3F       		.uleb128 0x3f
 2312 021a 19       		.uleb128 0x19
 2313 021b 3C       		.uleb128 0x3c
 2314 021c 19       		.uleb128 0x19
 2315 021d 00       		.byte	0
 2316 021e 00       		.byte	0
 2317 021f 00       		.byte	0
 2318              		.section	.debug_aranges,"dr"
 2319 0000 1C000000 		.long	0x1c
 2320 0004 0200     		.word	0x2
 2321 0006 00000000 		.secrel32	Ldebug_info0
 2322 000a 04       		.byte	0x4
 2323 000b 00       		.byte	0
 2324 000c 0000     		.word	0
 2325 000e 0000     		.word	0
 2326 0010 00000000 		.long	Ltext0
 2327 0014 56070000 		.long	Letext0-Ltext0
 2328 0018 00000000 		.long	0
 2329 001c 00000000 		.long	0
 2330              		.section	.debug_macro,"dr"
 2331              	Ldebug_macro0:
 2332 0000 0400     		.word	0x4
 2333 0002 02       		.byte	0x2
 2334 0003 00000000 		.secrel32	Ldebug_line0
 2335 0007 01       		.byte	0x1
 2336 0008 00       		.uleb128 0
 2337 0009 5F5F5354 		.ascii "__STDC__ 1\0"
 2337      44435F5F 
 2337      203100
 2338 0014 01       		.byte	0x1
 2339 0015 00       		.uleb128 0
 2340 0016 5F5F5354 		.ascii "__STDC_HOSTED__ 1\0"
 2340      44435F48 
 2340      4F535445 
 2340      445F5F20 
 2340      3100
 2341 0028 01       		.byte	0x1
 2342 0029 00       		.uleb128 0
 2343 002a 5F5F474E 		.ascii "__GNUC__ 4\0"
 2343      55435F5F 
 2343      203400
 2344 0035 01       		.byte	0x1
 2345 0036 00       		.uleb128 0
 2346 0037 5F5F474E 		.ascii "__GNUC_MINOR__ 9\0"
 2346      55435F4D 
 2346      494E4F52 
 2346      5F5F2039 
 2346      00
 2347 0048 01       		.byte	0x1
 2348 0049 00       		.uleb128 0
GAS LISTING C:\Users\PRESID~1\AppData\Local\Temp\cc50m3V3.s 			page 61


 2349 004a 5F5F474E 		.ascii "__GNUC_PATCHLEVEL__ 3\0"
 2349      55435F50 
 2349      41544348 
 2349      4C455645 
 2349      4C5F5F20 
 2350 0060 01       		.byte	0x1
 2351 0061 00       		.uleb128 0
 2352 0062 5F5F5645 		.ascii "__VERSION__ \"4.9.3\"\0"
 2352      5253494F 
 2352      4E5F5F20 
 2352      22342E39 
 2352      2E332200 
 2353 0076 01       		.byte	0x1
 2354 0077 00       		.uleb128 0
 2355 0078 5F5F4154 		.ascii "__ATOMIC_RELAXED 0\0"
 2355      4F4D4943 
 2355      5F52454C 
 2355      41584544 
 2355      203000
 2356 008b 01       		.byte	0x1
 2357 008c 00       		.uleb128 0
 2358 008d 5F5F4154 		.ascii "__ATOMIC_SEQ_CST 5\0"
 2358      4F4D4943 
 2358      5F534551 
 2358      5F435354 
 2358      203500
 2359 00a0 01       		.byte	0x1
 2360 00a1 00       		.uleb128 0
 2361 00a2 5F5F4154 		.ascii "__ATOMIC_ACQUIRE 2\0"
 2361      4F4D4943 
 2361      5F414351 
 2361      55495245 
 2361      203200
 2362 00b5 01       		.byte	0x1
 2363 00b6 00       		.uleb128 0
 2364 00b7 5F5F4154 		.ascii "__ATOMIC_RELEASE 3\0"
 2364      4F4D4943 
 2364      5F52454C 
 2364      45415345 
 2364      203300
 2365 00ca 01       		.byte	0x1
 2366 00cb 00       		.uleb128 0
 2367 00cc 5F5F4154 		.ascii "__ATOMIC_ACQ_REL 4\0"
 2367      4F4D4943 
 2367      5F414351 
 2367      5F52454C 
 2367      203400
 2368 00df 01       		.byte	0x1
 2369 00e0 00       		.uleb128 0
 2370 00e1 5F5F4154 		.ascii "__ATOMIC_CONSUME 1\0"
 2370      4F4D4943 
 2370      5F434F4E 
 2370      53554D45 
 2370      203100
 2371 00f4 01       		.byte	0x1
 2372 00f5 00       		.uleb128 0
 2373 00f6 5F5F4649 		.ascii "__FINITE_MATH_ONLY__ 0\0"
GAS LISTING C:\Users\PRESID~1\AppData\Local\Temp\cc50m3V3.s 			page 62


 2373      4E495445 
 2373      5F4D4154 
 2373      485F4F4E 
 2373      4C595F5F 
 2374 010d 01       		.byte	0x1
 2375 010e 00       		.uleb128 0
 2376 010f 5F5F5349 		.ascii "__SIZEOF_INT__ 4\0"
 2376      5A454F46 
 2376      5F494E54 
 2376      5F5F2034 
 2376      00
 2377 0120 01       		.byte	0x1
 2378 0121 00       		.uleb128 0
 2379 0122 5F5F5349 		.ascii "__SIZEOF_LONG__ 4\0"
 2379      5A454F46 
 2379      5F4C4F4E 
 2379      475F5F20 
 2379      3400
 2380 0134 01       		.byte	0x1
 2381 0135 00       		.uleb128 0
 2382 0136 5F5F5349 		.ascii "__SIZEOF_LONG_LONG__ 8\0"
 2382      5A454F46 
 2382      5F4C4F4E 
 2382      475F4C4F 
 2382      4E475F5F 
 2383 014d 01       		.byte	0x1
 2384 014e 00       		.uleb128 0
 2385 014f 5F5F5349 		.ascii "__SIZEOF_SHORT__ 2\0"
 2385      5A454F46 
 2385      5F53484F 
 2385      52545F5F 
 2385      203200
 2386 0162 01       		.byte	0x1
 2387 0163 00       		.uleb128 0
 2388 0164 5F5F5349 		.ascii "__SIZEOF_FLOAT__ 4\0"
 2388      5A454F46 
 2388      5F464C4F 
 2388      41545F5F 
 2388      203400
 2389 0177 01       		.byte	0x1
 2390 0178 00       		.uleb128 0
 2391 0179 5F5F5349 		.ascii "__SIZEOF_DOUBLE__ 8\0"
 2391      5A454F46 
 2391      5F444F55 
 2391      424C455F 
 2391      5F203800 
 2392 018d 01       		.byte	0x1
 2393 018e 00       		.uleb128 0
 2394 018f 5F5F5349 		.ascii "__SIZEOF_LONG_DOUBLE__ 12\0"
 2394      5A454F46 
 2394      5F4C4F4E 
 2394      475F444F 
 2394      55424C45 
 2395 01a9 01       		.byte	0x1
 2396 01aa 00       		.uleb128 0
 2397 01ab 5F5F5349 		.ascii "__SIZEOF_SIZE_T__ 4\0"
 2397      5A454F46 
GAS LISTING C:\Users\PRESID~1\AppData\Local\Temp\cc50m3V3.s 			page 63


 2397      5F53495A 
 2397      455F545F 
 2397      5F203400 
 2398 01bf 01       		.byte	0x1
 2399 01c0 00       		.uleb128 0
 2400 01c1 5F5F4348 		.ascii "__CHAR_BIT__ 8\0"
 2400      41525F42 
 2400      49545F5F 
 2400      203800
 2401 01d0 01       		.byte	0x1
 2402 01d1 00       		.uleb128 0
 2403 01d2 5F5F4249 		.ascii "__BIGGEST_ALIGNMENT__ 16\0"
 2403      47474553 
 2403      545F414C 
 2403      49474E4D 
 2403      454E545F 
 2404 01eb 01       		.byte	0x1
 2405 01ec 00       		.uleb128 0
 2406 01ed 5F5F4F52 		.ascii "__ORDER_LITTLE_ENDIAN__ 1234\0"
 2406      4445525F 
 2406      4C495454 
 2406      4C455F45 
 2406      4E444941 
 2407 020a 01       		.byte	0x1
 2408 020b 00       		.uleb128 0
 2409 020c 5F5F4F52 		.ascii "__ORDER_BIG_ENDIAN__ 4321\0"
 2409      4445525F 
 2409      4249475F 
 2409      454E4449 
 2409      414E5F5F 
 2410 0226 01       		.byte	0x1
 2411 0227 00       		.uleb128 0
 2412 0228 5F5F4F52 		.ascii "__ORDER_PDP_ENDIAN__ 3412\0"
 2412      4445525F 
 2412      5044505F 
 2412      454E4449 
 2412      414E5F5F 
 2413 0242 01       		.byte	0x1
 2414 0243 00       		.uleb128 0
 2415 0244 5F5F4259 		.ascii "__BYTE_ORDER__ __ORDER_LITTLE_ENDIAN__\0"
 2415      54455F4F 
 2415      52444552 
 2415      5F5F205F 
 2415      5F4F5244 
 2416 026b 01       		.byte	0x1
 2417 026c 00       		.uleb128 0
 2418 026d 5F5F464C 		.ascii "__FLOAT_WORD_ORDER__ __ORDER_LITTLE_ENDIAN__\0"
 2418      4F41545F 
 2418      574F5244 
 2418      5F4F5244 
 2418      45525F5F 
 2419 029a 01       		.byte	0x1
 2420 029b 00       		.uleb128 0
 2421 029c 5F5F5349 		.ascii "__SIZEOF_POINTER__ 4\0"
 2421      5A454F46 
 2421      5F504F49 
 2421      4E544552 
GAS LISTING C:\Users\PRESID~1\AppData\Local\Temp\cc50m3V3.s 			page 64


 2421      5F5F2034 
 2422 02b1 01       		.byte	0x1
 2423 02b2 00       		.uleb128 0
 2424 02b3 5F5F5349 		.ascii "__SIZE_TYPE__ unsigned int\0"
 2424      5A455F54 
 2424      5950455F 
 2424      5F20756E 
 2424      7369676E 
 2425 02ce 01       		.byte	0x1
 2426 02cf 00       		.uleb128 0
 2427 02d0 5F5F5054 		.ascii "__PTRDIFF_TYPE__ int\0"
 2427      52444946 
 2427      465F5459 
 2427      50455F5F 
 2427      20696E74 
 2428 02e5 01       		.byte	0x1
 2429 02e6 00       		.uleb128 0
 2430 02e7 5F5F5743 		.ascii "__WCHAR_TYPE__ short unsigned int\0"
 2430      4841525F 
 2430      54595045 
 2430      5F5F2073 
 2430      686F7274 
 2431 0309 01       		.byte	0x1
 2432 030a 00       		.uleb128 0
 2433 030b 5F5F5749 		.ascii "__WINT_TYPE__ short unsigned int\0"
 2433      4E545F54 
 2433      5950455F 
 2433      5F207368 
 2433      6F727420 
 2434 032c 01       		.byte	0x1
 2435 032d 00       		.uleb128 0
 2436 032e 5F5F494E 		.ascii "__INTMAX_TYPE__ long long int\0"
 2436      544D4158 
 2436      5F545950 
 2436      455F5F20 
 2436      6C6F6E67 
 2437 034c 01       		.byte	0x1
 2438 034d 00       		.uleb128 0
 2439 034e 5F5F5549 		.ascii "__UINTMAX_TYPE__ long long unsigned int\0"
 2439      4E544D41 
 2439      585F5459 
 2439      50455F5F 
 2439      206C6F6E 
 2440 0376 01       		.byte	0x1
 2441 0377 00       		.uleb128 0
 2442 0378 5F5F4348 		.ascii "__CHAR16_TYPE__ short unsigned int\0"
 2442      41523136 
 2442      5F545950 
 2442      455F5F20 
 2442      73686F72 
 2443 039b 01       		.byte	0x1
 2444 039c 00       		.uleb128 0
 2445 039d 5F5F4348 		.ascii "__CHAR32_TYPE__ unsigned int\0"
 2445      41523332 
 2445      5F545950 
 2445      455F5F20 
 2445      756E7369 
GAS LISTING C:\Users\PRESID~1\AppData\Local\Temp\cc50m3V3.s 			page 65


 2446 03ba 01       		.byte	0x1
 2447 03bb 00       		.uleb128 0
 2448 03bc 5F5F5349 		.ascii "__SIG_ATOMIC_TYPE__ int\0"
 2448      475F4154 
 2448      4F4D4943 
 2448      5F545950 
 2448      455F5F20 
 2449 03d4 01       		.byte	0x1
 2450 03d5 00       		.uleb128 0
 2451 03d6 5F5F494E 		.ascii "__INT8_TYPE__ signed char\0"
 2451      54385F54 
 2451      5950455F 
 2451      5F207369 
 2451      676E6564 
 2452 03f0 01       		.byte	0x1
 2453 03f1 00       		.uleb128 0
 2454 03f2 5F5F494E 		.ascii "__INT16_TYPE__ short int\0"
 2454      5431365F 
 2454      54595045 
 2454      5F5F2073 
 2454      686F7274 
 2455 040b 01       		.byte	0x1
 2456 040c 00       		.uleb128 0
 2457 040d 5F5F494E 		.ascii "__INT32_TYPE__ int\0"
 2457      5433325F 
 2457      54595045 
 2457      5F5F2069 
 2457      6E7400
 2458 0420 01       		.byte	0x1
 2459 0421 00       		.uleb128 0
 2460 0422 5F5F494E 		.ascii "__INT64_TYPE__ long long int\0"
 2460      5436345F 
 2460      54595045 
 2460      5F5F206C 
 2460      6F6E6720 
 2461 043f 01       		.byte	0x1
 2462 0440 00       		.uleb128 0
 2463 0441 5F5F5549 		.ascii "__UINT8_TYPE__ unsigned char\0"
 2463      4E54385F 
 2463      54595045 
 2463      5F5F2075 
 2463      6E736967 
 2464 045e 01       		.byte	0x1
 2465 045f 00       		.uleb128 0
 2466 0460 5F5F5549 		.ascii "__UINT16_TYPE__ short unsigned int\0"
 2466      4E543136 
 2466      5F545950 
 2466      455F5F20 
 2466      73686F72 
 2467 0483 01       		.byte	0x1
 2468 0484 00       		.uleb128 0
 2469 0485 5F5F5549 		.ascii "__UINT32_TYPE__ unsigned int\0"
 2469      4E543332 
 2469      5F545950 
 2469      455F5F20 
 2469      756E7369 
 2470 04a2 01       		.byte	0x1
GAS LISTING C:\Users\PRESID~1\AppData\Local\Temp\cc50m3V3.s 			page 66


 2471 04a3 00       		.uleb128 0
 2472 04a4 5F5F5549 		.ascii "__UINT64_TYPE__ long long unsigned int\0"
 2472      4E543634 
 2472      5F545950 
 2472      455F5F20 
 2472      6C6F6E67 
 2473 04cb 01       		.byte	0x1
 2474 04cc 00       		.uleb128 0
 2475 04cd 5F5F494E 		.ascii "__INT_LEAST8_TYPE__ signed char\0"
 2475      545F4C45 
 2475      41535438 
 2475      5F545950 
 2475      455F5F20 
 2476 04ed 01       		.byte	0x1
 2477 04ee 00       		.uleb128 0
 2478 04ef 5F5F494E 		.ascii "__INT_LEAST16_TYPE__ short int\0"
 2478      545F4C45 
 2478      41535431 
 2478      365F5459 
 2478      50455F5F 
 2479 050e 01       		.byte	0x1
 2480 050f 00       		.uleb128 0
 2481 0510 5F5F494E 		.ascii "__INT_LEAST32_TYPE__ int\0"
 2481      545F4C45 
 2481      41535433 
 2481      325F5459 
 2481      50455F5F 
 2482 0529 01       		.byte	0x1
 2483 052a 00       		.uleb128 0
 2484 052b 5F5F494E 		.ascii "__INT_LEAST64_TYPE__ long long int\0"
 2484      545F4C45 
 2484      41535436 
 2484      345F5459 
 2484      50455F5F 
 2485 054e 01       		.byte	0x1
 2486 054f 00       		.uleb128 0
 2487 0550 5F5F5549 		.ascii "__UINT_LEAST8_TYPE__ unsigned char\0"
 2487      4E545F4C 
 2487      45415354 
 2487      385F5459 
 2487      50455F5F 
 2488 0573 01       		.byte	0x1
 2489 0574 00       		.uleb128 0
 2490 0575 5F5F5549 		.ascii "__UINT_LEAST16_TYPE__ short unsigned int\0"
 2490      4E545F4C 
 2490      45415354 
 2490      31365F54 
 2490      5950455F 
 2491 059e 01       		.byte	0x1
 2492 059f 00       		.uleb128 0
 2493 05a0 5F5F5549 		.ascii "__UINT_LEAST32_TYPE__ unsigned int\0"
 2493      4E545F4C 
 2493      45415354 
 2493      33325F54 
 2493      5950455F 
 2494 05c3 01       		.byte	0x1
 2495 05c4 00       		.uleb128 0
GAS LISTING C:\Users\PRESID~1\AppData\Local\Temp\cc50m3V3.s 			page 67


 2496 05c5 5F5F5549 		.ascii "__UINT_LEAST64_TYPE__ long long unsigned int\0"
 2496      4E545F4C 
 2496      45415354 
 2496      36345F54 
 2496      5950455F 
 2497 05f2 01       		.byte	0x1
 2498 05f3 00       		.uleb128 0
 2499 05f4 5F5F494E 		.ascii "__INT_FAST8_TYPE__ signed char\0"
 2499      545F4641 
 2499      5354385F 
 2499      54595045 
 2499      5F5F2073 
 2500 0613 01       		.byte	0x1
 2501 0614 00       		.uleb128 0
 2502 0615 5F5F494E 		.ascii "__INT_FAST16_TYPE__ short int\0"
 2502      545F4641 
 2502      53543136 
 2502      5F545950 
 2502      455F5F20 
 2503 0633 01       		.byte	0x1
 2504 0634 00       		.uleb128 0
 2505 0635 5F5F494E 		.ascii "__INT_FAST32_TYPE__ int\0"
 2505      545F4641 
 2505      53543332 
 2505      5F545950 
 2505      455F5F20 
 2506 064d 01       		.byte	0x1
 2507 064e 00       		.uleb128 0
 2508 064f 5F5F494E 		.ascii "__INT_FAST64_TYPE__ long long int\0"
 2508      545F4641 
 2508      53543634 
 2508      5F545950 
 2508      455F5F20 
 2509 0671 01       		.byte	0x1
 2510 0672 00       		.uleb128 0
 2511 0673 5F5F5549 		.ascii "__UINT_FAST8_TYPE__ unsigned char\0"
 2511      4E545F46 
 2511      41535438 
 2511      5F545950 
 2511      455F5F20 
 2512 0695 01       		.byte	0x1
 2513 0696 00       		.uleb128 0
 2514 0697 5F5F5549 		.ascii "__UINT_FAST16_TYPE__ short unsigned int\0"
 2514      4E545F46 
 2514      41535431 
 2514      365F5459 
 2514      50455F5F 
 2515 06bf 01       		.byte	0x1
 2516 06c0 00       		.uleb128 0
 2517 06c1 5F5F5549 		.ascii "__UINT_FAST32_TYPE__ unsigned int\0"
 2517      4E545F46 
 2517      41535433 
 2517      325F5459 
 2517      50455F5F 
 2518 06e3 01       		.byte	0x1
 2519 06e4 00       		.uleb128 0
 2520 06e5 5F5F5549 		.ascii "__UINT_FAST64_TYPE__ long long unsigned int\0"
GAS LISTING C:\Users\PRESID~1\AppData\Local\Temp\cc50m3V3.s 			page 68


 2520      4E545F46 
 2520      41535436 
 2520      345F5459 
 2520      50455F5F 
 2521 0711 01       		.byte	0x1
 2522 0712 00       		.uleb128 0
 2523 0713 5F5F494E 		.ascii "__INTPTR_TYPE__ int\0"
 2523      54505452 
 2523      5F545950 
 2523      455F5F20 
 2523      696E7400 
 2524 0727 01       		.byte	0x1
 2525 0728 00       		.uleb128 0
 2526 0729 5F5F5549 		.ascii "__UINTPTR_TYPE__ unsigned int\0"
 2526      4E545054 
 2526      525F5459 
 2526      50455F5F 
 2526      20756E73 
 2527 0747 01       		.byte	0x1
 2528 0748 00       		.uleb128 0
 2529 0749 5F5F6861 		.ascii "__has_include(STR) __has_include__(STR)\0"
 2529      735F696E 
 2529      636C7564 
 2529      65285354 
 2529      5229205F 
 2530 0771 01       		.byte	0x1
 2531 0772 00       		.uleb128 0
 2532 0773 5F5F6861 		.ascii "__has_include_next(STR) __has_include_next__(STR)\0"
 2532      735F696E 
 2532      636C7564 
 2532      655F6E65 
 2532      78742853 
 2533 07a5 01       		.byte	0x1
 2534 07a6 00       		.uleb128 0
 2535 07a7 5F5F4758 		.ascii "__GXX_ABI_VERSION 1002\0"
 2535      585F4142 
 2535      495F5645 
 2535      5253494F 
 2535      4E203130 
 2536 07be 01       		.byte	0x1
 2537 07bf 00       		.uleb128 0
 2538 07c0 5F5F5343 		.ascii "__SCHAR_MAX__ 127\0"
 2538      4841525F 
 2538      4D41585F 
 2538      5F203132 
 2538      3700
 2539 07d2 01       		.byte	0x1
 2540 07d3 00       		.uleb128 0
 2541 07d4 5F5F5348 		.ascii "__SHRT_MAX__ 32767\0"
 2541      52545F4D 
 2541      41585F5F 
 2541      20333237 
 2541      363700
 2542 07e7 01       		.byte	0x1
 2543 07e8 00       		.uleb128 0
 2544 07e9 5F5F494E 		.ascii "__INT_MAX__ 2147483647\0"
 2544      545F4D41 
GAS LISTING C:\Users\PRESID~1\AppData\Local\Temp\cc50m3V3.s 			page 69


 2544      585F5F20 
 2544      32313437 
 2544      34383336 
 2545 0800 01       		.byte	0x1
 2546 0801 00       		.uleb128 0
 2547 0802 5F5F4C4F 		.ascii "__LONG_MAX__ 2147483647L\0"
 2547      4E475F4D 
 2547      41585F5F 
 2547      20323134 
 2547      37343833 
 2548 081b 01       		.byte	0x1
 2549 081c 00       		.uleb128 0
 2550 081d 5F5F4C4F 		.ascii "__LONG_LONG_MAX__ 9223372036854775807LL\0"
 2550      4E475F4C 
 2550      4F4E475F 
 2550      4D41585F 
 2550      5F203932 
 2551 0845 01       		.byte	0x1
 2552 0846 00       		.uleb128 0
 2553 0847 5F5F5743 		.ascii "__WCHAR_MAX__ 65535\0"
 2553      4841525F 
 2553      4D41585F 
 2553      5F203635 
 2553      35333500 
 2554 085b 01       		.byte	0x1
 2555 085c 00       		.uleb128 0
 2556 085d 5F5F5743 		.ascii "__WCHAR_MIN__ 0\0"
 2556      4841525F 
 2556      4D494E5F 
 2556      5F203000 
 2557 086d 01       		.byte	0x1
 2558 086e 00       		.uleb128 0
 2559 086f 5F5F5749 		.ascii "__WINT_MAX__ 65535\0"
 2559      4E545F4D 
 2559      41585F5F 
 2559      20363535 
 2559      333500
 2560 0882 01       		.byte	0x1
 2561 0883 00       		.uleb128 0
 2562 0884 5F5F5749 		.ascii "__WINT_MIN__ 0\0"
 2562      4E545F4D 
 2562      494E5F5F 
 2562      203000
 2563 0893 01       		.byte	0x1
 2564 0894 00       		.uleb128 0
 2565 0895 5F5F5054 		.ascii "__PTRDIFF_MAX__ 2147483647\0"
 2565      52444946 
 2565      465F4D41 
 2565      585F5F20 
 2565      32313437 
 2566 08b0 01       		.byte	0x1
 2567 08b1 00       		.uleb128 0
 2568 08b2 5F5F5349 		.ascii "__SIZE_MAX__ 4294967295U\0"
 2568      5A455F4D 
 2568      41585F5F 
 2568      20343239 
 2568      34393637 
GAS LISTING C:\Users\PRESID~1\AppData\Local\Temp\cc50m3V3.s 			page 70


 2569 08cb 01       		.byte	0x1
 2570 08cc 00       		.uleb128 0
 2571 08cd 5F5F494E 		.ascii "__INTMAX_MAX__ 9223372036854775807LL\0"
 2571      544D4158 
 2571      5F4D4158 
 2571      5F5F2039 
 2571      32323333 
 2572 08f2 01       		.byte	0x1
 2573 08f3 00       		.uleb128 0
 2574 08f4 5F5F494E 		.ascii "__INTMAX_C(c) c ## LL\0"
 2574      544D4158 
 2574      5F432863 
 2574      29206320 
 2574      2323204C 
 2575 090a 01       		.byte	0x1
 2576 090b 00       		.uleb128 0
 2577 090c 5F5F5549 		.ascii "__UINTMAX_MAX__ 18446744073709551615ULL\0"
 2577      4E544D41 
 2577      585F4D41 
 2577      585F5F20 
 2577      31383434 
 2578 0934 01       		.byte	0x1
 2579 0935 00       		.uleb128 0
 2580 0936 5F5F5549 		.ascii "__UINTMAX_C(c) c ## ULL\0"
 2580      4E544D41 
 2580      585F4328 
 2580      63292063 
 2580      20232320 
 2581 094e 01       		.byte	0x1
 2582 094f 00       		.uleb128 0
 2583 0950 5F5F5349 		.ascii "__SIG_ATOMIC_MAX__ 2147483647\0"
 2583      475F4154 
 2583      4F4D4943 
 2583      5F4D4158 
 2583      5F5F2032 
 2584 096e 01       		.byte	0x1
 2585 096f 00       		.uleb128 0
 2586 0970 5F5F5349 		.ascii "__SIG_ATOMIC_MIN__ (-__SIG_ATOMIC_MAX__ - 1)\0"
 2586      475F4154 
 2586      4F4D4943 
 2586      5F4D494E 
 2586      5F5F2028 
 2587 099d 01       		.byte	0x1
 2588 099e 00       		.uleb128 0
 2589 099f 5F5F494E 		.ascii "__INT8_MAX__ 127\0"
 2589      54385F4D 
 2589      41585F5F 
 2589      20313237 
 2589      00
 2590 09b0 01       		.byte	0x1
 2591 09b1 00       		.uleb128 0
 2592 09b2 5F5F494E 		.ascii "__INT16_MAX__ 32767\0"
 2592      5431365F 
 2592      4D41585F 
 2592      5F203332 
 2592      37363700 
 2593 09c6 01       		.byte	0x1
GAS LISTING C:\Users\PRESID~1\AppData\Local\Temp\cc50m3V3.s 			page 71


 2594 09c7 00       		.uleb128 0
 2595 09c8 5F5F494E 		.ascii "__INT32_MAX__ 2147483647\0"
 2595      5433325F 
 2595      4D41585F 
 2595      5F203231 
 2595      34373438 
 2596 09e1 01       		.byte	0x1
 2597 09e2 00       		.uleb128 0
 2598 09e3 5F5F494E 		.ascii "__INT64_MAX__ 9223372036854775807LL\0"
 2598      5436345F 
 2598      4D41585F 
 2598      5F203932 
 2598      32333337 
 2599 0a07 01       		.byte	0x1
 2600 0a08 00       		.uleb128 0
 2601 0a09 5F5F5549 		.ascii "__UINT8_MAX__ 255\0"
 2601      4E54385F 
 2601      4D41585F 
 2601      5F203235 
 2601      3500
 2602 0a1b 01       		.byte	0x1
 2603 0a1c 00       		.uleb128 0
 2604 0a1d 5F5F5549 		.ascii "__UINT16_MAX__ 65535\0"
 2604      4E543136 
 2604      5F4D4158 
 2604      5F5F2036 
 2604      35353335 
 2605 0a32 01       		.byte	0x1
 2606 0a33 00       		.uleb128 0
 2607 0a34 5F5F5549 		.ascii "__UINT32_MAX__ 4294967295U\0"
 2607      4E543332 
 2607      5F4D4158 
 2607      5F5F2034 
 2607      32393439 
 2608 0a4f 01       		.byte	0x1
 2609 0a50 00       		.uleb128 0
 2610 0a51 5F5F5549 		.ascii "__UINT64_MAX__ 18446744073709551615ULL\0"
 2610      4E543634 
 2610      5F4D4158 
 2610      5F5F2031 
 2610      38343436 
 2611 0a78 01       		.byte	0x1
 2612 0a79 00       		.uleb128 0
 2613 0a7a 5F5F494E 		.ascii "__INT_LEAST8_MAX__ 127\0"
 2613      545F4C45 
 2613      41535438 
 2613      5F4D4158 
 2613      5F5F2031 
 2614 0a91 01       		.byte	0x1
 2615 0a92 00       		.uleb128 0
 2616 0a93 5F5F494E 		.ascii "__INT8_C(c) c\0"
 2616      54385F43 
 2616      28632920 
 2616      6300
 2617 0aa1 01       		.byte	0x1
 2618 0aa2 00       		.uleb128 0
 2619 0aa3 5F5F494E 		.ascii "__INT_LEAST16_MAX__ 32767\0"
GAS LISTING C:\Users\PRESID~1\AppData\Local\Temp\cc50m3V3.s 			page 72


 2619      545F4C45 
 2619      41535431 
 2619      365F4D41 
 2619      585F5F20 
 2620 0abd 01       		.byte	0x1
 2621 0abe 00       		.uleb128 0
 2622 0abf 5F5F494E 		.ascii "__INT16_C(c) c\0"
 2622      5431365F 
 2622      43286329 
 2622      206300
 2623 0ace 01       		.byte	0x1
 2624 0acf 00       		.uleb128 0
 2625 0ad0 5F5F494E 		.ascii "__INT_LEAST32_MAX__ 2147483647\0"
 2625      545F4C45 
 2625      41535433 
 2625      325F4D41 
 2625      585F5F20 
 2626 0aef 01       		.byte	0x1
 2627 0af0 00       		.uleb128 0
 2628 0af1 5F5F494E 		.ascii "__INT32_C(c) c\0"
 2628      5433325F 
 2628      43286329 
 2628      206300
 2629 0b00 01       		.byte	0x1
 2630 0b01 00       		.uleb128 0
 2631 0b02 5F5F494E 		.ascii "__INT_LEAST64_MAX__ 9223372036854775807LL\0"
 2631      545F4C45 
 2631      41535436 
 2631      345F4D41 
 2631      585F5F20 
 2632 0b2c 01       		.byte	0x1
 2633 0b2d 00       		.uleb128 0
 2634 0b2e 5F5F494E 		.ascii "__INT64_C(c) c ## LL\0"
 2634      5436345F 
 2634      43286329 
 2634      20632023 
 2634      23204C4C 
 2635 0b43 01       		.byte	0x1
 2636 0b44 00       		.uleb128 0
 2637 0b45 5F5F5549 		.ascii "__UINT_LEAST8_MAX__ 255\0"
 2637      4E545F4C 
 2637      45415354 
 2637      385F4D41 
 2637      585F5F20 
 2638 0b5d 01       		.byte	0x1
 2639 0b5e 00       		.uleb128 0
 2640 0b5f 5F5F5549 		.ascii "__UINT8_C(c) c\0"
 2640      4E54385F 
 2640      43286329 
 2640      206300
 2641 0b6e 01       		.byte	0x1
 2642 0b6f 00       		.uleb128 0
 2643 0b70 5F5F5549 		.ascii "__UINT_LEAST16_MAX__ 65535\0"
 2643      4E545F4C 
 2643      45415354 
 2643      31365F4D 
 2643      41585F5F 
GAS LISTING C:\Users\PRESID~1\AppData\Local\Temp\cc50m3V3.s 			page 73


 2644 0b8b 01       		.byte	0x1
 2645 0b8c 00       		.uleb128 0
 2646 0b8d 5F5F5549 		.ascii "__UINT16_C(c) c\0"
 2646      4E543136 
 2646      5F432863 
 2646      29206300 
 2647 0b9d 01       		.byte	0x1
 2648 0b9e 00       		.uleb128 0
 2649 0b9f 5F5F5549 		.ascii "__UINT_LEAST32_MAX__ 4294967295U\0"
 2649      4E545F4C 
 2649      45415354 
 2649      33325F4D 
 2649      41585F5F 
 2650 0bc0 01       		.byte	0x1
 2651 0bc1 00       		.uleb128 0
 2652 0bc2 5F5F5549 		.ascii "__UINT32_C(c) c ## U\0"
 2652      4E543332 
 2652      5F432863 
 2652      29206320 
 2652      23232055 
 2653 0bd7 01       		.byte	0x1
 2654 0bd8 00       		.uleb128 0
 2655 0bd9 5F5F5549 		.ascii "__UINT_LEAST64_MAX__ 18446744073709551615ULL\0"
 2655      4E545F4C 
 2655      45415354 
 2655      36345F4D 
 2655      41585F5F 
 2656 0c06 01       		.byte	0x1
 2657 0c07 00       		.uleb128 0
 2658 0c08 5F5F5549 		.ascii "__UINT64_C(c) c ## ULL\0"
 2658      4E543634 
 2658      5F432863 
 2658      29206320 
 2658      23232055 
 2659 0c1f 01       		.byte	0x1
 2660 0c20 00       		.uleb128 0
 2661 0c21 5F5F494E 		.ascii "__INT_FAST8_MAX__ 127\0"
 2661      545F4641 
 2661      5354385F 
 2661      4D41585F 
 2661      5F203132 
 2662 0c37 01       		.byte	0x1
 2663 0c38 00       		.uleb128 0
 2664 0c39 5F5F494E 		.ascii "__INT_FAST16_MAX__ 32767\0"
 2664      545F4641 
 2664      53543136 
 2664      5F4D4158 
 2664      5F5F2033 
 2665 0c52 01       		.byte	0x1
 2666 0c53 00       		.uleb128 0
 2667 0c54 5F5F494E 		.ascii "__INT_FAST32_MAX__ 2147483647\0"
 2667      545F4641 
 2667      53543332 
 2667      5F4D4158 
 2667      5F5F2032 
 2668 0c72 01       		.byte	0x1
 2669 0c73 00       		.uleb128 0
GAS LISTING C:\Users\PRESID~1\AppData\Local\Temp\cc50m3V3.s 			page 74


 2670 0c74 5F5F494E 		.ascii "__INT_FAST64_MAX__ 9223372036854775807LL\0"
 2670      545F4641 
 2670      53543634 
 2670      5F4D4158 
 2670      5F5F2039 
 2671 0c9d 01       		.byte	0x1
 2672 0c9e 00       		.uleb128 0
 2673 0c9f 5F5F5549 		.ascii "__UINT_FAST8_MAX__ 255\0"
 2673      4E545F46 
 2673      41535438 
 2673      5F4D4158 
 2673      5F5F2032 
 2674 0cb6 01       		.byte	0x1
 2675 0cb7 00       		.uleb128 0
 2676 0cb8 5F5F5549 		.ascii "__UINT_FAST16_MAX__ 65535\0"
 2676      4E545F46 
 2676      41535431 
 2676      365F4D41 
 2676      585F5F20 
 2677 0cd2 01       		.byte	0x1
 2678 0cd3 00       		.uleb128 0
 2679 0cd4 5F5F5549 		.ascii "__UINT_FAST32_MAX__ 4294967295U\0"
 2679      4E545F46 
 2679      41535433 
 2679      325F4D41 
 2679      585F5F20 
 2680 0cf4 01       		.byte	0x1
 2681 0cf5 00       		.uleb128 0
 2682 0cf6 5F5F5549 		.ascii "__UINT_FAST64_MAX__ 18446744073709551615ULL\0"
 2682      4E545F46 
 2682      41535436 
 2682      345F4D41 
 2682      585F5F20 
 2683 0d22 01       		.byte	0x1
 2684 0d23 00       		.uleb128 0
 2685 0d24 5F5F494E 		.ascii "__INTPTR_MAX__ 2147483647\0"
 2685      54505452 
 2685      5F4D4158 
 2685      5F5F2032 
 2685      31343734 
 2686 0d3e 01       		.byte	0x1
 2687 0d3f 00       		.uleb128 0
 2688 0d40 5F5F5549 		.ascii "__UINTPTR_MAX__ 4294967295U\0"
 2688      4E545054 
 2688      525F4D41 
 2688      585F5F20 
 2688      34323934 
 2689 0d5c 01       		.byte	0x1
 2690 0d5d 00       		.uleb128 0
 2691 0d5e 5F5F4743 		.ascii "__GCC_IEC_559 2\0"
 2691      435F4945 
 2691      435F3535 
 2691      39203200 
 2692 0d6e 01       		.byte	0x1
 2693 0d6f 00       		.uleb128 0
 2694 0d70 5F5F4743 		.ascii "__GCC_IEC_559_COMPLEX 2\0"
 2694      435F4945 
GAS LISTING C:\Users\PRESID~1\AppData\Local\Temp\cc50m3V3.s 			page 75


 2694      435F3535 
 2694      395F434F 
 2694      4D504C45 
 2695 0d88 01       		.byte	0x1
 2696 0d89 00       		.uleb128 0
 2697 0d8a 5F5F464C 		.ascii "__FLT_EVAL_METHOD__ 2\0"
 2697      545F4556 
 2697      414C5F4D 
 2697      4554484F 
 2697      445F5F20 
 2698 0da0 01       		.byte	0x1
 2699 0da1 00       		.uleb128 0
 2700 0da2 5F5F4445 		.ascii "__DEC_EVAL_METHOD__ 2\0"
 2700      435F4556 
 2700      414C5F4D 
 2700      4554484F 
 2700      445F5F20 
 2701 0db8 01       		.byte	0x1
 2702 0db9 00       		.uleb128 0
 2703 0dba 5F5F464C 		.ascii "__FLT_RADIX__ 2\0"
 2703      545F5241 
 2703      4449585F 
 2703      5F203200 
 2704 0dca 01       		.byte	0x1
 2705 0dcb 00       		.uleb128 0
 2706 0dcc 5F5F464C 		.ascii "__FLT_MANT_DIG__ 24\0"
 2706      545F4D41 
 2706      4E545F44 
 2706      49475F5F 
 2706      20323400 
 2707 0de0 01       		.byte	0x1
 2708 0de1 00       		.uleb128 0
 2709 0de2 5F5F464C 		.ascii "__FLT_DIG__ 6\0"
 2709      545F4449 
 2709      475F5F20 
 2709      3600
 2710 0df0 01       		.byte	0x1
 2711 0df1 00       		.uleb128 0
 2712 0df2 5F5F464C 		.ascii "__FLT_MIN_EXP__ (-125)\0"
 2712      545F4D49 
 2712      4E5F4558 
 2712      505F5F20 
 2712      282D3132 
 2713 0e09 01       		.byte	0x1
 2714 0e0a 00       		.uleb128 0
 2715 0e0b 5F5F464C 		.ascii "__FLT_MIN_10_EXP__ (-37)\0"
 2715      545F4D49 
 2715      4E5F3130 
 2715      5F455850 
 2715      5F5F2028 
 2716 0e24 01       		.byte	0x1
 2717 0e25 00       		.uleb128 0
 2718 0e26 5F5F464C 		.ascii "__FLT_MAX_EXP__ 128\0"
 2718      545F4D41 
 2718      585F4558 
 2718      505F5F20 
 2718      31323800 
GAS LISTING C:\Users\PRESID~1\AppData\Local\Temp\cc50m3V3.s 			page 76


 2719 0e3a 01       		.byte	0x1
 2720 0e3b 00       		.uleb128 0
 2721 0e3c 5F5F464C 		.ascii "__FLT_MAX_10_EXP__ 38\0"
 2721      545F4D41 
 2721      585F3130 
 2721      5F455850 
 2721      5F5F2033 
 2722 0e52 01       		.byte	0x1
 2723 0e53 00       		.uleb128 0
 2724 0e54 5F5F464C 		.ascii "__FLT_DECIMAL_DIG__ 9\0"
 2724      545F4445 
 2724      43494D41 
 2724      4C5F4449 
 2724      475F5F20 
 2725 0e6a 01       		.byte	0x1
 2726 0e6b 00       		.uleb128 0
 2727 0e6c 5F5F464C 		.ascii "__FLT_MAX__ 3.40282346638528859812e+38F\0"
 2727      545F4D41 
 2727      585F5F20 
 2727      332E3430 
 2727      32383233 
 2728 0e94 01       		.byte	0x1
 2729 0e95 00       		.uleb128 0
 2730 0e96 5F5F464C 		.ascii "__FLT_MIN__ 1.17549435082228750797e-38F\0"
 2730      545F4D49 
 2730      4E5F5F20 
 2730      312E3137 
 2730      35343934 
 2731 0ebe 01       		.byte	0x1
 2732 0ebf 00       		.uleb128 0
 2733 0ec0 5F5F464C 		.ascii "__FLT_EPSILON__ 1.19209289550781250000e-7F\0"
 2733      545F4550 
 2733      53494C4F 
 2733      4E5F5F20 
 2733      312E3139 
 2734 0eeb 01       		.byte	0x1
 2735 0eec 00       		.uleb128 0
 2736 0eed 5F5F464C 		.ascii "__FLT_DENORM_MIN__ 1.40129846432481707092e-45F\0"
 2736      545F4445 
 2736      4E4F524D 
 2736      5F4D494E 
 2736      5F5F2031 
 2737 0f1c 01       		.byte	0x1
 2738 0f1d 00       		.uleb128 0
 2739 0f1e 5F5F464C 		.ascii "__FLT_HAS_DENORM__ 1\0"
 2739      545F4841 
 2739      535F4445 
 2739      4E4F524D 
 2739      5F5F2031 
 2740 0f33 01       		.byte	0x1
 2741 0f34 00       		.uleb128 0
 2742 0f35 5F5F464C 		.ascii "__FLT_HAS_INFINITY__ 1\0"
 2742      545F4841 
 2742      535F494E 
 2742      46494E49 
 2742      54595F5F 
 2743 0f4c 01       		.byte	0x1
GAS LISTING C:\Users\PRESID~1\AppData\Local\Temp\cc50m3V3.s 			page 77


 2744 0f4d 00       		.uleb128 0
 2745 0f4e 5F5F464C 		.ascii "__FLT_HAS_QUIET_NAN__ 1\0"
 2745      545F4841 
 2745      535F5155 
 2745      4945545F 
 2745      4E414E5F 
 2746 0f66 01       		.byte	0x1
 2747 0f67 00       		.uleb128 0
 2748 0f68 5F5F4442 		.ascii "__DBL_MANT_DIG__ 53\0"
 2748      4C5F4D41 
 2748      4E545F44 
 2748      49475F5F 
 2748      20353300 
 2749 0f7c 01       		.byte	0x1
 2750 0f7d 00       		.uleb128 0
 2751 0f7e 5F5F4442 		.ascii "__DBL_DIG__ 15\0"
 2751      4C5F4449 
 2751      475F5F20 
 2751      313500
 2752 0f8d 01       		.byte	0x1
 2753 0f8e 00       		.uleb128 0
 2754 0f8f 5F5F4442 		.ascii "__DBL_MIN_EXP__ (-1021)\0"
 2754      4C5F4D49 
 2754      4E5F4558 
 2754      505F5F20 
 2754      282D3130 
 2755 0fa7 01       		.byte	0x1
 2756 0fa8 00       		.uleb128 0
 2757 0fa9 5F5F4442 		.ascii "__DBL_MIN_10_EXP__ (-307)\0"
 2757      4C5F4D49 
 2757      4E5F3130 
 2757      5F455850 
 2757      5F5F2028 
 2758 0fc3 01       		.byte	0x1
 2759 0fc4 00       		.uleb128 0
 2760 0fc5 5F5F4442 		.ascii "__DBL_MAX_EXP__ 1024\0"
 2760      4C5F4D41 
 2760      585F4558 
 2760      505F5F20 
 2760      31303234 
 2761 0fda 01       		.byte	0x1
 2762 0fdb 00       		.uleb128 0
 2763 0fdc 5F5F4442 		.ascii "__DBL_MAX_10_EXP__ 308\0"
 2763      4C5F4D41 
 2763      585F3130 
 2763      5F455850 
 2763      5F5F2033 
 2764 0ff3 01       		.byte	0x1
 2765 0ff4 00       		.uleb128 0
 2766 0ff5 5F5F4442 		.ascii "__DBL_DECIMAL_DIG__ 17\0"
 2766      4C5F4445 
 2766      43494D41 
 2766      4C5F4449 
 2766      475F5F20 
 2767 100c 01       		.byte	0x1
 2768 100d 00       		.uleb128 0
 2769 100e 5F5F4442 		.ascii "__DBL_MAX__ ((double)1.79769313486231570815e+308L)\0"
GAS LISTING C:\Users\PRESID~1\AppData\Local\Temp\cc50m3V3.s 			page 78


 2769      4C5F4D41 
 2769      585F5F20 
 2769      2828646F 
 2769      75626C65 
 2770 1041 01       		.byte	0x1
 2771 1042 00       		.uleb128 0
 2772 1043 5F5F4442 		.ascii "__DBL_MIN__ ((double)2.22507385850720138309e-308L)\0"
 2772      4C5F4D49 
 2772      4E5F5F20 
 2772      2828646F 
 2772      75626C65 
 2773 1076 01       		.byte	0x1
 2774 1077 00       		.uleb128 0
 2775 1078 5F5F4442 		.ascii "__DBL_EPSILON__ ((double)2.22044604925031308085e-16L)\0"
 2775      4C5F4550 
 2775      53494C4F 
 2775      4E5F5F20 
 2775      2828646F 
 2776 10ae 01       		.byte	0x1
 2777 10af 00       		.uleb128 0
 2778 10b0 5F5F4442 		.ascii "__DBL_DENORM_MIN__ ((double)4.94065645841246544177e-324L)\0"
 2778      4C5F4445 
 2778      4E4F524D 
 2778      5F4D494E 
 2778      5F5F2028 
 2779 10ea 01       		.byte	0x1
 2780 10eb 00       		.uleb128 0
 2781 10ec 5F5F4442 		.ascii "__DBL_HAS_DENORM__ 1\0"
 2781      4C5F4841 
 2781      535F4445 
 2781      4E4F524D 
 2781      5F5F2031 
 2782 1101 01       		.byte	0x1
 2783 1102 00       		.uleb128 0
 2784 1103 5F5F4442 		.ascii "__DBL_HAS_INFINITY__ 1\0"
 2784      4C5F4841 
 2784      535F494E 
 2784      46494E49 
 2784      54595F5F 
 2785 111a 01       		.byte	0x1
 2786 111b 00       		.uleb128 0
 2787 111c 5F5F4442 		.ascii "__DBL_HAS_QUIET_NAN__ 1\0"
 2787      4C5F4841 
 2787      535F5155 
 2787      4945545F 
 2787      4E414E5F 
 2788 1134 01       		.byte	0x1
 2789 1135 00       		.uleb128 0
 2790 1136 5F5F4C44 		.ascii "__LDBL_MANT_DIG__ 64\0"
 2790      424C5F4D 
 2790      414E545F 
 2790      4449475F 
 2790      5F203634 
 2791 114b 01       		.byte	0x1
 2792 114c 00       		.uleb128 0
 2793 114d 5F5F4C44 		.ascii "__LDBL_DIG__ 18\0"
 2793      424C5F44 
GAS LISTING C:\Users\PRESID~1\AppData\Local\Temp\cc50m3V3.s 			page 79


 2793      49475F5F 
 2793      20313800 
 2794 115d 01       		.byte	0x1
 2795 115e 00       		.uleb128 0
 2796 115f 5F5F4C44 		.ascii "__LDBL_MIN_EXP__ (-16381)\0"
 2796      424C5F4D 
 2796      494E5F45 
 2796      58505F5F 
 2796      20282D31 
 2797 1179 01       		.byte	0x1
 2798 117a 00       		.uleb128 0
 2799 117b 5F5F4C44 		.ascii "__LDBL_MIN_10_EXP__ (-4931)\0"
 2799      424C5F4D 
 2799      494E5F31 
 2799      305F4558 
 2799      505F5F20 
 2800 1197 01       		.byte	0x1
 2801 1198 00       		.uleb128 0
 2802 1199 5F5F4C44 		.ascii "__LDBL_MAX_EXP__ 16384\0"
 2802      424C5F4D 
 2802      41585F45 
 2802      58505F5F 
 2802      20313633 
 2803 11b0 01       		.byte	0x1
 2804 11b1 00       		.uleb128 0
 2805 11b2 5F5F4C44 		.ascii "__LDBL_MAX_10_EXP__ 4932\0"
 2805      424C5F4D 
 2805      41585F31 
 2805      305F4558 
 2805      505F5F20 
 2806 11cb 01       		.byte	0x1
 2807 11cc 00       		.uleb128 0
 2808 11cd 5F5F4445 		.ascii "__DECIMAL_DIG__ 21\0"
 2808      43494D41 
 2808      4C5F4449 
 2808      475F5F20 
 2808      323100
 2809 11e0 01       		.byte	0x1
 2810 11e1 00       		.uleb128 0
 2811 11e2 5F5F4C44 		.ascii "__LDBL_MAX__ 1.18973149535723176502e+4932L\0"
 2811      424C5F4D 
 2811      41585F5F 
 2811      20312E31 
 2811      38393733 
 2812 120d 01       		.byte	0x1
 2813 120e 00       		.uleb128 0
 2814 120f 5F5F4C44 		.ascii "__LDBL_MIN__ 3.36210314311209350626e-4932L\0"
 2814      424C5F4D 
 2814      494E5F5F 
 2814      20332E33 
 2814      36323130 
 2815 123a 01       		.byte	0x1
 2816 123b 00       		.uleb128 0
 2817 123c 5F5F4C44 		.ascii "__LDBL_EPSILON__ 1.08420217248550443401e-19L\0"
 2817      424C5F45 
 2817      5053494C 
 2817      4F4E5F5F 
GAS LISTING C:\Users\PRESID~1\AppData\Local\Temp\cc50m3V3.s 			page 80


 2817      20312E30 
 2818 1269 01       		.byte	0x1
 2819 126a 00       		.uleb128 0
 2820 126b 5F5F4C44 		.ascii "__LDBL_DENORM_MIN__ 3.64519953188247460253e-4951L\0"
 2820      424C5F44 
 2820      454E4F52 
 2820      4D5F4D49 
 2820      4E5F5F20 
 2821 129d 01       		.byte	0x1
 2822 129e 00       		.uleb128 0
 2823 129f 5F5F4C44 		.ascii "__LDBL_HAS_DENORM__ 1\0"
 2823      424C5F48 
 2823      41535F44 
 2823      454E4F52 
 2823      4D5F5F20 
 2824 12b5 01       		.byte	0x1
 2825 12b6 00       		.uleb128 0
 2826 12b7 5F5F4C44 		.ascii "__LDBL_HAS_INFINITY__ 1\0"
 2826      424C5F48 
 2826      41535F49 
 2826      4E46494E 
 2826      4954595F 
 2827 12cf 01       		.byte	0x1
 2828 12d0 00       		.uleb128 0
 2829 12d1 5F5F4C44 		.ascii "__LDBL_HAS_QUIET_NAN__ 1\0"
 2829      424C5F48 
 2829      41535F51 
 2829      55494554 
 2829      5F4E414E 
 2830 12ea 01       		.byte	0x1
 2831 12eb 00       		.uleb128 0
 2832 12ec 5F5F4445 		.ascii "__DEC32_MANT_DIG__ 7\0"
 2832      4333325F 
 2832      4D414E54 
 2832      5F444947 
 2832      5F5F2037 
 2833 1301 01       		.byte	0x1
 2834 1302 00       		.uleb128 0
 2835 1303 5F5F4445 		.ascii "__DEC32_MIN_EXP__ (-94)\0"
 2835      4333325F 
 2835      4D494E5F 
 2835      4558505F 
 2835      5F20282D 
 2836 131b 01       		.byte	0x1
 2837 131c 00       		.uleb128 0
 2838 131d 5F5F4445 		.ascii "__DEC32_MAX_EXP__ 97\0"
 2838      4333325F 
 2838      4D41585F 
 2838      4558505F 
 2838      5F203937 
 2839 1332 01       		.byte	0x1
 2840 1333 00       		.uleb128 0
 2841 1334 5F5F4445 		.ascii "__DEC32_MIN__ 1E-95DF\0"
 2841      4333325F 
 2841      4D494E5F 
 2841      5F203145 
 2841      2D393544 
GAS LISTING C:\Users\PRESID~1\AppData\Local\Temp\cc50m3V3.s 			page 81


 2842 134a 01       		.byte	0x1
 2843 134b 00       		.uleb128 0
 2844 134c 5F5F4445 		.ascii "__DEC32_MAX__ 9.999999E96DF\0"
 2844      4333325F 
 2844      4D41585F 
 2844      5F20392E 
 2844      39393939 
 2845 1368 01       		.byte	0x1
 2846 1369 00       		.uleb128 0
 2847 136a 5F5F4445 		.ascii "__DEC32_EPSILON__ 1E-6DF\0"
 2847      4333325F 
 2847      45505349 
 2847      4C4F4E5F 
 2847      5F203145 
 2848 1383 01       		.byte	0x1
 2849 1384 00       		.uleb128 0
 2850 1385 5F5F4445 		.ascii "__DEC32_SUBNORMAL_MIN__ 0.000001E-95DF\0"
 2850      4333325F 
 2850      5355424E 
 2850      4F524D41 
 2850      4C5F4D49 
 2851 13ac 01       		.byte	0x1
 2852 13ad 00       		.uleb128 0
 2853 13ae 5F5F4445 		.ascii "__DEC64_MANT_DIG__ 16\0"
 2853      4336345F 
 2853      4D414E54 
 2853      5F444947 
 2853      5F5F2031 
 2854 13c4 01       		.byte	0x1
 2855 13c5 00       		.uleb128 0
 2856 13c6 5F5F4445 		.ascii "__DEC64_MIN_EXP__ (-382)\0"
 2856      4336345F 
 2856      4D494E5F 
 2856      4558505F 
 2856      5F20282D 
 2857 13df 01       		.byte	0x1
 2858 13e0 00       		.uleb128 0
 2859 13e1 5F5F4445 		.ascii "__DEC64_MAX_EXP__ 385\0"
 2859      4336345F 
 2859      4D41585F 
 2859      4558505F 
 2859      5F203338 
 2860 13f7 01       		.byte	0x1
 2861 13f8 00       		.uleb128 0
 2862 13f9 5F5F4445 		.ascii "__DEC64_MIN__ 1E-383DD\0"
 2862      4336345F 
 2862      4D494E5F 
 2862      5F203145 
 2862      2D333833 
 2863 1410 01       		.byte	0x1
 2864 1411 00       		.uleb128 0
 2865 1412 5F5F4445 		.ascii "__DEC64_MAX__ 9.999999999999999E384DD\0"
 2865      4336345F 
 2865      4D41585F 
 2865      5F20392E 
 2865      39393939 
 2866 1438 01       		.byte	0x1
GAS LISTING C:\Users\PRESID~1\AppData\Local\Temp\cc50m3V3.s 			page 82


 2867 1439 00       		.uleb128 0
 2868 143a 5F5F4445 		.ascii "__DEC64_EPSILON__ 1E-15DD\0"
 2868      4336345F 
 2868      45505349 
 2868      4C4F4E5F 
 2868      5F203145 
 2869 1454 01       		.byte	0x1
 2870 1455 00       		.uleb128 0
 2871 1456 5F5F4445 		.ascii "__DEC64_SUBNORMAL_MIN__ 0.000000000000001E-383DD\0"
 2871      4336345F 
 2871      5355424E 
 2871      4F524D41 
 2871      4C5F4D49 
 2872 1487 01       		.byte	0x1
 2873 1488 00       		.uleb128 0
 2874 1489 5F5F4445 		.ascii "__DEC128_MANT_DIG__ 34\0"
 2874      43313238 
 2874      5F4D414E 
 2874      545F4449 
 2874      475F5F20 
 2875 14a0 01       		.byte	0x1
 2876 14a1 00       		.uleb128 0
 2877 14a2 5F5F4445 		.ascii "__DEC128_MIN_EXP__ (-6142)\0"
 2877      43313238 
 2877      5F4D494E 
 2877      5F455850 
 2877      5F5F2028 
 2878 14bd 01       		.byte	0x1
 2879 14be 00       		.uleb128 0
 2880 14bf 5F5F4445 		.ascii "__DEC128_MAX_EXP__ 6145\0"
 2880      43313238 
 2880      5F4D4158 
 2880      5F455850 
 2880      5F5F2036 
 2881 14d7 01       		.byte	0x1
 2882 14d8 00       		.uleb128 0
 2883 14d9 5F5F4445 		.ascii "__DEC128_MIN__ 1E-6143DL\0"
 2883      43313238 
 2883      5F4D494E 
 2883      5F5F2031 
 2883      452D3631 
 2884 14f2 01       		.byte	0x1
 2885 14f3 00       		.uleb128 0
 2886 14f4 5F5F4445 		.ascii "__DEC128_MAX__ 9.999999999999999999999999999999999E6144DL\0"
 2886      43313238 
 2886      5F4D4158 
 2886      5F5F2039 
 2886      2E393939 
 2887 152e 01       		.byte	0x1
 2888 152f 00       		.uleb128 0
 2889 1530 5F5F4445 		.ascii "__DEC128_EPSILON__ 1E-33DL\0"
 2889      43313238 
 2889      5F455053 
 2889      494C4F4E 
 2889      5F5F2031 
 2890 154b 01       		.byte	0x1
 2891 154c 00       		.uleb128 0
GAS LISTING C:\Users\PRESID~1\AppData\Local\Temp\cc50m3V3.s 			page 83


 2892 154d 5F5F4445 		.ascii "__DEC128_SUBNORMAL_MIN__ 0.000000000000000000000000000000001E-6143DL\0"
 2892      43313238 
 2892      5F535542 
 2892      4E4F524D 
 2892      414C5F4D 
 2893 1592 01       		.byte	0x1
 2894 1593 00       		.uleb128 0
 2895 1594 5F5F5245 		.ascii "__REGISTER_PREFIX__ \0"
 2895      47495354 
 2895      45525F50 
 2895      52454649 
 2895      585F5F20 
 2896 15a9 01       		.byte	0x1
 2897 15aa 00       		.uleb128 0
 2898 15ab 5F5F5553 		.ascii "__USER_LABEL_PREFIX__ _\0"
 2898      45525F4C 
 2898      4142454C 
 2898      5F505245 
 2898      4649585F 
 2899 15c3 01       		.byte	0x1
 2900 15c4 00       		.uleb128 0
 2901 15c5 5F5F474E 		.ascii "__GNUC_GNU_INLINE__ 1\0"
 2901      55435F47 
 2901      4E555F49 
 2901      4E4C494E 
 2901      455F5F20 
 2902 15db 01       		.byte	0x1
 2903 15dc 00       		.uleb128 0
 2904 15dd 5F5F4E4F 		.ascii "__NO_INLINE__ 1\0"
 2904      5F494E4C 
 2904      494E455F 
 2904      5F203100 
 2905 15ed 01       		.byte	0x1
 2906 15ee 00       		.uleb128 0
 2907 15ef 5F5F5354 		.ascii "__STRICT_ANSI__ 1\0"
 2907      52494354 
 2907      5F414E53 
 2907      495F5F20 
 2907      3100
 2908 1601 01       		.byte	0x1
 2909 1602 00       		.uleb128 0
 2910 1603 5F5F4743 		.ascii "__GCC_ATOMIC_BOOL_LOCK_FREE 1\0"
 2910      435F4154 
 2910      4F4D4943 
 2910      5F424F4F 
 2910      4C5F4C4F 
 2911 1621 01       		.byte	0x1
 2912 1622 00       		.uleb128 0
 2913 1623 5F5F4743 		.ascii "__GCC_ATOMIC_CHAR_LOCK_FREE 1\0"
 2913      435F4154 
 2913      4F4D4943 
 2913      5F434841 
 2913      525F4C4F 
 2914 1641 01       		.byte	0x1
 2915 1642 00       		.uleb128 0
 2916 1643 5F5F4743 		.ascii "__GCC_ATOMIC_CHAR16_T_LOCK_FREE 1\0"
 2916      435F4154 
GAS LISTING C:\Users\PRESID~1\AppData\Local\Temp\cc50m3V3.s 			page 84


 2916      4F4D4943 
 2916      5F434841 
 2916      5231365F 
 2917 1665 01       		.byte	0x1
 2918 1666 00       		.uleb128 0
 2919 1667 5F5F4743 		.ascii "__GCC_ATOMIC_CHAR32_T_LOCK_FREE 1\0"
 2919      435F4154 
 2919      4F4D4943 
 2919      5F434841 
 2919      5233325F 
 2920 1689 01       		.byte	0x1
 2921 168a 00       		.uleb128 0
 2922 168b 5F5F4743 		.ascii "__GCC_ATOMIC_WCHAR_T_LOCK_FREE 1\0"
 2922      435F4154 
 2922      4F4D4943 
 2922      5F574348 
 2922      41525F54 
 2923 16ac 01       		.byte	0x1
 2924 16ad 00       		.uleb128 0
 2925 16ae 5F5F4743 		.ascii "__GCC_ATOMIC_SHORT_LOCK_FREE 1\0"
 2925      435F4154 
 2925      4F4D4943 
 2925      5F53484F 
 2925      52545F4C 
 2926 16cd 01       		.byte	0x1
 2927 16ce 00       		.uleb128 0
 2928 16cf 5F5F4743 		.ascii "__GCC_ATOMIC_INT_LOCK_FREE 1\0"
 2928      435F4154 
 2928      4F4D4943 
 2928      5F494E54 
 2928      5F4C4F43 
 2929 16ec 01       		.byte	0x1
 2930 16ed 00       		.uleb128 0
 2931 16ee 5F5F4743 		.ascii "__GCC_ATOMIC_LONG_LOCK_FREE 1\0"
 2931      435F4154 
 2931      4F4D4943 
 2931      5F4C4F4E 
 2931      475F4C4F 
 2932 170c 01       		.byte	0x1
 2933 170d 00       		.uleb128 0
 2934 170e 5F5F4743 		.ascii "__GCC_ATOMIC_LLONG_LOCK_FREE 1\0"
 2934      435F4154 
 2934      4F4D4943 
 2934      5F4C4C4F 
 2934      4E475F4C 
 2935 172d 01       		.byte	0x1
 2936 172e 00       		.uleb128 0
 2937 172f 5F5F4743 		.ascii "__GCC_ATOMIC_TEST_AND_SET_TRUEVAL 1\0"
 2937      435F4154 
 2937      4F4D4943 
 2937      5F544553 
 2937      545F414E 
 2938 1753 01       		.byte	0x1
 2939 1754 00       		.uleb128 0
 2940 1755 5F5F4743 		.ascii "__GCC_ATOMIC_POINTER_LOCK_FREE 1\0"
 2940      435F4154 
 2940      4F4D4943 
GAS LISTING C:\Users\PRESID~1\AppData\Local\Temp\cc50m3V3.s 			page 85


 2940      5F504F49 
 2940      4E544552 
 2941 1776 01       		.byte	0x1
 2942 1777 00       		.uleb128 0
 2943 1778 5F5F4743 		.ascii "__GCC_HAVE_DWARF2_CFI_ASM 1\0"
 2943      435F4841 
 2943      56455F44 
 2943      57415246 
 2943      325F4346 
 2944 1794 01       		.byte	0x1
 2945 1795 00       		.uleb128 0
 2946 1796 5F5F5052 		.ascii "__PRAGMA_REDEFINE_EXTNAME 1\0"
 2946      41474D41 
 2946      5F524544 
 2946      4546494E 
 2946      455F4558 
 2947 17b2 01       		.byte	0x1
 2948 17b3 00       		.uleb128 0
 2949 17b4 5F5F5349 		.ascii "__SIZEOF_WCHAR_T__ 2\0"
 2949      5A454F46 
 2949      5F574348 
 2949      41525F54 
 2949      5F5F2032 
 2950 17c9 01       		.byte	0x1
 2951 17ca 00       		.uleb128 0
 2952 17cb 5F5F5349 		.ascii "__SIZEOF_WINT_T__ 2\0"
 2952      5A454F46 
 2952      5F57494E 
 2952      545F545F 
 2952      5F203200 
 2953 17df 01       		.byte	0x1
 2954 17e0 00       		.uleb128 0
 2955 17e1 5F5F5349 		.ascii "__SIZEOF_PTRDIFF_T__ 4\0"
 2955      5A454F46 
 2955      5F505452 
 2955      44494646 
 2955      5F545F5F 
 2956 17f8 01       		.byte	0x1
 2957 17f9 00       		.uleb128 0
 2958 17fa 5F5F6933 		.ascii "__i386 1\0"
 2958      38362031 
 2958      00
 2959 1803 01       		.byte	0x1
 2960 1804 00       		.uleb128 0
 2961 1805 5F5F6933 		.ascii "__i386__ 1\0"
 2961      38365F5F 
 2961      203100
 2962 1810 01       		.byte	0x1
 2963 1811 00       		.uleb128 0
 2964 1812 5F5F4154 		.ascii "__ATOMIC_HLE_ACQUIRE 65536\0"
 2964      4F4D4943 
 2964      5F484C45 
 2964      5F414351 
 2964      55495245 
 2965 182d 01       		.byte	0x1
 2966 182e 00       		.uleb128 0
 2967 182f 5F5F4154 		.ascii "__ATOMIC_HLE_RELEASE 131072\0"
GAS LISTING C:\Users\PRESID~1\AppData\Local\Temp\cc50m3V3.s 			page 86


 2967      4F4D4943 
 2967      5F484C45 
 2967      5F52454C 
 2967      45415345 
 2968 184b 01       		.byte	0x1
 2969 184c 00       		.uleb128 0
 2970 184d 5F5F7475 		.ascii "__tune_i386__ 1\0"
 2970      6E655F69 
 2970      3338365F 
 2970      5F203100 
 2971 185d 01       		.byte	0x1
 2972 185e 00       		.uleb128 0
 2973 185f 5F5F636F 		.ascii "__code_model_32__ 1\0"
 2973      64655F6D 
 2973      6F64656C 
 2973      5F33325F 
 2973      5F203100 
 2974 1873 01       		.byte	0x1
 2975 1874 00       		.uleb128 0
 2976 1875 5F583836 		.ascii "_X86_ 1\0"
 2976      5F203100 
 2977 187d 01       		.byte	0x1
 2978 187e 00       		.uleb128 0
 2979 187f 5F5F7374 		.ascii "__stdcall __attribute__((__stdcall__))\0"
 2979      6463616C 
 2979      6C205F5F 
 2979      61747472 
 2979      69627574 
 2980 18a6 01       		.byte	0x1
 2981 18a7 00       		.uleb128 0
 2982 18a8 5F5F6661 		.ascii "__fastcall __attribute__((__fastcall__))\0"
 2982      73746361 
 2982      6C6C205F 
 2982      5F617474 
 2982      72696275 
 2983 18d1 01       		.byte	0x1
 2984 18d2 00       		.uleb128 0
 2985 18d3 5F5F7468 		.ascii "__thiscall __attribute__((__thiscall__))\0"
 2985      69736361 
 2985      6C6C205F 
 2985      5F617474 
 2985      72696275 
 2986 18fc 01       		.byte	0x1
 2987 18fd 00       		.uleb128 0
 2988 18fe 5F5F6364 		.ascii "__cdecl __attribute__((__cdecl__))\0"
 2988      65636C20 
 2988      5F5F6174 
 2988      74726962 
 2988      7574655F 
 2989 1921 01       		.byte	0x1
 2990 1922 00       		.uleb128 0
 2991 1923 5F5F4758 		.ascii "__GXX_MERGED_TYPEINFO_NAMES 0\0"
 2991      585F4D45 
 2991      52474544 
 2991      5F545950 
 2991      45494E46 
 2992 1941 01       		.byte	0x1
GAS LISTING C:\Users\PRESID~1\AppData\Local\Temp\cc50m3V3.s 			page 87


 2993 1942 00       		.uleb128 0
 2994 1943 5F5F4758 		.ascii "__GXX_TYPEINFO_EQUALITY_INLINE 0\0"
 2994      585F5459 
 2994      5045494E 
 2994      464F5F45 
 2994      5155414C 
 2995 1964 01       		.byte	0x1
 2996 1965 00       		.uleb128 0
 2997 1966 5F5F4D53 		.ascii "__MSVCRT__ 1\0"
 2997      56435254 
 2997      5F5F2031 
 2997      00
 2998 1973 01       		.byte	0x1
 2999 1974 00       		.uleb128 0
 3000 1975 5F5F4D49 		.ascii "__MINGW32__ 1\0"
 3000      4E475733 
 3000      325F5F20 
 3000      3100
 3001 1983 01       		.byte	0x1
 3002 1984 00       		.uleb128 0
 3003 1985 5F57494E 		.ascii "_WIN32 1\0"
 3003      33322031 
 3003      00
 3004 198e 01       		.byte	0x1
 3005 198f 00       		.uleb128 0
 3006 1990 5F5F5749 		.ascii "__WIN32 1\0"
 3006      4E333220 
 3006      3100
 3007 199a 01       		.byte	0x1
 3008 199b 00       		.uleb128 0
 3009 199c 5F5F5749 		.ascii "__WIN32__ 1\0"
 3009      4E33325F 
 3009      5F203100 
 3010 19a8 01       		.byte	0x1
 3011 19a9 00       		.uleb128 0
 3012 19aa 5F5F5749 		.ascii "__WINNT 1\0"
 3012      4E4E5420 
 3012      3100
 3013 19b4 01       		.byte	0x1
 3014 19b5 00       		.uleb128 0
 3015 19b6 5F5F5749 		.ascii "__WINNT__ 1\0"
 3015      4E4E545F 
 3015      5F203100 
 3016 19c2 01       		.byte	0x1
 3017 19c3 00       		.uleb128 0
 3018 19c4 5F494E54 		.ascii "_INTEGRAL_MAX_BITS 64\0"
 3018      45475241 
 3018      4C5F4D41 
 3018      585F4249 
 3018      54532036 
 3019 19da 01       		.byte	0x1
 3020 19db 00       		.uleb128 0
 3021 19dc 5F5F6465 		.ascii "__declspec(x) __attribute__((x))\0"
 3021      636C7370 
 3021      65632878 
 3021      29205F5F 
 3021      61747472 
GAS LISTING C:\Users\PRESID~1\AppData\Local\Temp\cc50m3V3.s 			page 88


 3022 19fd 01       		.byte	0x1
 3023 19fe 00       		.uleb128 0
 3024 19ff 5F5F4445 		.ascii "__DECIMAL_BID_FORMAT__ 1\0"
 3024      43494D41 
 3024      4C5F4249 
 3024      445F464F 
 3024      524D4154 
 3025 1a18 01       		.byte	0x1
 3026 1a19 00       		.uleb128 0
 3027 1a1a 4346475F 		.ascii "CFG_PROCESSOR 3\0"
 3027      50524F43 
 3027      4553534F 
 3027      52203300 
 3028 1a2a 03       		.byte	0x3
 3029 1a2b 00       		.uleb128 0
 3030 1a2c 01       		.uleb128 0x1
 3031              		.file 8 "E:/NeuOrga/Programmieren/c_cpp/github_os/input/src/os_base/os_firstinc.h"
 3032 1a2d 03       		.byte	0x3
 3033 1a2e 01       		.uleb128 0x1
 3034 1a2f 08       		.uleb128 0x8
 3035 1a30 01       		.byte	0x1
 3036 1a31 02       		.uleb128 0x2
 3037 1a32 5F6F735F 		.ascii "_os_firstinc_h_ \0"
 3037      66697273 
 3037      74696E63 
 3037      5F685F20 
 3037      00
 3038 1a43 03       		.byte	0x3
 3039 1a44 04       		.uleb128 0x4
 3040 1a45 02       		.uleb128 0x2
 3041 1a46 01       		.byte	0x1
 3042 1a47 02       		.uleb128 0x2
 3043 1a48 5F424153 		.ascii "_BASE_TYPES_H_ \0"
 3043      455F5459 
 3043      5045535F 
 3043      485F2000 
 3044 1a58 01       		.byte	0x1
 3045 1a59 04       		.uleb128 0x4
 3046 1a5a 494E5445 		.ascii "INTEGER_LLP64_IL32P64 1\0"
 3046      4745525F 
 3046      4C4C5036 
 3046      345F494C 
 3046      33325036 
 3047 1a72 01       		.byte	0x1
 3048 1a73 05       		.uleb128 0x5
 3049 1a74 494E5445 		.ascii "INTEGER_LP64_I32LP64 2\0"
 3049      4745525F 
 3049      4C503634 
 3049      5F493332 
 3049      4C503634 
 3050 1a8b 01       		.byte	0x1
 3051 1a8c 06       		.uleb128 0x6
 3052 1a8d 494E5445 		.ascii "INTEGER_ILP64 3\0"
 3052      4745525F 
 3052      494C5036 
 3052      34203300 
 3053 1a9d 01       		.byte	0x1
GAS LISTING C:\Users\PRESID~1\AppData\Local\Temp\cc50m3V3.s 			page 89


 3054 1a9e 07       		.uleb128 0x7
 3055 1a9f 494E5445 		.ascii "INTEGER_SILP64 4\0"
 3055      4745525F 
 3055      53494C50 
 3055      36342034 
 3055      00
 3056 1ab0 01       		.byte	0x1
 3057 1ab1 09       		.uleb128 0x9
 3058 1ab2 4350505F 		.ascii "CPP_VERSION_NONE 0\0"
 3058      56455253 
 3058      494F4E5F 
 3058      4E4F4E45 
 3058      203000
 3059 1ac5 01       		.byte	0x1
 3060 1ac6 0A       		.uleb128 0xa
 3061 1ac7 4350505F 		.ascii "CPP_VERSION_1998 1\0"
 3061      56455253 
 3061      494F4E5F 
 3061      31393938 
 3061      203100
 3062 1ada 01       		.byte	0x1
 3063 1adb 0B       		.uleb128 0xb
 3064 1adc 4350505F 		.ascii "CPP_VERSION_2003 2\0"
 3064      56455253 
 3064      494F4E5F 
 3064      32303033 
 3064      203200
 3065 1aef 01       		.byte	0x1
 3066 1af0 0C       		.uleb128 0xc
 3067 1af1 4350505F 		.ascii "CPP_VERSION_2007 3\0"
 3067      56455253 
 3067      494F4E5F 
 3067      32303037 
 3067      203300
 3068 1b04 01       		.byte	0x1
 3069 1b05 0D       		.uleb128 0xd
 3070 1b06 4350505F 		.ascii "CPP_VERSION_2011 4\0"
 3070      56455253 
 3070      494F4E5F 
 3070      32303131 
 3070      203400
 3071 1b19 01       		.byte	0x1
 3072 1b1a 0E       		.uleb128 0xe
 3073 1b1b 49534F5F 		.ascii "ISO_CPP_VERSION CPP_VERSION_1998\0"
 3073      4350505F 
 3073      56455253 
 3073      494F4E20 
 3073      4350505F 
 3074 1b3c 01       		.byte	0x1
 3075 1b3d 10       		.uleb128 0x10
 3076 1b3e 494E5445 		.ascii "INTEGER_MODEL INTEGER_LLP64_IL32P64\0"
 3076      4745525F 
 3076      4D4F4445 
 3076      4C20494E 
 3076      54454745 
 3077 1b62 04       		.byte	0x4
 3078 1b63 03       		.byte	0x3
GAS LISTING C:\Users\PRESID~1\AppData\Local\Temp\cc50m3V3.s 			page 90


 3079 1b64 05       		.uleb128 0x5
 3080 1b65 03       		.uleb128 0x3
 3081 1b66 01       		.byte	0x1
 3082 1b67 02       		.uleb128 0x2
 3083 1b68 5F6F735F 		.ascii "_os_common_h_ \0"
 3083      636F6D6D 
 3083      6F6E5F68 
 3083      5F2000
 3084 1b77 01       		.byte	0x1
 3085 1b78 06       		.uleb128 0x6
 3086 1b79 46616C73 		.ascii "False 0\0"
 3086      65203000 
 3087 1b81 01       		.byte	0x1
 3088 1b82 07       		.uleb128 0x7
 3089 1b83 54727565 		.ascii "True 1\0"
 3089      203100
 3090 1b8a 01       		.byte	0x1
 3091 1b8b 08       		.uleb128 0x8
 3092 1b8c 46414C53 		.ascii "FALSE False\0"
 3092      45204661 
 3092      6C736500 
 3093 1b98 01       		.byte	0x1
 3094 1b99 09       		.uleb128 0x9
 3095 1b9a 54525545 		.ascii "TRUE True\0"
 3095      20547275 
 3095      6500
 3096 1ba4 01       		.byte	0x1
 3097 1ba5 0A       		.uleb128 0xa
 3098 1ba6 41636365 		.ascii "Accepted 1\0"
 3098      70746564 
 3098      203100
 3099 1bb1 01       		.byte	0x1
 3100 1bb2 0B       		.uleb128 0xb
 3101 1bb3 52656A65 		.ascii "Rejected 0\0"
 3101      63746564 
 3101      203000
 3102 1bbe 01       		.byte	0x1
 3103 1bbf 0C       		.uleb128 0xc
 3104 1bc0 4C6F6361 		.ascii "Local static\0"
 3104      6C207374 
 3104      61746963 
 3104      00
 3105 1bcd 01       		.byte	0x1
 3106 1bce 0D       		.uleb128 0xd
 3107 1bcf 4C6F6361 		.ascii "Local_inline static __inline__\0"
 3107      6C5F696E 
 3107      6C696E65 
 3107      20737461 
 3107      74696320 
 3108 1bee 01       		.byte	0x1
 3109 1bef 0E       		.uleb128 0xe
 3110 1bf0 476C6F62 		.ascii "Global_inline __inline__\0"
 3110      616C5F69 
 3110      6E6C696E 
 3110      65205F5F 
 3110      696E6C69 
 3111 1c09 01       		.byte	0x1
GAS LISTING C:\Users\PRESID~1\AppData\Local\Temp\cc50m3V3.s 			page 91


 3112 1c0a 0F       		.uleb128 0xf
 3113 1c0b 52656665 		.ascii "ReferenceUnusedParameter(x) ((x) = (x))\0"
 3113      72656E63 
 3113      65556E75 
 3113      73656450 
 3113      6172616D 
 3114 1c33 01       		.byte	0x1
 3115 1c34 12       		.uleb128 0x12
 3116 1c35 634D4355 		.ascii "cMCU_X86 3\0"
 3116      5F583836 
 3116      203300
 3117 1c40 01       		.byte	0x1
 3118 1c41 13       		.uleb128 0x13
 3119 1c42 634D4355 		.ascii "cMCU_CORTEX_M4 4\0"
 3119      5F434F52 
 3119      5445585F 
 3119      4D342034 
 3119      00
 3120 1c53 01       		.byte	0x1
 3121 1c54 15       		.uleb128 0x15
 3122 1c55 4E525F4F 		.ascii "NR_OF_CORES 1\0"
 3122      465F434F 
 3122      52455320 
 3122      3100
 3123 1c63 01       		.byte	0x1
 3124 1c64 17       		.uleb128 0x17
 3125 1c65 4D43555F 		.ascii "MCU_CLOCK_IN_HZ ((uint32)168000000u)\0"
 3125      434C4F43 
 3125      4B5F494E 
 3125      5F485A20 
 3125      28287569 
 3126 1c8a 01       		.byte	0x1
 3127 1c8b 1B       		.uleb128 0x1b
 3128 1c8c 44697361 		.ascii "DisableInterrupts() \0"
 3128      626C6549 
 3128      6E746572 
 3128      72757074 
 3128      73282920 
 3129 1ca1 01       		.byte	0x1
 3130 1ca2 1C       		.uleb128 0x1c
 3131 1ca3 456E6162 		.ascii "EnableInterrupts() \0"
 3131      6C65496E 
 3131      74657272 
 3131      75707473 
 3131      28292000 
 3132 1cb7 01       		.byte	0x1
 3133 1cb8 1D       		.uleb128 0x1d
 3134 1cb9 50726976 		.ascii "Privilige_level_save_current() \0"
 3134      696C6967 
 3134      655F6C65 
 3134      76656C5F 
 3134      73617665 
 3135 1cd9 01       		.byte	0x1
 3136 1cda 1E       		.uleb128 0x1e
 3137 1cdb 50726976 		.ascii "Privilige_level_enter_kernel_mode() \0"
 3137      696C6967 
 3137      655F6C65 
GAS LISTING C:\Users\PRESID~1\AppData\Local\Temp\cc50m3V3.s 			page 92


 3137      76656C5F 
 3137      656E7465 
 3138 1d00 01       		.byte	0x1
 3139 1d01 1F       		.uleb128 0x1f
 3140 1d02 50726976 		.ascii "Privilige_level_restore_saved() \0"
 3140      696C6967 
 3140      655F6C65 
 3140      76656C5F 
 3140      72657374 
 3141 1d23 01       		.byte	0x1
 3142 1d24 20       		.uleb128 0x20
 3143 1d25 48616C74 		.ascii "HaltMcu() \0"
 3143      4D637528 
 3143      292000
 3144 1d30 04       		.byte	0x4
 3145 1d31 03       		.byte	0x3
 3146 1d32 07       		.uleb128 0x7
 3147 1d33 07       		.uleb128 0x7
 3148 1d34 01       		.byte	0x1
 3149 1d35 02       		.uleb128 0x2
 3150 1d36 5F4F535F 		.ascii "_OS_RAM_H_ \0"
 3150      52414D5F 
 3150      485F2000 
 3151              		.file 9 "E:/NeuOrga/Programmieren/c_cpp/github_os/input/src/os_base/../os_base/os_firstinc.h"
 3152 1d42 03       		.byte	0x3
 3153 1d43 04       		.uleb128 0x4
 3154 1d44 09       		.uleb128 0x9
 3155 1d45 04       		.byte	0x4
 3156              		.file 10 "E:/NeuOrga/Programmieren/c_cpp/github_os/input/src/os_base/../os_base/os_stack.h"
 3157 1d46 03       		.byte	0x3
 3158 1d47 05       		.uleb128 0x5
 3159 1d48 0A       		.uleb128 0xa
 3160 1d49 01       		.byte	0x1
 3161 1d4a 02       		.uleb128 0x2
 3162 1d4b 5F6F735F 		.ascii "_os_stack_h_ \0"
 3162      73746163 
 3162      6B5F685F 
 3162      2000
 3163 1d59 01       		.byte	0x1
 3164 1d5a 04       		.uleb128 0x4
 3165 1d5b 4F535F53 		.ascii "OS_STACK_SIZE 0x100\0"
 3165      5441434B 
 3165      5F53495A 
 3165      45203078 
 3165      31303000 
 3166 1d6f 01       		.byte	0x1
 3167 1d70 06       		.uleb128 0x6
 3168 1d71 4F535F53 		.ascii "OS_STACK_SIZE_END 0x01u\0"
 3168      5441434B 
 3168      5F53495A 
 3168      455F454E 
 3168      44203078 
 3169 1d89 04       		.byte	0x4
 3170              		.file 11 "E:/NeuOrga/Programmieren/c_cpp/github_os/input/src/os_base/../os_base/os_heap.h"
 3171 1d8a 03       		.byte	0x3
 3172 1d8b 06       		.uleb128 0x6
 3173 1d8c 0B       		.uleb128 0xb
GAS LISTING C:\Users\PRESID~1\AppData\Local\Temp\cc50m3V3.s 			page 93


 3174 1d8d 01       		.byte	0x1
 3175 1d8e 02       		.uleb128 0x2
 3176 1d8f 5F6F735F 		.ascii "_os_heap_h_ \0"
 3176      68656170 
 3176      5F685F20 
 3176      00
 3177 1d9c 01       		.byte	0x1
 3178 1d9d 05       		.uleb128 0x5
 3179 1d9e 48454150 		.ascii "HEAP_SIZE 10000\0"
 3179      5F53495A 
 3179      45203130 
 3179      30303000 
 3180 1dae 01       		.byte	0x1
 3181 1daf 06       		.uleb128 0x6
 3182 1db0 4D494E5F 		.ascii "MIN_BLOCK_SIZE_HEAP 8\0"
 3182      424C4F43 
 3182      4B5F5349 
 3182      5A455F48 
 3182      45415020 
 3183 1dc6 01       		.byte	0x1
 3184 1dc7 09       		.uleb128 0x9
 3185 1dc8 48454150 		.ascii "HEAP_OFFSET_FOR_SIZE 0\0"
 3185      5F4F4646 
 3185      5345545F 
 3185      464F525F 
 3185      53495A45 
 3186 1ddf 01       		.byte	0x1
 3187 1de0 0A       		.uleb128 0xa
 3188 1de1 48454150 		.ascii "HEAP_OFFSET_FOR_USED_SIZE 4\0"
 3188      5F4F4646 
 3188      5345545F 
 3188      464F525F 
 3188      55534544 
 3189 1dfd 01       		.byte	0x1
 3190 1dfe 0B       		.uleb128 0xb
 3191 1dff 48454150 		.ascii "HEAP_OFFSET_FOR_CHUNK 8\0"
 3191      5F4F4646 
 3191      5345545F 
 3191      464F525F 
 3191      4348554E 
 3192 1e17 04       		.byte	0x4
 3193              		.file 12 "E:/NeuOrga/Programmieren/c_cpp/github_os/input/src/os_base/../os_base/os_main.h"
 3194 1e18 03       		.byte	0x3
 3195 1e19 07       		.uleb128 0x7
 3196 1e1a 0C       		.uleb128 0xc
 3197 1e1b 01       		.byte	0x1
 3198 1e1c 02       		.uleb128 0x2
 3199 1e1d 5F6F735F 		.ascii "_os_main_h_ \0"
 3199      6D61696E 
 3199      5F685F20 
 3199      00
 3200 1e2a 01       		.byte	0x1
 3201 1e2b 03       		.uleb128 0x3
 3202 1e2c 6F735F69 		.ascii "os_init 0\0"
 3202      6E697420 
 3202      3000
 3203 1e36 01       		.byte	0x1
GAS LISTING C:\Users\PRESID~1\AppData\Local\Temp\cc50m3V3.s 			page 94


 3204 1e37 04       		.uleb128 0x4
 3205 1e38 6F735F72 		.ascii "os_running 1\0"
 3205      756E6E69 
 3205      6E672031 
 3205      00
 3206 1e45 01       		.byte	0x1
 3207 1e46 05       		.uleb128 0x5
 3208 1e47 6F735F73 		.ascii "os_shutdown 2\0"
 3208      68757464 
 3208      6F776E20 
 3208      3200
 3209 1e55 04       		.byte	0x4
 3210 1e56 04       		.byte	0x4
 3211              		.file 13 "E:/NeuOrga/Programmieren/c_cpp/github_os/input/src/os_base/../os_sim/lld_global.h"
 3212 1e57 03       		.byte	0x3
 3213 1e58 0A       		.uleb128 0xa
 3214 1e59 0D       		.uleb128 0xd
 3215 1e5a 01       		.byte	0x1
 3216 1e5b 02       		.uleb128 0x2
 3217 1e5c 5F6C6C64 		.ascii "_lld_global_h_ \0"
 3217      5F676C6F 
 3217      62616C5F 
 3217      685F2000 
 3218              		.file 14 "E:/NeuOrga/Programmieren/c_cpp/github_os/input/src/os_base/../os_sim/lld_core.h"
 3219 1e6c 03       		.byte	0x3
 3220 1e6d 04       		.uleb128 0x4
 3221 1e6e 0E       		.uleb128 0xe
 3222 1e6f 01       		.byte	0x1
 3223 1e70 02       		.uleb128 0x2
 3224 1e71 5F6C6C64 		.ascii "_lld_core_h_ \0"
 3224      5F636F72 
 3224      655F685F 
 3224      2000
 3225              		.file 15 "E:/NeuOrga/Programmieren/c_cpp/github_os/input/src/os_base/../os_sim/../os_base/os_first
 3226 1e7f 03       		.byte	0x3
 3227 1e80 03       		.uleb128 0x3
 3228 1e81 0F       		.uleb128 0xf
 3229 1e82 04       		.byte	0x4
 3230 1e83 04       		.byte	0x4
 3231              		.file 16 "E:/NeuOrga/Programmieren/c_cpp/github_os/input/src/os_base/../os_sim/lld_interrupt.h"
 3232 1e84 03       		.byte	0x3
 3233 1e85 05       		.uleb128 0x5
 3234 1e86 10       		.uleb128 0x10
 3235 1e87 01       		.byte	0x1
 3236 1e88 02       		.uleb128 0x2
 3237 1e89 5F6C6C64 		.ascii "_lld_interrupt_h_ \0"
 3237      5F696E74 
 3237      65727275 
 3237      70745F68 
 3237      5F2000
 3238 1e9c 01       		.byte	0x1
 3239 1e9d 05       		.uleb128 0x5
 3240 1e9e 6F735F69 		.ascii "os_interrupt_swi_1 asm(\"swi 1\")\0"
 3240      6E746572 
 3240      72757074 
 3240      5F737769 
 3240      5F312061 
GAS LISTING C:\Users\PRESID~1\AppData\Local\Temp\cc50m3V3.s 			page 95


 3241 1ebe 01       		.byte	0x1
 3242 1ebf 06       		.uleb128 0x6
 3243 1ec0 6F735F69 		.ascii "os_interrupt_swi_2 asm(\"swi 2\")\0"
 3243      6E746572 
 3243      72757074 
 3243      5F737769 
 3243      5F322061 
 3244 1ee0 01       		.byte	0x1
 3245 1ee1 07       		.uleb128 0x7
 3246 1ee2 6F735F69 		.ascii "os_interrupt_swi_3 asm(\"swi 3\")\0"
 3246      6E746572 
 3246      72757074 
 3246      5F737769 
 3246      5F332061 
 3247 1f02 01       		.byte	0x1
 3248 1f03 08       		.uleb128 0x8
 3249 1f04 6F735F69 		.ascii "os_interrupt_swi_4 asm(\"swi 4\")\0"
 3249      6E746572 
 3249      72757074 
 3249      5F737769 
 3249      5F342061 
 3250 1f24 01       		.byte	0x1
 3251 1f25 09       		.uleb128 0x9
 3252 1f26 6F735F69 		.ascii "os_interrupt_swi_5 asm(\"swi 5\")\0"
 3252      6E746572 
 3252      72757074 
 3252      5F737769 
 3252      5F352061 
 3253 1f46 04       		.byte	0x4
 3254              		.file 17 "E:/NeuOrga/Programmieren/c_cpp/github_os/input/src/os_base/../os_sim/lld_mmu.h"
 3255 1f47 03       		.byte	0x3
 3256 1f48 06       		.uleb128 0x6
 3257 1f49 11       		.uleb128 0x11
 3258 1f4a 01       		.byte	0x1
 3259 1f4b 02       		.uleb128 0x2
 3260 1f4c 5F6C6C64 		.ascii "_lld_mmu_h_ \0"
 3260      5F6D6D75 
 3260      5F685F20 
 3260      00
 3261 1f59 04       		.byte	0x4
 3262              		.file 18 "E:/NeuOrga/Programmieren/c_cpp/github_os/input/src/os_base/../os_sim/lld_timer.h"
 3263 1f5a 03       		.byte	0x3
 3264 1f5b 07       		.uleb128 0x7
 3265 1f5c 12       		.uleb128 0x12
 3266 1f5d 01       		.byte	0x1
 3267 1f5e 02       		.uleb128 0x2
 3268 1f5f 5F6C6C64 		.ascii "_lld_timer_h_ \0"
 3268      5F74696D 
 3268      65725F68 
 3268      5F2000
 3269 1f6e 04       		.byte	0x4
 3270              		.file 19 "E:/NeuOrga/Programmieren/c_cpp/github_os/input/src/os_base/../os_sim/lld_power.h"
 3271 1f6f 03       		.byte	0x3
 3272 1f70 08       		.uleb128 0x8
 3273 1f71 13       		.uleb128 0x13
 3274 1f72 01       		.byte	0x1
 3275 1f73 02       		.uleb128 0x2
GAS LISTING C:\Users\PRESID~1\AppData\Local\Temp\cc50m3V3.s 			page 96


 3276 1f74 5F6C6C64 		.ascii "_lld_power_h_ \0"
 3276      5F706F77 
 3276      65725F68 
 3276      5F2000
 3277 1f83 04       		.byte	0x4
 3278              		.file 20 "E:/NeuOrga/Programmieren/c_cpp/github_os/input/src/os_base/../os_sim/lld_ram.h"
 3279 1f84 03       		.byte	0x3
 3280 1f85 09       		.uleb128 0x9
 3281 1f86 14       		.uleb128 0x14
 3282 1f87 01       		.byte	0x1
 3283 1f88 02       		.uleb128 0x2
 3284 1f89 5F6C6C64 		.ascii "_lld_ram_h_ \0"
 3284      5F72616D 
 3284      5F685F20 
 3284      00
 3285 1f96 04       		.byte	0x4
 3286 1f97 03       		.byte	0x3
 3287 1f98 0A       		.uleb128 0xa
 3288 1f99 04       		.uleb128 0x4
 3289 1f9a 01       		.byte	0x1
 3290 1f9b 02       		.uleb128 0x2
 3291 1f9c 5F6F735F 		.ascii "_os_task_common_h_ \0"
 3291      7461736B 
 3291      5F636F6D 
 3291      6D6F6E5F 
 3291      685F2000 
 3292              		.file 21 "E:/NeuOrga/Programmieren/c_cpp/github_os/input/src/os_base/../os_sim/../os_base/os_task_
 3293 1fb0 03       		.byte	0x3
 3294 1fb1 04       		.uleb128 0x4
 3295 1fb2 15       		.uleb128 0x15
 3296 1fb3 01       		.byte	0x1
 3297 1fb4 02       		.uleb128 0x2
 3298 1fb5 5F6F735F 		.ascii "_os_task_config_h_ \0"
 3298      7461736B 
 3298      5F636F6E 
 3298      6669675F 
 3298      685F2000 
 3299 1fc9 01       		.byte	0x1
 3300 1fca 05       		.uleb128 0x5
 3301 1fcb 53636865 		.ascii "SchedulerFrequency (1.0e3)\0"
 3301      64756C65 
 3301      72467265 
 3301      7175656E 
 3301      63792028 
 3302 1fe6 01       		.byte	0x1
 3303 1fe7 06       		.uleb128 0x6
 3304 1fe8 4D696E54 		.ascii "MinTimeSlice_s (1.0/SchedulerFrequency)\0"
 3304      696D6553 
 3304      6C696365 
 3304      5F732028 
 3304      312E302F 
 3305 2010 01       		.byte	0x1
 3306 2011 07       		.uleb128 0x7
 3307 2012 4D696E54 		.ascii "MinTimeSlice_us ((1.0/SchedulerFrequency)*1e6)\0"
 3307      696D6553 
 3307      6C696365 
 3307      5F757320 
GAS LISTING C:\Users\PRESID~1\AppData\Local\Temp\cc50m3V3.s 			page 97


 3307      2828312E 
 3308 2041 01       		.byte	0x1
 3309 2042 08       		.uleb128 0x8
 3310 2043 5461736B 		.ascii "Task_min_time (1e0)\0"
 3310      5F6D696E 
 3310      5F74696D 
 3310      65202831 
 3310      65302900 
 3311 2057 01       		.byte	0x1
 3312 2058 09       		.uleb128 0x9
 3313 2059 4E554D42 		.ascii "NUMBER_OF_TASKS 5\0"
 3313      45525F4F 
 3313      465F5441 
 3313      534B5320 
 3313      3500
 3314 206b 01       		.byte	0x1
 3315 206c 0A       		.uleb128 0xa
 3316 206d 4D41585F 		.ascii "MAX_RUN_QUEUE_SIZE (NUMBER_OF_TASKS)\0"
 3316      52554E5F 
 3316      51554555 
 3316      455F5349 
 3316      5A452028 
 3317 2092 01       		.byte	0x1
 3318 2093 0B       		.uleb128 0xb
 3319 2094 4D41585F 		.ascii "MAX_RUN_PQUEUE_SIZE MAX_RUN_QUEUE_SIZE\0"
 3319      52554E5F 
 3319      50515545 
 3319      55455F53 
 3319      495A4520 
 3320 20bb 01       		.byte	0x1
 3321 20bc 0D       		.uleb128 0xd
 3322 20bd 5441534B 		.ascii "TASK_STACK_SIZE 200\0"
 3322      5F535441 
 3322      434B5F53 
 3322      495A4520 
 3322      32303000 
 3323 20d1 01       		.byte	0x1
 3324 20d2 10       		.uleb128 0x10
 3325 20d3 4D535F50 		.ascii "MS_PER_SEC (1000)\0"
 3325      45525F53 
 3325      45432028 
 3325      31303030 
 3325      2900
 3326 20e5 01       		.byte	0x1
 3327 20e6 11       		.uleb128 0x11
 3328 20e7 5553455F 		.ascii "USE_STATIC_CREATED_TASKS True\0"
 3328      53544154 
 3328      49435F43 
 3328      52454154 
 3328      45445F54 
 3329 2105 04       		.byte	0x4
 3330              		.file 22 "E:/NeuOrga/Programmieren/c_cpp/github_os/input/src/os_base/../os_sim/../os_base/os_init_
 3331 2106 03       		.byte	0x3
 3332 2107 05       		.uleb128 0x5
 3333 2108 16       		.uleb128 0x16
 3334 2109 01       		.byte	0x1
 3335 210a 02       		.uleb128 0x2
GAS LISTING C:\Users\PRESID~1\AppData\Local\Temp\cc50m3V3.s 			page 98


 3336 210b 5F6F735F 		.ascii "_os_init_task_system_h_ \0"
 3336      696E6974 
 3336      5F746173 
 3336      6B5F7379 
 3336      7374656D 
 3337 2124 04       		.byte	0x4
 3338 2125 01       		.byte	0x1
 3339 2126 5D       		.uleb128 0x5d
 3340 2127 6F735F53 		.ascii "os_SaveTaskPtr(task_ptr,task_name) (TASK_PTR[(task_name)] = (task_ptr))\0"
 3340      61766554 
 3340      61736B50 
 3340      74722874 
 3340      61736B5F 
 3341 216f 01       		.byte	0x1
 3342 2170 5E       		.uleb128 0x5e
 3343 2171 6F735F47 		.ascii "os_GetTaskPtr(task_name) ((task_t*) TASK_PTR[(task_name)])\0"
 3343      65745461 
 3343      736B5074 
 3343      72287461 
 3343      736B5F6E 
 3344 21ac 04       		.byte	0x4
 3345 21ad 04       		.byte	0x4
 3346              		.file 23 "E:/NeuOrga/Programmieren/c_cpp/github_os/input/src/os_base/../os_user_code/led.h"
 3347 21ae 03       		.byte	0x3
 3348 21af 0E       		.uleb128 0xe
 3349 21b0 17       		.uleb128 0x17
 3350 21b1 01       		.byte	0x1
 3351 21b2 02       		.uleb128 0x2
 3352 21b3 5F4C4544 		.ascii "_LED_H_ \0"
 3352      5F485F20 
 3352      00
 3353 21bc 04       		.byte	0x4
 3354 21bd 04       		.byte	0x4
 3355              		.file 24 "E:/NeuOrga/Programmieren/c_cpp/github_os/input/src/os_base/os_common.h"
 3356 21be 03       		.byte	0x3
 3357 21bf 02       		.uleb128 0x2
 3358 21c0 18       		.uleb128 0x18
 3359 21c1 04       		.byte	0x4
 3360              		.file 25 "E:/NeuOrga/Programmieren/c_cpp/github_os/input/src/os_base/os_task_common.h"
 3361 21c2 03       		.byte	0x3
 3362 21c3 03       		.uleb128 0x3
 3363 21c4 19       		.uleb128 0x19
 3364 21c5 04       		.byte	0x4
 3365 21c6 03       		.byte	0x3
 3366 21c7 04       		.uleb128 0x4
 3367 21c8 05       		.uleb128 0x5
 3368 21c9 01       		.byte	0x1
 3369 21ca 02       		.uleb128 0x2
 3370 21cb 5F6F735F 		.ascii "_os_task_scheduler_h_ \0"
 3370      7461736B 
 3370      5F736368 
 3370      6564756C 
 3370      65725F68 
 3371 21e2 01       		.byte	0x1
 3372 21e3 07       		.uleb128 0x7
 3373 21e4 5461736B 		.ascii "Task_0_ptr 0\0"
 3373      5F305F70 
GAS LISTING C:\Users\PRESID~1\AppData\Local\Temp\cc50m3V3.s 			page 99


 3373      74722030 
 3373      00
 3374 21f1 01       		.byte	0x1
 3375 21f2 08       		.uleb128 0x8
 3376 21f3 5461736B 		.ascii "Task_1_ptr 1\0"
 3376      5F315F70 
 3376      74722031 
 3376      00
 3377 2200 01       		.byte	0x1
 3378 2201 09       		.uleb128 0x9
 3379 2202 5461736B 		.ascii "Task_2_ptr 2\0"
 3379      5F325F70 
 3379      74722032 
 3379      00
 3380 220f 01       		.byte	0x1
 3381 2210 0A       		.uleb128 0xa
 3382 2211 5461736B 		.ascii "Task_3_ptr 3\0"
 3382      5F335F70 
 3382      74722033 
 3382      00
 3383 221e 01       		.byte	0x1
 3384 221f 0C       		.uleb128 0xc
 3385 2220 4F535F53 		.ascii "OS_SaveTaskPtr(task_ptr,Task_n_ptr) \0"
 3385      61766554 
 3385      61736B50 
 3385      74722874 
 3385      61736B5F 
 3386 2245 04       		.byte	0x4
 3387 2246 03       		.byte	0x3
 3388 2247 05       		.uleb128 0x5
 3389 2248 06       		.uleb128 0x6
 3390 2249 01       		.byte	0x1
 3391 224a 02       		.uleb128 0x2
 3392 224b 5F6F735F 		.ascii "_os_task_queue_h_ \0"
 3392      7461736B 
 3392      5F717565 
 3392      75655F68 
 3392      5F2000
 3393 225e 01       		.byte	0x1
 3394 225f 06       		.uleb128 0x6
 3395 2260 46697273 		.ascii "First_task (0)\0"
 3395      745F7461 
 3395      736B2028 
 3395      302900
 3396 226f 01       		.byte	0x1
 3397 2270 07       		.uleb128 0x7
 3398 2271 4C617374 		.ascii "Last_task (MAX_RUN_QUEUE_SIZE-1)\0"
 3398      5F746173 
 3398      6B20284D 
 3398      41585F52 
 3398      554E5F51 
 3399 2292 01       		.byte	0x1
 3400 2293 09       		.uleb128 0x9
 3401 2294 466F725F 		.ascii "For_all_tasks_in_queue(var) for((var) = First_task; (var) <= Last_task; (var)++)\0"
 3401      616C6C5F 
 3401      7461736B 
 3401      735F696E 
GAS LISTING C:\Users\PRESID~1\AppData\Local\Temp\cc50m3V3.s 			page 100


 3401      5F717565 
 3402 22e5 04       		.byte	0x4
 3403              		.file 26 "E:/NeuOrga/Programmieren/c_cpp/github_os/input/src/os_base/os_stack.h"
 3404 22e6 03       		.byte	0x3
 3405 22e7 06       		.uleb128 0x6
 3406 22e8 1A       		.uleb128 0x1a
 3407 22e9 04       		.byte	0x4
 3408 22ea 01       		.byte	0x1
 3409 22eb 23       		.uleb128 0x23
 3410 22ec 53595354 		.ascii "SYSTICK_CTRL_STAT_REG ((uint32*)0xE000E010)\0"
 3410      49434B5F 
 3410      4354524C 
 3410      5F535441 
 3410      545F5245 
 3411 2318 01       		.byte	0x1
 3412 2319 24       		.uleb128 0x24
 3413 231a 53595354 		.ascii "SYSTICK_RLD_VAL_REG ((uint32*)0xE000E014)\0"
 3413      49434B5F 
 3413      524C445F 
 3413      56414C5F 
 3413      52454720 
 3414 2344 01       		.byte	0x1
 3415 2345 25       		.uleb128 0x25
 3416 2346 53595354 		.ascii "SYSTICK_CURRENT_VAL_REG ((uint32*)0xE000E018)\0"
 3416      49434B5F 
 3416      43555252 
 3416      454E545F 
 3416      56414C5F 
 3417 2374 01       		.byte	0x1
 3418 2375 26       		.uleb128 0x26
 3419 2376 53595354 		.ascii "SYSTICK_STAT_REG_TICKINT ((uint32)0x00000002)\0"
 3419      49434B5F 
 3419      53544154 
 3419      5F524547 
 3419      5F544943 
 3420 23a4 01       		.byte	0x1
 3421 23a5 27       		.uleb128 0x27
 3422 23a6 53595354 		.ascii "SYSTICK_STAT_REG_ENABLE ((uint32)0x00000001)\0"
 3422      49434B5F 
 3422      53544154 
 3422      5F524547 
 3422      5F454E41 
 3423 23d3 01       		.byte	0x1
 3424 23d4 28       		.uleb128 0x28
 3425 23d5 4C4F4F50 		.ascii "LOOPTIME_IN_USEC ((uint32)10000u)\0"
 3425      54494D45 
 3425      5F494E5F 
 3425      55534543 
 3425      20282875 
 3426 23f7 04       		.byte	0x4
 3427 23f8 00       		.byte	0
 3428              		.section	.debug_line,"dr"
 3429              	Ldebug_line0:
 3430 0000 83040000 		.section	.debug_str,"dr"
 3430      02002203 
 3430      00000101 
 3430      FB0E0D00 
GAS LISTING C:\Users\PRESID~1\AppData\Local\Temp\cc50m3V3.s 			page 101


 3430      01010101 
 3431              	LASF1:
 3432 0000 7461736B 		.ascii "task\0"
 3432      00
 3433              	LASF2:
 3434 0005 7461736B 		.ascii "task_ptr\0"
 3434      5F707472 
 3434      00
 3435              	LASF0:
 3436 000e 6578655F 		.ascii "exe_time\0"
 3436      74696D65 
 3436      00
 3437              		.ident	"GCC: (GNU) 4.9.3"
GAS LISTING C:\Users\PRESID~1\AppData\Local\Temp\cc50m3V3.s 			page 102


DEFINED SYMBOLS
                            *ABS*:00000000 os_task_scheduler.c
C:\Users\PRESID~1\AppData\Local\Temp\cc50m3V3.s:4      .bss:00000000 _TASK_STACK
C:\Users\PRESID~1\AppData\Local\Temp\cc50m3V3.s:5      .bss:000003e8 _LAST_CURRENT_TIME
C:\Users\PRESID~1\AppData\Local\Temp\cc50m3V3.s:8      .text:00000000 _OS_ACTIVATE_DISPATCHER
C:\Users\PRESID~1\AppData\Local\Temp\cc50m3V3.s:27     .text:00000005 _OS_SLEEPTASK
C:\Users\PRESID~1\AppData\Local\Temp\cc50m3V3.s:53     .text:0000001f _task_state_request
C:\Users\PRESID~1\AppData\Local\Temp\cc50m3V3.s:199    .text:00000116 _OS_ActivateTask
C:\Users\PRESID~1\AppData\Local\Temp\cc50m3V3.s:297    .text:000001d4 _OS_STARTTASK
C:\Users\PRESID~1\AppData\Local\Temp\cc50m3V3.s:405    .text:000002cb _OS_TERMINATE_TASK
C:\Users\PRESID~1\AppData\Local\Temp\cc50m3V3.s:487    .text:00000385 _OS_TASK_DISPATCHER
C:\Users\PRESID~1\AppData\Local\Temp\cc50m3V3.s:525    .text:000003c0 _TASK_0
C:\Users\PRESID~1\AppData\Local\Temp\cc50m3V3.s:542    .text:000003c5 _TASK_1
C:\Users\PRESID~1\AppData\Local\Temp\cc50m3V3.s:565    .text:000003e0 _TASK_2
C:\Users\PRESID~1\AppData\Local\Temp\cc50m3V3.s:582    .text:000003e5 _TASK_3
C:\Users\PRESID~1\AppData\Local\Temp\cc50m3V3.s:600    .text:000003ea _OS_INIT_TASKS
C:\Users\PRESID~1\AppData\Local\Temp\cc50m3V3.s:917    .bss:00000420 _task_0.1359
C:\Users\PRESID~1\AppData\Local\Temp\cc50m3V3.s:912    .bss:000003ec _TASK_GROUP_1.1363
C:\Users\PRESID~1\AppData\Local\Temp\cc50m3V3.s:918    .bss:000004a0 _task_1.1360
C:\Users\PRESID~1\AppData\Local\Temp\cc50m3V3.s:919    .bss:00000520 _task_2.1361
C:\Users\PRESID~1\AppData\Local\Temp\cc50m3V3.s:913    .bss:000003f4 _TASK_GROUP_2.1364
C:\Users\PRESID~1\AppData\Local\Temp\cc50m3V3.s:920    .bss:000005a0 _task_3.1362
C:\Users\PRESID~1\AppData\Local\Temp\cc50m3V3.s:914    .bss:000003fc _TASK_GROUP_3.1365
C:\Users\PRESID~1\AppData\Local\Temp\cc50m3V3.s:681    .text:0000053b _OS_TaskScheduler
C:\Users\PRESID~1\AppData\Local\Temp\cc50m3V3.s:921    .bss:00000604 _link_list_member.1375
C:\Users\PRESID~1\AppData\Local\Temp\cc50m3V3.s:922    .bss:00000608 _task.1372
C:\Users\PRESID~1\AppData\Local\Temp\cc50m3V3.s:922    .bss:0000060c _Winner_prio.1373
C:\Users\PRESID~1\AppData\Local\Temp\cc50m3V3.s:893    .text:00000749 _ISR_TASK_DISPATCH_C0
C:\Users\PRESID~1\AppData\Local\Temp\cc50m3V3.s:915    .bss:00000404 _TASK_GROUP_4.1366
C:\Users\PRESID~1\AppData\Local\Temp\cc50m3V3.s:916    .bss:0000040c _TASK_GROUP_5.1367

UNDEFINED SYMBOLS
_OS_STACK
_Get_current_time
_OS_SET_SW_BUG
_AddToTaskQueue
_AddToLinkList
_UpdateLinkList
_AddToIdleTaskQueue
_GET_CORE_ID
_OS_TASK_SAVE_SYSTEM_STACK
_OS_TASK_RESTORETASK_ENVIRONMENT
_SET_RUNNING_TASK
_LLF_CHANGE_TO_USER_MODE
_OS_TASK_SAVETASK_ENVIRONMENT
_OS_TASK_RESTORE_SYSTEM_STACK
_GetRunningTask
_OS_INIT_TASK_QUEUE
_OS_INIT_TASK
_GetFromLinkList
_GetFromTaskQueue
_GetIdleTask
