GAS LISTING C:\Users\PRESID~1\AppData\Local\Temp\ccljw3FC.s 			page 1


   1              		.file	"os_task_scheduler.c"
   2              		.text
   3              	Ltext0:
   4              		.globl	_OS_ActivateDispatcher
   6              	_OS_ActivateDispatcher:
   7              	LFB0:
   8              		.file 1 "E:/NeuOrga/Programmieren/c_cpp/github_os/input/src/os_base/os_task_scheduler.c"
   1:E:/NeuOrga/Programmieren/c_cpp/github_os/input/src/os_base\os_task_scheduler.c **** #include "os_firstinc.h"
   2:E:/NeuOrga/Programmieren/c_cpp/github_os/input/src/os_base\os_task_scheduler.c **** #include "os_common.h"
   3:E:/NeuOrga/Programmieren/c_cpp/github_os/input/src/os_base\os_task_scheduler.c **** #include "os_task_common.h"
   4:E:/NeuOrga/Programmieren/c_cpp/github_os/input/src/os_base\os_task_scheduler.c **** #include "os_task_scheduler.h"
   5:E:/NeuOrga/Programmieren/c_cpp/github_os/input/src/os_base\os_task_scheduler.c **** #include "os_task_queue.h"
   6:E:/NeuOrga/Programmieren/c_cpp/github_os/input/src/os_base\os_task_scheduler.c **** #include "os_stack.h"
   7:E:/NeuOrga/Programmieren/c_cpp/github_os/input/src/os_base\os_task_scheduler.c **** 
   8:E:/NeuOrga/Programmieren/c_cpp/github_os/input/src/os_base\os_task_scheduler.c **** /*
   9:E:/NeuOrga/Programmieren/c_cpp/github_os/input/src/os_base\os_task_scheduler.c **** 1. running     --(terminate)--> suspend : delete scheduling element
  10:E:/NeuOrga/Programmieren/c_cpp/github_os/input/src/os_base\os_task_scheduler.c **** 2. running     --(preempt  )--> ready
  11:E:/NeuOrga/Programmieren/c_cpp/github_os/input/src/os_base\os_task_scheduler.c **** 3. suspend     --(activate )--> ready   : create scheduling element
  12:E:/NeuOrga/Programmieren/c_cpp/github_os/input/src/os_base\os_task_scheduler.c **** 4. ready       --(start    )--> running : use scheduling element
  13:E:/NeuOrga/Programmieren/c_cpp/github_os/input/src/os_base\os_task_scheduler.c **** 5. unspecified --(create   )--> suspend
  14:E:/NeuOrga/Programmieren/c_cpp/github_os/input/src/os_base\os_task_scheduler.c **** */
  15:E:/NeuOrga/Programmieren/c_cpp/github_os/input/src/os_base\os_task_scheduler.c **** 
  16:E:/NeuOrga/Programmieren/c_cpp/github_os/input/src/os_base\os_task_scheduler.c **** 
  17:E:/NeuOrga/Programmieren/c_cpp/github_os/input/src/os_base\os_task_scheduler.c **** Local void TASK_0(void* task_ptr);
  18:E:/NeuOrga/Programmieren/c_cpp/github_os/input/src/os_base\os_task_scheduler.c **** Local void TASK_1(void* task_ptr);
  19:E:/NeuOrga/Programmieren/c_cpp/github_os/input/src/os_base\os_task_scheduler.c **** Local void TASK_2(void* task_ptr);
  20:E:/NeuOrga/Programmieren/c_cpp/github_os/input/src/os_base\os_task_scheduler.c **** Local task_t** OS_TaskScheduler(void);
  21:E:/NeuOrga/Programmieren/c_cpp/github_os/input/src/os_base\os_task_scheduler.c **** Local void OS_PreemptTask(task_t* task, scheduling_t* scheduling_task);
  22:E:/NeuOrga/Programmieren/c_cpp/github_os/input/src/os_base\os_task_scheduler.c **** void OS_ActivateDispatcher(void)
  23:E:/NeuOrga/Programmieren/c_cpp/github_os/input/src/os_base\os_task_scheduler.c **** {
   9              		.loc 1 23 0
  10              		.cfi_startproc
  11 0000 55       		pushl	%ebp
  12              		.cfi_def_cfa_offset 8
  13              		.cfi_offset 5, -8
  14 0001 89E5     		movl	%esp, %ebp
  15              		.cfi_def_cfa_register 5
  24:E:/NeuOrga/Programmieren/c_cpp/github_os/input/src/os_base\os_task_scheduler.c **** 
  25:E:/NeuOrga/Programmieren/c_cpp/github_os/input/src/os_base\os_task_scheduler.c ****    /* configure the TCMP */
  26:E:/NeuOrga/Programmieren/c_cpp/github_os/input/src/os_base\os_task_scheduler.c ****    /*
  27:E:/NeuOrga/Programmieren/c_cpp/github_os/input/src/os_base\os_task_scheduler.c ****    Dispatcher function for Core 0:
  28:E:/NeuOrga/Programmieren/c_cpp/github_os/input/src/os_base\os_task_scheduler.c ****    Write Adresse into the config register (interrupts are requested by SWI/SVC???)
  29:E:/NeuOrga/Programmieren/c_cpp/github_os/input/src/os_base\os_task_scheduler.c ****    */
  30:E:/NeuOrga/Programmieren/c_cpp/github_os/input/src/os_base\os_task_scheduler.c ****    #define SYSTICK_CTRL_STAT_REG ((uint32*)0xE000E010)
  31:E:/NeuOrga/Programmieren/c_cpp/github_os/input/src/os_base\os_task_scheduler.c ****    #define SYSTICK_RLD_VAL_REG   ((uint32*)0xE000E014)
  32:E:/NeuOrga/Programmieren/c_cpp/github_os/input/src/os_base\os_task_scheduler.c ****    #define SYSTICK_CURRENT_VAL_REG ((uint32*)0xE000E018)
  33:E:/NeuOrga/Programmieren/c_cpp/github_os/input/src/os_base\os_task_scheduler.c ****    #define SYSTICK_STAT_REG_TICKINT ((uint32)0x00000002)
  34:E:/NeuOrga/Programmieren/c_cpp/github_os/input/src/os_base\os_task_scheduler.c ****    #define SYSTICK_STAT_REG_ENABLE  ((uint32)0x00000001)
  35:E:/NeuOrga/Programmieren/c_cpp/github_os/input/src/os_base\os_task_scheduler.c ****    #define LOOPTIME_IN_USEC ((uint32)10000u)
  36:E:/NeuOrga/Programmieren/c_cpp/github_os/input/src/os_base\os_task_scheduler.c ****    /*
  37:E:/NeuOrga/Programmieren/c_cpp/github_os/input/src/os_base\os_task_scheduler.c ****    CLOCK = HCLK / 8
  38:E:/NeuOrga/Programmieren/c_cpp/github_os/input/src/os_base\os_task_scheduler.c ****    vermutlich: CLOCK = 150Mhz / 8 = 18,75 Mhz
  39:E:/NeuOrga/Programmieren/c_cpp/github_os/input/src/os_base\os_task_scheduler.c ****    */
  40:E:/NeuOrga/Programmieren/c_cpp/github_os/input/src/os_base\os_task_scheduler.c ****    #if(CFG_PROCESSOR == cMCU_CORTEX_M4)
  41:E:/NeuOrga/Programmieren/c_cpp/github_os/input/src/os_base\os_task_scheduler.c ****    *SYSTICK_RLD_VAL_REG = (*SYSTICK_RLD_VAL_REG & 0xFF000000 )| (((uint32)MCU_CLOCK_IN_HZ / ((uint3
  42:E:/NeuOrga/Programmieren/c_cpp/github_os/input/src/os_base\os_task_scheduler.c ****    *SYSTICK_CURRENT_VAL_REG = ((uint32)0x00000000);
  43:E:/NeuOrga/Programmieren/c_cpp/github_os/input/src/os_base\os_task_scheduler.c ****    *SYSTICK_CTRL_STAT_REG = *SYSTICK_CTRL_STAT_REG | SYSTICK_STAT_REG_TICKINT | SYSTICK_STAT_REG_EN
GAS LISTING C:\Users\PRESID~1\AppData\Local\Temp\ccljw3FC.s 			page 2


  44:E:/NeuOrga/Programmieren/c_cpp/github_os/input/src/os_base\os_task_scheduler.c ****    #endif
  45:E:/NeuOrga/Programmieren/c_cpp/github_os/input/src/os_base\os_task_scheduler.c **** }
  16              		.loc 1 45 0
  17 0003 5D       		popl	%ebp
  18              		.cfi_restore 5
  19              		.cfi_def_cfa 4, 4
  20 0004 C3       		ret
  21              		.cfi_endproc
  22              	LFE0:
  23              		.globl	_OS_SleepTask
  25              	_OS_SleepTask:
  26              	LFB1:
  46:E:/NeuOrga/Programmieren/c_cpp/github_os/input/src/os_base\os_task_scheduler.c **** 
  47:E:/NeuOrga/Programmieren/c_cpp/github_os/input/src/os_base\os_task_scheduler.c **** 
  48:E:/NeuOrga/Programmieren/c_cpp/github_os/input/src/os_base\os_task_scheduler.c **** void OS_SleepTask(task_t* task, timebig_t usec, scheduling_t* scheduling_task_ptr)
  49:E:/NeuOrga/Programmieren/c_cpp/github_os/input/src/os_base\os_task_scheduler.c **** {
  27              		.loc 1 49 0
  28              		.cfi_startproc
  29 0005 55       		pushl	%ebp
  30              		.cfi_def_cfa_offset 8
  31              		.cfi_offset 5, -8
  32 0006 89E5     		movl	%esp, %ebp
  33              		.cfi_def_cfa_register 5
  34 0008 83EC28   		subl	$40, %esp
  50:E:/NeuOrga/Programmieren/c_cpp/github_os/input/src/os_base\os_task_scheduler.c ****    timebig_t time;
  51:E:/NeuOrga/Programmieren/c_cpp/github_os/input/src/os_base\os_task_scheduler.c ****    OS_GetCurrentTime(&time);   
  35              		.loc 1 51 0
  36 000b 8D45E8   		leal	-24(%ebp), %eax
  37 000e 890424   		movl	%eax, (%esp)
  38 0011 E8000000 		call	_OS_GetCurrentTime
  38      00
  52:E:/NeuOrga/Programmieren/c_cpp/github_os/input/src/os_base\os_task_scheduler.c ****    /* sleep Task shall do a preempt task with a defined minimum wait time, the actual wait time is 
  53:E:/NeuOrga/Programmieren/c_cpp/github_os/input/src/os_base\os_task_scheduler.c ****    IntAdd(&task->WaitActUntil, &time, &usec);
  39              		.loc 1 53 0
  40 0016 8B4508   		movl	8(%ebp), %eax
  41 0019 8D5006   		leal	6(%eax), %edx
  42 001c 8D450C   		leal	12(%ebp), %eax
  43 001f 89442408 		movl	%eax, 8(%esp)
  44 0023 8D45E8   		leal	-24(%ebp), %eax
  45 0026 89442404 		movl	%eax, 4(%esp)
  46 002a 891424   		movl	%edx, (%esp)
  47 002d E8000000 		call	_IntAdd
  47      00
  54:E:/NeuOrga/Programmieren/c_cpp/github_os/input/src/os_base\os_task_scheduler.c ****    OS_PreemptTask(task,scheduling_task_ptr);
  48              		.loc 1 54 0
  49 0032 8B451C   		movl	28(%ebp), %eax
  50 0035 89442404 		movl	%eax, 4(%esp)
  51 0039 8B4508   		movl	8(%ebp), %eax
  52 003c 890424   		movl	%eax, (%esp)
  53 003f E8B10100 		call	_OS_PreemptTask
  53      00
  55:E:/NeuOrga/Programmieren/c_cpp/github_os/input/src/os_base\os_task_scheduler.c **** }
  54              		.loc 1 55 0
  55 0044 C9       		leave
  56              		.cfi_restore 5
  57              		.cfi_def_cfa 4, 4
  58 0045 C3       		ret
GAS LISTING C:\Users\PRESID~1\AppData\Local\Temp\ccljw3FC.s 			page 3


  59              		.cfi_endproc
  60              	LFE1:
  61              		.globl	_task_state_request
  63              	_task_state_request:
  64              	LFB2:
  56:E:/NeuOrga/Programmieren/c_cpp/github_os/input/src/os_base\os_task_scheduler.c **** 
  57:E:/NeuOrga/Programmieren/c_cpp/github_os/input/src/os_base\os_task_scheduler.c **** unsigned_char_t task_state_request(void* temp_task, task_state_t requested_state)
  58:E:/NeuOrga/Programmieren/c_cpp/github_os/input/src/os_base\os_task_scheduler.c **** {
  65              		.loc 1 58 0
  66              		.cfi_startproc
  67 0046 55       		pushl	%ebp
  68              		.cfi_def_cfa_offset 8
  69              		.cfi_offset 5, -8
  70 0047 89E5     		movl	%esp, %ebp
  71              		.cfi_def_cfa_register 5
  72 0049 83EC28   		subl	$40, %esp
  59:E:/NeuOrga/Programmieren/c_cpp/github_os/input/src/os_base\os_task_scheduler.c ****    unsigned_char_t RequestState = Rejected;
  73              		.loc 1 59 0
  74 004c C645F700 		movb	$0, -9(%ebp)
  60:E:/NeuOrga/Programmieren/c_cpp/github_os/input/src/os_base\os_task_scheduler.c **** 
  61:E:/NeuOrga/Programmieren/c_cpp/github_os/input/src/os_base\os_task_scheduler.c ****    task_t* task = (task_t*) temp_task;
  75              		.loc 1 61 0
  76 0050 8B4508   		movl	8(%ebp), %eax
  77 0053 8945F0   		movl	%eax, -16(%ebp)
  62:E:/NeuOrga/Programmieren/c_cpp/github_os/input/src/os_base\os_task_scheduler.c **** 
  63:E:/NeuOrga/Programmieren/c_cpp/github_os/input/src/os_base\os_task_scheduler.c ****    switch(requested_state)
  78              		.loc 1 63 0
  79 0056 8B450C   		movl	12(%ebp), %eax
  80 0059 83F801   		cmpl	$1, %eax
  81 005c 743E     		je	L5
  82 005e 83F801   		cmpl	$1, %eax
  83 0061 7213     		jb	L6
  84 0063 83F802   		cmpl	$2, %eax
  85 0066 0F849600 		je	L7
  85      0000
  86 006c 83F803   		cmpl	$3, %eax
  87 006f 7473     		je	L8
  64:E:/NeuOrga/Programmieren/c_cpp/github_os/input/src/os_base\os_task_scheduler.c ****    {
  65:E:/NeuOrga/Programmieren/c_cpp/github_os/input/src/os_base\os_task_scheduler.c ****    case Task_unspecified:/* 1. create new task */
  66:E:/NeuOrga/Programmieren/c_cpp/github_os/input/src/os_base\os_task_scheduler.c ****    {
  67:E:/NeuOrga/Programmieren/c_cpp/github_os/input/src/os_base\os_task_scheduler.c ****       switch(task->task_state)
  68:E:/NeuOrga/Programmieren/c_cpp/github_os/input/src/os_base\os_task_scheduler.c ****       {
  69:E:/NeuOrga/Programmieren/c_cpp/github_os/input/src/os_base\os_task_scheduler.c ****       case Task_ready:
  70:E:/NeuOrga/Programmieren/c_cpp/github_os/input/src/os_base\os_task_scheduler.c ****       case Task_running:
  71:E:/NeuOrga/Programmieren/c_cpp/github_os/input/src/os_base\os_task_scheduler.c ****       case Task_suspended:
  72:E:/NeuOrga/Programmieren/c_cpp/github_os/input/src/os_base\os_task_scheduler.c ****       {
  73:E:/NeuOrga/Programmieren/c_cpp/github_os/input/src/os_base\os_task_scheduler.c ****          RequestState = Rejected;
  74:E:/NeuOrga/Programmieren/c_cpp/github_os/input/src/os_base\os_task_scheduler.c ****          break;
  75:E:/NeuOrga/Programmieren/c_cpp/github_os/input/src/os_base\os_task_scheduler.c ****       }
  76:E:/NeuOrga/Programmieren/c_cpp/github_os/input/src/os_base\os_task_scheduler.c ****       default:
  77:E:/NeuOrga/Programmieren/c_cpp/github_os/input/src/os_base\os_task_scheduler.c ****       {
  78:E:/NeuOrga/Programmieren/c_cpp/github_os/input/src/os_base\os_task_scheduler.c ****          task->task_state = Task_unspecified;
  79:E:/NeuOrga/Programmieren/c_cpp/github_os/input/src/os_base\os_task_scheduler.c ****          RequestState = Accepted;
  80:E:/NeuOrga/Programmieren/c_cpp/github_os/input/src/os_base\os_task_scheduler.c ****          break;
  81:E:/NeuOrga/Programmieren/c_cpp/github_os/input/src/os_base\os_task_scheduler.c ****       }
  82:E:/NeuOrga/Programmieren/c_cpp/github_os/input/src/os_base\os_task_scheduler.c ****       }
  83:E:/NeuOrga/Programmieren/c_cpp/github_os/input/src/os_base\os_task_scheduler.c ****       break;
GAS LISTING C:\Users\PRESID~1\AppData\Local\Temp\ccljw3FC.s 			page 4


  84:E:/NeuOrga/Programmieren/c_cpp/github_os/input/src/os_base\os_task_scheduler.c ****    }
  85:E:/NeuOrga/Programmieren/c_cpp/github_os/input/src/os_base\os_task_scheduler.c ****    case Task_suspended:
  86:E:/NeuOrga/Programmieren/c_cpp/github_os/input/src/os_base\os_task_scheduler.c ****    {
  87:E:/NeuOrga/Programmieren/c_cpp/github_os/input/src/os_base\os_task_scheduler.c ****       switch(task->task_state)
  88:E:/NeuOrga/Programmieren/c_cpp/github_os/input/src/os_base\os_task_scheduler.c ****       {
  89:E:/NeuOrga/Programmieren/c_cpp/github_os/input/src/os_base\os_task_scheduler.c ****       case Task_unspecified: /* 2. create task transition */
  90:E:/NeuOrga/Programmieren/c_cpp/github_os/input/src/os_base\os_task_scheduler.c ****       {
  91:E:/NeuOrga/Programmieren/c_cpp/github_os/input/src/os_base\os_task_scheduler.c ****          /* no checks */
  92:E:/NeuOrga/Programmieren/c_cpp/github_os/input/src/os_base\os_task_scheduler.c ****          task->task_state = Task_suspended;
  93:E:/NeuOrga/Programmieren/c_cpp/github_os/input/src/os_base\os_task_scheduler.c ****          RequestState = Accepted;
  94:E:/NeuOrga/Programmieren/c_cpp/github_os/input/src/os_base\os_task_scheduler.c ****          break;
  95:E:/NeuOrga/Programmieren/c_cpp/github_os/input/src/os_base\os_task_scheduler.c ****       }
  96:E:/NeuOrga/Programmieren/c_cpp/github_os/input/src/os_base\os_task_scheduler.c ****       case Task_running: /* 3. terminate task */
  97:E:/NeuOrga/Programmieren/c_cpp/github_os/input/src/os_base\os_task_scheduler.c ****       {
  98:E:/NeuOrga/Programmieren/c_cpp/github_os/input/src/os_base\os_task_scheduler.c ****          task->task_state = Task_suspended;
  99:E:/NeuOrga/Programmieren/c_cpp/github_os/input/src/os_base\os_task_scheduler.c ****          RequestState = Accepted;
 100:E:/NeuOrga/Programmieren/c_cpp/github_os/input/src/os_base\os_task_scheduler.c ****          break;
 101:E:/NeuOrga/Programmieren/c_cpp/github_os/input/src/os_base\os_task_scheduler.c ****       }
 102:E:/NeuOrga/Programmieren/c_cpp/github_os/input/src/os_base\os_task_scheduler.c ****       default:
 103:E:/NeuOrga/Programmieren/c_cpp/github_os/input/src/os_base\os_task_scheduler.c ****       {
 104:E:/NeuOrga/Programmieren/c_cpp/github_os/input/src/os_base\os_task_scheduler.c ****          /* no change in states allowed */
 105:E:/NeuOrga/Programmieren/c_cpp/github_os/input/src/os_base\os_task_scheduler.c ****          OS_SetSwBug(os_bug_taskstate_request_denied, Func_TaskStateRequest);
 106:E:/NeuOrga/Programmieren/c_cpp/github_os/input/src/os_base\os_task_scheduler.c ****          break;
 107:E:/NeuOrga/Programmieren/c_cpp/github_os/input/src/os_base\os_task_scheduler.c ****       }
 108:E:/NeuOrga/Programmieren/c_cpp/github_os/input/src/os_base\os_task_scheduler.c ****       }
 109:E:/NeuOrga/Programmieren/c_cpp/github_os/input/src/os_base\os_task_scheduler.c ****       break;
 110:E:/NeuOrga/Programmieren/c_cpp/github_os/input/src/os_base\os_task_scheduler.c ****    }
 111:E:/NeuOrga/Programmieren/c_cpp/github_os/input/src/os_base\os_task_scheduler.c ****    case Task_running:
 112:E:/NeuOrga/Programmieren/c_cpp/github_os/input/src/os_base\os_task_scheduler.c ****    {
 113:E:/NeuOrga/Programmieren/c_cpp/github_os/input/src/os_base\os_task_scheduler.c ****       switch(task->task_state)
 114:E:/NeuOrga/Programmieren/c_cpp/github_os/input/src/os_base\os_task_scheduler.c ****       {
 115:E:/NeuOrga/Programmieren/c_cpp/github_os/input/src/os_base\os_task_scheduler.c ****       case Task_ready: /* 4. start task transition */
 116:E:/NeuOrga/Programmieren/c_cpp/github_os/input/src/os_base\os_task_scheduler.c ****       {
 117:E:/NeuOrga/Programmieren/c_cpp/github_os/input/src/os_base\os_task_scheduler.c ****          task->task_state = Task_running;
 118:E:/NeuOrga/Programmieren/c_cpp/github_os/input/src/os_base\os_task_scheduler.c ****          RequestState   = Accepted;
 119:E:/NeuOrga/Programmieren/c_cpp/github_os/input/src/os_base\os_task_scheduler.c ****          break;
 120:E:/NeuOrga/Programmieren/c_cpp/github_os/input/src/os_base\os_task_scheduler.c ****       }
 121:E:/NeuOrga/Programmieren/c_cpp/github_os/input/src/os_base\os_task_scheduler.c ****       default:
 122:E:/NeuOrga/Programmieren/c_cpp/github_os/input/src/os_base\os_task_scheduler.c ****       {
 123:E:/NeuOrga/Programmieren/c_cpp/github_os/input/src/os_base\os_task_scheduler.c ****          /* no change in states allowed */
 124:E:/NeuOrga/Programmieren/c_cpp/github_os/input/src/os_base\os_task_scheduler.c ****          break;
 125:E:/NeuOrga/Programmieren/c_cpp/github_os/input/src/os_base\os_task_scheduler.c ****       }
 126:E:/NeuOrga/Programmieren/c_cpp/github_os/input/src/os_base\os_task_scheduler.c ****       }
 127:E:/NeuOrga/Programmieren/c_cpp/github_os/input/src/os_base\os_task_scheduler.c ****       break;
 128:E:/NeuOrga/Programmieren/c_cpp/github_os/input/src/os_base\os_task_scheduler.c **** 
 129:E:/NeuOrga/Programmieren/c_cpp/github_os/input/src/os_base\os_task_scheduler.c ****    }
 130:E:/NeuOrga/Programmieren/c_cpp/github_os/input/src/os_base\os_task_scheduler.c ****    case Task_ready:
 131:E:/NeuOrga/Programmieren/c_cpp/github_os/input/src/os_base\os_task_scheduler.c ****    {
 132:E:/NeuOrga/Programmieren/c_cpp/github_os/input/src/os_base\os_task_scheduler.c ****       switch(task->task_state)
 133:E:/NeuOrga/Programmieren/c_cpp/github_os/input/src/os_base\os_task_scheduler.c ****       {
 134:E:/NeuOrga/Programmieren/c_cpp/github_os/input/src/os_base\os_task_scheduler.c ****       case Task_suspended: /* activate task transition */
 135:E:/NeuOrga/Programmieren/c_cpp/github_os/input/src/os_base\os_task_scheduler.c ****       {
 136:E:/NeuOrga/Programmieren/c_cpp/github_os/input/src/os_base\os_task_scheduler.c ****          task->task_state = Task_ready;
 137:E:/NeuOrga/Programmieren/c_cpp/github_os/input/src/os_base\os_task_scheduler.c ****          RequestState   = Accepted;
 138:E:/NeuOrga/Programmieren/c_cpp/github_os/input/src/os_base\os_task_scheduler.c ****          break;
 139:E:/NeuOrga/Programmieren/c_cpp/github_os/input/src/os_base\os_task_scheduler.c ****       }
 140:E:/NeuOrga/Programmieren/c_cpp/github_os/input/src/os_base\os_task_scheduler.c ****       case Task_running: /* preempt task transition */
GAS LISTING C:\Users\PRESID~1\AppData\Local\Temp\ccljw3FC.s 			page 5


 141:E:/NeuOrga/Programmieren/c_cpp/github_os/input/src/os_base\os_task_scheduler.c ****       {
 142:E:/NeuOrga/Programmieren/c_cpp/github_os/input/src/os_base\os_task_scheduler.c ****          task->task_state = Task_ready;
 143:E:/NeuOrga/Programmieren/c_cpp/github_os/input/src/os_base\os_task_scheduler.c ****          RequestState   = Accepted;
 144:E:/NeuOrga/Programmieren/c_cpp/github_os/input/src/os_base\os_task_scheduler.c ****          break;
 145:E:/NeuOrga/Programmieren/c_cpp/github_os/input/src/os_base\os_task_scheduler.c ****       }
 146:E:/NeuOrga/Programmieren/c_cpp/github_os/input/src/os_base\os_task_scheduler.c ****       case Task_unspecified:
 147:E:/NeuOrga/Programmieren/c_cpp/github_os/input/src/os_base\os_task_scheduler.c ****       {
 148:E:/NeuOrga/Programmieren/c_cpp/github_os/input/src/os_base\os_task_scheduler.c ****           task->task_state = Task_ready;
 149:E:/NeuOrga/Programmieren/c_cpp/github_os/input/src/os_base\os_task_scheduler.c ****           RequestState = Accepted;
 150:E:/NeuOrga/Programmieren/c_cpp/github_os/input/src/os_base\os_task_scheduler.c ****           break;
 151:E:/NeuOrga/Programmieren/c_cpp/github_os/input/src/os_base\os_task_scheduler.c ****       }
 152:E:/NeuOrga/Programmieren/c_cpp/github_os/input/src/os_base\os_task_scheduler.c ****       default:
 153:E:/NeuOrga/Programmieren/c_cpp/github_os/input/src/os_base\os_task_scheduler.c ****       {
 154:E:/NeuOrga/Programmieren/c_cpp/github_os/input/src/os_base\os_task_scheduler.c ****          /* no change in states allowed */
 155:E:/NeuOrga/Programmieren/c_cpp/github_os/input/src/os_base\os_task_scheduler.c ****          break;
 156:E:/NeuOrga/Programmieren/c_cpp/github_os/input/src/os_base\os_task_scheduler.c ****       }
 157:E:/NeuOrga/Programmieren/c_cpp/github_os/input/src/os_base\os_task_scheduler.c ****       }
 158:E:/NeuOrga/Programmieren/c_cpp/github_os/input/src/os_base\os_task_scheduler.c ****       break;
 159:E:/NeuOrga/Programmieren/c_cpp/github_os/input/src/os_base\os_task_scheduler.c ****    }
 160:E:/NeuOrga/Programmieren/c_cpp/github_os/input/src/os_base\os_task_scheduler.c ****    default:
 161:E:/NeuOrga/Programmieren/c_cpp/github_os/input/src/os_base\os_task_scheduler.c ****    {
 162:E:/NeuOrga/Programmieren/c_cpp/github_os/input/src/os_base\os_task_scheduler.c ****       break;
  88              		.loc 1 162 0
  89 0071 E9D30000 		jmp	L12
  89      00
  90              	L6:
  67:E:/NeuOrga/Programmieren/c_cpp/github_os/input/src/os_base\os_task_scheduler.c ****       {
  91              		.loc 1 67 0
  92 0076 8B45F0   		movl	-16(%ebp), %eax
  93 0079 8B407C   		movl	124(%eax), %eax
  94 007c 48       		decl	%eax
  95 007d 83F802   		cmpl	$2, %eax
  96 0080 7706     		ja	L9
  73:E:/NeuOrga/Programmieren/c_cpp/github_os/input/src/os_base\os_task_scheduler.c ****          break;
  97              		.loc 1 73 0
  98 0082 C645F700 		movb	$0, -9(%ebp)
  74:E:/NeuOrga/Programmieren/c_cpp/github_os/input/src/os_base\os_task_scheduler.c ****       }
  99              		.loc 1 74 0
 100 0086 EB0F     		jmp	L11
 101              	L9:
  78:E:/NeuOrga/Programmieren/c_cpp/github_os/input/src/os_base\os_task_scheduler.c ****          RequestState = Accepted;
 102              		.loc 1 78 0
 103 0088 8B45F0   		movl	-16(%ebp), %eax
 104 008b C7407C00 		movl	$0, 124(%eax)
 104      000000
  79:E:/NeuOrga/Programmieren/c_cpp/github_os/input/src/os_base\os_task_scheduler.c ****          break;
 105              		.loc 1 79 0
 106 0092 C645F701 		movb	$1, -9(%ebp)
  80:E:/NeuOrga/Programmieren/c_cpp/github_os/input/src/os_base\os_task_scheduler.c ****       }
 107              		.loc 1 80 0
 108 0096 90       		nop
 109              	L11:
  83:E:/NeuOrga/Programmieren/c_cpp/github_os/input/src/os_base\os_task_scheduler.c ****    }
 110              		.loc 1 83 0
 111 0097 E9AD0000 		jmp	L12
 111      00
 112              	L5:
GAS LISTING C:\Users\PRESID~1\AppData\Local\Temp\ccljw3FC.s 			page 6


  87:E:/NeuOrga/Programmieren/c_cpp/github_os/input/src/os_base\os_task_scheduler.c ****       {
 113              		.loc 1 87 0
 114 009c 8B45F0   		movl	-16(%ebp), %eax
 115 009f 8B407C   		movl	124(%eax), %eax
 116 00a2 85C0     		testl	%eax, %eax
 117 00a4 7407     		je	L14
 118 00a6 83F803   		cmpl	$3, %eax
 119 00a9 7412     		je	L15
 120 00ab EB20     		jmp	L27
 121              	L14:
  92:E:/NeuOrga/Programmieren/c_cpp/github_os/input/src/os_base\os_task_scheduler.c ****          RequestState = Accepted;
 122              		.loc 1 92 0
 123 00ad 8B45F0   		movl	-16(%ebp), %eax
 124 00b0 C7407C01 		movl	$1, 124(%eax)
 124      000000
  93:E:/NeuOrga/Programmieren/c_cpp/github_os/input/src/os_base\os_task_scheduler.c ****          break;
 125              		.loc 1 93 0
 126 00b7 C645F701 		movb	$1, -9(%ebp)
  94:E:/NeuOrga/Programmieren/c_cpp/github_os/input/src/os_base\os_task_scheduler.c ****       }
 127              		.loc 1 94 0
 128 00bb EB25     		jmp	L16
 129              	L15:
  98:E:/NeuOrga/Programmieren/c_cpp/github_os/input/src/os_base\os_task_scheduler.c ****          RequestState = Accepted;
 130              		.loc 1 98 0
 131 00bd 8B45F0   		movl	-16(%ebp), %eax
 132 00c0 C7407C01 		movl	$1, 124(%eax)
 132      000000
  99:E:/NeuOrga/Programmieren/c_cpp/github_os/input/src/os_base\os_task_scheduler.c ****          break;
 133              		.loc 1 99 0
 134 00c7 C645F701 		movb	$1, -9(%ebp)
 100:E:/NeuOrga/Programmieren/c_cpp/github_os/input/src/os_base\os_task_scheduler.c ****       }
 135              		.loc 1 100 0
 136 00cb EB15     		jmp	L16
 137              	L27:
 105:E:/NeuOrga/Programmieren/c_cpp/github_os/input/src/os_base\os_task_scheduler.c ****          break;
 138              		.loc 1 105 0
 139 00cd C7442404 		movl	$12, 4(%esp)
 139      0C000000 
 140 00d5 C7042401 		movl	$1, (%esp)
 140      000000
 141 00dc E8000000 		call	_OS_SetSwBug
 141      00
 106:E:/NeuOrga/Programmieren/c_cpp/github_os/input/src/os_base\os_task_scheduler.c ****       }
 142              		.loc 1 106 0
 143 00e1 90       		nop
 144              	L16:
 109:E:/NeuOrga/Programmieren/c_cpp/github_os/input/src/os_base\os_task_scheduler.c ****    }
 145              		.loc 1 109 0
 146 00e2 EB65     		jmp	L12
 147              	L8:
 113:E:/NeuOrga/Programmieren/c_cpp/github_os/input/src/os_base\os_task_scheduler.c ****       {
 148              		.loc 1 113 0
 149 00e4 8B45F0   		movl	-16(%ebp), %eax
 150 00e7 8B407C   		movl	124(%eax), %eax
 151 00ea 83F802   		cmpl	$2, %eax
 152 00ed 7402     		je	L18
 124:E:/NeuOrga/Programmieren/c_cpp/github_os/input/src/os_base\os_task_scheduler.c ****       }
GAS LISTING C:\Users\PRESID~1\AppData\Local\Temp\ccljw3FC.s 			page 7


 153              		.loc 1 124 0
 154 00ef EB0F     		jmp	L19
 155              	L18:
 117:E:/NeuOrga/Programmieren/c_cpp/github_os/input/src/os_base\os_task_scheduler.c ****          RequestState   = Accepted;
 156              		.loc 1 117 0
 157 00f1 8B45F0   		movl	-16(%ebp), %eax
 158 00f4 C7407C03 		movl	$3, 124(%eax)
 158      000000
 118:E:/NeuOrga/Programmieren/c_cpp/github_os/input/src/os_base\os_task_scheduler.c ****          break;
 159              		.loc 1 118 0
 160 00fb C645F701 		movb	$1, -9(%ebp)
 119:E:/NeuOrga/Programmieren/c_cpp/github_os/input/src/os_base\os_task_scheduler.c ****       }
 161              		.loc 1 119 0
 162 00ff 90       		nop
 163              	L19:
 127:E:/NeuOrga/Programmieren/c_cpp/github_os/input/src/os_base\os_task_scheduler.c **** 
 164              		.loc 1 127 0 discriminator 1
 165 0100 EB47     		jmp	L12
 166              	L7:
 132:E:/NeuOrga/Programmieren/c_cpp/github_os/input/src/os_base\os_task_scheduler.c ****       {
 167              		.loc 1 132 0
 168 0102 8B45F0   		movl	-16(%ebp), %eax
 169 0105 8B407C   		movl	124(%eax), %eax
 170 0108 83F801   		cmpl	$1, %eax
 171 010b 740C     		je	L21
 172 010d 83F801   		cmpl	$1, %eax
 173 0110 7227     		jb	L22
 174 0112 83F803   		cmpl	$3, %eax
 175 0115 7412     		je	L23
 155:E:/NeuOrga/Programmieren/c_cpp/github_os/input/src/os_base\os_task_scheduler.c ****       }
 176              		.loc 1 155 0
 177 0117 EB2F     		jmp	L24
 178              	L21:
 136:E:/NeuOrga/Programmieren/c_cpp/github_os/input/src/os_base\os_task_scheduler.c ****          RequestState   = Accepted;
 179              		.loc 1 136 0
 180 0119 8B45F0   		movl	-16(%ebp), %eax
 181 011c C7407C02 		movl	$2, 124(%eax)
 181      000000
 137:E:/NeuOrga/Programmieren/c_cpp/github_os/input/src/os_base\os_task_scheduler.c ****          break;
 182              		.loc 1 137 0
 183 0123 C645F701 		movb	$1, -9(%ebp)
 138:E:/NeuOrga/Programmieren/c_cpp/github_os/input/src/os_base\os_task_scheduler.c ****       }
 184              		.loc 1 138 0
 185 0127 EB1F     		jmp	L24
 186              	L23:
 142:E:/NeuOrga/Programmieren/c_cpp/github_os/input/src/os_base\os_task_scheduler.c ****          RequestState   = Accepted;
 187              		.loc 1 142 0
 188 0129 8B45F0   		movl	-16(%ebp), %eax
 189 012c C7407C02 		movl	$2, 124(%eax)
 189      000000
 143:E:/NeuOrga/Programmieren/c_cpp/github_os/input/src/os_base\os_task_scheduler.c ****          break;
 190              		.loc 1 143 0
 191 0133 C645F701 		movb	$1, -9(%ebp)
 144:E:/NeuOrga/Programmieren/c_cpp/github_os/input/src/os_base\os_task_scheduler.c ****       }
 192              		.loc 1 144 0
 193 0137 EB0F     		jmp	L24
 194              	L22:
GAS LISTING C:\Users\PRESID~1\AppData\Local\Temp\ccljw3FC.s 			page 8


 148:E:/NeuOrga/Programmieren/c_cpp/github_os/input/src/os_base\os_task_scheduler.c ****           RequestState = Accepted;
 195              		.loc 1 148 0
 196 0139 8B45F0   		movl	-16(%ebp), %eax
 197 013c C7407C02 		movl	$2, 124(%eax)
 197      000000
 149:E:/NeuOrga/Programmieren/c_cpp/github_os/input/src/os_base\os_task_scheduler.c ****           break;
 198              		.loc 1 149 0
 199 0143 C645F701 		movb	$1, -9(%ebp)
 150:E:/NeuOrga/Programmieren/c_cpp/github_os/input/src/os_base\os_task_scheduler.c ****       }
 200              		.loc 1 150 0
 201 0147 90       		nop
 202              	L24:
 158:E:/NeuOrga/Programmieren/c_cpp/github_os/input/src/os_base\os_task_scheduler.c ****    }
 203              		.loc 1 158 0 discriminator 2
 204 0148 90       		nop
 205              	L12:
 163:E:/NeuOrga/Programmieren/c_cpp/github_os/input/src/os_base\os_task_scheduler.c ****    }
 164:E:/NeuOrga/Programmieren/c_cpp/github_os/input/src/os_base\os_task_scheduler.c ****    }
 165:E:/NeuOrga/Programmieren/c_cpp/github_os/input/src/os_base\os_task_scheduler.c ****    if(RequestState == Rejected)
 206              		.loc 1 165 0
 207 0149 807DF700 		cmpb	$0, -9(%ebp)
 208 014d 752F     		jne	L25
 166:E:/NeuOrga/Programmieren/c_cpp/github_os/input/src/os_base\os_task_scheduler.c ****    {
 167:E:/NeuOrga/Programmieren/c_cpp/github_os/input/src/os_base\os_task_scheduler.c ****       TASK_TRANSITION_REJECTED_TASK_ADDR  = task;
 209              		.loc 1 167 0
 210 014f 8B45F0   		movl	-16(%ebp), %eax
 211 0152 A3000000 		movl	%eax, _TASK_TRANSITION_REJECTED_TASK_ADDR
 211      00
 168:E:/NeuOrga/Programmieren/c_cpp/github_os/input/src/os_base\os_task_scheduler.c ****       TASK_TRANSITION_REJECTED_STATE      = requested_state;
 212              		.loc 1 168 0
 213 0157 8B450C   		movl	12(%ebp), %eax
 214 015a A3000000 		movl	%eax, _TASK_TRANSITION_REJECTED_STATE
 214      00
 169:E:/NeuOrga/Programmieren/c_cpp/github_os/input/src/os_base\os_task_scheduler.c ****       TASK_TRANSITION_CURRENT_STATE       = task->task_state;
 215              		.loc 1 169 0
 216 015f 8B45F0   		movl	-16(%ebp), %eax
 217 0162 8B407C   		movl	124(%eax), %eax
 218 0165 A3000000 		movl	%eax, _TASK_TRANSITION_CURRENT_STATE
 218      00
 170:E:/NeuOrga/Programmieren/c_cpp/github_os/input/src/os_base\os_task_scheduler.c ****       OS_SetSwBug(os_bug_taskstate_request_denied, Func_TaskStateRequest);
 219              		.loc 1 170 0
 220 016a C7442404 		movl	$12, 4(%esp)
 220      0C000000 
 221 0172 C7042401 		movl	$1, (%esp)
 221      000000
 222 0179 E8000000 		call	_OS_SetSwBug
 222      00
 223              	L25:
 171:E:/NeuOrga/Programmieren/c_cpp/github_os/input/src/os_base\os_task_scheduler.c ****    }
 172:E:/NeuOrga/Programmieren/c_cpp/github_os/input/src/os_base\os_task_scheduler.c ****    return RequestState;
 224              		.loc 1 172 0
 225 017e 8A45F7   		movb	-9(%ebp), %al
 173:E:/NeuOrga/Programmieren/c_cpp/github_os/input/src/os_base\os_task_scheduler.c **** }
 226              		.loc 1 173 0
 227 0181 C9       		leave
 228              		.cfi_restore 5
 229              		.cfi_def_cfa 4, 4
GAS LISTING C:\Users\PRESID~1\AppData\Local\Temp\ccljw3FC.s 			page 9


 230 0182 C3       		ret
 231              		.cfi_endproc
 232              	LFE2:
 233              		.globl	_OS_CreateTask
 235              	_OS_CreateTask:
 236              	LFB3:
 174:E:/NeuOrga/Programmieren/c_cpp/github_os/input/src/os_base\os_task_scheduler.c **** 
 175:E:/NeuOrga/Programmieren/c_cpp/github_os/input/src/os_base\os_task_scheduler.c **** void OS_CreateTask(task_t* task)
 176:E:/NeuOrga/Programmieren/c_cpp/github_os/input/src/os_base\os_task_scheduler.c **** {
 237              		.loc 1 176 0
 238              		.cfi_startproc
 239 0183 55       		pushl	%ebp
 240              		.cfi_def_cfa_offset 8
 241              		.cfi_offset 5, -8
 242 0184 89E5     		movl	%esp, %ebp
 243              		.cfi_def_cfa_register 5
 244 0186 83EC18   		subl	$24, %esp
 177:E:/NeuOrga/Programmieren/c_cpp/github_os/input/src/os_base\os_task_scheduler.c ****    /*5. unspecified --(create   )--> suspend*/
 178:E:/NeuOrga/Programmieren/c_cpp/github_os/input/src/os_base\os_task_scheduler.c ****    if(task != 0)
 245              		.loc 1 178 0
 246 0189 837D0800 		cmpl	$0, 8(%ebp)
 247 018d 7450     		je	L29
 179:E:/NeuOrga/Programmieren/c_cpp/github_os/input/src/os_base\os_task_scheduler.c ****    {
 180:E:/NeuOrga/Programmieren/c_cpp/github_os/input/src/os_base\os_task_scheduler.c ****       if(task->state_request != 0)
 248              		.loc 1 180 0
 249 018f 8B4508   		movl	8(%ebp), %eax
 250 0192 8B4078   		movl	120(%eax), %eax
 251 0195 85C0     		testl	%eax, %eax
 252 0197 7430     		je	L30
 181:E:/NeuOrga/Programmieren/c_cpp/github_os/input/src/os_base\os_task_scheduler.c ****       {
 182:E:/NeuOrga/Programmieren/c_cpp/github_os/input/src/os_base\os_task_scheduler.c ****          if(task->state_request(task, Task_suspended)== Accepted)
 253              		.loc 1 182 0
 254 0199 8B4508   		movl	8(%ebp), %eax
 255 019c 8B4078   		movl	120(%eax), %eax
 256 019f C7442404 		movl	$1, 4(%esp)
 256      01000000 
 257 01a7 8B5508   		movl	8(%ebp), %edx
 258 01aa 891424   		movl	%edx, (%esp)
 259 01ad FFD0     		call	*%eax
 260 01af 3C01     		cmpb	$1, %al
 261 01b1 7440     		je	L28
 183:E:/NeuOrga/Programmieren/c_cpp/github_os/input/src/os_base\os_task_scheduler.c ****          {
 184:E:/NeuOrga/Programmieren/c_cpp/github_os/input/src/os_base\os_task_scheduler.c ****             /*QAC*/
 185:E:/NeuOrga/Programmieren/c_cpp/github_os/input/src/os_base\os_task_scheduler.c ****          }
 186:E:/NeuOrga/Programmieren/c_cpp/github_os/input/src/os_base\os_task_scheduler.c ****          else
 187:E:/NeuOrga/Programmieren/c_cpp/github_os/input/src/os_base\os_task_scheduler.c ****          {
 188:E:/NeuOrga/Programmieren/c_cpp/github_os/input/src/os_base\os_task_scheduler.c ****             OS_SetSwBug(os_bug_taskstate_request_denied, Func_CreateTask);
 262              		.loc 1 188 0
 263 01b3 C7442404 		movl	$15, 4(%esp)
 263      0F000000 
 264 01bb C7042401 		movl	$1, (%esp)
 264      000000
 265 01c2 E8000000 		call	_OS_SetSwBug
 265      00
 266 01c7 EB2A     		jmp	L28
 267              	L30:
 189:E:/NeuOrga/Programmieren/c_cpp/github_os/input/src/os_base\os_task_scheduler.c ****          }
GAS LISTING C:\Users\PRESID~1\AppData\Local\Temp\ccljw3FC.s 			page 10


 190:E:/NeuOrga/Programmieren/c_cpp/github_os/input/src/os_base\os_task_scheduler.c ****       }
 191:E:/NeuOrga/Programmieren/c_cpp/github_os/input/src/os_base\os_task_scheduler.c ****       else
 192:E:/NeuOrga/Programmieren/c_cpp/github_os/input/src/os_base\os_task_scheduler.c ****       {
 193:E:/NeuOrga/Programmieren/c_cpp/github_os/input/src/os_base\os_task_scheduler.c ****          OS_SetSwBug(os_bug_null_pointer, Func_CreateTask);
 268              		.loc 1 193 0
 269 01c9 C7442404 		movl	$15, 4(%esp)
 269      0F000000 
 270 01d1 C7042402 		movl	$2, (%esp)
 270      000000
 271 01d8 E8000000 		call	_OS_SetSwBug
 271      00
 272 01dd EB14     		jmp	L28
 273              	L29:
 194:E:/NeuOrga/Programmieren/c_cpp/github_os/input/src/os_base\os_task_scheduler.c ****       }
 195:E:/NeuOrga/Programmieren/c_cpp/github_os/input/src/os_base\os_task_scheduler.c ****    }
 196:E:/NeuOrga/Programmieren/c_cpp/github_os/input/src/os_base\os_task_scheduler.c ****    else
 197:E:/NeuOrga/Programmieren/c_cpp/github_os/input/src/os_base\os_task_scheduler.c ****    {
 198:E:/NeuOrga/Programmieren/c_cpp/github_os/input/src/os_base\os_task_scheduler.c ****       OS_SetSwBug(os_bug_null_pointer, Func_CreateTask);
 274              		.loc 1 198 0
 275 01df C7442404 		movl	$15, 4(%esp)
 275      0F000000 
 276 01e7 C7042402 		movl	$2, (%esp)
 276      000000
 277 01ee E8000000 		call	_OS_SetSwBug
 277      00
 278              	L28:
 199:E:/NeuOrga/Programmieren/c_cpp/github_os/input/src/os_base\os_task_scheduler.c ****    }
 200:E:/NeuOrga/Programmieren/c_cpp/github_os/input/src/os_base\os_task_scheduler.c **** }
 279              		.loc 1 200 0
 280 01f3 C9       		leave
 281              		.cfi_restore 5
 282              		.cfi_def_cfa 4, 4
 283 01f4 C3       		ret
 284              		.cfi_endproc
 285              	LFE3:
 287              	_OS_PreemptTask:
 288              	LFB4:
 201:E:/NeuOrga/Programmieren/c_cpp/github_os/input/src/os_base\os_task_scheduler.c **** void OS_PreemptTask(task_t* task, scheduling_t* scheduling_task)
 202:E:/NeuOrga/Programmieren/c_cpp/github_os/input/src/os_base\os_task_scheduler.c **** {
 289              		.loc 1 202 0
 290              		.cfi_startproc
 291 01f5 55       		pushl	%ebp
 292              		.cfi_def_cfa_offset 8
 293              		.cfi_offset 5, -8
 294 01f6 89E5     		movl	%esp, %ebp
 295              		.cfi_def_cfa_register 5
 296 01f8 83EC18   		subl	$24, %esp
 203:E:/NeuOrga/Programmieren/c_cpp/github_os/input/src/os_base\os_task_scheduler.c ****    /*2. running     --(preempt  )--> ready*/
 204:E:/NeuOrga/Programmieren/c_cpp/github_os/input/src/os_base\os_task_scheduler.c ****    /* Preempt task
 205:E:/NeuOrga/Programmieren/c_cpp/github_os/input/src/os_base\os_task_scheduler.c ****    - Disable Interrupts
 206:E:/NeuOrga/Programmieren/c_cpp/github_os/input/src/os_base\os_task_scheduler.c ****    - OS_TaskSaveTaskEnvironment
 207:E:/NeuOrga/Programmieren/c_cpp/github_os/input/src/os_base\os_task_scheduler.c ****    - add to Schedule Queue / delete from RunQueue
 208:E:/NeuOrga/Programmieren/c_cpp/github_os/input/src/os_base\os_task_scheduler.c ****    - delete active flag
 209:E:/NeuOrga/Programmieren/c_cpp/github_os/input/src/os_base\os_task_scheduler.c ****    - enable Interrupts
 210:E:/NeuOrga/Programmieren/c_cpp/github_os/input/src/os_base\os_task_scheduler.c ****    */
 211:E:/NeuOrga/Programmieren/c_cpp/github_os/input/src/os_base\os_task_scheduler.c ****    if(task != 0 && scheduling_task != 0)
 297              		.loc 1 211 0
GAS LISTING C:\Users\PRESID~1\AppData\Local\Temp\ccljw3FC.s 			page 11


 298 01fb 837D0800 		cmpl	$0, 8(%ebp)
 299 01ff 0F848500 		je	L35
 299      0000
 300              		.loc 1 211 0 is_stmt 0 discriminator 1
 301 0205 837D0C00 		cmpl	$0, 12(%ebp)
 302 0209 747F     		je	L35
 212:E:/NeuOrga/Programmieren/c_cpp/github_os/input/src/os_base\os_task_scheduler.c ****    {
 213:E:/NeuOrga/Programmieren/c_cpp/github_os/input/src/os_base\os_task_scheduler.c ****       if(task->state_request != 0)
 303              		.loc 1 213 0 is_stmt 1
 304 020b 8B4508   		movl	8(%ebp), %eax
 305 020e 8B4078   		movl	120(%eax), %eax
 306 0211 85C0     		testl	%eax, %eax
 307 0213 745F     		je	L36
 214:E:/NeuOrga/Programmieren/c_cpp/github_os/input/src/os_base\os_task_scheduler.c ****       {
 215:E:/NeuOrga/Programmieren/c_cpp/github_os/input/src/os_base\os_task_scheduler.c ****          if(task->state_request(task, Task_ready)== Accepted)
 308              		.loc 1 215 0
 309 0215 8B4508   		movl	8(%ebp), %eax
 310 0218 8B4078   		movl	120(%eax), %eax
 311 021b C7442404 		movl	$2, 4(%esp)
 311      02000000 
 312 0223 8B5508   		movl	8(%ebp), %edx
 313 0226 891424   		movl	%edx, (%esp)
 314 0229 FFD0     		call	*%eax
 315 022b 3C01     		cmpb	$1, %al
 316 022d 752F     		jne	L37
 216:E:/NeuOrga/Programmieren/c_cpp/github_os/input/src/os_base\os_task_scheduler.c ****          {
 217:E:/NeuOrga/Programmieren/c_cpp/github_os/input/src/os_base\os_task_scheduler.c ****             DisableInterrupts();
 218:E:/NeuOrga/Programmieren/c_cpp/github_os/input/src/os_base\os_task_scheduler.c ****             OS_TaskSaveTaskEnvironment(task);
 317              		.loc 1 218 0
 318 022f 8B4508   		movl	8(%ebp), %eax
 319 0232 890424   		movl	%eax, (%esp)
 320 0235 E8000000 		call	_OS_TaskSaveTaskEnvironment
 320      00
 219:E:/NeuOrga/Programmieren/c_cpp/github_os/input/src/os_base\os_task_scheduler.c ****             OS_TASK_RESTORE_SYSTEM_STACK((uint8*)&OS_MAIN_STACK);
 321              		.loc 1 219 0
 322 023a C7042400 		movl	$_OS_MAIN_STACK, (%esp)
 322      000000
 323 0241 E8000000 		call	_OS_TASK_RESTORE_SYSTEM_STACK
 323      00
 220:E:/NeuOrga/Programmieren/c_cpp/github_os/input/src/os_base\os_task_scheduler.c **** 
 221:E:/NeuOrga/Programmieren/c_cpp/github_os/input/src/os_base\os_task_scheduler.c ****             task->active = False;
 324              		.loc 1 221 0
 325 0246 8B4508   		movl	8(%ebp), %eax
 326 0249 8A10     		movb	(%eax), %dl
 327 024b 83E2FE   		andl	$-2, %edx
 328 024e 8810     		movb	%dl, (%eax)
 222:E:/NeuOrga/Programmieren/c_cpp/github_os/input/src/os_base\os_task_scheduler.c ****             /* reset the prio increase for waiting */
 223:E:/NeuOrga/Programmieren/c_cpp/github_os/input/src/os_base\os_task_scheduler.c ****             task->current_prio = task->default_prio;
 329              		.loc 1 223 0
 330 0250 8B4508   		movl	8(%ebp), %eax
 331 0253 8A506D   		movb	109(%eax), %dl
 332 0256 8B4508   		movl	8(%ebp), %eax
 333 0259 88506C   		movb	%dl, 108(%eax)
 213:E:/NeuOrga/Programmieren/c_cpp/github_os/input/src/os_base\os_task_scheduler.c ****       {
 334              		.loc 1 213 0
 335 025c EB40     		jmp	L34
 336              	L37:
GAS LISTING C:\Users\PRESID~1\AppData\Local\Temp\ccljw3FC.s 			page 12


 224:E:/NeuOrga/Programmieren/c_cpp/github_os/input/src/os_base\os_task_scheduler.c ****             EnableInterrupts();
 225:E:/NeuOrga/Programmieren/c_cpp/github_os/input/src/os_base\os_task_scheduler.c ****          }
 226:E:/NeuOrga/Programmieren/c_cpp/github_os/input/src/os_base\os_task_scheduler.c ****          else
 227:E:/NeuOrga/Programmieren/c_cpp/github_os/input/src/os_base\os_task_scheduler.c ****          {
 228:E:/NeuOrga/Programmieren/c_cpp/github_os/input/src/os_base\os_task_scheduler.c ****             OS_SetSwBug(os_bug_taskstate_request_denied, Func_Preempt_Task);
 337              		.loc 1 228 0
 338 025e C7442404 		movl	$13, 4(%esp)
 338      0D000000 
 339 0266 C7042401 		movl	$1, (%esp)
 339      000000
 340 026d E8000000 		call	_OS_SetSwBug
 340      00
 213:E:/NeuOrga/Programmieren/c_cpp/github_os/input/src/os_base\os_task_scheduler.c ****       {
 341              		.loc 1 213 0
 342 0272 EB2A     		jmp	L34
 343              	L36:
 229:E:/NeuOrga/Programmieren/c_cpp/github_os/input/src/os_base\os_task_scheduler.c ****          }
 230:E:/NeuOrga/Programmieren/c_cpp/github_os/input/src/os_base\os_task_scheduler.c ****       }
 231:E:/NeuOrga/Programmieren/c_cpp/github_os/input/src/os_base\os_task_scheduler.c ****       else
 232:E:/NeuOrga/Programmieren/c_cpp/github_os/input/src/os_base\os_task_scheduler.c ****       {
 233:E:/NeuOrga/Programmieren/c_cpp/github_os/input/src/os_base\os_task_scheduler.c ****          OS_SetSwBug(os_bug_null_pointer, Func_Preempt_Task);
 344              		.loc 1 233 0
 345 0274 C7442404 		movl	$13, 4(%esp)
 345      0D000000 
 346 027c C7042402 		movl	$2, (%esp)
 346      000000
 347 0283 E8000000 		call	_OS_SetSwBug
 347      00
 213:E:/NeuOrga/Programmieren/c_cpp/github_os/input/src/os_base\os_task_scheduler.c ****       {
 348              		.loc 1 213 0
 349 0288 EB14     		jmp	L34
 350              	L35:
 234:E:/NeuOrga/Programmieren/c_cpp/github_os/input/src/os_base\os_task_scheduler.c ****       }
 235:E:/NeuOrga/Programmieren/c_cpp/github_os/input/src/os_base\os_task_scheduler.c ****    }
 236:E:/NeuOrga/Programmieren/c_cpp/github_os/input/src/os_base\os_task_scheduler.c ****    else
 237:E:/NeuOrga/Programmieren/c_cpp/github_os/input/src/os_base\os_task_scheduler.c ****    {
 238:E:/NeuOrga/Programmieren/c_cpp/github_os/input/src/os_base\os_task_scheduler.c ****       OS_SetSwBug(os_bug_null_pointer, Func_Preempt_Task);
 351              		.loc 1 238 0
 352 028a C7442404 		movl	$13, 4(%esp)
 352      0D000000 
 353 0292 C7042402 		movl	$2, (%esp)
 353      000000
 354 0299 E8000000 		call	_OS_SetSwBug
 354      00
 355              	L34:
 239:E:/NeuOrga/Programmieren/c_cpp/github_os/input/src/os_base\os_task_scheduler.c ****    }
 240:E:/NeuOrga/Programmieren/c_cpp/github_os/input/src/os_base\os_task_scheduler.c **** }
 356              		.loc 1 240 0
 357 029e C9       		leave
 358              		.cfi_restore 5
 359              		.cfi_def_cfa 4, 4
 360 029f C3       		ret
 361              		.cfi_endproc
 362              	LFE4:
 363              		.globl	_OS_ActivateTask
 365              	_OS_ActivateTask:
 366              	LFB5:
GAS LISTING C:\Users\PRESID~1\AppData\Local\Temp\ccljw3FC.s 			page 13


 241:E:/NeuOrga/Programmieren/c_cpp/github_os/input/src/os_base\os_task_scheduler.c **** 
 242:E:/NeuOrga/Programmieren/c_cpp/github_os/input/src/os_base\os_task_scheduler.c **** void OS_ActivateTask(task_t* task)
 243:E:/NeuOrga/Programmieren/c_cpp/github_os/input/src/os_base\os_task_scheduler.c **** {
 367              		.loc 1 243 0
 368              		.cfi_startproc
 369 02a0 55       		pushl	%ebp
 370              		.cfi_def_cfa_offset 8
 371              		.cfi_offset 5, -8
 372 02a1 89E5     		movl	%esp, %ebp
 373              		.cfi_def_cfa_register 5
 374 02a3 83EC18   		subl	$24, %esp
 244:E:/NeuOrga/Programmieren/c_cpp/github_os/input/src/os_base\os_task_scheduler.c ****    /*
 245:E:/NeuOrga/Programmieren/c_cpp/github_os/input/src/os_base\os_task_scheduler.c ****    Activate Task:
 246:E:/NeuOrga/Programmieren/c_cpp/github_os/input/src/os_base\os_task_scheduler.c ****    - Disable Interrupts
 247:E:/NeuOrga/Programmieren/c_cpp/github_os/input/src/os_base\os_task_scheduler.c ****    - Add to schedule Queue
 248:E:/NeuOrga/Programmieren/c_cpp/github_os/input/src/os_base\os_task_scheduler.c ****    - Enable Interrupts
 249:E:/NeuOrga/Programmieren/c_cpp/github_os/input/src/os_base\os_task_scheduler.c **** 
 250:E:/NeuOrga/Programmieren/c_cpp/github_os/input/src/os_base\os_task_scheduler.c ****    in case of valid request, the content, where the "task_t* task" is point to is stored in TASK_RU
 251:E:/NeuOrga/Programmieren/c_cpp/github_os/input/src/os_base\os_task_scheduler.c ****    */
 252:E:/NeuOrga/Programmieren/c_cpp/github_os/input/src/os_base\os_task_scheduler.c ****    if(task != 0)
 375              		.loc 1 252 0
 376 02a6 837D0800 		cmpl	$0, 8(%ebp)
 377 02aa 0F84D500 		je	L41
 377      0000
 253:E:/NeuOrga/Programmieren/c_cpp/github_os/input/src/os_base\os_task_scheduler.c ****    {
 254:E:/NeuOrga/Programmieren/c_cpp/github_os/input/src/os_base\os_task_scheduler.c ****       if(task->state_request(task, Task_ready)==Accepted)
 378              		.loc 1 254 0
 379 02b0 8B4508   		movl	8(%ebp), %eax
 380 02b3 8B4078   		movl	120(%eax), %eax
 381 02b6 C7442404 		movl	$2, 4(%esp)
 381      02000000 
 382 02be 8B5508   		movl	8(%ebp), %edx
 383 02c1 891424   		movl	%edx, (%esp)
 384 02c4 FFD0     		call	*%eax
 385 02c6 3C01     		cmpb	$1, %al
 386 02c8 0F85A300 		jne	L43
 386      0000
 255:E:/NeuOrga/Programmieren/c_cpp/github_os/input/src/os_base\os_task_scheduler.c ****       {
 256:E:/NeuOrga/Programmieren/c_cpp/github_os/input/src/os_base\os_task_scheduler.c ****          DisableInterrupts();
 257:E:/NeuOrga/Programmieren/c_cpp/github_os/input/src/os_base\os_task_scheduler.c ****          /* 3. suspended to ready (add to runqueue) */
 258:E:/NeuOrga/Programmieren/c_cpp/github_os/input/src/os_base\os_task_scheduler.c ****          if(task->IdleTask == False)
 387              		.loc 1 258 0
 388 02ce 8B4508   		movl	8(%ebp), %eax
 389 02d1 8A00     		movb	(%eax), %al
 390 02d3 83E004   		andl	$4, %eax
 391 02d6 84C0     		testb	%al, %al
 392 02d8 0F858600 		jne	L44
 392      0000
 259:E:/NeuOrga/Programmieren/c_cpp/github_os/input/src/os_base\os_task_scheduler.c ****          {
 260:E:/NeuOrga/Programmieren/c_cpp/github_os/input/src/os_base\os_task_scheduler.c ****             if( (task->active == False)
 393              		.loc 1 260 0
 394 02de 8B4508   		movl	8(%ebp), %eax
 395 02e1 8A00     		movb	(%eax), %al
 396 02e3 83E001   		andl	$1, %eax
 397 02e6 84C0     		testb	%al, %al
 398 02e8 741C     		je	L45
 261:E:/NeuOrga/Programmieren/c_cpp/github_os/input/src/os_base\os_task_scheduler.c ****                   || ( (task->active == True) && (task->NrOfInsAllowed > task->NrOfInsActivated) )/
GAS LISTING C:\Users\PRESID~1\AppData\Local\Temp\ccljw3FC.s 			page 14


 399              		.loc 1 261 0
 400 02ea 8B4508   		movl	8(%ebp), %eax
 401 02ed 8A00     		movb	(%eax), %al
 402 02ef 83E001   		andl	$1, %eax
 403 02f2 84C0     		testb	%al, %al
 404 02f4 7456     		je	L46
 405              		.loc 1 261 0 is_stmt 0 discriminator 1
 406 02f6 8B4508   		movl	8(%ebp), %eax
 407 02f9 8A5004   		movb	4(%eax), %dl
 408 02fc 8B4508   		movl	8(%ebp), %eax
 409 02ff 8A4005   		movb	5(%eax), %al
 410 0302 38C2     		cmpb	%al, %dl
 411 0304 7646     		jbe	L46
 412              	L45:
 262:E:/NeuOrga/Programmieren/c_cpp/github_os/input/src/os_base\os_task_scheduler.c ****               )
 263:E:/NeuOrga/Programmieren/c_cpp/github_os/input/src/os_base\os_task_scheduler.c ****             {
 264:E:/NeuOrga/Programmieren/c_cpp/github_os/input/src/os_base\os_task_scheduler.c ****                /* only activate if allowed by rule */
 265:E:/NeuOrga/Programmieren/c_cpp/github_os/input/src/os_base\os_task_scheduler.c ****                task = AddToTaskQueue(task);
 413              		.loc 1 265 0 is_stmt 1
 414 0306 8B4508   		movl	8(%ebp), %eax
 415 0309 890424   		movl	%eax, (%esp)
 416 030c E8000000 		call	_AddToTaskQueue
 416      00
 417 0311 894508   		movl	%eax, 8(%ebp)
 266:E:/NeuOrga/Programmieren/c_cpp/github_os/input/src/os_base\os_task_scheduler.c ****                AddToSchedulingQueue(task);
 418              		.loc 1 266 0
 419 0314 8B4508   		movl	8(%ebp), %eax
 420 0317 890424   		movl	%eax, (%esp)
 421 031a E8000000 		call	_AddToSchedulingQueue
 421      00
 267:E:/NeuOrga/Programmieren/c_cpp/github_os/input/src/os_base\os_task_scheduler.c ****                if(task != 0)
 422              		.loc 1 267 0
 423 031f 837D0800 		cmpl	$0, 8(%ebp)
 424 0323 7411     		je	L47
 268:E:/NeuOrga/Programmieren/c_cpp/github_os/input/src/os_base\os_task_scheduler.c ****                {
 269:E:/NeuOrga/Programmieren/c_cpp/github_os/input/src/os_base\os_task_scheduler.c ****                   task->NrOfInsActivated++;
 425              		.loc 1 269 0
 426 0325 8B4508   		movl	8(%ebp), %eax
 427 0328 8A4005   		movb	5(%eax), %al
 428 032b 8D5001   		leal	1(%eax), %edx
 429 032e 8B4508   		movl	8(%ebp), %eax
 430 0331 885005   		movb	%dl, 5(%eax)
 267:E:/NeuOrga/Programmieren/c_cpp/github_os/input/src/os_base\os_task_scheduler.c ****                if(task != 0)
 431              		.loc 1 267 0
 432 0334 EB2C     		jmp	L49
 433              	L47:
 270:E:/NeuOrga/Programmieren/c_cpp/github_os/input/src/os_base\os_task_scheduler.c ****                }
 271:E:/NeuOrga/Programmieren/c_cpp/github_os/input/src/os_base\os_task_scheduler.c ****                else
 272:E:/NeuOrga/Programmieren/c_cpp/github_os/input/src/os_base\os_task_scheduler.c ****                {
 273:E:/NeuOrga/Programmieren/c_cpp/github_os/input/src/os_base\os_task_scheduler.c ****                   OS_SetSwBug(os_bug_null_pointer,Func_ActivateTask);
 434              		.loc 1 273 0
 435 0336 C7442404 		movl	$11, 4(%esp)
 435      0B000000 
 436 033e C7042402 		movl	$2, (%esp)
 436      000000
 437 0345 E8000000 		call	_OS_SetSwBug
 437      00
GAS LISTING C:\Users\PRESID~1\AppData\Local\Temp\ccljw3FC.s 			page 15


 267:E:/NeuOrga/Programmieren/c_cpp/github_os/input/src/os_base\os_task_scheduler.c ****                {
 438              		.loc 1 267 0
 439 034a EB16     		jmp	L49
 440              	L46:
 274:E:/NeuOrga/Programmieren/c_cpp/github_os/input/src/os_base\os_task_scheduler.c ****                }
 275:E:/NeuOrga/Programmieren/c_cpp/github_os/input/src/os_base\os_task_scheduler.c ****             }
 276:E:/NeuOrga/Programmieren/c_cpp/github_os/input/src/os_base\os_task_scheduler.c ****             else
 277:E:/NeuOrga/Programmieren/c_cpp/github_os/input/src/os_base\os_task_scheduler.c ****             {
 278:E:/NeuOrga/Programmieren/c_cpp/github_os/input/src/os_base\os_task_scheduler.c ****                /* multiple activation bug occured */
 279:E:/NeuOrga/Programmieren/c_cpp/github_os/input/src/os_base\os_task_scheduler.c ****                OS_SetSwBug(os_bug_taskstate_request_denied, Func_ActivateTask);
 441              		.loc 1 279 0
 442 034c C7442404 		movl	$11, 4(%esp)
 442      0B000000 
 443 0354 C7042401 		movl	$1, (%esp)
 443      000000
 444 035b E8000000 		call	_OS_SetSwBug
 444      00
 445 0360 EB23     		jmp	L41
 446              	L49:
 447 0362 EB21     		jmp	L41
 448              	L44:
 280:E:/NeuOrga/Programmieren/c_cpp/github_os/input/src/os_base\os_task_scheduler.c ****             }
 281:E:/NeuOrga/Programmieren/c_cpp/github_os/input/src/os_base\os_task_scheduler.c ****          }
 282:E:/NeuOrga/Programmieren/c_cpp/github_os/input/src/os_base\os_task_scheduler.c ****          else
 283:E:/NeuOrga/Programmieren/c_cpp/github_os/input/src/os_base\os_task_scheduler.c ****          {
 284:E:/NeuOrga/Programmieren/c_cpp/github_os/input/src/os_base\os_task_scheduler.c ****             AddToIdleTaskQueue(task);
 449              		.loc 1 284 0
 450 0364 8B4508   		movl	8(%ebp), %eax
 451 0367 890424   		movl	%eax, (%esp)
 452 036a E8000000 		call	_AddToIdleTaskQueue
 452      00
 453 036f EB14     		jmp	L41
 454              	L43:
 285:E:/NeuOrga/Programmieren/c_cpp/github_os/input/src/os_base\os_task_scheduler.c ****          }
 286:E:/NeuOrga/Programmieren/c_cpp/github_os/input/src/os_base\os_task_scheduler.c ****          EnableInterrupts();
 287:E:/NeuOrga/Programmieren/c_cpp/github_os/input/src/os_base\os_task_scheduler.c ****       }
 288:E:/NeuOrga/Programmieren/c_cpp/github_os/input/src/os_base\os_task_scheduler.c ****       else
 289:E:/NeuOrga/Programmieren/c_cpp/github_os/input/src/os_base\os_task_scheduler.c ****       {
 290:E:/NeuOrga/Programmieren/c_cpp/github_os/input/src/os_base\os_task_scheduler.c ****          OS_SetSwBug(os_bug_taskstate_request_denied, Func_ActivateTask);
 455              		.loc 1 290 0
 456 0371 C7442404 		movl	$11, 4(%esp)
 456      0B000000 
 457 0379 C7042401 		movl	$1, (%esp)
 457      000000
 458 0380 E8000000 		call	_OS_SetSwBug
 458      00
 459              	L41:
 291:E:/NeuOrga/Programmieren/c_cpp/github_os/input/src/os_base\os_task_scheduler.c ****       }
 292:E:/NeuOrga/Programmieren/c_cpp/github_os/input/src/os_base\os_task_scheduler.c ****    }
 293:E:/NeuOrga/Programmieren/c_cpp/github_os/input/src/os_base\os_task_scheduler.c **** }
 460              		.loc 1 293 0
 461 0385 C9       		leave
 462              		.cfi_restore 5
 463              		.cfi_def_cfa 4, 4
 464 0386 C3       		ret
 465              		.cfi_endproc
 466              	LFE5:
GAS LISTING C:\Users\PRESID~1\AppData\Local\Temp\ccljw3FC.s 			page 16


 467              		.globl	_OS_StartTask
 469              	_OS_StartTask:
 470              	LFB6:
 294:E:/NeuOrga/Programmieren/c_cpp/github_os/input/src/os_base\os_task_scheduler.c **** void OS_StartTask(task_t* task, scheduling_t* scheduling_task)
 295:E:/NeuOrga/Programmieren/c_cpp/github_os/input/src/os_base\os_task_scheduler.c **** {
 471              		.loc 1 295 0
 472              		.cfi_startproc
 473 0387 55       		pushl	%ebp
 474              		.cfi_def_cfa_offset 8
 475              		.cfi_offset 5, -8
 476 0388 89E5     		movl	%esp, %ebp
 477              		.cfi_def_cfa_register 5
 478 038a 83EC28   		subl	$40, %esp
 296:E:/NeuOrga/Programmieren/c_cpp/github_os/input/src/os_base\os_task_scheduler.c ****    /* OS_StartTask
 297:E:/NeuOrga/Programmieren/c_cpp/github_os/input/src/os_base\os_task_scheduler.c ****    - Disable interrupts
 298:E:/NeuOrga/Programmieren/c_cpp/github_os/input/src/os_base\os_task_scheduler.c ****    - restore Environment
 299:E:/NeuOrga/Programmieren/c_cpp/github_os/input/src/os_base\os_task_scheduler.c ****    - enable interrupts
 300:E:/NeuOrga/Programmieren/c_cpp/github_os/input/src/os_base\os_task_scheduler.c **** 
 301:E:/NeuOrga/Programmieren/c_cpp/github_os/input/src/os_base\os_task_scheduler.c ****    - Start Task
 302:E:/NeuOrga/Programmieren/c_cpp/github_os/input/src/os_base\os_task_scheduler.c ****     */
 303:E:/NeuOrga/Programmieren/c_cpp/github_os/input/src/os_base\os_task_scheduler.c ****    timebig_t time;
 304:E:/NeuOrga/Programmieren/c_cpp/github_os/input/src/os_base\os_task_scheduler.c ****    
 305:E:/NeuOrga/Programmieren/c_cpp/github_os/input/src/os_base\os_task_scheduler.c ****    if( (task != 0) && (scheduling_task != 0)&& ((task->task_queued != False)||(task->IdleTask != Fa
 479              		.loc 1 305 0
 480 038d 837D0800 		cmpl	$0, 8(%ebp)
 481 0391 0F840B01 		je	L51
 481      0000
 482              		.loc 1 305 0 is_stmt 0 discriminator 1
 483 0397 837D0C00 		cmpl	$0, 12(%ebp)
 484 039b 0F840101 		je	L51
 484      0000
 485              		.loc 1 305 0 discriminator 2
 486 03a1 8B4508   		movl	8(%ebp), %eax
 487 03a4 8A00     		movb	(%eax), %al
 488 03a6 83E002   		andl	$2, %eax
 489 03a9 84C0     		testb	%al, %al
 490 03ab 7510     		jne	L53
 491              		.loc 1 305 0 discriminator 3
 492 03ad 8B4508   		movl	8(%ebp), %eax
 493 03b0 8A00     		movb	(%eax), %al
 494 03b2 83E004   		andl	$4, %eax
 495 03b5 84C0     		testb	%al, %al
 496 03b7 0F84E500 		je	L51
 496      0000
 497              	L53:
 306:E:/NeuOrga/Programmieren/c_cpp/github_os/input/src/os_base\os_task_scheduler.c ****    {
 307:E:/NeuOrga/Programmieren/c_cpp/github_os/input/src/os_base\os_task_scheduler.c ****       if(task->state_request !=0)
 498              		.loc 1 307 0 is_stmt 1
 499 03bd 8B4508   		movl	8(%ebp), %eax
 500 03c0 8B4078   		movl	120(%eax), %eax
 501 03c3 85C0     		testl	%eax, %eax
 502 03c5 0F84C300 		je	L54
 502      0000
 308:E:/NeuOrga/Programmieren/c_cpp/github_os/input/src/os_base\os_task_scheduler.c ****       {
 309:E:/NeuOrga/Programmieren/c_cpp/github_os/input/src/os_base\os_task_scheduler.c ****          if(task->state_request(task, Task_running)== Accepted)
 503              		.loc 1 309 0
 504 03cb 8B4508   		movl	8(%ebp), %eax
GAS LISTING C:\Users\PRESID~1\AppData\Local\Temp\ccljw3FC.s 			page 17


 505 03ce 8B4078   		movl	120(%eax), %eax
 506 03d1 C7442404 		movl	$3, 4(%esp)
 506      03000000 
 507 03d9 8B5508   		movl	8(%ebp), %edx
 508 03dc 891424   		movl	%edx, (%esp)
 509 03df FFD0     		call	*%eax
 510 03e1 3C01     		cmpb	$1, %al
 511 03e3 0F858F00 		jne	L55
 511      0000
 310:E:/NeuOrga/Programmieren/c_cpp/github_os/input/src/os_base\os_task_scheduler.c ****          {
 311:E:/NeuOrga/Programmieren/c_cpp/github_os/input/src/os_base\os_task_scheduler.c ****             DisableInterrupts();
 312:E:/NeuOrga/Programmieren/c_cpp/github_os/input/src/os_base\os_task_scheduler.c ****             task->active =  True;
 512              		.loc 1 312 0
 513 03e9 8B4508   		movl	8(%ebp), %eax
 514 03ec 8A10     		movb	(%eax), %dl
 515 03ee 83CA01   		orl	$1, %edx
 516 03f1 8810     		movb	%dl, (%eax)
 313:E:/NeuOrga/Programmieren/c_cpp/github_os/input/src/os_base\os_task_scheduler.c ****             AssignNull(&task->wait_time);
 517              		.loc 1 313 0
 518 03f3 8B4508   		movl	8(%ebp), %eax
 519 03f6 83C016   		addl	$22, %eax
 520 03f9 890424   		movl	%eax, (%esp)
 521 03fc E8000000 		call	_AssignNull
 521      00
 314:E:/NeuOrga/Programmieren/c_cpp/github_os/input/src/os_base\os_task_scheduler.c ****             task->current_prio = task->default_prio;
 522              		.loc 1 314 0
 523 0401 8B4508   		movl	8(%ebp), %eax
 524 0404 8A506D   		movb	109(%eax), %dl
 525 0407 8B4508   		movl	8(%ebp), %eax
 526 040a 88506C   		movb	%dl, 108(%eax)
 315:E:/NeuOrga/Programmieren/c_cpp/github_os/input/src/os_base\os_task_scheduler.c ****             OS_TASK_SAVE_SYSTEM_STACK((uint8*)&OS_MAIN_STACK);
 527              		.loc 1 315 0
 528 040d C7042400 		movl	$_OS_MAIN_STACK, (%esp)
 528      000000
 529 0414 E8000000 		call	_OS_TASK_SAVE_SYSTEM_STACK
 529      00
 316:E:/NeuOrga/Programmieren/c_cpp/github_os/input/src/os_base\os_task_scheduler.c ****             OS_TASK_RESTORETASK_ENVIRONMENT(task);
 530              		.loc 1 316 0
 531 0419 8B4508   		movl	8(%ebp), %eax
 532 041c 890424   		movl	%eax, (%esp)
 533 041f E8000000 		call	_OS_TASK_RESTORETASK_ENVIRONMENT
 533      00
 317:E:/NeuOrga/Programmieren/c_cpp/github_os/input/src/os_base\os_task_scheduler.c ****             OS_GetCurrentTime(&time);
 534              		.loc 1 317 0
 535 0424 8D45E8   		leal	-24(%ebp), %eax
 536 0427 890424   		movl	%eax, (%esp)
 537 042a E8000000 		call	_OS_GetCurrentTime
 537      00
 318:E:/NeuOrga/Programmieren/c_cpp/github_os/input/src/os_base\os_task_scheduler.c ****             Assign(&task->start_time, &time);
 538              		.loc 1 318 0
 539 042f 8B4508   		movl	8(%ebp), %eax
 540 0432 8D505C   		leal	92(%eax), %edx
 541 0435 8D45E8   		leal	-24(%ebp), %eax
 542 0438 89442404 		movl	%eax, 4(%esp)
 543 043c 891424   		movl	%edx, (%esp)
 544 043f E8000000 		call	_Assign
 544      00
GAS LISTING C:\Users\PRESID~1\AppData\Local\Temp\ccljw3FC.s 			page 18


 319:E:/NeuOrga/Programmieren/c_cpp/github_os/input/src/os_base\os_task_scheduler.c ****             EnableInterrupts();
 320:E:/NeuOrga/Programmieren/c_cpp/github_os/input/src/os_base\os_task_scheduler.c **** 
 321:E:/NeuOrga/Programmieren/c_cpp/github_os/input/src/os_base\os_task_scheduler.c ****             /* task execution shall not happen with disabled interrupts */
 322:E:/NeuOrga/Programmieren/c_cpp/github_os/input/src/os_base\os_task_scheduler.c ****             SET_RUNNING_TASK(task, scheduling_task);
 545              		.loc 1 322 0
 546 0444 8B450C   		movl	12(%ebp), %eax
 547 0447 89442404 		movl	%eax, 4(%esp)
 548 044b 8B4508   		movl	8(%ebp), %eax
 549 044e 890424   		movl	%eax, (%esp)
 550 0451 E8000000 		call	_SET_RUNNING_TASK
 550      00
 323:E:/NeuOrga/Programmieren/c_cpp/github_os/input/src/os_base\os_task_scheduler.c ****             /* change to user mode... */
 324:E:/NeuOrga/Programmieren/c_cpp/github_os/input/src/os_base\os_task_scheduler.c ****             if(task->privilige_mode == ePriviligeMode_unpriviliged_thread_mode)
 551              		.loc 1 324 0
 552 0456 8B4508   		movl	8(%ebp), %eax
 553 0459 8B80A800 		movl	168(%eax), %eax
 553      0000
 554 045f 85C0     		testl	%eax, %eax
 555 0461 7505     		jne	L56
 325:E:/NeuOrga/Programmieren/c_cpp/github_os/input/src/os_base\os_task_scheduler.c ****             {
 326:E:/NeuOrga/Programmieren/c_cpp/github_os/input/src/os_base\os_task_scheduler.c ****                LLF_CHANGE_TO_UNPRIVILIGED_THREAD_MODE();
 556              		.loc 1 326 0
 557 0463 E8000000 		call	_LLF_CHANGE_TO_UNPRIVILIGED_THREAD_MODE
 557      00
 558              	L56:
 327:E:/NeuOrga/Programmieren/c_cpp/github_os/input/src/os_base\os_task_scheduler.c ****             }
 328:E:/NeuOrga/Programmieren/c_cpp/github_os/input/src/os_base\os_task_scheduler.c **** 
 329:E:/NeuOrga/Programmieren/c_cpp/github_os/input/src/os_base\os_task_scheduler.c ****             /* call the task entry function */
 330:E:/NeuOrga/Programmieren/c_cpp/github_os/input/src/os_base\os_task_scheduler.c ****             task->fp(task);
 559              		.loc 1 330 0
 560 0468 8B4508   		movl	8(%ebp), %eax
 561 046b 8B4074   		movl	116(%eax), %eax
 562 046e 8B5508   		movl	8(%ebp), %edx
 563 0471 891424   		movl	%edx, (%esp)
 564 0474 FFD0     		call	*%eax
 565 0476 EB2A     		jmp	L51
 566              	L55:
 331:E:/NeuOrga/Programmieren/c_cpp/github_os/input/src/os_base\os_task_scheduler.c ****          }
 332:E:/NeuOrga/Programmieren/c_cpp/github_os/input/src/os_base\os_task_scheduler.c ****          else
 333:E:/NeuOrga/Programmieren/c_cpp/github_os/input/src/os_base\os_task_scheduler.c ****          {
 334:E:/NeuOrga/Programmieren/c_cpp/github_os/input/src/os_base\os_task_scheduler.c ****             OS_SetSwBug(os_bug_taskstate_request_denied, Func_StartTask);
 567              		.loc 1 334 0
 568 0478 C7442404 		movl	$6, 4(%esp)
 568      06000000 
 569 0480 C7042401 		movl	$1, (%esp)
 569      000000
 570 0487 E8000000 		call	_OS_SetSwBug
 570      00
 571 048c EB14     		jmp	L51
 572              	L54:
 335:E:/NeuOrga/Programmieren/c_cpp/github_os/input/src/os_base\os_task_scheduler.c ****          }
 336:E:/NeuOrga/Programmieren/c_cpp/github_os/input/src/os_base\os_task_scheduler.c ****       }
 337:E:/NeuOrga/Programmieren/c_cpp/github_os/input/src/os_base\os_task_scheduler.c ****       else
 338:E:/NeuOrga/Programmieren/c_cpp/github_os/input/src/os_base\os_task_scheduler.c ****       {
 339:E:/NeuOrga/Programmieren/c_cpp/github_os/input/src/os_base\os_task_scheduler.c ****          OS_SetSwBug(os_bug_null_pointer, Func_StartTask);
 573              		.loc 1 339 0
 574 048e C7442404 		movl	$6, 4(%esp)
GAS LISTING C:\Users\PRESID~1\AppData\Local\Temp\ccljw3FC.s 			page 19


 574      06000000 
 575 0496 C7042402 		movl	$2, (%esp)
 575      000000
 576 049d E8000000 		call	_OS_SetSwBug
 576      00
 577              	L51:
 340:E:/NeuOrga/Programmieren/c_cpp/github_os/input/src/os_base\os_task_scheduler.c ****       }
 341:E:/NeuOrga/Programmieren/c_cpp/github_os/input/src/os_base\os_task_scheduler.c ****    }
 342:E:/NeuOrga/Programmieren/c_cpp/github_os/input/src/os_base\os_task_scheduler.c ****    /* allowed in case of empty QUEUE elements (queue elements which have no activate_task yet recei
 343:E:/NeuOrga/Programmieren/c_cpp/github_os/input/src/os_base\os_task_scheduler.c ****    else
 344:E:/NeuOrga/Programmieren/c_cpp/github_os/input/src/os_base\os_task_scheduler.c ****    {
 345:E:/NeuOrga/Programmieren/c_cpp/github_os/input/src/os_base\os_task_scheduler.c ****        OS_SetSwBug(os_bug_null_pointer, Func_StartTask);
 346:E:/NeuOrga/Programmieren/c_cpp/github_os/input/src/os_base\os_task_scheduler.c ****    }
 347:E:/NeuOrga/Programmieren/c_cpp/github_os/input/src/os_base\os_task_scheduler.c ****    */
 348:E:/NeuOrga/Programmieren/c_cpp/github_os/input/src/os_base\os_task_scheduler.c **** }
 578              		.loc 1 348 0
 579 04a2 C9       		leave
 580              		.cfi_restore 5
 581              		.cfi_def_cfa 4, 4
 582 04a3 C3       		ret
 583              		.cfi_endproc
 584              	LFE6:
 585              		.globl	_OS_TerminateTask
 587              	_OS_TerminateTask:
 588              	LFB7:
 349:E:/NeuOrga/Programmieren/c_cpp/github_os/input/src/os_base\os_task_scheduler.c **** void OS_TerminateTask(task_t* task, scheduling_t* scheduling_task)
 350:E:/NeuOrga/Programmieren/c_cpp/github_os/input/src/os_base\os_task_scheduler.c **** {
 589              		.loc 1 350 0
 590              		.cfi_startproc
 591 04a4 55       		pushl	%ebp
 592              		.cfi_def_cfa_offset 8
 593              		.cfi_offset 5, -8
 594 04a5 89E5     		movl	%esp, %ebp
 595              		.cfi_def_cfa_register 5
 596 04a7 83EC18   		subl	$24, %esp
 351:E:/NeuOrga/Programmieren/c_cpp/github_os/input/src/os_base\os_task_scheduler.c ****    /* Preempt task
 352:E:/NeuOrga/Programmieren/c_cpp/github_os/input/src/os_base\os_task_scheduler.c ****    - Disable Interrupts
 353:E:/NeuOrga/Programmieren/c_cpp/github_os/input/src/os_base\os_task_scheduler.c ****    - OS_TaskSaveTaskEnvironment
 354:E:/NeuOrga/Programmieren/c_cpp/github_os/input/src/os_base\os_task_scheduler.c ****    - add to Schedule Queue / delete from RunQueue
 355:E:/NeuOrga/Programmieren/c_cpp/github_os/input/src/os_base\os_task_scheduler.c ****    - delete active flag
 356:E:/NeuOrga/Programmieren/c_cpp/github_os/input/src/os_base\os_task_scheduler.c ****    - enable Interrupts
 357:E:/NeuOrga/Programmieren/c_cpp/github_os/input/src/os_base\os_task_scheduler.c ****    */
 358:E:/NeuOrga/Programmieren/c_cpp/github_os/input/src/os_base\os_task_scheduler.c ****    if(task != 0 && scheduling_task != 0)
 597              		.loc 1 358 0
 598 04aa 837D0800 		cmpl	$0, 8(%ebp)
 599 04ae 0F849F00 		je	L59
 599      0000
 600              		.loc 1 358 0 is_stmt 0 discriminator 1
 601 04b4 837D0C00 		cmpl	$0, 12(%ebp)
 602 04b8 0F849500 		je	L59
 602      0000
 359:E:/NeuOrga/Programmieren/c_cpp/github_os/input/src/os_base\os_task_scheduler.c ****    {
 360:E:/NeuOrga/Programmieren/c_cpp/github_os/input/src/os_base\os_task_scheduler.c ****       if(task->state_request != 0)
 603              		.loc 1 360 0 is_stmt 1
 604 04be 8B4508   		movl	8(%ebp), %eax
 605 04c1 8B4078   		movl	120(%eax), %eax
 606 04c4 85C0     		testl	%eax, %eax
GAS LISTING C:\Users\PRESID~1\AppData\Local\Temp\ccljw3FC.s 			page 20


 607 04c6 7475     		je	L60
 361:E:/NeuOrga/Programmieren/c_cpp/github_os/input/src/os_base\os_task_scheduler.c ****       {
 362:E:/NeuOrga/Programmieren/c_cpp/github_os/input/src/os_base\os_task_scheduler.c ****          if(task->state_request(task, Task_suspended)== Accepted)
 608              		.loc 1 362 0
 609 04c8 8B4508   		movl	8(%ebp), %eax
 610 04cb 8B4078   		movl	120(%eax), %eax
 611 04ce C7442404 		movl	$1, 4(%esp)
 611      01000000 
 612 04d6 8B5508   		movl	8(%ebp), %edx
 613 04d9 891424   		movl	%edx, (%esp)
 614 04dc FFD0     		call	*%eax
 615 04de 3C01     		cmpb	$1, %al
 616 04e0 7545     		jne	L61
 363:E:/NeuOrga/Programmieren/c_cpp/github_os/input/src/os_base\os_task_scheduler.c ****          {
 364:E:/NeuOrga/Programmieren/c_cpp/github_os/input/src/os_base\os_task_scheduler.c ****             DisableInterrupts();
 365:E:/NeuOrga/Programmieren/c_cpp/github_os/input/src/os_base\os_task_scheduler.c ****             OS_TaskSaveTaskEnvironment(task);
 617              		.loc 1 365 0
 618 04e2 8B4508   		movl	8(%ebp), %eax
 619 04e5 890424   		movl	%eax, (%esp)
 620 04e8 E8000000 		call	_OS_TaskSaveTaskEnvironment
 620      00
 366:E:/NeuOrga/Programmieren/c_cpp/github_os/input/src/os_base\os_task_scheduler.c ****             OS_TASK_RESTORE_SYSTEM_STACK((uint8*)&OS_MAIN_STACK);
 621              		.loc 1 366 0
 622 04ed C7042400 		movl	$_OS_MAIN_STACK, (%esp)
 622      000000
 623 04f4 E8000000 		call	_OS_TASK_RESTORE_SYSTEM_STACK
 623      00
 367:E:/NeuOrga/Programmieren/c_cpp/github_os/input/src/os_base\os_task_scheduler.c ****             DeleteFromTaskQueue(task);
 624              		.loc 1 367 0
 625 04f9 8B4508   		movl	8(%ebp), %eax
 626 04fc 890424   		movl	%eax, (%esp)
 627 04ff E8000000 		call	_DeleteFromTaskQueue
 627      00
 368:E:/NeuOrga/Programmieren/c_cpp/github_os/input/src/os_base\os_task_scheduler.c ****             DeleteFromSchedulingQueue(scheduling_task);
 628              		.loc 1 368 0
 629 0504 8B450C   		movl	12(%ebp), %eax
 630 0507 890424   		movl	%eax, (%esp)
 631 050a E8000000 		call	_DeleteFromSchedulingQueue
 631      00
 369:E:/NeuOrga/Programmieren/c_cpp/github_os/input/src/os_base\os_task_scheduler.c **** 
 370:E:/NeuOrga/Programmieren/c_cpp/github_os/input/src/os_base\os_task_scheduler.c ****             task->active = False;
 632              		.loc 1 370 0
 633 050f 8B4508   		movl	8(%ebp), %eax
 634 0512 8A10     		movb	(%eax), %dl
 635 0514 83E2FE   		andl	$-2, %edx
 636 0517 8810     		movb	%dl, (%eax)
 371:E:/NeuOrga/Programmieren/c_cpp/github_os/input/src/os_base\os_task_scheduler.c ****             /* reset the prio increase for waiting */
 372:E:/NeuOrga/Programmieren/c_cpp/github_os/input/src/os_base\os_task_scheduler.c ****             task->current_prio = task->default_prio;
 637              		.loc 1 372 0
 638 0519 8B4508   		movl	8(%ebp), %eax
 639 051c 8A506D   		movb	109(%eax), %dl
 640 051f 8B4508   		movl	8(%ebp), %eax
 641 0522 88506C   		movb	%dl, 108(%eax)
 360:E:/NeuOrga/Programmieren/c_cpp/github_os/input/src/os_base\os_task_scheduler.c ****       {
 642              		.loc 1 360 0
 643 0525 EB40     		jmp	L58
 644              	L61:
GAS LISTING C:\Users\PRESID~1\AppData\Local\Temp\ccljw3FC.s 			page 21


 373:E:/NeuOrga/Programmieren/c_cpp/github_os/input/src/os_base\os_task_scheduler.c ****             EnableInterrupts();
 374:E:/NeuOrga/Programmieren/c_cpp/github_os/input/src/os_base\os_task_scheduler.c ****          }
 375:E:/NeuOrga/Programmieren/c_cpp/github_os/input/src/os_base\os_task_scheduler.c ****          else
 376:E:/NeuOrga/Programmieren/c_cpp/github_os/input/src/os_base\os_task_scheduler.c ****          {
 377:E:/NeuOrga/Programmieren/c_cpp/github_os/input/src/os_base\os_task_scheduler.c ****             OS_SetSwBug(os_bug_taskstate_request_denied, Func_TerminateTask);
 645              		.loc 1 377 0
 646 0527 C7442404 		movl	$8, 4(%esp)
 646      08000000 
 647 052f C7042401 		movl	$1, (%esp)
 647      000000
 648 0536 E8000000 		call	_OS_SetSwBug
 648      00
 360:E:/NeuOrga/Programmieren/c_cpp/github_os/input/src/os_base\os_task_scheduler.c ****       {
 649              		.loc 1 360 0
 650 053b EB2A     		jmp	L58
 651              	L60:
 378:E:/NeuOrga/Programmieren/c_cpp/github_os/input/src/os_base\os_task_scheduler.c ****          }
 379:E:/NeuOrga/Programmieren/c_cpp/github_os/input/src/os_base\os_task_scheduler.c ****       }
 380:E:/NeuOrga/Programmieren/c_cpp/github_os/input/src/os_base\os_task_scheduler.c ****       else
 381:E:/NeuOrga/Programmieren/c_cpp/github_os/input/src/os_base\os_task_scheduler.c ****       {
 382:E:/NeuOrga/Programmieren/c_cpp/github_os/input/src/os_base\os_task_scheduler.c ****          OS_SetSwBug(os_bug_null_pointer, Func_TerminateTask);
 652              		.loc 1 382 0
 653 053d C7442404 		movl	$8, 4(%esp)
 653      08000000 
 654 0545 C7042402 		movl	$2, (%esp)
 654      000000
 655 054c E8000000 		call	_OS_SetSwBug
 655      00
 360:E:/NeuOrga/Programmieren/c_cpp/github_os/input/src/os_base\os_task_scheduler.c ****       {
 656              		.loc 1 360 0
 657 0551 EB14     		jmp	L58
 658              	L59:
 383:E:/NeuOrga/Programmieren/c_cpp/github_os/input/src/os_base\os_task_scheduler.c ****       }
 384:E:/NeuOrga/Programmieren/c_cpp/github_os/input/src/os_base\os_task_scheduler.c ****    }
 385:E:/NeuOrga/Programmieren/c_cpp/github_os/input/src/os_base\os_task_scheduler.c ****    else
 386:E:/NeuOrga/Programmieren/c_cpp/github_os/input/src/os_base\os_task_scheduler.c ****    {
 387:E:/NeuOrga/Programmieren/c_cpp/github_os/input/src/os_base\os_task_scheduler.c ****       OS_SetSwBug(os_bug_null_pointer, Func_TerminateTask);
 659              		.loc 1 387 0
 660 0553 C7442404 		movl	$8, 4(%esp)
 660      08000000 
 661 055b C7042402 		movl	$2, (%esp)
 661      000000
 662 0562 E8000000 		call	_OS_SetSwBug
 662      00
 663              	L58:
 388:E:/NeuOrga/Programmieren/c_cpp/github_os/input/src/os_base\os_task_scheduler.c ****    }
 389:E:/NeuOrga/Programmieren/c_cpp/github_os/input/src/os_base\os_task_scheduler.c **** }
 664              		.loc 1 389 0
 665 0567 C9       		leave
 666              		.cfi_restore 5
 667              		.cfi_def_cfa 4, 4
 668 0568 C3       		ret
 669              		.cfi_endproc
 670              	LFE7:
 671              		.globl	_OS_TaskDispatcher
 673              	_OS_TaskDispatcher:
 674              	LFB8:
GAS LISTING C:\Users\PRESID~1\AppData\Local\Temp\ccljw3FC.s 			page 22


 390:E:/NeuOrga/Programmieren/c_cpp/github_os/input/src/os_base\os_task_scheduler.c **** void OS_TaskDispatcher(void)
 391:E:/NeuOrga/Programmieren/c_cpp/github_os/input/src/os_base\os_task_scheduler.c **** {
 675              		.loc 1 391 0
 676              		.cfi_startproc
 677 0569 55       		pushl	%ebp
 678              		.cfi_def_cfa_offset 8
 679              		.cfi_offset 5, -8
 680 056a 89E5     		movl	%esp, %ebp
 681              		.cfi_def_cfa_register 5
 682 056c 83EC28   		subl	$40, %esp
 392:E:/NeuOrga/Programmieren/c_cpp/github_os/input/src/os_base\os_task_scheduler.c ****    /* called in an certain core context (Core_0/1/2/3)*/
 393:E:/NeuOrga/Programmieren/c_cpp/github_os/input/src/os_base\os_task_scheduler.c **** 
 394:E:/NeuOrga/Programmieren/c_cpp/github_os/input/src/os_base\os_task_scheduler.c **** 
 395:E:/NeuOrga/Programmieren/c_cpp/github_os/input/src/os_base\os_task_scheduler.c ****    /*
 396:E:/NeuOrga/Programmieren/c_cpp/github_os/input/src/os_base\os_task_scheduler.c ****    1. running     --(terminate)--> suspend
 397:E:/NeuOrga/Programmieren/c_cpp/github_os/input/src/os_base\os_task_scheduler.c ****    2. running     --(preempt  )--> ready
 398:E:/NeuOrga/Programmieren/c_cpp/github_os/input/src/os_base\os_task_scheduler.c ****    3. suspend     --(activate )--> ready
 399:E:/NeuOrga/Programmieren/c_cpp/github_os/input/src/os_base\os_task_scheduler.c ****    4. ready       --(start    )--> running
 400:E:/NeuOrga/Programmieren/c_cpp/github_os/input/src/os_base\os_task_scheduler.c ****    5. unspecified --(create   )--> suspend
 401:E:/NeuOrga/Programmieren/c_cpp/github_os/input/src/os_base\os_task_scheduler.c ****    */
 402:E:/NeuOrga/Programmieren/c_cpp/github_os/input/src/os_base\os_task_scheduler.c ****    scheduling_t* scheduling_task_ptr;
 403:E:/NeuOrga/Programmieren/c_cpp/github_os/input/src/os_base\os_task_scheduler.c ****    task_t* task = 0;
 683              		.loc 1 403 0
 684 056f C745F400 		movl	$0, -12(%ebp)
 684      000000
 404:E:/NeuOrga/Programmieren/c_cpp/github_os/input/src/os_base\os_task_scheduler.c ****    /* get running task */
 405:E:/NeuOrga/Programmieren/c_cpp/github_os/input/src/os_base\os_task_scheduler.c ****    task         = GetRunningTask();
 685              		.loc 1 405 0
 686 0576 E8000000 		call	_GetRunningTask
 686      00
 687 057b 8945F4   		movl	%eax, -12(%ebp)
 406:E:/NeuOrga/Programmieren/c_cpp/github_os/input/src/os_base\os_task_scheduler.c ****    scheduling_task_ptr = GetRunningSchedulingQueueElementPtr();
 688              		.loc 1 406 0
 689 057e E8000000 		call	_GetRunningSchedulingQueueElementPtr
 689      00
 690 0583 8945F0   		movl	%eax, -16(%ebp)
 407:E:/NeuOrga/Programmieren/c_cpp/github_os/input/src/os_base\os_task_scheduler.c ****    /* Preempt Task */
 408:E:/NeuOrga/Programmieren/c_cpp/github_os/input/src/os_base\os_task_scheduler.c ****    if(task!=0 && scheduling_task_ptr != 0)
 691              		.loc 1 408 0
 692 0586 837DF400 		cmpl	$0, -12(%ebp)
 693 058a 7418     		je	L66
 694              		.loc 1 408 0 is_stmt 0 discriminator 1
 695 058c 837DF000 		cmpl	$0, -16(%ebp)
 696 0590 7412     		je	L66
 409:E:/NeuOrga/Programmieren/c_cpp/github_os/input/src/os_base\os_task_scheduler.c ****    {
 410:E:/NeuOrga/Programmieren/c_cpp/github_os/input/src/os_base\os_task_scheduler.c ****       OS_TerminateTask(task, scheduling_task_ptr);
 697              		.loc 1 410 0 is_stmt 1
 698 0592 8B45F0   		movl	-16(%ebp), %eax
 699 0595 89442404 		movl	%eax, 4(%esp)
 700 0599 8B45F4   		movl	-12(%ebp), %eax
 701 059c 890424   		movl	%eax, (%esp)
 702 059f E800FFFF 		call	_OS_TerminateTask
 702      FF
 703              	L66:
 411:E:/NeuOrga/Programmieren/c_cpp/github_os/input/src/os_base\os_task_scheduler.c ****    }
 412:E:/NeuOrga/Programmieren/c_cpp/github_os/input/src/os_base\os_task_scheduler.c ****    /* ask for the next task to be activated... */
 413:E:/NeuOrga/Programmieren/c_cpp/github_os/input/src/os_base\os_task_scheduler.c ****    scheduling_task_ptr = OS_TaskScheduler();
GAS LISTING C:\Users\PRESID~1\AppData\Local\Temp\ccljw3FC.s 			page 23


 704              		.loc 1 413 0
 705 05a4 E88C0200 		call	_OS_TaskScheduler
 705      00
 706 05a9 8945F0   		movl	%eax, -16(%ebp)
 414:E:/NeuOrga/Programmieren/c_cpp/github_os/input/src/os_base\os_task_scheduler.c ****    if(scheduling_task_ptr != 0)
 707              		.loc 1 414 0
 708 05ac 837DF000 		cmpl	$0, -16(%ebp)
 709 05b0 740E     		je	L67
 415:E:/NeuOrga/Programmieren/c_cpp/github_os/input/src/os_base\os_task_scheduler.c ****    {
 416:E:/NeuOrga/Programmieren/c_cpp/github_os/input/src/os_base\os_task_scheduler.c ****       task = GetFromTaskQueue(scheduling_task_ptr);
 710              		.loc 1 416 0
 711 05b2 8B45F0   		movl	-16(%ebp), %eax
 712 05b5 890424   		movl	%eax, (%esp)
 713 05b8 E8000000 		call	_GetFromTaskQueue
 713      00
 714 05bd 8945F4   		movl	%eax, -12(%ebp)
 715              	L67:
 417:E:/NeuOrga/Programmieren/c_cpp/github_os/input/src/os_base\os_task_scheduler.c ****    }
 418:E:/NeuOrga/Programmieren/c_cpp/github_os/input/src/os_base\os_task_scheduler.c ****    if(task != 0 && scheduling_task_ptr != 0)
 716              		.loc 1 418 0
 717 05c0 837DF400 		cmpl	$0, -12(%ebp)
 718 05c4 7418     		je	L65
 719              		.loc 1 418 0 is_stmt 0 discriminator 1
 720 05c6 837DF000 		cmpl	$0, -16(%ebp)
 721 05ca 7412     		je	L65
 419:E:/NeuOrga/Programmieren/c_cpp/github_os/input/src/os_base\os_task_scheduler.c ****    {
 420:E:/NeuOrga/Programmieren/c_cpp/github_os/input/src/os_base\os_task_scheduler.c ****        OS_StartTask(task, scheduling_task_ptr);
 722              		.loc 1 420 0 is_stmt 1
 723 05cc 8B45F0   		movl	-16(%ebp), %eax
 724 05cf 89442404 		movl	%eax, 4(%esp)
 725 05d3 8B45F4   		movl	-12(%ebp), %eax
 726 05d6 890424   		movl	%eax, (%esp)
 727 05d9 E8A9FDFF 		call	_OS_StartTask
 727      FF
 728              	L65:
 421:E:/NeuOrga/Programmieren/c_cpp/github_os/input/src/os_base\os_task_scheduler.c ****    }
 422:E:/NeuOrga/Programmieren/c_cpp/github_os/input/src/os_base\os_task_scheduler.c **** }
 729              		.loc 1 422 0
 730 05de C9       		leave
 731              		.cfi_restore 5
 732              		.cfi_def_cfa 4, 4
 733 05df C3       		ret
 734              		.cfi_endproc
 735              	LFE8:
 737              	_TASK_0:
 738              	LFB9:
 423:E:/NeuOrga/Programmieren/c_cpp/github_os/input/src/os_base\os_task_scheduler.c **** Local void TASK_0(void* task_ptr)
 424:E:/NeuOrga/Programmieren/c_cpp/github_os/input/src/os_base\os_task_scheduler.c **** {
 739              		.loc 1 424 0
 740              		.cfi_startproc
 741 05e0 55       		pushl	%ebp
 742              		.cfi_def_cfa_offset 8
 743              		.cfi_offset 5, -8
 744 05e1 89E5     		movl	%esp, %ebp
 745              		.cfi_def_cfa_register 5
 425:E:/NeuOrga/Programmieren/c_cpp/github_os/input/src/os_base\os_task_scheduler.c ****    ReferenceUnusedParameter(task_ptr);
 426:E:/NeuOrga/Programmieren/c_cpp/github_os/input/src/os_base\os_task_scheduler.c ****    HaltMcu();/* HLT will be ended by timer interrupt, what shall be done with the rest of the funct
GAS LISTING C:\Users\PRESID~1\AppData\Local\Temp\ccljw3FC.s 			page 24


 427:E:/NeuOrga/Programmieren/c_cpp/github_os/input/src/os_base\os_task_scheduler.c **** }
 746              		.loc 1 427 0
 747 05e3 5D       		popl	%ebp
 748              		.cfi_restore 5
 749              		.cfi_def_cfa 4, 4
 750 05e4 C3       		ret
 751              		.cfi_endproc
 752              	LFE9:
 754              	_TASK_1:
 755              	LFB10:
 428:E:/NeuOrga/Programmieren/c_cpp/github_os/input/src/os_base\os_task_scheduler.c **** Local void TASK_1(void* task_ptr)
 429:E:/NeuOrga/Programmieren/c_cpp/github_os/input/src/os_base\os_task_scheduler.c **** {
 756              		.loc 1 429 0
 757              		.cfi_startproc
 758 05e5 55       		pushl	%ebp
 759              		.cfi_def_cfa_offset 8
 760              		.cfi_offset 5, -8
 761 05e6 89E5     		movl	%esp, %ebp
 762              		.cfi_def_cfa_register 5
 763 05e8 83EC28   		subl	$40, %esp
 430:E:/NeuOrga/Programmieren/c_cpp/github_os/input/src/os_base\os_task_scheduler.c ****    scheduling_t* scheduling_task_ptr = 0;
 764              		.loc 1 430 0
 765 05eb C745F400 		movl	$0, -12(%ebp)
 765      000000
 431:E:/NeuOrga/Programmieren/c_cpp/github_os/input/src/os_base\os_task_scheduler.c ****    ReferenceUnusedParameter(task_ptr);
 432:E:/NeuOrga/Programmieren/c_cpp/github_os/input/src/os_base\os_task_scheduler.c ****    /* worker task */
 433:E:/NeuOrga/Programmieren/c_cpp/github_os/input/src/os_base\os_task_scheduler.c ****    scheduling_task_ptr = GetRunningSchedulingQueueElementPtr();
 766              		.loc 1 433 0
 767 05f2 E8000000 		call	_GetRunningSchedulingQueueElementPtr
 767      00
 768 05f7 8945F4   		movl	%eax, -12(%ebp)
 434:E:/NeuOrga/Programmieren/c_cpp/github_os/input/src/os_base\os_task_scheduler.c ****    /* do some things */
 435:E:/NeuOrga/Programmieren/c_cpp/github_os/input/src/os_base\os_task_scheduler.c ****    TASK1_CALL_NR++;
 769              		.loc 1 435 0
 770 05fa A1000000 		movl	_TASK1_CALL_NR, %eax
 770      00
 771 05ff 40       		incl	%eax
 772 0600 A3000000 		movl	%eax, _TASK1_CALL_NR
 772      00
 436:E:/NeuOrga/Programmieren/c_cpp/github_os/input/src/os_base\os_task_scheduler.c **** 
 437:E:/NeuOrga/Programmieren/c_cpp/github_os/input/src/os_base\os_task_scheduler.c **** 
 438:E:/NeuOrga/Programmieren/c_cpp/github_os/input/src/os_base\os_task_scheduler.c ****    /* end */
 439:E:/NeuOrga/Programmieren/c_cpp/github_os/input/src/os_base\os_task_scheduler.c ****    OS_TerminateTask(task_ptr,scheduling_task_ptr);
 773              		.loc 1 439 0
 774 0605 8B45F4   		movl	-12(%ebp), %eax
 775 0608 89442404 		movl	%eax, 4(%esp)
 776 060c 8B4508   		movl	8(%ebp), %eax
 777 060f 890424   		movl	%eax, (%esp)
 778 0612 E88DFEFF 		call	_OS_TerminateTask
 778      FF
 440:E:/NeuOrga/Programmieren/c_cpp/github_os/input/src/os_base\os_task_scheduler.c **** }
 779              		.loc 1 440 0
 780 0617 C9       		leave
 781              		.cfi_restore 5
 782              		.cfi_def_cfa 4, 4
 783 0618 C3       		ret
 784              		.cfi_endproc
GAS LISTING C:\Users\PRESID~1\AppData\Local\Temp\ccljw3FC.s 			page 25


 785              	LFE10:
 787              	_TASK_2:
 788              	LFB11:
 441:E:/NeuOrga/Programmieren/c_cpp/github_os/input/src/os_base\os_task_scheduler.c **** Local void TASK_2(void* task_ptr)
 442:E:/NeuOrga/Programmieren/c_cpp/github_os/input/src/os_base\os_task_scheduler.c **** {
 789              		.loc 1 442 0
 790              		.cfi_startproc
 791 0619 55       		pushl	%ebp
 792              		.cfi_def_cfa_offset 8
 793              		.cfi_offset 5, -8
 794 061a 89E5     		movl	%esp, %ebp
 795              		.cfi_def_cfa_register 5
 796 061c 83EC28   		subl	$40, %esp
 443:E:/NeuOrga/Programmieren/c_cpp/github_os/input/src/os_base\os_task_scheduler.c ****    scheduling_t* scheduling_task_ptr = 0;
 797              		.loc 1 443 0
 798 061f C745F400 		movl	$0, -12(%ebp)
 798      000000
 444:E:/NeuOrga/Programmieren/c_cpp/github_os/input/src/os_base\os_task_scheduler.c ****    ReferenceUnusedParameter(task_ptr);
 445:E:/NeuOrga/Programmieren/c_cpp/github_os/input/src/os_base\os_task_scheduler.c ****    /* worker task */
 446:E:/NeuOrga/Programmieren/c_cpp/github_os/input/src/os_base\os_task_scheduler.c ****    scheduling_task_ptr = GetRunningSchedulingQueueElementPtr();
 799              		.loc 1 446 0
 800 0626 E8000000 		call	_GetRunningSchedulingQueueElementPtr
 800      00
 801 062b 8945F4   		movl	%eax, -12(%ebp)
 447:E:/NeuOrga/Programmieren/c_cpp/github_os/input/src/os_base\os_task_scheduler.c ****    /* do some things */
 448:E:/NeuOrga/Programmieren/c_cpp/github_os/input/src/os_base\os_task_scheduler.c ****    TASK1_CALL_NR++;
 802              		.loc 1 448 0
 803 062e A1000000 		movl	_TASK1_CALL_NR, %eax
 803      00
 804 0633 40       		incl	%eax
 805 0634 A3000000 		movl	%eax, _TASK1_CALL_NR
 805      00
 449:E:/NeuOrga/Programmieren/c_cpp/github_os/input/src/os_base\os_task_scheduler.c **** 
 450:E:/NeuOrga/Programmieren/c_cpp/github_os/input/src/os_base\os_task_scheduler.c **** 
 451:E:/NeuOrga/Programmieren/c_cpp/github_os/input/src/os_base\os_task_scheduler.c ****    /* end */
 452:E:/NeuOrga/Programmieren/c_cpp/github_os/input/src/os_base\os_task_scheduler.c ****    OS_TerminateTask(task_ptr,scheduling_task_ptr);
 806              		.loc 1 452 0
 807 0639 8B45F4   		movl	-12(%ebp), %eax
 808 063c 89442404 		movl	%eax, 4(%esp)
 809 0640 8B4508   		movl	8(%ebp), %eax
 810 0643 890424   		movl	%eax, (%esp)
 811 0646 E859FEFF 		call	_OS_TerminateTask
 811      FF
 453:E:/NeuOrga/Programmieren/c_cpp/github_os/input/src/os_base\os_task_scheduler.c **** }
 812              		.loc 1 453 0
 813 064b C9       		leave
 814              		.cfi_restore 5
 815              		.cfi_def_cfa 4, 4
 816 064c C3       		ret
 817              		.cfi_endproc
 818              	LFE11:
 820              	_TASK_3:
 821              	LFB12:
 454:E:/NeuOrga/Programmieren/c_cpp/github_os/input/src/os_base\os_task_scheduler.c **** Local void TASK_3(void* task_ptr)
 455:E:/NeuOrga/Programmieren/c_cpp/github_os/input/src/os_base\os_task_scheduler.c **** {
 822              		.loc 1 455 0
 823              		.cfi_startproc
GAS LISTING C:\Users\PRESID~1\AppData\Local\Temp\ccljw3FC.s 			page 26


 824 064d 55       		pushl	%ebp
 825              		.cfi_def_cfa_offset 8
 826              		.cfi_offset 5, -8
 827 064e 89E5     		movl	%esp, %ebp
 828              		.cfi_def_cfa_register 5
 829 0650 83EC28   		subl	$40, %esp
 456:E:/NeuOrga/Programmieren/c_cpp/github_os/input/src/os_base\os_task_scheduler.c ****    scheduling_t* scheduling_task_ptr = 0;
 830              		.loc 1 456 0
 831 0653 C745F400 		movl	$0, -12(%ebp)
 831      000000
 457:E:/NeuOrga/Programmieren/c_cpp/github_os/input/src/os_base\os_task_scheduler.c ****    ReferenceUnusedParameter(task_ptr);
 458:E:/NeuOrga/Programmieren/c_cpp/github_os/input/src/os_base\os_task_scheduler.c ****    /* worker task */
 459:E:/NeuOrga/Programmieren/c_cpp/github_os/input/src/os_base\os_task_scheduler.c ****    scheduling_task_ptr = GetRunningSchedulingQueueElementPtr();
 832              		.loc 1 459 0
 833 065a E8000000 		call	_GetRunningSchedulingQueueElementPtr
 833      00
 834 065f 8945F4   		movl	%eax, -12(%ebp)
 460:E:/NeuOrga/Programmieren/c_cpp/github_os/input/src/os_base\os_task_scheduler.c ****    /* do some things */
 461:E:/NeuOrga/Programmieren/c_cpp/github_os/input/src/os_base\os_task_scheduler.c ****    TASK1_CALL_NR++;
 835              		.loc 1 461 0
 836 0662 A1000000 		movl	_TASK1_CALL_NR, %eax
 836      00
 837 0667 40       		incl	%eax
 838 0668 A3000000 		movl	%eax, _TASK1_CALL_NR
 838      00
 462:E:/NeuOrga/Programmieren/c_cpp/github_os/input/src/os_base\os_task_scheduler.c **** 
 463:E:/NeuOrga/Programmieren/c_cpp/github_os/input/src/os_base\os_task_scheduler.c **** 
 464:E:/NeuOrga/Programmieren/c_cpp/github_os/input/src/os_base\os_task_scheduler.c ****    /* end */
 465:E:/NeuOrga/Programmieren/c_cpp/github_os/input/src/os_base\os_task_scheduler.c ****    OS_TerminateTask(task_ptr,scheduling_task_ptr);
 839              		.loc 1 465 0
 840 066d 8B45F4   		movl	-12(%ebp), %eax
 841 0670 89442404 		movl	%eax, 4(%esp)
 842 0674 8B4508   		movl	8(%ebp), %eax
 843 0677 890424   		movl	%eax, (%esp)
 844 067a E825FEFF 		call	_OS_TerminateTask
 844      FF
 466:E:/NeuOrga/Programmieren/c_cpp/github_os/input/src/os_base\os_task_scheduler.c **** }
 845              		.loc 1 466 0
 846 067f C9       		leave
 847              		.cfi_restore 5
 848              		.cfi_def_cfa 4, 4
 849 0680 C3       		ret
 850              		.cfi_endproc
 851              	LFE12:
 852              		.globl	_OS_InitTasks
 854              	_OS_InitTasks:
 855              	LFB13:
 467:E:/NeuOrga/Programmieren/c_cpp/github_os/input/src/os_base\os_task_scheduler.c **** void OS_InitTasks(void)
 468:E:/NeuOrga/Programmieren/c_cpp/github_os/input/src/os_base\os_task_scheduler.c **** {
 856              		.loc 1 468 0
 857              		.cfi_startproc
 858 0681 55       		pushl	%ebp
 859              		.cfi_def_cfa_offset 8
 860              		.cfi_offset 5, -8
 861 0682 89E5     		movl	%esp, %ebp
 862              		.cfi_def_cfa_register 5
 863 0684 83EC48   		subl	$72, %esp
GAS LISTING C:\Users\PRESID~1\AppData\Local\Temp\ccljw3FC.s 			page 27


 469:E:/NeuOrga/Programmieren/c_cpp/github_os/input/src/os_base\os_task_scheduler.c ****    task_t* task_ptr = 0;
 864              		.loc 1 469 0
 865 0687 C745F400 		movl	$0, -12(%ebp)
 865      000000
 470:E:/NeuOrga/Programmieren/c_cpp/github_os/input/src/os_base\os_task_scheduler.c ****    OS_GetCurrentTime(&LAST_CURRENT_TIME);
 866              		.loc 1 470 0
 867 068e C7042400 		movl	$_LAST_CURRENT_TIME, (%esp)
 867      000000
 868 0695 E8000000 		call	_OS_GetCurrentTime
 868      00
 471:E:/NeuOrga/Programmieren/c_cpp/github_os/input/src/os_base\os_task_scheduler.c **** 
 472:E:/NeuOrga/Programmieren/c_cpp/github_os/input/src/os_base\os_task_scheduler.c ****    ReferenceUnusedParameter (TASK_GROUP_1);
 473:E:/NeuOrga/Programmieren/c_cpp/github_os/input/src/os_base\os_task_scheduler.c ****    ReferenceUnusedParameter (TASK_GROUP_2);
 474:E:/NeuOrga/Programmieren/c_cpp/github_os/input/src/os_base\os_task_scheduler.c ****    ReferenceUnusedParameter (TASK_GROUP_3);
 475:E:/NeuOrga/Programmieren/c_cpp/github_os/input/src/os_base\os_task_scheduler.c ****    ReferenceUnusedParameter (TASK_GROUP_4);
 476:E:/NeuOrga/Programmieren/c_cpp/github_os/input/src/os_base\os_task_scheduler.c ****    ReferenceUnusedParameter (TASK_GROUP_5);
 477:E:/NeuOrga/Programmieren/c_cpp/github_os/input/src/os_base\os_task_scheduler.c **** 
 478:E:/NeuOrga/Programmieren/c_cpp/github_os/input/src/os_base\os_task_scheduler.c ****     /*
 479:E:/NeuOrga/Programmieren/c_cpp/github_os/input/src/os_base\os_task_scheduler.c ****    set task_state for all tasks to Task_unspecified
 480:E:/NeuOrga/Programmieren/c_cpp/github_os/input/src/os_base\os_task_scheduler.c ****     */
 481:E:/NeuOrga/Programmieren/c_cpp/github_os/input/src/os_base\os_task_scheduler.c ****    OS_InitTaskQueue();
 869              		.loc 1 481 0
 870 069a E8000000 		call	_OS_InitTaskQueue
 870      00
 482:E:/NeuOrga/Programmieren/c_cpp/github_os/input/src/os_base\os_task_scheduler.c **** 
 483:E:/NeuOrga/Programmieren/c_cpp/github_os/input/src/os_base\os_task_scheduler.c ****    /* setup idle task */
 484:E:/NeuOrga/Programmieren/c_cpp/github_os/input/src/os_base\os_task_scheduler.c ****    task_ptr = &TASK_0_VAR;
 871              		.loc 1 484 0
 872 069f C745F400 		movl	$_TASK_0_VAR, -12(%ebp)
 872      000000
 485:E:/NeuOrga/Programmieren/c_cpp/github_os/input/src/os_base\os_task_scheduler.c ****    OS_InitTask(task_ptr,                          /* task */
 873              		.loc 1 485 0
 874 06a6 C7442424 		movl	$0, 36(%esp)
 874      00000000 
 875 06ae C7442420 		movl	$0, 32(%esp)
 875      00000000 
 876 06b6 C744241C 		movl	$0, 28(%esp)
 876      00000000 
 877 06be C7442418 		movl	$200, 24(%esp)
 877      C8000000 
 878 06c6 C7442414 		movl	$_TASK_STACK, 20(%esp)
 878      00000000 
 879 06ce C7442410 		movl	$_TASK_GROUP_1, 16(%esp)
 879      00000000 
 880 06d6 C744240C 		movl	$1, 12(%esp)
 880      01000000 
 881 06de C7442408 		movl	$1, 8(%esp)
 881      01000000 
 882 06e6 C7442404 		movl	$_TASK_0, 4(%esp)
 882      E0050000 
 883 06ee 8B45F4   		movl	-12(%ebp), %eax
 884 06f1 890424   		movl	%eax, (%esp)
 885 06f4 E8000000 		call	_OS_InitTask
 885      00
 486:E:/NeuOrga/Programmieren/c_cpp/github_os/input/src/os_base\os_task_scheduler.c ****                 &TASK_0,                           /* Task Function*/
 487:E:/NeuOrga/Programmieren/c_cpp/github_os/input/src/os_base\os_task_scheduler.c ****                 1,                                 /* Nr of allowed instances*/
 488:E:/NeuOrga/Programmieren/c_cpp/github_os/input/src/os_base\os_task_scheduler.c ****                 True,                              /* Idle Task */
GAS LISTING C:\Users\PRESID~1\AppData\Local\Temp\ccljw3FC.s 			page 28


 489:E:/NeuOrga/Programmieren/c_cpp/github_os/input/src/os_base\os_task_scheduler.c ****                 &TASK_GROUP_1,                     /* Task Group */
 490:E:/NeuOrga/Programmieren/c_cpp/github_os/input/src/os_base\os_task_scheduler.c ****                 (unsigned_char_t*)&TASK_STACK[0],  /* Task_stack */
 491:E:/NeuOrga/Programmieren/c_cpp/github_os/input/src/os_base\os_task_scheduler.c ****                 200,                                /* Stack Size */
 492:E:/NeuOrga/Programmieren/c_cpp/github_os/input/src/os_base\os_task_scheduler.c ****                 ePriviligeMode_unpriviliged_thread_mode, /* Unpriviliged Thread Mode */
 493:E:/NeuOrga/Programmieren/c_cpp/github_os/input/src/os_base\os_task_scheduler.c ****                 Core0,                            /* Cortex M4 has only 1 core */
 494:E:/NeuOrga/Programmieren/c_cpp/github_os/input/src/os_base\os_task_scheduler.c ****                 0                                   /* default prio */
 495:E:/NeuOrga/Programmieren/c_cpp/github_os/input/src/os_base\os_task_scheduler.c ****                );
 496:E:/NeuOrga/Programmieren/c_cpp/github_os/input/src/os_base\os_task_scheduler.c ****    AddToSchedulingQueue(task_ptr);
 886              		.loc 1 496 0
 887 06f9 8B45F4   		movl	-12(%ebp), %eax
 888 06fc 890424   		movl	%eax, (%esp)
 889 06ff E8000000 		call	_AddToSchedulingQueue
 889      00
 497:E:/NeuOrga/Programmieren/c_cpp/github_os/input/src/os_base\os_task_scheduler.c ****    OS_SaveTaskPtr(task_ptr, Task_0_ptr);
 498:E:/NeuOrga/Programmieren/c_cpp/github_os/input/src/os_base\os_task_scheduler.c **** 
 499:E:/NeuOrga/Programmieren/c_cpp/github_os/input/src/os_base\os_task_scheduler.c ****    /* setup worker task */
 500:E:/NeuOrga/Programmieren/c_cpp/github_os/input/src/os_base\os_task_scheduler.c ****    task_ptr = &TASK_1_VAR;
 890              		.loc 1 500 0
 891 0704 C745F400 		movl	$_TASK_1_VAR, -12(%ebp)
 891      000000
 501:E:/NeuOrga/Programmieren/c_cpp/github_os/input/src/os_base\os_task_scheduler.c ****    OS_InitTask(task_ptr,      /* task */
 892              		.loc 1 501 0
 893 070b C7442424 		movl	$1, 36(%esp)
 893      01000000 
 894 0713 C7442420 		movl	$0, 32(%esp)
 894      00000000 
 895 071b C744241C 		movl	$0, 28(%esp)
 895      00000000 
 896 0723 C7442418 		movl	$200, 24(%esp)
 896      C8000000 
 897 072b C7442414 		movl	$_TASK_STACK+2000, 20(%esp)
 897      D0070000 
 898 0733 C7442410 		movl	$_TASK_GROUP_1, 16(%esp)
 898      00000000 
 899 073b C744240C 		movl	$0, 12(%esp)
 899      00000000 
 900 0743 C7442408 		movl	$1, 8(%esp)
 900      01000000 
 901 074b C7442404 		movl	$_TASK_1, 4(%esp)
 901      E5050000 
 902 0753 8B45F4   		movl	-12(%ebp), %eax
 903 0756 890424   		movl	%eax, (%esp)
 904 0759 E8000000 		call	_OS_InitTask
 904      00
 502:E:/NeuOrga/Programmieren/c_cpp/github_os/input/src/os_base\os_task_scheduler.c ****                 &TASK_1,       /* Task Function*/
 503:E:/NeuOrga/Programmieren/c_cpp/github_os/input/src/os_base\os_task_scheduler.c ****                 1,             /* Nr of allowed instances*/
 504:E:/NeuOrga/Programmieren/c_cpp/github_os/input/src/os_base\os_task_scheduler.c ****                 False,          /* Idle Task */
 505:E:/NeuOrga/Programmieren/c_cpp/github_os/input/src/os_base\os_task_scheduler.c ****                 &TASK_GROUP_1, /* Task Group */
 506:E:/NeuOrga/Programmieren/c_cpp/github_os/input/src/os_base\os_task_scheduler.c ****                 (unsigned_char_t*)&TASK_STACK[1],/* Task_stack */
 507:E:/NeuOrga/Programmieren/c_cpp/github_os/input/src/os_base\os_task_scheduler.c ****                 200,            /* Stack Size */
 508:E:/NeuOrga/Programmieren/c_cpp/github_os/input/src/os_base\os_task_scheduler.c ****                 ePriviligeMode_unpriviliged_thread_mode, /* Unpriviliged Thread Mode */
 509:E:/NeuOrga/Programmieren/c_cpp/github_os/input/src/os_base\os_task_scheduler.c ****                 Core0,
 510:E:/NeuOrga/Programmieren/c_cpp/github_os/input/src/os_base\os_task_scheduler.c ****                 1                                   /* default prio */
 511:E:/NeuOrga/Programmieren/c_cpp/github_os/input/src/os_base\os_task_scheduler.c ****                );
 512:E:/NeuOrga/Programmieren/c_cpp/github_os/input/src/os_base\os_task_scheduler.c ****    AddToSchedulingQueue(task_ptr);
 905              		.loc 1 512 0
 906 075e 8B45F4   		movl	-12(%ebp), %eax
GAS LISTING C:\Users\PRESID~1\AppData\Local\Temp\ccljw3FC.s 			page 29


 907 0761 890424   		movl	%eax, (%esp)
 908 0764 E8000000 		call	_AddToSchedulingQueue
 908      00
 513:E:/NeuOrga/Programmieren/c_cpp/github_os/input/src/os_base\os_task_scheduler.c ****    OS_SaveTaskPtr(task_ptr, Task_1_ptr);
 514:E:/NeuOrga/Programmieren/c_cpp/github_os/input/src/os_base\os_task_scheduler.c **** 
 515:E:/NeuOrga/Programmieren/c_cpp/github_os/input/src/os_base\os_task_scheduler.c ****    /* setup worker task */
 516:E:/NeuOrga/Programmieren/c_cpp/github_os/input/src/os_base\os_task_scheduler.c ****    task_ptr = &TASK_2_VAR;
 909              		.loc 1 516 0
 910 0769 C745F400 		movl	$_TASK_2_VAR, -12(%ebp)
 910      000000
 517:E:/NeuOrga/Programmieren/c_cpp/github_os/input/src/os_base\os_task_scheduler.c ****    OS_InitTask(task_ptr,      /* task */
 911              		.loc 1 517 0
 912 0770 C7442424 		movl	$2, 36(%esp)
 912      02000000 
 913 0778 C7442420 		movl	$0, 32(%esp)
 913      00000000 
 914 0780 C744241C 		movl	$0, 28(%esp)
 914      00000000 
 915 0788 C7442418 		movl	$200, 24(%esp)
 915      C8000000 
 916 0790 C7442414 		movl	$_TASK_STACK+4000, 20(%esp)
 916      A00F0000 
 917 0798 C7442410 		movl	$_TASK_GROUP_2, 16(%esp)
 917      00000000 
 918 07a0 C744240C 		movl	$0, 12(%esp)
 918      00000000 
 919 07a8 C7442408 		movl	$1, 8(%esp)
 919      01000000 
 920 07b0 C7442404 		movl	$_TASK_2, 4(%esp)
 920      19060000 
 921 07b8 8B45F4   		movl	-12(%ebp), %eax
 922 07bb 890424   		movl	%eax, (%esp)
 923 07be E8000000 		call	_OS_InitTask
 923      00
 518:E:/NeuOrga/Programmieren/c_cpp/github_os/input/src/os_base\os_task_scheduler.c ****                 &TASK_2,       /* Task Function*/
 519:E:/NeuOrga/Programmieren/c_cpp/github_os/input/src/os_base\os_task_scheduler.c ****                 1,             /* Nr of allowed instances*/
 520:E:/NeuOrga/Programmieren/c_cpp/github_os/input/src/os_base\os_task_scheduler.c ****                 False,          /* Idle Task */
 521:E:/NeuOrga/Programmieren/c_cpp/github_os/input/src/os_base\os_task_scheduler.c ****                 &TASK_GROUP_2, /* Task Group */
 522:E:/NeuOrga/Programmieren/c_cpp/github_os/input/src/os_base\os_task_scheduler.c ****                 (unsigned_char_t*)&TASK_STACK[2],/* Task_stack */
 523:E:/NeuOrga/Programmieren/c_cpp/github_os/input/src/os_base\os_task_scheduler.c ****                 200,            /* Stack Size */
 524:E:/NeuOrga/Programmieren/c_cpp/github_os/input/src/os_base\os_task_scheduler.c ****                 ePriviligeMode_unpriviliged_thread_mode, /* Unpriviliged Thread Mode */
 525:E:/NeuOrga/Programmieren/c_cpp/github_os/input/src/os_base\os_task_scheduler.c ****                 Core0,
 526:E:/NeuOrga/Programmieren/c_cpp/github_os/input/src/os_base\os_task_scheduler.c ****                 2                                   /* default prio */
 527:E:/NeuOrga/Programmieren/c_cpp/github_os/input/src/os_base\os_task_scheduler.c ****                );
 528:E:/NeuOrga/Programmieren/c_cpp/github_os/input/src/os_base\os_task_scheduler.c ****    AddToSchedulingQueue(task_ptr);
 924              		.loc 1 528 0
 925 07c3 8B45F4   		movl	-12(%ebp), %eax
 926 07c6 890424   		movl	%eax, (%esp)
 927 07c9 E8000000 		call	_AddToSchedulingQueue
 927      00
 529:E:/NeuOrga/Programmieren/c_cpp/github_os/input/src/os_base\os_task_scheduler.c ****    OS_SaveTaskPtr(task_ptr, Task_2_ptr);
 530:E:/NeuOrga/Programmieren/c_cpp/github_os/input/src/os_base\os_task_scheduler.c **** 
 531:E:/NeuOrga/Programmieren/c_cpp/github_os/input/src/os_base\os_task_scheduler.c ****    /* setup worker task */
 532:E:/NeuOrga/Programmieren/c_cpp/github_os/input/src/os_base\os_task_scheduler.c ****    task_ptr = &TASK_3_VAR;
 928              		.loc 1 532 0
 929 07ce C745F400 		movl	$_TASK_3_VAR, -12(%ebp)
 929      000000
GAS LISTING C:\Users\PRESID~1\AppData\Local\Temp\ccljw3FC.s 			page 30


 533:E:/NeuOrga/Programmieren/c_cpp/github_os/input/src/os_base\os_task_scheduler.c ****    OS_InitTask(task_ptr,      /* task */
 930              		.loc 1 533 0
 931 07d5 C7442424 		movl	$3, 36(%esp)
 931      03000000 
 932 07dd C7442420 		movl	$0, 32(%esp)
 932      00000000 
 933 07e5 C744241C 		movl	$0, 28(%esp)
 933      00000000 
 934 07ed C7442418 		movl	$200, 24(%esp)
 934      C8000000 
 935 07f5 C7442414 		movl	$_TASK_STACK+6000, 20(%esp)
 935      70170000 
 936 07fd C7442410 		movl	$_TASK_GROUP_3, 16(%esp)
 936      00000000 
 937 0805 C744240C 		movl	$0, 12(%esp)
 937      00000000 
 938 080d C7442408 		movl	$1, 8(%esp)
 938      01000000 
 939 0815 C7442404 		movl	$_TASK_3, 4(%esp)
 939      4D060000 
 940 081d 8B45F4   		movl	-12(%ebp), %eax
 941 0820 890424   		movl	%eax, (%esp)
 942 0823 E8000000 		call	_OS_InitTask
 942      00
 534:E:/NeuOrga/Programmieren/c_cpp/github_os/input/src/os_base\os_task_scheduler.c ****                 &TASK_3,       /* Task Function*/
 535:E:/NeuOrga/Programmieren/c_cpp/github_os/input/src/os_base\os_task_scheduler.c ****                 1,             /* Nr of allowed instances*/
 536:E:/NeuOrga/Programmieren/c_cpp/github_os/input/src/os_base\os_task_scheduler.c ****                 False,          /* Idle Task */
 537:E:/NeuOrga/Programmieren/c_cpp/github_os/input/src/os_base\os_task_scheduler.c ****                 &TASK_GROUP_3, /* Task Group */
 538:E:/NeuOrga/Programmieren/c_cpp/github_os/input/src/os_base\os_task_scheduler.c ****                 (unsigned_char_t*)&TASK_STACK[3],/* Task_stack */
 539:E:/NeuOrga/Programmieren/c_cpp/github_os/input/src/os_base\os_task_scheduler.c ****                 200,           /* Stack Size */
 540:E:/NeuOrga/Programmieren/c_cpp/github_os/input/src/os_base\os_task_scheduler.c ****                 ePriviligeMode_unpriviliged_thread_mode, /* Unpriviliged Thread Mode */
 541:E:/NeuOrga/Programmieren/c_cpp/github_os/input/src/os_base\os_task_scheduler.c ****                 Core0,
 542:E:/NeuOrga/Programmieren/c_cpp/github_os/input/src/os_base\os_task_scheduler.c ****                 3                                   /* default prio */
 543:E:/NeuOrga/Programmieren/c_cpp/github_os/input/src/os_base\os_task_scheduler.c ****                );
 544:E:/NeuOrga/Programmieren/c_cpp/github_os/input/src/os_base\os_task_scheduler.c ****    AddToSchedulingQueue(task_ptr);
 943              		.loc 1 544 0
 944 0828 8B45F4   		movl	-12(%ebp), %eax
 945 082b 890424   		movl	%eax, (%esp)
 946 082e E8000000 		call	_AddToSchedulingQueue
 946      00
 545:E:/NeuOrga/Programmieren/c_cpp/github_os/input/src/os_base\os_task_scheduler.c ****    OS_SaveTaskPtr(task_ptr, Task_3_ptr);
 546:E:/NeuOrga/Programmieren/c_cpp/github_os/input/src/os_base\os_task_scheduler.c **** }
 947              		.loc 1 546 0
 948 0833 C9       		leave
 949              		.cfi_restore 5
 950              		.cfi_def_cfa 4, 4
 951 0834 C3       		ret
 952              		.cfi_endproc
 953              	LFE13:
 955              	_OS_TaskScheduler:
 956              	LFB14:
 547:E:/NeuOrga/Programmieren/c_cpp/github_os/input/src/os_base\os_task_scheduler.c **** 
 548:E:/NeuOrga/Programmieren/c_cpp/github_os/input/src/os_base\os_task_scheduler.c **** 
 549:E:/NeuOrga/Programmieren/c_cpp/github_os/input/src/os_base\os_task_scheduler.c **** Local scheduling_t* OS_TaskScheduler(void)
 550:E:/NeuOrga/Programmieren/c_cpp/github_os/input/src/os_base\os_task_scheduler.c **** {
 957              		.loc 1 550 0
 958              		.cfi_startproc
GAS LISTING C:\Users\PRESID~1\AppData\Local\Temp\ccljw3FC.s 			page 31


 959 0835 55       		pushl	%ebp
 960              		.cfi_def_cfa_offset 8
 961              		.cfi_offset 5, -8
 962 0836 89E5     		movl	%esp, %ebp
 963              		.cfi_def_cfa_register 5
 964 0838 83EC68   		subl	$104, %esp
 551:E:/NeuOrga/Programmieren/c_cpp/github_os/input/src/os_base\os_task_scheduler.c **** 
 552:E:/NeuOrga/Programmieren/c_cpp/github_os/input/src/os_base\os_task_scheduler.c ****    scheduling_t*    scheduling_queue_member;
 553:E:/NeuOrga/Programmieren/c_cpp/github_os/input/src/os_base\os_task_scheduler.c ****    unsigned_char_t element_nr;
 554:E:/NeuOrga/Programmieren/c_cpp/github_os/input/src/os_base\os_task_scheduler.c **** 
 555:E:/NeuOrga/Programmieren/c_cpp/github_os/input/src/os_base\os_task_scheduler.c ****    unsigned_char_t Winner_prio = 0;
 965              		.loc 1 555 0
 966 083b C645F600 		movb	$0, -10(%ebp)
 556:E:/NeuOrga/Programmieren/c_cpp/github_os/input/src/os_base\os_task_scheduler.c ****    task_t*         task = 0;
 967              		.loc 1 556 0
 968 083f C745EC00 		movl	$0, -20(%ebp)
 968      000000
 557:E:/NeuOrga/Programmieren/c_cpp/github_os/input/src/os_base\os_task_scheduler.c ****    task_t*         Winner_task = 0;
 969              		.loc 1 557 0
 970 0846 C745E800 		movl	$0, -24(%ebp)
 970      000000
 558:E:/NeuOrga/Programmieren/c_cpp/github_os/input/src/os_base\os_task_scheduler.c ****    scheduling_t*   Winner_scheduling_queue_member = 0;
 971              		.loc 1 558 0
 972 084d C745F000 		movl	$0, -16(%ebp)
 972      000000
 559:E:/NeuOrga/Programmieren/c_cpp/github_os/input/src/os_base\os_task_scheduler.c ****    timebig_t       delta_time;
 560:E:/NeuOrga/Programmieren/c_cpp/github_os/input/src/os_base\os_task_scheduler.c ****    
 561:E:/NeuOrga/Programmieren/c_cpp/github_os/input/src/os_base\os_task_scheduler.c ****    timebig_t time;
 562:E:/NeuOrga/Programmieren/c_cpp/github_os/input/src/os_base\os_task_scheduler.c ****    
 563:E:/NeuOrga/Programmieren/c_cpp/github_os/input/src/os_base\os_task_scheduler.c ****    OS_GetCurrentTime(&time);
 973              		.loc 1 563 0
 974 0854 8D45C4   		leal	-60(%ebp), %eax
 975 0857 890424   		movl	%eax, (%esp)
 976 085a E8000000 		call	_OS_GetCurrentTime
 976      00
 564:E:/NeuOrga/Programmieren/c_cpp/github_os/input/src/os_base\os_task_scheduler.c **** 
 565:E:/NeuOrga/Programmieren/c_cpp/github_os/input/src/os_base\os_task_scheduler.c ****    IntSub(&delta_time, &time, &LAST_CURRENT_TIME);
 977              		.loc 1 565 0
 978 085f C7442408 		movl	$_LAST_CURRENT_TIME, 8(%esp)
 978      00000000 
 979 0867 8D45C4   		leal	-60(%ebp), %eax
 980 086a 89442404 		movl	%eax, 4(%esp)
 981 086e 8D45D4   		leal	-44(%ebp), %eax
 982 0871 890424   		movl	%eax, (%esp)
 983 0874 E8000000 		call	_IntSub
 983      00
 566:E:/NeuOrga/Programmieren/c_cpp/github_os/input/src/os_base\os_task_scheduler.c ****    
 567:E:/NeuOrga/Programmieren/c_cpp/github_os/input/src/os_base\os_task_scheduler.c ****    Assign(&LAST_CURRENT_TIME,&time);
 984              		.loc 1 567 0
 985 0879 8D45C4   		leal	-60(%ebp), %eax
 986 087c 89442404 		movl	%eax, 4(%esp)
 987 0880 C7042400 		movl	$_LAST_CURRENT_TIME, (%esp)
 987      000000
 988 0887 E8000000 		call	_Assign
 988      00
 568:E:/NeuOrga/Programmieren/c_cpp/github_os/input/src/os_base\os_task_scheduler.c **** 
 569:E:/NeuOrga/Programmieren/c_cpp/github_os/input/src/os_base\os_task_scheduler.c ****    ReferenceUnusedParameter(Winner_task);
GAS LISTING C:\Users\PRESID~1\AppData\Local\Temp\ccljw3FC.s 			page 32


 570:E:/NeuOrga/Programmieren/c_cpp/github_os/input/src/os_base\os_task_scheduler.c ****    /*
 571:E:/NeuOrga/Programmieren/c_cpp/github_os/input/src/os_base\os_task_scheduler.c ****    x const for single task: task->default_prio // low = 0,.....high=100
 572:E:/NeuOrga/Programmieren/c_cpp/github_os/input/src/os_base\os_task_scheduler.c ****    x var   for single task: task->current_prio // see prio_std
 573:E:/NeuOrga/Programmieren/c_cpp/github_os/input/src/os_base\os_task_scheduler.c ****    x var   for single task: task->wait_time    //
 574:E:/NeuOrga/Programmieren/c_cpp/github_os/input/src/os_base\os_task_scheduler.c ****    x var   for single task: task->exe_time
 575:E:/NeuOrga/Programmieren/c_cpp/github_os/input/src/os_base\os_task_scheduler.c ****    x const for single task: task->TimeToPrioInc
 576:E:/NeuOrga/Programmieren/c_cpp/github_os/input/src/os_base\os_task_scheduler.c ****    x const for single task: task->max_allowed_wait_time
 577:E:/NeuOrga/Programmieren/c_cpp/github_os/input/src/os_base\os_task_scheduler.c ****    x const for single task: task->min_allowed_wait_time
 578:E:/NeuOrga/Programmieren/c_cpp/github_os/input/src/os_base\os_task_scheduler.c ****    x const for single task: task->overwaittime_per_prio_inc_step //e.g. 100*MinTimeSlice_us
 579:E:/NeuOrga/Programmieren/c_cpp/github_os/input/src/os_base\os_task_scheduler.c ****    x const for single task: task->task_group  //to allow processor access control by groups (e.g. u
 580:E:/NeuOrga/Programmieren/c_cpp/github_os/input/src/os_base\os_task_scheduler.c ****    x const for single task: task->WaitActUntil
 581:E:/NeuOrga/Programmieren/c_cpp/github_os/input/src/os_base\os_task_scheduler.c ****    (task_group is designed to allow proccessor access control between e.g. Customer Software Task a
 582:E:/NeuOrga/Programmieren/c_cpp/github_os/input/src/os_base\os_task_scheduler.c ****    */
 583:E:/NeuOrga/Programmieren/c_cpp/github_os/input/src/os_base\os_task_scheduler.c ****    For_all_tasks_in_queue(element_nr)
 989              		.loc 1 583 0
 990 088c C645F700 		movb	$0, -9(%ebp)
 991 0890 E93B0100 		jmp	L75
 991      00
 992              	L83:
 584:E:/NeuOrga/Programmieren/c_cpp/github_os/input/src/os_base\os_task_scheduler.c ****    {
 585:E:/NeuOrga/Programmieren/c_cpp/github_os/input/src/os_base\os_task_scheduler.c ****       scheduling_queue_member = GetFromSchedulingQueue(element_nr);
 993              		.loc 1 585 0
 994 0895 0FB645F7 		movzbl	-9(%ebp), %eax
 995 0899 890424   		movl	%eax, (%esp)
 996 089c E8000000 		call	_GetFromSchedulingQueue
 996      00
 997 08a1 8945E4   		movl	%eax, -28(%ebp)
 586:E:/NeuOrga/Programmieren/c_cpp/github_os/input/src/os_base\os_task_scheduler.c ****       /*task will have a pointer on the task_obj, and might be equal to "(task_t*) 0" */
 587:E:/NeuOrga/Programmieren/c_cpp/github_os/input/src/os_base\os_task_scheduler.c ****       task             = GetFromTaskQueue(scheduling_queue_member);
 998              		.loc 1 587 0
 999 08a4 8B45E4   		movl	-28(%ebp), %eax
 1000 08a7 890424   		movl	%eax, (%esp)
 1001 08aa E8000000 		call	_GetFromTaskQueue
 1001      00
 1002 08af 8945EC   		movl	%eax, -20(%ebp)
 588:E:/NeuOrga/Programmieren/c_cpp/github_os/input/src/os_base\os_task_scheduler.c ****       /* increase prio: high numbers->high prio */
 589:E:/NeuOrga/Programmieren/c_cpp/github_os/input/src/os_base\os_task_scheduler.c ****       if((task != 0)&&(task->task_queued != False))
 1003              		.loc 1 589 0
 1004 08b2 837DEC00 		cmpl	$0, -20(%ebp)
 1005 08b6 0F840D01 		je	L76
 1005      0000
 1006              		.loc 1 589 0 is_stmt 0 discriminator 1
 1007 08bc 8B45EC   		movl	-20(%ebp), %eax
 1008 08bf 8A00     		movb	(%eax), %al
 1009 08c1 83E002   		andl	$2, %eax
 1010 08c4 84C0     		testb	%al, %al
 1011 08c6 0F84FD00 		je	L76
 1011      0000
 590:E:/NeuOrga/Programmieren/c_cpp/github_os/input/src/os_base\os_task_scheduler.c ****       {
 591:E:/NeuOrga/Programmieren/c_cpp/github_os/input/src/os_base\os_task_scheduler.c ****          if(IsGreaterOrEqual(&task->wait_time, &task->TimeToPrioInc))
 1012              		.loc 1 591 0 is_stmt 1
 1013 08cc 8B45EC   		movl	-20(%ebp), %eax
 1014 08cf 8D5026   		leal	38(%eax), %edx
 1015 08d2 8B45EC   		movl	-20(%ebp), %eax
 1016 08d5 83C016   		addl	$22, %eax
 1017 08d8 89542404 		movl	%edx, 4(%esp)
 1018 08dc 890424   		movl	%eax, (%esp)
GAS LISTING C:\Users\PRESID~1\AppData\Local\Temp\ccljw3FC.s 			page 33


 1019 08df E8000000 		call	_IsGreaterOrEqual
 1019      00
 1020 08e4 84C0     		testb	%al, %al
 1021 08e6 7414     		je	L77
 592:E:/NeuOrga/Programmieren/c_cpp/github_os/input/src/os_base\os_task_scheduler.c ****          {
 593:E:/NeuOrga/Programmieren/c_cpp/github_os/input/src/os_base\os_task_scheduler.c ****             task->current_prio = task->current_prio + task->overwaittime_per_prio_inc_step;
 1022              		.loc 1 593 0
 1023 08e8 8B45EC   		movl	-20(%ebp), %eax
 1024 08eb 8A506C   		movb	108(%eax), %dl
 1025 08ee 8B45EC   		movl	-20(%ebp), %eax
 1026 08f1 8B4038   		movl	56(%eax), %eax
 1027 08f4 01C2     		addl	%eax, %edx
 1028 08f6 8B45EC   		movl	-20(%ebp), %eax
 1029 08f9 88506C   		movb	%dl, 108(%eax)
 1030              	L77:
 594:E:/NeuOrga/Programmieren/c_cpp/github_os/input/src/os_base\os_task_scheduler.c ****          }
 595:E:/NeuOrga/Programmieren/c_cpp/github_os/input/src/os_base\os_task_scheduler.c ****          /* in case wait condition not yet fulfilled, set prio to 0 */
 596:E:/NeuOrga/Programmieren/c_cpp/github_os/input/src/os_base\os_task_scheduler.c ****          if(IsGreater(&task->WaitActUntil, &time))
 1031              		.loc 1 596 0
 1032 08fc 8B45EC   		movl	-20(%ebp), %eax
 1033 08ff 8D5006   		leal	6(%eax), %edx
 1034 0902 8D45C4   		leal	-60(%ebp), %eax
 1035 0905 89442404 		movl	%eax, 4(%esp)
 1036 0909 891424   		movl	%edx, (%esp)
 1037 090c E8000000 		call	_IsGreater
 1037      00
 1038 0911 84C0     		testb	%al, %al
 1039 0913 7407     		je	L78
 597:E:/NeuOrga/Programmieren/c_cpp/github_os/input/src/os_base\os_task_scheduler.c ****          {
 598:E:/NeuOrga/Programmieren/c_cpp/github_os/input/src/os_base\os_task_scheduler.c ****             task->current_prio = 0;
 1040              		.loc 1 598 0
 1041 0915 8B45EC   		movl	-20(%ebp), %eax
 1042 0918 C6406C00 		movb	$0, 108(%eax)
 1043              	L78:
 599:E:/NeuOrga/Programmieren/c_cpp/github_os/input/src/os_base\os_task_scheduler.c ****          }
 600:E:/NeuOrga/Programmieren/c_cpp/github_os/input/src/os_base\os_task_scheduler.c ****          if(IsGreater(&task->wait_time,&task->max_allowed_wait_time))
 1044              		.loc 1 600 0
 1045 091c 8B45EC   		movl	-20(%ebp), %eax
 1046 091f 8D503C   		leal	60(%eax), %edx
 1047 0922 8B45EC   		movl	-20(%ebp), %eax
 1048 0925 83C016   		addl	$22, %eax
 1049 0928 89542404 		movl	%edx, 4(%esp)
 1050 092c 890424   		movl	%eax, (%esp)
 1051 092f E8000000 		call	_IsGreater
 1051      00
 1052 0934 84C0     		testb	%al, %al
 1053 0936 7414     		je	L79
 601:E:/NeuOrga/Programmieren/c_cpp/github_os/input/src/os_base\os_task_scheduler.c ****          {
 602:E:/NeuOrga/Programmieren/c_cpp/github_os/input/src/os_base\os_task_scheduler.c ****             /* set bug */
 603:E:/NeuOrga/Programmieren/c_cpp/github_os/input/src/os_base\os_task_scheduler.c ****             OS_SetSwBug(os_bug_task_max_wait_time_reached, Func_TaskScheduler);
 1054              		.loc 1 603 0
 1055 0938 C7442404 		movl	$9, 4(%esp)
 1055      09000000 
 1056 0940 C7042403 		movl	$3, (%esp)
 1056      000000
 1057 0947 E8000000 		call	_OS_SetSwBug
 1057      00
GAS LISTING C:\Users\PRESID~1\AppData\Local\Temp\ccljw3FC.s 			page 34


 1058              	L79:
 604:E:/NeuOrga/Programmieren/c_cpp/github_os/input/src/os_base\os_task_scheduler.c ****          }
 605:E:/NeuOrga/Programmieren/c_cpp/github_os/input/src/os_base\os_task_scheduler.c ****          /* not active TASK_RUN_QUEUE elements have no valid task_group!!*/
 606:E:/NeuOrga/Programmieren/c_cpp/github_os/input/src/os_base\os_task_scheduler.c ****          if(task->task_group!=0u)
 1059              		.loc 1 606 0
 1060 094c 8B45EC   		movl	-20(%ebp), %eax
 1061 094f 8B808000 		movl	128(%eax), %eax
 1061      0000
 1062 0955 85C0     		testl	%eax, %eax
 1063 0957 745C     		je	L80
 607:E:/NeuOrga/Programmieren/c_cpp/github_os/input/src/os_base\os_task_scheduler.c ****          {
 608:E:/NeuOrga/Programmieren/c_cpp/github_os/input/src/os_base\os_task_scheduler.c ****             /* usage the exe time for scheduling strategy */
 609:E:/NeuOrga/Programmieren/c_cpp/github_os/input/src/os_base\os_task_scheduler.c ****             if(IsGreater(&task->task_group->exe_time, &task->task_group->fair_exe_time) != False)
 1064              		.loc 1 609 0
 1065 0959 8B45EC   		movl	-20(%ebp), %eax
 1066 095c 8B808000 		movl	128(%eax), %eax
 1066      0000
 1067 0962 8D5010   		leal	16(%eax), %edx
 1068 0965 8B45EC   		movl	-20(%ebp), %eax
 1069 0968 8B808000 		movl	128(%eax), %eax
 1069      0000
 1070 096e 89542404 		movl	%edx, 4(%esp)
 1071 0972 890424   		movl	%eax, (%esp)
 1072 0975 E8000000 		call	_IsGreater
 1072      00
 1073 097a 84C0     		testb	%al, %al
 1074 097c 744B     		je	L76
 1075              	LBB2:
 610:E:/NeuOrga/Programmieren/c_cpp/github_os/input/src/os_base\os_task_scheduler.c ****             {
 611:E:/NeuOrga/Programmieren/c_cpp/github_os/input/src/os_base\os_task_scheduler.c ****                timebig_t tTime;
 612:E:/NeuOrga/Programmieren/c_cpp/github_os/input/src/os_base\os_task_scheduler.c ****                AssignUint32(&tTime, Task_min_time);
 1076              		.loc 1 612 0
 1077 097e C7442404 		movl	$1, 4(%esp)
 1077      01000000 
 1078 0986 8D45B4   		leal	-76(%ebp), %eax
 1079 0989 890424   		movl	%eax, (%esp)
 1080 098c E8000000 		call	_AssignUint32
 1080      00
 613:E:/NeuOrga/Programmieren/c_cpp/github_os/input/src/os_base\os_task_scheduler.c ****                if(IsGreaterOrEqual(&task->exe_time, &tTime))/* guarantee min time */
 1081              		.loc 1 613 0
 1082 0991 8B45EC   		movl	-20(%ebp), %eax
 1083 0994 8D504C   		leal	76(%eax), %edx
 1084 0997 8D45B4   		leal	-76(%ebp), %eax
 1085 099a 89442404 		movl	%eax, 4(%esp)
 1086 099e 891424   		movl	%edx, (%esp)
 1087 09a1 E8000000 		call	_IsGreaterOrEqual
 1087      00
 1088 09a6 84C0     		testb	%al, %al
 1089 09a8 7409     		je	L81
 614:E:/NeuOrga/Programmieren/c_cpp/github_os/input/src/os_base\os_task_scheduler.c ****                {
 615:E:/NeuOrga/Programmieren/c_cpp/github_os/input/src/os_base\os_task_scheduler.c ****                   task->current_prio = 0;
 1090              		.loc 1 615 0
 1091 09aa 8B45EC   		movl	-20(%ebp), %eax
 1092 09ad C6406C00 		movb	$0, 108(%eax)
 1093              	LBE2:
 1094 09b1 EB16     		jmp	L76
 1095              	L81:
GAS LISTING C:\Users\PRESID~1\AppData\Local\Temp\ccljw3FC.s 			page 35


 1096 09b3 EB14     		jmp	L76
 1097              	L80:
 616:E:/NeuOrga/Programmieren/c_cpp/github_os/input/src/os_base\os_task_scheduler.c ****                }
 617:E:/NeuOrga/Programmieren/c_cpp/github_os/input/src/os_base\os_task_scheduler.c ****             }
 618:E:/NeuOrga/Programmieren/c_cpp/github_os/input/src/os_base\os_task_scheduler.c ****          }
 619:E:/NeuOrga/Programmieren/c_cpp/github_os/input/src/os_base\os_task_scheduler.c ****          else
 620:E:/NeuOrga/Programmieren/c_cpp/github_os/input/src/os_base\os_task_scheduler.c ****          {
 621:E:/NeuOrga/Programmieren/c_cpp/github_os/input/src/os_base\os_task_scheduler.c ****             OS_SetSwBug(os_bug_null_pointer, Func_TaskScheduler);
 1098              		.loc 1 621 0
 1099 09b5 C7442404 		movl	$9, 4(%esp)
 1099      09000000 
 1100 09bd C7042402 		movl	$2, (%esp)
 1100      000000
 1101 09c4 E8000000 		call	_OS_SetSwBug
 1101      00
 1102              	L76:
 583:E:/NeuOrga/Programmieren/c_cpp/github_os/input/src/os_base\os_task_scheduler.c ****    {
 1103              		.loc 1 583 0 discriminator 2
 1104 09c9 8A45F7   		movb	-9(%ebp), %al
 1105 09cc 40       		incl	%eax
 1106 09cd 8845F7   		movb	%al, -9(%ebp)
 1107              	L75:
 583:E:/NeuOrga/Programmieren/c_cpp/github_os/input/src/os_base\os_task_scheduler.c ****    {
 1108              		.loc 1 583 0 is_stmt 0 discriminator 1
 1109 09d0 807DF709 		cmpb	$9, -9(%ebp)
 1110 09d4 0F86BBFE 		jbe	L83
 1110      FFFF
 622:E:/NeuOrga/Programmieren/c_cpp/github_os/input/src/os_base\os_task_scheduler.c ****          }
 623:E:/NeuOrga/Programmieren/c_cpp/github_os/input/src/os_base\os_task_scheduler.c ****       }
 624:E:/NeuOrga/Programmieren/c_cpp/github_os/input/src/os_base\os_task_scheduler.c ****       /* do not set bug, because task =0 is used for empty queue elements
 625:E:/NeuOrga/Programmieren/c_cpp/github_os/input/src/os_base\os_task_scheduler.c ****       else
 626:E:/NeuOrga/Programmieren/c_cpp/github_os/input/src/os_base\os_task_scheduler.c ****       {
 627:E:/NeuOrga/Programmieren/c_cpp/github_os/input/src/os_base\os_task_scheduler.c ****           OS_SetSwBug(os_bug_null_pointer, Func_TaskScheduler);
 628:E:/NeuOrga/Programmieren/c_cpp/github_os/input/src/os_base\os_task_scheduler.c ****       }
 629:E:/NeuOrga/Programmieren/c_cpp/github_os/input/src/os_base\os_task_scheduler.c ****       */
 630:E:/NeuOrga/Programmieren/c_cpp/github_os/input/src/os_base\os_task_scheduler.c ****    }
 631:E:/NeuOrga/Programmieren/c_cpp/github_os/input/src/os_base\os_task_scheduler.c ****    For_all_tasks_in_queue(element_nr)
 1111              		.loc 1 631 0 is_stmt 1
 1112 09da C645F700 		movb	$0, -9(%ebp)
 1113 09de EB75     		jmp	L84
 1114              	L87:
 632:E:/NeuOrga/Programmieren/c_cpp/github_os/input/src/os_base\os_task_scheduler.c ****    {
 633:E:/NeuOrga/Programmieren/c_cpp/github_os/input/src/os_base\os_task_scheduler.c ****       scheduling_queue_member = GetFromSchedulingQueue(element_nr);
 1115              		.loc 1 633 0
 1116 09e0 0FB645F7 		movzbl	-9(%ebp), %eax
 1117 09e4 890424   		movl	%eax, (%esp)
 1118 09e7 E8000000 		call	_GetFromSchedulingQueue
 1118      00
 1119 09ec 8945E4   		movl	%eax, -28(%ebp)
 634:E:/NeuOrga/Programmieren/c_cpp/github_os/input/src/os_base\os_task_scheduler.c ****       task             = GetFromTaskQueue(scheduling_queue_member);
 1120              		.loc 1 634 0
 1121 09ef 8B45E4   		movl	-28(%ebp), %eax
 1122 09f2 890424   		movl	%eax, (%esp)
 1123 09f5 E8000000 		call	_GetFromTaskQueue
 1123      00
 1124 09fa 8945EC   		movl	%eax, -20(%ebp)
 635:E:/NeuOrga/Programmieren/c_cpp/github_os/input/src/os_base\os_task_scheduler.c ****       if(task != 0)
GAS LISTING C:\Users\PRESID~1\AppData\Local\Temp\ccljw3FC.s 			page 36


 1125              		.loc 1 635 0
 1126 09fd 837DEC00 		cmpl	$0, -20(%ebp)
 1127 0a01 744B     		je	L85
 636:E:/NeuOrga/Programmieren/c_cpp/github_os/input/src/os_base\os_task_scheduler.c ****       {
 637:E:/NeuOrga/Programmieren/c_cpp/github_os/input/src/os_base\os_task_scheduler.c ****          /*update wait time */
 638:E:/NeuOrga/Programmieren/c_cpp/github_os/input/src/os_base\os_task_scheduler.c ****          if(task->IdleTask != True)
 1128              		.loc 1 638 0
 1129 0a03 8B45EC   		movl	-20(%ebp), %eax
 1130 0a06 8A00     		movb	(%eax), %al
 1131 0a08 83E004   		andl	$4, %eax
 1132 0a0b 84C0     		testb	%al, %al
 1133 0a0d 751F     		jne	L86
 639:E:/NeuOrga/Programmieren/c_cpp/github_os/input/src/os_base\os_task_scheduler.c ****          {
 640:E:/NeuOrga/Programmieren/c_cpp/github_os/input/src/os_base\os_task_scheduler.c ****             IntAdd(&task->wait_time, &task->wait_time, &delta_time);
 1134              		.loc 1 640 0
 1135 0a0f 8B45EC   		movl	-20(%ebp), %eax
 1136 0a12 8D4816   		leal	22(%eax), %ecx
 1137 0a15 8B45EC   		movl	-20(%ebp), %eax
 1138 0a18 8D5016   		leal	22(%eax), %edx
 1139 0a1b 8D45D4   		leal	-44(%ebp), %eax
 1140 0a1e 89442408 		movl	%eax, 8(%esp)
 1141 0a22 894C2404 		movl	%ecx, 4(%esp)
 1142 0a26 891424   		movl	%edx, (%esp)
 1143 0a29 E8000000 		call	_IntAdd
 1143      00
 1144              	L86:
 641:E:/NeuOrga/Programmieren/c_cpp/github_os/input/src/os_base\os_task_scheduler.c ****          }
 642:E:/NeuOrga/Programmieren/c_cpp/github_os/input/src/os_base\os_task_scheduler.c ****          /* search for task with highest prio and assign it to Winner_task */
 643:E:/NeuOrga/Programmieren/c_cpp/github_os/input/src/os_base\os_task_scheduler.c ****          if(task->current_prio > Winner_prio)
 1145              		.loc 1 643 0
 1146 0a2e 8B45EC   		movl	-20(%ebp), %eax
 1147 0a31 8A406C   		movb	108(%eax), %al
 1148 0a34 3A45F6   		cmpb	-10(%ebp), %al
 1149 0a37 7615     		jbe	L85
 644:E:/NeuOrga/Programmieren/c_cpp/github_os/input/src/os_base\os_task_scheduler.c ****          {
 645:E:/NeuOrga/Programmieren/c_cpp/github_os/input/src/os_base\os_task_scheduler.c ****             Winner_prio = task->current_prio;
 1150              		.loc 1 645 0
 1151 0a39 8B45EC   		movl	-20(%ebp), %eax
 1152 0a3c 8A406C   		movb	108(%eax), %al
 1153 0a3f 8845F6   		movb	%al, -10(%ebp)
 646:E:/NeuOrga/Programmieren/c_cpp/github_os/input/src/os_base\os_task_scheduler.c ****             Winner_task = task;
 1154              		.loc 1 646 0
 1155 0a42 8B45EC   		movl	-20(%ebp), %eax
 1156 0a45 8945E8   		movl	%eax, -24(%ebp)
 647:E:/NeuOrga/Programmieren/c_cpp/github_os/input/src/os_base\os_task_scheduler.c ****             Winner_scheduling_queue_member = scheduling_queue_member;
 1157              		.loc 1 647 0
 1158 0a48 8B45E4   		movl	-28(%ebp), %eax
 1159 0a4b 8945F0   		movl	%eax, -16(%ebp)
 1160              	L85:
 631:E:/NeuOrga/Programmieren/c_cpp/github_os/input/src/os_base\os_task_scheduler.c ****    {
 1161              		.loc 1 631 0 discriminator 2
 1162 0a4e 8A45F7   		movb	-9(%ebp), %al
 1163 0a51 40       		incl	%eax
 1164 0a52 8845F7   		movb	%al, -9(%ebp)
 1165              	L84:
 631:E:/NeuOrga/Programmieren/c_cpp/github_os/input/src/os_base\os_task_scheduler.c ****    {
 1166              		.loc 1 631 0 is_stmt 0 discriminator 1
GAS LISTING C:\Users\PRESID~1\AppData\Local\Temp\ccljw3FC.s 			page 37


 1167 0a55 807DF709 		cmpb	$9, -9(%ebp)
 1168 0a59 7685     		jbe	L87
 648:E:/NeuOrga/Programmieren/c_cpp/github_os/input/src/os_base\os_task_scheduler.c ****          }
 649:E:/NeuOrga/Programmieren/c_cpp/github_os/input/src/os_base\os_task_scheduler.c **** 
 650:E:/NeuOrga/Programmieren/c_cpp/github_os/input/src/os_base\os_task_scheduler.c ****       }
 651:E:/NeuOrga/Programmieren/c_cpp/github_os/input/src/os_base\os_task_scheduler.c ****       /* do not set bug, because task =0 is used for empty queue elements
 652:E:/NeuOrga/Programmieren/c_cpp/github_os/input/src/os_base\os_task_scheduler.c ****       else
 653:E:/NeuOrga/Programmieren/c_cpp/github_os/input/src/os_base\os_task_scheduler.c ****       {
 654:E:/NeuOrga/Programmieren/c_cpp/github_os/input/src/os_base\os_task_scheduler.c ****           OS_SetSwBug(os_bug_null_pointer, Func_TaskScheduler);
 655:E:/NeuOrga/Programmieren/c_cpp/github_os/input/src/os_base\os_task_scheduler.c ****       }
 656:E:/NeuOrga/Programmieren/c_cpp/github_os/input/src/os_base\os_task_scheduler.c ****       */
 657:E:/NeuOrga/Programmieren/c_cpp/github_os/input/src/os_base\os_task_scheduler.c ****    }
 658:E:/NeuOrga/Programmieren/c_cpp/github_os/input/src/os_base\os_task_scheduler.c ****    return Winner_scheduling_queue_member;
 1169              		.loc 1 658 0 is_stmt 1
 1170 0a5b 8B45F0   		movl	-16(%ebp), %eax
 659:E:/NeuOrga/Programmieren/c_cpp/github_os/input/src/os_base\os_task_scheduler.c **** }
 1171              		.loc 1 659 0
 1172 0a5e C9       		leave
 1173              		.cfi_restore 5
 1174              		.cfi_def_cfa 4, 4
 1175 0a5f C3       		ret
 1176              		.cfi_endproc
 1177              	LFE14:
 1178              	Letext0:
 1179              		.file 2 "E:/NeuOrga/Programmieren/c_cpp/github_os/input/src/os_base/../os_base/os_base_types.h"
 1180              		.file 3 "E:/NeuOrga/Programmieren/c_cpp/github_os/input/src/os_base/../os_base/os_common.h"
 1181              		.file 4 "E:/NeuOrga/Programmieren/c_cpp/github_os/input/src/os_base/../os_sim/lld_core.h"
 1182              		.file 5 "E:/NeuOrga/Programmieren/c_cpp/github_os/input/src/os_base/../os_sim/../os_base/os_task_c
 1183              		.file 6 "E:/NeuOrga/Programmieren/c_cpp/github_os/input/src/os_base/../os_base/os_ram.h"
 1184              		.file 7 "E:/NeuOrga/Programmieren/c_cpp/github_os/input/src/os_base/../os_base/os_ram_stack.h"
 1185              		.section	.debug_info,"dr"
 1186              	Ldebug_info0:
 1187 0000 910F0000 		.long	0xf91
 1188 0004 0400     		.word	0x4
 1189 0006 00000000 		.secrel32	Ldebug_abbrev0
 1190 000a 04       		.byte	0x4
 1191 000b 01       		.uleb128 0x1
 1192 000c 474E5520 		.ascii "GNU C 4.9.3 -march=i386 -g3 -O0 -std=c90\0"
 1192      4320342E 
 1192      392E3320 
 1192      2D6D6172 
 1192      63683D69 
 1193 0035 01       		.byte	0x1
 1194 0036 453A5C4E 		.ascii "E:\\NeuOrga\\Programmieren\\c_cpp\\github_os\\input\\src\\os_base\\os_task_scheduler.c\0"
 1194      65754F72 
 1194      67615C50 
 1194      726F6772 
 1194      616D6D69 
 1195 0085 00000000 		.long	Ltext0
 1196 0089 600A0000 		.long	Letext0-Ltext0
 1197 008d 00000000 		.secrel32	Ldebug_line0
 1198 0091 00000000 		.secrel32	Ldebug_macro0
 1199 0095 02       		.uleb128 0x2
 1200 0096 756E7369 		.ascii "unsigned_char_t\0"
 1200      676E6564 
 1200      5F636861 
 1200      725F7400 
GAS LISTING C:\Users\PRESID~1\AppData\Local\Temp\ccljw3FC.s 			page 38


 1201 00a6 02       		.byte	0x2
 1202 00a7 1D       		.byte	0x1d
 1203 00a8 AC000000 		.long	0xac
 1204 00ac 03       		.uleb128 0x3
 1205 00ad 01       		.byte	0x1
 1206 00ae 08       		.byte	0x8
 1207 00af 756E7369 		.ascii "unsigned char\0"
 1207      676E6564 
 1207      20636861 
 1207      7200
 1208 00bd 03       		.uleb128 0x3
 1209 00be 01       		.byte	0x1
 1210 00bf 06       		.byte	0x6
 1211 00c0 7369676E 		.ascii "signed char\0"
 1211      65642063 
 1211      68617200 
 1212 00cc 02       		.uleb128 0x2
 1213 00cd 75696E74 		.ascii "uint8\0"
 1213      3800
 1214 00d3 02       		.byte	0x2
 1215 00d4 21       		.byte	0x21
 1216 00d5 AC000000 		.long	0xac
 1217 00d9 03       		.uleb128 0x3
 1218 00da 02       		.byte	0x2
 1219 00db 07       		.byte	0x7
 1220 00dc 73686F72 		.ascii "short unsigned int\0"
 1220      7420756E 
 1220      7369676E 
 1220      65642069 
 1220      6E7400
 1221 00ef 03       		.uleb128 0x3
 1222 00f0 02       		.byte	0x2
 1223 00f1 05       		.byte	0x5
 1224 00f2 73686F72 		.ascii "short int\0"
 1224      7420696E 
 1224      7400
 1225 00fc 02       		.uleb128 0x2
 1226 00fd 756E7369 		.ascii "unsigned_int32_t\0"
 1226      676E6564 
 1226      5F696E74 
 1226      33325F74 
 1226      00
 1227 010e 02       		.byte	0x2
 1228 010f 27       		.byte	0x27
 1229 0110 14010000 		.long	0x114
 1230 0114 03       		.uleb128 0x3
 1231 0115 04       		.byte	0x4
 1232 0116 07       		.byte	0x7
 1233 0117 6C6F6E67 		.ascii "long unsigned int\0"
 1233      20756E73 
 1233      69676E65 
 1233      6420696E 
 1233      7400
 1234 0129 03       		.uleb128 0x3
 1235 012a 04       		.byte	0x4
 1236 012b 05       		.byte	0x5
 1237 012c 6C6F6E67 		.ascii "long int\0"
GAS LISTING C:\Users\PRESID~1\AppData\Local\Temp\ccljw3FC.s 			page 39


 1237      20696E74 
 1237      00
 1238 0135 02       		.uleb128 0x2
 1239 0136 75696E74 		.ascii "uint32\0"
 1239      333200
 1240 013d 02       		.byte	0x2
 1241 013e 29       		.byte	0x29
 1242 013f 14010000 		.long	0x114
 1243 0143 04       		.uleb128 0x4
 1244 0144 6F735F73 		.ascii "os_sw_bugs_e\0"
 1244      775F6275 
 1244      67735F65 
 1244      00
 1245 0151 04       		.byte	0x4
 1246 0152 03       		.byte	0x3
 1247 0153 2B       		.byte	0x2b
 1248 0154 A2020000 		.long	0x2a2
 1249 0158 05       		.uleb128 0x5
 1250 0159 6F735F62 		.ascii "os_bug_no_bug\0"
 1250      75675F6E 
 1250      6F5F6275 
 1250      6700
 1251 0167 00       		.sleb128 0
 1252 0168 05       		.uleb128 0x5
 1253 0169 6F735F62 		.ascii "os_bug_taskstate_request_denied\0"
 1253      75675F74 
 1253      61736B73 
 1253      74617465 
 1253      5F726571 
 1254 0189 01       		.sleb128 1
 1255 018a 05       		.uleb128 0x5
 1256 018b 6F735F62 		.ascii "os_bug_null_pointer\0"
 1256      75675F6E 
 1256      756C6C5F 
 1256      706F696E 
 1256      74657200 
 1257 019f 02       		.sleb128 2
 1258 01a0 05       		.uleb128 0x5
 1259 01a1 6F735F62 		.ascii "os_bug_task_max_wait_time_reached\0"
 1259      75675F74 
 1259      61736B5F 
 1259      6D61785F 
 1259      77616974 
 1260 01c3 03       		.sleb128 3
 1261 01c4 05       		.uleb128 0x5
 1262 01c5 6F735F62 		.ascii "os_bug_Task_unspecified\0"
 1262      75675F54 
 1262      61736B5F 
 1262      756E7370 
 1262      65636966 
 1263 01dd 04       		.sleb128 4
 1264 01de 05       		.uleb128 0x5
 1265 01df 6F735F62 		.ascii "os_bug_exception_UndefInstruction\0"
 1265      75675F65 
 1265      78636570 
 1265      74696F6E 
 1265      5F556E64 
GAS LISTING C:\Users\PRESID~1\AppData\Local\Temp\ccljw3FC.s 			page 40


 1266 0201 05       		.sleb128 5
 1267 0202 05       		.uleb128 0x5
 1268 0203 6F735F62 		.ascii "os_bug_exception_AbortPrefetch\0"
 1268      75675F65 
 1268      78636570 
 1268      74696F6E 
 1268      5F41626F 
 1269 0222 06       		.sleb128 6
 1270 0223 05       		.uleb128 0x5
 1271 0224 6F735F62 		.ascii "os_bug_exception_AbortData\0"
 1271      75675F65 
 1271      78636570 
 1271      74696F6E 
 1271      5F41626F 
 1272 023f 07       		.sleb128 7
 1273 0240 05       		.uleb128 0x5
 1274 0241 6F735F62 		.ascii "os_bug_reset_exit_or_shutdown_failed\0"
 1274      75675F72 
 1274      65736574 
 1274      5F657869 
 1274      745F6F72 
 1275 0266 08       		.sleb128 8
 1276 0267 05       		.uleb128 0x5
 1277 0268 6F735F62 		.ascii "os_bug_critical_stack_usage\0"
 1277      75675F63 
 1277      72697469 
 1277      63616C5F 
 1277      73746163 
 1278 0284 09       		.sleb128 9
 1279 0285 05       		.uleb128 0x5
 1280 0286 6F735F62 		.ascii "os_bug_svc_number_missing\0"
 1280      75675F73 
 1280      76635F6E 
 1280      756D6265 
 1280      725F6D69 
 1281 02a0 0A       		.sleb128 10
 1282 02a1 00       		.byte	0
 1283 02a2 04       		.uleb128 0x4
 1284 02a3 6F735F73 		.ascii "os_sw_bugs_function_e\0"
 1284      775F6275 
 1284      67735F66 
 1284      756E6374 
 1284      696F6E5F 
 1285 02b9 04       		.byte	0x4
 1286 02ba 03       		.byte	0x3
 1287 02bb 3B       		.byte	0x3b
 1288 02bc 59040000 		.long	0x459
 1289 02c0 05       		.uleb128 0x5
 1290 02c1 46756E63 		.ascii "Func_NoFunction\0"
 1290      5F4E6F46 
 1290      756E6374 
 1290      696F6E00 
 1291 02d1 00       		.sleb128 0
 1292 02d2 05       		.uleb128 0x5
 1293 02d3 46756E63 		.ascii "Func_SaveTaskEnvironment\0"
 1293      5F536176 
 1293      65546173 
GAS LISTING C:\Users\PRESID~1\AppData\Local\Temp\ccljw3FC.s 			page 41


 1293      6B456E76 
 1293      69726F6E 
 1294 02ec 01       		.sleb128 1
 1295 02ed 05       		.uleb128 0x5
 1296 02ee 46756E63 		.ascii "Func_RestoreTaskEnvironment\0"
 1296      5F526573 
 1296      746F7265 
 1296      5461736B 
 1296      456E7669 
 1297 030a 02       		.sleb128 2
 1298 030b 05       		.uleb128 0x5
 1299 030c 46756E63 		.ascii "Func_CreateTaskEnvironment\0"
 1299      5F437265 
 1299      61746554 
 1299      61736B45 
 1299      6E766972 
 1300 0327 03       		.sleb128 3
 1301 0328 05       		.uleb128 0x5
 1302 0329 46756E63 		.ascii "Func_DeleteTaskEnvironment\0"
 1302      5F44656C 
 1302      65746554 
 1302      61736B45 
 1302      6E766972 
 1303 0344 04       		.sleb128 4
 1304 0345 05       		.uleb128 0x5
 1305 0346 46756E63 		.ascii "Func_InitTaskEnvironment\0"
 1305      5F496E69 
 1305      74546173 
 1305      6B456E76 
 1305      69726F6E 
 1306 035f 05       		.sleb128 5
 1307 0360 05       		.uleb128 0x5
 1308 0361 46756E63 		.ascii "Func_StartTask\0"
 1308      5F537461 
 1308      72745461 
 1308      736B00
 1309 0370 06       		.sleb128 6
 1310 0371 05       		.uleb128 0x5
 1311 0372 46756E63 		.ascii "Func_PreemptTask\0"
 1311      5F507265 
 1311      656D7074 
 1311      5461736B 
 1311      00
 1312 0383 07       		.sleb128 7
 1313 0384 05       		.uleb128 0x5
 1314 0385 46756E63 		.ascii "Func_TerminateTask\0"
 1314      5F546572 
 1314      6D696E61 
 1314      74655461 
 1314      736B00
 1315 0398 08       		.sleb128 8
 1316 0399 05       		.uleb128 0x5
 1317 039a 46756E63 		.ascii "Func_TaskScheduler\0"
 1317      5F546173 
 1317      6B536368 
 1317      6564756C 
 1317      657200
GAS LISTING C:\Users\PRESID~1\AppData\Local\Temp\ccljw3FC.s 			page 42


 1318 03ad 09       		.sleb128 9
 1319 03ae 05       		.uleb128 0x5
 1320 03af 46756E63 		.ascii "Func_InitTask\0"
 1320      5F496E69 
 1320      74546173 
 1320      6B00
 1321 03bd 0A       		.sleb128 10
 1322 03be 05       		.uleb128 0x5
 1323 03bf 46756E63 		.ascii "Func_ActivateTask\0"
 1323      5F416374 
 1323      69766174 
 1323      65546173 
 1323      6B00
 1324 03d1 0B       		.sleb128 11
 1325 03d2 05       		.uleb128 0x5
 1326 03d3 46756E63 		.ascii "Func_TaskStateRequest\0"
 1326      5F546173 
 1326      6B537461 
 1326      74655265 
 1326      71756573 
 1327 03e9 0C       		.sleb128 12
 1328 03ea 05       		.uleb128 0x5
 1329 03eb 46756E63 		.ascii "Func_Preempt_Task\0"
 1329      5F507265 
 1329      656D7074 
 1329      5F546173 
 1329      6B00
 1330 03fd 0D       		.sleb128 13
 1331 03fe 05       		.uleb128 0x5
 1332 03ff 46756E63 		.ascii "Func_os_exception\0"
 1332      5F6F735F 
 1332      65786365 
 1332      7074696F 
 1332      6E00
 1333 0411 0E       		.sleb128 14
 1334 0412 05       		.uleb128 0x5
 1335 0413 46756E63 		.ascii "Func_CreateTask\0"
 1335      5F437265 
 1335      61746554 
 1335      61736B00 
 1336 0423 0F       		.sleb128 15
 1337 0424 05       		.uleb128 0x5
 1338 0425 46756E63 		.ascii "Func_Shutdown\0"
 1338      5F536875 
 1338      74646F77 
 1338      6E00
 1339 0433 10       		.sleb128 16
 1340 0434 05       		.uleb128 0x5
 1341 0435 46756E63 		.ascii "Func_StackCheck\0"
 1341      5F537461 
 1341      636B4368 
 1341      65636B00 
 1342 0445 11       		.sleb128 17
 1343 0446 05       		.uleb128 0x5
 1344 0447 46756E63 		.ascii "Func_IsrHandler\0"
 1344      5F497372 
 1344      48616E64 
GAS LISTING C:\Users\PRESID~1\AppData\Local\Temp\ccljw3FC.s 			page 43


 1344      6C657200 
 1345 0457 12       		.sleb128 18
 1346 0458 00       		.byte	0
 1347 0459 06       		.uleb128 0x6
 1348 045a 42696749 		.ascii "BigInt_s\0"
 1348      6E745F73 
 1348      00
 1349 0463 10       		.byte	0x10
 1350 0464 03       		.byte	0x3
 1351 0465 5B       		.byte	0x5b
 1352 0466 7A040000 		.long	0x47a
 1353 046a 07       		.uleb128 0x7
 1354 046b 4E756D62 		.ascii "Number\0"
 1354      657200
 1355 0472 03       		.byte	0x3
 1356 0473 64       		.byte	0x64
 1357 0474 7A040000 		.long	0x47a
 1358 0478 00       		.byte	0
 1359 0479 00       		.byte	0
 1360 047a 08       		.uleb128 0x8
 1361 047b CC000000 		.long	0xcc
 1362 047f 8A040000 		.long	0x48a
 1363 0483 09       		.uleb128 0x9
 1364 0484 8A040000 		.long	0x48a
 1365 0488 0F       		.byte	0xf
 1366 0489 00       		.byte	0
 1367 048a 03       		.uleb128 0x3
 1368 048b 04       		.byte	0x4
 1369 048c 07       		.byte	0x7
 1370 048d 73697A65 		.ascii "sizetype\0"
 1370      74797065 
 1370      00
 1371 0496 02       		.uleb128 0x2
 1372 0497 42696749 		.ascii "BigInt\0"
 1372      6E7400
 1373 049e 03       		.byte	0x3
 1374 049f 65       		.byte	0x65
 1375 04a0 59040000 		.long	0x459
 1376 04a4 04       		.uleb128 0x4
 1377 04a5 436F7265 		.ascii "CoreID_e\0"
 1377      49445F65 
 1377      00
 1378 04ae 04       		.byte	0x4
 1379 04af 04       		.byte	0x4
 1380 04b0 04       		.byte	0x4
 1381 04b1 D6040000 		.long	0x4d6
 1382 04b5 05       		.uleb128 0x5
 1383 04b6 436F7265 		.ascii "Core0\0"
 1383      3000
 1384 04bc 00       		.sleb128 0
 1385 04bd 05       		.uleb128 0x5
 1386 04be 436F7265 		.ascii "Core1\0"
 1386      3100
 1387 04c4 01       		.sleb128 1
 1388 04c5 05       		.uleb128 0x5
 1389 04c6 436F7265 		.ascii "Core2\0"
 1389      3200
GAS LISTING C:\Users\PRESID~1\AppData\Local\Temp\ccljw3FC.s 			page 44


 1390 04cc 02       		.sleb128 2
 1391 04cd 05       		.uleb128 0x5
 1392 04ce 436F7265 		.ascii "Core3\0"
 1392      3300
 1393 04d4 03       		.sleb128 3
 1394 04d5 00       		.byte	0
 1395 04d6 04       		.uleb128 0x4
 1396 04d7 70726976 		.ascii "privilige_mode_e\0"
 1396      696C6967 
 1396      655F6D6F 
 1396      64655F65 
 1396      00
 1397 04e8 04       		.byte	0x4
 1398 04e9 04       		.byte	0x4
 1399 04ea 10       		.byte	0x10
 1400 04eb 6B050000 		.long	0x56b
 1401 04ef 05       		.uleb128 0x5
 1402 04f0 65507269 		.ascii "ePriviligeMode_unpriviliged_thread_mode\0"
 1402      76696C69 
 1402      67654D6F 
 1402      64655F75 
 1402      6E707269 
 1403 0518 00       		.sleb128 0
 1404 0519 05       		.uleb128 0x5
 1405 051a 65507269 		.ascii "ePriviligeMode_priviliged_thread_mode\0"
 1405      76696C69 
 1405      67654D6F 
 1405      64655F70 
 1405      72697669 
 1406 0540 01       		.sleb128 1
 1407 0541 05       		.uleb128 0x5
 1408 0542 65507269 		.ascii "ePriviligeMode_priviliged_handler_mode\0"
 1408      76696C69 
 1408      67654D6F 
 1408      64655F70 
 1408      72697669 
 1409 0569 02       		.sleb128 2
 1410 056a 00       		.byte	0
 1411 056b 02       		.uleb128 0x2
 1412 056c 70726976 		.ascii "privilige_mode_t\0"
 1412      696C6967 
 1412      655F6D6F 
 1412      64655F74 
 1412      00
 1413 057d 04       		.byte	0x4
 1414 057e 16       		.byte	0x16
 1415 057f D6040000 		.long	0x4d6
 1416 0583 04       		.uleb128 0x4
 1417 0584 7461736B 		.ascii "task_state_e\0"
 1417      5F737461 
 1417      74655F65 
 1417      00
 1418 0591 04       		.byte	0x4
 1419 0592 05       		.byte	0x5
 1420 0593 07       		.byte	0x7
 1421 0594 D9050000 		.long	0x5d9
 1422 0598 05       		.uleb128 0x5
GAS LISTING C:\Users\PRESID~1\AppData\Local\Temp\ccljw3FC.s 			page 45


 1423 0599 5461736B 		.ascii "Task_unspecified\0"
 1423      5F756E73 
 1423      70656369 
 1423      66696564 
 1423      00
 1424 05aa 00       		.sleb128 0
 1425 05ab 05       		.uleb128 0x5
 1426 05ac 5461736B 		.ascii "Task_suspended\0"
 1426      5F737573 
 1426      70656E64 
 1426      656400
 1427 05bb 01       		.sleb128 1
 1428 05bc 05       		.uleb128 0x5
 1429 05bd 5461736B 		.ascii "Task_ready\0"
 1429      5F726561 
 1429      647900
 1430 05c8 02       		.sleb128 2
 1431 05c9 05       		.uleb128 0x5
 1432 05ca 5461736B 		.ascii "Task_running\0"
 1432      5F72756E 
 1432      6E696E67 
 1432      00
 1433 05d7 03       		.sleb128 3
 1434 05d8 00       		.byte	0
 1435 05d9 02       		.uleb128 0x2
 1436 05da 7461736B 		.ascii "task_state_t\0"
 1436      5F737461 
 1436      74655F74 
 1436      00
 1437 05e7 05       		.byte	0x5
 1438 05e8 0E       		.byte	0xe
 1439 05e9 83050000 		.long	0x583
 1440 05ed 02       		.uleb128 0x2
 1441 05ee 66756E63 		.ascii "func_p_t\0"
 1441      5F705F74 
 1441      00
 1442 05f7 05       		.byte	0x5
 1443 05f8 13       		.byte	0x13
 1444 05f9 FD050000 		.long	0x5fd
 1445 05fd 0A       		.uleb128 0xa
 1446 05fe 04       		.byte	0x4
 1447 05ff 03060000 		.long	0x603
 1448 0603 0B       		.uleb128 0xb
 1449 0604 0E060000 		.long	0x60e
 1450 0608 0C       		.uleb128 0xc
 1451 0609 0E060000 		.long	0x60e
 1452 060d 00       		.byte	0
 1453 060e 0D       		.uleb128 0xd
 1454 060f 04       		.byte	0x4
 1455 0610 02       		.uleb128 0x2
 1456 0611 66756E63 		.ascii "func_p_state_change_t\0"
 1456      5F705F73 
 1456      74617465 
 1456      5F636861 
 1456      6E67655F 
 1457 0627 05       		.byte	0x5
 1458 0628 15       		.byte	0x15
GAS LISTING C:\Users\PRESID~1\AppData\Local\Temp\ccljw3FC.s 			page 46


 1459 0629 2D060000 		.long	0x62d
 1460 062d 0A       		.uleb128 0xa
 1461 062e 04       		.byte	0x4
 1462 062f 33060000 		.long	0x633
 1463 0633 0E       		.uleb128 0xe
 1464 0634 95000000 		.long	0x95
 1465 0638 47060000 		.long	0x647
 1466 063c 0C       		.uleb128 0xc
 1467 063d 0E060000 		.long	0x60e
 1468 0641 0C       		.uleb128 0xc
 1469 0642 D9050000 		.long	0x5d9
 1470 0646 00       		.byte	0
 1471 0647 02       		.uleb128 0x2
 1472 0648 74696D65 		.ascii "timebig_t\0"
 1472      6269675F 
 1472      7400
 1473 0652 05       		.byte	0x5
 1474 0653 16       		.byte	0x16
 1475 0654 96040000 		.long	0x496
 1476 0658 06       		.uleb128 0x6
 1477 0659 7461736B 		.ascii "task_group_s\0"
 1477      5F67726F 
 1477      75705F73 
 1477      00
 1478 0666 20       		.byte	0x20
 1479 0667 05       		.byte	0x5
 1480 0668 18       		.byte	0x18
 1481 0669 90060000 		.long	0x690
 1482 066d 0F       		.uleb128 0xf
 1483 066e 09000000 		.secrel32	LASF0
 1484 0672 05       		.byte	0x5
 1485 0673 1A       		.byte	0x1a
 1486 0674 47060000 		.long	0x647
 1487 0678 00       		.byte	0
 1488 0679 07       		.uleb128 0x7
 1489 067a 66616972 		.ascii "fair_exe_time\0"
 1489      5F657865 
 1489      5F74696D 
 1489      6500
 1490 0688 05       		.byte	0x5
 1491 0689 1B       		.byte	0x1b
 1492 068a 47060000 		.long	0x647
 1493 068e 10       		.byte	0x10
 1494 068f 00       		.byte	0
 1495 0690 02       		.uleb128 0x2
 1496 0691 7461736B 		.ascii "task_group_t\0"
 1496      5F67726F 
 1496      75705F74 
 1496      00
 1497 069e 05       		.byte	0x5
 1498 069f 1D       		.byte	0x1d
 1499 06a0 58060000 		.long	0x658
 1500 06a4 06       		.uleb128 0x6
 1501 06a5 7461736B 		.ascii "task_s\0"
 1501      5F7300
 1502 06ac AC       		.byte	0xac
 1503 06ad 05       		.byte	0x5
GAS LISTING C:\Users\PRESID~1\AppData\Local\Temp\ccljw3FC.s 			page 47


 1504 06ae 1F       		.byte	0x1f
 1505 06af 18090000 		.long	0x918
 1506 06b3 10       		.uleb128 0x10
 1507 06b4 61637469 		.ascii "active\0"
 1507      766500
 1508 06bb 05       		.byte	0x5
 1509 06bc 21       		.byte	0x21
 1510 06bd 18090000 		.long	0x918
 1511 06c1 04       		.byte	0x4
 1512 06c2 01       		.byte	0x1
 1513 06c3 1F       		.byte	0x1f
 1514 06c4 00       		.byte	0
 1515 06c5 10       		.uleb128 0x10
 1516 06c6 7461736B 		.ascii "task_queued\0"
 1516      5F717565 
 1516      75656400 
 1517 06d2 05       		.byte	0x5
 1518 06d3 22       		.byte	0x22
 1519 06d4 18090000 		.long	0x918
 1520 06d8 04       		.byte	0x4
 1521 06d9 01       		.byte	0x1
 1522 06da 1E       		.byte	0x1e
 1523 06db 00       		.byte	0
 1524 06dc 10       		.uleb128 0x10
 1525 06dd 49646C65 		.ascii "IdleTask\0"
 1525      5461736B 
 1525      00
 1526 06e6 05       		.byte	0x5
 1527 06e7 23       		.byte	0x23
 1528 06e8 18090000 		.long	0x918
 1529 06ec 04       		.byte	0x4
 1530 06ed 01       		.byte	0x1
 1531 06ee 1D       		.byte	0x1d
 1532 06ef 00       		.byte	0
 1533 06f0 10       		.uleb128 0x10
 1534 06f1 46524545 		.ascii "FREE\0"
 1534      00
 1535 06f6 05       		.byte	0x5
 1536 06f7 24       		.byte	0x24
 1537 06f8 18090000 		.long	0x918
 1538 06fc 04       		.byte	0x4
 1539 06fd 1D       		.byte	0x1d
 1540 06fe 00       		.byte	0
 1541 06ff 00       		.byte	0
 1542 0700 07       		.uleb128 0x7
 1543 0701 4E724F66 		.ascii "NrOfInsAllowed\0"
 1543      496E7341 
 1543      6C6C6F77 
 1543      656400
 1544 0710 05       		.byte	0x5
 1545 0711 25       		.byte	0x25
 1546 0712 95000000 		.long	0x95
 1547 0716 04       		.byte	0x4
 1548 0717 07       		.uleb128 0x7
 1549 0718 4E724F66 		.ascii "NrOfInsActivated\0"
 1549      496E7341 
 1549      63746976 
GAS LISTING C:\Users\PRESID~1\AppData\Local\Temp\ccljw3FC.s 			page 48


 1549      61746564 
 1549      00
 1550 0729 05       		.byte	0x5
 1551 072a 26       		.byte	0x26
 1552 072b 95000000 		.long	0x95
 1553 072f 05       		.byte	0x5
 1554 0730 07       		.uleb128 0x7
 1555 0731 57616974 		.ascii "WaitActUntil\0"
 1555      41637455 
 1555      6E74696C 
 1555      00
 1556 073e 05       		.byte	0x5
 1557 073f 27       		.byte	0x27
 1558 0740 47060000 		.long	0x647
 1559 0744 06       		.byte	0x6
 1560 0745 07       		.uleb128 0x7
 1561 0746 77616974 		.ascii "wait_time\0"
 1561      5F74696D 
 1561      6500
 1562 0750 05       		.byte	0x5
 1563 0751 28       		.byte	0x28
 1564 0752 47060000 		.long	0x647
 1565 0756 16       		.byte	0x16
 1566 0757 07       		.uleb128 0x7
 1567 0758 54696D65 		.ascii "TimeToPrioInc\0"
 1567      546F5072 
 1567      696F496E 
 1567      6300
 1568 0766 05       		.byte	0x5
 1569 0767 29       		.byte	0x29
 1570 0768 47060000 		.long	0x647
 1571 076c 26       		.byte	0x26
 1572 076d 07       		.uleb128 0x7
 1573 076e 6F766572 		.ascii "overwaittime_per_prio_inc_step\0"
 1573      77616974 
 1573      74696D65 
 1573      5F706572 
 1573      5F707269 
 1574 078d 05       		.byte	0x5
 1575 078e 2A       		.byte	0x2a
 1576 078f 35010000 		.long	0x135
 1577 0793 38       		.byte	0x38
 1578 0794 07       		.uleb128 0x7
 1579 0795 6D61785F 		.ascii "max_allowed_wait_time\0"
 1579      616C6C6F 
 1579      7765645F 
 1579      77616974 
 1579      5F74696D 
 1580 07ab 05       		.byte	0x5
 1581 07ac 2B       		.byte	0x2b
 1582 07ad 47060000 		.long	0x647
 1583 07b1 3C       		.byte	0x3c
 1584 07b2 0F       		.uleb128 0xf
 1585 07b3 09000000 		.secrel32	LASF0
 1586 07b7 05       		.byte	0x5
 1587 07b8 2C       		.byte	0x2c
 1588 07b9 47060000 		.long	0x647
GAS LISTING C:\Users\PRESID~1\AppData\Local\Temp\ccljw3FC.s 			page 49


 1589 07bd 4C       		.byte	0x4c
 1590 07be 07       		.uleb128 0x7
 1591 07bf 73746172 		.ascii "start_time\0"
 1591      745F7469 
 1591      6D6500
 1592 07ca 05       		.byte	0x5
 1593 07cb 2D       		.byte	0x2d
 1594 07cc 47060000 		.long	0x647
 1595 07d0 5C       		.byte	0x5c
 1596 07d1 07       		.uleb128 0x7
 1597 07d2 63757272 		.ascii "current_prio\0"
 1597      656E745F 
 1597      7072696F 
 1597      00
 1598 07df 05       		.byte	0x5
 1599 07e0 2E       		.byte	0x2e
 1600 07e1 95000000 		.long	0x95
 1601 07e5 6C       		.byte	0x6c
 1602 07e6 07       		.uleb128 0x7
 1603 07e7 64656661 		.ascii "default_prio\0"
 1603      756C745F 
 1603      7072696F 
 1603      00
 1604 07f4 05       		.byte	0x5
 1605 07f5 2F       		.byte	0x2f
 1606 07f6 95000000 		.long	0x95
 1607 07fa 6D       		.byte	0x6d
 1608 07fb 07       		.uleb128 0x7
 1609 07fc 7461736B 		.ascii "task_number\0"
 1609      5F6E756D 
 1609      62657200 
 1610 0808 05       		.byte	0x5
 1611 0809 30       		.byte	0x30
 1612 080a FC000000 		.long	0xfc
 1613 080e 70       		.byte	0x70
 1614 080f 07       		.uleb128 0x7
 1615 0810 667000   		.ascii "fp\0"
 1616 0813 05       		.byte	0x5
 1617 0814 31       		.byte	0x31
 1618 0815 ED050000 		.long	0x5ed
 1619 0819 74       		.byte	0x74
 1620 081a 07       		.uleb128 0x7
 1621 081b 73746174 		.ascii "state_request\0"
 1621      655F7265 
 1621      71756573 
 1621      7400
 1622 0829 05       		.byte	0x5
 1623 082a 32       		.byte	0x32
 1624 082b 10060000 		.long	0x610
 1625 082f 78       		.byte	0x78
 1626 0830 07       		.uleb128 0x7
 1627 0831 7461736B 		.ascii "task_state\0"
 1627      5F737461 
 1627      746500
 1628 083c 05       		.byte	0x5
 1629 083d 33       		.byte	0x33
 1630 083e D9050000 		.long	0x5d9
GAS LISTING C:\Users\PRESID~1\AppData\Local\Temp\ccljw3FC.s 			page 50


 1631 0842 7C       		.byte	0x7c
 1632 0843 07       		.uleb128 0x7
 1633 0844 7461736B 		.ascii "task_group\0"
 1633      5F67726F 
 1633      757000
 1634 084f 05       		.byte	0x5
 1635 0850 34       		.byte	0x34
 1636 0851 28090000 		.long	0x928
 1637 0855 80       		.byte	0x80
 1638 0856 07       		.uleb128 0x7
 1639 0857 45415800 		.ascii "EAX\0"
 1640 085b 05       		.byte	0x5
 1641 085c 36       		.byte	0x36
 1642 085d FC000000 		.long	0xfc
 1643 0861 84       		.byte	0x84
 1644 0862 07       		.uleb128 0x7
 1645 0863 45425800 		.ascii "EBX\0"
 1646 0867 05       		.byte	0x5
 1647 0868 37       		.byte	0x37
 1648 0869 FC000000 		.long	0xfc
 1649 086d 88       		.byte	0x88
 1650 086e 07       		.uleb128 0x7
 1651 086f 45435800 		.ascii "ECX\0"
 1652 0873 05       		.byte	0x5
 1653 0874 38       		.byte	0x38
 1654 0875 FC000000 		.long	0xfc
 1655 0879 8C       		.byte	0x8c
 1656 087a 07       		.uleb128 0x7
 1657 087b 45445800 		.ascii "EDX\0"
 1658 087f 05       		.byte	0x5
 1659 0880 39       		.byte	0x39
 1660 0881 FC000000 		.long	0xfc
 1661 0885 90       		.byte	0x90
 1662 0886 07       		.uleb128 0x7
 1663 0887 70537461 		.ascii "pStackPointer\0"
 1663      636B506F 
 1663      696E7465 
 1663      7200
 1664 0895 05       		.byte	0x5
 1665 0896 49       		.byte	0x49
 1666 0897 2E090000 		.long	0x92e
 1667 089b 94       		.byte	0x94
 1668 089c 07       		.uleb128 0x7
 1669 089d 70537461 		.ascii "pStackPointerByMalloc\0"
 1669      636B506F 
 1669      696E7465 
 1669      7242794D 
 1669      616C6C6F 
 1670 08b3 05       		.byte	0x5
 1671 08b4 4A       		.byte	0x4a
 1672 08b5 2E090000 		.long	0x92e
 1673 08b9 98       		.byte	0x98
 1674 08ba 07       		.uleb128 0x7
 1675 08bb 70537461 		.ascii "pStackPointerStart\0"
 1675      636B506F 
 1675      696E7465 
 1675      72537461 
GAS LISTING C:\Users\PRESID~1\AppData\Local\Temp\ccljw3FC.s 			page 51


 1675      727400
 1676 08ce 05       		.byte	0x5
 1677 08cf 4B       		.byte	0x4b
 1678 08d0 2E090000 		.long	0x92e
 1679 08d4 9C       		.byte	0x9c
 1680 08d5 07       		.uleb128 0x7
 1681 08d6 53746163 		.ascii "StackSize\0"
 1681      6B53697A 
 1681      6500
 1682 08e0 05       		.byte	0x5
 1683 08e1 4C       		.byte	0x4c
 1684 08e2 FC000000 		.long	0xfc
 1685 08e6 A0       		.byte	0xa0
 1686 08e7 07       		.uleb128 0x7
 1687 08e8 70537461 		.ascii "pStackPointerEnd\0"
 1687      636B506F 
 1687      696E7465 
 1687      72456E64 
 1687      00
 1688 08f9 05       		.byte	0x5
 1689 08fa 4D       		.byte	0x4d
 1690 08fb 2E090000 		.long	0x92e
 1691 08ff A4       		.byte	0xa4
 1692 0900 07       		.uleb128 0x7
 1693 0901 70726976 		.ascii "privilige_mode\0"
 1693      696C6967 
 1693      655F6D6F 
 1693      646500
 1694 0910 05       		.byte	0x5
 1695 0911 4E       		.byte	0x4e
 1696 0912 6B050000 		.long	0x56b
 1697 0916 A8       		.byte	0xa8
 1698 0917 00       		.byte	0
 1699 0918 03       		.uleb128 0x3
 1700 0919 04       		.byte	0x4
 1701 091a 07       		.byte	0x7
 1702 091b 756E7369 		.ascii "unsigned int\0"
 1702      676E6564 
 1702      20696E74 
 1702      00
 1703 0928 0A       		.uleb128 0xa
 1704 0929 04       		.byte	0x4
 1705 092a 90060000 		.long	0x690
 1706 092e 0A       		.uleb128 0xa
 1707 092f 04       		.byte	0x4
 1708 0930 95000000 		.long	0x95
 1709 0934 02       		.uleb128 0x2
 1710 0935 7461736B 		.ascii "task_t\0"
 1710      5F7400
 1711 093c 05       		.byte	0x5
 1712 093d 50       		.byte	0x50
 1713 093e A4060000 		.long	0x6a4
 1714 0942 02       		.uleb128 0x2
 1715 0943 73636865 		.ascii "scheduling_t\0"
 1715      64756C69 
 1715      6E675F74 
 1715      00
GAS LISTING C:\Users\PRESID~1\AppData\Local\Temp\ccljw3FC.s 			page 52


 1716 0950 05       		.byte	0x5
 1717 0951 51       		.byte	0x51
 1718 0952 56090000 		.long	0x956
 1719 0956 0A       		.uleb128 0xa
 1720 0957 04       		.byte	0x4
 1721 0958 34090000 		.long	0x934
 1722 095c 02       		.uleb128 0x2
 1723 095d 73636865 		.ascii "scheduler_time_t\0"
 1723      64756C65 
 1723      725F7469 
 1723      6D655F74 
 1723      00
 1724 096e 05       		.byte	0x5
 1725 096f 5F       		.byte	0x5f
 1726 0970 47060000 		.long	0x647
 1727 0974 11       		.uleb128 0x11
 1728 0975 4F535F41 		.ascii "OS_ActivateDispatcher\0"
 1728      63746976 
 1728      61746544 
 1728      69737061 
 1728      74636865 
 1729 098b 01       		.byte	0x1
 1730 098c 16       		.byte	0x16
 1731 098d 00000000 		.long	LFB0
 1732 0991 05000000 		.long	LFE0-LFB0
 1733 0995 01       		.uleb128 0x1
 1734 0996 9C       		.byte	0x9c
 1735 0997 12       		.uleb128 0x12
 1736 0998 4F535F53 		.ascii "OS_SleepTask\0"
 1736      6C656570 
 1736      5461736B 
 1736      00
 1737 09a5 01       		.byte	0x1
 1738 09a6 30       		.byte	0x30
 1739 09a7 05000000 		.long	LFB1
 1740 09ab 41000000 		.long	LFE1-LFB1
 1741 09af 01       		.uleb128 0x1
 1742 09b0 9C       		.byte	0x9c
 1743 09b1 F0090000 		.long	0x9f0
 1744 09b5 13       		.uleb128 0x13
 1745 09b6 22000000 		.secrel32	LASF1
 1746 09ba 01       		.byte	0x1
 1747 09bb 30       		.byte	0x30
 1748 09bc 56090000 		.long	0x956
 1749 09c0 02       		.uleb128 0x2
 1750 09c1 91       		.byte	0x91
 1751 09c2 00       		.sleb128 0
 1752 09c3 14       		.uleb128 0x14
 1753 09c4 75736563 		.ascii "usec\0"
 1753      00
 1754 09c9 01       		.byte	0x1
 1755 09ca 30       		.byte	0x30
 1756 09cb 47060000 		.long	0x647
 1757 09cf 02       		.uleb128 0x2
 1758 09d0 91       		.byte	0x91
 1759 09d1 04       		.sleb128 4
 1760 09d2 13       		.uleb128 0x13
GAS LISTING C:\Users\PRESID~1\AppData\Local\Temp\ccljw3FC.s 			page 53


 1761 09d3 27000000 		.secrel32	LASF2
 1762 09d7 01       		.byte	0x1
 1763 09d8 30       		.byte	0x30
 1764 09d9 F0090000 		.long	0x9f0
 1765 09dd 02       		.uleb128 0x2
 1766 09de 91       		.byte	0x91
 1767 09df 14       		.sleb128 20
 1768 09e0 15       		.uleb128 0x15
 1769 09e1 74696D65 		.ascii "time\0"
 1769      00
 1770 09e6 01       		.byte	0x1
 1771 09e7 32       		.byte	0x32
 1772 09e8 47060000 		.long	0x647
 1773 09ec 02       		.uleb128 0x2
 1774 09ed 91       		.byte	0x91
 1775 09ee 60       		.sleb128 -32
 1776 09ef 00       		.byte	0
 1777 09f0 0A       		.uleb128 0xa
 1778 09f1 04       		.byte	0x4
 1779 09f2 42090000 		.long	0x942
 1780 09f6 16       		.uleb128 0x16
 1781 09f7 7461736B 		.ascii "task_state_request\0"
 1781      5F737461 
 1781      74655F72 
 1781      65717565 
 1781      737400
 1782 0a0a 01       		.byte	0x1
 1783 0a0b 39       		.byte	0x39
 1784 0a0c 95000000 		.long	0x95
 1785 0a10 46000000 		.long	LFB2
 1786 0a14 3D010000 		.long	LFE2-LFB2
 1787 0a18 01       		.uleb128 0x1
 1788 0a19 9C       		.byte	0x9c
 1789 0a1a 720A0000 		.long	0xa72
 1790 0a1e 14       		.uleb128 0x14
 1791 0a1f 74656D70 		.ascii "temp_task\0"
 1791      5F746173 
 1791      6B00
 1792 0a29 01       		.byte	0x1
 1793 0a2a 39       		.byte	0x39
 1794 0a2b 0E060000 		.long	0x60e
 1795 0a2f 02       		.uleb128 0x2
 1796 0a30 91       		.byte	0x91
 1797 0a31 00       		.sleb128 0
 1798 0a32 14       		.uleb128 0x14
 1799 0a33 72657175 		.ascii "requested_state\0"
 1799      65737465 
 1799      645F7374 
 1799      61746500 
 1800 0a43 01       		.byte	0x1
 1801 0a44 39       		.byte	0x39
 1802 0a45 D9050000 		.long	0x5d9
 1803 0a49 02       		.uleb128 0x2
 1804 0a4a 91       		.byte	0x91
 1805 0a4b 04       		.sleb128 4
 1806 0a4c 15       		.uleb128 0x15
 1807 0a4d 52657175 		.ascii "RequestState\0"
GAS LISTING C:\Users\PRESID~1\AppData\Local\Temp\ccljw3FC.s 			page 54


 1807      65737453 
 1807      74617465 
 1807      00
 1808 0a5a 01       		.byte	0x1
 1809 0a5b 3B       		.byte	0x3b
 1810 0a5c 95000000 		.long	0x95
 1811 0a60 02       		.uleb128 0x2
 1812 0a61 91       		.byte	0x91
 1813 0a62 6F       		.sleb128 -17
 1814 0a63 17       		.uleb128 0x17
 1815 0a64 22000000 		.secrel32	LASF1
 1816 0a68 01       		.byte	0x1
 1817 0a69 3D       		.byte	0x3d
 1818 0a6a 56090000 		.long	0x956
 1819 0a6e 02       		.uleb128 0x2
 1820 0a6f 91       		.byte	0x91
 1821 0a70 68       		.sleb128 -24
 1822 0a71 00       		.byte	0
 1823 0a72 12       		.uleb128 0x12
 1824 0a73 4F535F43 		.ascii "OS_CreateTask\0"
 1824      72656174 
 1824      65546173 
 1824      6B00
 1825 0a81 01       		.byte	0x1
 1826 0a82 AF       		.byte	0xaf
 1827 0a83 83010000 		.long	LFB3
 1828 0a87 72000000 		.long	LFE3-LFB3
 1829 0a8b 01       		.uleb128 0x1
 1830 0a8c 9C       		.byte	0x9c
 1831 0a8d A00A0000 		.long	0xaa0
 1832 0a91 13       		.uleb128 0x13
 1833 0a92 22000000 		.secrel32	LASF1
 1834 0a96 01       		.byte	0x1
 1835 0a97 AF       		.byte	0xaf
 1836 0a98 56090000 		.long	0x956
 1837 0a9c 02       		.uleb128 0x2
 1838 0a9d 91       		.byte	0x91
 1839 0a9e 00       		.sleb128 0
 1840 0a9f 00       		.byte	0
 1841 0aa0 18       		.uleb128 0x18
 1842 0aa1 4F535F50 		.ascii "OS_PreemptTask\0"
 1842      7265656D 
 1842      70745461 
 1842      736B00
 1843 0ab0 01       		.byte	0x1
 1844 0ab1 C9       		.byte	0xc9
 1845 0ab2 F5010000 		.long	LFB4
 1846 0ab6 AB000000 		.long	LFE4-LFB4
 1847 0aba 01       		.uleb128 0x1
 1848 0abb 9C       		.byte	0x9c
 1849 0abc DD0A0000 		.long	0xadd
 1850 0ac0 13       		.uleb128 0x13
 1851 0ac1 22000000 		.secrel32	LASF1
 1852 0ac5 01       		.byte	0x1
 1853 0ac6 C9       		.byte	0xc9
 1854 0ac7 56090000 		.long	0x956
 1855 0acb 02       		.uleb128 0x2
GAS LISTING C:\Users\PRESID~1\AppData\Local\Temp\ccljw3FC.s 			page 55


 1856 0acc 91       		.byte	0x91
 1857 0acd 00       		.sleb128 0
 1858 0ace 13       		.uleb128 0x13
 1859 0acf 12000000 		.secrel32	LASF3
 1860 0ad3 01       		.byte	0x1
 1861 0ad4 C9       		.byte	0xc9
 1862 0ad5 F0090000 		.long	0x9f0
 1863 0ad9 02       		.uleb128 0x2
 1864 0ada 91       		.byte	0x91
 1865 0adb 04       		.sleb128 4
 1866 0adc 00       		.byte	0
 1867 0add 12       		.uleb128 0x12
 1868 0ade 4F535F41 		.ascii "OS_ActivateTask\0"
 1868      63746976 
 1868      61746554 
 1868      61736B00 
 1869 0aee 01       		.byte	0x1
 1870 0aef F2       		.byte	0xf2
 1871 0af0 A0020000 		.long	LFB5
 1872 0af4 E7000000 		.long	LFE5-LFB5
 1873 0af8 01       		.uleb128 0x1
 1874 0af9 9C       		.byte	0x9c
 1875 0afa 0D0B0000 		.long	0xb0d
 1876 0afe 13       		.uleb128 0x13
 1877 0aff 22000000 		.secrel32	LASF1
 1878 0b03 01       		.byte	0x1
 1879 0b04 F2       		.byte	0xf2
 1880 0b05 56090000 		.long	0x956
 1881 0b09 02       		.uleb128 0x2
 1882 0b0a 91       		.byte	0x91
 1883 0b0b 00       		.sleb128 0
 1884 0b0c 00       		.byte	0
 1885 0b0d 19       		.uleb128 0x19
 1886 0b0e 4F535F53 		.ascii "OS_StartTask\0"
 1886      74617274 
 1886      5461736B 
 1886      00
 1887 0b1b 01       		.byte	0x1
 1888 0b1c 2601     		.word	0x126
 1889 0b1e 87030000 		.long	LFB6
 1890 0b22 1D010000 		.long	LFE6-LFB6
 1891 0b26 01       		.uleb128 0x1
 1892 0b27 9C       		.byte	0x9c
 1893 0b28 5B0B0000 		.long	0xb5b
 1894 0b2c 1A       		.uleb128 0x1a
 1895 0b2d 22000000 		.secrel32	LASF1
 1896 0b31 01       		.byte	0x1
 1897 0b32 2601     		.word	0x126
 1898 0b34 56090000 		.long	0x956
 1899 0b38 02       		.uleb128 0x2
 1900 0b39 91       		.byte	0x91
 1901 0b3a 00       		.sleb128 0
 1902 0b3b 1A       		.uleb128 0x1a
 1903 0b3c 12000000 		.secrel32	LASF3
 1904 0b40 01       		.byte	0x1
 1905 0b41 2601     		.word	0x126
 1906 0b43 F0090000 		.long	0x9f0
GAS LISTING C:\Users\PRESID~1\AppData\Local\Temp\ccljw3FC.s 			page 56


 1907 0b47 02       		.uleb128 0x2
 1908 0b48 91       		.byte	0x91
 1909 0b49 04       		.sleb128 4
 1910 0b4a 1B       		.uleb128 0x1b
 1911 0b4b 74696D65 		.ascii "time\0"
 1911      00
 1912 0b50 01       		.byte	0x1
 1913 0b51 2F01     		.word	0x12f
 1914 0b53 47060000 		.long	0x647
 1915 0b57 02       		.uleb128 0x2
 1916 0b58 91       		.byte	0x91
 1917 0b59 60       		.sleb128 -32
 1918 0b5a 00       		.byte	0
 1919 0b5b 19       		.uleb128 0x19
 1920 0b5c 4F535F54 		.ascii "OS_TerminateTask\0"
 1920      65726D69 
 1920      6E617465 
 1920      5461736B 
 1920      00
 1921 0b6d 01       		.byte	0x1
 1922 0b6e 5D01     		.word	0x15d
 1923 0b70 A4040000 		.long	LFB7
 1924 0b74 C5000000 		.long	LFE7-LFB7
 1925 0b78 01       		.uleb128 0x1
 1926 0b79 9C       		.byte	0x9c
 1927 0b7a 9D0B0000 		.long	0xb9d
 1928 0b7e 1A       		.uleb128 0x1a
 1929 0b7f 22000000 		.secrel32	LASF1
 1930 0b83 01       		.byte	0x1
 1931 0b84 5D01     		.word	0x15d
 1932 0b86 56090000 		.long	0x956
 1933 0b8a 02       		.uleb128 0x2
 1934 0b8b 91       		.byte	0x91
 1935 0b8c 00       		.sleb128 0
 1936 0b8d 1A       		.uleb128 0x1a
 1937 0b8e 12000000 		.secrel32	LASF3
 1938 0b92 01       		.byte	0x1
 1939 0b93 5D01     		.word	0x15d
 1940 0b95 F0090000 		.long	0x9f0
 1941 0b99 02       		.uleb128 0x2
 1942 0b9a 91       		.byte	0x91
 1943 0b9b 04       		.sleb128 4
 1944 0b9c 00       		.byte	0
 1945 0b9d 19       		.uleb128 0x19
 1946 0b9e 4F535F54 		.ascii "OS_TaskDispatcher\0"
 1946      61736B44 
 1946      69737061 
 1946      74636865 
 1946      7200
 1947 0bb0 01       		.byte	0x1
 1948 0bb1 8601     		.word	0x186
 1949 0bb3 69050000 		.long	LFB8
 1950 0bb7 77000000 		.long	LFE8-LFB8
 1951 0bbb 01       		.uleb128 0x1
 1952 0bbc 9C       		.byte	0x9c
 1953 0bbd E00B0000 		.long	0xbe0
 1954 0bc1 1C       		.uleb128 0x1c
GAS LISTING C:\Users\PRESID~1\AppData\Local\Temp\ccljw3FC.s 			page 57


 1955 0bc2 27000000 		.secrel32	LASF2
 1956 0bc6 01       		.byte	0x1
 1957 0bc7 9201     		.word	0x192
 1958 0bc9 F0090000 		.long	0x9f0
 1959 0bcd 02       		.uleb128 0x2
 1960 0bce 91       		.byte	0x91
 1961 0bcf 68       		.sleb128 -24
 1962 0bd0 1C       		.uleb128 0x1c
 1963 0bd1 22000000 		.secrel32	LASF1
 1964 0bd5 01       		.byte	0x1
 1965 0bd6 9301     		.word	0x193
 1966 0bd8 56090000 		.long	0x956
 1967 0bdc 02       		.uleb128 0x2
 1968 0bdd 91       		.byte	0x91
 1969 0bde 6C       		.sleb128 -20
 1970 0bdf 00       		.byte	0
 1971 0be0 1D       		.uleb128 0x1d
 1972 0be1 5441534B 		.ascii "TASK_0\0"
 1972      5F3000
 1973 0be8 01       		.byte	0x1
 1974 0be9 A701     		.word	0x1a7
 1975 0beb E0050000 		.long	LFB9
 1976 0bef 05000000 		.long	LFE9-LFB9
 1977 0bf3 01       		.uleb128 0x1
 1978 0bf4 9C       		.byte	0x9c
 1979 0bf5 090C0000 		.long	0xc09
 1980 0bf9 1A       		.uleb128 0x1a
 1981 0bfa 00000000 		.secrel32	LASF4
 1982 0bfe 01       		.byte	0x1
 1983 0bff A701     		.word	0x1a7
 1984 0c01 0E060000 		.long	0x60e
 1985 0c05 02       		.uleb128 0x2
 1986 0c06 91       		.byte	0x91
 1987 0c07 00       		.sleb128 0
 1988 0c08 00       		.byte	0
 1989 0c09 1E       		.uleb128 0x1e
 1990 0c0a 5441534B 		.ascii "TASK_1\0"
 1990      5F3100
 1991 0c11 01       		.byte	0x1
 1992 0c12 AC01     		.word	0x1ac
 1993 0c14 E5050000 		.long	LFB10
 1994 0c18 34000000 		.long	LFE10-LFB10
 1995 0c1c 01       		.uleb128 0x1
 1996 0c1d 9C       		.byte	0x9c
 1997 0c1e 410C0000 		.long	0xc41
 1998 0c22 1A       		.uleb128 0x1a
 1999 0c23 00000000 		.secrel32	LASF4
 2000 0c27 01       		.byte	0x1
 2001 0c28 AC01     		.word	0x1ac
 2002 0c2a 0E060000 		.long	0x60e
 2003 0c2e 02       		.uleb128 0x2
 2004 0c2f 91       		.byte	0x91
 2005 0c30 00       		.sleb128 0
 2006 0c31 1C       		.uleb128 0x1c
 2007 0c32 27000000 		.secrel32	LASF2
 2008 0c36 01       		.byte	0x1
 2009 0c37 AE01     		.word	0x1ae
GAS LISTING C:\Users\PRESID~1\AppData\Local\Temp\ccljw3FC.s 			page 58


 2010 0c39 F0090000 		.long	0x9f0
 2011 0c3d 02       		.uleb128 0x2
 2012 0c3e 91       		.byte	0x91
 2013 0c3f 6C       		.sleb128 -20
 2014 0c40 00       		.byte	0
 2015 0c41 1E       		.uleb128 0x1e
 2016 0c42 5441534B 		.ascii "TASK_2\0"
 2016      5F3200
 2017 0c49 01       		.byte	0x1
 2018 0c4a B901     		.word	0x1b9
 2019 0c4c 19060000 		.long	LFB11
 2020 0c50 34000000 		.long	LFE11-LFB11
 2021 0c54 01       		.uleb128 0x1
 2022 0c55 9C       		.byte	0x9c
 2023 0c56 790C0000 		.long	0xc79
 2024 0c5a 1A       		.uleb128 0x1a
 2025 0c5b 00000000 		.secrel32	LASF4
 2026 0c5f 01       		.byte	0x1
 2027 0c60 B901     		.word	0x1b9
 2028 0c62 0E060000 		.long	0x60e
 2029 0c66 02       		.uleb128 0x2
 2030 0c67 91       		.byte	0x91
 2031 0c68 00       		.sleb128 0
 2032 0c69 1C       		.uleb128 0x1c
 2033 0c6a 27000000 		.secrel32	LASF2
 2034 0c6e 01       		.byte	0x1
 2035 0c6f BB01     		.word	0x1bb
 2036 0c71 F0090000 		.long	0x9f0
 2037 0c75 02       		.uleb128 0x2
 2038 0c76 91       		.byte	0x91
 2039 0c77 6C       		.sleb128 -20
 2040 0c78 00       		.byte	0
 2041 0c79 1E       		.uleb128 0x1e
 2042 0c7a 5441534B 		.ascii "TASK_3\0"
 2042      5F3300
 2043 0c81 01       		.byte	0x1
 2044 0c82 C601     		.word	0x1c6
 2045 0c84 4D060000 		.long	LFB12
 2046 0c88 34000000 		.long	LFE12-LFB12
 2047 0c8c 01       		.uleb128 0x1
 2048 0c8d 9C       		.byte	0x9c
 2049 0c8e B10C0000 		.long	0xcb1
 2050 0c92 1A       		.uleb128 0x1a
 2051 0c93 00000000 		.secrel32	LASF4
 2052 0c97 01       		.byte	0x1
 2053 0c98 C601     		.word	0x1c6
 2054 0c9a 0E060000 		.long	0x60e
 2055 0c9e 02       		.uleb128 0x2
 2056 0c9f 91       		.byte	0x91
 2057 0ca0 00       		.sleb128 0
 2058 0ca1 1C       		.uleb128 0x1c
 2059 0ca2 27000000 		.secrel32	LASF2
 2060 0ca6 01       		.byte	0x1
 2061 0ca7 C801     		.word	0x1c8
 2062 0ca9 F0090000 		.long	0x9f0
 2063 0cad 02       		.uleb128 0x2
 2064 0cae 91       		.byte	0x91
GAS LISTING C:\Users\PRESID~1\AppData\Local\Temp\ccljw3FC.s 			page 59


 2065 0caf 6C       		.sleb128 -20
 2066 0cb0 00       		.byte	0
 2067 0cb1 19       		.uleb128 0x19
 2068 0cb2 4F535F49 		.ascii "OS_InitTasks\0"
 2068      6E697454 
 2068      61736B73 
 2068      00
 2069 0cbf 01       		.byte	0x1
 2070 0cc0 D301     		.word	0x1d3
 2071 0cc2 81060000 		.long	LFB13
 2072 0cc6 B4010000 		.long	LFE13-LFB13
 2073 0cca 01       		.uleb128 0x1
 2074 0ccb 9C       		.byte	0x9c
 2075 0ccc E00C0000 		.long	0xce0
 2076 0cd0 1C       		.uleb128 0x1c
 2077 0cd1 00000000 		.secrel32	LASF4
 2078 0cd5 01       		.byte	0x1
 2079 0cd6 D501     		.word	0x1d5
 2080 0cd8 56090000 		.long	0x956
 2081 0cdc 02       		.uleb128 0x2
 2082 0cdd 91       		.byte	0x91
 2083 0cde 6C       		.sleb128 -20
 2084 0cdf 00       		.byte	0
 2085 0ce0 1F       		.uleb128 0x1f
 2086 0ce1 4F535F54 		.ascii "OS_TaskScheduler\0"
 2086      61736B53 
 2086      63686564 
 2086      756C6572 
 2086      00
 2087 0cf2 01       		.byte	0x1
 2088 0cf3 2502     		.word	0x225
 2089 0cf5 EB0D0000 		.long	0xdeb
 2090 0cf9 35080000 		.long	LFB14
 2091 0cfd 2B020000 		.long	LFE14-LFB14
 2092 0d01 01       		.uleb128 0x1
 2093 0d02 9C       		.byte	0x9c
 2094 0d03 EB0D0000 		.long	0xdeb
 2095 0d07 1B       		.uleb128 0x1b
 2096 0d08 73636865 		.ascii "scheduling_queue_member\0"
 2096      64756C69 
 2096      6E675F71 
 2096      75657565 
 2096      5F6D656D 
 2097 0d20 01       		.byte	0x1
 2098 0d21 2802     		.word	0x228
 2099 0d23 F0090000 		.long	0x9f0
 2100 0d27 02       		.uleb128 0x2
 2101 0d28 91       		.byte	0x91
 2102 0d29 5C       		.sleb128 -36
 2103 0d2a 1B       		.uleb128 0x1b
 2104 0d2b 656C656D 		.ascii "element_nr\0"
 2104      656E745F 
 2104      6E7200
 2105 0d36 01       		.byte	0x1
 2106 0d37 2902     		.word	0x229
 2107 0d39 95000000 		.long	0x95
 2108 0d3d 02       		.uleb128 0x2
GAS LISTING C:\Users\PRESID~1\AppData\Local\Temp\ccljw3FC.s 			page 60


 2109 0d3e 91       		.byte	0x91
 2110 0d3f 6F       		.sleb128 -17
 2111 0d40 1B       		.uleb128 0x1b
 2112 0d41 57696E6E 		.ascii "Winner_prio\0"
 2112      65725F70 
 2112      72696F00 
 2113 0d4d 01       		.byte	0x1
 2114 0d4e 2B02     		.word	0x22b
 2115 0d50 95000000 		.long	0x95
 2116 0d54 02       		.uleb128 0x2
 2117 0d55 91       		.byte	0x91
 2118 0d56 6E       		.sleb128 -18
 2119 0d57 1C       		.uleb128 0x1c
 2120 0d58 22000000 		.secrel32	LASF1
 2121 0d5c 01       		.byte	0x1
 2122 0d5d 2C02     		.word	0x22c
 2123 0d5f 56090000 		.long	0x956
 2124 0d63 02       		.uleb128 0x2
 2125 0d64 91       		.byte	0x91
 2126 0d65 64       		.sleb128 -28
 2127 0d66 1B       		.uleb128 0x1b
 2128 0d67 57696E6E 		.ascii "Winner_task\0"
 2128      65725F74 
 2128      61736B00 
 2129 0d73 01       		.byte	0x1
 2130 0d74 2D02     		.word	0x22d
 2131 0d76 56090000 		.long	0x956
 2132 0d7a 02       		.uleb128 0x2
 2133 0d7b 91       		.byte	0x91
 2134 0d7c 60       		.sleb128 -32
 2135 0d7d 1B       		.uleb128 0x1b
 2136 0d7e 57696E6E 		.ascii "Winner_scheduling_queue_member\0"
 2136      65725F73 
 2136      63686564 
 2136      756C696E 
 2136      675F7175 
 2137 0d9d 01       		.byte	0x1
 2138 0d9e 2E02     		.word	0x22e
 2139 0da0 F0090000 		.long	0x9f0
 2140 0da4 02       		.uleb128 0x2
 2141 0da5 91       		.byte	0x91
 2142 0da6 68       		.sleb128 -24
 2143 0da7 1B       		.uleb128 0x1b
 2144 0da8 64656C74 		.ascii "delta_time\0"
 2144      615F7469 
 2144      6D6500
 2145 0db3 01       		.byte	0x1
 2146 0db4 2F02     		.word	0x22f
 2147 0db6 47060000 		.long	0x647
 2148 0dba 02       		.uleb128 0x2
 2149 0dbb 91       		.byte	0x91
 2150 0dbc 4C       		.sleb128 -52
 2151 0dbd 1B       		.uleb128 0x1b
 2152 0dbe 74696D65 		.ascii "time\0"
 2152      00
 2153 0dc3 01       		.byte	0x1
 2154 0dc4 3102     		.word	0x231
GAS LISTING C:\Users\PRESID~1\AppData\Local\Temp\ccljw3FC.s 			page 61


 2155 0dc6 47060000 		.long	0x647
 2156 0dca 03       		.uleb128 0x3
 2157 0dcb 91       		.byte	0x91
 2158 0dcc BC7F     		.sleb128 -68
 2159 0dce 20       		.uleb128 0x20
 2160 0dcf 7E090000 		.long	LBB2
 2161 0dd3 33000000 		.long	LBE2-LBB2
 2162 0dd7 1B       		.uleb128 0x1b
 2163 0dd8 7454696D 		.ascii "tTime\0"
 2163      6500
 2164 0dde 01       		.byte	0x1
 2165 0ddf 6302     		.word	0x263
 2166 0de1 47060000 		.long	0x647
 2167 0de5 03       		.uleb128 0x3
 2168 0de6 91       		.byte	0x91
 2169 0de7 AC7F     		.sleb128 -84
 2170 0de9 00       		.byte	0
 2171 0dea 00       		.byte	0
 2172 0deb 0A       		.uleb128 0xa
 2173 0dec 04       		.byte	0x4
 2174 0ded 56090000 		.long	0x956
 2175 0df1 21       		.uleb128 0x21
 2176 0df2 5441534B 		.ascii "TASK1_CALL_NR\0"
 2176      315F4341 
 2176      4C4C5F4E 
 2176      5200
 2177 0e00 06       		.byte	0x6
 2178 0e01 1E       		.byte	0x1e
 2179 0e02 060E0000 		.long	0xe06
 2180 0e06 22       		.uleb128 0x22
 2181 0e07 35010000 		.long	0x135
 2182 0e0b 08       		.uleb128 0x8
 2183 0e0c 95000000 		.long	0x95
 2184 0e10 220E0000 		.long	0xe22
 2185 0e14 09       		.uleb128 0x9
 2186 0e15 8A040000 		.long	0x48a
 2187 0e19 09       		.byte	0x9
 2188 0e1a 23       		.uleb128 0x23
 2189 0e1b 8A040000 		.long	0x48a
 2190 0e1f CF07     		.word	0x7cf
 2191 0e21 00       		.byte	0
 2192 0e22 21       		.uleb128 0x21
 2193 0e23 5441534B 		.ascii "TASK_STACK\0"
 2193      5F535441 
 2193      434B00
 2194 0e2e 06       		.byte	0x6
 2195 0e2f 26       		.byte	0x26
 2196 0e30 0B0E0000 		.long	0xe0b
 2197 0e34 21       		.uleb128 0x21
 2198 0e35 4C415354 		.ascii "LAST_CURRENT_TIME\0"
 2198      5F435552 
 2198      52454E54 
 2198      5F54494D 
 2198      4500
 2199 0e47 06       		.byte	0x6
 2200 0e48 27       		.byte	0x27
 2201 0e49 5C090000 		.long	0x95c
GAS LISTING C:\Users\PRESID~1\AppData\Local\Temp\ccljw3FC.s 			page 62


 2202 0e4d 21       		.uleb128 0x21
 2203 0e4e 5441534B 		.ascii "TASK_0_VAR\0"
 2203      5F305F56 
 2203      415200
 2204 0e59 06       		.byte	0x6
 2205 0e5a 2E       		.byte	0x2e
 2206 0e5b 34090000 		.long	0x934
 2207 0e5f 21       		.uleb128 0x21
 2208 0e60 5441534B 		.ascii "TASK_1_VAR\0"
 2208      5F315F56 
 2208      415200
 2209 0e6b 06       		.byte	0x6
 2210 0e6c 2E       		.byte	0x2e
 2211 0e6d 34090000 		.long	0x934
 2212 0e71 21       		.uleb128 0x21
 2213 0e72 5441534B 		.ascii "TASK_2_VAR\0"
 2213      5F325F56 
 2213      415200
 2214 0e7d 06       		.byte	0x6
 2215 0e7e 2E       		.byte	0x2e
 2216 0e7f 34090000 		.long	0x934
 2217 0e83 21       		.uleb128 0x21
 2218 0e84 5441534B 		.ascii "TASK_3_VAR\0"
 2218      5F335F56 
 2218      415200
 2219 0e8f 06       		.byte	0x6
 2220 0e90 2E       		.byte	0x2e
 2221 0e91 34090000 		.long	0x934
 2222 0e95 21       		.uleb128 0x21
 2223 0e96 5441534B 		.ascii "TASK_GROUP_1\0"
 2223      5F47524F 
 2223      55505F31 
 2223      00
 2224 0ea3 06       		.byte	0x6
 2225 0ea4 2F       		.byte	0x2f
 2226 0ea5 90060000 		.long	0x690
 2227 0ea9 21       		.uleb128 0x21
 2228 0eaa 5441534B 		.ascii "TASK_GROUP_2\0"
 2228      5F47524F 
 2228      55505F32 
 2228      00
 2229 0eb7 06       		.byte	0x6
 2230 0eb8 2F       		.byte	0x2f
 2231 0eb9 90060000 		.long	0x690
 2232 0ebd 21       		.uleb128 0x21
 2233 0ebe 5441534B 		.ascii "TASK_GROUP_3\0"
 2233      5F47524F 
 2233      55505F33 
 2233      00
 2234 0ecb 06       		.byte	0x6
 2235 0ecc 2F       		.byte	0x2f
 2236 0ecd 90060000 		.long	0x690
 2237 0ed1 21       		.uleb128 0x21
 2238 0ed2 5441534B 		.ascii "TASK_GROUP_4\0"
 2238      5F47524F 
 2238      55505F34 
 2238      00
GAS LISTING C:\Users\PRESID~1\AppData\Local\Temp\ccljw3FC.s 			page 63


 2239 0edf 06       		.byte	0x6
 2240 0ee0 2F       		.byte	0x2f
 2241 0ee1 90060000 		.long	0x690
 2242 0ee5 21       		.uleb128 0x21
 2243 0ee6 5441534B 		.ascii "TASK_GROUP_5\0"
 2243      5F47524F 
 2243      55505F35 
 2243      00
 2244 0ef3 06       		.byte	0x6
 2245 0ef4 2F       		.byte	0x2f
 2246 0ef5 90060000 		.long	0x690
 2247 0ef9 21       		.uleb128 0x21
 2248 0efa 5441534B 		.ascii "TASK_TRANSITION_REJECTED_TASK_ADDR\0"
 2248      5F545241 
 2248      4E534954 
 2248      494F4E5F 
 2248      52454A45 
 2249 0f1d 06       		.byte	0x6
 2250 0f1e 30       		.byte	0x30
 2251 0f1f 56090000 		.long	0x956
 2252 0f23 21       		.uleb128 0x21
 2253 0f24 5441534B 		.ascii "TASK_TRANSITION_REJECTED_STATE\0"
 2253      5F545241 
 2253      4E534954 
 2253      494F4E5F 
 2253      52454A45 
 2254 0f43 06       		.byte	0x6
 2255 0f44 31       		.byte	0x31
 2256 0f45 D9050000 		.long	0x5d9
 2257 0f49 21       		.uleb128 0x21
 2258 0f4a 5441534B 		.ascii "TASK_TRANSITION_CURRENT_STATE\0"
 2258      5F545241 
 2258      4E534954 
 2258      494F4E5F 
 2258      43555252 
 2259 0f68 06       		.byte	0x6
 2260 0f69 32       		.byte	0x32
 2261 0f6a D9050000 		.long	0x5d9
 2262 0f6e 08       		.uleb128 0x8
 2263 0f6f 95000000 		.long	0x95
 2264 0f73 7F0F0000 		.long	0xf7f
 2265 0f77 23       		.uleb128 0x23
 2266 0f78 8A040000 		.long	0x48a
 2267 0f7c FF01     		.word	0x1ff
 2268 0f7e 00       		.byte	0
 2269 0f7f 21       		.uleb128 0x21
 2270 0f80 4F535F4D 		.ascii "OS_MAIN_STACK\0"
 2270      41494E5F 
 2270      53544143 
 2270      4B00
 2271 0f8e 07       		.byte	0x7
 2272 0f8f 0C       		.byte	0xc
 2273 0f90 6E0F0000 		.long	0xf6e
 2274 0f94 00       		.byte	0
 2275              		.section	.debug_abbrev,"dr"
 2276              	Ldebug_abbrev0:
 2277 0000 01       		.uleb128 0x1
GAS LISTING C:\Users\PRESID~1\AppData\Local\Temp\ccljw3FC.s 			page 64


 2278 0001 11       		.uleb128 0x11
 2279 0002 01       		.byte	0x1
 2280 0003 25       		.uleb128 0x25
 2281 0004 08       		.uleb128 0x8
 2282 0005 13       		.uleb128 0x13
 2283 0006 0B       		.uleb128 0xb
 2284 0007 03       		.uleb128 0x3
 2285 0008 08       		.uleb128 0x8
 2286 0009 11       		.uleb128 0x11
 2287 000a 01       		.uleb128 0x1
 2288 000b 12       		.uleb128 0x12
 2289 000c 06       		.uleb128 0x6
 2290 000d 10       		.uleb128 0x10
 2291 000e 17       		.uleb128 0x17
 2292 000f 9942     		.uleb128 0x2119
 2293 0011 17       		.uleb128 0x17
 2294 0012 00       		.byte	0
 2295 0013 00       		.byte	0
 2296 0014 02       		.uleb128 0x2
 2297 0015 16       		.uleb128 0x16
 2298 0016 00       		.byte	0
 2299 0017 03       		.uleb128 0x3
 2300 0018 08       		.uleb128 0x8
 2301 0019 3A       		.uleb128 0x3a
 2302 001a 0B       		.uleb128 0xb
 2303 001b 3B       		.uleb128 0x3b
 2304 001c 0B       		.uleb128 0xb
 2305 001d 49       		.uleb128 0x49
 2306 001e 13       		.uleb128 0x13
 2307 001f 00       		.byte	0
 2308 0020 00       		.byte	0
 2309 0021 03       		.uleb128 0x3
 2310 0022 24       		.uleb128 0x24
 2311 0023 00       		.byte	0
 2312 0024 0B       		.uleb128 0xb
 2313 0025 0B       		.uleb128 0xb
 2314 0026 3E       		.uleb128 0x3e
 2315 0027 0B       		.uleb128 0xb
 2316 0028 03       		.uleb128 0x3
 2317 0029 08       		.uleb128 0x8
 2318 002a 00       		.byte	0
 2319 002b 00       		.byte	0
 2320 002c 04       		.uleb128 0x4
 2321 002d 04       		.uleb128 0x4
 2322 002e 01       		.byte	0x1
 2323 002f 03       		.uleb128 0x3
 2324 0030 08       		.uleb128 0x8
 2325 0031 0B       		.uleb128 0xb
 2326 0032 0B       		.uleb128 0xb
 2327 0033 3A       		.uleb128 0x3a
 2328 0034 0B       		.uleb128 0xb
 2329 0035 3B       		.uleb128 0x3b
 2330 0036 0B       		.uleb128 0xb
 2331 0037 01       		.uleb128 0x1
 2332 0038 13       		.uleb128 0x13
 2333 0039 00       		.byte	0
 2334 003a 00       		.byte	0
GAS LISTING C:\Users\PRESID~1\AppData\Local\Temp\ccljw3FC.s 			page 65


 2335 003b 05       		.uleb128 0x5
 2336 003c 28       		.uleb128 0x28
 2337 003d 00       		.byte	0
 2338 003e 03       		.uleb128 0x3
 2339 003f 08       		.uleb128 0x8
 2340 0040 1C       		.uleb128 0x1c
 2341 0041 0D       		.uleb128 0xd
 2342 0042 00       		.byte	0
 2343 0043 00       		.byte	0
 2344 0044 06       		.uleb128 0x6
 2345 0045 13       		.uleb128 0x13
 2346 0046 01       		.byte	0x1
 2347 0047 03       		.uleb128 0x3
 2348 0048 08       		.uleb128 0x8
 2349 0049 0B       		.uleb128 0xb
 2350 004a 0B       		.uleb128 0xb
 2351 004b 3A       		.uleb128 0x3a
 2352 004c 0B       		.uleb128 0xb
 2353 004d 3B       		.uleb128 0x3b
 2354 004e 0B       		.uleb128 0xb
 2355 004f 01       		.uleb128 0x1
 2356 0050 13       		.uleb128 0x13
 2357 0051 00       		.byte	0
 2358 0052 00       		.byte	0
 2359 0053 07       		.uleb128 0x7
 2360 0054 0D       		.uleb128 0xd
 2361 0055 00       		.byte	0
 2362 0056 03       		.uleb128 0x3
 2363 0057 08       		.uleb128 0x8
 2364 0058 3A       		.uleb128 0x3a
 2365 0059 0B       		.uleb128 0xb
 2366 005a 3B       		.uleb128 0x3b
 2367 005b 0B       		.uleb128 0xb
 2368 005c 49       		.uleb128 0x49
 2369 005d 13       		.uleb128 0x13
 2370 005e 38       		.uleb128 0x38
 2371 005f 0B       		.uleb128 0xb
 2372 0060 00       		.byte	0
 2373 0061 00       		.byte	0
 2374 0062 08       		.uleb128 0x8
 2375 0063 01       		.uleb128 0x1
 2376 0064 01       		.byte	0x1
 2377 0065 49       		.uleb128 0x49
 2378 0066 13       		.uleb128 0x13
 2379 0067 01       		.uleb128 0x1
 2380 0068 13       		.uleb128 0x13
 2381 0069 00       		.byte	0
 2382 006a 00       		.byte	0
 2383 006b 09       		.uleb128 0x9
 2384 006c 21       		.uleb128 0x21
 2385 006d 00       		.byte	0
 2386 006e 49       		.uleb128 0x49
 2387 006f 13       		.uleb128 0x13
 2388 0070 2F       		.uleb128 0x2f
 2389 0071 0B       		.uleb128 0xb
 2390 0072 00       		.byte	0
 2391 0073 00       		.byte	0
GAS LISTING C:\Users\PRESID~1\AppData\Local\Temp\ccljw3FC.s 			page 66


 2392 0074 0A       		.uleb128 0xa
 2393 0075 0F       		.uleb128 0xf
 2394 0076 00       		.byte	0
 2395 0077 0B       		.uleb128 0xb
 2396 0078 0B       		.uleb128 0xb
 2397 0079 49       		.uleb128 0x49
 2398 007a 13       		.uleb128 0x13
 2399 007b 00       		.byte	0
 2400 007c 00       		.byte	0
 2401 007d 0B       		.uleb128 0xb
 2402 007e 15       		.uleb128 0x15
 2403 007f 01       		.byte	0x1
 2404 0080 27       		.uleb128 0x27
 2405 0081 19       		.uleb128 0x19
 2406 0082 01       		.uleb128 0x1
 2407 0083 13       		.uleb128 0x13
 2408 0084 00       		.byte	0
 2409 0085 00       		.byte	0
 2410 0086 0C       		.uleb128 0xc
 2411 0087 05       		.uleb128 0x5
 2412 0088 00       		.byte	0
 2413 0089 49       		.uleb128 0x49
 2414 008a 13       		.uleb128 0x13
 2415 008b 00       		.byte	0
 2416 008c 00       		.byte	0
 2417 008d 0D       		.uleb128 0xd
 2418 008e 0F       		.uleb128 0xf
 2419 008f 00       		.byte	0
 2420 0090 0B       		.uleb128 0xb
 2421 0091 0B       		.uleb128 0xb
 2422 0092 00       		.byte	0
 2423 0093 00       		.byte	0
 2424 0094 0E       		.uleb128 0xe
 2425 0095 15       		.uleb128 0x15
 2426 0096 01       		.byte	0x1
 2427 0097 27       		.uleb128 0x27
 2428 0098 19       		.uleb128 0x19
 2429 0099 49       		.uleb128 0x49
 2430 009a 13       		.uleb128 0x13
 2431 009b 01       		.uleb128 0x1
 2432 009c 13       		.uleb128 0x13
 2433 009d 00       		.byte	0
 2434 009e 00       		.byte	0
 2435 009f 0F       		.uleb128 0xf
 2436 00a0 0D       		.uleb128 0xd
 2437 00a1 00       		.byte	0
 2438 00a2 03       		.uleb128 0x3
 2439 00a3 0E       		.uleb128 0xe
 2440 00a4 3A       		.uleb128 0x3a
 2441 00a5 0B       		.uleb128 0xb
 2442 00a6 3B       		.uleb128 0x3b
 2443 00a7 0B       		.uleb128 0xb
 2444 00a8 49       		.uleb128 0x49
 2445 00a9 13       		.uleb128 0x13
 2446 00aa 38       		.uleb128 0x38
 2447 00ab 0B       		.uleb128 0xb
 2448 00ac 00       		.byte	0
GAS LISTING C:\Users\PRESID~1\AppData\Local\Temp\ccljw3FC.s 			page 67


 2449 00ad 00       		.byte	0
 2450 00ae 10       		.uleb128 0x10
 2451 00af 0D       		.uleb128 0xd
 2452 00b0 00       		.byte	0
 2453 00b1 03       		.uleb128 0x3
 2454 00b2 08       		.uleb128 0x8
 2455 00b3 3A       		.uleb128 0x3a
 2456 00b4 0B       		.uleb128 0xb
 2457 00b5 3B       		.uleb128 0x3b
 2458 00b6 0B       		.uleb128 0xb
 2459 00b7 49       		.uleb128 0x49
 2460 00b8 13       		.uleb128 0x13
 2461 00b9 0B       		.uleb128 0xb
 2462 00ba 0B       		.uleb128 0xb
 2463 00bb 0D       		.uleb128 0xd
 2464 00bc 0B       		.uleb128 0xb
 2465 00bd 0C       		.uleb128 0xc
 2466 00be 0B       		.uleb128 0xb
 2467 00bf 38       		.uleb128 0x38
 2468 00c0 0B       		.uleb128 0xb
 2469 00c1 00       		.byte	0
 2470 00c2 00       		.byte	0
 2471 00c3 11       		.uleb128 0x11
 2472 00c4 2E       		.uleb128 0x2e
 2473 00c5 00       		.byte	0
 2474 00c6 3F       		.uleb128 0x3f
 2475 00c7 19       		.uleb128 0x19
 2476 00c8 03       		.uleb128 0x3
 2477 00c9 08       		.uleb128 0x8
 2478 00ca 3A       		.uleb128 0x3a
 2479 00cb 0B       		.uleb128 0xb
 2480 00cc 3B       		.uleb128 0x3b
 2481 00cd 0B       		.uleb128 0xb
 2482 00ce 27       		.uleb128 0x27
 2483 00cf 19       		.uleb128 0x19
 2484 00d0 11       		.uleb128 0x11
 2485 00d1 01       		.uleb128 0x1
 2486 00d2 12       		.uleb128 0x12
 2487 00d3 06       		.uleb128 0x6
 2488 00d4 40       		.uleb128 0x40
 2489 00d5 18       		.uleb128 0x18
 2490 00d6 9742     		.uleb128 0x2117
 2491 00d8 19       		.uleb128 0x19
 2492 00d9 00       		.byte	0
 2493 00da 00       		.byte	0
 2494 00db 12       		.uleb128 0x12
 2495 00dc 2E       		.uleb128 0x2e
 2496 00dd 01       		.byte	0x1
 2497 00de 3F       		.uleb128 0x3f
 2498 00df 19       		.uleb128 0x19
 2499 00e0 03       		.uleb128 0x3
 2500 00e1 08       		.uleb128 0x8
 2501 00e2 3A       		.uleb128 0x3a
 2502 00e3 0B       		.uleb128 0xb
 2503 00e4 3B       		.uleb128 0x3b
 2504 00e5 0B       		.uleb128 0xb
 2505 00e6 27       		.uleb128 0x27
GAS LISTING C:\Users\PRESID~1\AppData\Local\Temp\ccljw3FC.s 			page 68


 2506 00e7 19       		.uleb128 0x19
 2507 00e8 11       		.uleb128 0x11
 2508 00e9 01       		.uleb128 0x1
 2509 00ea 12       		.uleb128 0x12
 2510 00eb 06       		.uleb128 0x6
 2511 00ec 40       		.uleb128 0x40
 2512 00ed 18       		.uleb128 0x18
 2513 00ee 9642     		.uleb128 0x2116
 2514 00f0 19       		.uleb128 0x19
 2515 00f1 01       		.uleb128 0x1
 2516 00f2 13       		.uleb128 0x13
 2517 00f3 00       		.byte	0
 2518 00f4 00       		.byte	0
 2519 00f5 13       		.uleb128 0x13
 2520 00f6 05       		.uleb128 0x5
 2521 00f7 00       		.byte	0
 2522 00f8 03       		.uleb128 0x3
 2523 00f9 0E       		.uleb128 0xe
 2524 00fa 3A       		.uleb128 0x3a
 2525 00fb 0B       		.uleb128 0xb
 2526 00fc 3B       		.uleb128 0x3b
 2527 00fd 0B       		.uleb128 0xb
 2528 00fe 49       		.uleb128 0x49
 2529 00ff 13       		.uleb128 0x13
 2530 0100 02       		.uleb128 0x2
 2531 0101 18       		.uleb128 0x18
 2532 0102 00       		.byte	0
 2533 0103 00       		.byte	0
 2534 0104 14       		.uleb128 0x14
 2535 0105 05       		.uleb128 0x5
 2536 0106 00       		.byte	0
 2537 0107 03       		.uleb128 0x3
 2538 0108 08       		.uleb128 0x8
 2539 0109 3A       		.uleb128 0x3a
 2540 010a 0B       		.uleb128 0xb
 2541 010b 3B       		.uleb128 0x3b
 2542 010c 0B       		.uleb128 0xb
 2543 010d 49       		.uleb128 0x49
 2544 010e 13       		.uleb128 0x13
 2545 010f 02       		.uleb128 0x2
 2546 0110 18       		.uleb128 0x18
 2547 0111 00       		.byte	0
 2548 0112 00       		.byte	0
 2549 0113 15       		.uleb128 0x15
 2550 0114 34       		.uleb128 0x34
 2551 0115 00       		.byte	0
 2552 0116 03       		.uleb128 0x3
 2553 0117 08       		.uleb128 0x8
 2554 0118 3A       		.uleb128 0x3a
 2555 0119 0B       		.uleb128 0xb
 2556 011a 3B       		.uleb128 0x3b
 2557 011b 0B       		.uleb128 0xb
 2558 011c 49       		.uleb128 0x49
 2559 011d 13       		.uleb128 0x13
 2560 011e 02       		.uleb128 0x2
 2561 011f 18       		.uleb128 0x18
 2562 0120 00       		.byte	0
GAS LISTING C:\Users\PRESID~1\AppData\Local\Temp\ccljw3FC.s 			page 69


 2563 0121 00       		.byte	0
 2564 0122 16       		.uleb128 0x16
 2565 0123 2E       		.uleb128 0x2e
 2566 0124 01       		.byte	0x1
 2567 0125 3F       		.uleb128 0x3f
 2568 0126 19       		.uleb128 0x19
 2569 0127 03       		.uleb128 0x3
 2570 0128 08       		.uleb128 0x8
 2571 0129 3A       		.uleb128 0x3a
 2572 012a 0B       		.uleb128 0xb
 2573 012b 3B       		.uleb128 0x3b
 2574 012c 0B       		.uleb128 0xb
 2575 012d 27       		.uleb128 0x27
 2576 012e 19       		.uleb128 0x19
 2577 012f 49       		.uleb128 0x49
 2578 0130 13       		.uleb128 0x13
 2579 0131 11       		.uleb128 0x11
 2580 0132 01       		.uleb128 0x1
 2581 0133 12       		.uleb128 0x12
 2582 0134 06       		.uleb128 0x6
 2583 0135 40       		.uleb128 0x40
 2584 0136 18       		.uleb128 0x18
 2585 0137 9642     		.uleb128 0x2116
 2586 0139 19       		.uleb128 0x19
 2587 013a 01       		.uleb128 0x1
 2588 013b 13       		.uleb128 0x13
 2589 013c 00       		.byte	0
 2590 013d 00       		.byte	0
 2591 013e 17       		.uleb128 0x17
 2592 013f 34       		.uleb128 0x34
 2593 0140 00       		.byte	0
 2594 0141 03       		.uleb128 0x3
 2595 0142 0E       		.uleb128 0xe
 2596 0143 3A       		.uleb128 0x3a
 2597 0144 0B       		.uleb128 0xb
 2598 0145 3B       		.uleb128 0x3b
 2599 0146 0B       		.uleb128 0xb
 2600 0147 49       		.uleb128 0x49
 2601 0148 13       		.uleb128 0x13
 2602 0149 02       		.uleb128 0x2
 2603 014a 18       		.uleb128 0x18
 2604 014b 00       		.byte	0
 2605 014c 00       		.byte	0
 2606 014d 18       		.uleb128 0x18
 2607 014e 2E       		.uleb128 0x2e
 2608 014f 01       		.byte	0x1
 2609 0150 03       		.uleb128 0x3
 2610 0151 08       		.uleb128 0x8
 2611 0152 3A       		.uleb128 0x3a
 2612 0153 0B       		.uleb128 0xb
 2613 0154 3B       		.uleb128 0x3b
 2614 0155 0B       		.uleb128 0xb
 2615 0156 27       		.uleb128 0x27
 2616 0157 19       		.uleb128 0x19
 2617 0158 11       		.uleb128 0x11
 2618 0159 01       		.uleb128 0x1
 2619 015a 12       		.uleb128 0x12
GAS LISTING C:\Users\PRESID~1\AppData\Local\Temp\ccljw3FC.s 			page 70


 2620 015b 06       		.uleb128 0x6
 2621 015c 40       		.uleb128 0x40
 2622 015d 18       		.uleb128 0x18
 2623 015e 9642     		.uleb128 0x2116
 2624 0160 19       		.uleb128 0x19
 2625 0161 01       		.uleb128 0x1
 2626 0162 13       		.uleb128 0x13
 2627 0163 00       		.byte	0
 2628 0164 00       		.byte	0
 2629 0165 19       		.uleb128 0x19
 2630 0166 2E       		.uleb128 0x2e
 2631 0167 01       		.byte	0x1
 2632 0168 3F       		.uleb128 0x3f
 2633 0169 19       		.uleb128 0x19
 2634 016a 03       		.uleb128 0x3
 2635 016b 08       		.uleb128 0x8
 2636 016c 3A       		.uleb128 0x3a
 2637 016d 0B       		.uleb128 0xb
 2638 016e 3B       		.uleb128 0x3b
 2639 016f 05       		.uleb128 0x5
 2640 0170 27       		.uleb128 0x27
 2641 0171 19       		.uleb128 0x19
 2642 0172 11       		.uleb128 0x11
 2643 0173 01       		.uleb128 0x1
 2644 0174 12       		.uleb128 0x12
 2645 0175 06       		.uleb128 0x6
 2646 0176 40       		.uleb128 0x40
 2647 0177 18       		.uleb128 0x18
 2648 0178 9642     		.uleb128 0x2116
 2649 017a 19       		.uleb128 0x19
 2650 017b 01       		.uleb128 0x1
 2651 017c 13       		.uleb128 0x13
 2652 017d 00       		.byte	0
 2653 017e 00       		.byte	0
 2654 017f 1A       		.uleb128 0x1a
 2655 0180 05       		.uleb128 0x5
 2656 0181 00       		.byte	0
 2657 0182 03       		.uleb128 0x3
 2658 0183 0E       		.uleb128 0xe
 2659 0184 3A       		.uleb128 0x3a
 2660 0185 0B       		.uleb128 0xb
 2661 0186 3B       		.uleb128 0x3b
 2662 0187 05       		.uleb128 0x5
 2663 0188 49       		.uleb128 0x49
 2664 0189 13       		.uleb128 0x13
 2665 018a 02       		.uleb128 0x2
 2666 018b 18       		.uleb128 0x18
 2667 018c 00       		.byte	0
 2668 018d 00       		.byte	0
 2669 018e 1B       		.uleb128 0x1b
 2670 018f 34       		.uleb128 0x34
 2671 0190 00       		.byte	0
 2672 0191 03       		.uleb128 0x3
 2673 0192 08       		.uleb128 0x8
 2674 0193 3A       		.uleb128 0x3a
 2675 0194 0B       		.uleb128 0xb
 2676 0195 3B       		.uleb128 0x3b
GAS LISTING C:\Users\PRESID~1\AppData\Local\Temp\ccljw3FC.s 			page 71


 2677 0196 05       		.uleb128 0x5
 2678 0197 49       		.uleb128 0x49
 2679 0198 13       		.uleb128 0x13
 2680 0199 02       		.uleb128 0x2
 2681 019a 18       		.uleb128 0x18
 2682 019b 00       		.byte	0
 2683 019c 00       		.byte	0
 2684 019d 1C       		.uleb128 0x1c
 2685 019e 34       		.uleb128 0x34
 2686 019f 00       		.byte	0
 2687 01a0 03       		.uleb128 0x3
 2688 01a1 0E       		.uleb128 0xe
 2689 01a2 3A       		.uleb128 0x3a
 2690 01a3 0B       		.uleb128 0xb
 2691 01a4 3B       		.uleb128 0x3b
 2692 01a5 05       		.uleb128 0x5
 2693 01a6 49       		.uleb128 0x49
 2694 01a7 13       		.uleb128 0x13
 2695 01a8 02       		.uleb128 0x2
 2696 01a9 18       		.uleb128 0x18
 2697 01aa 00       		.byte	0
 2698 01ab 00       		.byte	0
 2699 01ac 1D       		.uleb128 0x1d
 2700 01ad 2E       		.uleb128 0x2e
 2701 01ae 01       		.byte	0x1
 2702 01af 03       		.uleb128 0x3
 2703 01b0 08       		.uleb128 0x8
 2704 01b1 3A       		.uleb128 0x3a
 2705 01b2 0B       		.uleb128 0xb
 2706 01b3 3B       		.uleb128 0x3b
 2707 01b4 05       		.uleb128 0x5
 2708 01b5 27       		.uleb128 0x27
 2709 01b6 19       		.uleb128 0x19
 2710 01b7 11       		.uleb128 0x11
 2711 01b8 01       		.uleb128 0x1
 2712 01b9 12       		.uleb128 0x12
 2713 01ba 06       		.uleb128 0x6
 2714 01bb 40       		.uleb128 0x40
 2715 01bc 18       		.uleb128 0x18
 2716 01bd 9742     		.uleb128 0x2117
 2717 01bf 19       		.uleb128 0x19
 2718 01c0 01       		.uleb128 0x1
 2719 01c1 13       		.uleb128 0x13
 2720 01c2 00       		.byte	0
 2721 01c3 00       		.byte	0
 2722 01c4 1E       		.uleb128 0x1e
 2723 01c5 2E       		.uleb128 0x2e
 2724 01c6 01       		.byte	0x1
 2725 01c7 03       		.uleb128 0x3
 2726 01c8 08       		.uleb128 0x8
 2727 01c9 3A       		.uleb128 0x3a
 2728 01ca 0B       		.uleb128 0xb
 2729 01cb 3B       		.uleb128 0x3b
 2730 01cc 05       		.uleb128 0x5
 2731 01cd 27       		.uleb128 0x27
 2732 01ce 19       		.uleb128 0x19
 2733 01cf 11       		.uleb128 0x11
GAS LISTING C:\Users\PRESID~1\AppData\Local\Temp\ccljw3FC.s 			page 72


 2734 01d0 01       		.uleb128 0x1
 2735 01d1 12       		.uleb128 0x12
 2736 01d2 06       		.uleb128 0x6
 2737 01d3 40       		.uleb128 0x40
 2738 01d4 18       		.uleb128 0x18
 2739 01d5 9642     		.uleb128 0x2116
 2740 01d7 19       		.uleb128 0x19
 2741 01d8 01       		.uleb128 0x1
 2742 01d9 13       		.uleb128 0x13
 2743 01da 00       		.byte	0
 2744 01db 00       		.byte	0
 2745 01dc 1F       		.uleb128 0x1f
 2746 01dd 2E       		.uleb128 0x2e
 2747 01de 01       		.byte	0x1
 2748 01df 03       		.uleb128 0x3
 2749 01e0 08       		.uleb128 0x8
 2750 01e1 3A       		.uleb128 0x3a
 2751 01e2 0B       		.uleb128 0xb
 2752 01e3 3B       		.uleb128 0x3b
 2753 01e4 05       		.uleb128 0x5
 2754 01e5 27       		.uleb128 0x27
 2755 01e6 19       		.uleb128 0x19
 2756 01e7 49       		.uleb128 0x49
 2757 01e8 13       		.uleb128 0x13
 2758 01e9 11       		.uleb128 0x11
 2759 01ea 01       		.uleb128 0x1
 2760 01eb 12       		.uleb128 0x12
 2761 01ec 06       		.uleb128 0x6
 2762 01ed 40       		.uleb128 0x40
 2763 01ee 18       		.uleb128 0x18
 2764 01ef 9642     		.uleb128 0x2116
 2765 01f1 19       		.uleb128 0x19
 2766 01f2 01       		.uleb128 0x1
 2767 01f3 13       		.uleb128 0x13
 2768 01f4 00       		.byte	0
 2769 01f5 00       		.byte	0
 2770 01f6 20       		.uleb128 0x20
 2771 01f7 0B       		.uleb128 0xb
 2772 01f8 01       		.byte	0x1
 2773 01f9 11       		.uleb128 0x11
 2774 01fa 01       		.uleb128 0x1
 2775 01fb 12       		.uleb128 0x12
 2776 01fc 06       		.uleb128 0x6
 2777 01fd 00       		.byte	0
 2778 01fe 00       		.byte	0
 2779 01ff 21       		.uleb128 0x21
 2780 0200 34       		.uleb128 0x34
 2781 0201 00       		.byte	0
 2782 0202 03       		.uleb128 0x3
 2783 0203 08       		.uleb128 0x8
 2784 0204 3A       		.uleb128 0x3a
 2785 0205 0B       		.uleb128 0xb
 2786 0206 3B       		.uleb128 0x3b
 2787 0207 0B       		.uleb128 0xb
 2788 0208 49       		.uleb128 0x49
 2789 0209 13       		.uleb128 0x13
 2790 020a 3F       		.uleb128 0x3f
GAS LISTING C:\Users\PRESID~1\AppData\Local\Temp\ccljw3FC.s 			page 73


 2791 020b 19       		.uleb128 0x19
 2792 020c 3C       		.uleb128 0x3c
 2793 020d 19       		.uleb128 0x19
 2794 020e 00       		.byte	0
 2795 020f 00       		.byte	0
 2796 0210 22       		.uleb128 0x22
 2797 0211 35       		.uleb128 0x35
 2798 0212 00       		.byte	0
 2799 0213 49       		.uleb128 0x49
 2800 0214 13       		.uleb128 0x13
 2801 0215 00       		.byte	0
 2802 0216 00       		.byte	0
 2803 0217 23       		.uleb128 0x23
 2804 0218 21       		.uleb128 0x21
 2805 0219 00       		.byte	0
 2806 021a 49       		.uleb128 0x49
 2807 021b 13       		.uleb128 0x13
 2808 021c 2F       		.uleb128 0x2f
 2809 021d 05       		.uleb128 0x5
 2810 021e 00       		.byte	0
 2811 021f 00       		.byte	0
 2812 0220 00       		.byte	0
 2813              		.section	.debug_aranges,"dr"
 2814 0000 1C000000 		.long	0x1c
 2815 0004 0200     		.word	0x2
 2816 0006 00000000 		.secrel32	Ldebug_info0
 2817 000a 04       		.byte	0x4
 2818 000b 00       		.byte	0
 2819 000c 0000     		.word	0
 2820 000e 0000     		.word	0
 2821 0010 00000000 		.long	Ltext0
 2822 0014 600A0000 		.long	Letext0-Ltext0
 2823 0018 00000000 		.long	0
 2824 001c 00000000 		.long	0
 2825              		.section	.debug_macro,"dr"
 2826              	Ldebug_macro0:
 2827 0000 0400     		.word	0x4
 2828 0002 02       		.byte	0x2
 2829 0003 00000000 		.secrel32	Ldebug_line0
 2830 0007 01       		.byte	0x1
 2831 0008 00       		.uleb128 0
 2832 0009 5F5F5354 		.ascii "__STDC__ 1\0"
 2832      44435F5F 
 2832      203100
 2833 0014 01       		.byte	0x1
 2834 0015 00       		.uleb128 0
 2835 0016 5F5F5354 		.ascii "__STDC_HOSTED__ 1\0"
 2835      44435F48 
 2835      4F535445 
 2835      445F5F20 
 2835      3100
 2836 0028 01       		.byte	0x1
 2837 0029 00       		.uleb128 0
 2838 002a 5F5F474E 		.ascii "__GNUC__ 4\0"
 2838      55435F5F 
 2838      203400
 2839 0035 01       		.byte	0x1
GAS LISTING C:\Users\PRESID~1\AppData\Local\Temp\ccljw3FC.s 			page 74


 2840 0036 00       		.uleb128 0
 2841 0037 5F5F474E 		.ascii "__GNUC_MINOR__ 9\0"
 2841      55435F4D 
 2841      494E4F52 
 2841      5F5F2039 
 2841      00
 2842 0048 01       		.byte	0x1
 2843 0049 00       		.uleb128 0
 2844 004a 5F5F474E 		.ascii "__GNUC_PATCHLEVEL__ 3\0"
 2844      55435F50 
 2844      41544348 
 2844      4C455645 
 2844      4C5F5F20 
 2845 0060 01       		.byte	0x1
 2846 0061 00       		.uleb128 0
 2847 0062 5F5F5645 		.ascii "__VERSION__ \"4.9.3\"\0"
 2847      5253494F 
 2847      4E5F5F20 
 2847      22342E39 
 2847      2E332200 
 2848 0076 01       		.byte	0x1
 2849 0077 00       		.uleb128 0
 2850 0078 5F5F4154 		.ascii "__ATOMIC_RELAXED 0\0"
 2850      4F4D4943 
 2850      5F52454C 
 2850      41584544 
 2850      203000
 2851 008b 01       		.byte	0x1
 2852 008c 00       		.uleb128 0
 2853 008d 5F5F4154 		.ascii "__ATOMIC_SEQ_CST 5\0"
 2853      4F4D4943 
 2853      5F534551 
 2853      5F435354 
 2853      203500
 2854 00a0 01       		.byte	0x1
 2855 00a1 00       		.uleb128 0
 2856 00a2 5F5F4154 		.ascii "__ATOMIC_ACQUIRE 2\0"
 2856      4F4D4943 
 2856      5F414351 
 2856      55495245 
 2856      203200
 2857 00b5 01       		.byte	0x1
 2858 00b6 00       		.uleb128 0
 2859 00b7 5F5F4154 		.ascii "__ATOMIC_RELEASE 3\0"
 2859      4F4D4943 
 2859      5F52454C 
 2859      45415345 
 2859      203300
 2860 00ca 01       		.byte	0x1
 2861 00cb 00       		.uleb128 0
 2862 00cc 5F5F4154 		.ascii "__ATOMIC_ACQ_REL 4\0"
 2862      4F4D4943 
 2862      5F414351 
 2862      5F52454C 
 2862      203400
 2863 00df 01       		.byte	0x1
 2864 00e0 00       		.uleb128 0
GAS LISTING C:\Users\PRESID~1\AppData\Local\Temp\ccljw3FC.s 			page 75


 2865 00e1 5F5F4154 		.ascii "__ATOMIC_CONSUME 1\0"
 2865      4F4D4943 
 2865      5F434F4E 
 2865      53554D45 
 2865      203100
 2866 00f4 01       		.byte	0x1
 2867 00f5 00       		.uleb128 0
 2868 00f6 5F5F4649 		.ascii "__FINITE_MATH_ONLY__ 0\0"
 2868      4E495445 
 2868      5F4D4154 
 2868      485F4F4E 
 2868      4C595F5F 
 2869 010d 01       		.byte	0x1
 2870 010e 00       		.uleb128 0
 2871 010f 5F5F5349 		.ascii "__SIZEOF_INT__ 4\0"
 2871      5A454F46 
 2871      5F494E54 
 2871      5F5F2034 
 2871      00
 2872 0120 01       		.byte	0x1
 2873 0121 00       		.uleb128 0
 2874 0122 5F5F5349 		.ascii "__SIZEOF_LONG__ 4\0"
 2874      5A454F46 
 2874      5F4C4F4E 
 2874      475F5F20 
 2874      3400
 2875 0134 01       		.byte	0x1
 2876 0135 00       		.uleb128 0
 2877 0136 5F5F5349 		.ascii "__SIZEOF_LONG_LONG__ 8\0"
 2877      5A454F46 
 2877      5F4C4F4E 
 2877      475F4C4F 
 2877      4E475F5F 
 2878 014d 01       		.byte	0x1
 2879 014e 00       		.uleb128 0
 2880 014f 5F5F5349 		.ascii "__SIZEOF_SHORT__ 2\0"
 2880      5A454F46 
 2880      5F53484F 
 2880      52545F5F 
 2880      203200
 2881 0162 01       		.byte	0x1
 2882 0163 00       		.uleb128 0
 2883 0164 5F5F5349 		.ascii "__SIZEOF_FLOAT__ 4\0"
 2883      5A454F46 
 2883      5F464C4F 
 2883      41545F5F 
 2883      203400
 2884 0177 01       		.byte	0x1
 2885 0178 00       		.uleb128 0
 2886 0179 5F5F5349 		.ascii "__SIZEOF_DOUBLE__ 8\0"
 2886      5A454F46 
 2886      5F444F55 
 2886      424C455F 
 2886      5F203800 
 2887 018d 01       		.byte	0x1
 2888 018e 00       		.uleb128 0
 2889 018f 5F5F5349 		.ascii "__SIZEOF_LONG_DOUBLE__ 12\0"
GAS LISTING C:\Users\PRESID~1\AppData\Local\Temp\ccljw3FC.s 			page 76


 2889      5A454F46 
 2889      5F4C4F4E 
 2889      475F444F 
 2889      55424C45 
 2890 01a9 01       		.byte	0x1
 2891 01aa 00       		.uleb128 0
 2892 01ab 5F5F5349 		.ascii "__SIZEOF_SIZE_T__ 4\0"
 2892      5A454F46 
 2892      5F53495A 
 2892      455F545F 
 2892      5F203400 
 2893 01bf 01       		.byte	0x1
 2894 01c0 00       		.uleb128 0
 2895 01c1 5F5F4348 		.ascii "__CHAR_BIT__ 8\0"
 2895      41525F42 
 2895      49545F5F 
 2895      203800
 2896 01d0 01       		.byte	0x1
 2897 01d1 00       		.uleb128 0
 2898 01d2 5F5F4249 		.ascii "__BIGGEST_ALIGNMENT__ 16\0"
 2898      47474553 
 2898      545F414C 
 2898      49474E4D 
 2898      454E545F 
 2899 01eb 01       		.byte	0x1
 2900 01ec 00       		.uleb128 0
 2901 01ed 5F5F4F52 		.ascii "__ORDER_LITTLE_ENDIAN__ 1234\0"
 2901      4445525F 
 2901      4C495454 
 2901      4C455F45 
 2901      4E444941 
 2902 020a 01       		.byte	0x1
 2903 020b 00       		.uleb128 0
 2904 020c 5F5F4F52 		.ascii "__ORDER_BIG_ENDIAN__ 4321\0"
 2904      4445525F 
 2904      4249475F 
 2904      454E4449 
 2904      414E5F5F 
 2905 0226 01       		.byte	0x1
 2906 0227 00       		.uleb128 0
 2907 0228 5F5F4F52 		.ascii "__ORDER_PDP_ENDIAN__ 3412\0"
 2907      4445525F 
 2907      5044505F 
 2907      454E4449 
 2907      414E5F5F 
 2908 0242 01       		.byte	0x1
 2909 0243 00       		.uleb128 0
 2910 0244 5F5F4259 		.ascii "__BYTE_ORDER__ __ORDER_LITTLE_ENDIAN__\0"
 2910      54455F4F 
 2910      52444552 
 2910      5F5F205F 
 2910      5F4F5244 
 2911 026b 01       		.byte	0x1
 2912 026c 00       		.uleb128 0
 2913 026d 5F5F464C 		.ascii "__FLOAT_WORD_ORDER__ __ORDER_LITTLE_ENDIAN__\0"
 2913      4F41545F 
 2913      574F5244 
GAS LISTING C:\Users\PRESID~1\AppData\Local\Temp\ccljw3FC.s 			page 77


 2913      5F4F5244 
 2913      45525F5F 
 2914 029a 01       		.byte	0x1
 2915 029b 00       		.uleb128 0
 2916 029c 5F5F5349 		.ascii "__SIZEOF_POINTER__ 4\0"
 2916      5A454F46 
 2916      5F504F49 
 2916      4E544552 
 2916      5F5F2034 
 2917 02b1 01       		.byte	0x1
 2918 02b2 00       		.uleb128 0
 2919 02b3 5F5F5349 		.ascii "__SIZE_TYPE__ unsigned int\0"
 2919      5A455F54 
 2919      5950455F 
 2919      5F20756E 
 2919      7369676E 
 2920 02ce 01       		.byte	0x1
 2921 02cf 00       		.uleb128 0
 2922 02d0 5F5F5054 		.ascii "__PTRDIFF_TYPE__ int\0"
 2922      52444946 
 2922      465F5459 
 2922      50455F5F 
 2922      20696E74 
 2923 02e5 01       		.byte	0x1
 2924 02e6 00       		.uleb128 0
 2925 02e7 5F5F5743 		.ascii "__WCHAR_TYPE__ short unsigned int\0"
 2925      4841525F 
 2925      54595045 
 2925      5F5F2073 
 2925      686F7274 
 2926 0309 01       		.byte	0x1
 2927 030a 00       		.uleb128 0
 2928 030b 5F5F5749 		.ascii "__WINT_TYPE__ short unsigned int\0"
 2928      4E545F54 
 2928      5950455F 
 2928      5F207368 
 2928      6F727420 
 2929 032c 01       		.byte	0x1
 2930 032d 00       		.uleb128 0
 2931 032e 5F5F494E 		.ascii "__INTMAX_TYPE__ long long int\0"
 2931      544D4158 
 2931      5F545950 
 2931      455F5F20 
 2931      6C6F6E67 
 2932 034c 01       		.byte	0x1
 2933 034d 00       		.uleb128 0
 2934 034e 5F5F5549 		.ascii "__UINTMAX_TYPE__ long long unsigned int\0"
 2934      4E544D41 
 2934      585F5459 
 2934      50455F5F 
 2934      206C6F6E 
 2935 0376 01       		.byte	0x1
 2936 0377 00       		.uleb128 0
 2937 0378 5F5F4348 		.ascii "__CHAR16_TYPE__ short unsigned int\0"
 2937      41523136 
 2937      5F545950 
 2937      455F5F20 
GAS LISTING C:\Users\PRESID~1\AppData\Local\Temp\ccljw3FC.s 			page 78


 2937      73686F72 
 2938 039b 01       		.byte	0x1
 2939 039c 00       		.uleb128 0
 2940 039d 5F5F4348 		.ascii "__CHAR32_TYPE__ unsigned int\0"
 2940      41523332 
 2940      5F545950 
 2940      455F5F20 
 2940      756E7369 
 2941 03ba 01       		.byte	0x1
 2942 03bb 00       		.uleb128 0
 2943 03bc 5F5F5349 		.ascii "__SIG_ATOMIC_TYPE__ int\0"
 2943      475F4154 
 2943      4F4D4943 
 2943      5F545950 
 2943      455F5F20 
 2944 03d4 01       		.byte	0x1
 2945 03d5 00       		.uleb128 0
 2946 03d6 5F5F494E 		.ascii "__INT8_TYPE__ signed char\0"
 2946      54385F54 
 2946      5950455F 
 2946      5F207369 
 2946      676E6564 
 2947 03f0 01       		.byte	0x1
 2948 03f1 00       		.uleb128 0
 2949 03f2 5F5F494E 		.ascii "__INT16_TYPE__ short int\0"
 2949      5431365F 
 2949      54595045 
 2949      5F5F2073 
 2949      686F7274 
 2950 040b 01       		.byte	0x1
 2951 040c 00       		.uleb128 0
 2952 040d 5F5F494E 		.ascii "__INT32_TYPE__ int\0"
 2952      5433325F 
 2952      54595045 
 2952      5F5F2069 
 2952      6E7400
 2953 0420 01       		.byte	0x1
 2954 0421 00       		.uleb128 0
 2955 0422 5F5F494E 		.ascii "__INT64_TYPE__ long long int\0"
 2955      5436345F 
 2955      54595045 
 2955      5F5F206C 
 2955      6F6E6720 
 2956 043f 01       		.byte	0x1
 2957 0440 00       		.uleb128 0
 2958 0441 5F5F5549 		.ascii "__UINT8_TYPE__ unsigned char\0"
 2958      4E54385F 
 2958      54595045 
 2958      5F5F2075 
 2958      6E736967 
 2959 045e 01       		.byte	0x1
 2960 045f 00       		.uleb128 0
 2961 0460 5F5F5549 		.ascii "__UINT16_TYPE__ short unsigned int\0"
 2961      4E543136 
 2961      5F545950 
 2961      455F5F20 
 2961      73686F72 
GAS LISTING C:\Users\PRESID~1\AppData\Local\Temp\ccljw3FC.s 			page 79


 2962 0483 01       		.byte	0x1
 2963 0484 00       		.uleb128 0
 2964 0485 5F5F5549 		.ascii "__UINT32_TYPE__ unsigned int\0"
 2964      4E543332 
 2964      5F545950 
 2964      455F5F20 
 2964      756E7369 
 2965 04a2 01       		.byte	0x1
 2966 04a3 00       		.uleb128 0
 2967 04a4 5F5F5549 		.ascii "__UINT64_TYPE__ long long unsigned int\0"
 2967      4E543634 
 2967      5F545950 
 2967      455F5F20 
 2967      6C6F6E67 
 2968 04cb 01       		.byte	0x1
 2969 04cc 00       		.uleb128 0
 2970 04cd 5F5F494E 		.ascii "__INT_LEAST8_TYPE__ signed char\0"
 2970      545F4C45 
 2970      41535438 
 2970      5F545950 
 2970      455F5F20 
 2971 04ed 01       		.byte	0x1
 2972 04ee 00       		.uleb128 0
 2973 04ef 5F5F494E 		.ascii "__INT_LEAST16_TYPE__ short int\0"
 2973      545F4C45 
 2973      41535431 
 2973      365F5459 
 2973      50455F5F 
 2974 050e 01       		.byte	0x1
 2975 050f 00       		.uleb128 0
 2976 0510 5F5F494E 		.ascii "__INT_LEAST32_TYPE__ int\0"
 2976      545F4C45 
 2976      41535433 
 2976      325F5459 
 2976      50455F5F 
 2977 0529 01       		.byte	0x1
 2978 052a 00       		.uleb128 0
 2979 052b 5F5F494E 		.ascii "__INT_LEAST64_TYPE__ long long int\0"
 2979      545F4C45 
 2979      41535436 
 2979      345F5459 
 2979      50455F5F 
 2980 054e 01       		.byte	0x1
 2981 054f 00       		.uleb128 0
 2982 0550 5F5F5549 		.ascii "__UINT_LEAST8_TYPE__ unsigned char\0"
 2982      4E545F4C 
 2982      45415354 
 2982      385F5459 
 2982      50455F5F 
 2983 0573 01       		.byte	0x1
 2984 0574 00       		.uleb128 0
 2985 0575 5F5F5549 		.ascii "__UINT_LEAST16_TYPE__ short unsigned int\0"
 2985      4E545F4C 
 2985      45415354 
 2985      31365F54 
 2985      5950455F 
 2986 059e 01       		.byte	0x1
GAS LISTING C:\Users\PRESID~1\AppData\Local\Temp\ccljw3FC.s 			page 80


 2987 059f 00       		.uleb128 0
 2988 05a0 5F5F5549 		.ascii "__UINT_LEAST32_TYPE__ unsigned int\0"
 2988      4E545F4C 
 2988      45415354 
 2988      33325F54 
 2988      5950455F 
 2989 05c3 01       		.byte	0x1
 2990 05c4 00       		.uleb128 0
 2991 05c5 5F5F5549 		.ascii "__UINT_LEAST64_TYPE__ long long unsigned int\0"
 2991      4E545F4C 
 2991      45415354 
 2991      36345F54 
 2991      5950455F 
 2992 05f2 01       		.byte	0x1
 2993 05f3 00       		.uleb128 0
 2994 05f4 5F5F494E 		.ascii "__INT_FAST8_TYPE__ signed char\0"
 2994      545F4641 
 2994      5354385F 
 2994      54595045 
 2994      5F5F2073 
 2995 0613 01       		.byte	0x1
 2996 0614 00       		.uleb128 0
 2997 0615 5F5F494E 		.ascii "__INT_FAST16_TYPE__ short int\0"
 2997      545F4641 
 2997      53543136 
 2997      5F545950 
 2997      455F5F20 
 2998 0633 01       		.byte	0x1
 2999 0634 00       		.uleb128 0
 3000 0635 5F5F494E 		.ascii "__INT_FAST32_TYPE__ int\0"
 3000      545F4641 
 3000      53543332 
 3000      5F545950 
 3000      455F5F20 
 3001 064d 01       		.byte	0x1
 3002 064e 00       		.uleb128 0
 3003 064f 5F5F494E 		.ascii "__INT_FAST64_TYPE__ long long int\0"
 3003      545F4641 
 3003      53543634 
 3003      5F545950 
 3003      455F5F20 
 3004 0671 01       		.byte	0x1
 3005 0672 00       		.uleb128 0
 3006 0673 5F5F5549 		.ascii "__UINT_FAST8_TYPE__ unsigned char\0"
 3006      4E545F46 
 3006      41535438 
 3006      5F545950 
 3006      455F5F20 
 3007 0695 01       		.byte	0x1
 3008 0696 00       		.uleb128 0
 3009 0697 5F5F5549 		.ascii "__UINT_FAST16_TYPE__ short unsigned int\0"
 3009      4E545F46 
 3009      41535431 
 3009      365F5459 
 3009      50455F5F 
 3010 06bf 01       		.byte	0x1
 3011 06c0 00       		.uleb128 0
GAS LISTING C:\Users\PRESID~1\AppData\Local\Temp\ccljw3FC.s 			page 81


 3012 06c1 5F5F5549 		.ascii "__UINT_FAST32_TYPE__ unsigned int\0"
 3012      4E545F46 
 3012      41535433 
 3012      325F5459 
 3012      50455F5F 
 3013 06e3 01       		.byte	0x1
 3014 06e4 00       		.uleb128 0
 3015 06e5 5F5F5549 		.ascii "__UINT_FAST64_TYPE__ long long unsigned int\0"
 3015      4E545F46 
 3015      41535436 
 3015      345F5459 
 3015      50455F5F 
 3016 0711 01       		.byte	0x1
 3017 0712 00       		.uleb128 0
 3018 0713 5F5F494E 		.ascii "__INTPTR_TYPE__ int\0"
 3018      54505452 
 3018      5F545950 
 3018      455F5F20 
 3018      696E7400 
 3019 0727 01       		.byte	0x1
 3020 0728 00       		.uleb128 0
 3021 0729 5F5F5549 		.ascii "__UINTPTR_TYPE__ unsigned int\0"
 3021      4E545054 
 3021      525F5459 
 3021      50455F5F 
 3021      20756E73 
 3022 0747 01       		.byte	0x1
 3023 0748 00       		.uleb128 0
 3024 0749 5F5F6861 		.ascii "__has_include(STR) __has_include__(STR)\0"
 3024      735F696E 
 3024      636C7564 
 3024      65285354 
 3024      5229205F 
 3025 0771 01       		.byte	0x1
 3026 0772 00       		.uleb128 0
 3027 0773 5F5F6861 		.ascii "__has_include_next(STR) __has_include_next__(STR)\0"
 3027      735F696E 
 3027      636C7564 
 3027      655F6E65 
 3027      78742853 
 3028 07a5 01       		.byte	0x1
 3029 07a6 00       		.uleb128 0
 3030 07a7 5F5F4758 		.ascii "__GXX_ABI_VERSION 1002\0"
 3030      585F4142 
 3030      495F5645 
 3030      5253494F 
 3030      4E203130 
 3031 07be 01       		.byte	0x1
 3032 07bf 00       		.uleb128 0
 3033 07c0 5F5F5343 		.ascii "__SCHAR_MAX__ 127\0"
 3033      4841525F 
 3033      4D41585F 
 3033      5F203132 
 3033      3700
 3034 07d2 01       		.byte	0x1
 3035 07d3 00       		.uleb128 0
 3036 07d4 5F5F5348 		.ascii "__SHRT_MAX__ 32767\0"
GAS LISTING C:\Users\PRESID~1\AppData\Local\Temp\ccljw3FC.s 			page 82


 3036      52545F4D 
 3036      41585F5F 
 3036      20333237 
 3036      363700
 3037 07e7 01       		.byte	0x1
 3038 07e8 00       		.uleb128 0
 3039 07e9 5F5F494E 		.ascii "__INT_MAX__ 2147483647\0"
 3039      545F4D41 
 3039      585F5F20 
 3039      32313437 
 3039      34383336 
 3040 0800 01       		.byte	0x1
 3041 0801 00       		.uleb128 0
 3042 0802 5F5F4C4F 		.ascii "__LONG_MAX__ 2147483647L\0"
 3042      4E475F4D 
 3042      41585F5F 
 3042      20323134 
 3042      37343833 
 3043 081b 01       		.byte	0x1
 3044 081c 00       		.uleb128 0
 3045 081d 5F5F4C4F 		.ascii "__LONG_LONG_MAX__ 9223372036854775807LL\0"
 3045      4E475F4C 
 3045      4F4E475F 
 3045      4D41585F 
 3045      5F203932 
 3046 0845 01       		.byte	0x1
 3047 0846 00       		.uleb128 0
 3048 0847 5F5F5743 		.ascii "__WCHAR_MAX__ 65535\0"
 3048      4841525F 
 3048      4D41585F 
 3048      5F203635 
 3048      35333500 
 3049 085b 01       		.byte	0x1
 3050 085c 00       		.uleb128 0
 3051 085d 5F5F5743 		.ascii "__WCHAR_MIN__ 0\0"
 3051      4841525F 
 3051      4D494E5F 
 3051      5F203000 
 3052 086d 01       		.byte	0x1
 3053 086e 00       		.uleb128 0
 3054 086f 5F5F5749 		.ascii "__WINT_MAX__ 65535\0"
 3054      4E545F4D 
 3054      41585F5F 
 3054      20363535 
 3054      333500
 3055 0882 01       		.byte	0x1
 3056 0883 00       		.uleb128 0
 3057 0884 5F5F5749 		.ascii "__WINT_MIN__ 0\0"
 3057      4E545F4D 
 3057      494E5F5F 
 3057      203000
 3058 0893 01       		.byte	0x1
 3059 0894 00       		.uleb128 0
 3060 0895 5F5F5054 		.ascii "__PTRDIFF_MAX__ 2147483647\0"
 3060      52444946 
 3060      465F4D41 
 3060      585F5F20 
GAS LISTING C:\Users\PRESID~1\AppData\Local\Temp\ccljw3FC.s 			page 83


 3060      32313437 
 3061 08b0 01       		.byte	0x1
 3062 08b1 00       		.uleb128 0
 3063 08b2 5F5F5349 		.ascii "__SIZE_MAX__ 4294967295U\0"
 3063      5A455F4D 
 3063      41585F5F 
 3063      20343239 
 3063      34393637 
 3064 08cb 01       		.byte	0x1
 3065 08cc 00       		.uleb128 0
 3066 08cd 5F5F494E 		.ascii "__INTMAX_MAX__ 9223372036854775807LL\0"
 3066      544D4158 
 3066      5F4D4158 
 3066      5F5F2039 
 3066      32323333 
 3067 08f2 01       		.byte	0x1
 3068 08f3 00       		.uleb128 0
 3069 08f4 5F5F494E 		.ascii "__INTMAX_C(c) c ## LL\0"
 3069      544D4158 
 3069      5F432863 
 3069      29206320 
 3069      2323204C 
 3070 090a 01       		.byte	0x1
 3071 090b 00       		.uleb128 0
 3072 090c 5F5F5549 		.ascii "__UINTMAX_MAX__ 18446744073709551615ULL\0"
 3072      4E544D41 
 3072      585F4D41 
 3072      585F5F20 
 3072      31383434 
 3073 0934 01       		.byte	0x1
 3074 0935 00       		.uleb128 0
 3075 0936 5F5F5549 		.ascii "__UINTMAX_C(c) c ## ULL\0"
 3075      4E544D41 
 3075      585F4328 
 3075      63292063 
 3075      20232320 
 3076 094e 01       		.byte	0x1
 3077 094f 00       		.uleb128 0
 3078 0950 5F5F5349 		.ascii "__SIG_ATOMIC_MAX__ 2147483647\0"
 3078      475F4154 
 3078      4F4D4943 
 3078      5F4D4158 
 3078      5F5F2032 
 3079 096e 01       		.byte	0x1
 3080 096f 00       		.uleb128 0
 3081 0970 5F5F5349 		.ascii "__SIG_ATOMIC_MIN__ (-__SIG_ATOMIC_MAX__ - 1)\0"
 3081      475F4154 
 3081      4F4D4943 
 3081      5F4D494E 
 3081      5F5F2028 
 3082 099d 01       		.byte	0x1
 3083 099e 00       		.uleb128 0
 3084 099f 5F5F494E 		.ascii "__INT8_MAX__ 127\0"
 3084      54385F4D 
 3084      41585F5F 
 3084      20313237 
 3084      00
GAS LISTING C:\Users\PRESID~1\AppData\Local\Temp\ccljw3FC.s 			page 84


 3085 09b0 01       		.byte	0x1
 3086 09b1 00       		.uleb128 0
 3087 09b2 5F5F494E 		.ascii "__INT16_MAX__ 32767\0"
 3087      5431365F 
 3087      4D41585F 
 3087      5F203332 
 3087      37363700 
 3088 09c6 01       		.byte	0x1
 3089 09c7 00       		.uleb128 0
 3090 09c8 5F5F494E 		.ascii "__INT32_MAX__ 2147483647\0"
 3090      5433325F 
 3090      4D41585F 
 3090      5F203231 
 3090      34373438 
 3091 09e1 01       		.byte	0x1
 3092 09e2 00       		.uleb128 0
 3093 09e3 5F5F494E 		.ascii "__INT64_MAX__ 9223372036854775807LL\0"
 3093      5436345F 
 3093      4D41585F 
 3093      5F203932 
 3093      32333337 
 3094 0a07 01       		.byte	0x1
 3095 0a08 00       		.uleb128 0
 3096 0a09 5F5F5549 		.ascii "__UINT8_MAX__ 255\0"
 3096      4E54385F 
 3096      4D41585F 
 3096      5F203235 
 3096      3500
 3097 0a1b 01       		.byte	0x1
 3098 0a1c 00       		.uleb128 0
 3099 0a1d 5F5F5549 		.ascii "__UINT16_MAX__ 65535\0"
 3099      4E543136 
 3099      5F4D4158 
 3099      5F5F2036 
 3099      35353335 
 3100 0a32 01       		.byte	0x1
 3101 0a33 00       		.uleb128 0
 3102 0a34 5F5F5549 		.ascii "__UINT32_MAX__ 4294967295U\0"
 3102      4E543332 
 3102      5F4D4158 
 3102      5F5F2034 
 3102      32393439 
 3103 0a4f 01       		.byte	0x1
 3104 0a50 00       		.uleb128 0
 3105 0a51 5F5F5549 		.ascii "__UINT64_MAX__ 18446744073709551615ULL\0"
 3105      4E543634 
 3105      5F4D4158 
 3105      5F5F2031 
 3105      38343436 
 3106 0a78 01       		.byte	0x1
 3107 0a79 00       		.uleb128 0
 3108 0a7a 5F5F494E 		.ascii "__INT_LEAST8_MAX__ 127\0"
 3108      545F4C45 
 3108      41535438 
 3108      5F4D4158 
 3108      5F5F2031 
 3109 0a91 01       		.byte	0x1
GAS LISTING C:\Users\PRESID~1\AppData\Local\Temp\ccljw3FC.s 			page 85


 3110 0a92 00       		.uleb128 0
 3111 0a93 5F5F494E 		.ascii "__INT8_C(c) c\0"
 3111      54385F43 
 3111      28632920 
 3111      6300
 3112 0aa1 01       		.byte	0x1
 3113 0aa2 00       		.uleb128 0
 3114 0aa3 5F5F494E 		.ascii "__INT_LEAST16_MAX__ 32767\0"
 3114      545F4C45 
 3114      41535431 
 3114      365F4D41 
 3114      585F5F20 
 3115 0abd 01       		.byte	0x1
 3116 0abe 00       		.uleb128 0
 3117 0abf 5F5F494E 		.ascii "__INT16_C(c) c\0"
 3117      5431365F 
 3117      43286329 
 3117      206300
 3118 0ace 01       		.byte	0x1
 3119 0acf 00       		.uleb128 0
 3120 0ad0 5F5F494E 		.ascii "__INT_LEAST32_MAX__ 2147483647\0"
 3120      545F4C45 
 3120      41535433 
 3120      325F4D41 
 3120      585F5F20 
 3121 0aef 01       		.byte	0x1
 3122 0af0 00       		.uleb128 0
 3123 0af1 5F5F494E 		.ascii "__INT32_C(c) c\0"
 3123      5433325F 
 3123      43286329 
 3123      206300
 3124 0b00 01       		.byte	0x1
 3125 0b01 00       		.uleb128 0
 3126 0b02 5F5F494E 		.ascii "__INT_LEAST64_MAX__ 9223372036854775807LL\0"
 3126      545F4C45 
 3126      41535436 
 3126      345F4D41 
 3126      585F5F20 
 3127 0b2c 01       		.byte	0x1
 3128 0b2d 00       		.uleb128 0
 3129 0b2e 5F5F494E 		.ascii "__INT64_C(c) c ## LL\0"
 3129      5436345F 
 3129      43286329 
 3129      20632023 
 3129      23204C4C 
 3130 0b43 01       		.byte	0x1
 3131 0b44 00       		.uleb128 0
 3132 0b45 5F5F5549 		.ascii "__UINT_LEAST8_MAX__ 255\0"
 3132      4E545F4C 
 3132      45415354 
 3132      385F4D41 
 3132      585F5F20 
 3133 0b5d 01       		.byte	0x1
 3134 0b5e 00       		.uleb128 0
 3135 0b5f 5F5F5549 		.ascii "__UINT8_C(c) c\0"
 3135      4E54385F 
 3135      43286329 
GAS LISTING C:\Users\PRESID~1\AppData\Local\Temp\ccljw3FC.s 			page 86


 3135      206300
 3136 0b6e 01       		.byte	0x1
 3137 0b6f 00       		.uleb128 0
 3138 0b70 5F5F5549 		.ascii "__UINT_LEAST16_MAX__ 65535\0"
 3138      4E545F4C 
 3138      45415354 
 3138      31365F4D 
 3138      41585F5F 
 3139 0b8b 01       		.byte	0x1
 3140 0b8c 00       		.uleb128 0
 3141 0b8d 5F5F5549 		.ascii "__UINT16_C(c) c\0"
 3141      4E543136 
 3141      5F432863 
 3141      29206300 
 3142 0b9d 01       		.byte	0x1
 3143 0b9e 00       		.uleb128 0
 3144 0b9f 5F5F5549 		.ascii "__UINT_LEAST32_MAX__ 4294967295U\0"
 3144      4E545F4C 
 3144      45415354 
 3144      33325F4D 
 3144      41585F5F 
 3145 0bc0 01       		.byte	0x1
 3146 0bc1 00       		.uleb128 0
 3147 0bc2 5F5F5549 		.ascii "__UINT32_C(c) c ## U\0"
 3147      4E543332 
 3147      5F432863 
 3147      29206320 
 3147      23232055 
 3148 0bd7 01       		.byte	0x1
 3149 0bd8 00       		.uleb128 0
 3150 0bd9 5F5F5549 		.ascii "__UINT_LEAST64_MAX__ 18446744073709551615ULL\0"
 3150      4E545F4C 
 3150      45415354 
 3150      36345F4D 
 3150      41585F5F 
 3151 0c06 01       		.byte	0x1
 3152 0c07 00       		.uleb128 0
 3153 0c08 5F5F5549 		.ascii "__UINT64_C(c) c ## ULL\0"
 3153      4E543634 
 3153      5F432863 
 3153      29206320 
 3153      23232055 
 3154 0c1f 01       		.byte	0x1
 3155 0c20 00       		.uleb128 0
 3156 0c21 5F5F494E 		.ascii "__INT_FAST8_MAX__ 127\0"
 3156      545F4641 
 3156      5354385F 
 3156      4D41585F 
 3156      5F203132 
 3157 0c37 01       		.byte	0x1
 3158 0c38 00       		.uleb128 0
 3159 0c39 5F5F494E 		.ascii "__INT_FAST16_MAX__ 32767\0"
 3159      545F4641 
 3159      53543136 
 3159      5F4D4158 
 3159      5F5F2033 
 3160 0c52 01       		.byte	0x1
GAS LISTING C:\Users\PRESID~1\AppData\Local\Temp\ccljw3FC.s 			page 87


 3161 0c53 00       		.uleb128 0
 3162 0c54 5F5F494E 		.ascii "__INT_FAST32_MAX__ 2147483647\0"
 3162      545F4641 
 3162      53543332 
 3162      5F4D4158 
 3162      5F5F2032 
 3163 0c72 01       		.byte	0x1
 3164 0c73 00       		.uleb128 0
 3165 0c74 5F5F494E 		.ascii "__INT_FAST64_MAX__ 9223372036854775807LL\0"
 3165      545F4641 
 3165      53543634 
 3165      5F4D4158 
 3165      5F5F2039 
 3166 0c9d 01       		.byte	0x1
 3167 0c9e 00       		.uleb128 0
 3168 0c9f 5F5F5549 		.ascii "__UINT_FAST8_MAX__ 255\0"
 3168      4E545F46 
 3168      41535438 
 3168      5F4D4158 
 3168      5F5F2032 
 3169 0cb6 01       		.byte	0x1
 3170 0cb7 00       		.uleb128 0
 3171 0cb8 5F5F5549 		.ascii "__UINT_FAST16_MAX__ 65535\0"
 3171      4E545F46 
 3171      41535431 
 3171      365F4D41 
 3171      585F5F20 
 3172 0cd2 01       		.byte	0x1
 3173 0cd3 00       		.uleb128 0
 3174 0cd4 5F5F5549 		.ascii "__UINT_FAST32_MAX__ 4294967295U\0"
 3174      4E545F46 
 3174      41535433 
 3174      325F4D41 
 3174      585F5F20 
 3175 0cf4 01       		.byte	0x1
 3176 0cf5 00       		.uleb128 0
 3177 0cf6 5F5F5549 		.ascii "__UINT_FAST64_MAX__ 18446744073709551615ULL\0"
 3177      4E545F46 
 3177      41535436 
 3177      345F4D41 
 3177      585F5F20 
 3178 0d22 01       		.byte	0x1
 3179 0d23 00       		.uleb128 0
 3180 0d24 5F5F494E 		.ascii "__INTPTR_MAX__ 2147483647\0"
 3180      54505452 
 3180      5F4D4158 
 3180      5F5F2032 
 3180      31343734 
 3181 0d3e 01       		.byte	0x1
 3182 0d3f 00       		.uleb128 0
 3183 0d40 5F5F5549 		.ascii "__UINTPTR_MAX__ 4294967295U\0"
 3183      4E545054 
 3183      525F4D41 
 3183      585F5F20 
 3183      34323934 
 3184 0d5c 01       		.byte	0x1
 3185 0d5d 00       		.uleb128 0
GAS LISTING C:\Users\PRESID~1\AppData\Local\Temp\ccljw3FC.s 			page 88


 3186 0d5e 5F5F4743 		.ascii "__GCC_IEC_559 2\0"
 3186      435F4945 
 3186      435F3535 
 3186      39203200 
 3187 0d6e 01       		.byte	0x1
 3188 0d6f 00       		.uleb128 0
 3189 0d70 5F5F4743 		.ascii "__GCC_IEC_559_COMPLEX 2\0"
 3189      435F4945 
 3189      435F3535 
 3189      395F434F 
 3189      4D504C45 
 3190 0d88 01       		.byte	0x1
 3191 0d89 00       		.uleb128 0
 3192 0d8a 5F5F464C 		.ascii "__FLT_EVAL_METHOD__ 2\0"
 3192      545F4556 
 3192      414C5F4D 
 3192      4554484F 
 3192      445F5F20 
 3193 0da0 01       		.byte	0x1
 3194 0da1 00       		.uleb128 0
 3195 0da2 5F5F4445 		.ascii "__DEC_EVAL_METHOD__ 2\0"
 3195      435F4556 
 3195      414C5F4D 
 3195      4554484F 
 3195      445F5F20 
 3196 0db8 01       		.byte	0x1
 3197 0db9 00       		.uleb128 0
 3198 0dba 5F5F464C 		.ascii "__FLT_RADIX__ 2\0"
 3198      545F5241 
 3198      4449585F 
 3198      5F203200 
 3199 0dca 01       		.byte	0x1
 3200 0dcb 00       		.uleb128 0
 3201 0dcc 5F5F464C 		.ascii "__FLT_MANT_DIG__ 24\0"
 3201      545F4D41 
 3201      4E545F44 
 3201      49475F5F 
 3201      20323400 
 3202 0de0 01       		.byte	0x1
 3203 0de1 00       		.uleb128 0
 3204 0de2 5F5F464C 		.ascii "__FLT_DIG__ 6\0"
 3204      545F4449 
 3204      475F5F20 
 3204      3600
 3205 0df0 01       		.byte	0x1
 3206 0df1 00       		.uleb128 0
 3207 0df2 5F5F464C 		.ascii "__FLT_MIN_EXP__ (-125)\0"
 3207      545F4D49 
 3207      4E5F4558 
 3207      505F5F20 
 3207      282D3132 
 3208 0e09 01       		.byte	0x1
 3209 0e0a 00       		.uleb128 0
 3210 0e0b 5F5F464C 		.ascii "__FLT_MIN_10_EXP__ (-37)\0"
 3210      545F4D49 
 3210      4E5F3130 
 3210      5F455850 
GAS LISTING C:\Users\PRESID~1\AppData\Local\Temp\ccljw3FC.s 			page 89


 3210      5F5F2028 
 3211 0e24 01       		.byte	0x1
 3212 0e25 00       		.uleb128 0
 3213 0e26 5F5F464C 		.ascii "__FLT_MAX_EXP__ 128\0"
 3213      545F4D41 
 3213      585F4558 
 3213      505F5F20 
 3213      31323800 
 3214 0e3a 01       		.byte	0x1
 3215 0e3b 00       		.uleb128 0
 3216 0e3c 5F5F464C 		.ascii "__FLT_MAX_10_EXP__ 38\0"
 3216      545F4D41 
 3216      585F3130 
 3216      5F455850 
 3216      5F5F2033 
 3217 0e52 01       		.byte	0x1
 3218 0e53 00       		.uleb128 0
 3219 0e54 5F5F464C 		.ascii "__FLT_DECIMAL_DIG__ 9\0"
 3219      545F4445 
 3219      43494D41 
 3219      4C5F4449 
 3219      475F5F20 
 3220 0e6a 01       		.byte	0x1
 3221 0e6b 00       		.uleb128 0
 3222 0e6c 5F5F464C 		.ascii "__FLT_MAX__ 3.40282346638528859812e+38F\0"
 3222      545F4D41 
 3222      585F5F20 
 3222      332E3430 
 3222      32383233 
 3223 0e94 01       		.byte	0x1
 3224 0e95 00       		.uleb128 0
 3225 0e96 5F5F464C 		.ascii "__FLT_MIN__ 1.17549435082228750797e-38F\0"
 3225      545F4D49 
 3225      4E5F5F20 
 3225      312E3137 
 3225      35343934 
 3226 0ebe 01       		.byte	0x1
 3227 0ebf 00       		.uleb128 0
 3228 0ec0 5F5F464C 		.ascii "__FLT_EPSILON__ 1.19209289550781250000e-7F\0"
 3228      545F4550 
 3228      53494C4F 
 3228      4E5F5F20 
 3228      312E3139 
 3229 0eeb 01       		.byte	0x1
 3230 0eec 00       		.uleb128 0
 3231 0eed 5F5F464C 		.ascii "__FLT_DENORM_MIN__ 1.40129846432481707092e-45F\0"
 3231      545F4445 
 3231      4E4F524D 
 3231      5F4D494E 
 3231      5F5F2031 
 3232 0f1c 01       		.byte	0x1
 3233 0f1d 00       		.uleb128 0
 3234 0f1e 5F5F464C 		.ascii "__FLT_HAS_DENORM__ 1\0"
 3234      545F4841 
 3234      535F4445 
 3234      4E4F524D 
 3234      5F5F2031 
GAS LISTING C:\Users\PRESID~1\AppData\Local\Temp\ccljw3FC.s 			page 90


 3235 0f33 01       		.byte	0x1
 3236 0f34 00       		.uleb128 0
 3237 0f35 5F5F464C 		.ascii "__FLT_HAS_INFINITY__ 1\0"
 3237      545F4841 
 3237      535F494E 
 3237      46494E49 
 3237      54595F5F 
 3238 0f4c 01       		.byte	0x1
 3239 0f4d 00       		.uleb128 0
 3240 0f4e 5F5F464C 		.ascii "__FLT_HAS_QUIET_NAN__ 1\0"
 3240      545F4841 
 3240      535F5155 
 3240      4945545F 
 3240      4E414E5F 
 3241 0f66 01       		.byte	0x1
 3242 0f67 00       		.uleb128 0
 3243 0f68 5F5F4442 		.ascii "__DBL_MANT_DIG__ 53\0"
 3243      4C5F4D41 
 3243      4E545F44 
 3243      49475F5F 
 3243      20353300 
 3244 0f7c 01       		.byte	0x1
 3245 0f7d 00       		.uleb128 0
 3246 0f7e 5F5F4442 		.ascii "__DBL_DIG__ 15\0"
 3246      4C5F4449 
 3246      475F5F20 
 3246      313500
 3247 0f8d 01       		.byte	0x1
 3248 0f8e 00       		.uleb128 0
 3249 0f8f 5F5F4442 		.ascii "__DBL_MIN_EXP__ (-1021)\0"
 3249      4C5F4D49 
 3249      4E5F4558 
 3249      505F5F20 
 3249      282D3130 
 3250 0fa7 01       		.byte	0x1
 3251 0fa8 00       		.uleb128 0
 3252 0fa9 5F5F4442 		.ascii "__DBL_MIN_10_EXP__ (-307)\0"
 3252      4C5F4D49 
 3252      4E5F3130 
 3252      5F455850 
 3252      5F5F2028 
 3253 0fc3 01       		.byte	0x1
 3254 0fc4 00       		.uleb128 0
 3255 0fc5 5F5F4442 		.ascii "__DBL_MAX_EXP__ 1024\0"
 3255      4C5F4D41 
 3255      585F4558 
 3255      505F5F20 
 3255      31303234 
 3256 0fda 01       		.byte	0x1
 3257 0fdb 00       		.uleb128 0
 3258 0fdc 5F5F4442 		.ascii "__DBL_MAX_10_EXP__ 308\0"
 3258      4C5F4D41 
 3258      585F3130 
 3258      5F455850 
 3258      5F5F2033 
 3259 0ff3 01       		.byte	0x1
 3260 0ff4 00       		.uleb128 0
GAS LISTING C:\Users\PRESID~1\AppData\Local\Temp\ccljw3FC.s 			page 91


 3261 0ff5 5F5F4442 		.ascii "__DBL_DECIMAL_DIG__ 17\0"
 3261      4C5F4445 
 3261      43494D41 
 3261      4C5F4449 
 3261      475F5F20 
 3262 100c 01       		.byte	0x1
 3263 100d 00       		.uleb128 0
 3264 100e 5F5F4442 		.ascii "__DBL_MAX__ ((double)1.79769313486231570815e+308L)\0"
 3264      4C5F4D41 
 3264      585F5F20 
 3264      2828646F 
 3264      75626C65 
 3265 1041 01       		.byte	0x1
 3266 1042 00       		.uleb128 0
 3267 1043 5F5F4442 		.ascii "__DBL_MIN__ ((double)2.22507385850720138309e-308L)\0"
 3267      4C5F4D49 
 3267      4E5F5F20 
 3267      2828646F 
 3267      75626C65 
 3268 1076 01       		.byte	0x1
 3269 1077 00       		.uleb128 0
 3270 1078 5F5F4442 		.ascii "__DBL_EPSILON__ ((double)2.22044604925031308085e-16L)\0"
 3270      4C5F4550 
 3270      53494C4F 
 3270      4E5F5F20 
 3270      2828646F 
 3271 10ae 01       		.byte	0x1
 3272 10af 00       		.uleb128 0
 3273 10b0 5F5F4442 		.ascii "__DBL_DENORM_MIN__ ((double)4.94065645841246544177e-324L)\0"
 3273      4C5F4445 
 3273      4E4F524D 
 3273      5F4D494E 
 3273      5F5F2028 
 3274 10ea 01       		.byte	0x1
 3275 10eb 00       		.uleb128 0
 3276 10ec 5F5F4442 		.ascii "__DBL_HAS_DENORM__ 1\0"
 3276      4C5F4841 
 3276      535F4445 
 3276      4E4F524D 
 3276      5F5F2031 
 3277 1101 01       		.byte	0x1
 3278 1102 00       		.uleb128 0
 3279 1103 5F5F4442 		.ascii "__DBL_HAS_INFINITY__ 1\0"
 3279      4C5F4841 
 3279      535F494E 
 3279      46494E49 
 3279      54595F5F 
 3280 111a 01       		.byte	0x1
 3281 111b 00       		.uleb128 0
 3282 111c 5F5F4442 		.ascii "__DBL_HAS_QUIET_NAN__ 1\0"
 3282      4C5F4841 
 3282      535F5155 
 3282      4945545F 
 3282      4E414E5F 
 3283 1134 01       		.byte	0x1
 3284 1135 00       		.uleb128 0
 3285 1136 5F5F4C44 		.ascii "__LDBL_MANT_DIG__ 64\0"
GAS LISTING C:\Users\PRESID~1\AppData\Local\Temp\ccljw3FC.s 			page 92


 3285      424C5F4D 
 3285      414E545F 
 3285      4449475F 
 3285      5F203634 
 3286 114b 01       		.byte	0x1
 3287 114c 00       		.uleb128 0
 3288 114d 5F5F4C44 		.ascii "__LDBL_DIG__ 18\0"
 3288      424C5F44 
 3288      49475F5F 
 3288      20313800 
 3289 115d 01       		.byte	0x1
 3290 115e 00       		.uleb128 0
 3291 115f 5F5F4C44 		.ascii "__LDBL_MIN_EXP__ (-16381)\0"
 3291      424C5F4D 
 3291      494E5F45 
 3291      58505F5F 
 3291      20282D31 
 3292 1179 01       		.byte	0x1
 3293 117a 00       		.uleb128 0
 3294 117b 5F5F4C44 		.ascii "__LDBL_MIN_10_EXP__ (-4931)\0"
 3294      424C5F4D 
 3294      494E5F31 
 3294      305F4558 
 3294      505F5F20 
 3295 1197 01       		.byte	0x1
 3296 1198 00       		.uleb128 0
 3297 1199 5F5F4C44 		.ascii "__LDBL_MAX_EXP__ 16384\0"
 3297      424C5F4D 
 3297      41585F45 
 3297      58505F5F 
 3297      20313633 
 3298 11b0 01       		.byte	0x1
 3299 11b1 00       		.uleb128 0
 3300 11b2 5F5F4C44 		.ascii "__LDBL_MAX_10_EXP__ 4932\0"
 3300      424C5F4D 
 3300      41585F31 
 3300      305F4558 
 3300      505F5F20 
 3301 11cb 01       		.byte	0x1
 3302 11cc 00       		.uleb128 0
 3303 11cd 5F5F4445 		.ascii "__DECIMAL_DIG__ 21\0"
 3303      43494D41 
 3303      4C5F4449 
 3303      475F5F20 
 3303      323100
 3304 11e0 01       		.byte	0x1
 3305 11e1 00       		.uleb128 0
 3306 11e2 5F5F4C44 		.ascii "__LDBL_MAX__ 1.18973149535723176502e+4932L\0"
 3306      424C5F4D 
 3306      41585F5F 
 3306      20312E31 
 3306      38393733 
 3307 120d 01       		.byte	0x1
 3308 120e 00       		.uleb128 0
 3309 120f 5F5F4C44 		.ascii "__LDBL_MIN__ 3.36210314311209350626e-4932L\0"
 3309      424C5F4D 
 3309      494E5F5F 
GAS LISTING C:\Users\PRESID~1\AppData\Local\Temp\ccljw3FC.s 			page 93


 3309      20332E33 
 3309      36323130 
 3310 123a 01       		.byte	0x1
 3311 123b 00       		.uleb128 0
 3312 123c 5F5F4C44 		.ascii "__LDBL_EPSILON__ 1.08420217248550443401e-19L\0"
 3312      424C5F45 
 3312      5053494C 
 3312      4F4E5F5F 
 3312      20312E30 
 3313 1269 01       		.byte	0x1
 3314 126a 00       		.uleb128 0
 3315 126b 5F5F4C44 		.ascii "__LDBL_DENORM_MIN__ 3.64519953188247460253e-4951L\0"
 3315      424C5F44 
 3315      454E4F52 
 3315      4D5F4D49 
 3315      4E5F5F20 
 3316 129d 01       		.byte	0x1
 3317 129e 00       		.uleb128 0
 3318 129f 5F5F4C44 		.ascii "__LDBL_HAS_DENORM__ 1\0"
 3318      424C5F48 
 3318      41535F44 
 3318      454E4F52 
 3318      4D5F5F20 
 3319 12b5 01       		.byte	0x1
 3320 12b6 00       		.uleb128 0
 3321 12b7 5F5F4C44 		.ascii "__LDBL_HAS_INFINITY__ 1\0"
 3321      424C5F48 
 3321      41535F49 
 3321      4E46494E 
 3321      4954595F 
 3322 12cf 01       		.byte	0x1
 3323 12d0 00       		.uleb128 0
 3324 12d1 5F5F4C44 		.ascii "__LDBL_HAS_QUIET_NAN__ 1\0"
 3324      424C5F48 
 3324      41535F51 
 3324      55494554 
 3324      5F4E414E 
 3325 12ea 01       		.byte	0x1
 3326 12eb 00       		.uleb128 0
 3327 12ec 5F5F4445 		.ascii "__DEC32_MANT_DIG__ 7\0"
 3327      4333325F 
 3327      4D414E54 
 3327      5F444947 
 3327      5F5F2037 
 3328 1301 01       		.byte	0x1
 3329 1302 00       		.uleb128 0
 3330 1303 5F5F4445 		.ascii "__DEC32_MIN_EXP__ (-94)\0"
 3330      4333325F 
 3330      4D494E5F 
 3330      4558505F 
 3330      5F20282D 
 3331 131b 01       		.byte	0x1
 3332 131c 00       		.uleb128 0
 3333 131d 5F5F4445 		.ascii "__DEC32_MAX_EXP__ 97\0"
 3333      4333325F 
 3333      4D41585F 
 3333      4558505F 
GAS LISTING C:\Users\PRESID~1\AppData\Local\Temp\ccljw3FC.s 			page 94


 3333      5F203937 
 3334 1332 01       		.byte	0x1
 3335 1333 00       		.uleb128 0
 3336 1334 5F5F4445 		.ascii "__DEC32_MIN__ 1E-95DF\0"
 3336      4333325F 
 3336      4D494E5F 
 3336      5F203145 
 3336      2D393544 
 3337 134a 01       		.byte	0x1
 3338 134b 00       		.uleb128 0
 3339 134c 5F5F4445 		.ascii "__DEC32_MAX__ 9.999999E96DF\0"
 3339      4333325F 
 3339      4D41585F 
 3339      5F20392E 
 3339      39393939 
 3340 1368 01       		.byte	0x1
 3341 1369 00       		.uleb128 0
 3342 136a 5F5F4445 		.ascii "__DEC32_EPSILON__ 1E-6DF\0"
 3342      4333325F 
 3342      45505349 
 3342      4C4F4E5F 
 3342      5F203145 
 3343 1383 01       		.byte	0x1
 3344 1384 00       		.uleb128 0
 3345 1385 5F5F4445 		.ascii "__DEC32_SUBNORMAL_MIN__ 0.000001E-95DF\0"
 3345      4333325F 
 3345      5355424E 
 3345      4F524D41 
 3345      4C5F4D49 
 3346 13ac 01       		.byte	0x1
 3347 13ad 00       		.uleb128 0
 3348 13ae 5F5F4445 		.ascii "__DEC64_MANT_DIG__ 16\0"
 3348      4336345F 
 3348      4D414E54 
 3348      5F444947 
 3348      5F5F2031 
 3349 13c4 01       		.byte	0x1
 3350 13c5 00       		.uleb128 0
 3351 13c6 5F5F4445 		.ascii "__DEC64_MIN_EXP__ (-382)\0"
 3351      4336345F 
 3351      4D494E5F 
 3351      4558505F 
 3351      5F20282D 
 3352 13df 01       		.byte	0x1
 3353 13e0 00       		.uleb128 0
 3354 13e1 5F5F4445 		.ascii "__DEC64_MAX_EXP__ 385\0"
 3354      4336345F 
 3354      4D41585F 
 3354      4558505F 
 3354      5F203338 
 3355 13f7 01       		.byte	0x1
 3356 13f8 00       		.uleb128 0
 3357 13f9 5F5F4445 		.ascii "__DEC64_MIN__ 1E-383DD\0"
 3357      4336345F 
 3357      4D494E5F 
 3357      5F203145 
 3357      2D333833 
GAS LISTING C:\Users\PRESID~1\AppData\Local\Temp\ccljw3FC.s 			page 95


 3358 1410 01       		.byte	0x1
 3359 1411 00       		.uleb128 0
 3360 1412 5F5F4445 		.ascii "__DEC64_MAX__ 9.999999999999999E384DD\0"
 3360      4336345F 
 3360      4D41585F 
 3360      5F20392E 
 3360      39393939 
 3361 1438 01       		.byte	0x1
 3362 1439 00       		.uleb128 0
 3363 143a 5F5F4445 		.ascii "__DEC64_EPSILON__ 1E-15DD\0"
 3363      4336345F 
 3363      45505349 
 3363      4C4F4E5F 
 3363      5F203145 
 3364 1454 01       		.byte	0x1
 3365 1455 00       		.uleb128 0
 3366 1456 5F5F4445 		.ascii "__DEC64_SUBNORMAL_MIN__ 0.000000000000001E-383DD\0"
 3366      4336345F 
 3366      5355424E 
 3366      4F524D41 
 3366      4C5F4D49 
 3367 1487 01       		.byte	0x1
 3368 1488 00       		.uleb128 0
 3369 1489 5F5F4445 		.ascii "__DEC128_MANT_DIG__ 34\0"
 3369      43313238 
 3369      5F4D414E 
 3369      545F4449 
 3369      475F5F20 
 3370 14a0 01       		.byte	0x1
 3371 14a1 00       		.uleb128 0
 3372 14a2 5F5F4445 		.ascii "__DEC128_MIN_EXP__ (-6142)\0"
 3372      43313238 
 3372      5F4D494E 
 3372      5F455850 
 3372      5F5F2028 
 3373 14bd 01       		.byte	0x1
 3374 14be 00       		.uleb128 0
 3375 14bf 5F5F4445 		.ascii "__DEC128_MAX_EXP__ 6145\0"
 3375      43313238 
 3375      5F4D4158 
 3375      5F455850 
 3375      5F5F2036 
 3376 14d7 01       		.byte	0x1
 3377 14d8 00       		.uleb128 0
 3378 14d9 5F5F4445 		.ascii "__DEC128_MIN__ 1E-6143DL\0"
 3378      43313238 
 3378      5F4D494E 
 3378      5F5F2031 
 3378      452D3631 
 3379 14f2 01       		.byte	0x1
 3380 14f3 00       		.uleb128 0
 3381 14f4 5F5F4445 		.ascii "__DEC128_MAX__ 9.999999999999999999999999999999999E6144DL\0"
 3381      43313238 
 3381      5F4D4158 
 3381      5F5F2039 
 3381      2E393939 
 3382 152e 01       		.byte	0x1
GAS LISTING C:\Users\PRESID~1\AppData\Local\Temp\ccljw3FC.s 			page 96


 3383 152f 00       		.uleb128 0
 3384 1530 5F5F4445 		.ascii "__DEC128_EPSILON__ 1E-33DL\0"
 3384      43313238 
 3384      5F455053 
 3384      494C4F4E 
 3384      5F5F2031 
 3385 154b 01       		.byte	0x1
 3386 154c 00       		.uleb128 0
 3387 154d 5F5F4445 		.ascii "__DEC128_SUBNORMAL_MIN__ 0.000000000000000000000000000000001E-6143DL\0"
 3387      43313238 
 3387      5F535542 
 3387      4E4F524D 
 3387      414C5F4D 
 3388 1592 01       		.byte	0x1
 3389 1593 00       		.uleb128 0
 3390 1594 5F5F5245 		.ascii "__REGISTER_PREFIX__ \0"
 3390      47495354 
 3390      45525F50 
 3390      52454649 
 3390      585F5F20 
 3391 15a9 01       		.byte	0x1
 3392 15aa 00       		.uleb128 0
 3393 15ab 5F5F5553 		.ascii "__USER_LABEL_PREFIX__ _\0"
 3393      45525F4C 
 3393      4142454C 
 3393      5F505245 
 3393      4649585F 
 3394 15c3 01       		.byte	0x1
 3395 15c4 00       		.uleb128 0
 3396 15c5 5F5F474E 		.ascii "__GNUC_GNU_INLINE__ 1\0"
 3396      55435F47 
 3396      4E555F49 
 3396      4E4C494E 
 3396      455F5F20 
 3397 15db 01       		.byte	0x1
 3398 15dc 00       		.uleb128 0
 3399 15dd 5F5F4E4F 		.ascii "__NO_INLINE__ 1\0"
 3399      5F494E4C 
 3399      494E455F 
 3399      5F203100 
 3400 15ed 01       		.byte	0x1
 3401 15ee 00       		.uleb128 0
 3402 15ef 5F5F5354 		.ascii "__STRICT_ANSI__ 1\0"
 3402      52494354 
 3402      5F414E53 
 3402      495F5F20 
 3402      3100
 3403 1601 01       		.byte	0x1
 3404 1602 00       		.uleb128 0
 3405 1603 5F5F4743 		.ascii "__GCC_ATOMIC_BOOL_LOCK_FREE 1\0"
 3405      435F4154 
 3405      4F4D4943 
 3405      5F424F4F 
 3405      4C5F4C4F 
 3406 1621 01       		.byte	0x1
 3407 1622 00       		.uleb128 0
 3408 1623 5F5F4743 		.ascii "__GCC_ATOMIC_CHAR_LOCK_FREE 1\0"
GAS LISTING C:\Users\PRESID~1\AppData\Local\Temp\ccljw3FC.s 			page 97


 3408      435F4154 
 3408      4F4D4943 
 3408      5F434841 
 3408      525F4C4F 
 3409 1641 01       		.byte	0x1
 3410 1642 00       		.uleb128 0
 3411 1643 5F5F4743 		.ascii "__GCC_ATOMIC_CHAR16_T_LOCK_FREE 1\0"
 3411      435F4154 
 3411      4F4D4943 
 3411      5F434841 
 3411      5231365F 
 3412 1665 01       		.byte	0x1
 3413 1666 00       		.uleb128 0
 3414 1667 5F5F4743 		.ascii "__GCC_ATOMIC_CHAR32_T_LOCK_FREE 1\0"
 3414      435F4154 
 3414      4F4D4943 
 3414      5F434841 
 3414      5233325F 
 3415 1689 01       		.byte	0x1
 3416 168a 00       		.uleb128 0
 3417 168b 5F5F4743 		.ascii "__GCC_ATOMIC_WCHAR_T_LOCK_FREE 1\0"
 3417      435F4154 
 3417      4F4D4943 
 3417      5F574348 
 3417      41525F54 
 3418 16ac 01       		.byte	0x1
 3419 16ad 00       		.uleb128 0
 3420 16ae 5F5F4743 		.ascii "__GCC_ATOMIC_SHORT_LOCK_FREE 1\0"
 3420      435F4154 
 3420      4F4D4943 
 3420      5F53484F 
 3420      52545F4C 
 3421 16cd 01       		.byte	0x1
 3422 16ce 00       		.uleb128 0
 3423 16cf 5F5F4743 		.ascii "__GCC_ATOMIC_INT_LOCK_FREE 1\0"
 3423      435F4154 
 3423      4F4D4943 
 3423      5F494E54 
 3423      5F4C4F43 
 3424 16ec 01       		.byte	0x1
 3425 16ed 00       		.uleb128 0
 3426 16ee 5F5F4743 		.ascii "__GCC_ATOMIC_LONG_LOCK_FREE 1\0"
 3426      435F4154 
 3426      4F4D4943 
 3426      5F4C4F4E 
 3426      475F4C4F 
 3427 170c 01       		.byte	0x1
 3428 170d 00       		.uleb128 0
 3429 170e 5F5F4743 		.ascii "__GCC_ATOMIC_LLONG_LOCK_FREE 1\0"
 3429      435F4154 
 3429      4F4D4943 
 3429      5F4C4C4F 
 3429      4E475F4C 
 3430 172d 01       		.byte	0x1
 3431 172e 00       		.uleb128 0
 3432 172f 5F5F4743 		.ascii "__GCC_ATOMIC_TEST_AND_SET_TRUEVAL 1\0"
 3432      435F4154 
GAS LISTING C:\Users\PRESID~1\AppData\Local\Temp\ccljw3FC.s 			page 98


 3432      4F4D4943 
 3432      5F544553 
 3432      545F414E 
 3433 1753 01       		.byte	0x1
 3434 1754 00       		.uleb128 0
 3435 1755 5F5F4743 		.ascii "__GCC_ATOMIC_POINTER_LOCK_FREE 1\0"
 3435      435F4154 
 3435      4F4D4943 
 3435      5F504F49 
 3435      4E544552 
 3436 1776 01       		.byte	0x1
 3437 1777 00       		.uleb128 0
 3438 1778 5F5F4743 		.ascii "__GCC_HAVE_DWARF2_CFI_ASM 1\0"
 3438      435F4841 
 3438      56455F44 
 3438      57415246 
 3438      325F4346 
 3439 1794 01       		.byte	0x1
 3440 1795 00       		.uleb128 0
 3441 1796 5F5F5052 		.ascii "__PRAGMA_REDEFINE_EXTNAME 1\0"
 3441      41474D41 
 3441      5F524544 
 3441      4546494E 
 3441      455F4558 
 3442 17b2 01       		.byte	0x1
 3443 17b3 00       		.uleb128 0
 3444 17b4 5F5F5349 		.ascii "__SIZEOF_WCHAR_T__ 2\0"
 3444      5A454F46 
 3444      5F574348 
 3444      41525F54 
 3444      5F5F2032 
 3445 17c9 01       		.byte	0x1
 3446 17ca 00       		.uleb128 0
 3447 17cb 5F5F5349 		.ascii "__SIZEOF_WINT_T__ 2\0"
 3447      5A454F46 
 3447      5F57494E 
 3447      545F545F 
 3447      5F203200 
 3448 17df 01       		.byte	0x1
 3449 17e0 00       		.uleb128 0
 3450 17e1 5F5F5349 		.ascii "__SIZEOF_PTRDIFF_T__ 4\0"
 3450      5A454F46 
 3450      5F505452 
 3450      44494646 
 3450      5F545F5F 
 3451 17f8 01       		.byte	0x1
 3452 17f9 00       		.uleb128 0
 3453 17fa 5F5F6933 		.ascii "__i386 1\0"
 3453      38362031 
 3453      00
 3454 1803 01       		.byte	0x1
 3455 1804 00       		.uleb128 0
 3456 1805 5F5F6933 		.ascii "__i386__ 1\0"
 3456      38365F5F 
 3456      203100
 3457 1810 01       		.byte	0x1
 3458 1811 00       		.uleb128 0
GAS LISTING C:\Users\PRESID~1\AppData\Local\Temp\ccljw3FC.s 			page 99


 3459 1812 5F5F4154 		.ascii "__ATOMIC_HLE_ACQUIRE 65536\0"
 3459      4F4D4943 
 3459      5F484C45 
 3459      5F414351 
 3459      55495245 
 3460 182d 01       		.byte	0x1
 3461 182e 00       		.uleb128 0
 3462 182f 5F5F4154 		.ascii "__ATOMIC_HLE_RELEASE 131072\0"
 3462      4F4D4943 
 3462      5F484C45 
 3462      5F52454C 
 3462      45415345 
 3463 184b 01       		.byte	0x1
 3464 184c 00       		.uleb128 0
 3465 184d 5F5F7475 		.ascii "__tune_i386__ 1\0"
 3465      6E655F69 
 3465      3338365F 
 3465      5F203100 
 3466 185d 01       		.byte	0x1
 3467 185e 00       		.uleb128 0
 3468 185f 5F5F636F 		.ascii "__code_model_32__ 1\0"
 3468      64655F6D 
 3468      6F64656C 
 3468      5F33325F 
 3468      5F203100 
 3469 1873 01       		.byte	0x1
 3470 1874 00       		.uleb128 0
 3471 1875 5F583836 		.ascii "_X86_ 1\0"
 3471      5F203100 
 3472 187d 01       		.byte	0x1
 3473 187e 00       		.uleb128 0
 3474 187f 5F5F7374 		.ascii "__stdcall __attribute__((__stdcall__))\0"
 3474      6463616C 
 3474      6C205F5F 
 3474      61747472 
 3474      69627574 
 3475 18a6 01       		.byte	0x1
 3476 18a7 00       		.uleb128 0
 3477 18a8 5F5F6661 		.ascii "__fastcall __attribute__((__fastcall__))\0"
 3477      73746361 
 3477      6C6C205F 
 3477      5F617474 
 3477      72696275 
 3478 18d1 01       		.byte	0x1
 3479 18d2 00       		.uleb128 0
 3480 18d3 5F5F7468 		.ascii "__thiscall __attribute__((__thiscall__))\0"
 3480      69736361 
 3480      6C6C205F 
 3480      5F617474 
 3480      72696275 
 3481 18fc 01       		.byte	0x1
 3482 18fd 00       		.uleb128 0
 3483 18fe 5F5F6364 		.ascii "__cdecl __attribute__((__cdecl__))\0"
 3483      65636C20 
 3483      5F5F6174 
 3483      74726962 
 3483      7574655F 
GAS LISTING C:\Users\PRESID~1\AppData\Local\Temp\ccljw3FC.s 			page 100


 3484 1921 01       		.byte	0x1
 3485 1922 00       		.uleb128 0
 3486 1923 5F5F4758 		.ascii "__GXX_MERGED_TYPEINFO_NAMES 0\0"
 3486      585F4D45 
 3486      52474544 
 3486      5F545950 
 3486      45494E46 
 3487 1941 01       		.byte	0x1
 3488 1942 00       		.uleb128 0
 3489 1943 5F5F4758 		.ascii "__GXX_TYPEINFO_EQUALITY_INLINE 0\0"
 3489      585F5459 
 3489      5045494E 
 3489      464F5F45 
 3489      5155414C 
 3490 1964 01       		.byte	0x1
 3491 1965 00       		.uleb128 0
 3492 1966 5F5F4D53 		.ascii "__MSVCRT__ 1\0"
 3492      56435254 
 3492      5F5F2031 
 3492      00
 3493 1973 01       		.byte	0x1
 3494 1974 00       		.uleb128 0
 3495 1975 5F5F4D49 		.ascii "__MINGW32__ 1\0"
 3495      4E475733 
 3495      325F5F20 
 3495      3100
 3496 1983 01       		.byte	0x1
 3497 1984 00       		.uleb128 0
 3498 1985 5F57494E 		.ascii "_WIN32 1\0"
 3498      33322031 
 3498      00
 3499 198e 01       		.byte	0x1
 3500 198f 00       		.uleb128 0
 3501 1990 5F5F5749 		.ascii "__WIN32 1\0"
 3501      4E333220 
 3501      3100
 3502 199a 01       		.byte	0x1
 3503 199b 00       		.uleb128 0
 3504 199c 5F5F5749 		.ascii "__WIN32__ 1\0"
 3504      4E33325F 
 3504      5F203100 
 3505 19a8 01       		.byte	0x1
 3506 19a9 00       		.uleb128 0
 3507 19aa 5F5F5749 		.ascii "__WINNT 1\0"
 3507      4E4E5420 
 3507      3100
 3508 19b4 01       		.byte	0x1
 3509 19b5 00       		.uleb128 0
 3510 19b6 5F5F5749 		.ascii "__WINNT__ 1\0"
 3510      4E4E545F 
 3510      5F203100 
 3511 19c2 01       		.byte	0x1
 3512 19c3 00       		.uleb128 0
 3513 19c4 5F494E54 		.ascii "_INTEGRAL_MAX_BITS 64\0"
 3513      45475241 
 3513      4C5F4D41 
 3513      585F4249 
GAS LISTING C:\Users\PRESID~1\AppData\Local\Temp\ccljw3FC.s 			page 101


 3513      54532036 
 3514 19da 01       		.byte	0x1
 3515 19db 00       		.uleb128 0
 3516 19dc 5F5F6465 		.ascii "__declspec(x) __attribute__((x))\0"
 3516      636C7370 
 3516      65632878 
 3516      29205F5F 
 3516      61747472 
 3517 19fd 01       		.byte	0x1
 3518 19fe 00       		.uleb128 0
 3519 19ff 5F5F4445 		.ascii "__DECIMAL_BID_FORMAT__ 1\0"
 3519      43494D41 
 3519      4C5F4249 
 3519      445F464F 
 3519      524D4154 
 3520 1a18 01       		.byte	0x1
 3521 1a19 00       		.uleb128 0
 3522 1a1a 4346475F 		.ascii "CFG_PROCESSOR 3\0"
 3522      50524F43 
 3522      4553534F 
 3522      52203300 
 3523 1a2a 03       		.byte	0x3
 3524 1a2b 00       		.uleb128 0
 3525 1a2c 01       		.uleb128 0x1
 3526              		.file 8 "E:/NeuOrga/Programmieren/c_cpp/github_os/input/src/os_base/os_firstinc.h"
 3527 1a2d 03       		.byte	0x3
 3528 1a2e 01       		.uleb128 0x1
 3529 1a2f 08       		.uleb128 0x8
 3530 1a30 01       		.byte	0x1
 3531 1a31 02       		.uleb128 0x2
 3532 1a32 5F6F735F 		.ascii "_os_firstinc_h_ \0"
 3532      66697273 
 3532      74696E63 
 3532      5F685F20 
 3532      00
 3533 1a43 03       		.byte	0x3
 3534 1a44 04       		.uleb128 0x4
 3535 1a45 02       		.uleb128 0x2
 3536 1a46 01       		.byte	0x1
 3537 1a47 02       		.uleb128 0x2
 3538 1a48 5F424153 		.ascii "_BASE_TYPES_H_ \0"
 3538      455F5459 
 3538      5045535F 
 3538      485F2000 
 3539 1a58 01       		.byte	0x1
 3540 1a59 04       		.uleb128 0x4
 3541 1a5a 494E5445 		.ascii "INTEGER_LLP64_IL32P64 1\0"
 3541      4745525F 
 3541      4C4C5036 
 3541      345F494C 
 3541      33325036 
 3542 1a72 01       		.byte	0x1
 3543 1a73 05       		.uleb128 0x5
 3544 1a74 494E5445 		.ascii "INTEGER_LP64_I32LP64 2\0"
 3544      4745525F 
 3544      4C503634 
 3544      5F493332 
GAS LISTING C:\Users\PRESID~1\AppData\Local\Temp\ccljw3FC.s 			page 102


 3544      4C503634 
 3545 1a8b 01       		.byte	0x1
 3546 1a8c 06       		.uleb128 0x6
 3547 1a8d 494E5445 		.ascii "INTEGER_ILP64 3\0"
 3547      4745525F 
 3547      494C5036 
 3547      34203300 
 3548 1a9d 01       		.byte	0x1
 3549 1a9e 07       		.uleb128 0x7
 3550 1a9f 494E5445 		.ascii "INTEGER_SILP64 4\0"
 3550      4745525F 
 3550      53494C50 
 3550      36342034 
 3550      00
 3551 1ab0 01       		.byte	0x1
 3552 1ab1 09       		.uleb128 0x9
 3553 1ab2 4350505F 		.ascii "CPP_VERSION_NONE 0\0"
 3553      56455253 
 3553      494F4E5F 
 3553      4E4F4E45 
 3553      203000
 3554 1ac5 01       		.byte	0x1
 3555 1ac6 0A       		.uleb128 0xa
 3556 1ac7 4350505F 		.ascii "CPP_VERSION_1998 1\0"
 3556      56455253 
 3556      494F4E5F 
 3556      31393938 
 3556      203100
 3557 1ada 01       		.byte	0x1
 3558 1adb 0B       		.uleb128 0xb
 3559 1adc 4350505F 		.ascii "CPP_VERSION_2003 2\0"
 3559      56455253 
 3559      494F4E5F 
 3559      32303033 
 3559      203200
 3560 1aef 01       		.byte	0x1
 3561 1af0 0C       		.uleb128 0xc
 3562 1af1 4350505F 		.ascii "CPP_VERSION_2007 3\0"
 3562      56455253 
 3562      494F4E5F 
 3562      32303037 
 3562      203300
 3563 1b04 01       		.byte	0x1
 3564 1b05 0D       		.uleb128 0xd
 3565 1b06 4350505F 		.ascii "CPP_VERSION_2011 4\0"
 3565      56455253 
 3565      494F4E5F 
 3565      32303131 
 3565      203400
 3566 1b19 01       		.byte	0x1
 3567 1b1a 0E       		.uleb128 0xe
 3568 1b1b 49534F5F 		.ascii "ISO_CPP_VERSION CPP_VERSION_1998\0"
 3568      4350505F 
 3568      56455253 
 3568      494F4E20 
 3568      4350505F 
 3569 1b3c 01       		.byte	0x1
GAS LISTING C:\Users\PRESID~1\AppData\Local\Temp\ccljw3FC.s 			page 103


 3570 1b3d 10       		.uleb128 0x10
 3571 1b3e 494E5445 		.ascii "INTEGER_MODEL INTEGER_LLP64_IL32P64\0"
 3571      4745525F 
 3571      4D4F4445 
 3571      4C20494E 
 3571      54454745 
 3572 1b62 04       		.byte	0x4
 3573 1b63 03       		.byte	0x3
 3574 1b64 05       		.uleb128 0x5
 3575 1b65 03       		.uleb128 0x3
 3576 1b66 01       		.byte	0x1
 3577 1b67 02       		.uleb128 0x2
 3578 1b68 5F6F735F 		.ascii "_os_common_h_ \0"
 3578      636F6D6D 
 3578      6F6E5F68 
 3578      5F2000
 3579 1b77 01       		.byte	0x1
 3580 1b78 06       		.uleb128 0x6
 3581 1b79 46616C73 		.ascii "False 0\0"
 3581      65203000 
 3582 1b81 01       		.byte	0x1
 3583 1b82 07       		.uleb128 0x7
 3584 1b83 54727565 		.ascii "True 1\0"
 3584      203100
 3585 1b8a 01       		.byte	0x1
 3586 1b8b 08       		.uleb128 0x8
 3587 1b8c 46414C53 		.ascii "FALSE False\0"
 3587      45204661 
 3587      6C736500 
 3588 1b98 01       		.byte	0x1
 3589 1b99 09       		.uleb128 0x9
 3590 1b9a 54525545 		.ascii "TRUE True\0"
 3590      20547275 
 3590      6500
 3591 1ba4 01       		.byte	0x1
 3592 1ba5 0A       		.uleb128 0xa
 3593 1ba6 41636365 		.ascii "Accepted 1\0"
 3593      70746564 
 3593      203100
 3594 1bb1 01       		.byte	0x1
 3595 1bb2 0B       		.uleb128 0xb
 3596 1bb3 52656A65 		.ascii "Rejected 0\0"
 3596      63746564 
 3596      203000
 3597 1bbe 01       		.byte	0x1
 3598 1bbf 0C       		.uleb128 0xc
 3599 1bc0 4C6F6361 		.ascii "Local static\0"
 3599      6C207374 
 3599      61746963 
 3599      00
 3600 1bcd 01       		.byte	0x1
 3601 1bce 0D       		.uleb128 0xd
 3602 1bcf 4C6F6361 		.ascii "Local_inline static __inline__\0"
 3602      6C5F696E 
 3602      6C696E65 
 3602      20737461 
 3602      74696320 
GAS LISTING C:\Users\PRESID~1\AppData\Local\Temp\ccljw3FC.s 			page 104


 3603 1bee 01       		.byte	0x1
 3604 1bef 0E       		.uleb128 0xe
 3605 1bf0 476C6F62 		.ascii "Global_inline __inline__\0"
 3605      616C5F69 
 3605      6E6C696E 
 3605      65205F5F 
 3605      696E6C69 
 3606 1c09 01       		.byte	0x1
 3607 1c0a 0F       		.uleb128 0xf
 3608 1c0b 52656665 		.ascii "ReferenceUnusedParameter(x) ((x) = (x))\0"
 3608      72656E63 
 3608      65556E75 
 3608      73656450 
 3608      6172616D 
 3609 1c33 01       		.byte	0x1
 3610 1c34 10       		.uleb128 0x10
 3611 1c35 44796E61 		.ascii "DynamicMemoryUsed False\0"
 3611      6D69634D 
 3611      656D6F72 
 3611      79557365 
 3611      64204661 
 3612 1c4d 01       		.byte	0x1
 3613 1c4e 13       		.uleb128 0x13
 3614 1c4f 634D4355 		.ascii "cMCU_X86 3\0"
 3614      5F583836 
 3614      203300
 3615 1c5a 01       		.byte	0x1
 3616 1c5b 14       		.uleb128 0x14
 3617 1c5c 634D4355 		.ascii "cMCU_CORTEX_M4 4\0"
 3617      5F434F52 
 3617      5445585F 
 3617      4D342034 
 3617      00
 3618 1c6d 01       		.byte	0x1
 3619 1c6e 17       		.uleb128 0x17
 3620 1c6f 4E525F4F 		.ascii "NR_OF_CORES 1\0"
 3620      465F434F 
 3620      52455320 
 3620      3100
 3621 1c7d 01       		.byte	0x1
 3622 1c7e 19       		.uleb128 0x19
 3623 1c7f 4D43555F 		.ascii "MCU_CLOCK_IN_HZ ((uint32)168000000u)\0"
 3623      434C4F43 
 3623      4B5F494E 
 3623      5F485A20 
 3623      28287569 
 3624 1ca4 01       		.byte	0x1
 3625 1ca5 1D       		.uleb128 0x1d
 3626 1ca6 44697361 		.ascii "DisableInterrupts() \0"
 3626      626C6549 
 3626      6E746572 
 3626      72757074 
 3626      73282920 
 3627 1cbb 01       		.byte	0x1
 3628 1cbc 1E       		.uleb128 0x1e
 3629 1cbd 456E6162 		.ascii "EnableInterrupts() \0"
 3629      6C65496E 
GAS LISTING C:\Users\PRESID~1\AppData\Local\Temp\ccljw3FC.s 			page 105


 3629      74657272 
 3629      75707473 
 3629      28292000 
 3630 1cd1 01       		.byte	0x1
 3631 1cd2 1F       		.uleb128 0x1f
 3632 1cd3 50726976 		.ascii "Privilige_level_save_current() \0"
 3632      696C6967 
 3632      655F6C65 
 3632      76656C5F 
 3632      73617665 
 3633 1cf3 01       		.byte	0x1
 3634 1cf4 20       		.uleb128 0x20
 3635 1cf5 50726976 		.ascii "Privilige_level_enter_kernel_mode() \0"
 3635      696C6967 
 3635      655F6C65 
 3635      76656C5F 
 3635      656E7465 
 3636 1d1a 01       		.byte	0x1
 3637 1d1b 21       		.uleb128 0x21
 3638 1d1c 50726976 		.ascii "Privilige_level_restore_saved() \0"
 3638      696C6967 
 3638      655F6C65 
 3638      76656C5F 
 3638      72657374 
 3639 1d3d 01       		.byte	0x1
 3640 1d3e 22       		.uleb128 0x22
 3641 1d3f 48616C74 		.ascii "HaltMcu() \0"
 3641      4D637528 
 3641      292000
 3642 1d4a 01       		.byte	0x1
 3643 1d4b 5A       		.uleb128 0x5a
 3644 1d4c 42696749 		.ascii "BigIntSize 16\0"
 3644      6E745369 
 3644      7A652031 
 3644      3600
 3645 1d5a 04       		.byte	0x4
 3646              		.file 9 "E:/NeuOrga/Programmieren/c_cpp/github_os/input/src/os_base/../os_sim/lld_global.h"
 3647 1d5b 03       		.byte	0x3
 3648 1d5c 08       		.uleb128 0x8
 3649 1d5d 09       		.uleb128 0x9
 3650 1d5e 01       		.byte	0x1
 3651 1d5f 02       		.uleb128 0x2
 3652 1d60 5F6C6C64 		.ascii "_lld_global_h_ \0"
 3652      5F676C6F 
 3652      62616C5F 
 3652      685F2000 
 3653 1d70 03       		.byte	0x3
 3654 1d71 04       		.uleb128 0x4
 3655 1d72 04       		.uleb128 0x4
 3656 1d73 01       		.byte	0x1
 3657 1d74 02       		.uleb128 0x2
 3658 1d75 5F6C6C64 		.ascii "_lld_core_h_ \0"
 3658      5F636F72 
 3658      655F685F 
 3658      2000
 3659              		.file 10 "E:/NeuOrga/Programmieren/c_cpp/github_os/input/src/os_base/../os_sim/../os_base/os_first
 3660 1d83 03       		.byte	0x3
GAS LISTING C:\Users\PRESID~1\AppData\Local\Temp\ccljw3FC.s 			page 106


 3661 1d84 03       		.uleb128 0x3
 3662 1d85 0A       		.uleb128 0xa
 3663 1d86 04       		.byte	0x4
 3664 1d87 04       		.byte	0x4
 3665              		.file 11 "E:/NeuOrga/Programmieren/c_cpp/github_os/input/src/os_base/../os_sim/lld_interrupt.h"
 3666 1d88 03       		.byte	0x3
 3667 1d89 05       		.uleb128 0x5
 3668 1d8a 0B       		.uleb128 0xb
 3669 1d8b 01       		.byte	0x1
 3670 1d8c 02       		.uleb128 0x2
 3671 1d8d 5F6C6C64 		.ascii "_lld_interrupt_h_ \0"
 3671      5F696E74 
 3671      65727275 
 3671      70745F68 
 3671      5F2000
 3672 1da0 01       		.byte	0x1
 3673 1da1 05       		.uleb128 0x5
 3674 1da2 6F735F69 		.ascii "os_interrupt_swi_1 asm(\"swi 1\")\0"
 3674      6E746572 
 3674      72757074 
 3674      5F737769 
 3674      5F312061 
 3675 1dc2 01       		.byte	0x1
 3676 1dc3 06       		.uleb128 0x6
 3677 1dc4 6F735F69 		.ascii "os_interrupt_swi_2 asm(\"swi 2\")\0"
 3677      6E746572 
 3677      72757074 
 3677      5F737769 
 3677      5F322061 
 3678 1de4 01       		.byte	0x1
 3679 1de5 07       		.uleb128 0x7
 3680 1de6 6F735F69 		.ascii "os_interrupt_swi_3 asm(\"swi 3\")\0"
 3680      6E746572 
 3680      72757074 
 3680      5F737769 
 3680      5F332061 
 3681 1e06 01       		.byte	0x1
 3682 1e07 08       		.uleb128 0x8
 3683 1e08 6F735F69 		.ascii "os_interrupt_swi_4 asm(\"swi 4\")\0"
 3683      6E746572 
 3683      72757074 
 3683      5F737769 
 3683      5F342061 
 3684 1e28 01       		.byte	0x1
 3685 1e29 09       		.uleb128 0x9
 3686 1e2a 6F735F69 		.ascii "os_interrupt_swi_5 asm(\"swi 5\")\0"
 3686      6E746572 
 3686      72757074 
 3686      5F737769 
 3686      5F352061 
 3687 1e4a 04       		.byte	0x4
 3688              		.file 12 "E:/NeuOrga/Programmieren/c_cpp/github_os/input/src/os_base/../os_sim/lld_mmu.h"
 3689 1e4b 03       		.byte	0x3
 3690 1e4c 06       		.uleb128 0x6
 3691 1e4d 0C       		.uleb128 0xc
 3692 1e4e 01       		.byte	0x1
 3693 1e4f 02       		.uleb128 0x2
GAS LISTING C:\Users\PRESID~1\AppData\Local\Temp\ccljw3FC.s 			page 107


 3694 1e50 5F6C6C64 		.ascii "_lld_mmu_h_ \0"
 3694      5F6D6D75 
 3694      5F685F20 
 3694      00
 3695 1e5d 04       		.byte	0x4
 3696              		.file 13 "E:/NeuOrga/Programmieren/c_cpp/github_os/input/src/os_base/../os_sim/lld_timer.h"
 3697 1e5e 03       		.byte	0x3
 3698 1e5f 07       		.uleb128 0x7
 3699 1e60 0D       		.uleb128 0xd
 3700 1e61 01       		.byte	0x1
 3701 1e62 02       		.uleb128 0x2
 3702 1e63 5F6C6C64 		.ascii "_lld_timer_h_ \0"
 3702      5F74696D 
 3702      65725F68 
 3702      5F2000
 3703 1e72 04       		.byte	0x4
 3704              		.file 14 "E:/NeuOrga/Programmieren/c_cpp/github_os/input/src/os_base/../os_sim/lld_power.h"
 3705 1e73 03       		.byte	0x3
 3706 1e74 08       		.uleb128 0x8
 3707 1e75 0E       		.uleb128 0xe
 3708 1e76 01       		.byte	0x1
 3709 1e77 02       		.uleb128 0x2
 3710 1e78 5F6C6C64 		.ascii "_lld_power_h_ \0"
 3710      5F706F77 
 3710      65725F68 
 3710      5F2000
 3711 1e87 04       		.byte	0x4
 3712              		.file 15 "E:/NeuOrga/Programmieren/c_cpp/github_os/input/src/os_base/../os_sim/lld_ram.h"
 3713 1e88 03       		.byte	0x3
 3714 1e89 09       		.uleb128 0x9
 3715 1e8a 0F       		.uleb128 0xf
 3716 1e8b 01       		.byte	0x1
 3717 1e8c 02       		.uleb128 0x2
 3718 1e8d 5F6C6C64 		.ascii "_lld_ram_h_ \0"
 3718      5F72616D 
 3718      5F685F20 
 3718      00
 3719 1e9a 04       		.byte	0x4
 3720 1e9b 03       		.byte	0x3
 3721 1e9c 0A       		.uleb128 0xa
 3722 1e9d 05       		.uleb128 0x5
 3723 1e9e 01       		.byte	0x1
 3724 1e9f 02       		.uleb128 0x2
 3725 1ea0 5F6F735F 		.ascii "_os_task_common_h_ \0"
 3725      7461736B 
 3725      5F636F6D 
 3725      6D6F6E5F 
 3725      685F2000 
 3726 1eb4 03       		.byte	0x3
 3727 1eb5 03       		.uleb128 0x3
 3728 1eb6 0A       		.uleb128 0xa
 3729 1eb7 04       		.byte	0x4
 3730              		.file 16 "E:/NeuOrga/Programmieren/c_cpp/github_os/input/src/os_base/../os_sim/../os_base/os_task_
 3731 1eb8 03       		.byte	0x3
 3732 1eb9 04       		.uleb128 0x4
 3733 1eba 10       		.uleb128 0x10
 3734 1ebb 01       		.byte	0x1
GAS LISTING C:\Users\PRESID~1\AppData\Local\Temp\ccljw3FC.s 			page 108


 3735 1ebc 02       		.uleb128 0x2
 3736 1ebd 5F6F735F 		.ascii "_os_task_config_h_ \0"
 3736      7461736B 
 3736      5F636F6E 
 3736      6669675F 
 3736      685F2000 
 3737 1ed1 01       		.byte	0x1
 3738 1ed2 05       		.uleb128 0x5
 3739 1ed3 53636865 		.ascii "SchedulerFrequency (1.0e3)\0"
 3739      64756C65 
 3739      72467265 
 3739      7175656E 
 3739      63792028 
 3740 1eee 01       		.byte	0x1
 3741 1eef 06       		.uleb128 0x6
 3742 1ef0 4D696E54 		.ascii "MinTimeSlice_s (1.0/SchedulerFrequency)\0"
 3742      696D6553 
 3742      6C696365 
 3742      5F732028 
 3742      312E302F 
 3743 1f18 01       		.byte	0x1
 3744 1f19 07       		.uleb128 0x7
 3745 1f1a 4D696E54 		.ascii "MinTimeSlice_us ((1.0/SchedulerFrequency)*1e6)\0"
 3745      696D6553 
 3745      6C696365 
 3745      5F757320 
 3745      2828312E 
 3746 1f49 01       		.byte	0x1
 3747 1f4a 08       		.uleb128 0x8
 3748 1f4b 5461736B 		.ascii "Task_min_time (1e0)\0"
 3748      5F6D696E 
 3748      5F74696D 
 3748      65202831 
 3748      65302900 
 3749 1f5f 01       		.byte	0x1
 3750 1f60 09       		.uleb128 0x9
 3751 1f61 4E554D42 		.ascii "NUMBER_OF_TASKS 10\0"
 3751      45525F4F 
 3751      465F5441 
 3751      534B5320 
 3751      313000
 3752 1f74 01       		.byte	0x1
 3753 1f75 0A       		.uleb128 0xa
 3754 1f76 4D41585F 		.ascii "MAX_RUN_QUEUE_SIZE (NUMBER_OF_TASKS)\0"
 3754      52554E5F 
 3754      51554555 
 3754      455F5349 
 3754      5A452028 
 3755 1f9b 01       		.byte	0x1
 3756 1f9c 0B       		.uleb128 0xb
 3757 1f9d 4D41585F 		.ascii "MAX_RUN_PQUEUE_SIZE MAX_RUN_QUEUE_SIZE\0"
 3757      52554E5F 
 3757      50515545 
 3757      55455F53 
 3757      495A4520 
 3758 1fc4 01       		.byte	0x1
 3759 1fc5 0D       		.uleb128 0xd
GAS LISTING C:\Users\PRESID~1\AppData\Local\Temp\ccljw3FC.s 			page 109


 3760 1fc6 5441534B 		.ascii "TASK_STACK_SIZE 2000\0"
 3760      5F535441 
 3760      434B5F53 
 3760      495A4520 
 3760      32303030 
 3761 1fdb 01       		.byte	0x1
 3762 1fdc 10       		.uleb128 0x10
 3763 1fdd 4D535F50 		.ascii "MS_PER_SEC (1000)\0"
 3763      45525F53 
 3763      45432028 
 3763      31303030 
 3763      2900
 3764 1fef 01       		.byte	0x1
 3765 1ff0 11       		.uleb128 0x11
 3766 1ff1 5553455F 		.ascii "USE_STATIC_CREATED_TASKS True\0"
 3766      53544154 
 3766      49435F43 
 3766      52454154 
 3766      45445F54 
 3767 200f 04       		.byte	0x4
 3768              		.file 17 "E:/NeuOrga/Programmieren/c_cpp/github_os/input/src/os_base/../os_sim/../os_base/os_init_
 3769 2010 03       		.byte	0x3
 3770 2011 05       		.uleb128 0x5
 3771 2012 11       		.uleb128 0x11
 3772 2013 01       		.byte	0x1
 3773 2014 02       		.uleb128 0x2
 3774 2015 5F6F735F 		.ascii "_os_init_task_system_h_ \0"
 3774      696E6974 
 3774      5F746173 
 3774      6B5F7379 
 3774      7374656D 
 3775 202e 04       		.byte	0x4
 3776 202f 01       		.byte	0x1
 3777 2030 61       		.uleb128 0x61
 3778 2031 6F735F53 		.ascii "os_SaveTaskPtr(task_ptr,task_name) (TASK_PTR[(task_name)] = (task_ptr))\0"
 3778      61766554 
 3778      61736B50 
 3778      74722874 
 3778      61736B5F 
 3779 2079 01       		.byte	0x1
 3780 207a 62       		.uleb128 0x62
 3781 207b 6F735F47 		.ascii "os_GetTaskPtr(task_name) ((task_t*) TASK_PTR[(task_name)])\0"
 3781      65745461 
 3781      736B5074 
 3781      72287461 
 3781      736B5F6E 
 3782 20b6 04       		.byte	0x4
 3783 20b7 04       		.byte	0x4
 3784              		.file 18 "E:/NeuOrga/Programmieren/c_cpp/github_os/input/src/os_base/../os_user_code/led.h"
 3785 20b8 03       		.byte	0x3
 3786 20b9 0C       		.uleb128 0xc
 3787 20ba 12       		.uleb128 0x12
 3788 20bb 01       		.byte	0x1
 3789 20bc 02       		.uleb128 0x2
 3790 20bd 5F4C4544 		.ascii "_LED_H_ \0"
 3790      5F485F20 
 3790      00
GAS LISTING C:\Users\PRESID~1\AppData\Local\Temp\ccljw3FC.s 			page 110


 3791 20c6 04       		.byte	0x4
 3792 20c7 03       		.byte	0x3
 3793 20c8 0E       		.uleb128 0xe
 3794 20c9 06       		.uleb128 0x6
 3795 20ca 01       		.byte	0x1
 3796 20cb 02       		.uleb128 0x2
 3797 20cc 5F4F535F 		.ascii "_OS_RAM_H_ \0"
 3797      52414D5F 
 3797      485F2000 
 3798              		.file 19 "E:/NeuOrga/Programmieren/c_cpp/github_os/input/src/os_base/../os_base/os_firstinc.h"
 3799 20d8 03       		.byte	0x3
 3800 20d9 04       		.uleb128 0x4
 3801 20da 13       		.uleb128 0x13
 3802 20db 04       		.byte	0x4
 3803              		.file 20 "E:/NeuOrga/Programmieren/c_cpp/github_os/input/src/os_base/../os_base/os_stack.h"
 3804 20dc 03       		.byte	0x3
 3805 20dd 05       		.uleb128 0x5
 3806 20de 14       		.uleb128 0x14
 3807 20df 01       		.byte	0x1
 3808 20e0 02       		.uleb128 0x2
 3809 20e1 5F6F735F 		.ascii "_os_stack_h_ \0"
 3809      73746163 
 3809      6B5F685F 
 3809      2000
 3810 20ef 01       		.byte	0x1
 3811 20f0 04       		.uleb128 0x4
 3812 20f1 4F535F53 		.ascii "OS_STACK_SIZE 0x200u\0"
 3812      5441434B 
 3812      5F53495A 
 3812      45203078 
 3812      32303075 
 3813 2106 04       		.byte	0x4
 3814              		.file 21 "E:/NeuOrga/Programmieren/c_cpp/github_os/input/src/os_base/../os_base/os_heap.h"
 3815 2107 03       		.byte	0x3
 3816 2108 06       		.uleb128 0x6
 3817 2109 15       		.uleb128 0x15
 3818 210a 01       		.byte	0x1
 3819 210b 02       		.uleb128 0x2
 3820 210c 5F6F735F 		.ascii "_os_heap_h_ \0"
 3820      68656170 
 3820      5F685F20 
 3820      00
 3821 2119 01       		.byte	0x1
 3822 211a 05       		.uleb128 0x5
 3823 211b 48454150 		.ascii "HEAP_SIZE 10000\0"
 3823      5F53495A 
 3823      45203130 
 3823      30303000 
 3824 212b 01       		.byte	0x1
 3825 212c 06       		.uleb128 0x6
 3826 212d 4D494E5F 		.ascii "MIN_BLOCK_SIZE_HEAP 8\0"
 3826      424C4F43 
 3826      4B5F5349 
 3826      5A455F48 
 3826      45415020 
 3827 2143 01       		.byte	0x1
 3828 2144 09       		.uleb128 0x9
GAS LISTING C:\Users\PRESID~1\AppData\Local\Temp\ccljw3FC.s 			page 111


 3829 2145 48454150 		.ascii "HEAP_OFFSET_FOR_SIZE 0\0"
 3829      5F4F4646 
 3829      5345545F 
 3829      464F525F 
 3829      53495A45 
 3830 215c 01       		.byte	0x1
 3831 215d 0A       		.uleb128 0xa
 3832 215e 48454150 		.ascii "HEAP_OFFSET_FOR_USED_SIZE 4\0"
 3832      5F4F4646 
 3832      5345545F 
 3832      464F525F 
 3832      55534544 
 3833 217a 01       		.byte	0x1
 3834 217b 0B       		.uleb128 0xb
 3835 217c 48454150 		.ascii "HEAP_OFFSET_FOR_CHUNK 8\0"
 3835      5F4F4646 
 3835      5345545F 
 3835      464F525F 
 3835      4348554E 
 3836 2194 04       		.byte	0x4
 3837              		.file 22 "E:/NeuOrga/Programmieren/c_cpp/github_os/input/src/os_base/../os_base/os_main.h"
 3838 2195 03       		.byte	0x3
 3839 2196 07       		.uleb128 0x7
 3840 2197 16       		.uleb128 0x16
 3841 2198 01       		.byte	0x1
 3842 2199 02       		.uleb128 0x2
 3843 219a 5F6F735F 		.ascii "_os_main_h_ \0"
 3843      6D61696E 
 3843      5F685F20 
 3843      00
 3844 21a7 01       		.byte	0x1
 3845 21a8 03       		.uleb128 0x3
 3846 21a9 6F735F69 		.ascii "os_init 0\0"
 3846      6E697420 
 3846      3000
 3847 21b3 01       		.byte	0x1
 3848 21b4 04       		.uleb128 0x4
 3849 21b5 6F735F72 		.ascii "os_running 1\0"
 3849      756E6E69 
 3849      6E672031 
 3849      00
 3850 21c2 01       		.byte	0x1
 3851 21c3 05       		.uleb128 0x5
 3852 21c4 6F735F73 		.ascii "os_shutdown 2\0"
 3852      68757464 
 3852      6F776E20 
 3852      3200
 3853 21d2 04       		.byte	0x4
 3854              		.file 23 "E:/NeuOrga/Programmieren/c_cpp/github_os/input/src/os_base/../os_base/os_task_config.h"
 3855 21d3 03       		.byte	0x3
 3856 21d4 08       		.uleb128 0x8
 3857 21d5 17       		.uleb128 0x17
 3858 21d6 04       		.byte	0x4
 3859              		.file 24 "E:/NeuOrga/Programmieren/c_cpp/github_os/input/src/os_base/../os_base/os_task_common.h"
 3860 21d7 03       		.byte	0x3
 3861 21d8 09       		.uleb128 0x9
 3862 21d9 18       		.uleb128 0x18
GAS LISTING C:\Users\PRESID~1\AppData\Local\Temp\ccljw3FC.s 			page 112


 3863 21da 04       		.byte	0x4
 3864 21db 04       		.byte	0x4
 3865 21dc 03       		.byte	0x3
 3866 21dd 0F       		.uleb128 0xf
 3867 21de 07       		.uleb128 0x7
 3868 21df 01       		.byte	0x1
 3869 21e0 02       		.uleb128 0x2
 3870 21e1 5F4F535F 		.ascii "_OS_RAM_STACK_H_ \0"
 3870      52414D5F 
 3870      53544143 
 3870      4B5F485F 
 3870      2000
 3871 21f3 04       		.byte	0x4
 3872 21f4 04       		.byte	0x4
 3873              		.file 25 "E:/NeuOrga/Programmieren/c_cpp/github_os/input/src/os_base/os_common.h"
 3874 21f5 03       		.byte	0x3
 3875 21f6 02       		.uleb128 0x2
 3876 21f7 19       		.uleb128 0x19
 3877 21f8 04       		.byte	0x4
 3878              		.file 26 "E:/NeuOrga/Programmieren/c_cpp/github_os/input/src/os_base/os_task_common.h"
 3879 21f9 03       		.byte	0x3
 3880 21fa 03       		.uleb128 0x3
 3881 21fb 1A       		.uleb128 0x1a
 3882 21fc 04       		.byte	0x4
 3883              		.file 27 "E:/NeuOrga/Programmieren/c_cpp/github_os/input/src/os_base/os_task_scheduler.h"
 3884 21fd 03       		.byte	0x3
 3885 21fe 04       		.uleb128 0x4
 3886 21ff 1B       		.uleb128 0x1b
 3887 2200 01       		.byte	0x1
 3888 2201 02       		.uleb128 0x2
 3889 2202 5F6F735F 		.ascii "_os_task_scheduler_h_ \0"
 3889      7461736B 
 3889      5F736368 
 3889      6564756C 
 3889      65725F68 
 3890 2219 01       		.byte	0x1
 3891 221a 07       		.uleb128 0x7
 3892 221b 5461736B 		.ascii "Task_0_ptr 0\0"
 3892      5F305F70 
 3892      74722030 
 3892      00
 3893 2228 01       		.byte	0x1
 3894 2229 08       		.uleb128 0x8
 3895 222a 5461736B 		.ascii "Task_1_ptr 1\0"
 3895      5F315F70 
 3895      74722031 
 3895      00
 3896 2237 01       		.byte	0x1
 3897 2238 09       		.uleb128 0x9
 3898 2239 5461736B 		.ascii "Task_2_ptr 2\0"
 3898      5F325F70 
 3898      74722032 
 3898      00
 3899 2246 01       		.byte	0x1
 3900 2247 0A       		.uleb128 0xa
 3901 2248 5461736B 		.ascii "Task_3_ptr 3\0"
 3901      5F335F70 
GAS LISTING C:\Users\PRESID~1\AppData\Local\Temp\ccljw3FC.s 			page 113


 3901      74722033 
 3901      00
 3902 2255 01       		.byte	0x1
 3903 2256 0C       		.uleb128 0xc
 3904 2257 4F535F53 		.ascii "OS_SaveTaskPtr(task_ptr,Task_n_ptr) \0"
 3904      61766554 
 3904      61736B50 
 3904      74722874 
 3904      61736B5F 
 3905 227c 04       		.byte	0x4
 3906              		.file 28 "E:/NeuOrga/Programmieren/c_cpp/github_os/input/src/os_base/os_task_queue.h"
 3907 227d 03       		.byte	0x3
 3908 227e 05       		.uleb128 0x5
 3909 227f 1C       		.uleb128 0x1c
 3910 2280 01       		.byte	0x1
 3911 2281 02       		.uleb128 0x2
 3912 2282 5F6F735F 		.ascii "_os_task_queue_h_ \0"
 3912      7461736B 
 3912      5F717565 
 3912      75655F68 
 3912      5F2000
 3913 2295 01       		.byte	0x1
 3914 2296 06       		.uleb128 0x6
 3915 2297 46697273 		.ascii "First_task (0)\0"
 3915      745F7461 
 3915      736B2028 
 3915      302900
 3916 22a6 01       		.byte	0x1
 3917 22a7 07       		.uleb128 0x7
 3918 22a8 4C617374 		.ascii "Last_task (MAX_RUN_QUEUE_SIZE-1)\0"
 3918      5F746173 
 3918      6B20284D 
 3918      41585F52 
 3918      554E5F51 
 3919 22c9 01       		.byte	0x1
 3920 22ca 09       		.uleb128 0x9
 3921 22cb 466F725F 		.ascii "For_all_tasks_in_queue(var) for((var) = First_task; (var) <= Last_task; (var)++)\0"
 3921      616C6C5F 
 3921      7461736B 
 3921      735F696E 
 3921      5F717565 
 3922 231c 04       		.byte	0x4
 3923              		.file 29 "E:/NeuOrga/Programmieren/c_cpp/github_os/input/src/os_base/os_stack.h"
 3924 231d 03       		.byte	0x3
 3925 231e 06       		.uleb128 0x6
 3926 231f 1D       		.uleb128 0x1d
 3927 2320 04       		.byte	0x4
 3928 2321 01       		.byte	0x1
 3929 2322 1E       		.uleb128 0x1e
 3930 2323 53595354 		.ascii "SYSTICK_CTRL_STAT_REG ((uint32*)0xE000E010)\0"
 3930      49434B5F 
 3930      4354524C 
 3930      5F535441 
 3930      545F5245 
 3931 234f 01       		.byte	0x1
 3932 2350 1F       		.uleb128 0x1f
 3933 2351 53595354 		.ascii "SYSTICK_RLD_VAL_REG ((uint32*)0xE000E014)\0"
GAS LISTING C:\Users\PRESID~1\AppData\Local\Temp\ccljw3FC.s 			page 114


 3933      49434B5F 
 3933      524C445F 
 3933      56414C5F 
 3933      52454720 
 3934 237b 01       		.byte	0x1
 3935 237c 20       		.uleb128 0x20
 3936 237d 53595354 		.ascii "SYSTICK_CURRENT_VAL_REG ((uint32*)0xE000E018)\0"
 3936      49434B5F 
 3936      43555252 
 3936      454E545F 
 3936      56414C5F 
 3937 23ab 01       		.byte	0x1
 3938 23ac 21       		.uleb128 0x21
 3939 23ad 53595354 		.ascii "SYSTICK_STAT_REG_TICKINT ((uint32)0x00000002)\0"
 3939      49434B5F 
 3939      53544154 
 3939      5F524547 
 3939      5F544943 
 3940 23db 01       		.byte	0x1
 3941 23dc 22       		.uleb128 0x22
 3942 23dd 53595354 		.ascii "SYSTICK_STAT_REG_ENABLE ((uint32)0x00000001)\0"
 3942      49434B5F 
 3942      53544154 
 3942      5F524547 
 3942      5F454E41 
 3943 240a 01       		.byte	0x1
 3944 240b 23       		.uleb128 0x23
 3945 240c 4C4F4F50 		.ascii "LOOPTIME_IN_USEC ((uint32)10000u)\0"
 3945      54494D45 
 3945      5F494E5F 
 3945      55534543 
 3945      20282875 
 3946 242e 04       		.byte	0x4
 3947 242f 00       		.byte	0
 3948              		.section	.debug_line,"dr"
 3949              	Ldebug_line0:
 3950 0000 21050000 		.section	.debug_str,"dr"
 3950      02005C03 
 3950      00000101 
 3950      FB0E0D00 
 3950      01010101 
 3951              	LASF4:
 3952 0000 7461736B 		.ascii "task_ptr\0"
 3952      5F707472 
 3952      00
 3953              	LASF0:
 3954 0009 6578655F 		.ascii "exe_time\0"
 3954      74696D65 
 3954      00
 3955              	LASF3:
 3956 0012 73636865 		.ascii "scheduling_task\0"
 3956      64756C69 
 3956      6E675F74 
 3956      61736B00 
 3957              	LASF1:
 3958 0022 7461736B 		.ascii "task\0"
 3958      00
GAS LISTING C:\Users\PRESID~1\AppData\Local\Temp\ccljw3FC.s 			page 115


 3959              	LASF2:
 3960 0027 73636865 		.ascii "scheduling_task_ptr\0"
 3960      64756C69 
 3960      6E675F74 
 3960      61736B5F 
 3960      70747200 
 3961              		.ident	"GCC: (GNU) 4.9.3"
GAS LISTING C:\Users\PRESID~1\AppData\Local\Temp\ccljw3FC.s 			page 116


DEFINED SYMBOLS
                            *ABS*:00000000 os_task_scheduler.c
C:\Users\PRESID~1\AppData\Local\Temp\ccljw3FC.s:6      .text:00000000 _OS_ActivateDispatcher
C:\Users\PRESID~1\AppData\Local\Temp\ccljw3FC.s:25     .text:00000005 _OS_SleepTask
C:\Users\PRESID~1\AppData\Local\Temp\ccljw3FC.s:63     .text:00000046 _task_state_request
C:\Users\PRESID~1\AppData\Local\Temp\ccljw3FC.s:235    .text:00000183 _OS_CreateTask
C:\Users\PRESID~1\AppData\Local\Temp\ccljw3FC.s:287    .text:000001f5 _OS_PreemptTask
C:\Users\PRESID~1\AppData\Local\Temp\ccljw3FC.s:365    .text:000002a0 _OS_ActivateTask
C:\Users\PRESID~1\AppData\Local\Temp\ccljw3FC.s:469    .text:00000387 _OS_StartTask
C:\Users\PRESID~1\AppData\Local\Temp\ccljw3FC.s:587    .text:000004a4 _OS_TerminateTask
C:\Users\PRESID~1\AppData\Local\Temp\ccljw3FC.s:673    .text:00000569 _OS_TaskDispatcher
C:\Users\PRESID~1\AppData\Local\Temp\ccljw3FC.s:737    .text:000005e0 _TASK_0
C:\Users\PRESID~1\AppData\Local\Temp\ccljw3FC.s:754    .text:000005e5 _TASK_1
C:\Users\PRESID~1\AppData\Local\Temp\ccljw3FC.s:787    .text:00000619 _TASK_2
C:\Users\PRESID~1\AppData\Local\Temp\ccljw3FC.s:820    .text:0000064d _TASK_3
C:\Users\PRESID~1\AppData\Local\Temp\ccljw3FC.s:854    .text:00000681 _OS_InitTasks
C:\Users\PRESID~1\AppData\Local\Temp\ccljw3FC.s:955    .text:00000835 _OS_TaskScheduler

UNDEFINED SYMBOLS
_TASK_TRANSITION_REJECTED_TASK_ADDR
_TASK_TRANSITION_REJECTED_STATE
_TASK_TRANSITION_CURRENT_STATE
_OS_MAIN_STACK
_TASK1_CALL_NR
_LAST_CURRENT_TIME
_TASK_0_VAR
_TASK_STACK
_TASK_GROUP_1
_TASK_1_VAR
_TASK_2_VAR
_TASK_GROUP_2
_TASK_3_VAR
_TASK_GROUP_3
_OS_GetCurrentTime
_IntAdd
_OS_SetSwBug
_OS_TaskSaveTaskEnvironment
_OS_TASK_RESTORE_SYSTEM_STACK
_AddToTaskQueue
_AddToSchedulingQueue
_AddToIdleTaskQueue
_AssignNull
_OS_TASK_SAVE_SYSTEM_STACK
_OS_TASK_RESTORETASK_ENVIRONMENT
_Assign
_SET_RUNNING_TASK
_LLF_CHANGE_TO_UNPRIVILIGED_THREAD_MODE
_DeleteFromTaskQueue
_DeleteFromSchedulingQueue
_GetRunningTask
_GetRunningSchedulingQueueElementPtr
_GetFromTaskQueue
_OS_InitTaskQueue
_OS_InitTask
_IntSub
_GetFromSchedulingQueue
_IsGreaterOrEqual
GAS LISTING C:\Users\PRESID~1\AppData\Local\Temp\ccljw3FC.s 			page 117


_IsGreater
_AssignUint32
