GAS LISTING C:\Users\PRESID~1\AppData\Local\Temp\cc9Drh7C.s 			page 1


   1              		.file	"os_task_scheduler.c"
   2              		.text
   3              	Ltext0:
   4              		.globl	_OS_ActivateDispatcher
   6              	_OS_ActivateDispatcher:
   7              	LFB0:
   8              		.file 1 "E:/NeuOrga/Programmieren/c_cpp/github_os/input/src/os_base/os_task_scheduler.c"
   1:E:/NeuOrga/Programmieren/c_cpp/github_os/input/src/os_base\os_task_scheduler.c **** #include "os_firstinc.h"
   2:E:/NeuOrga/Programmieren/c_cpp/github_os/input/src/os_base\os_task_scheduler.c **** #include "os_common.h"
   3:E:/NeuOrga/Programmieren/c_cpp/github_os/input/src/os_base\os_task_scheduler.c **** #include "os_task_common.h"
   4:E:/NeuOrga/Programmieren/c_cpp/github_os/input/src/os_base\os_task_scheduler.c **** #include "os_task_scheduler.h"
   5:E:/NeuOrga/Programmieren/c_cpp/github_os/input/src/os_base\os_task_scheduler.c **** #include "os_task_queue.h"
   6:E:/NeuOrga/Programmieren/c_cpp/github_os/input/src/os_base\os_task_scheduler.c **** #include "os_stack.h"
   7:E:/NeuOrga/Programmieren/c_cpp/github_os/input/src/os_base\os_task_scheduler.c **** 
   8:E:/NeuOrga/Programmieren/c_cpp/github_os/input/src/os_base\os_task_scheduler.c **** /*
   9:E:/NeuOrga/Programmieren/c_cpp/github_os/input/src/os_base\os_task_scheduler.c **** 1. running     --(terminate)--> suspend : delete scheduling element
  10:E:/NeuOrga/Programmieren/c_cpp/github_os/input/src/os_base\os_task_scheduler.c **** 2. running     --(preempt  )--> ready
  11:E:/NeuOrga/Programmieren/c_cpp/github_os/input/src/os_base\os_task_scheduler.c **** 3. suspend     --(activate )--> ready   : create scheduling element
  12:E:/NeuOrga/Programmieren/c_cpp/github_os/input/src/os_base\os_task_scheduler.c **** 4. ready       --(start    )--> running : use scheduling element
  13:E:/NeuOrga/Programmieren/c_cpp/github_os/input/src/os_base\os_task_scheduler.c **** 5. unspecified --(create   )--> suspend
  14:E:/NeuOrga/Programmieren/c_cpp/github_os/input/src/os_base\os_task_scheduler.c **** */
  15:E:/NeuOrga/Programmieren/c_cpp/github_os/input/src/os_base\os_task_scheduler.c **** 
  16:E:/NeuOrga/Programmieren/c_cpp/github_os/input/src/os_base\os_task_scheduler.c **** 
  17:E:/NeuOrga/Programmieren/c_cpp/github_os/input/src/os_base\os_task_scheduler.c **** Local void TASK_0(void* task_ptr);
  18:E:/NeuOrga/Programmieren/c_cpp/github_os/input/src/os_base\os_task_scheduler.c **** Local void TASK_1(void* task_ptr);
  19:E:/NeuOrga/Programmieren/c_cpp/github_os/input/src/os_base\os_task_scheduler.c **** Local void TASK_2(void* task_ptr);
  20:E:/NeuOrga/Programmieren/c_cpp/github_os/input/src/os_base\os_task_scheduler.c **** Local task_t** OS_TaskScheduler();
  21:E:/NeuOrga/Programmieren/c_cpp/github_os/input/src/os_base\os_task_scheduler.c **** Local void OS_PreemptTask(task_t* task, scheduling_t* scheduling_task);
  22:E:/NeuOrga/Programmieren/c_cpp/github_os/input/src/os_base\os_task_scheduler.c **** void OS_ActivateDispatcher(void)
  23:E:/NeuOrga/Programmieren/c_cpp/github_os/input/src/os_base\os_task_scheduler.c **** {
   9              		.loc 1 23 0
  10              		.cfi_startproc
  11 0000 55       		pushl	%ebp
  12              		.cfi_def_cfa_offset 8
  13              		.cfi_offset 5, -8
  14 0001 89E5     		movl	%esp, %ebp
  15              		.cfi_def_cfa_register 5
  24:E:/NeuOrga/Programmieren/c_cpp/github_os/input/src/os_base\os_task_scheduler.c **** 
  25:E:/NeuOrga/Programmieren/c_cpp/github_os/input/src/os_base\os_task_scheduler.c ****    /* configure the TCMP */
  26:E:/NeuOrga/Programmieren/c_cpp/github_os/input/src/os_base\os_task_scheduler.c ****    /*
  27:E:/NeuOrga/Programmieren/c_cpp/github_os/input/src/os_base\os_task_scheduler.c ****    Dispatcher function for Core 0:
  28:E:/NeuOrga/Programmieren/c_cpp/github_os/input/src/os_base\os_task_scheduler.c ****    Write Adresse into the config register (interrupts are requested by SWI/SVC???)
  29:E:/NeuOrga/Programmieren/c_cpp/github_os/input/src/os_base\os_task_scheduler.c ****    */
  30:E:/NeuOrga/Programmieren/c_cpp/github_os/input/src/os_base\os_task_scheduler.c ****    #define SYSTICK_CTRL_STAT_REG ((uint32*)0xE000E010)
  31:E:/NeuOrga/Programmieren/c_cpp/github_os/input/src/os_base\os_task_scheduler.c ****    #define SYSTICK_RLD_VAL_REG   ((uint32*)0xE000E014)
  32:E:/NeuOrga/Programmieren/c_cpp/github_os/input/src/os_base\os_task_scheduler.c ****    #define SYSTICK_CURRENT_VAL_REG ((uint32*)0xE000E018)
  33:E:/NeuOrga/Programmieren/c_cpp/github_os/input/src/os_base\os_task_scheduler.c ****    #define SYSTICK_STAT_REG_TICKINT ((uint32)0x00000002)
  34:E:/NeuOrga/Programmieren/c_cpp/github_os/input/src/os_base\os_task_scheduler.c ****    #define SYSTICK_STAT_REG_ENABLE  ((uint32)0x00000001)
  35:E:/NeuOrga/Programmieren/c_cpp/github_os/input/src/os_base\os_task_scheduler.c ****    #define LOOPTIME_IN_USEC ((uint32)10000u)
  36:E:/NeuOrga/Programmieren/c_cpp/github_os/input/src/os_base\os_task_scheduler.c ****    /*
  37:E:/NeuOrga/Programmieren/c_cpp/github_os/input/src/os_base\os_task_scheduler.c ****    CLOCK = HCLK / 8
  38:E:/NeuOrga/Programmieren/c_cpp/github_os/input/src/os_base\os_task_scheduler.c ****    vermutlich: CLOCK = 150Mhz / 8 = 18,75 Mhz
  39:E:/NeuOrga/Programmieren/c_cpp/github_os/input/src/os_base\os_task_scheduler.c ****    */
  40:E:/NeuOrga/Programmieren/c_cpp/github_os/input/src/os_base\os_task_scheduler.c ****    #if(CFG_PROCESSOR == cMCU_CORTEX_M4)
  41:E:/NeuOrga/Programmieren/c_cpp/github_os/input/src/os_base\os_task_scheduler.c ****    *SYSTICK_RLD_VAL_REG = (*SYSTICK_RLD_VAL_REG & 0xFF000000 )| (((uint32)MCU_CLOCK_IN_HZ / ((uint3
  42:E:/NeuOrga/Programmieren/c_cpp/github_os/input/src/os_base\os_task_scheduler.c ****    *SYSTICK_CURRENT_VAL_REG = ((uint32)0x00000000);
  43:E:/NeuOrga/Programmieren/c_cpp/github_os/input/src/os_base\os_task_scheduler.c ****    *SYSTICK_CTRL_STAT_REG = *SYSTICK_CTRL_STAT_REG | SYSTICK_STAT_REG_TICKINT | SYSTICK_STAT_REG_EN
GAS LISTING C:\Users\PRESID~1\AppData\Local\Temp\cc9Drh7C.s 			page 2


  44:E:/NeuOrga/Programmieren/c_cpp/github_os/input/src/os_base\os_task_scheduler.c ****    #endif
  45:E:/NeuOrga/Programmieren/c_cpp/github_os/input/src/os_base\os_task_scheduler.c **** }
  16              		.loc 1 45 0
  17 0003 5D       		popl	%ebp
  18              		.cfi_restore 5
  19              		.cfi_def_cfa 4, 4
  20 0004 C3       		ret
  21              		.cfi_endproc
  22              	LFE0:
  23              		.globl	_OS_SleepTask
  25              	_OS_SleepTask:
  26              	LFB1:
  46:E:/NeuOrga/Programmieren/c_cpp/github_os/input/src/os_base\os_task_scheduler.c **** 
  47:E:/NeuOrga/Programmieren/c_cpp/github_os/input/src/os_base\os_task_scheduler.c **** 
  48:E:/NeuOrga/Programmieren/c_cpp/github_os/input/src/os_base\os_task_scheduler.c **** void OS_SleepTask(task_t* task, task_time_t usec, scheduling_t* scheduling_task_ptr)
  49:E:/NeuOrga/Programmieren/c_cpp/github_os/input/src/os_base\os_task_scheduler.c **** {
  27              		.loc 1 49 0
  28              		.cfi_startproc
  29 0005 55       		pushl	%ebp
  30              		.cfi_def_cfa_offset 8
  31              		.cfi_offset 5, -8
  32 0006 89E5     		movl	%esp, %ebp
  33              		.cfi_def_cfa_register 5
  34 0008 83EC18   		subl	$24, %esp
  50:E:/NeuOrga/Programmieren/c_cpp/github_os/input/src/os_base\os_task_scheduler.c ****    /* sleep Task shall do a preempt task with a defined minimum wait time, the actual wait time is 
  51:E:/NeuOrga/Programmieren/c_cpp/github_os/input/src/os_base\os_task_scheduler.c ****    task->WaitActUntil = OS_GetCurrentTime() + usec;
  35              		.loc 1 51 0
  36 000b E8000000 		call	_OS_GetCurrentTime
  36      00
  37 0010 89C2     		movl	%eax, %edx
  38 0012 8B450C   		movl	12(%ebp), %eax
  39 0015 01C2     		addl	%eax, %edx
  40 0017 8B4508   		movl	8(%ebp), %eax
  41 001a 895008   		movl	%edx, 8(%eax)
  52:E:/NeuOrga/Programmieren/c_cpp/github_os/input/src/os_base\os_task_scheduler.c ****    OS_PreemptTask(task,scheduling_task_ptr);
  42              		.loc 1 52 0
  43 001d 8B4510   		movl	16(%ebp), %eax
  44 0020 89442404 		movl	%eax, 4(%esp)
  45 0024 8B4508   		movl	8(%ebp), %eax
  46 0027 890424   		movl	%eax, (%esp)
  47 002a E8B10100 		call	_OS_PreemptTask
  47      00
  53:E:/NeuOrga/Programmieren/c_cpp/github_os/input/src/os_base\os_task_scheduler.c **** }
  48              		.loc 1 53 0
  49 002f C9       		leave
  50              		.cfi_restore 5
  51              		.cfi_def_cfa 4, 4
  52 0030 C3       		ret
  53              		.cfi_endproc
  54              	LFE1:
  55              		.globl	_task_state_request
  57              	_task_state_request:
  58              	LFB2:
  54:E:/NeuOrga/Programmieren/c_cpp/github_os/input/src/os_base\os_task_scheduler.c **** 
  55:E:/NeuOrga/Programmieren/c_cpp/github_os/input/src/os_base\os_task_scheduler.c **** unsigned_char_t task_state_request(void* temp_task, task_state_t requested_state)
  56:E:/NeuOrga/Programmieren/c_cpp/github_os/input/src/os_base\os_task_scheduler.c **** {
  59              		.loc 1 56 0
GAS LISTING C:\Users\PRESID~1\AppData\Local\Temp\cc9Drh7C.s 			page 3


  60              		.cfi_startproc
  61 0031 55       		pushl	%ebp
  62              		.cfi_def_cfa_offset 8
  63              		.cfi_offset 5, -8
  64 0032 89E5     		movl	%esp, %ebp
  65              		.cfi_def_cfa_register 5
  66 0034 83EC28   		subl	$40, %esp
  57:E:/NeuOrga/Programmieren/c_cpp/github_os/input/src/os_base\os_task_scheduler.c ****    unsigned_char_t RequestState = Rejected;
  67              		.loc 1 57 0
  68 0037 C645F700 		movb	$0, -9(%ebp)
  58:E:/NeuOrga/Programmieren/c_cpp/github_os/input/src/os_base\os_task_scheduler.c **** 
  59:E:/NeuOrga/Programmieren/c_cpp/github_os/input/src/os_base\os_task_scheduler.c ****    task_t* task = (task_t*) temp_task;
  69              		.loc 1 59 0
  70 003b 8B4508   		movl	8(%ebp), %eax
  71 003e 8945F0   		movl	%eax, -16(%ebp)
  60:E:/NeuOrga/Programmieren/c_cpp/github_os/input/src/os_base\os_task_scheduler.c **** 
  61:E:/NeuOrga/Programmieren/c_cpp/github_os/input/src/os_base\os_task_scheduler.c ****    switch(requested_state)
  72              		.loc 1 61 0
  73 0041 8B450C   		movl	12(%ebp), %eax
  74 0044 83F801   		cmpl	$1, %eax
  75 0047 743E     		je	L5
  76 0049 83F801   		cmpl	$1, %eax
  77 004c 7213     		jb	L6
  78 004e 83F802   		cmpl	$2, %eax
  79 0051 0F849600 		je	L7
  79      0000
  80 0057 83F803   		cmpl	$3, %eax
  81 005a 7473     		je	L8
  62:E:/NeuOrga/Programmieren/c_cpp/github_os/input/src/os_base\os_task_scheduler.c ****    {
  63:E:/NeuOrga/Programmieren/c_cpp/github_os/input/src/os_base\os_task_scheduler.c ****    case Task_unspecified:/* 1. create new task */
  64:E:/NeuOrga/Programmieren/c_cpp/github_os/input/src/os_base\os_task_scheduler.c ****    {
  65:E:/NeuOrga/Programmieren/c_cpp/github_os/input/src/os_base\os_task_scheduler.c ****       switch(task->task_state)
  66:E:/NeuOrga/Programmieren/c_cpp/github_os/input/src/os_base\os_task_scheduler.c ****       {
  67:E:/NeuOrga/Programmieren/c_cpp/github_os/input/src/os_base\os_task_scheduler.c ****       case Task_ready:
  68:E:/NeuOrga/Programmieren/c_cpp/github_os/input/src/os_base\os_task_scheduler.c ****       case Task_running:
  69:E:/NeuOrga/Programmieren/c_cpp/github_os/input/src/os_base\os_task_scheduler.c ****       case Task_suspended:
  70:E:/NeuOrga/Programmieren/c_cpp/github_os/input/src/os_base\os_task_scheduler.c ****       {
  71:E:/NeuOrga/Programmieren/c_cpp/github_os/input/src/os_base\os_task_scheduler.c ****          RequestState = Rejected;
  72:E:/NeuOrga/Programmieren/c_cpp/github_os/input/src/os_base\os_task_scheduler.c ****          break;
  73:E:/NeuOrga/Programmieren/c_cpp/github_os/input/src/os_base\os_task_scheduler.c ****       }
  74:E:/NeuOrga/Programmieren/c_cpp/github_os/input/src/os_base\os_task_scheduler.c ****       default:
  75:E:/NeuOrga/Programmieren/c_cpp/github_os/input/src/os_base\os_task_scheduler.c ****       {
  76:E:/NeuOrga/Programmieren/c_cpp/github_os/input/src/os_base\os_task_scheduler.c ****          task->task_state = Task_unspecified;
  77:E:/NeuOrga/Programmieren/c_cpp/github_os/input/src/os_base\os_task_scheduler.c ****          RequestState = Accepted;
  78:E:/NeuOrga/Programmieren/c_cpp/github_os/input/src/os_base\os_task_scheduler.c ****          break;
  79:E:/NeuOrga/Programmieren/c_cpp/github_os/input/src/os_base\os_task_scheduler.c ****       }
  80:E:/NeuOrga/Programmieren/c_cpp/github_os/input/src/os_base\os_task_scheduler.c ****       }
  81:E:/NeuOrga/Programmieren/c_cpp/github_os/input/src/os_base\os_task_scheduler.c ****       break;
  82:E:/NeuOrga/Programmieren/c_cpp/github_os/input/src/os_base\os_task_scheduler.c ****    }
  83:E:/NeuOrga/Programmieren/c_cpp/github_os/input/src/os_base\os_task_scheduler.c ****    case Task_suspended:
  84:E:/NeuOrga/Programmieren/c_cpp/github_os/input/src/os_base\os_task_scheduler.c ****    {
  85:E:/NeuOrga/Programmieren/c_cpp/github_os/input/src/os_base\os_task_scheduler.c ****       switch(task->task_state)
  86:E:/NeuOrga/Programmieren/c_cpp/github_os/input/src/os_base\os_task_scheduler.c ****       {
  87:E:/NeuOrga/Programmieren/c_cpp/github_os/input/src/os_base\os_task_scheduler.c ****       case Task_unspecified: /* 2. create task transition */
  88:E:/NeuOrga/Programmieren/c_cpp/github_os/input/src/os_base\os_task_scheduler.c ****       {
  89:E:/NeuOrga/Programmieren/c_cpp/github_os/input/src/os_base\os_task_scheduler.c ****          /* no checks */
  90:E:/NeuOrga/Programmieren/c_cpp/github_os/input/src/os_base\os_task_scheduler.c ****          task->task_state = Task_suspended;
GAS LISTING C:\Users\PRESID~1\AppData\Local\Temp\cc9Drh7C.s 			page 4


  91:E:/NeuOrga/Programmieren/c_cpp/github_os/input/src/os_base\os_task_scheduler.c ****          RequestState = Accepted;
  92:E:/NeuOrga/Programmieren/c_cpp/github_os/input/src/os_base\os_task_scheduler.c ****          break;
  93:E:/NeuOrga/Programmieren/c_cpp/github_os/input/src/os_base\os_task_scheduler.c ****       }
  94:E:/NeuOrga/Programmieren/c_cpp/github_os/input/src/os_base\os_task_scheduler.c ****       case Task_running: /* 3. terminate task */
  95:E:/NeuOrga/Programmieren/c_cpp/github_os/input/src/os_base\os_task_scheduler.c ****       {
  96:E:/NeuOrga/Programmieren/c_cpp/github_os/input/src/os_base\os_task_scheduler.c ****          task->task_state = Task_suspended;
  97:E:/NeuOrga/Programmieren/c_cpp/github_os/input/src/os_base\os_task_scheduler.c ****          RequestState = Accepted;
  98:E:/NeuOrga/Programmieren/c_cpp/github_os/input/src/os_base\os_task_scheduler.c ****          break;
  99:E:/NeuOrga/Programmieren/c_cpp/github_os/input/src/os_base\os_task_scheduler.c ****       }
 100:E:/NeuOrga/Programmieren/c_cpp/github_os/input/src/os_base\os_task_scheduler.c ****       default:
 101:E:/NeuOrga/Programmieren/c_cpp/github_os/input/src/os_base\os_task_scheduler.c ****       {
 102:E:/NeuOrga/Programmieren/c_cpp/github_os/input/src/os_base\os_task_scheduler.c ****          /* no change in states allowed */
 103:E:/NeuOrga/Programmieren/c_cpp/github_os/input/src/os_base\os_task_scheduler.c ****          OS_SetSwBug(os_bug_taskstate_request_denied, Func_TaskStateRequest);
 104:E:/NeuOrga/Programmieren/c_cpp/github_os/input/src/os_base\os_task_scheduler.c ****          break;
 105:E:/NeuOrga/Programmieren/c_cpp/github_os/input/src/os_base\os_task_scheduler.c ****       }
 106:E:/NeuOrga/Programmieren/c_cpp/github_os/input/src/os_base\os_task_scheduler.c ****       }
 107:E:/NeuOrga/Programmieren/c_cpp/github_os/input/src/os_base\os_task_scheduler.c ****       break;
 108:E:/NeuOrga/Programmieren/c_cpp/github_os/input/src/os_base\os_task_scheduler.c ****    }
 109:E:/NeuOrga/Programmieren/c_cpp/github_os/input/src/os_base\os_task_scheduler.c ****    case Task_running:
 110:E:/NeuOrga/Programmieren/c_cpp/github_os/input/src/os_base\os_task_scheduler.c ****    {
 111:E:/NeuOrga/Programmieren/c_cpp/github_os/input/src/os_base\os_task_scheduler.c ****       switch(task->task_state)
 112:E:/NeuOrga/Programmieren/c_cpp/github_os/input/src/os_base\os_task_scheduler.c ****       {
 113:E:/NeuOrga/Programmieren/c_cpp/github_os/input/src/os_base\os_task_scheduler.c ****       case Task_ready: /* 4. start task transition */
 114:E:/NeuOrga/Programmieren/c_cpp/github_os/input/src/os_base\os_task_scheduler.c ****       {
 115:E:/NeuOrga/Programmieren/c_cpp/github_os/input/src/os_base\os_task_scheduler.c ****          task->task_state = Task_running;
 116:E:/NeuOrga/Programmieren/c_cpp/github_os/input/src/os_base\os_task_scheduler.c ****          RequestState   = Accepted;
 117:E:/NeuOrga/Programmieren/c_cpp/github_os/input/src/os_base\os_task_scheduler.c ****          break;
 118:E:/NeuOrga/Programmieren/c_cpp/github_os/input/src/os_base\os_task_scheduler.c ****       }
 119:E:/NeuOrga/Programmieren/c_cpp/github_os/input/src/os_base\os_task_scheduler.c ****       default:
 120:E:/NeuOrga/Programmieren/c_cpp/github_os/input/src/os_base\os_task_scheduler.c ****       {
 121:E:/NeuOrga/Programmieren/c_cpp/github_os/input/src/os_base\os_task_scheduler.c ****          /* no change in states allowed */
 122:E:/NeuOrga/Programmieren/c_cpp/github_os/input/src/os_base\os_task_scheduler.c ****          break;
 123:E:/NeuOrga/Programmieren/c_cpp/github_os/input/src/os_base\os_task_scheduler.c ****       }
 124:E:/NeuOrga/Programmieren/c_cpp/github_os/input/src/os_base\os_task_scheduler.c ****       }
 125:E:/NeuOrga/Programmieren/c_cpp/github_os/input/src/os_base\os_task_scheduler.c ****       break;
 126:E:/NeuOrga/Programmieren/c_cpp/github_os/input/src/os_base\os_task_scheduler.c **** 
 127:E:/NeuOrga/Programmieren/c_cpp/github_os/input/src/os_base\os_task_scheduler.c ****    }
 128:E:/NeuOrga/Programmieren/c_cpp/github_os/input/src/os_base\os_task_scheduler.c ****    case Task_ready:
 129:E:/NeuOrga/Programmieren/c_cpp/github_os/input/src/os_base\os_task_scheduler.c ****    {
 130:E:/NeuOrga/Programmieren/c_cpp/github_os/input/src/os_base\os_task_scheduler.c ****       switch(task->task_state)
 131:E:/NeuOrga/Programmieren/c_cpp/github_os/input/src/os_base\os_task_scheduler.c ****       {
 132:E:/NeuOrga/Programmieren/c_cpp/github_os/input/src/os_base\os_task_scheduler.c ****       case Task_suspended: /* activate task transition */
 133:E:/NeuOrga/Programmieren/c_cpp/github_os/input/src/os_base\os_task_scheduler.c ****       {
 134:E:/NeuOrga/Programmieren/c_cpp/github_os/input/src/os_base\os_task_scheduler.c ****          task->task_state = Task_ready;
 135:E:/NeuOrga/Programmieren/c_cpp/github_os/input/src/os_base\os_task_scheduler.c ****          RequestState   = Accepted;
 136:E:/NeuOrga/Programmieren/c_cpp/github_os/input/src/os_base\os_task_scheduler.c ****          break;
 137:E:/NeuOrga/Programmieren/c_cpp/github_os/input/src/os_base\os_task_scheduler.c ****       }
 138:E:/NeuOrga/Programmieren/c_cpp/github_os/input/src/os_base\os_task_scheduler.c ****       case Task_running: /* preempt task transition */
 139:E:/NeuOrga/Programmieren/c_cpp/github_os/input/src/os_base\os_task_scheduler.c ****       {
 140:E:/NeuOrga/Programmieren/c_cpp/github_os/input/src/os_base\os_task_scheduler.c ****          task->task_state = Task_ready;
 141:E:/NeuOrga/Programmieren/c_cpp/github_os/input/src/os_base\os_task_scheduler.c ****          RequestState   = Accepted;
 142:E:/NeuOrga/Programmieren/c_cpp/github_os/input/src/os_base\os_task_scheduler.c ****          break;
 143:E:/NeuOrga/Programmieren/c_cpp/github_os/input/src/os_base\os_task_scheduler.c ****       }
 144:E:/NeuOrga/Programmieren/c_cpp/github_os/input/src/os_base\os_task_scheduler.c ****       case Task_unspecified:
 145:E:/NeuOrga/Programmieren/c_cpp/github_os/input/src/os_base\os_task_scheduler.c ****       {
 146:E:/NeuOrga/Programmieren/c_cpp/github_os/input/src/os_base\os_task_scheduler.c ****           task->task_state = Task_ready;
 147:E:/NeuOrga/Programmieren/c_cpp/github_os/input/src/os_base\os_task_scheduler.c ****           RequestState = Accepted;
GAS LISTING C:\Users\PRESID~1\AppData\Local\Temp\cc9Drh7C.s 			page 5


 148:E:/NeuOrga/Programmieren/c_cpp/github_os/input/src/os_base\os_task_scheduler.c ****           break;
 149:E:/NeuOrga/Programmieren/c_cpp/github_os/input/src/os_base\os_task_scheduler.c ****       }
 150:E:/NeuOrga/Programmieren/c_cpp/github_os/input/src/os_base\os_task_scheduler.c ****       default:
 151:E:/NeuOrga/Programmieren/c_cpp/github_os/input/src/os_base\os_task_scheduler.c ****       {
 152:E:/NeuOrga/Programmieren/c_cpp/github_os/input/src/os_base\os_task_scheduler.c ****          /* no change in states allowed */
 153:E:/NeuOrga/Programmieren/c_cpp/github_os/input/src/os_base\os_task_scheduler.c ****          break;
 154:E:/NeuOrga/Programmieren/c_cpp/github_os/input/src/os_base\os_task_scheduler.c ****       }
 155:E:/NeuOrga/Programmieren/c_cpp/github_os/input/src/os_base\os_task_scheduler.c ****       }
 156:E:/NeuOrga/Programmieren/c_cpp/github_os/input/src/os_base\os_task_scheduler.c ****       break;
 157:E:/NeuOrga/Programmieren/c_cpp/github_os/input/src/os_base\os_task_scheduler.c ****    }
 158:E:/NeuOrga/Programmieren/c_cpp/github_os/input/src/os_base\os_task_scheduler.c ****    default:
 159:E:/NeuOrga/Programmieren/c_cpp/github_os/input/src/os_base\os_task_scheduler.c ****    {
 160:E:/NeuOrga/Programmieren/c_cpp/github_os/input/src/os_base\os_task_scheduler.c ****       break;
  82              		.loc 1 160 0
  83 005c E9D30000 		jmp	L12
  83      00
  84              	L6:
  65:E:/NeuOrga/Programmieren/c_cpp/github_os/input/src/os_base\os_task_scheduler.c ****       {
  85              		.loc 1 65 0
  86 0061 8B45F0   		movl	-16(%ebp), %eax
  87 0064 8B4034   		movl	52(%eax), %eax
  88 0067 48       		decl	%eax
  89 0068 83F802   		cmpl	$2, %eax
  90 006b 7706     		ja	L9
  71:E:/NeuOrga/Programmieren/c_cpp/github_os/input/src/os_base\os_task_scheduler.c ****          break;
  91              		.loc 1 71 0
  92 006d C645F700 		movb	$0, -9(%ebp)
  72:E:/NeuOrga/Programmieren/c_cpp/github_os/input/src/os_base\os_task_scheduler.c ****       }
  93              		.loc 1 72 0
  94 0071 EB0F     		jmp	L11
  95              	L9:
  76:E:/NeuOrga/Programmieren/c_cpp/github_os/input/src/os_base\os_task_scheduler.c ****          RequestState = Accepted;
  96              		.loc 1 76 0
  97 0073 8B45F0   		movl	-16(%ebp), %eax
  98 0076 C7403400 		movl	$0, 52(%eax)
  98      000000
  77:E:/NeuOrga/Programmieren/c_cpp/github_os/input/src/os_base\os_task_scheduler.c ****          break;
  99              		.loc 1 77 0
 100 007d C645F701 		movb	$1, -9(%ebp)
  78:E:/NeuOrga/Programmieren/c_cpp/github_os/input/src/os_base\os_task_scheduler.c ****       }
 101              		.loc 1 78 0
 102 0081 90       		nop
 103              	L11:
  81:E:/NeuOrga/Programmieren/c_cpp/github_os/input/src/os_base\os_task_scheduler.c ****    }
 104              		.loc 1 81 0
 105 0082 E9AD0000 		jmp	L12
 105      00
 106              	L5:
  85:E:/NeuOrga/Programmieren/c_cpp/github_os/input/src/os_base\os_task_scheduler.c ****       {
 107              		.loc 1 85 0
 108 0087 8B45F0   		movl	-16(%ebp), %eax
 109 008a 8B4034   		movl	52(%eax), %eax
 110 008d 85C0     		testl	%eax, %eax
 111 008f 7407     		je	L14
 112 0091 83F803   		cmpl	$3, %eax
 113 0094 7412     		je	L15
 114 0096 EB20     		jmp	L27
GAS LISTING C:\Users\PRESID~1\AppData\Local\Temp\cc9Drh7C.s 			page 6


 115              	L14:
  90:E:/NeuOrga/Programmieren/c_cpp/github_os/input/src/os_base\os_task_scheduler.c ****          RequestState = Accepted;
 116              		.loc 1 90 0
 117 0098 8B45F0   		movl	-16(%ebp), %eax
 118 009b C7403401 		movl	$1, 52(%eax)
 118      000000
  91:E:/NeuOrga/Programmieren/c_cpp/github_os/input/src/os_base\os_task_scheduler.c ****          break;
 119              		.loc 1 91 0
 120 00a2 C645F701 		movb	$1, -9(%ebp)
  92:E:/NeuOrga/Programmieren/c_cpp/github_os/input/src/os_base\os_task_scheduler.c ****       }
 121              		.loc 1 92 0
 122 00a6 EB25     		jmp	L16
 123              	L15:
  96:E:/NeuOrga/Programmieren/c_cpp/github_os/input/src/os_base\os_task_scheduler.c ****          RequestState = Accepted;
 124              		.loc 1 96 0
 125 00a8 8B45F0   		movl	-16(%ebp), %eax
 126 00ab C7403401 		movl	$1, 52(%eax)
 126      000000
  97:E:/NeuOrga/Programmieren/c_cpp/github_os/input/src/os_base\os_task_scheduler.c ****          break;
 127              		.loc 1 97 0
 128 00b2 C645F701 		movb	$1, -9(%ebp)
  98:E:/NeuOrga/Programmieren/c_cpp/github_os/input/src/os_base\os_task_scheduler.c ****       }
 129              		.loc 1 98 0
 130 00b6 EB15     		jmp	L16
 131              	L27:
 103:E:/NeuOrga/Programmieren/c_cpp/github_os/input/src/os_base\os_task_scheduler.c ****          break;
 132              		.loc 1 103 0
 133 00b8 C7442404 		movl	$12, 4(%esp)
 133      0C000000 
 134 00c0 C7042401 		movl	$1, (%esp)
 134      000000
 135 00c7 E8000000 		call	_OS_SetSwBug
 135      00
 104:E:/NeuOrga/Programmieren/c_cpp/github_os/input/src/os_base\os_task_scheduler.c ****       }
 136              		.loc 1 104 0
 137 00cc 90       		nop
 138              	L16:
 107:E:/NeuOrga/Programmieren/c_cpp/github_os/input/src/os_base\os_task_scheduler.c ****    }
 139              		.loc 1 107 0
 140 00cd EB65     		jmp	L12
 141              	L8:
 111:E:/NeuOrga/Programmieren/c_cpp/github_os/input/src/os_base\os_task_scheduler.c ****       {
 142              		.loc 1 111 0
 143 00cf 8B45F0   		movl	-16(%ebp), %eax
 144 00d2 8B4034   		movl	52(%eax), %eax
 145 00d5 83F802   		cmpl	$2, %eax
 146 00d8 7402     		je	L18
 122:E:/NeuOrga/Programmieren/c_cpp/github_os/input/src/os_base\os_task_scheduler.c ****       }
 147              		.loc 1 122 0
 148 00da EB0F     		jmp	L19
 149              	L18:
 115:E:/NeuOrga/Programmieren/c_cpp/github_os/input/src/os_base\os_task_scheduler.c ****          RequestState   = Accepted;
 150              		.loc 1 115 0
 151 00dc 8B45F0   		movl	-16(%ebp), %eax
 152 00df C7403403 		movl	$3, 52(%eax)
 152      000000
 116:E:/NeuOrga/Programmieren/c_cpp/github_os/input/src/os_base\os_task_scheduler.c ****          break;
GAS LISTING C:\Users\PRESID~1\AppData\Local\Temp\cc9Drh7C.s 			page 7


 153              		.loc 1 116 0
 154 00e6 C645F701 		movb	$1, -9(%ebp)
 117:E:/NeuOrga/Programmieren/c_cpp/github_os/input/src/os_base\os_task_scheduler.c ****       }
 155              		.loc 1 117 0
 156 00ea 90       		nop
 157              	L19:
 125:E:/NeuOrga/Programmieren/c_cpp/github_os/input/src/os_base\os_task_scheduler.c **** 
 158              		.loc 1 125 0 discriminator 1
 159 00eb EB47     		jmp	L12
 160              	L7:
 130:E:/NeuOrga/Programmieren/c_cpp/github_os/input/src/os_base\os_task_scheduler.c ****       {
 161              		.loc 1 130 0
 162 00ed 8B45F0   		movl	-16(%ebp), %eax
 163 00f0 8B4034   		movl	52(%eax), %eax
 164 00f3 83F801   		cmpl	$1, %eax
 165 00f6 740C     		je	L21
 166 00f8 83F801   		cmpl	$1, %eax
 167 00fb 7227     		jb	L22
 168 00fd 83F803   		cmpl	$3, %eax
 169 0100 7412     		je	L23
 153:E:/NeuOrga/Programmieren/c_cpp/github_os/input/src/os_base\os_task_scheduler.c ****       }
 170              		.loc 1 153 0
 171 0102 EB2F     		jmp	L24
 172              	L21:
 134:E:/NeuOrga/Programmieren/c_cpp/github_os/input/src/os_base\os_task_scheduler.c ****          RequestState   = Accepted;
 173              		.loc 1 134 0
 174 0104 8B45F0   		movl	-16(%ebp), %eax
 175 0107 C7403402 		movl	$2, 52(%eax)
 175      000000
 135:E:/NeuOrga/Programmieren/c_cpp/github_os/input/src/os_base\os_task_scheduler.c ****          break;
 176              		.loc 1 135 0
 177 010e C645F701 		movb	$1, -9(%ebp)
 136:E:/NeuOrga/Programmieren/c_cpp/github_os/input/src/os_base\os_task_scheduler.c ****       }
 178              		.loc 1 136 0
 179 0112 EB1F     		jmp	L24
 180              	L23:
 140:E:/NeuOrga/Programmieren/c_cpp/github_os/input/src/os_base\os_task_scheduler.c ****          RequestState   = Accepted;
 181              		.loc 1 140 0
 182 0114 8B45F0   		movl	-16(%ebp), %eax
 183 0117 C7403402 		movl	$2, 52(%eax)
 183      000000
 141:E:/NeuOrga/Programmieren/c_cpp/github_os/input/src/os_base\os_task_scheduler.c ****          break;
 184              		.loc 1 141 0
 185 011e C645F701 		movb	$1, -9(%ebp)
 142:E:/NeuOrga/Programmieren/c_cpp/github_os/input/src/os_base\os_task_scheduler.c ****       }
 186              		.loc 1 142 0
 187 0122 EB0F     		jmp	L24
 188              	L22:
 146:E:/NeuOrga/Programmieren/c_cpp/github_os/input/src/os_base\os_task_scheduler.c ****           RequestState = Accepted;
 189              		.loc 1 146 0
 190 0124 8B45F0   		movl	-16(%ebp), %eax
 191 0127 C7403402 		movl	$2, 52(%eax)
 191      000000
 147:E:/NeuOrga/Programmieren/c_cpp/github_os/input/src/os_base\os_task_scheduler.c ****           break;
 192              		.loc 1 147 0
 193 012e C645F701 		movb	$1, -9(%ebp)
 148:E:/NeuOrga/Programmieren/c_cpp/github_os/input/src/os_base\os_task_scheduler.c ****       }
GAS LISTING C:\Users\PRESID~1\AppData\Local\Temp\cc9Drh7C.s 			page 8


 194              		.loc 1 148 0
 195 0132 90       		nop
 196              	L24:
 156:E:/NeuOrga/Programmieren/c_cpp/github_os/input/src/os_base\os_task_scheduler.c ****    }
 197              		.loc 1 156 0 discriminator 2
 198 0133 90       		nop
 199              	L12:
 161:E:/NeuOrga/Programmieren/c_cpp/github_os/input/src/os_base\os_task_scheduler.c ****    }
 162:E:/NeuOrga/Programmieren/c_cpp/github_os/input/src/os_base\os_task_scheduler.c ****    }
 163:E:/NeuOrga/Programmieren/c_cpp/github_os/input/src/os_base\os_task_scheduler.c ****    if(RequestState == Rejected)
 200              		.loc 1 163 0
 201 0134 807DF700 		cmpb	$0, -9(%ebp)
 202 0138 752F     		jne	L25
 164:E:/NeuOrga/Programmieren/c_cpp/github_os/input/src/os_base\os_task_scheduler.c ****    {
 165:E:/NeuOrga/Programmieren/c_cpp/github_os/input/src/os_base\os_task_scheduler.c ****       TASK_TRANSITION_REJECTED_TASK_ADDR  = task;
 203              		.loc 1 165 0
 204 013a 8B45F0   		movl	-16(%ebp), %eax
 205 013d A3000000 		movl	%eax, _TASK_TRANSITION_REJECTED_TASK_ADDR
 205      00
 166:E:/NeuOrga/Programmieren/c_cpp/github_os/input/src/os_base\os_task_scheduler.c ****       TASK_TRANSITION_REJECTED_STATE      = requested_state;
 206              		.loc 1 166 0
 207 0142 8B450C   		movl	12(%ebp), %eax
 208 0145 A3000000 		movl	%eax, _TASK_TRANSITION_REJECTED_STATE
 208      00
 167:E:/NeuOrga/Programmieren/c_cpp/github_os/input/src/os_base\os_task_scheduler.c ****       TASK_TRANSITION_CURRENT_STATE       = task->task_state;
 209              		.loc 1 167 0
 210 014a 8B45F0   		movl	-16(%ebp), %eax
 211 014d 8B4034   		movl	52(%eax), %eax
 212 0150 A3000000 		movl	%eax, _TASK_TRANSITION_CURRENT_STATE
 212      00
 168:E:/NeuOrga/Programmieren/c_cpp/github_os/input/src/os_base\os_task_scheduler.c ****       OS_SetSwBug(os_bug_taskstate_request_denied, Func_TaskStateRequest);
 213              		.loc 1 168 0
 214 0155 C7442404 		movl	$12, 4(%esp)
 214      0C000000 
 215 015d C7042401 		movl	$1, (%esp)
 215      000000
 216 0164 E8000000 		call	_OS_SetSwBug
 216      00
 217              	L25:
 169:E:/NeuOrga/Programmieren/c_cpp/github_os/input/src/os_base\os_task_scheduler.c ****    }
 170:E:/NeuOrga/Programmieren/c_cpp/github_os/input/src/os_base\os_task_scheduler.c ****    return RequestState;
 218              		.loc 1 170 0
 219 0169 8A45F7   		movb	-9(%ebp), %al
 171:E:/NeuOrga/Programmieren/c_cpp/github_os/input/src/os_base\os_task_scheduler.c **** }
 220              		.loc 1 171 0
 221 016c C9       		leave
 222              		.cfi_restore 5
 223              		.cfi_def_cfa 4, 4
 224 016d C3       		ret
 225              		.cfi_endproc
 226              	LFE2:
 227              		.globl	_OS_CreateTask
 229              	_OS_CreateTask:
 230              	LFB3:
 172:E:/NeuOrga/Programmieren/c_cpp/github_os/input/src/os_base\os_task_scheduler.c **** 
 173:E:/NeuOrga/Programmieren/c_cpp/github_os/input/src/os_base\os_task_scheduler.c **** void OS_CreateTask(task_t* task)
 174:E:/NeuOrga/Programmieren/c_cpp/github_os/input/src/os_base\os_task_scheduler.c **** {
GAS LISTING C:\Users\PRESID~1\AppData\Local\Temp\cc9Drh7C.s 			page 9


 231              		.loc 1 174 0
 232              		.cfi_startproc
 233 016e 55       		pushl	%ebp
 234              		.cfi_def_cfa_offset 8
 235              		.cfi_offset 5, -8
 236 016f 89E5     		movl	%esp, %ebp
 237              		.cfi_def_cfa_register 5
 238 0171 83EC18   		subl	$24, %esp
 175:E:/NeuOrga/Programmieren/c_cpp/github_os/input/src/os_base\os_task_scheduler.c ****    /*5. unspecified --(create   )--> suspend*/
 176:E:/NeuOrga/Programmieren/c_cpp/github_os/input/src/os_base\os_task_scheduler.c ****    if(task != 0)
 239              		.loc 1 176 0
 240 0174 837D0800 		cmpl	$0, 8(%ebp)
 241 0178 7450     		je	L29
 177:E:/NeuOrga/Programmieren/c_cpp/github_os/input/src/os_base\os_task_scheduler.c ****    {
 178:E:/NeuOrga/Programmieren/c_cpp/github_os/input/src/os_base\os_task_scheduler.c ****       if(task->state_request != 0)
 242              		.loc 1 178 0
 243 017a 8B4508   		movl	8(%ebp), %eax
 244 017d 8B4030   		movl	48(%eax), %eax
 245 0180 85C0     		testl	%eax, %eax
 246 0182 7430     		je	L30
 179:E:/NeuOrga/Programmieren/c_cpp/github_os/input/src/os_base\os_task_scheduler.c ****       {
 180:E:/NeuOrga/Programmieren/c_cpp/github_os/input/src/os_base\os_task_scheduler.c ****          if(task->state_request(task, Task_suspended)== Accepted)
 247              		.loc 1 180 0
 248 0184 8B4508   		movl	8(%ebp), %eax
 249 0187 8B4030   		movl	48(%eax), %eax
 250 018a C7442404 		movl	$1, 4(%esp)
 250      01000000 
 251 0192 8B5508   		movl	8(%ebp), %edx
 252 0195 891424   		movl	%edx, (%esp)
 253 0198 FFD0     		call	*%eax
 254 019a 3C01     		cmpb	$1, %al
 255 019c 7440     		je	L28
 181:E:/NeuOrga/Programmieren/c_cpp/github_os/input/src/os_base\os_task_scheduler.c ****          {
 182:E:/NeuOrga/Programmieren/c_cpp/github_os/input/src/os_base\os_task_scheduler.c ****             /*QAC*/
 183:E:/NeuOrga/Programmieren/c_cpp/github_os/input/src/os_base\os_task_scheduler.c ****          }
 184:E:/NeuOrga/Programmieren/c_cpp/github_os/input/src/os_base\os_task_scheduler.c ****          else
 185:E:/NeuOrga/Programmieren/c_cpp/github_os/input/src/os_base\os_task_scheduler.c ****          {
 186:E:/NeuOrga/Programmieren/c_cpp/github_os/input/src/os_base\os_task_scheduler.c ****             OS_SetSwBug(os_bug_taskstate_request_denied, Func_CreateTask);
 256              		.loc 1 186 0
 257 019e C7442404 		movl	$15, 4(%esp)
 257      0F000000 
 258 01a6 C7042401 		movl	$1, (%esp)
 258      000000
 259 01ad E8000000 		call	_OS_SetSwBug
 259      00
 260 01b2 EB2A     		jmp	L28
 261              	L30:
 187:E:/NeuOrga/Programmieren/c_cpp/github_os/input/src/os_base\os_task_scheduler.c ****          }
 188:E:/NeuOrga/Programmieren/c_cpp/github_os/input/src/os_base\os_task_scheduler.c ****       }
 189:E:/NeuOrga/Programmieren/c_cpp/github_os/input/src/os_base\os_task_scheduler.c ****       else
 190:E:/NeuOrga/Programmieren/c_cpp/github_os/input/src/os_base\os_task_scheduler.c ****       {
 191:E:/NeuOrga/Programmieren/c_cpp/github_os/input/src/os_base\os_task_scheduler.c ****          OS_SetSwBug(os_bug_null_pointer, Func_CreateTask);
 262              		.loc 1 191 0
 263 01b4 C7442404 		movl	$15, 4(%esp)
 263      0F000000 
 264 01bc C7042402 		movl	$2, (%esp)
 264      000000
GAS LISTING C:\Users\PRESID~1\AppData\Local\Temp\cc9Drh7C.s 			page 10


 265 01c3 E8000000 		call	_OS_SetSwBug
 265      00
 266 01c8 EB14     		jmp	L28
 267              	L29:
 192:E:/NeuOrga/Programmieren/c_cpp/github_os/input/src/os_base\os_task_scheduler.c ****       }
 193:E:/NeuOrga/Programmieren/c_cpp/github_os/input/src/os_base\os_task_scheduler.c ****    }
 194:E:/NeuOrga/Programmieren/c_cpp/github_os/input/src/os_base\os_task_scheduler.c ****    else
 195:E:/NeuOrga/Programmieren/c_cpp/github_os/input/src/os_base\os_task_scheduler.c ****    {
 196:E:/NeuOrga/Programmieren/c_cpp/github_os/input/src/os_base\os_task_scheduler.c ****       OS_SetSwBug(os_bug_null_pointer, Func_CreateTask);
 268              		.loc 1 196 0
 269 01ca C7442404 		movl	$15, 4(%esp)
 269      0F000000 
 270 01d2 C7042402 		movl	$2, (%esp)
 270      000000
 271 01d9 E8000000 		call	_OS_SetSwBug
 271      00
 272              	L28:
 197:E:/NeuOrga/Programmieren/c_cpp/github_os/input/src/os_base\os_task_scheduler.c ****    }
 198:E:/NeuOrga/Programmieren/c_cpp/github_os/input/src/os_base\os_task_scheduler.c **** }
 273              		.loc 1 198 0
 274 01de C9       		leave
 275              		.cfi_restore 5
 276              		.cfi_def_cfa 4, 4
 277 01df C3       		ret
 278              		.cfi_endproc
 279              	LFE3:
 281              	_OS_PreemptTask:
 282              	LFB4:
 199:E:/NeuOrga/Programmieren/c_cpp/github_os/input/src/os_base\os_task_scheduler.c **** void OS_PreemptTask(task_t* task, scheduling_t* scheduling_task)
 200:E:/NeuOrga/Programmieren/c_cpp/github_os/input/src/os_base\os_task_scheduler.c **** {
 283              		.loc 1 200 0
 284              		.cfi_startproc
 285 01e0 55       		pushl	%ebp
 286              		.cfi_def_cfa_offset 8
 287              		.cfi_offset 5, -8
 288 01e1 89E5     		movl	%esp, %ebp
 289              		.cfi_def_cfa_register 5
 290 01e3 83EC18   		subl	$24, %esp
 201:E:/NeuOrga/Programmieren/c_cpp/github_os/input/src/os_base\os_task_scheduler.c ****    /*2. running     --(preempt  )--> ready*/
 202:E:/NeuOrga/Programmieren/c_cpp/github_os/input/src/os_base\os_task_scheduler.c ****    /* Preempt task
 203:E:/NeuOrga/Programmieren/c_cpp/github_os/input/src/os_base\os_task_scheduler.c ****    - Disable Interrupts
 204:E:/NeuOrga/Programmieren/c_cpp/github_os/input/src/os_base\os_task_scheduler.c ****    - OS_TaskSaveTaskEnvironment
 205:E:/NeuOrga/Programmieren/c_cpp/github_os/input/src/os_base\os_task_scheduler.c ****    - add to Schedule Queue / delete from RunQueue
 206:E:/NeuOrga/Programmieren/c_cpp/github_os/input/src/os_base\os_task_scheduler.c ****    - delete active flag
 207:E:/NeuOrga/Programmieren/c_cpp/github_os/input/src/os_base\os_task_scheduler.c ****    - enable Interrupts
 208:E:/NeuOrga/Programmieren/c_cpp/github_os/input/src/os_base\os_task_scheduler.c ****    */
 209:E:/NeuOrga/Programmieren/c_cpp/github_os/input/src/os_base\os_task_scheduler.c ****    if(task != 0 && scheduling_task != 0)
 291              		.loc 1 209 0
 292 01e6 837D0800 		cmpl	$0, 8(%ebp)
 293 01ea 0F848500 		je	L35
 293      0000
 294              		.loc 1 209 0 is_stmt 0 discriminator 1
 295 01f0 837D0C00 		cmpl	$0, 12(%ebp)
 296 01f4 747F     		je	L35
 210:E:/NeuOrga/Programmieren/c_cpp/github_os/input/src/os_base\os_task_scheduler.c ****    {
 211:E:/NeuOrga/Programmieren/c_cpp/github_os/input/src/os_base\os_task_scheduler.c ****       if(task->state_request != 0)
 297              		.loc 1 211 0 is_stmt 1
GAS LISTING C:\Users\PRESID~1\AppData\Local\Temp\cc9Drh7C.s 			page 11


 298 01f6 8B4508   		movl	8(%ebp), %eax
 299 01f9 8B4030   		movl	48(%eax), %eax
 300 01fc 85C0     		testl	%eax, %eax
 301 01fe 745F     		je	L36
 212:E:/NeuOrga/Programmieren/c_cpp/github_os/input/src/os_base\os_task_scheduler.c ****       {
 213:E:/NeuOrga/Programmieren/c_cpp/github_os/input/src/os_base\os_task_scheduler.c ****          if(task->state_request(task, Task_ready)== Accepted)
 302              		.loc 1 213 0
 303 0200 8B4508   		movl	8(%ebp), %eax
 304 0203 8B4030   		movl	48(%eax), %eax
 305 0206 C7442404 		movl	$2, 4(%esp)
 305      02000000 
 306 020e 8B5508   		movl	8(%ebp), %edx
 307 0211 891424   		movl	%edx, (%esp)
 308 0214 FFD0     		call	*%eax
 309 0216 3C01     		cmpb	$1, %al
 310 0218 752F     		jne	L37
 214:E:/NeuOrga/Programmieren/c_cpp/github_os/input/src/os_base\os_task_scheduler.c ****          {
 215:E:/NeuOrga/Programmieren/c_cpp/github_os/input/src/os_base\os_task_scheduler.c ****             DisableInterrupts();
 216:E:/NeuOrga/Programmieren/c_cpp/github_os/input/src/os_base\os_task_scheduler.c ****             OS_TaskSaveTaskEnvironment(task);
 311              		.loc 1 216 0
 312 021a 8B4508   		movl	8(%ebp), %eax
 313 021d 890424   		movl	%eax, (%esp)
 314 0220 E8000000 		call	_OS_TaskSaveTaskEnvironment
 314      00
 217:E:/NeuOrga/Programmieren/c_cpp/github_os/input/src/os_base\os_task_scheduler.c ****             OS_TASK_RESTORE_SYSTEM_STACK((uint8*)&OS_MAIN_STACK);
 315              		.loc 1 217 0
 316 0225 C7042400 		movl	$_OS_MAIN_STACK, (%esp)
 316      000000
 317 022c E8000000 		call	_OS_TASK_RESTORE_SYSTEM_STACK
 317      00
 218:E:/NeuOrga/Programmieren/c_cpp/github_os/input/src/os_base\os_task_scheduler.c **** 
 219:E:/NeuOrga/Programmieren/c_cpp/github_os/input/src/os_base\os_task_scheduler.c ****             task->active = False;
 318              		.loc 1 219 0
 319 0231 8B4508   		movl	8(%ebp), %eax
 320 0234 8A10     		movb	(%eax), %dl
 321 0236 83E2FE   		andl	$-2, %edx
 322 0239 8810     		movb	%dl, (%eax)
 220:E:/NeuOrga/Programmieren/c_cpp/github_os/input/src/os_base\os_task_scheduler.c ****             /* reset the prio increase for waiting */
 221:E:/NeuOrga/Programmieren/c_cpp/github_os/input/src/os_base\os_task_scheduler.c ****             task->current_prio = task->default_prio;
 323              		.loc 1 221 0
 324 023b 8B4508   		movl	8(%ebp), %eax
 325 023e 8A5025   		movb	37(%eax), %dl
 326 0241 8B4508   		movl	8(%ebp), %eax
 327 0244 885024   		movb	%dl, 36(%eax)
 211:E:/NeuOrga/Programmieren/c_cpp/github_os/input/src/os_base\os_task_scheduler.c ****       {
 328              		.loc 1 211 0
 329 0247 EB40     		jmp	L34
 330              	L37:
 222:E:/NeuOrga/Programmieren/c_cpp/github_os/input/src/os_base\os_task_scheduler.c ****             EnableInterrupts();
 223:E:/NeuOrga/Programmieren/c_cpp/github_os/input/src/os_base\os_task_scheduler.c ****          }
 224:E:/NeuOrga/Programmieren/c_cpp/github_os/input/src/os_base\os_task_scheduler.c ****          else
 225:E:/NeuOrga/Programmieren/c_cpp/github_os/input/src/os_base\os_task_scheduler.c ****          {
 226:E:/NeuOrga/Programmieren/c_cpp/github_os/input/src/os_base\os_task_scheduler.c ****             OS_SetSwBug(os_bug_taskstate_request_denied, Func_Preempt_Task);
 331              		.loc 1 226 0
 332 0249 C7442404 		movl	$13, 4(%esp)
 332      0D000000 
 333 0251 C7042401 		movl	$1, (%esp)
GAS LISTING C:\Users\PRESID~1\AppData\Local\Temp\cc9Drh7C.s 			page 12


 333      000000
 334 0258 E8000000 		call	_OS_SetSwBug
 334      00
 211:E:/NeuOrga/Programmieren/c_cpp/github_os/input/src/os_base\os_task_scheduler.c ****       {
 335              		.loc 1 211 0
 336 025d EB2A     		jmp	L34
 337              	L36:
 227:E:/NeuOrga/Programmieren/c_cpp/github_os/input/src/os_base\os_task_scheduler.c ****          }
 228:E:/NeuOrga/Programmieren/c_cpp/github_os/input/src/os_base\os_task_scheduler.c ****       }
 229:E:/NeuOrga/Programmieren/c_cpp/github_os/input/src/os_base\os_task_scheduler.c ****       else
 230:E:/NeuOrga/Programmieren/c_cpp/github_os/input/src/os_base\os_task_scheduler.c ****       {
 231:E:/NeuOrga/Programmieren/c_cpp/github_os/input/src/os_base\os_task_scheduler.c ****          OS_SetSwBug(os_bug_null_pointer, Func_Preempt_Task);
 338              		.loc 1 231 0
 339 025f C7442404 		movl	$13, 4(%esp)
 339      0D000000 
 340 0267 C7042402 		movl	$2, (%esp)
 340      000000
 341 026e E8000000 		call	_OS_SetSwBug
 341      00
 211:E:/NeuOrga/Programmieren/c_cpp/github_os/input/src/os_base\os_task_scheduler.c ****       {
 342              		.loc 1 211 0
 343 0273 EB14     		jmp	L34
 344              	L35:
 232:E:/NeuOrga/Programmieren/c_cpp/github_os/input/src/os_base\os_task_scheduler.c ****       }
 233:E:/NeuOrga/Programmieren/c_cpp/github_os/input/src/os_base\os_task_scheduler.c ****    }
 234:E:/NeuOrga/Programmieren/c_cpp/github_os/input/src/os_base\os_task_scheduler.c ****    else
 235:E:/NeuOrga/Programmieren/c_cpp/github_os/input/src/os_base\os_task_scheduler.c ****    {
 236:E:/NeuOrga/Programmieren/c_cpp/github_os/input/src/os_base\os_task_scheduler.c ****       OS_SetSwBug(os_bug_null_pointer, Func_Preempt_Task);
 345              		.loc 1 236 0
 346 0275 C7442404 		movl	$13, 4(%esp)
 346      0D000000 
 347 027d C7042402 		movl	$2, (%esp)
 347      000000
 348 0284 E8000000 		call	_OS_SetSwBug
 348      00
 349              	L34:
 237:E:/NeuOrga/Programmieren/c_cpp/github_os/input/src/os_base\os_task_scheduler.c ****    }
 238:E:/NeuOrga/Programmieren/c_cpp/github_os/input/src/os_base\os_task_scheduler.c **** }
 350              		.loc 1 238 0
 351 0289 C9       		leave
 352              		.cfi_restore 5
 353              		.cfi_def_cfa 4, 4
 354 028a C3       		ret
 355              		.cfi_endproc
 356              	LFE4:
 357              		.globl	_OS_ActivateTask
 359              	_OS_ActivateTask:
 360              	LFB5:
 239:E:/NeuOrga/Programmieren/c_cpp/github_os/input/src/os_base\os_task_scheduler.c **** 
 240:E:/NeuOrga/Programmieren/c_cpp/github_os/input/src/os_base\os_task_scheduler.c **** void OS_ActivateTask(task_t* task)
 241:E:/NeuOrga/Programmieren/c_cpp/github_os/input/src/os_base\os_task_scheduler.c **** {
 361              		.loc 1 241 0
 362              		.cfi_startproc
 363 028b 55       		pushl	%ebp
 364              		.cfi_def_cfa_offset 8
 365              		.cfi_offset 5, -8
 366 028c 89E5     		movl	%esp, %ebp
GAS LISTING C:\Users\PRESID~1\AppData\Local\Temp\cc9Drh7C.s 			page 13


 367              		.cfi_def_cfa_register 5
 368 028e 83EC18   		subl	$24, %esp
 242:E:/NeuOrga/Programmieren/c_cpp/github_os/input/src/os_base\os_task_scheduler.c ****    /*
 243:E:/NeuOrga/Programmieren/c_cpp/github_os/input/src/os_base\os_task_scheduler.c ****    Activate Task:
 244:E:/NeuOrga/Programmieren/c_cpp/github_os/input/src/os_base\os_task_scheduler.c ****    - Disable Interrupts
 245:E:/NeuOrga/Programmieren/c_cpp/github_os/input/src/os_base\os_task_scheduler.c ****    - Add to schedule Queue
 246:E:/NeuOrga/Programmieren/c_cpp/github_os/input/src/os_base\os_task_scheduler.c ****    - Enable Interrupts
 247:E:/NeuOrga/Programmieren/c_cpp/github_os/input/src/os_base\os_task_scheduler.c **** 
 248:E:/NeuOrga/Programmieren/c_cpp/github_os/input/src/os_base\os_task_scheduler.c ****    in case of valid request, the content, where the "task_t* task" is point to is stored in TASK_RU
 249:E:/NeuOrga/Programmieren/c_cpp/github_os/input/src/os_base\os_task_scheduler.c ****    */
 250:E:/NeuOrga/Programmieren/c_cpp/github_os/input/src/os_base\os_task_scheduler.c ****    if(task != 0)
 369              		.loc 1 250 0
 370 0291 837D0800 		cmpl	$0, 8(%ebp)
 371 0295 0F84D500 		je	L41
 371      0000
 251:E:/NeuOrga/Programmieren/c_cpp/github_os/input/src/os_base\os_task_scheduler.c ****    {
 252:E:/NeuOrga/Programmieren/c_cpp/github_os/input/src/os_base\os_task_scheduler.c ****       if(task->state_request(task, Task_ready)==Accepted)
 372              		.loc 1 252 0
 373 029b 8B4508   		movl	8(%ebp), %eax
 374 029e 8B4030   		movl	48(%eax), %eax
 375 02a1 C7442404 		movl	$2, 4(%esp)
 375      02000000 
 376 02a9 8B5508   		movl	8(%ebp), %edx
 377 02ac 891424   		movl	%edx, (%esp)
 378 02af FFD0     		call	*%eax
 379 02b1 3C01     		cmpb	$1, %al
 380 02b3 0F85A300 		jne	L43
 380      0000
 253:E:/NeuOrga/Programmieren/c_cpp/github_os/input/src/os_base\os_task_scheduler.c ****       {
 254:E:/NeuOrga/Programmieren/c_cpp/github_os/input/src/os_base\os_task_scheduler.c ****          DisableInterrupts();
 255:E:/NeuOrga/Programmieren/c_cpp/github_os/input/src/os_base\os_task_scheduler.c ****          /* 3. suspended to ready (add to runqueue) */
 256:E:/NeuOrga/Programmieren/c_cpp/github_os/input/src/os_base\os_task_scheduler.c ****          if(task->IdleTask == False)
 381              		.loc 1 256 0
 382 02b9 8B4508   		movl	8(%ebp), %eax
 383 02bc 8A00     		movb	(%eax), %al
 384 02be 83E004   		andl	$4, %eax
 385 02c1 84C0     		testb	%al, %al
 386 02c3 0F858600 		jne	L44
 386      0000
 257:E:/NeuOrga/Programmieren/c_cpp/github_os/input/src/os_base\os_task_scheduler.c ****          {
 258:E:/NeuOrga/Programmieren/c_cpp/github_os/input/src/os_base\os_task_scheduler.c ****             if( (task->active == False)
 387              		.loc 1 258 0
 388 02c9 8B4508   		movl	8(%ebp), %eax
 389 02cc 8A00     		movb	(%eax), %al
 390 02ce 83E001   		andl	$1, %eax
 391 02d1 84C0     		testb	%al, %al
 392 02d3 741C     		je	L45
 259:E:/NeuOrga/Programmieren/c_cpp/github_os/input/src/os_base\os_task_scheduler.c ****                   || ( (task->active == True) && (task->NrOfInsAllowed > task->NrOfInsActivated) )/
 393              		.loc 1 259 0
 394 02d5 8B4508   		movl	8(%ebp), %eax
 395 02d8 8A00     		movb	(%eax), %al
 396 02da 83E001   		andl	$1, %eax
 397 02dd 84C0     		testb	%al, %al
 398 02df 7456     		je	L46
 399              		.loc 1 259 0 is_stmt 0 discriminator 1
 400 02e1 8B4508   		movl	8(%ebp), %eax
 401 02e4 8A5004   		movb	4(%eax), %dl
GAS LISTING C:\Users\PRESID~1\AppData\Local\Temp\cc9Drh7C.s 			page 14


 402 02e7 8B4508   		movl	8(%ebp), %eax
 403 02ea 8A4005   		movb	5(%eax), %al
 404 02ed 38C2     		cmpb	%al, %dl
 405 02ef 7646     		jbe	L46
 406              	L45:
 260:E:/NeuOrga/Programmieren/c_cpp/github_os/input/src/os_base\os_task_scheduler.c ****               )
 261:E:/NeuOrga/Programmieren/c_cpp/github_os/input/src/os_base\os_task_scheduler.c ****             {
 262:E:/NeuOrga/Programmieren/c_cpp/github_os/input/src/os_base\os_task_scheduler.c ****                /* only activate if allowed by rule */
 263:E:/NeuOrga/Programmieren/c_cpp/github_os/input/src/os_base\os_task_scheduler.c ****                task = AddToTaskQueue(task);
 407              		.loc 1 263 0 is_stmt 1
 408 02f1 8B4508   		movl	8(%ebp), %eax
 409 02f4 890424   		movl	%eax, (%esp)
 410 02f7 E8000000 		call	_AddToTaskQueue
 410      00
 411 02fc 894508   		movl	%eax, 8(%ebp)
 264:E:/NeuOrga/Programmieren/c_cpp/github_os/input/src/os_base\os_task_scheduler.c ****                AddToSchedulingQueue(task);
 412              		.loc 1 264 0
 413 02ff 8B4508   		movl	8(%ebp), %eax
 414 0302 890424   		movl	%eax, (%esp)
 415 0305 E8000000 		call	_AddToSchedulingQueue
 415      00
 265:E:/NeuOrga/Programmieren/c_cpp/github_os/input/src/os_base\os_task_scheduler.c ****                if(task != 0)
 416              		.loc 1 265 0
 417 030a 837D0800 		cmpl	$0, 8(%ebp)
 418 030e 7411     		je	L47
 266:E:/NeuOrga/Programmieren/c_cpp/github_os/input/src/os_base\os_task_scheduler.c ****                {
 267:E:/NeuOrga/Programmieren/c_cpp/github_os/input/src/os_base\os_task_scheduler.c ****                   task->NrOfInsActivated++;
 419              		.loc 1 267 0
 420 0310 8B4508   		movl	8(%ebp), %eax
 421 0313 8A4005   		movb	5(%eax), %al
 422 0316 8D5001   		leal	1(%eax), %edx
 423 0319 8B4508   		movl	8(%ebp), %eax
 424 031c 885005   		movb	%dl, 5(%eax)
 265:E:/NeuOrga/Programmieren/c_cpp/github_os/input/src/os_base\os_task_scheduler.c ****                if(task != 0)
 425              		.loc 1 265 0
 426 031f EB2C     		jmp	L49
 427              	L47:
 268:E:/NeuOrga/Programmieren/c_cpp/github_os/input/src/os_base\os_task_scheduler.c ****                }
 269:E:/NeuOrga/Programmieren/c_cpp/github_os/input/src/os_base\os_task_scheduler.c ****                else
 270:E:/NeuOrga/Programmieren/c_cpp/github_os/input/src/os_base\os_task_scheduler.c ****                {
 271:E:/NeuOrga/Programmieren/c_cpp/github_os/input/src/os_base\os_task_scheduler.c ****                   OS_SetSwBug(os_bug_null_pointer,Func_ActivateTask);
 428              		.loc 1 271 0
 429 0321 C7442404 		movl	$11, 4(%esp)
 429      0B000000 
 430 0329 C7042402 		movl	$2, (%esp)
 430      000000
 431 0330 E8000000 		call	_OS_SetSwBug
 431      00
 265:E:/NeuOrga/Programmieren/c_cpp/github_os/input/src/os_base\os_task_scheduler.c ****                {
 432              		.loc 1 265 0
 433 0335 EB16     		jmp	L49
 434              	L46:
 272:E:/NeuOrga/Programmieren/c_cpp/github_os/input/src/os_base\os_task_scheduler.c ****                }
 273:E:/NeuOrga/Programmieren/c_cpp/github_os/input/src/os_base\os_task_scheduler.c ****             }
 274:E:/NeuOrga/Programmieren/c_cpp/github_os/input/src/os_base\os_task_scheduler.c ****             else
 275:E:/NeuOrga/Programmieren/c_cpp/github_os/input/src/os_base\os_task_scheduler.c ****             {
 276:E:/NeuOrga/Programmieren/c_cpp/github_os/input/src/os_base\os_task_scheduler.c ****                /* multiple activation bug occured */
GAS LISTING C:\Users\PRESID~1\AppData\Local\Temp\cc9Drh7C.s 			page 15


 277:E:/NeuOrga/Programmieren/c_cpp/github_os/input/src/os_base\os_task_scheduler.c ****                OS_SetSwBug(os_bug_taskstate_request_denied, Func_ActivateTask);
 435              		.loc 1 277 0
 436 0337 C7442404 		movl	$11, 4(%esp)
 436      0B000000 
 437 033f C7042401 		movl	$1, (%esp)
 437      000000
 438 0346 E8000000 		call	_OS_SetSwBug
 438      00
 439 034b EB23     		jmp	L41
 440              	L49:
 441 034d EB21     		jmp	L41
 442              	L44:
 278:E:/NeuOrga/Programmieren/c_cpp/github_os/input/src/os_base\os_task_scheduler.c ****             }
 279:E:/NeuOrga/Programmieren/c_cpp/github_os/input/src/os_base\os_task_scheduler.c ****          }
 280:E:/NeuOrga/Programmieren/c_cpp/github_os/input/src/os_base\os_task_scheduler.c ****          else
 281:E:/NeuOrga/Programmieren/c_cpp/github_os/input/src/os_base\os_task_scheduler.c ****          {
 282:E:/NeuOrga/Programmieren/c_cpp/github_os/input/src/os_base\os_task_scheduler.c ****             AddToIdleTaskQueue(task);
 443              		.loc 1 282 0
 444 034f 8B4508   		movl	8(%ebp), %eax
 445 0352 890424   		movl	%eax, (%esp)
 446 0355 E8000000 		call	_AddToIdleTaskQueue
 446      00
 447 035a EB14     		jmp	L41
 448              	L43:
 283:E:/NeuOrga/Programmieren/c_cpp/github_os/input/src/os_base\os_task_scheduler.c ****          }
 284:E:/NeuOrga/Programmieren/c_cpp/github_os/input/src/os_base\os_task_scheduler.c ****          EnableInterrupts();
 285:E:/NeuOrga/Programmieren/c_cpp/github_os/input/src/os_base\os_task_scheduler.c ****       }
 286:E:/NeuOrga/Programmieren/c_cpp/github_os/input/src/os_base\os_task_scheduler.c ****       else
 287:E:/NeuOrga/Programmieren/c_cpp/github_os/input/src/os_base\os_task_scheduler.c ****       {
 288:E:/NeuOrga/Programmieren/c_cpp/github_os/input/src/os_base\os_task_scheduler.c ****          OS_SetSwBug(os_bug_taskstate_request_denied, Func_ActivateTask);
 449              		.loc 1 288 0
 450 035c C7442404 		movl	$11, 4(%esp)
 450      0B000000 
 451 0364 C7042401 		movl	$1, (%esp)
 451      000000
 452 036b E8000000 		call	_OS_SetSwBug
 452      00
 453              	L41:
 289:E:/NeuOrga/Programmieren/c_cpp/github_os/input/src/os_base\os_task_scheduler.c ****       }
 290:E:/NeuOrga/Programmieren/c_cpp/github_os/input/src/os_base\os_task_scheduler.c ****    }
 291:E:/NeuOrga/Programmieren/c_cpp/github_os/input/src/os_base\os_task_scheduler.c **** }
 454              		.loc 1 291 0
 455 0370 C9       		leave
 456              		.cfi_restore 5
 457              		.cfi_def_cfa 4, 4
 458 0371 C3       		ret
 459              		.cfi_endproc
 460              	LFE5:
 461              		.globl	_OS_StartTask
 463              	_OS_StartTask:
 464              	LFB6:
 292:E:/NeuOrga/Programmieren/c_cpp/github_os/input/src/os_base\os_task_scheduler.c **** void OS_StartTask(task_t* task, scheduling_t* scheduling_task)
 293:E:/NeuOrga/Programmieren/c_cpp/github_os/input/src/os_base\os_task_scheduler.c **** {
 465              		.loc 1 293 0
 466              		.cfi_startproc
 467 0372 55       		pushl	%ebp
 468              		.cfi_def_cfa_offset 8
GAS LISTING C:\Users\PRESID~1\AppData\Local\Temp\cc9Drh7C.s 			page 16


 469              		.cfi_offset 5, -8
 470 0373 89E5     		movl	%esp, %ebp
 471              		.cfi_def_cfa_register 5
 472 0375 83EC18   		subl	$24, %esp
 294:E:/NeuOrga/Programmieren/c_cpp/github_os/input/src/os_base\os_task_scheduler.c ****    /* OS_StartTask
 295:E:/NeuOrga/Programmieren/c_cpp/github_os/input/src/os_base\os_task_scheduler.c ****    - Disable interrupts
 296:E:/NeuOrga/Programmieren/c_cpp/github_os/input/src/os_base\os_task_scheduler.c ****    - restore Environment
 297:E:/NeuOrga/Programmieren/c_cpp/github_os/input/src/os_base\os_task_scheduler.c ****    - enable interrupts
 298:E:/NeuOrga/Programmieren/c_cpp/github_os/input/src/os_base\os_task_scheduler.c **** 
 299:E:/NeuOrga/Programmieren/c_cpp/github_os/input/src/os_base\os_task_scheduler.c ****    - Start Task
 300:E:/NeuOrga/Programmieren/c_cpp/github_os/input/src/os_base\os_task_scheduler.c ****     */
 301:E:/NeuOrga/Programmieren/c_cpp/github_os/input/src/os_base\os_task_scheduler.c ****    if( (task != 0) && (scheduling_task != 0)&& ((task->task_queued != False)||(task->IdleTask != Fa
 473              		.loc 1 301 0
 474 0378 837D0800 		cmpl	$0, 8(%ebp)
 475 037c 0F84ED00 		je	L51
 475      0000
 476              		.loc 1 301 0 is_stmt 0 discriminator 1
 477 0382 837D0C00 		cmpl	$0, 12(%ebp)
 478 0386 0F84E300 		je	L51
 478      0000
 479              		.loc 1 301 0 discriminator 2
 480 038c 8B4508   		movl	8(%ebp), %eax
 481 038f 8A00     		movb	(%eax), %al
 482 0391 83E002   		andl	$2, %eax
 483 0394 84C0     		testb	%al, %al
 484 0396 7510     		jne	L53
 485              		.loc 1 301 0 discriminator 3
 486 0398 8B4508   		movl	8(%ebp), %eax
 487 039b 8A00     		movb	(%eax), %al
 488 039d 83E004   		andl	$4, %eax
 489 03a0 84C0     		testb	%al, %al
 490 03a2 0F84C700 		je	L51
 490      0000
 491              	L53:
 302:E:/NeuOrga/Programmieren/c_cpp/github_os/input/src/os_base\os_task_scheduler.c ****    {
 303:E:/NeuOrga/Programmieren/c_cpp/github_os/input/src/os_base\os_task_scheduler.c ****       if(task->state_request !=0)
 492              		.loc 1 303 0 is_stmt 1
 493 03a8 8B4508   		movl	8(%ebp), %eax
 494 03ab 8B4030   		movl	48(%eax), %eax
 495 03ae 85C0     		testl	%eax, %eax
 496 03b0 0F84A500 		je	L54
 496      0000
 304:E:/NeuOrga/Programmieren/c_cpp/github_os/input/src/os_base\os_task_scheduler.c ****       {
 305:E:/NeuOrga/Programmieren/c_cpp/github_os/input/src/os_base\os_task_scheduler.c ****          if(task->state_request(task, Task_running)== Accepted)
 497              		.loc 1 305 0
 498 03b6 8B4508   		movl	8(%ebp), %eax
 499 03b9 8B4030   		movl	48(%eax), %eax
 500 03bc C7442404 		movl	$3, 4(%esp)
 500      03000000 
 501 03c4 8B5508   		movl	8(%ebp), %edx
 502 03c7 891424   		movl	%edx, (%esp)
 503 03ca FFD0     		call	*%eax
 504 03cc 3C01     		cmpb	$1, %al
 505 03ce 7575     		jne	L55
 306:E:/NeuOrga/Programmieren/c_cpp/github_os/input/src/os_base\os_task_scheduler.c ****          {
 307:E:/NeuOrga/Programmieren/c_cpp/github_os/input/src/os_base\os_task_scheduler.c ****             DisableInterrupts();
 308:E:/NeuOrga/Programmieren/c_cpp/github_os/input/src/os_base\os_task_scheduler.c ****             task->active =  True;
GAS LISTING C:\Users\PRESID~1\AppData\Local\Temp\cc9Drh7C.s 			page 17


 506              		.loc 1 308 0
 507 03d0 8B4508   		movl	8(%ebp), %eax
 508 03d3 8A10     		movb	(%eax), %dl
 509 03d5 83CA01   		orl	$1, %edx
 510 03d8 8810     		movb	%dl, (%eax)
 309:E:/NeuOrga/Programmieren/c_cpp/github_os/input/src/os_base\os_task_scheduler.c ****             task->wait_time = 0;
 511              		.loc 1 309 0
 512 03da 8B4508   		movl	8(%ebp), %eax
 513 03dd C7400C00 		movl	$0, 12(%eax)
 513      000000
 310:E:/NeuOrga/Programmieren/c_cpp/github_os/input/src/os_base\os_task_scheduler.c ****             task->current_prio = task->default_prio;
 514              		.loc 1 310 0
 515 03e4 8B4508   		movl	8(%ebp), %eax
 516 03e7 8A5025   		movb	37(%eax), %dl
 517 03ea 8B4508   		movl	8(%ebp), %eax
 518 03ed 885024   		movb	%dl, 36(%eax)
 311:E:/NeuOrga/Programmieren/c_cpp/github_os/input/src/os_base\os_task_scheduler.c ****             OS_TASK_SAVE_SYSTEM_STACK((uint8*)&OS_MAIN_STACK);
 519              		.loc 1 311 0
 520 03f0 C7042400 		movl	$_OS_MAIN_STACK, (%esp)
 520      000000
 521 03f7 E8000000 		call	_OS_TASK_SAVE_SYSTEM_STACK
 521      00
 312:E:/NeuOrga/Programmieren/c_cpp/github_os/input/src/os_base\os_task_scheduler.c ****             OS_TASK_RESTORETASK_ENVIRONMENT(task);
 522              		.loc 1 312 0
 523 03fc 8B4508   		movl	8(%ebp), %eax
 524 03ff 890424   		movl	%eax, (%esp)
 525 0402 E8000000 		call	_OS_TASK_RESTORETASK_ENVIRONMENT
 525      00
 313:E:/NeuOrga/Programmieren/c_cpp/github_os/input/src/os_base\os_task_scheduler.c ****             task->start_time = OS_GetCurrentTime();
 526              		.loc 1 313 0
 527 0407 E8000000 		call	_OS_GetCurrentTime
 527      00
 528 040c 89C2     		movl	%eax, %edx
 529 040e 8B4508   		movl	8(%ebp), %eax
 530 0411 895020   		movl	%edx, 32(%eax)
 314:E:/NeuOrga/Programmieren/c_cpp/github_os/input/src/os_base\os_task_scheduler.c ****             EnableInterrupts();
 315:E:/NeuOrga/Programmieren/c_cpp/github_os/input/src/os_base\os_task_scheduler.c **** 
 316:E:/NeuOrga/Programmieren/c_cpp/github_os/input/src/os_base\os_task_scheduler.c ****             /* task execution shall not happen with disabled interrupts */
 317:E:/NeuOrga/Programmieren/c_cpp/github_os/input/src/os_base\os_task_scheduler.c ****             SET_RUNNING_TASK(task, scheduling_task);
 531              		.loc 1 317 0
 532 0414 8B450C   		movl	12(%ebp), %eax
 533 0417 89442404 		movl	%eax, 4(%esp)
 534 041b 8B4508   		movl	8(%ebp), %eax
 535 041e 890424   		movl	%eax, (%esp)
 536 0421 E8000000 		call	_SET_RUNNING_TASK
 536      00
 318:E:/NeuOrga/Programmieren/c_cpp/github_os/input/src/os_base\os_task_scheduler.c ****             /* change to user mode... */
 319:E:/NeuOrga/Programmieren/c_cpp/github_os/input/src/os_base\os_task_scheduler.c ****             if(task->privilige_mode == ePriviligeMode_unpriviliged_thread_mode)
 537              		.loc 1 319 0
 538 0426 8B4508   		movl	8(%ebp), %eax
 539 0429 8B4060   		movl	96(%eax), %eax
 540 042c 85C0     		testl	%eax, %eax
 541 042e 7505     		jne	L56
 320:E:/NeuOrga/Programmieren/c_cpp/github_os/input/src/os_base\os_task_scheduler.c ****             {
 321:E:/NeuOrga/Programmieren/c_cpp/github_os/input/src/os_base\os_task_scheduler.c ****                LLF_CHANGE_TO_UNPRIVILIGED_THREAD_MODE();
 542              		.loc 1 321 0
 543 0430 E8000000 		call	_LLF_CHANGE_TO_UNPRIVILIGED_THREAD_MODE
GAS LISTING C:\Users\PRESID~1\AppData\Local\Temp\cc9Drh7C.s 			page 18


 543      00
 544              	L56:
 322:E:/NeuOrga/Programmieren/c_cpp/github_os/input/src/os_base\os_task_scheduler.c ****             }
 323:E:/NeuOrga/Programmieren/c_cpp/github_os/input/src/os_base\os_task_scheduler.c **** 
 324:E:/NeuOrga/Programmieren/c_cpp/github_os/input/src/os_base\os_task_scheduler.c ****             /* call the task entry function */
 325:E:/NeuOrga/Programmieren/c_cpp/github_os/input/src/os_base\os_task_scheduler.c ****             task->fp(task);
 545              		.loc 1 325 0
 546 0435 8B4508   		movl	8(%ebp), %eax
 547 0438 8B402C   		movl	44(%eax), %eax
 548 043b 8B5508   		movl	8(%ebp), %edx
 549 043e 891424   		movl	%edx, (%esp)
 550 0441 FFD0     		call	*%eax
 551 0443 EB2A     		jmp	L51
 552              	L55:
 326:E:/NeuOrga/Programmieren/c_cpp/github_os/input/src/os_base\os_task_scheduler.c ****          }
 327:E:/NeuOrga/Programmieren/c_cpp/github_os/input/src/os_base\os_task_scheduler.c ****          else
 328:E:/NeuOrga/Programmieren/c_cpp/github_os/input/src/os_base\os_task_scheduler.c ****          {
 329:E:/NeuOrga/Programmieren/c_cpp/github_os/input/src/os_base\os_task_scheduler.c ****             OS_SetSwBug(os_bug_taskstate_request_denied, Func_StartTask);
 553              		.loc 1 329 0
 554 0445 C7442404 		movl	$6, 4(%esp)
 554      06000000 
 555 044d C7042401 		movl	$1, (%esp)
 555      000000
 556 0454 E8000000 		call	_OS_SetSwBug
 556      00
 557 0459 EB14     		jmp	L51
 558              	L54:
 330:E:/NeuOrga/Programmieren/c_cpp/github_os/input/src/os_base\os_task_scheduler.c ****          }
 331:E:/NeuOrga/Programmieren/c_cpp/github_os/input/src/os_base\os_task_scheduler.c ****       }
 332:E:/NeuOrga/Programmieren/c_cpp/github_os/input/src/os_base\os_task_scheduler.c ****       else
 333:E:/NeuOrga/Programmieren/c_cpp/github_os/input/src/os_base\os_task_scheduler.c ****       {
 334:E:/NeuOrga/Programmieren/c_cpp/github_os/input/src/os_base\os_task_scheduler.c ****          OS_SetSwBug(os_bug_null_pointer, Func_StartTask);
 559              		.loc 1 334 0
 560 045b C7442404 		movl	$6, 4(%esp)
 560      06000000 
 561 0463 C7042402 		movl	$2, (%esp)
 561      000000
 562 046a E8000000 		call	_OS_SetSwBug
 562      00
 563              	L51:
 335:E:/NeuOrga/Programmieren/c_cpp/github_os/input/src/os_base\os_task_scheduler.c ****       }
 336:E:/NeuOrga/Programmieren/c_cpp/github_os/input/src/os_base\os_task_scheduler.c ****    }
 337:E:/NeuOrga/Programmieren/c_cpp/github_os/input/src/os_base\os_task_scheduler.c ****    /* allowed in case of empty QUEUE elements (queue elements which have no activate_task yet recei
 338:E:/NeuOrga/Programmieren/c_cpp/github_os/input/src/os_base\os_task_scheduler.c ****    else
 339:E:/NeuOrga/Programmieren/c_cpp/github_os/input/src/os_base\os_task_scheduler.c ****    {
 340:E:/NeuOrga/Programmieren/c_cpp/github_os/input/src/os_base\os_task_scheduler.c ****        OS_SetSwBug(os_bug_null_pointer, Func_StartTask);
 341:E:/NeuOrga/Programmieren/c_cpp/github_os/input/src/os_base\os_task_scheduler.c ****    }
 342:E:/NeuOrga/Programmieren/c_cpp/github_os/input/src/os_base\os_task_scheduler.c ****    */
 343:E:/NeuOrga/Programmieren/c_cpp/github_os/input/src/os_base\os_task_scheduler.c **** }
 564              		.loc 1 343 0
 565 046f C9       		leave
 566              		.cfi_restore 5
 567              		.cfi_def_cfa 4, 4
 568 0470 C3       		ret
 569              		.cfi_endproc
 570              	LFE6:
 571              		.globl	_OS_TerminateTask
GAS LISTING C:\Users\PRESID~1\AppData\Local\Temp\cc9Drh7C.s 			page 19


 573              	_OS_TerminateTask:
 574              	LFB7:
 344:E:/NeuOrga/Programmieren/c_cpp/github_os/input/src/os_base\os_task_scheduler.c **** void OS_TerminateTask(task_t* task, scheduling_t* scheduling_task)
 345:E:/NeuOrga/Programmieren/c_cpp/github_os/input/src/os_base\os_task_scheduler.c **** {
 575              		.loc 1 345 0
 576              		.cfi_startproc
 577 0471 55       		pushl	%ebp
 578              		.cfi_def_cfa_offset 8
 579              		.cfi_offset 5, -8
 580 0472 89E5     		movl	%esp, %ebp
 581              		.cfi_def_cfa_register 5
 582 0474 83EC18   		subl	$24, %esp
 346:E:/NeuOrga/Programmieren/c_cpp/github_os/input/src/os_base\os_task_scheduler.c ****    /* Preempt task
 347:E:/NeuOrga/Programmieren/c_cpp/github_os/input/src/os_base\os_task_scheduler.c ****    - Disable Interrupts
 348:E:/NeuOrga/Programmieren/c_cpp/github_os/input/src/os_base\os_task_scheduler.c ****    - OS_TaskSaveTaskEnvironment
 349:E:/NeuOrga/Programmieren/c_cpp/github_os/input/src/os_base\os_task_scheduler.c ****    - add to Schedule Queue / delete from RunQueue
 350:E:/NeuOrga/Programmieren/c_cpp/github_os/input/src/os_base\os_task_scheduler.c ****    - delete active flag
 351:E:/NeuOrga/Programmieren/c_cpp/github_os/input/src/os_base\os_task_scheduler.c ****    - enable Interrupts
 352:E:/NeuOrga/Programmieren/c_cpp/github_os/input/src/os_base\os_task_scheduler.c ****    */
 353:E:/NeuOrga/Programmieren/c_cpp/github_os/input/src/os_base\os_task_scheduler.c ****    if(task != 0 && scheduling_task != 0)
 583              		.loc 1 353 0
 584 0477 837D0800 		cmpl	$0, 8(%ebp)
 585 047b 0F849F00 		je	L59
 585      0000
 586              		.loc 1 353 0 is_stmt 0 discriminator 1
 587 0481 837D0C00 		cmpl	$0, 12(%ebp)
 588 0485 0F849500 		je	L59
 588      0000
 354:E:/NeuOrga/Programmieren/c_cpp/github_os/input/src/os_base\os_task_scheduler.c ****    {
 355:E:/NeuOrga/Programmieren/c_cpp/github_os/input/src/os_base\os_task_scheduler.c ****       if(task->state_request != 0)
 589              		.loc 1 355 0 is_stmt 1
 590 048b 8B4508   		movl	8(%ebp), %eax
 591 048e 8B4030   		movl	48(%eax), %eax
 592 0491 85C0     		testl	%eax, %eax
 593 0493 7475     		je	L60
 356:E:/NeuOrga/Programmieren/c_cpp/github_os/input/src/os_base\os_task_scheduler.c ****       {
 357:E:/NeuOrga/Programmieren/c_cpp/github_os/input/src/os_base\os_task_scheduler.c ****          if(task->state_request(task, Task_suspended)== Accepted)
 594              		.loc 1 357 0
 595 0495 8B4508   		movl	8(%ebp), %eax
 596 0498 8B4030   		movl	48(%eax), %eax
 597 049b C7442404 		movl	$1, 4(%esp)
 597      01000000 
 598 04a3 8B5508   		movl	8(%ebp), %edx
 599 04a6 891424   		movl	%edx, (%esp)
 600 04a9 FFD0     		call	*%eax
 601 04ab 3C01     		cmpb	$1, %al
 602 04ad 7545     		jne	L61
 358:E:/NeuOrga/Programmieren/c_cpp/github_os/input/src/os_base\os_task_scheduler.c ****          {
 359:E:/NeuOrga/Programmieren/c_cpp/github_os/input/src/os_base\os_task_scheduler.c ****             DisableInterrupts();
 360:E:/NeuOrga/Programmieren/c_cpp/github_os/input/src/os_base\os_task_scheduler.c ****             OS_TaskSaveTaskEnvironment(task);
 603              		.loc 1 360 0
 604 04af 8B4508   		movl	8(%ebp), %eax
 605 04b2 890424   		movl	%eax, (%esp)
 606 04b5 E8000000 		call	_OS_TaskSaveTaskEnvironment
 606      00
 361:E:/NeuOrga/Programmieren/c_cpp/github_os/input/src/os_base\os_task_scheduler.c ****             OS_TASK_RESTORE_SYSTEM_STACK((uint8*)&OS_MAIN_STACK);
 607              		.loc 1 361 0
GAS LISTING C:\Users\PRESID~1\AppData\Local\Temp\cc9Drh7C.s 			page 20


 608 04ba C7042400 		movl	$_OS_MAIN_STACK, (%esp)
 608      000000
 609 04c1 E8000000 		call	_OS_TASK_RESTORE_SYSTEM_STACK
 609      00
 362:E:/NeuOrga/Programmieren/c_cpp/github_os/input/src/os_base\os_task_scheduler.c ****             DeleteFromTaskQueue(task);
 610              		.loc 1 362 0
 611 04c6 8B4508   		movl	8(%ebp), %eax
 612 04c9 890424   		movl	%eax, (%esp)
 613 04cc E8000000 		call	_DeleteFromTaskQueue
 613      00
 363:E:/NeuOrga/Programmieren/c_cpp/github_os/input/src/os_base\os_task_scheduler.c ****             DeleteFromSchedulingQueue(scheduling_task);
 614              		.loc 1 363 0
 615 04d1 8B450C   		movl	12(%ebp), %eax
 616 04d4 890424   		movl	%eax, (%esp)
 617 04d7 E8000000 		call	_DeleteFromSchedulingQueue
 617      00
 364:E:/NeuOrga/Programmieren/c_cpp/github_os/input/src/os_base\os_task_scheduler.c **** 
 365:E:/NeuOrga/Programmieren/c_cpp/github_os/input/src/os_base\os_task_scheduler.c ****             task->active = False;
 618              		.loc 1 365 0
 619 04dc 8B4508   		movl	8(%ebp), %eax
 620 04df 8A10     		movb	(%eax), %dl
 621 04e1 83E2FE   		andl	$-2, %edx
 622 04e4 8810     		movb	%dl, (%eax)
 366:E:/NeuOrga/Programmieren/c_cpp/github_os/input/src/os_base\os_task_scheduler.c ****             /* reset the prio increase for waiting */
 367:E:/NeuOrga/Programmieren/c_cpp/github_os/input/src/os_base\os_task_scheduler.c ****             task->current_prio = task->default_prio;
 623              		.loc 1 367 0
 624 04e6 8B4508   		movl	8(%ebp), %eax
 625 04e9 8A5025   		movb	37(%eax), %dl
 626 04ec 8B4508   		movl	8(%ebp), %eax
 627 04ef 885024   		movb	%dl, 36(%eax)
 355:E:/NeuOrga/Programmieren/c_cpp/github_os/input/src/os_base\os_task_scheduler.c ****       {
 628              		.loc 1 355 0
 629 04f2 EB40     		jmp	L58
 630              	L61:
 368:E:/NeuOrga/Programmieren/c_cpp/github_os/input/src/os_base\os_task_scheduler.c ****             EnableInterrupts();
 369:E:/NeuOrga/Programmieren/c_cpp/github_os/input/src/os_base\os_task_scheduler.c ****          }
 370:E:/NeuOrga/Programmieren/c_cpp/github_os/input/src/os_base\os_task_scheduler.c ****          else
 371:E:/NeuOrga/Programmieren/c_cpp/github_os/input/src/os_base\os_task_scheduler.c ****          {
 372:E:/NeuOrga/Programmieren/c_cpp/github_os/input/src/os_base\os_task_scheduler.c ****             OS_SetSwBug(os_bug_taskstate_request_denied, Func_TerminateTask);
 631              		.loc 1 372 0
 632 04f4 C7442404 		movl	$8, 4(%esp)
 632      08000000 
 633 04fc C7042401 		movl	$1, (%esp)
 633      000000
 634 0503 E8000000 		call	_OS_SetSwBug
 634      00
 355:E:/NeuOrga/Programmieren/c_cpp/github_os/input/src/os_base\os_task_scheduler.c ****       {
 635              		.loc 1 355 0
 636 0508 EB2A     		jmp	L58
 637              	L60:
 373:E:/NeuOrga/Programmieren/c_cpp/github_os/input/src/os_base\os_task_scheduler.c ****          }
 374:E:/NeuOrga/Programmieren/c_cpp/github_os/input/src/os_base\os_task_scheduler.c ****       }
 375:E:/NeuOrga/Programmieren/c_cpp/github_os/input/src/os_base\os_task_scheduler.c ****       else
 376:E:/NeuOrga/Programmieren/c_cpp/github_os/input/src/os_base\os_task_scheduler.c ****       {
 377:E:/NeuOrga/Programmieren/c_cpp/github_os/input/src/os_base\os_task_scheduler.c ****          OS_SetSwBug(os_bug_null_pointer, Func_TerminateTask);
 638              		.loc 1 377 0
 639 050a C7442404 		movl	$8, 4(%esp)
GAS LISTING C:\Users\PRESID~1\AppData\Local\Temp\cc9Drh7C.s 			page 21


 639      08000000 
 640 0512 C7042402 		movl	$2, (%esp)
 640      000000
 641 0519 E8000000 		call	_OS_SetSwBug
 641      00
 355:E:/NeuOrga/Programmieren/c_cpp/github_os/input/src/os_base\os_task_scheduler.c ****       {
 642              		.loc 1 355 0
 643 051e EB14     		jmp	L58
 644              	L59:
 378:E:/NeuOrga/Programmieren/c_cpp/github_os/input/src/os_base\os_task_scheduler.c ****       }
 379:E:/NeuOrga/Programmieren/c_cpp/github_os/input/src/os_base\os_task_scheduler.c ****    }
 380:E:/NeuOrga/Programmieren/c_cpp/github_os/input/src/os_base\os_task_scheduler.c ****    else
 381:E:/NeuOrga/Programmieren/c_cpp/github_os/input/src/os_base\os_task_scheduler.c ****    {
 382:E:/NeuOrga/Programmieren/c_cpp/github_os/input/src/os_base\os_task_scheduler.c ****       OS_SetSwBug(os_bug_null_pointer, Func_TerminateTask);
 645              		.loc 1 382 0
 646 0520 C7442404 		movl	$8, 4(%esp)
 646      08000000 
 647 0528 C7042402 		movl	$2, (%esp)
 647      000000
 648 052f E8000000 		call	_OS_SetSwBug
 648      00
 649              	L58:
 383:E:/NeuOrga/Programmieren/c_cpp/github_os/input/src/os_base\os_task_scheduler.c ****    }
 384:E:/NeuOrga/Programmieren/c_cpp/github_os/input/src/os_base\os_task_scheduler.c **** }
 650              		.loc 1 384 0
 651 0534 C9       		leave
 652              		.cfi_restore 5
 653              		.cfi_def_cfa 4, 4
 654 0535 C3       		ret
 655              		.cfi_endproc
 656              	LFE7:
 657              		.globl	_OS_TaskDispatcher
 659              	_OS_TaskDispatcher:
 660              	LFB8:
 385:E:/NeuOrga/Programmieren/c_cpp/github_os/input/src/os_base\os_task_scheduler.c **** void OS_TaskDispatcher(void)
 386:E:/NeuOrga/Programmieren/c_cpp/github_os/input/src/os_base\os_task_scheduler.c **** {
 661              		.loc 1 386 0
 662              		.cfi_startproc
 663 0536 55       		pushl	%ebp
 664              		.cfi_def_cfa_offset 8
 665              		.cfi_offset 5, -8
 666 0537 89E5     		movl	%esp, %ebp
 667              		.cfi_def_cfa_register 5
 668 0539 83EC28   		subl	$40, %esp
 387:E:/NeuOrga/Programmieren/c_cpp/github_os/input/src/os_base\os_task_scheduler.c ****    /* called in an certain core context (Core_0/1/2/3)*/
 388:E:/NeuOrga/Programmieren/c_cpp/github_os/input/src/os_base\os_task_scheduler.c **** 
 389:E:/NeuOrga/Programmieren/c_cpp/github_os/input/src/os_base\os_task_scheduler.c **** 
 390:E:/NeuOrga/Programmieren/c_cpp/github_os/input/src/os_base\os_task_scheduler.c ****    /*
 391:E:/NeuOrga/Programmieren/c_cpp/github_os/input/src/os_base\os_task_scheduler.c ****    1. running     --(terminate)--> suspend
 392:E:/NeuOrga/Programmieren/c_cpp/github_os/input/src/os_base\os_task_scheduler.c ****    2. running     --(preempt  )--> ready
 393:E:/NeuOrga/Programmieren/c_cpp/github_os/input/src/os_base\os_task_scheduler.c ****    3. suspend     --(activate )--> ready
 394:E:/NeuOrga/Programmieren/c_cpp/github_os/input/src/os_base\os_task_scheduler.c ****    4. ready       --(start    )--> running
 395:E:/NeuOrga/Programmieren/c_cpp/github_os/input/src/os_base\os_task_scheduler.c ****    5. unspecified --(create   )--> suspend
 396:E:/NeuOrga/Programmieren/c_cpp/github_os/input/src/os_base\os_task_scheduler.c ****    */
 397:E:/NeuOrga/Programmieren/c_cpp/github_os/input/src/os_base\os_task_scheduler.c ****    scheduling_t* scheduling_task_ptr;
 398:E:/NeuOrga/Programmieren/c_cpp/github_os/input/src/os_base\os_task_scheduler.c ****    task_t* task = 0;
 669              		.loc 1 398 0
GAS LISTING C:\Users\PRESID~1\AppData\Local\Temp\cc9Drh7C.s 			page 22


 670 053c C745F400 		movl	$0, -12(%ebp)
 670      000000
 399:E:/NeuOrga/Programmieren/c_cpp/github_os/input/src/os_base\os_task_scheduler.c ****    /* get running task */
 400:E:/NeuOrga/Programmieren/c_cpp/github_os/input/src/os_base\os_task_scheduler.c ****    task         = GetRunningTask();
 671              		.loc 1 400 0
 672 0543 E8000000 		call	_GetRunningTask
 672      00
 673 0548 8945F4   		movl	%eax, -12(%ebp)
 401:E:/NeuOrga/Programmieren/c_cpp/github_os/input/src/os_base\os_task_scheduler.c ****    scheduling_task_ptr = GetRunningSchedulingQueueElementPtr();
 674              		.loc 1 401 0
 675 054b E8000000 		call	_GetRunningSchedulingQueueElementPtr
 675      00
 676 0550 8945F0   		movl	%eax, -16(%ebp)
 402:E:/NeuOrga/Programmieren/c_cpp/github_os/input/src/os_base\os_task_scheduler.c ****    /* Preempt Task */
 403:E:/NeuOrga/Programmieren/c_cpp/github_os/input/src/os_base\os_task_scheduler.c ****    if(task!=0 && scheduling_task_ptr != 0)
 677              		.loc 1 403 0
 678 0553 837DF400 		cmpl	$0, -12(%ebp)
 679 0557 7418     		je	L66
 680              		.loc 1 403 0 is_stmt 0 discriminator 1
 681 0559 837DF000 		cmpl	$0, -16(%ebp)
 682 055d 7412     		je	L66
 404:E:/NeuOrga/Programmieren/c_cpp/github_os/input/src/os_base\os_task_scheduler.c ****    {
 405:E:/NeuOrga/Programmieren/c_cpp/github_os/input/src/os_base\os_task_scheduler.c ****       OS_TerminateTask(task, scheduling_task_ptr);
 683              		.loc 1 405 0 is_stmt 1
 684 055f 8B45F0   		movl	-16(%ebp), %eax
 685 0562 89442404 		movl	%eax, 4(%esp)
 686 0566 8B45F4   		movl	-12(%ebp), %eax
 687 0569 890424   		movl	%eax, (%esp)
 688 056c E800FFFF 		call	_OS_TerminateTask
 688      FF
 689              	L66:
 406:E:/NeuOrga/Programmieren/c_cpp/github_os/input/src/os_base\os_task_scheduler.c ****    }
 407:E:/NeuOrga/Programmieren/c_cpp/github_os/input/src/os_base\os_task_scheduler.c ****    /* ask for the next task to be activated... */
 408:E:/NeuOrga/Programmieren/c_cpp/github_os/input/src/os_base\os_task_scheduler.c ****    scheduling_task_ptr = OS_TaskScheduler();
 690              		.loc 1 408 0
 691 0571 E88A0200 		call	_OS_TaskScheduler
 691      00
 692 0576 8945F0   		movl	%eax, -16(%ebp)
 409:E:/NeuOrga/Programmieren/c_cpp/github_os/input/src/os_base\os_task_scheduler.c ****    if(scheduling_task_ptr != 0)
 693              		.loc 1 409 0
 694 0579 837DF000 		cmpl	$0, -16(%ebp)
 695 057d 740E     		je	L67
 410:E:/NeuOrga/Programmieren/c_cpp/github_os/input/src/os_base\os_task_scheduler.c ****    {
 411:E:/NeuOrga/Programmieren/c_cpp/github_os/input/src/os_base\os_task_scheduler.c ****       task = GetFromTaskQueue(scheduling_task_ptr);
 696              		.loc 1 411 0
 697 057f 8B45F0   		movl	-16(%ebp), %eax
 698 0582 890424   		movl	%eax, (%esp)
 699 0585 E8000000 		call	_GetFromTaskQueue
 699      00
 700 058a 8945F4   		movl	%eax, -12(%ebp)
 701              	L67:
 412:E:/NeuOrga/Programmieren/c_cpp/github_os/input/src/os_base\os_task_scheduler.c ****    }
 413:E:/NeuOrga/Programmieren/c_cpp/github_os/input/src/os_base\os_task_scheduler.c ****    if(task != 0 && scheduling_task_ptr != 0)
 702              		.loc 1 413 0
 703 058d 837DF400 		cmpl	$0, -12(%ebp)
 704 0591 7418     		je	L65
 705              		.loc 1 413 0 is_stmt 0 discriminator 1
GAS LISTING C:\Users\PRESID~1\AppData\Local\Temp\cc9Drh7C.s 			page 23


 706 0593 837DF000 		cmpl	$0, -16(%ebp)
 707 0597 7412     		je	L65
 414:E:/NeuOrga/Programmieren/c_cpp/github_os/input/src/os_base\os_task_scheduler.c ****    {
 415:E:/NeuOrga/Programmieren/c_cpp/github_os/input/src/os_base\os_task_scheduler.c ****        OS_StartTask(task, scheduling_task_ptr);
 708              		.loc 1 415 0 is_stmt 1
 709 0599 8B45F0   		movl	-16(%ebp), %eax
 710 059c 89442404 		movl	%eax, 4(%esp)
 711 05a0 8B45F4   		movl	-12(%ebp), %eax
 712 05a3 890424   		movl	%eax, (%esp)
 713 05a6 E8C7FDFF 		call	_OS_StartTask
 713      FF
 714              	L65:
 416:E:/NeuOrga/Programmieren/c_cpp/github_os/input/src/os_base\os_task_scheduler.c ****    }
 417:E:/NeuOrga/Programmieren/c_cpp/github_os/input/src/os_base\os_task_scheduler.c **** }
 715              		.loc 1 417 0
 716 05ab C9       		leave
 717              		.cfi_restore 5
 718              		.cfi_def_cfa 4, 4
 719 05ac C3       		ret
 720              		.cfi_endproc
 721              	LFE8:
 723              	_TASK_0:
 724              	LFB9:
 418:E:/NeuOrga/Programmieren/c_cpp/github_os/input/src/os_base\os_task_scheduler.c **** Local void TASK_0(void* task_ptr)
 419:E:/NeuOrga/Programmieren/c_cpp/github_os/input/src/os_base\os_task_scheduler.c **** {
 725              		.loc 1 419 0
 726              		.cfi_startproc
 727 05ad 55       		pushl	%ebp
 728              		.cfi_def_cfa_offset 8
 729              		.cfi_offset 5, -8
 730 05ae 89E5     		movl	%esp, %ebp
 731              		.cfi_def_cfa_register 5
 420:E:/NeuOrga/Programmieren/c_cpp/github_os/input/src/os_base\os_task_scheduler.c ****    ReferenceUnusedParameter(task_ptr);
 421:E:/NeuOrga/Programmieren/c_cpp/github_os/input/src/os_base\os_task_scheduler.c ****    HaltMcu();/* HLT will be ended by timer interrupt, what shall be done with the rest of the funct
 422:E:/NeuOrga/Programmieren/c_cpp/github_os/input/src/os_base\os_task_scheduler.c **** }
 732              		.loc 1 422 0
 733 05b0 5D       		popl	%ebp
 734              		.cfi_restore 5
 735              		.cfi_def_cfa 4, 4
 736 05b1 C3       		ret
 737              		.cfi_endproc
 738              	LFE9:
 740              	_TASK_1:
 741              	LFB10:
 423:E:/NeuOrga/Programmieren/c_cpp/github_os/input/src/os_base\os_task_scheduler.c **** Local void TASK_1(void* task_ptr)
 424:E:/NeuOrga/Programmieren/c_cpp/github_os/input/src/os_base\os_task_scheduler.c **** {
 742              		.loc 1 424 0
 743              		.cfi_startproc
 744 05b2 55       		pushl	%ebp
 745              		.cfi_def_cfa_offset 8
 746              		.cfi_offset 5, -8
 747 05b3 89E5     		movl	%esp, %ebp
 748              		.cfi_def_cfa_register 5
 749 05b5 83EC28   		subl	$40, %esp
 425:E:/NeuOrga/Programmieren/c_cpp/github_os/input/src/os_base\os_task_scheduler.c ****    scheduling_t* scheduling_task_ptr = 0;
 750              		.loc 1 425 0
 751 05b8 C745F400 		movl	$0, -12(%ebp)
GAS LISTING C:\Users\PRESID~1\AppData\Local\Temp\cc9Drh7C.s 			page 24


 751      000000
 426:E:/NeuOrga/Programmieren/c_cpp/github_os/input/src/os_base\os_task_scheduler.c ****    ReferenceUnusedParameter(task_ptr);
 427:E:/NeuOrga/Programmieren/c_cpp/github_os/input/src/os_base\os_task_scheduler.c ****    /* worker task */
 428:E:/NeuOrga/Programmieren/c_cpp/github_os/input/src/os_base\os_task_scheduler.c ****    scheduling_task_ptr = GetRunningSchedulingQueueElementPtr();
 752              		.loc 1 428 0
 753 05bf E8000000 		call	_GetRunningSchedulingQueueElementPtr
 753      00
 754 05c4 8945F4   		movl	%eax, -12(%ebp)
 429:E:/NeuOrga/Programmieren/c_cpp/github_os/input/src/os_base\os_task_scheduler.c ****    /* do some things */
 430:E:/NeuOrga/Programmieren/c_cpp/github_os/input/src/os_base\os_task_scheduler.c ****    TASK1_CALL_NR++;
 755              		.loc 1 430 0
 756 05c7 A1000000 		movl	_TASK1_CALL_NR, %eax
 756      00
 757 05cc 40       		incl	%eax
 758 05cd A3000000 		movl	%eax, _TASK1_CALL_NR
 758      00
 431:E:/NeuOrga/Programmieren/c_cpp/github_os/input/src/os_base\os_task_scheduler.c **** 
 432:E:/NeuOrga/Programmieren/c_cpp/github_os/input/src/os_base\os_task_scheduler.c **** 
 433:E:/NeuOrga/Programmieren/c_cpp/github_os/input/src/os_base\os_task_scheduler.c ****    /* end */
 434:E:/NeuOrga/Programmieren/c_cpp/github_os/input/src/os_base\os_task_scheduler.c ****    OS_TerminateTask(task_ptr,scheduling_task_ptr);
 759              		.loc 1 434 0
 760 05d2 8B45F4   		movl	-12(%ebp), %eax
 761 05d5 89442404 		movl	%eax, 4(%esp)
 762 05d9 8B4508   		movl	8(%ebp), %eax
 763 05dc 890424   		movl	%eax, (%esp)
 764 05df E88DFEFF 		call	_OS_TerminateTask
 764      FF
 435:E:/NeuOrga/Programmieren/c_cpp/github_os/input/src/os_base\os_task_scheduler.c **** }
 765              		.loc 1 435 0
 766 05e4 C9       		leave
 767              		.cfi_restore 5
 768              		.cfi_def_cfa 4, 4
 769 05e5 C3       		ret
 770              		.cfi_endproc
 771              	LFE10:
 773              	_TASK_2:
 774              	LFB11:
 436:E:/NeuOrga/Programmieren/c_cpp/github_os/input/src/os_base\os_task_scheduler.c **** Local void TASK_2(void* task_ptr)
 437:E:/NeuOrga/Programmieren/c_cpp/github_os/input/src/os_base\os_task_scheduler.c **** {
 775              		.loc 1 437 0
 776              		.cfi_startproc
 777 05e6 55       		pushl	%ebp
 778              		.cfi_def_cfa_offset 8
 779              		.cfi_offset 5, -8
 780 05e7 89E5     		movl	%esp, %ebp
 781              		.cfi_def_cfa_register 5
 782 05e9 83EC28   		subl	$40, %esp
 438:E:/NeuOrga/Programmieren/c_cpp/github_os/input/src/os_base\os_task_scheduler.c ****    scheduling_t* scheduling_task_ptr = 0;
 783              		.loc 1 438 0
 784 05ec C745F400 		movl	$0, -12(%ebp)
 784      000000
 439:E:/NeuOrga/Programmieren/c_cpp/github_os/input/src/os_base\os_task_scheduler.c ****    ReferenceUnusedParameter(task_ptr);
 440:E:/NeuOrga/Programmieren/c_cpp/github_os/input/src/os_base\os_task_scheduler.c ****    /* worker task */
 441:E:/NeuOrga/Programmieren/c_cpp/github_os/input/src/os_base\os_task_scheduler.c ****    scheduling_task_ptr = GetRunningSchedulingQueueElementPtr();
 785              		.loc 1 441 0
 786 05f3 E8000000 		call	_GetRunningSchedulingQueueElementPtr
 786      00
GAS LISTING C:\Users\PRESID~1\AppData\Local\Temp\cc9Drh7C.s 			page 25


 787 05f8 8945F4   		movl	%eax, -12(%ebp)
 442:E:/NeuOrga/Programmieren/c_cpp/github_os/input/src/os_base\os_task_scheduler.c ****    /* do some things */
 443:E:/NeuOrga/Programmieren/c_cpp/github_os/input/src/os_base\os_task_scheduler.c ****    TASK1_CALL_NR++;
 788              		.loc 1 443 0
 789 05fb A1000000 		movl	_TASK1_CALL_NR, %eax
 789      00
 790 0600 40       		incl	%eax
 791 0601 A3000000 		movl	%eax, _TASK1_CALL_NR
 791      00
 444:E:/NeuOrga/Programmieren/c_cpp/github_os/input/src/os_base\os_task_scheduler.c **** 
 445:E:/NeuOrga/Programmieren/c_cpp/github_os/input/src/os_base\os_task_scheduler.c **** 
 446:E:/NeuOrga/Programmieren/c_cpp/github_os/input/src/os_base\os_task_scheduler.c ****    /* end */
 447:E:/NeuOrga/Programmieren/c_cpp/github_os/input/src/os_base\os_task_scheduler.c ****    OS_TerminateTask(task_ptr,scheduling_task_ptr);
 792              		.loc 1 447 0
 793 0606 8B45F4   		movl	-12(%ebp), %eax
 794 0609 89442404 		movl	%eax, 4(%esp)
 795 060d 8B4508   		movl	8(%ebp), %eax
 796 0610 890424   		movl	%eax, (%esp)
 797 0613 E859FEFF 		call	_OS_TerminateTask
 797      FF
 448:E:/NeuOrga/Programmieren/c_cpp/github_os/input/src/os_base\os_task_scheduler.c **** }
 798              		.loc 1 448 0
 799 0618 C9       		leave
 800              		.cfi_restore 5
 801              		.cfi_def_cfa 4, 4
 802 0619 C3       		ret
 803              		.cfi_endproc
 804              	LFE11:
 806              	_TASK_3:
 807              	LFB12:
 449:E:/NeuOrga/Programmieren/c_cpp/github_os/input/src/os_base\os_task_scheduler.c **** Local void TASK_3(void* task_ptr)
 450:E:/NeuOrga/Programmieren/c_cpp/github_os/input/src/os_base\os_task_scheduler.c **** {
 808              		.loc 1 450 0
 809              		.cfi_startproc
 810 061a 55       		pushl	%ebp
 811              		.cfi_def_cfa_offset 8
 812              		.cfi_offset 5, -8
 813 061b 89E5     		movl	%esp, %ebp
 814              		.cfi_def_cfa_register 5
 815 061d 83EC28   		subl	$40, %esp
 451:E:/NeuOrga/Programmieren/c_cpp/github_os/input/src/os_base\os_task_scheduler.c ****    scheduling_t* scheduling_task_ptr = 0;
 816              		.loc 1 451 0
 817 0620 C745F400 		movl	$0, -12(%ebp)
 817      000000
 452:E:/NeuOrga/Programmieren/c_cpp/github_os/input/src/os_base\os_task_scheduler.c ****    ReferenceUnusedParameter(task_ptr);
 453:E:/NeuOrga/Programmieren/c_cpp/github_os/input/src/os_base\os_task_scheduler.c ****    /* worker task */
 454:E:/NeuOrga/Programmieren/c_cpp/github_os/input/src/os_base\os_task_scheduler.c ****    scheduling_task_ptr = GetRunningSchedulingQueueElementPtr();
 818              		.loc 1 454 0
 819 0627 E8000000 		call	_GetRunningSchedulingQueueElementPtr
 819      00
 820 062c 8945F4   		movl	%eax, -12(%ebp)
 455:E:/NeuOrga/Programmieren/c_cpp/github_os/input/src/os_base\os_task_scheduler.c ****    /* do some things */
 456:E:/NeuOrga/Programmieren/c_cpp/github_os/input/src/os_base\os_task_scheduler.c ****    TASK1_CALL_NR++;
 821              		.loc 1 456 0
 822 062f A1000000 		movl	_TASK1_CALL_NR, %eax
 822      00
 823 0634 40       		incl	%eax
GAS LISTING C:\Users\PRESID~1\AppData\Local\Temp\cc9Drh7C.s 			page 26


 824 0635 A3000000 		movl	%eax, _TASK1_CALL_NR
 824      00
 457:E:/NeuOrga/Programmieren/c_cpp/github_os/input/src/os_base\os_task_scheduler.c **** 
 458:E:/NeuOrga/Programmieren/c_cpp/github_os/input/src/os_base\os_task_scheduler.c **** 
 459:E:/NeuOrga/Programmieren/c_cpp/github_os/input/src/os_base\os_task_scheduler.c ****    /* end */
 460:E:/NeuOrga/Programmieren/c_cpp/github_os/input/src/os_base\os_task_scheduler.c ****    OS_TerminateTask(task_ptr,scheduling_task_ptr);
 825              		.loc 1 460 0
 826 063a 8B45F4   		movl	-12(%ebp), %eax
 827 063d 89442404 		movl	%eax, 4(%esp)
 828 0641 8B4508   		movl	8(%ebp), %eax
 829 0644 890424   		movl	%eax, (%esp)
 830 0647 E825FEFF 		call	_OS_TerminateTask
 830      FF
 461:E:/NeuOrga/Programmieren/c_cpp/github_os/input/src/os_base\os_task_scheduler.c **** }
 831              		.loc 1 461 0
 832 064c C9       		leave
 833              		.cfi_restore 5
 834              		.cfi_def_cfa 4, 4
 835 064d C3       		ret
 836              		.cfi_endproc
 837              	LFE12:
 838              		.globl	_OS_InitTasks
 840              	_OS_InitTasks:
 841              	LFB13:
 462:E:/NeuOrga/Programmieren/c_cpp/github_os/input/src/os_base\os_task_scheduler.c **** void OS_InitTasks(void)
 463:E:/NeuOrga/Programmieren/c_cpp/github_os/input/src/os_base\os_task_scheduler.c **** {
 842              		.loc 1 463 0
 843              		.cfi_startproc
 844 064e 55       		pushl	%ebp
 845              		.cfi_def_cfa_offset 8
 846              		.cfi_offset 5, -8
 847 064f 89E5     		movl	%esp, %ebp
 848              		.cfi_def_cfa_register 5
 849 0651 83EC48   		subl	$72, %esp
 464:E:/NeuOrga/Programmieren/c_cpp/github_os/input/src/os_base\os_task_scheduler.c ****    task_t* task_ptr = 0;
 850              		.loc 1 464 0
 851 0654 C745F400 		movl	$0, -12(%ebp)
 851      000000
 465:E:/NeuOrga/Programmieren/c_cpp/github_os/input/src/os_base\os_task_scheduler.c ****    LAST_CURRENT_TIME = OS_GetCurrentTime();
 852              		.loc 1 465 0
 853 065b E8000000 		call	_OS_GetCurrentTime
 853      00
 854 0660 A3000000 		movl	%eax, _LAST_CURRENT_TIME
 854      00
 466:E:/NeuOrga/Programmieren/c_cpp/github_os/input/src/os_base\os_task_scheduler.c **** 
 467:E:/NeuOrga/Programmieren/c_cpp/github_os/input/src/os_base\os_task_scheduler.c ****    ReferenceUnusedParameter (TASK_GROUP_1);
 468:E:/NeuOrga/Programmieren/c_cpp/github_os/input/src/os_base\os_task_scheduler.c ****    ReferenceUnusedParameter (TASK_GROUP_2);
 469:E:/NeuOrga/Programmieren/c_cpp/github_os/input/src/os_base\os_task_scheduler.c ****    ReferenceUnusedParameter (TASK_GROUP_3);
 470:E:/NeuOrga/Programmieren/c_cpp/github_os/input/src/os_base\os_task_scheduler.c ****    ReferenceUnusedParameter (TASK_GROUP_4);
 471:E:/NeuOrga/Programmieren/c_cpp/github_os/input/src/os_base\os_task_scheduler.c ****    ReferenceUnusedParameter (TASK_GROUP_5);
 472:E:/NeuOrga/Programmieren/c_cpp/github_os/input/src/os_base\os_task_scheduler.c **** 
 473:E:/NeuOrga/Programmieren/c_cpp/github_os/input/src/os_base\os_task_scheduler.c ****     /*
 474:E:/NeuOrga/Programmieren/c_cpp/github_os/input/src/os_base\os_task_scheduler.c ****    set task_state for all tasks to Task_unspecified
 475:E:/NeuOrga/Programmieren/c_cpp/github_os/input/src/os_base\os_task_scheduler.c ****     */
 476:E:/NeuOrga/Programmieren/c_cpp/github_os/input/src/os_base\os_task_scheduler.c ****    OS_InitTaskQueue();
 855              		.loc 1 476 0
 856 0665 E8000000 		call	_OS_InitTaskQueue
GAS LISTING C:\Users\PRESID~1\AppData\Local\Temp\cc9Drh7C.s 			page 27


 856      00
 477:E:/NeuOrga/Programmieren/c_cpp/github_os/input/src/os_base\os_task_scheduler.c **** 
 478:E:/NeuOrga/Programmieren/c_cpp/github_os/input/src/os_base\os_task_scheduler.c ****    /* setup idle task */
 479:E:/NeuOrga/Programmieren/c_cpp/github_os/input/src/os_base\os_task_scheduler.c ****    task_ptr = &TASK_0_VAR;
 857              		.loc 1 479 0
 858 066a C745F400 		movl	$_TASK_0_VAR, -12(%ebp)
 858      000000
 480:E:/NeuOrga/Programmieren/c_cpp/github_os/input/src/os_base\os_task_scheduler.c ****    OS_InitTask(task_ptr,                          /* task */
 859              		.loc 1 480 0
 860 0671 C7442424 		movl	$0, 36(%esp)
 860      00000000 
 861 0679 C7442420 		movl	$0, 32(%esp)
 861      00000000 
 862 0681 C744241C 		movl	$0, 28(%esp)
 862      00000000 
 863 0689 C7442418 		movl	$200, 24(%esp)
 863      C8000000 
 864 0691 C7442414 		movl	$_TASK_STACK, 20(%esp)
 864      00000000 
 865 0699 C7442410 		movl	$_TASK_GROUP_1, 16(%esp)
 865      00000000 
 866 06a1 C744240C 		movl	$1, 12(%esp)
 866      01000000 
 867 06a9 C7442408 		movl	$1, 8(%esp)
 867      01000000 
 868 06b1 C7442404 		movl	$_TASK_0, 4(%esp)
 868      AD050000 
 869 06b9 8B45F4   		movl	-12(%ebp), %eax
 870 06bc 890424   		movl	%eax, (%esp)
 871 06bf E8000000 		call	_OS_InitTask
 871      00
 481:E:/NeuOrga/Programmieren/c_cpp/github_os/input/src/os_base\os_task_scheduler.c ****                 &TASK_0,                           /* Task Function*/
 482:E:/NeuOrga/Programmieren/c_cpp/github_os/input/src/os_base\os_task_scheduler.c ****                 1,                                 /* Nr of allowed instances*/
 483:E:/NeuOrga/Programmieren/c_cpp/github_os/input/src/os_base\os_task_scheduler.c ****                 True,                              /* Idle Task */
 484:E:/NeuOrga/Programmieren/c_cpp/github_os/input/src/os_base\os_task_scheduler.c ****                 &TASK_GROUP_1,                     /* Task Group */
 485:E:/NeuOrga/Programmieren/c_cpp/github_os/input/src/os_base\os_task_scheduler.c ****                 (unsigned_char_t*)&TASK_STACK[0],  /* Task_stack */
 486:E:/NeuOrga/Programmieren/c_cpp/github_os/input/src/os_base\os_task_scheduler.c ****                 200,                                /* Stack Size */
 487:E:/NeuOrga/Programmieren/c_cpp/github_os/input/src/os_base\os_task_scheduler.c ****                 ePriviligeMode_unpriviliged_thread_mode, /* Unpriviliged Thread Mode */
 488:E:/NeuOrga/Programmieren/c_cpp/github_os/input/src/os_base\os_task_scheduler.c ****                 Core0,                            /* Cortex M4 has only 1 core */
 489:E:/NeuOrga/Programmieren/c_cpp/github_os/input/src/os_base\os_task_scheduler.c ****                 0                                   /* default prio */
 490:E:/NeuOrga/Programmieren/c_cpp/github_os/input/src/os_base\os_task_scheduler.c ****                );
 491:E:/NeuOrga/Programmieren/c_cpp/github_os/input/src/os_base\os_task_scheduler.c ****    AddToSchedulingQueue(task_ptr);
 872              		.loc 1 491 0
 873 06c4 8B45F4   		movl	-12(%ebp), %eax
 874 06c7 890424   		movl	%eax, (%esp)
 875 06ca E8000000 		call	_AddToSchedulingQueue
 875      00
 492:E:/NeuOrga/Programmieren/c_cpp/github_os/input/src/os_base\os_task_scheduler.c ****    OS_SaveTaskPtr(task_ptr, Task_0_ptr);
 493:E:/NeuOrga/Programmieren/c_cpp/github_os/input/src/os_base\os_task_scheduler.c **** 
 494:E:/NeuOrga/Programmieren/c_cpp/github_os/input/src/os_base\os_task_scheduler.c ****    /* setup worker task */
 495:E:/NeuOrga/Programmieren/c_cpp/github_os/input/src/os_base\os_task_scheduler.c ****    task_ptr = &TASK_1_VAR;
 876              		.loc 1 495 0
 877 06cf C745F400 		movl	$_TASK_1_VAR, -12(%ebp)
 877      000000
 496:E:/NeuOrga/Programmieren/c_cpp/github_os/input/src/os_base\os_task_scheduler.c ****    OS_InitTask(task_ptr,      /* task */
 878              		.loc 1 496 0
 879 06d6 C7442424 		movl	$1, 36(%esp)
GAS LISTING C:\Users\PRESID~1\AppData\Local\Temp\cc9Drh7C.s 			page 28


 879      01000000 
 880 06de C7442420 		movl	$0, 32(%esp)
 880      00000000 
 881 06e6 C744241C 		movl	$0, 28(%esp)
 881      00000000 
 882 06ee C7442418 		movl	$200, 24(%esp)
 882      C8000000 
 883 06f6 C7442414 		movl	$_TASK_STACK+2000, 20(%esp)
 883      D0070000 
 884 06fe C7442410 		movl	$_TASK_GROUP_1, 16(%esp)
 884      00000000 
 885 0706 C744240C 		movl	$0, 12(%esp)
 885      00000000 
 886 070e C7442408 		movl	$1, 8(%esp)
 886      01000000 
 887 0716 C7442404 		movl	$_TASK_1, 4(%esp)
 887      B2050000 
 888 071e 8B45F4   		movl	-12(%ebp), %eax
 889 0721 890424   		movl	%eax, (%esp)
 890 0724 E8000000 		call	_OS_InitTask
 890      00
 497:E:/NeuOrga/Programmieren/c_cpp/github_os/input/src/os_base\os_task_scheduler.c ****                 &TASK_1,       /* Task Function*/
 498:E:/NeuOrga/Programmieren/c_cpp/github_os/input/src/os_base\os_task_scheduler.c ****                 1,             /* Nr of allowed instances*/
 499:E:/NeuOrga/Programmieren/c_cpp/github_os/input/src/os_base\os_task_scheduler.c ****                 False,          /* Idle Task */
 500:E:/NeuOrga/Programmieren/c_cpp/github_os/input/src/os_base\os_task_scheduler.c ****                 &TASK_GROUP_1, /* Task Group */
 501:E:/NeuOrga/Programmieren/c_cpp/github_os/input/src/os_base\os_task_scheduler.c ****                 (unsigned_char_t*)&TASK_STACK[1],/* Task_stack */
 502:E:/NeuOrga/Programmieren/c_cpp/github_os/input/src/os_base\os_task_scheduler.c ****                 200,            /* Stack Size */
 503:E:/NeuOrga/Programmieren/c_cpp/github_os/input/src/os_base\os_task_scheduler.c ****                 ePriviligeMode_unpriviliged_thread_mode, /* Unpriviliged Thread Mode */
 504:E:/NeuOrga/Programmieren/c_cpp/github_os/input/src/os_base\os_task_scheduler.c ****                 Core0,
 505:E:/NeuOrga/Programmieren/c_cpp/github_os/input/src/os_base\os_task_scheduler.c ****                 1                                   /* default prio */
 506:E:/NeuOrga/Programmieren/c_cpp/github_os/input/src/os_base\os_task_scheduler.c ****                );
 507:E:/NeuOrga/Programmieren/c_cpp/github_os/input/src/os_base\os_task_scheduler.c ****    AddToSchedulingQueue(task_ptr);
 891              		.loc 1 507 0
 892 0729 8B45F4   		movl	-12(%ebp), %eax
 893 072c 890424   		movl	%eax, (%esp)
 894 072f E8000000 		call	_AddToSchedulingQueue
 894      00
 508:E:/NeuOrga/Programmieren/c_cpp/github_os/input/src/os_base\os_task_scheduler.c ****    OS_SaveTaskPtr(task_ptr, Task_1_ptr);
 509:E:/NeuOrga/Programmieren/c_cpp/github_os/input/src/os_base\os_task_scheduler.c **** 
 510:E:/NeuOrga/Programmieren/c_cpp/github_os/input/src/os_base\os_task_scheduler.c ****    /* setup worker task */
 511:E:/NeuOrga/Programmieren/c_cpp/github_os/input/src/os_base\os_task_scheduler.c ****    task_ptr = &TASK_2_VAR;
 895              		.loc 1 511 0
 896 0734 C745F400 		movl	$_TASK_2_VAR, -12(%ebp)
 896      000000
 512:E:/NeuOrga/Programmieren/c_cpp/github_os/input/src/os_base\os_task_scheduler.c ****    OS_InitTask(task_ptr,      /* task */
 897              		.loc 1 512 0
 898 073b C7442424 		movl	$2, 36(%esp)
 898      02000000 
 899 0743 C7442420 		movl	$0, 32(%esp)
 899      00000000 
 900 074b C744241C 		movl	$0, 28(%esp)
 900      00000000 
 901 0753 C7442418 		movl	$200, 24(%esp)
 901      C8000000 
 902 075b C7442414 		movl	$_TASK_STACK+4000, 20(%esp)
 902      A00F0000 
 903 0763 C7442410 		movl	$_TASK_GROUP_2, 16(%esp)
GAS LISTING C:\Users\PRESID~1\AppData\Local\Temp\cc9Drh7C.s 			page 29


 903      00000000 
 904 076b C744240C 		movl	$0, 12(%esp)
 904      00000000 
 905 0773 C7442408 		movl	$1, 8(%esp)
 905      01000000 
 906 077b C7442404 		movl	$_TASK_2, 4(%esp)
 906      E6050000 
 907 0783 8B45F4   		movl	-12(%ebp), %eax
 908 0786 890424   		movl	%eax, (%esp)
 909 0789 E8000000 		call	_OS_InitTask
 909      00
 513:E:/NeuOrga/Programmieren/c_cpp/github_os/input/src/os_base\os_task_scheduler.c ****                 &TASK_2,       /* Task Function*/
 514:E:/NeuOrga/Programmieren/c_cpp/github_os/input/src/os_base\os_task_scheduler.c ****                 1,             /* Nr of allowed instances*/
 515:E:/NeuOrga/Programmieren/c_cpp/github_os/input/src/os_base\os_task_scheduler.c ****                 False,          /* Idle Task */
 516:E:/NeuOrga/Programmieren/c_cpp/github_os/input/src/os_base\os_task_scheduler.c ****                 &TASK_GROUP_2, /* Task Group */
 517:E:/NeuOrga/Programmieren/c_cpp/github_os/input/src/os_base\os_task_scheduler.c ****                 (unsigned_char_t*)&TASK_STACK[2],/* Task_stack */
 518:E:/NeuOrga/Programmieren/c_cpp/github_os/input/src/os_base\os_task_scheduler.c ****                 200,            /* Stack Size */
 519:E:/NeuOrga/Programmieren/c_cpp/github_os/input/src/os_base\os_task_scheduler.c ****                 ePriviligeMode_unpriviliged_thread_mode, /* Unpriviliged Thread Mode */
 520:E:/NeuOrga/Programmieren/c_cpp/github_os/input/src/os_base\os_task_scheduler.c ****                 Core0,
 521:E:/NeuOrga/Programmieren/c_cpp/github_os/input/src/os_base\os_task_scheduler.c ****                 2                                   /* default prio */
 522:E:/NeuOrga/Programmieren/c_cpp/github_os/input/src/os_base\os_task_scheduler.c ****                );
 523:E:/NeuOrga/Programmieren/c_cpp/github_os/input/src/os_base\os_task_scheduler.c ****    AddToSchedulingQueue(task_ptr);
 910              		.loc 1 523 0
 911 078e 8B45F4   		movl	-12(%ebp), %eax
 912 0791 890424   		movl	%eax, (%esp)
 913 0794 E8000000 		call	_AddToSchedulingQueue
 913      00
 524:E:/NeuOrga/Programmieren/c_cpp/github_os/input/src/os_base\os_task_scheduler.c ****    OS_SaveTaskPtr(task_ptr, Task_2_ptr);
 525:E:/NeuOrga/Programmieren/c_cpp/github_os/input/src/os_base\os_task_scheduler.c **** 
 526:E:/NeuOrga/Programmieren/c_cpp/github_os/input/src/os_base\os_task_scheduler.c ****    /* setup worker task */
 527:E:/NeuOrga/Programmieren/c_cpp/github_os/input/src/os_base\os_task_scheduler.c ****    task_ptr = &TASK_3_VAR;
 914              		.loc 1 527 0
 915 0799 C745F400 		movl	$_TASK_3_VAR, -12(%ebp)
 915      000000
 528:E:/NeuOrga/Programmieren/c_cpp/github_os/input/src/os_base\os_task_scheduler.c ****    OS_InitTask(task_ptr,      /* task */
 916              		.loc 1 528 0
 917 07a0 C7442424 		movl	$3, 36(%esp)
 917      03000000 
 918 07a8 C7442420 		movl	$0, 32(%esp)
 918      00000000 
 919 07b0 C744241C 		movl	$0, 28(%esp)
 919      00000000 
 920 07b8 C7442418 		movl	$200, 24(%esp)
 920      C8000000 
 921 07c0 C7442414 		movl	$_TASK_STACK+6000, 20(%esp)
 921      70170000 
 922 07c8 C7442410 		movl	$_TASK_GROUP_3, 16(%esp)
 922      00000000 
 923 07d0 C744240C 		movl	$0, 12(%esp)
 923      00000000 
 924 07d8 C7442408 		movl	$1, 8(%esp)
 924      01000000 
 925 07e0 C7442404 		movl	$_TASK_3, 4(%esp)
 925      1A060000 
 926 07e8 8B45F4   		movl	-12(%ebp), %eax
 927 07eb 890424   		movl	%eax, (%esp)
 928 07ee E8000000 		call	_OS_InitTask
GAS LISTING C:\Users\PRESID~1\AppData\Local\Temp\cc9Drh7C.s 			page 30


 928      00
 529:E:/NeuOrga/Programmieren/c_cpp/github_os/input/src/os_base\os_task_scheduler.c ****                 &TASK_3,       /* Task Function*/
 530:E:/NeuOrga/Programmieren/c_cpp/github_os/input/src/os_base\os_task_scheduler.c ****                 1,             /* Nr of allowed instances*/
 531:E:/NeuOrga/Programmieren/c_cpp/github_os/input/src/os_base\os_task_scheduler.c ****                 False,          /* Idle Task */
 532:E:/NeuOrga/Programmieren/c_cpp/github_os/input/src/os_base\os_task_scheduler.c ****                 &TASK_GROUP_3, /* Task Group */
 533:E:/NeuOrga/Programmieren/c_cpp/github_os/input/src/os_base\os_task_scheduler.c ****                 (unsigned_char_t*)&TASK_STACK[3],/* Task_stack */
 534:E:/NeuOrga/Programmieren/c_cpp/github_os/input/src/os_base\os_task_scheduler.c ****                 200,           /* Stack Size */
 535:E:/NeuOrga/Programmieren/c_cpp/github_os/input/src/os_base\os_task_scheduler.c ****                 ePriviligeMode_unpriviliged_thread_mode, /* Unpriviliged Thread Mode */
 536:E:/NeuOrga/Programmieren/c_cpp/github_os/input/src/os_base\os_task_scheduler.c ****                 Core0,
 537:E:/NeuOrga/Programmieren/c_cpp/github_os/input/src/os_base\os_task_scheduler.c ****                 3                                   /* default prio */
 538:E:/NeuOrga/Programmieren/c_cpp/github_os/input/src/os_base\os_task_scheduler.c ****                );
 539:E:/NeuOrga/Programmieren/c_cpp/github_os/input/src/os_base\os_task_scheduler.c ****    AddToSchedulingQueue(task_ptr);
 929              		.loc 1 539 0
 930 07f3 8B45F4   		movl	-12(%ebp), %eax
 931 07f6 890424   		movl	%eax, (%esp)
 932 07f9 E8000000 		call	_AddToSchedulingQueue
 932      00
 540:E:/NeuOrga/Programmieren/c_cpp/github_os/input/src/os_base\os_task_scheduler.c ****    OS_SaveTaskPtr(task_ptr, Task_3_ptr);
 541:E:/NeuOrga/Programmieren/c_cpp/github_os/input/src/os_base\os_task_scheduler.c **** }
 933              		.loc 1 541 0
 934 07fe C9       		leave
 935              		.cfi_restore 5
 936              		.cfi_def_cfa 4, 4
 937 07ff C3       		ret
 938              		.cfi_endproc
 939              	LFE13:
 941              	_OS_TaskScheduler:
 942              	LFB14:
 542:E:/NeuOrga/Programmieren/c_cpp/github_os/input/src/os_base\os_task_scheduler.c **** 
 543:E:/NeuOrga/Programmieren/c_cpp/github_os/input/src/os_base\os_task_scheduler.c **** 
 544:E:/NeuOrga/Programmieren/c_cpp/github_os/input/src/os_base\os_task_scheduler.c **** Local scheduling_t* OS_TaskScheduler(void)
 545:E:/NeuOrga/Programmieren/c_cpp/github_os/input/src/os_base\os_task_scheduler.c **** {
 943              		.loc 1 545 0
 944              		.cfi_startproc
 945 0800 55       		pushl	%ebp
 946              		.cfi_def_cfa_offset 8
 947              		.cfi_offset 5, -8
 948 0801 89E5     		movl	%esp, %ebp
 949              		.cfi_def_cfa_register 5
 950 0803 53       		pushl	%ebx
 951 0804 83EC44   		subl	$68, %esp
 952              		.cfi_offset 3, -12
 546:E:/NeuOrga/Programmieren/c_cpp/github_os/input/src/os_base\os_task_scheduler.c **** 
 547:E:/NeuOrga/Programmieren/c_cpp/github_os/input/src/os_base\os_task_scheduler.c ****    scheduling_t*    scheduling_queue_member;
 548:E:/NeuOrga/Programmieren/c_cpp/github_os/input/src/os_base\os_task_scheduler.c ****    unsigned_char_t element_nr;
 549:E:/NeuOrga/Programmieren/c_cpp/github_os/input/src/os_base\os_task_scheduler.c **** 
 550:E:/NeuOrga/Programmieren/c_cpp/github_os/input/src/os_base\os_task_scheduler.c ****    unsigned_char_t Winner_prio = 0;
 953              		.loc 1 550 0
 954 0807 C645F600 		movb	$0, -10(%ebp)
 551:E:/NeuOrga/Programmieren/c_cpp/github_os/input/src/os_base\os_task_scheduler.c ****    task_t*         task = 0;
 955              		.loc 1 551 0
 956 080b C745EC00 		movl	$0, -20(%ebp)
 956      000000
 552:E:/NeuOrga/Programmieren/c_cpp/github_os/input/src/os_base\os_task_scheduler.c ****    task_t*         Winner_task = 0;
 957              		.loc 1 552 0
 958 0812 C745E800 		movl	$0, -24(%ebp)
 958      000000
GAS LISTING C:\Users\PRESID~1\AppData\Local\Temp\cc9Drh7C.s 			page 31


 553:E:/NeuOrga/Programmieren/c_cpp/github_os/input/src/os_base\os_task_scheduler.c ****    scheduling_t*   Winner_scheduling_queue_member = 0;
 959              		.loc 1 553 0
 960 0819 C745F000 		movl	$0, -16(%ebp)
 960      000000
 554:E:/NeuOrga/Programmieren/c_cpp/github_os/input/src/os_base\os_task_scheduler.c **** 
 555:E:/NeuOrga/Programmieren/c_cpp/github_os/input/src/os_base\os_task_scheduler.c ****    scheduler_time_t delta_time = OS_GetCurrentTime() - LAST_CURRENT_TIME;
 961              		.loc 1 555 0
 962 0820 E8000000 		call	_OS_GetCurrentTime
 962      00
 963 0825 89C2     		movl	%eax, %edx
 964 0827 A1000000 		movl	_LAST_CURRENT_TIME, %eax
 964      00
 965 082c 29C2     		subl	%eax, %edx
 966 082e 89D0     		movl	%edx, %eax
 967 0830 8945E4   		movl	%eax, -28(%ebp)
 556:E:/NeuOrga/Programmieren/c_cpp/github_os/input/src/os_base\os_task_scheduler.c **** 
 557:E:/NeuOrga/Programmieren/c_cpp/github_os/input/src/os_base\os_task_scheduler.c ****    LAST_CURRENT_TIME = OS_GetCurrentTime();
 968              		.loc 1 557 0
 969 0833 E8000000 		call	_OS_GetCurrentTime
 969      00
 970 0838 A3000000 		movl	%eax, _LAST_CURRENT_TIME
 970      00
 558:E:/NeuOrga/Programmieren/c_cpp/github_os/input/src/os_base\os_task_scheduler.c **** 
 559:E:/NeuOrga/Programmieren/c_cpp/github_os/input/src/os_base\os_task_scheduler.c ****    ReferenceUnusedParameter(Winner_task);
 560:E:/NeuOrga/Programmieren/c_cpp/github_os/input/src/os_base\os_task_scheduler.c ****    /*
 561:E:/NeuOrga/Programmieren/c_cpp/github_os/input/src/os_base\os_task_scheduler.c ****    x const for single task: task->default_prio // low = 0,.....high=100
 562:E:/NeuOrga/Programmieren/c_cpp/github_os/input/src/os_base\os_task_scheduler.c ****    x var   for single task: task->current_prio // see prio_std
 563:E:/NeuOrga/Programmieren/c_cpp/github_os/input/src/os_base\os_task_scheduler.c ****    x var   for single task: task->wait_time    //
 564:E:/NeuOrga/Programmieren/c_cpp/github_os/input/src/os_base\os_task_scheduler.c ****    x var   for single task: task->exe_time
 565:E:/NeuOrga/Programmieren/c_cpp/github_os/input/src/os_base\os_task_scheduler.c ****    x const for single task: task->TimeToPrioInc
 566:E:/NeuOrga/Programmieren/c_cpp/github_os/input/src/os_base\os_task_scheduler.c ****    x const for single task: task->max_allowed_wait_time
 567:E:/NeuOrga/Programmieren/c_cpp/github_os/input/src/os_base\os_task_scheduler.c ****    x const for single task: task->min_allowed_wait_time
 568:E:/NeuOrga/Programmieren/c_cpp/github_os/input/src/os_base\os_task_scheduler.c ****    x const for single task: task->overwaittime_per_prio_inc_step //e.g. 100*MinTimeSlice_us
 569:E:/NeuOrga/Programmieren/c_cpp/github_os/input/src/os_base\os_task_scheduler.c ****    x const for single task: task->task_group  //to allow processor access control by groups (e.g. u
 570:E:/NeuOrga/Programmieren/c_cpp/github_os/input/src/os_base\os_task_scheduler.c ****    x const for single task: task->WaitActUntil
 571:E:/NeuOrga/Programmieren/c_cpp/github_os/input/src/os_base\os_task_scheduler.c ****    (task_group is designed to allow proccessor access control between e.g. Customer Software Task a
 572:E:/NeuOrga/Programmieren/c_cpp/github_os/input/src/os_base\os_task_scheduler.c ****    */
 573:E:/NeuOrga/Programmieren/c_cpp/github_os/input/src/os_base\os_task_scheduler.c ****    For_all_tasks_in_queue(element_nr)
 971              		.loc 1 573 0
 972 083d C645F700 		movb	$0, -9(%ebp)
 973 0841 E9FA0000 		jmp	L75
 973      00
 974              	L83:
 574:E:/NeuOrga/Programmieren/c_cpp/github_os/input/src/os_base\os_task_scheduler.c ****    {
 575:E:/NeuOrga/Programmieren/c_cpp/github_os/input/src/os_base\os_task_scheduler.c ****       scheduling_queue_member = GetFromSchedulingQueue(element_nr);
 975              		.loc 1 575 0
 976 0846 0FB645F7 		movzbl	-9(%ebp), %eax
 977 084a 890424   		movl	%eax, (%esp)
 978 084d E8000000 		call	_GetFromSchedulingQueue
 978      00
 979 0852 8945E0   		movl	%eax, -32(%ebp)
 576:E:/NeuOrga/Programmieren/c_cpp/github_os/input/src/os_base\os_task_scheduler.c ****       /*task will have a pointer on the task_obj, and might be equal to "(task_t*) 0" */
 577:E:/NeuOrga/Programmieren/c_cpp/github_os/input/src/os_base\os_task_scheduler.c ****       task             = GetFromTaskQueue(scheduling_queue_member);
 980              		.loc 1 577 0
 981 0855 8B45E0   		movl	-32(%ebp), %eax
 982 0858 890424   		movl	%eax, (%esp)
 983 085b E8000000 		call	_GetFromTaskQueue
GAS LISTING C:\Users\PRESID~1\AppData\Local\Temp\cc9Drh7C.s 			page 32


 983      00
 984 0860 8945EC   		movl	%eax, -20(%ebp)
 578:E:/NeuOrga/Programmieren/c_cpp/github_os/input/src/os_base\os_task_scheduler.c ****       /* increase prio: high numbers->high prio */
 579:E:/NeuOrga/Programmieren/c_cpp/github_os/input/src/os_base\os_task_scheduler.c ****       if((task != 0)&&(task->task_queued != False))
 985              		.loc 1 579 0
 986 0863 837DEC00 		cmpl	$0, -20(%ebp)
 987 0867 0F84CC00 		je	L76
 987      0000
 988              		.loc 1 579 0 is_stmt 0 discriminator 1
 989 086d 8B45EC   		movl	-20(%ebp), %eax
 990 0870 8A00     		movb	(%eax), %al
 991 0872 83E002   		andl	$2, %eax
 992 0875 84C0     		testb	%al, %al
 993 0877 0F84BC00 		je	L76
 993      0000
 580:E:/NeuOrga/Programmieren/c_cpp/github_os/input/src/os_base\os_task_scheduler.c ****       {
 581:E:/NeuOrga/Programmieren/c_cpp/github_os/input/src/os_base\os_task_scheduler.c ****          if(task->wait_time >= task->TimeToPrioInc)
 994              		.loc 1 581 0 is_stmt 1
 995 087d 8B45EC   		movl	-20(%ebp), %eax
 996 0880 8B500C   		movl	12(%eax), %edx
 997 0883 8B45EC   		movl	-20(%ebp), %eax
 998 0886 8B4010   		movl	16(%eax), %eax
 999 0889 39C2     		cmpl	%eax, %edx
 1000 088b 7214     		jb	L77
 582:E:/NeuOrga/Programmieren/c_cpp/github_os/input/src/os_base\os_task_scheduler.c ****          {
 583:E:/NeuOrga/Programmieren/c_cpp/github_os/input/src/os_base\os_task_scheduler.c ****             task->current_prio = task->current_prio + task->overwaittime_per_prio_inc_step;
 1001              		.loc 1 583 0
 1002 088d 8B45EC   		movl	-20(%ebp), %eax
 1003 0890 8A5024   		movb	36(%eax), %dl
 1004 0893 8B45EC   		movl	-20(%ebp), %eax
 1005 0896 8B4014   		movl	20(%eax), %eax
 1006 0899 01C2     		addl	%eax, %edx
 1007 089b 8B45EC   		movl	-20(%ebp), %eax
 1008 089e 885024   		movb	%dl, 36(%eax)
 1009              	L77:
 584:E:/NeuOrga/Programmieren/c_cpp/github_os/input/src/os_base\os_task_scheduler.c ****          }
 585:E:/NeuOrga/Programmieren/c_cpp/github_os/input/src/os_base\os_task_scheduler.c ****          /* in case wait condition not yet fulfilled, set prio to 0 */
 586:E:/NeuOrga/Programmieren/c_cpp/github_os/input/src/os_base\os_task_scheduler.c ****          if(task->WaitActUntil > OS_GetCurrentTime())
 1010              		.loc 1 586 0
 1011 08a1 8B45EC   		movl	-20(%ebp), %eax
 1012 08a4 8B5808   		movl	8(%eax), %ebx
 1013 08a7 E8000000 		call	_OS_GetCurrentTime
 1013      00
 1014 08ac 39C3     		cmpl	%eax, %ebx
 1015 08ae 7607     		jbe	L78
 587:E:/NeuOrga/Programmieren/c_cpp/github_os/input/src/os_base\os_task_scheduler.c ****          {
 588:E:/NeuOrga/Programmieren/c_cpp/github_os/input/src/os_base\os_task_scheduler.c ****             task->current_prio = 0;
 1016              		.loc 1 588 0
 1017 08b0 8B45EC   		movl	-20(%ebp), %eax
 1018 08b3 C6402400 		movb	$0, 36(%eax)
 1019              	L78:
 589:E:/NeuOrga/Programmieren/c_cpp/github_os/input/src/os_base\os_task_scheduler.c ****          }
 590:E:/NeuOrga/Programmieren/c_cpp/github_os/input/src/os_base\os_task_scheduler.c ****          if(task->wait_time > task->max_allowed_wait_time)
 1020              		.loc 1 590 0
 1021 08b7 8B45EC   		movl	-20(%ebp), %eax
 1022 08ba 8B500C   		movl	12(%eax), %edx
 1023 08bd 8B45EC   		movl	-20(%ebp), %eax
GAS LISTING C:\Users\PRESID~1\AppData\Local\Temp\cc9Drh7C.s 			page 33


 1024 08c0 8B4018   		movl	24(%eax), %eax
 1025 08c3 39C2     		cmpl	%eax, %edx
 1026 08c5 7614     		jbe	L79
 591:E:/NeuOrga/Programmieren/c_cpp/github_os/input/src/os_base\os_task_scheduler.c ****          {
 592:E:/NeuOrga/Programmieren/c_cpp/github_os/input/src/os_base\os_task_scheduler.c ****             /* set bug */
 593:E:/NeuOrga/Programmieren/c_cpp/github_os/input/src/os_base\os_task_scheduler.c ****             OS_SetSwBug(os_bug_task_max_wait_time_reached, Func_TaskScheduler);
 1027              		.loc 1 593 0
 1028 08c7 C7442404 		movl	$9, 4(%esp)
 1028      09000000 
 1029 08cf C7042403 		movl	$3, (%esp)
 1029      000000
 1030 08d6 E8000000 		call	_OS_SetSwBug
 1030      00
 1031              	L79:
 594:E:/NeuOrga/Programmieren/c_cpp/github_os/input/src/os_base\os_task_scheduler.c ****          }
 595:E:/NeuOrga/Programmieren/c_cpp/github_os/input/src/os_base\os_task_scheduler.c ****          /* not active TASK_RUN_QUEUE elements have no valid task_group!!*/
 596:E:/NeuOrga/Programmieren/c_cpp/github_os/input/src/os_base\os_task_scheduler.c ****          if(task->task_group!=0)
 1032              		.loc 1 596 0
 1033 08db 8B45EC   		movl	-20(%ebp), %eax
 1034 08de 8B4038   		movl	56(%eax), %eax
 1035 08e1 85C0     		testl	%eax, %eax
 1036 08e3 7440     		je	L80
 597:E:/NeuOrga/Programmieren/c_cpp/github_os/input/src/os_base\os_task_scheduler.c ****          {
 598:E:/NeuOrga/Programmieren/c_cpp/github_os/input/src/os_base\os_task_scheduler.c ****             /* usage the exe time for scheduling strategy */
 599:E:/NeuOrga/Programmieren/c_cpp/github_os/input/src/os_base\os_task_scheduler.c ****             if(task->task_group->exe_time > task->task_group->fair_exe_time)
 1037              		.loc 1 599 0
 1038 08e5 8B45EC   		movl	-20(%ebp), %eax
 1039 08e8 8B4038   		movl	56(%eax), %eax
 1040 08eb 8B10     		movl	(%eax), %edx
 1041 08ed 8B45EC   		movl	-20(%ebp), %eax
 1042 08f0 8B4038   		movl	56(%eax), %eax
 1043 08f3 8B4004   		movl	4(%eax), %eax
 1044 08f6 39C2     		cmpl	%eax, %edx
 1045 08f8 763F     		jbe	L76
 600:E:/NeuOrga/Programmieren/c_cpp/github_os/input/src/os_base\os_task_scheduler.c ****             {
 601:E:/NeuOrga/Programmieren/c_cpp/github_os/input/src/os_base\os_task_scheduler.c ****                if(task->exe_time > Task_min_time)/* guarantee min time */
 1046              		.loc 1 601 0
 1047 08fa 8B45EC   		movl	-20(%ebp), %eax
 1048 08fd 8B401C   		movl	28(%eax), %eax
 1049 0900 8945D0   		movl	%eax, -48(%ebp)
 1050 0903 C745D400 		movl	$0, -44(%ebp)
 1050      000000
 1051 090a DF6DD0   		fildq	-48(%ebp)
 1052 090d D9E8     		fld1
 1053 090f D9C9     		fxch	%st(1)
 1054 0911 DAE9     		fucompp
 1055 0913 DFE0     		fnstsw	%ax
 1056 0915 F6C445   		testb	$69, %ah
 1057 0918 7402     		je	L89
 1058 091a EB1D     		jmp	L76
 1059              	L89:
 602:E:/NeuOrga/Programmieren/c_cpp/github_os/input/src/os_base\os_task_scheduler.c ****                {
 603:E:/NeuOrga/Programmieren/c_cpp/github_os/input/src/os_base\os_task_scheduler.c ****                   task->current_prio = 0;
 1060              		.loc 1 603 0
 1061 091c 8B45EC   		movl	-20(%ebp), %eax
 1062 091f C6402400 		movb	$0, 36(%eax)
 1063 0923 EB14     		jmp	L76
GAS LISTING C:\Users\PRESID~1\AppData\Local\Temp\cc9Drh7C.s 			page 34


 1064              	L80:
 604:E:/NeuOrga/Programmieren/c_cpp/github_os/input/src/os_base\os_task_scheduler.c **** 
 605:E:/NeuOrga/Programmieren/c_cpp/github_os/input/src/os_base\os_task_scheduler.c ****                }
 606:E:/NeuOrga/Programmieren/c_cpp/github_os/input/src/os_base\os_task_scheduler.c ****             }
 607:E:/NeuOrga/Programmieren/c_cpp/github_os/input/src/os_base\os_task_scheduler.c ****          }
 608:E:/NeuOrga/Programmieren/c_cpp/github_os/input/src/os_base\os_task_scheduler.c ****          else
 609:E:/NeuOrga/Programmieren/c_cpp/github_os/input/src/os_base\os_task_scheduler.c ****          {
 610:E:/NeuOrga/Programmieren/c_cpp/github_os/input/src/os_base\os_task_scheduler.c ****             OS_SetSwBug(os_bug_null_pointer, Func_TaskScheduler);
 1065              		.loc 1 610 0
 1066 0925 C7442404 		movl	$9, 4(%esp)
 1066      09000000 
 1067 092d C7042402 		movl	$2, (%esp)
 1067      000000
 1068 0934 E8000000 		call	_OS_SetSwBug
 1068      00
 1069              	L76:
 573:E:/NeuOrga/Programmieren/c_cpp/github_os/input/src/os_base\os_task_scheduler.c ****    {
 1070              		.loc 1 573 0 discriminator 2
 1071 0939 8A45F7   		movb	-9(%ebp), %al
 1072 093c 40       		incl	%eax
 1073 093d 8845F7   		movb	%al, -9(%ebp)
 1074              	L75:
 573:E:/NeuOrga/Programmieren/c_cpp/github_os/input/src/os_base\os_task_scheduler.c ****    {
 1075              		.loc 1 573 0 is_stmt 0 discriminator 1
 1076 0940 807DF709 		cmpb	$9, -9(%ebp)
 1077 0944 0F86FCFE 		jbe	L83
 1077      FFFF
 611:E:/NeuOrga/Programmieren/c_cpp/github_os/input/src/os_base\os_task_scheduler.c ****          }
 612:E:/NeuOrga/Programmieren/c_cpp/github_os/input/src/os_base\os_task_scheduler.c ****       }
 613:E:/NeuOrga/Programmieren/c_cpp/github_os/input/src/os_base\os_task_scheduler.c ****       /* do not set bug, because task =0 is used for empty queue elements
 614:E:/NeuOrga/Programmieren/c_cpp/github_os/input/src/os_base\os_task_scheduler.c ****       else
 615:E:/NeuOrga/Programmieren/c_cpp/github_os/input/src/os_base\os_task_scheduler.c ****       {
 616:E:/NeuOrga/Programmieren/c_cpp/github_os/input/src/os_base\os_task_scheduler.c ****           OS_SetSwBug(os_bug_null_pointer, Func_TaskScheduler);
 617:E:/NeuOrga/Programmieren/c_cpp/github_os/input/src/os_base\os_task_scheduler.c ****       }
 618:E:/NeuOrga/Programmieren/c_cpp/github_os/input/src/os_base\os_task_scheduler.c ****       */
 619:E:/NeuOrga/Programmieren/c_cpp/github_os/input/src/os_base\os_task_scheduler.c ****    }
 620:E:/NeuOrga/Programmieren/c_cpp/github_os/input/src/os_base\os_task_scheduler.c ****    For_all_tasks_in_queue(element_nr)
 1078              		.loc 1 620 0 is_stmt 1
 1079 094a C645F700 		movb	$0, -9(%ebp)
 1080 094e EB67     		jmp	L84
 1081              	L87:
 621:E:/NeuOrga/Programmieren/c_cpp/github_os/input/src/os_base\os_task_scheduler.c ****    {
 622:E:/NeuOrga/Programmieren/c_cpp/github_os/input/src/os_base\os_task_scheduler.c ****       scheduling_queue_member = GetFromSchedulingQueue(element_nr);
 1082              		.loc 1 622 0
 1083 0950 0FB645F7 		movzbl	-9(%ebp), %eax
 1084 0954 890424   		movl	%eax, (%esp)
 1085 0957 E8000000 		call	_GetFromSchedulingQueue
 1085      00
 1086 095c 8945E0   		movl	%eax, -32(%ebp)
 623:E:/NeuOrga/Programmieren/c_cpp/github_os/input/src/os_base\os_task_scheduler.c ****       task             = GetFromTaskQueue(scheduling_queue_member);
 1087              		.loc 1 623 0
 1088 095f 8B45E0   		movl	-32(%ebp), %eax
 1089 0962 890424   		movl	%eax, (%esp)
 1090 0965 E8000000 		call	_GetFromTaskQueue
 1090      00
 1091 096a 8945EC   		movl	%eax, -20(%ebp)
 624:E:/NeuOrga/Programmieren/c_cpp/github_os/input/src/os_base\os_task_scheduler.c ****       if(task != 0)
GAS LISTING C:\Users\PRESID~1\AppData\Local\Temp\cc9Drh7C.s 			page 35


 1092              		.loc 1 624 0
 1093 096d 837DEC00 		cmpl	$0, -20(%ebp)
 1094 0971 743D     		je	L85
 625:E:/NeuOrga/Programmieren/c_cpp/github_os/input/src/os_base\os_task_scheduler.c ****       {
 626:E:/NeuOrga/Programmieren/c_cpp/github_os/input/src/os_base\os_task_scheduler.c ****          /*update wait time */
 627:E:/NeuOrga/Programmieren/c_cpp/github_os/input/src/os_base\os_task_scheduler.c ****          if(task->IdleTask != True)
 1095              		.loc 1 627 0
 1096 0973 8B45EC   		movl	-20(%ebp), %eax
 1097 0976 8A00     		movb	(%eax), %al
 1098 0978 83E004   		andl	$4, %eax
 1099 097b 84C0     		testb	%al, %al
 1100 097d 7511     		jne	L86
 628:E:/NeuOrga/Programmieren/c_cpp/github_os/input/src/os_base\os_task_scheduler.c ****          {
 629:E:/NeuOrga/Programmieren/c_cpp/github_os/input/src/os_base\os_task_scheduler.c ****             task->wait_time += delta_time;
 1101              		.loc 1 629 0
 1102 097f 8B45EC   		movl	-20(%ebp), %eax
 1103 0982 8B500C   		movl	12(%eax), %edx
 1104 0985 8B45E4   		movl	-28(%ebp), %eax
 1105 0988 01C2     		addl	%eax, %edx
 1106 098a 8B45EC   		movl	-20(%ebp), %eax
 1107 098d 89500C   		movl	%edx, 12(%eax)
 1108              	L86:
 630:E:/NeuOrga/Programmieren/c_cpp/github_os/input/src/os_base\os_task_scheduler.c ****          }
 631:E:/NeuOrga/Programmieren/c_cpp/github_os/input/src/os_base\os_task_scheduler.c ****          /* search for task with highest prio and assign it to Winner_task */
 632:E:/NeuOrga/Programmieren/c_cpp/github_os/input/src/os_base\os_task_scheduler.c ****          if(task->current_prio > Winner_prio)
 1109              		.loc 1 632 0
 1110 0990 8B45EC   		movl	-20(%ebp), %eax
 1111 0993 8A4024   		movb	36(%eax), %al
 1112 0996 3A45F6   		cmpb	-10(%ebp), %al
 1113 0999 7615     		jbe	L85
 633:E:/NeuOrga/Programmieren/c_cpp/github_os/input/src/os_base\os_task_scheduler.c ****          {
 634:E:/NeuOrga/Programmieren/c_cpp/github_os/input/src/os_base\os_task_scheduler.c ****             Winner_prio = task->current_prio;
 1114              		.loc 1 634 0
 1115 099b 8B45EC   		movl	-20(%ebp), %eax
 1116 099e 8A4024   		movb	36(%eax), %al
 1117 09a1 8845F6   		movb	%al, -10(%ebp)
 635:E:/NeuOrga/Programmieren/c_cpp/github_os/input/src/os_base\os_task_scheduler.c ****             Winner_task = task;
 1118              		.loc 1 635 0
 1119 09a4 8B45EC   		movl	-20(%ebp), %eax
 1120 09a7 8945E8   		movl	%eax, -24(%ebp)
 636:E:/NeuOrga/Programmieren/c_cpp/github_os/input/src/os_base\os_task_scheduler.c ****             Winner_scheduling_queue_member = scheduling_queue_member;
 1121              		.loc 1 636 0
 1122 09aa 8B45E0   		movl	-32(%ebp), %eax
 1123 09ad 8945F0   		movl	%eax, -16(%ebp)
 1124              	L85:
 620:E:/NeuOrga/Programmieren/c_cpp/github_os/input/src/os_base\os_task_scheduler.c ****    {
 1125              		.loc 1 620 0 discriminator 2
 1126 09b0 8A45F7   		movb	-9(%ebp), %al
 1127 09b3 40       		incl	%eax
 1128 09b4 8845F7   		movb	%al, -9(%ebp)
 1129              	L84:
 620:E:/NeuOrga/Programmieren/c_cpp/github_os/input/src/os_base\os_task_scheduler.c ****    {
 1130              		.loc 1 620 0 is_stmt 0 discriminator 1
 1131 09b7 807DF709 		cmpb	$9, -9(%ebp)
 1132 09bb 7693     		jbe	L87
 637:E:/NeuOrga/Programmieren/c_cpp/github_os/input/src/os_base\os_task_scheduler.c ****          }
 638:E:/NeuOrga/Programmieren/c_cpp/github_os/input/src/os_base\os_task_scheduler.c **** 
GAS LISTING C:\Users\PRESID~1\AppData\Local\Temp\cc9Drh7C.s 			page 36


 639:E:/NeuOrga/Programmieren/c_cpp/github_os/input/src/os_base\os_task_scheduler.c ****       }
 640:E:/NeuOrga/Programmieren/c_cpp/github_os/input/src/os_base\os_task_scheduler.c ****       /* do not set bug, because task =0 is used for empty queue elements
 641:E:/NeuOrga/Programmieren/c_cpp/github_os/input/src/os_base\os_task_scheduler.c ****       else
 642:E:/NeuOrga/Programmieren/c_cpp/github_os/input/src/os_base\os_task_scheduler.c ****       {
 643:E:/NeuOrga/Programmieren/c_cpp/github_os/input/src/os_base\os_task_scheduler.c ****           OS_SetSwBug(os_bug_null_pointer, Func_TaskScheduler);
 644:E:/NeuOrga/Programmieren/c_cpp/github_os/input/src/os_base\os_task_scheduler.c ****       }
 645:E:/NeuOrga/Programmieren/c_cpp/github_os/input/src/os_base\os_task_scheduler.c ****       */
 646:E:/NeuOrga/Programmieren/c_cpp/github_os/input/src/os_base\os_task_scheduler.c ****    }
 647:E:/NeuOrga/Programmieren/c_cpp/github_os/input/src/os_base\os_task_scheduler.c ****    return Winner_scheduling_queue_member;
 1133              		.loc 1 647 0 is_stmt 1
 1134 09bd 8B45F0   		movl	-16(%ebp), %eax
 648:E:/NeuOrga/Programmieren/c_cpp/github_os/input/src/os_base\os_task_scheduler.c **** }
 1135              		.loc 1 648 0
 1136 09c0 83C444   		addl	$68, %esp
 1137 09c3 5B       		popl	%ebx
 1138              		.cfi_restore 3
 1139 09c4 5D       		popl	%ebp
 1140              		.cfi_restore 5
 1141              		.cfi_def_cfa 4, 4
 1142 09c5 C3       		ret
 1143              		.cfi_endproc
 1144              	LFE14:
 1145              	Letext0:
 1146              		.file 2 "E:/NeuOrga/Programmieren/c_cpp/github_os/input/src/os_base/../os_base/os_base_types.h"
 1147              		.file 3 "E:/NeuOrga/Programmieren/c_cpp/github_os/input/src/os_base/../os_base/os_common.h"
 1148              		.file 4 "E:/NeuOrga/Programmieren/c_cpp/github_os/input/src/os_base/../os_sim/lld_core.h"
 1149              		.file 5 "E:/NeuOrga/Programmieren/c_cpp/github_os/input/src/os_base/../os_sim/../os_base/os_task_c
 1150              		.file 6 "E:/NeuOrga/Programmieren/c_cpp/github_os/input/src/os_base/os_task_scheduler.h"
 1151              		.file 7 "E:/NeuOrga/Programmieren/c_cpp/github_os/input/src/os_base/../os_base/os_ram.h"