GAS LISTING C:\Users\PRESID~1\AppData\Local\Temp\cczIt3NK.s 			page 1


   1              		.file	"os_task_queue.c"
   2              		.text
   3              	Ltext0:
   4              		.globl	_SET_RUNNING_TASK
   6              	_SET_RUNNING_TASK:
   7              	LFB0:
   8              		.file 1 "E:/NeuOrga/Programmieren/c_cpp/github_os/input/src/os_base/os_task_queue.c"
   1:E:/NeuOrga/Programmieren/c_cpp/github_os/input/src/os_base\os_task_queue.c **** #include "os_firstinc.h"
   2:E:/NeuOrga/Programmieren/c_cpp/github_os/input/src/os_base\os_task_queue.c **** #include "os_task_common.h"
   3:E:/NeuOrga/Programmieren/c_cpp/github_os/input/src/os_base\os_task_queue.c **** #include "os_task_queue.h"
   4:E:/NeuOrga/Programmieren/c_cpp/github_os/input/src/os_base\os_task_queue.c **** #include "os_task_scheduler.h"
   5:E:/NeuOrga/Programmieren/c_cpp/github_os/input/src/os_base\os_task_queue.c **** 
   6:E:/NeuOrga/Programmieren/c_cpp/github_os/input/src/os_base\os_task_queue.c **** 
   7:E:/NeuOrga/Programmieren/c_cpp/github_os/input/src/os_base\os_task_queue.c **** 
   8:E:/NeuOrga/Programmieren/c_cpp/github_os/input/src/os_base\os_task_queue.c **** 
   9:E:/NeuOrga/Programmieren/c_cpp/github_os/input/src/os_base\os_task_queue.c **** 
  10:E:/NeuOrga/Programmieren/c_cpp/github_os/input/src/os_base\os_task_queue.c **** /* index 0: current task, 1,2,3,4: next tasks to be executed */
  11:E:/NeuOrga/Programmieren/c_cpp/github_os/input/src/os_base\os_task_queue.c **** /*
  12:E:/NeuOrga/Programmieren/c_cpp/github_os/input/src/os_base\os_task_queue.c **** 1. after execution of task finished(OS_TERMINATE_TASK):
  13:E:/NeuOrga/Programmieren/c_cpp/github_os/input/src/os_base\os_task_queue.c ****  - delete run_queue_element         (DELETE_FROM_TASK_QUEUE)
  14:E:/NeuOrga/Programmieren/c_cpp/github_os/input/src/os_base\os_task_queue.c ****  - delete Scheduling queue entry    (DELETE_FROM_SCHEDULING_QUEUE)
  15:E:/NeuOrga/Programmieren/c_cpp/github_os/input/src/os_base\os_task_queue.c ****  - shift pointers towards index 0   (UpdateSchedulingQueue)
  16:E:/NeuOrga/Programmieren/c_cpp/github_os/input/src/os_base\os_task_queue.c **** 
  17:E:/NeuOrga/Programmieren/c_cpp/github_os/input/src/os_base\os_task_queue.c **** 
  18:E:/NeuOrga/Programmieren/c_cpp/github_os/input/src/os_base\os_task_queue.c ****  2. to add new task (ActivateTask):
  19:E:/NeuOrga/Programmieren/c_cpp/github_os/input/src/os_base\os_task_queue.c ****  - add element to run_queue at first free element (ADD_TO_TASK_QUEUE)
  20:E:/NeuOrga/Programmieren/c_cpp/github_os/input/src/os_base\os_task_queue.c ****  - add a reference to the scheduling Queue         (ADD_TO_SCHEDULING_QUEUE)
  21:E:/NeuOrga/Programmieren/c_cpp/github_os/input/src/os_base\os_task_queue.c **** 
  22:E:/NeuOrga/Programmieren/c_cpp/github_os/input/src/os_base\os_task_queue.c ****  3. to start task:
  23:E:/NeuOrga/Programmieren/c_cpp/github_os/input/src/os_base\os_task_queue.c **** - start the task at index = 0                     (GET_FROM_TASK_QUEUE)
  24:E:/NeuOrga/Programmieren/c_cpp/github_os/input/src/os_base\os_task_queue.c **** 
  25:E:/NeuOrga/Programmieren/c_cpp/github_os/input/src/os_base\os_task_queue.c ****  4. to preempt task:
  26:E:/NeuOrga/Programmieren/c_cpp/github_os/input/src/os_base\os_task_queue.c **** - take element of index = 0 of SchedulingQueue and save it somewhere else  (UpdateSchedulingQueue)
  27:E:/NeuOrga/Programmieren/c_cpp/github_os/input/src/os_base\os_task_queue.c **** - shift all entries in SchedulingQueue to 0 by 1                           (UpdateSchedulingQueue)
  28:E:/NeuOrga/Programmieren/c_cpp/github_os/input/src/os_base\os_task_queue.c **** - add saved element at first free entry in SchedulingQueue                 (UpdateSchedulingQueue)
  29:E:/NeuOrga/Programmieren/c_cpp/github_os/input/src/os_base\os_task_queue.c **** - eliminate empty SchedulingQueue entries                                  (UpdateSchedulingQueue)
  30:E:/NeuOrga/Programmieren/c_cpp/github_os/input/src/os_base\os_task_queue.c ****  */
  31:E:/NeuOrga/Programmieren/c_cpp/github_os/input/src/os_base\os_task_queue.c **** 
  32:E:/NeuOrga/Programmieren/c_cpp/github_os/input/src/os_base\os_task_queue.c **** 
  33:E:/NeuOrga/Programmieren/c_cpp/github_os/input/src/os_base\os_task_queue.c **** void SET_RUNNING_TASK(task_t* task, scheduling_t* scheduling_task)
  34:E:/NeuOrga/Programmieren/c_cpp/github_os/input/src/os_base\os_task_queue.c **** {
   9              		.loc 1 34 0
  10              		.cfi_startproc
  11 0000 55       		pushl	%ebp
  12              		.cfi_def_cfa_offset 8
  13              		.cfi_offset 5, -8
  14 0001 89E5     		movl	%esp, %ebp
  15              		.cfi_def_cfa_register 5
  16 0003 83EC18   		subl	$24, %esp
  35:E:/NeuOrga/Programmieren/c_cpp/github_os/input/src/os_base\os_task_queue.c ****    RUNNING_SCHEDULING_QUEUE_ENTRY = scheduling_task;
  17              		.loc 1 35 0
  18 0006 8B450C   		movl	12(%ebp), %eax
  19 0009 A3000000 		movl	%eax, _RUNNING_SCHEDULING_QUEUE_ENTRY
  19      00
  36:E:/NeuOrga/Programmieren/c_cpp/github_os/input/src/os_base\os_task_queue.c ****    if(task != 0u)
  20              		.loc 1 36 0
  21 000e 837D0800 		cmpl	$0, 8(%ebp)
GAS LISTING C:\Users\PRESID~1\AppData\Local\Temp\cczIt3NK.s 			page 2


  22 0012 0F84E501 		je	L1
  22      0000
  37:E:/NeuOrga/Programmieren/c_cpp/github_os/input/src/os_base\os_task_queue.c ****    {
  38:E:/NeuOrga/Programmieren/c_cpp/github_os/input/src/os_base\os_task_queue.c ****       (&RUNNING_TASK[0u])->active                             = task->active;
  23              		.loc 1 38 0
  24 0018 8B4508   		movl	8(%ebp), %eax
  25 001b 8A00     		movb	(%eax), %al
  26 001d 83E001   		andl	$1, %eax
  27 0020 83E001   		andl	$1, %eax
  28 0023 88C2     		movb	%al, %dl
  29 0025 A0000000 		movb	_RUNNING_TASK, %al
  29      00
  30 002a 83E0FE   		andl	$-2, %eax
  31 002d 09D0     		orl	%edx, %eax
  32 002f A2000000 		movb	%al, _RUNNING_TASK
  32      00
  39:E:/NeuOrga/Programmieren/c_cpp/github_os/input/src/os_base\os_task_queue.c ****       (&RUNNING_TASK[0u])->task_queued                        = task->task_queued;
  33              		.loc 1 39 0
  34 0034 8B4508   		movl	8(%ebp), %eax
  35 0037 8A00     		movb	(%eax), %al
  36 0039 D0E8     		shrb	%al
  37 003b 83E001   		andl	$1, %eax
  38 003e 83E001   		andl	$1, %eax
  39 0041 8D1400   		leal	(%eax,%eax), %edx
  40 0044 A0000000 		movb	_RUNNING_TASK, %al
  40      00
  41 0049 83E0FD   		andl	$-3, %eax
  42 004c 09D0     		orl	%edx, %eax
  43 004e A2000000 		movb	%al, _RUNNING_TASK
  43      00
  40:E:/NeuOrga/Programmieren/c_cpp/github_os/input/src/os_base\os_task_queue.c ****       (&RUNNING_TASK[0u])->idle_task                          = task->idle_task;
  44              		.loc 1 40 0
  45 0053 8B4508   		movl	8(%ebp), %eax
  46 0056 8A00     		movb	(%eax), %al
  47 0058 C0E802   		shrb	$2, %al
  48 005b 83E001   		andl	$1, %eax
  49 005e 83E001   		andl	$1, %eax
  50 0061 8D148500 		leal	0(,%eax,4), %edx
  50      000000
  51 0068 A0000000 		movb	_RUNNING_TASK, %al
  51      00
  52 006d 83E0FB   		andl	$-5, %eax
  53 0070 09D0     		orl	%edx, %eax
  54 0072 A2000000 		movb	%al, _RUNNING_TASK
  54      00
  41:E:/NeuOrga/Programmieren/c_cpp/github_os/input/src/os_base\os_task_queue.c ****       (&RUNNING_TASK[0u])->free                               = task->free;
  55              		.loc 1 41 0
  56 0077 8B4508   		movl	8(%ebp), %eax
  57 007a 8B00     		movl	(%eax), %eax
  58 007c C1E803   		shrl	$3, %eax
  59 007f 8D14C500 		leal	0(,%eax,8), %edx
  59      000000
  60 0086 A1000000 		movl	_RUNNING_TASK, %eax
  60      00
  61 008b 83E007   		andl	$7, %eax
  62 008e 09D0     		orl	%edx, %eax
  63 0090 A3000000 		movl	%eax, _RUNNING_TASK
GAS LISTING C:\Users\PRESID~1\AppData\Local\Temp\cczIt3NK.s 			page 3


  63      00
  42:E:/NeuOrga/Programmieren/c_cpp/github_os/input/src/os_base\os_task_queue.c ****       (&RUNNING_TASK[0u])->nr_of_ins_allowed                  = task->nr_of_ins_allowed;
  64              		.loc 1 42 0
  65 0095 8B4508   		movl	8(%ebp), %eax
  66 0098 8A4004   		movb	4(%eax), %al
  67 009b A2040000 		movb	%al, _RUNNING_TASK+4
  67      00
  43:E:/NeuOrga/Programmieren/c_cpp/github_os/input/src/os_base\os_task_queue.c ****       (&RUNNING_TASK[0u])->nr_of_ins_activated                = task->nr_of_ins_activated;
  68              		.loc 1 43 0
  69 00a0 8B4508   		movl	8(%ebp), %eax
  70 00a3 8A4005   		movb	5(%eax), %al
  71 00a6 A2050000 		movb	%al, _RUNNING_TASK+5
  71      00
  44:E:/NeuOrga/Programmieren/c_cpp/github_os/input/src/os_base\os_task_queue.c ****       ASSIGN(&(&RUNNING_TASK[0u])->wait_act_until, &task->wait_act_until);
  72              		.loc 1 44 0
  73 00ab 8B4508   		movl	8(%ebp), %eax
  74 00ae 83C006   		addl	$6, %eax
  75 00b1 89442404 		movl	%eax, 4(%esp)
  76 00b5 C7042406 		movl	$_RUNNING_TASK+6, (%esp)
  76      000000
  77 00bc E8000000 		call	_ASSIGN
  77      00
  45:E:/NeuOrga/Programmieren/c_cpp/github_os/input/src/os_base\os_task_queue.c ****       ASSIGN(&(&RUNNING_TASK[0u])->wait_time, &task->wait_time);
  78              		.loc 1 45 0
  79 00c1 8B4508   		movl	8(%ebp), %eax
  80 00c4 83C016   		addl	$22, %eax
  81 00c7 89442404 		movl	%eax, 4(%esp)
  82 00cb C7042416 		movl	$_RUNNING_TASK+22, (%esp)
  82      000000
  83 00d2 E8000000 		call	_ASSIGN
  83      00
  46:E:/NeuOrga/Programmieren/c_cpp/github_os/input/src/os_base\os_task_queue.c ****       ASSIGN(&(&RUNNING_TASK[0u])->time_to_prio_inc, &task->time_to_prio_inc);
  84              		.loc 1 46 0
  85 00d7 8B4508   		movl	8(%ebp), %eax
  86 00da 83C026   		addl	$38, %eax
  87 00dd 89442404 		movl	%eax, 4(%esp)
  88 00e1 C7042426 		movl	$_RUNNING_TASK+38, (%esp)
  88      000000
  89 00e8 E8000000 		call	_ASSIGN
  89      00
  47:E:/NeuOrga/Programmieren/c_cpp/github_os/input/src/os_base\os_task_queue.c ****       (&RUNNING_TASK[0u])->overwaittime_per_prio_inc_step  = task->overwaittime_per_prio_inc_step;
  90              		.loc 1 47 0
  91 00ed 8B4508   		movl	8(%ebp), %eax
  92 00f0 8B4038   		movl	56(%eax), %eax
  93 00f3 A3380000 		movl	%eax, _RUNNING_TASK+56
  93      00
  48:E:/NeuOrga/Programmieren/c_cpp/github_os/input/src/os_base\os_task_queue.c ****       ASSIGN(&(&RUNNING_TASK[0u])->max_allowed_wait_time, &task->max_allowed_wait_time);
  94              		.loc 1 48 0
  95 00f8 8B4508   		movl	8(%ebp), %eax
  96 00fb 83C03C   		addl	$60, %eax
  97 00fe 89442404 		movl	%eax, 4(%esp)
  98 0102 C704243C 		movl	$_RUNNING_TASK+60, (%esp)
  98      000000
  99 0109 E8000000 		call	_ASSIGN
  99      00
  49:E:/NeuOrga/Programmieren/c_cpp/github_os/input/src/os_base\os_task_queue.c ****       ASSIGN(&(&RUNNING_TASK[0u])->exe_time, &task->exe_time  );
 100              		.loc 1 49 0
GAS LISTING C:\Users\PRESID~1\AppData\Local\Temp\cczIt3NK.s 			page 4


 101 010e 8B4508   		movl	8(%ebp), %eax
 102 0111 83C04C   		addl	$76, %eax
 103 0114 89442404 		movl	%eax, 4(%esp)
 104 0118 C704244C 		movl	$_RUNNING_TASK+76, (%esp)
 104      000000
 105 011f E8000000 		call	_ASSIGN
 105      00
  50:E:/NeuOrga/Programmieren/c_cpp/github_os/input/src/os_base\os_task_queue.c ****       ASSIGN(&(&RUNNING_TASK[0u])->start_time, &task->start_time);
 106              		.loc 1 50 0
 107 0124 8B4508   		movl	8(%ebp), %eax
 108 0127 83C05C   		addl	$92, %eax
 109 012a 89442404 		movl	%eax, 4(%esp)
 110 012e C704245C 		movl	$_RUNNING_TASK+92, (%esp)
 110      000000
 111 0135 E8000000 		call	_ASSIGN
 111      00
  51:E:/NeuOrga/Programmieren/c_cpp/github_os/input/src/os_base\os_task_queue.c ****       (&RUNNING_TASK[0u])->current_prio                    = task->current_prio;
 112              		.loc 1 51 0
 113 013a 8B4508   		movl	8(%ebp), %eax
 114 013d 8A406C   		movb	108(%eax), %al
 115 0140 A26C0000 		movb	%al, _RUNNING_TASK+108
 115      00
  52:E:/NeuOrga/Programmieren/c_cpp/github_os/input/src/os_base\os_task_queue.c ****       (&RUNNING_TASK[0u])->default_prio                    = task->default_prio;
 116              		.loc 1 52 0
 117 0145 8B4508   		movl	8(%ebp), %eax
 118 0148 8A406D   		movb	109(%eax), %al
 119 014b A26D0000 		movb	%al, _RUNNING_TASK+109
 119      00
  53:E:/NeuOrga/Programmieren/c_cpp/github_os/input/src/os_base\os_task_queue.c ****       (&RUNNING_TASK[0u])->fp                              = task->fp;
 120              		.loc 1 53 0
 121 0150 8B4508   		movl	8(%ebp), %eax
 122 0153 8B4074   		movl	116(%eax), %eax
 123 0156 A3740000 		movl	%eax, _RUNNING_TASK+116
 123      00
  54:E:/NeuOrga/Programmieren/c_cpp/github_os/input/src/os_base\os_task_queue.c ****       (&RUNNING_TASK[0u])->state_request                   = task->state_request;
 124              		.loc 1 54 0
 125 015b 8B4508   		movl	8(%ebp), %eax
 126 015e 8B4078   		movl	120(%eax), %eax
 127 0161 A3780000 		movl	%eax, _RUNNING_TASK+120
 127      00
  55:E:/NeuOrga/Programmieren/c_cpp/github_os/input/src/os_base\os_task_queue.c ****       (&RUNNING_TASK[0u])->task_state                      = task->task_state;
 128              		.loc 1 55 0
 129 0166 8B4508   		movl	8(%ebp), %eax
 130 0169 8B407C   		movl	124(%eax), %eax
 131 016c A37C0000 		movl	%eax, _RUNNING_TASK+124
 131      00
  56:E:/NeuOrga/Programmieren/c_cpp/github_os/input/src/os_base\os_task_queue.c ****       (&RUNNING_TASK[0u])->task_group                      = task->task_group;
 132              		.loc 1 56 0
 133 0171 8B4508   		movl	8(%ebp), %eax
 134 0174 8B808000 		movl	128(%eax), %eax
 134      0000
 135 017a A3800000 		movl	%eax, _RUNNING_TASK+128
 135      00
  57:E:/NeuOrga/Programmieren/c_cpp/github_os/input/src/os_base\os_task_queue.c **** #if(CFG_PROCESSOR == MCU_X86)
  58:E:/NeuOrga/Programmieren/c_cpp/github_os/input/src/os_base\os_task_queue.c ****       (&RUNNING_TASK[0u])->eax                             = task->eax;
 136              		.loc 1 58 0
 137 017f 8B4508   		movl	8(%ebp), %eax
GAS LISTING C:\Users\PRESID~1\AppData\Local\Temp\cczIt3NK.s 			page 5


 138 0182 8B808400 		movl	132(%eax), %eax
 138      0000
 139 0188 A3840000 		movl	%eax, _RUNNING_TASK+132
 139      00
  59:E:/NeuOrga/Programmieren/c_cpp/github_os/input/src/os_base\os_task_queue.c ****       (&RUNNING_TASK[0u])->ebx                             = task->ebx;
 140              		.loc 1 59 0
 141 018d 8B4508   		movl	8(%ebp), %eax
 142 0190 8B808800 		movl	136(%eax), %eax
 142      0000
 143 0196 A3880000 		movl	%eax, _RUNNING_TASK+136
 143      00
  60:E:/NeuOrga/Programmieren/c_cpp/github_os/input/src/os_base\os_task_queue.c ****       (&RUNNING_TASK[0u])->ecx                             = task->ecx;
 144              		.loc 1 60 0
 145 019b 8B4508   		movl	8(%ebp), %eax
 146 019e 8B808C00 		movl	140(%eax), %eax
 146      0000
 147 01a4 A38C0000 		movl	%eax, _RUNNING_TASK+140
 147      00
  61:E:/NeuOrga/Programmieren/c_cpp/github_os/input/src/os_base\os_task_queue.c ****       (&RUNNING_TASK[0u])->edx                             = task->edx;
 148              		.loc 1 61 0
 149 01a9 8B4508   		movl	8(%ebp), %eax
 150 01ac 8B809000 		movl	144(%eax), %eax
 150      0000
 151 01b2 A3900000 		movl	%eax, _RUNNING_TASK+144
 151      00
  62:E:/NeuOrga/Programmieren/c_cpp/github_os/input/src/os_base\os_task_queue.c **** #else
  63:E:/NeuOrga/Programmieren/c_cpp/github_os/input/src/os_base\os_task_queue.c ****       (&RUNNING_TASK[0u])->r0                             = task->r0;
  64:E:/NeuOrga/Programmieren/c_cpp/github_os/input/src/os_base\os_task_queue.c ****       (&RUNNING_TASK[0u])->r1                             = task->r1;
  65:E:/NeuOrga/Programmieren/c_cpp/github_os/input/src/os_base\os_task_queue.c ****       (&RUNNING_TASK[0u])->r2                             = task->r2;
  66:E:/NeuOrga/Programmieren/c_cpp/github_os/input/src/os_base\os_task_queue.c ****       (&RUNNING_TASK[0u])->r3                             = task->r3;
  67:E:/NeuOrga/Programmieren/c_cpp/github_os/input/src/os_base\os_task_queue.c ****       (&RUNNING_TASK[0u])->r4                             = task->r4;
  68:E:/NeuOrga/Programmieren/c_cpp/github_os/input/src/os_base\os_task_queue.c ****       (&RUNNING_TASK[0u])->r5                             = task->r5;
  69:E:/NeuOrga/Programmieren/c_cpp/github_os/input/src/os_base\os_task_queue.c ****       (&RUNNING_TASK[0u])->r6                             = task->r6;
  70:E:/NeuOrga/Programmieren/c_cpp/github_os/input/src/os_base\os_task_queue.c ****       (&RUNNING_TASK[0u])->r7                             = task->r7;
  71:E:/NeuOrga/Programmieren/c_cpp/github_os/input/src/os_base\os_task_queue.c ****       (&RUNNING_TASK[0u])->r8                             = task->r8;
  72:E:/NeuOrga/Programmieren/c_cpp/github_os/input/src/os_base\os_task_queue.c ****       (&RUNNING_TASK[0u])->r9                             = task->r9;
  73:E:/NeuOrga/Programmieren/c_cpp/github_os/input/src/os_base\os_task_queue.c ****       (&RUNNING_TASK[0u])->r10                            = task->r10;
  74:E:/NeuOrga/Programmieren/c_cpp/github_os/input/src/os_base\os_task_queue.c ****       (&RUNNING_TASK[0u])->r11                            = task->r11;
  75:E:/NeuOrga/Programmieren/c_cpp/github_os/input/src/os_base\os_task_queue.c ****       (&RUNNING_TASK[0u])->r12                            = task->r12;
  76:E:/NeuOrga/Programmieren/c_cpp/github_os/input/src/os_base\os_task_queue.c **** #endif
  77:E:/NeuOrga/Programmieren/c_cpp/github_os/input/src/os_base\os_task_queue.c **** 
  78:E:/NeuOrga/Programmieren/c_cpp/github_os/input/src/os_base\os_task_queue.c ****       (&RUNNING_TASK[0u])->p_stack_pointer                   = task->p_stack_pointer;
 152              		.loc 1 78 0
 153 01b7 8B4508   		movl	8(%ebp), %eax
 154 01ba 8B809400 		movl	148(%eax), %eax
 154      0000
 155 01c0 A3940000 		movl	%eax, _RUNNING_TASK+148
 155      00
  79:E:/NeuOrga/Programmieren/c_cpp/github_os/input/src/os_base\os_task_queue.c ****       (&RUNNING_TASK[0u])->p_stack_pointer_by_malloc           = task->p_stack_pointer_by_malloc;
 156              		.loc 1 79 0
 157 01c5 8B4508   		movl	8(%ebp), %eax
 158 01c8 8B809800 		movl	152(%eax), %eax
 158      0000
 159 01ce A3980000 		movl	%eax, _RUNNING_TASK+152
 159      00
  80:E:/NeuOrga/Programmieren/c_cpp/github_os/input/src/os_base\os_task_queue.c ****       (&RUNNING_TASK[0u])->p_stack_pointer_start              = task->p_stack_pointer_start;
 160              		.loc 1 80 0
GAS LISTING C:\Users\PRESID~1\AppData\Local\Temp\cczIt3NK.s 			page 6


 161 01d3 8B4508   		movl	8(%ebp), %eax
 162 01d6 8B809C00 		movl	156(%eax), %eax
 162      0000
 163 01dc A39C0000 		movl	%eax, _RUNNING_TASK+156
 163      00
  81:E:/NeuOrga/Programmieren/c_cpp/github_os/input/src/os_base\os_task_queue.c ****       (&RUNNING_TASK[0u])->stack_size                       = task->stack_size;
 164              		.loc 1 81 0
 165 01e1 8B4508   		movl	8(%ebp), %eax
 166 01e4 8B80A000 		movl	160(%eax), %eax
 166      0000
 167 01ea A3A00000 		movl	%eax, _RUNNING_TASK+160
 167      00
  82:E:/NeuOrga/Programmieren/c_cpp/github_os/input/src/os_base\os_task_queue.c ****       (&RUNNING_TASK[0u])->p_stack_pointer_end                = task->p_stack_pointer_end;
 168              		.loc 1 82 0
 169 01ef 8B4508   		movl	8(%ebp), %eax
 170 01f2 8B80A400 		movl	164(%eax), %eax
 170      0000
 171 01f8 A3A40000 		movl	%eax, _RUNNING_TASK+164
 171      00
 172              	L1:
  83:E:/NeuOrga/Programmieren/c_cpp/github_os/input/src/os_base\os_task_queue.c ****    }
  84:E:/NeuOrga/Programmieren/c_cpp/github_os/input/src/os_base\os_task_queue.c **** }
 173              		.loc 1 84 0
 174 01fd C9       		leave
 175              		.cfi_restore 5
 176              		.cfi_def_cfa 4, 4
 177 01fe C3       		ret
 178              		.cfi_endproc
 179              	LFE0:
 180              		.globl	_OS_INIT_TASK_QUEUE
 182              	_OS_INIT_TASK_QUEUE:
 183              	LFB1:
  85:E:/NeuOrga/Programmieren/c_cpp/github_os/input/src/os_base\os_task_queue.c **** 
  86:E:/NeuOrga/Programmieren/c_cpp/github_os/input/src/os_base\os_task_queue.c **** /* task queue handling */
  87:E:/NeuOrga/Programmieren/c_cpp/github_os/input/src/os_base\os_task_queue.c **** void OS_INIT_TASK_QUEUE(void)
  88:E:/NeuOrga/Programmieren/c_cpp/github_os/input/src/os_base\os_task_queue.c **** {
 184              		.loc 1 88 0
 185              		.cfi_startproc
 186 01ff 55       		pushl	%ebp
 187              		.cfi_def_cfa_offset 8
 188              		.cfi_offset 5, -8
 189 0200 89E5     		movl	%esp, %ebp
 190              		.cfi_def_cfa_register 5
 191 0202 83EC28   		subl	$40, %esp
  89:E:/NeuOrga/Programmieren/c_cpp/github_os/input/src/os_base\os_task_queue.c ****    if(bTASK_QUEUE_INITIALIZED == FALSE)
 192              		.loc 1 89 0
 193 0205 A0000000 		movb	_bTASK_QUEUE_INITIALIZED, %al
 193      00
 194 020a 84C0     		testb	%al, %al
 195 020c 7550     		jne	L3
 196              	LBB2:
  90:E:/NeuOrga/Programmieren/c_cpp/github_os/input/src/os_base\os_task_queue.c ****    {
  91:E:/NeuOrga/Programmieren/c_cpp/github_os/input/src/os_base\os_task_queue.c ****       unsigned_char_t element_nr = 0;
 197              		.loc 1 91 0
 198 020e C645F700 		movb	$0, -9(%ebp)
  92:E:/NeuOrga/Programmieren/c_cpp/github_os/input/src/os_base\os_task_queue.c ****       while(element_nr < MAX_RUN_QUEUE_SIZE)
 199              		.loc 1 92 0
GAS LISTING C:\Users\PRESID~1\AppData\Local\Temp\cczIt3NK.s 			page 7


 200 0212 EB3D     		jmp	L5
 201              	L6:
  93:E:/NeuOrga/Programmieren/c_cpp/github_os/input/src/os_base\os_task_queue.c ****       {
  94:E:/NeuOrga/Programmieren/c_cpp/github_os/input/src/os_base\os_task_queue.c ****          TASK_SCHEDULING_QUEUE[element_nr] = (scheduling_t)0u;
 202              		.loc 1 94 0
 203 0214 0FB645F7 		movzbl	-9(%ebp), %eax
 204 0218 C7048500 		movl	$0, _TASK_SCHEDULING_QUEUE(,%eax,4)
 204      00000000 
 204      000000
  95:E:/NeuOrga/Programmieren/c_cpp/github_os/input/src/os_base\os_task_queue.c ****          OS_TASK_INIT_TASK_ENVIRONMENT(&TASK_RUN_QUEUE[element_nr]);
 205              		.loc 1 95 0
 206 0223 0FB655F7 		movzbl	-9(%ebp), %edx
 207 0227 89D0     		movl	%edx, %eax
 208 0229 C1E003   		sall	$3, %eax
 209 022c 01D0     		addl	%edx, %eax
 210 022e 01C0     		addl	%eax, %eax
 211 0230 01D0     		addl	%edx, %eax
 212 0232 8D0CC500 		leal	0(,%eax,8), %ecx
 212      000000
 213 0239 01C8     		addl	%ecx, %eax
 214 023b 01D0     		addl	%edx, %eax
 215 023d 05000000 		addl	$_TASK_RUN_QUEUE, %eax
 215      00
 216 0242 890424   		movl	%eax, (%esp)
 217 0245 E8000000 		call	_OS_TASK_INIT_TASK_ENVIRONMENT
 217      00
  96:E:/NeuOrga/Programmieren/c_cpp/github_os/input/src/os_base\os_task_queue.c ****          element_nr++;
 218              		.loc 1 96 0
 219 024a 8A45F7   		movb	-9(%ebp), %al
 220 024d 40       		incl	%eax
 221 024e 8845F7   		movb	%al, -9(%ebp)
 222              	L5:
  92:E:/NeuOrga/Programmieren/c_cpp/github_os/input/src/os_base\os_task_queue.c ****       {
 223              		.loc 1 92 0
 224 0251 807DF709 		cmpb	$9, -9(%ebp)
 225 0255 76BD     		jbe	L6
  97:E:/NeuOrga/Programmieren/c_cpp/github_os/input/src/os_base\os_task_queue.c ****       }
  98:E:/NeuOrga/Programmieren/c_cpp/github_os/input/src/os_base\os_task_queue.c ****       bTASK_QUEUE_INITIALIZED = TRUE;
 226              		.loc 1 98 0
 227 0257 C6050000 		movb	$1, _bTASK_QUEUE_INITIALIZED
 227      000001
 228              	L3:
 229              	LBE2:
  99:E:/NeuOrga/Programmieren/c_cpp/github_os/input/src/os_base\os_task_queue.c ****    }
 100:E:/NeuOrga/Programmieren/c_cpp/github_os/input/src/os_base\os_task_queue.c **** }
 230              		.loc 1 100 0
 231 025e C9       		leave
 232              		.cfi_restore 5
 233              		.cfi_def_cfa 4, 4
 234 025f C3       		ret
 235              		.cfi_endproc
 236              	LFE1:
 237              		.globl	_ADD_TO_TASK_QUEUE
 239              	_ADD_TO_TASK_QUEUE:
 240              	LFB2:
 101:E:/NeuOrga/Programmieren/c_cpp/github_os/input/src/os_base\os_task_queue.c **** task_t* ADD_TO_TASK_QUEUE(task_t* task)
 102:E:/NeuOrga/Programmieren/c_cpp/github_os/input/src/os_base\os_task_queue.c **** {
GAS LISTING C:\Users\PRESID~1\AppData\Local\Temp\cczIt3NK.s 			page 8


 241              		.loc 1 102 0
 242              		.cfi_startproc
 243 0260 55       		pushl	%ebp
 244              		.cfi_def_cfa_offset 8
 245              		.cfi_offset 5, -8
 246 0261 89E5     		movl	%esp, %ebp
 247              		.cfi_def_cfa_register 5
 248 0263 53       		pushl	%ebx
 249 0264 83EC24   		subl	$36, %esp
 250              		.cfi_offset 3, -12
 103:E:/NeuOrga/Programmieren/c_cpp/github_os/input/src/os_base\os_task_queue.c ****    unsigned_char_t element_nr = 0u;
 251              		.loc 1 103 0
 252 0267 C645F700 		movb	$0, -9(%ebp)
 104:E:/NeuOrga/Programmieren/c_cpp/github_os/input/src/os_base\os_task_queue.c ****    task_t* ret_task = 0u;
 253              		.loc 1 104 0
 254 026b C745F000 		movl	$0, -16(%ebp)
 254      000000
 105:E:/NeuOrga/Programmieren/c_cpp/github_os/input/src/os_base\os_task_queue.c **** 
 106:E:/NeuOrga/Programmieren/c_cpp/github_os/input/src/os_base\os_task_queue.c ****    while( (element_nr < MAX_RUN_QUEUE_SIZE)
 255              		.loc 1 106 0
 256 0272 EB07     		jmp	L8
 257              	L10:
 107:E:/NeuOrga/Programmieren/c_cpp/github_os/input/src/os_base\os_task_queue.c ****           &&((&TASK_RUN_QUEUE[element_nr])->task_queued == TRUE)
 108:E:/NeuOrga/Programmieren/c_cpp/github_os/input/src/os_base\os_task_queue.c ****         )
 109:E:/NeuOrga/Programmieren/c_cpp/github_os/input/src/os_base\os_task_queue.c ****    {
 110:E:/NeuOrga/Programmieren/c_cpp/github_os/input/src/os_base\os_task_queue.c ****       element_nr++;
 258              		.loc 1 110 0
 259 0274 8A45F7   		movb	-9(%ebp), %al
 260 0277 40       		incl	%eax
 261 0278 8845F7   		movb	%al, -9(%ebp)
 262              	L8:
 106:E:/NeuOrga/Programmieren/c_cpp/github_os/input/src/os_base\os_task_queue.c ****           &&((&TASK_RUN_QUEUE[element_nr])->task_queued == TRUE)
 263              		.loc 1 106 0
 264 027b 807DF709 		cmpb	$9, -9(%ebp)
 265 027f 772A     		ja	L9
 107:E:/NeuOrga/Programmieren/c_cpp/github_os/input/src/os_base\os_task_queue.c ****           &&((&TASK_RUN_QUEUE[element_nr])->task_queued == TRUE)
 266              		.loc 1 107 0
 267 0281 0FB655F7 		movzbl	-9(%ebp), %edx
 268 0285 89D0     		movl	%edx, %eax
 269 0287 C1E003   		sall	$3, %eax
 270 028a 01D0     		addl	%edx, %eax
 271 028c 01C0     		addl	%eax, %eax
 272 028e 01D0     		addl	%edx, %eax
 273 0290 8D0CC500 		leal	0(,%eax,8), %ecx
 273      000000
 274 0297 01C8     		addl	%ecx, %eax
 275 0299 01D0     		addl	%edx, %eax
 276 029b 05000000 		addl	$_TASK_RUN_QUEUE, %eax
 276      00
 277 02a0 8A00     		movb	(%eax), %al
 278 02a2 D0E8     		shrb	%al
 279 02a4 83E001   		andl	$1, %eax
 280 02a7 3C01     		cmpb	$1, %al
 281 02a9 74C9     		je	L10
 282              	L9:
 111:E:/NeuOrga/Programmieren/c_cpp/github_os/input/src/os_base\os_task_queue.c ****    }
 112:E:/NeuOrga/Programmieren/c_cpp/github_os/input/src/os_base\os_task_queue.c ****    /* while loop ended due to free task_array slot ...*/
GAS LISTING C:\Users\PRESID~1\AppData\Local\Temp\cczIt3NK.s 			page 9


 113:E:/NeuOrga/Programmieren/c_cpp/github_os/input/src/os_base\os_task_queue.c ****    if( (element_nr < MAX_RUN_QUEUE_SIZE) && ((&TASK_RUN_QUEUE[element_nr])->task_queued == FALSE) )
 283              		.loc 1 113 0
 284 02ab 807DF709 		cmpb	$9, -9(%ebp)
 285 02af 0F875905 		ja	L11
 285      0000
 286              		.loc 1 113 0 is_stmt 0 discriminator 1
 287 02b5 0FB655F7 		movzbl	-9(%ebp), %edx
 288 02b9 89D0     		movl	%edx, %eax
 289 02bb C1E003   		sall	$3, %eax
 290 02be 01D0     		addl	%edx, %eax
 291 02c0 01C0     		addl	%eax, %eax
 292 02c2 01D0     		addl	%edx, %eax
 293 02c4 8D0CC500 		leal	0(,%eax,8), %ecx
 293      000000
 294 02cb 01C8     		addl	%ecx, %eax
 295 02cd 01D0     		addl	%edx, %eax
 296 02cf 05000000 		addl	$_TASK_RUN_QUEUE, %eax
 296      00
 297 02d4 8A00     		movb	(%eax), %al
 298 02d6 D0E8     		shrb	%al
 299 02d8 83E001   		andl	$1, %eax
 300 02db 84C0     		testb	%al, %al
 301 02dd 0F852B05 		jne	L11
 301      0000
 114:E:/NeuOrga/Programmieren/c_cpp/github_os/input/src/os_base\os_task_queue.c ****    {
 115:E:/NeuOrga/Programmieren/c_cpp/github_os/input/src/os_base\os_task_queue.c ****       (&TASK_RUN_QUEUE[element_nr])->active                          = task->active;
 302              		.loc 1 115 0 is_stmt 1
 303 02e3 0FB655F7 		movzbl	-9(%ebp), %edx
 304 02e7 8B4508   		movl	8(%ebp), %eax
 305 02ea 8A00     		movb	(%eax), %al
 306 02ec 83E001   		andl	$1, %eax
 307 02ef 88C3     		movb	%al, %bl
 308 02f1 89D0     		movl	%edx, %eax
 309 02f3 C1E003   		sall	$3, %eax
 310 02f6 01D0     		addl	%edx, %eax
 311 02f8 01C0     		addl	%eax, %eax
 312 02fa 01D0     		addl	%edx, %eax
 313 02fc 8D0CC500 		leal	0(,%eax,8), %ecx
 313      000000
 314 0303 01C8     		addl	%ecx, %eax
 315 0305 01D0     		addl	%edx, %eax
 316 0307 05000000 		addl	$_TASK_RUN_QUEUE, %eax
 316      00
 317 030c 83E301   		andl	$1, %ebx
 318 030f 88D9     		movb	%bl, %cl
 319 0311 8A10     		movb	(%eax), %dl
 320 0313 83E2FE   		andl	$-2, %edx
 321 0316 09CA     		orl	%ecx, %edx
 322 0318 8810     		movb	%dl, (%eax)
 116:E:/NeuOrga/Programmieren/c_cpp/github_os/input/src/os_base\os_task_queue.c ****       (&TASK_RUN_QUEUE[element_nr])->task_queued                     = TRUE;
 323              		.loc 1 116 0
 324 031a 0FB655F7 		movzbl	-9(%ebp), %edx
 325 031e 89D0     		movl	%edx, %eax
 326 0320 C1E003   		sall	$3, %eax
 327 0323 01D0     		addl	%edx, %eax
 328 0325 01C0     		addl	%eax, %eax
 329 0327 01D0     		addl	%edx, %eax
GAS LISTING C:\Users\PRESID~1\AppData\Local\Temp\cczIt3NK.s 			page 10


 330 0329 8D0CC500 		leal	0(,%eax,8), %ecx
 330      000000
 331 0330 01C8     		addl	%ecx, %eax
 332 0332 01D0     		addl	%edx, %eax
 333 0334 05000000 		addl	$_TASK_RUN_QUEUE, %eax
 333      00
 334 0339 8A10     		movb	(%eax), %dl
 335 033b 83CA02   		orl	$2, %edx
 336 033e 8810     		movb	%dl, (%eax)
 117:E:/NeuOrga/Programmieren/c_cpp/github_os/input/src/os_base\os_task_queue.c ****       (&TASK_RUN_QUEUE[element_nr])->idle_task                        = task->idle_task;
 337              		.loc 1 117 0
 338 0340 0FB655F7 		movzbl	-9(%ebp), %edx
 339 0344 8B4508   		movl	8(%ebp), %eax
 340 0347 8A00     		movb	(%eax), %al
 341 0349 C0E802   		shrb	$2, %al
 342 034c 88C1     		movb	%al, %cl
 343 034e 83E101   		andl	$1, %ecx
 344 0351 89D0     		movl	%edx, %eax
 345 0353 C1E003   		sall	$3, %eax
 346 0356 01D0     		addl	%edx, %eax
 347 0358 01C0     		addl	%eax, %eax
 348 035a 01D0     		addl	%edx, %eax
 349 035c 8D1CC500 		leal	0(,%eax,8), %ebx
 349      000000
 350 0363 01D8     		addl	%ebx, %eax
 351 0365 01D0     		addl	%edx, %eax
 352 0367 05000000 		addl	$_TASK_RUN_QUEUE, %eax
 352      00
 353 036c 83E101   		andl	$1, %ecx
 354 036f 88CA     		movb	%cl, %dl
 355 0371 8D0C9500 		leal	0(,%edx,4), %ecx
 355      000000
 356 0378 8A10     		movb	(%eax), %dl
 357 037a 83E2FB   		andl	$-5, %edx
 358 037d 09CA     		orl	%ecx, %edx
 359 037f 8810     		movb	%dl, (%eax)
 118:E:/NeuOrga/Programmieren/c_cpp/github_os/input/src/os_base\os_task_queue.c ****       (&TASK_RUN_QUEUE[element_nr])->free                            = task->free;
 360              		.loc 1 118 0
 361 0381 0FB655F7 		movzbl	-9(%ebp), %edx
 362 0385 8B4508   		movl	8(%ebp), %eax
 363 0388 8B00     		movl	(%eax), %eax
 364 038a C1E803   		shrl	$3, %eax
 365 038d 89C3     		movl	%eax, %ebx
 366 038f 89D0     		movl	%edx, %eax
 367 0391 C1E003   		sall	$3, %eax
 368 0394 01D0     		addl	%edx, %eax
 369 0396 01C0     		addl	%eax, %eax
 370 0398 01D0     		addl	%edx, %eax
 371 039a 8D0CC500 		leal	0(,%eax,8), %ecx
 371      000000
 372 03a1 01C8     		addl	%ecx, %eax
 373 03a3 01D0     		addl	%edx, %eax
 374 03a5 05000000 		addl	$_TASK_RUN_QUEUE, %eax
 374      00
 375 03aa 8D0CDD00 		leal	0(,%ebx,8), %ecx
 375      000000
 376 03b1 8B10     		movl	(%eax), %edx
GAS LISTING C:\Users\PRESID~1\AppData\Local\Temp\cczIt3NK.s 			page 11


 377 03b3 83E207   		andl	$7, %edx
 378 03b6 09CA     		orl	%ecx, %edx
 379 03b8 8910     		movl	%edx, (%eax)
 119:E:/NeuOrga/Programmieren/c_cpp/github_os/input/src/os_base\os_task_queue.c ****       (&TASK_RUN_QUEUE[element_nr])->nr_of_ins_allowed                  = task->nr_of_ins_allowed;
 380              		.loc 1 119 0
 381 03ba 0FB655F7 		movzbl	-9(%ebp), %edx
 382 03be 8B4508   		movl	8(%ebp), %eax
 383 03c1 8A4804   		movb	4(%eax), %cl
 384 03c4 89D0     		movl	%edx, %eax
 385 03c6 C1E003   		sall	$3, %eax
 386 03c9 01D0     		addl	%edx, %eax
 387 03cb 01C0     		addl	%eax, %eax
 388 03cd 01D0     		addl	%edx, %eax
 389 03cf 8D1CC500 		leal	0(,%eax,8), %ebx
 389      000000
 390 03d6 01D8     		addl	%ebx, %eax
 391 03d8 01D0     		addl	%edx, %eax
 392 03da 05000000 		addl	$_TASK_RUN_QUEUE, %eax
 392      00
 393 03df 884804   		movb	%cl, 4(%eax)
 120:E:/NeuOrga/Programmieren/c_cpp/github_os/input/src/os_base\os_task_queue.c ****       (&TASK_RUN_QUEUE[element_nr])->nr_of_ins_activated                = task->nr_of_ins_activated
 394              		.loc 1 120 0
 395 03e2 0FB655F7 		movzbl	-9(%ebp), %edx
 396 03e6 8B4508   		movl	8(%ebp), %eax
 397 03e9 8A4805   		movb	5(%eax), %cl
 398 03ec 89D0     		movl	%edx, %eax
 399 03ee C1E003   		sall	$3, %eax
 400 03f1 01D0     		addl	%edx, %eax
 401 03f3 01C0     		addl	%eax, %eax
 402 03f5 01D0     		addl	%edx, %eax
 403 03f7 8D1CC500 		leal	0(,%eax,8), %ebx
 403      000000
 404 03fe 01D8     		addl	%ebx, %eax
 405 0400 01D0     		addl	%edx, %eax
 406 0402 05000000 		addl	$_TASK_RUN_QUEUE, %eax
 406      00
 407 0407 884805   		movb	%cl, 5(%eax)
 121:E:/NeuOrga/Programmieren/c_cpp/github_os/input/src/os_base\os_task_queue.c ****       ASSIGN(&(&TASK_RUN_QUEUE[element_nr])->wait_act_until, &task->wait_act_until);
 408              		.loc 1 121 0
 409 040a 8B4508   		movl	8(%ebp), %eax
 410 040d 8D4806   		leal	6(%eax), %ecx
 411 0410 0FB655F7 		movzbl	-9(%ebp), %edx
 412 0414 89D0     		movl	%edx, %eax
 413 0416 C1E003   		sall	$3, %eax
 414 0419 01D0     		addl	%edx, %eax
 415 041b 01C0     		addl	%eax, %eax
 416 041d 01D0     		addl	%edx, %eax
 417 041f 8D1CC500 		leal	0(,%eax,8), %ebx
 417      000000
 418 0426 01D8     		addl	%ebx, %eax
 419 0428 01D0     		addl	%edx, %eax
 420 042a 05000000 		addl	$_TASK_RUN_QUEUE, %eax
 420      00
 421 042f 83C006   		addl	$6, %eax
 422 0432 894C2404 		movl	%ecx, 4(%esp)
 423 0436 890424   		movl	%eax, (%esp)
 424 0439 E8000000 		call	_ASSIGN
GAS LISTING C:\Users\PRESID~1\AppData\Local\Temp\cczIt3NK.s 			page 12


 424      00
 122:E:/NeuOrga/Programmieren/c_cpp/github_os/input/src/os_base\os_task_queue.c ****       ASSIGN(&(&TASK_RUN_QUEUE[element_nr])->wait_time, &task->wait_time);
 425              		.loc 1 122 0
 426 043e 8B4508   		movl	8(%ebp), %eax
 427 0441 8D4816   		leal	22(%eax), %ecx
 428 0444 0FB655F7 		movzbl	-9(%ebp), %edx
 429 0448 89D0     		movl	%edx, %eax
 430 044a C1E003   		sall	$3, %eax
 431 044d 01D0     		addl	%edx, %eax
 432 044f 01C0     		addl	%eax, %eax
 433 0451 01D0     		addl	%edx, %eax
 434 0453 8D1CC500 		leal	0(,%eax,8), %ebx
 434      000000
 435 045a 01D8     		addl	%ebx, %eax
 436 045c 01D0     		addl	%edx, %eax
 437 045e 83C010   		addl	$16, %eax
 438 0461 05000000 		addl	$_TASK_RUN_QUEUE, %eax
 438      00
 439 0466 83C006   		addl	$6, %eax
 440 0469 894C2404 		movl	%ecx, 4(%esp)
 441 046d 890424   		movl	%eax, (%esp)
 442 0470 E8000000 		call	_ASSIGN
 442      00
 123:E:/NeuOrga/Programmieren/c_cpp/github_os/input/src/os_base\os_task_queue.c ****       ASSIGN(&(&TASK_RUN_QUEUE[element_nr])->time_to_prio_inc, &task->time_to_prio_inc);
 443              		.loc 1 123 0
 444 0475 8B4508   		movl	8(%ebp), %eax
 445 0478 8D4826   		leal	38(%eax), %ecx
 446 047b 0FB655F7 		movzbl	-9(%ebp), %edx
 447 047f 89D0     		movl	%edx, %eax
 448 0481 C1E003   		sall	$3, %eax
 449 0484 01D0     		addl	%edx, %eax
 450 0486 01C0     		addl	%eax, %eax
 451 0488 01D0     		addl	%edx, %eax
 452 048a 8D1CC500 		leal	0(,%eax,8), %ebx
 452      000000
 453 0491 01D8     		addl	%ebx, %eax
 454 0493 01D0     		addl	%edx, %eax
 455 0495 83C020   		addl	$32, %eax
 456 0498 05000000 		addl	$_TASK_RUN_QUEUE, %eax
 456      00
 457 049d 83C006   		addl	$6, %eax
 458 04a0 894C2404 		movl	%ecx, 4(%esp)
 459 04a4 890424   		movl	%eax, (%esp)
 460 04a7 E8000000 		call	_ASSIGN
 460      00
 124:E:/NeuOrga/Programmieren/c_cpp/github_os/input/src/os_base\os_task_queue.c ****       (&TASK_RUN_QUEUE[element_nr])->overwaittime_per_prio_inc_step  = task->overwaittime_per_prio_
 461              		.loc 1 124 0
 462 04ac 0FB655F7 		movzbl	-9(%ebp), %edx
 463 04b0 8B4508   		movl	8(%ebp), %eax
 464 04b3 8B4838   		movl	56(%eax), %ecx
 465 04b6 89D0     		movl	%edx, %eax
 466 04b8 C1E003   		sall	$3, %eax
 467 04bb 01D0     		addl	%edx, %eax
 468 04bd 01C0     		addl	%eax, %eax
 469 04bf 01D0     		addl	%edx, %eax
 470 04c1 8D1CC500 		leal	0(,%eax,8), %ebx
 470      000000
GAS LISTING C:\Users\PRESID~1\AppData\Local\Temp\cczIt3NK.s 			page 13


 471 04c8 01D8     		addl	%ebx, %eax
 472 04ca 01D0     		addl	%edx, %eax
 473 04cc 05300000 		addl	$_TASK_RUN_QUEUE+48, %eax
 473      00
 474 04d1 894808   		movl	%ecx, 8(%eax)
 125:E:/NeuOrga/Programmieren/c_cpp/github_os/input/src/os_base\os_task_queue.c ****       ASSIGN(&(&TASK_RUN_QUEUE[element_nr])->max_allowed_wait_time, &task->max_allowed_wait_time);
 475              		.loc 1 125 0
 476 04d4 8B4508   		movl	8(%ebp), %eax
 477 04d7 8D483C   		leal	60(%eax), %ecx
 478 04da 0FB655F7 		movzbl	-9(%ebp), %edx
 479 04de 89D0     		movl	%edx, %eax
 480 04e0 C1E003   		sall	$3, %eax
 481 04e3 01D0     		addl	%edx, %eax
 482 04e5 01C0     		addl	%eax, %eax
 483 04e7 01D0     		addl	%edx, %eax
 484 04e9 8D1CC500 		leal	0(,%eax,8), %ebx
 484      000000
 485 04f0 01D8     		addl	%ebx, %eax
 486 04f2 01D0     		addl	%edx, %eax
 487 04f4 83C030   		addl	$48, %eax
 488 04f7 05000000 		addl	$_TASK_RUN_QUEUE, %eax
 488      00
 489 04fc 83C00C   		addl	$12, %eax
 490 04ff 894C2404 		movl	%ecx, 4(%esp)
 491 0503 890424   		movl	%eax, (%esp)
 492 0506 E8000000 		call	_ASSIGN
 492      00
 126:E:/NeuOrga/Programmieren/c_cpp/github_os/input/src/os_base\os_task_queue.c ****       ASSIGN(&(&TASK_RUN_QUEUE[element_nr])->exe_time, &task->exe_time   );
 493              		.loc 1 126 0
 494 050b 8B4508   		movl	8(%ebp), %eax
 495 050e 8D484C   		leal	76(%eax), %ecx
 496 0511 0FB655F7 		movzbl	-9(%ebp), %edx
 497 0515 89D0     		movl	%edx, %eax
 498 0517 C1E003   		sall	$3, %eax
 499 051a 01D0     		addl	%edx, %eax
 500 051c 01C0     		addl	%eax, %eax
 501 051e 01D0     		addl	%edx, %eax
 502 0520 8D1CC500 		leal	0(,%eax,8), %ebx
 502      000000
 503 0527 01D8     		addl	%ebx, %eax
 504 0529 01D0     		addl	%edx, %eax
 505 052b 83C040   		addl	$64, %eax
 506 052e 05000000 		addl	$_TASK_RUN_QUEUE, %eax
 506      00
 507 0533 83C00C   		addl	$12, %eax
 508 0536 894C2404 		movl	%ecx, 4(%esp)
 509 053a 890424   		movl	%eax, (%esp)
 510 053d E8000000 		call	_ASSIGN
 510      00
 127:E:/NeuOrga/Programmieren/c_cpp/github_os/input/src/os_base\os_task_queue.c ****       ASSIGN(&(&TASK_RUN_QUEUE[element_nr])->start_time, &task->start_time );
 511              		.loc 1 127 0
 512 0542 8B4508   		movl	8(%ebp), %eax
 513 0545 8D485C   		leal	92(%eax), %ecx
 514 0548 0FB655F7 		movzbl	-9(%ebp), %edx
 515 054c 89D0     		movl	%edx, %eax
 516 054e C1E003   		sall	$3, %eax
 517 0551 01D0     		addl	%edx, %eax
GAS LISTING C:\Users\PRESID~1\AppData\Local\Temp\cczIt3NK.s 			page 14


 518 0553 01C0     		addl	%eax, %eax
 519 0555 01D0     		addl	%edx, %eax
 520 0557 8D1CC500 		leal	0(,%eax,8), %ebx
 520      000000
 521 055e 01D8     		addl	%ebx, %eax
 522 0560 01D0     		addl	%edx, %eax
 523 0562 83C050   		addl	$80, %eax
 524 0565 05000000 		addl	$_TASK_RUN_QUEUE, %eax
 524      00
 525 056a 83C00C   		addl	$12, %eax
 526 056d 894C2404 		movl	%ecx, 4(%esp)
 527 0571 890424   		movl	%eax, (%esp)
 528 0574 E8000000 		call	_ASSIGN
 528      00
 128:E:/NeuOrga/Programmieren/c_cpp/github_os/input/src/os_base\os_task_queue.c ****       (&TASK_RUN_QUEUE[element_nr])->current_prio                    = task->current_prio;
 529              		.loc 1 128 0
 530 0579 0FB655F7 		movzbl	-9(%ebp), %edx
 531 057d 8B4508   		movl	8(%ebp), %eax
 532 0580 8A486C   		movb	108(%eax), %cl
 533 0583 89D0     		movl	%edx, %eax
 534 0585 C1E003   		sall	$3, %eax
 535 0588 01D0     		addl	%edx, %eax
 536 058a 01C0     		addl	%eax, %eax
 537 058c 01D0     		addl	%edx, %eax
 538 058e 8D1CC500 		leal	0(,%eax,8), %ebx
 538      000000
 539 0595 01D8     		addl	%ebx, %eax
 540 0597 01D0     		addl	%edx, %eax
 541 0599 05600000 		addl	$_TASK_RUN_QUEUE+96, %eax
 541      00
 542 059e 88480C   		movb	%cl, 12(%eax)
 129:E:/NeuOrga/Programmieren/c_cpp/github_os/input/src/os_base\os_task_queue.c ****       (&TASK_RUN_QUEUE[element_nr])->default_prio                    = task->default_prio;
 543              		.loc 1 129 0
 544 05a1 0FB655F7 		movzbl	-9(%ebp), %edx
 545 05a5 8B4508   		movl	8(%ebp), %eax
 546 05a8 8A486D   		movb	109(%eax), %cl
 547 05ab 89D0     		movl	%edx, %eax
 548 05ad C1E003   		sall	$3, %eax
 549 05b0 01D0     		addl	%edx, %eax
 550 05b2 01C0     		addl	%eax, %eax
 551 05b4 01D0     		addl	%edx, %eax
 552 05b6 8D1CC500 		leal	0(,%eax,8), %ebx
 552      000000
 553 05bd 01D8     		addl	%ebx, %eax
 554 05bf 01D0     		addl	%edx, %eax
 555 05c1 05600000 		addl	$_TASK_RUN_QUEUE+96, %eax
 555      00
 556 05c6 88480D   		movb	%cl, 13(%eax)
 130:E:/NeuOrga/Programmieren/c_cpp/github_os/input/src/os_base\os_task_queue.c ****       (&TASK_RUN_QUEUE[element_nr])->fp                              = task->fp;
 557              		.loc 1 130 0
 558 05c9 0FB655F7 		movzbl	-9(%ebp), %edx
 559 05cd 8B4508   		movl	8(%ebp), %eax
 560 05d0 8B4874   		movl	116(%eax), %ecx
 561 05d3 89D0     		movl	%edx, %eax
 562 05d5 C1E003   		sall	$3, %eax
 563 05d8 01D0     		addl	%edx, %eax
 564 05da 01C0     		addl	%eax, %eax
GAS LISTING C:\Users\PRESID~1\AppData\Local\Temp\cczIt3NK.s 			page 15


 565 05dc 01D0     		addl	%edx, %eax
 566 05de 8D1CC500 		leal	0(,%eax,8), %ebx
 566      000000
 567 05e5 01D8     		addl	%ebx, %eax
 568 05e7 01D0     		addl	%edx, %eax
 569 05e9 05700000 		addl	$_TASK_RUN_QUEUE+112, %eax
 569      00
 570 05ee 894804   		movl	%ecx, 4(%eax)
 131:E:/NeuOrga/Programmieren/c_cpp/github_os/input/src/os_base\os_task_queue.c ****       (&TASK_RUN_QUEUE[element_nr])->state_request                   = task->state_request;
 571              		.loc 1 131 0
 572 05f1 0FB655F7 		movzbl	-9(%ebp), %edx
 573 05f5 8B4508   		movl	8(%ebp), %eax
 574 05f8 8B4878   		movl	120(%eax), %ecx
 575 05fb 89D0     		movl	%edx, %eax
 576 05fd C1E003   		sall	$3, %eax
 577 0600 01D0     		addl	%edx, %eax
 578 0602 01C0     		addl	%eax, %eax
 579 0604 01D0     		addl	%edx, %eax
 580 0606 8D1CC500 		leal	0(,%eax,8), %ebx
 580      000000
 581 060d 01D8     		addl	%ebx, %eax
 582 060f 01D0     		addl	%edx, %eax
 583 0611 05700000 		addl	$_TASK_RUN_QUEUE+112, %eax
 583      00
 584 0616 894808   		movl	%ecx, 8(%eax)
 132:E:/NeuOrga/Programmieren/c_cpp/github_os/input/src/os_base\os_task_queue.c ****       (&TASK_RUN_QUEUE[element_nr])->task_state                      = task->task_state;
 585              		.loc 1 132 0
 586 0619 0FB655F7 		movzbl	-9(%ebp), %edx
 587 061d 8B4508   		movl	8(%ebp), %eax
 588 0620 8B487C   		movl	124(%eax), %ecx
 589 0623 89D0     		movl	%edx, %eax
 590 0625 C1E003   		sall	$3, %eax
 591 0628 01D0     		addl	%edx, %eax
 592 062a 01C0     		addl	%eax, %eax
 593 062c 01D0     		addl	%edx, %eax
 594 062e 8D1CC500 		leal	0(,%eax,8), %ebx
 594      000000
 595 0635 01D8     		addl	%ebx, %eax
 596 0637 01D0     		addl	%edx, %eax
 597 0639 05700000 		addl	$_TASK_RUN_QUEUE+112, %eax
 597      00
 598 063e 89480C   		movl	%ecx, 12(%eax)
 133:E:/NeuOrga/Programmieren/c_cpp/github_os/input/src/os_base\os_task_queue.c ****       (&TASK_RUN_QUEUE[element_nr])->task_group                      = task->task_group;
 599              		.loc 1 133 0
 600 0641 0FB655F7 		movzbl	-9(%ebp), %edx
 601 0645 8B4508   		movl	8(%ebp), %eax
 602 0648 8B888000 		movl	128(%eax), %ecx
 602      0000
 603 064e 89D0     		movl	%edx, %eax
 604 0650 C1E003   		sall	$3, %eax
 605 0653 01D0     		addl	%edx, %eax
 606 0655 01C0     		addl	%eax, %eax
 607 0657 01D0     		addl	%edx, %eax
 608 0659 8D1CC500 		leal	0(,%eax,8), %ebx
 608      000000
 609 0660 01D8     		addl	%ebx, %eax
 610 0662 01D0     		addl	%edx, %eax
GAS LISTING C:\Users\PRESID~1\AppData\Local\Temp\cczIt3NK.s 			page 16


 611 0664 05800000 		addl	$_TASK_RUN_QUEUE+128, %eax
 611      00
 612 0669 8908     		movl	%ecx, (%eax)
 134:E:/NeuOrga/Programmieren/c_cpp/github_os/input/src/os_base\os_task_queue.c **** #if(CFG_PROCESSOR == MCU_X86)
 135:E:/NeuOrga/Programmieren/c_cpp/github_os/input/src/os_base\os_task_queue.c ****       (&TASK_RUN_QUEUE[element_nr])->eax                             = task->eax;
 613              		.loc 1 135 0
 614 066b 0FB655F7 		movzbl	-9(%ebp), %edx
 615 066f 8B4508   		movl	8(%ebp), %eax
 616 0672 8B888400 		movl	132(%eax), %ecx
 616      0000
 617 0678 89D0     		movl	%edx, %eax
 618 067a C1E003   		sall	$3, %eax
 619 067d 01D0     		addl	%edx, %eax
 620 067f 01C0     		addl	%eax, %eax
 621 0681 01D0     		addl	%edx, %eax
 622 0683 8D1CC500 		leal	0(,%eax,8), %ebx
 622      000000
 623 068a 01D8     		addl	%ebx, %eax
 624 068c 01D0     		addl	%edx, %eax
 625 068e 05800000 		addl	$_TASK_RUN_QUEUE+128, %eax
 625      00
 626 0693 894804   		movl	%ecx, 4(%eax)
 136:E:/NeuOrga/Programmieren/c_cpp/github_os/input/src/os_base\os_task_queue.c ****       (&TASK_RUN_QUEUE[element_nr])->ebx                             = task->ebx;
 627              		.loc 1 136 0
 628 0696 0FB655F7 		movzbl	-9(%ebp), %edx
 629 069a 8B4508   		movl	8(%ebp), %eax
 630 069d 8B888800 		movl	136(%eax), %ecx
 630      0000
 631 06a3 89D0     		movl	%edx, %eax
 632 06a5 C1E003   		sall	$3, %eax
 633 06a8 01D0     		addl	%edx, %eax
 634 06aa 01C0     		addl	%eax, %eax
 635 06ac 01D0     		addl	%edx, %eax
 636 06ae 8D1CC500 		leal	0(,%eax,8), %ebx
 636      000000
 637 06b5 01D8     		addl	%ebx, %eax
 638 06b7 01D0     		addl	%edx, %eax
 639 06b9 05800000 		addl	$_TASK_RUN_QUEUE+128, %eax
 639      00
 640 06be 894808   		movl	%ecx, 8(%eax)
 137:E:/NeuOrga/Programmieren/c_cpp/github_os/input/src/os_base\os_task_queue.c ****       (&TASK_RUN_QUEUE[element_nr])->ecx                             = task->ecx;
 641              		.loc 1 137 0
 642 06c1 0FB655F7 		movzbl	-9(%ebp), %edx
 643 06c5 8B4508   		movl	8(%ebp), %eax
 644 06c8 8B888C00 		movl	140(%eax), %ecx
 644      0000
 645 06ce 89D0     		movl	%edx, %eax
 646 06d0 C1E003   		sall	$3, %eax
 647 06d3 01D0     		addl	%edx, %eax
 648 06d5 01C0     		addl	%eax, %eax
 649 06d7 01D0     		addl	%edx, %eax
 650 06d9 8D1CC500 		leal	0(,%eax,8), %ebx
 650      000000
 651 06e0 01D8     		addl	%ebx, %eax
 652 06e2 01D0     		addl	%edx, %eax
 653 06e4 05800000 		addl	$_TASK_RUN_QUEUE+128, %eax
 653      00
GAS LISTING C:\Users\PRESID~1\AppData\Local\Temp\cczIt3NK.s 			page 17


 654 06e9 89480C   		movl	%ecx, 12(%eax)
 138:E:/NeuOrga/Programmieren/c_cpp/github_os/input/src/os_base\os_task_queue.c ****       (&TASK_RUN_QUEUE[element_nr])->edx                             = task->edx;
 655              		.loc 1 138 0
 656 06ec 0FB655F7 		movzbl	-9(%ebp), %edx
 657 06f0 8B4508   		movl	8(%ebp), %eax
 658 06f3 8B889000 		movl	144(%eax), %ecx
 658      0000
 659 06f9 89D0     		movl	%edx, %eax
 660 06fb C1E003   		sall	$3, %eax
 661 06fe 01D0     		addl	%edx, %eax
 662 0700 01C0     		addl	%eax, %eax
 663 0702 01D0     		addl	%edx, %eax
 664 0704 8D1CC500 		leal	0(,%eax,8), %ebx
 664      000000
 665 070b 01D8     		addl	%ebx, %eax
 666 070d 01D0     		addl	%edx, %eax
 667 070f 05900000 		addl	$_TASK_RUN_QUEUE+144, %eax
 667      00
 668 0714 8908     		movl	%ecx, (%eax)
 139:E:/NeuOrga/Programmieren/c_cpp/github_os/input/src/os_base\os_task_queue.c **** #else
 140:E:/NeuOrga/Programmieren/c_cpp/github_os/input/src/os_base\os_task_queue.c ****       (&TASK_RUN_QUEUE[element_nr])->r0                             = task->r0;
 141:E:/NeuOrga/Programmieren/c_cpp/github_os/input/src/os_base\os_task_queue.c ****       (&TASK_RUN_QUEUE[element_nr])->r1                             = task->r1;
 142:E:/NeuOrga/Programmieren/c_cpp/github_os/input/src/os_base\os_task_queue.c ****       (&TASK_RUN_QUEUE[element_nr])->r2                             = task->r2;
 143:E:/NeuOrga/Programmieren/c_cpp/github_os/input/src/os_base\os_task_queue.c ****       (&TASK_RUN_QUEUE[element_nr])->r3                             = task->r3;
 144:E:/NeuOrga/Programmieren/c_cpp/github_os/input/src/os_base\os_task_queue.c ****       (&TASK_RUN_QUEUE[element_nr])->r4                             = task->r4;
 145:E:/NeuOrga/Programmieren/c_cpp/github_os/input/src/os_base\os_task_queue.c ****       (&TASK_RUN_QUEUE[element_nr])->r5                             = task->r5;
 146:E:/NeuOrga/Programmieren/c_cpp/github_os/input/src/os_base\os_task_queue.c ****       (&TASK_RUN_QUEUE[element_nr])->r6                             = task->r6;
 147:E:/NeuOrga/Programmieren/c_cpp/github_os/input/src/os_base\os_task_queue.c ****       (&TASK_RUN_QUEUE[element_nr])->r7                             = task->r7;
 148:E:/NeuOrga/Programmieren/c_cpp/github_os/input/src/os_base\os_task_queue.c ****       (&TASK_RUN_QUEUE[element_nr])->r8                             = task->r8;
 149:E:/NeuOrga/Programmieren/c_cpp/github_os/input/src/os_base\os_task_queue.c ****       (&TASK_RUN_QUEUE[element_nr])->r9                             = task->r9;
 150:E:/NeuOrga/Programmieren/c_cpp/github_os/input/src/os_base\os_task_queue.c ****       (&TASK_RUN_QUEUE[element_nr])->r10                            = task->r10;
 151:E:/NeuOrga/Programmieren/c_cpp/github_os/input/src/os_base\os_task_queue.c ****       (&TASK_RUN_QUEUE[element_nr])->r11                            = task->r11;
 152:E:/NeuOrga/Programmieren/c_cpp/github_os/input/src/os_base\os_task_queue.c ****       (&TASK_RUN_QUEUE[element_nr])->r12                            = task->r12;
 153:E:/NeuOrga/Programmieren/c_cpp/github_os/input/src/os_base\os_task_queue.c **** #endif
 154:E:/NeuOrga/Programmieren/c_cpp/github_os/input/src/os_base\os_task_queue.c ****       (&TASK_RUN_QUEUE[element_nr])->p_stack_pointer                   = task->p_stack_pointer;
 669              		.loc 1 154 0
 670 0716 0FB655F7 		movzbl	-9(%ebp), %edx
 671 071a 8B4508   		movl	8(%ebp), %eax
 672 071d 8B889400 		movl	148(%eax), %ecx
 672      0000
 673 0723 89D0     		movl	%edx, %eax
 674 0725 C1E003   		sall	$3, %eax
 675 0728 01D0     		addl	%edx, %eax
 676 072a 01C0     		addl	%eax, %eax
 677 072c 01D0     		addl	%edx, %eax
 678 072e 8D1CC500 		leal	0(,%eax,8), %ebx
 678      000000
 679 0735 01D8     		addl	%ebx, %eax
 680 0737 01D0     		addl	%edx, %eax
 681 0739 05900000 		addl	$_TASK_RUN_QUEUE+144, %eax
 681      00
 682 073e 894804   		movl	%ecx, 4(%eax)
 155:E:/NeuOrga/Programmieren/c_cpp/github_os/input/src/os_base\os_task_queue.c ****       (&TASK_RUN_QUEUE[element_nr])->p_stack_pointer_by_malloc           = task->p_stack_pointer_by
 683              		.loc 1 155 0
 684 0741 0FB655F7 		movzbl	-9(%ebp), %edx
 685 0745 8B4508   		movl	8(%ebp), %eax
 686 0748 8B889800 		movl	152(%eax), %ecx
GAS LISTING C:\Users\PRESID~1\AppData\Local\Temp\cczIt3NK.s 			page 18


 686      0000
 687 074e 89D0     		movl	%edx, %eax
 688 0750 C1E003   		sall	$3, %eax
 689 0753 01D0     		addl	%edx, %eax
 690 0755 01C0     		addl	%eax, %eax
 691 0757 01D0     		addl	%edx, %eax
 692 0759 8D1CC500 		leal	0(,%eax,8), %ebx
 692      000000
 693 0760 01D8     		addl	%ebx, %eax
 694 0762 01D0     		addl	%edx, %eax
 695 0764 05900000 		addl	$_TASK_RUN_QUEUE+144, %eax
 695      00
 696 0769 894808   		movl	%ecx, 8(%eax)
 156:E:/NeuOrga/Programmieren/c_cpp/github_os/input/src/os_base\os_task_queue.c ****       (&TASK_RUN_QUEUE[element_nr])->p_stack_pointer_start              = task->p_stack_pointer_sta
 697              		.loc 1 156 0
 698 076c 0FB655F7 		movzbl	-9(%ebp), %edx
 699 0770 8B4508   		movl	8(%ebp), %eax
 700 0773 8B889C00 		movl	156(%eax), %ecx
 700      0000
 701 0779 89D0     		movl	%edx, %eax
 702 077b C1E003   		sall	$3, %eax
 703 077e 01D0     		addl	%edx, %eax
 704 0780 01C0     		addl	%eax, %eax
 705 0782 01D0     		addl	%edx, %eax
 706 0784 8D1CC500 		leal	0(,%eax,8), %ebx
 706      000000
 707 078b 01D8     		addl	%ebx, %eax
 708 078d 01D0     		addl	%edx, %eax
 709 078f 05900000 		addl	$_TASK_RUN_QUEUE+144, %eax
 709      00
 710 0794 89480C   		movl	%ecx, 12(%eax)
 157:E:/NeuOrga/Programmieren/c_cpp/github_os/input/src/os_base\os_task_queue.c ****       (&TASK_RUN_QUEUE[element_nr])->stack_size                       = task->stack_size;
 711              		.loc 1 157 0
 712 0797 0FB655F7 		movzbl	-9(%ebp), %edx
 713 079b 8B4508   		movl	8(%ebp), %eax
 714 079e 8B88A000 		movl	160(%eax), %ecx
 714      0000
 715 07a4 89D0     		movl	%edx, %eax
 716 07a6 C1E003   		sall	$3, %eax
 717 07a9 01D0     		addl	%edx, %eax
 718 07ab 01C0     		addl	%eax, %eax
 719 07ad 01D0     		addl	%edx, %eax
 720 07af 8D1CC500 		leal	0(,%eax,8), %ebx
 720      000000
 721 07b6 01D8     		addl	%ebx, %eax
 722 07b8 01D0     		addl	%edx, %eax
 723 07ba 05A00000 		addl	$_TASK_RUN_QUEUE+160, %eax
 723      00
 724 07bf 8908     		movl	%ecx, (%eax)
 158:E:/NeuOrga/Programmieren/c_cpp/github_os/input/src/os_base\os_task_queue.c ****       (&TASK_RUN_QUEUE[element_nr])->p_stack_pointer_end                = task->p_stack_pointer_end
 725              		.loc 1 158 0
 726 07c1 0FB655F7 		movzbl	-9(%ebp), %edx
 727 07c5 8B4508   		movl	8(%ebp), %eax
 728 07c8 8B88A400 		movl	164(%eax), %ecx
 728      0000
 729 07ce 89D0     		movl	%edx, %eax
 730 07d0 C1E003   		sall	$3, %eax
GAS LISTING C:\Users\PRESID~1\AppData\Local\Temp\cczIt3NK.s 			page 19


 731 07d3 01D0     		addl	%edx, %eax
 732 07d5 01C0     		addl	%eax, %eax
 733 07d7 01D0     		addl	%edx, %eax
 734 07d9 8D1CC500 		leal	0(,%eax,8), %ebx
 734      000000
 735 07e0 01D8     		addl	%ebx, %eax
 736 07e2 01D0     		addl	%edx, %eax
 737 07e4 05A00000 		addl	$_TASK_RUN_QUEUE+160, %eax
 737      00
 738 07e9 894804   		movl	%ecx, 4(%eax)
 159:E:/NeuOrga/Programmieren/c_cpp/github_os/input/src/os_base\os_task_queue.c ****       ret_task = &TASK_RUN_QUEUE[element_nr];
 739              		.loc 1 159 0
 740 07ec 0FB655F7 		movzbl	-9(%ebp), %edx
 741 07f0 89D0     		movl	%edx, %eax
 742 07f2 C1E003   		sall	$3, %eax
 743 07f5 01D0     		addl	%edx, %eax
 744 07f7 01C0     		addl	%eax, %eax
 745 07f9 01D0     		addl	%edx, %eax
 746 07fb 8D0CC500 		leal	0(,%eax,8), %ecx
 746      000000
 747 0802 01C8     		addl	%ecx, %eax
 748 0804 01D0     		addl	%edx, %eax
 749 0806 05000000 		addl	$_TASK_RUN_QUEUE, %eax
 749      00
 750 080b 8945F0   		movl	%eax, -16(%ebp)
 751              	L11:
 160:E:/NeuOrga/Programmieren/c_cpp/github_os/input/src/os_base\os_task_queue.c ****    }
 161:E:/NeuOrga/Programmieren/c_cpp/github_os/input/src/os_base\os_task_queue.c ****    return ret_task;
 752              		.loc 1 161 0
 753 080e 8B45F0   		movl	-16(%ebp), %eax
 162:E:/NeuOrga/Programmieren/c_cpp/github_os/input/src/os_base\os_task_queue.c **** }
 754              		.loc 1 162 0
 755 0811 83C424   		addl	$36, %esp
 756 0814 5B       		popl	%ebx
 757              		.cfi_restore 3
 758 0815 5D       		popl	%ebp
 759              		.cfi_restore 5
 760              		.cfi_def_cfa 4, 4
 761 0816 C3       		ret
 762              		.cfi_endproc
 763              	LFE2:
 764              		.globl	_DELETE_FROM_TASK_QUEUE
 766              	_DELETE_FROM_TASK_QUEUE:
 767              	LFB3:
 163:E:/NeuOrga/Programmieren/c_cpp/github_os/input/src/os_base\os_task_queue.c **** void DELETE_FROM_TASK_QUEUE(task_t* task)
 164:E:/NeuOrga/Programmieren/c_cpp/github_os/input/src/os_base\os_task_queue.c **** {
 768              		.loc 1 164 0
 769              		.cfi_startproc
 770 0817 55       		pushl	%ebp
 771              		.cfi_def_cfa_offset 8
 772              		.cfi_offset 5, -8
 773 0818 89E5     		movl	%esp, %ebp
 774              		.cfi_def_cfa_register 5
 775 081a 83EC18   		subl	$24, %esp
 165:E:/NeuOrga/Programmieren/c_cpp/github_os/input/src/os_base\os_task_queue.c ****    task->active                                =   FALSE   ;
 776              		.loc 1 165 0
 777 081d 8B4508   		movl	8(%ebp), %eax
GAS LISTING C:\Users\PRESID~1\AppData\Local\Temp\cczIt3NK.s 			page 20


 778 0820 8A10     		movb	(%eax), %dl
 779 0822 83E2FE   		andl	$-2, %edx
 780 0825 8810     		movb	%dl, (%eax)
 166:E:/NeuOrga/Programmieren/c_cpp/github_os/input/src/os_base\os_task_queue.c ****    task->task_queued                           =   FALSE   ;
 781              		.loc 1 166 0
 782 0827 8B4508   		movl	8(%ebp), %eax
 783 082a 8A10     		movb	(%eax), %dl
 784 082c 83E2FD   		andl	$-3, %edx
 785 082f 8810     		movb	%dl, (%eax)
 167:E:/NeuOrga/Programmieren/c_cpp/github_os/input/src/os_base\os_task_queue.c ****    task->idle_task                              =   FALSE   ;
 786              		.loc 1 167 0
 787 0831 8B4508   		movl	8(%ebp), %eax
 788 0834 8A10     		movb	(%eax), %dl
 789 0836 83E2FB   		andl	$-5, %edx
 790 0839 8810     		movb	%dl, (%eax)
 168:E:/NeuOrga/Programmieren/c_cpp/github_os/input/src/os_base\os_task_queue.c ****    task->free                                  =   0u       ;
 791              		.loc 1 168 0
 792 083b 8B4508   		movl	8(%ebp), %eax
 793 083e 8B10     		movl	(%eax), %edx
 794 0840 83E207   		andl	$7, %edx
 795 0843 8910     		movl	%edx, (%eax)
 169:E:/NeuOrga/Programmieren/c_cpp/github_os/input/src/os_base\os_task_queue.c ****    task->nr_of_ins_allowed                        =   0u       ;
 796              		.loc 1 169 0
 797 0845 8B4508   		movl	8(%ebp), %eax
 798 0848 C6400400 		movb	$0, 4(%eax)
 170:E:/NeuOrga/Programmieren/c_cpp/github_os/input/src/os_base\os_task_queue.c ****    task->nr_of_ins_activated                      =   0u       ;
 799              		.loc 1 170 0
 800 084c 8B4508   		movl	8(%ebp), %eax
 801 084f C6400500 		movb	$0, 5(%eax)
 171:E:/NeuOrga/Programmieren/c_cpp/github_os/input/src/os_base\os_task_queue.c ****    ASSIGN_NULL(&task->wait_act_until);
 802              		.loc 1 171 0
 803 0853 8B4508   		movl	8(%ebp), %eax
 804 0856 83C006   		addl	$6, %eax
 805 0859 890424   		movl	%eax, (%esp)
 806 085c E8000000 		call	_ASSIGN_NULL
 806      00
 172:E:/NeuOrga/Programmieren/c_cpp/github_os/input/src/os_base\os_task_queue.c ****    ASSIGN_NULL(&task->wait_time);
 807              		.loc 1 172 0
 808 0861 8B4508   		movl	8(%ebp), %eax
 809 0864 83C016   		addl	$22, %eax
 810 0867 890424   		movl	%eax, (%esp)
 811 086a E8000000 		call	_ASSIGN_NULL
 811      00
 173:E:/NeuOrga/Programmieren/c_cpp/github_os/input/src/os_base\os_task_queue.c ****    ASSIGN_NULL(&task->time_to_prio_inc);
 812              		.loc 1 173 0
 813 086f 8B4508   		movl	8(%ebp), %eax
 814 0872 83C026   		addl	$38, %eax
 815 0875 890424   		movl	%eax, (%esp)
 816 0878 E8000000 		call	_ASSIGN_NULL
 816      00
 174:E:/NeuOrga/Programmieren/c_cpp/github_os/input/src/os_base\os_task_queue.c ****    task->overwaittime_per_prio_inc_step        =   0u       ;
 817              		.loc 1 174 0
 818 087d 8B4508   		movl	8(%ebp), %eax
 819 0880 C7403800 		movl	$0, 56(%eax)
 819      000000
 175:E:/NeuOrga/Programmieren/c_cpp/github_os/input/src/os_base\os_task_queue.c ****    ASSIGN_NULL(&task->max_allowed_wait_time);
 820              		.loc 1 175 0
GAS LISTING C:\Users\PRESID~1\AppData\Local\Temp\cczIt3NK.s 			page 21


 821 0887 8B4508   		movl	8(%ebp), %eax
 822 088a 83C03C   		addl	$60, %eax
 823 088d 890424   		movl	%eax, (%esp)
 824 0890 E8000000 		call	_ASSIGN_NULL
 824      00
 176:E:/NeuOrga/Programmieren/c_cpp/github_os/input/src/os_base\os_task_queue.c ****    ASSIGN_NULL(&task->exe_time);
 825              		.loc 1 176 0
 826 0895 8B4508   		movl	8(%ebp), %eax
 827 0898 83C04C   		addl	$76, %eax
 828 089b 890424   		movl	%eax, (%esp)
 829 089e E8000000 		call	_ASSIGN_NULL
 829      00
 177:E:/NeuOrga/Programmieren/c_cpp/github_os/input/src/os_base\os_task_queue.c ****    ASSIGN_NULL(&task->start_time);
 830              		.loc 1 177 0
 831 08a3 8B4508   		movl	8(%ebp), %eax
 832 08a6 83C05C   		addl	$92, %eax
 833 08a9 890424   		movl	%eax, (%esp)
 834 08ac E8000000 		call	_ASSIGN_NULL
 834      00
 178:E:/NeuOrga/Programmieren/c_cpp/github_os/input/src/os_base\os_task_queue.c ****    task->current_prio                          =   0u       ;
 835              		.loc 1 178 0
 836 08b1 8B4508   		movl	8(%ebp), %eax
 837 08b4 C6406C00 		movb	$0, 108(%eax)
 179:E:/NeuOrga/Programmieren/c_cpp/github_os/input/src/os_base\os_task_queue.c ****    task->default_prio                          =   0u      ;
 838              		.loc 1 179 0
 839 08b8 8B4508   		movl	8(%ebp), %eax
 840 08bb C6406D00 		movb	$0, 109(%eax)
 180:E:/NeuOrga/Programmieren/c_cpp/github_os/input/src/os_base\os_task_queue.c ****    task->fp                                    =   0u       ;
 841              		.loc 1 180 0
 842 08bf 8B4508   		movl	8(%ebp), %eax
 843 08c2 C7407400 		movl	$0, 116(%eax)
 843      000000
 181:E:/NeuOrga/Programmieren/c_cpp/github_os/input/src/os_base\os_task_queue.c ****    task->state_request                         =   &OS_TASK_STATE_REQUEST       ;
 844              		.loc 1 181 0
 845 08c9 8B4508   		movl	8(%ebp), %eax
 846 08cc C7407800 		movl	$_OS_TASK_STATE_REQUEST, 120(%eax)
 846      000000
 182:E:/NeuOrga/Programmieren/c_cpp/github_os/input/src/os_base\os_task_queue.c ****    task->task_state                            =   E_TASK_UNSPECIFIED;
 847              		.loc 1 182 0
 848 08d3 8B4508   		movl	8(%ebp), %eax
 849 08d6 C7407C00 		movl	$0, 124(%eax)
 849      000000
 183:E:/NeuOrga/Programmieren/c_cpp/github_os/input/src/os_base\os_task_queue.c ****    task->task_group                            =   0u       ;
 850              		.loc 1 183 0
 851 08dd 8B4508   		movl	8(%ebp), %eax
 852 08e0 C7808000 		movl	$0, 128(%eax)
 852      00000000 
 852      0000
 184:E:/NeuOrga/Programmieren/c_cpp/github_os/input/src/os_base\os_task_queue.c **** #if(CFG_PROCESSOR == MCU_X86)
 185:E:/NeuOrga/Programmieren/c_cpp/github_os/input/src/os_base\os_task_queue.c ****    task->eax                                   =   0u              ;
 853              		.loc 1 185 0
 854 08ea 8B4508   		movl	8(%ebp), %eax
 855 08ed C7808400 		movl	$0, 132(%eax)
 855      00000000 
 855      0000
 186:E:/NeuOrga/Programmieren/c_cpp/github_os/input/src/os_base\os_task_queue.c ****    task->ebx                                   =   0u             ;
 856              		.loc 1 186 0
GAS LISTING C:\Users\PRESID~1\AppData\Local\Temp\cczIt3NK.s 			page 22


 857 08f7 8B4508   		movl	8(%ebp), %eax
 858 08fa C7808800 		movl	$0, 136(%eax)
 858      00000000 
 858      0000
 187:E:/NeuOrga/Programmieren/c_cpp/github_os/input/src/os_base\os_task_queue.c ****    task->ecx                                   =   0u              ;
 859              		.loc 1 187 0
 860 0904 8B4508   		movl	8(%ebp), %eax
 861 0907 C7808C00 		movl	$0, 140(%eax)
 861      00000000 
 861      0000
 188:E:/NeuOrga/Programmieren/c_cpp/github_os/input/src/os_base\os_task_queue.c ****    task->edx                                   =   0u              ;
 862              		.loc 1 188 0
 863 0911 8B4508   		movl	8(%ebp), %eax
 864 0914 C7809000 		movl	$0, 144(%eax)
 864      00000000 
 864      0000
 189:E:/NeuOrga/Programmieren/c_cpp/github_os/input/src/os_base\os_task_queue.c **** #elif(CFG_PROCESSOR == MCU_CORTEX_M4)
 190:E:/NeuOrga/Programmieren/c_cpp/github_os/input/src/os_base\os_task_queue.c ****    task->r0                                   =   0u              ;
 191:E:/NeuOrga/Programmieren/c_cpp/github_os/input/src/os_base\os_task_queue.c ****    task->r1                                   =   0u              ;
 192:E:/NeuOrga/Programmieren/c_cpp/github_os/input/src/os_base\os_task_queue.c ****    task->r2                                   =   0u              ;
 193:E:/NeuOrga/Programmieren/c_cpp/github_os/input/src/os_base\os_task_queue.c ****    task->r3                                   =   0u              ;
 194:E:/NeuOrga/Programmieren/c_cpp/github_os/input/src/os_base\os_task_queue.c ****    task->r4                                   =   0u              ;
 195:E:/NeuOrga/Programmieren/c_cpp/github_os/input/src/os_base\os_task_queue.c ****    task->r5                                   =   0u              ;
 196:E:/NeuOrga/Programmieren/c_cpp/github_os/input/src/os_base\os_task_queue.c ****    task->r6                                   =   0u              ;
 197:E:/NeuOrga/Programmieren/c_cpp/github_os/input/src/os_base\os_task_queue.c ****    task->r7                                   =   0u              ;
 198:E:/NeuOrga/Programmieren/c_cpp/github_os/input/src/os_base\os_task_queue.c ****    task->r8                                   =   0u              ;
 199:E:/NeuOrga/Programmieren/c_cpp/github_os/input/src/os_base\os_task_queue.c ****    task->r9                                   =   0u              ;
 200:E:/NeuOrga/Programmieren/c_cpp/github_os/input/src/os_base\os_task_queue.c ****    task->r10                                  =   0u             ;
 201:E:/NeuOrga/Programmieren/c_cpp/github_os/input/src/os_base\os_task_queue.c ****    task->r11                                  =   0u             ;
 202:E:/NeuOrga/Programmieren/c_cpp/github_os/input/src/os_base\os_task_queue.c ****    task->r12                                  =   0u             ;
 203:E:/NeuOrga/Programmieren/c_cpp/github_os/input/src/os_base\os_task_queue.c **** #else
 204:E:/NeuOrga/Programmieren/c_cpp/github_os/input/src/os_base\os_task_queue.c **** #error "os_task_queue.c"
 205:E:/NeuOrga/Programmieren/c_cpp/github_os/input/src/os_base\os_task_queue.c **** #endif
 206:E:/NeuOrga/Programmieren/c_cpp/github_os/input/src/os_base\os_task_queue.c ****    task->p_stack_pointer                         =   0u       ;
 865              		.loc 1 206 0
 866 091e 8B4508   		movl	8(%ebp), %eax
 867 0921 C7809400 		movl	$0, 148(%eax)
 867      00000000 
 867      0000
 207:E:/NeuOrga/Programmieren/c_cpp/github_os/input/src/os_base\os_task_queue.c ****    task->p_stack_pointer_by_malloc                 =   0u       ;
 868              		.loc 1 207 0
 869 092b 8B4508   		movl	8(%ebp), %eax
 870 092e C7809800 		movl	$0, 152(%eax)
 870      00000000 
 870      0000
 208:E:/NeuOrga/Programmieren/c_cpp/github_os/input/src/os_base\os_task_queue.c ****    task->p_stack_pointer_start                    =   0u       ;
 871              		.loc 1 208 0
 872 0938 8B4508   		movl	8(%ebp), %eax
 873 093b C7809C00 		movl	$0, 156(%eax)
 873      00000000 
 873      0000
 209:E:/NeuOrga/Programmieren/c_cpp/github_os/input/src/os_base\os_task_queue.c ****    task->stack_size                             =   0u       ;
 874              		.loc 1 209 0
 875 0945 8B4508   		movl	8(%ebp), %eax
 876 0948 C780A000 		movl	$0, 160(%eax)
 876      00000000 
 876      0000
GAS LISTING C:\Users\PRESID~1\AppData\Local\Temp\cczIt3NK.s 			page 23


 210:E:/NeuOrga/Programmieren/c_cpp/github_os/input/src/os_base\os_task_queue.c ****    task->p_stack_pointer_end                      =   0u       ;
 877              		.loc 1 210 0
 878 0952 8B4508   		movl	8(%ebp), %eax
 879 0955 C780A400 		movl	$0, 164(%eax)
 879      00000000 
 879      0000
 211:E:/NeuOrga/Programmieren/c_cpp/github_os/input/src/os_base\os_task_queue.c **** }
 880              		.loc 1 211 0
 881 095f C9       		leave
 882              		.cfi_restore 5
 883              		.cfi_def_cfa 4, 4
 884 0960 C3       		ret
 885              		.cfi_endproc
 886              	LFE3:
 887              		.globl	_GET_FROM_TASK_QUEUE
 889              	_GET_FROM_TASK_QUEUE:
 890              	LFB4:
 212:E:/NeuOrga/Programmieren/c_cpp/github_os/input/src/os_base\os_task_queue.c **** task_t* GET_FROM_TASK_QUEUE(scheduling_t* scheduling_queue_element)
 213:E:/NeuOrga/Programmieren/c_cpp/github_os/input/src/os_base\os_task_queue.c **** {
 891              		.loc 1 213 0
 892              		.cfi_startproc
 893 0961 55       		pushl	%ebp
 894              		.cfi_def_cfa_offset 8
 895              		.cfi_offset 5, -8
 896 0962 89E5     		movl	%esp, %ebp
 897              		.cfi_def_cfa_register 5
 214:E:/NeuOrga/Programmieren/c_cpp/github_os/input/src/os_base\os_task_queue.c ****    return ((task_t*)*scheduling_queue_element);
 898              		.loc 1 214 0
 899 0964 8B4508   		movl	8(%ebp), %eax
 900 0967 8B00     		movl	(%eax), %eax
 215:E:/NeuOrga/Programmieren/c_cpp/github_os/input/src/os_base\os_task_queue.c **** }
 901              		.loc 1 215 0
 902 0969 5D       		popl	%ebp
 903              		.cfi_restore 5
 904              		.cfi_def_cfa 4, 4
 905 096a C3       		ret
 906              		.cfi_endproc
 907              	LFE4:
 908              		.globl	_GET_FROM_SCHEDULING_QUEUE
 910              	_GET_FROM_SCHEDULING_QUEUE:
 911              	LFB5:
 216:E:/NeuOrga/Programmieren/c_cpp/github_os/input/src/os_base\os_task_queue.c **** scheduling_t* GET_FROM_SCHEDULING_QUEUE(unsigned_char_t element_nr)
 217:E:/NeuOrga/Programmieren/c_cpp/github_os/input/src/os_base\os_task_queue.c **** {
 912              		.loc 1 217 0
 913              		.cfi_startproc
 914 096b 55       		pushl	%ebp
 915              		.cfi_def_cfa_offset 8
 916              		.cfi_offset 5, -8
 917 096c 89E5     		movl	%esp, %ebp
 918              		.cfi_def_cfa_register 5
 919 096e 83EC04   		subl	$4, %esp
 920 0971 8B4508   		movl	8(%ebp), %eax
 921 0974 8845FC   		movb	%al, -4(%ebp)
 218:E:/NeuOrga/Programmieren/c_cpp/github_os/input/src/os_base\os_task_queue.c ****    return ((scheduling_t*)&TASK_SCHEDULING_QUEUE[element_nr]);
 922              		.loc 1 218 0
 923 0977 0FB645FC 		movzbl	-4(%ebp), %eax
 924 097b C1E002   		sall	$2, %eax
GAS LISTING C:\Users\PRESID~1\AppData\Local\Temp\cczIt3NK.s 			page 24


 925 097e 05000000 		addl	$_TASK_SCHEDULING_QUEUE, %eax
 925      00
 219:E:/NeuOrga/Programmieren/c_cpp/github_os/input/src/os_base\os_task_queue.c **** }
 926              		.loc 1 219 0
 927 0983 C9       		leave
 928              		.cfi_restore 5
 929              		.cfi_def_cfa 4, 4
 930 0984 C3       		ret
 931              		.cfi_endproc
 932              	LFE5:
 933              		.globl	_DELETE_FROM_SCHEDULING_QUEUE
 935              	_DELETE_FROM_SCHEDULING_QUEUE:
 936              	LFB6:
 220:E:/NeuOrga/Programmieren/c_cpp/github_os/input/src/os_base\os_task_queue.c **** /* Pointer Queue Handling*/
 221:E:/NeuOrga/Programmieren/c_cpp/github_os/input/src/os_base\os_task_queue.c **** void DELETE_FROM_SCHEDULING_QUEUE(scheduling_t* scheduling_queue_element)
 222:E:/NeuOrga/Programmieren/c_cpp/github_os/input/src/os_base\os_task_queue.c **** {
 937              		.loc 1 222 0
 938              		.cfi_startproc
 939 0985 55       		pushl	%ebp
 940              		.cfi_def_cfa_offset 8
 941              		.cfi_offset 5, -8
 942 0986 89E5     		movl	%esp, %ebp
 943              		.cfi_def_cfa_register 5
 223:E:/NeuOrga/Programmieren/c_cpp/github_os/input/src/os_base\os_task_queue.c ****    *scheduling_queue_element = 0u;
 944              		.loc 1 223 0
 945 0988 8B4508   		movl	8(%ebp), %eax
 946 098b C7000000 		movl	$0, (%eax)
 946      0000
 224:E:/NeuOrga/Programmieren/c_cpp/github_os/input/src/os_base\os_task_queue.c **** }
 947              		.loc 1 224 0
 948 0991 5D       		popl	%ebp
 949              		.cfi_restore 5
 950              		.cfi_def_cfa 4, 4
 951 0992 C3       		ret
 952              		.cfi_endproc
 953              	LFE6:
 954              		.globl	_ADD_TO_SCHEDULING_QUEUE
 956              	_ADD_TO_SCHEDULING_QUEUE:
 957              	LFB7:
 225:E:/NeuOrga/Programmieren/c_cpp/github_os/input/src/os_base\os_task_queue.c **** void ADD_TO_SCHEDULING_QUEUE(task_t* task)
 226:E:/NeuOrga/Programmieren/c_cpp/github_os/input/src/os_base\os_task_queue.c **** {
 958              		.loc 1 226 0
 959              		.cfi_startproc
 960 0993 55       		pushl	%ebp
 961              		.cfi_def_cfa_offset 8
 962              		.cfi_offset 5, -8
 963 0994 89E5     		movl	%esp, %ebp
 964              		.cfi_def_cfa_register 5
 965 0996 83EC10   		subl	$16, %esp
 227:E:/NeuOrga/Programmieren/c_cpp/github_os/input/src/os_base\os_task_queue.c ****    /*
 228:E:/NeuOrga/Programmieren/c_cpp/github_os/input/src/os_base\os_task_queue.c ****    Description:
 229:E:/NeuOrga/Programmieren/c_cpp/github_os/input/src/os_base\os_task_queue.c ****    add "task" into next free slot of TASK_SCHEDULING_QUEUE
 230:E:/NeuOrga/Programmieren/c_cpp/github_os/input/src/os_base\os_task_queue.c **** 
 231:E:/NeuOrga/Programmieren/c_cpp/github_os/input/src/os_base\os_task_queue.c ****    in:     task_t* task (task to be added)
 232:E:/NeuOrga/Programmieren/c_cpp/github_os/input/src/os_base\os_task_queue.c ****    out:
 233:E:/NeuOrga/Programmieren/c_cpp/github_os/input/src/os_base\os_task_queue.c ****    */
 234:E:/NeuOrga/Programmieren/c_cpp/github_os/input/src/os_base\os_task_queue.c ****    unsigned_char_t Add_successful = FALSE;
GAS LISTING C:\Users\PRESID~1\AppData\Local\Temp\cczIt3NK.s 			page 25


 966              		.loc 1 234 0
 967 0999 C645FF00 		movb	$0, -1(%ebp)
 235:E:/NeuOrga/Programmieren/c_cpp/github_os/input/src/os_base\os_task_queue.c ****    unsigned_char_t index = 0u;
 968              		.loc 1 235 0
 969 099d C645FE00 		movb	$0, -2(%ebp)
 236:E:/NeuOrga/Programmieren/c_cpp/github_os/input/src/os_base\os_task_queue.c **** 
 237:E:/NeuOrga/Programmieren/c_cpp/github_os/input/src/os_base\os_task_queue.c ****    while(  (index < MAX_RUN_QUEUE_SIZE)
 970              		.loc 1 237 0
 971 09a1 EB28     		jmp	L20
 972              	L23:
 238:E:/NeuOrga/Programmieren/c_cpp/github_os/input/src/os_base\os_task_queue.c ****            &&(Add_successful == FALSE))
 239:E:/NeuOrga/Programmieren/c_cpp/github_os/input/src/os_base\os_task_queue.c ****    {
 240:E:/NeuOrga/Programmieren/c_cpp/github_os/input/src/os_base\os_task_queue.c ****       if(TASK_SCHEDULING_QUEUE[index] == 0u)
 973              		.loc 1 240 0
 974 09a3 0FB645FE 		movzbl	-2(%ebp), %eax
 975 09a7 8B048500 		movl	_TASK_SCHEDULING_QUEUE(,%eax,4), %eax
 975      000000
 976 09ae 85C0     		testl	%eax, %eax
 977 09b0 7512     		jne	L21
 241:E:/NeuOrga/Programmieren/c_cpp/github_os/input/src/os_base\os_task_queue.c ****       {
 242:E:/NeuOrga/Programmieren/c_cpp/github_os/input/src/os_base\os_task_queue.c ****          TASK_SCHEDULING_QUEUE[index] = task;
 978              		.loc 1 242 0
 979 09b2 0FB645FE 		movzbl	-2(%ebp), %eax
 980 09b6 8B5508   		movl	8(%ebp), %edx
 981 09b9 89148500 		movl	%edx, _TASK_SCHEDULING_QUEUE(,%eax,4)
 981      000000
 243:E:/NeuOrga/Programmieren/c_cpp/github_os/input/src/os_base\os_task_queue.c ****          Add_successful         = TRUE;
 982              		.loc 1 243 0
 983 09c0 C645FF01 		movb	$1, -1(%ebp)
 984              	L21:
 244:E:/NeuOrga/Programmieren/c_cpp/github_os/input/src/os_base\os_task_queue.c ****       }
 245:E:/NeuOrga/Programmieren/c_cpp/github_os/input/src/os_base\os_task_queue.c ****       index++;
 985              		.loc 1 245 0
 986 09c4 8A45FE   		movb	-2(%ebp), %al
 987 09c7 40       		incl	%eax
 988 09c8 8845FE   		movb	%al, -2(%ebp)
 989              	L20:
 237:E:/NeuOrga/Programmieren/c_cpp/github_os/input/src/os_base\os_task_queue.c ****            &&(Add_successful == FALSE))
 990              		.loc 1 237 0
 991 09cb 807DFE09 		cmpb	$9, -2(%ebp)
 992 09cf 7706     		ja	L22
 238:E:/NeuOrga/Programmieren/c_cpp/github_os/input/src/os_base\os_task_queue.c ****    {
 993              		.loc 1 238 0
 994 09d1 807DFF00 		cmpb	$0, -1(%ebp)
 995 09d5 74CC     		je	L23
 996              	L22:
 246:E:/NeuOrga/Programmieren/c_cpp/github_os/input/src/os_base\os_task_queue.c ****    }
 247:E:/NeuOrga/Programmieren/c_cpp/github_os/input/src/os_base\os_task_queue.c ****    return;
 997              		.loc 1 247 0
 998 09d7 90       		nop
 248:E:/NeuOrga/Programmieren/c_cpp/github_os/input/src/os_base\os_task_queue.c **** }
 999              		.loc 1 248 0
 1000 09d8 C9       		leave
 1001              		.cfi_restore 5
 1002              		.cfi_def_cfa 4, 4
 1003 09d9 C3       		ret
 1004              		.cfi_endproc
GAS LISTING C:\Users\PRESID~1\AppData\Local\Temp\cczIt3NK.s 			page 26


 1005              	LFE7:
 1006              		.globl	_GET_IDLE_TASK
 1008              	_GET_IDLE_TASK:
 1009              	LFB8:
 249:E:/NeuOrga/Programmieren/c_cpp/github_os/input/src/os_base\os_task_queue.c **** #if(0)
 250:E:/NeuOrga/Programmieren/c_cpp/github_os/input/src/os_base\os_task_queue.c **** void UpdateSchedulingQueue(void)
 251:E:/NeuOrga/Programmieren/c_cpp/github_os/input/src/os_base\os_task_queue.c **** {
 252:E:/NeuOrga/Programmieren/c_cpp/github_os/input/src/os_base\os_task_queue.c ****    /* eliminate emptry link list entries (should be colleted at the high numbers) */
 253:E:/NeuOrga/Programmieren/c_cpp/github_os/input/src/os_base\os_task_queue.c ****    unsigned_char_t dest = 0u, src = 0u;
 254:E:/NeuOrga/Programmieren/c_cpp/github_os/input/src/os_base\os_task_queue.c **** 
 255:E:/NeuOrga/Programmieren/c_cpp/github_os/input/src/os_base\os_task_queue.c ****    while (dest < MAX_RUN_PQUEUE_SIZE)
 256:E:/NeuOrga/Programmieren/c_cpp/github_os/input/src/os_base\os_task_queue.c ****    {
 257:E:/NeuOrga/Programmieren/c_cpp/github_os/input/src/os_base\os_task_queue.c ****       if(TASK_SCHEDULING_QUEUE[dest] == 0u)
 258:E:/NeuOrga/Programmieren/c_cpp/github_os/input/src/os_base\os_task_queue.c ****       {
 259:E:/NeuOrga/Programmieren/c_cpp/github_os/input/src/os_base\os_task_queue.c ****          /* found empty entry ->shift following elements left in array */
 260:E:/NeuOrga/Programmieren/c_cpp/github_os/input/src/os_base\os_task_queue.c **** 
 261:E:/NeuOrga/Programmieren/c_cpp/github_os/input/src/os_base\os_task_queue.c ****          src = dest; /* start from empty entry point */
 262:E:/NeuOrga/Programmieren/c_cpp/github_os/input/src/os_base\os_task_queue.c ****          while((src < MAX_RUN_PQUEUE_SIZE)&&(TASK_SCHEDULING_QUEUE[src]==0u))
 263:E:/NeuOrga/Programmieren/c_cpp/github_os/input/src/os_base\os_task_queue.c ****          {
 264:E:/NeuOrga/Programmieren/c_cpp/github_os/input/src/os_base\os_task_queue.c ****             src++;
 265:E:/NeuOrga/Programmieren/c_cpp/github_os/input/src/os_base\os_task_queue.c ****          }
 266:E:/NeuOrga/Programmieren/c_cpp/github_os/input/src/os_base\os_task_queue.c ****          if((src < MAX_RUN_PQUEUE_SIZE)&&(TASK_SCHEDULING_QUEUE[src]!=0))
 267:E:/NeuOrga/Programmieren/c_cpp/github_os/input/src/os_base\os_task_queue.c ****          {
 268:E:/NeuOrga/Programmieren/c_cpp/github_os/input/src/os_base\os_task_queue.c ****             TASK_SCHEDULING_QUEUE[dest] = TASK_SCHEDULING_QUEUE[src];
 269:E:/NeuOrga/Programmieren/c_cpp/github_os/input/src/os_base\os_task_queue.c ****             TASK_SCHEDULING_QUEUE[src]  = 0u;
 270:E:/NeuOrga/Programmieren/c_cpp/github_os/input/src/os_base\os_task_queue.c ****          }
 271:E:/NeuOrga/Programmieren/c_cpp/github_os/input/src/os_base\os_task_queue.c ****       }
 272:E:/NeuOrga/Programmieren/c_cpp/github_os/input/src/os_base\os_task_queue.c ****       dest++;
 273:E:/NeuOrga/Programmieren/c_cpp/github_os/input/src/os_base\os_task_queue.c ****    }
 274:E:/NeuOrga/Programmieren/c_cpp/github_os/input/src/os_base\os_task_queue.c **** }
 275:E:/NeuOrga/Programmieren/c_cpp/github_os/input/src/os_base\os_task_queue.c **** #endif
 276:E:/NeuOrga/Programmieren/c_cpp/github_os/input/src/os_base\os_task_queue.c **** 
 277:E:/NeuOrga/Programmieren/c_cpp/github_os/input/src/os_base\os_task_queue.c **** /* Idle task queue handling */
 278:E:/NeuOrga/Programmieren/c_cpp/github_os/input/src/os_base\os_task_queue.c **** task_t* GET_IDLE_TASK(void)
 279:E:/NeuOrga/Programmieren/c_cpp/github_os/input/src/os_base\os_task_queue.c **** {
 1010              		.loc 1 279 0
 1011              		.cfi_startproc
 1012 09da 55       		pushl	%ebp
 1013              		.cfi_def_cfa_offset 8
 1014              		.cfi_offset 5, -8
 1015 09db 89E5     		movl	%esp, %ebp
 1016              		.cfi_def_cfa_register 5
 280:E:/NeuOrga/Programmieren/c_cpp/github_os/input/src/os_base\os_task_queue.c ****    return (&TASK_IDLE_QUEUE[0u]);
 1017              		.loc 1 280 0
 1018 09dd B8000000 		movl	$_TASK_IDLE_QUEUE, %eax
 1018      00
 281:E:/NeuOrga/Programmieren/c_cpp/github_os/input/src/os_base\os_task_queue.c **** }
 1019              		.loc 1 281 0
 1020 09e2 5D       		popl	%ebp
 1021              		.cfi_restore 5
 1022              		.cfi_def_cfa 4, 4
 1023 09e3 C3       		ret
 1024              		.cfi_endproc
 1025              	LFE8:
 1026              		.globl	_ADD_TO_IDLE_TASK_QUEUE
 1028              	_ADD_TO_IDLE_TASK_QUEUE:
 1029              	LFB9:
GAS LISTING C:\Users\PRESID~1\AppData\Local\Temp\cczIt3NK.s 			page 27


 282:E:/NeuOrga/Programmieren/c_cpp/github_os/input/src/os_base\os_task_queue.c **** void ADD_TO_IDLE_TASK_QUEUE(task_t* task)
 283:E:/NeuOrga/Programmieren/c_cpp/github_os/input/src/os_base\os_task_queue.c **** {
 1030              		.loc 1 283 0
 1031              		.cfi_startproc
 1032 09e4 55       		pushl	%ebp
 1033              		.cfi_def_cfa_offset 8
 1034              		.cfi_offset 5, -8
 1035 09e5 89E5     		movl	%esp, %ebp
 1036              		.cfi_def_cfa_register 5
 1037 09e7 83EC18   		subl	$24, %esp
 284:E:/NeuOrga/Programmieren/c_cpp/github_os/input/src/os_base\os_task_queue.c ****    /* only 1 element for TASK_IDLE_QUEUE allowed */
 285:E:/NeuOrga/Programmieren/c_cpp/github_os/input/src/os_base\os_task_queue.c ****    if((&TASK_IDLE_QUEUE[0u])->idle_task == FALSE)
 1038              		.loc 1 285 0
 1039 09ea A0000000 		movb	_TASK_IDLE_QUEUE, %al
 1039      00
 1040 09ef 83E004   		andl	$4, %eax
 1041 09f2 84C0     		testb	%al, %al
 1042 09f4 0F85CE01 		jne	L27
 1042      0000
 286:E:/NeuOrga/Programmieren/c_cpp/github_os/input/src/os_base\os_task_queue.c ****    {
 287:E:/NeuOrga/Programmieren/c_cpp/github_os/input/src/os_base\os_task_queue.c ****       (&TASK_IDLE_QUEUE[0u])->active                                =   task->active           ;
 1043              		.loc 1 287 0
 1044 09fa 8B4508   		movl	8(%ebp), %eax
 1045 09fd 8A00     		movb	(%eax), %al
 1046 09ff 83E001   		andl	$1, %eax
 1047 0a02 83E001   		andl	$1, %eax
 1048 0a05 88C2     		movb	%al, %dl
 1049 0a07 A0000000 		movb	_TASK_IDLE_QUEUE, %al
 1049      00
 1050 0a0c 83E0FE   		andl	$-2, %eax
 1051 0a0f 09D0     		orl	%edx, %eax
 1052 0a11 A2000000 		movb	%al, _TASK_IDLE_QUEUE
 1052      00
 288:E:/NeuOrga/Programmieren/c_cpp/github_os/input/src/os_base\os_task_queue.c ****       (&TASK_IDLE_QUEUE[0u])->task_queued                           =   task->task_queued      ;
 1053              		.loc 1 288 0
 1054 0a16 8B4508   		movl	8(%ebp), %eax
 1055 0a19 8A00     		movb	(%eax), %al
 1056 0a1b D0E8     		shrb	%al
 1057 0a1d 83E001   		andl	$1, %eax
 1058 0a20 83E001   		andl	$1, %eax
 1059 0a23 8D1400   		leal	(%eax,%eax), %edx
 1060 0a26 A0000000 		movb	_TASK_IDLE_QUEUE, %al
 1060      00
 1061 0a2b 83E0FD   		andl	$-3, %eax
 1062 0a2e 09D0     		orl	%edx, %eax
 1063 0a30 A2000000 		movb	%al, _TASK_IDLE_QUEUE
 1063      00
 289:E:/NeuOrga/Programmieren/c_cpp/github_os/input/src/os_base\os_task_queue.c ****       (&TASK_IDLE_QUEUE[0u])->idle_task                              =   task->idle_task         ;
 1064              		.loc 1 289 0
 1065 0a35 8B4508   		movl	8(%ebp), %eax
 1066 0a38 8A00     		movb	(%eax), %al
 1067 0a3a C0E802   		shrb	$2, %al
 1068 0a3d 83E001   		andl	$1, %eax
 1069 0a40 83E001   		andl	$1, %eax
 1070 0a43 8D148500 		leal	0(,%eax,4), %edx
 1070      000000
 1071 0a4a A0000000 		movb	_TASK_IDLE_QUEUE, %al
GAS LISTING C:\Users\PRESID~1\AppData\Local\Temp\cczIt3NK.s 			page 28


 1071      00
 1072 0a4f 83E0FB   		andl	$-5, %eax
 1073 0a52 09D0     		orl	%edx, %eax
 1074 0a54 A2000000 		movb	%al, _TASK_IDLE_QUEUE
 1074      00
 290:E:/NeuOrga/Programmieren/c_cpp/github_os/input/src/os_base\os_task_queue.c ****       (&TASK_IDLE_QUEUE[0u])->free                                  =   task->free             ;
 1075              		.loc 1 290 0
 1076 0a59 8B4508   		movl	8(%ebp), %eax
 1077 0a5c 8B00     		movl	(%eax), %eax
 1078 0a5e C1E803   		shrl	$3, %eax
 1079 0a61 8D14C500 		leal	0(,%eax,8), %edx
 1079      000000
 1080 0a68 A1000000 		movl	_TASK_IDLE_QUEUE, %eax
 1080      00
 1081 0a6d 83E007   		andl	$7, %eax
 1082 0a70 09D0     		orl	%edx, %eax
 1083 0a72 A3000000 		movl	%eax, _TASK_IDLE_QUEUE
 1083      00
 291:E:/NeuOrga/Programmieren/c_cpp/github_os/input/src/os_base\os_task_queue.c ****       (&TASK_IDLE_QUEUE[0u])->nr_of_ins_allowed                        =   task->nr_of_ins_allowed 
 1084              		.loc 1 291 0
 1085 0a77 8B4508   		movl	8(%ebp), %eax
 1086 0a7a 8A4004   		movb	4(%eax), %al
 1087 0a7d A2040000 		movb	%al, _TASK_IDLE_QUEUE+4
 1087      00
 292:E:/NeuOrga/Programmieren/c_cpp/github_os/input/src/os_base\os_task_queue.c ****       (&TASK_IDLE_QUEUE[0u])->nr_of_ins_activated                      =   task->nr_of_ins_activate
 1088              		.loc 1 292 0
 1089 0a82 8B4508   		movl	8(%ebp), %eax
 1090 0a85 8A4005   		movb	5(%eax), %al
 1091 0a88 A2050000 		movb	%al, _TASK_IDLE_QUEUE+5
 1091      00
 293:E:/NeuOrga/Programmieren/c_cpp/github_os/input/src/os_base\os_task_queue.c ****       ASSIGN(&(&TASK_IDLE_QUEUE[0u])->wait_act_until, &task->wait_act_until);
 1092              		.loc 1 293 0
 1093 0a8d 8B4508   		movl	8(%ebp), %eax
 1094 0a90 83C006   		addl	$6, %eax
 1095 0a93 89442404 		movl	%eax, 4(%esp)
 1096 0a97 C7042406 		movl	$_TASK_IDLE_QUEUE+6, (%esp)
 1096      000000
 1097 0a9e E8000000 		call	_ASSIGN
 1097      00
 294:E:/NeuOrga/Programmieren/c_cpp/github_os/input/src/os_base\os_task_queue.c ****       ASSIGN(&(&TASK_IDLE_QUEUE[0u])->wait_time, &task->wait_time);
 1098              		.loc 1 294 0
 1099 0aa3 8B4508   		movl	8(%ebp), %eax
 1100 0aa6 83C016   		addl	$22, %eax
 1101 0aa9 89442404 		movl	%eax, 4(%esp)
 1102 0aad C7042416 		movl	$_TASK_IDLE_QUEUE+22, (%esp)
 1102      000000
 1103 0ab4 E8000000 		call	_ASSIGN
 1103      00
 295:E:/NeuOrga/Programmieren/c_cpp/github_os/input/src/os_base\os_task_queue.c ****       ASSIGN(&(&TASK_IDLE_QUEUE[0u])->time_to_prio_inc, &task->time_to_prio_inc);
 1104              		.loc 1 295 0
 1105 0ab9 8B4508   		movl	8(%ebp), %eax
 1106 0abc 83C026   		addl	$38, %eax
 1107 0abf 89442404 		movl	%eax, 4(%esp)
 1108 0ac3 C7042426 		movl	$_TASK_IDLE_QUEUE+38, (%esp)
 1108      000000
 1109 0aca E8000000 		call	_ASSIGN
 1109      00
GAS LISTING C:\Users\PRESID~1\AppData\Local\Temp\cczIt3NK.s 			page 29


 296:E:/NeuOrga/Programmieren/c_cpp/github_os/input/src/os_base\os_task_queue.c ****       (&TASK_IDLE_QUEUE[0u])->overwaittime_per_prio_inc_step       =    task->overwaittime_per_prio
 1110              		.loc 1 296 0
 1111 0acf 8B4508   		movl	8(%ebp), %eax
 1112 0ad2 8B4038   		movl	56(%eax), %eax
 1113 0ad5 A3380000 		movl	%eax, _TASK_IDLE_QUEUE+56
 1113      00
 297:E:/NeuOrga/Programmieren/c_cpp/github_os/input/src/os_base\os_task_queue.c ****       ASSIGN(&(&TASK_IDLE_QUEUE[0u])->max_allowed_wait_time, &task->max_allowed_wait_time);
 1114              		.loc 1 297 0
 1115 0ada 8B4508   		movl	8(%ebp), %eax
 1116 0add 83C03C   		addl	$60, %eax
 1117 0ae0 89442404 		movl	%eax, 4(%esp)
 1118 0ae4 C704243C 		movl	$_TASK_IDLE_QUEUE+60, (%esp)
 1118      000000
 1119 0aeb E8000000 		call	_ASSIGN
 1119      00
 298:E:/NeuOrga/Programmieren/c_cpp/github_os/input/src/os_base\os_task_queue.c ****       ASSIGN(&(&TASK_IDLE_QUEUE[0u])->exe_time, &task->exe_time);
 1120              		.loc 1 298 0
 1121 0af0 8B4508   		movl	8(%ebp), %eax
 1122 0af3 83C04C   		addl	$76, %eax
 1123 0af6 89442404 		movl	%eax, 4(%esp)
 1124 0afa C704244C 		movl	$_TASK_IDLE_QUEUE+76, (%esp)
 1124      000000
 1125 0b01 E8000000 		call	_ASSIGN
 1125      00
 299:E:/NeuOrga/Programmieren/c_cpp/github_os/input/src/os_base\os_task_queue.c ****       (&TASK_IDLE_QUEUE[0u])->current_prio                          =   task->current_prio     ;
 1126              		.loc 1 299 0
 1127 0b06 8B4508   		movl	8(%ebp), %eax
 1128 0b09 8A406C   		movb	108(%eax), %al
 1129 0b0c A26C0000 		movb	%al, _TASK_IDLE_QUEUE+108
 1129      00
 300:E:/NeuOrga/Programmieren/c_cpp/github_os/input/src/os_base\os_task_queue.c ****       (&TASK_IDLE_QUEUE[0u])->default_prio                          =   task->default_prio     ;
 1130              		.loc 1 300 0
 1131 0b11 8B4508   		movl	8(%ebp), %eax
 1132 0b14 8A406D   		movb	109(%eax), %al
 1133 0b17 A26D0000 		movb	%al, _TASK_IDLE_QUEUE+109
 1133      00
 301:E:/NeuOrga/Programmieren/c_cpp/github_os/input/src/os_base\os_task_queue.c ****       (&TASK_IDLE_QUEUE[0u])->fp                                    =   task->fp               ;
 1134              		.loc 1 301 0
 1135 0b1c 8B4508   		movl	8(%ebp), %eax
 1136 0b1f 8B4074   		movl	116(%eax), %eax
 1137 0b22 A3740000 		movl	%eax, _TASK_IDLE_QUEUE+116
 1137      00
 302:E:/NeuOrga/Programmieren/c_cpp/github_os/input/src/os_base\os_task_queue.c ****       (&TASK_IDLE_QUEUE[0u])->state_request                         =   task->state_request    ;
 1138              		.loc 1 302 0
 1139 0b27 8B4508   		movl	8(%ebp), %eax
 1140 0b2a 8B4078   		movl	120(%eax), %eax
 1141 0b2d A3780000 		movl	%eax, _TASK_IDLE_QUEUE+120
 1141      00
 303:E:/NeuOrga/Programmieren/c_cpp/github_os/input/src/os_base\os_task_queue.c ****       (&TASK_IDLE_QUEUE[0u])->task_state                            =   E_TASK_READY             ;
 1142              		.loc 1 303 0
 1143 0b32 C7057C00 		movl	$2, _TASK_IDLE_QUEUE+124
 1143      00000200 
 1143      0000
 304:E:/NeuOrga/Programmieren/c_cpp/github_os/input/src/os_base\os_task_queue.c ****       (&TASK_IDLE_QUEUE[0u])->task_group                            =   task->task_group       ;
 1144              		.loc 1 304 0
 1145 0b3c 8B4508   		movl	8(%ebp), %eax
 1146 0b3f 8B808000 		movl	128(%eax), %eax
GAS LISTING C:\Users\PRESID~1\AppData\Local\Temp\cczIt3NK.s 			page 30


 1146      0000
 1147 0b45 A3800000 		movl	%eax, _TASK_IDLE_QUEUE+128
 1147      00
 305:E:/NeuOrga/Programmieren/c_cpp/github_os/input/src/os_base\os_task_queue.c **** #if(CFG_PROCESSOR == MCU_X86)
 306:E:/NeuOrga/Programmieren/c_cpp/github_os/input/src/os_base\os_task_queue.c ****       (&TASK_IDLE_QUEUE[0u])->eax                                   =   task->eax              ;
 1148              		.loc 1 306 0
 1149 0b4a 8B4508   		movl	8(%ebp), %eax
 1150 0b4d 8B808400 		movl	132(%eax), %eax
 1150      0000
 1151 0b53 A3840000 		movl	%eax, _TASK_IDLE_QUEUE+132
 1151      00
 307:E:/NeuOrga/Programmieren/c_cpp/github_os/input/src/os_base\os_task_queue.c ****       (&TASK_IDLE_QUEUE[0u])->ebx                                   =   task->ebx              ;
 1152              		.loc 1 307 0
 1153 0b58 8B4508   		movl	8(%ebp), %eax
 1154 0b5b 8B808800 		movl	136(%eax), %eax
 1154      0000
 1155 0b61 A3880000 		movl	%eax, _TASK_IDLE_QUEUE+136
 1155      00
 308:E:/NeuOrga/Programmieren/c_cpp/github_os/input/src/os_base\os_task_queue.c ****       (&TASK_IDLE_QUEUE[0u])->ecx                                   =   task->ecx              ;
 1156              		.loc 1 308 0
 1157 0b66 8B4508   		movl	8(%ebp), %eax
 1158 0b69 8B808C00 		movl	140(%eax), %eax
 1158      0000
 1159 0b6f A38C0000 		movl	%eax, _TASK_IDLE_QUEUE+140
 1159      00
 309:E:/NeuOrga/Programmieren/c_cpp/github_os/input/src/os_base\os_task_queue.c ****       (&TASK_IDLE_QUEUE[0u])->edx                                   =   task->edx              ;
 1160              		.loc 1 309 0
 1161 0b74 8B4508   		movl	8(%ebp), %eax
 1162 0b77 8B809000 		movl	144(%eax), %eax
 1162      0000
 1163 0b7d A3900000 		movl	%eax, _TASK_IDLE_QUEUE+144
 1163      00
 310:E:/NeuOrga/Programmieren/c_cpp/github_os/input/src/os_base\os_task_queue.c **** #elif(CFG_PROCESSOR == MCU_CORTEX_M4)
 311:E:/NeuOrga/Programmieren/c_cpp/github_os/input/src/os_base\os_task_queue.c ****       (&TASK_IDLE_QUEUE[0u])->r0                                   =   task->r0              ;
 312:E:/NeuOrga/Programmieren/c_cpp/github_os/input/src/os_base\os_task_queue.c ****       (&TASK_IDLE_QUEUE[0u])->r1                                   =   task->r1              ;
 313:E:/NeuOrga/Programmieren/c_cpp/github_os/input/src/os_base\os_task_queue.c ****       (&TASK_IDLE_QUEUE[0u])->r2                                   =   task->r2              ;
 314:E:/NeuOrga/Programmieren/c_cpp/github_os/input/src/os_base\os_task_queue.c ****       (&TASK_IDLE_QUEUE[0u])->r3                                   =   task->r3              ;
 315:E:/NeuOrga/Programmieren/c_cpp/github_os/input/src/os_base\os_task_queue.c ****       (&TASK_IDLE_QUEUE[0u])->r4                                   =   task->r4              ;
 316:E:/NeuOrga/Programmieren/c_cpp/github_os/input/src/os_base\os_task_queue.c ****       (&TASK_IDLE_QUEUE[0u])->r5                                   =   task->r5              ;
 317:E:/NeuOrga/Programmieren/c_cpp/github_os/input/src/os_base\os_task_queue.c ****       (&TASK_IDLE_QUEUE[0u])->r6                                   =   task->r6              ;
 318:E:/NeuOrga/Programmieren/c_cpp/github_os/input/src/os_base\os_task_queue.c ****       (&TASK_IDLE_QUEUE[0u])->r7                                   =   task->r7              ;
 319:E:/NeuOrga/Programmieren/c_cpp/github_os/input/src/os_base\os_task_queue.c ****       (&TASK_IDLE_QUEUE[0u])->r8                                   =   task->r8              ;
 320:E:/NeuOrga/Programmieren/c_cpp/github_os/input/src/os_base\os_task_queue.c ****       (&TASK_IDLE_QUEUE[0u])->r9                                   =   task->r9              ;
 321:E:/NeuOrga/Programmieren/c_cpp/github_os/input/src/os_base\os_task_queue.c ****       (&TASK_IDLE_QUEUE[0u])->r10                                  =   task->r10             ;
 322:E:/NeuOrga/Programmieren/c_cpp/github_os/input/src/os_base\os_task_queue.c ****       (&TASK_IDLE_QUEUE[0u])->r11                                  =   task->r11             ;
 323:E:/NeuOrga/Programmieren/c_cpp/github_os/input/src/os_base\os_task_queue.c ****       (&TASK_IDLE_QUEUE[0u])->r12                                  =   task->r12             ;
 324:E:/NeuOrga/Programmieren/c_cpp/github_os/input/src/os_base\os_task_queue.c **** #else
 325:E:/NeuOrga/Programmieren/c_cpp/github_os/input/src/os_base\os_task_queue.c **** #error "os_task_queue.c"
 326:E:/NeuOrga/Programmieren/c_cpp/github_os/input/src/os_base\os_task_queue.c **** #endif
 327:E:/NeuOrga/Programmieren/c_cpp/github_os/input/src/os_base\os_task_queue.c ****       (&TASK_IDLE_QUEUE[0u])->p_stack_pointer                         =   task->p_stack_pointer    
 1164              		.loc 1 327 0
 1165 0b82 8B4508   		movl	8(%ebp), %eax
 1166 0b85 8B809400 		movl	148(%eax), %eax
 1166      0000
 1167 0b8b A3940000 		movl	%eax, _TASK_IDLE_QUEUE+148
 1167      00
 328:E:/NeuOrga/Programmieren/c_cpp/github_os/input/src/os_base\os_task_queue.c ****       (&TASK_IDLE_QUEUE[0u])->p_stack_pointer_by_malloc                 =   task->p_stack_pointer_b
GAS LISTING C:\Users\PRESID~1\AppData\Local\Temp\cczIt3NK.s 			page 31


 1168              		.loc 1 328 0
 1169 0b90 8B4508   		movl	8(%ebp), %eax
 1170 0b93 8B809800 		movl	152(%eax), %eax
 1170      0000
 1171 0b99 A3980000 		movl	%eax, _TASK_IDLE_QUEUE+152
 1171      00
 329:E:/NeuOrga/Programmieren/c_cpp/github_os/input/src/os_base\os_task_queue.c ****       (&TASK_IDLE_QUEUE[0u])->p_stack_pointer_start                    =   task->p_stack_pointer_st
 1172              		.loc 1 329 0
 1173 0b9e 8B4508   		movl	8(%ebp), %eax
 1174 0ba1 8B809C00 		movl	156(%eax), %eax
 1174      0000
 1175 0ba7 A39C0000 		movl	%eax, _TASK_IDLE_QUEUE+156
 1175      00
 330:E:/NeuOrga/Programmieren/c_cpp/github_os/input/src/os_base\os_task_queue.c ****       (&TASK_IDLE_QUEUE[0u])->stack_size                             =   task->stack_size        ;
 1176              		.loc 1 330 0
 1177 0bac 8B4508   		movl	8(%ebp), %eax
 1178 0baf 8B80A000 		movl	160(%eax), %eax
 1178      0000
 1179 0bb5 A3A00000 		movl	%eax, _TASK_IDLE_QUEUE+160
 1179      00
 331:E:/NeuOrga/Programmieren/c_cpp/github_os/input/src/os_base\os_task_queue.c ****       (&TASK_IDLE_QUEUE[0u])->p_stack_pointer_end                      =   task->p_stack_pointer_en
 1180              		.loc 1 331 0
 1181 0bba 8B4508   		movl	8(%ebp), %eax
 1182 0bbd 8B80A400 		movl	164(%eax), %eax
 1182      0000
 1183 0bc3 A3A40000 		movl	%eax, _TASK_IDLE_QUEUE+164
 1183      00
 1184              	L27:
 332:E:/NeuOrga/Programmieren/c_cpp/github_os/input/src/os_base\os_task_queue.c ****    }
 333:E:/NeuOrga/Programmieren/c_cpp/github_os/input/src/os_base\os_task_queue.c **** }
 1185              		.loc 1 333 0
 1186 0bc8 C9       		leave
 1187              		.cfi_restore 5
 1188              		.cfi_def_cfa 4, 4
 1189 0bc9 C3       		ret
 1190              		.cfi_endproc
 1191              	LFE9:
 1192              		.globl	_GET_RUNNING_TASK
 1194              	_GET_RUNNING_TASK:
 1195              	LFB10:
 334:E:/NeuOrga/Programmieren/c_cpp/github_os/input/src/os_base\os_task_queue.c **** task_t* GET_RUNNING_TASK(void)
 335:E:/NeuOrga/Programmieren/c_cpp/github_os/input/src/os_base\os_task_queue.c **** {
 1196              		.loc 1 335 0
 1197              		.cfi_startproc
 1198 0bca 55       		pushl	%ebp
 1199              		.cfi_def_cfa_offset 8
 1200              		.cfi_offset 5, -8
 1201 0bcb 89E5     		movl	%esp, %ebp
 1202              		.cfi_def_cfa_register 5
 336:E:/NeuOrga/Programmieren/c_cpp/github_os/input/src/os_base\os_task_queue.c ****    return (&RUNNING_TASK[0u]);
 1203              		.loc 1 336 0
 1204 0bcd B8000000 		movl	$_RUNNING_TASK, %eax
 1204      00
 337:E:/NeuOrga/Programmieren/c_cpp/github_os/input/src/os_base\os_task_queue.c **** }
 1205              		.loc 1 337 0
 1206 0bd2 5D       		popl	%ebp
 1207              		.cfi_restore 5
GAS LISTING C:\Users\PRESID~1\AppData\Local\Temp\cczIt3NK.s 			page 32


 1208              		.cfi_def_cfa 4, 4
 1209 0bd3 C3       		ret
 1210              		.cfi_endproc
 1211              	LFE10:
 1212              		.globl	_GET_RUNNING_SCHEDULING_QUEUE_ELEMENT_PTR
 1214              	_GET_RUNNING_SCHEDULING_QUEUE_ELEMENT_PTR:
 1215              	LFB11:
 338:E:/NeuOrga/Programmieren/c_cpp/github_os/input/src/os_base\os_task_queue.c **** scheduling_t* GET_RUNNING_SCHEDULING_QUEUE_ELEMENT_PTR(void)
 339:E:/NeuOrga/Programmieren/c_cpp/github_os/input/src/os_base\os_task_queue.c **** {
 1216              		.loc 1 339 0
 1217              		.cfi_startproc
 1218 0bd4 55       		pushl	%ebp
 1219              		.cfi_def_cfa_offset 8
 1220              		.cfi_offset 5, -8
 1221 0bd5 89E5     		movl	%esp, %ebp
 1222              		.cfi_def_cfa_register 5
 340:E:/NeuOrga/Programmieren/c_cpp/github_os/input/src/os_base\os_task_queue.c ****    return RUNNING_SCHEDULING_QUEUE_ENTRY;
 1223              		.loc 1 340 0
 1224 0bd7 A1000000 		movl	_RUNNING_SCHEDULING_QUEUE_ENTRY, %eax
 1224      00
 341:E:/NeuOrga/Programmieren/c_cpp/github_os/input/src/os_base\os_task_queue.c **** }
 1225              		.loc 1 341 0
 1226 0bdc 5D       		popl	%ebp
 1227              		.cfi_restore 5
 1228              		.cfi_def_cfa 4, 4
 1229 0bdd C3       		ret
 1230              		.cfi_endproc
 1231              	LFE11:
 1232              		.globl	_OS_INIT_TASK
 1234              	_OS_INIT_TASK:
 1235              	LFB12:
 342:E:/NeuOrga/Programmieren/c_cpp/github_os/input/src/os_base\os_task_queue.c **** void OS_INIT_TASK(
 343:E:/NeuOrga/Programmieren/c_cpp/github_os/input/src/os_base\os_task_queue.c ****    task_t*          task,
 344:E:/NeuOrga/Programmieren/c_cpp/github_os/input/src/os_base\os_task_queue.c ****    func_p_t         TaskFunction,
 345:E:/NeuOrga/Programmieren/c_cpp/github_os/input/src/os_base\os_task_queue.c ****    unsigned_char_t  AllowedInstances,
 346:E:/NeuOrga/Programmieren/c_cpp/github_os/input/src/os_base\os_task_queue.c ****    unsigned_char_t  idle_task,
 347:E:/NeuOrga/Programmieren/c_cpp/github_os/input/src/os_base\os_task_queue.c ****    task_group_t*    p_task_group,
 348:E:/NeuOrga/Programmieren/c_cpp/github_os/input/src/os_base\os_task_queue.c ****    unsigned_char_t* pStackAddr,
 349:E:/NeuOrga/Programmieren/c_cpp/github_os/input/src/os_base\os_task_queue.c ****    unsigned_int32_t uStackSize,
 350:E:/NeuOrga/Programmieren/c_cpp/github_os/input/src/os_base\os_task_queue.c ****    privilige_mode_t privilige_mode,
 351:E:/NeuOrga/Programmieren/c_cpp/github_os/input/src/os_base\os_task_queue.c ****    coreid_t         core,
 352:E:/NeuOrga/Programmieren/c_cpp/github_os/input/src/os_base\os_task_queue.c ****    unsigned_char_t  default_prio
 353:E:/NeuOrga/Programmieren/c_cpp/github_os/input/src/os_base\os_task_queue.c **** )
 354:E:/NeuOrga/Programmieren/c_cpp/github_os/input/src/os_base\os_task_queue.c **** {
 1236              		.loc 1 354 0
 1237              		.cfi_startproc
 1238 0bde 55       		pushl	%ebp
 1239              		.cfi_def_cfa_offset 8
 1240              		.cfi_offset 5, -8
 1241 0bdf 89E5     		movl	%esp, %ebp
 1242              		.cfi_def_cfa_register 5
 1243 0be1 83EC28   		subl	$40, %esp
 1244 0be4 8B4D10   		movl	16(%ebp), %ecx
 1245 0be7 8B5514   		movl	20(%ebp), %edx
 1246 0bea 8B452C   		movl	44(%ebp), %eax
 1247 0bed 884DF4   		movb	%cl, -12(%ebp)
 1248 0bf0 8855F0   		movb	%dl, -16(%ebp)
GAS LISTING C:\Users\PRESID~1\AppData\Local\Temp\cczIt3NK.s 			page 33


 1249 0bf3 8845EC   		movb	%al, -20(%ebp)
 355:E:/NeuOrga/Programmieren/c_cpp/github_os/input/src/os_base\os_task_queue.c ****    REFERENCE_UNUSED_PARAMETER(core);
 356:E:/NeuOrga/Programmieren/c_cpp/github_os/input/src/os_base\os_task_queue.c ****    if(task!=0u)
 1250              		.loc 1 356 0
 1251 0bf6 837D0800 		cmpl	$0, 8(%ebp)
 1252 0bfa 0F841401 		je	L34
 1252      0000
 357:E:/NeuOrga/Programmieren/c_cpp/github_os/input/src/os_base\os_task_queue.c ****    {
 358:E:/NeuOrga/Programmieren/c_cpp/github_os/input/src/os_base\os_task_queue.c ****       task->active           = FALSE;
 1253              		.loc 1 358 0
 1254 0c00 8B4508   		movl	8(%ebp), %eax
 1255 0c03 8A10     		movb	(%eax), %dl
 1256 0c05 83E2FE   		andl	$-2, %edx
 1257 0c08 8810     		movb	%dl, (%eax)
 359:E:/NeuOrga/Programmieren/c_cpp/github_os/input/src/os_base\os_task_queue.c ****       task->fp               = TaskFunction;
 1258              		.loc 1 359 0
 1259 0c0a 8B4508   		movl	8(%ebp), %eax
 1260 0c0d 8B550C   		movl	12(%ebp), %edx
 1261 0c10 895074   		movl	%edx, 116(%eax)
 360:E:/NeuOrga/Programmieren/c_cpp/github_os/input/src/os_base\os_task_queue.c ****       task->nr_of_ins_allowed   = AllowedInstances;
 1262              		.loc 1 360 0
 1263 0c13 8B4508   		movl	8(%ebp), %eax
 1264 0c16 8A55F4   		movb	-12(%ebp), %dl
 1265 0c19 885004   		movb	%dl, 4(%eax)
 361:E:/NeuOrga/Programmieren/c_cpp/github_os/input/src/os_base\os_task_queue.c ****       task->task_group       = p_task_group;
 1266              		.loc 1 361 0
 1267 0c1c 8B4508   		movl	8(%ebp), %eax
 1268 0c1f 8B5518   		movl	24(%ebp), %edx
 1269 0c22 89908000 		movl	%edx, 128(%eax)
 1269      0000
 362:E:/NeuOrga/Programmieren/c_cpp/github_os/input/src/os_base\os_task_queue.c ****       task->nr_of_ins_activated = 0u;
 1270              		.loc 1 362 0
 1271 0c28 8B4508   		movl	8(%ebp), %eax
 1272 0c2b C6400500 		movb	$0, 5(%eax)
 363:E:/NeuOrga/Programmieren/c_cpp/github_os/input/src/os_base\os_task_queue.c ****       ASSIGN_NULL(&task->wait_act_until);
 1273              		.loc 1 363 0
 1274 0c2f 8B4508   		movl	8(%ebp), %eax
 1275 0c32 83C006   		addl	$6, %eax
 1276 0c35 890424   		movl	%eax, (%esp)
 1277 0c38 E8000000 		call	_ASSIGN_NULL
 1277      00
 364:E:/NeuOrga/Programmieren/c_cpp/github_os/input/src/os_base\os_task_queue.c ****       task->privilige_mode   = privilige_mode;
 1278              		.loc 1 364 0
 1279 0c3d 8B4508   		movl	8(%ebp), %eax
 1280 0c40 8B5524   		movl	36(%ebp), %edx
 1281 0c43 8990A800 		movl	%edx, 168(%eax)
 1281      0000
 365:E:/NeuOrga/Programmieren/c_cpp/github_os/input/src/os_base\os_task_queue.c ****       task->default_prio     = default_prio;
 1282              		.loc 1 365 0
 1283 0c49 8B4508   		movl	8(%ebp), %eax
 1284 0c4c 8A55EC   		movb	-20(%ebp), %dl
 1285 0c4f 88506D   		movb	%dl, 109(%eax)
 366:E:/NeuOrga/Programmieren/c_cpp/github_os/input/src/os_base\os_task_queue.c **** 
 367:E:/NeuOrga/Programmieren/c_cpp/github_os/input/src/os_base\os_task_queue.c ****       task->overwaittime_per_prio_inc_step = 1u;
 1286              		.loc 1 367 0
 1287 0c52 8B4508   		movl	8(%ebp), %eax
 1288 0c55 C7403801 		movl	$1, 56(%eax)
GAS LISTING C:\Users\PRESID~1\AppData\Local\Temp\cczIt3NK.s 			page 34


 1288      000000
 368:E:/NeuOrga/Programmieren/c_cpp/github_os/input/src/os_base\os_task_queue.c ****       ASSIGN_UINT32(&task->max_allowed_wait_time, 100000u);
 1289              		.loc 1 368 0
 1290 0c5c 8B4508   		movl	8(%ebp), %eax
 1291 0c5f 83C03C   		addl	$60, %eax
 1292 0c62 C7442404 		movl	$100000, 4(%esp)
 1292      A0860100 
 1293 0c6a 890424   		movl	%eax, (%esp)
 1294 0c6d E8000000 		call	_ASSIGN_UINT32
 1294      00
 369:E:/NeuOrga/Programmieren/c_cpp/github_os/input/src/os_base\os_task_queue.c **** 
 370:E:/NeuOrga/Programmieren/c_cpp/github_os/input/src/os_base\os_task_queue.c ****       task->idle_task      = idle_task;
 1295              		.loc 1 370 0
 1296 0c72 8A45F0   		movb	-16(%ebp), %al
 1297 0c75 83E001   		andl	$1, %eax
 1298 0c78 88C2     		movb	%al, %dl
 1299 0c7a 8B4508   		movl	8(%ebp), %eax
 1300 0c7d 83E201   		andl	$1, %edx
 1301 0c80 8D0C9500 		leal	0(,%edx,4), %ecx
 1301      000000
 1302 0c87 8A10     		movb	(%eax), %dl
 1303 0c89 83E2FB   		andl	$-5, %edx
 1304 0c8c 09CA     		orl	%ecx, %edx
 1305 0c8e 8810     		movb	%dl, (%eax)
 371:E:/NeuOrga/Programmieren/c_cpp/github_os/input/src/os_base\os_task_queue.c ****       task->state_request = &OS_TASK_STATE_REQUEST;
 1306              		.loc 1 371 0
 1307 0c90 8B4508   		movl	8(%ebp), %eax
 1308 0c93 C7407800 		movl	$_OS_TASK_STATE_REQUEST, 120(%eax)
 1308      000000
 372:E:/NeuOrga/Programmieren/c_cpp/github_os/input/src/os_base\os_task_queue.c ****       OS_TASK_STATE_REQUEST(task, E_TASK_UNSPECIFIED);
 1309              		.loc 1 372 0
 1310 0c9a C7442404 		movl	$0, 4(%esp)
 1310      00000000 
 1311 0ca2 8B4508   		movl	8(%ebp), %eax
 1312 0ca5 890424   		movl	%eax, (%esp)
 1313 0ca8 E8000000 		call	_OS_TASK_STATE_REQUEST
 1313      00
 373:E:/NeuOrga/Programmieren/c_cpp/github_os/input/src/os_base\os_task_queue.c ****       OS_CREATE_TASK(task);
 1314              		.loc 1 373 0
 1315 0cad 8B4508   		movl	8(%ebp), %eax
 1316 0cb0 890424   		movl	%eax, (%esp)
 1317 0cb3 E8000000 		call	_OS_CREATE_TASK
 1317      00
 374:E:/NeuOrga/Programmieren/c_cpp/github_os/input/src/os_base\os_task_queue.c ****       if(uStackSize > TASK_STACK_SIZE)
 1318              		.loc 1 374 0
 1319 0cb8 817D20D0 		cmpl	$2000, 32(%ebp)
 1319      070000
 1320 0cbf 7607     		jbe	L35
 375:E:/NeuOrga/Programmieren/c_cpp/github_os/input/src/os_base\os_task_queue.c ****       {
 376:E:/NeuOrga/Programmieren/c_cpp/github_os/input/src/os_base\os_task_queue.c ****          uStackSize = TASK_STACK_SIZE;
 1321              		.loc 1 376 0
 1322 0cc1 C74520D0 		movl	$2000, 32(%ebp)
 1322      070000
 1323              	L35:
 377:E:/NeuOrga/Programmieren/c_cpp/github_os/input/src/os_base\os_task_queue.c ****       }
 378:E:/NeuOrga/Programmieren/c_cpp/github_os/input/src/os_base\os_task_queue.c **** 
 379:E:/NeuOrga/Programmieren/c_cpp/github_os/input/src/os_base\os_task_queue.c ****       /* just create stack */
GAS LISTING C:\Users\PRESID~1\AppData\Local\Temp\cczIt3NK.s 			page 35


 380:E:/NeuOrga/Programmieren/c_cpp/github_os/input/src/os_base\os_task_queue.c ****       task->p_stack_pointer_by_malloc = pStackAddr;
 1324              		.loc 1 380 0
 1325 0cc8 8B4508   		movl	8(%ebp), %eax
 1326 0ccb 8B551C   		movl	28(%ebp), %edx
 1327 0cce 89909800 		movl	%edx, 152(%eax)
 1327      0000
 381:E:/NeuOrga/Programmieren/c_cpp/github_os/input/src/os_base\os_task_queue.c ****       task->p_stack_pointer_start    = pStackAddr;/*low addresse */
 1328              		.loc 1 381 0
 1329 0cd4 8B4508   		movl	8(%ebp), %eax
 1330 0cd7 8B551C   		movl	28(%ebp), %edx
 1331 0cda 89909C00 		movl	%edx, 156(%eax)
 1331      0000
 382:E:/NeuOrga/Programmieren/c_cpp/github_os/input/src/os_base\os_task_queue.c ****       task->p_stack_pointer_end      = (unsigned_char_t*)pStackAddr + uStackSize - 1;/* end address
 1332              		.loc 1 382 0
 1333 0ce0 8B4520   		movl	32(%ebp), %eax
 1334 0ce3 8D50FF   		leal	-1(%eax), %edx
 1335 0ce6 8B451C   		movl	28(%ebp), %eax
 1336 0ce9 01C2     		addl	%eax, %edx
 1337 0ceb 8B4508   		movl	8(%ebp), %eax
 1338 0cee 8990A400 		movl	%edx, 164(%eax)
 1338      0000
 383:E:/NeuOrga/Programmieren/c_cpp/github_os/input/src/os_base\os_task_queue.c ****       task->stack_size             = uStackSize;
 1339              		.loc 1 383 0
 1340 0cf4 8B4508   		movl	8(%ebp), %eax
 1341 0cf7 8B5520   		movl	32(%ebp), %edx
 1342 0cfa 8990A000 		movl	%edx, 160(%eax)
 1342      0000
 384:E:/NeuOrga/Programmieren/c_cpp/github_os/input/src/os_base\os_task_queue.c ****       /* stack register */
 385:E:/NeuOrga/Programmieren/c_cpp/github_os/input/src/os_base\os_task_queue.c ****       task->p_stack_pointer                    = task->p_stack_pointer_end;/* stack wchst von gro
 1343              		.loc 1 385 0
 1344 0d00 8B4508   		movl	8(%ebp), %eax
 1345 0d03 8B90A400 		movl	164(%eax), %edx
 1345      0000
 1346 0d09 8B4508   		movl	8(%ebp), %eax
 1347 0d0c 89909400 		movl	%edx, 148(%eax)
 1347      0000
 1348 0d12 EB14     		jmp	L33
 1349              	L34:
 386:E:/NeuOrga/Programmieren/c_cpp/github_os/input/src/os_base\os_task_queue.c ****    }
 387:E:/NeuOrga/Programmieren/c_cpp/github_os/input/src/os_base\os_task_queue.c ****    else
 388:E:/NeuOrga/Programmieren/c_cpp/github_os/input/src/os_base\os_task_queue.c ****    {
 389:E:/NeuOrga/Programmieren/c_cpp/github_os/input/src/os_base\os_task_queue.c ****       OS_SET_SW_BUG(E_OS_BUG_NULL_POINTER, E_FUNC_INITTASK);
 1350              		.loc 1 389 0
 1351 0d14 C7442404 		movl	$10, 4(%esp)
 1351      0A000000 
 1352 0d1c C7042402 		movl	$2, (%esp)
 1352      000000
 1353 0d23 E8000000 		call	_OS_SET_SW_BUG
 1353      00
 1354              	L33:
 390:E:/NeuOrga/Programmieren/c_cpp/github_os/input/src/os_base\os_task_queue.c ****    }
 391:E:/NeuOrga/Programmieren/c_cpp/github_os/input/src/os_base\os_task_queue.c **** }
 1355              		.loc 1 391 0
 1356 0d28 C9       		leave
 1357              		.cfi_restore 5
 1358              		.cfi_def_cfa 4, 4
 1359 0d29 C3       		ret
GAS LISTING C:\Users\PRESID~1\AppData\Local\Temp\cczIt3NK.s 			page 36


 1360              		.cfi_endproc
 1361              	LFE12:
 1362              	Letext0:
 1363              		.file 2 "E:/NeuOrga/Programmieren/c_cpp/github_os/input/src/os_base/../os_base/os_base_types.h"
 1364              		.file 3 "E:/NeuOrga/Programmieren/c_cpp/github_os/input/src/os_base/../os_base/os_common.h"
 1365              		.file 4 "E:/NeuOrga/Programmieren/c_cpp/github_os/input/src/os_base/../os_sim/lld_core.h"
 1366              		.file 5 "E:/NeuOrga/Programmieren/c_cpp/github_os/input/src/os_base/../os_sim/../os_base/os_task_c
 1367              		.file 6 "E:/NeuOrga/Programmieren/c_cpp/github_os/input/src/os_base/../os_base/os_ram.h"
 1368 0d2a 9090     		.section	.debug_info,"dr"
 1369              	Ldebug_info0:
 1370 0000 910E0000 		.long	0xe91
 1371 0004 0400     		.word	0x4
 1372 0006 00000000 		.secrel32	Ldebug_abbrev0
 1373 000a 04       		.byte	0x4
 1374 000b 01       		.uleb128 0x1
 1375 000c 474E5520 		.ascii "GNU C 4.9.3 -march=i386 -g3 -O0 -std=c90\0"
 1375      4320342E 
 1375      392E3320 
 1375      2D6D6172 
 1375      63683D69 
 1376 0035 01       		.byte	0x1
 1377 0036 453A5C4E 		.ascii "E:\\NeuOrga\\Programmieren\\c_cpp\\github_os\\input\\src\\os_base\\os_task_queue.c\0"
 1377      65754F72 
 1377      67615C50 
 1377      726F6772 
 1377      616D6D69 
 1378 0081 00000000 		.long	Ltext0
 1379 0085 2A0D0000 		.long	Letext0-Ltext0
 1380 0089 00000000 		.secrel32	Ldebug_line0
 1381 008d 00000000 		.secrel32	Ldebug_macro0
 1382 0091 02       		.uleb128 0x2
 1383 0092 756E7369 		.ascii "unsigned_char_t\0"
 1383      676E6564 
 1383      5F636861 
 1383      725F7400 
 1384 00a2 02       		.byte	0x2
 1385 00a3 11       		.byte	0x11
 1386 00a4 A8000000 		.long	0xa8
 1387 00a8 03       		.uleb128 0x3
 1388 00a9 01       		.byte	0x1
 1389 00aa 08       		.byte	0x8
 1390 00ab 756E7369 		.ascii "unsigned char\0"
 1390      676E6564 
 1390      20636861 
 1390      7200
 1391 00b9 03       		.uleb128 0x3
 1392 00ba 01       		.byte	0x1
 1393 00bb 06       		.byte	0x6
 1394 00bc 7369676E 		.ascii "signed char\0"
 1394      65642063 
 1394      68617200 
 1395 00c8 02       		.uleb128 0x2
 1396 00c9 75696E74 		.ascii "uint8\0"
 1396      3800
 1397 00cf 02       		.byte	0x2
 1398 00d0 15       		.byte	0x15
 1399 00d1 A8000000 		.long	0xa8
GAS LISTING C:\Users\PRESID~1\AppData\Local\Temp\cczIt3NK.s 			page 37


 1400 00d5 03       		.uleb128 0x3
 1401 00d6 02       		.byte	0x2
 1402 00d7 07       		.byte	0x7
 1403 00d8 73686F72 		.ascii "short unsigned int\0"
 1403      7420756E 
 1403      7369676E 
 1403      65642069 
 1403      6E7400
 1404 00eb 03       		.uleb128 0x3
 1405 00ec 02       		.byte	0x2
 1406 00ed 05       		.byte	0x5
 1407 00ee 73686F72 		.ascii "short int\0"
 1407      7420696E 
 1407      7400
 1408 00f8 02       		.uleb128 0x2
 1409 00f9 756E7369 		.ascii "unsigned_int32_t\0"
 1409      676E6564 
 1409      5F696E74 
 1409      33325F74 
 1409      00
 1410 010a 02       		.byte	0x2
 1411 010b 1B       		.byte	0x1b
 1412 010c 10010000 		.long	0x110
 1413 0110 03       		.uleb128 0x3
 1414 0111 04       		.byte	0x4
 1415 0112 07       		.byte	0x7
 1416 0113 6C6F6E67 		.ascii "long unsigned int\0"
 1416      20756E73 
 1416      69676E65 
 1416      6420696E 
 1416      7400
 1417 0125 03       		.uleb128 0x3
 1418 0126 04       		.byte	0x4
 1419 0127 05       		.byte	0x5
 1420 0128 6C6F6E67 		.ascii "long int\0"
 1420      20696E74 
 1420      00
 1421 0131 02       		.uleb128 0x2
 1422 0132 75696E74 		.ascii "uint32\0"
 1422      333200
 1423 0139 02       		.byte	0x2
 1424 013a 1D       		.byte	0x1d
 1425 013b 10010000 		.long	0x110
 1426 013f 04       		.uleb128 0x4
 1427 0140 6F735F73 		.ascii "os_sw_bugs_e\0"
 1427      775F6275 
 1427      67735F65 
 1427      00
 1428 014d 04       		.byte	0x4
 1429 014e 03       		.byte	0x3
 1430 014f 28       		.byte	0x28
 1431 0150 D5020000 		.long	0x2d5
 1432 0154 05       		.uleb128 0x5
 1433 0155 455F4F53 		.ascii "E_OS_BUG_NO_BUG\0"
 1433      5F425547 
 1433      5F4E4F5F 
 1433      42554700 
GAS LISTING C:\Users\PRESID~1\AppData\Local\Temp\cczIt3NK.s 			page 38


 1434 0165 00       		.sleb128 0
 1435 0166 05       		.uleb128 0x5
 1436 0167 455F4F53 		.ascii "E_OS_BUG_TASKSTATE_REQUEST_DENIED\0"
 1436      5F425547 
 1436      5F544153 
 1436      4B535441 
 1436      54455F52 
 1437 0189 01       		.sleb128 1
 1438 018a 05       		.uleb128 0x5
 1439 018b 455F4F53 		.ascii "E_OS_BUG_NULL_POINTER\0"
 1439      5F425547 
 1439      5F4E554C 
 1439      4C5F504F 
 1439      494E5445 
 1440 01a1 02       		.sleb128 2
 1441 01a2 05       		.uleb128 0x5
 1442 01a3 455F4F53 		.ascii "E_OS_BUG_TASK_MAX_WAIT_TIME_REACHED\0"
 1442      5F425547 
 1442      5F544153 
 1442      4B5F4D41 
 1442      585F5741 
 1443 01c7 03       		.sleb128 3
 1444 01c8 05       		.uleb128 0x5
 1445 01c9 455F4F53 		.ascii "E_OS_BUG_TASK_UNSPECIFIED\0"
 1445      5F425547 
 1445      5F544153 
 1445      4B5F554E 
 1445      53504543 
 1446 01e3 04       		.sleb128 4
 1447 01e4 05       		.uleb128 0x5
 1448 01e5 455F4F53 		.ascii "E_OS_BUG_EXCEPTION_UNDEFINSTRUCTION\0"
 1448      5F425547 
 1448      5F455843 
 1448      45505449 
 1448      4F4E5F55 
 1449 0209 05       		.sleb128 5
 1450 020a 05       		.uleb128 0x5
 1451 020b 455F4F53 		.ascii "E_OS_BUG_EXCEPTION_ABORTPREFETCH\0"
 1451      5F425547 
 1451      5F455843 
 1451      45505449 
 1451      4F4E5F41 
 1452 022c 06       		.sleb128 6
 1453 022d 05       		.uleb128 0x5
 1454 022e 455F4F53 		.ascii "E_OS_BUG_EXCEPTION_ABORTDATA\0"
 1454      5F425547 
 1454      5F455843 
 1454      45505449 
 1454      4F4E5F41 
 1455 024b 07       		.sleb128 7
 1456 024c 05       		.uleb128 0x5
 1457 024d 455F4F53 		.ascii "E_OS_BUG_RESET_EXIT_OR_SHUTDOWN_FAILED\0"
 1457      5F425547 
 1457      5F524553 
 1457      45545F45 
 1457      5849545F 
 1458 0274 08       		.sleb128 8
GAS LISTING C:\Users\PRESID~1\AppData\Local\Temp\cczIt3NK.s 			page 39


 1459 0275 05       		.uleb128 0x5
 1460 0276 455F4F53 		.ascii "E_OS_BUG_CRITICAL_STACK_USAGE\0"
 1460      5F425547 
 1460      5F435249 
 1460      54494341 
 1460      4C5F5354 
 1461 0294 09       		.sleb128 9
 1462 0295 05       		.uleb128 0x5
 1463 0296 455F4F53 		.ascii "E_OS_BUG_SVC_NUMBER_MISSING\0"
 1463      5F425547 
 1463      5F535643 
 1463      5F4E554D 
 1463      4245525F 
 1464 02b2 0A       		.sleb128 10
 1465 02b3 05       		.uleb128 0x5
 1466 02b4 455F4F53 		.ascii "E_OS_BUG_MAX_WAIT_TIME_REACHED\0"
 1466      5F425547 
 1466      5F4D4158 
 1466      5F574149 
 1466      545F5449 
 1467 02d3 0B       		.sleb128 11
 1468 02d4 00       		.byte	0
 1469 02d5 04       		.uleb128 0x4
 1470 02d6 6F735F73 		.ascii "os_sw_bugs_function_e\0"
 1470      775F6275 
 1470      67735F66 
 1470      756E6374 
 1470      696F6E5F 
 1471 02ec 04       		.byte	0x4
 1472 02ed 03       		.byte	0x3
 1473 02ee 39       		.byte	0x39
 1474 02ef C9040000 		.long	0x4c9
 1475 02f3 05       		.uleb128 0x5
 1476 02f4 455F4655 		.ascii "E_FUNC_NOFUNCTION\0"
 1476      4E435F4E 
 1476      4F46554E 
 1476      4354494F 
 1476      4E00
 1477 0306 00       		.sleb128 0
 1478 0307 05       		.uleb128 0x5
 1479 0308 455F4655 		.ascii "E_FUNC_SAVETASKENVIRONMENT\0"
 1479      4E435F53 
 1479      41564554 
 1479      41534B45 
 1479      4E564952 
 1480 0323 01       		.sleb128 1
 1481 0324 05       		.uleb128 0x5
 1482 0325 455F4655 		.ascii "E_FUNC_RESTORETASKENVIRONMENT\0"
 1482      4E435F52 
 1482      4553544F 
 1482      52455441 
 1482      534B454E 
 1483 0343 02       		.sleb128 2
 1484 0344 05       		.uleb128 0x5
 1485 0345 455F4655 		.ascii "E_FUNC_CREATETASKENVIRONMENT\0"
 1485      4E435F43 
 1485      52454154 
GAS LISTING C:\Users\PRESID~1\AppData\Local\Temp\cczIt3NK.s 			page 40


 1485      45544153 
 1485      4B454E56 
 1486 0362 03       		.sleb128 3
 1487 0363 05       		.uleb128 0x5
 1488 0364 455F4655 		.ascii "E_FUNC_DELETETASKENVIRONMENT\0"
 1488      4E435F44 
 1488      454C4554 
 1488      45544153 
 1488      4B454E56 
 1489 0381 04       		.sleb128 4
 1490 0382 05       		.uleb128 0x5
 1491 0383 455F4655 		.ascii "E_FUNC_INITTASKENVIRONMENT\0"
 1491      4E435F49 
 1491      4E495454 
 1491      41534B45 
 1491      4E564952 
 1492 039e 05       		.sleb128 5
 1493 039f 05       		.uleb128 0x5
 1494 03a0 455F4655 		.ascii "E_FUNC_STARTTASK\0"
 1494      4E435F53 
 1494      54415254 
 1494      5441534B 
 1494      00
 1495 03b1 06       		.sleb128 6
 1496 03b2 05       		.uleb128 0x5
 1497 03b3 455F4655 		.ascii "E_FUNC_PREEMPTTASK\0"
 1497      4E435F50 
 1497      5245454D 
 1497      50545441 
 1497      534B00
 1498 03c6 07       		.sleb128 7
 1499 03c7 05       		.uleb128 0x5
 1500 03c8 455F4655 		.ascii "E_FUNC_TERMINATETASK\0"
 1500      4E435F54 
 1500      45524D49 
 1500      4E415445 
 1500      5441534B 
 1501 03dd 08       		.sleb128 8
 1502 03de 05       		.uleb128 0x5
 1503 03df 455F4655 		.ascii "E_FUNC_TASKSCHEDULER\0"
 1503      4E435F54 
 1503      41534B53 
 1503      43484544 
 1503      554C4552 
 1504 03f4 09       		.sleb128 9
 1505 03f5 05       		.uleb128 0x5
 1506 03f6 455F4655 		.ascii "E_FUNC_INITTASK\0"
 1506      4E435F49 
 1506      4E495454 
 1506      41534B00 
 1507 0406 0A       		.sleb128 10
 1508 0407 05       		.uleb128 0x5
 1509 0408 455F4655 		.ascii "E_FUNC_ACTIVATETASK\0"
 1509      4E435F41 
 1509      43544956 
 1509      41544554 
 1509      41534B00 
GAS LISTING C:\Users\PRESID~1\AppData\Local\Temp\cczIt3NK.s 			page 41


 1510 041c 0B       		.sleb128 11
 1511 041d 05       		.uleb128 0x5
 1512 041e 455F4655 		.ascii "E_FUNC_TASKSTATEREQUEST\0"
 1512      4E435F54 
 1512      41534B53 
 1512      54415445 
 1512      52455155 
 1513 0436 0C       		.sleb128 12
 1514 0437 05       		.uleb128 0x5
 1515 0438 455F4655 		.ascii "E_FUNC_PREEMPT_TASK\0"
 1515      4E435F50 
 1515      5245454D 
 1515      50545F54 
 1515      41534B00 
 1516 044c 0D       		.sleb128 13
 1517 044d 05       		.uleb128 0x5
 1518 044e 455F4655 		.ascii "E_FUNC_OS_EXCEPTION\0"
 1518      4E435F4F 
 1518      535F4558 
 1518      43455054 
 1518      494F4E00 
 1519 0462 0E       		.sleb128 14
 1520 0463 05       		.uleb128 0x5
 1521 0464 455F4655 		.ascii "E_FUNC_CREATETASK\0"
 1521      4E435F43 
 1521      52454154 
 1521      45544153 
 1521      4B00
 1522 0476 0F       		.sleb128 15
 1523 0477 05       		.uleb128 0x5
 1524 0478 455F4655 		.ascii "E_FUNC_SHUTDOWN\0"
 1524      4E435F53 
 1524      48555444 
 1524      4F574E00 
 1525 0488 10       		.sleb128 16
 1526 0489 05       		.uleb128 0x5
 1527 048a 455F4655 		.ascii "E_FUNC_STACKCHECK\0"
 1527      4E435F53 
 1527      5441434B 
 1527      43484543 
 1527      4B00
 1528 049c 11       		.sleb128 17
 1529 049d 05       		.uleb128 0x5
 1530 049e 455F4655 		.ascii "E_FUNC_ISRHANDLER\0"
 1530      4E435F49 
 1530      53524841 
 1530      4E444C45 
 1530      5200
 1531 04b0 12       		.sleb128 18
 1532 04b1 05       		.uleb128 0x5
 1533 04b2 455F4655 		.ascii "E_FUNC_STATE_HANDLER\0"
 1533      4E435F53 
 1533      54415445 
 1533      5F48414E 
 1533      444C4552 
 1534 04c7 13       		.sleb128 19
 1535 04c8 00       		.byte	0
GAS LISTING C:\Users\PRESID~1\AppData\Local\Temp\cczIt3NK.s 			page 42


 1536 04c9 06       		.uleb128 0x6
 1537 04ca 6269675F 		.ascii "big_int_s\0"
 1537      696E745F 
 1537      7300
 1538 04d4 10       		.byte	0x10
 1539 04d5 03       		.byte	0x3
 1540 04d6 57       		.byte	0x57
 1541 04d7 EB040000 		.long	0x4eb
 1542 04db 07       		.uleb128 0x7
 1543 04dc 6E756D62 		.ascii "number\0"
 1543      657200
 1544 04e3 03       		.byte	0x3
 1545 04e4 60       		.byte	0x60
 1546 04e5 EB040000 		.long	0x4eb
 1547 04e9 00       		.byte	0
 1548 04ea 00       		.byte	0
 1549 04eb 08       		.uleb128 0x8
 1550 04ec C8000000 		.long	0xc8
 1551 04f0 FB040000 		.long	0x4fb
 1552 04f4 09       		.uleb128 0x9
 1553 04f5 FB040000 		.long	0x4fb
 1554 04f9 0F       		.byte	0xf
 1555 04fa 00       		.byte	0
 1556 04fb 03       		.uleb128 0x3
 1557 04fc 04       		.byte	0x4
 1558 04fd 07       		.byte	0x7
 1559 04fe 73697A65 		.ascii "sizetype\0"
 1559      74797065 
 1559      00
 1560 0507 02       		.uleb128 0x2
 1561 0508 6269675F 		.ascii "big_int\0"
 1561      696E7400 
 1562 0510 03       		.byte	0x3
 1563 0511 61       		.byte	0x61
 1564 0512 C9040000 		.long	0x4c9
 1565 0516 02       		.uleb128 0x2
 1566 0517 74696D65 		.ascii "timebig_t\0"
 1566      6269675F 
 1566      7400
 1567 0521 03       		.byte	0x3
 1568 0522 63       		.byte	0x63
 1569 0523 07050000 		.long	0x507
 1570 0527 04       		.uleb128 0x4
 1571 0528 636F7265 		.ascii "coreid_e\0"
 1571      69645F65 
 1571      00
 1572 0531 04       		.byte	0x4
 1573 0532 04       		.byte	0x4
 1574 0533 04       		.byte	0x4
 1575 0534 61050000 		.long	0x561
 1576 0538 05       		.uleb128 0x5
 1577 0539 455F434F 		.ascii "E_CORE0\0"
 1577      52453000 
 1578 0541 00       		.sleb128 0
 1579 0542 05       		.uleb128 0x5
 1580 0543 455F434F 		.ascii "E_CORE1\0"
 1580      52453100 
GAS LISTING C:\Users\PRESID~1\AppData\Local\Temp\cczIt3NK.s 			page 43


 1581 054b 01       		.sleb128 1
 1582 054c 05       		.uleb128 0x5
 1583 054d 455F434F 		.ascii "E_CORE2\0"
 1583      52453200 
 1584 0555 02       		.sleb128 2
 1585 0556 05       		.uleb128 0x5
 1586 0557 455F434F 		.ascii "E_CORE3\0"
 1586      52453300 
 1587 055f 03       		.sleb128 3
 1588 0560 00       		.byte	0
 1589 0561 02       		.uleb128 0x2
 1590 0562 636F7265 		.ascii "coreid_t\0"
 1590      69645F74 
 1590      00
 1591 056b 04       		.byte	0x4
 1592 056c 0B       		.byte	0xb
 1593 056d 27050000 		.long	0x527
 1594 0571 04       		.uleb128 0x4
 1595 0572 70726976 		.ascii "privilige_mode_e\0"
 1595      696C6967 
 1595      655F6D6F 
 1595      64655F65 
 1595      00
 1596 0583 04       		.byte	0x4
 1597 0584 04       		.byte	0x4
 1598 0585 10       		.byte	0x10
 1599 0586 09060000 		.long	0x609
 1600 058a 05       		.uleb128 0x5
 1601 058b 455F5052 		.ascii "E_PRIVILIGEMODE_UNPRIVILIGED_THREAD_MODE\0"
 1601      4956494C 
 1601      4947454D 
 1601      4F44455F 
 1601      554E5052 
 1602 05b4 00       		.sleb128 0
 1603 05b5 05       		.uleb128 0x5
 1604 05b6 455F5052 		.ascii "E_PRIVILIGEMODE_PRIVILIGED_THREAD_MODE\0"
 1604      4956494C 
 1604      4947454D 
 1604      4F44455F 
 1604      50524956 
 1605 05dd 01       		.sleb128 1
 1606 05de 05       		.uleb128 0x5
 1607 05df 455F5052 		.ascii "E_PRIVILIGEMODE_PRIVILIGED_HANDLER_MODE\0"
 1607      4956494C 
 1607      4947454D 
 1607      4F44455F 
 1607      50524956 
 1608 0607 02       		.sleb128 2
 1609 0608 00       		.byte	0
 1610 0609 02       		.uleb128 0x2
 1611 060a 70726976 		.ascii "privilige_mode_t\0"
 1611      696C6967 
 1611      655F6D6F 
 1611      64655F74 
 1611      00
 1612 061b 04       		.byte	0x4
 1613 061c 16       		.byte	0x16
GAS LISTING C:\Users\PRESID~1\AppData\Local\Temp\cczIt3NK.s 			page 44


 1614 061d 71050000 		.long	0x571
 1615 0621 04       		.uleb128 0x4
 1616 0622 7461736B 		.ascii "task_state_e\0"
 1616      5F737461 
 1616      74655F65 
 1616      00
 1617 062f 04       		.byte	0x4
 1618 0630 05       		.byte	0x5
 1619 0631 07       		.byte	0x7
 1620 0632 7F060000 		.long	0x67f
 1621 0636 05       		.uleb128 0x5
 1622 0637 455F5441 		.ascii "E_TASK_UNSPECIFIED\0"
 1622      534B5F55 
 1622      4E535045 
 1622      43494649 
 1622      454400
 1623 064a 00       		.sleb128 0
 1624 064b 05       		.uleb128 0x5
 1625 064c 455F5441 		.ascii "E_TASK_SUSPENDED\0"
 1625      534B5F53 
 1625      55535045 
 1625      4E444544 
 1625      00
 1626 065d 01       		.sleb128 1
 1627 065e 05       		.uleb128 0x5
 1628 065f 455F5441 		.ascii "E_TASK_READY\0"
 1628      534B5F52 
 1628      45414459 
 1628      00
 1629 066c 02       		.sleb128 2
 1630 066d 05       		.uleb128 0x5
 1631 066e 455F5441 		.ascii "E_TASK_RUNNING\0"
 1631      534B5F52 
 1631      554E4E49 
 1631      4E4700
 1632 067d 03       		.sleb128 3
 1633 067e 00       		.byte	0
 1634 067f 02       		.uleb128 0x2
 1635 0680 7461736B 		.ascii "task_state_t\0"
 1635      5F737461 
 1635      74655F74 
 1635      00
 1636 068d 05       		.byte	0x5
 1637 068e 0E       		.byte	0xe
 1638 068f 21060000 		.long	0x621
 1639 0693 02       		.uleb128 0x2
 1640 0694 66756E63 		.ascii "func_p_t\0"
 1640      5F705F74 
 1640      00
 1641 069d 05       		.byte	0x5
 1642 069e 13       		.byte	0x13
 1643 069f A3060000 		.long	0x6a3
 1644 06a3 0A       		.uleb128 0xa
 1645 06a4 04       		.byte	0x4
 1646 06a5 A9060000 		.long	0x6a9
 1647 06a9 0B       		.uleb128 0xb
 1648 06aa B4060000 		.long	0x6b4
GAS LISTING C:\Users\PRESID~1\AppData\Local\Temp\cczIt3NK.s 			page 45


 1649 06ae 0C       		.uleb128 0xc
 1650 06af B4060000 		.long	0x6b4
 1651 06b3 00       		.byte	0
 1652 06b4 0D       		.uleb128 0xd
 1653 06b5 04       		.byte	0x4
 1654 06b6 02       		.uleb128 0x2
 1655 06b7 66756E63 		.ascii "func_p_state_change_t\0"
 1655      5F705F73 
 1655      74617465 
 1655      5F636861 
 1655      6E67655F 
 1656 06cd 05       		.byte	0x5
 1657 06ce 15       		.byte	0x15
 1658 06cf D3060000 		.long	0x6d3
 1659 06d3 0A       		.uleb128 0xa
 1660 06d4 04       		.byte	0x4
 1661 06d5 D9060000 		.long	0x6d9
 1662 06d9 0E       		.uleb128 0xe
 1663 06da 91000000 		.long	0x91
 1664 06de ED060000 		.long	0x6ed
 1665 06e2 0C       		.uleb128 0xc
 1666 06e3 B4060000 		.long	0x6b4
 1667 06e7 0C       		.uleb128 0xc
 1668 06e8 7F060000 		.long	0x67f
 1669 06ec 00       		.byte	0
 1670 06ed 06       		.uleb128 0x6
 1671 06ee 7461736B 		.ascii "task_group_s\0"
 1671      5F67726F 
 1671      75705F73 
 1671      00
 1672 06fb 20       		.byte	0x20
 1673 06fc 05       		.byte	0x5
 1674 06fd 18       		.byte	0x18
 1675 06fe 25070000 		.long	0x725
 1676 0702 0F       		.uleb128 0xf
 1677 0703 37000000 		.secrel32	LASF0
 1678 0707 05       		.byte	0x5
 1679 0708 1A       		.byte	0x1a
 1680 0709 16050000 		.long	0x516
 1681 070d 00       		.byte	0
 1682 070e 07       		.uleb128 0x7
 1683 070f 66616972 		.ascii "fair_exe_time\0"
 1683      5F657865 
 1683      5F74696D 
 1683      6500
 1684 071d 05       		.byte	0x5
 1685 071e 1B       		.byte	0x1b
 1686 071f 16050000 		.long	0x516
 1687 0723 10       		.byte	0x10
 1688 0724 00       		.byte	0
 1689 0725 02       		.uleb128 0x2
 1690 0726 7461736B 		.ascii "task_group_t\0"
 1690      5F67726F 
 1690      75705F74 
 1690      00
 1691 0733 05       		.byte	0x5
 1692 0734 1D       		.byte	0x1d
GAS LISTING C:\Users\PRESID~1\AppData\Local\Temp\cczIt3NK.s 			page 46


 1693 0735 ED060000 		.long	0x6ed
 1694 0739 06       		.uleb128 0x6
 1695 073a 7461736B 		.ascii "task_s\0"
 1695      5F7300
 1696 0741 AC       		.byte	0xac
 1697 0742 05       		.byte	0x5
 1698 0743 1F       		.byte	0x1f
 1699 0744 AC090000 		.long	0x9ac
 1700 0748 10       		.uleb128 0x10
 1701 0749 61637469 		.ascii "active\0"
 1701      766500
 1702 0750 05       		.byte	0x5
 1703 0751 21       		.byte	0x21
 1704 0752 AC090000 		.long	0x9ac
 1705 0756 04       		.byte	0x4
 1706 0757 01       		.byte	0x1
 1707 0758 1F       		.byte	0x1f
 1708 0759 00       		.byte	0
 1709 075a 10       		.uleb128 0x10
 1710 075b 7461736B 		.ascii "task_queued\0"
 1710      5F717565 
 1710      75656400 
 1711 0767 05       		.byte	0x5
 1712 0768 22       		.byte	0x22
 1713 0769 AC090000 		.long	0x9ac
 1714 076d 04       		.byte	0x4
 1715 076e 01       		.byte	0x1
 1716 076f 1E       		.byte	0x1e
 1717 0770 00       		.byte	0
 1718 0771 11       		.uleb128 0x11
 1719 0772 00000000 		.secrel32	LASF1
 1720 0776 05       		.byte	0x5
 1721 0777 23       		.byte	0x23
 1722 0778 AC090000 		.long	0x9ac
 1723 077c 04       		.byte	0x4
 1724 077d 01       		.byte	0x1
 1725 077e 1D       		.byte	0x1d
 1726 077f 00       		.byte	0
 1727 0780 10       		.uleb128 0x10
 1728 0781 66726565 		.ascii "free\0"
 1728      00
 1729 0786 05       		.byte	0x5
 1730 0787 24       		.byte	0x24
 1731 0788 AC090000 		.long	0x9ac
 1732 078c 04       		.byte	0x4
 1733 078d 1D       		.byte	0x1d
 1734 078e 00       		.byte	0
 1735 078f 00       		.byte	0
 1736 0790 07       		.uleb128 0x7
 1737 0791 6E725F6F 		.ascii "nr_of_ins_allowed\0"
 1737      665F696E 
 1737      735F616C 
 1737      6C6F7765 
 1737      6400
 1738 07a3 05       		.byte	0x5
 1739 07a4 25       		.byte	0x25
 1740 07a5 91000000 		.long	0x91
GAS LISTING C:\Users\PRESID~1\AppData\Local\Temp\cczIt3NK.s 			page 47


 1741 07a9 04       		.byte	0x4
 1742 07aa 07       		.uleb128 0x7
 1743 07ab 6E725F6F 		.ascii "nr_of_ins_activated\0"
 1743      665F696E 
 1743      735F6163 
 1743      74697661 
 1743      74656400 
 1744 07bf 05       		.byte	0x5
 1745 07c0 26       		.byte	0x26
 1746 07c1 91000000 		.long	0x91
 1747 07c5 05       		.byte	0x5
 1748 07c6 07       		.uleb128 0x7
 1749 07c7 77616974 		.ascii "wait_act_until\0"
 1749      5F616374 
 1749      5F756E74 
 1749      696C00
 1750 07d6 05       		.byte	0x5
 1751 07d7 27       		.byte	0x27
 1752 07d8 16050000 		.long	0x516
 1753 07dc 06       		.byte	0x6
 1754 07dd 07       		.uleb128 0x7
 1755 07de 77616974 		.ascii "wait_time\0"
 1755      5F74696D 
 1755      6500
 1756 07e8 05       		.byte	0x5
 1757 07e9 28       		.byte	0x28
 1758 07ea 16050000 		.long	0x516
 1759 07ee 16       		.byte	0x16
 1760 07ef 07       		.uleb128 0x7
 1761 07f0 74696D65 		.ascii "time_to_prio_inc\0"
 1761      5F746F5F 
 1761      7072696F 
 1761      5F696E63 
 1761      00
 1762 0801 05       		.byte	0x5
 1763 0802 29       		.byte	0x29
 1764 0803 16050000 		.long	0x516
 1765 0807 26       		.byte	0x26
 1766 0808 07       		.uleb128 0x7
 1767 0809 6F766572 		.ascii "overwaittime_per_prio_inc_step\0"
 1767      77616974 
 1767      74696D65 
 1767      5F706572 
 1767      5F707269 
 1768 0828 05       		.byte	0x5
 1769 0829 2A       		.byte	0x2a
 1770 082a 31010000 		.long	0x131
 1771 082e 38       		.byte	0x38
 1772 082f 07       		.uleb128 0x7
 1773 0830 6D61785F 		.ascii "max_allowed_wait_time\0"
 1773      616C6C6F 
 1773      7765645F 
 1773      77616974 
 1773      5F74696D 
 1774 0846 05       		.byte	0x5
 1775 0847 2B       		.byte	0x2b
 1776 0848 16050000 		.long	0x516
GAS LISTING C:\Users\PRESID~1\AppData\Local\Temp\cczIt3NK.s 			page 48


 1777 084c 3C       		.byte	0x3c
 1778 084d 0F       		.uleb128 0xf
 1779 084e 37000000 		.secrel32	LASF0
 1780 0852 05       		.byte	0x5
 1781 0853 2C       		.byte	0x2c
 1782 0854 16050000 		.long	0x516
 1783 0858 4C       		.byte	0x4c
 1784 0859 07       		.uleb128 0x7
 1785 085a 73746172 		.ascii "start_time\0"
 1785      745F7469 
 1785      6D6500
 1786 0865 05       		.byte	0x5
 1787 0866 2D       		.byte	0x2d
 1788 0867 16050000 		.long	0x516
 1789 086b 5C       		.byte	0x5c
 1790 086c 07       		.uleb128 0x7
 1791 086d 63757272 		.ascii "current_prio\0"
 1791      656E745F 
 1791      7072696F 
 1791      00
 1792 087a 05       		.byte	0x5
 1793 087b 2E       		.byte	0x2e
 1794 087c 91000000 		.long	0x91
 1795 0880 6C       		.byte	0x6c
 1796 0881 0F       		.uleb128 0xf
 1797 0882 4B000000 		.secrel32	LASF2
 1798 0886 05       		.byte	0x5
 1799 0887 2F       		.byte	0x2f
 1800 0888 91000000 		.long	0x91
 1801 088c 6D       		.byte	0x6d
 1802 088d 07       		.uleb128 0x7
 1803 088e 7461736B 		.ascii "task_number\0"
 1803      5F6E756D 
 1803      62657200 
 1804 089a 05       		.byte	0x5
 1805 089b 30       		.byte	0x30
 1806 089c F8000000 		.long	0xf8
 1807 08a0 70       		.byte	0x70
 1808 08a1 07       		.uleb128 0x7
 1809 08a2 667000   		.ascii "fp\0"
 1810 08a5 05       		.byte	0x5
 1811 08a6 31       		.byte	0x31
 1812 08a7 93060000 		.long	0x693
 1813 08ab 74       		.byte	0x74
 1814 08ac 07       		.uleb128 0x7
 1815 08ad 73746174 		.ascii "state_request\0"
 1815      655F7265 
 1815      71756573 
 1815      7400
 1816 08bb 05       		.byte	0x5
 1817 08bc 32       		.byte	0x32
 1818 08bd B6060000 		.long	0x6b6
 1819 08c1 78       		.byte	0x78
 1820 08c2 07       		.uleb128 0x7
 1821 08c3 7461736B 		.ascii "task_state\0"
 1821      5F737461 
 1821      746500
GAS LISTING C:\Users\PRESID~1\AppData\Local\Temp\cczIt3NK.s 			page 49


 1822 08ce 05       		.byte	0x5
 1823 08cf 33       		.byte	0x33
 1824 08d0 7F060000 		.long	0x67f
 1825 08d4 7C       		.byte	0x7c
 1826 08d5 07       		.uleb128 0x7
 1827 08d6 7461736B 		.ascii "task_group\0"
 1827      5F67726F 
 1827      757000
 1828 08e1 05       		.byte	0x5
 1829 08e2 34       		.byte	0x34
 1830 08e3 BC090000 		.long	0x9bc
 1831 08e7 80       		.byte	0x80
 1832 08e8 07       		.uleb128 0x7
 1833 08e9 65617800 		.ascii "eax\0"
 1834 08ed 05       		.byte	0x5
 1835 08ee 36       		.byte	0x36
 1836 08ef F8000000 		.long	0xf8
 1837 08f3 84       		.byte	0x84
 1838 08f4 07       		.uleb128 0x7
 1839 08f5 65627800 		.ascii "ebx\0"
 1840 08f9 05       		.byte	0x5
 1841 08fa 37       		.byte	0x37
 1842 08fb F8000000 		.long	0xf8
 1843 08ff 88       		.byte	0x88
 1844 0900 07       		.uleb128 0x7
 1845 0901 65637800 		.ascii "ecx\0"
 1846 0905 05       		.byte	0x5
 1847 0906 38       		.byte	0x38
 1848 0907 F8000000 		.long	0xf8
 1849 090b 8C       		.byte	0x8c
 1850 090c 07       		.uleb128 0x7
 1851 090d 65647800 		.ascii "edx\0"
 1852 0911 05       		.byte	0x5
 1853 0912 39       		.byte	0x39
 1854 0913 F8000000 		.long	0xf8
 1855 0917 90       		.byte	0x90
 1856 0918 07       		.uleb128 0x7
 1857 0919 705F7374 		.ascii "p_stack_pointer\0"
 1857      61636B5F 
 1857      706F696E 
 1857      74657200 
 1858 0929 05       		.byte	0x5
 1859 092a 49       		.byte	0x49
 1860 092b C2090000 		.long	0x9c2
 1861 092f 94       		.byte	0x94
 1862 0930 07       		.uleb128 0x7
 1863 0931 705F7374 		.ascii "p_stack_pointer_by_malloc\0"
 1863      61636B5F 
 1863      706F696E 
 1863      7465725F 
 1863      62795F6D 
 1864 094b 05       		.byte	0x5
 1865 094c 4A       		.byte	0x4a
 1866 094d C2090000 		.long	0x9c2
 1867 0951 98       		.byte	0x98
 1868 0952 07       		.uleb128 0x7
 1869 0953 705F7374 		.ascii "p_stack_pointer_start\0"
GAS LISTING C:\Users\PRESID~1\AppData\Local\Temp\cczIt3NK.s 			page 50


 1869      61636B5F 
 1869      706F696E 
 1869      7465725F 
 1869      73746172 
 1870 0969 05       		.byte	0x5
 1871 096a 4B       		.byte	0x4b
 1872 096b C2090000 		.long	0x9c2
 1873 096f 9C       		.byte	0x9c
 1874 0970 07       		.uleb128 0x7
 1875 0971 73746163 		.ascii "stack_size\0"
 1875      6B5F7369 
 1875      7A6500
 1876 097c 05       		.byte	0x5
 1877 097d 4C       		.byte	0x4c
 1878 097e F8000000 		.long	0xf8
 1879 0982 A0       		.byte	0xa0
 1880 0983 07       		.uleb128 0x7
 1881 0984 705F7374 		.ascii "p_stack_pointer_end\0"
 1881      61636B5F 
 1881      706F696E 
 1881      7465725F 
 1881      656E6400 
 1882 0998 05       		.byte	0x5
 1883 0999 4D       		.byte	0x4d
 1884 099a C2090000 		.long	0x9c2
 1885 099e A4       		.byte	0xa4
 1886 099f 0F       		.uleb128 0xf
 1887 09a0 23000000 		.secrel32	LASF3
 1888 09a4 05       		.byte	0x5
 1889 09a5 4E       		.byte	0x4e
 1890 09a6 09060000 		.long	0x609
 1891 09aa A8       		.byte	0xa8
 1892 09ab 00       		.byte	0
 1893 09ac 03       		.uleb128 0x3
 1894 09ad 04       		.byte	0x4
 1895 09ae 07       		.byte	0x7
 1896 09af 756E7369 		.ascii "unsigned int\0"
 1896      676E6564 
 1896      20696E74 
 1896      00
 1897 09bc 0A       		.uleb128 0xa
 1898 09bd 04       		.byte	0x4
 1899 09be 25070000 		.long	0x725
 1900 09c2 0A       		.uleb128 0xa
 1901 09c3 04       		.byte	0x4
 1902 09c4 91000000 		.long	0x91
 1903 09c8 02       		.uleb128 0x2
 1904 09c9 7461736B 		.ascii "task_t\0"
 1904      5F7400
 1905 09d0 05       		.byte	0x5
 1906 09d1 50       		.byte	0x50
 1907 09d2 39070000 		.long	0x739
 1908 09d6 02       		.uleb128 0x2
 1909 09d7 73636865 		.ascii "scheduling_t\0"
 1909      64756C69 
 1909      6E675F74 
 1909      00
GAS LISTING C:\Users\PRESID~1\AppData\Local\Temp\cczIt3NK.s 			page 51


 1910 09e4 05       		.byte	0x5
 1911 09e5 51       		.byte	0x51
 1912 09e6 EA090000 		.long	0x9ea
 1913 09ea 0A       		.uleb128 0xa
 1914 09eb 04       		.byte	0x4
 1915 09ec C8090000 		.long	0x9c8
 1916 09f0 12       		.uleb128 0x12
 1917 09f1 5345545F 		.ascii "SET_RUNNING_TASK\0"
 1917      52554E4E 
 1917      494E475F 
 1917      5441534B 
 1917      00
 1918 0a02 01       		.byte	0x1
 1919 0a03 21       		.byte	0x21
 1920 0a04 00000000 		.long	LFB0
 1921 0a08 FF010000 		.long	LFE0-LFB0
 1922 0a0c 01       		.uleb128 0x1
 1923 0a0d 9C       		.byte	0x9c
 1924 0a0e 3B0A0000 		.long	0xa3b
 1925 0a12 13       		.uleb128 0x13
 1926 0a13 32000000 		.secrel32	LASF4
 1927 0a17 01       		.byte	0x1
 1928 0a18 21       		.byte	0x21
 1929 0a19 EA090000 		.long	0x9ea
 1930 0a1d 02       		.uleb128 0x2
 1931 0a1e 91       		.byte	0x91
 1932 0a1f 00       		.sleb128 0
 1933 0a20 14       		.uleb128 0x14
 1934 0a21 73636865 		.ascii "scheduling_task\0"
 1934      64756C69 
 1934      6E675F74 
 1934      61736B00 
 1935 0a31 01       		.byte	0x1
 1936 0a32 21       		.byte	0x21
 1937 0a33 3B0A0000 		.long	0xa3b
 1938 0a37 02       		.uleb128 0x2
 1939 0a38 91       		.byte	0x91
 1940 0a39 04       		.sleb128 4
 1941 0a3a 00       		.byte	0
 1942 0a3b 0A       		.uleb128 0xa
 1943 0a3c 04       		.byte	0x4
 1944 0a3d D6090000 		.long	0x9d6
 1945 0a41 12       		.uleb128 0x12
 1946 0a42 4F535F49 		.ascii "OS_INIT_TASK_QUEUE\0"
 1946      4E49545F 
 1946      5441534B 
 1946      5F515545 
 1946      554500
 1947 0a55 01       		.byte	0x1
 1948 0a56 57       		.byte	0x57
 1949 0a57 FF010000 		.long	LFB1
 1950 0a5b 61000000 		.long	LFE1-LFB1
 1951 0a5f 01       		.uleb128 0x1
 1952 0a60 9C       		.byte	0x9c
 1953 0a61 7E0A0000 		.long	0xa7e
 1954 0a65 15       		.uleb128 0x15
 1955 0a66 0E020000 		.long	LBB2
GAS LISTING C:\Users\PRESID~1\AppData\Local\Temp\cczIt3NK.s 			page 52


 1956 0a6a 50000000 		.long	LBE2-LBB2
 1957 0a6e 16       		.uleb128 0x16
 1958 0a6f 40000000 		.secrel32	LASF5
 1959 0a73 01       		.byte	0x1
 1960 0a74 5B       		.byte	0x5b
 1961 0a75 91000000 		.long	0x91
 1962 0a79 02       		.uleb128 0x2
 1963 0a7a 91       		.byte	0x91
 1964 0a7b 6F       		.sleb128 -17
 1965 0a7c 00       		.byte	0
 1966 0a7d 00       		.byte	0
 1967 0a7e 17       		.uleb128 0x17
 1968 0a7f 4144445F 		.ascii "ADD_TO_TASK_QUEUE\0"
 1968      544F5F54 
 1968      41534B5F 
 1968      51554555 
 1968      4500
 1969 0a91 01       		.byte	0x1
 1970 0a92 65       		.byte	0x65
 1971 0a93 EA090000 		.long	0x9ea
 1972 0a97 60020000 		.long	LFB2
 1973 0a9b B7050000 		.long	LFE2-LFB2
 1974 0a9f 01       		.uleb128 0x1
 1975 0aa0 9C       		.byte	0x9c
 1976 0aa1 D50A0000 		.long	0xad5
 1977 0aa5 13       		.uleb128 0x13
 1978 0aa6 32000000 		.secrel32	LASF4
 1979 0aaa 01       		.byte	0x1
 1980 0aab 65       		.byte	0x65
 1981 0aac EA090000 		.long	0x9ea
 1982 0ab0 02       		.uleb128 0x2
 1983 0ab1 91       		.byte	0x91
 1984 0ab2 00       		.sleb128 0
 1985 0ab3 16       		.uleb128 0x16
 1986 0ab4 40000000 		.secrel32	LASF5
 1987 0ab8 01       		.byte	0x1
 1988 0ab9 67       		.byte	0x67
 1989 0aba 91000000 		.long	0x91
 1990 0abe 02       		.uleb128 0x2
 1991 0abf 91       		.byte	0x91
 1992 0ac0 6F       		.sleb128 -17
 1993 0ac1 18       		.uleb128 0x18
 1994 0ac2 7265745F 		.ascii "ret_task\0"
 1994      7461736B 
 1994      00
 1995 0acb 01       		.byte	0x1
 1996 0acc 68       		.byte	0x68
 1997 0acd EA090000 		.long	0x9ea
 1998 0ad1 02       		.uleb128 0x2
 1999 0ad2 91       		.byte	0x91
 2000 0ad3 68       		.sleb128 -24
 2001 0ad4 00       		.byte	0
 2002 0ad5 12       		.uleb128 0x12
 2003 0ad6 44454C45 		.ascii "DELETE_FROM_TASK_QUEUE\0"
 2003      54455F46 
 2003      524F4D5F 
 2003      5441534B 
GAS LISTING C:\Users\PRESID~1\AppData\Local\Temp\cczIt3NK.s 			page 53


 2003      5F515545 
 2004 0aed 01       		.byte	0x1
 2005 0aee A3       		.byte	0xa3
 2006 0aef 17080000 		.long	LFB3
 2007 0af3 4A010000 		.long	LFE3-LFB3
 2008 0af7 01       		.uleb128 0x1
 2009 0af8 9C       		.byte	0x9c
 2010 0af9 0C0B0000 		.long	0xb0c
 2011 0afd 13       		.uleb128 0x13
 2012 0afe 32000000 		.secrel32	LASF4
 2013 0b02 01       		.byte	0x1
 2014 0b03 A3       		.byte	0xa3
 2015 0b04 EA090000 		.long	0x9ea
 2016 0b08 02       		.uleb128 0x2
 2017 0b09 91       		.byte	0x91
 2018 0b0a 00       		.sleb128 0
 2019 0b0b 00       		.byte	0
 2020 0b0c 19       		.uleb128 0x19
 2021 0b0d 4745545F 		.ascii "GET_FROM_TASK_QUEUE\0"
 2021      46524F4D 
 2021      5F544153 
 2021      4B5F5155 
 2021      45554500 
 2022 0b21 01       		.byte	0x1
 2023 0b22 D4       		.byte	0xd4
 2024 0b23 EA090000 		.long	0x9ea
 2025 0b27 61090000 		.long	LFB4
 2026 0b2b 0A000000 		.long	LFE4-LFB4
 2027 0b2f 01       		.uleb128 0x1
 2028 0b30 9C       		.byte	0x9c
 2029 0b31 440B0000 		.long	0xb44
 2030 0b35 13       		.uleb128 0x13
 2031 0b36 0A000000 		.secrel32	LASF6
 2032 0b3a 01       		.byte	0x1
 2033 0b3b D4       		.byte	0xd4
 2034 0b3c 3B0A0000 		.long	0xa3b
 2035 0b40 02       		.uleb128 0x2
 2036 0b41 91       		.byte	0x91
 2037 0b42 00       		.sleb128 0
 2038 0b43 00       		.byte	0
 2039 0b44 19       		.uleb128 0x19
 2040 0b45 4745545F 		.ascii "GET_FROM_SCHEDULING_QUEUE\0"
 2040      46524F4D 
 2040      5F534348 
 2040      4544554C 
 2040      494E475F 
 2041 0b5f 01       		.byte	0x1
 2042 0b60 D8       		.byte	0xd8
 2043 0b61 3B0A0000 		.long	0xa3b
 2044 0b65 6B090000 		.long	LFB5
 2045 0b69 1A000000 		.long	LFE5-LFB5
 2046 0b6d 01       		.uleb128 0x1
 2047 0b6e 9C       		.byte	0x9c
 2048 0b6f 820B0000 		.long	0xb82
 2049 0b73 13       		.uleb128 0x13
 2050 0b74 40000000 		.secrel32	LASF5
 2051 0b78 01       		.byte	0x1
GAS LISTING C:\Users\PRESID~1\AppData\Local\Temp\cczIt3NK.s 			page 54


 2052 0b79 D8       		.byte	0xd8
 2053 0b7a 91000000 		.long	0x91
 2054 0b7e 02       		.uleb128 0x2
 2055 0b7f 91       		.byte	0x91
 2056 0b80 74       		.sleb128 -12
 2057 0b81 00       		.byte	0
 2058 0b82 1A       		.uleb128 0x1a
 2059 0b83 44454C45 		.ascii "DELETE_FROM_SCHEDULING_QUEUE\0"
 2059      54455F46 
 2059      524F4D5F 
 2059      53434845 
 2059      44554C49 
 2060 0ba0 01       		.byte	0x1
 2061 0ba1 DD       		.byte	0xdd
 2062 0ba2 85090000 		.long	LFB6
 2063 0ba6 0E000000 		.long	LFE6-LFB6
 2064 0baa 01       		.uleb128 0x1
 2065 0bab 9C       		.byte	0x9c
 2066 0bac BF0B0000 		.long	0xbbf
 2067 0bb0 13       		.uleb128 0x13
 2068 0bb1 0A000000 		.secrel32	LASF6
 2069 0bb5 01       		.byte	0x1
 2070 0bb6 DD       		.byte	0xdd
 2071 0bb7 3B0A0000 		.long	0xa3b
 2072 0bbb 02       		.uleb128 0x2
 2073 0bbc 91       		.byte	0x91
 2074 0bbd 00       		.sleb128 0
 2075 0bbe 00       		.byte	0
 2076 0bbf 1A       		.uleb128 0x1a
 2077 0bc0 4144445F 		.ascii "ADD_TO_SCHEDULING_QUEUE\0"
 2077      544F5F53 
 2077      43484544 
 2077      554C494E 
 2077      475F5155 
 2078 0bd8 01       		.byte	0x1
 2079 0bd9 E1       		.byte	0xe1
 2080 0bda 93090000 		.long	LFB7
 2081 0bde 47000000 		.long	LFE7-LFB7
 2082 0be2 01       		.uleb128 0x1
 2083 0be3 9C       		.byte	0x9c
 2084 0be4 200C0000 		.long	0xc20
 2085 0be8 13       		.uleb128 0x13
 2086 0be9 32000000 		.secrel32	LASF4
 2087 0bed 01       		.byte	0x1
 2088 0bee E1       		.byte	0xe1
 2089 0bef EA090000 		.long	0x9ea
 2090 0bf3 02       		.uleb128 0x2
 2091 0bf4 91       		.byte	0x91
 2092 0bf5 00       		.sleb128 0
 2093 0bf6 18       		.uleb128 0x18
 2094 0bf7 4164645F 		.ascii "Add_successful\0"
 2094      73756363 
 2094      65737366 
 2094      756C00
 2095 0c06 01       		.byte	0x1
 2096 0c07 EA       		.byte	0xea
 2097 0c08 91000000 		.long	0x91
GAS LISTING C:\Users\PRESID~1\AppData\Local\Temp\cczIt3NK.s 			page 55


 2098 0c0c 02       		.uleb128 0x2
 2099 0c0d 91       		.byte	0x91
 2100 0c0e 77       		.sleb128 -9
 2101 0c0f 18       		.uleb128 0x18
 2102 0c10 696E6465 		.ascii "index\0"
 2102      7800
 2103 0c16 01       		.byte	0x1
 2104 0c17 EB       		.byte	0xeb
 2105 0c18 91000000 		.long	0x91
 2106 0c1c 02       		.uleb128 0x2
 2107 0c1d 91       		.byte	0x91
 2108 0c1e 76       		.sleb128 -10
 2109 0c1f 00       		.byte	0
 2110 0c20 1B       		.uleb128 0x1b
 2111 0c21 4745545F 		.ascii "GET_IDLE_TASK\0"
 2111      49444C45 
 2111      5F544153 
 2111      4B00
 2112 0c2f 01       		.byte	0x1
 2113 0c30 1601     		.word	0x116
 2114 0c32 EA090000 		.long	0x9ea
 2115 0c36 DA090000 		.long	LFB8
 2116 0c3a 0A000000 		.long	LFE8-LFB8
 2117 0c3e 01       		.uleb128 0x1
 2118 0c3f 9C       		.byte	0x9c
 2119 0c40 1C       		.uleb128 0x1c
 2120 0c41 4144445F 		.ascii "ADD_TO_IDLE_TASK_QUEUE\0"
 2120      544F5F49 
 2120      444C455F 
 2120      5441534B 
 2120      5F515545 
 2121 0c58 01       		.byte	0x1
 2122 0c59 1A01     		.word	0x11a
 2123 0c5b E4090000 		.long	LFB9
 2124 0c5f E6010000 		.long	LFE9-LFB9
 2125 0c63 01       		.uleb128 0x1
 2126 0c64 9C       		.byte	0x9c
 2127 0c65 790C0000 		.long	0xc79
 2128 0c69 1D       		.uleb128 0x1d
 2129 0c6a 32000000 		.secrel32	LASF4
 2130 0c6e 01       		.byte	0x1
 2131 0c6f 1A01     		.word	0x11a
 2132 0c71 EA090000 		.long	0x9ea
 2133 0c75 02       		.uleb128 0x2
 2134 0c76 91       		.byte	0x91
 2135 0c77 00       		.sleb128 0
 2136 0c78 00       		.byte	0
 2137 0c79 1B       		.uleb128 0x1b
 2138 0c7a 4745545F 		.ascii "GET_RUNNING_TASK\0"
 2138      52554E4E 
 2138      494E475F 
 2138      5441534B 
 2138      00
 2139 0c8b 01       		.byte	0x1
 2140 0c8c 4E01     		.word	0x14e
 2141 0c8e EA090000 		.long	0x9ea
 2142 0c92 CA0B0000 		.long	LFB10
GAS LISTING C:\Users\PRESID~1\AppData\Local\Temp\cczIt3NK.s 			page 56


 2143 0c96 0A000000 		.long	LFE10-LFB10
 2144 0c9a 01       		.uleb128 0x1
 2145 0c9b 9C       		.byte	0x9c
 2146 0c9c 1B       		.uleb128 0x1b
 2147 0c9d 4745545F 		.ascii "GET_RUNNING_SCHEDULING_QUEUE_ELEMENT_PTR\0"
 2147      52554E4E 
 2147      494E475F 
 2147      53434845 
 2147      44554C49 
 2148 0cc6 01       		.byte	0x1
 2149 0cc7 5201     		.word	0x152
 2150 0cc9 D70C0000 		.long	0xcd7
 2151 0ccd D40B0000 		.long	LFB11
 2152 0cd1 0A000000 		.long	LFE11-LFB11
 2153 0cd5 01       		.uleb128 0x1
 2154 0cd6 9C       		.byte	0x9c
 2155 0cd7 0A       		.uleb128 0xa
 2156 0cd8 04       		.byte	0x4
 2157 0cd9 EA090000 		.long	0x9ea
 2158 0cdd 1C       		.uleb128 0x1c
 2159 0cde 4F535F49 		.ascii "OS_INIT_TASK\0"
 2159      4E49545F 
 2159      5441534B 
 2159      00
 2160 0ceb 01       		.byte	0x1
 2161 0cec 5601     		.word	0x156
 2162 0cee DE0B0000 		.long	LFB12
 2163 0cf2 4C010000 		.long	LFE12-LFB12
 2164 0cf6 01       		.uleb128 0x1
 2165 0cf7 9C       		.byte	0x9c
 2166 0cf8 C10D0000 		.long	0xdc1
 2167 0cfc 1D       		.uleb128 0x1d
 2168 0cfd 32000000 		.secrel32	LASF4
 2169 0d01 01       		.byte	0x1
 2170 0d02 5701     		.word	0x157
 2171 0d04 EA090000 		.long	0x9ea
 2172 0d08 02       		.uleb128 0x2
 2173 0d09 91       		.byte	0x91
 2174 0d0a 00       		.sleb128 0
 2175 0d0b 1E       		.uleb128 0x1e
 2176 0d0c 5461736B 		.ascii "TaskFunction\0"
 2176      46756E63 
 2176      74696F6E 
 2176      00
 2177 0d19 01       		.byte	0x1
 2178 0d1a 5801     		.word	0x158
 2179 0d1c 93060000 		.long	0x693
 2180 0d20 02       		.uleb128 0x2
 2181 0d21 91       		.byte	0x91
 2182 0d22 04       		.sleb128 4
 2183 0d23 1E       		.uleb128 0x1e
 2184 0d24 416C6C6F 		.ascii "AllowedInstances\0"
 2184      77656449 
 2184      6E737461 
 2184      6E636573 
 2184      00
 2185 0d35 01       		.byte	0x1
GAS LISTING C:\Users\PRESID~1\AppData\Local\Temp\cczIt3NK.s 			page 57


 2186 0d36 5901     		.word	0x159
 2187 0d38 91000000 		.long	0x91
 2188 0d3c 02       		.uleb128 0x2
 2189 0d3d 91       		.byte	0x91
 2190 0d3e 6C       		.sleb128 -20
 2191 0d3f 1D       		.uleb128 0x1d
 2192 0d40 00000000 		.secrel32	LASF1
 2193 0d44 01       		.byte	0x1
 2194 0d45 5A01     		.word	0x15a
 2195 0d47 91000000 		.long	0x91
 2196 0d4b 02       		.uleb128 0x2
 2197 0d4c 91       		.byte	0x91
 2198 0d4d 68       		.sleb128 -24
 2199 0d4e 1E       		.uleb128 0x1e
 2200 0d4f 705F7461 		.ascii "p_task_group\0"
 2200      736B5F67 
 2200      726F7570 
 2200      00
 2201 0d5c 01       		.byte	0x1
 2202 0d5d 5B01     		.word	0x15b
 2203 0d5f BC090000 		.long	0x9bc
 2204 0d63 02       		.uleb128 0x2
 2205 0d64 91       		.byte	0x91
 2206 0d65 10       		.sleb128 16
 2207 0d66 1E       		.uleb128 0x1e
 2208 0d67 70537461 		.ascii "pStackAddr\0"
 2208      636B4164 
 2208      647200
 2209 0d72 01       		.byte	0x1
 2210 0d73 5C01     		.word	0x15c
 2211 0d75 C2090000 		.long	0x9c2
 2212 0d79 02       		.uleb128 0x2
 2213 0d7a 91       		.byte	0x91
 2214 0d7b 14       		.sleb128 20
 2215 0d7c 1E       		.uleb128 0x1e
 2216 0d7d 75537461 		.ascii "uStackSize\0"
 2216      636B5369 
 2216      7A6500
 2217 0d88 01       		.byte	0x1
 2218 0d89 5D01     		.word	0x15d
 2219 0d8b F8000000 		.long	0xf8
 2220 0d8f 02       		.uleb128 0x2
 2221 0d90 91       		.byte	0x91
 2222 0d91 18       		.sleb128 24
 2223 0d92 1D       		.uleb128 0x1d
 2224 0d93 23000000 		.secrel32	LASF3
 2225 0d97 01       		.byte	0x1
 2226 0d98 5E01     		.word	0x15e
 2227 0d9a 09060000 		.long	0x609
 2228 0d9e 02       		.uleb128 0x2
 2229 0d9f 91       		.byte	0x91
 2230 0da0 1C       		.sleb128 28
 2231 0da1 1E       		.uleb128 0x1e
 2232 0da2 636F7265 		.ascii "core\0"
 2232      00
 2233 0da7 01       		.byte	0x1
 2234 0da8 5F01     		.word	0x15f
GAS LISTING C:\Users\PRESID~1\AppData\Local\Temp\cczIt3NK.s 			page 58


 2235 0daa 61050000 		.long	0x561
 2236 0dae 02       		.uleb128 0x2
 2237 0daf 91       		.byte	0x91
 2238 0db0 20       		.sleb128 32
 2239 0db1 1D       		.uleb128 0x1d
 2240 0db2 4B000000 		.secrel32	LASF2
 2241 0db6 01       		.byte	0x1
 2242 0db7 6001     		.word	0x160
 2243 0db9 91000000 		.long	0x91
 2244 0dbd 02       		.uleb128 0x2
 2245 0dbe 91       		.byte	0x91
 2246 0dbf 64       		.sleb128 -28
 2247 0dc0 00       		.byte	0
 2248 0dc1 08       		.uleb128 0x8
 2249 0dc2 D6090000 		.long	0x9d6
 2250 0dc6 D10D0000 		.long	0xdd1
 2251 0dca 09       		.uleb128 0x9
 2252 0dcb FB040000 		.long	0x4fb
 2253 0dcf 09       		.byte	0x9
 2254 0dd0 00       		.byte	0
 2255 0dd1 1F       		.uleb128 0x1f
 2256 0dd2 5441534B 		.ascii "TASK_SCHEDULING_QUEUE\0"
 2256      5F534348 
 2256      4544554C 
 2256      494E475F 
 2256      51554555 
 2257 0de8 06       		.byte	0x6
 2258 0de9 28       		.byte	0x28
 2259 0dea C10D0000 		.long	0xdc1
 2260 0dee 1F       		.uleb128 0x1f
 2261 0def 52554E4E 		.ascii "RUNNING_SCHEDULING_QUEUE_ENTRY\0"
 2261      494E475F 
 2261      53434845 
 2261      44554C49 
 2261      4E475F51 
 2262 0e0e 06       		.byte	0x6
 2263 0e0f 29       		.byte	0x29
 2264 0e10 3B0A0000 		.long	0xa3b
 2265 0e14 08       		.uleb128 0x8
 2266 0e15 C8090000 		.long	0x9c8
 2267 0e19 240E0000 		.long	0xe24
 2268 0e1d 09       		.uleb128 0x9
 2269 0e1e FB040000 		.long	0x4fb
 2270 0e22 09       		.byte	0x9
 2271 0e23 00       		.byte	0
 2272 0e24 1F       		.uleb128 0x1f
 2273 0e25 5441534B 		.ascii "TASK_RUN_QUEUE\0"
 2273      5F52554E 
 2273      5F515545 
 2273      554500
 2274 0e34 06       		.byte	0x6
 2275 0e35 2A       		.byte	0x2a
 2276 0e36 140E0000 		.long	0xe14
 2277 0e3a 08       		.uleb128 0x8
 2278 0e3b C8090000 		.long	0x9c8
 2279 0e3f 4A0E0000 		.long	0xe4a
 2280 0e43 09       		.uleb128 0x9
GAS LISTING C:\Users\PRESID~1\AppData\Local\Temp\cczIt3NK.s 			page 59


 2281 0e44 FB040000 		.long	0x4fb
 2282 0e48 00       		.byte	0
 2283 0e49 00       		.byte	0
 2284 0e4a 1F       		.uleb128 0x1f
 2285 0e4b 52554E4E 		.ascii "RUNNING_TASK\0"
 2285      494E475F 
 2285      5441534B 
 2285      00
 2286 0e58 06       		.byte	0x6
 2287 0e59 2B       		.byte	0x2b
 2288 0e5a 3A0E0000 		.long	0xe3a
 2289 0e5e 1F       		.uleb128 0x1f
 2290 0e5f 5441534B 		.ascii "TASK_IDLE_QUEUE\0"
 2290      5F49444C 
 2290      455F5155 
 2290      45554500 
 2291 0e6f 06       		.byte	0x6
 2292 0e70 2C       		.byte	0x2c
 2293 0e71 3A0E0000 		.long	0xe3a
 2294 0e75 1F       		.uleb128 0x1f
 2295 0e76 62544153 		.ascii "bTASK_QUEUE_INITIALIZED\0"
 2295      4B5F5155 
 2295      4555455F 
 2295      494E4954 
 2295      49414C49 
 2296 0e8e 06       		.byte	0x6
 2297 0e8f 2D       		.byte	0x2d
 2298 0e90 91000000 		.long	0x91
 2299 0e94 00       		.byte	0
 2300              		.section	.debug_abbrev,"dr"
 2301              	Ldebug_abbrev0:
 2302 0000 01       		.uleb128 0x1
 2303 0001 11       		.uleb128 0x11
 2304 0002 01       		.byte	0x1
 2305 0003 25       		.uleb128 0x25
 2306 0004 08       		.uleb128 0x8
 2307 0005 13       		.uleb128 0x13
 2308 0006 0B       		.uleb128 0xb
 2309 0007 03       		.uleb128 0x3
 2310 0008 08       		.uleb128 0x8
 2311 0009 11       		.uleb128 0x11
 2312 000a 01       		.uleb128 0x1
 2313 000b 12       		.uleb128 0x12
 2314 000c 06       		.uleb128 0x6
 2315 000d 10       		.uleb128 0x10
 2316 000e 17       		.uleb128 0x17
 2317 000f 9942     		.uleb128 0x2119
 2318 0011 17       		.uleb128 0x17
 2319 0012 00       		.byte	0
 2320 0013 00       		.byte	0
 2321 0014 02       		.uleb128 0x2
 2322 0015 16       		.uleb128 0x16
 2323 0016 00       		.byte	0
 2324 0017 03       		.uleb128 0x3
 2325 0018 08       		.uleb128 0x8
 2326 0019 3A       		.uleb128 0x3a
 2327 001a 0B       		.uleb128 0xb
GAS LISTING C:\Users\PRESID~1\AppData\Local\Temp\cczIt3NK.s 			page 60


 2328 001b 3B       		.uleb128 0x3b
 2329 001c 0B       		.uleb128 0xb
 2330 001d 49       		.uleb128 0x49
 2331 001e 13       		.uleb128 0x13
 2332 001f 00       		.byte	0
 2333 0020 00       		.byte	0
 2334 0021 03       		.uleb128 0x3
 2335 0022 24       		.uleb128 0x24
 2336 0023 00       		.byte	0
 2337 0024 0B       		.uleb128 0xb
 2338 0025 0B       		.uleb128 0xb
 2339 0026 3E       		.uleb128 0x3e
 2340 0027 0B       		.uleb128 0xb
 2341 0028 03       		.uleb128 0x3
 2342 0029 08       		.uleb128 0x8
 2343 002a 00       		.byte	0
 2344 002b 00       		.byte	0
 2345 002c 04       		.uleb128 0x4
 2346 002d 04       		.uleb128 0x4
 2347 002e 01       		.byte	0x1
 2348 002f 03       		.uleb128 0x3
 2349 0030 08       		.uleb128 0x8
 2350 0031 0B       		.uleb128 0xb
 2351 0032 0B       		.uleb128 0xb
 2352 0033 3A       		.uleb128 0x3a
 2353 0034 0B       		.uleb128 0xb
 2354 0035 3B       		.uleb128 0x3b
 2355 0036 0B       		.uleb128 0xb
 2356 0037 01       		.uleb128 0x1
 2357 0038 13       		.uleb128 0x13
 2358 0039 00       		.byte	0
 2359 003a 00       		.byte	0
 2360 003b 05       		.uleb128 0x5
 2361 003c 28       		.uleb128 0x28
 2362 003d 00       		.byte	0
 2363 003e 03       		.uleb128 0x3
 2364 003f 08       		.uleb128 0x8
 2365 0040 1C       		.uleb128 0x1c
 2366 0041 0D       		.uleb128 0xd
 2367 0042 00       		.byte	0
 2368 0043 00       		.byte	0
 2369 0044 06       		.uleb128 0x6
 2370 0045 13       		.uleb128 0x13
 2371 0046 01       		.byte	0x1
 2372 0047 03       		.uleb128 0x3
 2373 0048 08       		.uleb128 0x8
 2374 0049 0B       		.uleb128 0xb
 2375 004a 0B       		.uleb128 0xb
 2376 004b 3A       		.uleb128 0x3a
 2377 004c 0B       		.uleb128 0xb
 2378 004d 3B       		.uleb128 0x3b
 2379 004e 0B       		.uleb128 0xb
 2380 004f 01       		.uleb128 0x1
 2381 0050 13       		.uleb128 0x13
 2382 0051 00       		.byte	0
 2383 0052 00       		.byte	0
 2384 0053 07       		.uleb128 0x7
GAS LISTING C:\Users\PRESID~1\AppData\Local\Temp\cczIt3NK.s 			page 61


 2385 0054 0D       		.uleb128 0xd
 2386 0055 00       		.byte	0
 2387 0056 03       		.uleb128 0x3
 2388 0057 08       		.uleb128 0x8
 2389 0058 3A       		.uleb128 0x3a
 2390 0059 0B       		.uleb128 0xb
 2391 005a 3B       		.uleb128 0x3b
 2392 005b 0B       		.uleb128 0xb
 2393 005c 49       		.uleb128 0x49
 2394 005d 13       		.uleb128 0x13
 2395 005e 38       		.uleb128 0x38
 2396 005f 0B       		.uleb128 0xb
 2397 0060 00       		.byte	0
 2398 0061 00       		.byte	0
 2399 0062 08       		.uleb128 0x8
 2400 0063 01       		.uleb128 0x1
 2401 0064 01       		.byte	0x1
 2402 0065 49       		.uleb128 0x49
 2403 0066 13       		.uleb128 0x13
 2404 0067 01       		.uleb128 0x1
 2405 0068 13       		.uleb128 0x13
 2406 0069 00       		.byte	0
 2407 006a 00       		.byte	0
 2408 006b 09       		.uleb128 0x9
 2409 006c 21       		.uleb128 0x21
 2410 006d 00       		.byte	0
 2411 006e 49       		.uleb128 0x49
 2412 006f 13       		.uleb128 0x13
 2413 0070 2F       		.uleb128 0x2f
 2414 0071 0B       		.uleb128 0xb
 2415 0072 00       		.byte	0
 2416 0073 00       		.byte	0
 2417 0074 0A       		.uleb128 0xa
 2418 0075 0F       		.uleb128 0xf
 2419 0076 00       		.byte	0
 2420 0077 0B       		.uleb128 0xb
 2421 0078 0B       		.uleb128 0xb
 2422 0079 49       		.uleb128 0x49
 2423 007a 13       		.uleb128 0x13
 2424 007b 00       		.byte	0
 2425 007c 00       		.byte	0
 2426 007d 0B       		.uleb128 0xb
 2427 007e 15       		.uleb128 0x15
 2428 007f 01       		.byte	0x1
 2429 0080 27       		.uleb128 0x27
 2430 0081 19       		.uleb128 0x19
 2431 0082 01       		.uleb128 0x1
 2432 0083 13       		.uleb128 0x13
 2433 0084 00       		.byte	0
 2434 0085 00       		.byte	0
 2435 0086 0C       		.uleb128 0xc
 2436 0087 05       		.uleb128 0x5
 2437 0088 00       		.byte	0
 2438 0089 49       		.uleb128 0x49
 2439 008a 13       		.uleb128 0x13
 2440 008b 00       		.byte	0
 2441 008c 00       		.byte	0
GAS LISTING C:\Users\PRESID~1\AppData\Local\Temp\cczIt3NK.s 			page 62


 2442 008d 0D       		.uleb128 0xd
 2443 008e 0F       		.uleb128 0xf
 2444 008f 00       		.byte	0
 2445 0090 0B       		.uleb128 0xb
 2446 0091 0B       		.uleb128 0xb
 2447 0092 00       		.byte	0
 2448 0093 00       		.byte	0
 2449 0094 0E       		.uleb128 0xe
 2450 0095 15       		.uleb128 0x15
 2451 0096 01       		.byte	0x1
 2452 0097 27       		.uleb128 0x27
 2453 0098 19       		.uleb128 0x19
 2454 0099 49       		.uleb128 0x49
 2455 009a 13       		.uleb128 0x13
 2456 009b 01       		.uleb128 0x1
 2457 009c 13       		.uleb128 0x13
 2458 009d 00       		.byte	0
 2459 009e 00       		.byte	0
 2460 009f 0F       		.uleb128 0xf
 2461 00a0 0D       		.uleb128 0xd
 2462 00a1 00       		.byte	0
 2463 00a2 03       		.uleb128 0x3
 2464 00a3 0E       		.uleb128 0xe
 2465 00a4 3A       		.uleb128 0x3a
 2466 00a5 0B       		.uleb128 0xb
 2467 00a6 3B       		.uleb128 0x3b
 2468 00a7 0B       		.uleb128 0xb
 2469 00a8 49       		.uleb128 0x49
 2470 00a9 13       		.uleb128 0x13
 2471 00aa 38       		.uleb128 0x38
 2472 00ab 0B       		.uleb128 0xb
 2473 00ac 00       		.byte	0
 2474 00ad 00       		.byte	0
 2475 00ae 10       		.uleb128 0x10
 2476 00af 0D       		.uleb128 0xd
 2477 00b0 00       		.byte	0
 2478 00b1 03       		.uleb128 0x3
 2479 00b2 08       		.uleb128 0x8
 2480 00b3 3A       		.uleb128 0x3a
 2481 00b4 0B       		.uleb128 0xb
 2482 00b5 3B       		.uleb128 0x3b
 2483 00b6 0B       		.uleb128 0xb
 2484 00b7 49       		.uleb128 0x49
 2485 00b8 13       		.uleb128 0x13
 2486 00b9 0B       		.uleb128 0xb
 2487 00ba 0B       		.uleb128 0xb
 2488 00bb 0D       		.uleb128 0xd
 2489 00bc 0B       		.uleb128 0xb
 2490 00bd 0C       		.uleb128 0xc
 2491 00be 0B       		.uleb128 0xb
 2492 00bf 38       		.uleb128 0x38
 2493 00c0 0B       		.uleb128 0xb
 2494 00c1 00       		.byte	0
 2495 00c2 00       		.byte	0
 2496 00c3 11       		.uleb128 0x11
 2497 00c4 0D       		.uleb128 0xd
 2498 00c5 00       		.byte	0
GAS LISTING C:\Users\PRESID~1\AppData\Local\Temp\cczIt3NK.s 			page 63


 2499 00c6 03       		.uleb128 0x3
 2500 00c7 0E       		.uleb128 0xe
 2501 00c8 3A       		.uleb128 0x3a
 2502 00c9 0B       		.uleb128 0xb
 2503 00ca 3B       		.uleb128 0x3b
 2504 00cb 0B       		.uleb128 0xb
 2505 00cc 49       		.uleb128 0x49
 2506 00cd 13       		.uleb128 0x13
 2507 00ce 0B       		.uleb128 0xb
 2508 00cf 0B       		.uleb128 0xb
 2509 00d0 0D       		.uleb128 0xd
 2510 00d1 0B       		.uleb128 0xb
 2511 00d2 0C       		.uleb128 0xc
 2512 00d3 0B       		.uleb128 0xb
 2513 00d4 38       		.uleb128 0x38
 2514 00d5 0B       		.uleb128 0xb
 2515 00d6 00       		.byte	0
 2516 00d7 00       		.byte	0
 2517 00d8 12       		.uleb128 0x12
 2518 00d9 2E       		.uleb128 0x2e
 2519 00da 01       		.byte	0x1
 2520 00db 3F       		.uleb128 0x3f
 2521 00dc 19       		.uleb128 0x19
 2522 00dd 03       		.uleb128 0x3
 2523 00de 08       		.uleb128 0x8
 2524 00df 3A       		.uleb128 0x3a
 2525 00e0 0B       		.uleb128 0xb
 2526 00e1 3B       		.uleb128 0x3b
 2527 00e2 0B       		.uleb128 0xb
 2528 00e3 27       		.uleb128 0x27
 2529 00e4 19       		.uleb128 0x19
 2530 00e5 11       		.uleb128 0x11
 2531 00e6 01       		.uleb128 0x1
 2532 00e7 12       		.uleb128 0x12
 2533 00e8 06       		.uleb128 0x6
 2534 00e9 40       		.uleb128 0x40
 2535 00ea 18       		.uleb128 0x18
 2536 00eb 9642     		.uleb128 0x2116
 2537 00ed 19       		.uleb128 0x19
 2538 00ee 01       		.uleb128 0x1
 2539 00ef 13       		.uleb128 0x13
 2540 00f0 00       		.byte	0
 2541 00f1 00       		.byte	0
 2542 00f2 13       		.uleb128 0x13
 2543 00f3 05       		.uleb128 0x5
 2544 00f4 00       		.byte	0
 2545 00f5 03       		.uleb128 0x3
 2546 00f6 0E       		.uleb128 0xe
 2547 00f7 3A       		.uleb128 0x3a
 2548 00f8 0B       		.uleb128 0xb
 2549 00f9 3B       		.uleb128 0x3b
 2550 00fa 0B       		.uleb128 0xb
 2551 00fb 49       		.uleb128 0x49
 2552 00fc 13       		.uleb128 0x13
 2553 00fd 02       		.uleb128 0x2
 2554 00fe 18       		.uleb128 0x18
 2555 00ff 00       		.byte	0
GAS LISTING C:\Users\PRESID~1\AppData\Local\Temp\cczIt3NK.s 			page 64


 2556 0100 00       		.byte	0
 2557 0101 14       		.uleb128 0x14
 2558 0102 05       		.uleb128 0x5
 2559 0103 00       		.byte	0
 2560 0104 03       		.uleb128 0x3
 2561 0105 08       		.uleb128 0x8
 2562 0106 3A       		.uleb128 0x3a
 2563 0107 0B       		.uleb128 0xb
 2564 0108 3B       		.uleb128 0x3b
 2565 0109 0B       		.uleb128 0xb
 2566 010a 49       		.uleb128 0x49
 2567 010b 13       		.uleb128 0x13
 2568 010c 02       		.uleb128 0x2
 2569 010d 18       		.uleb128 0x18
 2570 010e 00       		.byte	0
 2571 010f 00       		.byte	0
 2572 0110 15       		.uleb128 0x15
 2573 0111 0B       		.uleb128 0xb
 2574 0112 01       		.byte	0x1
 2575 0113 11       		.uleb128 0x11
 2576 0114 01       		.uleb128 0x1
 2577 0115 12       		.uleb128 0x12
 2578 0116 06       		.uleb128 0x6
 2579 0117 00       		.byte	0
 2580 0118 00       		.byte	0
 2581 0119 16       		.uleb128 0x16
 2582 011a 34       		.uleb128 0x34
 2583 011b 00       		.byte	0
 2584 011c 03       		.uleb128 0x3
 2585 011d 0E       		.uleb128 0xe
 2586 011e 3A       		.uleb128 0x3a
 2587 011f 0B       		.uleb128 0xb
 2588 0120 3B       		.uleb128 0x3b
 2589 0121 0B       		.uleb128 0xb
 2590 0122 49       		.uleb128 0x49
 2591 0123 13       		.uleb128 0x13
 2592 0124 02       		.uleb128 0x2
 2593 0125 18       		.uleb128 0x18
 2594 0126 00       		.byte	0
 2595 0127 00       		.byte	0
 2596 0128 17       		.uleb128 0x17
 2597 0129 2E       		.uleb128 0x2e
 2598 012a 01       		.byte	0x1
 2599 012b 3F       		.uleb128 0x3f
 2600 012c 19       		.uleb128 0x19
 2601 012d 03       		.uleb128 0x3
 2602 012e 08       		.uleb128 0x8
 2603 012f 3A       		.uleb128 0x3a
 2604 0130 0B       		.uleb128 0xb
 2605 0131 3B       		.uleb128 0x3b
 2606 0132 0B       		.uleb128 0xb
 2607 0133 27       		.uleb128 0x27
 2608 0134 19       		.uleb128 0x19
 2609 0135 49       		.uleb128 0x49
 2610 0136 13       		.uleb128 0x13
 2611 0137 11       		.uleb128 0x11
 2612 0138 01       		.uleb128 0x1
GAS LISTING C:\Users\PRESID~1\AppData\Local\Temp\cczIt3NK.s 			page 65


 2613 0139 12       		.uleb128 0x12
 2614 013a 06       		.uleb128 0x6
 2615 013b 40       		.uleb128 0x40
 2616 013c 18       		.uleb128 0x18
 2617 013d 9642     		.uleb128 0x2116
 2618 013f 19       		.uleb128 0x19
 2619 0140 01       		.uleb128 0x1
 2620 0141 13       		.uleb128 0x13
 2621 0142 00       		.byte	0
 2622 0143 00       		.byte	0
 2623 0144 18       		.uleb128 0x18
 2624 0145 34       		.uleb128 0x34
 2625 0146 00       		.byte	0
 2626 0147 03       		.uleb128 0x3
 2627 0148 08       		.uleb128 0x8
 2628 0149 3A       		.uleb128 0x3a
 2629 014a 0B       		.uleb128 0xb
 2630 014b 3B       		.uleb128 0x3b
 2631 014c 0B       		.uleb128 0xb
 2632 014d 49       		.uleb128 0x49
 2633 014e 13       		.uleb128 0x13
 2634 014f 02       		.uleb128 0x2
 2635 0150 18       		.uleb128 0x18
 2636 0151 00       		.byte	0
 2637 0152 00       		.byte	0
 2638 0153 19       		.uleb128 0x19
 2639 0154 2E       		.uleb128 0x2e
 2640 0155 01       		.byte	0x1
 2641 0156 3F       		.uleb128 0x3f
 2642 0157 19       		.uleb128 0x19
 2643 0158 03       		.uleb128 0x3
 2644 0159 08       		.uleb128 0x8
 2645 015a 3A       		.uleb128 0x3a
 2646 015b 0B       		.uleb128 0xb
 2647 015c 3B       		.uleb128 0x3b
 2648 015d 0B       		.uleb128 0xb
 2649 015e 27       		.uleb128 0x27
 2650 015f 19       		.uleb128 0x19
 2651 0160 49       		.uleb128 0x49
 2652 0161 13       		.uleb128 0x13
 2653 0162 11       		.uleb128 0x11
 2654 0163 01       		.uleb128 0x1
 2655 0164 12       		.uleb128 0x12
 2656 0165 06       		.uleb128 0x6
 2657 0166 40       		.uleb128 0x40
 2658 0167 18       		.uleb128 0x18
 2659 0168 9742     		.uleb128 0x2117
 2660 016a 19       		.uleb128 0x19
 2661 016b 01       		.uleb128 0x1
 2662 016c 13       		.uleb128 0x13
 2663 016d 00       		.byte	0
 2664 016e 00       		.byte	0
 2665 016f 1A       		.uleb128 0x1a
 2666 0170 2E       		.uleb128 0x2e
 2667 0171 01       		.byte	0x1
 2668 0172 3F       		.uleb128 0x3f
 2669 0173 19       		.uleb128 0x19
GAS LISTING C:\Users\PRESID~1\AppData\Local\Temp\cczIt3NK.s 			page 66


 2670 0174 03       		.uleb128 0x3
 2671 0175 08       		.uleb128 0x8
 2672 0176 3A       		.uleb128 0x3a
 2673 0177 0B       		.uleb128 0xb
 2674 0178 3B       		.uleb128 0x3b
 2675 0179 0B       		.uleb128 0xb
 2676 017a 27       		.uleb128 0x27
 2677 017b 19       		.uleb128 0x19
 2678 017c 11       		.uleb128 0x11
 2679 017d 01       		.uleb128 0x1
 2680 017e 12       		.uleb128 0x12
 2681 017f 06       		.uleb128 0x6
 2682 0180 40       		.uleb128 0x40
 2683 0181 18       		.uleb128 0x18
 2684 0182 9742     		.uleb128 0x2117
 2685 0184 19       		.uleb128 0x19
 2686 0185 01       		.uleb128 0x1
 2687 0186 13       		.uleb128 0x13
 2688 0187 00       		.byte	0
 2689 0188 00       		.byte	0
 2690 0189 1B       		.uleb128 0x1b
 2691 018a 2E       		.uleb128 0x2e
 2692 018b 00       		.byte	0
 2693 018c 3F       		.uleb128 0x3f
 2694 018d 19       		.uleb128 0x19
 2695 018e 03       		.uleb128 0x3
 2696 018f 08       		.uleb128 0x8
 2697 0190 3A       		.uleb128 0x3a
 2698 0191 0B       		.uleb128 0xb
 2699 0192 3B       		.uleb128 0x3b
 2700 0193 05       		.uleb128 0x5
 2701 0194 27       		.uleb128 0x27
 2702 0195 19       		.uleb128 0x19
 2703 0196 49       		.uleb128 0x49
 2704 0197 13       		.uleb128 0x13
 2705 0198 11       		.uleb128 0x11
 2706 0199 01       		.uleb128 0x1
 2707 019a 12       		.uleb128 0x12
 2708 019b 06       		.uleb128 0x6
 2709 019c 40       		.uleb128 0x40
 2710 019d 18       		.uleb128 0x18
 2711 019e 9742     		.uleb128 0x2117
 2712 01a0 19       		.uleb128 0x19
 2713 01a1 00       		.byte	0
 2714 01a2 00       		.byte	0
 2715 01a3 1C       		.uleb128 0x1c
 2716 01a4 2E       		.uleb128 0x2e
 2717 01a5 01       		.byte	0x1
 2718 01a6 3F       		.uleb128 0x3f
 2719 01a7 19       		.uleb128 0x19
 2720 01a8 03       		.uleb128 0x3
 2721 01a9 08       		.uleb128 0x8
 2722 01aa 3A       		.uleb128 0x3a
 2723 01ab 0B       		.uleb128 0xb
 2724 01ac 3B       		.uleb128 0x3b
 2725 01ad 05       		.uleb128 0x5
 2726 01ae 27       		.uleb128 0x27
GAS LISTING C:\Users\PRESID~1\AppData\Local\Temp\cczIt3NK.s 			page 67


 2727 01af 19       		.uleb128 0x19
 2728 01b0 11       		.uleb128 0x11
 2729 01b1 01       		.uleb128 0x1
 2730 01b2 12       		.uleb128 0x12
 2731 01b3 06       		.uleb128 0x6
 2732 01b4 40       		.uleb128 0x40
 2733 01b5 18       		.uleb128 0x18
 2734 01b6 9642     		.uleb128 0x2116
 2735 01b8 19       		.uleb128 0x19
 2736 01b9 01       		.uleb128 0x1
 2737 01ba 13       		.uleb128 0x13
 2738 01bb 00       		.byte	0
 2739 01bc 00       		.byte	0
 2740 01bd 1D       		.uleb128 0x1d
 2741 01be 05       		.uleb128 0x5
 2742 01bf 00       		.byte	0
 2743 01c0 03       		.uleb128 0x3
 2744 01c1 0E       		.uleb128 0xe
 2745 01c2 3A       		.uleb128 0x3a
 2746 01c3 0B       		.uleb128 0xb
 2747 01c4 3B       		.uleb128 0x3b
 2748 01c5 05       		.uleb128 0x5
 2749 01c6 49       		.uleb128 0x49
 2750 01c7 13       		.uleb128 0x13
 2751 01c8 02       		.uleb128 0x2
 2752 01c9 18       		.uleb128 0x18
 2753 01ca 00       		.byte	0
 2754 01cb 00       		.byte	0
 2755 01cc 1E       		.uleb128 0x1e
 2756 01cd 05       		.uleb128 0x5
 2757 01ce 00       		.byte	0
 2758 01cf 03       		.uleb128 0x3
 2759 01d0 08       		.uleb128 0x8
 2760 01d1 3A       		.uleb128 0x3a
 2761 01d2 0B       		.uleb128 0xb
 2762 01d3 3B       		.uleb128 0x3b
 2763 01d4 05       		.uleb128 0x5
 2764 01d5 49       		.uleb128 0x49
 2765 01d6 13       		.uleb128 0x13
 2766 01d7 02       		.uleb128 0x2
 2767 01d8 18       		.uleb128 0x18
 2768 01d9 00       		.byte	0
 2769 01da 00       		.byte	0
 2770 01db 1F       		.uleb128 0x1f
 2771 01dc 34       		.uleb128 0x34
 2772 01dd 00       		.byte	0
 2773 01de 03       		.uleb128 0x3
 2774 01df 08       		.uleb128 0x8
 2775 01e0 3A       		.uleb128 0x3a
 2776 01e1 0B       		.uleb128 0xb
 2777 01e2 3B       		.uleb128 0x3b
 2778 01e3 0B       		.uleb128 0xb
 2779 01e4 49       		.uleb128 0x49
 2780 01e5 13       		.uleb128 0x13
 2781 01e6 3F       		.uleb128 0x3f
 2782 01e7 19       		.uleb128 0x19
 2783 01e8 3C       		.uleb128 0x3c
GAS LISTING C:\Users\PRESID~1\AppData\Local\Temp\cczIt3NK.s 			page 68


 2784 01e9 19       		.uleb128 0x19
 2785 01ea 00       		.byte	0
 2786 01eb 00       		.byte	0
 2787 01ec 00       		.byte	0
 2788              		.section	.debug_aranges,"dr"
 2789 0000 1C000000 		.long	0x1c
 2790 0004 0200     		.word	0x2
 2791 0006 00000000 		.secrel32	Ldebug_info0
 2792 000a 04       		.byte	0x4
 2793 000b 00       		.byte	0
 2794 000c 0000     		.word	0
 2795 000e 0000     		.word	0
 2796 0010 00000000 		.long	Ltext0
 2797 0014 2A0D0000 		.long	Letext0-Ltext0
 2798 0018 00000000 		.long	0
 2799 001c 00000000 		.long	0
 2800              		.section	.debug_macro,"dr"
 2801              	Ldebug_macro0:
 2802 0000 0400     		.word	0x4
 2803 0002 02       		.byte	0x2
 2804 0003 00000000 		.secrel32	Ldebug_line0
 2805 0007 01       		.byte	0x1
 2806 0008 00       		.uleb128 0
 2807 0009 5F5F5354 		.ascii "__STDC__ 1\0"
 2807      44435F5F 
 2807      203100
 2808 0014 01       		.byte	0x1
 2809 0015 00       		.uleb128 0
 2810 0016 5F5F5354 		.ascii "__STDC_HOSTED__ 1\0"
 2810      44435F48 
 2810      4F535445 
 2810      445F5F20 
 2810      3100
 2811 0028 01       		.byte	0x1
 2812 0029 00       		.uleb128 0
 2813 002a 5F5F474E 		.ascii "__GNUC__ 4\0"
 2813      55435F5F 
 2813      203400
 2814 0035 01       		.byte	0x1
 2815 0036 00       		.uleb128 0
 2816 0037 5F5F474E 		.ascii "__GNUC_MINOR__ 9\0"
 2816      55435F4D 
 2816      494E4F52 
 2816      5F5F2039 
 2816      00
 2817 0048 01       		.byte	0x1
 2818 0049 00       		.uleb128 0
 2819 004a 5F5F474E 		.ascii "__GNUC_PATCHLEVEL__ 3\0"
 2819      55435F50 
 2819      41544348 
 2819      4C455645 
 2819      4C5F5F20 
 2820 0060 01       		.byte	0x1
 2821 0061 00       		.uleb128 0
 2822 0062 5F5F5645 		.ascii "__VERSION__ \"4.9.3\"\0"
 2822      5253494F 
 2822      4E5F5F20 
GAS LISTING C:\Users\PRESID~1\AppData\Local\Temp\cczIt3NK.s 			page 69


 2822      22342E39 
 2822      2E332200 
 2823 0076 01       		.byte	0x1
 2824 0077 00       		.uleb128 0
 2825 0078 5F5F4154 		.ascii "__ATOMIC_RELAXED 0\0"
 2825      4F4D4943 
 2825      5F52454C 
 2825      41584544 
 2825      203000
 2826 008b 01       		.byte	0x1
 2827 008c 00       		.uleb128 0
 2828 008d 5F5F4154 		.ascii "__ATOMIC_SEQ_CST 5\0"
 2828      4F4D4943 
 2828      5F534551 
 2828      5F435354 
 2828      203500
 2829 00a0 01       		.byte	0x1
 2830 00a1 00       		.uleb128 0
 2831 00a2 5F5F4154 		.ascii "__ATOMIC_ACQUIRE 2\0"
 2831      4F4D4943 
 2831      5F414351 
 2831      55495245 
 2831      203200
 2832 00b5 01       		.byte	0x1
 2833 00b6 00       		.uleb128 0
 2834 00b7 5F5F4154 		.ascii "__ATOMIC_RELEASE 3\0"
 2834      4F4D4943 
 2834      5F52454C 
 2834      45415345 
 2834      203300
 2835 00ca 01       		.byte	0x1
 2836 00cb 00       		.uleb128 0
 2837 00cc 5F5F4154 		.ascii "__ATOMIC_ACQ_REL 4\0"
 2837      4F4D4943 
 2837      5F414351 
 2837      5F52454C 
 2837      203400
 2838 00df 01       		.byte	0x1
 2839 00e0 00       		.uleb128 0
 2840 00e1 5F5F4154 		.ascii "__ATOMIC_CONSUME 1\0"
 2840      4F4D4943 
 2840      5F434F4E 
 2840      53554D45 
 2840      203100
 2841 00f4 01       		.byte	0x1
 2842 00f5 00       		.uleb128 0
 2843 00f6 5F5F4649 		.ascii "__FINITE_MATH_ONLY__ 0\0"
 2843      4E495445 
 2843      5F4D4154 
 2843      485F4F4E 
 2843      4C595F5F 
 2844 010d 01       		.byte	0x1
 2845 010e 00       		.uleb128 0
 2846 010f 5F5F5349 		.ascii "__SIZEOF_INT__ 4\0"
 2846      5A454F46 
 2846      5F494E54 
 2846      5F5F2034 
GAS LISTING C:\Users\PRESID~1\AppData\Local\Temp\cczIt3NK.s 			page 70


 2846      00
 2847 0120 01       		.byte	0x1
 2848 0121 00       		.uleb128 0
 2849 0122 5F5F5349 		.ascii "__SIZEOF_LONG__ 4\0"
 2849      5A454F46 
 2849      5F4C4F4E 
 2849      475F5F20 
 2849      3400
 2850 0134 01       		.byte	0x1
 2851 0135 00       		.uleb128 0
 2852 0136 5F5F5349 		.ascii "__SIZEOF_LONG_LONG__ 8\0"
 2852      5A454F46 
 2852      5F4C4F4E 
 2852      475F4C4F 
 2852      4E475F5F 
 2853 014d 01       		.byte	0x1
 2854 014e 00       		.uleb128 0
 2855 014f 5F5F5349 		.ascii "__SIZEOF_SHORT__ 2\0"
 2855      5A454F46 
 2855      5F53484F 
 2855      52545F5F 
 2855      203200
 2856 0162 01       		.byte	0x1
 2857 0163 00       		.uleb128 0
 2858 0164 5F5F5349 		.ascii "__SIZEOF_FLOAT__ 4\0"
 2858      5A454F46 
 2858      5F464C4F 
 2858      41545F5F 
 2858      203400
 2859 0177 01       		.byte	0x1
 2860 0178 00       		.uleb128 0
 2861 0179 5F5F5349 		.ascii "__SIZEOF_DOUBLE__ 8\0"
 2861      5A454F46 
 2861      5F444F55 
 2861      424C455F 
 2861      5F203800 
 2862 018d 01       		.byte	0x1
 2863 018e 00       		.uleb128 0
 2864 018f 5F5F5349 		.ascii "__SIZEOF_LONG_DOUBLE__ 12\0"
 2864      5A454F46 
 2864      5F4C4F4E 
 2864      475F444F 
 2864      55424C45 
 2865 01a9 01       		.byte	0x1
 2866 01aa 00       		.uleb128 0
 2867 01ab 5F5F5349 		.ascii "__SIZEOF_SIZE_T__ 4\0"
 2867      5A454F46 
 2867      5F53495A 
 2867      455F545F 
 2867      5F203400 
 2868 01bf 01       		.byte	0x1
 2869 01c0 00       		.uleb128 0
 2870 01c1 5F5F4348 		.ascii "__CHAR_BIT__ 8\0"
 2870      41525F42 
 2870      49545F5F 
 2870      203800
 2871 01d0 01       		.byte	0x1
GAS LISTING C:\Users\PRESID~1\AppData\Local\Temp\cczIt3NK.s 			page 71


 2872 01d1 00       		.uleb128 0
 2873 01d2 5F5F4249 		.ascii "__BIGGEST_ALIGNMENT__ 16\0"
 2873      47474553 
 2873      545F414C 
 2873      49474E4D 
 2873      454E545F 
 2874 01eb 01       		.byte	0x1
 2875 01ec 00       		.uleb128 0
 2876 01ed 5F5F4F52 		.ascii "__ORDER_LITTLE_ENDIAN__ 1234\0"
 2876      4445525F 
 2876      4C495454 
 2876      4C455F45 
 2876      4E444941 
 2877 020a 01       		.byte	0x1
 2878 020b 00       		.uleb128 0
 2879 020c 5F5F4F52 		.ascii "__ORDER_BIG_ENDIAN__ 4321\0"
 2879      4445525F 
 2879      4249475F 
 2879      454E4449 
 2879      414E5F5F 
 2880 0226 01       		.byte	0x1
 2881 0227 00       		.uleb128 0
 2882 0228 5F5F4F52 		.ascii "__ORDER_PDP_ENDIAN__ 3412\0"
 2882      4445525F 
 2882      5044505F 
 2882      454E4449 
 2882      414E5F5F 
 2883 0242 01       		.byte	0x1
 2884 0243 00       		.uleb128 0
 2885 0244 5F5F4259 		.ascii "__BYTE_ORDER__ __ORDER_LITTLE_ENDIAN__\0"
 2885      54455F4F 
 2885      52444552 
 2885      5F5F205F 
 2885      5F4F5244 
 2886 026b 01       		.byte	0x1
 2887 026c 00       		.uleb128 0
 2888 026d 5F5F464C 		.ascii "__FLOAT_WORD_ORDER__ __ORDER_LITTLE_ENDIAN__\0"
 2888      4F41545F 
 2888      574F5244 
 2888      5F4F5244 
 2888      45525F5F 
 2889 029a 01       		.byte	0x1
 2890 029b 00       		.uleb128 0
 2891 029c 5F5F5349 		.ascii "__SIZEOF_POINTER__ 4\0"
 2891      5A454F46 
 2891      5F504F49 
 2891      4E544552 
 2891      5F5F2034 
 2892 02b1 01       		.byte	0x1
 2893 02b2 00       		.uleb128 0
 2894 02b3 5F5F5349 		.ascii "__SIZE_TYPE__ unsigned int\0"
 2894      5A455F54 
 2894      5950455F 
 2894      5F20756E 
 2894      7369676E 
 2895 02ce 01       		.byte	0x1
 2896 02cf 00       		.uleb128 0
GAS LISTING C:\Users\PRESID~1\AppData\Local\Temp\cczIt3NK.s 			page 72


 2897 02d0 5F5F5054 		.ascii "__PTRDIFF_TYPE__ int\0"
 2897      52444946 
 2897      465F5459 
 2897      50455F5F 
 2897      20696E74 
 2898 02e5 01       		.byte	0x1
 2899 02e6 00       		.uleb128 0
 2900 02e7 5F5F5743 		.ascii "__WCHAR_TYPE__ short unsigned int\0"
 2900      4841525F 
 2900      54595045 
 2900      5F5F2073 
 2900      686F7274 
 2901 0309 01       		.byte	0x1
 2902 030a 00       		.uleb128 0
 2903 030b 5F5F5749 		.ascii "__WINT_TYPE__ short unsigned int\0"
 2903      4E545F54 
 2903      5950455F 
 2903      5F207368 
 2903      6F727420 
 2904 032c 01       		.byte	0x1
 2905 032d 00       		.uleb128 0
 2906 032e 5F5F494E 		.ascii "__INTMAX_TYPE__ long long int\0"
 2906      544D4158 
 2906      5F545950 
 2906      455F5F20 
 2906      6C6F6E67 
 2907 034c 01       		.byte	0x1
 2908 034d 00       		.uleb128 0
 2909 034e 5F5F5549 		.ascii "__UINTMAX_TYPE__ long long unsigned int\0"
 2909      4E544D41 
 2909      585F5459 
 2909      50455F5F 
 2909      206C6F6E 
 2910 0376 01       		.byte	0x1
 2911 0377 00       		.uleb128 0
 2912 0378 5F5F4348 		.ascii "__CHAR16_TYPE__ short unsigned int\0"
 2912      41523136 
 2912      5F545950 
 2912      455F5F20 
 2912      73686F72 
 2913 039b 01       		.byte	0x1
 2914 039c 00       		.uleb128 0
 2915 039d 5F5F4348 		.ascii "__CHAR32_TYPE__ unsigned int\0"
 2915      41523332 
 2915      5F545950 
 2915      455F5F20 
 2915      756E7369 
 2916 03ba 01       		.byte	0x1
 2917 03bb 00       		.uleb128 0
 2918 03bc 5F5F5349 		.ascii "__SIG_ATOMIC_TYPE__ int\0"
 2918      475F4154 
 2918      4F4D4943 
 2918      5F545950 
 2918      455F5F20 
 2919 03d4 01       		.byte	0x1
 2920 03d5 00       		.uleb128 0
 2921 03d6 5F5F494E 		.ascii "__INT8_TYPE__ signed char\0"
GAS LISTING C:\Users\PRESID~1\AppData\Local\Temp\cczIt3NK.s 			page 73


 2921      54385F54 
 2921      5950455F 
 2921      5F207369 
 2921      676E6564 
 2922 03f0 01       		.byte	0x1
 2923 03f1 00       		.uleb128 0
 2924 03f2 5F5F494E 		.ascii "__INT16_TYPE__ short int\0"
 2924      5431365F 
 2924      54595045 
 2924      5F5F2073 
 2924      686F7274 
 2925 040b 01       		.byte	0x1
 2926 040c 00       		.uleb128 0
 2927 040d 5F5F494E 		.ascii "__INT32_TYPE__ int\0"
 2927      5433325F 
 2927      54595045 
 2927      5F5F2069 
 2927      6E7400
 2928 0420 01       		.byte	0x1
 2929 0421 00       		.uleb128 0
 2930 0422 5F5F494E 		.ascii "__INT64_TYPE__ long long int\0"
 2930      5436345F 
 2930      54595045 
 2930      5F5F206C 
 2930      6F6E6720 
 2931 043f 01       		.byte	0x1
 2932 0440 00       		.uleb128 0
 2933 0441 5F5F5549 		.ascii "__UINT8_TYPE__ unsigned char\0"
 2933      4E54385F 
 2933      54595045 
 2933      5F5F2075 
 2933      6E736967 
 2934 045e 01       		.byte	0x1
 2935 045f 00       		.uleb128 0
 2936 0460 5F5F5549 		.ascii "__UINT16_TYPE__ short unsigned int\0"
 2936      4E543136 
 2936      5F545950 
 2936      455F5F20 
 2936      73686F72 
 2937 0483 01       		.byte	0x1
 2938 0484 00       		.uleb128 0
 2939 0485 5F5F5549 		.ascii "__UINT32_TYPE__ unsigned int\0"
 2939      4E543332 
 2939      5F545950 
 2939      455F5F20 
 2939      756E7369 
 2940 04a2 01       		.byte	0x1
 2941 04a3 00       		.uleb128 0
 2942 04a4 5F5F5549 		.ascii "__UINT64_TYPE__ long long unsigned int\0"
 2942      4E543634 
 2942      5F545950 
 2942      455F5F20 
 2942      6C6F6E67 
 2943 04cb 01       		.byte	0x1
 2944 04cc 00       		.uleb128 0
 2945 04cd 5F5F494E 		.ascii "__INT_LEAST8_TYPE__ signed char\0"
 2945      545F4C45 
GAS LISTING C:\Users\PRESID~1\AppData\Local\Temp\cczIt3NK.s 			page 74


 2945      41535438 
 2945      5F545950 
 2945      455F5F20 
 2946 04ed 01       		.byte	0x1
 2947 04ee 00       		.uleb128 0
 2948 04ef 5F5F494E 		.ascii "__INT_LEAST16_TYPE__ short int\0"
 2948      545F4C45 
 2948      41535431 
 2948      365F5459 
 2948      50455F5F 
 2949 050e 01       		.byte	0x1
 2950 050f 00       		.uleb128 0
 2951 0510 5F5F494E 		.ascii "__INT_LEAST32_TYPE__ int\0"
 2951      545F4C45 
 2951      41535433 
 2951      325F5459 
 2951      50455F5F 
 2952 0529 01       		.byte	0x1
 2953 052a 00       		.uleb128 0
 2954 052b 5F5F494E 		.ascii "__INT_LEAST64_TYPE__ long long int\0"
 2954      545F4C45 
 2954      41535436 
 2954      345F5459 
 2954      50455F5F 
 2955 054e 01       		.byte	0x1
 2956 054f 00       		.uleb128 0
 2957 0550 5F5F5549 		.ascii "__UINT_LEAST8_TYPE__ unsigned char\0"
 2957      4E545F4C 
 2957      45415354 
 2957      385F5459 
 2957      50455F5F 
 2958 0573 01       		.byte	0x1
 2959 0574 00       		.uleb128 0
 2960 0575 5F5F5549 		.ascii "__UINT_LEAST16_TYPE__ short unsigned int\0"
 2960      4E545F4C 
 2960      45415354 
 2960      31365F54 
 2960      5950455F 
 2961 059e 01       		.byte	0x1
 2962 059f 00       		.uleb128 0
 2963 05a0 5F5F5549 		.ascii "__UINT_LEAST32_TYPE__ unsigned int\0"
 2963      4E545F4C 
 2963      45415354 
 2963      33325F54 
 2963      5950455F 
 2964 05c3 01       		.byte	0x1
 2965 05c4 00       		.uleb128 0
 2966 05c5 5F5F5549 		.ascii "__UINT_LEAST64_TYPE__ long long unsigned int\0"
 2966      4E545F4C 
 2966      45415354 
 2966      36345F54 
 2966      5950455F 
 2967 05f2 01       		.byte	0x1
 2968 05f3 00       		.uleb128 0
 2969 05f4 5F5F494E 		.ascii "__INT_FAST8_TYPE__ signed char\0"
 2969      545F4641 
 2969      5354385F 
GAS LISTING C:\Users\PRESID~1\AppData\Local\Temp\cczIt3NK.s 			page 75


 2969      54595045 
 2969      5F5F2073 
 2970 0613 01       		.byte	0x1
 2971 0614 00       		.uleb128 0
 2972 0615 5F5F494E 		.ascii "__INT_FAST16_TYPE__ short int\0"
 2972      545F4641 
 2972      53543136 
 2972      5F545950 
 2972      455F5F20 
 2973 0633 01       		.byte	0x1
 2974 0634 00       		.uleb128 0
 2975 0635 5F5F494E 		.ascii "__INT_FAST32_TYPE__ int\0"
 2975      545F4641 
 2975      53543332 
 2975      5F545950 
 2975      455F5F20 
 2976 064d 01       		.byte	0x1
 2977 064e 00       		.uleb128 0
 2978 064f 5F5F494E 		.ascii "__INT_FAST64_TYPE__ long long int\0"
 2978      545F4641 
 2978      53543634 
 2978      5F545950 
 2978      455F5F20 
 2979 0671 01       		.byte	0x1
 2980 0672 00       		.uleb128 0
 2981 0673 5F5F5549 		.ascii "__UINT_FAST8_TYPE__ unsigned char\0"
 2981      4E545F46 
 2981      41535438 
 2981      5F545950 
 2981      455F5F20 
 2982 0695 01       		.byte	0x1
 2983 0696 00       		.uleb128 0
 2984 0697 5F5F5549 		.ascii "__UINT_FAST16_TYPE__ short unsigned int\0"
 2984      4E545F46 
 2984      41535431 
 2984      365F5459 
 2984      50455F5F 
 2985 06bf 01       		.byte	0x1
 2986 06c0 00       		.uleb128 0
 2987 06c1 5F5F5549 		.ascii "__UINT_FAST32_TYPE__ unsigned int\0"
 2987      4E545F46 
 2987      41535433 
 2987      325F5459 
 2987      50455F5F 
 2988 06e3 01       		.byte	0x1
 2989 06e4 00       		.uleb128 0
 2990 06e5 5F5F5549 		.ascii "__UINT_FAST64_TYPE__ long long unsigned int\0"
 2990      4E545F46 
 2990      41535436 
 2990      345F5459 
 2990      50455F5F 
 2991 0711 01       		.byte	0x1
 2992 0712 00       		.uleb128 0
 2993 0713 5F5F494E 		.ascii "__INTPTR_TYPE__ int\0"
 2993      54505452 
 2993      5F545950 
 2993      455F5F20 
GAS LISTING C:\Users\PRESID~1\AppData\Local\Temp\cczIt3NK.s 			page 76


 2993      696E7400 
 2994 0727 01       		.byte	0x1
 2995 0728 00       		.uleb128 0
 2996 0729 5F5F5549 		.ascii "__UINTPTR_TYPE__ unsigned int\0"
 2996      4E545054 
 2996      525F5459 
 2996      50455F5F 
 2996      20756E73 
 2997 0747 01       		.byte	0x1
 2998 0748 00       		.uleb128 0
 2999 0749 5F5F6861 		.ascii "__has_include(STR) __has_include__(STR)\0"
 2999      735F696E 
 2999      636C7564 
 2999      65285354 
 2999      5229205F 
 3000 0771 01       		.byte	0x1
 3001 0772 00       		.uleb128 0
 3002 0773 5F5F6861 		.ascii "__has_include_next(STR) __has_include_next__(STR)\0"
 3002      735F696E 
 3002      636C7564 
 3002      655F6E65 
 3002      78742853 
 3003 07a5 01       		.byte	0x1
 3004 07a6 00       		.uleb128 0
 3005 07a7 5F5F4758 		.ascii "__GXX_ABI_VERSION 1002\0"
 3005      585F4142 
 3005      495F5645 
 3005      5253494F 
 3005      4E203130 
 3006 07be 01       		.byte	0x1
 3007 07bf 00       		.uleb128 0
 3008 07c0 5F5F5343 		.ascii "__SCHAR_MAX__ 127\0"
 3008      4841525F 
 3008      4D41585F 
 3008      5F203132 
 3008      3700
 3009 07d2 01       		.byte	0x1
 3010 07d3 00       		.uleb128 0
 3011 07d4 5F5F5348 		.ascii "__SHRT_MAX__ 32767\0"
 3011      52545F4D 
 3011      41585F5F 
 3011      20333237 
 3011      363700
 3012 07e7 01       		.byte	0x1
 3013 07e8 00       		.uleb128 0
 3014 07e9 5F5F494E 		.ascii "__INT_MAX__ 2147483647\0"
 3014      545F4D41 
 3014      585F5F20 
 3014      32313437 
 3014      34383336 
 3015 0800 01       		.byte	0x1
 3016 0801 00       		.uleb128 0
 3017 0802 5F5F4C4F 		.ascii "__LONG_MAX__ 2147483647L\0"
 3017      4E475F4D 
 3017      41585F5F 
 3017      20323134 
 3017      37343833 
GAS LISTING C:\Users\PRESID~1\AppData\Local\Temp\cczIt3NK.s 			page 77


 3018 081b 01       		.byte	0x1
 3019 081c 00       		.uleb128 0
 3020 081d 5F5F4C4F 		.ascii "__LONG_LONG_MAX__ 9223372036854775807LL\0"
 3020      4E475F4C 
 3020      4F4E475F 
 3020      4D41585F 
 3020      5F203932 
 3021 0845 01       		.byte	0x1
 3022 0846 00       		.uleb128 0
 3023 0847 5F5F5743 		.ascii "__WCHAR_MAX__ 65535\0"
 3023      4841525F 
 3023      4D41585F 
 3023      5F203635 
 3023      35333500 
 3024 085b 01       		.byte	0x1
 3025 085c 00       		.uleb128 0
 3026 085d 5F5F5743 		.ascii "__WCHAR_MIN__ 0\0"
 3026      4841525F 
 3026      4D494E5F 
 3026      5F203000 
 3027 086d 01       		.byte	0x1
 3028 086e 00       		.uleb128 0
 3029 086f 5F5F5749 		.ascii "__WINT_MAX__ 65535\0"
 3029      4E545F4D 
 3029      41585F5F 
 3029      20363535 
 3029      333500
 3030 0882 01       		.byte	0x1
 3031 0883 00       		.uleb128 0
 3032 0884 5F5F5749 		.ascii "__WINT_MIN__ 0\0"
 3032      4E545F4D 
 3032      494E5F5F 
 3032      203000
 3033 0893 01       		.byte	0x1
 3034 0894 00       		.uleb128 0
 3035 0895 5F5F5054 		.ascii "__PTRDIFF_MAX__ 2147483647\0"
 3035      52444946 
 3035      465F4D41 
 3035      585F5F20 
 3035      32313437 
 3036 08b0 01       		.byte	0x1
 3037 08b1 00       		.uleb128 0
 3038 08b2 5F5F5349 		.ascii "__SIZE_MAX__ 4294967295U\0"
 3038      5A455F4D 
 3038      41585F5F 
 3038      20343239 
 3038      34393637 
 3039 08cb 01       		.byte	0x1
 3040 08cc 00       		.uleb128 0
 3041 08cd 5F5F494E 		.ascii "__INTMAX_MAX__ 9223372036854775807LL\0"
 3041      544D4158 
 3041      5F4D4158 
 3041      5F5F2039 
 3041      32323333 
 3042 08f2 01       		.byte	0x1
 3043 08f3 00       		.uleb128 0
 3044 08f4 5F5F494E 		.ascii "__INTMAX_C(c) c ## LL\0"
GAS LISTING C:\Users\PRESID~1\AppData\Local\Temp\cczIt3NK.s 			page 78


 3044      544D4158 
 3044      5F432863 
 3044      29206320 
 3044      2323204C 
 3045 090a 01       		.byte	0x1
 3046 090b 00       		.uleb128 0
 3047 090c 5F5F5549 		.ascii "__UINTMAX_MAX__ 18446744073709551615ULL\0"
 3047      4E544D41 
 3047      585F4D41 
 3047      585F5F20 
 3047      31383434 
 3048 0934 01       		.byte	0x1
 3049 0935 00       		.uleb128 0
 3050 0936 5F5F5549 		.ascii "__UINTMAX_C(c) c ## ULL\0"
 3050      4E544D41 
 3050      585F4328 
 3050      63292063 
 3050      20232320 
 3051 094e 01       		.byte	0x1
 3052 094f 00       		.uleb128 0
 3053 0950 5F5F5349 		.ascii "__SIG_ATOMIC_MAX__ 2147483647\0"
 3053      475F4154 
 3053      4F4D4943 
 3053      5F4D4158 
 3053      5F5F2032 
 3054 096e 01       		.byte	0x1
 3055 096f 00       		.uleb128 0
 3056 0970 5F5F5349 		.ascii "__SIG_ATOMIC_MIN__ (-__SIG_ATOMIC_MAX__ - 1)\0"
 3056      475F4154 
 3056      4F4D4943 
 3056      5F4D494E 
 3056      5F5F2028 
 3057 099d 01       		.byte	0x1
 3058 099e 00       		.uleb128 0
 3059 099f 5F5F494E 		.ascii "__INT8_MAX__ 127\0"
 3059      54385F4D 
 3059      41585F5F 
 3059      20313237 
 3059      00
 3060 09b0 01       		.byte	0x1
 3061 09b1 00       		.uleb128 0
 3062 09b2 5F5F494E 		.ascii "__INT16_MAX__ 32767\0"
 3062      5431365F 
 3062      4D41585F 
 3062      5F203332 
 3062      37363700 
 3063 09c6 01       		.byte	0x1
 3064 09c7 00       		.uleb128 0
 3065 09c8 5F5F494E 		.ascii "__INT32_MAX__ 2147483647\0"
 3065      5433325F 
 3065      4D41585F 
 3065      5F203231 
 3065      34373438 
 3066 09e1 01       		.byte	0x1
 3067 09e2 00       		.uleb128 0
 3068 09e3 5F5F494E 		.ascii "__INT64_MAX__ 9223372036854775807LL\0"
 3068      5436345F 
GAS LISTING C:\Users\PRESID~1\AppData\Local\Temp\cczIt3NK.s 			page 79


 3068      4D41585F 
 3068      5F203932 
 3068      32333337 
 3069 0a07 01       		.byte	0x1
 3070 0a08 00       		.uleb128 0
 3071 0a09 5F5F5549 		.ascii "__UINT8_MAX__ 255\0"
 3071      4E54385F 
 3071      4D41585F 
 3071      5F203235 
 3071      3500
 3072 0a1b 01       		.byte	0x1
 3073 0a1c 00       		.uleb128 0
 3074 0a1d 5F5F5549 		.ascii "__UINT16_MAX__ 65535\0"
 3074      4E543136 
 3074      5F4D4158 
 3074      5F5F2036 
 3074      35353335 
 3075 0a32 01       		.byte	0x1
 3076 0a33 00       		.uleb128 0
 3077 0a34 5F5F5549 		.ascii "__UINT32_MAX__ 4294967295U\0"
 3077      4E543332 
 3077      5F4D4158 
 3077      5F5F2034 
 3077      32393439 
 3078 0a4f 01       		.byte	0x1
 3079 0a50 00       		.uleb128 0
 3080 0a51 5F5F5549 		.ascii "__UINT64_MAX__ 18446744073709551615ULL\0"
 3080      4E543634 
 3080      5F4D4158 
 3080      5F5F2031 
 3080      38343436 
 3081 0a78 01       		.byte	0x1
 3082 0a79 00       		.uleb128 0
 3083 0a7a 5F5F494E 		.ascii "__INT_LEAST8_MAX__ 127\0"
 3083      545F4C45 
 3083      41535438 
 3083      5F4D4158 
 3083      5F5F2031 
 3084 0a91 01       		.byte	0x1
 3085 0a92 00       		.uleb128 0
 3086 0a93 5F5F494E 		.ascii "__INT8_C(c) c\0"
 3086      54385F43 
 3086      28632920 
 3086      6300
 3087 0aa1 01       		.byte	0x1
 3088 0aa2 00       		.uleb128 0
 3089 0aa3 5F5F494E 		.ascii "__INT_LEAST16_MAX__ 32767\0"
 3089      545F4C45 
 3089      41535431 
 3089      365F4D41 
 3089      585F5F20 
 3090 0abd 01       		.byte	0x1
 3091 0abe 00       		.uleb128 0
 3092 0abf 5F5F494E 		.ascii "__INT16_C(c) c\0"
 3092      5431365F 
 3092      43286329 
 3092      206300
GAS LISTING C:\Users\PRESID~1\AppData\Local\Temp\cczIt3NK.s 			page 80


 3093 0ace 01       		.byte	0x1
 3094 0acf 00       		.uleb128 0
 3095 0ad0 5F5F494E 		.ascii "__INT_LEAST32_MAX__ 2147483647\0"
 3095      545F4C45 
 3095      41535433 
 3095      325F4D41 
 3095      585F5F20 
 3096 0aef 01       		.byte	0x1
 3097 0af0 00       		.uleb128 0
 3098 0af1 5F5F494E 		.ascii "__INT32_C(c) c\0"
 3098      5433325F 
 3098      43286329 
 3098      206300
 3099 0b00 01       		.byte	0x1
 3100 0b01 00       		.uleb128 0
 3101 0b02 5F5F494E 		.ascii "__INT_LEAST64_MAX__ 9223372036854775807LL\0"
 3101      545F4C45 
 3101      41535436 
 3101      345F4D41 
 3101      585F5F20 
 3102 0b2c 01       		.byte	0x1
 3103 0b2d 00       		.uleb128 0
 3104 0b2e 5F5F494E 		.ascii "__INT64_C(c) c ## LL\0"
 3104      5436345F 
 3104      43286329 
 3104      20632023 
 3104      23204C4C 
 3105 0b43 01       		.byte	0x1
 3106 0b44 00       		.uleb128 0
 3107 0b45 5F5F5549 		.ascii "__UINT_LEAST8_MAX__ 255\0"
 3107      4E545F4C 
 3107      45415354 
 3107      385F4D41 
 3107      585F5F20 
 3108 0b5d 01       		.byte	0x1
 3109 0b5e 00       		.uleb128 0
 3110 0b5f 5F5F5549 		.ascii "__UINT8_C(c) c\0"
 3110      4E54385F 
 3110      43286329 
 3110      206300
 3111 0b6e 01       		.byte	0x1
 3112 0b6f 00       		.uleb128 0
 3113 0b70 5F5F5549 		.ascii "__UINT_LEAST16_MAX__ 65535\0"
 3113      4E545F4C 
 3113      45415354 
 3113      31365F4D 
 3113      41585F5F 
 3114 0b8b 01       		.byte	0x1
 3115 0b8c 00       		.uleb128 0
 3116 0b8d 5F5F5549 		.ascii "__UINT16_C(c) c\0"
 3116      4E543136 
 3116      5F432863 
 3116      29206300 
 3117 0b9d 01       		.byte	0x1
 3118 0b9e 00       		.uleb128 0
 3119 0b9f 5F5F5549 		.ascii "__UINT_LEAST32_MAX__ 4294967295U\0"
 3119      4E545F4C 
GAS LISTING C:\Users\PRESID~1\AppData\Local\Temp\cczIt3NK.s 			page 81


 3119      45415354 
 3119      33325F4D 
 3119      41585F5F 
 3120 0bc0 01       		.byte	0x1
 3121 0bc1 00       		.uleb128 0
 3122 0bc2 5F5F5549 		.ascii "__UINT32_C(c) c ## U\0"
 3122      4E543332 
 3122      5F432863 
 3122      29206320 
 3122      23232055 
 3123 0bd7 01       		.byte	0x1
 3124 0bd8 00       		.uleb128 0
 3125 0bd9 5F5F5549 		.ascii "__UINT_LEAST64_MAX__ 18446744073709551615ULL\0"
 3125      4E545F4C 
 3125      45415354 
 3125      36345F4D 
 3125      41585F5F 
 3126 0c06 01       		.byte	0x1
 3127 0c07 00       		.uleb128 0
 3128 0c08 5F5F5549 		.ascii "__UINT64_C(c) c ## ULL\0"
 3128      4E543634 
 3128      5F432863 
 3128      29206320 
 3128      23232055 
 3129 0c1f 01       		.byte	0x1
 3130 0c20 00       		.uleb128 0
 3131 0c21 5F5F494E 		.ascii "__INT_FAST8_MAX__ 127\0"
 3131      545F4641 
 3131      5354385F 
 3131      4D41585F 
 3131      5F203132 
 3132 0c37 01       		.byte	0x1
 3133 0c38 00       		.uleb128 0
 3134 0c39 5F5F494E 		.ascii "__INT_FAST16_MAX__ 32767\0"
 3134      545F4641 
 3134      53543136 
 3134      5F4D4158 
 3134      5F5F2033 
 3135 0c52 01       		.byte	0x1
 3136 0c53 00       		.uleb128 0
 3137 0c54 5F5F494E 		.ascii "__INT_FAST32_MAX__ 2147483647\0"
 3137      545F4641 
 3137      53543332 
 3137      5F4D4158 
 3137      5F5F2032 
 3138 0c72 01       		.byte	0x1
 3139 0c73 00       		.uleb128 0
 3140 0c74 5F5F494E 		.ascii "__INT_FAST64_MAX__ 9223372036854775807LL\0"
 3140      545F4641 
 3140      53543634 
 3140      5F4D4158 
 3140      5F5F2039 
 3141 0c9d 01       		.byte	0x1
 3142 0c9e 00       		.uleb128 0
 3143 0c9f 5F5F5549 		.ascii "__UINT_FAST8_MAX__ 255\0"
 3143      4E545F46 
 3143      41535438 
GAS LISTING C:\Users\PRESID~1\AppData\Local\Temp\cczIt3NK.s 			page 82


 3143      5F4D4158 
 3143      5F5F2032 
 3144 0cb6 01       		.byte	0x1
 3145 0cb7 00       		.uleb128 0
 3146 0cb8 5F5F5549 		.ascii "__UINT_FAST16_MAX__ 65535\0"
 3146      4E545F46 
 3146      41535431 
 3146      365F4D41 
 3146      585F5F20 
 3147 0cd2 01       		.byte	0x1
 3148 0cd3 00       		.uleb128 0
 3149 0cd4 5F5F5549 		.ascii "__UINT_FAST32_MAX__ 4294967295U\0"
 3149      4E545F46 
 3149      41535433 
 3149      325F4D41 
 3149      585F5F20 
 3150 0cf4 01       		.byte	0x1
 3151 0cf5 00       		.uleb128 0
 3152 0cf6 5F5F5549 		.ascii "__UINT_FAST64_MAX__ 18446744073709551615ULL\0"
 3152      4E545F46 
 3152      41535436 
 3152      345F4D41 
 3152      585F5F20 
 3153 0d22 01       		.byte	0x1
 3154 0d23 00       		.uleb128 0
 3155 0d24 5F5F494E 		.ascii "__INTPTR_MAX__ 2147483647\0"
 3155      54505452 
 3155      5F4D4158 
 3155      5F5F2032 
 3155      31343734 
 3156 0d3e 01       		.byte	0x1
 3157 0d3f 00       		.uleb128 0
 3158 0d40 5F5F5549 		.ascii "__UINTPTR_MAX__ 4294967295U\0"
 3158      4E545054 
 3158      525F4D41 
 3158      585F5F20 
 3158      34323934 
 3159 0d5c 01       		.byte	0x1
 3160 0d5d 00       		.uleb128 0
 3161 0d5e 5F5F4743 		.ascii "__GCC_IEC_559 2\0"
 3161      435F4945 
 3161      435F3535 
 3161      39203200 
 3162 0d6e 01       		.byte	0x1
 3163 0d6f 00       		.uleb128 0
 3164 0d70 5F5F4743 		.ascii "__GCC_IEC_559_COMPLEX 2\0"
 3164      435F4945 
 3164      435F3535 
 3164      395F434F 
 3164      4D504C45 
 3165 0d88 01       		.byte	0x1
 3166 0d89 00       		.uleb128 0
 3167 0d8a 5F5F464C 		.ascii "__FLT_EVAL_METHOD__ 2\0"
 3167      545F4556 
 3167      414C5F4D 
 3167      4554484F 
 3167      445F5F20 
GAS LISTING C:\Users\PRESID~1\AppData\Local\Temp\cczIt3NK.s 			page 83


 3168 0da0 01       		.byte	0x1
 3169 0da1 00       		.uleb128 0
 3170 0da2 5F5F4445 		.ascii "__DEC_EVAL_METHOD__ 2\0"
 3170      435F4556 
 3170      414C5F4D 
 3170      4554484F 
 3170      445F5F20 
 3171 0db8 01       		.byte	0x1
 3172 0db9 00       		.uleb128 0
 3173 0dba 5F5F464C 		.ascii "__FLT_RADIX__ 2\0"
 3173      545F5241 
 3173      4449585F 
 3173      5F203200 
 3174 0dca 01       		.byte	0x1
 3175 0dcb 00       		.uleb128 0
 3176 0dcc 5F5F464C 		.ascii "__FLT_MANT_DIG__ 24\0"
 3176      545F4D41 
 3176      4E545F44 
 3176      49475F5F 
 3176      20323400 
 3177 0de0 01       		.byte	0x1
 3178 0de1 00       		.uleb128 0
 3179 0de2 5F5F464C 		.ascii "__FLT_DIG__ 6\0"
 3179      545F4449 
 3179      475F5F20 
 3179      3600
 3180 0df0 01       		.byte	0x1
 3181 0df1 00       		.uleb128 0
 3182 0df2 5F5F464C 		.ascii "__FLT_MIN_EXP__ (-125)\0"
 3182      545F4D49 
 3182      4E5F4558 
 3182      505F5F20 
 3182      282D3132 
 3183 0e09 01       		.byte	0x1
 3184 0e0a 00       		.uleb128 0
 3185 0e0b 5F5F464C 		.ascii "__FLT_MIN_10_EXP__ (-37)\0"
 3185      545F4D49 
 3185      4E5F3130 
 3185      5F455850 
 3185      5F5F2028 
 3186 0e24 01       		.byte	0x1
 3187 0e25 00       		.uleb128 0
 3188 0e26 5F5F464C 		.ascii "__FLT_MAX_EXP__ 128\0"
 3188      545F4D41 
 3188      585F4558 
 3188      505F5F20 
 3188      31323800 
 3189 0e3a 01       		.byte	0x1
 3190 0e3b 00       		.uleb128 0
 3191 0e3c 5F5F464C 		.ascii "__FLT_MAX_10_EXP__ 38\0"
 3191      545F4D41 
 3191      585F3130 
 3191      5F455850 
 3191      5F5F2033 
 3192 0e52 01       		.byte	0x1
 3193 0e53 00       		.uleb128 0
 3194 0e54 5F5F464C 		.ascii "__FLT_DECIMAL_DIG__ 9\0"
GAS LISTING C:\Users\PRESID~1\AppData\Local\Temp\cczIt3NK.s 			page 84


 3194      545F4445 
 3194      43494D41 
 3194      4C5F4449 
 3194      475F5F20 
 3195 0e6a 01       		.byte	0x1
 3196 0e6b 00       		.uleb128 0
 3197 0e6c 5F5F464C 		.ascii "__FLT_MAX__ 3.40282346638528859812e+38F\0"
 3197      545F4D41 
 3197      585F5F20 
 3197      332E3430 
 3197      32383233 
 3198 0e94 01       		.byte	0x1
 3199 0e95 00       		.uleb128 0
 3200 0e96 5F5F464C 		.ascii "__FLT_MIN__ 1.17549435082228750797e-38F\0"
 3200      545F4D49 
 3200      4E5F5F20 
 3200      312E3137 
 3200      35343934 
 3201 0ebe 01       		.byte	0x1
 3202 0ebf 00       		.uleb128 0
 3203 0ec0 5F5F464C 		.ascii "__FLT_EPSILON__ 1.19209289550781250000e-7F\0"
 3203      545F4550 
 3203      53494C4F 
 3203      4E5F5F20 
 3203      312E3139 
 3204 0eeb 01       		.byte	0x1
 3205 0eec 00       		.uleb128 0
 3206 0eed 5F5F464C 		.ascii "__FLT_DENORM_MIN__ 1.40129846432481707092e-45F\0"
 3206      545F4445 
 3206      4E4F524D 
 3206      5F4D494E 
 3206      5F5F2031 
 3207 0f1c 01       		.byte	0x1
 3208 0f1d 00       		.uleb128 0
 3209 0f1e 5F5F464C 		.ascii "__FLT_HAS_DENORM__ 1\0"
 3209      545F4841 
 3209      535F4445 
 3209      4E4F524D 
 3209      5F5F2031 
 3210 0f33 01       		.byte	0x1
 3211 0f34 00       		.uleb128 0
 3212 0f35 5F5F464C 		.ascii "__FLT_HAS_INFINITY__ 1\0"
 3212      545F4841 
 3212      535F494E 
 3212      46494E49 
 3212      54595F5F 
 3213 0f4c 01       		.byte	0x1
 3214 0f4d 00       		.uleb128 0
 3215 0f4e 5F5F464C 		.ascii "__FLT_HAS_QUIET_NAN__ 1\0"
 3215      545F4841 
 3215      535F5155 
 3215      4945545F 
 3215      4E414E5F 
 3216 0f66 01       		.byte	0x1
 3217 0f67 00       		.uleb128 0
 3218 0f68 5F5F4442 		.ascii "__DBL_MANT_DIG__ 53\0"
 3218      4C5F4D41 
GAS LISTING C:\Users\PRESID~1\AppData\Local\Temp\cczIt3NK.s 			page 85


 3218      4E545F44 
 3218      49475F5F 
 3218      20353300 
 3219 0f7c 01       		.byte	0x1
 3220 0f7d 00       		.uleb128 0
 3221 0f7e 5F5F4442 		.ascii "__DBL_DIG__ 15\0"
 3221      4C5F4449 
 3221      475F5F20 
 3221      313500
 3222 0f8d 01       		.byte	0x1
 3223 0f8e 00       		.uleb128 0
 3224 0f8f 5F5F4442 		.ascii "__DBL_MIN_EXP__ (-1021)\0"
 3224      4C5F4D49 
 3224      4E5F4558 
 3224      505F5F20 
 3224      282D3130 
 3225 0fa7 01       		.byte	0x1
 3226 0fa8 00       		.uleb128 0
 3227 0fa9 5F5F4442 		.ascii "__DBL_MIN_10_EXP__ (-307)\0"
 3227      4C5F4D49 
 3227      4E5F3130 
 3227      5F455850 
 3227      5F5F2028 
 3228 0fc3 01       		.byte	0x1
 3229 0fc4 00       		.uleb128 0
 3230 0fc5 5F5F4442 		.ascii "__DBL_MAX_EXP__ 1024\0"
 3230      4C5F4D41 
 3230      585F4558 
 3230      505F5F20 
 3230      31303234 
 3231 0fda 01       		.byte	0x1
 3232 0fdb 00       		.uleb128 0
 3233 0fdc 5F5F4442 		.ascii "__DBL_MAX_10_EXP__ 308\0"
 3233      4C5F4D41 
 3233      585F3130 
 3233      5F455850 
 3233      5F5F2033 
 3234 0ff3 01       		.byte	0x1
 3235 0ff4 00       		.uleb128 0
 3236 0ff5 5F5F4442 		.ascii "__DBL_DECIMAL_DIG__ 17\0"
 3236      4C5F4445 
 3236      43494D41 
 3236      4C5F4449 
 3236      475F5F20 
 3237 100c 01       		.byte	0x1
 3238 100d 00       		.uleb128 0
 3239 100e 5F5F4442 		.ascii "__DBL_MAX__ ((double)1.79769313486231570815e+308L)\0"
 3239      4C5F4D41 
 3239      585F5F20 
 3239      2828646F 
 3239      75626C65 
 3240 1041 01       		.byte	0x1
 3241 1042 00       		.uleb128 0
 3242 1043 5F5F4442 		.ascii "__DBL_MIN__ ((double)2.22507385850720138309e-308L)\0"
 3242      4C5F4D49 
 3242      4E5F5F20 
 3242      2828646F 
GAS LISTING C:\Users\PRESID~1\AppData\Local\Temp\cczIt3NK.s 			page 86


 3242      75626C65 
 3243 1076 01       		.byte	0x1
 3244 1077 00       		.uleb128 0
 3245 1078 5F5F4442 		.ascii "__DBL_EPSILON__ ((double)2.22044604925031308085e-16L)\0"
 3245      4C5F4550 
 3245      53494C4F 
 3245      4E5F5F20 
 3245      2828646F 
 3246 10ae 01       		.byte	0x1
 3247 10af 00       		.uleb128 0
 3248 10b0 5F5F4442 		.ascii "__DBL_DENORM_MIN__ ((double)4.94065645841246544177e-324L)\0"
 3248      4C5F4445 
 3248      4E4F524D 
 3248      5F4D494E 
 3248      5F5F2028 
 3249 10ea 01       		.byte	0x1
 3250 10eb 00       		.uleb128 0
 3251 10ec 5F5F4442 		.ascii "__DBL_HAS_DENORM__ 1\0"
 3251      4C5F4841 
 3251      535F4445 
 3251      4E4F524D 
 3251      5F5F2031 
 3252 1101 01       		.byte	0x1
 3253 1102 00       		.uleb128 0
 3254 1103 5F5F4442 		.ascii "__DBL_HAS_INFINITY__ 1\0"
 3254      4C5F4841 
 3254      535F494E 
 3254      46494E49 
 3254      54595F5F 
 3255 111a 01       		.byte	0x1
 3256 111b 00       		.uleb128 0
 3257 111c 5F5F4442 		.ascii "__DBL_HAS_QUIET_NAN__ 1\0"
 3257      4C5F4841 
 3257      535F5155 
 3257      4945545F 
 3257      4E414E5F 
 3258 1134 01       		.byte	0x1
 3259 1135 00       		.uleb128 0
 3260 1136 5F5F4C44 		.ascii "__LDBL_MANT_DIG__ 64\0"
 3260      424C5F4D 
 3260      414E545F 
 3260      4449475F 
 3260      5F203634 
 3261 114b 01       		.byte	0x1
 3262 114c 00       		.uleb128 0
 3263 114d 5F5F4C44 		.ascii "__LDBL_DIG__ 18\0"
 3263      424C5F44 
 3263      49475F5F 
 3263      20313800 
 3264 115d 01       		.byte	0x1
 3265 115e 00       		.uleb128 0
 3266 115f 5F5F4C44 		.ascii "__LDBL_MIN_EXP__ (-16381)\0"
 3266      424C5F4D 
 3266      494E5F45 
 3266      58505F5F 
 3266      20282D31 
 3267 1179 01       		.byte	0x1
GAS LISTING C:\Users\PRESID~1\AppData\Local\Temp\cczIt3NK.s 			page 87


 3268 117a 00       		.uleb128 0
 3269 117b 5F5F4C44 		.ascii "__LDBL_MIN_10_EXP__ (-4931)\0"
 3269      424C5F4D 
 3269      494E5F31 
 3269      305F4558 
 3269      505F5F20 
 3270 1197 01       		.byte	0x1
 3271 1198 00       		.uleb128 0
 3272 1199 5F5F4C44 		.ascii "__LDBL_MAX_EXP__ 16384\0"
 3272      424C5F4D 
 3272      41585F45 
 3272      58505F5F 
 3272      20313633 
 3273 11b0 01       		.byte	0x1
 3274 11b1 00       		.uleb128 0
 3275 11b2 5F5F4C44 		.ascii "__LDBL_MAX_10_EXP__ 4932\0"
 3275      424C5F4D 
 3275      41585F31 
 3275      305F4558 
 3275      505F5F20 
 3276 11cb 01       		.byte	0x1
 3277 11cc 00       		.uleb128 0
 3278 11cd 5F5F4445 		.ascii "__DECIMAL_DIG__ 21\0"
 3278      43494D41 
 3278      4C5F4449 
 3278      475F5F20 
 3278      323100
 3279 11e0 01       		.byte	0x1
 3280 11e1 00       		.uleb128 0
 3281 11e2 5F5F4C44 		.ascii "__LDBL_MAX__ 1.18973149535723176502e+4932L\0"
 3281      424C5F4D 
 3281      41585F5F 
 3281      20312E31 
 3281      38393733 
 3282 120d 01       		.byte	0x1
 3283 120e 00       		.uleb128 0
 3284 120f 5F5F4C44 		.ascii "__LDBL_MIN__ 3.36210314311209350626e-4932L\0"
 3284      424C5F4D 
 3284      494E5F5F 
 3284      20332E33 
 3284      36323130 
 3285 123a 01       		.byte	0x1
 3286 123b 00       		.uleb128 0
 3287 123c 5F5F4C44 		.ascii "__LDBL_EPSILON__ 1.08420217248550443401e-19L\0"
 3287      424C5F45 
 3287      5053494C 
 3287      4F4E5F5F 
 3287      20312E30 
 3288 1269 01       		.byte	0x1
 3289 126a 00       		.uleb128 0
 3290 126b 5F5F4C44 		.ascii "__LDBL_DENORM_MIN__ 3.64519953188247460253e-4951L\0"
 3290      424C5F44 
 3290      454E4F52 
 3290      4D5F4D49 
 3290      4E5F5F20 
 3291 129d 01       		.byte	0x1
 3292 129e 00       		.uleb128 0
GAS LISTING C:\Users\PRESID~1\AppData\Local\Temp\cczIt3NK.s 			page 88


 3293 129f 5F5F4C44 		.ascii "__LDBL_HAS_DENORM__ 1\0"
 3293      424C5F48 
 3293      41535F44 
 3293      454E4F52 
 3293      4D5F5F20 
 3294 12b5 01       		.byte	0x1
 3295 12b6 00       		.uleb128 0
 3296 12b7 5F5F4C44 		.ascii "__LDBL_HAS_INFINITY__ 1\0"
 3296      424C5F48 
 3296      41535F49 
 3296      4E46494E 
 3296      4954595F 
 3297 12cf 01       		.byte	0x1
 3298 12d0 00       		.uleb128 0
 3299 12d1 5F5F4C44 		.ascii "__LDBL_HAS_QUIET_NAN__ 1\0"
 3299      424C5F48 
 3299      41535F51 
 3299      55494554 
 3299      5F4E414E 
 3300 12ea 01       		.byte	0x1
 3301 12eb 00       		.uleb128 0
 3302 12ec 5F5F4445 		.ascii "__DEC32_MANT_DIG__ 7\0"
 3302      4333325F 
 3302      4D414E54 
 3302      5F444947 
 3302      5F5F2037 
 3303 1301 01       		.byte	0x1
 3304 1302 00       		.uleb128 0
 3305 1303 5F5F4445 		.ascii "__DEC32_MIN_EXP__ (-94)\0"
 3305      4333325F 
 3305      4D494E5F 
 3305      4558505F 
 3305      5F20282D 
 3306 131b 01       		.byte	0x1
 3307 131c 00       		.uleb128 0
 3308 131d 5F5F4445 		.ascii "__DEC32_MAX_EXP__ 97\0"
 3308      4333325F 
 3308      4D41585F 
 3308      4558505F 
 3308      5F203937 
 3309 1332 01       		.byte	0x1
 3310 1333 00       		.uleb128 0
 3311 1334 5F5F4445 		.ascii "__DEC32_MIN__ 1E-95DF\0"
 3311      4333325F 
 3311      4D494E5F 
 3311      5F203145 
 3311      2D393544 
 3312 134a 01       		.byte	0x1
 3313 134b 00       		.uleb128 0
 3314 134c 5F5F4445 		.ascii "__DEC32_MAX__ 9.999999E96DF\0"
 3314      4333325F 
 3314      4D41585F 
 3314      5F20392E 
 3314      39393939 
 3315 1368 01       		.byte	0x1
 3316 1369 00       		.uleb128 0
 3317 136a 5F5F4445 		.ascii "__DEC32_EPSILON__ 1E-6DF\0"
GAS LISTING C:\Users\PRESID~1\AppData\Local\Temp\cczIt3NK.s 			page 89


 3317      4333325F 
 3317      45505349 
 3317      4C4F4E5F 
 3317      5F203145 
 3318 1383 01       		.byte	0x1
 3319 1384 00       		.uleb128 0
 3320 1385 5F5F4445 		.ascii "__DEC32_SUBNORMAL_MIN__ 0.000001E-95DF\0"
 3320      4333325F 
 3320      5355424E 
 3320      4F524D41 
 3320      4C5F4D49 
 3321 13ac 01       		.byte	0x1
 3322 13ad 00       		.uleb128 0
 3323 13ae 5F5F4445 		.ascii "__DEC64_MANT_DIG__ 16\0"
 3323      4336345F 
 3323      4D414E54 
 3323      5F444947 
 3323      5F5F2031 
 3324 13c4 01       		.byte	0x1
 3325 13c5 00       		.uleb128 0
 3326 13c6 5F5F4445 		.ascii "__DEC64_MIN_EXP__ (-382)\0"
 3326      4336345F 
 3326      4D494E5F 
 3326      4558505F 
 3326      5F20282D 
 3327 13df 01       		.byte	0x1
 3328 13e0 00       		.uleb128 0
 3329 13e1 5F5F4445 		.ascii "__DEC64_MAX_EXP__ 385\0"
 3329      4336345F 
 3329      4D41585F 
 3329      4558505F 
 3329      5F203338 
 3330 13f7 01       		.byte	0x1
 3331 13f8 00       		.uleb128 0
 3332 13f9 5F5F4445 		.ascii "__DEC64_MIN__ 1E-383DD\0"
 3332      4336345F 
 3332      4D494E5F 
 3332      5F203145 
 3332      2D333833 
 3333 1410 01       		.byte	0x1
 3334 1411 00       		.uleb128 0
 3335 1412 5F5F4445 		.ascii "__DEC64_MAX__ 9.999999999999999E384DD\0"
 3335      4336345F 
 3335      4D41585F 
 3335      5F20392E 
 3335      39393939 
 3336 1438 01       		.byte	0x1
 3337 1439 00       		.uleb128 0
 3338 143a 5F5F4445 		.ascii "__DEC64_EPSILON__ 1E-15DD\0"
 3338      4336345F 
 3338      45505349 
 3338      4C4F4E5F 
 3338      5F203145 
 3339 1454 01       		.byte	0x1
 3340 1455 00       		.uleb128 0
 3341 1456 5F5F4445 		.ascii "__DEC64_SUBNORMAL_MIN__ 0.000000000000001E-383DD\0"
 3341      4336345F 
GAS LISTING C:\Users\PRESID~1\AppData\Local\Temp\cczIt3NK.s 			page 90


 3341      5355424E 
 3341      4F524D41 
 3341      4C5F4D49 
 3342 1487 01       		.byte	0x1
 3343 1488 00       		.uleb128 0
 3344 1489 5F5F4445 		.ascii "__DEC128_MANT_DIG__ 34\0"
 3344      43313238 
 3344      5F4D414E 
 3344      545F4449 
 3344      475F5F20 
 3345 14a0 01       		.byte	0x1
 3346 14a1 00       		.uleb128 0
 3347 14a2 5F5F4445 		.ascii "__DEC128_MIN_EXP__ (-6142)\0"
 3347      43313238 
 3347      5F4D494E 
 3347      5F455850 
 3347      5F5F2028 
 3348 14bd 01       		.byte	0x1
 3349 14be 00       		.uleb128 0
 3350 14bf 5F5F4445 		.ascii "__DEC128_MAX_EXP__ 6145\0"
 3350      43313238 
 3350      5F4D4158 
 3350      5F455850 
 3350      5F5F2036 
 3351 14d7 01       		.byte	0x1
 3352 14d8 00       		.uleb128 0
 3353 14d9 5F5F4445 		.ascii "__DEC128_MIN__ 1E-6143DL\0"
 3353      43313238 
 3353      5F4D494E 
 3353      5F5F2031 
 3353      452D3631 
 3354 14f2 01       		.byte	0x1
 3355 14f3 00       		.uleb128 0
 3356 14f4 5F5F4445 		.ascii "__DEC128_MAX__ 9.999999999999999999999999999999999E6144DL\0"
 3356      43313238 
 3356      5F4D4158 
 3356      5F5F2039 
 3356      2E393939 
 3357 152e 01       		.byte	0x1
 3358 152f 00       		.uleb128 0
 3359 1530 5F5F4445 		.ascii "__DEC128_EPSILON__ 1E-33DL\0"
 3359      43313238 
 3359      5F455053 
 3359      494C4F4E 
 3359      5F5F2031 
 3360 154b 01       		.byte	0x1
 3361 154c 00       		.uleb128 0
 3362 154d 5F5F4445 		.ascii "__DEC128_SUBNORMAL_MIN__ 0.000000000000000000000000000000001E-6143DL\0"
 3362      43313238 
 3362      5F535542 
 3362      4E4F524D 
 3362      414C5F4D 
 3363 1592 01       		.byte	0x1
 3364 1593 00       		.uleb128 0
 3365 1594 5F5F5245 		.ascii "__REGISTER_PREFIX__ \0"
 3365      47495354 
 3365      45525F50 
GAS LISTING C:\Users\PRESID~1\AppData\Local\Temp\cczIt3NK.s 			page 91


 3365      52454649 
 3365      585F5F20 
 3366 15a9 01       		.byte	0x1
 3367 15aa 00       		.uleb128 0
 3368 15ab 5F5F5553 		.ascii "__USER_LABEL_PREFIX__ _\0"
 3368      45525F4C 
 3368      4142454C 
 3368      5F505245 
 3368      4649585F 
 3369 15c3 01       		.byte	0x1
 3370 15c4 00       		.uleb128 0
 3371 15c5 5F5F474E 		.ascii "__GNUC_GNU_INLINE__ 1\0"
 3371      55435F47 
 3371      4E555F49 
 3371      4E4C494E 
 3371      455F5F20 
 3372 15db 01       		.byte	0x1
 3373 15dc 00       		.uleb128 0
 3374 15dd 5F5F4E4F 		.ascii "__NO_INLINE__ 1\0"
 3374      5F494E4C 
 3374      494E455F 
 3374      5F203100 
 3375 15ed 01       		.byte	0x1
 3376 15ee 00       		.uleb128 0
 3377 15ef 5F5F5354 		.ascii "__STRICT_ANSI__ 1\0"
 3377      52494354 
 3377      5F414E53 
 3377      495F5F20 
 3377      3100
 3378 1601 01       		.byte	0x1
 3379 1602 00       		.uleb128 0
 3380 1603 5F5F4743 		.ascii "__GCC_ATOMIC_BOOL_LOCK_FREE 1\0"
 3380      435F4154 
 3380      4F4D4943 
 3380      5F424F4F 
 3380      4C5F4C4F 
 3381 1621 01       		.byte	0x1
 3382 1622 00       		.uleb128 0
 3383 1623 5F5F4743 		.ascii "__GCC_ATOMIC_CHAR_LOCK_FREE 1\0"
 3383      435F4154 
 3383      4F4D4943 
 3383      5F434841 
 3383      525F4C4F 
 3384 1641 01       		.byte	0x1
 3385 1642 00       		.uleb128 0
 3386 1643 5F5F4743 		.ascii "__GCC_ATOMIC_CHAR16_T_LOCK_FREE 1\0"
 3386      435F4154 
 3386      4F4D4943 
 3386      5F434841 
 3386      5231365F 
 3387 1665 01       		.byte	0x1
 3388 1666 00       		.uleb128 0
 3389 1667 5F5F4743 		.ascii "__GCC_ATOMIC_CHAR32_T_LOCK_FREE 1\0"
 3389      435F4154 
 3389      4F4D4943 
 3389      5F434841 
 3389      5233325F 
GAS LISTING C:\Users\PRESID~1\AppData\Local\Temp\cczIt3NK.s 			page 92


 3390 1689 01       		.byte	0x1
 3391 168a 00       		.uleb128 0
 3392 168b 5F5F4743 		.ascii "__GCC_ATOMIC_WCHAR_T_LOCK_FREE 1\0"
 3392      435F4154 
 3392      4F4D4943 
 3392      5F574348 
 3392      41525F54 
 3393 16ac 01       		.byte	0x1
 3394 16ad 00       		.uleb128 0
 3395 16ae 5F5F4743 		.ascii "__GCC_ATOMIC_SHORT_LOCK_FREE 1\0"
 3395      435F4154 
 3395      4F4D4943 
 3395      5F53484F 
 3395      52545F4C 
 3396 16cd 01       		.byte	0x1
 3397 16ce 00       		.uleb128 0
 3398 16cf 5F5F4743 		.ascii "__GCC_ATOMIC_INT_LOCK_FREE 1\0"
 3398      435F4154 
 3398      4F4D4943 
 3398      5F494E54 
 3398      5F4C4F43 
 3399 16ec 01       		.byte	0x1
 3400 16ed 00       		.uleb128 0
 3401 16ee 5F5F4743 		.ascii "__GCC_ATOMIC_LONG_LOCK_FREE 1\0"
 3401      435F4154 
 3401      4F4D4943 
 3401      5F4C4F4E 
 3401      475F4C4F 
 3402 170c 01       		.byte	0x1
 3403 170d 00       		.uleb128 0
 3404 170e 5F5F4743 		.ascii "__GCC_ATOMIC_LLONG_LOCK_FREE 1\0"
 3404      435F4154 
 3404      4F4D4943 
 3404      5F4C4C4F 
 3404      4E475F4C 
 3405 172d 01       		.byte	0x1
 3406 172e 00       		.uleb128 0
 3407 172f 5F5F4743 		.ascii "__GCC_ATOMIC_TEST_AND_SET_TRUEVAL 1\0"
 3407      435F4154 
 3407      4F4D4943 
 3407      5F544553 
 3407      545F414E 
 3408 1753 01       		.byte	0x1
 3409 1754 00       		.uleb128 0
 3410 1755 5F5F4743 		.ascii "__GCC_ATOMIC_POINTER_LOCK_FREE 1\0"
 3410      435F4154 
 3410      4F4D4943 
 3410      5F504F49 
 3410      4E544552 
 3411 1776 01       		.byte	0x1
 3412 1777 00       		.uleb128 0
 3413 1778 5F5F4743 		.ascii "__GCC_HAVE_DWARF2_CFI_ASM 1\0"
 3413      435F4841 
 3413      56455F44 
 3413      57415246 
 3413      325F4346 
 3414 1794 01       		.byte	0x1
GAS LISTING C:\Users\PRESID~1\AppData\Local\Temp\cczIt3NK.s 			page 93


 3415 1795 00       		.uleb128 0
 3416 1796 5F5F5052 		.ascii "__PRAGMA_REDEFINE_EXTNAME 1\0"
 3416      41474D41 
 3416      5F524544 
 3416      4546494E 
 3416      455F4558 
 3417 17b2 01       		.byte	0x1
 3418 17b3 00       		.uleb128 0
 3419 17b4 5F5F5349 		.ascii "__SIZEOF_WCHAR_T__ 2\0"
 3419      5A454F46 
 3419      5F574348 
 3419      41525F54 
 3419      5F5F2032 
 3420 17c9 01       		.byte	0x1
 3421 17ca 00       		.uleb128 0
 3422 17cb 5F5F5349 		.ascii "__SIZEOF_WINT_T__ 2\0"
 3422      5A454F46 
 3422      5F57494E 
 3422      545F545F 
 3422      5F203200 
 3423 17df 01       		.byte	0x1
 3424 17e0 00       		.uleb128 0
 3425 17e1 5F5F5349 		.ascii "__SIZEOF_PTRDIFF_T__ 4\0"
 3425      5A454F46 
 3425      5F505452 
 3425      44494646 
 3425      5F545F5F 
 3426 17f8 01       		.byte	0x1
 3427 17f9 00       		.uleb128 0
 3428 17fa 5F5F6933 		.ascii "__i386 1\0"
 3428      38362031 
 3428      00
 3429 1803 01       		.byte	0x1
 3430 1804 00       		.uleb128 0
 3431 1805 5F5F6933 		.ascii "__i386__ 1\0"
 3431      38365F5F 
 3431      203100
 3432 1810 01       		.byte	0x1
 3433 1811 00       		.uleb128 0
 3434 1812 5F5F4154 		.ascii "__ATOMIC_HLE_ACQUIRE 65536\0"
 3434      4F4D4943 
 3434      5F484C45 
 3434      5F414351 
 3434      55495245 
 3435 182d 01       		.byte	0x1
 3436 182e 00       		.uleb128 0
 3437 182f 5F5F4154 		.ascii "__ATOMIC_HLE_RELEASE 131072\0"
 3437      4F4D4943 
 3437      5F484C45 
 3437      5F52454C 
 3437      45415345 
 3438 184b 01       		.byte	0x1
 3439 184c 00       		.uleb128 0
 3440 184d 5F5F7475 		.ascii "__tune_i386__ 1\0"
 3440      6E655F69 
 3440      3338365F 
 3440      5F203100 
GAS LISTING C:\Users\PRESID~1\AppData\Local\Temp\cczIt3NK.s 			page 94


 3441 185d 01       		.byte	0x1
 3442 185e 00       		.uleb128 0
 3443 185f 5F5F636F 		.ascii "__code_model_32__ 1\0"
 3443      64655F6D 
 3443      6F64656C 
 3443      5F33325F 
 3443      5F203100 
 3444 1873 01       		.byte	0x1
 3445 1874 00       		.uleb128 0
 3446 1875 5F583836 		.ascii "_X86_ 1\0"
 3446      5F203100 
 3447 187d 01       		.byte	0x1
 3448 187e 00       		.uleb128 0
 3449 187f 5F5F7374 		.ascii "__stdcall __attribute__((__stdcall__))\0"
 3449      6463616C 
 3449      6C205F5F 
 3449      61747472 
 3449      69627574 
 3450 18a6 01       		.byte	0x1
 3451 18a7 00       		.uleb128 0
 3452 18a8 5F5F6661 		.ascii "__fastcall __attribute__((__fastcall__))\0"
 3452      73746361 
 3452      6C6C205F 
 3452      5F617474 
 3452      72696275 
 3453 18d1 01       		.byte	0x1
 3454 18d2 00       		.uleb128 0
 3455 18d3 5F5F7468 		.ascii "__thiscall __attribute__((__thiscall__))\0"
 3455      69736361 
 3455      6C6C205F 
 3455      5F617474 
 3455      72696275 
 3456 18fc 01       		.byte	0x1
 3457 18fd 00       		.uleb128 0
 3458 18fe 5F5F6364 		.ascii "__cdecl __attribute__((__cdecl__))\0"
 3458      65636C20 
 3458      5F5F6174 
 3458      74726962 
 3458      7574655F 
 3459 1921 01       		.byte	0x1
 3460 1922 00       		.uleb128 0
 3461 1923 5F5F4758 		.ascii "__GXX_MERGED_TYPEINFO_NAMES 0\0"
 3461      585F4D45 
 3461      52474544 
 3461      5F545950 
 3461      45494E46 
 3462 1941 01       		.byte	0x1
 3463 1942 00       		.uleb128 0
 3464 1943 5F5F4758 		.ascii "__GXX_TYPEINFO_EQUALITY_INLINE 0\0"
 3464      585F5459 
 3464      5045494E 
 3464      464F5F45 
 3464      5155414C 
 3465 1964 01       		.byte	0x1
 3466 1965 00       		.uleb128 0
 3467 1966 5F5F4D53 		.ascii "__MSVCRT__ 1\0"
 3467      56435254 
GAS LISTING C:\Users\PRESID~1\AppData\Local\Temp\cczIt3NK.s 			page 95


 3467      5F5F2031 
 3467      00
 3468 1973 01       		.byte	0x1
 3469 1974 00       		.uleb128 0
 3470 1975 5F5F4D49 		.ascii "__MINGW32__ 1\0"
 3470      4E475733 
 3470      325F5F20 
 3470      3100
 3471 1983 01       		.byte	0x1
 3472 1984 00       		.uleb128 0
 3473 1985 5F57494E 		.ascii "_WIN32 1\0"
 3473      33322031 
 3473      00
 3474 198e 01       		.byte	0x1
 3475 198f 00       		.uleb128 0
 3476 1990 5F5F5749 		.ascii "__WIN32 1\0"
 3476      4E333220 
 3476      3100
 3477 199a 01       		.byte	0x1
 3478 199b 00       		.uleb128 0
 3479 199c 5F5F5749 		.ascii "__WIN32__ 1\0"
 3479      4E33325F 
 3479      5F203100 
 3480 19a8 01       		.byte	0x1
 3481 19a9 00       		.uleb128 0
 3482 19aa 5F5F5749 		.ascii "__WINNT 1\0"
 3482      4E4E5420 
 3482      3100
 3483 19b4 01       		.byte	0x1
 3484 19b5 00       		.uleb128 0
 3485 19b6 5F5F5749 		.ascii "__WINNT__ 1\0"
 3485      4E4E545F 
 3485      5F203100 
 3486 19c2 01       		.byte	0x1
 3487 19c3 00       		.uleb128 0
 3488 19c4 5F494E54 		.ascii "_INTEGRAL_MAX_BITS 64\0"
 3488      45475241 
 3488      4C5F4D41 
 3488      585F4249 
 3488      54532036 
 3489 19da 01       		.byte	0x1
 3490 19db 00       		.uleb128 0
 3491 19dc 5F5F6465 		.ascii "__declspec(x) __attribute__((x))\0"
 3491      636C7370 
 3491      65632878 
 3491      29205F5F 
 3491      61747472 
 3492 19fd 01       		.byte	0x1
 3493 19fe 00       		.uleb128 0
 3494 19ff 5F5F4445 		.ascii "__DECIMAL_BID_FORMAT__ 1\0"
 3494      43494D41 
 3494      4C5F4249 
 3494      445F464F 
 3494      524D4154 
 3495 1a18 01       		.byte	0x1
 3496 1a19 00       		.uleb128 0
 3497 1a1a 4346475F 		.ascii "CFG_PROCESSOR 3\0"
GAS LISTING C:\Users\PRESID~1\AppData\Local\Temp\cczIt3NK.s 			page 96


 3497      50524F43 
 3497      4553534F 
 3497      52203300 
 3498 1a2a 03       		.byte	0x3
 3499 1a2b 00       		.uleb128 0
 3500 1a2c 01       		.uleb128 0x1
 3501              		.file 7 "E:/NeuOrga/Programmieren/c_cpp/github_os/input/src/os_base/os_firstinc.h"
 3502 1a2d 03       		.byte	0x3
 3503 1a2e 01       		.uleb128 0x1
 3504 1a2f 07       		.uleb128 0x7
 3505 1a30 01       		.byte	0x1
 3506 1a31 02       		.uleb128 0x2
 3507 1a32 5F4F535F 		.ascii "_OS_FIRSTINC_H_ \0"
 3507      46495253 
 3507      54494E43 
 3507      5F485F20 
 3507      00
 3508              		.file 8 "E:/NeuOrga/Programmieren/c_cpp/github_os/input/src/os_base/../os_config.h"
 3509 1a43 03       		.byte	0x3
 3510 1a44 04       		.uleb128 0x4
 3511 1a45 08       		.uleb128 0x8
 3512 1a46 01       		.byte	0x1
 3513 1a47 02       		.uleb128 0x2
 3514 1a48 5F4F535F 		.ascii "_OS_CONFIG_H_ \0"
 3514      434F4E46 
 3514      49475F48 
 3514      5F2000
 3515 1a57 01       		.byte	0x1
 3516 1a58 05       		.uleb128 0x5
 3517 1a59 494E5445 		.ascii "INTEGER_LLP64_IL32P64 1u\0"
 3517      4745525F 
 3517      4C4C5036 
 3517      345F494C 
 3517      33325036 
 3518 1a72 01       		.byte	0x1
 3519 1a73 06       		.uleb128 0x6
 3520 1a74 494E5445 		.ascii "INTEGER_LP64_I32LP64 2u\0"
 3520      4745525F 
 3520      4C503634 
 3520      5F493332 
 3520      4C503634 
 3521 1a8c 01       		.byte	0x1
 3522 1a8d 07       		.uleb128 0x7
 3523 1a8e 494E5445 		.ascii "INTEGER_ILP64 3u\0"
 3523      4745525F 
 3523      494C5036 
 3523      34203375 
 3523      00
 3524 1a9f 01       		.byte	0x1
 3525 1aa0 08       		.uleb128 0x8
 3526 1aa1 494E5445 		.ascii "INTEGER_SILP64 4u\0"
 3526      4745525F 
 3526      53494C50 
 3526      36342034 
 3526      7500
 3527 1ab3 01       		.byte	0x1
 3528 1ab4 09       		.uleb128 0x9
GAS LISTING C:\Users\PRESID~1\AppData\Local\Temp\cczIt3NK.s 			page 97


 3529 1ab5 494E5445 		.ascii "INTEGER_MODEL INTEGER_LLP64_IL32P64\0"
 3529      4745525F 
 3529      4D4F4445 
 3529      4C20494E 
 3529      54454745 
 3530 1ad9 01       		.byte	0x1
 3531 1ada 0C       		.uleb128 0xc
 3532 1adb 4350505F 		.ascii "CPP_VERSION_NONE 0u\0"
 3532      56455253 
 3532      494F4E5F 
 3532      4E4F4E45 
 3532      20307500 
 3533 1aef 01       		.byte	0x1
 3534 1af0 0D       		.uleb128 0xd
 3535 1af1 4350505F 		.ascii "CPP_VERSION_1998 1u\0"
 3535      56455253 
 3535      494F4E5F 
 3535      31393938 
 3535      20317500 
 3536 1b05 01       		.byte	0x1
 3537 1b06 0E       		.uleb128 0xe
 3538 1b07 4350505F 		.ascii "CPP_VERSION_2003 2u\0"
 3538      56455253 
 3538      494F4E5F 
 3538      32303033 
 3538      20327500 
 3539 1b1b 01       		.byte	0x1
 3540 1b1c 0F       		.uleb128 0xf
 3541 1b1d 4350505F 		.ascii "CPP_VERSION_2007 3u\0"
 3541      56455253 
 3541      494F4E5F 
 3541      32303037 
 3541      20337500 
 3542 1b31 01       		.byte	0x1
 3543 1b32 10       		.uleb128 0x10
 3544 1b33 4350505F 		.ascii "CPP_VERSION_2011 4u\0"
 3544      56455253 
 3544      494F4E5F 
 3544      32303131 
 3544      20347500 
 3545 1b47 01       		.byte	0x1
 3546 1b48 11       		.uleb128 0x11
 3547 1b49 49534F5F 		.ascii "ISO_CPP_VERSION CPP_VERSION_1998\0"
 3547      4350505F 
 3547      56455253 
 3547      494F4E20 
 3547      4350505F 
 3548 1b6a 01       		.byte	0x1
 3549 1b6b 14       		.uleb128 0x14
 3550 1b6c 4249475F 		.ascii "BIG_INT_SIZE 16u\0"
 3550      494E545F 
 3550      53495A45 
 3550      20313675 
 3550      00
 3551 1b7d 01       		.byte	0x1
 3552 1b7e 17       		.uleb128 0x17
 3553 1b7f 4E525F4F 		.ascii "NR_OF_CORES 1u\0"
GAS LISTING C:\Users\PRESID~1\AppData\Local\Temp\cczIt3NK.s 			page 98


 3553      465F434F 
 3553      52455320 
 3553      317500
 3554 1b8e 01       		.byte	0x1
 3555 1b8f 1B       		.uleb128 0x1b
 3556 1b90 4D43555F 		.ascii "MCU_CLOCK_IN_HZ ((uint32)168000000u)\0"
 3556      434C4F43 
 3556      4B5F494E 
 3556      5F485A20 
 3556      28287569 
 3557 1bb5 01       		.byte	0x1
 3558 1bb6 1D       		.uleb128 0x1d
 3559 1bb7 44594E41 		.ascii "DYNAMIC_MEMORY_USED FALSE\0"
 3559      4D49435F 
 3559      4D454D4F 
 3559      52595F55 
 3559      53454420 
 3560 1bd1 01       		.byte	0x1
 3561 1bd2 1E       		.uleb128 0x1e
 3562 1bd3 4C4F4F50 		.ascii "LOOPTIME_IN_USEC ((uint32)10000u)\0"
 3562      54494D45 
 3562      5F494E5F 
 3562      55534543 
 3562      20282875 
 3563 1bf5 01       		.byte	0x1
 3564 1bf6 21       		.uleb128 0x21
 3565 1bf7 48454150 		.ascii "HEAP_SIZE 10000u\0"
 3565      5F53495A 
 3565      45203130 
 3565      30303075 
 3565      00
 3566 1c08 01       		.byte	0x1
 3567 1c09 22       		.uleb128 0x22
 3568 1c0a 4D494E5F 		.ascii "MIN_BLOCK_SIZE_HEAP 8u\0"
 3568      424C4F43 
 3568      4B5F5349 
 3568      5A455F48 
 3568      45415020 
 3569 1c21 01       		.byte	0x1
 3570 1c22 23       		.uleb128 0x23
 3571 1c23 48454150 		.ascii "HEAP_OFFSET_FOR_SIZE 0u\0"
 3571      5F4F4646 
 3571      5345545F 
 3571      464F525F 
 3571      53495A45 
 3572 1c3b 01       		.byte	0x1
 3573 1c3c 24       		.uleb128 0x24
 3574 1c3d 48454150 		.ascii "HEAP_OFFSET_FOR_USED_SIZE 4u\0"
 3574      5F4F4646 
 3574      5345545F 
 3574      464F525F 
 3574      55534544 
 3575 1c5a 01       		.byte	0x1
 3576 1c5b 25       		.uleb128 0x25
 3577 1c5c 48454150 		.ascii "HEAP_OFFSET_FOR_CHUNK 8u\0"
 3577      5F4F4646 
 3577      5345545F 
GAS LISTING C:\Users\PRESID~1\AppData\Local\Temp\cczIt3NK.s 			page 99


 3577      464F525F 
 3577      4348554E 
 3578 1c75 01       		.byte	0x1
 3579 1c76 28       		.uleb128 0x28
 3580 1c77 4F535F53 		.ascii "OS_STACK_SIZE 0x200u\0"
 3580      5441434B 
 3580      5F53495A 
 3580      45203078 
 3580      32303075 
 3581 1c8c 04       		.byte	0x4
 3582 1c8d 03       		.byte	0x3
 3583 1c8e 05       		.uleb128 0x5
 3584 1c8f 02       		.uleb128 0x2
 3585 1c90 01       		.byte	0x1
 3586 1c91 02       		.uleb128 0x2
 3587 1c92 5F4F535F 		.ascii "_OS_BASE_TYPES_H_ \0"
 3587      42415345 
 3587      5F545950 
 3587      45535F48 
 3587      5F2000
 3588 1ca5 04       		.byte	0x4
 3589 1ca6 03       		.byte	0x3
 3590 1ca7 06       		.uleb128 0x6
 3591 1ca8 03       		.uleb128 0x3
 3592 1ca9 01       		.byte	0x1
 3593 1caa 02       		.uleb128 0x2
 3594 1cab 5F4F535F 		.ascii "_OS_COMMON_H_ \0"
 3594      434F4D4D 
 3594      4F4E5F48 
 3594      5F2000
 3595 1cba 01       		.byte	0x1
 3596 1cbb 06       		.uleb128 0x6
 3597 1cbc 46414C53 		.ascii "FALSE 0u\0"
 3597      45203075 
 3597      00
 3598 1cc5 01       		.byte	0x1
 3599 1cc6 07       		.uleb128 0x7
 3600 1cc7 54525545 		.ascii "TRUE 1u\0"
 3600      20317500 
 3601 1ccf 01       		.byte	0x1
 3602 1cd0 08       		.uleb128 0x8
 3603 1cd1 41434345 		.ascii "ACCEPTED 1u\0"
 3603      50544544 
 3603      20317500 
 3604 1cdd 01       		.byte	0x1
 3605 1cde 09       		.uleb128 0x9
 3606 1cdf 52454A45 		.ascii "REJECTED 0u\0"
 3606      43544544 
 3606      20307500 
 3607 1ceb 01       		.byte	0x1
 3608 1cec 0A       		.uleb128 0xa
 3609 1ced 4C4F4341 		.ascii "LOCAL static\0"
 3609      4C207374 
 3609      61746963 
 3609      00
 3610 1cfa 01       		.byte	0x1
 3611 1cfb 0B       		.uleb128 0xb
GAS LISTING C:\Users\PRESID~1\AppData\Local\Temp\cczIt3NK.s 			page 100


 3612 1cfc 4C4F4341 		.ascii "LOCAL_INLINE static __inline__\0"
 3612      4C5F494E 
 3612      4C494E45 
 3612      20737461 
 3612      74696320 
 3613 1d1b 01       		.byte	0x1
 3614 1d1c 0C       		.uleb128 0xc
 3615 1d1d 474C4F42 		.ascii "GLOBAL_INLINE __inline__\0"
 3615      414C5F49 
 3615      4E4C494E 
 3615      45205F5F 
 3615      696E6C69 
 3616 1d36 01       		.byte	0x1
 3617 1d37 0D       		.uleb128 0xd
 3618 1d38 52454645 		.ascii "REFERENCE_UNUSED_PARAMETER(x) ((x) = (x))\0"
 3618      52454E43 
 3618      455F554E 
 3618      55534544 
 3618      5F504152 
 3619 1d62 01       		.byte	0x1
 3620 1d63 10       		.uleb128 0x10
 3621 1d64 4D43555F 		.ascii "MCU_X86 3\0"
 3621      58383620 
 3621      3300
 3622 1d6e 01       		.byte	0x1
 3623 1d6f 11       		.uleb128 0x11
 3624 1d70 4D43555F 		.ascii "MCU_CORTEX_M4 4\0"
 3624      434F5254 
 3624      45585F4D 
 3624      34203400 
 3625 1d80 01       		.byte	0x1
 3626 1d81 14       		.uleb128 0x14
 3627 1d82 4457545F 		.ascii "DWT_CTRL ((volatile uint32*)0xE0001000u)\0"
 3627      4354524C 
 3627      20282876 
 3627      6F6C6174 
 3627      696C6520 
 3628 1dab 01       		.byte	0x1
 3629 1dac 15       		.uleb128 0x15
 3630 1dad 4457545F 		.ascii "DWT_CYCCNT ((volatile uint32*)0xE0001004u)\0"
 3630      43594343 
 3630      4E542028 
 3630      28766F6C 
 3630      6174696C 
 3631 1dd8 01       		.byte	0x1
 3632 1dd9 16       		.uleb128 0x16
 3633 1dda 4457545F 		.ascii "DWT_LAR ((volatile uint32*)0xE0001FB0u)\0"
 3633      4C415220 
 3633      2828766F 
 3633      6C617469 
 3633      6C652075 
 3634 1e02 01       		.byte	0x1
 3635 1e03 17       		.uleb128 0x17
 3636 1e04 5343425F 		.ascii "SCB_DEMCR ((volatile uint32*)0xE000EDFCu)\0"
 3636      44454D43 
 3636      52202828 
 3636      766F6C61 
GAS LISTING C:\Users\PRESID~1\AppData\Local\Temp\cczIt3NK.s 			page 101


 3636      74696C65 
 3637 1e2e 01       		.byte	0x1
 3638 1e2f 1A       		.uleb128 0x1a
 3639 1e30 44495341 		.ascii "DISABLE_INTERRUPTS() \0"
 3639      424C455F 
 3639      494E5445 
 3639      52525550 
 3639      54532829 
 3640 1e46 01       		.byte	0x1
 3641 1e47 1B       		.uleb128 0x1b
 3642 1e48 454E4142 		.ascii "ENABLE_INTERRUPTS() \0"
 3642      4C455F49 
 3642      4E544552 
 3642      52555054 
 3642      53282920 
 3643 1e5d 01       		.byte	0x1
 3644 1e5e 1C       		.uleb128 0x1c
 3645 1e5f 50524956 		.ascii "PRIVILIGE_LEVEL_SAVE_CURRENT() \0"
 3645      494C4947 
 3645      455F4C45 
 3645      56454C5F 
 3645      53415645 
 3646 1e7f 01       		.byte	0x1
 3647 1e80 1D       		.uleb128 0x1d
 3648 1e81 50524956 		.ascii "PRIVILIGE_LEVEL_ENTER_KERNEL_MODE() \0"
 3648      494C4947 
 3648      455F4C45 
 3648      56454C5F 
 3648      454E5445 
 3649 1ea6 01       		.byte	0x1
 3650 1ea7 1E       		.uleb128 0x1e
 3651 1ea8 50524956 		.ascii "PRIVILIGE_LEVEL_RESTORE_SAVED() \0"
 3651      494C4947 
 3651      455F4C45 
 3651      56454C5F 
 3651      52455354 
 3652 1ec9 01       		.byte	0x1
 3653 1eca 1F       		.uleb128 0x1f
 3654 1ecb 48414C54 		.ascii "HALT_MCU() \0"
 3654      5F4D4355 
 3654      28292000 
 3655 1ed7 04       		.byte	0x4
 3656              		.file 9 "E:/NeuOrga/Programmieren/c_cpp/github_os/input/src/os_base/../os_sim/lld_global.h"
 3657 1ed8 03       		.byte	0x3
 3658 1ed9 09       		.uleb128 0x9
 3659 1eda 09       		.uleb128 0x9
 3660 1edb 01       		.byte	0x1
 3661 1edc 02       		.uleb128 0x2
 3662 1edd 5F4C4C44 		.ascii "_LLD_GLOBAL_H_ \0"
 3662      5F474C4F 
 3662      42414C5F 
 3662      485F2000 
 3663 1eed 03       		.byte	0x3
 3664 1eee 04       		.uleb128 0x4
 3665 1eef 04       		.uleb128 0x4
 3666 1ef0 01       		.byte	0x1
 3667 1ef1 02       		.uleb128 0x2
GAS LISTING C:\Users\PRESID~1\AppData\Local\Temp\cczIt3NK.s 			page 102


 3668 1ef2 5F4C4C44 		.ascii "_LLD_CORE_H_ \0"
 3668      5F434F52 
 3668      455F485F 
 3668      2000
 3669              		.file 10 "E:/NeuOrga/Programmieren/c_cpp/github_os/input/src/os_base/../os_sim/../os_base/os_first
 3670 1f00 03       		.byte	0x3
 3671 1f01 03       		.uleb128 0x3
 3672 1f02 0A       		.uleb128 0xa
 3673 1f03 04       		.byte	0x4
 3674 1f04 04       		.byte	0x4
 3675              		.file 11 "E:/NeuOrga/Programmieren/c_cpp/github_os/input/src/os_base/../os_sim/lld_interrupt.h"
 3676 1f05 03       		.byte	0x3
 3677 1f06 05       		.uleb128 0x5
 3678 1f07 0B       		.uleb128 0xb
 3679 1f08 01       		.byte	0x1
 3680 1f09 02       		.uleb128 0x2
 3681 1f0a 5F4C4C44 		.ascii "_LLD_INTERRUPT_H_ \0"
 3681      5F494E54 
 3681      45525255 
 3681      50545F48 
 3681      5F2000
 3682 1f1d 01       		.byte	0x1
 3683 1f1e 05       		.uleb128 0x5
 3684 1f1f 4F535F49 		.ascii "OS_INTERRUPT_SWI_1 asm(\"swi 1\")\0"
 3684      4E544552 
 3684      52555054 
 3684      5F535749 
 3684      5F312061 
 3685 1f3f 01       		.byte	0x1
 3686 1f40 06       		.uleb128 0x6
 3687 1f41 4F535F49 		.ascii "OS_INTERRUPT_SWI_2 asm(\"swi 2\")\0"
 3687      4E544552 
 3687      52555054 
 3687      5F535749 
 3687      5F322061 
 3688 1f61 01       		.byte	0x1
 3689 1f62 07       		.uleb128 0x7
 3690 1f63 4F535F49 		.ascii "OS_INTERRUPT_SWI_3 asm(\"swi 3\")\0"
 3690      4E544552 
 3690      52555054 
 3690      5F535749 
 3690      5F332061 
 3691 1f83 01       		.byte	0x1
 3692 1f84 08       		.uleb128 0x8
 3693 1f85 4F535F49 		.ascii "OS_INTERRUPT_SWI_4 asm(\"swi 4\")\0"
 3693      4E544552 
 3693      52555054 
 3693      5F535749 
 3693      5F342061 
 3694 1fa5 01       		.byte	0x1
 3695 1fa6 09       		.uleb128 0x9
 3696 1fa7 4F535F49 		.ascii "OS_INTERRUPT_SWI_5 asm(\"swi 5\")\0"
 3696      4E544552 
 3696      52555054 
 3696      5F535749 
 3696      5F352061 
 3697 1fc7 04       		.byte	0x4
GAS LISTING C:\Users\PRESID~1\AppData\Local\Temp\cczIt3NK.s 			page 103


 3698              		.file 12 "E:/NeuOrga/Programmieren/c_cpp/github_os/input/src/os_base/../os_sim/lld_mmu.h"
 3699 1fc8 03       		.byte	0x3
 3700 1fc9 06       		.uleb128 0x6
 3701 1fca 0C       		.uleb128 0xc
 3702 1fcb 01       		.byte	0x1
 3703 1fcc 02       		.uleb128 0x2
 3704 1fcd 5F4C4C44 		.ascii "_LLD_MMU_H_ \0"
 3704      5F4D4D55 
 3704      5F485F20 
 3704      00
 3705 1fda 04       		.byte	0x4
 3706              		.file 13 "E:/NeuOrga/Programmieren/c_cpp/github_os/input/src/os_base/../os_sim/lld_timer.h"
 3707 1fdb 03       		.byte	0x3
 3708 1fdc 07       		.uleb128 0x7
 3709 1fdd 0D       		.uleb128 0xd
 3710 1fde 01       		.byte	0x1
 3711 1fdf 02       		.uleb128 0x2
 3712 1fe0 5F4C4C44 		.ascii "_LLD_TIMER_H_ \0"
 3712      5F54494D 
 3712      45525F48 
 3712      5F2000
 3713 1fef 04       		.byte	0x4
 3714              		.file 14 "E:/NeuOrga/Programmieren/c_cpp/github_os/input/src/os_base/../os_sim/lld_power.h"
 3715 1ff0 03       		.byte	0x3
 3716 1ff1 08       		.uleb128 0x8
 3717 1ff2 0E       		.uleb128 0xe
 3718 1ff3 01       		.byte	0x1
 3719 1ff4 02       		.uleb128 0x2
 3720 1ff5 5F4C4C44 		.ascii "_LLD_POWER_H_ \0"
 3720      5F504F57 
 3720      45525F48 
 3720      5F2000
 3721 2004 04       		.byte	0x4
 3722              		.file 15 "E:/NeuOrga/Programmieren/c_cpp/github_os/input/src/os_base/../os_sim/lld_ram.h"
 3723 2005 03       		.byte	0x3
 3724 2006 09       		.uleb128 0x9
 3725 2007 0F       		.uleb128 0xf
 3726 2008 01       		.byte	0x1
 3727 2009 02       		.uleb128 0x2
 3728 200a 5F4C4C44 		.ascii "_LLD_RAM_H_ \0"
 3728      5F52414D 
 3728      5F485F20 
 3728      00
 3729 2017 04       		.byte	0x4
 3730 2018 03       		.byte	0x3
 3731 2019 0A       		.uleb128 0xa
 3732 201a 05       		.uleb128 0x5
 3733 201b 01       		.byte	0x1
 3734 201c 02       		.uleb128 0x2
 3735 201d 5F4F535F 		.ascii "_OS_TASK_COMMON_H_ \0"
 3735      5441534B 
 3735      5F434F4D 
 3735      4D4F4E5F 
 3735      485F2000 
 3736 2031 03       		.byte	0x3
 3737 2032 03       		.uleb128 0x3
 3738 2033 0A       		.uleb128 0xa
GAS LISTING C:\Users\PRESID~1\AppData\Local\Temp\cczIt3NK.s 			page 104


 3739 2034 04       		.byte	0x4
 3740              		.file 16 "E:/NeuOrga/Programmieren/c_cpp/github_os/input/src/os_base/../os_sim/../os_base/os_task_
 3741 2035 03       		.byte	0x3
 3742 2036 04       		.uleb128 0x4
 3743 2037 10       		.uleb128 0x10
 3744 2038 01       		.byte	0x1
 3745 2039 02       		.uleb128 0x2
 3746 203a 5F4F535F 		.ascii "_OS_TASK_CONFIG_H_ \0"
 3746      5441534B 
 3746      5F434F4E 
 3746      4649475F 
 3746      485F2000 
 3747 204e 01       		.byte	0x1
 3748 204f 05       		.uleb128 0x5
 3749 2050 5441534B 		.ascii "TASK_MIN_TIME (1e0)\0"
 3749      5F4D494E 
 3749      5F54494D 
 3749      45202831 
 3749      65302900 
 3750 2064 01       		.byte	0x1
 3751 2065 06       		.uleb128 0x6
 3752 2066 4E554D42 		.ascii "NUMBER_OF_TASKS 10u\0"
 3752      45525F4F 
 3752      465F5441 
 3752      534B5320 
 3752      31307500 
 3753 207a 01       		.byte	0x1
 3754 207b 07       		.uleb128 0x7
 3755 207c 4D41585F 		.ascii "MAX_RUN_QUEUE_SIZE (NUMBER_OF_TASKS)\0"
 3755      52554E5F 
 3755      51554555 
 3755      455F5349 
 3755      5A452028 
 3756 20a1 01       		.byte	0x1
 3757 20a2 08       		.uleb128 0x8
 3758 20a3 4D41585F 		.ascii "MAX_RUN_PQUEUE_SIZE MAX_RUN_QUEUE_SIZE\0"
 3758      52554E5F 
 3758      50515545 
 3758      55455F53 
 3758      495A4520 
 3759 20ca 01       		.byte	0x1
 3760 20cb 0A       		.uleb128 0xa
 3761 20cc 5441534B 		.ascii "TASK_STACK_SIZE 2000u\0"
 3761      5F535441 
 3761      434B5F53 
 3761      495A4520 
 3761      32303030 
 3762 20e2 01       		.byte	0x1
 3763 20e3 0D       		.uleb128 0xd
 3764 20e4 4D535F50 		.ascii "MS_PER_SEC 1000u\0"
 3764      45525F53 
 3764      45432031 
 3764      30303075 
 3764      00
 3765 20f5 01       		.byte	0x1
 3766 20f6 0E       		.uleb128 0xe
 3767 20f7 5553455F 		.ascii "USE_STATIC_CREATED_TASKS TRUE\0"
GAS LISTING C:\Users\PRESID~1\AppData\Local\Temp\cczIt3NK.s 			page 105


 3767      53544154 
 3767      49435F43 
 3767      52454154 
 3767      45445F54 
 3768 2115 04       		.byte	0x4
 3769              		.file 17 "E:/NeuOrga/Programmieren/c_cpp/github_os/input/src/os_base/../os_sim/../os_base/os_init_
 3770 2116 03       		.byte	0x3
 3771 2117 05       		.uleb128 0x5
 3772 2118 11       		.uleb128 0x11
 3773 2119 01       		.byte	0x1
 3774 211a 02       		.uleb128 0x2
 3775 211b 5F4F535F 		.ascii "_OS_INIT_TASK_SYSTEM_H_ \0"
 3775      494E4954 
 3775      5F544153 
 3775      4B5F5359 
 3775      5354454D 
 3776 2134 04       		.byte	0x4
 3777 2135 01       		.byte	0x1
 3778 2136 5F       		.uleb128 0x5f
 3779 2137 4F535F53 		.ascii "OS_SAVE_TASK_PTR(task_ptr,task_name) (TASK_PTR[(task_name)] = (task_ptr))\0"
 3779      4156455F 
 3779      5441534B 
 3779      5F505452 
 3779      28746173 
 3780 2181 01       		.byte	0x1
 3781 2182 60       		.uleb128 0x60
 3782 2183 4F535F47 		.ascii "OS_GET_TASK_PTR(task_name) ((task_t*) TASK_PTR[(task_name)])\0"
 3782      45545F54 
 3782      41534B5F 
 3782      50545228 
 3782      7461736B 
 3783 21c0 04       		.byte	0x4
 3784 21c1 04       		.byte	0x4
 3785              		.file 18 "E:/NeuOrga/Programmieren/c_cpp/github_os/input/src/os_base/../os_user_code/led.h"
 3786 21c2 03       		.byte	0x3
 3787 21c3 0D       		.uleb128 0xd
 3788 21c4 12       		.uleb128 0x12
 3789 21c5 01       		.byte	0x1
 3790 21c6 02       		.uleb128 0x2
 3791 21c7 5F4C4544 		.ascii "_LED_H_ \0"
 3791      5F485F20 
 3791      00
 3792 21d0 04       		.byte	0x4
 3793 21d1 03       		.byte	0x3
 3794 21d2 0F       		.uleb128 0xf
 3795 21d3 06       		.uleb128 0x6
 3796 21d4 01       		.byte	0x1
 3797 21d5 02       		.uleb128 0x2
 3798 21d6 5F4F535F 		.ascii "_OS_RAM_H_ \0"
 3798      52414D5F 
 3798      485F2000 
 3799              		.file 19 "E:/NeuOrga/Programmieren/c_cpp/github_os/input/src/os_base/../os_base/os_firstinc.h"
 3800 21e2 03       		.byte	0x3
 3801 21e3 04       		.uleb128 0x4
 3802 21e4 13       		.uleb128 0x13
 3803 21e5 04       		.byte	0x4
 3804              		.file 20 "E:/NeuOrga/Programmieren/c_cpp/github_os/input/src/os_base/../os_base/os_stack.h"
GAS LISTING C:\Users\PRESID~1\AppData\Local\Temp\cczIt3NK.s 			page 106


 3805 21e6 03       		.byte	0x3
 3806 21e7 05       		.uleb128 0x5
 3807 21e8 14       		.uleb128 0x14
 3808 21e9 01       		.byte	0x1
 3809 21ea 02       		.uleb128 0x2
 3810 21eb 5F4F535F 		.ascii "_OS_STACK_H_ \0"
 3810      53544143 
 3810      4B5F485F 
 3810      2000
 3811 21f9 04       		.byte	0x4
 3812              		.file 21 "E:/NeuOrga/Programmieren/c_cpp/github_os/input/src/os_base/../os_base/os_heap.h"
 3813 21fa 03       		.byte	0x3
 3814 21fb 06       		.uleb128 0x6
 3815 21fc 15       		.uleb128 0x15
 3816 21fd 01       		.byte	0x1
 3817 21fe 02       		.uleb128 0x2
 3818 21ff 5F4F535F 		.ascii "_OS_HEAP_H_ \0"
 3818      48454150 
 3818      5F485F20 
 3818      00
 3819 220c 04       		.byte	0x4
 3820              		.file 22 "E:/NeuOrga/Programmieren/c_cpp/github_os/input/src/os_base/../os_base/os_main.h"
 3821 220d 03       		.byte	0x3
 3822 220e 07       		.uleb128 0x7
 3823 220f 16       		.uleb128 0x16
 3824 2210 01       		.byte	0x1
 3825 2211 02       		.uleb128 0x2
 3826 2212 5F4F535F 		.ascii "_OS_MAIN_H_ \0"
 3826      4D41494E 
 3826      5F485F20 
 3826      00
 3827 221f 04       		.byte	0x4
 3828              		.file 23 "E:/NeuOrga/Programmieren/c_cpp/github_os/input/src/os_base/../os_base/os_task_config.h"
 3829 2220 03       		.byte	0x3
 3830 2221 08       		.uleb128 0x8
 3831 2222 17       		.uleb128 0x17
 3832 2223 04       		.byte	0x4
 3833              		.file 24 "E:/NeuOrga/Programmieren/c_cpp/github_os/input/src/os_base/../os_base/os_task_common.h"
 3834 2224 03       		.byte	0x3
 3835 2225 09       		.uleb128 0x9
 3836 2226 18       		.uleb128 0x18
 3837 2227 04       		.byte	0x4
 3838 2228 04       		.byte	0x4
 3839              		.file 25 "E:/NeuOrga/Programmieren/c_cpp/github_os/input/src/os_base/../os_base/os_ram_stack.h"
 3840 2229 03       		.byte	0x3
 3841 222a 10       		.uleb128 0x10
 3842 222b 19       		.uleb128 0x19
 3843 222c 01       		.byte	0x1
 3844 222d 02       		.uleb128 0x2
 3845 222e 5F4F535F 		.ascii "_OS_RAM_STACK_H_ \0"
 3845      52414D5F 
 3845      53544143 
 3845      4B5F485F 
 3845      2000
 3846 2240 04       		.byte	0x4
 3847 2241 04       		.byte	0x4
 3848              		.file 26 "E:/NeuOrga/Programmieren/c_cpp/github_os/input/src/os_base/os_task_common.h"
GAS LISTING C:\Users\PRESID~1\AppData\Local\Temp\cczIt3NK.s 			page 107


 3849 2242 03       		.byte	0x3
 3850 2243 02       		.uleb128 0x2
 3851 2244 1A       		.uleb128 0x1a
 3852 2245 04       		.byte	0x4
 3853              		.file 27 "E:/NeuOrga/Programmieren/c_cpp/github_os/input/src/os_base/os_task_queue.h"
 3854 2246 03       		.byte	0x3
 3855 2247 03       		.uleb128 0x3
 3856 2248 1B       		.uleb128 0x1b
 3857 2249 01       		.byte	0x1
 3858 224a 02       		.uleb128 0x2
 3859 224b 5F4F535F 		.ascii "_OS_TASK_QUEUE_H_ \0"
 3859      5441534B 
 3859      5F515545 
 3859      55455F48 
 3859      5F2000
 3860 225e 01       		.byte	0x1
 3861 225f 06       		.uleb128 0x6
 3862 2260 46495253 		.ascii "FIRST_TASK (0u)\0"
 3862      545F5441 
 3862      534B2028 
 3862      30752900 
 3863 2270 01       		.byte	0x1
 3864 2271 07       		.uleb128 0x7
 3865 2272 4C415354 		.ascii "LAST_TASK (MAX_RUN_QUEUE_SIZE-1u)\0"
 3865      5F544153 
 3865      4B20284D 
 3865      41585F52 
 3865      554E5F51 
 3866 2294 01       		.byte	0x1
 3867 2295 09       		.uleb128 0x9
 3868 2296 464F525F 		.ascii "FOR_ALL_TASKS_IN_QUEUE(var) for((var) = FIRST_TASK; (var) <= LAST_TASK; (var)++)\0"
 3868      414C4C5F 
 3868      5441534B 
 3868      535F494E 
 3868      5F515545 
 3869 22e7 04       		.byte	0x4
 3870              		.file 28 "E:/NeuOrga/Programmieren/c_cpp/github_os/input/src/os_base/os_task_scheduler.h"
 3871 22e8 03       		.byte	0x3
 3872 22e9 04       		.uleb128 0x4
 3873 22ea 1C       		.uleb128 0x1c
 3874 22eb 01       		.byte	0x1
 3875 22ec 02       		.uleb128 0x2
 3876 22ed 5F4F535F 		.ascii "_OS_TASK_SCHEDULER_H_ \0"
 3876      5441534B 
 3876      5F534348 
 3876      4544554C 
 3876      45525F48 
 3877 2304 01       		.byte	0x1
 3878 2305 07       		.uleb128 0x7
 3879 2306 5441534B 		.ascii "TASK_0_PTR 0u\0"
 3879      5F305F50 
 3879      54522030 
 3879      7500
 3880 2314 01       		.byte	0x1
 3881 2315 08       		.uleb128 0x8
 3882 2316 5441534B 		.ascii "TASK_1_PTR 1u\0"
 3882      5F315F50 
GAS LISTING C:\Users\PRESID~1\AppData\Local\Temp\cczIt3NK.s 			page 108


 3882      54522031 
 3882      7500
 3883 2324 01       		.byte	0x1
 3884 2325 09       		.uleb128 0x9
 3885 2326 5441534B 		.ascii "TASK_2_PTR 2u\0"
 3885      5F325F50 
 3885      54522032 
 3885      7500
 3886 2334 01       		.byte	0x1
 3887 2335 0A       		.uleb128 0xa
 3888 2336 5441534B 		.ascii "TASK_3_PTR 3u\0"
 3888      5F335F50 
 3888      54522033 
 3888      7500
 3889 2344 04       		.byte	0x4
 3890 2345 04       		.byte	0x4
 3891 2346 00       		.byte	0
 3892              		.section	.debug_line,"dr"
 3893              	Ldebug_line0:
 3894 0000 D3040000 		.section	.debug_str,"dr"
 3894      02008803 
 3894      00000101 
 3894      FB0E0D00 
 3894      01010101 
 3895              	LASF1:
 3896 0000 69646C65 		.ascii "idle_task\0"
 3896      5F746173 
 3896      6B00
 3897              	LASF6:
 3898 000a 73636865 		.ascii "scheduling_queue_element\0"
 3898      64756C69 
 3898      6E675F71 
 3898      75657565 
 3898      5F656C65 
 3899              	LASF3:
 3900 0023 70726976 		.ascii "privilige_mode\0"
 3900      696C6967 
 3900      655F6D6F 
 3900      646500
 3901              	LASF4:
 3902 0032 7461736B 		.ascii "task\0"
 3902      00
 3903              	LASF0:
 3904 0037 6578655F 		.ascii "exe_time\0"
 3904      74696D65 
 3904      00
 3905              	LASF5:
 3906 0040 656C656D 		.ascii "element_nr\0"
 3906      656E745F 
 3906      6E7200
 3907              	LASF2:
 3908 004b 64656661 		.ascii "default_prio\0"
 3908      756C745F 
 3908      7072696F 
 3908      00
 3909              		.ident	"GCC: (GNU) 4.9.3"
GAS LISTING C:\Users\PRESID~1\AppData\Local\Temp\cczIt3NK.s 			page 109


DEFINED SYMBOLS
                            *ABS*:00000000 os_task_queue.c
C:\Users\PRESID~1\AppData\Local\Temp\cczIt3NK.s:6      .text:00000000 _SET_RUNNING_TASK
C:\Users\PRESID~1\AppData\Local\Temp\cczIt3NK.s:182    .text:000001ff _OS_INIT_TASK_QUEUE
C:\Users\PRESID~1\AppData\Local\Temp\cczIt3NK.s:239    .text:00000260 _ADD_TO_TASK_QUEUE
C:\Users\PRESID~1\AppData\Local\Temp\cczIt3NK.s:766    .text:00000817 _DELETE_FROM_TASK_QUEUE
C:\Users\PRESID~1\AppData\Local\Temp\cczIt3NK.s:889    .text:00000961 _GET_FROM_TASK_QUEUE
C:\Users\PRESID~1\AppData\Local\Temp\cczIt3NK.s:910    .text:0000096b _GET_FROM_SCHEDULING_QUEUE
C:\Users\PRESID~1\AppData\Local\Temp\cczIt3NK.s:935    .text:00000985 _DELETE_FROM_SCHEDULING_QUEUE
C:\Users\PRESID~1\AppData\Local\Temp\cczIt3NK.s:956    .text:00000993 _ADD_TO_SCHEDULING_QUEUE
C:\Users\PRESID~1\AppData\Local\Temp\cczIt3NK.s:1008   .text:000009da _GET_IDLE_TASK
C:\Users\PRESID~1\AppData\Local\Temp\cczIt3NK.s:1028   .text:000009e4 _ADD_TO_IDLE_TASK_QUEUE
C:\Users\PRESID~1\AppData\Local\Temp\cczIt3NK.s:1194   .text:00000bca _GET_RUNNING_TASK
C:\Users\PRESID~1\AppData\Local\Temp\cczIt3NK.s:1214   .text:00000bd4 _GET_RUNNING_SCHEDULING_QUEUE_ELEMENT_PTR
C:\Users\PRESID~1\AppData\Local\Temp\cczIt3NK.s:1234   .text:00000bde _OS_INIT_TASK

UNDEFINED SYMBOLS
_RUNNING_SCHEDULING_QUEUE_ENTRY
_RUNNING_TASK
_bTASK_QUEUE_INITIALIZED
_TASK_SCHEDULING_QUEUE
_TASK_RUN_QUEUE
_TASK_IDLE_QUEUE
_ASSIGN
_OS_TASK_INIT_TASK_ENVIRONMENT
_ASSIGN_NULL
_OS_TASK_STATE_REQUEST
_ASSIGN_UINT32
_OS_CREATE_TASK
_OS_SET_SW_BUG
