GAS LISTING C:\Users\PRESID~1\AppData\Local\Temp\ccM0pvSr.s 			page 1


   1              		.file	"os_task_scheduler.c"
   2              		.text
   3              	Ltext0:
   4              		.globl	_OS_ACTIVATE_DISPATCHER
   6              	_OS_ACTIVATE_DISPATCHER:
   7              	LFB0:
   8              		.file 1 "C:/Users/president/Desktop/sbx/input/src/os_base/os_task_scheduler.c"
   1:C:/Users/president/Desktop/sbx/input/src/os_base\os_task_scheduler.c **** #include "os_firstinc.h"
   2:C:/Users/president/Desktop/sbx/input/src/os_base\os_task_scheduler.c **** #include "os_common.h"
   3:C:/Users/president/Desktop/sbx/input/src/os_base\os_task_scheduler.c **** #include "os_task_common.h"
   4:C:/Users/president/Desktop/sbx/input/src/os_base\os_task_scheduler.c **** #include "os_task_scheduler.h"
   5:C:/Users/president/Desktop/sbx/input/src/os_base\os_task_scheduler.c **** #include "os_task_queue.h"
   6:C:/Users/president/Desktop/sbx/input/src/os_base\os_task_scheduler.c **** #include "os_stack.h"
   7:C:/Users/president/Desktop/sbx/input/src/os_base\os_task_scheduler.c **** #include "os_exception.h"
   8:C:/Users/president/Desktop/sbx/input/src/os_base\os_task_scheduler.c **** 
   9:C:/Users/president/Desktop/sbx/input/src/os_base\os_task_scheduler.c **** /*
  10:C:/Users/president/Desktop/sbx/input/src/os_base\os_task_scheduler.c **** 1. running     --(terminate)--> suspend : delete scheduling element
  11:C:/Users/president/Desktop/sbx/input/src/os_base\os_task_scheduler.c **** 2. running     --(preempt  )--> ready
  12:C:/Users/president/Desktop/sbx/input/src/os_base\os_task_scheduler.c **** 3. suspend     --(activate )--> ready   : create scheduling element
  13:C:/Users/president/Desktop/sbx/input/src/os_base\os_task_scheduler.c **** 4. ready       --(start    )--> running : use scheduling element
  14:C:/Users/president/Desktop/sbx/input/src/os_base\os_task_scheduler.c **** 5. unspecified --(create   )--> suspend
  15:C:/Users/president/Desktop/sbx/input/src/os_base\os_task_scheduler.c **** */
  16:C:/Users/president/Desktop/sbx/input/src/os_base\os_task_scheduler.c **** 
  17:C:/Users/president/Desktop/sbx/input/src/os_base\os_task_scheduler.c **** 
  18:C:/Users/president/Desktop/sbx/input/src/os_base\os_task_scheduler.c **** LOCAL void task_0(void* task_ptr);
  19:C:/Users/president/Desktop/sbx/input/src/os_base\os_task_scheduler.c **** LOCAL void task_1(void* task_ptr);
  20:C:/Users/president/Desktop/sbx/input/src/os_base\os_task_scheduler.c **** LOCAL void task_2(void* task_ptr);
  21:C:/Users/president/Desktop/sbx/input/src/os_base\os_task_scheduler.c **** LOCAL task_t** os_task_scheduler(void);
  22:C:/Users/president/Desktop/sbx/input/src/os_base\os_task_scheduler.c **** LOCAL void os_preempt_task(task_t* task, scheduling_t* scheduling_task);
  23:C:/Users/president/Desktop/sbx/input/src/os_base\os_task_scheduler.c **** void OS_ACTIVATE_DISPATCHER(void)
  24:C:/Users/president/Desktop/sbx/input/src/os_base\os_task_scheduler.c **** {
   9              		.loc 1 24 1
  10              		.cfi_startproc
  11 0000 55       		pushl	%ebp
  12              		.cfi_def_cfa_offset 8
  13              		.cfi_offset 5, -8
  14 0001 89E5     		movl	%esp, %ebp
  15              		.cfi_def_cfa_register 5
  25:C:/Users/president/Desktop/sbx/input/src/os_base\os_task_scheduler.c **** 
  26:C:/Users/president/Desktop/sbx/input/src/os_base\os_task_scheduler.c ****    /* configure the TCMP */
  27:C:/Users/president/Desktop/sbx/input/src/os_base\os_task_scheduler.c ****    /*
  28:C:/Users/president/Desktop/sbx/input/src/os_base\os_task_scheduler.c ****    Dispatcher function for Core 0:
  29:C:/Users/president/Desktop/sbx/input/src/os_base\os_task_scheduler.c ****    Write Adresse into the config register (interrupts are requested by SWI/SVC???)
  30:C:/Users/president/Desktop/sbx/input/src/os_base\os_task_scheduler.c ****    */
  31:C:/Users/president/Desktop/sbx/input/src/os_base\os_task_scheduler.c ****    /*
  32:C:/Users/president/Desktop/sbx/input/src/os_base\os_task_scheduler.c ****    CLOCK = HCLK / 8
  33:C:/Users/president/Desktop/sbx/input/src/os_base\os_task_scheduler.c ****    vermutlich: CLOCK = 150Mhz / 8 = 18,75 Mhz
  34:C:/Users/president/Desktop/sbx/input/src/os_base\os_task_scheduler.c ****    */
  35:C:/Users/president/Desktop/sbx/input/src/os_base\os_task_scheduler.c **** #if(CFG_PROCESSOR == MCU_CORTEX_M4)
  36:C:/Users/president/Desktop/sbx/input/src/os_base\os_task_scheduler.c ****    *SYSTICK_RLD_VAL_REG = (*SYSTICK_RLD_VAL_REG & 0xFF000000u )| (((uint32)MCU_CLOCK_IN_HZ / ((uint
  37:C:/Users/president/Desktop/sbx/input/src/os_base\os_task_scheduler.c ****    *SYSTICK_CURRENT_VAL_REG = ((uint32)0x00000000u);
  38:C:/Users/president/Desktop/sbx/input/src/os_base\os_task_scheduler.c ****    *SYSTICK_CTRL_STAT_REG = *SYSTICK_CTRL_STAT_REG | SYSTICK_STAT_REG_TICKINT | SYSTICK_STAT_REG_EN
  39:C:/Users/president/Desktop/sbx/input/src/os_base\os_task_scheduler.c **** #endif
  40:C:/Users/president/Desktop/sbx/input/src/os_base\os_task_scheduler.c **** }
  16              		.loc 1 40 1
  17 0003 90       		nop
  18 0004 5D       		popl	%ebp
GAS LISTING C:\Users\PRESID~1\AppData\Local\Temp\ccM0pvSr.s 			page 2


  19              		.cfi_restore 5
  20              		.cfi_def_cfa 4, 4
  21 0005 C3       		ret
  22              		.cfi_endproc
  23              	LFE0:
  24              		.globl	_OS_SLEEP_TASK
  26              	_OS_SLEEP_TASK:
  27              	LFB1:
  41:C:/Users/president/Desktop/sbx/input/src/os_base\os_task_scheduler.c **** 
  42:C:/Users/president/Desktop/sbx/input/src/os_base\os_task_scheduler.c **** 
  43:C:/Users/president/Desktop/sbx/input/src/os_base\os_task_scheduler.c **** void OS_SLEEP_TASK(task_t* task, timebig_t usec, scheduling_t* scheduling_task_ptr)
  44:C:/Users/president/Desktop/sbx/input/src/os_base\os_task_scheduler.c **** {
  28              		.loc 1 44 1
  29              		.cfi_startproc
  30 0006 55       		pushl	%ebp
  31              		.cfi_def_cfa_offset 8
  32              		.cfi_offset 5, -8
  33 0007 89E5     		movl	%esp, %ebp
  34              		.cfi_def_cfa_register 5
  35 0009 83EC28   		subl	$40, %esp
  45:C:/Users/president/Desktop/sbx/input/src/os_base\os_task_scheduler.c ****    timebig_t time;
  46:C:/Users/president/Desktop/sbx/input/src/os_base\os_task_scheduler.c ****    OS_GET_CURRENT_TIME(&time);
  36              		.loc 1 46 4
  37 000c 8D45E8   		leal	-24(%ebp), %eax
  38 000f 890424   		movl	%eax, (%esp)
  39 0012 E8000000 		call	_OS_GET_CURRENT_TIME
  39      00
  47:C:/Users/president/Desktop/sbx/input/src/os_base\os_task_scheduler.c ****    /* sleep Task shall do a preempt task with a defined minimum wait time, the actual wait time is 
  48:C:/Users/president/Desktop/sbx/input/src/os_base\os_task_scheduler.c ****    INT_ADD(&task->wait_act_until, &time, &usec);
  40              		.loc 1 48 12
  41 0017 8B4508   		movl	8(%ebp), %eax
  42 001a 8D5006   		leal	6(%eax), %edx
  43              		.loc 1 48 4
  44 001d 8D450C   		leal	12(%ebp), %eax
  45 0020 89442408 		movl	%eax, 8(%esp)
  46 0024 8D45E8   		leal	-24(%ebp), %eax
  47 0027 89442404 		movl	%eax, 4(%esp)
  48 002b 891424   		movl	%edx, (%esp)
  49 002e E8000000 		call	_INT_ADD
  49      00
  49:C:/Users/president/Desktop/sbx/input/src/os_base\os_task_scheduler.c ****    os_preempt_task(task,scheduling_task_ptr);
  50              		.loc 1 49 4
  51 0033 8B451C   		movl	28(%ebp), %eax
  52 0036 89442404 		movl	%eax, 4(%esp)
  53 003a 8B4508   		movl	8(%ebp), %eax
  54 003d 890424   		movl	%eax, (%esp)
  55 0040 E8B30100 		call	_os_preempt_task
  55      00
  50:C:/Users/president/Desktop/sbx/input/src/os_base\os_task_scheduler.c **** }
  56              		.loc 1 50 1
  57 0045 90       		nop
  58 0046 C9       		leave
  59              		.cfi_restore 5
  60              		.cfi_def_cfa 4, 4
  61 0047 C3       		ret
  62              		.cfi_endproc
  63              	LFE1:
GAS LISTING C:\Users\PRESID~1\AppData\Local\Temp\ccM0pvSr.s 			page 3


  64              		.globl	_OS_TASK_STATE_REQUEST
  66              	_OS_TASK_STATE_REQUEST:
  67              	LFB2:
  51:C:/Users/president/Desktop/sbx/input/src/os_base\os_task_scheduler.c **** 
  52:C:/Users/president/Desktop/sbx/input/src/os_base\os_task_scheduler.c **** unsigned_char_t OS_TASK_STATE_REQUEST(void* temp_task, task_state_t requested_state)
  53:C:/Users/president/Desktop/sbx/input/src/os_base\os_task_scheduler.c **** {
  68              		.loc 1 53 1
  69              		.cfi_startproc
  70 0048 55       		pushl	%ebp
  71              		.cfi_def_cfa_offset 8
  72              		.cfi_offset 5, -8
  73 0049 89E5     		movl	%esp, %ebp
  74              		.cfi_def_cfa_register 5
  75 004b 83EC28   		subl	$40, %esp
  54:C:/Users/president/Desktop/sbx/input/src/os_base\os_task_scheduler.c ****    unsigned_char_t RequestState = REJECTED;
  76              		.loc 1 54 20
  77 004e C645F700 		movb	$0, -9(%ebp)
  55:C:/Users/president/Desktop/sbx/input/src/os_base\os_task_scheduler.c **** 
  56:C:/Users/president/Desktop/sbx/input/src/os_base\os_task_scheduler.c ****    task_t* task = (task_t*) temp_task;
  78              		.loc 1 56 12
  79 0052 8B4508   		movl	8(%ebp), %eax
  80 0055 8945F0   		movl	%eax, -16(%ebp)
  81 0058 837D0C01 		cmpl	$1, 12(%ebp)
  82 005c 7441     		je	L4
  83 005e 837D0C00 		cmpl	$0, 12(%ebp)
  84 0062 7415     		je	L5
  85 0064 837D0C02 		cmpl	$2, 12(%ebp)
  86 0068 0F849700 		je	L6
  86      0000
  87 006e 837D0C03 		cmpl	$3, 12(%ebp)
  88 0072 7473     		je	L7
  57:C:/Users/president/Desktop/sbx/input/src/os_base\os_task_scheduler.c **** 
  58:C:/Users/president/Desktop/sbx/input/src/os_base\os_task_scheduler.c ****    switch(requested_state)
  59:C:/Users/president/Desktop/sbx/input/src/os_base\os_task_scheduler.c ****    {
  60:C:/Users/president/Desktop/sbx/input/src/os_base\os_task_scheduler.c ****    case E_TASK_UNSPECIFIED:/* 1. create new task */
  61:C:/Users/president/Desktop/sbx/input/src/os_base\os_task_scheduler.c ****    {
  62:C:/Users/president/Desktop/sbx/input/src/os_base\os_task_scheduler.c ****       switch(task->task_state)
  63:C:/Users/president/Desktop/sbx/input/src/os_base\os_task_scheduler.c ****       {
  64:C:/Users/president/Desktop/sbx/input/src/os_base\os_task_scheduler.c ****       case E_TASK_READY:
  65:C:/Users/president/Desktop/sbx/input/src/os_base\os_task_scheduler.c ****       case E_TASK_RUNNING:
  66:C:/Users/president/Desktop/sbx/input/src/os_base\os_task_scheduler.c ****       case E_TASK_SUSPENDED:
  67:C:/Users/president/Desktop/sbx/input/src/os_base\os_task_scheduler.c ****       {
  68:C:/Users/president/Desktop/sbx/input/src/os_base\os_task_scheduler.c ****          RequestState = REJECTED;
  69:C:/Users/president/Desktop/sbx/input/src/os_base\os_task_scheduler.c ****          break;
  70:C:/Users/president/Desktop/sbx/input/src/os_base\os_task_scheduler.c ****       }
  71:C:/Users/president/Desktop/sbx/input/src/os_base\os_task_scheduler.c ****       default:
  72:C:/Users/president/Desktop/sbx/input/src/os_base\os_task_scheduler.c ****       {
  73:C:/Users/president/Desktop/sbx/input/src/os_base\os_task_scheduler.c ****          task->task_state = E_TASK_UNSPECIFIED;
  74:C:/Users/president/Desktop/sbx/input/src/os_base\os_task_scheduler.c ****          RequestState = ACCEPTED;
  75:C:/Users/president/Desktop/sbx/input/src/os_base\os_task_scheduler.c ****          break;
  76:C:/Users/president/Desktop/sbx/input/src/os_base\os_task_scheduler.c ****       }
  77:C:/Users/president/Desktop/sbx/input/src/os_base\os_task_scheduler.c ****       }
  78:C:/Users/president/Desktop/sbx/input/src/os_base\os_task_scheduler.c ****       break;
  79:C:/Users/president/Desktop/sbx/input/src/os_base\os_task_scheduler.c ****    }
  80:C:/Users/president/Desktop/sbx/input/src/os_base\os_task_scheduler.c ****    case E_TASK_SUSPENDED:
  81:C:/Users/president/Desktop/sbx/input/src/os_base\os_task_scheduler.c ****    {
  82:C:/Users/president/Desktop/sbx/input/src/os_base\os_task_scheduler.c ****       switch(task->task_state)
GAS LISTING C:\Users\PRESID~1\AppData\Local\Temp\ccM0pvSr.s 			page 4


  83:C:/Users/president/Desktop/sbx/input/src/os_base\os_task_scheduler.c ****       {
  84:C:/Users/president/Desktop/sbx/input/src/os_base\os_task_scheduler.c ****       case E_TASK_UNSPECIFIED: /* 2. create task transition */
  85:C:/Users/president/Desktop/sbx/input/src/os_base\os_task_scheduler.c ****       {
  86:C:/Users/president/Desktop/sbx/input/src/os_base\os_task_scheduler.c ****          /* no checks */
  87:C:/Users/president/Desktop/sbx/input/src/os_base\os_task_scheduler.c ****          task->task_state = E_TASK_SUSPENDED;
  88:C:/Users/president/Desktop/sbx/input/src/os_base\os_task_scheduler.c ****          RequestState = ACCEPTED;
  89:C:/Users/president/Desktop/sbx/input/src/os_base\os_task_scheduler.c ****          break;
  90:C:/Users/president/Desktop/sbx/input/src/os_base\os_task_scheduler.c ****       }
  91:C:/Users/president/Desktop/sbx/input/src/os_base\os_task_scheduler.c ****       case E_TASK_RUNNING: /* 3. terminate task */
  92:C:/Users/president/Desktop/sbx/input/src/os_base\os_task_scheduler.c ****       {
  93:C:/Users/president/Desktop/sbx/input/src/os_base\os_task_scheduler.c ****          task->task_state = E_TASK_SUSPENDED;
  94:C:/Users/president/Desktop/sbx/input/src/os_base\os_task_scheduler.c ****          RequestState = ACCEPTED;
  95:C:/Users/president/Desktop/sbx/input/src/os_base\os_task_scheduler.c ****          break;
  96:C:/Users/president/Desktop/sbx/input/src/os_base\os_task_scheduler.c ****       }
  97:C:/Users/president/Desktop/sbx/input/src/os_base\os_task_scheduler.c ****       default:
  98:C:/Users/president/Desktop/sbx/input/src/os_base\os_task_scheduler.c ****       {
  99:C:/Users/president/Desktop/sbx/input/src/os_base\os_task_scheduler.c ****          /* no change in states allowed */
 100:C:/Users/president/Desktop/sbx/input/src/os_base\os_task_scheduler.c ****          OS_SET_SW_BUG(E_OS_BUG_TASKSTATE_REQUEST_DENIED, E_FUNC_TASKSTATEREQUEST);
 101:C:/Users/president/Desktop/sbx/input/src/os_base\os_task_scheduler.c ****          break;
 102:C:/Users/president/Desktop/sbx/input/src/os_base\os_task_scheduler.c ****       }
 103:C:/Users/president/Desktop/sbx/input/src/os_base\os_task_scheduler.c ****       }
 104:C:/Users/president/Desktop/sbx/input/src/os_base\os_task_scheduler.c ****       break;
 105:C:/Users/president/Desktop/sbx/input/src/os_base\os_task_scheduler.c ****    }
 106:C:/Users/president/Desktop/sbx/input/src/os_base\os_task_scheduler.c ****    case E_TASK_RUNNING:
 107:C:/Users/president/Desktop/sbx/input/src/os_base\os_task_scheduler.c ****    {
 108:C:/Users/president/Desktop/sbx/input/src/os_base\os_task_scheduler.c ****       switch(task->task_state)
 109:C:/Users/president/Desktop/sbx/input/src/os_base\os_task_scheduler.c ****       {
 110:C:/Users/president/Desktop/sbx/input/src/os_base\os_task_scheduler.c ****       case E_TASK_READY: /* 4. start task transition */
 111:C:/Users/president/Desktop/sbx/input/src/os_base\os_task_scheduler.c ****       {
 112:C:/Users/president/Desktop/sbx/input/src/os_base\os_task_scheduler.c ****          task->task_state = E_TASK_RUNNING;
 113:C:/Users/president/Desktop/sbx/input/src/os_base\os_task_scheduler.c ****          RequestState   = ACCEPTED;
 114:C:/Users/president/Desktop/sbx/input/src/os_base\os_task_scheduler.c ****          break;
 115:C:/Users/president/Desktop/sbx/input/src/os_base\os_task_scheduler.c ****       }
 116:C:/Users/president/Desktop/sbx/input/src/os_base\os_task_scheduler.c ****       default:
 117:C:/Users/president/Desktop/sbx/input/src/os_base\os_task_scheduler.c ****       {
 118:C:/Users/president/Desktop/sbx/input/src/os_base\os_task_scheduler.c ****          /* no change in states allowed */
 119:C:/Users/president/Desktop/sbx/input/src/os_base\os_task_scheduler.c ****          break;
 120:C:/Users/president/Desktop/sbx/input/src/os_base\os_task_scheduler.c ****       }
 121:C:/Users/president/Desktop/sbx/input/src/os_base\os_task_scheduler.c ****       }
 122:C:/Users/president/Desktop/sbx/input/src/os_base\os_task_scheduler.c ****       break;
 123:C:/Users/president/Desktop/sbx/input/src/os_base\os_task_scheduler.c **** 
 124:C:/Users/president/Desktop/sbx/input/src/os_base\os_task_scheduler.c ****    }
 125:C:/Users/president/Desktop/sbx/input/src/os_base\os_task_scheduler.c ****    case E_TASK_READY:
 126:C:/Users/president/Desktop/sbx/input/src/os_base\os_task_scheduler.c ****    {
 127:C:/Users/president/Desktop/sbx/input/src/os_base\os_task_scheduler.c ****       switch(task->task_state)
 128:C:/Users/president/Desktop/sbx/input/src/os_base\os_task_scheduler.c ****       {
 129:C:/Users/president/Desktop/sbx/input/src/os_base\os_task_scheduler.c ****       case E_TASK_SUSPENDED: /* activate task transition */
 130:C:/Users/president/Desktop/sbx/input/src/os_base\os_task_scheduler.c ****       {
 131:C:/Users/president/Desktop/sbx/input/src/os_base\os_task_scheduler.c ****          task->task_state = E_TASK_READY;
 132:C:/Users/president/Desktop/sbx/input/src/os_base\os_task_scheduler.c ****          RequestState   = ACCEPTED;
 133:C:/Users/president/Desktop/sbx/input/src/os_base\os_task_scheduler.c ****          break;
 134:C:/Users/president/Desktop/sbx/input/src/os_base\os_task_scheduler.c ****       }
 135:C:/Users/president/Desktop/sbx/input/src/os_base\os_task_scheduler.c ****       case E_TASK_RUNNING: /* preempt task transition */
 136:C:/Users/president/Desktop/sbx/input/src/os_base\os_task_scheduler.c ****       {
 137:C:/Users/president/Desktop/sbx/input/src/os_base\os_task_scheduler.c ****          task->task_state = E_TASK_READY;
 138:C:/Users/president/Desktop/sbx/input/src/os_base\os_task_scheduler.c ****          RequestState   = ACCEPTED;
 139:C:/Users/president/Desktop/sbx/input/src/os_base\os_task_scheduler.c ****          break;
GAS LISTING C:\Users\PRESID~1\AppData\Local\Temp\ccM0pvSr.s 			page 5


 140:C:/Users/president/Desktop/sbx/input/src/os_base\os_task_scheduler.c ****       }
 141:C:/Users/president/Desktop/sbx/input/src/os_base\os_task_scheduler.c ****       case E_TASK_UNSPECIFIED:
 142:C:/Users/president/Desktop/sbx/input/src/os_base\os_task_scheduler.c ****       {
 143:C:/Users/president/Desktop/sbx/input/src/os_base\os_task_scheduler.c ****          task->task_state = E_TASK_READY;
 144:C:/Users/president/Desktop/sbx/input/src/os_base\os_task_scheduler.c ****          RequestState = ACCEPTED;
 145:C:/Users/president/Desktop/sbx/input/src/os_base\os_task_scheduler.c ****          break;
 146:C:/Users/president/Desktop/sbx/input/src/os_base\os_task_scheduler.c ****       }
 147:C:/Users/president/Desktop/sbx/input/src/os_base\os_task_scheduler.c ****       default:
 148:C:/Users/president/Desktop/sbx/input/src/os_base\os_task_scheduler.c ****       {
 149:C:/Users/president/Desktop/sbx/input/src/os_base\os_task_scheduler.c ****          /* no change in states allowed */
 150:C:/Users/president/Desktop/sbx/input/src/os_base\os_task_scheduler.c ****          break;
 151:C:/Users/president/Desktop/sbx/input/src/os_base\os_task_scheduler.c ****       }
 152:C:/Users/president/Desktop/sbx/input/src/os_base\os_task_scheduler.c ****       }
 153:C:/Users/president/Desktop/sbx/input/src/os_base\os_task_scheduler.c ****       break;
 154:C:/Users/president/Desktop/sbx/input/src/os_base\os_task_scheduler.c ****    }
 155:C:/Users/president/Desktop/sbx/input/src/os_base\os_task_scheduler.c ****    default:
 156:C:/Users/president/Desktop/sbx/input/src/os_base\os_task_scheduler.c ****    {
 157:C:/Users/president/Desktop/sbx/input/src/os_base\os_task_scheduler.c ****       break;
  89              		.loc 1 157 7
  90 0074 E9D20000 		jmp	L11
  90      00
  91              	L5:
  62:C:/Users/president/Desktop/sbx/input/src/os_base\os_task_scheduler.c ****       {
  92              		.loc 1 62 18
  93 0079 8B45F0   		movl	-16(%ebp), %eax
  94 007c 8B407C   		movl	124(%eax), %eax
  95 007f 48       		decl	%eax
  96 0080 83F802   		cmpl	$2, %eax
  97 0083 7706     		ja	L9
  68:C:/Users/president/Desktop/sbx/input/src/os_base\os_task_scheduler.c ****          break;
  98              		.loc 1 68 23
  99 0085 C645F700 		movb	$0, -9(%ebp)
  69:C:/Users/president/Desktop/sbx/input/src/os_base\os_task_scheduler.c ****       }
 100              		.loc 1 69 10
 101 0089 EB0F     		jmp	L10
 102              	L9:
  73:C:/Users/president/Desktop/sbx/input/src/os_base\os_task_scheduler.c ****          RequestState = ACCEPTED;
 103              		.loc 1 73 27
 104 008b 8B45F0   		movl	-16(%ebp), %eax
 105 008e C7407C00 		movl	$0, 124(%eax)
 105      000000
  74:C:/Users/president/Desktop/sbx/input/src/os_base\os_task_scheduler.c ****          break;
 106              		.loc 1 74 23
 107 0095 C645F701 		movb	$1, -9(%ebp)
  75:C:/Users/president/Desktop/sbx/input/src/os_base\os_task_scheduler.c ****       }
 108              		.loc 1 75 10
 109 0099 90       		nop
 110              	L10:
  78:C:/Users/president/Desktop/sbx/input/src/os_base\os_task_scheduler.c ****    }
 111              		.loc 1 78 7
 112 009a E9AC0000 		jmp	L11
 112      00
 113              	L4:
  82:C:/Users/president/Desktop/sbx/input/src/os_base\os_task_scheduler.c ****       {
 114              		.loc 1 82 18
 115 009f 8B45F0   		movl	-16(%ebp), %eax
 116 00a2 8B407C   		movl	124(%eax), %eax
GAS LISTING C:\Users\PRESID~1\AppData\Local\Temp\ccM0pvSr.s 			page 6


 117 00a5 85C0     		testl	%eax, %eax
 118 00a7 7407     		je	L12
 119 00a9 83F803   		cmpl	$3, %eax
 120 00ac 7412     		je	L13
 121 00ae EB20     		jmp	L25
 122              	L12:
  87:C:/Users/president/Desktop/sbx/input/src/os_base\os_task_scheduler.c ****          RequestState = ACCEPTED;
 123              		.loc 1 87 27
 124 00b0 8B45F0   		movl	-16(%ebp), %eax
 125 00b3 C7407C01 		movl	$1, 124(%eax)
 125      000000
  88:C:/Users/president/Desktop/sbx/input/src/os_base\os_task_scheduler.c ****          break;
 126              		.loc 1 88 23
 127 00ba C645F701 		movb	$1, -9(%ebp)
  89:C:/Users/president/Desktop/sbx/input/src/os_base\os_task_scheduler.c ****       }
 128              		.loc 1 89 10
 129 00be EB25     		jmp	L15
 130              	L13:
  93:C:/Users/president/Desktop/sbx/input/src/os_base\os_task_scheduler.c ****          RequestState = ACCEPTED;
 131              		.loc 1 93 27
 132 00c0 8B45F0   		movl	-16(%ebp), %eax
 133 00c3 C7407C01 		movl	$1, 124(%eax)
 133      000000
  94:C:/Users/president/Desktop/sbx/input/src/os_base\os_task_scheduler.c ****          break;
 134              		.loc 1 94 23
 135 00ca C645F701 		movb	$1, -9(%ebp)
  95:C:/Users/president/Desktop/sbx/input/src/os_base\os_task_scheduler.c ****       }
 136              		.loc 1 95 10
 137 00ce EB15     		jmp	L15
 138              	L25:
 100:C:/Users/president/Desktop/sbx/input/src/os_base\os_task_scheduler.c ****          break;
 139              		.loc 1 100 10
 140 00d0 C7442404 		movl	$12, 4(%esp)
 140      0C000000 
 141 00d8 C7042401 		movl	$1, (%esp)
 141      000000
 142 00df E8000000 		call	_OS_SET_SW_BUG
 142      00
 101:C:/Users/president/Desktop/sbx/input/src/os_base\os_task_scheduler.c ****       }
 143              		.loc 1 101 10
 144 00e4 90       		nop
 145              	L15:
 104:C:/Users/president/Desktop/sbx/input/src/os_base\os_task_scheduler.c ****    }
 146              		.loc 1 104 7
 147 00e5 EB64     		jmp	L11
 148              	L7:
 108:C:/Users/president/Desktop/sbx/input/src/os_base\os_task_scheduler.c ****       {
 149              		.loc 1 108 18
 150 00e7 8B45F0   		movl	-16(%ebp), %eax
 151 00ea 8B407C   		movl	124(%eax), %eax
 152 00ed 83F802   		cmpl	$2, %eax
 153 00f0 7510     		jne	L26
 112:C:/Users/president/Desktop/sbx/input/src/os_base\os_task_scheduler.c ****          RequestState   = ACCEPTED;
 154              		.loc 1 112 27
 155 00f2 8B45F0   		movl	-16(%ebp), %eax
 156 00f5 C7407C03 		movl	$3, 124(%eax)
 156      000000
GAS LISTING C:\Users\PRESID~1\AppData\Local\Temp\ccM0pvSr.s 			page 7


 113:C:/Users/president/Desktop/sbx/input/src/os_base\os_task_scheduler.c ****          break;
 157              		.loc 1 113 25
 158 00fc C645F701 		movb	$1, -9(%ebp)
 114:C:/Users/president/Desktop/sbx/input/src/os_base\os_task_scheduler.c ****       }
 159              		.loc 1 114 10
 160 0100 EB01     		jmp	L17
 161              	L26:
 119:C:/Users/president/Desktop/sbx/input/src/os_base\os_task_scheduler.c ****       }
 162              		.loc 1 119 10
 163 0102 90       		nop
 164              	L17:
 122:C:/Users/president/Desktop/sbx/input/src/os_base\os_task_scheduler.c **** 
 165              		.loc 1 122 7
 166 0103 EB46     		jmp	L11
 167              	L6:
 127:C:/Users/president/Desktop/sbx/input/src/os_base\os_task_scheduler.c ****       {
 168              		.loc 1 127 18
 169 0105 8B45F0   		movl	-16(%ebp), %eax
 170 0108 8B407C   		movl	124(%eax), %eax
 171 010b 83F801   		cmpl	$1, %eax
 172 010e 740B     		je	L18
 173 0110 85C0     		testl	%eax, %eax
 174 0112 7427     		je	L19
 175 0114 83F803   		cmpl	$3, %eax
 176 0117 7412     		je	L20
 150:C:/Users/president/Desktop/sbx/input/src/os_base\os_task_scheduler.c ****       }
 177              		.loc 1 150 10
 178 0119 EB2F     		jmp	L22
 179              	L18:
 131:C:/Users/president/Desktop/sbx/input/src/os_base\os_task_scheduler.c ****          RequestState   = ACCEPTED;
 180              		.loc 1 131 27
 181 011b 8B45F0   		movl	-16(%ebp), %eax
 182 011e C7407C02 		movl	$2, 124(%eax)
 182      000000
 132:C:/Users/president/Desktop/sbx/input/src/os_base\os_task_scheduler.c ****          break;
 183              		.loc 1 132 25
 184 0125 C645F701 		movb	$1, -9(%ebp)
 133:C:/Users/president/Desktop/sbx/input/src/os_base\os_task_scheduler.c ****       }
 185              		.loc 1 133 10
 186 0129 EB1F     		jmp	L22
 187              	L20:
 137:C:/Users/president/Desktop/sbx/input/src/os_base\os_task_scheduler.c ****          RequestState   = ACCEPTED;
 188              		.loc 1 137 27
 189 012b 8B45F0   		movl	-16(%ebp), %eax
 190 012e C7407C02 		movl	$2, 124(%eax)
 190      000000
 138:C:/Users/president/Desktop/sbx/input/src/os_base\os_task_scheduler.c ****          break;
 191              		.loc 1 138 25
 192 0135 C645F701 		movb	$1, -9(%ebp)
 139:C:/Users/president/Desktop/sbx/input/src/os_base\os_task_scheduler.c ****       }
 193              		.loc 1 139 10
 194 0139 EB0F     		jmp	L22
 195              	L19:
 143:C:/Users/president/Desktop/sbx/input/src/os_base\os_task_scheduler.c ****          RequestState = ACCEPTED;
 196              		.loc 1 143 27
 197 013b 8B45F0   		movl	-16(%ebp), %eax
 198 013e C7407C02 		movl	$2, 124(%eax)
GAS LISTING C:\Users\PRESID~1\AppData\Local\Temp\ccM0pvSr.s 			page 8


 198      000000
 144:C:/Users/president/Desktop/sbx/input/src/os_base\os_task_scheduler.c ****          break;
 199              		.loc 1 144 23
 200 0145 C645F701 		movb	$1, -9(%ebp)
 145:C:/Users/president/Desktop/sbx/input/src/os_base\os_task_scheduler.c ****       }
 201              		.loc 1 145 10
 202 0149 90       		nop
 203              	L22:
 153:C:/Users/president/Desktop/sbx/input/src/os_base\os_task_scheduler.c ****    }
 204              		.loc 1 153 7
 205 014a 90       		nop
 206              	L11:
 158:C:/Users/president/Desktop/sbx/input/src/os_base\os_task_scheduler.c ****    }
 159:C:/Users/president/Desktop/sbx/input/src/os_base\os_task_scheduler.c ****    }
 160:C:/Users/president/Desktop/sbx/input/src/os_base\os_task_scheduler.c ****    if(RequestState == REJECTED)
 207              		.loc 1 160 6
 208 014b 807DF700 		cmpb	$0, -9(%ebp)
 209 014f 752F     		jne	L23
 161:C:/Users/president/Desktop/sbx/input/src/os_base\os_task_scheduler.c ****    {
 162:C:/Users/president/Desktop/sbx/input/src/os_base\os_task_scheduler.c ****       TASK_TRANSITION_REJECTED_TASK_ADDR  = task;
 210              		.loc 1 162 43
 211 0151 8B45F0   		movl	-16(%ebp), %eax
 212 0154 A3000000 		movl	%eax, _TASK_TRANSITION_REJECTED_TASK_ADDR
 212      00
 163:C:/Users/president/Desktop/sbx/input/src/os_base\os_task_scheduler.c ****       TASK_TRANSITION_REJECTED_STATE      = requested_state;
 213              		.loc 1 163 43
 214 0159 8B450C   		movl	12(%ebp), %eax
 215 015c A3000000 		movl	%eax, _TASK_TRANSITION_REJECTED_STATE
 215      00
 164:C:/Users/president/Desktop/sbx/input/src/os_base\os_task_scheduler.c ****       TASK_TRANSITION_CURRENT_STATE       = task->task_state;
 216              		.loc 1 164 49
 217 0161 8B45F0   		movl	-16(%ebp), %eax
 218 0164 8B407C   		movl	124(%eax), %eax
 219              		.loc 1 164 43
 220 0167 A3000000 		movl	%eax, _TASK_TRANSITION_CURRENT_STATE
 220      00
 165:C:/Users/president/Desktop/sbx/input/src/os_base\os_task_scheduler.c ****       OS_SET_SW_BUG(E_OS_BUG_TASKSTATE_REQUEST_DENIED, E_FUNC_TASKSTATEREQUEST);
 221              		.loc 1 165 7
 222 016c C7442404 		movl	$12, 4(%esp)
 222      0C000000 
 223 0174 C7042401 		movl	$1, (%esp)
 223      000000
 224 017b E8000000 		call	_OS_SET_SW_BUG
 224      00
 225              	L23:
 166:C:/Users/president/Desktop/sbx/input/src/os_base\os_task_scheduler.c ****    }
 167:C:/Users/president/Desktop/sbx/input/src/os_base\os_task_scheduler.c ****    return RequestState;
 226              		.loc 1 167 11
 227 0180 8A45F7   		movb	-9(%ebp), %al
 168:C:/Users/president/Desktop/sbx/input/src/os_base\os_task_scheduler.c **** }
 228              		.loc 1 168 1
 229 0183 C9       		leave
 230              		.cfi_restore 5
 231              		.cfi_def_cfa 4, 4
 232 0184 C3       		ret
 233              		.cfi_endproc
 234              	LFE2:
GAS LISTING C:\Users\PRESID~1\AppData\Local\Temp\ccM0pvSr.s 			page 9


 235              		.globl	_OS_CREATE_TASK
 237              	_OS_CREATE_TASK:
 238              	LFB3:
 169:C:/Users/president/Desktop/sbx/input/src/os_base\os_task_scheduler.c **** 
 170:C:/Users/president/Desktop/sbx/input/src/os_base\os_task_scheduler.c **** void OS_CREATE_TASK(task_t* task)
 171:C:/Users/president/Desktop/sbx/input/src/os_base\os_task_scheduler.c **** {
 239              		.loc 1 171 1
 240              		.cfi_startproc
 241 0185 55       		pushl	%ebp
 242              		.cfi_def_cfa_offset 8
 243              		.cfi_offset 5, -8
 244 0186 89E5     		movl	%esp, %ebp
 245              		.cfi_def_cfa_register 5
 246 0188 83EC18   		subl	$24, %esp
 172:C:/Users/president/Desktop/sbx/input/src/os_base\os_task_scheduler.c ****    /*5. unspecified --(create   )--> suspend*/
 173:C:/Users/president/Desktop/sbx/input/src/os_base\os_task_scheduler.c ****    if(task != NULL)
 247              		.loc 1 173 6
 248 018b 837D0800 		cmpl	$0, 8(%ebp)
 249 018f 7450     		je	L28
 174:C:/Users/president/Desktop/sbx/input/src/os_base\os_task_scheduler.c ****    {
 175:C:/Users/president/Desktop/sbx/input/src/os_base\os_task_scheduler.c ****       if(task->state_request != NULL)
 250              		.loc 1 175 14
 251 0191 8B4508   		movl	8(%ebp), %eax
 252 0194 8B4078   		movl	120(%eax), %eax
 253              		.loc 1 175 9
 254 0197 85C0     		testl	%eax, %eax
 255 0199 7430     		je	L29
 176:C:/Users/president/Desktop/sbx/input/src/os_base\os_task_scheduler.c ****       {
 177:C:/Users/president/Desktop/sbx/input/src/os_base\os_task_scheduler.c ****          if(task->state_request(task, E_TASK_SUSPENDED)== ACCEPTED)
 256              		.loc 1 177 17
 257 019b 8B4508   		movl	8(%ebp), %eax
 258 019e 8B4078   		movl	120(%eax), %eax
 259              		.loc 1 177 13
 260 01a1 C7442404 		movl	$1, 4(%esp)
 260      01000000 
 261 01a9 8B5508   		movl	8(%ebp), %edx
 262 01ac 891424   		movl	%edx, (%esp)
 263 01af FFD0     		call	*%eax
 264              	LVL0:
 265              		.loc 1 177 12
 266 01b1 3C01     		cmpb	$1, %al
 267 01b3 7440     		je	L33
 178:C:/Users/president/Desktop/sbx/input/src/os_base\os_task_scheduler.c ****          {
 179:C:/Users/president/Desktop/sbx/input/src/os_base\os_task_scheduler.c ****             /*QAC*/
 180:C:/Users/president/Desktop/sbx/input/src/os_base\os_task_scheduler.c ****          }
 181:C:/Users/president/Desktop/sbx/input/src/os_base\os_task_scheduler.c ****          else
 182:C:/Users/president/Desktop/sbx/input/src/os_base\os_task_scheduler.c ****          {
 183:C:/Users/president/Desktop/sbx/input/src/os_base\os_task_scheduler.c ****             OS_SET_SW_BUG(E_OS_BUG_TASKSTATE_REQUEST_DENIED, E_FUNC_CREATETASK);
 268              		.loc 1 183 13
 269 01b5 C7442404 		movl	$15, 4(%esp)
 269      0F000000 
 270 01bd C7042401 		movl	$1, (%esp)
 270      000000
 271 01c4 E8000000 		call	_OS_SET_SW_BUG
 271      00
 184:C:/Users/president/Desktop/sbx/input/src/os_base\os_task_scheduler.c ****          }
 185:C:/Users/president/Desktop/sbx/input/src/os_base\os_task_scheduler.c ****       }
GAS LISTING C:\Users\PRESID~1\AppData\Local\Temp\ccM0pvSr.s 			page 10


 186:C:/Users/president/Desktop/sbx/input/src/os_base\os_task_scheduler.c ****       else
 187:C:/Users/president/Desktop/sbx/input/src/os_base\os_task_scheduler.c ****       {
 188:C:/Users/president/Desktop/sbx/input/src/os_base\os_task_scheduler.c ****          OS_SET_SW_BUG(E_OS_BUG_NULL_POINTER, E_FUNC_CREATETASK);
 189:C:/Users/president/Desktop/sbx/input/src/os_base\os_task_scheduler.c ****       }
 190:C:/Users/president/Desktop/sbx/input/src/os_base\os_task_scheduler.c ****    }
 191:C:/Users/president/Desktop/sbx/input/src/os_base\os_task_scheduler.c ****    else
 192:C:/Users/president/Desktop/sbx/input/src/os_base\os_task_scheduler.c ****    {
 193:C:/Users/president/Desktop/sbx/input/src/os_base\os_task_scheduler.c ****       OS_SET_SW_BUG(E_OS_BUG_NULL_POINTER, E_FUNC_CREATETASK);
 194:C:/Users/president/Desktop/sbx/input/src/os_base\os_task_scheduler.c ****    }
 195:C:/Users/president/Desktop/sbx/input/src/os_base\os_task_scheduler.c **** }
 272              		.loc 1 195 1
 273 01c9 EB2A     		jmp	L33
 274              	L29:
 188:C:/Users/president/Desktop/sbx/input/src/os_base\os_task_scheduler.c ****       }
 275              		.loc 1 188 10
 276 01cb C7442404 		movl	$15, 4(%esp)
 276      0F000000 
 277 01d3 C7042402 		movl	$2, (%esp)
 277      000000
 278 01da E8000000 		call	_OS_SET_SW_BUG
 278      00
 279              		.loc 1 195 1
 280 01df EB14     		jmp	L33
 281              	L28:
 193:C:/Users/president/Desktop/sbx/input/src/os_base\os_task_scheduler.c ****    }
 282              		.loc 1 193 7
 283 01e1 C7442404 		movl	$15, 4(%esp)
 283      0F000000 
 284 01e9 C7042402 		movl	$2, (%esp)
 284      000000
 285 01f0 E8000000 		call	_OS_SET_SW_BUG
 285      00
 286              	L33:
 287              		.loc 1 195 1
 288 01f5 90       		nop
 289 01f6 C9       		leave
 290              		.cfi_restore 5
 291              		.cfi_def_cfa 4, 4
 292 01f7 C3       		ret
 293              		.cfi_endproc
 294              	LFE3:
 296              	_os_preempt_task:
 297              	LFB4:
 196:C:/Users/president/Desktop/sbx/input/src/os_base\os_task_scheduler.c **** void os_preempt_task(task_t* task, scheduling_t* scheduling_task)
 197:C:/Users/president/Desktop/sbx/input/src/os_base\os_task_scheduler.c **** {
 298              		.loc 1 197 1
 299              		.cfi_startproc
 300 01f8 55       		pushl	%ebp
 301              		.cfi_def_cfa_offset 8
 302              		.cfi_offset 5, -8
 303 01f9 89E5     		movl	%esp, %ebp
 304              		.cfi_def_cfa_register 5
 305 01fb 83EC18   		subl	$24, %esp
 198:C:/Users/president/Desktop/sbx/input/src/os_base\os_task_scheduler.c ****    /*2. running     --(preempt  )--> ready*/
 199:C:/Users/president/Desktop/sbx/input/src/os_base\os_task_scheduler.c ****    /* Preempt task
 200:C:/Users/president/Desktop/sbx/input/src/os_base\os_task_scheduler.c ****    - Disable Interrupts
 201:C:/Users/president/Desktop/sbx/input/src/os_base\os_task_scheduler.c ****    - OS_TASK_SAVE_TASK_ENVIRONMENT
GAS LISTING C:\Users\PRESID~1\AppData\Local\Temp\ccM0pvSr.s 			page 11


 202:C:/Users/president/Desktop/sbx/input/src/os_base\os_task_scheduler.c ****    - add to Schedule Queue / delete from RunQueue
 203:C:/Users/president/Desktop/sbx/input/src/os_base\os_task_scheduler.c ****    - delete active flag
 204:C:/Users/president/Desktop/sbx/input/src/os_base\os_task_scheduler.c ****    - enable Interrupts
 205:C:/Users/president/Desktop/sbx/input/src/os_base\os_task_scheduler.c ****    */
 206:C:/Users/president/Desktop/sbx/input/src/os_base\os_task_scheduler.c ****    if(task != NULL && scheduling_task != NULL)
 306              		.loc 1 206 6
 307 01fe 837D0800 		cmpl	$0, 8(%ebp)
 308 0202 0F848500 		je	L35
 308      0000
 309              		.loc 1 206 20 discriminator 1
 310 0208 837D0C00 		cmpl	$0, 12(%ebp)
 311 020c 747F     		je	L35
 207:C:/Users/president/Desktop/sbx/input/src/os_base\os_task_scheduler.c ****    {
 208:C:/Users/president/Desktop/sbx/input/src/os_base\os_task_scheduler.c ****       if(task->state_request != NULL)
 312              		.loc 1 208 14
 313 020e 8B4508   		movl	8(%ebp), %eax
 314 0211 8B4078   		movl	120(%eax), %eax
 315              		.loc 1 208 9
 316 0214 85C0     		testl	%eax, %eax
 317 0216 745F     		je	L36
 209:C:/Users/president/Desktop/sbx/input/src/os_base\os_task_scheduler.c ****       {
 210:C:/Users/president/Desktop/sbx/input/src/os_base\os_task_scheduler.c ****          if(task->state_request(task, E_TASK_READY)== ACCEPTED)
 318              		.loc 1 210 17
 319 0218 8B4508   		movl	8(%ebp), %eax
 320 021b 8B4078   		movl	120(%eax), %eax
 321              		.loc 1 210 13
 322 021e C7442404 		movl	$2, 4(%esp)
 322      02000000 
 323 0226 8B5508   		movl	8(%ebp), %edx
 324 0229 891424   		movl	%edx, (%esp)
 325 022c FFD0     		call	*%eax
 326              	LVL1:
 327              		.loc 1 210 12
 328 022e 3C01     		cmpb	$1, %al
 329 0230 752F     		jne	L37
 211:C:/Users/president/Desktop/sbx/input/src/os_base\os_task_scheduler.c ****          {
 212:C:/Users/president/Desktop/sbx/input/src/os_base\os_task_scheduler.c ****             DISABLE_INTERRUPTS();
 213:C:/Users/president/Desktop/sbx/input/src/os_base\os_task_scheduler.c ****             OS_TASK_SAVE_TASK_ENVIRONMENT(task);
 330              		.loc 1 213 13
 331 0232 8B4508   		movl	8(%ebp), %eax
 332 0235 890424   		movl	%eax, (%esp)
 333 0238 E8000000 		call	_OS_TASK_SAVE_TASK_ENVIRONMENT
 333      00
 214:C:/Users/president/Desktop/sbx/input/src/os_base\os_task_scheduler.c ****             OS_TASK_RESTORE_SYSTEM_STACK((uint8*)&OS_MAIN_STACK);
 334              		.loc 1 214 13
 335 023d C7042400 		movl	$_OS_MAIN_STACK, (%esp)
 335      000000
 336 0244 E8000000 		call	_OS_TASK_RESTORE_SYSTEM_STACK
 336      00
 215:C:/Users/president/Desktop/sbx/input/src/os_base\os_task_scheduler.c **** 
 216:C:/Users/president/Desktop/sbx/input/src/os_base\os_task_scheduler.c ****             task->active = FALSE;
 337              		.loc 1 216 26
 338 0249 8B4508   		movl	8(%ebp), %eax
 339 024c 8A10     		movb	(%eax), %dl
 340 024e 83E2FE   		andl	$-2, %edx
 341 0251 8810     		movb	%dl, (%eax)
 217:C:/Users/president/Desktop/sbx/input/src/os_base\os_task_scheduler.c ****             /* reset the prio increase for waiting */
GAS LISTING C:\Users\PRESID~1\AppData\Local\Temp\ccM0pvSr.s 			page 12


 218:C:/Users/president/Desktop/sbx/input/src/os_base\os_task_scheduler.c ****             task->current_prio = task->default_prio;
 342              		.loc 1 218 38
 343 0253 8B4508   		movl	8(%ebp), %eax
 344 0256 8A506D   		movb	109(%eax), %dl
 345              		.loc 1 218 32
 346 0259 8B4508   		movl	8(%ebp), %eax
 347 025c 88506C   		movb	%dl, 108(%eax)
 208:C:/Users/president/Desktop/sbx/input/src/os_base\os_task_scheduler.c ****       {
 348              		.loc 1 208 9
 349 025f EB40     		jmp	L40
 350              	L37:
 219:C:/Users/president/Desktop/sbx/input/src/os_base\os_task_scheduler.c ****             ENABLE_INTERRUPTS();
 220:C:/Users/president/Desktop/sbx/input/src/os_base\os_task_scheduler.c ****          }
 221:C:/Users/president/Desktop/sbx/input/src/os_base\os_task_scheduler.c ****          else
 222:C:/Users/president/Desktop/sbx/input/src/os_base\os_task_scheduler.c ****          {
 223:C:/Users/president/Desktop/sbx/input/src/os_base\os_task_scheduler.c ****             OS_SET_SW_BUG(E_OS_BUG_TASKSTATE_REQUEST_DENIED, E_FUNC_PREEMPT_TASK);
 351              		.loc 1 223 13
 352 0261 C7442404 		movl	$13, 4(%esp)
 352      0D000000 
 353 0269 C7042401 		movl	$1, (%esp)
 353      000000
 354 0270 E8000000 		call	_OS_SET_SW_BUG
 354      00
 208:C:/Users/president/Desktop/sbx/input/src/os_base\os_task_scheduler.c ****       {
 355              		.loc 1 208 9
 356 0275 EB2A     		jmp	L40
 357              	L36:
 224:C:/Users/president/Desktop/sbx/input/src/os_base\os_task_scheduler.c ****          }
 225:C:/Users/president/Desktop/sbx/input/src/os_base\os_task_scheduler.c ****       }
 226:C:/Users/president/Desktop/sbx/input/src/os_base\os_task_scheduler.c ****       else
 227:C:/Users/president/Desktop/sbx/input/src/os_base\os_task_scheduler.c ****       {
 228:C:/Users/president/Desktop/sbx/input/src/os_base\os_task_scheduler.c ****          OS_SET_SW_BUG(E_OS_BUG_NULL_POINTER, E_FUNC_PREEMPT_TASK);
 358              		.loc 1 228 10
 359 0277 C7442404 		movl	$13, 4(%esp)
 359      0D000000 
 360 027f C7042402 		movl	$2, (%esp)
 360      000000
 361 0286 E8000000 		call	_OS_SET_SW_BUG
 361      00
 208:C:/Users/president/Desktop/sbx/input/src/os_base\os_task_scheduler.c ****       {
 362              		.loc 1 208 9
 363 028b EB14     		jmp	L40
 364              	L35:
 229:C:/Users/president/Desktop/sbx/input/src/os_base\os_task_scheduler.c ****       }
 230:C:/Users/president/Desktop/sbx/input/src/os_base\os_task_scheduler.c ****    }
 231:C:/Users/president/Desktop/sbx/input/src/os_base\os_task_scheduler.c ****    else
 232:C:/Users/president/Desktop/sbx/input/src/os_base\os_task_scheduler.c ****    {
 233:C:/Users/president/Desktop/sbx/input/src/os_base\os_task_scheduler.c ****       OS_SET_SW_BUG(E_OS_BUG_NULL_POINTER, E_FUNC_PREEMPT_TASK);
 365              		.loc 1 233 7
 366 028d C7442404 		movl	$13, 4(%esp)
 366      0D000000 
 367 0295 C7042402 		movl	$2, (%esp)
 367      000000
 368 029c E8000000 		call	_OS_SET_SW_BUG
 368      00
 369              	L40:
 234:C:/Users/president/Desktop/sbx/input/src/os_base\os_task_scheduler.c ****    }
GAS LISTING C:\Users\PRESID~1\AppData\Local\Temp\ccM0pvSr.s 			page 13


 235:C:/Users/president/Desktop/sbx/input/src/os_base\os_task_scheduler.c **** }
 370              		.loc 1 235 1
 371 02a1 90       		nop
 372 02a2 C9       		leave
 373              		.cfi_restore 5
 374              		.cfi_def_cfa 4, 4
 375 02a3 C3       		ret
 376              		.cfi_endproc
 377              	LFE4:
 378              		.globl	_OS_ACTIVATE_TASK
 380              	_OS_ACTIVATE_TASK:
 381              	LFB5:
 236:C:/Users/president/Desktop/sbx/input/src/os_base\os_task_scheduler.c **** 
 237:C:/Users/president/Desktop/sbx/input/src/os_base\os_task_scheduler.c **** void OS_ACTIVATE_TASK(task_t* task)
 238:C:/Users/president/Desktop/sbx/input/src/os_base\os_task_scheduler.c **** {
 382              		.loc 1 238 1
 383              		.cfi_startproc
 384 02a4 55       		pushl	%ebp
 385              		.cfi_def_cfa_offset 8
 386              		.cfi_offset 5, -8
 387 02a5 89E5     		movl	%esp, %ebp
 388              		.cfi_def_cfa_register 5
 389 02a7 83EC18   		subl	$24, %esp
 239:C:/Users/president/Desktop/sbx/input/src/os_base\os_task_scheduler.c ****    /*
 240:C:/Users/president/Desktop/sbx/input/src/os_base\os_task_scheduler.c ****    Activate Task:
 241:C:/Users/president/Desktop/sbx/input/src/os_base\os_task_scheduler.c ****    - Disable Interrupts
 242:C:/Users/president/Desktop/sbx/input/src/os_base\os_task_scheduler.c ****    - Add to schedule Queue
 243:C:/Users/president/Desktop/sbx/input/src/os_base\os_task_scheduler.c ****    - Enable Interrupts
 244:C:/Users/president/Desktop/sbx/input/src/os_base\os_task_scheduler.c **** 
 245:C:/Users/president/Desktop/sbx/input/src/os_base\os_task_scheduler.c ****    in case of valid request, the content, where the "task_t* task" is point to is stored in TASK_RU
 246:C:/Users/president/Desktop/sbx/input/src/os_base\os_task_scheduler.c ****    */
 247:C:/Users/president/Desktop/sbx/input/src/os_base\os_task_scheduler.c ****    if(task != NULL)
 390              		.loc 1 247 6
 391 02aa 837D0800 		cmpl	$0, 8(%ebp)
 392 02ae 0F84D500 		je	L51
 392      0000
 248:C:/Users/president/Desktop/sbx/input/src/os_base\os_task_scheduler.c ****    {
 249:C:/Users/president/Desktop/sbx/input/src/os_base\os_task_scheduler.c ****       if(task->state_request(task, E_TASK_READY)==ACCEPTED)
 393              		.loc 1 249 14
 394 02b4 8B4508   		movl	8(%ebp), %eax
 395 02b7 8B4078   		movl	120(%eax), %eax
 396              		.loc 1 249 10
 397 02ba C7442404 		movl	$2, 4(%esp)
 397      02000000 
 398 02c2 8B5508   		movl	8(%ebp), %edx
 399 02c5 891424   		movl	%edx, (%esp)
 400 02c8 FFD0     		call	*%eax
 401              	LVL2:
 402              		.loc 1 249 9
 403 02ca 3C01     		cmpb	$1, %al
 404 02cc 0F85A100 		jne	L43
 404      0000
 250:C:/Users/president/Desktop/sbx/input/src/os_base\os_task_scheduler.c ****       {
 251:C:/Users/president/Desktop/sbx/input/src/os_base\os_task_scheduler.c ****          DISABLE_INTERRUPTS();
 252:C:/Users/president/Desktop/sbx/input/src/os_base\os_task_scheduler.c ****          /* 3. suspended to ready (add to runqueue) */
 253:C:/Users/president/Desktop/sbx/input/src/os_base\os_task_scheduler.c ****          if(task->idle_task == FALSE)
 405              		.loc 1 253 29
GAS LISTING C:\Users\PRESID~1\AppData\Local\Temp\ccM0pvSr.s 			page 14


 406 02d2 8B4508   		movl	8(%ebp), %eax
 407 02d5 8A00     		movb	(%eax), %al
 408 02d7 83E004   		andl	$4, %eax
 409              		.loc 1 253 12
 410 02da 84C0     		testb	%al, %al
 411 02dc 0F858400 		jne	L44
 411      0000
 254:C:/Users/president/Desktop/sbx/input/src/os_base\os_task_scheduler.c ****          {
 255:C:/Users/president/Desktop/sbx/input/src/os_base\os_task_scheduler.c ****             if( (task->active == FALSE)
 412              		.loc 1 255 31
 413 02e2 8B4508   		movl	8(%ebp), %eax
 414 02e5 8A00     		movb	(%eax), %al
 415 02e7 83E001   		andl	$1, %eax
 416              		.loc 1 255 15
 417 02ea 84C0     		testb	%al, %al
 418 02ec 741C     		je	L45
 256:C:/Users/president/Desktop/sbx/input/src/os_base\os_task_scheduler.c ****                   || ( (task->active == TRUE) && (task->nr_of_ins_allowed > task->nr_of_ins_activat
 419              		.loc 1 256 38
 420 02ee 8B4508   		movl	8(%ebp), %eax
 421 02f1 8A00     		movb	(%eax), %al
 422 02f3 83E001   		andl	$1, %eax
 423              		.loc 1 256 19
 424 02f6 84C0     		testb	%al, %al
 425 02f8 7456     		je	L46
 426              		.loc 1 256 55 discriminator 1
 427 02fa 8B4508   		movl	8(%ebp), %eax
 428 02fd 8A5004   		movb	4(%eax), %dl
 429              		.loc 1 256 81 discriminator 1
 430 0300 8B4508   		movl	8(%ebp), %eax
 431 0303 8A4005   		movb	5(%eax), %al
 432              		.loc 1 256 47 discriminator 1
 433 0306 38C2     		cmpb	%al, %dl
 434 0308 7646     		jbe	L46
 435              	L45:
 257:C:/Users/president/Desktop/sbx/input/src/os_base\os_task_scheduler.c ****               )
 258:C:/Users/president/Desktop/sbx/input/src/os_base\os_task_scheduler.c ****             {
 259:C:/Users/president/Desktop/sbx/input/src/os_base\os_task_scheduler.c ****                /* only activate if allowed by rule */
 260:C:/Users/president/Desktop/sbx/input/src/os_base\os_task_scheduler.c ****                task = ADD_TO_TASK_QUEUE(task);
 436              		.loc 1 260 23
 437 030a 8B4508   		movl	8(%ebp), %eax
 438 030d 890424   		movl	%eax, (%esp)
 439 0310 E8000000 		call	_ADD_TO_TASK_QUEUE
 439      00
 440 0315 894508   		movl	%eax, 8(%ebp)
 261:C:/Users/president/Desktop/sbx/input/src/os_base\os_task_scheduler.c ****                ADD_TO_SCHEDULING_QUEUE(task);
 441              		.loc 1 261 16
 442 0318 8B4508   		movl	8(%ebp), %eax
 443 031b 890424   		movl	%eax, (%esp)
 444 031e E8000000 		call	_ADD_TO_SCHEDULING_QUEUE
 444      00
 262:C:/Users/president/Desktop/sbx/input/src/os_base\os_task_scheduler.c ****                if(task != NULL)
 445              		.loc 1 262 18
 446 0323 837D0800 		cmpl	$0, 8(%ebp)
 447 0327 7411     		je	L47
 263:C:/Users/president/Desktop/sbx/input/src/os_base\os_task_scheduler.c ****                {
 264:C:/Users/president/Desktop/sbx/input/src/os_base\os_task_scheduler.c ****                   task->nr_of_ins_activated++;
 448              		.loc 1 264 23
GAS LISTING C:\Users\PRESID~1\AppData\Local\Temp\ccM0pvSr.s 			page 15


 449 0329 8B4508   		movl	8(%ebp), %eax
 450 032c 8A4005   		movb	5(%eax), %al
 451              		.loc 1 264 44
 452 032f 8D5001   		leal	1(%eax), %edx
 453 0332 8B4508   		movl	8(%ebp), %eax
 454 0335 885005   		movb	%dl, 5(%eax)
 262:C:/Users/president/Desktop/sbx/input/src/os_base\os_task_scheduler.c ****                if(task != NULL)
 455              		.loc 1 262 18
 456 0338 EB4F     		jmp	L42
 457              	L47:
 265:C:/Users/president/Desktop/sbx/input/src/os_base\os_task_scheduler.c ****                }
 266:C:/Users/president/Desktop/sbx/input/src/os_base\os_task_scheduler.c ****                else
 267:C:/Users/president/Desktop/sbx/input/src/os_base\os_task_scheduler.c ****                {
 268:C:/Users/president/Desktop/sbx/input/src/os_base\os_task_scheduler.c ****                   OS_SET_SW_BUG(E_OS_BUG_NULL_POINTER,E_FUNC_ACTIVATETASK);
 458              		.loc 1 268 19
 459 033a C7442404 		movl	$11, 4(%esp)
 459      0B000000 
 460 0342 C7042402 		movl	$2, (%esp)
 460      000000
 461 0349 E8000000 		call	_OS_SET_SW_BUG
 461      00
 262:C:/Users/president/Desktop/sbx/input/src/os_base\os_task_scheduler.c ****                {
 462              		.loc 1 262 18
 463 034e EB39     		jmp	L42
 464              	L46:
 269:C:/Users/president/Desktop/sbx/input/src/os_base\os_task_scheduler.c ****                }
 270:C:/Users/president/Desktop/sbx/input/src/os_base\os_task_scheduler.c ****             }
 271:C:/Users/president/Desktop/sbx/input/src/os_base\os_task_scheduler.c ****             else
 272:C:/Users/president/Desktop/sbx/input/src/os_base\os_task_scheduler.c ****             {
 273:C:/Users/president/Desktop/sbx/input/src/os_base\os_task_scheduler.c ****                /* multiple activation bug occured */
 274:C:/Users/president/Desktop/sbx/input/src/os_base\os_task_scheduler.c ****                OS_SET_SW_BUG(E_OS_BUG_TASKSTATE_REQUEST_DENIED, E_FUNC_ACTIVATETASK);
 465              		.loc 1 274 16
 466 0350 C7442404 		movl	$11, 4(%esp)
 466      0B000000 
 467 0358 C7042401 		movl	$1, (%esp)
 467      000000
 468 035f E8000000 		call	_OS_SET_SW_BUG
 468      00
 275:C:/Users/president/Desktop/sbx/input/src/os_base\os_task_scheduler.c ****             }
 276:C:/Users/president/Desktop/sbx/input/src/os_base\os_task_scheduler.c ****          }
 277:C:/Users/president/Desktop/sbx/input/src/os_base\os_task_scheduler.c ****          else
 278:C:/Users/president/Desktop/sbx/input/src/os_base\os_task_scheduler.c ****          {
 279:C:/Users/president/Desktop/sbx/input/src/os_base\os_task_scheduler.c ****             ADD_TO_IDLE_TASK_QUEUE(task);
 280:C:/Users/president/Desktop/sbx/input/src/os_base\os_task_scheduler.c ****          }
 281:C:/Users/president/Desktop/sbx/input/src/os_base\os_task_scheduler.c ****          ENABLE_INTERRUPTS();
 282:C:/Users/president/Desktop/sbx/input/src/os_base\os_task_scheduler.c ****       }
 283:C:/Users/president/Desktop/sbx/input/src/os_base\os_task_scheduler.c ****       else
 284:C:/Users/president/Desktop/sbx/input/src/os_base\os_task_scheduler.c ****       {
 285:C:/Users/president/Desktop/sbx/input/src/os_base\os_task_scheduler.c ****          OS_SET_SW_BUG(E_OS_BUG_TASKSTATE_REQUEST_DENIED, E_FUNC_ACTIVATETASK);
 286:C:/Users/president/Desktop/sbx/input/src/os_base\os_task_scheduler.c ****       }
 287:C:/Users/president/Desktop/sbx/input/src/os_base\os_task_scheduler.c ****    }
 288:C:/Users/president/Desktop/sbx/input/src/os_base\os_task_scheduler.c **** }
 469              		.loc 1 288 1
 470 0364 EB23     		jmp	L51
 471              	L44:
 279:C:/Users/president/Desktop/sbx/input/src/os_base\os_task_scheduler.c ****          }
 472              		.loc 1 279 13
GAS LISTING C:\Users\PRESID~1\AppData\Local\Temp\ccM0pvSr.s 			page 16


 473 0366 8B4508   		movl	8(%ebp), %eax
 474 0369 890424   		movl	%eax, (%esp)
 475 036c E8000000 		call	_ADD_TO_IDLE_TASK_QUEUE
 475      00
 476              		.loc 1 288 1
 477 0371 EB16     		jmp	L51
 478              	L43:
 285:C:/Users/president/Desktop/sbx/input/src/os_base\os_task_scheduler.c ****       }
 479              		.loc 1 285 10
 480 0373 C7442404 		movl	$11, 4(%esp)
 480      0B000000 
 481 037b C7042401 		movl	$1, (%esp)
 481      000000
 482 0382 E8000000 		call	_OS_SET_SW_BUG
 482      00
 483              		.loc 1 288 1
 484 0387 EB00     		jmp	L51
 485              	L42:
 486              	L51:
 487 0389 90       		nop
 488 038a C9       		leave
 489              		.cfi_restore 5
 490              		.cfi_def_cfa 4, 4
 491 038b C3       		ret
 492              		.cfi_endproc
 493              	LFE5:
 494              		.globl	_OS_START_TASK
 496              	_OS_START_TASK:
 497              	LFB6:
 289:C:/Users/president/Desktop/sbx/input/src/os_base\os_task_scheduler.c **** void OS_START_TASK(task_t* task, scheduling_t* scheduling_task)
 290:C:/Users/president/Desktop/sbx/input/src/os_base\os_task_scheduler.c **** {
 498              		.loc 1 290 1
 499              		.cfi_startproc
 500 038c 55       		pushl	%ebp
 501              		.cfi_def_cfa_offset 8
 502              		.cfi_offset 5, -8
 503 038d 89E5     		movl	%esp, %ebp
 504              		.cfi_def_cfa_register 5
 505 038f 83EC28   		subl	$40, %esp
 291:C:/Users/president/Desktop/sbx/input/src/os_base\os_task_scheduler.c ****    /* OS_START_TASK
 292:C:/Users/president/Desktop/sbx/input/src/os_base\os_task_scheduler.c ****    - Disable interrupts
 293:C:/Users/president/Desktop/sbx/input/src/os_base\os_task_scheduler.c ****    - restore Environment
 294:C:/Users/president/Desktop/sbx/input/src/os_base\os_task_scheduler.c ****    - enable interrupts
 295:C:/Users/president/Desktop/sbx/input/src/os_base\os_task_scheduler.c **** 
 296:C:/Users/president/Desktop/sbx/input/src/os_base\os_task_scheduler.c ****    - Start Task
 297:C:/Users/president/Desktop/sbx/input/src/os_base\os_task_scheduler.c ****     */
 298:C:/Users/president/Desktop/sbx/input/src/os_base\os_task_scheduler.c ****    timebig_t time;
 299:C:/Users/president/Desktop/sbx/input/src/os_base\os_task_scheduler.c **** 
 300:C:/Users/president/Desktop/sbx/input/src/os_base\os_task_scheduler.c ****    if( (task != NULL) && (scheduling_task != NULL)&& ((task->task_queued != FALSE)||(task->idle_tas
 506              		.loc 1 300 6
 507 0392 837D0800 		cmpl	$0, 8(%ebp)
 508 0396 0F840B01 		je	L59
 508      0000
 509              		.loc 1 300 23 discriminator 1
 510 039c 837D0C00 		cmpl	$0, 12(%ebp)
 511 03a0 0F840101 		je	L59
 511      0000
GAS LISTING C:\Users\PRESID~1\AppData\Local\Temp\ccM0pvSr.s 			page 17


 512              		.loc 1 300 74 discriminator 2
 513 03a6 8B4508   		movl	8(%ebp), %eax
 514 03a9 8A00     		movb	(%eax), %al
 515 03ab 83E002   		andl	$2, %eax
 516              		.loc 1 300 51 discriminator 2
 517 03ae 84C0     		testb	%al, %al
 518 03b0 7510     		jne	L54
 519              		.loc 1 300 102 discriminator 3
 520 03b2 8B4508   		movl	8(%ebp), %eax
 521 03b5 8A00     		movb	(%eax), %al
 522 03b7 83E004   		andl	$4, %eax
 523              		.loc 1 300 83 discriminator 3
 524 03ba 84C0     		testb	%al, %al
 525 03bc 0F84E500 		je	L59
 525      0000
 526              	L54:
 301:C:/Users/president/Desktop/sbx/input/src/os_base\os_task_scheduler.c ****    {
 302:C:/Users/president/Desktop/sbx/input/src/os_base\os_task_scheduler.c ****       if(task->state_request != NULL)
 527              		.loc 1 302 14
 528 03c2 8B4508   		movl	8(%ebp), %eax
 529 03c5 8B4078   		movl	120(%eax), %eax
 530              		.loc 1 302 9
 531 03c8 85C0     		testl	%eax, %eax
 532 03ca 0F84C300 		je	L55
 532      0000
 303:C:/Users/president/Desktop/sbx/input/src/os_base\os_task_scheduler.c ****       {
 304:C:/Users/president/Desktop/sbx/input/src/os_base\os_task_scheduler.c ****          if(task->state_request(task, E_TASK_RUNNING)== ACCEPTED)
 533              		.loc 1 304 17
 534 03d0 8B4508   		movl	8(%ebp), %eax
 535 03d3 8B4078   		movl	120(%eax), %eax
 536              		.loc 1 304 13
 537 03d6 C7442404 		movl	$3, 4(%esp)
 537      03000000 
 538 03de 8B5508   		movl	8(%ebp), %edx
 539 03e1 891424   		movl	%edx, (%esp)
 540 03e4 FFD0     		call	*%eax
 541              	LVL3:
 542              		.loc 1 304 12
 543 03e6 3C01     		cmpb	$1, %al
 544 03e8 0F858F00 		jne	L56
 544      0000
 305:C:/Users/president/Desktop/sbx/input/src/os_base\os_task_scheduler.c ****          {
 306:C:/Users/president/Desktop/sbx/input/src/os_base\os_task_scheduler.c ****             DISABLE_INTERRUPTS();
 307:C:/Users/president/Desktop/sbx/input/src/os_base\os_task_scheduler.c ****             task->active =  TRUE;
 545              		.loc 1 307 26
 546 03ee 8B4508   		movl	8(%ebp), %eax
 547 03f1 8A10     		movb	(%eax), %dl
 548 03f3 83CA01   		orl	$1, %edx
 549 03f6 8810     		movb	%dl, (%eax)
 308:C:/Users/president/Desktop/sbx/input/src/os_base\os_task_scheduler.c ****             ASSIGN_NULL(&task->wait_time);
 550              		.loc 1 308 25
 551 03f8 8B4508   		movl	8(%ebp), %eax
 552 03fb 83C016   		addl	$22, %eax
 553              		.loc 1 308 13
 554 03fe 890424   		movl	%eax, (%esp)
 555 0401 E8000000 		call	_ASSIGN_NULL
 555      00
GAS LISTING C:\Users\PRESID~1\AppData\Local\Temp\ccM0pvSr.s 			page 18


 309:C:/Users/president/Desktop/sbx/input/src/os_base\os_task_scheduler.c ****             task->current_prio = task->default_prio;
 556              		.loc 1 309 38
 557 0406 8B4508   		movl	8(%ebp), %eax
 558 0409 8A506D   		movb	109(%eax), %dl
 559              		.loc 1 309 32
 560 040c 8B4508   		movl	8(%ebp), %eax
 561 040f 88506C   		movb	%dl, 108(%eax)
 310:C:/Users/president/Desktop/sbx/input/src/os_base\os_task_scheduler.c ****             OS_TASK_SAVE_SYSTEM_STACK((uint8*)&OS_MAIN_STACK);
 562              		.loc 1 310 13
 563 0412 C7042400 		movl	$_OS_MAIN_STACK, (%esp)
 563      000000
 564 0419 E8000000 		call	_OS_TASK_SAVE_SYSTEM_STACK
 564      00
 311:C:/Users/president/Desktop/sbx/input/src/os_base\os_task_scheduler.c ****             OS_TASK_RESTORETASK_ENVIRONMENT(task);
 565              		.loc 1 311 13
 566 041e 8B4508   		movl	8(%ebp), %eax
 567 0421 890424   		movl	%eax, (%esp)
 568 0424 E8000000 		call	_OS_TASK_RESTORETASK_ENVIRONMENT
 568      00
 312:C:/Users/president/Desktop/sbx/input/src/os_base\os_task_scheduler.c ****             OS_GET_CURRENT_TIME(&time);
 569              		.loc 1 312 13
 570 0429 8D45E8   		leal	-24(%ebp), %eax
 571 042c 890424   		movl	%eax, (%esp)
 572 042f E8000000 		call	_OS_GET_CURRENT_TIME
 572      00
 313:C:/Users/president/Desktop/sbx/input/src/os_base\os_task_scheduler.c ****             ASSIGN(&task->start_time, &time);
 573              		.loc 1 313 20
 574 0434 8B4508   		movl	8(%ebp), %eax
 575 0437 8D505C   		leal	92(%eax), %edx
 576              		.loc 1 313 13
 577 043a 8D45E8   		leal	-24(%ebp), %eax
 578 043d 89442404 		movl	%eax, 4(%esp)
 579 0441 891424   		movl	%edx, (%esp)
 580 0444 E8000000 		call	_ASSIGN
 580      00
 314:C:/Users/president/Desktop/sbx/input/src/os_base\os_task_scheduler.c ****             ENABLE_INTERRUPTS();
 315:C:/Users/president/Desktop/sbx/input/src/os_base\os_task_scheduler.c **** 
 316:C:/Users/president/Desktop/sbx/input/src/os_base\os_task_scheduler.c ****             /* task execution shall not happen with disabled interrupts */
 317:C:/Users/president/Desktop/sbx/input/src/os_base\os_task_scheduler.c ****             SET_RUNNING_TASK(task, scheduling_task);
 581              		.loc 1 317 13
 582 0449 8B450C   		movl	12(%ebp), %eax
 583 044c 89442404 		movl	%eax, 4(%esp)
 584 0450 8B4508   		movl	8(%ebp), %eax
 585 0453 890424   		movl	%eax, (%esp)
 586 0456 E8000000 		call	_SET_RUNNING_TASK
 586      00
 318:C:/Users/president/Desktop/sbx/input/src/os_base\os_task_scheduler.c ****             /* change to user mode... */
 319:C:/Users/president/Desktop/sbx/input/src/os_base\os_task_scheduler.c ****             if(task->privilige_mode == E_PRIVILIGEMODE_UNPRIVILIGED_THREAD_MODE)
 587              		.loc 1 319 20
 588 045b 8B4508   		movl	8(%ebp), %eax
 589 045e 8B80A800 		movl	168(%eax), %eax
 589      0000
 590              		.loc 1 319 15
 591 0464 85C0     		testl	%eax, %eax
 592 0466 7505     		jne	L57
 320:C:/Users/president/Desktop/sbx/input/src/os_base\os_task_scheduler.c ****             {
 321:C:/Users/president/Desktop/sbx/input/src/os_base\os_task_scheduler.c ****                LLF_CHANGE_TO_UNPRIVILIGED_THREAD_MODE();
GAS LISTING C:\Users\PRESID~1\AppData\Local\Temp\ccM0pvSr.s 			page 19


 593              		.loc 1 321 16
 594 0468 E8000000 		call	_LLF_CHANGE_TO_UNPRIVILIGED_THREAD_MODE
 594      00
 595              	L57:
 322:C:/Users/president/Desktop/sbx/input/src/os_base\os_task_scheduler.c ****             }
 323:C:/Users/president/Desktop/sbx/input/src/os_base\os_task_scheduler.c **** 
 324:C:/Users/president/Desktop/sbx/input/src/os_base\os_task_scheduler.c ****             /* call the task entry function */
 325:C:/Users/president/Desktop/sbx/input/src/os_base\os_task_scheduler.c ****             task->fp(task);
 596              		.loc 1 325 17
 597 046d 8B4508   		movl	8(%ebp), %eax
 598 0470 8B4074   		movl	116(%eax), %eax
 599              		.loc 1 325 13
 600 0473 8B5508   		movl	8(%ebp), %edx
 601 0476 891424   		movl	%edx, (%esp)
 602 0479 FFD0     		call	*%eax
 603              	LVL4:
 326:C:/Users/president/Desktop/sbx/input/src/os_base\os_task_scheduler.c ****          }
 327:C:/Users/president/Desktop/sbx/input/src/os_base\os_task_scheduler.c ****          else
 328:C:/Users/president/Desktop/sbx/input/src/os_base\os_task_scheduler.c ****          {
 329:C:/Users/president/Desktop/sbx/input/src/os_base\os_task_scheduler.c ****             OS_SET_SW_BUG(E_OS_BUG_TASKSTATE_REQUEST_DENIED, E_FUNC_STARTTASK);
 330:C:/Users/president/Desktop/sbx/input/src/os_base\os_task_scheduler.c ****          }
 331:C:/Users/president/Desktop/sbx/input/src/os_base\os_task_scheduler.c ****       }
 332:C:/Users/president/Desktop/sbx/input/src/os_base\os_task_scheduler.c ****       else
 333:C:/Users/president/Desktop/sbx/input/src/os_base\os_task_scheduler.c ****       {
 334:C:/Users/president/Desktop/sbx/input/src/os_base\os_task_scheduler.c ****          OS_SET_SW_BUG(E_OS_BUG_NULL_POINTER, E_FUNC_STARTTASK);
 335:C:/Users/president/Desktop/sbx/input/src/os_base\os_task_scheduler.c ****       }
 336:C:/Users/president/Desktop/sbx/input/src/os_base\os_task_scheduler.c ****    }
 337:C:/Users/president/Desktop/sbx/input/src/os_base\os_task_scheduler.c ****    /* allowed in case of empty QUEUE elements (queue elements which have no activate_task yet recei
 338:C:/Users/president/Desktop/sbx/input/src/os_base\os_task_scheduler.c ****    else
 339:C:/Users/president/Desktop/sbx/input/src/os_base\os_task_scheduler.c ****    {
 340:C:/Users/president/Desktop/sbx/input/src/os_base\os_task_scheduler.c ****        OS_SET_SW_BUG(E_OS_BUG_NULL_POINTER, E_FUNC_STARTTASK);
 341:C:/Users/president/Desktop/sbx/input/src/os_base\os_task_scheduler.c ****    }
 342:C:/Users/president/Desktop/sbx/input/src/os_base\os_task_scheduler.c ****    */
 343:C:/Users/president/Desktop/sbx/input/src/os_base\os_task_scheduler.c **** }
 604              		.loc 1 343 1
 605 047b EB2A     		jmp	L59
 606              	L56:
 329:C:/Users/president/Desktop/sbx/input/src/os_base\os_task_scheduler.c ****          }
 607              		.loc 1 329 13
 608 047d C7442404 		movl	$6, 4(%esp)
 608      06000000 
 609 0485 C7042401 		movl	$1, (%esp)
 609      000000
 610 048c E8000000 		call	_OS_SET_SW_BUG
 610      00
 611              		.loc 1 343 1
 612 0491 EB14     		jmp	L59
 613              	L55:
 334:C:/Users/president/Desktop/sbx/input/src/os_base\os_task_scheduler.c ****       }
 614              		.loc 1 334 10
 615 0493 C7442404 		movl	$6, 4(%esp)
 615      06000000 
 616 049b C7042402 		movl	$2, (%esp)
 616      000000
 617 04a2 E8000000 		call	_OS_SET_SW_BUG
 617      00
 618              	L59:
GAS LISTING C:\Users\PRESID~1\AppData\Local\Temp\ccM0pvSr.s 			page 20


 619              		.loc 1 343 1
 620 04a7 90       		nop
 621 04a8 C9       		leave
 622              		.cfi_restore 5
 623              		.cfi_def_cfa 4, 4
 624 04a9 C3       		ret
 625              		.cfi_endproc
 626              	LFE6:
 627              		.globl	_OS_TERMINATE_TASK
 629              	_OS_TERMINATE_TASK:
 630              	LFB7:
 344:C:/Users/president/Desktop/sbx/input/src/os_base\os_task_scheduler.c **** void OS_TERMINATE_TASK(task_t* task, scheduling_t* scheduling_task)
 345:C:/Users/president/Desktop/sbx/input/src/os_base\os_task_scheduler.c **** {
 631              		.loc 1 345 1
 632              		.cfi_startproc
 633 04aa 55       		pushl	%ebp
 634              		.cfi_def_cfa_offset 8
 635              		.cfi_offset 5, -8
 636 04ab 89E5     		movl	%esp, %ebp
 637              		.cfi_def_cfa_register 5
 638 04ad 83EC18   		subl	$24, %esp
 346:C:/Users/president/Desktop/sbx/input/src/os_base\os_task_scheduler.c ****    /* Preempt task
 347:C:/Users/president/Desktop/sbx/input/src/os_base\os_task_scheduler.c ****    - Disable Interrupts
 348:C:/Users/president/Desktop/sbx/input/src/os_base\os_task_scheduler.c ****    - OS_TASK_SAVE_TASK_ENVIRONMENT
 349:C:/Users/president/Desktop/sbx/input/src/os_base\os_task_scheduler.c ****    - add to Schedule Queue / delete from RunQueue
 350:C:/Users/president/Desktop/sbx/input/src/os_base\os_task_scheduler.c ****    - delete active flag
 351:C:/Users/president/Desktop/sbx/input/src/os_base\os_task_scheduler.c ****    - enable Interrupts
 352:C:/Users/president/Desktop/sbx/input/src/os_base\os_task_scheduler.c ****    */
 353:C:/Users/president/Desktop/sbx/input/src/os_base\os_task_scheduler.c ****    if(task != NULL && scheduling_task != NULL)
 639              		.loc 1 353 6
 640 04b0 837D0800 		cmpl	$0, 8(%ebp)
 641 04b4 0F849F00 		je	L61
 641      0000
 642              		.loc 1 353 20 discriminator 1
 643 04ba 837D0C00 		cmpl	$0, 12(%ebp)
 644 04be 0F849500 		je	L61
 644      0000
 354:C:/Users/president/Desktop/sbx/input/src/os_base\os_task_scheduler.c ****    {
 355:C:/Users/president/Desktop/sbx/input/src/os_base\os_task_scheduler.c ****       if(task->state_request != NULL)
 645              		.loc 1 355 14
 646 04c4 8B4508   		movl	8(%ebp), %eax
 647 04c7 8B4078   		movl	120(%eax), %eax
 648              		.loc 1 355 9
 649 04ca 85C0     		testl	%eax, %eax
 650 04cc 7475     		je	L62
 356:C:/Users/president/Desktop/sbx/input/src/os_base\os_task_scheduler.c ****       {
 357:C:/Users/president/Desktop/sbx/input/src/os_base\os_task_scheduler.c ****          if(task->state_request(task, E_TASK_SUSPENDED)== ACCEPTED)
 651              		.loc 1 357 17
 652 04ce 8B4508   		movl	8(%ebp), %eax
 653 04d1 8B4078   		movl	120(%eax), %eax
 654              		.loc 1 357 13
 655 04d4 C7442404 		movl	$1, 4(%esp)
 655      01000000 
 656 04dc 8B5508   		movl	8(%ebp), %edx
 657 04df 891424   		movl	%edx, (%esp)
 658 04e2 FFD0     		call	*%eax
 659              	LVL5:
GAS LISTING C:\Users\PRESID~1\AppData\Local\Temp\ccM0pvSr.s 			page 21


 660              		.loc 1 357 12
 661 04e4 3C01     		cmpb	$1, %al
 662 04e6 7545     		jne	L63
 358:C:/Users/president/Desktop/sbx/input/src/os_base\os_task_scheduler.c ****          {
 359:C:/Users/president/Desktop/sbx/input/src/os_base\os_task_scheduler.c ****             DISABLE_INTERRUPTS();
 360:C:/Users/president/Desktop/sbx/input/src/os_base\os_task_scheduler.c ****             OS_TASK_SAVE_TASK_ENVIRONMENT(task);
 663              		.loc 1 360 13
 664 04e8 8B4508   		movl	8(%ebp), %eax
 665 04eb 890424   		movl	%eax, (%esp)
 666 04ee E8000000 		call	_OS_TASK_SAVE_TASK_ENVIRONMENT
 666      00
 361:C:/Users/president/Desktop/sbx/input/src/os_base\os_task_scheduler.c ****             OS_TASK_RESTORE_SYSTEM_STACK((uint8*)&OS_MAIN_STACK);
 667              		.loc 1 361 13
 668 04f3 C7042400 		movl	$_OS_MAIN_STACK, (%esp)
 668      000000
 669 04fa E8000000 		call	_OS_TASK_RESTORE_SYSTEM_STACK
 669      00
 362:C:/Users/president/Desktop/sbx/input/src/os_base\os_task_scheduler.c ****             DELETE_FROM_TASK_QUEUE(task);
 670              		.loc 1 362 13
 671 04ff 8B4508   		movl	8(%ebp), %eax
 672 0502 890424   		movl	%eax, (%esp)
 673 0505 E8000000 		call	_DELETE_FROM_TASK_QUEUE
 673      00
 363:C:/Users/president/Desktop/sbx/input/src/os_base\os_task_scheduler.c ****             DELETE_FROM_SCHEDULING_QUEUE(scheduling_task);
 674              		.loc 1 363 13
 675 050a 8B450C   		movl	12(%ebp), %eax
 676 050d 890424   		movl	%eax, (%esp)
 677 0510 E8000000 		call	_DELETE_FROM_SCHEDULING_QUEUE
 677      00
 364:C:/Users/president/Desktop/sbx/input/src/os_base\os_task_scheduler.c **** 
 365:C:/Users/president/Desktop/sbx/input/src/os_base\os_task_scheduler.c ****             task->active = FALSE;
 678              		.loc 1 365 26
 679 0515 8B4508   		movl	8(%ebp), %eax
 680 0518 8A10     		movb	(%eax), %dl
 681 051a 83E2FE   		andl	$-2, %edx
 682 051d 8810     		movb	%dl, (%eax)
 366:C:/Users/president/Desktop/sbx/input/src/os_base\os_task_scheduler.c ****             /* reset the prio increase for waiting */
 367:C:/Users/president/Desktop/sbx/input/src/os_base\os_task_scheduler.c ****             task->current_prio = task->default_prio;
 683              		.loc 1 367 38
 684 051f 8B4508   		movl	8(%ebp), %eax
 685 0522 8A506D   		movb	109(%eax), %dl
 686              		.loc 1 367 32
 687 0525 8B4508   		movl	8(%ebp), %eax
 688 0528 88506C   		movb	%dl, 108(%eax)
 355:C:/Users/president/Desktop/sbx/input/src/os_base\os_task_scheduler.c ****       {
 689              		.loc 1 355 9
 690 052b EB40     		jmp	L66
 691              	L63:
 368:C:/Users/president/Desktop/sbx/input/src/os_base\os_task_scheduler.c ****             ENABLE_INTERRUPTS();
 369:C:/Users/president/Desktop/sbx/input/src/os_base\os_task_scheduler.c ****          }
 370:C:/Users/president/Desktop/sbx/input/src/os_base\os_task_scheduler.c ****          else
 371:C:/Users/president/Desktop/sbx/input/src/os_base\os_task_scheduler.c ****          {
 372:C:/Users/president/Desktop/sbx/input/src/os_base\os_task_scheduler.c ****             OS_SET_SW_BUG(E_OS_BUG_TASKSTATE_REQUEST_DENIED, E_FUNC_TERMINATETASK);
 692              		.loc 1 372 13
 693 052d C7442404 		movl	$8, 4(%esp)
 693      08000000 
 694 0535 C7042401 		movl	$1, (%esp)
GAS LISTING C:\Users\PRESID~1\AppData\Local\Temp\ccM0pvSr.s 			page 22


 694      000000
 695 053c E8000000 		call	_OS_SET_SW_BUG
 695      00
 355:C:/Users/president/Desktop/sbx/input/src/os_base\os_task_scheduler.c ****       {
 696              		.loc 1 355 9
 697 0541 EB2A     		jmp	L66
 698              	L62:
 373:C:/Users/president/Desktop/sbx/input/src/os_base\os_task_scheduler.c ****          }
 374:C:/Users/president/Desktop/sbx/input/src/os_base\os_task_scheduler.c ****       }
 375:C:/Users/president/Desktop/sbx/input/src/os_base\os_task_scheduler.c ****       else
 376:C:/Users/president/Desktop/sbx/input/src/os_base\os_task_scheduler.c ****       {
 377:C:/Users/president/Desktop/sbx/input/src/os_base\os_task_scheduler.c ****          OS_SET_SW_BUG(E_OS_BUG_NULL_POINTER, E_FUNC_TERMINATETASK);
 699              		.loc 1 377 10
 700 0543 C7442404 		movl	$8, 4(%esp)
 700      08000000 
 701 054b C7042402 		movl	$2, (%esp)
 701      000000
 702 0552 E8000000 		call	_OS_SET_SW_BUG
 702      00
 355:C:/Users/president/Desktop/sbx/input/src/os_base\os_task_scheduler.c ****       {
 703              		.loc 1 355 9
 704 0557 EB14     		jmp	L66
 705              	L61:
 378:C:/Users/president/Desktop/sbx/input/src/os_base\os_task_scheduler.c ****       }
 379:C:/Users/president/Desktop/sbx/input/src/os_base\os_task_scheduler.c ****    }
 380:C:/Users/president/Desktop/sbx/input/src/os_base\os_task_scheduler.c ****    else
 381:C:/Users/president/Desktop/sbx/input/src/os_base\os_task_scheduler.c ****    {
 382:C:/Users/president/Desktop/sbx/input/src/os_base\os_task_scheduler.c ****       OS_SET_SW_BUG(E_OS_BUG_NULL_POINTER, E_FUNC_TERMINATETASK);
 706              		.loc 1 382 7
 707 0559 C7442404 		movl	$8, 4(%esp)
 707      08000000 
 708 0561 C7042402 		movl	$2, (%esp)
 708      000000
 709 0568 E8000000 		call	_OS_SET_SW_BUG
 709      00
 710              	L66:
 383:C:/Users/president/Desktop/sbx/input/src/os_base\os_task_scheduler.c ****    }
 384:C:/Users/president/Desktop/sbx/input/src/os_base\os_task_scheduler.c **** }
 711              		.loc 1 384 1
 712 056d 90       		nop
 713 056e C9       		leave
 714              		.cfi_restore 5
 715              		.cfi_def_cfa 4, 4
 716 056f C3       		ret
 717              		.cfi_endproc
 718              	LFE7:
 719              		.globl	_OS_TASK_DISPATCHER
 721              	_OS_TASK_DISPATCHER:
 722              	LFB8:
 385:C:/Users/president/Desktop/sbx/input/src/os_base\os_task_scheduler.c **** void OS_TASK_DISPATCHER(void)
 386:C:/Users/president/Desktop/sbx/input/src/os_base\os_task_scheduler.c **** {
 723              		.loc 1 386 1
 724              		.cfi_startproc
 725 0570 55       		pushl	%ebp
 726              		.cfi_def_cfa_offset 8
 727              		.cfi_offset 5, -8
 728 0571 89E5     		movl	%esp, %ebp
GAS LISTING C:\Users\PRESID~1\AppData\Local\Temp\ccM0pvSr.s 			page 23


 729              		.cfi_def_cfa_register 5
 730 0573 83EC28   		subl	$40, %esp
 387:C:/Users/president/Desktop/sbx/input/src/os_base\os_task_scheduler.c ****    /* called in an certain core context (Core_0/1/2/3)*/
 388:C:/Users/president/Desktop/sbx/input/src/os_base\os_task_scheduler.c **** 
 389:C:/Users/president/Desktop/sbx/input/src/os_base\os_task_scheduler.c **** 
 390:C:/Users/president/Desktop/sbx/input/src/os_base\os_task_scheduler.c ****    /*
 391:C:/Users/president/Desktop/sbx/input/src/os_base\os_task_scheduler.c ****    1. running     --(terminate)--> suspend
 392:C:/Users/president/Desktop/sbx/input/src/os_base\os_task_scheduler.c ****    2. running     --(preempt  )--> ready
 393:C:/Users/president/Desktop/sbx/input/src/os_base\os_task_scheduler.c ****    3. suspend     --(activate )--> ready
 394:C:/Users/president/Desktop/sbx/input/src/os_base\os_task_scheduler.c ****    4. ready       --(start    )--> running
 395:C:/Users/president/Desktop/sbx/input/src/os_base\os_task_scheduler.c ****    5. unspecified --(create   )--> suspend
 396:C:/Users/president/Desktop/sbx/input/src/os_base\os_task_scheduler.c ****    */
 397:C:/Users/president/Desktop/sbx/input/src/os_base\os_task_scheduler.c ****    scheduling_t* scheduling_task_ptr;
 398:C:/Users/president/Desktop/sbx/input/src/os_base\os_task_scheduler.c ****    task_t* task = 0u;
 731              		.loc 1 398 12
 732 0576 C745F400 		movl	$0, -12(%ebp)
 732      000000
 399:C:/Users/president/Desktop/sbx/input/src/os_base\os_task_scheduler.c ****    /* get running task */
 400:C:/Users/president/Desktop/sbx/input/src/os_base\os_task_scheduler.c ****    task         = GET_RUNNING_TASK();
 733              		.loc 1 400 19
 734 057d E8000000 		call	_GET_RUNNING_TASK
 734      00
 735 0582 8945F4   		movl	%eax, -12(%ebp)
 401:C:/Users/president/Desktop/sbx/input/src/os_base\os_task_scheduler.c ****    scheduling_task_ptr = GET_RUNNING_SCHEDULING_QUEUE_ELEMENT_PTR();
 736              		.loc 1 401 26
 737 0585 E8000000 		call	_GET_RUNNING_SCHEDULING_QUEUE_ELEMENT_PTR
 737      00
 738 058a 8945F0   		movl	%eax, -16(%ebp)
 402:C:/Users/president/Desktop/sbx/input/src/os_base\os_task_scheduler.c ****    /* Preempt Task */
 403:C:/Users/president/Desktop/sbx/input/src/os_base\os_task_scheduler.c ****    if(task != NULL && scheduling_task_ptr != NULL)
 739              		.loc 1 403 6
 740 058d 837DF400 		cmpl	$0, -12(%ebp)
 741 0591 7418     		je	L68
 742              		.loc 1 403 20 discriminator 1
 743 0593 837DF000 		cmpl	$0, -16(%ebp)
 744 0597 7412     		je	L68
 404:C:/Users/president/Desktop/sbx/input/src/os_base\os_task_scheduler.c ****    {
 405:C:/Users/president/Desktop/sbx/input/src/os_base\os_task_scheduler.c ****       OS_TERMINATE_TASK(task, scheduling_task_ptr);
 745              		.loc 1 405 7
 746 0599 8B45F0   		movl	-16(%ebp), %eax
 747 059c 89442404 		movl	%eax, 4(%esp)
 748 05a0 8B45F4   		movl	-12(%ebp), %eax
 749 05a3 890424   		movl	%eax, (%esp)
 750 05a6 E8FFFEFF 		call	_OS_TERMINATE_TASK
 750      FF
 751              	L68:
 406:C:/Users/president/Desktop/sbx/input/src/os_base\os_task_scheduler.c ****    }
 407:C:/Users/president/Desktop/sbx/input/src/os_base\os_task_scheduler.c ****    /* ask for the next task to be activated... */
 408:C:/Users/president/Desktop/sbx/input/src/os_base\os_task_scheduler.c ****    scheduling_task_ptr = os_task_scheduler();
 752              		.loc 1 408 26
 753 05ab E8B20200 		call	_os_task_scheduler
 753      00
 754 05b0 8945F0   		movl	%eax, -16(%ebp)
 409:C:/Users/president/Desktop/sbx/input/src/os_base\os_task_scheduler.c ****    if(scheduling_task_ptr != NULL)
 755              		.loc 1 409 6
 756 05b3 837DF000 		cmpl	$0, -16(%ebp)
 757 05b7 740E     		je	L69
GAS LISTING C:\Users\PRESID~1\AppData\Local\Temp\ccM0pvSr.s 			page 24


 410:C:/Users/president/Desktop/sbx/input/src/os_base\os_task_scheduler.c ****    {
 411:C:/Users/president/Desktop/sbx/input/src/os_base\os_task_scheduler.c ****       task = GET_FROM_TASK_QUEUE(scheduling_task_ptr);
 758              		.loc 1 411 14
 759 05b9 8B45F0   		movl	-16(%ebp), %eax
 760 05bc 890424   		movl	%eax, (%esp)
 761 05bf E8000000 		call	_GET_FROM_TASK_QUEUE
 761      00
 762 05c4 8945F4   		movl	%eax, -12(%ebp)
 763              	L69:
 412:C:/Users/president/Desktop/sbx/input/src/os_base\os_task_scheduler.c ****    }
 413:C:/Users/president/Desktop/sbx/input/src/os_base\os_task_scheduler.c ****    if(task != NULL && scheduling_task_ptr != NULL)
 764              		.loc 1 413 6
 765 05c7 837DF400 		cmpl	$0, -12(%ebp)
 766 05cb 7418     		je	L71
 767              		.loc 1 413 20 discriminator 1
 768 05cd 837DF000 		cmpl	$0, -16(%ebp)
 769 05d1 7412     		je	L71
 414:C:/Users/president/Desktop/sbx/input/src/os_base\os_task_scheduler.c ****    {
 415:C:/Users/president/Desktop/sbx/input/src/os_base\os_task_scheduler.c ****       OS_START_TASK(task, scheduling_task_ptr);
 770              		.loc 1 415 7
 771 05d3 8B45F0   		movl	-16(%ebp), %eax
 772 05d6 89442404 		movl	%eax, 4(%esp)
 773 05da 8B45F4   		movl	-12(%ebp), %eax
 774 05dd 890424   		movl	%eax, (%esp)
 775 05e0 E8A7FDFF 		call	_OS_START_TASK
 775      FF
 776              	L71:
 416:C:/Users/president/Desktop/sbx/input/src/os_base\os_task_scheduler.c ****    }
 417:C:/Users/president/Desktop/sbx/input/src/os_base\os_task_scheduler.c **** }
 777              		.loc 1 417 1
 778 05e5 90       		nop
 779 05e6 C9       		leave
 780              		.cfi_restore 5
 781              		.cfi_def_cfa 4, 4
 782 05e7 C3       		ret
 783              		.cfi_endproc
 784              	LFE8:
 786              	_task_0:
 787              	LFB9:
 418:C:/Users/president/Desktop/sbx/input/src/os_base\os_task_scheduler.c **** LOCAL void task_0(void* task_ptr)
 419:C:/Users/president/Desktop/sbx/input/src/os_base\os_task_scheduler.c **** {
 788              		.loc 1 419 1
 789              		.cfi_startproc
 790 05e8 55       		pushl	%ebp
 791              		.cfi_def_cfa_offset 8
 792              		.cfi_offset 5, -8
 793 05e9 89E5     		movl	%esp, %ebp
 794              		.cfi_def_cfa_register 5
 420:C:/Users/president/Desktop/sbx/input/src/os_base\os_task_scheduler.c ****    REFERENCE_UNUSED_PARAMETER(task_ptr);
 421:C:/Users/president/Desktop/sbx/input/src/os_base\os_task_scheduler.c ****    HALT_MCU();/* HLT will be ended by timer interrupt, what shall be done with the rest of the func
 422:C:/Users/president/Desktop/sbx/input/src/os_base\os_task_scheduler.c **** }
 795              		.loc 1 422 1
 796 05eb 90       		nop
 797 05ec 5D       		popl	%ebp
 798              		.cfi_restore 5
 799              		.cfi_def_cfa 4, 4
 800 05ed C3       		ret
GAS LISTING C:\Users\PRESID~1\AppData\Local\Temp\ccM0pvSr.s 			page 25


 801              		.cfi_endproc
 802              	LFE9:
 804              	_task_1:
 805              	LFB10:
 423:C:/Users/president/Desktop/sbx/input/src/os_base\os_task_scheduler.c **** LOCAL void task_1(void* task_ptr)
 424:C:/Users/president/Desktop/sbx/input/src/os_base\os_task_scheduler.c **** {
 806              		.loc 1 424 1
 807              		.cfi_startproc
 808 05ee 55       		pushl	%ebp
 809              		.cfi_def_cfa_offset 8
 810              		.cfi_offset 5, -8
 811 05ef 89E5     		movl	%esp, %ebp
 812              		.cfi_def_cfa_register 5
 813 05f1 83EC28   		subl	$40, %esp
 425:C:/Users/president/Desktop/sbx/input/src/os_base\os_task_scheduler.c ****    scheduling_t* scheduling_task_ptr = 0u;
 814              		.loc 1 425 18
 815 05f4 C745F400 		movl	$0, -12(%ebp)
 815      000000
 426:C:/Users/president/Desktop/sbx/input/src/os_base\os_task_scheduler.c ****    REFERENCE_UNUSED_PARAMETER(task_ptr);
 427:C:/Users/president/Desktop/sbx/input/src/os_base\os_task_scheduler.c ****    /* worker task */
 428:C:/Users/president/Desktop/sbx/input/src/os_base\os_task_scheduler.c ****    scheduling_task_ptr = GET_RUNNING_SCHEDULING_QUEUE_ELEMENT_PTR();
 816              		.loc 1 428 26
 817 05fb E8000000 		call	_GET_RUNNING_SCHEDULING_QUEUE_ELEMENT_PTR
 817      00
 818 0600 8945F4   		movl	%eax, -12(%ebp)
 429:C:/Users/president/Desktop/sbx/input/src/os_base\os_task_scheduler.c ****    /* do some things */
 430:C:/Users/president/Desktop/sbx/input/src/os_base\os_task_scheduler.c ****    TASK1_CALL_NR++;
 819              		.loc 1 430 17
 820 0603 A1000000 		movl	_TASK1_CALL_NR, %eax
 820      00
 821 0608 40       		incl	%eax
 822 0609 A3000000 		movl	%eax, _TASK1_CALL_NR
 822      00
 431:C:/Users/president/Desktop/sbx/input/src/os_base\os_task_scheduler.c **** 
 432:C:/Users/president/Desktop/sbx/input/src/os_base\os_task_scheduler.c **** 
 433:C:/Users/president/Desktop/sbx/input/src/os_base\os_task_scheduler.c ****    /* end */
 434:C:/Users/president/Desktop/sbx/input/src/os_base\os_task_scheduler.c ****    OS_TERMINATE_TASK(task_ptr,scheduling_task_ptr);
 823              		.loc 1 434 4
 824 060e 8B45F4   		movl	-12(%ebp), %eax
 825 0611 89442404 		movl	%eax, 4(%esp)
 826 0615 8B4508   		movl	8(%ebp), %eax
 827 0618 890424   		movl	%eax, (%esp)
 828 061b E88AFEFF 		call	_OS_TERMINATE_TASK
 828      FF
 435:C:/Users/president/Desktop/sbx/input/src/os_base\os_task_scheduler.c **** }
 829              		.loc 1 435 1
 830 0620 90       		nop
 831 0621 C9       		leave
 832              		.cfi_restore 5
 833              		.cfi_def_cfa 4, 4
 834 0622 C3       		ret
 835              		.cfi_endproc
 836              	LFE10:
 838              	_task_2:
 839              	LFB11:
 436:C:/Users/president/Desktop/sbx/input/src/os_base\os_task_scheduler.c **** LOCAL void task_2(void* task_ptr)
 437:C:/Users/president/Desktop/sbx/input/src/os_base\os_task_scheduler.c **** {
GAS LISTING C:\Users\PRESID~1\AppData\Local\Temp\ccM0pvSr.s 			page 26


 840              		.loc 1 437 1
 841              		.cfi_startproc
 842 0623 55       		pushl	%ebp
 843              		.cfi_def_cfa_offset 8
 844              		.cfi_offset 5, -8
 845 0624 89E5     		movl	%esp, %ebp
 846              		.cfi_def_cfa_register 5
 847 0626 83EC28   		subl	$40, %esp
 438:C:/Users/president/Desktop/sbx/input/src/os_base\os_task_scheduler.c ****    scheduling_t* scheduling_task_ptr = 0u;
 848              		.loc 1 438 18
 849 0629 C745F400 		movl	$0, -12(%ebp)
 849      000000
 439:C:/Users/president/Desktop/sbx/input/src/os_base\os_task_scheduler.c ****    REFERENCE_UNUSED_PARAMETER(task_ptr);
 440:C:/Users/president/Desktop/sbx/input/src/os_base\os_task_scheduler.c ****    /* worker task */
 441:C:/Users/president/Desktop/sbx/input/src/os_base\os_task_scheduler.c ****    scheduling_task_ptr = GET_RUNNING_SCHEDULING_QUEUE_ELEMENT_PTR();
 850              		.loc 1 441 26
 851 0630 E8000000 		call	_GET_RUNNING_SCHEDULING_QUEUE_ELEMENT_PTR
 851      00
 852 0635 8945F4   		movl	%eax, -12(%ebp)
 442:C:/Users/president/Desktop/sbx/input/src/os_base\os_task_scheduler.c ****    /* do some things */
 443:C:/Users/president/Desktop/sbx/input/src/os_base\os_task_scheduler.c ****    TASK1_CALL_NR++;
 853              		.loc 1 443 17
 854 0638 A1000000 		movl	_TASK1_CALL_NR, %eax
 854      00
 855 063d 40       		incl	%eax
 856 063e A3000000 		movl	%eax, _TASK1_CALL_NR
 856      00
 444:C:/Users/president/Desktop/sbx/input/src/os_base\os_task_scheduler.c **** 
 445:C:/Users/president/Desktop/sbx/input/src/os_base\os_task_scheduler.c **** 
 446:C:/Users/president/Desktop/sbx/input/src/os_base\os_task_scheduler.c ****    /* end */
 447:C:/Users/president/Desktop/sbx/input/src/os_base\os_task_scheduler.c ****    OS_TERMINATE_TASK(task_ptr,scheduling_task_ptr);
 857              		.loc 1 447 4
 858 0643 8B45F4   		movl	-12(%ebp), %eax
 859 0646 89442404 		movl	%eax, 4(%esp)
 860 064a 8B4508   		movl	8(%ebp), %eax
 861 064d 890424   		movl	%eax, (%esp)
 862 0650 E855FEFF 		call	_OS_TERMINATE_TASK
 862      FF
 448:C:/Users/president/Desktop/sbx/input/src/os_base\os_task_scheduler.c **** }
 863              		.loc 1 448 1
 864 0655 90       		nop
 865 0656 C9       		leave
 866              		.cfi_restore 5
 867              		.cfi_def_cfa 4, 4
 868 0657 C3       		ret
 869              		.cfi_endproc
 870              	LFE11:
 872              	_task_3:
 873              	LFB12:
 449:C:/Users/president/Desktop/sbx/input/src/os_base\os_task_scheduler.c **** LOCAL void task_3(void* task_ptr)
 450:C:/Users/president/Desktop/sbx/input/src/os_base\os_task_scheduler.c **** {
 874              		.loc 1 450 1
 875              		.cfi_startproc
 876 0658 55       		pushl	%ebp
 877              		.cfi_def_cfa_offset 8
 878              		.cfi_offset 5, -8
 879 0659 89E5     		movl	%esp, %ebp
GAS LISTING C:\Users\PRESID~1\AppData\Local\Temp\ccM0pvSr.s 			page 27


 880              		.cfi_def_cfa_register 5
 881 065b 83EC28   		subl	$40, %esp
 451:C:/Users/president/Desktop/sbx/input/src/os_base\os_task_scheduler.c ****    scheduling_t* scheduling_task_ptr = 0u;
 882              		.loc 1 451 18
 883 065e C745F400 		movl	$0, -12(%ebp)
 883      000000
 452:C:/Users/president/Desktop/sbx/input/src/os_base\os_task_scheduler.c ****    REFERENCE_UNUSED_PARAMETER(task_ptr);
 453:C:/Users/president/Desktop/sbx/input/src/os_base\os_task_scheduler.c ****    /* worker task */
 454:C:/Users/president/Desktop/sbx/input/src/os_base\os_task_scheduler.c ****    scheduling_task_ptr = GET_RUNNING_SCHEDULING_QUEUE_ELEMENT_PTR();
 884              		.loc 1 454 26
 885 0665 E8000000 		call	_GET_RUNNING_SCHEDULING_QUEUE_ELEMENT_PTR
 885      00
 886 066a 8945F4   		movl	%eax, -12(%ebp)
 455:C:/Users/president/Desktop/sbx/input/src/os_base\os_task_scheduler.c ****    /* do some things */
 456:C:/Users/president/Desktop/sbx/input/src/os_base\os_task_scheduler.c ****    TASK1_CALL_NR++;
 887              		.loc 1 456 17
 888 066d A1000000 		movl	_TASK1_CALL_NR, %eax
 888      00
 889 0672 40       		incl	%eax
 890 0673 A3000000 		movl	%eax, _TASK1_CALL_NR
 890      00
 457:C:/Users/president/Desktop/sbx/input/src/os_base\os_task_scheduler.c **** 
 458:C:/Users/president/Desktop/sbx/input/src/os_base\os_task_scheduler.c **** 
 459:C:/Users/president/Desktop/sbx/input/src/os_base\os_task_scheduler.c ****    /* end */
 460:C:/Users/president/Desktop/sbx/input/src/os_base\os_task_scheduler.c ****    OS_TERMINATE_TASK(task_ptr,scheduling_task_ptr);
 891              		.loc 1 460 4
 892 0678 8B45F4   		movl	-12(%ebp), %eax
 893 067b 89442404 		movl	%eax, 4(%esp)
 894 067f 8B4508   		movl	8(%ebp), %eax
 895 0682 890424   		movl	%eax, (%esp)
 896 0685 E820FEFF 		call	_OS_TERMINATE_TASK
 896      FF
 461:C:/Users/president/Desktop/sbx/input/src/os_base\os_task_scheduler.c **** }
 897              		.loc 1 461 1
 898 068a 90       		nop
 899 068b C9       		leave
 900              		.cfi_restore 5
 901              		.cfi_def_cfa 4, 4
 902 068c C3       		ret
 903              		.cfi_endproc
 904              	LFE12:
 905              		.globl	_OS_INIT_TASKS
 907              	_OS_INIT_TASKS:
 908              	LFB13:
 462:C:/Users/president/Desktop/sbx/input/src/os_base\os_task_scheduler.c **** void OS_INIT_TASKS(void)
 463:C:/Users/president/Desktop/sbx/input/src/os_base\os_task_scheduler.c **** {
 909              		.loc 1 463 1
 910              		.cfi_startproc
 911 068d 55       		pushl	%ebp
 912              		.cfi_def_cfa_offset 8
 913              		.cfi_offset 5, -8
 914 068e 89E5     		movl	%esp, %ebp
 915              		.cfi_def_cfa_register 5
 916 0690 83EC48   		subl	$72, %esp
 464:C:/Users/president/Desktop/sbx/input/src/os_base\os_task_scheduler.c ****    task_t* task_ptr = 0u;
 917              		.loc 1 464 12
 918 0693 C745F400 		movl	$0, -12(%ebp)
GAS LISTING C:\Users\PRESID~1\AppData\Local\Temp\ccM0pvSr.s 			page 28


 918      000000
 465:C:/Users/president/Desktop/sbx/input/src/os_base\os_task_scheduler.c ****    OS_GET_CURRENT_TIME(&LAST_CURRENT_TIME);
 919              		.loc 1 465 4
 920 069a C7042400 		movl	$_LAST_CURRENT_TIME, (%esp)
 920      000000
 921 06a1 E8000000 		call	_OS_GET_CURRENT_TIME
 921      00
 466:C:/Users/president/Desktop/sbx/input/src/os_base\os_task_scheduler.c **** 
 467:C:/Users/president/Desktop/sbx/input/src/os_base\os_task_scheduler.c ****    REFERENCE_UNUSED_PARAMETER (TASK_GROUP_1);
 468:C:/Users/president/Desktop/sbx/input/src/os_base\os_task_scheduler.c ****    REFERENCE_UNUSED_PARAMETER (TASK_GROUP_2);
 469:C:/Users/president/Desktop/sbx/input/src/os_base\os_task_scheduler.c ****    REFERENCE_UNUSED_PARAMETER (TASK_GROUP_3);
 470:C:/Users/president/Desktop/sbx/input/src/os_base\os_task_scheduler.c ****    REFERENCE_UNUSED_PARAMETER (TASK_GROUP_4);
 471:C:/Users/president/Desktop/sbx/input/src/os_base\os_task_scheduler.c ****    REFERENCE_UNUSED_PARAMETER (TASK_GROUP_5);
 472:C:/Users/president/Desktop/sbx/input/src/os_base\os_task_scheduler.c **** 
 473:C:/Users/president/Desktop/sbx/input/src/os_base\os_task_scheduler.c ****    /*
 474:C:/Users/president/Desktop/sbx/input/src/os_base\os_task_scheduler.c ****    set task_state for all tasks to E_TASK_UNSPECIFIED
 475:C:/Users/president/Desktop/sbx/input/src/os_base\os_task_scheduler.c ****    */
 476:C:/Users/president/Desktop/sbx/input/src/os_base\os_task_scheduler.c ****    OS_INIT_TASK_QUEUE();
 922              		.loc 1 476 4
 923 06a6 E8000000 		call	_OS_INIT_TASK_QUEUE
 923      00
 477:C:/Users/president/Desktop/sbx/input/src/os_base\os_task_scheduler.c **** 
 478:C:/Users/president/Desktop/sbx/input/src/os_base\os_task_scheduler.c ****    /* setup idle task */
 479:C:/Users/president/Desktop/sbx/input/src/os_base\os_task_scheduler.c ****    task_ptr = &TASK_0_VAR;
 924              		.loc 1 479 13
 925 06ab C745F400 		movl	$_TASK_0_VAR, -12(%ebp)
 925      000000
 480:C:/Users/president/Desktop/sbx/input/src/os_base\os_task_scheduler.c ****    OS_INIT_TASK(task_ptr,                          /* task */
 926              		.loc 1 480 4
 927 06b2 C7442424 		movl	$0, 36(%esp)
 927      00000000 
 928 06ba C7442420 		movl	$0, 32(%esp)
 928      00000000 
 929 06c2 C744241C 		movl	$0, 28(%esp)
 929      00000000 
 930 06ca C7442418 		movl	$200, 24(%esp)
 930      C8000000 
 931 06d2 C7442414 		movl	$_TASK0_STACK+1999, 20(%esp)
 931      CF070000 
 932 06da C7442410 		movl	$_TASK_GROUP_1, 16(%esp)
 932      00000000 
 933 06e2 C744240C 		movl	$1, 12(%esp)
 933      01000000 
 934 06ea C7442408 		movl	$1, 8(%esp)
 934      01000000 
 935 06f2 C7442404 		movl	$_task_0, 4(%esp)
 935      E8050000 
 936 06fa 8B45F4   		movl	-12(%ebp), %eax
 937 06fd 890424   		movl	%eax, (%esp)
 938 0700 E8000000 		call	_OS_INIT_TASK
 938      00
 481:C:/Users/president/Desktop/sbx/input/src/os_base\os_task_scheduler.c ****                &task_0,                           /* Task Function*/
 482:C:/Users/president/Desktop/sbx/input/src/os_base\os_task_scheduler.c ****                1u,                                 /* Nr of allowed instances*/
 483:C:/Users/president/Desktop/sbx/input/src/os_base\os_task_scheduler.c ****                TRUE,                              /* Idle Task */
 484:C:/Users/president/Desktop/sbx/input/src/os_base\os_task_scheduler.c ****                &TASK_GROUP_1,                     /* Task Group */
 485:C:/Users/president/Desktop/sbx/input/src/os_base\os_task_scheduler.c ****                (unsigned_char_t*)&TASK0_STACK[TASK0_STACK_SIZE-1u],  /* Task_stack */
 486:C:/Users/president/Desktop/sbx/input/src/os_base\os_task_scheduler.c ****                200u,                                /* Stack Size */
GAS LISTING C:\Users\PRESID~1\AppData\Local\Temp\ccM0pvSr.s 			page 29


 487:C:/Users/president/Desktop/sbx/input/src/os_base\os_task_scheduler.c ****                E_PRIVILIGEMODE_UNPRIVILIGED_THREAD_MODE, /* Unpriviliged Thread Mode */
 488:C:/Users/president/Desktop/sbx/input/src/os_base\os_task_scheduler.c ****                E_CORE0,                            /* Cortex M4 has only 1 core */
 489:C:/Users/president/Desktop/sbx/input/src/os_base\os_task_scheduler.c ****                0u                                   /* default prio */
 490:C:/Users/president/Desktop/sbx/input/src/os_base\os_task_scheduler.c ****               );
 491:C:/Users/president/Desktop/sbx/input/src/os_base\os_task_scheduler.c ****    ADD_TO_SCHEDULING_QUEUE(task_ptr);
 939              		.loc 1 491 4
 940 0705 8B45F4   		movl	-12(%ebp), %eax
 941 0708 890424   		movl	%eax, (%esp)
 942 070b E8000000 		call	_ADD_TO_SCHEDULING_QUEUE
 942      00
 492:C:/Users/president/Desktop/sbx/input/src/os_base\os_task_scheduler.c ****    OS_SAVE_TASK_PTR(task_ptr, TASK_0_PTR);
 943              		.loc 1 492 4
 944 0710 8B45F4   		movl	-12(%ebp), %eax
 945 0713 A3000000 		movl	%eax, _TASK_PTR
 945      00
 493:C:/Users/president/Desktop/sbx/input/src/os_base\os_task_scheduler.c **** 
 494:C:/Users/president/Desktop/sbx/input/src/os_base\os_task_scheduler.c ****    /* setup worker task */
 495:C:/Users/president/Desktop/sbx/input/src/os_base\os_task_scheduler.c ****    task_ptr = &TASK_1_VAR;
 946              		.loc 1 495 13
 947 0718 C745F400 		movl	$_TASK_1_VAR, -12(%ebp)
 947      000000
 496:C:/Users/president/Desktop/sbx/input/src/os_base\os_task_scheduler.c ****    OS_INIT_TASK(task_ptr,      /* task */
 948              		.loc 1 496 4
 949 071f C7442424 		movl	$1, 36(%esp)
 949      01000000 
 950 0727 C7442420 		movl	$0, 32(%esp)
 950      00000000 
 951 072f C744241C 		movl	$0, 28(%esp)
 951      00000000 
 952 0737 C7442418 		movl	$200, 24(%esp)
 952      C8000000 
 953 073f C7442414 		movl	$_TASK1_STACK+1999, 20(%esp)
 953      CF070000 
 954 0747 C7442410 		movl	$_TASK_GROUP_1, 16(%esp)
 954      00000000 
 955 074f C744240C 		movl	$0, 12(%esp)
 955      00000000 
 956 0757 C7442408 		movl	$1, 8(%esp)
 956      01000000 
 957 075f C7442404 		movl	$_task_1, 4(%esp)
 957      EE050000 
 958 0767 8B45F4   		movl	-12(%ebp), %eax
 959 076a 890424   		movl	%eax, (%esp)
 960 076d E8000000 		call	_OS_INIT_TASK
 960      00
 497:C:/Users/president/Desktop/sbx/input/src/os_base\os_task_scheduler.c ****                &task_1,       /* Task Function*/
 498:C:/Users/president/Desktop/sbx/input/src/os_base\os_task_scheduler.c ****                1u,             /* Nr of allowed instances*/
 499:C:/Users/president/Desktop/sbx/input/src/os_base\os_task_scheduler.c ****                FALSE,          /* Idle Task */
 500:C:/Users/president/Desktop/sbx/input/src/os_base\os_task_scheduler.c ****                &TASK_GROUP_1, /* Task Group */
 501:C:/Users/president/Desktop/sbx/input/src/os_base\os_task_scheduler.c ****                (unsigned_char_t*)&TASK1_STACK[TASK1_STACK_SIZE-1u],/* Task_stack */
 502:C:/Users/president/Desktop/sbx/input/src/os_base\os_task_scheduler.c ****                200u,            /* Stack Size */
 503:C:/Users/president/Desktop/sbx/input/src/os_base\os_task_scheduler.c ****                E_PRIVILIGEMODE_UNPRIVILIGED_THREAD_MODE, /* Unpriviliged Thread Mode */
 504:C:/Users/president/Desktop/sbx/input/src/os_base\os_task_scheduler.c ****                E_CORE0,
 505:C:/Users/president/Desktop/sbx/input/src/os_base\os_task_scheduler.c ****                1u                                   /* default prio */
 506:C:/Users/president/Desktop/sbx/input/src/os_base\os_task_scheduler.c ****               );
 507:C:/Users/president/Desktop/sbx/input/src/os_base\os_task_scheduler.c ****    ADD_TO_SCHEDULING_QUEUE(task_ptr);
 961              		.loc 1 507 4
GAS LISTING C:\Users\PRESID~1\AppData\Local\Temp\ccM0pvSr.s 			page 30


 962 0772 8B45F4   		movl	-12(%ebp), %eax
 963 0775 890424   		movl	%eax, (%esp)
 964 0778 E8000000 		call	_ADD_TO_SCHEDULING_QUEUE
 964      00
 508:C:/Users/president/Desktop/sbx/input/src/os_base\os_task_scheduler.c ****    OS_SAVE_TASK_PTR(task_ptr, TASK_1_PTR);
 965              		.loc 1 508 4
 966 077d 8B45F4   		movl	-12(%ebp), %eax
 967 0780 A3040000 		movl	%eax, _TASK_PTR+4
 967      00
 509:C:/Users/president/Desktop/sbx/input/src/os_base\os_task_scheduler.c **** 
 510:C:/Users/president/Desktop/sbx/input/src/os_base\os_task_scheduler.c ****    /* setup worker task */
 511:C:/Users/president/Desktop/sbx/input/src/os_base\os_task_scheduler.c ****    task_ptr = &TASK_2_VAR;
 968              		.loc 1 511 13
 969 0785 C745F400 		movl	$_TASK_2_VAR, -12(%ebp)
 969      000000
 512:C:/Users/president/Desktop/sbx/input/src/os_base\os_task_scheduler.c ****    OS_INIT_TASK(task_ptr,      /* task */
 970              		.loc 1 512 4
 971 078c C7442424 		movl	$2, 36(%esp)
 971      02000000 
 972 0794 C7442420 		movl	$0, 32(%esp)
 972      00000000 
 973 079c C744241C 		movl	$0, 28(%esp)
 973      00000000 
 974 07a4 C7442418 		movl	$200, 24(%esp)
 974      C8000000 
 975 07ac C7442414 		movl	$_TASK2_STACK+1999, 20(%esp)
 975      CF070000 
 976 07b4 C7442410 		movl	$_TASK_GROUP_2, 16(%esp)
 976      00000000 
 977 07bc C744240C 		movl	$0, 12(%esp)
 977      00000000 
 978 07c4 C7442408 		movl	$1, 8(%esp)
 978      01000000 
 979 07cc C7442404 		movl	$_task_2, 4(%esp)
 979      23060000 
 980 07d4 8B45F4   		movl	-12(%ebp), %eax
 981 07d7 890424   		movl	%eax, (%esp)
 982 07da E8000000 		call	_OS_INIT_TASK
 982      00
 513:C:/Users/president/Desktop/sbx/input/src/os_base\os_task_scheduler.c ****                &task_2,       /* Task Function*/
 514:C:/Users/president/Desktop/sbx/input/src/os_base\os_task_scheduler.c ****                1u,             /* Nr of allowed instances*/
 515:C:/Users/president/Desktop/sbx/input/src/os_base\os_task_scheduler.c ****                FALSE,          /* Idle Task */
 516:C:/Users/president/Desktop/sbx/input/src/os_base\os_task_scheduler.c ****                &TASK_GROUP_2, /* Task Group */
 517:C:/Users/president/Desktop/sbx/input/src/os_base\os_task_scheduler.c ****                (unsigned_char_t*)&TASK2_STACK[TASK2_STACK_SIZE-1u],/* Task_stack */
 518:C:/Users/president/Desktop/sbx/input/src/os_base\os_task_scheduler.c ****                200u,            /* Stack Size */
 519:C:/Users/president/Desktop/sbx/input/src/os_base\os_task_scheduler.c ****                E_PRIVILIGEMODE_UNPRIVILIGED_THREAD_MODE, /* Unpriviliged Thread Mode */
 520:C:/Users/president/Desktop/sbx/input/src/os_base\os_task_scheduler.c ****                E_CORE0,
 521:C:/Users/president/Desktop/sbx/input/src/os_base\os_task_scheduler.c ****                2u                                   /* default prio */
 522:C:/Users/president/Desktop/sbx/input/src/os_base\os_task_scheduler.c ****               );
 523:C:/Users/president/Desktop/sbx/input/src/os_base\os_task_scheduler.c ****    ADD_TO_SCHEDULING_QUEUE(task_ptr);
 983              		.loc 1 523 4
 984 07df 8B45F4   		movl	-12(%ebp), %eax
 985 07e2 890424   		movl	%eax, (%esp)
 986 07e5 E8000000 		call	_ADD_TO_SCHEDULING_QUEUE
 986      00
 524:C:/Users/president/Desktop/sbx/input/src/os_base\os_task_scheduler.c ****    OS_SAVE_TASK_PTR(task_ptr, TASK_2_PTR);
 987              		.loc 1 524 4
GAS LISTING C:\Users\PRESID~1\AppData\Local\Temp\ccM0pvSr.s 			page 31


 988 07ea 8B45F4   		movl	-12(%ebp), %eax
 989 07ed A3080000 		movl	%eax, _TASK_PTR+8
 989      00
 525:C:/Users/president/Desktop/sbx/input/src/os_base\os_task_scheduler.c **** 
 526:C:/Users/president/Desktop/sbx/input/src/os_base\os_task_scheduler.c ****    /* setup worker task */
 527:C:/Users/president/Desktop/sbx/input/src/os_base\os_task_scheduler.c ****    task_ptr = &TASK_3_VAR;
 990              		.loc 1 527 13
 991 07f2 C745F400 		movl	$_TASK_3_VAR, -12(%ebp)
 991      000000
 528:C:/Users/president/Desktop/sbx/input/src/os_base\os_task_scheduler.c ****    OS_INIT_TASK(task_ptr,      /* task */
 992              		.loc 1 528 4
 993 07f9 C7442424 		movl	$3, 36(%esp)
 993      03000000 
 994 0801 C7442420 		movl	$0, 32(%esp)
 994      00000000 
 995 0809 C744241C 		movl	$0, 28(%esp)
 995      00000000 
 996 0811 C7442418 		movl	$200, 24(%esp)
 996      C8000000 
 997 0819 C7442414 		movl	$_TASK3_STACK+1999, 20(%esp)
 997      CF070000 
 998 0821 C7442410 		movl	$_TASK_GROUP_3, 16(%esp)
 998      00000000 
 999 0829 C744240C 		movl	$0, 12(%esp)
 999      00000000 
 1000 0831 C7442408 		movl	$1, 8(%esp)
 1000      01000000 
 1001 0839 C7442404 		movl	$_task_3, 4(%esp)
 1001      58060000 
 1002 0841 8B45F4   		movl	-12(%ebp), %eax
 1003 0844 890424   		movl	%eax, (%esp)
 1004 0847 E8000000 		call	_OS_INIT_TASK
 1004      00
 529:C:/Users/president/Desktop/sbx/input/src/os_base\os_task_scheduler.c ****                &task_3,       /* Task Function*/
 530:C:/Users/president/Desktop/sbx/input/src/os_base\os_task_scheduler.c ****                1u,             /* Nr of allowed instances*/
 531:C:/Users/president/Desktop/sbx/input/src/os_base\os_task_scheduler.c ****                FALSE,          /* Idle Task */
 532:C:/Users/president/Desktop/sbx/input/src/os_base\os_task_scheduler.c ****                &TASK_GROUP_3, /* Task Group */
 533:C:/Users/president/Desktop/sbx/input/src/os_base\os_task_scheduler.c ****                (unsigned_char_t*)&TASK3_STACK[TASK3_STACK_SIZE-1u],/* Task_stack */
 534:C:/Users/president/Desktop/sbx/input/src/os_base\os_task_scheduler.c ****                200u,           /* Stack Size */
 535:C:/Users/president/Desktop/sbx/input/src/os_base\os_task_scheduler.c ****                E_PRIVILIGEMODE_UNPRIVILIGED_THREAD_MODE, /* Unpriviliged Thread Mode */
 536:C:/Users/president/Desktop/sbx/input/src/os_base\os_task_scheduler.c ****                E_CORE0,
 537:C:/Users/president/Desktop/sbx/input/src/os_base\os_task_scheduler.c ****                3u                                   /* default prio */
 538:C:/Users/president/Desktop/sbx/input/src/os_base\os_task_scheduler.c ****               );
 539:C:/Users/president/Desktop/sbx/input/src/os_base\os_task_scheduler.c ****    ADD_TO_SCHEDULING_QUEUE(task_ptr);
 1005              		.loc 1 539 4
 1006 084c 8B45F4   		movl	-12(%ebp), %eax
 1007 084f 890424   		movl	%eax, (%esp)
 1008 0852 E8000000 		call	_ADD_TO_SCHEDULING_QUEUE
 1008      00
 540:C:/Users/president/Desktop/sbx/input/src/os_base\os_task_scheduler.c ****    OS_SAVE_TASK_PTR(task_ptr, TASK_3_PTR);
 1009              		.loc 1 540 4
 1010 0857 8B45F4   		movl	-12(%ebp), %eax
 1011 085a A30C0000 		movl	%eax, _TASK_PTR+12
 1011      00
 541:C:/Users/president/Desktop/sbx/input/src/os_base\os_task_scheduler.c **** }
 1012              		.loc 1 541 1
 1013 085f 90       		nop
GAS LISTING C:\Users\PRESID~1\AppData\Local\Temp\ccM0pvSr.s 			page 32


 1014 0860 C9       		leave
 1015              		.cfi_restore 5
 1016              		.cfi_def_cfa 4, 4
 1017 0861 C3       		ret
 1018              		.cfi_endproc
 1019              	LFE13:
 1021              	_os_task_scheduler:
 1022              	LFB14:
 542:C:/Users/president/Desktop/sbx/input/src/os_base\os_task_scheduler.c **** 
 543:C:/Users/president/Desktop/sbx/input/src/os_base\os_task_scheduler.c **** 
 544:C:/Users/president/Desktop/sbx/input/src/os_base\os_task_scheduler.c **** LOCAL scheduling_t* os_task_scheduler(void)
 545:C:/Users/president/Desktop/sbx/input/src/os_base\os_task_scheduler.c **** {
 1023              		.loc 1 545 1
 1024              		.cfi_startproc
 1025 0862 55       		pushl	%ebp
 1026              		.cfi_def_cfa_offset 8
 1027              		.cfi_offset 5, -8
 1028 0863 89E5     		movl	%esp, %ebp
 1029              		.cfi_def_cfa_register 5
 1030 0865 83EC68   		subl	$104, %esp
 546:C:/Users/president/Desktop/sbx/input/src/os_base\os_task_scheduler.c **** 
 547:C:/Users/president/Desktop/sbx/input/src/os_base\os_task_scheduler.c ****    scheduling_t*    scheduling_queue_member;
 548:C:/Users/president/Desktop/sbx/input/src/os_base\os_task_scheduler.c ****    unsigned_char_t element_nr;
 549:C:/Users/president/Desktop/sbx/input/src/os_base\os_task_scheduler.c **** 
 550:C:/Users/president/Desktop/sbx/input/src/os_base\os_task_scheduler.c ****    unsigned_char_t Winner_prio = 0u;
 1031              		.loc 1 550 20
 1032 0868 C645F600 		movb	$0, -10(%ebp)
 551:C:/Users/president/Desktop/sbx/input/src/os_base\os_task_scheduler.c ****    task_t*         task = 0u;
 1033              		.loc 1 551 20
 1034 086c C745EC00 		movl	$0, -20(%ebp)
 1034      000000
 552:C:/Users/president/Desktop/sbx/input/src/os_base\os_task_scheduler.c ****    task_t*         Winner_task = 0u;
 1035              		.loc 1 552 20
 1036 0873 C745E800 		movl	$0, -24(%ebp)
 1036      000000
 553:C:/Users/president/Desktop/sbx/input/src/os_base\os_task_scheduler.c ****    scheduling_t*   Winner_scheduling_queue_member = 0u;
 1037              		.loc 1 553 20
 1038 087a C745F000 		movl	$0, -16(%ebp)
 1038      000000
 554:C:/Users/president/Desktop/sbx/input/src/os_base\os_task_scheduler.c ****    timebig_t       delta_time;
 555:C:/Users/president/Desktop/sbx/input/src/os_base\os_task_scheduler.c **** 
 556:C:/Users/president/Desktop/sbx/input/src/os_base\os_task_scheduler.c ****    timebig_t time;
 557:C:/Users/president/Desktop/sbx/input/src/os_base\os_task_scheduler.c **** 
 558:C:/Users/president/Desktop/sbx/input/src/os_base\os_task_scheduler.c ****    OS_GET_CURRENT_TIME(&time);
 1039              		.loc 1 558 4
 1040 0881 8D45C4   		leal	-60(%ebp), %eax
 1041 0884 890424   		movl	%eax, (%esp)
 1042 0887 E8000000 		call	_OS_GET_CURRENT_TIME
 1042      00
 559:C:/Users/president/Desktop/sbx/input/src/os_base\os_task_scheduler.c **** 
 560:C:/Users/president/Desktop/sbx/input/src/os_base\os_task_scheduler.c ****    INT_SUB(&delta_time, &time, &LAST_CURRENT_TIME);
 1043              		.loc 1 560 4
 1044 088c C7442408 		movl	$_LAST_CURRENT_TIME, 8(%esp)
 1044      00000000 
 1045 0894 8D45C4   		leal	-60(%ebp), %eax
 1046 0897 89442404 		movl	%eax, 4(%esp)
 1047 089b 8D45D4   		leal	-44(%ebp), %eax
GAS LISTING C:\Users\PRESID~1\AppData\Local\Temp\ccM0pvSr.s 			page 33


 1048 089e 890424   		movl	%eax, (%esp)
 1049 08a1 E8000000 		call	_INT_SUB
 1049      00
 561:C:/Users/president/Desktop/sbx/input/src/os_base\os_task_scheduler.c **** 
 562:C:/Users/president/Desktop/sbx/input/src/os_base\os_task_scheduler.c ****    ASSIGN(&LAST_CURRENT_TIME,&time);
 1050              		.loc 1 562 4
 1051 08a6 8D45C4   		leal	-60(%ebp), %eax
 1052 08a9 89442404 		movl	%eax, 4(%esp)
 1053 08ad C7042400 		movl	$_LAST_CURRENT_TIME, (%esp)
 1053      000000
 1054 08b4 E8000000 		call	_ASSIGN
 1054      00
 563:C:/Users/president/Desktop/sbx/input/src/os_base\os_task_scheduler.c **** 
 564:C:/Users/president/Desktop/sbx/input/src/os_base\os_task_scheduler.c ****    REFERENCE_UNUSED_PARAMETER(Winner_task);
 565:C:/Users/president/Desktop/sbx/input/src/os_base\os_task_scheduler.c ****    /*
 566:C:/Users/president/Desktop/sbx/input/src/os_base\os_task_scheduler.c ****    x const for single task: task->default_prio // low = 0,.....high=100
 567:C:/Users/president/Desktop/sbx/input/src/os_base\os_task_scheduler.c ****    x var   for single task: task->current_prio // see prio_std
 568:C:/Users/president/Desktop/sbx/input/src/os_base\os_task_scheduler.c ****    x var   for single task: task->wait_time    //
 569:C:/Users/president/Desktop/sbx/input/src/os_base\os_task_scheduler.c ****    x var   for single task: task->exe_time
 570:C:/Users/president/Desktop/sbx/input/src/os_base\os_task_scheduler.c ****    x const for single task: task->time_to_prio_inc
 571:C:/Users/president/Desktop/sbx/input/src/os_base\os_task_scheduler.c ****    x const for single task: task->max_allowed_wait_time
 572:C:/Users/president/Desktop/sbx/input/src/os_base\os_task_scheduler.c ****    x const for single task: task->min_allowed_wait_time
 573:C:/Users/president/Desktop/sbx/input/src/os_base\os_task_scheduler.c ****    x const for single task: task->overwaittime_per_prio_inc_step //e.g. 100*MinTimeSlice_us
 574:C:/Users/president/Desktop/sbx/input/src/os_base\os_task_scheduler.c ****    x const for single task: task->task_group  //to allow processor access control by groups (e.g. u
 575:C:/Users/president/Desktop/sbx/input/src/os_base\os_task_scheduler.c ****    x const for single task: task->wait_act_until
 576:C:/Users/president/Desktop/sbx/input/src/os_base\os_task_scheduler.c ****    (task_group is designed to allow proccessor access control between e.g. Customer Software Task a
 577:C:/Users/president/Desktop/sbx/input/src/os_base\os_task_scheduler.c ****    */
 578:C:/Users/president/Desktop/sbx/input/src/os_base\os_task_scheduler.c ****    FOR_ALL_TASKS_IN_QUEUE(element_nr)
 1055              		.loc 1 578 4
 1056 08b9 C645F700 		movb	$0, -9(%ebp)
 1057 08bd E9390100 		jmp	L78
 1057      00
 1058              	L86:
 579:C:/Users/president/Desktop/sbx/input/src/os_base\os_task_scheduler.c ****    {
 580:C:/Users/president/Desktop/sbx/input/src/os_base\os_task_scheduler.c ****       scheduling_queue_member = GET_FROM_SCHEDULING_QUEUE(element_nr);
 1059              		.loc 1 580 33
 1060 08c2 0FB645F7 		movzbl	-9(%ebp), %eax
 1061 08c6 890424   		movl	%eax, (%esp)
 1062 08c9 E8000000 		call	_GET_FROM_SCHEDULING_QUEUE
 1062      00
 1063 08ce 8945E4   		movl	%eax, -28(%ebp)
 581:C:/Users/president/Desktop/sbx/input/src/os_base\os_task_scheduler.c ****       /*task will have a pointer on the task_obj, and might be equal to "(task_t*) 0" */
 582:C:/Users/president/Desktop/sbx/input/src/os_base\os_task_scheduler.c ****       task             = GET_FROM_TASK_QUEUE(scheduling_queue_member);
 1064              		.loc 1 582 26
 1065 08d1 8B45E4   		movl	-28(%ebp), %eax
 1066 08d4 890424   		movl	%eax, (%esp)
 1067 08d7 E8000000 		call	_GET_FROM_TASK_QUEUE
 1067      00
 1068 08dc 8945EC   		movl	%eax, -20(%ebp)
 583:C:/Users/president/Desktop/sbx/input/src/os_base\os_task_scheduler.c ****       /* increase prio: high numbers->high prio */
 584:C:/Users/president/Desktop/sbx/input/src/os_base\os_task_scheduler.c ****       if((task != NULL)&&(task->task_queued != FALSE))
 1069              		.loc 1 584 9
 1070 08df 837DEC00 		cmpl	$0, -20(%ebp)
 1071 08e3 0F840B01 		je	L79
 1071      0000
 1072              		.loc 1 584 45 discriminator 1
 1073 08e9 8B45EC   		movl	-20(%ebp), %eax
GAS LISTING C:\Users\PRESID~1\AppData\Local\Temp\ccM0pvSr.s 			page 34


 1074 08ec 8A00     		movb	(%eax), %al
 1075 08ee 83E002   		andl	$2, %eax
 1076              		.loc 1 584 24 discriminator 1
 1077 08f1 84C0     		testb	%al, %al
 1078 08f3 0F84FB00 		je	L79
 1078      0000
 585:C:/Users/president/Desktop/sbx/input/src/os_base\os_task_scheduler.c ****       {
 586:C:/Users/president/Desktop/sbx/input/src/os_base\os_task_scheduler.c ****          if(IS_GREATER_OR_EQUAL(&task->wait_time, &task->time_to_prio_inc))
 1079              		.loc 1 586 51
 1080 08f9 8B45EC   		movl	-20(%ebp), %eax
 1081 08fc 8D5026   		leal	38(%eax), %edx
 1082              		.loc 1 586 33
 1083 08ff 8B45EC   		movl	-20(%ebp), %eax
 1084 0902 83C016   		addl	$22, %eax
 1085              		.loc 1 586 13
 1086 0905 89542404 		movl	%edx, 4(%esp)
 1087 0909 890424   		movl	%eax, (%esp)
 1088 090c E8000000 		call	_IS_GREATER_OR_EQUAL
 1088      00
 1089              		.loc 1 586 12
 1090 0911 84C0     		testb	%al, %al
 1091 0913 7414     		je	L80
 587:C:/Users/president/Desktop/sbx/input/src/os_base\os_task_scheduler.c ****          {
 588:C:/Users/president/Desktop/sbx/input/src/os_base\os_task_scheduler.c ****             task->current_prio = task->current_prio + task->overwaittime_per_prio_inc_step;
 1092              		.loc 1 588 38
 1093 0915 8B45EC   		movl	-20(%ebp), %eax
 1094 0918 8A506C   		movb	108(%eax), %dl
 1095              		.loc 1 588 59
 1096 091b 8B45EC   		movl	-20(%ebp), %eax
 1097 091e 8B4038   		movl	56(%eax), %eax
 1098              		.loc 1 588 53
 1099 0921 01C2     		addl	%eax, %edx
 1100              		.loc 1 588 32
 1101 0923 8B45EC   		movl	-20(%ebp), %eax
 1102 0926 88506C   		movb	%dl, 108(%eax)
 1103              	L80:
 589:C:/Users/president/Desktop/sbx/input/src/os_base\os_task_scheduler.c ****          }
 590:C:/Users/president/Desktop/sbx/input/src/os_base\os_task_scheduler.c ****          /* in case wait condition not yet fulfilled, set prio to 0 */
 591:C:/Users/president/Desktop/sbx/input/src/os_base\os_task_scheduler.c ****          if(IS_GREATER(&task->wait_act_until, &time))
 1104              		.loc 1 591 24
 1105 0929 8B45EC   		movl	-20(%ebp), %eax
 1106 092c 8D5006   		leal	6(%eax), %edx
 1107              		.loc 1 591 13
 1108 092f 8D45C4   		leal	-60(%ebp), %eax
 1109 0932 89442404 		movl	%eax, 4(%esp)
 1110 0936 891424   		movl	%edx, (%esp)
 1111 0939 E8000000 		call	_IS_GREATER
 1111      00
 1112              		.loc 1 591 12
 1113 093e 84C0     		testb	%al, %al
 1114 0940 7407     		je	L81
 592:C:/Users/president/Desktop/sbx/input/src/os_base\os_task_scheduler.c ****          {
 593:C:/Users/president/Desktop/sbx/input/src/os_base\os_task_scheduler.c ****             task->current_prio = 0u;
 1115              		.loc 1 593 32
 1116 0942 8B45EC   		movl	-20(%ebp), %eax
 1117 0945 C6406C00 		movb	$0, 108(%eax)
 1118              	L81:
GAS LISTING C:\Users\PRESID~1\AppData\Local\Temp\ccM0pvSr.s 			page 35


 594:C:/Users/president/Desktop/sbx/input/src/os_base\os_task_scheduler.c ****          }
 595:C:/Users/president/Desktop/sbx/input/src/os_base\os_task_scheduler.c ****          if(IS_GREATER(&task->wait_time,&task->max_allowed_wait_time))
 1119              		.loc 1 595 41
 1120 0949 8B45EC   		movl	-20(%ebp), %eax
 1121 094c 8D503C   		leal	60(%eax), %edx
 1122              		.loc 1 595 24
 1123 094f 8B45EC   		movl	-20(%ebp), %eax
 1124 0952 83C016   		addl	$22, %eax
 1125              		.loc 1 595 13
 1126 0955 89542404 		movl	%edx, 4(%esp)
 1127 0959 890424   		movl	%eax, (%esp)
 1128 095c E8000000 		call	_IS_GREATER
 1128      00
 1129              		.loc 1 595 12
 1130 0961 84C0     		testb	%al, %al
 1131 0963 7414     		je	L82
 596:C:/Users/president/Desktop/sbx/input/src/os_base\os_task_scheduler.c ****          {
 597:C:/Users/president/Desktop/sbx/input/src/os_base\os_task_scheduler.c ****             /* set bug */
 598:C:/Users/president/Desktop/sbx/input/src/os_base\os_task_scheduler.c ****             OS_SET_SW_BUG(E_OS_BUG_MAX_WAIT_TIME_REACHED, E_FUNC_TASKSCHEDULER);
 1132              		.loc 1 598 13
 1133 0965 C7442404 		movl	$9, 4(%esp)
 1133      09000000 
 1134 096d C704240B 		movl	$11, (%esp)
 1134      000000
 1135 0974 E8000000 		call	_OS_SET_SW_BUG
 1135      00
 1136              	L82:
 599:C:/Users/president/Desktop/sbx/input/src/os_base\os_task_scheduler.c ****          }
 600:C:/Users/president/Desktop/sbx/input/src/os_base\os_task_scheduler.c ****          /* not active TASK_RUN_QUEUE elements have no valid task_group!!*/
 601:C:/Users/president/Desktop/sbx/input/src/os_base\os_task_scheduler.c ****          if(task->task_group != NULL)
 1137              		.loc 1 601 17
 1138 0979 8B45EC   		movl	-20(%ebp), %eax
 1139 097c 8B808000 		movl	128(%eax), %eax
 1139      0000
 1140              		.loc 1 601 12
 1141 0982 85C0     		testl	%eax, %eax
 1142 0984 745A     		je	L83
 602:C:/Users/president/Desktop/sbx/input/src/os_base\os_task_scheduler.c ****          {
 603:C:/Users/president/Desktop/sbx/input/src/os_base\os_task_scheduler.c ****             /* usage the exe time for scheduling strategy */
 604:C:/Users/president/Desktop/sbx/input/src/os_base\os_task_scheduler.c ****             if(IS_GREATER(&task->task_group->exe_time, &task->task_group->fair_exe_time) != FALSE)
 1143              		.loc 1 604 61
 1144 0986 8B45EC   		movl	-20(%ebp), %eax
 1145 0989 8B808000 		movl	128(%eax), %eax
 1145      0000
 1146              		.loc 1 604 56
 1147 098f 8D5010   		leal	16(%eax), %edx
 1148              		.loc 1 604 32
 1149 0992 8B45EC   		movl	-20(%ebp), %eax
 1150 0995 8B808000 		movl	128(%eax), %eax
 1150      0000
 1151              		.loc 1 604 16
 1152 099b 89542404 		movl	%edx, 4(%esp)
 1153 099f 890424   		movl	%eax, (%esp)
 1154 09a2 E8000000 		call	_IS_GREATER
 1154      00
 1155              		.loc 1 604 15
 1156 09a7 84C0     		testb	%al, %al
GAS LISTING C:\Users\PRESID~1\AppData\Local\Temp\ccM0pvSr.s 			page 36


 1157 09a9 7449     		je	L79
 1158              	LBB2:
 605:C:/Users/president/Desktop/sbx/input/src/os_base\os_task_scheduler.c ****             {
 606:C:/Users/president/Desktop/sbx/input/src/os_base\os_task_scheduler.c ****                timebig_t tTime;
 607:C:/Users/president/Desktop/sbx/input/src/os_base\os_task_scheduler.c ****                ASSIGN_UINT32(&tTime, TASK_MIN_TIME);
 1159              		.loc 1 607 16
 1160 09ab C7442404 		movl	$1, 4(%esp)
 1160      01000000 
 1161 09b3 8D45B4   		leal	-76(%ebp), %eax
 1162 09b6 890424   		movl	%eax, (%esp)
 1163 09b9 E8000000 		call	_ASSIGN_UINT32
 1163      00
 608:C:/Users/president/Desktop/sbx/input/src/os_base\os_task_scheduler.c ****                if(IS_GREATER_OR_EQUAL(&task->exe_time, &tTime))/* guarantee min time */
 1164              		.loc 1 608 39
 1165 09be 8B45EC   		movl	-20(%ebp), %eax
 1166 09c1 8D504C   		leal	76(%eax), %edx
 1167              		.loc 1 608 19
 1168 09c4 8D45B4   		leal	-76(%ebp), %eax
 1169 09c7 89442404 		movl	%eax, 4(%esp)
 1170 09cb 891424   		movl	%edx, (%esp)
 1171 09ce E8000000 		call	_IS_GREATER_OR_EQUAL
 1171      00
 1172              		.loc 1 608 18
 1173 09d3 84C0     		testb	%al, %al
 1174 09d5 741D     		je	L79
 609:C:/Users/president/Desktop/sbx/input/src/os_base\os_task_scheduler.c ****                {
 610:C:/Users/president/Desktop/sbx/input/src/os_base\os_task_scheduler.c ****                   task->current_prio = 0u;
 1175              		.loc 1 610 38
 1176 09d7 8B45EC   		movl	-20(%ebp), %eax
 1177 09da C6406C00 		movb	$0, 108(%eax)
 1178 09de EB14     		jmp	L79
 1179              	L83:
 1180              	LBE2:
 611:C:/Users/president/Desktop/sbx/input/src/os_base\os_task_scheduler.c ****                }
 612:C:/Users/president/Desktop/sbx/input/src/os_base\os_task_scheduler.c ****             }
 613:C:/Users/president/Desktop/sbx/input/src/os_base\os_task_scheduler.c ****          }
 614:C:/Users/president/Desktop/sbx/input/src/os_base\os_task_scheduler.c ****          else
 615:C:/Users/president/Desktop/sbx/input/src/os_base\os_task_scheduler.c ****          {
 616:C:/Users/president/Desktop/sbx/input/src/os_base\os_task_scheduler.c ****             OS_SET_SW_BUG(E_OS_BUG_NULL_POINTER, E_FUNC_TASKSCHEDULER);
 1181              		.loc 1 616 13
 1182 09e0 C7442404 		movl	$9, 4(%esp)
 1182      09000000 
 1183 09e8 C7042402 		movl	$2, (%esp)
 1183      000000
 1184 09ef E8000000 		call	_OS_SET_SW_BUG
 1184      00
 1185              	L79:
 578:C:/Users/president/Desktop/sbx/input/src/os_base\os_task_scheduler.c ****    {
 1186              		.loc 1 578 4 discriminator 2
 1187 09f4 8A45F7   		movb	-9(%ebp), %al
 1188 09f7 40       		incl	%eax
 1189 09f8 8845F7   		movb	%al, -9(%ebp)
 1190              	L78:
 578:C:/Users/president/Desktop/sbx/input/src/os_base\os_task_scheduler.c ****    {
 1191              		.loc 1 578 4 is_stmt 0 discriminator 1
 1192 09fb 807DF709 		cmpb	$9, -9(%ebp)
 1193 09ff 0F86BDFE 		jbe	L86
GAS LISTING C:\Users\PRESID~1\AppData\Local\Temp\ccM0pvSr.s 			page 37


 1193      FFFF
 617:C:/Users/president/Desktop/sbx/input/src/os_base\os_task_scheduler.c ****          }
 618:C:/Users/president/Desktop/sbx/input/src/os_base\os_task_scheduler.c ****       }
 619:C:/Users/president/Desktop/sbx/input/src/os_base\os_task_scheduler.c ****       /* do not set bug, because task =0 is used for empty queue elements
 620:C:/Users/president/Desktop/sbx/input/src/os_base\os_task_scheduler.c ****       else
 621:C:/Users/president/Desktop/sbx/input/src/os_base\os_task_scheduler.c ****       {
 622:C:/Users/president/Desktop/sbx/input/src/os_base\os_task_scheduler.c ****           OS_SET_SW_BUG(E_OS_BUG_NULL_POINTER, E_FUNC_TASKSCHEDULER);
 623:C:/Users/president/Desktop/sbx/input/src/os_base\os_task_scheduler.c ****       }
 624:C:/Users/president/Desktop/sbx/input/src/os_base\os_task_scheduler.c ****       */
 625:C:/Users/president/Desktop/sbx/input/src/os_base\os_task_scheduler.c ****    }
 626:C:/Users/president/Desktop/sbx/input/src/os_base\os_task_scheduler.c ****    FOR_ALL_TASKS_IN_QUEUE(element_nr)
 1194              		.loc 1 626 4 is_stmt 1
 1195 0a05 C645F700 		movb	$0, -9(%ebp)
 1196 0a09 EB75     		jmp	L87
 1197              	L90:
 627:C:/Users/president/Desktop/sbx/input/src/os_base\os_task_scheduler.c ****    {
 628:C:/Users/president/Desktop/sbx/input/src/os_base\os_task_scheduler.c ****       scheduling_queue_member = GET_FROM_SCHEDULING_QUEUE(element_nr);
 1198              		.loc 1 628 33
 1199 0a0b 0FB645F7 		movzbl	-9(%ebp), %eax
 1200 0a0f 890424   		movl	%eax, (%esp)
 1201 0a12 E8000000 		call	_GET_FROM_SCHEDULING_QUEUE
 1201      00
 1202 0a17 8945E4   		movl	%eax, -28(%ebp)
 629:C:/Users/president/Desktop/sbx/input/src/os_base\os_task_scheduler.c ****       task             = GET_FROM_TASK_QUEUE(scheduling_queue_member);
 1203              		.loc 1 629 26
 1204 0a1a 8B45E4   		movl	-28(%ebp), %eax
 1205 0a1d 890424   		movl	%eax, (%esp)
 1206 0a20 E8000000 		call	_GET_FROM_TASK_QUEUE
 1206      00
 1207 0a25 8945EC   		movl	%eax, -20(%ebp)
 630:C:/Users/president/Desktop/sbx/input/src/os_base\os_task_scheduler.c ****       if(task != NULL)
 1208              		.loc 1 630 9
 1209 0a28 837DEC00 		cmpl	$0, -20(%ebp)
 1210 0a2c 744B     		je	L88
 631:C:/Users/president/Desktop/sbx/input/src/os_base\os_task_scheduler.c ****       {
 632:C:/Users/president/Desktop/sbx/input/src/os_base\os_task_scheduler.c ****          /*update wait time */
 633:C:/Users/president/Desktop/sbx/input/src/os_base\os_task_scheduler.c ****          if(task->idle_task != TRUE)
 1211              		.loc 1 633 29
 1212 0a2e 8B45EC   		movl	-20(%ebp), %eax
 1213 0a31 8A00     		movb	(%eax), %al
 1214 0a33 83E004   		andl	$4, %eax
 1215              		.loc 1 633 12
 1216 0a36 84C0     		testb	%al, %al
 1217 0a38 751F     		jne	L89
 634:C:/Users/president/Desktop/sbx/input/src/os_base\os_task_scheduler.c ****          {
 635:C:/Users/president/Desktop/sbx/input/src/os_base\os_task_scheduler.c ****             INT_ADD(&task->wait_time, &task->wait_time, &delta_time);
 1218              		.loc 1 635 39
 1219 0a3a 8B45EC   		movl	-20(%ebp), %eax
 1220 0a3d 8D4816   		leal	22(%eax), %ecx
 1221              		.loc 1 635 21
 1222 0a40 8B45EC   		movl	-20(%ebp), %eax
 1223 0a43 8D5016   		leal	22(%eax), %edx
 1224              		.loc 1 635 13
 1225 0a46 8D45D4   		leal	-44(%ebp), %eax
 1226 0a49 89442408 		movl	%eax, 8(%esp)
 1227 0a4d 894C2404 		movl	%ecx, 4(%esp)
 1228 0a51 891424   		movl	%edx, (%esp)
GAS LISTING C:\Users\PRESID~1\AppData\Local\Temp\ccM0pvSr.s 			page 38


 1229 0a54 E8000000 		call	_INT_ADD
 1229      00
 1230              	L89:
 636:C:/Users/president/Desktop/sbx/input/src/os_base\os_task_scheduler.c ****          }
 637:C:/Users/president/Desktop/sbx/input/src/os_base\os_task_scheduler.c ****          /* search for task with highest prio and assign it to Winner_task */
 638:C:/Users/president/Desktop/sbx/input/src/os_base\os_task_scheduler.c ****          if(task->current_prio > Winner_prio)
 1231              		.loc 1 638 17
 1232 0a59 8B45EC   		movl	-20(%ebp), %eax
 1233 0a5c 8A406C   		movb	108(%eax), %al
 1234              		.loc 1 638 12
 1235 0a5f 3845F6   		cmpb	%al, -10(%ebp)
 1236 0a62 7315     		jnb	L88
 639:C:/Users/president/Desktop/sbx/input/src/os_base\os_task_scheduler.c ****          {
 640:C:/Users/president/Desktop/sbx/input/src/os_base\os_task_scheduler.c ****             Winner_prio = task->current_prio;
 1237              		.loc 1 640 25
 1238 0a64 8B45EC   		movl	-20(%ebp), %eax
 1239 0a67 8A406C   		movb	108(%eax), %al
 1240 0a6a 8845F6   		movb	%al, -10(%ebp)
 641:C:/Users/president/Desktop/sbx/input/src/os_base\os_task_scheduler.c ****             Winner_task = task;
 1241              		.loc 1 641 25
 1242 0a6d 8B45EC   		movl	-20(%ebp), %eax
 1243 0a70 8945E8   		movl	%eax, -24(%ebp)
 642:C:/Users/president/Desktop/sbx/input/src/os_base\os_task_scheduler.c ****             Winner_scheduling_queue_member = scheduling_queue_member;
 1244              		.loc 1 642 44
 1245 0a73 8B45E4   		movl	-28(%ebp), %eax
 1246 0a76 8945F0   		movl	%eax, -16(%ebp)
 1247              	L88:
 626:C:/Users/president/Desktop/sbx/input/src/os_base\os_task_scheduler.c ****    {
 1248              		.loc 1 626 4 discriminator 2
 1249 0a79 8A45F7   		movb	-9(%ebp), %al
 1250 0a7c 40       		incl	%eax
 1251 0a7d 8845F7   		movb	%al, -9(%ebp)
 1252              	L87:
 626:C:/Users/president/Desktop/sbx/input/src/os_base\os_task_scheduler.c ****    {
 1253              		.loc 1 626 4 is_stmt 0 discriminator 1
 1254 0a80 807DF709 		cmpb	$9, -9(%ebp)
 1255 0a84 7685     		jbe	L90
 643:C:/Users/president/Desktop/sbx/input/src/os_base\os_task_scheduler.c ****          }
 644:C:/Users/president/Desktop/sbx/input/src/os_base\os_task_scheduler.c **** 
 645:C:/Users/president/Desktop/sbx/input/src/os_base\os_task_scheduler.c ****       }
 646:C:/Users/president/Desktop/sbx/input/src/os_base\os_task_scheduler.c ****       /* do not set bug, because task =0 is used for empty queue elements
 647:C:/Users/president/Desktop/sbx/input/src/os_base\os_task_scheduler.c ****       else
 648:C:/Users/president/Desktop/sbx/input/src/os_base\os_task_scheduler.c ****       {
 649:C:/Users/president/Desktop/sbx/input/src/os_base\os_task_scheduler.c ****           OS_SET_SW_BUG(E_OS_BUG_NULL_POINTER, E_FUNC_TASKSCHEDULER);
 650:C:/Users/president/Desktop/sbx/input/src/os_base\os_task_scheduler.c ****       }
 651:C:/Users/president/Desktop/sbx/input/src/os_base\os_task_scheduler.c ****       */
 652:C:/Users/president/Desktop/sbx/input/src/os_base\os_task_scheduler.c ****    }
 653:C:/Users/president/Desktop/sbx/input/src/os_base\os_task_scheduler.c ****    return Winner_scheduling_queue_member;
 1256              		.loc 1 653 11 is_stmt 1
 1257 0a86 8B45F0   		movl	-16(%ebp), %eax
 654:C:/Users/president/Desktop/sbx/input/src/os_base\os_task_scheduler.c **** }
 1258              		.loc 1 654 1
 1259 0a89 C9       		leave
 1260              		.cfi_restore 5
 1261              		.cfi_def_cfa 4, 4
 1262 0a8a C3       		ret
 1263              		.cfi_endproc
GAS LISTING C:\Users\PRESID~1\AppData\Local\Temp\ccM0pvSr.s 			page 39


 1264              	LFE14:
 1265              	Letext0:
 1266              		.file 2 "c:/users/president/desktop/sbx/input/src/os_base/os_base_types.h"
 1267              		.file 3 "c:/users/president/desktop/sbx/input/src/os_base/os_common.h"
 1268              		.file 4 "c:/users/president/desktop/sbx/input/src/os_sim/lld_core.h"
 1269              		.file 5 "c:/users/president/desktop/sbx/input/src/os_base/os_task_common.h"
 1270              		.file 6 "C:/Users/president/Desktop/sbx/input/src/os_base/os_main.h"
 1271              		.file 7 "c:/users/president/desktop/sbx/input/src/os_base/os_ram.h"
 1272              		.file 8 "c:/users/president/desktop/sbx/input/src/os_base/os_ram_stack.h"
 1273              		.section	.debug_info,"dr"
 1274              	Ldebug_info0:
 1275 0000 73170000 		.long	0x1773
 1276 0004 0400     		.word	0x4
 1277 0006 00000000 		.secrel32	Ldebug_abbrev0
 1278 000a 04       		.byte	0x4
 1279 000b 01       		.uleb128 0x1
 1280 000c 474E5520 		.ascii "GNU C89 8.2.0 -march=i386 -g3 -O0 -std=c90\0"
 1280      43383920 
 1280      382E322E 
 1280      30202D6D 
 1280      61726368 
 1281 0037 01       		.byte	0x1
 1282 0038 433A5C55 		.ascii "C:\\Users\\president\\Desktop\\sbx\\input\\src\\os_base\\os_task_scheduler.c\0"
 1282      73657273 
 1282      5C707265 
 1282      73696465 
 1282      6E745C44 
 1283 007d 433A5C50 		.ascii "C:\\Program\\MinGW\\bin\0"
 1283      726F6772 
 1283      616D5C4D 
 1283      696E4757 
 1283      5C62696E 
 1284 0092 00000000 		.long	Ltext0
 1285 0096 8B0A0000 		.long	Letext0-Ltext0
 1286 009a 00000000 		.secrel32	Ldebug_line0
 1287 009e 00000000 		.secrel32	Ldebug_macro0
 1288 00a2 02       		.uleb128 0x2
 1289 00a3 756E7369 		.ascii "unsigned_char_t\0"
 1289      676E6564 
 1289      5F636861 
 1289      725F7400 
 1290 00b3 02       		.byte	0x2
 1291 00b4 11       		.byte	0x11
 1292 00b5 18       		.byte	0x18
 1293 00b6 BA000000 		.long	0xba
 1294 00ba 03       		.uleb128 0x3
 1295 00bb 01       		.byte	0x1
 1296 00bc 08       		.byte	0x8
 1297 00bd 756E7369 		.ascii "unsigned char\0"
 1297      676E6564 
 1297      20636861 
 1297      7200
 1298 00cb 03       		.uleb128 0x3
 1299 00cc 01       		.byte	0x1
 1300 00cd 06       		.byte	0x6
 1301 00ce 7369676E 		.ascii "signed char\0"
 1301      65642063 
GAS LISTING C:\Users\PRESID~1\AppData\Local\Temp\ccM0pvSr.s 			page 40


 1301      68617200 
 1302 00da 02       		.uleb128 0x2
 1303 00db 75696E74 		.ascii "uint8\0"
 1303      3800
 1304 00e1 02       		.byte	0x2
 1305 00e2 15       		.byte	0x15
 1306 00e3 18       		.byte	0x18
 1307 00e4 BA000000 		.long	0xba
 1308 00e8 03       		.uleb128 0x3
 1309 00e9 02       		.byte	0x2
 1310 00ea 07       		.byte	0x7
 1311 00eb 73686F72 		.ascii "short unsigned int\0"
 1311      7420756E 
 1311      7369676E 
 1311      65642069 
 1311      6E7400
 1312 00fe 03       		.uleb128 0x3
 1313 00ff 02       		.byte	0x2
 1314 0100 05       		.byte	0x5
 1315 0101 73686F72 		.ascii "short int\0"
 1315      7420696E 
 1315      7400
 1316 010b 02       		.uleb128 0x2
 1317 010c 756E7369 		.ascii "unsigned_int32_t\0"
 1317      676E6564 
 1317      5F696E74 
 1317      33325F74 
 1317      00
 1318 011d 02       		.byte	0x2
 1319 011e 1B       		.byte	0x1b
 1320 011f 18       		.byte	0x18
 1321 0120 24010000 		.long	0x124
 1322 0124 03       		.uleb128 0x3
 1323 0125 04       		.byte	0x4
 1324 0126 07       		.byte	0x7
 1325 0127 6C6F6E67 		.ascii "long unsigned int\0"
 1325      20756E73 
 1325      69676E65 
 1325      6420696E 
 1325      7400
 1326 0139 03       		.uleb128 0x3
 1327 013a 04       		.byte	0x4
 1328 013b 05       		.byte	0x5
 1329 013c 6C6F6E67 		.ascii "long int\0"
 1329      20696E74 
 1329      00
 1330 0145 02       		.uleb128 0x2
 1331 0146 75696E74 		.ascii "uint32\0"
 1331      333200
 1332 014d 02       		.byte	0x2
 1333 014e 1D       		.byte	0x1d
 1334 014f 18       		.byte	0x18
 1335 0150 24010000 		.long	0x124
 1336 0154 04       		.uleb128 0x4
 1337 0155 45010000 		.long	0x145
 1338 0159 05       		.uleb128 0x5
 1339 015a 6F735F73 		.ascii "os_sw_bugs_e\0"
GAS LISTING C:\Users\PRESID~1\AppData\Local\Temp\ccM0pvSr.s 			page 41


 1339      775F6275 
 1339      67735F65 
 1339      00
 1340 0167 07       		.byte	0x7
 1341 0168 04       		.byte	0x4
 1342 0169 33030000 		.long	0x333
 1343 016d 03       		.byte	0x3
 1344 016e 2E       		.byte	0x2e
 1345 016f 06       		.byte	0x6
 1346 0170 33030000 		.long	0x333
 1347 0174 06       		.uleb128 0x6
 1348 0175 455F4F53 		.ascii "E_OS_BUG_NO_BUG\0"
 1348      5F425547 
 1348      5F4E4F5F 
 1348      42554700 
 1349 0185 00       		.byte	0
 1350 0186 06       		.uleb128 0x6
 1351 0187 455F4F53 		.ascii "E_OS_BUG_TASKSTATE_REQUEST_DENIED\0"
 1351      5F425547 
 1351      5F544153 
 1351      4B535441 
 1351      54455F52 
 1352 01a9 01       		.byte	0x1
 1353 01aa 06       		.uleb128 0x6
 1354 01ab 455F4F53 		.ascii "E_OS_BUG_NULL_POINTER\0"
 1354      5F425547 
 1354      5F4E554C 
 1354      4C5F504F 
 1354      494E5445 
 1355 01c1 02       		.byte	0x2
 1356 01c2 06       		.uleb128 0x6
 1357 01c3 455F4F53 		.ascii "E_OS_BUG_TASK_MAX_WAIT_TIME_REACHED\0"
 1357      5F425547 
 1357      5F544153 
 1357      4B5F4D41 
 1357      585F5741 
 1358 01e7 03       		.byte	0x3
 1359 01e8 06       		.uleb128 0x6
 1360 01e9 455F4F53 		.ascii "E_OS_BUG_TASK_UNSPECIFIED\0"
 1360      5F425547 
 1360      5F544153 
 1360      4B5F554E 
 1360      53504543 
 1361 0203 04       		.byte	0x4
 1362 0204 06       		.uleb128 0x6
 1363 0205 455F4F53 		.ascii "E_OS_BUG_EXCEPTION_UNDEFINSTRUCTION\0"
 1363      5F425547 
 1363      5F455843 
 1363      45505449 
 1363      4F4E5F55 
 1364 0229 05       		.byte	0x5
 1365 022a 06       		.uleb128 0x6
 1366 022b 455F4F53 		.ascii "E_OS_BUG_EXCEPTION_ABORTPREFETCH\0"
 1366      5F425547 
 1366      5F455843 
 1366      45505449 
 1366      4F4E5F41 
GAS LISTING C:\Users\PRESID~1\AppData\Local\Temp\ccM0pvSr.s 			page 42


 1367 024c 06       		.byte	0x6
 1368 024d 06       		.uleb128 0x6
 1369 024e 455F4F53 		.ascii "E_OS_BUG_EXCEPTION_ABORTDATA\0"
 1369      5F425547 
 1369      5F455843 
 1369      45505449 
 1369      4F4E5F41 
 1370 026b 07       		.byte	0x7
 1371 026c 06       		.uleb128 0x6
 1372 026d 455F4F53 		.ascii "E_OS_BUG_RESET_EXIT_OR_SHUTDOWN_FAILED\0"
 1372      5F425547 
 1372      5F524553 
 1372      45545F45 
 1372      5849545F 
 1373 0294 08       		.byte	0x8
 1374 0295 06       		.uleb128 0x6
 1375 0296 455F4F53 		.ascii "E_OS_BUG_CRITICAL_STACK_USAGE\0"
 1375      5F425547 
 1375      5F435249 
 1375      54494341 
 1375      4C5F5354 
 1376 02b4 09       		.byte	0x9
 1377 02b5 06       		.uleb128 0x6
 1378 02b6 455F4F53 		.ascii "E_OS_BUG_SVC_NUMBER_MISSING\0"
 1378      5F425547 
 1378      5F535643 
 1378      5F4E554D 
 1378      4245525F 
 1379 02d2 0A       		.byte	0xa
 1380 02d3 06       		.uleb128 0x6
 1381 02d4 455F4F53 		.ascii "E_OS_BUG_MAX_WAIT_TIME_REACHED\0"
 1381      5F425547 
 1381      5F4D4158 
 1381      5F574149 
 1381      545F5449 
 1382 02f3 0B       		.byte	0xb
 1383 02f4 06       		.uleb128 0x6
 1384 02f5 455F4F53 		.ascii "E_OS_BUG_DIVISION_BY_ZERO\0"
 1384      5F425547 
 1384      5F444956 
 1384      4953494F 
 1384      4E5F4259 
 1385 030f 0C       		.byte	0xc
 1386 0310 06       		.uleb128 0x6
 1387 0311 455F4F53 		.ascii "E_OS_BUG_BIT_SHIFT_OUT_OF_RANGE\0"
 1387      5F425547 
 1387      5F424954 
 1387      5F534849 
 1387      46545F4F 
 1388 0331 0D       		.byte	0xd
 1389 0332 00       		.byte	0
 1390 0333 03       		.uleb128 0x3
 1391 0334 04       		.byte	0x4
 1392 0335 07       		.byte	0x7
 1393 0336 756E7369 		.ascii "unsigned int\0"
 1393      676E6564 
 1393      20696E74 
GAS LISTING C:\Users\PRESID~1\AppData\Local\Temp\ccM0pvSr.s 			page 43


 1393      00
 1394 0343 02       		.uleb128 0x2
 1395 0344 6F735F73 		.ascii "os_sw_bugs_t\0"
 1395      775F6275 
 1395      67735F74 
 1395      00
 1396 0351 03       		.byte	0x3
 1397 0352 3F       		.byte	0x3f
 1398 0353 1B       		.byte	0x1b
 1399 0354 59010000 		.long	0x159
 1400 0358 04       		.uleb128 0x4
 1401 0359 43030000 		.long	0x343
 1402 035d 05       		.uleb128 0x5
 1403 035e 6F735F73 		.ascii "os_sw_bugs_function_e\0"
 1403      775F6275 
 1403      67735F66 
 1403      756E6374 
 1403      696F6E5F 
 1404 0374 07       		.byte	0x7
 1405 0375 04       		.byte	0x4
 1406 0376 33030000 		.long	0x333
 1407 037a 03       		.byte	0x3
 1408 037b 43       		.byte	0x43
 1409 037c 06       		.byte	0x6
 1410 037d 7B050000 		.long	0x57b
 1411 0381 06       		.uleb128 0x6
 1412 0382 455F4655 		.ascii "E_FUNC_NOFUNCTION\0"
 1412      4E435F4E 
 1412      4F46554E 
 1412      4354494F 
 1412      4E00
 1413 0394 00       		.byte	0
 1414 0395 06       		.uleb128 0x6
 1415 0396 455F4655 		.ascii "E_FUNC_SAVETASKENVIRONMENT\0"
 1415      4E435F53 
 1415      41564554 
 1415      41534B45 
 1415      4E564952 
 1416 03b1 01       		.byte	0x1
 1417 03b2 06       		.uleb128 0x6
 1418 03b3 455F4655 		.ascii "E_FUNC_RESTORETASKENVIRONMENT\0"
 1418      4E435F52 
 1418      4553544F 
 1418      52455441 
 1418      534B454E 
 1419 03d1 02       		.byte	0x2
 1420 03d2 06       		.uleb128 0x6
 1421 03d3 455F4655 		.ascii "E_FUNC_CREATETASKENVIRONMENT\0"
 1421      4E435F43 
 1421      52454154 
 1421      45544153 
 1421      4B454E56 
 1422 03f0 03       		.byte	0x3
 1423 03f1 06       		.uleb128 0x6
 1424 03f2 455F4655 		.ascii "E_FUNC_DELETETASKENVIRONMENT\0"
 1424      4E435F44 
 1424      454C4554 
GAS LISTING C:\Users\PRESID~1\AppData\Local\Temp\ccM0pvSr.s 			page 44


 1424      45544153 
 1424      4B454E56 
 1425 040f 04       		.byte	0x4
 1426 0410 06       		.uleb128 0x6
 1427 0411 455F4655 		.ascii "E_FUNC_INITTASKENVIRONMENT\0"
 1427      4E435F49 
 1427      4E495454 
 1427      41534B45 
 1427      4E564952 
 1428 042c 05       		.byte	0x5
 1429 042d 06       		.uleb128 0x6
 1430 042e 455F4655 		.ascii "E_FUNC_STARTTASK\0"
 1430      4E435F53 
 1430      54415254 
 1430      5441534B 
 1430      00
 1431 043f 06       		.byte	0x6
 1432 0440 06       		.uleb128 0x6
 1433 0441 455F4655 		.ascii "E_FUNC_PREEMPTTASK\0"
 1433      4E435F50 
 1433      5245454D 
 1433      50545441 
 1433      534B00
 1434 0454 07       		.byte	0x7
 1435 0455 06       		.uleb128 0x6
 1436 0456 455F4655 		.ascii "E_FUNC_TERMINATETASK\0"
 1436      4E435F54 
 1436      45524D49 
 1436      4E415445 
 1436      5441534B 
 1437 046b 08       		.byte	0x8
 1438 046c 06       		.uleb128 0x6
 1439 046d 455F4655 		.ascii "E_FUNC_TASKSCHEDULER\0"
 1439      4E435F54 
 1439      41534B53 
 1439      43484544 
 1439      554C4552 
 1440 0482 09       		.byte	0x9
 1441 0483 06       		.uleb128 0x6
 1442 0484 455F4655 		.ascii "E_FUNC_INITTASK\0"
 1442      4E435F49 
 1442      4E495454 
 1442      41534B00 
 1443 0494 0A       		.byte	0xa
 1444 0495 06       		.uleb128 0x6
 1445 0496 455F4655 		.ascii "E_FUNC_ACTIVATETASK\0"
 1445      4E435F41 
 1445      43544956 
 1445      41544554 
 1445      41534B00 
 1446 04aa 0B       		.byte	0xb
 1447 04ab 06       		.uleb128 0x6
 1448 04ac 455F4655 		.ascii "E_FUNC_TASKSTATEREQUEST\0"
 1448      4E435F54 
 1448      41534B53 
 1448      54415445 
 1448      52455155 
GAS LISTING C:\Users\PRESID~1\AppData\Local\Temp\ccM0pvSr.s 			page 45


 1449 04c4 0C       		.byte	0xc
 1450 04c5 06       		.uleb128 0x6
 1451 04c6 455F4655 		.ascii "E_FUNC_PREEMPT_TASK\0"
 1451      4E435F50 
 1451      5245454D 
 1451      50545F54 
 1451      41534B00 
 1452 04da 0D       		.byte	0xd
 1453 04db 06       		.uleb128 0x6
 1454 04dc 455F4655 		.ascii "E_FUNC_OS_EXCEPTION\0"
 1454      4E435F4F 
 1454      535F4558 
 1454      43455054 
 1454      494F4E00 
 1455 04f0 0E       		.byte	0xe
 1456 04f1 06       		.uleb128 0x6
 1457 04f2 455F4655 		.ascii "E_FUNC_CREATETASK\0"
 1457      4E435F43 
 1457      52454154 
 1457      45544153 
 1457      4B00
 1458 0504 0F       		.byte	0xf
 1459 0505 06       		.uleb128 0x6
 1460 0506 455F4655 		.ascii "E_FUNC_SHUTDOWN\0"
 1460      4E435F53 
 1460      48555444 
 1460      4F574E00 
 1461 0516 10       		.byte	0x10
 1462 0517 06       		.uleb128 0x6
 1463 0518 455F4655 		.ascii "E_FUNC_STACKCHECK\0"
 1463      4E435F53 
 1463      5441434B 
 1463      43484543 
 1463      4B00
 1464 052a 11       		.byte	0x11
 1465 052b 06       		.uleb128 0x6
 1466 052c 455F4655 		.ascii "E_FUNC_ISRHANDLER\0"
 1466      4E435F49 
 1466      53524841 
 1466      4E444C45 
 1466      5200
 1467 053e 12       		.byte	0x12
 1468 053f 06       		.uleb128 0x6
 1469 0540 455F4655 		.ascii "E_FUNC_STATE_HANDLER\0"
 1469      4E435F53 
 1469      54415445 
 1469      5F48414E 
 1469      444C4552 
 1470 0555 13       		.byte	0x13
 1471 0556 06       		.uleb128 0x6
 1472 0557 455F4655 		.ascii "E_FUNC_INTDIV\0"
 1472      4E435F49 
 1472      4E544449 
 1472      5600
 1473 0565 14       		.byte	0x14
 1474 0566 06       		.uleb128 0x6
 1475 0567 455F4655 		.ascii "E_FUNC_SHIFT_LEFT\0"
GAS LISTING C:\Users\PRESID~1\AppData\Local\Temp\ccM0pvSr.s 			page 46


 1475      4E435F53 
 1475      48494654 
 1475      5F4C4546 
 1475      5400
 1476 0579 15       		.byte	0x15
 1477 057a 00       		.byte	0
 1478 057b 07       		.uleb128 0x7
 1479 057c 6269675F 		.ascii "big_int_s\0"
 1479      696E745F 
 1479      7300
 1480 0586 10       		.byte	0x10
 1481 0587 03       		.byte	0x3
 1482 0588 63       		.byte	0x63
 1483 0589 10       		.byte	0x10
 1484 058a 9F050000 		.long	0x59f
 1485 058e 08       		.uleb128 0x8
 1486 058f 6E756D62 		.ascii "number\0"
 1486      657200
 1487 0596 03       		.byte	0x3
 1488 0597 6C       		.byte	0x6c
 1489 0598 0A       		.byte	0xa
 1490 0599 9F050000 		.long	0x59f
 1491 059d 00       		.byte	0
 1492 059e 00       		.byte	0
 1493 059f 09       		.uleb128 0x9
 1494 05a0 DA000000 		.long	0xda
 1495 05a4 AF050000 		.long	0x5af
 1496 05a8 0A       		.uleb128 0xa
 1497 05a9 33030000 		.long	0x333
 1498 05ad 0F       		.byte	0xf
 1499 05ae 00       		.byte	0
 1500 05af 02       		.uleb128 0x2
 1501 05b0 6269675F 		.ascii "big_int\0"
 1501      696E7400 
 1502 05b8 03       		.byte	0x3
 1503 05b9 6D       		.byte	0x6d
 1504 05ba 03       		.byte	0x3
 1505 05bb 7B050000 		.long	0x57b
 1506 05bf 02       		.uleb128 0x2
 1507 05c0 74696D65 		.ascii "timebig_t\0"
 1507      6269675F 
 1507      7400
 1508 05ca 03       		.byte	0x3
 1509 05cb 6F       		.byte	0x6f
 1510 05cc 11       		.byte	0x11
 1511 05cd AF050000 		.long	0x5af
 1512 05d1 05       		.uleb128 0x5
 1513 05d2 636F7265 		.ascii "coreid_e\0"
 1513      69645F65 
 1513      00
 1514 05db 07       		.byte	0x7
 1515 05dc 04       		.byte	0x4
 1516 05dd 33030000 		.long	0x333
 1517 05e1 04       		.byte	0x4
 1518 05e2 04       		.byte	0x4
 1519 05e3 06       		.byte	0x6
 1520 05e4 11060000 		.long	0x611
GAS LISTING C:\Users\PRESID~1\AppData\Local\Temp\ccM0pvSr.s 			page 47


 1521 05e8 06       		.uleb128 0x6
 1522 05e9 455F434F 		.ascii "E_CORE0\0"
 1522      52453000 
 1523 05f1 00       		.byte	0
 1524 05f2 06       		.uleb128 0x6
 1525 05f3 455F434F 		.ascii "E_CORE1\0"
 1525      52453100 
 1526 05fb 01       		.byte	0x1
 1527 05fc 06       		.uleb128 0x6
 1528 05fd 455F434F 		.ascii "E_CORE2\0"
 1528      52453200 
 1529 0605 02       		.byte	0x2
 1530 0606 06       		.uleb128 0x6
 1531 0607 455F434F 		.ascii "E_CORE3\0"
 1531      52453300 
 1532 060f 03       		.byte	0x3
 1533 0610 00       		.byte	0
 1534 0611 05       		.uleb128 0x5
 1535 0612 70726976 		.ascii "privilige_mode_e\0"
 1535      696C6967 
 1535      655F6D6F 
 1535      64655F65 
 1535      00
 1536 0623 07       		.byte	0x7
 1537 0624 04       		.byte	0x4
 1538 0625 33030000 		.long	0x333
 1539 0629 04       		.byte	0x4
 1540 062a 10       		.byte	0x10
 1541 062b 06       		.byte	0x6
 1542 062c AF060000 		.long	0x6af
 1543 0630 06       		.uleb128 0x6
 1544 0631 455F5052 		.ascii "E_PRIVILIGEMODE_UNPRIVILIGED_THREAD_MODE\0"
 1544      4956494C 
 1544      4947454D 
 1544      4F44455F 
 1544      554E5052 
 1545 065a 00       		.byte	0
 1546 065b 06       		.uleb128 0x6
 1547 065c 455F5052 		.ascii "E_PRIVILIGEMODE_PRIVILIGED_THREAD_MODE\0"
 1547      4956494C 
 1547      4947454D 
 1547      4F44455F 
 1547      50524956 
 1548 0683 01       		.byte	0x1
 1549 0684 06       		.uleb128 0x6
 1550 0685 455F5052 		.ascii "E_PRIVILIGEMODE_PRIVILIGED_HANDLER_MODE\0"
 1550      4956494C 
 1550      4947454D 
 1550      4F44455F 
 1550      50524956 
 1551 06ad 02       		.byte	0x2
 1552 06ae 00       		.byte	0
 1553 06af 02       		.uleb128 0x2
 1554 06b0 70726976 		.ascii "privilige_mode_t\0"
 1554      696C6967 
 1554      655F6D6F 
 1554      64655F74 
GAS LISTING C:\Users\PRESID~1\AppData\Local\Temp\ccM0pvSr.s 			page 48


 1554      00
 1555 06c1 04       		.byte	0x4
 1556 06c2 16       		.byte	0x16
 1557 06c3 20       		.byte	0x20
 1558 06c4 11060000 		.long	0x611
 1559 06c8 05       		.uleb128 0x5
 1560 06c9 7461736B 		.ascii "task_state_e\0"
 1560      5F737461 
 1560      74655F65 
 1560      00
 1561 06d6 07       		.byte	0x7
 1562 06d7 04       		.byte	0x4
 1563 06d8 33030000 		.long	0x333
 1564 06dc 05       		.byte	0x5
 1565 06dd 07       		.byte	0x7
 1566 06de 06       		.byte	0x6
 1567 06df 2C070000 		.long	0x72c
 1568 06e3 06       		.uleb128 0x6
 1569 06e4 455F5441 		.ascii "E_TASK_UNSPECIFIED\0"
 1569      534B5F55 
 1569      4E535045 
 1569      43494649 
 1569      454400
 1570 06f7 00       		.byte	0
 1571 06f8 06       		.uleb128 0x6
 1572 06f9 455F5441 		.ascii "E_TASK_SUSPENDED\0"
 1572      534B5F53 
 1572      55535045 
 1572      4E444544 
 1572      00
 1573 070a 01       		.byte	0x1
 1574 070b 06       		.uleb128 0x6
 1575 070c 455F5441 		.ascii "E_TASK_READY\0"
 1575      534B5F52 
 1575      45414459 
 1575      00
 1576 0719 02       		.byte	0x2
 1577 071a 06       		.uleb128 0x6
 1578 071b 455F5441 		.ascii "E_TASK_RUNNING\0"
 1578      534B5F52 
 1578      554E4E49 
 1578      4E4700
 1579 072a 03       		.byte	0x3
 1580 072b 00       		.byte	0
 1581 072c 02       		.uleb128 0x2
 1582 072d 7461736B 		.ascii "task_state_t\0"
 1582      5F737461 
 1582      74655F74 
 1582      00
 1583 073a 05       		.byte	0x5
 1584 073b 0E       		.byte	0xe
 1585 073c 1B       		.byte	0x1b
 1586 073d C8060000 		.long	0x6c8
 1587 0741 02       		.uleb128 0x2
 1588 0742 66756E63 		.ascii "func_p_t\0"
 1588      5F705F74 
 1588      00
GAS LISTING C:\Users\PRESID~1\AppData\Local\Temp\ccM0pvSr.s 			page 49


 1589 074b 05       		.byte	0x5
 1590 074c 13       		.byte	0x13
 1591 074d 1B       		.byte	0x1b
 1592 074e 52070000 		.long	0x752
 1593 0752 0B       		.uleb128 0xb
 1594 0753 04       		.byte	0x4
 1595 0754 58070000 		.long	0x758
 1596 0758 0C       		.uleb128 0xc
 1597 0759 63070000 		.long	0x763
 1598 075d 0D       		.uleb128 0xd
 1599 075e 63070000 		.long	0x763
 1600 0762 00       		.byte	0
 1601 0763 0E       		.uleb128 0xe
 1602 0764 04       		.byte	0x4
 1603 0765 02       		.uleb128 0x2
 1604 0766 66756E63 		.ascii "func_p_state_change_t\0"
 1604      5F705F73 
 1604      74617465 
 1604      5F636861 
 1604      6E67655F 
 1605 077c 05       		.byte	0x5
 1606 077d 15       		.byte	0x15
 1607 077e 1B       		.byte	0x1b
 1608 077f 83070000 		.long	0x783
 1609 0783 0B       		.uleb128 0xb
 1610 0784 04       		.byte	0x4
 1611 0785 89070000 		.long	0x789
 1612 0789 0F       		.uleb128 0xf
 1613 078a A2000000 		.long	0xa2
 1614 078e 9D070000 		.long	0x79d
 1615 0792 0D       		.uleb128 0xd
 1616 0793 63070000 		.long	0x763
 1617 0797 0D       		.uleb128 0xd
 1618 0798 2C070000 		.long	0x72c
 1619 079c 00       		.byte	0
 1620 079d 07       		.uleb128 0x7
 1621 079e 7461736B 		.ascii "task_group_s\0"
 1621      5F67726F 
 1621      75705F73 
 1621      00
 1622 07ab 20       		.byte	0x20
 1623 07ac 05       		.byte	0x5
 1624 07ad 18       		.byte	0x18
 1625 07ae 08       		.byte	0x8
 1626 07af D8070000 		.long	0x7d8
 1627 07b3 10       		.uleb128 0x10
 1628 07b4 09000000 		.secrel32	LASF0
 1629 07b8 05       		.byte	0x5
 1630 07b9 1A       		.byte	0x1a
 1631 07ba 0E       		.byte	0xe
 1632 07bb BF050000 		.long	0x5bf
 1633 07bf 00       		.byte	0
 1634 07c0 08       		.uleb128 0x8
 1635 07c1 66616972 		.ascii "fair_exe_time\0"
 1635      5F657865 
 1635      5F74696D 
 1635      6500
GAS LISTING C:\Users\PRESID~1\AppData\Local\Temp\ccM0pvSr.s 			page 50


 1636 07cf 05       		.byte	0x5
 1637 07d0 1B       		.byte	0x1b
 1638 07d1 0E       		.byte	0xe
 1639 07d2 BF050000 		.long	0x5bf
 1640 07d6 10       		.byte	0x10
 1641 07d7 00       		.byte	0
 1642 07d8 02       		.uleb128 0x2
 1643 07d9 7461736B 		.ascii "task_group_t\0"
 1643      5F67726F 
 1643      75705F74 
 1643      00
 1644 07e6 05       		.byte	0x5
 1645 07e7 1D       		.byte	0x1d
 1646 07e8 1D       		.byte	0x1d
 1647 07e9 9D070000 		.long	0x79d
 1648 07ed 07       		.uleb128 0x7
 1649 07ee 7461736B 		.ascii "task_s\0"
 1649      5F7300
 1650 07f5 AC       		.byte	0xac
 1651 07f6 05       		.byte	0x5
 1652 07f7 1F       		.byte	0x1f
 1653 07f8 08       		.byte	0x8
 1654 07f9 990A0000 		.long	0xa99
 1655 07fd 11       		.uleb128 0x11
 1656 07fe 61637469 		.ascii "active\0"
 1656      766500
 1657 0805 05       		.byte	0x5
 1658 0806 21       		.byte	0x21
 1659 0807 0D       		.byte	0xd
 1660 0808 33030000 		.long	0x333
 1661 080c 04       		.byte	0x4
 1662 080d 01       		.byte	0x1
 1663 080e 1F       		.byte	0x1f
 1664 080f 00       		.byte	0
 1665 0810 11       		.uleb128 0x11
 1666 0811 7461736B 		.ascii "task_queued\0"
 1666      5F717565 
 1666      75656400 
 1667 081d 05       		.byte	0x5
 1668 081e 22       		.byte	0x22
 1669 081f 0D       		.byte	0xd
 1670 0820 33030000 		.long	0x333
 1671 0824 04       		.byte	0x4
 1672 0825 01       		.byte	0x1
 1673 0826 1E       		.byte	0x1e
 1674 0827 00       		.byte	0
 1675 0828 11       		.uleb128 0x11
 1676 0829 69646C65 		.ascii "idle_task\0"
 1676      5F746173 
 1676      6B00
 1677 0833 05       		.byte	0x5
 1678 0834 23       		.byte	0x23
 1679 0835 0D       		.byte	0xd
 1680 0836 33030000 		.long	0x333
 1681 083a 04       		.byte	0x4
 1682 083b 01       		.byte	0x1
 1683 083c 1D       		.byte	0x1d
GAS LISTING C:\Users\PRESID~1\AppData\Local\Temp\ccM0pvSr.s 			page 51


 1684 083d 00       		.byte	0
 1685 083e 11       		.uleb128 0x11
 1686 083f 66726565 		.ascii "free\0"
 1686      00
 1687 0844 05       		.byte	0x5
 1688 0845 24       		.byte	0x24
 1689 0846 0D       		.byte	0xd
 1690 0847 33030000 		.long	0x333
 1691 084b 04       		.byte	0x4
 1692 084c 1D       		.byte	0x1d
 1693 084d 00       		.byte	0
 1694 084e 00       		.byte	0
 1695 084f 08       		.uleb128 0x8
 1696 0850 6E725F6F 		.ascii "nr_of_ins_allowed\0"
 1696      665F696E 
 1696      735F616C 
 1696      6C6F7765 
 1696      6400
 1697 0862 05       		.byte	0x5
 1698 0863 25       		.byte	0x25
 1699 0864 14       		.byte	0x14
 1700 0865 A2000000 		.long	0xa2
 1701 0869 04       		.byte	0x4
 1702 086a 08       		.uleb128 0x8
 1703 086b 6E725F6F 		.ascii "nr_of_ins_activated\0"
 1703      665F696E 
 1703      735F6163 
 1703      74697661 
 1703      74656400 
 1704 087f 05       		.byte	0x5
 1705 0880 26       		.byte	0x26
 1706 0881 14       		.byte	0x14
 1707 0882 A2000000 		.long	0xa2
 1708 0886 05       		.byte	0x5
 1709 0887 08       		.uleb128 0x8
 1710 0888 77616974 		.ascii "wait_act_until\0"
 1710      5F616374 
 1710      5F756E74 
 1710      696C00
 1711 0897 05       		.byte	0x5
 1712 0898 27       		.byte	0x27
 1713 0899 0E       		.byte	0xe
 1714 089a BF050000 		.long	0x5bf
 1715 089e 06       		.byte	0x6
 1716 089f 08       		.uleb128 0x8
 1717 08a0 77616974 		.ascii "wait_time\0"
 1717      5F74696D 
 1717      6500
 1718 08aa 05       		.byte	0x5
 1719 08ab 28       		.byte	0x28
 1720 08ac 0E       		.byte	0xe
 1721 08ad BF050000 		.long	0x5bf
 1722 08b1 16       		.byte	0x16
 1723 08b2 08       		.uleb128 0x8
 1724 08b3 74696D65 		.ascii "time_to_prio_inc\0"
 1724      5F746F5F 
 1724      7072696F 
GAS LISTING C:\Users\PRESID~1\AppData\Local\Temp\ccM0pvSr.s 			page 52


 1724      5F696E63 
 1724      00
 1725 08c4 05       		.byte	0x5
 1726 08c5 29       		.byte	0x29
 1727 08c6 0E       		.byte	0xe
 1728 08c7 BF050000 		.long	0x5bf
 1729 08cb 26       		.byte	0x26
 1730 08cc 08       		.uleb128 0x8
 1731 08cd 6F766572 		.ascii "overwaittime_per_prio_inc_step\0"
 1731      77616974 
 1731      74696D65 
 1731      5F706572 
 1731      5F707269 
 1732 08ec 05       		.byte	0x5
 1733 08ed 2A       		.byte	0x2a
 1734 08ee 0B       		.byte	0xb
 1735 08ef 45010000 		.long	0x145
 1736 08f3 38       		.byte	0x38
 1737 08f4 08       		.uleb128 0x8
 1738 08f5 6D61785F 		.ascii "max_allowed_wait_time\0"
 1738      616C6C6F 
 1738      7765645F 
 1738      77616974 
 1738      5F74696D 
 1739 090b 05       		.byte	0x5
 1740 090c 2B       		.byte	0x2b
 1741 090d 0E       		.byte	0xe
 1742 090e BF050000 		.long	0x5bf
 1743 0912 3C       		.byte	0x3c
 1744 0913 10       		.uleb128 0x10
 1745 0914 09000000 		.secrel32	LASF0
 1746 0918 05       		.byte	0x5
 1747 0919 2C       		.byte	0x2c
 1748 091a 0E       		.byte	0xe
 1749 091b BF050000 		.long	0x5bf
 1750 091f 4C       		.byte	0x4c
 1751 0920 08       		.uleb128 0x8
 1752 0921 73746172 		.ascii "start_time\0"
 1752      745F7469 
 1752      6D6500
 1753 092c 05       		.byte	0x5
 1754 092d 2D       		.byte	0x2d
 1755 092e 0E       		.byte	0xe
 1756 092f BF050000 		.long	0x5bf
 1757 0933 5C       		.byte	0x5c
 1758 0934 08       		.uleb128 0x8
 1759 0935 63757272 		.ascii "current_prio\0"
 1759      656E745F 
 1759      7072696F 
 1759      00
 1760 0942 05       		.byte	0x5
 1761 0943 2E       		.byte	0x2e
 1762 0944 14       		.byte	0x14
 1763 0945 A2000000 		.long	0xa2
 1764 0949 6C       		.byte	0x6c
 1765 094a 08       		.uleb128 0x8
 1766 094b 64656661 		.ascii "default_prio\0"
GAS LISTING C:\Users\PRESID~1\AppData\Local\Temp\ccM0pvSr.s 			page 53


 1766      756C745F 
 1766      7072696F 
 1766      00
 1767 0958 05       		.byte	0x5
 1768 0959 2F       		.byte	0x2f
 1769 095a 14       		.byte	0x14
 1770 095b A2000000 		.long	0xa2
 1771 095f 6D       		.byte	0x6d
 1772 0960 08       		.uleb128 0x8
 1773 0961 7461736B 		.ascii "task_number\0"
 1773      5F6E756D 
 1773      62657200 
 1774 096d 05       		.byte	0x5
 1775 096e 30       		.byte	0x30
 1776 096f 15       		.byte	0x15
 1777 0970 0B010000 		.long	0x10b
 1778 0974 70       		.byte	0x70
 1779 0975 08       		.uleb128 0x8
 1780 0976 667000   		.ascii "fp\0"
 1781 0979 05       		.byte	0x5
 1782 097a 31       		.byte	0x31
 1783 097b 0D       		.byte	0xd
 1784 097c 41070000 		.long	0x741
 1785 0980 74       		.byte	0x74
 1786 0981 08       		.uleb128 0x8
 1787 0982 73746174 		.ascii "state_request\0"
 1787      655F7265 
 1787      71756573 
 1787      7400
 1788 0990 05       		.byte	0x5
 1789 0991 32       		.byte	0x32
 1790 0992 1A       		.byte	0x1a
 1791 0993 65070000 		.long	0x765
 1792 0997 78       		.byte	0x78
 1793 0998 08       		.uleb128 0x8
 1794 0999 7461736B 		.ascii "task_state\0"
 1794      5F737461 
 1794      746500
 1795 09a4 05       		.byte	0x5
 1796 09a5 33       		.byte	0x33
 1797 09a6 11       		.byte	0x11
 1798 09a7 2C070000 		.long	0x72c
 1799 09ab 7C       		.byte	0x7c
 1800 09ac 08       		.uleb128 0x8
 1801 09ad 7461736B 		.ascii "task_group\0"
 1801      5F67726F 
 1801      757000
 1802 09b8 05       		.byte	0x5
 1803 09b9 34       		.byte	0x34
 1804 09ba 12       		.byte	0x12
 1805 09bb 990A0000 		.long	0xa99
 1806 09bf 80       		.byte	0x80
 1807 09c0 08       		.uleb128 0x8
 1808 09c1 65617800 		.ascii "eax\0"
 1809 09c5 05       		.byte	0x5
 1810 09c6 36       		.byte	0x36
 1811 09c7 15       		.byte	0x15
GAS LISTING C:\Users\PRESID~1\AppData\Local\Temp\ccM0pvSr.s 			page 54


 1812 09c8 0B010000 		.long	0x10b
 1813 09cc 84       		.byte	0x84
 1814 09cd 08       		.uleb128 0x8
 1815 09ce 65627800 		.ascii "ebx\0"
 1816 09d2 05       		.byte	0x5
 1817 09d3 37       		.byte	0x37
 1818 09d4 15       		.byte	0x15
 1819 09d5 0B010000 		.long	0x10b
 1820 09d9 88       		.byte	0x88
 1821 09da 08       		.uleb128 0x8
 1822 09db 65637800 		.ascii "ecx\0"
 1823 09df 05       		.byte	0x5
 1824 09e0 38       		.byte	0x38
 1825 09e1 15       		.byte	0x15
 1826 09e2 0B010000 		.long	0x10b
 1827 09e6 8C       		.byte	0x8c
 1828 09e7 08       		.uleb128 0x8
 1829 09e8 65647800 		.ascii "edx\0"
 1830 09ec 05       		.byte	0x5
 1831 09ed 39       		.byte	0x39
 1832 09ee 15       		.byte	0x15
 1833 09ef 0B010000 		.long	0x10b
 1834 09f3 90       		.byte	0x90
 1835 09f4 08       		.uleb128 0x8
 1836 09f5 705F7374 		.ascii "p_stack_pointer\0"
 1836      61636B5F 
 1836      706F696E 
 1836      74657200 
 1837 0a05 05       		.byte	0x5
 1838 0a06 49       		.byte	0x49
 1839 0a07 15       		.byte	0x15
 1840 0a08 9F0A0000 		.long	0xa9f
 1841 0a0c 94       		.byte	0x94
 1842 0a0d 08       		.uleb128 0x8
 1843 0a0e 705F7374 		.ascii "p_stack_pointer_by_malloc\0"
 1843      61636B5F 
 1843      706F696E 
 1843      7465725F 
 1843      62795F6D 
 1844 0a28 05       		.byte	0x5
 1845 0a29 4A       		.byte	0x4a
 1846 0a2a 15       		.byte	0x15
 1847 0a2b 9F0A0000 		.long	0xa9f
 1848 0a2f 98       		.byte	0x98
 1849 0a30 08       		.uleb128 0x8
 1850 0a31 705F7374 		.ascii "p_stack_pointer_start\0"
 1850      61636B5F 
 1850      706F696E 
 1850      7465725F 
 1850      73746172 
 1851 0a47 05       		.byte	0x5
 1852 0a48 4B       		.byte	0x4b
 1853 0a49 15       		.byte	0x15
 1854 0a4a 9F0A0000 		.long	0xa9f
 1855 0a4e 9C       		.byte	0x9c
 1856 0a4f 08       		.uleb128 0x8
 1857 0a50 73746163 		.ascii "stack_size\0"
GAS LISTING C:\Users\PRESID~1\AppData\Local\Temp\ccM0pvSr.s 			page 55


 1857      6B5F7369 
 1857      7A6500
 1858 0a5b 05       		.byte	0x5
 1859 0a5c 4C       		.byte	0x4c
 1860 0a5d 16       		.byte	0x16
 1861 0a5e 0B010000 		.long	0x10b
 1862 0a62 A0       		.byte	0xa0
 1863 0a63 08       		.uleb128 0x8
 1864 0a64 705F7374 		.ascii "p_stack_pointer_end\0"
 1864      61636B5F 
 1864      706F696E 
 1864      7465725F 
 1864      656E6400 
 1865 0a78 05       		.byte	0x5
 1866 0a79 4D       		.byte	0x4d
 1867 0a7a 15       		.byte	0x15
 1868 0a7b 9F0A0000 		.long	0xa9f
 1869 0a7f A4       		.byte	0xa4
 1870 0a80 08       		.uleb128 0x8
 1871 0a81 70726976 		.ascii "privilige_mode\0"
 1871      696C6967 
 1871      655F6D6F 
 1871      646500
 1872 0a90 05       		.byte	0x5
 1873 0a91 4E       		.byte	0x4e
 1874 0a92 15       		.byte	0x15
 1875 0a93 AF060000 		.long	0x6af
 1876 0a97 A8       		.byte	0xa8
 1877 0a98 00       		.byte	0
 1878 0a99 0B       		.uleb128 0xb
 1879 0a9a 04       		.byte	0x4
 1880 0a9b D8070000 		.long	0x7d8
 1881 0a9f 0B       		.uleb128 0xb
 1882 0aa0 04       		.byte	0x4
 1883 0aa1 A2000000 		.long	0xa2
 1884 0aa5 02       		.uleb128 0x2
 1885 0aa6 7461736B 		.ascii "task_t\0"
 1885      5F7400
 1886 0aad 05       		.byte	0x5
 1887 0aae 50       		.byte	0x50
 1888 0aaf 17       		.byte	0x17
 1889 0ab0 ED070000 		.long	0x7ed
 1890 0ab4 02       		.uleb128 0x2
 1891 0ab5 73636865 		.ascii "scheduling_t\0"
 1891      64756C69 
 1891      6E675F74 
 1891      00
 1892 0ac2 05       		.byte	0x5
 1893 0ac3 51       		.byte	0x51
 1894 0ac4 11       		.byte	0x11
 1895 0ac5 C90A0000 		.long	0xac9
 1896 0ac9 0B       		.uleb128 0xb
 1897 0aca 04       		.byte	0x4
 1898 0acb A50A0000 		.long	0xaa5
 1899 0acf 09       		.uleb128 0x9
 1900 0ad0 C90A0000 		.long	0xac9
 1901 0ad4 DF0A0000 		.long	0xadf
GAS LISTING C:\Users\PRESID~1\AppData\Local\Temp\ccM0pvSr.s 			page 56


 1902 0ad8 0A       		.uleb128 0xa
 1903 0ad9 33030000 		.long	0x333
 1904 0add 09       		.byte	0x9
 1905 0ade 00       		.byte	0
 1906 0adf 12       		.uleb128 0x12
 1907 0ae0 5441534B 		.ascii "TASK_PTR\0"
 1907      5F505452 
 1907      00
 1908 0ae9 05       		.byte	0x5
 1909 0aea 5B       		.byte	0x5b
 1910 0aeb 10       		.byte	0x10
 1911 0aec CF0A0000 		.long	0xacf
 1912 0af0 02       		.uleb128 0x2
 1913 0af1 73636865 		.ascii "scheduler_time_t\0"
 1913      64756C65 
 1913      725F7469 
 1913      6D655F74 
 1913      00
 1914 0b02 05       		.byte	0x5
 1915 0b03 5D       		.byte	0x5d
 1916 0b04 13       		.byte	0x13
 1917 0b05 BF050000 		.long	0x5bf
 1918 0b09 05       		.uleb128 0x5
 1919 0b0a 6F735F73 		.ascii "os_state_e\0"
 1919      74617465 
 1919      5F6500
 1920 0b15 07       		.byte	0x7
 1921 0b16 04       		.byte	0x4
 1922 0b17 33030000 		.long	0x333
 1923 0b1b 06       		.byte	0x6
 1924 0b1c 04       		.byte	0x4
 1925 0b1d 06       		.byte	0x6
 1926 0b1e 5A0B0000 		.long	0xb5a
 1927 0b22 06       		.uleb128 0x6
 1928 0b23 4F535F53 		.ascii "OS_STATE_INIT\0"
 1928      54415445 
 1928      5F494E49 
 1928      5400
 1929 0b31 00       		.byte	0
 1930 0b32 06       		.uleb128 0x6
 1931 0b33 4F535F53 		.ascii "OS_STATE_RUNNING\0"
 1931      54415445 
 1931      5F52554E 
 1931      4E494E47 
 1931      00
 1932 0b44 01       		.byte	0x1
 1933 0b45 06       		.uleb128 0x6
 1934 0b46 4F535F53 		.ascii "OS_STATE_SHUTDOWN\0"
 1934      54415445 
 1934      5F534855 
 1934      54444F57 
 1934      4E00
 1935 0b58 02       		.byte	0x2
 1936 0b59 00       		.byte	0
 1937 0b5a 02       		.uleb128 0x2
 1938 0b5b 6F735F73 		.ascii "os_state_t\0"
 1938      74617465 
GAS LISTING C:\Users\PRESID~1\AppData\Local\Temp\ccM0pvSr.s 			page 57


 1938      5F7400
 1939 0b66 06       		.byte	0x6
 1940 0b67 0A       		.byte	0xa
 1941 0b68 19       		.byte	0x19
 1942 0b69 090B0000 		.long	0xb09
 1943 0b6d 04       		.uleb128 0x4
 1944 0b6e 5A0B0000 		.long	0xb5a
 1945 0b72 09       		.uleb128 0x9
 1946 0b73 A2000000 		.long	0xa2
 1947 0b77 830B0000 		.long	0xb83
 1948 0b7b 13       		.uleb128 0x13
 1949 0b7c 33030000 		.long	0x333
 1950 0b80 0F27     		.word	0x270f
 1951 0b82 00       		.byte	0
 1952 0b83 12       		.uleb128 0x12
 1953 0b84 48454150 		.ascii "HEAP\0"
 1953      00
 1954 0b89 07       		.byte	0x7
 1955 0b8a 0B       		.byte	0xb
 1956 0b8b 18       		.byte	0x18
 1957 0b8c 720B0000 		.long	0xb72
 1958 0b90 09       		.uleb128 0x9
 1959 0b91 58030000 		.long	0x358
 1960 0b95 A00B0000 		.long	0xba0
 1961 0b99 0A       		.uleb128 0xa
 1962 0b9a 33030000 		.long	0x333
 1963 0b9e 15       		.byte	0x15
 1964 0b9f 00       		.byte	0
 1965 0ba0 04       		.uleb128 0x4
 1966 0ba1 900B0000 		.long	0xb90
 1967 0ba5 12       		.uleb128 0x12
 1968 0ba6 4F535F53 		.ascii "OS_SW_BUG\0"
 1968      575F4255 
 1968      4700
 1969 0bb0 07       		.byte	0x7
 1970 0bb1 0E       		.byte	0xe
 1971 0bb2 1E       		.byte	0x1e
 1972 0bb3 A00B0000 		.long	0xba0
 1973 0bb7 12       		.uleb128 0x12
 1974 0bb8 4F535F53 		.ascii "OS_STATE\0"
 1974      54415445 
 1974      00
 1975 0bc1 07       		.byte	0x7
 1976 0bc2 0F       		.byte	0xf
 1977 0bc3 1C       		.byte	0x1c
 1978 0bc4 6D0B0000 		.long	0xb6d
 1979 0bc8 12       		.uleb128 0x12
 1980 0bc9 5641525F 		.ascii "VAR_HARDFAULT_STATUS_REG\0"
 1980      48415244 
 1980      4641554C 
 1980      545F5354 
 1980      41545553 
 1981 0be2 07       		.byte	0x7
 1982 0be3 10       		.byte	0x10
 1983 0be4 18       		.byte	0x18
 1984 0be5 54010000 		.long	0x154
 1985 0be9 12       		.uleb128 0x12
GAS LISTING C:\Users\PRESID~1\AppData\Local\Temp\ccM0pvSr.s 			page 58


 1986 0bea 5641525F 		.ascii "VAR_MEM_MANAG_FAULT_STATUS_REG\0"
 1986      4D454D5F 
 1986      4D414E41 
 1986      475F4641 
 1986      554C545F 
 1987 0c09 07       		.byte	0x7
 1988 0c0a 11       		.byte	0x11
 1989 0c0b 18       		.byte	0x18
 1990 0c0c 54010000 		.long	0x154
 1991 0c10 12       		.uleb128 0x12
 1992 0c11 5641525F 		.ascii "VAR_USAGE_FAULT_STATUS_REG\0"
 1992      55534147 
 1992      455F4641 
 1992      554C545F 
 1992      53544154 
 1993 0c2c 07       		.byte	0x7
 1994 0c2d 12       		.byte	0x12
 1995 0c2e 18       		.byte	0x18
 1996 0c2f 54010000 		.long	0x154
 1997 0c33 12       		.uleb128 0x12
 1998 0c34 5641525F 		.ascii "VAR_FAULT_STATUS_REG\0"
 1998      4641554C 
 1998      545F5354 
 1998      41545553 
 1998      5F524547 
 1999 0c49 07       		.byte	0x7
 2000 0c4a 13       		.byte	0x13
 2001 0c4b 18       		.byte	0x18
 2002 0c4c 54010000 		.long	0x154
 2003 0c50 12       		.uleb128 0x12
 2004 0c51 5641525F 		.ascii "VAR_MEM_FAULT_ADDR_REG\0"
 2004      4D454D5F 
 2004      4641554C 
 2004      545F4144 
 2004      44525F52 
 2005 0c68 07       		.byte	0x7
 2006 0c69 14       		.byte	0x14
 2007 0c6a 18       		.byte	0x18
 2008 0c6b 54010000 		.long	0x154
 2009 0c6f 12       		.uleb128 0x12
 2010 0c70 5641525F 		.ascii "VAR_BUS_FAULT_ADDR_REG\0"
 2010      4255535F 
 2010      4641554C 
 2010      545F4144 
 2010      44525F52 
 2011 0c87 07       		.byte	0x7
 2012 0c88 15       		.byte	0x15
 2013 0c89 18       		.byte	0x18
 2014 0c8a 54010000 		.long	0x154
 2015 0c8e 12       		.uleb128 0x12
 2016 0c8f 5641525F 		.ascii "VAR_AUX_FAULT_STATUS_REG\0"
 2016      4155585F 
 2016      4641554C 
 2016      545F5354 
 2016      41545553 
 2017 0ca8 07       		.byte	0x7
 2018 0ca9 16       		.byte	0x16
GAS LISTING C:\Users\PRESID~1\AppData\Local\Temp\ccM0pvSr.s 			page 59


 2019 0caa 18       		.byte	0x18
 2020 0cab 54010000 		.long	0x154
 2021 0caf 12       		.uleb128 0x12
 2022 0cb0 5641525F 		.ascii "VAR_BUS_FAULT_STATUS_REG\0"
 2022      4255535F 
 2022      4641554C 
 2022      545F5354 
 2022      41545553 
 2023 0cc9 07       		.byte	0x7
 2024 0cca 17       		.byte	0x17
 2025 0ccb 18       		.byte	0x18
 2026 0ccc 54010000 		.long	0x154
 2027 0cd0 12       		.uleb128 0x12
 2028 0cd1 4C494E4B 		.ascii "LINK_REGISTER_HANDLER\0"
 2028      5F524547 
 2028      49535445 
 2028      525F4841 
 2028      4E444C45 
 2029 0ce7 07       		.byte	0x7
 2030 0ce8 18       		.byte	0x18
 2031 0ce9 18       		.byte	0x18
 2032 0cea 54010000 		.long	0x154
 2033 0cee 12       		.uleb128 0x12
 2034 0cef 4241434B 		.ascii "BACKUP_SYSTICK_CURRENT_VAL_REG\0"
 2034      55505F53 
 2034      59535449 
 2034      434B5F43 
 2034      55525245 
 2035 0d0e 07       		.byte	0x7
 2036 0d0f 19       		.byte	0x19
 2037 0d10 18       		.byte	0x18
 2038 0d11 54010000 		.long	0x154
 2039 0d15 12       		.uleb128 0x12
 2040 0d16 4442475F 		.ascii "DBG_RLD_VALUE\0"
 2040      524C445F 
 2040      56414C55 
 2040      4500
 2041 0d24 07       		.byte	0x7
 2042 0d25 1A       		.byte	0x1a
 2043 0d26 18       		.byte	0x18
 2044 0d27 54010000 		.long	0x154
 2045 0d2b 12       		.uleb128 0x12
 2046 0d2c 4442475F 		.ascii "DBG_CURR_VAL\0"
 2046      43555252 
 2046      5F56414C 
 2046      00
 2047 0d39 07       		.byte	0x7
 2048 0d3a 1B       		.byte	0x1b
 2049 0d3b 18       		.byte	0x18
 2050 0d3c 54010000 		.long	0x154
 2051 0d40 12       		.uleb128 0x12
 2052 0d41 4442475F 		.ascii "DBG_CTRL_VALUE\0"
 2052      4354524C 
 2052      5F56414C 
 2052      554500
 2053 0d50 07       		.byte	0x7
 2054 0d51 1C       		.byte	0x1c
GAS LISTING C:\Users\PRESID~1\AppData\Local\Temp\ccM0pvSr.s 			page 60


 2055 0d52 18       		.byte	0x18
 2056 0d53 54010000 		.long	0x154
 2057 0d57 12       		.uleb128 0x12
 2058 0d58 4442475F 		.ascii "DBG_CALIB_VALUE\0"
 2058      43414C49 
 2058      425F5641 
 2058      4C554500 
 2059 0d68 07       		.byte	0x7
 2060 0d69 1D       		.byte	0x1d
 2061 0d6a 18       		.byte	0x18
 2062 0d6b 54010000 		.long	0x154
 2063 0d6f 12       		.uleb128 0x12
 2064 0d70 5441534B 		.ascii "TASK1_CALL_NR\0"
 2064      315F4341 
 2064      4C4C5F4E 
 2064      5200
 2065 0d7e 07       		.byte	0x7
 2066 0d7f 1E       		.byte	0x1e
 2067 0d80 18       		.byte	0x18
 2068 0d81 54010000 		.long	0x154
 2069 0d85 12       		.uleb128 0x12
 2070 0d86 5441534B 		.ascii "TASK2_CALL_NR\0"
 2070      325F4341 
 2070      4C4C5F4E 
 2070      5200
 2071 0d94 07       		.byte	0x7
 2072 0d95 1F       		.byte	0x1f
 2073 0d96 18       		.byte	0x18
 2074 0d97 54010000 		.long	0x154
 2075 0d9b 12       		.uleb128 0x12
 2076 0d9c 5441534B 		.ascii "TASK3_CALL_NR\0"
 2076      335F4341 
 2076      4C4C5F4E 
 2076      5200
 2077 0daa 07       		.byte	0x7
 2078 0dab 20       		.byte	0x20
 2079 0dac 18       		.byte	0x18
 2080 0dad 54010000 		.long	0x154
 2081 0db1 12       		.uleb128 0x12
 2082 0db2 5441534B 		.ascii "TASK4_CALL_NR\0"
 2082      345F4341 
 2082      4C4C5F4E 
 2082      5200
 2083 0dc0 07       		.byte	0x7
 2084 0dc1 21       		.byte	0x21
 2085 0dc2 18       		.byte	0x18
 2086 0dc3 54010000 		.long	0x154
 2087 0dc7 12       		.uleb128 0x12
 2088 0dc8 4F535F4D 		.ascii "OS_MAIN_STACK_ADDR\0"
 2088      41494E5F 
 2088      53544143 
 2088      4B5F4144 
 2088      445200
 2089 0ddb 07       		.byte	0x7
 2090 0ddc 23       		.byte	0x23
 2091 0ddd 19       		.byte	0x19
 2092 0dde E20D0000 		.long	0xde2
GAS LISTING C:\Users\PRESID~1\AppData\Local\Temp\ccM0pvSr.s 			page 61


 2093 0de2 0B       		.uleb128 0xb
 2094 0de3 04       		.byte	0x4
 2095 0de4 54010000 		.long	0x154
 2096 0de8 12       		.uleb128 0x12
 2097 0de9 4F535F4D 		.ascii "OS_MAIN_STACK_POS\0"
 2097      41494E5F 
 2097      53544143 
 2097      4B5F504F 
 2097      5300
 2098 0dfb 07       		.byte	0x7
 2099 0dfc 24       		.byte	0x24
 2100 0dfd 19       		.byte	0x19
 2101 0dfe 54010000 		.long	0x154
 2102 0e02 12       		.uleb128 0x12
 2103 0e03 4F535F4D 		.ascii "OS_MAIN_STACK_USAGE_PERCENT\0"
 2103      41494E5F 
 2103      53544143 
 2103      4B5F5553 
 2103      4147455F 
 2104 0e1f 07       		.byte	0x7
 2105 0e20 25       		.byte	0x25
 2106 0e21 19       		.byte	0x19
 2107 0e22 54010000 		.long	0x154
 2108 0e26 12       		.uleb128 0x12
 2109 0e27 5441534B 		.ascii "TASK0_STACK_ADDR\0"
 2109      305F5354 
 2109      41434B5F 
 2109      41444452 
 2109      00
 2110 0e38 07       		.byte	0x7
 2111 0e39 26       		.byte	0x26
 2112 0e3a 19       		.byte	0x19
 2113 0e3b E20D0000 		.long	0xde2
 2114 0e3f 12       		.uleb128 0x12
 2115 0e40 5441534B 		.ascii "TASK0_STACK_POS\0"
 2115      305F5354 
 2115      41434B5F 
 2115      504F5300 
 2116 0e50 07       		.byte	0x7
 2117 0e51 27       		.byte	0x27
 2118 0e52 19       		.byte	0x19
 2119 0e53 54010000 		.long	0x154
 2120 0e57 12       		.uleb128 0x12
 2121 0e58 5441534B 		.ascii "TASK0_STACK_USAGE_PERCENT\0"
 2121      305F5354 
 2121      41434B5F 
 2121      55534147 
 2121      455F5045 
 2122 0e72 07       		.byte	0x7
 2123 0e73 28       		.byte	0x28
 2124 0e74 19       		.byte	0x19
 2125 0e75 54010000 		.long	0x154
 2126 0e79 12       		.uleb128 0x12
 2127 0e7a 5441534B 		.ascii "TASK1_STACK_ADDR\0"
 2127      315F5354 
 2127      41434B5F 
 2127      41444452 
GAS LISTING C:\Users\PRESID~1\AppData\Local\Temp\ccM0pvSr.s 			page 62


 2127      00
 2128 0e8b 07       		.byte	0x7
 2129 0e8c 29       		.byte	0x29
 2130 0e8d 19       		.byte	0x19
 2131 0e8e E20D0000 		.long	0xde2
 2132 0e92 12       		.uleb128 0x12
 2133 0e93 5441534B 		.ascii "TASK1_STACK_POS\0"
 2133      315F5354 
 2133      41434B5F 
 2133      504F5300 
 2134 0ea3 07       		.byte	0x7
 2135 0ea4 2A       		.byte	0x2a
 2136 0ea5 19       		.byte	0x19
 2137 0ea6 54010000 		.long	0x154
 2138 0eaa 12       		.uleb128 0x12
 2139 0eab 5441534B 		.ascii "TASK1_STACK_USAGE_PERCENT\0"
 2139      315F5354 
 2139      41434B5F 
 2139      55534147 
 2139      455F5045 
 2140 0ec5 07       		.byte	0x7
 2141 0ec6 2B       		.byte	0x2b
 2142 0ec7 19       		.byte	0x19
 2143 0ec8 54010000 		.long	0x154
 2144 0ecc 12       		.uleb128 0x12
 2145 0ecd 5441534B 		.ascii "TASK2_STACK_ADDR\0"
 2145      325F5354 
 2145      41434B5F 
 2145      41444452 
 2145      00
 2146 0ede 07       		.byte	0x7
 2147 0edf 2C       		.byte	0x2c
 2148 0ee0 19       		.byte	0x19
 2149 0ee1 E20D0000 		.long	0xde2
 2150 0ee5 12       		.uleb128 0x12
 2151 0ee6 5441534B 		.ascii "TASK2_STACK_POS\0"
 2151      325F5354 
 2151      41434B5F 
 2151      504F5300 
 2152 0ef6 07       		.byte	0x7
 2153 0ef7 2D       		.byte	0x2d
 2154 0ef8 19       		.byte	0x19
 2155 0ef9 54010000 		.long	0x154
 2156 0efd 12       		.uleb128 0x12
 2157 0efe 5441534B 		.ascii "TASK2_STACK_USAGE_PERCENT\0"
 2157      325F5354 
 2157      41434B5F 
 2157      55534147 
 2157      455F5045 
 2158 0f18 07       		.byte	0x7
 2159 0f19 2E       		.byte	0x2e
 2160 0f1a 19       		.byte	0x19
 2161 0f1b 54010000 		.long	0x154
 2162 0f1f 12       		.uleb128 0x12
 2163 0f20 5441534B 		.ascii "TASK3_STACK_ADDR\0"
 2163      335F5354 
 2163      41434B5F 
GAS LISTING C:\Users\PRESID~1\AppData\Local\Temp\ccM0pvSr.s 			page 63


 2163      41444452 
 2163      00
 2164 0f31 07       		.byte	0x7
 2165 0f32 2F       		.byte	0x2f
 2166 0f33 19       		.byte	0x19
 2167 0f34 E20D0000 		.long	0xde2
 2168 0f38 12       		.uleb128 0x12
 2169 0f39 5441534B 		.ascii "TASK3_STACK_POS\0"
 2169      335F5354 
 2169      41434B5F 
 2169      504F5300 
 2170 0f49 07       		.byte	0x7
 2171 0f4a 30       		.byte	0x30
 2172 0f4b 19       		.byte	0x19
 2173 0f4c 54010000 		.long	0x154
 2174 0f50 12       		.uleb128 0x12
 2175 0f51 5441534B 		.ascii "TASK3_STACK_USAGE_PERCENT\0"
 2175      335F5354 
 2175      41434B5F 
 2175      55534147 
 2175      455F5045 
 2176 0f6b 07       		.byte	0x7
 2177 0f6c 31       		.byte	0x31
 2178 0f6d 19       		.byte	0x19
 2179 0f6e 54010000 		.long	0x154
 2180 0f72 12       		.uleb128 0x12
 2181 0f73 5441534B 		.ascii "TASK4_STACK_ADDR\0"
 2181      345F5354 
 2181      41434B5F 
 2181      41444452 
 2181      00
 2182 0f84 07       		.byte	0x7
 2183 0f85 32       		.byte	0x32
 2184 0f86 19       		.byte	0x19
 2185 0f87 E20D0000 		.long	0xde2
 2186 0f8b 12       		.uleb128 0x12
 2187 0f8c 5441534B 		.ascii "TASK4_STACK_POS\0"
 2187      345F5354 
 2187      41434B5F 
 2187      504F5300 
 2188 0f9c 07       		.byte	0x7
 2189 0f9d 33       		.byte	0x33
 2190 0f9e 19       		.byte	0x19
 2191 0f9f 54010000 		.long	0x154
 2192 0fa3 12       		.uleb128 0x12
 2193 0fa4 5441534B 		.ascii "TASK4_STACK_USAGE_PERCENT\0"
 2193      345F5354 
 2193      41434B5F 
 2193      55534147 
 2193      455F5045 
 2194 0fbe 07       		.byte	0x7
 2195 0fbf 34       		.byte	0x34
 2196 0fc0 19       		.byte	0x19
 2197 0fc1 54010000 		.long	0x154
 2198 0fc5 09       		.uleb128 0x9
 2199 0fc6 A2000000 		.long	0xa2
 2200 0fca D60F0000 		.long	0xfd6
GAS LISTING C:\Users\PRESID~1\AppData\Local\Temp\ccM0pvSr.s 			page 64


 2201 0fce 13       		.uleb128 0x13
 2202 0fcf 33030000 		.long	0x333
 2203 0fd3 CF07     		.word	0x7cf
 2204 0fd5 00       		.byte	0
 2205 0fd6 12       		.uleb128 0x12
 2206 0fd7 5441534B 		.ascii "TASK0_STACK\0"
 2206      305F5354 
 2206      41434B00 
 2207 0fe3 07       		.byte	0x7
 2208 0fe4 35       		.byte	0x35
 2209 0fe5 1A       		.byte	0x1a
 2210 0fe6 C50F0000 		.long	0xfc5
 2211 0fea 12       		.uleb128 0x12
 2212 0feb 5441534B 		.ascii "TASK1_STACK\0"
 2212      315F5354 
 2212      41434B00 
 2213 0ff7 07       		.byte	0x7
 2214 0ff8 36       		.byte	0x36
 2215 0ff9 1A       		.byte	0x1a
 2216 0ffa C50F0000 		.long	0xfc5
 2217 0ffe 12       		.uleb128 0x12
 2218 0fff 5441534B 		.ascii "TASK2_STACK\0"
 2218      325F5354 
 2218      41434B00 
 2219 100b 07       		.byte	0x7
 2220 100c 37       		.byte	0x37
 2221 100d 1A       		.byte	0x1a
 2222 100e C50F0000 		.long	0xfc5
 2223 1012 12       		.uleb128 0x12
 2224 1013 5441534B 		.ascii "TASK3_STACK\0"
 2224      335F5354 
 2224      41434B00 
 2225 101f 07       		.byte	0x7
 2226 1020 38       		.byte	0x38
 2227 1021 1A       		.byte	0x1a
 2228 1022 C50F0000 		.long	0xfc5
 2229 1026 12       		.uleb128 0x12
 2230 1027 5441534B 		.ascii "TASK4_STACK\0"
 2230      345F5354 
 2230      41434B00 
 2231 1033 07       		.byte	0x7
 2232 1034 39       		.byte	0x39
 2233 1035 1A       		.byte	0x1a
 2234 1036 C50F0000 		.long	0xfc5
 2235 103a 12       		.uleb128 0x12
 2236 103b 4C415354 		.ascii "LAST_CURRENT_TIME\0"
 2236      5F435552 
 2236      52454E54 
 2236      5F54494D 
 2236      4500
 2237 104d 07       		.byte	0x7
 2238 104e 3A       		.byte	0x3a
 2239 104f 1A       		.byte	0x1a
 2240 1050 F00A0000 		.long	0xaf0
 2241 1054 09       		.uleb128 0x9
 2242 1055 B40A0000 		.long	0xab4
 2243 1059 64100000 		.long	0x1064
GAS LISTING C:\Users\PRESID~1\AppData\Local\Temp\ccM0pvSr.s 			page 65


 2244 105d 0A       		.uleb128 0xa
 2245 105e 33030000 		.long	0x333
 2246 1062 09       		.byte	0x9
 2247 1063 00       		.byte	0
 2248 1064 12       		.uleb128 0x12
 2249 1065 5441534B 		.ascii "TASK_SCHEDULING_QUEUE\0"
 2249      5F534348 
 2249      4544554C 
 2249      494E475F 
 2249      51554555 
 2250 107b 07       		.byte	0x7
 2251 107c 3B       		.byte	0x3b
 2252 107d 1A       		.byte	0x1a
 2253 107e 54100000 		.long	0x1054
 2254 1082 12       		.uleb128 0x12
 2255 1083 52554E4E 		.ascii "RUNNING_SCHEDULING_QUEUE_ENTRY\0"
 2255      494E475F 
 2255      53434845 
 2255      44554C49 
 2255      4E475F51 
 2256 10a2 07       		.byte	0x7
 2257 10a3 3C       		.byte	0x3c
 2258 10a4 1A       		.byte	0x1a
 2259 10a5 A9100000 		.long	0x10a9
 2260 10a9 0B       		.uleb128 0xb
 2261 10aa 04       		.byte	0x4
 2262 10ab B40A0000 		.long	0xab4
 2263 10af 09       		.uleb128 0x9
 2264 10b0 A50A0000 		.long	0xaa5
 2265 10b4 BF100000 		.long	0x10bf
 2266 10b8 0A       		.uleb128 0xa
 2267 10b9 33030000 		.long	0x333
 2268 10bd 09       		.byte	0x9
 2269 10be 00       		.byte	0
 2270 10bf 12       		.uleb128 0x12
 2271 10c0 5441534B 		.ascii "TASK_RUN_QUEUE\0"
 2271      5F52554E 
 2271      5F515545 
 2271      554500
 2272 10cf 07       		.byte	0x7
 2273 10d0 3D       		.byte	0x3d
 2274 10d1 1A       		.byte	0x1a
 2275 10d2 AF100000 		.long	0x10af
 2276 10d6 09       		.uleb128 0x9
 2277 10d7 A50A0000 		.long	0xaa5
 2278 10db E6100000 		.long	0x10e6
 2279 10df 0A       		.uleb128 0xa
 2280 10e0 33030000 		.long	0x333
 2281 10e4 00       		.byte	0
 2282 10e5 00       		.byte	0
 2283 10e6 12       		.uleb128 0x12
 2284 10e7 52554E4E 		.ascii "RUNNING_TASK\0"
 2284      494E475F 
 2284      5441534B 
 2284      00
 2285 10f4 07       		.byte	0x7
 2286 10f5 3E       		.byte	0x3e
GAS LISTING C:\Users\PRESID~1\AppData\Local\Temp\ccM0pvSr.s 			page 66


 2287 10f6 1A       		.byte	0x1a
 2288 10f7 D6100000 		.long	0x10d6
 2289 10fb 12       		.uleb128 0x12
 2290 10fc 5441534B 		.ascii "TASK_IDLE_QUEUE\0"
 2290      5F49444C 
 2290      455F5155 
 2290      45554500 
 2291 110c 07       		.byte	0x7
 2292 110d 3F       		.byte	0x3f
 2293 110e 1A       		.byte	0x1a
 2294 110f D6100000 		.long	0x10d6
 2295 1113 12       		.uleb128 0x12
 2296 1114 62544153 		.ascii "bTASK_QUEUE_INITIALIZED\0"
 2296      4B5F5155 
 2296      4555455F 
 2296      494E4954 
 2296      49414C49 
 2297 112c 07       		.byte	0x7
 2298 112d 40       		.byte	0x40
 2299 112e 1A       		.byte	0x1a
 2300 112f A2000000 		.long	0xa2
 2301 1133 12       		.uleb128 0x12
 2302 1134 5441534B 		.ascii "TASK_0_VAR\0"
 2302      5F305F56 
 2302      415200
 2303 113f 07       		.byte	0x7
 2304 1140 41       		.byte	0x41
 2305 1141 0F       		.byte	0xf
 2306 1142 A50A0000 		.long	0xaa5
 2307 1146 12       		.uleb128 0x12
 2308 1147 5441534B 		.ascii "TASK_1_VAR\0"
 2308      5F315F56 
 2308      415200
 2309 1152 07       		.byte	0x7
 2310 1153 41       		.byte	0x41
 2311 1154 1B       		.byte	0x1b
 2312 1155 A50A0000 		.long	0xaa5
 2313 1159 12       		.uleb128 0x12
 2314 115a 5441534B 		.ascii "TASK_2_VAR\0"
 2314      5F325F56 
 2314      415200
 2315 1165 07       		.byte	0x7
 2316 1166 41       		.byte	0x41
 2317 1167 27       		.byte	0x27
 2318 1168 A50A0000 		.long	0xaa5
 2319 116c 12       		.uleb128 0x12
 2320 116d 5441534B 		.ascii "TASK_3_VAR\0"
 2320      5F335F56 
 2320      415200
 2321 1178 07       		.byte	0x7
 2322 1179 41       		.byte	0x41
 2323 117a 33       		.byte	0x33
 2324 117b A50A0000 		.long	0xaa5
 2325 117f 12       		.uleb128 0x12
 2326 1180 5441534B 		.ascii "TASK_GROUP_1\0"
 2326      5F47524F 
 2326      55505F31 
GAS LISTING C:\Users\PRESID~1\AppData\Local\Temp\ccM0pvSr.s 			page 67


 2326      00
 2327 118d 07       		.byte	0x7
 2328 118e 42       		.byte	0x42
 2329 118f 15       		.byte	0x15
 2330 1190 D8070000 		.long	0x7d8
 2331 1194 12       		.uleb128 0x12
 2332 1195 5441534B 		.ascii "TASK_GROUP_2\0"
 2332      5F47524F 
 2332      55505F32 
 2332      00
 2333 11a2 07       		.byte	0x7
 2334 11a3 42       		.byte	0x42
 2335 11a4 23       		.byte	0x23
 2336 11a5 D8070000 		.long	0x7d8
 2337 11a9 12       		.uleb128 0x12
 2338 11aa 5441534B 		.ascii "TASK_GROUP_3\0"
 2338      5F47524F 
 2338      55505F33 
 2338      00
 2339 11b7 07       		.byte	0x7
 2340 11b8 42       		.byte	0x42
 2341 11b9 31       		.byte	0x31
 2342 11ba D8070000 		.long	0x7d8
 2343 11be 12       		.uleb128 0x12
 2344 11bf 5441534B 		.ascii "TASK_GROUP_4\0"
 2344      5F47524F 
 2344      55505F34 
 2344      00
 2345 11cc 07       		.byte	0x7
 2346 11cd 42       		.byte	0x42
 2347 11ce 3F       		.byte	0x3f
 2348 11cf D8070000 		.long	0x7d8
 2349 11d3 12       		.uleb128 0x12
 2350 11d4 5441534B 		.ascii "TASK_GROUP_5\0"
 2350      5F47524F 
 2350      55505F35 
 2350      00
 2351 11e1 07       		.byte	0x7
 2352 11e2 42       		.byte	0x42
 2353 11e3 4D       		.byte	0x4d
 2354 11e4 D8070000 		.long	0x7d8
 2355 11e8 12       		.uleb128 0x12
 2356 11e9 5441534B 		.ascii "TASK_TRANSITION_REJECTED_TASK_ADDR\0"
 2356      5F545241 
 2356      4E534954 
 2356      494F4E5F 
 2356      52454A45 
 2357 120c 07       		.byte	0x7
 2358 120d 43       		.byte	0x43
 2359 120e 1A       		.byte	0x1a
 2360 120f C90A0000 		.long	0xac9
 2361 1213 12       		.uleb128 0x12
 2362 1214 5441534B 		.ascii "TASK_TRANSITION_REJECTED_STATE\0"
 2362      5F545241 
 2362      4E534954 
 2362      494F4E5F 
 2362      52454A45 
GAS LISTING C:\Users\PRESID~1\AppData\Local\Temp\ccM0pvSr.s 			page 68


 2363 1233 07       		.byte	0x7
 2364 1234 44       		.byte	0x44
 2365 1235 1A       		.byte	0x1a
 2366 1236 2C070000 		.long	0x72c
 2367 123a 12       		.uleb128 0x12
 2368 123b 5441534B 		.ascii "TASK_TRANSITION_CURRENT_STATE\0"
 2368      5F545241 
 2368      4E534954 
 2368      494F4E5F 
 2368      43555252 
 2369 1259 07       		.byte	0x7
 2370 125a 45       		.byte	0x45
 2371 125b 1A       		.byte	0x1a
 2372 125c 2C070000 		.long	0x72c
 2373 1260 12       		.uleb128 0x12
 2374 1261 53595354 		.ascii "SYSTEM_STATE_ACCEPTED\0"
 2374      454D5F53 
 2374      54415445 
 2374      5F414343 
 2374      45505445 
 2375 1277 07       		.byte	0x7
 2376 1278 46       		.byte	0x46
 2377 1279 1C       		.byte	0x1c
 2378 127a 6D0B0000 		.long	0xb6d
 2379 127e 12       		.uleb128 0x12
 2380 127f 4C4F4341 		.ascii "LOCAL_SYSTEM_TIME\0"
 2380      4C5F5359 
 2380      5354454D 
 2380      5F54494D 
 2380      4500
 2381 1291 07       		.byte	0x7
 2382 1292 47       		.byte	0x47
 2383 1293 12       		.byte	0x12
 2384 1294 BF050000 		.long	0x5bf
 2385 1298 09       		.uleb128 0x9
 2386 1299 A2000000 		.long	0xa2
 2387 129d A9120000 		.long	0x12a9
 2388 12a1 13       		.uleb128 0x13
 2389 12a2 33030000 		.long	0x333
 2390 12a6 FF03     		.word	0x3ff
 2391 12a8 00       		.byte	0
 2392 12a9 12       		.uleb128 0x12
 2393 12aa 4F535F4D 		.ascii "OS_MAIN_STACK\0"
 2393      41494E5F 
 2393      53544143 
 2393      4B00
 2394 12b8 08       		.byte	0x8
 2395 12b9 0C       		.byte	0xc
 2396 12ba 18       		.byte	0x18
 2397 12bb 98120000 		.long	0x1298
 2398 12bf 14       		.uleb128 0x14
 2399 12c0 6F735F74 		.ascii "os_task_scheduler\0"
 2399      61736B5F 
 2399      73636865 
 2399      64756C65 
 2399      7200
 2400 12d2 01       		.byte	0x1
GAS LISTING C:\Users\PRESID~1\AppData\Local\Temp\ccM0pvSr.s 			page 69


 2401 12d3 2002     		.word	0x220
 2402 12d5 15       		.byte	0x15
 2403 12d6 D5130000 		.long	0x13d5
 2404 12da 62080000 		.long	LFB14
 2405 12de 29020000 		.long	LFE14-LFB14
 2406 12e2 01       		.uleb128 0x1
 2407 12e3 9C       		.byte	0x9c
 2408 12e4 D5130000 		.long	0x13d5
 2409 12e8 15       		.uleb128 0x15
 2410 12e9 73636865 		.ascii "scheduling_queue_member\0"
 2410      64756C69 
 2410      6E675F71 
 2410      75657565 
 2410      5F6D656D 
 2411 1301 01       		.byte	0x1
 2412 1302 2302     		.word	0x223
 2413 1304 15       		.byte	0x15
 2414 1305 A9100000 		.long	0x10a9
 2415 1309 02       		.uleb128 0x2
 2416 130a 91       		.byte	0x91
 2417 130b 5C       		.sleb128 -36
 2418 130c 15       		.uleb128 0x15
 2419 130d 656C656D 		.ascii "element_nr\0"
 2419      656E745F 
 2419      6E7200
 2420 1318 01       		.byte	0x1
 2421 1319 2402     		.word	0x224
 2422 131b 14       		.byte	0x14
 2423 131c A2000000 		.long	0xa2
 2424 1320 02       		.uleb128 0x2
 2425 1321 91       		.byte	0x91
 2426 1322 6F       		.sleb128 -17
 2427 1323 15       		.uleb128 0x15
 2428 1324 57696E6E 		.ascii "Winner_prio\0"
 2428      65725F70 
 2428      72696F00 
 2429 1330 01       		.byte	0x1
 2430 1331 2602     		.word	0x226
 2431 1333 14       		.byte	0x14
 2432 1334 A2000000 		.long	0xa2
 2433 1338 02       		.uleb128 0x2
 2434 1339 91       		.byte	0x91
 2435 133a 6E       		.sleb128 -18
 2436 133b 16       		.uleb128 0x16
 2437 133c 22000000 		.secrel32	LASF1
 2438 1340 01       		.byte	0x1
 2439 1341 2702     		.word	0x227
 2440 1343 14       		.byte	0x14
 2441 1344 C90A0000 		.long	0xac9
 2442 1348 02       		.uleb128 0x2
 2443 1349 91       		.byte	0x91
 2444 134a 64       		.sleb128 -28
 2445 134b 15       		.uleb128 0x15
 2446 134c 57696E6E 		.ascii "Winner_task\0"
 2446      65725F74 
 2446      61736B00 
 2447 1358 01       		.byte	0x1
GAS LISTING C:\Users\PRESID~1\AppData\Local\Temp\ccM0pvSr.s 			page 70


 2448 1359 2802     		.word	0x228
 2449 135b 14       		.byte	0x14
 2450 135c C90A0000 		.long	0xac9
 2451 1360 02       		.uleb128 0x2
 2452 1361 91       		.byte	0x91
 2453 1362 60       		.sleb128 -32
 2454 1363 15       		.uleb128 0x15
 2455 1364 57696E6E 		.ascii "Winner_scheduling_queue_member\0"
 2455      65725F73 
 2455      63686564 
 2455      756C696E 
 2455      675F7175 
 2456 1383 01       		.byte	0x1
 2457 1384 2902     		.word	0x229
 2458 1386 14       		.byte	0x14
 2459 1387 A9100000 		.long	0x10a9
 2460 138b 02       		.uleb128 0x2
 2461 138c 91       		.byte	0x91
 2462 138d 68       		.sleb128 -24
 2463 138e 15       		.uleb128 0x15
 2464 138f 64656C74 		.ascii "delta_time\0"
 2464      615F7469 
 2464      6D6500
 2465 139a 01       		.byte	0x1
 2466 139b 2A02     		.word	0x22a
 2467 139d 14       		.byte	0x14
 2468 139e BF050000 		.long	0x5bf
 2469 13a2 02       		.uleb128 0x2
 2470 13a3 91       		.byte	0x91
 2471 13a4 4C       		.sleb128 -52
 2472 13a5 15       		.uleb128 0x15
 2473 13a6 74696D65 		.ascii "time\0"
 2473      00
 2474 13ab 01       		.byte	0x1
 2475 13ac 2C02     		.word	0x22c
 2476 13ae 0E       		.byte	0xe
 2477 13af BF050000 		.long	0x5bf
 2478 13b3 03       		.uleb128 0x3
 2479 13b4 91       		.byte	0x91
 2480 13b5 BC7F     		.sleb128 -68
 2481 13b7 17       		.uleb128 0x17
 2482 13b8 AB090000 		.long	LBB2
 2483 13bc 35000000 		.long	LBE2-LBB2
 2484 13c0 15       		.uleb128 0x15
 2485 13c1 7454696D 		.ascii "tTime\0"
 2485      6500
 2486 13c7 01       		.byte	0x1
 2487 13c8 5E02     		.word	0x25e
 2488 13ca 1A       		.byte	0x1a
 2489 13cb BF050000 		.long	0x5bf
 2490 13cf 03       		.uleb128 0x3
 2491 13d0 91       		.byte	0x91
 2492 13d1 AC7F     		.sleb128 -84
 2493 13d3 00       		.byte	0
 2494 13d4 00       		.byte	0
 2495 13d5 0B       		.uleb128 0xb
 2496 13d6 04       		.byte	0x4
GAS LISTING C:\Users\PRESID~1\AppData\Local\Temp\ccM0pvSr.s 			page 71


 2497 13d7 C90A0000 		.long	0xac9
 2498 13db 18       		.uleb128 0x18
 2499 13dc 4F535F49 		.ascii "OS_INIT_TASKS\0"
 2499      4E49545F 
 2499      5441534B 
 2499      5300
 2500 13ea 01       		.byte	0x1
 2501 13eb CE01     		.word	0x1ce
 2502 13ed 06       		.byte	0x6
 2503 13ee 8D060000 		.long	LFB13
 2504 13f2 D5010000 		.long	LFE13-LFB13
 2505 13f6 01       		.uleb128 0x1
 2506 13f7 9C       		.byte	0x9c
 2507 13f8 0D140000 		.long	0x140d
 2508 13fc 16       		.uleb128 0x16
 2509 13fd 00000000 		.secrel32	LASF2
 2510 1401 01       		.byte	0x1
 2511 1402 D001     		.word	0x1d0
 2512 1404 0C       		.byte	0xc
 2513 1405 C90A0000 		.long	0xac9
 2514 1409 02       		.uleb128 0x2
 2515 140a 91       		.byte	0x91
 2516 140b 6C       		.sleb128 -20
 2517 140c 00       		.byte	0
 2518 140d 19       		.uleb128 0x19
 2519 140e 7461736B 		.ascii "task_3\0"
 2519      5F3300
 2520 1415 01       		.byte	0x1
 2521 1416 C101     		.word	0x1c1
 2522 1418 0C       		.byte	0xc
 2523 1419 58060000 		.long	LFB12
 2524 141d 35000000 		.long	LFE12-LFB12
 2525 1421 01       		.uleb128 0x1
 2526 1422 9C       		.byte	0x9c
 2527 1423 48140000 		.long	0x1448
 2528 1427 1A       		.uleb128 0x1a
 2529 1428 00000000 		.secrel32	LASF2
 2530 142c 01       		.byte	0x1
 2531 142d C101     		.word	0x1c1
 2532 142f 19       		.byte	0x19
 2533 1430 63070000 		.long	0x763
 2534 1434 02       		.uleb128 0x2
 2535 1435 91       		.byte	0x91
 2536 1436 00       		.sleb128 0
 2537 1437 16       		.uleb128 0x16
 2538 1438 27000000 		.secrel32	LASF3
 2539 143c 01       		.byte	0x1
 2540 143d C301     		.word	0x1c3
 2541 143f 12       		.byte	0x12
 2542 1440 A9100000 		.long	0x10a9
 2543 1444 02       		.uleb128 0x2
 2544 1445 91       		.byte	0x91
 2545 1446 6C       		.sleb128 -20
 2546 1447 00       		.byte	0
 2547 1448 19       		.uleb128 0x19
 2548 1449 7461736B 		.ascii "task_2\0"
 2548      5F3200
GAS LISTING C:\Users\PRESID~1\AppData\Local\Temp\ccM0pvSr.s 			page 72


 2549 1450 01       		.byte	0x1
 2550 1451 B401     		.word	0x1b4
 2551 1453 0C       		.byte	0xc
 2552 1454 23060000 		.long	LFB11
 2553 1458 35000000 		.long	LFE11-LFB11
 2554 145c 01       		.uleb128 0x1
 2555 145d 9C       		.byte	0x9c
 2556 145e 83140000 		.long	0x1483
 2557 1462 1A       		.uleb128 0x1a
 2558 1463 00000000 		.secrel32	LASF2
 2559 1467 01       		.byte	0x1
 2560 1468 B401     		.word	0x1b4
 2561 146a 19       		.byte	0x19
 2562 146b 63070000 		.long	0x763
 2563 146f 02       		.uleb128 0x2
 2564 1470 91       		.byte	0x91
 2565 1471 00       		.sleb128 0
 2566 1472 16       		.uleb128 0x16
 2567 1473 27000000 		.secrel32	LASF3
 2568 1477 01       		.byte	0x1
 2569 1478 B601     		.word	0x1b6
 2570 147a 12       		.byte	0x12
 2571 147b A9100000 		.long	0x10a9
 2572 147f 02       		.uleb128 0x2
 2573 1480 91       		.byte	0x91
 2574 1481 6C       		.sleb128 -20
 2575 1482 00       		.byte	0
 2576 1483 19       		.uleb128 0x19
 2577 1484 7461736B 		.ascii "task_1\0"
 2577      5F3100
 2578 148b 01       		.byte	0x1
 2579 148c A701     		.word	0x1a7
 2580 148e 0C       		.byte	0xc
 2581 148f EE050000 		.long	LFB10
 2582 1493 35000000 		.long	LFE10-LFB10
 2583 1497 01       		.uleb128 0x1
 2584 1498 9C       		.byte	0x9c
 2585 1499 BE140000 		.long	0x14be
 2586 149d 1A       		.uleb128 0x1a
 2587 149e 00000000 		.secrel32	LASF2
 2588 14a2 01       		.byte	0x1
 2589 14a3 A701     		.word	0x1a7
 2590 14a5 19       		.byte	0x19
 2591 14a6 63070000 		.long	0x763
 2592 14aa 02       		.uleb128 0x2
 2593 14ab 91       		.byte	0x91
 2594 14ac 00       		.sleb128 0
 2595 14ad 16       		.uleb128 0x16
 2596 14ae 27000000 		.secrel32	LASF3
 2597 14b2 01       		.byte	0x1
 2598 14b3 A901     		.word	0x1a9
 2599 14b5 12       		.byte	0x12
 2600 14b6 A9100000 		.long	0x10a9
 2601 14ba 02       		.uleb128 0x2
 2602 14bb 91       		.byte	0x91
 2603 14bc 6C       		.sleb128 -20
 2604 14bd 00       		.byte	0
GAS LISTING C:\Users\PRESID~1\AppData\Local\Temp\ccM0pvSr.s 			page 73


 2605 14be 1B       		.uleb128 0x1b
 2606 14bf 7461736B 		.ascii "task_0\0"
 2606      5F3000
 2607 14c6 01       		.byte	0x1
 2608 14c7 A201     		.word	0x1a2
 2609 14c9 0C       		.byte	0xc
 2610 14ca E8050000 		.long	LFB9
 2611 14ce 06000000 		.long	LFE9-LFB9
 2612 14d2 01       		.uleb128 0x1
 2613 14d3 9C       		.byte	0x9c
 2614 14d4 E9140000 		.long	0x14e9
 2615 14d8 1A       		.uleb128 0x1a
 2616 14d9 00000000 		.secrel32	LASF2
 2617 14dd 01       		.byte	0x1
 2618 14de A201     		.word	0x1a2
 2619 14e0 19       		.byte	0x19
 2620 14e1 63070000 		.long	0x763
 2621 14e5 02       		.uleb128 0x2
 2622 14e6 91       		.byte	0x91
 2623 14e7 00       		.sleb128 0
 2624 14e8 00       		.byte	0
 2625 14e9 18       		.uleb128 0x18
 2626 14ea 4F535F54 		.ascii "OS_TASK_DISPATCHER\0"
 2626      41534B5F 
 2626      44495350 
 2626      41544348 
 2626      455200
 2627 14fd 01       		.byte	0x1
 2628 14fe 8101     		.word	0x181
 2629 1500 06       		.byte	0x6
 2630 1501 70050000 		.long	LFB8
 2631 1505 78000000 		.long	LFE8-LFB8
 2632 1509 01       		.uleb128 0x1
 2633 150a 9C       		.byte	0x9c
 2634 150b 30150000 		.long	0x1530
 2635 150f 16       		.uleb128 0x16
 2636 1510 27000000 		.secrel32	LASF3
 2637 1514 01       		.byte	0x1
 2638 1515 8D01     		.word	0x18d
 2639 1517 12       		.byte	0x12
 2640 1518 A9100000 		.long	0x10a9
 2641 151c 02       		.uleb128 0x2
 2642 151d 91       		.byte	0x91
 2643 151e 68       		.sleb128 -24
 2644 151f 16       		.uleb128 0x16
 2645 1520 22000000 		.secrel32	LASF1
 2646 1524 01       		.byte	0x1
 2647 1525 8E01     		.word	0x18e
 2648 1527 0C       		.byte	0xc
 2649 1528 C90A0000 		.long	0xac9
 2650 152c 02       		.uleb128 0x2
 2651 152d 91       		.byte	0x91
 2652 152e 6C       		.sleb128 -20
 2653 152f 00       		.byte	0
 2654 1530 18       		.uleb128 0x18
 2655 1531 4F535F54 		.ascii "OS_TERMINATE_TASK\0"
 2655      45524D49 
GAS LISTING C:\Users\PRESID~1\AppData\Local\Temp\ccM0pvSr.s 			page 74


 2655      4E415445 
 2655      5F544153 
 2655      4B00
 2656 1543 01       		.byte	0x1
 2657 1544 5801     		.word	0x158
 2658 1546 06       		.byte	0x6
 2659 1547 AA040000 		.long	LFB7
 2660 154b C6000000 		.long	LFE7-LFB7
 2661 154f 01       		.uleb128 0x1
 2662 1550 9C       		.byte	0x9c
 2663 1551 76150000 		.long	0x1576
 2664 1555 1A       		.uleb128 0x1a
 2665 1556 22000000 		.secrel32	LASF1
 2666 155a 01       		.byte	0x1
 2667 155b 5801     		.word	0x158
 2668 155d 20       		.byte	0x20
 2669 155e C90A0000 		.long	0xac9
 2670 1562 02       		.uleb128 0x2
 2671 1563 91       		.byte	0x91
 2672 1564 00       		.sleb128 0
 2673 1565 1A       		.uleb128 0x1a
 2674 1566 12000000 		.secrel32	LASF4
 2675 156a 01       		.byte	0x1
 2676 156b 5801     		.word	0x158
 2677 156d 34       		.byte	0x34
 2678 156e A9100000 		.long	0x10a9
 2679 1572 02       		.uleb128 0x2
 2680 1573 91       		.byte	0x91
 2681 1574 04       		.sleb128 4
 2682 1575 00       		.byte	0
 2683 1576 18       		.uleb128 0x18
 2684 1577 4F535F53 		.ascii "OS_START_TASK\0"
 2684      54415254 
 2684      5F544153 
 2684      4B00
 2685 1585 01       		.byte	0x1
 2686 1586 2101     		.word	0x121
 2687 1588 06       		.byte	0x6
 2688 1589 8C030000 		.long	LFB6
 2689 158d 1E010000 		.long	LFE6-LFB6
 2690 1591 01       		.uleb128 0x1
 2691 1592 9C       		.byte	0x9c
 2692 1593 C9150000 		.long	0x15c9
 2693 1597 1A       		.uleb128 0x1a
 2694 1598 22000000 		.secrel32	LASF1
 2695 159c 01       		.byte	0x1
 2696 159d 2101     		.word	0x121
 2697 159f 1C       		.byte	0x1c
 2698 15a0 C90A0000 		.long	0xac9
 2699 15a4 02       		.uleb128 0x2
 2700 15a5 91       		.byte	0x91
 2701 15a6 00       		.sleb128 0
 2702 15a7 1A       		.uleb128 0x1a
 2703 15a8 12000000 		.secrel32	LASF4
 2704 15ac 01       		.byte	0x1
 2705 15ad 2101     		.word	0x121
 2706 15af 30       		.byte	0x30
GAS LISTING C:\Users\PRESID~1\AppData\Local\Temp\ccM0pvSr.s 			page 75


 2707 15b0 A9100000 		.long	0x10a9
 2708 15b4 02       		.uleb128 0x2
 2709 15b5 91       		.byte	0x91
 2710 15b6 04       		.sleb128 4
 2711 15b7 15       		.uleb128 0x15
 2712 15b8 74696D65 		.ascii "time\0"
 2712      00
 2713 15bd 01       		.byte	0x1
 2714 15be 2A01     		.word	0x12a
 2715 15c0 0E       		.byte	0xe
 2716 15c1 BF050000 		.long	0x5bf
 2717 15c5 02       		.uleb128 0x2
 2718 15c6 91       		.byte	0x91
 2719 15c7 60       		.sleb128 -32
 2720 15c8 00       		.byte	0
 2721 15c9 1C       		.uleb128 0x1c
 2722 15ca 4F535F41 		.ascii "OS_ACTIVATE_TASK\0"
 2722      43544956 
 2722      4154455F 
 2722      5441534B 
 2722      00
 2723 15db 01       		.byte	0x1
 2724 15dc ED       		.byte	0xed
 2725 15dd 06       		.byte	0x6
 2726 15de A4020000 		.long	LFB5
 2727 15e2 E8000000 		.long	LFE5-LFB5
 2728 15e6 01       		.uleb128 0x1
 2729 15e7 9C       		.byte	0x9c
 2730 15e8 FC150000 		.long	0x15fc
 2731 15ec 1D       		.uleb128 0x1d
 2732 15ed 22000000 		.secrel32	LASF1
 2733 15f1 01       		.byte	0x1
 2734 15f2 ED       		.byte	0xed
 2735 15f3 1F       		.byte	0x1f
 2736 15f4 C90A0000 		.long	0xac9
 2737 15f8 02       		.uleb128 0x2
 2738 15f9 91       		.byte	0x91
 2739 15fa 00       		.sleb128 0
 2740 15fb 00       		.byte	0
 2741 15fc 1E       		.uleb128 0x1e
 2742 15fd 6F735F70 		.ascii "os_preempt_task\0"
 2742      7265656D 
 2742      70745F74 
 2742      61736B00 
 2743 160d 01       		.byte	0x1
 2744 160e C4       		.byte	0xc4
 2745 160f 06       		.byte	0x6
 2746 1610 F8010000 		.long	LFB4
 2747 1614 AC000000 		.long	LFE4-LFB4
 2748 1618 01       		.uleb128 0x1
 2749 1619 9C       		.byte	0x9c
 2750 161a 3D160000 		.long	0x163d
 2751 161e 1D       		.uleb128 0x1d
 2752 161f 22000000 		.secrel32	LASF1
 2753 1623 01       		.byte	0x1
 2754 1624 C4       		.byte	0xc4
 2755 1625 1E       		.byte	0x1e
GAS LISTING C:\Users\PRESID~1\AppData\Local\Temp\ccM0pvSr.s 			page 76


 2756 1626 C90A0000 		.long	0xac9
 2757 162a 02       		.uleb128 0x2
 2758 162b 91       		.byte	0x91
 2759 162c 00       		.sleb128 0
 2760 162d 1D       		.uleb128 0x1d
 2761 162e 12000000 		.secrel32	LASF4
 2762 1632 01       		.byte	0x1
 2763 1633 C4       		.byte	0xc4
 2764 1634 32       		.byte	0x32
 2765 1635 A9100000 		.long	0x10a9
 2766 1639 02       		.uleb128 0x2
 2767 163a 91       		.byte	0x91
 2768 163b 04       		.sleb128 4
 2769 163c 00       		.byte	0
 2770 163d 1C       		.uleb128 0x1c
 2771 163e 4F535F43 		.ascii "OS_CREATE_TASK\0"
 2771      52454154 
 2771      455F5441 
 2771      534B00
 2772 164d 01       		.byte	0x1
 2773 164e AA       		.byte	0xaa
 2774 164f 06       		.byte	0x6
 2775 1650 85010000 		.long	LFB3
 2776 1654 73000000 		.long	LFE3-LFB3
 2777 1658 01       		.uleb128 0x1
 2778 1659 9C       		.byte	0x9c
 2779 165a 6E160000 		.long	0x166e
 2780 165e 1D       		.uleb128 0x1d
 2781 165f 22000000 		.secrel32	LASF1
 2782 1663 01       		.byte	0x1
 2783 1664 AA       		.byte	0xaa
 2784 1665 1D       		.byte	0x1d
 2785 1666 C90A0000 		.long	0xac9
 2786 166a 02       		.uleb128 0x2
 2787 166b 91       		.byte	0x91
 2788 166c 00       		.sleb128 0
 2789 166d 00       		.byte	0
 2790 166e 1F       		.uleb128 0x1f
 2791 166f 4F535F54 		.ascii "OS_TASK_STATE_REQUEST\0"
 2791      41534B5F 
 2791      53544154 
 2791      455F5245 
 2791      51554553 
 2792 1685 01       		.byte	0x1
 2793 1686 34       		.byte	0x34
 2794 1687 11       		.byte	0x11
 2795 1688 A2000000 		.long	0xa2
 2796 168c 48000000 		.long	LFB2
 2797 1690 3D010000 		.long	LFE2-LFB2
 2798 1694 01       		.uleb128 0x1
 2799 1695 9C       		.byte	0x9c
 2800 1696 F2160000 		.long	0x16f2
 2801 169a 20       		.uleb128 0x20
 2802 169b 74656D70 		.ascii "temp_task\0"
 2802      5F746173 
 2802      6B00
 2803 16a5 01       		.byte	0x1
GAS LISTING C:\Users\PRESID~1\AppData\Local\Temp\ccM0pvSr.s 			page 77


 2804 16a6 34       		.byte	0x34
 2805 16a7 2D       		.byte	0x2d
 2806 16a8 63070000 		.long	0x763
 2807 16ac 02       		.uleb128 0x2
 2808 16ad 91       		.byte	0x91
 2809 16ae 00       		.sleb128 0
 2810 16af 20       		.uleb128 0x20
 2811 16b0 72657175 		.ascii "requested_state\0"
 2811      65737465 
 2811      645F7374 
 2811      61746500 
 2812 16c0 01       		.byte	0x1
 2813 16c1 34       		.byte	0x34
 2814 16c2 45       		.byte	0x45
 2815 16c3 2C070000 		.long	0x72c
 2816 16c7 02       		.uleb128 0x2
 2817 16c8 91       		.byte	0x91
 2818 16c9 04       		.sleb128 4
 2819 16ca 21       		.uleb128 0x21
 2820 16cb 52657175 		.ascii "RequestState\0"
 2820      65737453 
 2820      74617465 
 2820      00
 2821 16d8 01       		.byte	0x1
 2822 16d9 36       		.byte	0x36
 2823 16da 14       		.byte	0x14
 2824 16db A2000000 		.long	0xa2
 2825 16df 02       		.uleb128 0x2
 2826 16e0 91       		.byte	0x91
 2827 16e1 6F       		.sleb128 -17
 2828 16e2 22       		.uleb128 0x22
 2829 16e3 22000000 		.secrel32	LASF1
 2830 16e7 01       		.byte	0x1
 2831 16e8 38       		.byte	0x38
 2832 16e9 0C       		.byte	0xc
 2833 16ea C90A0000 		.long	0xac9
 2834 16ee 02       		.uleb128 0x2
 2835 16ef 91       		.byte	0x91
 2836 16f0 68       		.sleb128 -24
 2837 16f1 00       		.byte	0
 2838 16f2 1C       		.uleb128 0x1c
 2839 16f3 4F535F53 		.ascii "OS_SLEEP_TASK\0"
 2839      4C454550 
 2839      5F544153 
 2839      4B00
 2840 1701 01       		.byte	0x1
 2841 1702 2B       		.byte	0x2b
 2842 1703 06       		.byte	0x6
 2843 1704 06000000 		.long	LFB1
 2844 1708 42000000 		.long	LFE1-LFB1
 2845 170c 01       		.uleb128 0x1
 2846 170d 9C       		.byte	0x9c
 2847 170e 51170000 		.long	0x1751
 2848 1712 1D       		.uleb128 0x1d
 2849 1713 22000000 		.secrel32	LASF1
 2850 1717 01       		.byte	0x1
 2851 1718 2B       		.byte	0x2b
GAS LISTING C:\Users\PRESID~1\AppData\Local\Temp\ccM0pvSr.s 			page 78


 2852 1719 1C       		.byte	0x1c
 2853 171a C90A0000 		.long	0xac9
 2854 171e 02       		.uleb128 0x2
 2855 171f 91       		.byte	0x91
 2856 1720 00       		.sleb128 0
 2857 1721 20       		.uleb128 0x20
 2858 1722 75736563 		.ascii "usec\0"
 2858      00
 2859 1727 01       		.byte	0x1
 2860 1728 2B       		.byte	0x2b
 2861 1729 2C       		.byte	0x2c
 2862 172a BF050000 		.long	0x5bf
 2863 172e 02       		.uleb128 0x2
 2864 172f 91       		.byte	0x91
 2865 1730 04       		.sleb128 4
 2866 1731 1D       		.uleb128 0x1d
 2867 1732 27000000 		.secrel32	LASF3
 2868 1736 01       		.byte	0x1
 2869 1737 2B       		.byte	0x2b
 2870 1738 40       		.byte	0x40
 2871 1739 A9100000 		.long	0x10a9
 2872 173d 02       		.uleb128 0x2
 2873 173e 91       		.byte	0x91
 2874 173f 14       		.sleb128 20
 2875 1740 21       		.uleb128 0x21
 2876 1741 74696D65 		.ascii "time\0"
 2876      00
 2877 1746 01       		.byte	0x1
 2878 1747 2D       		.byte	0x2d
 2879 1748 0E       		.byte	0xe
 2880 1749 BF050000 		.long	0x5bf
 2881 174d 02       		.uleb128 0x2
 2882 174e 91       		.byte	0x91
 2883 174f 60       		.sleb128 -32
 2884 1750 00       		.byte	0
 2885 1751 23       		.uleb128 0x23
 2886 1752 4F535F41 		.ascii "OS_ACTIVATE_DISPATCHER\0"
 2886      43544956 
 2886      4154455F 
 2886      44495350 
 2886      41544348 
 2887 1769 01       		.byte	0x1
 2888 176a 17       		.byte	0x17
 2889 176b 06       		.byte	0x6
 2890 176c 00000000 		.long	LFB0
 2891 1770 06000000 		.long	LFE0-LFB0
 2892 1774 01       		.uleb128 0x1
 2893 1775 9C       		.byte	0x9c
 2894 1776 00       		.byte	0
 2895              		.section	.debug_abbrev,"dr"
 2896              	Ldebug_abbrev0:
 2897 0000 01       		.uleb128 0x1
 2898 0001 11       		.uleb128 0x11
 2899 0002 01       		.byte	0x1
 2900 0003 25       		.uleb128 0x25
 2901 0004 08       		.uleb128 0x8
 2902 0005 13       		.uleb128 0x13
GAS LISTING C:\Users\PRESID~1\AppData\Local\Temp\ccM0pvSr.s 			page 79


 2903 0006 0B       		.uleb128 0xb
 2904 0007 03       		.uleb128 0x3
 2905 0008 08       		.uleb128 0x8
 2906 0009 1B       		.uleb128 0x1b
 2907 000a 08       		.uleb128 0x8
 2908 000b 11       		.uleb128 0x11
 2909 000c 01       		.uleb128 0x1
 2910 000d 12       		.uleb128 0x12
 2911 000e 06       		.uleb128 0x6
 2912 000f 10       		.uleb128 0x10
 2913 0010 17       		.uleb128 0x17
 2914 0011 9942     		.uleb128 0x2119
 2915 0013 17       		.uleb128 0x17
 2916 0014 00       		.byte	0
 2917 0015 00       		.byte	0
 2918 0016 02       		.uleb128 0x2
 2919 0017 16       		.uleb128 0x16
 2920 0018 00       		.byte	0
 2921 0019 03       		.uleb128 0x3
 2922 001a 08       		.uleb128 0x8
 2923 001b 3A       		.uleb128 0x3a
 2924 001c 0B       		.uleb128 0xb
 2925 001d 3B       		.uleb128 0x3b
 2926 001e 0B       		.uleb128 0xb
 2927 001f 39       		.uleb128 0x39
 2928 0020 0B       		.uleb128 0xb
 2929 0021 49       		.uleb128 0x49
 2930 0022 13       		.uleb128 0x13
 2931 0023 00       		.byte	0
 2932 0024 00       		.byte	0
 2933 0025 03       		.uleb128 0x3
 2934 0026 24       		.uleb128 0x24
 2935 0027 00       		.byte	0
 2936 0028 0B       		.uleb128 0xb
 2937 0029 0B       		.uleb128 0xb
 2938 002a 3E       		.uleb128 0x3e
 2939 002b 0B       		.uleb128 0xb
 2940 002c 03       		.uleb128 0x3
 2941 002d 08       		.uleb128 0x8
 2942 002e 00       		.byte	0
 2943 002f 00       		.byte	0
 2944 0030 04       		.uleb128 0x4
 2945 0031 35       		.uleb128 0x35
 2946 0032 00       		.byte	0
 2947 0033 49       		.uleb128 0x49
 2948 0034 13       		.uleb128 0x13
 2949 0035 00       		.byte	0
 2950 0036 00       		.byte	0
 2951 0037 05       		.uleb128 0x5
 2952 0038 04       		.uleb128 0x4
 2953 0039 01       		.byte	0x1
 2954 003a 03       		.uleb128 0x3
 2955 003b 08       		.uleb128 0x8
 2956 003c 3E       		.uleb128 0x3e
 2957 003d 0B       		.uleb128 0xb
 2958 003e 0B       		.uleb128 0xb
 2959 003f 0B       		.uleb128 0xb
GAS LISTING C:\Users\PRESID~1\AppData\Local\Temp\ccM0pvSr.s 			page 80


 2960 0040 49       		.uleb128 0x49
 2961 0041 13       		.uleb128 0x13
 2962 0042 3A       		.uleb128 0x3a
 2963 0043 0B       		.uleb128 0xb
 2964 0044 3B       		.uleb128 0x3b
 2965 0045 0B       		.uleb128 0xb
 2966 0046 39       		.uleb128 0x39
 2967 0047 0B       		.uleb128 0xb
 2968 0048 01       		.uleb128 0x1
 2969 0049 13       		.uleb128 0x13
 2970 004a 00       		.byte	0
 2971 004b 00       		.byte	0
 2972 004c 06       		.uleb128 0x6
 2973 004d 28       		.uleb128 0x28
 2974 004e 00       		.byte	0
 2975 004f 03       		.uleb128 0x3
 2976 0050 08       		.uleb128 0x8
 2977 0051 1C       		.uleb128 0x1c
 2978 0052 0B       		.uleb128 0xb
 2979 0053 00       		.byte	0
 2980 0054 00       		.byte	0
 2981 0055 07       		.uleb128 0x7
 2982 0056 13       		.uleb128 0x13
 2983 0057 01       		.byte	0x1
 2984 0058 03       		.uleb128 0x3
 2985 0059 08       		.uleb128 0x8
 2986 005a 0B       		.uleb128 0xb
 2987 005b 0B       		.uleb128 0xb
 2988 005c 3A       		.uleb128 0x3a
 2989 005d 0B       		.uleb128 0xb
 2990 005e 3B       		.uleb128 0x3b
 2991 005f 0B       		.uleb128 0xb
 2992 0060 39       		.uleb128 0x39
 2993 0061 0B       		.uleb128 0xb
 2994 0062 01       		.uleb128 0x1
 2995 0063 13       		.uleb128 0x13
 2996 0064 00       		.byte	0
 2997 0065 00       		.byte	0
 2998 0066 08       		.uleb128 0x8
 2999 0067 0D       		.uleb128 0xd
 3000 0068 00       		.byte	0
 3001 0069 03       		.uleb128 0x3
 3002 006a 08       		.uleb128 0x8
 3003 006b 3A       		.uleb128 0x3a
 3004 006c 0B       		.uleb128 0xb
 3005 006d 3B       		.uleb128 0x3b
 3006 006e 0B       		.uleb128 0xb
 3007 006f 39       		.uleb128 0x39
 3008 0070 0B       		.uleb128 0xb
 3009 0071 49       		.uleb128 0x49
 3010 0072 13       		.uleb128 0x13
 3011 0073 38       		.uleb128 0x38
 3012 0074 0B       		.uleb128 0xb
 3013 0075 00       		.byte	0
 3014 0076 00       		.byte	0
 3015 0077 09       		.uleb128 0x9
 3016 0078 01       		.uleb128 0x1
GAS LISTING C:\Users\PRESID~1\AppData\Local\Temp\ccM0pvSr.s 			page 81


 3017 0079 01       		.byte	0x1
 3018 007a 49       		.uleb128 0x49
 3019 007b 13       		.uleb128 0x13
 3020 007c 01       		.uleb128 0x1
 3021 007d 13       		.uleb128 0x13
 3022 007e 00       		.byte	0
 3023 007f 00       		.byte	0
 3024 0080 0A       		.uleb128 0xa
 3025 0081 21       		.uleb128 0x21
 3026 0082 00       		.byte	0
 3027 0083 49       		.uleb128 0x49
 3028 0084 13       		.uleb128 0x13
 3029 0085 2F       		.uleb128 0x2f
 3030 0086 0B       		.uleb128 0xb
 3031 0087 00       		.byte	0
 3032 0088 00       		.byte	0
 3033 0089 0B       		.uleb128 0xb
 3034 008a 0F       		.uleb128 0xf
 3035 008b 00       		.byte	0
 3036 008c 0B       		.uleb128 0xb
 3037 008d 0B       		.uleb128 0xb
 3038 008e 49       		.uleb128 0x49
 3039 008f 13       		.uleb128 0x13
 3040 0090 00       		.byte	0
 3041 0091 00       		.byte	0
 3042 0092 0C       		.uleb128 0xc
 3043 0093 15       		.uleb128 0x15
 3044 0094 01       		.byte	0x1
 3045 0095 27       		.uleb128 0x27
 3046 0096 19       		.uleb128 0x19
 3047 0097 01       		.uleb128 0x1
 3048 0098 13       		.uleb128 0x13
 3049 0099 00       		.byte	0
 3050 009a 00       		.byte	0
 3051 009b 0D       		.uleb128 0xd
 3052 009c 05       		.uleb128 0x5
 3053 009d 00       		.byte	0
 3054 009e 49       		.uleb128 0x49
 3055 009f 13       		.uleb128 0x13
 3056 00a0 00       		.byte	0
 3057 00a1 00       		.byte	0
 3058 00a2 0E       		.uleb128 0xe
 3059 00a3 0F       		.uleb128 0xf
 3060 00a4 00       		.byte	0
 3061 00a5 0B       		.uleb128 0xb
 3062 00a6 0B       		.uleb128 0xb
 3063 00a7 00       		.byte	0
 3064 00a8 00       		.byte	0
 3065 00a9 0F       		.uleb128 0xf
 3066 00aa 15       		.uleb128 0x15
 3067 00ab 01       		.byte	0x1
 3068 00ac 27       		.uleb128 0x27
 3069 00ad 19       		.uleb128 0x19
 3070 00ae 49       		.uleb128 0x49
 3071 00af 13       		.uleb128 0x13
 3072 00b0 01       		.uleb128 0x1
 3073 00b1 13       		.uleb128 0x13
GAS LISTING C:\Users\PRESID~1\AppData\Local\Temp\ccM0pvSr.s 			page 82


 3074 00b2 00       		.byte	0
 3075 00b3 00       		.byte	0
 3076 00b4 10       		.uleb128 0x10
 3077 00b5 0D       		.uleb128 0xd
 3078 00b6 00       		.byte	0
 3079 00b7 03       		.uleb128 0x3
 3080 00b8 0E       		.uleb128 0xe
 3081 00b9 3A       		.uleb128 0x3a
 3082 00ba 0B       		.uleb128 0xb
 3083 00bb 3B       		.uleb128 0x3b
 3084 00bc 0B       		.uleb128 0xb
 3085 00bd 39       		.uleb128 0x39
 3086 00be 0B       		.uleb128 0xb
 3087 00bf 49       		.uleb128 0x49
 3088 00c0 13       		.uleb128 0x13
 3089 00c1 38       		.uleb128 0x38
 3090 00c2 0B       		.uleb128 0xb
 3091 00c3 00       		.byte	0
 3092 00c4 00       		.byte	0
 3093 00c5 11       		.uleb128 0x11
 3094 00c6 0D       		.uleb128 0xd
 3095 00c7 00       		.byte	0
 3096 00c8 03       		.uleb128 0x3
 3097 00c9 08       		.uleb128 0x8
 3098 00ca 3A       		.uleb128 0x3a
 3099 00cb 0B       		.uleb128 0xb
 3100 00cc 3B       		.uleb128 0x3b
 3101 00cd 0B       		.uleb128 0xb
 3102 00ce 39       		.uleb128 0x39
 3103 00cf 0B       		.uleb128 0xb
 3104 00d0 49       		.uleb128 0x49
 3105 00d1 13       		.uleb128 0x13
 3106 00d2 0B       		.uleb128 0xb
 3107 00d3 0B       		.uleb128 0xb
 3108 00d4 0D       		.uleb128 0xd
 3109 00d5 0B       		.uleb128 0xb
 3110 00d6 0C       		.uleb128 0xc
 3111 00d7 0B       		.uleb128 0xb
 3112 00d8 38       		.uleb128 0x38
 3113 00d9 0B       		.uleb128 0xb
 3114 00da 00       		.byte	0
 3115 00db 00       		.byte	0
 3116 00dc 12       		.uleb128 0x12
 3117 00dd 34       		.uleb128 0x34
 3118 00de 00       		.byte	0
 3119 00df 03       		.uleb128 0x3
 3120 00e0 08       		.uleb128 0x8
 3121 00e1 3A       		.uleb128 0x3a
 3122 00e2 0B       		.uleb128 0xb
 3123 00e3 3B       		.uleb128 0x3b
 3124 00e4 0B       		.uleb128 0xb
 3125 00e5 39       		.uleb128 0x39
 3126 00e6 0B       		.uleb128 0xb
 3127 00e7 49       		.uleb128 0x49
 3128 00e8 13       		.uleb128 0x13
 3129 00e9 3F       		.uleb128 0x3f
 3130 00ea 19       		.uleb128 0x19
GAS LISTING C:\Users\PRESID~1\AppData\Local\Temp\ccM0pvSr.s 			page 83


 3131 00eb 3C       		.uleb128 0x3c
 3132 00ec 19       		.uleb128 0x19
 3133 00ed 00       		.byte	0
 3134 00ee 00       		.byte	0
 3135 00ef 13       		.uleb128 0x13
 3136 00f0 21       		.uleb128 0x21
 3137 00f1 00       		.byte	0
 3138 00f2 49       		.uleb128 0x49
 3139 00f3 13       		.uleb128 0x13
 3140 00f4 2F       		.uleb128 0x2f
 3141 00f5 05       		.uleb128 0x5
 3142 00f6 00       		.byte	0
 3143 00f7 00       		.byte	0
 3144 00f8 14       		.uleb128 0x14
 3145 00f9 2E       		.uleb128 0x2e
 3146 00fa 01       		.byte	0x1
 3147 00fb 03       		.uleb128 0x3
 3148 00fc 08       		.uleb128 0x8
 3149 00fd 3A       		.uleb128 0x3a
 3150 00fe 0B       		.uleb128 0xb
 3151 00ff 3B       		.uleb128 0x3b
 3152 0100 05       		.uleb128 0x5
 3153 0101 39       		.uleb128 0x39
 3154 0102 0B       		.uleb128 0xb
 3155 0103 27       		.uleb128 0x27
 3156 0104 19       		.uleb128 0x19
 3157 0105 49       		.uleb128 0x49
 3158 0106 13       		.uleb128 0x13
 3159 0107 11       		.uleb128 0x11
 3160 0108 01       		.uleb128 0x1
 3161 0109 12       		.uleb128 0x12
 3162 010a 06       		.uleb128 0x6
 3163 010b 40       		.uleb128 0x40
 3164 010c 18       		.uleb128 0x18
 3165 010d 9642     		.uleb128 0x2116
 3166 010f 19       		.uleb128 0x19
 3167 0110 01       		.uleb128 0x1
 3168 0111 13       		.uleb128 0x13
 3169 0112 00       		.byte	0
 3170 0113 00       		.byte	0
 3171 0114 15       		.uleb128 0x15
 3172 0115 34       		.uleb128 0x34
 3173 0116 00       		.byte	0
 3174 0117 03       		.uleb128 0x3
 3175 0118 08       		.uleb128 0x8
 3176 0119 3A       		.uleb128 0x3a
 3177 011a 0B       		.uleb128 0xb
 3178 011b 3B       		.uleb128 0x3b
 3179 011c 05       		.uleb128 0x5
 3180 011d 39       		.uleb128 0x39
 3181 011e 0B       		.uleb128 0xb
 3182 011f 49       		.uleb128 0x49
 3183 0120 13       		.uleb128 0x13
 3184 0121 02       		.uleb128 0x2
 3185 0122 18       		.uleb128 0x18
 3186 0123 00       		.byte	0
 3187 0124 00       		.byte	0
GAS LISTING C:\Users\PRESID~1\AppData\Local\Temp\ccM0pvSr.s 			page 84


 3188 0125 16       		.uleb128 0x16
 3189 0126 34       		.uleb128 0x34
 3190 0127 00       		.byte	0
 3191 0128 03       		.uleb128 0x3
 3192 0129 0E       		.uleb128 0xe
 3193 012a 3A       		.uleb128 0x3a
 3194 012b 0B       		.uleb128 0xb
 3195 012c 3B       		.uleb128 0x3b
 3196 012d 05       		.uleb128 0x5
 3197 012e 39       		.uleb128 0x39
 3198 012f 0B       		.uleb128 0xb
 3199 0130 49       		.uleb128 0x49
 3200 0131 13       		.uleb128 0x13
 3201 0132 02       		.uleb128 0x2
 3202 0133 18       		.uleb128 0x18
 3203 0134 00       		.byte	0
 3204 0135 00       		.byte	0
 3205 0136 17       		.uleb128 0x17
 3206 0137 0B       		.uleb128 0xb
 3207 0138 01       		.byte	0x1
 3208 0139 11       		.uleb128 0x11
 3209 013a 01       		.uleb128 0x1
 3210 013b 12       		.uleb128 0x12
 3211 013c 06       		.uleb128 0x6
 3212 013d 00       		.byte	0
 3213 013e 00       		.byte	0
 3214 013f 18       		.uleb128 0x18
 3215 0140 2E       		.uleb128 0x2e
 3216 0141 01       		.byte	0x1
 3217 0142 3F       		.uleb128 0x3f
 3218 0143 19       		.uleb128 0x19
 3219 0144 03       		.uleb128 0x3
 3220 0145 08       		.uleb128 0x8
 3221 0146 3A       		.uleb128 0x3a
 3222 0147 0B       		.uleb128 0xb
 3223 0148 3B       		.uleb128 0x3b
 3224 0149 05       		.uleb128 0x5
 3225 014a 39       		.uleb128 0x39
 3226 014b 0B       		.uleb128 0xb
 3227 014c 27       		.uleb128 0x27
 3228 014d 19       		.uleb128 0x19
 3229 014e 11       		.uleb128 0x11
 3230 014f 01       		.uleb128 0x1
 3231 0150 12       		.uleb128 0x12
 3232 0151 06       		.uleb128 0x6
 3233 0152 40       		.uleb128 0x40
 3234 0153 18       		.uleb128 0x18
 3235 0154 9642     		.uleb128 0x2116
 3236 0156 19       		.uleb128 0x19
 3237 0157 01       		.uleb128 0x1
 3238 0158 13       		.uleb128 0x13
 3239 0159 00       		.byte	0
 3240 015a 00       		.byte	0
 3241 015b 19       		.uleb128 0x19
 3242 015c 2E       		.uleb128 0x2e
 3243 015d 01       		.byte	0x1
 3244 015e 03       		.uleb128 0x3
GAS LISTING C:\Users\PRESID~1\AppData\Local\Temp\ccM0pvSr.s 			page 85


 3245 015f 08       		.uleb128 0x8
 3246 0160 3A       		.uleb128 0x3a
 3247 0161 0B       		.uleb128 0xb
 3248 0162 3B       		.uleb128 0x3b
 3249 0163 05       		.uleb128 0x5
 3250 0164 39       		.uleb128 0x39
 3251 0165 0B       		.uleb128 0xb
 3252 0166 27       		.uleb128 0x27
 3253 0167 19       		.uleb128 0x19
 3254 0168 11       		.uleb128 0x11
 3255 0169 01       		.uleb128 0x1
 3256 016a 12       		.uleb128 0x12
 3257 016b 06       		.uleb128 0x6
 3258 016c 40       		.uleb128 0x40
 3259 016d 18       		.uleb128 0x18
 3260 016e 9642     		.uleb128 0x2116
 3261 0170 19       		.uleb128 0x19
 3262 0171 01       		.uleb128 0x1
 3263 0172 13       		.uleb128 0x13
 3264 0173 00       		.byte	0
 3265 0174 00       		.byte	0
 3266 0175 1A       		.uleb128 0x1a
 3267 0176 05       		.uleb128 0x5
 3268 0177 00       		.byte	0
 3269 0178 03       		.uleb128 0x3
 3270 0179 0E       		.uleb128 0xe
 3271 017a 3A       		.uleb128 0x3a
 3272 017b 0B       		.uleb128 0xb
 3273 017c 3B       		.uleb128 0x3b
 3274 017d 05       		.uleb128 0x5
 3275 017e 39       		.uleb128 0x39
 3276 017f 0B       		.uleb128 0xb
 3277 0180 49       		.uleb128 0x49
 3278 0181 13       		.uleb128 0x13
 3279 0182 02       		.uleb128 0x2
 3280 0183 18       		.uleb128 0x18
 3281 0184 00       		.byte	0
 3282 0185 00       		.byte	0
 3283 0186 1B       		.uleb128 0x1b
 3284 0187 2E       		.uleb128 0x2e
 3285 0188 01       		.byte	0x1
 3286 0189 03       		.uleb128 0x3
 3287 018a 08       		.uleb128 0x8
 3288 018b 3A       		.uleb128 0x3a
 3289 018c 0B       		.uleb128 0xb
 3290 018d 3B       		.uleb128 0x3b
 3291 018e 05       		.uleb128 0x5
 3292 018f 39       		.uleb128 0x39
 3293 0190 0B       		.uleb128 0xb
 3294 0191 27       		.uleb128 0x27
 3295 0192 19       		.uleb128 0x19
 3296 0193 11       		.uleb128 0x11
 3297 0194 01       		.uleb128 0x1
 3298 0195 12       		.uleb128 0x12
 3299 0196 06       		.uleb128 0x6
 3300 0197 40       		.uleb128 0x40
 3301 0198 18       		.uleb128 0x18
GAS LISTING C:\Users\PRESID~1\AppData\Local\Temp\ccM0pvSr.s 			page 86


 3302 0199 9742     		.uleb128 0x2117
 3303 019b 19       		.uleb128 0x19
 3304 019c 01       		.uleb128 0x1
 3305 019d 13       		.uleb128 0x13
 3306 019e 00       		.byte	0
 3307 019f 00       		.byte	0
 3308 01a0 1C       		.uleb128 0x1c
 3309 01a1 2E       		.uleb128 0x2e
 3310 01a2 01       		.byte	0x1
 3311 01a3 3F       		.uleb128 0x3f
 3312 01a4 19       		.uleb128 0x19
 3313 01a5 03       		.uleb128 0x3
 3314 01a6 08       		.uleb128 0x8
 3315 01a7 3A       		.uleb128 0x3a
 3316 01a8 0B       		.uleb128 0xb
 3317 01a9 3B       		.uleb128 0x3b
 3318 01aa 0B       		.uleb128 0xb
 3319 01ab 39       		.uleb128 0x39
 3320 01ac 0B       		.uleb128 0xb
 3321 01ad 27       		.uleb128 0x27
 3322 01ae 19       		.uleb128 0x19
 3323 01af 11       		.uleb128 0x11
 3324 01b0 01       		.uleb128 0x1
 3325 01b1 12       		.uleb128 0x12
 3326 01b2 06       		.uleb128 0x6
 3327 01b3 40       		.uleb128 0x40
 3328 01b4 18       		.uleb128 0x18
 3329 01b5 9642     		.uleb128 0x2116
 3330 01b7 19       		.uleb128 0x19
 3331 01b8 01       		.uleb128 0x1
 3332 01b9 13       		.uleb128 0x13
 3333 01ba 00       		.byte	0
 3334 01bb 00       		.byte	0
 3335 01bc 1D       		.uleb128 0x1d
 3336 01bd 05       		.uleb128 0x5
 3337 01be 00       		.byte	0
 3338 01bf 03       		.uleb128 0x3
 3339 01c0 0E       		.uleb128 0xe
 3340 01c1 3A       		.uleb128 0x3a
 3341 01c2 0B       		.uleb128 0xb
 3342 01c3 3B       		.uleb128 0x3b
 3343 01c4 0B       		.uleb128 0xb
 3344 01c5 39       		.uleb128 0x39
 3345 01c6 0B       		.uleb128 0xb
 3346 01c7 49       		.uleb128 0x49
 3347 01c8 13       		.uleb128 0x13
 3348 01c9 02       		.uleb128 0x2
 3349 01ca 18       		.uleb128 0x18
 3350 01cb 00       		.byte	0
 3351 01cc 00       		.byte	0
 3352 01cd 1E       		.uleb128 0x1e
 3353 01ce 2E       		.uleb128 0x2e
 3354 01cf 01       		.byte	0x1
 3355 01d0 03       		.uleb128 0x3
 3356 01d1 08       		.uleb128 0x8
 3357 01d2 3A       		.uleb128 0x3a
 3358 01d3 0B       		.uleb128 0xb
GAS LISTING C:\Users\PRESID~1\AppData\Local\Temp\ccM0pvSr.s 			page 87


 3359 01d4 3B       		.uleb128 0x3b
 3360 01d5 0B       		.uleb128 0xb
 3361 01d6 39       		.uleb128 0x39
 3362 01d7 0B       		.uleb128 0xb
 3363 01d8 27       		.uleb128 0x27
 3364 01d9 19       		.uleb128 0x19
 3365 01da 11       		.uleb128 0x11
 3366 01db 01       		.uleb128 0x1
 3367 01dc 12       		.uleb128 0x12
 3368 01dd 06       		.uleb128 0x6
 3369 01de 40       		.uleb128 0x40
 3370 01df 18       		.uleb128 0x18
 3371 01e0 9642     		.uleb128 0x2116
 3372 01e2 19       		.uleb128 0x19
 3373 01e3 01       		.uleb128 0x1
 3374 01e4 13       		.uleb128 0x13
 3375 01e5 00       		.byte	0
 3376 01e6 00       		.byte	0
 3377 01e7 1F       		.uleb128 0x1f
 3378 01e8 2E       		.uleb128 0x2e
 3379 01e9 01       		.byte	0x1
 3380 01ea 3F       		.uleb128 0x3f
 3381 01eb 19       		.uleb128 0x19
 3382 01ec 03       		.uleb128 0x3
 3383 01ed 08       		.uleb128 0x8
 3384 01ee 3A       		.uleb128 0x3a
 3385 01ef 0B       		.uleb128 0xb
 3386 01f0 3B       		.uleb128 0x3b
 3387 01f1 0B       		.uleb128 0xb
 3388 01f2 39       		.uleb128 0x39
 3389 01f3 0B       		.uleb128 0xb
 3390 01f4 27       		.uleb128 0x27
 3391 01f5 19       		.uleb128 0x19
 3392 01f6 49       		.uleb128 0x49
 3393 01f7 13       		.uleb128 0x13
 3394 01f8 11       		.uleb128 0x11
 3395 01f9 01       		.uleb128 0x1
 3396 01fa 12       		.uleb128 0x12
 3397 01fb 06       		.uleb128 0x6
 3398 01fc 40       		.uleb128 0x40
 3399 01fd 18       		.uleb128 0x18
 3400 01fe 9642     		.uleb128 0x2116
 3401 0200 19       		.uleb128 0x19
 3402 0201 01       		.uleb128 0x1
 3403 0202 13       		.uleb128 0x13
 3404 0203 00       		.byte	0
 3405 0204 00       		.byte	0
 3406 0205 20       		.uleb128 0x20
 3407 0206 05       		.uleb128 0x5
 3408 0207 00       		.byte	0
 3409 0208 03       		.uleb128 0x3
 3410 0209 08       		.uleb128 0x8
 3411 020a 3A       		.uleb128 0x3a
 3412 020b 0B       		.uleb128 0xb
 3413 020c 3B       		.uleb128 0x3b
 3414 020d 0B       		.uleb128 0xb
 3415 020e 39       		.uleb128 0x39
GAS LISTING C:\Users\PRESID~1\AppData\Local\Temp\ccM0pvSr.s 			page 88


 3416 020f 0B       		.uleb128 0xb
 3417 0210 49       		.uleb128 0x49
 3418 0211 13       		.uleb128 0x13
 3419 0212 02       		.uleb128 0x2
 3420 0213 18       		.uleb128 0x18
 3421 0214 00       		.byte	0
 3422 0215 00       		.byte	0
 3423 0216 21       		.uleb128 0x21
 3424 0217 34       		.uleb128 0x34
 3425 0218 00       		.byte	0
 3426 0219 03       		.uleb128 0x3
 3427 021a 08       		.uleb128 0x8
 3428 021b 3A       		.uleb128 0x3a
 3429 021c 0B       		.uleb128 0xb
 3430 021d 3B       		.uleb128 0x3b
 3431 021e 0B       		.uleb128 0xb
 3432 021f 39       		.uleb128 0x39
 3433 0220 0B       		.uleb128 0xb
 3434 0221 49       		.uleb128 0x49
 3435 0222 13       		.uleb128 0x13
 3436 0223 02       		.uleb128 0x2
 3437 0224 18       		.uleb128 0x18
 3438 0225 00       		.byte	0
 3439 0226 00       		.byte	0
 3440 0227 22       		.uleb128 0x22
 3441 0228 34       		.uleb128 0x34
 3442 0229 00       		.byte	0
 3443 022a 03       		.uleb128 0x3
 3444 022b 0E       		.uleb128 0xe
 3445 022c 3A       		.uleb128 0x3a
 3446 022d 0B       		.uleb128 0xb
 3447 022e 3B       		.uleb128 0x3b
 3448 022f 0B       		.uleb128 0xb
 3449 0230 39       		.uleb128 0x39
 3450 0231 0B       		.uleb128 0xb
 3451 0232 49       		.uleb128 0x49
 3452 0233 13       		.uleb128 0x13
 3453 0234 02       		.uleb128 0x2
 3454 0235 18       		.uleb128 0x18
 3455 0236 00       		.byte	0
 3456 0237 00       		.byte	0
 3457 0238 23       		.uleb128 0x23
 3458 0239 2E       		.uleb128 0x2e
 3459 023a 00       		.byte	0
 3460 023b 3F       		.uleb128 0x3f
 3461 023c 19       		.uleb128 0x19
 3462 023d 03       		.uleb128 0x3
 3463 023e 08       		.uleb128 0x8
 3464 023f 3A       		.uleb128 0x3a
 3465 0240 0B       		.uleb128 0xb
 3466 0241 3B       		.uleb128 0x3b
 3467 0242 0B       		.uleb128 0xb
 3468 0243 39       		.uleb128 0x39
 3469 0244 0B       		.uleb128 0xb
 3470 0245 27       		.uleb128 0x27
 3471 0246 19       		.uleb128 0x19
 3472 0247 11       		.uleb128 0x11
GAS LISTING C:\Users\PRESID~1\AppData\Local\Temp\ccM0pvSr.s 			page 89


 3473 0248 01       		.uleb128 0x1
 3474 0249 12       		.uleb128 0x12
 3475 024a 06       		.uleb128 0x6
 3476 024b 40       		.uleb128 0x40
 3477 024c 18       		.uleb128 0x18
 3478 024d 9742     		.uleb128 0x2117
 3479 024f 19       		.uleb128 0x19
 3480 0250 00       		.byte	0
 3481 0251 00       		.byte	0
 3482 0252 00       		.byte	0
 3483              		.section	.debug_aranges,"dr"
 3484 0000 1C000000 		.long	0x1c
 3485 0004 0200     		.word	0x2
 3486 0006 00000000 		.secrel32	Ldebug_info0
 3487 000a 04       		.byte	0x4
 3488 000b 00       		.byte	0
 3489 000c 0000     		.word	0
 3490 000e 0000     		.word	0
 3491 0010 00000000 		.long	Ltext0
 3492 0014 8B0A0000 		.long	Letext0-Ltext0
 3493 0018 00000000 		.long	0
 3494 001c 00000000 		.long	0
 3495              		.section	.debug_macro,"dr"
 3496              	Ldebug_macro0:
 3497 0000 0400     		.word	0x4
 3498 0002 02       		.byte	0x2
 3499 0003 00000000 		.secrel32	Ldebug_line0
 3500 0007 01       		.byte	0x1
 3501 0008 00       		.uleb128 0
 3502 0009 5F5F5354 		.ascii "__STDC__ 1\0"
 3502      44435F5F 
 3502      203100
 3503 0014 01       		.byte	0x1
 3504 0015 00       		.uleb128 0
 3505 0016 5F5F5354 		.ascii "__STDC_HOSTED__ 1\0"
 3505      44435F48 
 3505      4F535445 
 3505      445F5F20 
 3505      3100
 3506 0028 01       		.byte	0x1
 3507 0029 00       		.uleb128 0
 3508 002a 5F5F474E 		.ascii "__GNUC__ 8\0"
 3508      55435F5F 
 3508      203800
 3509 0035 01       		.byte	0x1
 3510 0036 00       		.uleb128 0
 3511 0037 5F5F474E 		.ascii "__GNUC_MINOR__ 2\0"
 3511      55435F4D 
 3511      494E4F52 
 3511      5F5F2032 
 3511      00
 3512 0048 01       		.byte	0x1
 3513 0049 00       		.uleb128 0
 3514 004a 5F5F474E 		.ascii "__GNUC_PATCHLEVEL__ 0\0"
 3514      55435F50 
 3514      41544348 
 3514      4C455645 
GAS LISTING C:\Users\PRESID~1\AppData\Local\Temp\ccM0pvSr.s 			page 90


 3514      4C5F5F20 
 3515 0060 01       		.byte	0x1
 3516 0061 00       		.uleb128 0
 3517 0062 5F5F5645 		.ascii "__VERSION__ \"8.2.0\"\0"
 3517      5253494F 
 3517      4E5F5F20 
 3517      22382E32 
 3517      2E302200 
 3518 0076 01       		.byte	0x1
 3519 0077 00       		.uleb128 0
 3520 0078 5F5F4154 		.ascii "__ATOMIC_RELAXED 0\0"
 3520      4F4D4943 
 3520      5F52454C 
 3520      41584544 
 3520      203000
 3521 008b 01       		.byte	0x1
 3522 008c 00       		.uleb128 0
 3523 008d 5F5F4154 		.ascii "__ATOMIC_SEQ_CST 5\0"
 3523      4F4D4943 
 3523      5F534551 
 3523      5F435354 
 3523      203500
 3524 00a0 01       		.byte	0x1
 3525 00a1 00       		.uleb128 0
 3526 00a2 5F5F4154 		.ascii "__ATOMIC_ACQUIRE 2\0"
 3526      4F4D4943 
 3526      5F414351 
 3526      55495245 
 3526      203200
 3527 00b5 01       		.byte	0x1
 3528 00b6 00       		.uleb128 0
 3529 00b7 5F5F4154 		.ascii "__ATOMIC_RELEASE 3\0"
 3529      4F4D4943 
 3529      5F52454C 
 3529      45415345 
 3529      203300
 3530 00ca 01       		.byte	0x1
 3531 00cb 00       		.uleb128 0
 3532 00cc 5F5F4154 		.ascii "__ATOMIC_ACQ_REL 4\0"
 3532      4F4D4943 
 3532      5F414351 
 3532      5F52454C 
 3532      203400
 3533 00df 01       		.byte	0x1
 3534 00e0 00       		.uleb128 0
 3535 00e1 5F5F4154 		.ascii "__ATOMIC_CONSUME 1\0"
 3535      4F4D4943 
 3535      5F434F4E 
 3535      53554D45 
 3535      203100
 3536 00f4 01       		.byte	0x1
 3537 00f5 00       		.uleb128 0
 3538 00f6 5F5F4649 		.ascii "__FINITE_MATH_ONLY__ 0\0"
 3538      4E495445 
 3538      5F4D4154 
 3538      485F4F4E 
 3538      4C595F5F 
GAS LISTING C:\Users\PRESID~1\AppData\Local\Temp\ccM0pvSr.s 			page 91


 3539 010d 01       		.byte	0x1
 3540 010e 00       		.uleb128 0
 3541 010f 5F5F5349 		.ascii "__SIZEOF_INT__ 4\0"
 3541      5A454F46 
 3541      5F494E54 
 3541      5F5F2034 
 3541      00
 3542 0120 01       		.byte	0x1
 3543 0121 00       		.uleb128 0
 3544 0122 5F5F5349 		.ascii "__SIZEOF_LONG__ 4\0"
 3544      5A454F46 
 3544      5F4C4F4E 
 3544      475F5F20 
 3544      3400
 3545 0134 01       		.byte	0x1
 3546 0135 00       		.uleb128 0
 3547 0136 5F5F5349 		.ascii "__SIZEOF_LONG_LONG__ 8\0"
 3547      5A454F46 
 3547      5F4C4F4E 
 3547      475F4C4F 
 3547      4E475F5F 
 3548 014d 01       		.byte	0x1
 3549 014e 00       		.uleb128 0
 3550 014f 5F5F5349 		.ascii "__SIZEOF_SHORT__ 2\0"
 3550      5A454F46 
 3550      5F53484F 
 3550      52545F5F 
 3550      203200
 3551 0162 01       		.byte	0x1
 3552 0163 00       		.uleb128 0
 3553 0164 5F5F5349 		.ascii "__SIZEOF_FLOAT__ 4\0"
 3553      5A454F46 
 3553      5F464C4F 
 3553      41545F5F 
 3553      203400
 3554 0177 01       		.byte	0x1
 3555 0178 00       		.uleb128 0
 3556 0179 5F5F5349 		.ascii "__SIZEOF_DOUBLE__ 8\0"
 3556      5A454F46 
 3556      5F444F55 
 3556      424C455F 
 3556      5F203800 
 3557 018d 01       		.byte	0x1
 3558 018e 00       		.uleb128 0
 3559 018f 5F5F5349 		.ascii "__SIZEOF_LONG_DOUBLE__ 12\0"
 3559      5A454F46 
 3559      5F4C4F4E 
 3559      475F444F 
 3559      55424C45 
 3560 01a9 01       		.byte	0x1
 3561 01aa 00       		.uleb128 0
 3562 01ab 5F5F5349 		.ascii "__SIZEOF_SIZE_T__ 4\0"
 3562      5A454F46 
 3562      5F53495A 
 3562      455F545F 
 3562      5F203400 
 3563 01bf 01       		.byte	0x1
GAS LISTING C:\Users\PRESID~1\AppData\Local\Temp\ccM0pvSr.s 			page 92


 3564 01c0 00       		.uleb128 0
 3565 01c1 5F5F4348 		.ascii "__CHAR_BIT__ 8\0"
 3565      41525F42 
 3565      49545F5F 
 3565      203800
 3566 01d0 01       		.byte	0x1
 3567 01d1 00       		.uleb128 0
 3568 01d2 5F5F4249 		.ascii "__BIGGEST_ALIGNMENT__ 16\0"
 3568      47474553 
 3568      545F414C 
 3568      49474E4D 
 3568      454E545F 
 3569 01eb 01       		.byte	0x1
 3570 01ec 00       		.uleb128 0
 3571 01ed 5F5F4F52 		.ascii "__ORDER_LITTLE_ENDIAN__ 1234\0"
 3571      4445525F 
 3571      4C495454 
 3571      4C455F45 
 3571      4E444941 
 3572 020a 01       		.byte	0x1
 3573 020b 00       		.uleb128 0
 3574 020c 5F5F4F52 		.ascii "__ORDER_BIG_ENDIAN__ 4321\0"
 3574      4445525F 
 3574      4249475F 
 3574      454E4449 
 3574      414E5F5F 
 3575 0226 01       		.byte	0x1
 3576 0227 00       		.uleb128 0
 3577 0228 5F5F4F52 		.ascii "__ORDER_PDP_ENDIAN__ 3412\0"
 3577      4445525F 
 3577      5044505F 
 3577      454E4449 
 3577      414E5F5F 
 3578 0242 01       		.byte	0x1
 3579 0243 00       		.uleb128 0
 3580 0244 5F5F4259 		.ascii "__BYTE_ORDER__ __ORDER_LITTLE_ENDIAN__\0"
 3580      54455F4F 
 3580      52444552 
 3580      5F5F205F 
 3580      5F4F5244 
 3581 026b 01       		.byte	0x1
 3582 026c 00       		.uleb128 0
 3583 026d 5F5F464C 		.ascii "__FLOAT_WORD_ORDER__ __ORDER_LITTLE_ENDIAN__\0"
 3583      4F41545F 
 3583      574F5244 
 3583      5F4F5244 
 3583      45525F5F 
 3584 029a 01       		.byte	0x1
 3585 029b 00       		.uleb128 0
 3586 029c 5F5F5349 		.ascii "__SIZEOF_POINTER__ 4\0"
 3586      5A454F46 
 3586      5F504F49 
 3586      4E544552 
 3586      5F5F2034 
 3587 02b1 01       		.byte	0x1
 3588 02b2 00       		.uleb128 0
 3589 02b3 5F5F5349 		.ascii "__SIZE_TYPE__ unsigned int\0"
GAS LISTING C:\Users\PRESID~1\AppData\Local\Temp\ccM0pvSr.s 			page 93


 3589      5A455F54 
 3589      5950455F 
 3589      5F20756E 
 3589      7369676E 
 3590 02ce 01       		.byte	0x1
 3591 02cf 00       		.uleb128 0
 3592 02d0 5F5F5054 		.ascii "__PTRDIFF_TYPE__ int\0"
 3592      52444946 
 3592      465F5459 
 3592      50455F5F 
 3592      20696E74 
 3593 02e5 01       		.byte	0x1
 3594 02e6 00       		.uleb128 0
 3595 02e7 5F5F5743 		.ascii "__WCHAR_TYPE__ short unsigned int\0"
 3595      4841525F 
 3595      54595045 
 3595      5F5F2073 
 3595      686F7274 
 3596 0309 01       		.byte	0x1
 3597 030a 00       		.uleb128 0
 3598 030b 5F5F5749 		.ascii "__WINT_TYPE__ short unsigned int\0"
 3598      4E545F54 
 3598      5950455F 
 3598      5F207368 
 3598      6F727420 
 3599 032c 01       		.byte	0x1
 3600 032d 00       		.uleb128 0
 3601 032e 5F5F494E 		.ascii "__INTMAX_TYPE__ long long int\0"
 3601      544D4158 
 3601      5F545950 
 3601      455F5F20 
 3601      6C6F6E67 
 3602 034c 01       		.byte	0x1
 3603 034d 00       		.uleb128 0
 3604 034e 5F5F5549 		.ascii "__UINTMAX_TYPE__ long long unsigned int\0"
 3604      4E544D41 
 3604      585F5459 
 3604      50455F5F 
 3604      206C6F6E 
 3605 0376 01       		.byte	0x1
 3606 0377 00       		.uleb128 0
 3607 0378 5F5F4348 		.ascii "__CHAR16_TYPE__ short unsigned int\0"
 3607      41523136 
 3607      5F545950 
 3607      455F5F20 
 3607      73686F72 
 3608 039b 01       		.byte	0x1
 3609 039c 00       		.uleb128 0
 3610 039d 5F5F4348 		.ascii "__CHAR32_TYPE__ unsigned int\0"
 3610      41523332 
 3610      5F545950 
 3610      455F5F20 
 3610      756E7369 
 3611 03ba 01       		.byte	0x1
 3612 03bb 00       		.uleb128 0
 3613 03bc 5F5F5349 		.ascii "__SIG_ATOMIC_TYPE__ int\0"
 3613      475F4154 
GAS LISTING C:\Users\PRESID~1\AppData\Local\Temp\ccM0pvSr.s 			page 94


 3613      4F4D4943 
 3613      5F545950 
 3613      455F5F20 
 3614 03d4 01       		.byte	0x1
 3615 03d5 00       		.uleb128 0
 3616 03d6 5F5F494E 		.ascii "__INT8_TYPE__ signed char\0"
 3616      54385F54 
 3616      5950455F 
 3616      5F207369 
 3616      676E6564 
 3617 03f0 01       		.byte	0x1
 3618 03f1 00       		.uleb128 0
 3619 03f2 5F5F494E 		.ascii "__INT16_TYPE__ short int\0"
 3619      5431365F 
 3619      54595045 
 3619      5F5F2073 
 3619      686F7274 
 3620 040b 01       		.byte	0x1
 3621 040c 00       		.uleb128 0
 3622 040d 5F5F494E 		.ascii "__INT32_TYPE__ int\0"
 3622      5433325F 
 3622      54595045 
 3622      5F5F2069 
 3622      6E7400
 3623 0420 01       		.byte	0x1
 3624 0421 00       		.uleb128 0
 3625 0422 5F5F494E 		.ascii "__INT64_TYPE__ long long int\0"
 3625      5436345F 
 3625      54595045 
 3625      5F5F206C 
 3625      6F6E6720 
 3626 043f 01       		.byte	0x1
 3627 0440 00       		.uleb128 0
 3628 0441 5F5F5549 		.ascii "__UINT8_TYPE__ unsigned char\0"
 3628      4E54385F 
 3628      54595045 
 3628      5F5F2075 
 3628      6E736967 
 3629 045e 01       		.byte	0x1
 3630 045f 00       		.uleb128 0
 3631 0460 5F5F5549 		.ascii "__UINT16_TYPE__ short unsigned int\0"
 3631      4E543136 
 3631      5F545950 
 3631      455F5F20 
 3631      73686F72 
 3632 0483 01       		.byte	0x1
 3633 0484 00       		.uleb128 0
 3634 0485 5F5F5549 		.ascii "__UINT32_TYPE__ unsigned int\0"
 3634      4E543332 
 3634      5F545950 
 3634      455F5F20 
 3634      756E7369 
 3635 04a2 01       		.byte	0x1
 3636 04a3 00       		.uleb128 0
 3637 04a4 5F5F5549 		.ascii "__UINT64_TYPE__ long long unsigned int\0"
 3637      4E543634 
 3637      5F545950 
GAS LISTING C:\Users\PRESID~1\AppData\Local\Temp\ccM0pvSr.s 			page 95


 3637      455F5F20 
 3637      6C6F6E67 
 3638 04cb 01       		.byte	0x1
 3639 04cc 00       		.uleb128 0
 3640 04cd 5F5F494E 		.ascii "__INT_LEAST8_TYPE__ signed char\0"
 3640      545F4C45 
 3640      41535438 
 3640      5F545950 
 3640      455F5F20 
 3641 04ed 01       		.byte	0x1
 3642 04ee 00       		.uleb128 0
 3643 04ef 5F5F494E 		.ascii "__INT_LEAST16_TYPE__ short int\0"
 3643      545F4C45 
 3643      41535431 
 3643      365F5459 
 3643      50455F5F 
 3644 050e 01       		.byte	0x1
 3645 050f 00       		.uleb128 0
 3646 0510 5F5F494E 		.ascii "__INT_LEAST32_TYPE__ int\0"
 3646      545F4C45 
 3646      41535433 
 3646      325F5459 
 3646      50455F5F 
 3647 0529 01       		.byte	0x1
 3648 052a 00       		.uleb128 0
 3649 052b 5F5F494E 		.ascii "__INT_LEAST64_TYPE__ long long int\0"
 3649      545F4C45 
 3649      41535436 
 3649      345F5459 
 3649      50455F5F 
 3650 054e 01       		.byte	0x1
 3651 054f 00       		.uleb128 0
 3652 0550 5F5F5549 		.ascii "__UINT_LEAST8_TYPE__ unsigned char\0"
 3652      4E545F4C 
 3652      45415354 
 3652      385F5459 
 3652      50455F5F 
 3653 0573 01       		.byte	0x1
 3654 0574 00       		.uleb128 0
 3655 0575 5F5F5549 		.ascii "__UINT_LEAST16_TYPE__ short unsigned int\0"
 3655      4E545F4C 
 3655      45415354 
 3655      31365F54 
 3655      5950455F 
 3656 059e 01       		.byte	0x1
 3657 059f 00       		.uleb128 0
 3658 05a0 5F5F5549 		.ascii "__UINT_LEAST32_TYPE__ unsigned int\0"
 3658      4E545F4C 
 3658      45415354 
 3658      33325F54 
 3658      5950455F 
 3659 05c3 01       		.byte	0x1
 3660 05c4 00       		.uleb128 0
 3661 05c5 5F5F5549 		.ascii "__UINT_LEAST64_TYPE__ long long unsigned int\0"
 3661      4E545F4C 
 3661      45415354 
 3661      36345F54 
GAS LISTING C:\Users\PRESID~1\AppData\Local\Temp\ccM0pvSr.s 			page 96


 3661      5950455F 
 3662 05f2 01       		.byte	0x1
 3663 05f3 00       		.uleb128 0
 3664 05f4 5F5F494E 		.ascii "__INT_FAST8_TYPE__ signed char\0"
 3664      545F4641 
 3664      5354385F 
 3664      54595045 
 3664      5F5F2073 
 3665 0613 01       		.byte	0x1
 3666 0614 00       		.uleb128 0
 3667 0615 5F5F494E 		.ascii "__INT_FAST16_TYPE__ short int\0"
 3667      545F4641 
 3667      53543136 
 3667      5F545950 
 3667      455F5F20 
 3668 0633 01       		.byte	0x1
 3669 0634 00       		.uleb128 0
 3670 0635 5F5F494E 		.ascii "__INT_FAST32_TYPE__ int\0"
 3670      545F4641 
 3670      53543332 
 3670      5F545950 
 3670      455F5F20 
 3671 064d 01       		.byte	0x1
 3672 064e 00       		.uleb128 0
 3673 064f 5F5F494E 		.ascii "__INT_FAST64_TYPE__ long long int\0"
 3673      545F4641 
 3673      53543634 
 3673      5F545950 
 3673      455F5F20 
 3674 0671 01       		.byte	0x1
 3675 0672 00       		.uleb128 0
 3676 0673 5F5F5549 		.ascii "__UINT_FAST8_TYPE__ unsigned char\0"
 3676      4E545F46 
 3676      41535438 
 3676      5F545950 
 3676      455F5F20 
 3677 0695 01       		.byte	0x1
 3678 0696 00       		.uleb128 0
 3679 0697 5F5F5549 		.ascii "__UINT_FAST16_TYPE__ short unsigned int\0"
 3679      4E545F46 
 3679      41535431 
 3679      365F5459 
 3679      50455F5F 
 3680 06bf 01       		.byte	0x1
 3681 06c0 00       		.uleb128 0
 3682 06c1 5F5F5549 		.ascii "__UINT_FAST32_TYPE__ unsigned int\0"
 3682      4E545F46 
 3682      41535433 
 3682      325F5459 
 3682      50455F5F 
 3683 06e3 01       		.byte	0x1
 3684 06e4 00       		.uleb128 0
 3685 06e5 5F5F5549 		.ascii "__UINT_FAST64_TYPE__ long long unsigned int\0"
 3685      4E545F46 
 3685      41535436 
 3685      345F5459 
 3685      50455F5F 
GAS LISTING C:\Users\PRESID~1\AppData\Local\Temp\ccM0pvSr.s 			page 97


 3686 0711 01       		.byte	0x1
 3687 0712 00       		.uleb128 0
 3688 0713 5F5F494E 		.ascii "__INTPTR_TYPE__ int\0"
 3688      54505452 
 3688      5F545950 
 3688      455F5F20 
 3688      696E7400 
 3689 0727 01       		.byte	0x1
 3690 0728 00       		.uleb128 0
 3691 0729 5F5F5549 		.ascii "__UINTPTR_TYPE__ unsigned int\0"
 3691      4E545054 
 3691      525F5459 
 3691      50455F5F 
 3691      20756E73 
 3692 0747 01       		.byte	0x1
 3693 0748 00       		.uleb128 0
 3694 0749 5F5F6861 		.ascii "__has_include(STR) __has_include__(STR)\0"
 3694      735F696E 
 3694      636C7564 
 3694      65285354 
 3694      5229205F 
 3695 0771 01       		.byte	0x1
 3696 0772 00       		.uleb128 0
 3697 0773 5F5F6861 		.ascii "__has_include_next(STR) __has_include_next__(STR)\0"
 3697      735F696E 
 3697      636C7564 
 3697      655F6E65 
 3697      78742853 
 3698 07a5 01       		.byte	0x1
 3699 07a6 00       		.uleb128 0
 3700 07a7 5F5F4758 		.ascii "__GXX_ABI_VERSION 1013\0"
 3700      585F4142 
 3700      495F5645 
 3700      5253494F 
 3700      4E203130 
 3701 07be 01       		.byte	0x1
 3702 07bf 00       		.uleb128 0
 3703 07c0 5F5F5343 		.ascii "__SCHAR_MAX__ 0x7f\0"
 3703      4841525F 
 3703      4D41585F 
 3703      5F203078 
 3703      376600
 3704 07d3 01       		.byte	0x1
 3705 07d4 00       		.uleb128 0
 3706 07d5 5F5F5348 		.ascii "__SHRT_MAX__ 0x7fff\0"
 3706      52545F4D 
 3706      41585F5F 
 3706      20307837 
 3706      66666600 
 3707 07e9 01       		.byte	0x1
 3708 07ea 00       		.uleb128 0
 3709 07eb 5F5F494E 		.ascii "__INT_MAX__ 0x7fffffff\0"
 3709      545F4D41 
 3709      585F5F20 
 3709      30783766 
 3709      66666666 
 3710 0802 01       		.byte	0x1
GAS LISTING C:\Users\PRESID~1\AppData\Local\Temp\ccM0pvSr.s 			page 98


 3711 0803 00       		.uleb128 0
 3712 0804 5F5F4C4F 		.ascii "__LONG_MAX__ 0x7fffffffL\0"
 3712      4E475F4D 
 3712      41585F5F 
 3712      20307837 
 3712      66666666 
 3713 081d 01       		.byte	0x1
 3714 081e 00       		.uleb128 0
 3715 081f 5F5F4C4F 		.ascii "__LONG_LONG_MAX__ 0x7fffffffffffffffLL\0"
 3715      4E475F4C 
 3715      4F4E475F 
 3715      4D41585F 
 3715      5F203078 
 3716 0846 01       		.byte	0x1
 3717 0847 00       		.uleb128 0
 3718 0848 5F5F5743 		.ascii "__WCHAR_MAX__ 0xffff\0"
 3718      4841525F 
 3718      4D41585F 
 3718      5F203078 
 3718      66666666 
 3719 085d 01       		.byte	0x1
 3720 085e 00       		.uleb128 0
 3721 085f 5F5F5743 		.ascii "__WCHAR_MIN__ 0\0"
 3721      4841525F 
 3721      4D494E5F 
 3721      5F203000 
 3722 086f 01       		.byte	0x1
 3723 0870 00       		.uleb128 0
 3724 0871 5F5F5749 		.ascii "__WINT_MAX__ 0xffff\0"
 3724      4E545F4D 
 3724      41585F5F 
 3724      20307866 
 3724      66666600 
 3725 0885 01       		.byte	0x1
 3726 0886 00       		.uleb128 0
 3727 0887 5F5F5749 		.ascii "__WINT_MIN__ 0\0"
 3727      4E545F4D 
 3727      494E5F5F 
 3727      203000
 3728 0896 01       		.byte	0x1
 3729 0897 00       		.uleb128 0
 3730 0898 5F5F5054 		.ascii "__PTRDIFF_MAX__ 0x7fffffff\0"
 3730      52444946 
 3730      465F4D41 
 3730      585F5F20 
 3730      30783766 
 3731 08b3 01       		.byte	0x1
 3732 08b4 00       		.uleb128 0
 3733 08b5 5F5F5349 		.ascii "__SIZE_MAX__ 0xffffffffU\0"
 3733      5A455F4D 
 3733      41585F5F 
 3733      20307866 
 3733      66666666 
 3734 08ce 01       		.byte	0x1
 3735 08cf 00       		.uleb128 0
 3736 08d0 5F5F5343 		.ascii "__SCHAR_WIDTH__ 8\0"
 3736      4841525F 
GAS LISTING C:\Users\PRESID~1\AppData\Local\Temp\ccM0pvSr.s 			page 99


 3736      57494454 
 3736      485F5F20 
 3736      3800
 3737 08e2 01       		.byte	0x1
 3738 08e3 00       		.uleb128 0
 3739 08e4 5F5F5348 		.ascii "__SHRT_WIDTH__ 16\0"
 3739      52545F57 
 3739      49445448 
 3739      5F5F2031 
 3739      3600
 3740 08f6 01       		.byte	0x1
 3741 08f7 00       		.uleb128 0
 3742 08f8 5F5F494E 		.ascii "__INT_WIDTH__ 32\0"
 3742      545F5749 
 3742      4454485F 
 3742      5F203332 
 3742      00
 3743 0909 01       		.byte	0x1
 3744 090a 00       		.uleb128 0
 3745 090b 5F5F4C4F 		.ascii "__LONG_WIDTH__ 32\0"
 3745      4E475F57 
 3745      49445448 
 3745      5F5F2033 
 3745      3200
 3746 091d 01       		.byte	0x1
 3747 091e 00       		.uleb128 0
 3748 091f 5F5F4C4F 		.ascii "__LONG_LONG_WIDTH__ 64\0"
 3748      4E475F4C 
 3748      4F4E475F 
 3748      57494454 
 3748      485F5F20 
 3749 0936 01       		.byte	0x1
 3750 0937 00       		.uleb128 0
 3751 0938 5F5F5743 		.ascii "__WCHAR_WIDTH__ 16\0"
 3751      4841525F 
 3751      57494454 
 3751      485F5F20 
 3751      313600
 3752 094b 01       		.byte	0x1
 3753 094c 00       		.uleb128 0
 3754 094d 5F5F5749 		.ascii "__WINT_WIDTH__ 16\0"
 3754      4E545F57 
 3754      49445448 
 3754      5F5F2031 
 3754      3600
 3755 095f 01       		.byte	0x1
 3756 0960 00       		.uleb128 0
 3757 0961 5F5F5054 		.ascii "__PTRDIFF_WIDTH__ 32\0"
 3757      52444946 
 3757      465F5749 
 3757      4454485F 
 3757      5F203332 
 3758 0976 01       		.byte	0x1
 3759 0977 00       		.uleb128 0
 3760 0978 5F5F5349 		.ascii "__SIZE_WIDTH__ 32\0"
 3760      5A455F57 
 3760      49445448 
GAS LISTING C:\Users\PRESID~1\AppData\Local\Temp\ccM0pvSr.s 			page 100


 3760      5F5F2033 
 3760      3200
 3761 098a 01       		.byte	0x1
 3762 098b 00       		.uleb128 0
 3763 098c 5F5F494E 		.ascii "__INTMAX_MAX__ 0x7fffffffffffffffLL\0"
 3763      544D4158 
 3763      5F4D4158 
 3763      5F5F2030 
 3763      78376666 
 3764 09b0 01       		.byte	0x1
 3765 09b1 00       		.uleb128 0
 3766 09b2 5F5F494E 		.ascii "__INTMAX_C(c) c ## LL\0"
 3766      544D4158 
 3766      5F432863 
 3766      29206320 
 3766      2323204C 
 3767 09c8 01       		.byte	0x1
 3768 09c9 00       		.uleb128 0
 3769 09ca 5F5F5549 		.ascii "__UINTMAX_MAX__ 0xffffffffffffffffULL\0"
 3769      4E544D41 
 3769      585F4D41 
 3769      585F5F20 
 3769      30786666 
 3770 09f0 01       		.byte	0x1
 3771 09f1 00       		.uleb128 0
 3772 09f2 5F5F5549 		.ascii "__UINTMAX_C(c) c ## ULL\0"
 3772      4E544D41 
 3772      585F4328 
 3772      63292063 
 3772      20232320 
 3773 0a0a 01       		.byte	0x1
 3774 0a0b 00       		.uleb128 0
 3775 0a0c 5F5F494E 		.ascii "__INTMAX_WIDTH__ 64\0"
 3775      544D4158 
 3775      5F574944 
 3775      54485F5F 
 3775      20363400 
 3776 0a20 01       		.byte	0x1
 3777 0a21 00       		.uleb128 0
 3778 0a22 5F5F5349 		.ascii "__SIG_ATOMIC_MAX__ 0x7fffffff\0"
 3778      475F4154 
 3778      4F4D4943 
 3778      5F4D4158 
 3778      5F5F2030 
 3779 0a40 01       		.byte	0x1
 3780 0a41 00       		.uleb128 0
 3781 0a42 5F5F5349 		.ascii "__SIG_ATOMIC_MIN__ (-__SIG_ATOMIC_MAX__ - 1)\0"
 3781      475F4154 
 3781      4F4D4943 
 3781      5F4D494E 
 3781      5F5F2028 
 3782 0a6f 01       		.byte	0x1
 3783 0a70 00       		.uleb128 0
 3784 0a71 5F5F5349 		.ascii "__SIG_ATOMIC_WIDTH__ 32\0"
 3784      475F4154 
 3784      4F4D4943 
 3784      5F574944 
GAS LISTING C:\Users\PRESID~1\AppData\Local\Temp\ccM0pvSr.s 			page 101


 3784      54485F5F 
 3785 0a89 01       		.byte	0x1
 3786 0a8a 00       		.uleb128 0
 3787 0a8b 5F5F494E 		.ascii "__INT8_MAX__ 0x7f\0"
 3787      54385F4D 
 3787      41585F5F 
 3787      20307837 
 3787      6600
 3788 0a9d 01       		.byte	0x1
 3789 0a9e 00       		.uleb128 0
 3790 0a9f 5F5F494E 		.ascii "__INT16_MAX__ 0x7fff\0"
 3790      5431365F 
 3790      4D41585F 
 3790      5F203078 
 3790      37666666 
 3791 0ab4 01       		.byte	0x1
 3792 0ab5 00       		.uleb128 0
 3793 0ab6 5F5F494E 		.ascii "__INT32_MAX__ 0x7fffffff\0"
 3793      5433325F 
 3793      4D41585F 
 3793      5F203078 
 3793      37666666 
 3794 0acf 01       		.byte	0x1
 3795 0ad0 00       		.uleb128 0
 3796 0ad1 5F5F494E 		.ascii "__INT64_MAX__ 0x7fffffffffffffffLL\0"
 3796      5436345F 
 3796      4D41585F 
 3796      5F203078 
 3796      37666666 
 3797 0af4 01       		.byte	0x1
 3798 0af5 00       		.uleb128 0
 3799 0af6 5F5F5549 		.ascii "__UINT8_MAX__ 0xff\0"
 3799      4E54385F 
 3799      4D41585F 
 3799      5F203078 
 3799      666600
 3800 0b09 01       		.byte	0x1
 3801 0b0a 00       		.uleb128 0
 3802 0b0b 5F5F5549 		.ascii "__UINT16_MAX__ 0xffff\0"
 3802      4E543136 
 3802      5F4D4158 
 3802      5F5F2030 
 3802      78666666 
 3803 0b21 01       		.byte	0x1
 3804 0b22 00       		.uleb128 0
 3805 0b23 5F5F5549 		.ascii "__UINT32_MAX__ 0xffffffffU\0"
 3805      4E543332 
 3805      5F4D4158 
 3805      5F5F2030 
 3805      78666666 
 3806 0b3e 01       		.byte	0x1
 3807 0b3f 00       		.uleb128 0
 3808 0b40 5F5F5549 		.ascii "__UINT64_MAX__ 0xffffffffffffffffULL\0"
 3808      4E543634 
 3808      5F4D4158 
 3808      5F5F2030 
 3808      78666666 
GAS LISTING C:\Users\PRESID~1\AppData\Local\Temp\ccM0pvSr.s 			page 102


 3809 0b65 01       		.byte	0x1
 3810 0b66 00       		.uleb128 0
 3811 0b67 5F5F494E 		.ascii "__INT_LEAST8_MAX__ 0x7f\0"
 3811      545F4C45 
 3811      41535438 
 3811      5F4D4158 
 3811      5F5F2030 
 3812 0b7f 01       		.byte	0x1
 3813 0b80 00       		.uleb128 0
 3814 0b81 5F5F494E 		.ascii "__INT8_C(c) c\0"
 3814      54385F43 
 3814      28632920 
 3814      6300
 3815 0b8f 01       		.byte	0x1
 3816 0b90 00       		.uleb128 0
 3817 0b91 5F5F494E 		.ascii "__INT_LEAST8_WIDTH__ 8\0"
 3817      545F4C45 
 3817      41535438 
 3817      5F574944 
 3817      54485F5F 
 3818 0ba8 01       		.byte	0x1
 3819 0ba9 00       		.uleb128 0
 3820 0baa 5F5F494E 		.ascii "__INT_LEAST16_MAX__ 0x7fff\0"
 3820      545F4C45 
 3820      41535431 
 3820      365F4D41 
 3820      585F5F20 
 3821 0bc5 01       		.byte	0x1
 3822 0bc6 00       		.uleb128 0
 3823 0bc7 5F5F494E 		.ascii "__INT16_C(c) c\0"
 3823      5431365F 
 3823      43286329 
 3823      206300
 3824 0bd6 01       		.byte	0x1
 3825 0bd7 00       		.uleb128 0
 3826 0bd8 5F5F494E 		.ascii "__INT_LEAST16_WIDTH__ 16\0"
 3826      545F4C45 
 3826      41535431 
 3826      365F5749 
 3826      4454485F 
 3827 0bf1 01       		.byte	0x1
 3828 0bf2 00       		.uleb128 0
 3829 0bf3 5F5F494E 		.ascii "__INT_LEAST32_MAX__ 0x7fffffff\0"
 3829      545F4C45 
 3829      41535433 
 3829      325F4D41 
 3829      585F5F20 
 3830 0c12 01       		.byte	0x1
 3831 0c13 00       		.uleb128 0
 3832 0c14 5F5F494E 		.ascii "__INT32_C(c) c\0"
 3832      5433325F 
 3832      43286329 
 3832      206300
 3833 0c23 01       		.byte	0x1
 3834 0c24 00       		.uleb128 0
 3835 0c25 5F5F494E 		.ascii "__INT_LEAST32_WIDTH__ 32\0"
 3835      545F4C45 
GAS LISTING C:\Users\PRESID~1\AppData\Local\Temp\ccM0pvSr.s 			page 103


 3835      41535433 
 3835      325F5749 
 3835      4454485F 
 3836 0c3e 01       		.byte	0x1
 3837 0c3f 00       		.uleb128 0
 3838 0c40 5F5F494E 		.ascii "__INT_LEAST64_MAX__ 0x7fffffffffffffffLL\0"
 3838      545F4C45 
 3838      41535436 
 3838      345F4D41 
 3838      585F5F20 
 3839 0c69 01       		.byte	0x1
 3840 0c6a 00       		.uleb128 0
 3841 0c6b 5F5F494E 		.ascii "__INT64_C(c) c ## LL\0"
 3841      5436345F 
 3841      43286329 
 3841      20632023 
 3841      23204C4C 
 3842 0c80 01       		.byte	0x1
 3843 0c81 00       		.uleb128 0
 3844 0c82 5F5F494E 		.ascii "__INT_LEAST64_WIDTH__ 64\0"
 3844      545F4C45 
 3844      41535436 
 3844      345F5749 
 3844      4454485F 
 3845 0c9b 01       		.byte	0x1
 3846 0c9c 00       		.uleb128 0
 3847 0c9d 5F5F5549 		.ascii "__UINT_LEAST8_MAX__ 0xff\0"
 3847      4E545F4C 
 3847      45415354 
 3847      385F4D41 
 3847      585F5F20 
 3848 0cb6 01       		.byte	0x1
 3849 0cb7 00       		.uleb128 0
 3850 0cb8 5F5F5549 		.ascii "__UINT8_C(c) c\0"
 3850      4E54385F 
 3850      43286329 
 3850      206300
 3851 0cc7 01       		.byte	0x1
 3852 0cc8 00       		.uleb128 0
 3853 0cc9 5F5F5549 		.ascii "__UINT_LEAST16_MAX__ 0xffff\0"
 3853      4E545F4C 
 3853      45415354 
 3853      31365F4D 
 3853      41585F5F 
 3854 0ce5 01       		.byte	0x1
 3855 0ce6 00       		.uleb128 0
 3856 0ce7 5F5F5549 		.ascii "__UINT16_C(c) c\0"
 3856      4E543136 
 3856      5F432863 
 3856      29206300 
 3857 0cf7 01       		.byte	0x1
 3858 0cf8 00       		.uleb128 0
 3859 0cf9 5F5F5549 		.ascii "__UINT_LEAST32_MAX__ 0xffffffffU\0"
 3859      4E545F4C 
 3859      45415354 
 3859      33325F4D 
 3859      41585F5F 
GAS LISTING C:\Users\PRESID~1\AppData\Local\Temp\ccM0pvSr.s 			page 104


 3860 0d1a 01       		.byte	0x1
 3861 0d1b 00       		.uleb128 0
 3862 0d1c 5F5F5549 		.ascii "__UINT32_C(c) c ## U\0"
 3862      4E543332 
 3862      5F432863 
 3862      29206320 
 3862      23232055 
 3863 0d31 01       		.byte	0x1
 3864 0d32 00       		.uleb128 0
 3865 0d33 5F5F5549 		.ascii "__UINT_LEAST64_MAX__ 0xffffffffffffffffULL\0"
 3865      4E545F4C 
 3865      45415354 
 3865      36345F4D 
 3865      41585F5F 
 3866 0d5e 01       		.byte	0x1
 3867 0d5f 00       		.uleb128 0
 3868 0d60 5F5F5549 		.ascii "__UINT64_C(c) c ## ULL\0"
 3868      4E543634 
 3868      5F432863 
 3868      29206320 
 3868      23232055 
 3869 0d77 01       		.byte	0x1
 3870 0d78 00       		.uleb128 0
 3871 0d79 5F5F494E 		.ascii "__INT_FAST8_MAX__ 0x7f\0"
 3871      545F4641 
 3871      5354385F 
 3871      4D41585F 
 3871      5F203078 
 3872 0d90 01       		.byte	0x1
 3873 0d91 00       		.uleb128 0
 3874 0d92 5F5F494E 		.ascii "__INT_FAST8_WIDTH__ 8\0"
 3874      545F4641 
 3874      5354385F 
 3874      57494454 
 3874      485F5F20 
 3875 0da8 01       		.byte	0x1
 3876 0da9 00       		.uleb128 0
 3877 0daa 5F5F494E 		.ascii "__INT_FAST16_MAX__ 0x7fff\0"
 3877      545F4641 
 3877      53543136 
 3877      5F4D4158 
 3877      5F5F2030 
 3878 0dc4 01       		.byte	0x1
 3879 0dc5 00       		.uleb128 0
 3880 0dc6 5F5F494E 		.ascii "__INT_FAST16_WIDTH__ 16\0"
 3880      545F4641 
 3880      53543136 
 3880      5F574944 
 3880      54485F5F 
 3881 0dde 01       		.byte	0x1
 3882 0ddf 00       		.uleb128 0
 3883 0de0 5F5F494E 		.ascii "__INT_FAST32_MAX__ 0x7fffffff\0"
 3883      545F4641 
 3883      53543332 
 3883      5F4D4158 
 3883      5F5F2030 
 3884 0dfe 01       		.byte	0x1
GAS LISTING C:\Users\PRESID~1\AppData\Local\Temp\ccM0pvSr.s 			page 105


 3885 0dff 00       		.uleb128 0
 3886 0e00 5F5F494E 		.ascii "__INT_FAST32_WIDTH__ 32\0"
 3886      545F4641 
 3886      53543332 
 3886      5F574944 
 3886      54485F5F 
 3887 0e18 01       		.byte	0x1
 3888 0e19 00       		.uleb128 0
 3889 0e1a 5F5F494E 		.ascii "__INT_FAST64_MAX__ 0x7fffffffffffffffLL\0"
 3889      545F4641 
 3889      53543634 
 3889      5F4D4158 
 3889      5F5F2030 
 3890 0e42 01       		.byte	0x1
 3891 0e43 00       		.uleb128 0
 3892 0e44 5F5F494E 		.ascii "__INT_FAST64_WIDTH__ 64\0"
 3892      545F4641 
 3892      53543634 
 3892      5F574944 
 3892      54485F5F 
 3893 0e5c 01       		.byte	0x1
 3894 0e5d 00       		.uleb128 0
 3895 0e5e 5F5F5549 		.ascii "__UINT_FAST8_MAX__ 0xff\0"
 3895      4E545F46 
 3895      41535438 
 3895      5F4D4158 
 3895      5F5F2030 
 3896 0e76 01       		.byte	0x1
 3897 0e77 00       		.uleb128 0
 3898 0e78 5F5F5549 		.ascii "__UINT_FAST16_MAX__ 0xffff\0"
 3898      4E545F46 
 3898      41535431 
 3898      365F4D41 
 3898      585F5F20 
 3899 0e93 01       		.byte	0x1
 3900 0e94 00       		.uleb128 0
 3901 0e95 5F5F5549 		.ascii "__UINT_FAST32_MAX__ 0xffffffffU\0"
 3901      4E545F46 
 3901      41535433 
 3901      325F4D41 
 3901      585F5F20 
 3902 0eb5 01       		.byte	0x1
 3903 0eb6 00       		.uleb128 0
 3904 0eb7 5F5F5549 		.ascii "__UINT_FAST64_MAX__ 0xffffffffffffffffULL\0"
 3904      4E545F46 
 3904      41535436 
 3904      345F4D41 
 3904      585F5F20 
 3905 0ee1 01       		.byte	0x1
 3906 0ee2 00       		.uleb128 0
 3907 0ee3 5F5F494E 		.ascii "__INTPTR_MAX__ 0x7fffffff\0"
 3907      54505452 
 3907      5F4D4158 
 3907      5F5F2030 
 3907      78376666 
 3908 0efd 01       		.byte	0x1
 3909 0efe 00       		.uleb128 0
GAS LISTING C:\Users\PRESID~1\AppData\Local\Temp\ccM0pvSr.s 			page 106


 3910 0eff 5F5F494E 		.ascii "__INTPTR_WIDTH__ 32\0"
 3910      54505452 
 3910      5F574944 
 3910      54485F5F 
 3910      20333200 
 3911 0f13 01       		.byte	0x1
 3912 0f14 00       		.uleb128 0
 3913 0f15 5F5F5549 		.ascii "__UINTPTR_MAX__ 0xffffffffU\0"
 3913      4E545054 
 3913      525F4D41 
 3913      585F5F20 
 3913      30786666 
 3914 0f31 01       		.byte	0x1
 3915 0f32 00       		.uleb128 0
 3916 0f33 5F5F4743 		.ascii "__GCC_IEC_559 2\0"
 3916      435F4945 
 3916      435F3535 
 3916      39203200 
 3917 0f43 01       		.byte	0x1
 3918 0f44 00       		.uleb128 0
 3919 0f45 5F5F4743 		.ascii "__GCC_IEC_559_COMPLEX 2\0"
 3919      435F4945 
 3919      435F3535 
 3919      395F434F 
 3919      4D504C45 
 3920 0f5d 01       		.byte	0x1
 3921 0f5e 00       		.uleb128 0
 3922 0f5f 5F5F464C 		.ascii "__FLT_EVAL_METHOD__ 2\0"
 3922      545F4556 
 3922      414C5F4D 
 3922      4554484F 
 3922      445F5F20 
 3923 0f75 01       		.byte	0x1
 3924 0f76 00       		.uleb128 0
 3925 0f77 5F5F464C 		.ascii "__FLT_EVAL_METHOD_TS_18661_3__ 2\0"
 3925      545F4556 
 3925      414C5F4D 
 3925      4554484F 
 3925      445F5453 
 3926 0f98 01       		.byte	0x1
 3927 0f99 00       		.uleb128 0
 3928 0f9a 5F5F4445 		.ascii "__DEC_EVAL_METHOD__ 2\0"
 3928      435F4556 
 3928      414C5F4D 
 3928      4554484F 
 3928      445F5F20 
 3929 0fb0 01       		.byte	0x1
 3930 0fb1 00       		.uleb128 0
 3931 0fb2 5F5F464C 		.ascii "__FLT_RADIX__ 2\0"
 3931      545F5241 
 3931      4449585F 
 3931      5F203200 
 3932 0fc2 01       		.byte	0x1
 3933 0fc3 00       		.uleb128 0
 3934 0fc4 5F5F464C 		.ascii "__FLT_MANT_DIG__ 24\0"
 3934      545F4D41 
 3934      4E545F44 
GAS LISTING C:\Users\PRESID~1\AppData\Local\Temp\ccM0pvSr.s 			page 107


 3934      49475F5F 
 3934      20323400 
 3935 0fd8 01       		.byte	0x1
 3936 0fd9 00       		.uleb128 0
 3937 0fda 5F5F464C 		.ascii "__FLT_DIG__ 6\0"
 3937      545F4449 
 3937      475F5F20 
 3937      3600
 3938 0fe8 01       		.byte	0x1
 3939 0fe9 00       		.uleb128 0
 3940 0fea 5F5F464C 		.ascii "__FLT_MIN_EXP__ (-125)\0"
 3940      545F4D49 
 3940      4E5F4558 
 3940      505F5F20 
 3940      282D3132 
 3941 1001 01       		.byte	0x1
 3942 1002 00       		.uleb128 0
 3943 1003 5F5F464C 		.ascii "__FLT_MIN_10_EXP__ (-37)\0"
 3943      545F4D49 
 3943      4E5F3130 
 3943      5F455850 
 3943      5F5F2028 
 3944 101c 01       		.byte	0x1
 3945 101d 00       		.uleb128 0
 3946 101e 5F5F464C 		.ascii "__FLT_MAX_EXP__ 128\0"
 3946      545F4D41 
 3946      585F4558 
 3946      505F5F20 
 3946      31323800 
 3947 1032 01       		.byte	0x1
 3948 1033 00       		.uleb128 0
 3949 1034 5F5F464C 		.ascii "__FLT_MAX_10_EXP__ 38\0"
 3949      545F4D41 
 3949      585F3130 
 3949      5F455850 
 3949      5F5F2033 
 3950 104a 01       		.byte	0x1
 3951 104b 00       		.uleb128 0
 3952 104c 5F5F464C 		.ascii "__FLT_DECIMAL_DIG__ 9\0"
 3952      545F4445 
 3952      43494D41 
 3952      4C5F4449 
 3952      475F5F20 
 3953 1062 01       		.byte	0x1
 3954 1063 00       		.uleb128 0
 3955 1064 5F5F464C 		.ascii "__FLT_MAX__ 3.40282346638528859811704183484516925e+38F\0"
 3955      545F4D41 
 3955      585F5F20 
 3955      332E3430 
 3955      32383233 
 3956 109b 01       		.byte	0x1
 3957 109c 00       		.uleb128 0
 3958 109d 5F5F464C 		.ascii "__FLT_MIN__ 1.17549435082228750796873653722224568e-38F\0"
 3958      545F4D49 
 3958      4E5F5F20 
 3958      312E3137 
 3958      35343934 
GAS LISTING C:\Users\PRESID~1\AppData\Local\Temp\ccM0pvSr.s 			page 108


 3959 10d4 01       		.byte	0x1
 3960 10d5 00       		.uleb128 0
 3961 10d6 5F5F464C 		.ascii "__FLT_EPSILON__ 1.19209289550781250000000000000000000e-7F\0"
 3961      545F4550 
 3961      53494C4F 
 3961      4E5F5F20 
 3961      312E3139 
 3962 1110 01       		.byte	0x1
 3963 1111 00       		.uleb128 0
 3964 1112 5F5F464C 		.ascii "__FLT_DENORM_MIN__ 1.40129846432481707092372958328991613e-45F\0"
 3964      545F4445 
 3964      4E4F524D 
 3964      5F4D494E 
 3964      5F5F2031 
 3965 1150 01       		.byte	0x1
 3966 1151 00       		.uleb128 0
 3967 1152 5F5F464C 		.ascii "__FLT_HAS_DENORM__ 1\0"
 3967      545F4841 
 3967      535F4445 
 3967      4E4F524D 
 3967      5F5F2031 
 3968 1167 01       		.byte	0x1
 3969 1168 00       		.uleb128 0
 3970 1169 5F5F464C 		.ascii "__FLT_HAS_INFINITY__ 1\0"
 3970      545F4841 
 3970      535F494E 
 3970      46494E49 
 3970      54595F5F 
 3971 1180 01       		.byte	0x1
 3972 1181 00       		.uleb128 0
 3973 1182 5F5F464C 		.ascii "__FLT_HAS_QUIET_NAN__ 1\0"
 3973      545F4841 
 3973      535F5155 
 3973      4945545F 
 3973      4E414E5F 
 3974 119a 01       		.byte	0x1
 3975 119b 00       		.uleb128 0
 3976 119c 5F5F4442 		.ascii "__DBL_MANT_DIG__ 53\0"
 3976      4C5F4D41 
 3976      4E545F44 
 3976      49475F5F 
 3976      20353300 
 3977 11b0 01       		.byte	0x1
 3978 11b1 00       		.uleb128 0
 3979 11b2 5F5F4442 		.ascii "__DBL_DIG__ 15\0"
 3979      4C5F4449 
 3979      475F5F20 
 3979      313500
 3980 11c1 01       		.byte	0x1
 3981 11c2 00       		.uleb128 0
 3982 11c3 5F5F4442 		.ascii "__DBL_MIN_EXP__ (-1021)\0"
 3982      4C5F4D49 
 3982      4E5F4558 
 3982      505F5F20 
 3982      282D3130 
 3983 11db 01       		.byte	0x1
 3984 11dc 00       		.uleb128 0
GAS LISTING C:\Users\PRESID~1\AppData\Local\Temp\ccM0pvSr.s 			page 109


 3985 11dd 5F5F4442 		.ascii "__DBL_MIN_10_EXP__ (-307)\0"
 3985      4C5F4D49 
 3985      4E5F3130 
 3985      5F455850 
 3985      5F5F2028 
 3986 11f7 01       		.byte	0x1
 3987 11f8 00       		.uleb128 0
 3988 11f9 5F5F4442 		.ascii "__DBL_MAX_EXP__ 1024\0"
 3988      4C5F4D41 
 3988      585F4558 
 3988      505F5F20 
 3988      31303234 
 3989 120e 01       		.byte	0x1
 3990 120f 00       		.uleb128 0
 3991 1210 5F5F4442 		.ascii "__DBL_MAX_10_EXP__ 308\0"
 3991      4C5F4D41 
 3991      585F3130 
 3991      5F455850 
 3991      5F5F2033 
 3992 1227 01       		.byte	0x1
 3993 1228 00       		.uleb128 0
 3994 1229 5F5F4442 		.ascii "__DBL_DECIMAL_DIG__ 17\0"
 3994      4C5F4445 
 3994      43494D41 
 3994      4C5F4449 
 3994      475F5F20 
 3995 1240 01       		.byte	0x1
 3996 1241 00       		.uleb128 0
 3997 1242 5F5F4442 		.ascii "__DBL_MAX__ ((double)1.79769313486231570814527423731704357e+308L)\0"
 3997      4C5F4D41 
 3997      585F5F20 
 3997      2828646F 
 3997      75626C65 
 3998 1284 01       		.byte	0x1
 3999 1285 00       		.uleb128 0
 4000 1286 5F5F4442 		.ascii "__DBL_MIN__ ((double)2.22507385850720138309023271733240406e-308L)\0"
 4000      4C5F4D49 
 4000      4E5F5F20 
 4000      2828646F 
 4000      75626C65 
 4001 12c8 01       		.byte	0x1
 4002 12c9 00       		.uleb128 0
 4003 12ca 5F5F4442 		.ascii "__DBL_EPSILON__ ((double)2.22044604925031308084726333618164062e-16L)\0"
 4003      4C5F4550 
 4003      53494C4F 
 4003      4E5F5F20 
 4003      2828646F 
 4004 130f 01       		.byte	0x1
 4005 1310 00       		.uleb128 0
 4006 1311 5F5F4442 		.ascii "__DBL_DENORM_MIN__ ((double)4.94065645841246544176568792868221372e-324L)\0"
 4006      4C5F4445 
 4006      4E4F524D 
 4006      5F4D494E 
 4006      5F5F2028 
 4007 135a 01       		.byte	0x1
 4008 135b 00       		.uleb128 0
 4009 135c 5F5F4442 		.ascii "__DBL_HAS_DENORM__ 1\0"
GAS LISTING C:\Users\PRESID~1\AppData\Local\Temp\ccM0pvSr.s 			page 110


 4009      4C5F4841 
 4009      535F4445 
 4009      4E4F524D 
 4009      5F5F2031 
 4010 1371 01       		.byte	0x1
 4011 1372 00       		.uleb128 0
 4012 1373 5F5F4442 		.ascii "__DBL_HAS_INFINITY__ 1\0"
 4012      4C5F4841 
 4012      535F494E 
 4012      46494E49 
 4012      54595F5F 
 4013 138a 01       		.byte	0x1
 4014 138b 00       		.uleb128 0
 4015 138c 5F5F4442 		.ascii "__DBL_HAS_QUIET_NAN__ 1\0"
 4015      4C5F4841 
 4015      535F5155 
 4015      4945545F 
 4015      4E414E5F 
 4016 13a4 01       		.byte	0x1
 4017 13a5 00       		.uleb128 0
 4018 13a6 5F5F4C44 		.ascii "__LDBL_MANT_DIG__ 64\0"
 4018      424C5F4D 
 4018      414E545F 
 4018      4449475F 
 4018      5F203634 
 4019 13bb 01       		.byte	0x1
 4020 13bc 00       		.uleb128 0
 4021 13bd 5F5F4C44 		.ascii "__LDBL_DIG__ 18\0"
 4021      424C5F44 
 4021      49475F5F 
 4021      20313800 
 4022 13cd 01       		.byte	0x1
 4023 13ce 00       		.uleb128 0
 4024 13cf 5F5F4C44 		.ascii "__LDBL_MIN_EXP__ (-16381)\0"
 4024      424C5F4D 
 4024      494E5F45 
 4024      58505F5F 
 4024      20282D31 
 4025 13e9 01       		.byte	0x1
 4026 13ea 00       		.uleb128 0
 4027 13eb 5F5F4C44 		.ascii "__LDBL_MIN_10_EXP__ (-4931)\0"
 4027      424C5F4D 
 4027      494E5F31 
 4027      305F4558 
 4027      505F5F20 
 4028 1407 01       		.byte	0x1
 4029 1408 00       		.uleb128 0
 4030 1409 5F5F4C44 		.ascii "__LDBL_MAX_EXP__ 16384\0"
 4030      424C5F4D 
 4030      41585F45 
 4030      58505F5F 
 4030      20313633 
 4031 1420 01       		.byte	0x1
 4032 1421 00       		.uleb128 0
 4033 1422 5F5F4C44 		.ascii "__LDBL_MAX_10_EXP__ 4932\0"
 4033      424C5F4D 
 4033      41585F31 
GAS LISTING C:\Users\PRESID~1\AppData\Local\Temp\ccM0pvSr.s 			page 111


 4033      305F4558 
 4033      505F5F20 
 4034 143b 01       		.byte	0x1
 4035 143c 00       		.uleb128 0
 4036 143d 5F5F4445 		.ascii "__DECIMAL_DIG__ 21\0"
 4036      43494D41 
 4036      4C5F4449 
 4036      475F5F20 
 4036      323100
 4037 1450 01       		.byte	0x1
 4038 1451 00       		.uleb128 0
 4039 1452 5F5F4C44 		.ascii "__LDBL_DECIMAL_DIG__ 21\0"
 4039      424C5F44 
 4039      4543494D 
 4039      414C5F44 
 4039      49475F5F 
 4040 146a 01       		.byte	0x1
 4041 146b 00       		.uleb128 0
 4042 146c 5F5F4C44 		.ascii "__LDBL_MAX__ 1.18973149535723176502126385303097021e+4932L\0"
 4042      424C5F4D 
 4042      41585F5F 
 4042      20312E31 
 4042      38393733 
 4043 14a6 01       		.byte	0x1
 4044 14a7 00       		.uleb128 0
 4045 14a8 5F5F4C44 		.ascii "__LDBL_MIN__ 3.36210314311209350626267781732175260e-4932L\0"
 4045      424C5F4D 
 4045      494E5F5F 
 4045      20332E33 
 4045      36323130 
 4046 14e2 01       		.byte	0x1
 4047 14e3 00       		.uleb128 0
 4048 14e4 5F5F4C44 		.ascii "__LDBL_EPSILON__ 1.08420217248550443400745280086994171e-19L\0"
 4048      424C5F45 
 4048      5053494C 
 4048      4F4E5F5F 
 4048      20312E30 
 4049 1520 01       		.byte	0x1
 4050 1521 00       		.uleb128 0
 4051 1522 5F5F4C44 		.ascii "__LDBL_DENORM_MIN__ 3.64519953188247460252840593361941982e-4951L\0"
 4051      424C5F44 
 4051      454E4F52 
 4051      4D5F4D49 
 4051      4E5F5F20 
 4052 1563 01       		.byte	0x1
 4053 1564 00       		.uleb128 0
 4054 1565 5F5F4C44 		.ascii "__LDBL_HAS_DENORM__ 1\0"
 4054      424C5F48 
 4054      41535F44 
 4054      454E4F52 
 4054      4D5F5F20 
 4055 157b 01       		.byte	0x1
 4056 157c 00       		.uleb128 0
 4057 157d 5F5F4C44 		.ascii "__LDBL_HAS_INFINITY__ 1\0"
 4057      424C5F48 
 4057      41535F49 
 4057      4E46494E 
GAS LISTING C:\Users\PRESID~1\AppData\Local\Temp\ccM0pvSr.s 			page 112


 4057      4954595F 
 4058 1595 01       		.byte	0x1
 4059 1596 00       		.uleb128 0
 4060 1597 5F5F4C44 		.ascii "__LDBL_HAS_QUIET_NAN__ 1\0"
 4060      424C5F48 
 4060      41535F51 
 4060      55494554 
 4060      5F4E414E 
 4061 15b0 01       		.byte	0x1
 4062 15b1 00       		.uleb128 0
 4063 15b2 5F5F464C 		.ascii "__FLT32_MANT_DIG__ 24\0"
 4063      5433325F 
 4063      4D414E54 
 4063      5F444947 
 4063      5F5F2032 
 4064 15c8 01       		.byte	0x1
 4065 15c9 00       		.uleb128 0
 4066 15ca 5F5F464C 		.ascii "__FLT32_DIG__ 6\0"
 4066      5433325F 
 4066      4449475F 
 4066      5F203600 
 4067 15da 01       		.byte	0x1
 4068 15db 00       		.uleb128 0
 4069 15dc 5F5F464C 		.ascii "__FLT32_MIN_EXP__ (-125)\0"
 4069      5433325F 
 4069      4D494E5F 
 4069      4558505F 
 4069      5F20282D 
 4070 15f5 01       		.byte	0x1
 4071 15f6 00       		.uleb128 0
 4072 15f7 5F5F464C 		.ascii "__FLT32_MIN_10_EXP__ (-37)\0"
 4072      5433325F 
 4072      4D494E5F 
 4072      31305F45 
 4072      58505F5F 
 4073 1612 01       		.byte	0x1
 4074 1613 00       		.uleb128 0
 4075 1614 5F5F464C 		.ascii "__FLT32_MAX_EXP__ 128\0"
 4075      5433325F 
 4075      4D41585F 
 4075      4558505F 
 4075      5F203132 
 4076 162a 01       		.byte	0x1
 4077 162b 00       		.uleb128 0
 4078 162c 5F5F464C 		.ascii "__FLT32_MAX_10_EXP__ 38\0"
 4078      5433325F 
 4078      4D41585F 
 4078      31305F45 
 4078      58505F5F 
 4079 1644 01       		.byte	0x1
 4080 1645 00       		.uleb128 0
 4081 1646 5F5F464C 		.ascii "__FLT32_DECIMAL_DIG__ 9\0"
 4081      5433325F 
 4081      44454349 
 4081      4D414C5F 
 4081      4449475F 
 4082 165e 01       		.byte	0x1
GAS LISTING C:\Users\PRESID~1\AppData\Local\Temp\ccM0pvSr.s 			page 113


 4083 165f 00       		.uleb128 0
 4084 1660 5F5F464C 		.ascii "__FLT32_MAX__ 3.40282346638528859811704183484516925e+38F32\0"
 4084      5433325F 
 4084      4D41585F 
 4084      5F20332E 
 4084      34303238 
 4085 169b 01       		.byte	0x1
 4086 169c 00       		.uleb128 0
 4087 169d 5F5F464C 		.ascii "__FLT32_MIN__ 1.17549435082228750796873653722224568e-38F32\0"
 4087      5433325F 
 4087      4D494E5F 
 4087      5F20312E 
 4087      31373534 
 4088 16d8 01       		.byte	0x1
 4089 16d9 00       		.uleb128 0
 4090 16da 5F5F464C 		.ascii "__FLT32_EPSILON__ 1.19209289550781250000000000000000000e-7F32\0"
 4090      5433325F 
 4090      45505349 
 4090      4C4F4E5F 
 4090      5F20312E 
 4091 1718 01       		.byte	0x1
 4092 1719 00       		.uleb128 0
 4093 171a 5F5F464C 		.ascii "__FLT32_DENORM_MIN__ 1.40129846432481707092372958328991613e-45F32\0"
 4093      5433325F 
 4093      44454E4F 
 4093      524D5F4D 
 4093      494E5F5F 
 4094 175c 01       		.byte	0x1
 4095 175d 00       		.uleb128 0
 4096 175e 5F5F464C 		.ascii "__FLT32_HAS_DENORM__ 1\0"
 4096      5433325F 
 4096      4841535F 
 4096      44454E4F 
 4096      524D5F5F 
 4097 1775 01       		.byte	0x1
 4098 1776 00       		.uleb128 0
 4099 1777 5F5F464C 		.ascii "__FLT32_HAS_INFINITY__ 1\0"
 4099      5433325F 
 4099      4841535F 
 4099      494E4649 
 4099      4E495459 
 4100 1790 01       		.byte	0x1
 4101 1791 00       		.uleb128 0
 4102 1792 5F5F464C 		.ascii "__FLT32_HAS_QUIET_NAN__ 1\0"
 4102      5433325F 
 4102      4841535F 
 4102      51554945 
 4102      545F4E41 
 4103 17ac 01       		.byte	0x1
 4104 17ad 00       		.uleb128 0
 4105 17ae 5F5F464C 		.ascii "__FLT64_MANT_DIG__ 53\0"
 4105      5436345F 
 4105      4D414E54 
 4105      5F444947 
 4105      5F5F2035 
 4106 17c4 01       		.byte	0x1
 4107 17c5 00       		.uleb128 0
GAS LISTING C:\Users\PRESID~1\AppData\Local\Temp\ccM0pvSr.s 			page 114


 4108 17c6 5F5F464C 		.ascii "__FLT64_DIG__ 15\0"
 4108      5436345F 
 4108      4449475F 
 4108      5F203135 
 4108      00
 4109 17d7 01       		.byte	0x1
 4110 17d8 00       		.uleb128 0
 4111 17d9 5F5F464C 		.ascii "__FLT64_MIN_EXP__ (-1021)\0"
 4111      5436345F 
 4111      4D494E5F 
 4111      4558505F 
 4111      5F20282D 
 4112 17f3 01       		.byte	0x1
 4113 17f4 00       		.uleb128 0
 4114 17f5 5F5F464C 		.ascii "__FLT64_MIN_10_EXP__ (-307)\0"
 4114      5436345F 
 4114      4D494E5F 
 4114      31305F45 
 4114      58505F5F 
 4115 1811 01       		.byte	0x1
 4116 1812 00       		.uleb128 0
 4117 1813 5F5F464C 		.ascii "__FLT64_MAX_EXP__ 1024\0"
 4117      5436345F 
 4117      4D41585F 
 4117      4558505F 
 4117      5F203130 
 4118 182a 01       		.byte	0x1
 4119 182b 00       		.uleb128 0
 4120 182c 5F5F464C 		.ascii "__FLT64_MAX_10_EXP__ 308\0"
 4120      5436345F 
 4120      4D41585F 
 4120      31305F45 
 4120      58505F5F 
 4121 1845 01       		.byte	0x1
 4122 1846 00       		.uleb128 0
 4123 1847 5F5F464C 		.ascii "__FLT64_DECIMAL_DIG__ 17\0"
 4123      5436345F 
 4123      44454349 
 4123      4D414C5F 
 4123      4449475F 
 4124 1860 01       		.byte	0x1
 4125 1861 00       		.uleb128 0
 4126 1862 5F5F464C 		.ascii "__FLT64_MAX__ 1.79769313486231570814527423731704357e+308F64\0"
 4126      5436345F 
 4126      4D41585F 
 4126      5F20312E 
 4126      37393736 
 4127 189e 01       		.byte	0x1
 4128 189f 00       		.uleb128 0
 4129 18a0 5F5F464C 		.ascii "__FLT64_MIN__ 2.22507385850720138309023271733240406e-308F64\0"
 4129      5436345F 
 4129      4D494E5F 
 4129      5F20322E 
 4129      32323530 
 4130 18dc 01       		.byte	0x1
 4131 18dd 00       		.uleb128 0
 4132 18de 5F5F464C 		.ascii "__FLT64_EPSILON__ 2.22044604925031308084726333618164062e-16F64\0"
GAS LISTING C:\Users\PRESID~1\AppData\Local\Temp\ccM0pvSr.s 			page 115


 4132      5436345F 
 4132      45505349 
 4132      4C4F4E5F 
 4132      5F20322E 
 4133 191d 01       		.byte	0x1
 4134 191e 00       		.uleb128 0
 4135 191f 5F5F464C 		.ascii "__FLT64_DENORM_MIN__ 4.94065645841246544176568792868221372e-324F64\0"
 4135      5436345F 
 4135      44454E4F 
 4135      524D5F4D 
 4135      494E5F5F 
 4136 1962 01       		.byte	0x1
 4137 1963 00       		.uleb128 0
 4138 1964 5F5F464C 		.ascii "__FLT64_HAS_DENORM__ 1\0"
 4138      5436345F 
 4138      4841535F 
 4138      44454E4F 
 4138      524D5F5F 
 4139 197b 01       		.byte	0x1
 4140 197c 00       		.uleb128 0
 4141 197d 5F5F464C 		.ascii "__FLT64_HAS_INFINITY__ 1\0"
 4141      5436345F 
 4141      4841535F 
 4141      494E4649 
 4141      4E495459 
 4142 1996 01       		.byte	0x1
 4143 1997 00       		.uleb128 0
 4144 1998 5F5F464C 		.ascii "__FLT64_HAS_QUIET_NAN__ 1\0"
 4144      5436345F 
 4144      4841535F 
 4144      51554945 
 4144      545F4E41 
 4145 19b2 01       		.byte	0x1
 4146 19b3 00       		.uleb128 0
 4147 19b4 5F5F464C 		.ascii "__FLT128_MANT_DIG__ 113\0"
 4147      54313238 
 4147      5F4D414E 
 4147      545F4449 
 4147      475F5F20 
 4148 19cc 01       		.byte	0x1
 4149 19cd 00       		.uleb128 0
 4150 19ce 5F5F464C 		.ascii "__FLT128_DIG__ 33\0"
 4150      54313238 
 4150      5F444947 
 4150      5F5F2033 
 4150      3300
 4151 19e0 01       		.byte	0x1
 4152 19e1 00       		.uleb128 0
 4153 19e2 5F5F464C 		.ascii "__FLT128_MIN_EXP__ (-16381)\0"
 4153      54313238 
 4153      5F4D494E 
 4153      5F455850 
 4153      5F5F2028 
 4154 19fe 01       		.byte	0x1
 4155 19ff 00       		.uleb128 0
 4156 1a00 5F5F464C 		.ascii "__FLT128_MIN_10_EXP__ (-4931)\0"
 4156      54313238 
GAS LISTING C:\Users\PRESID~1\AppData\Local\Temp\ccM0pvSr.s 			page 116


 4156      5F4D494E 
 4156      5F31305F 
 4156      4558505F 
 4157 1a1e 01       		.byte	0x1
 4158 1a1f 00       		.uleb128 0
 4159 1a20 5F5F464C 		.ascii "__FLT128_MAX_EXP__ 16384\0"
 4159      54313238 
 4159      5F4D4158 
 4159      5F455850 
 4159      5F5F2031 
 4160 1a39 01       		.byte	0x1
 4161 1a3a 00       		.uleb128 0
 4162 1a3b 5F5F464C 		.ascii "__FLT128_MAX_10_EXP__ 4932\0"
 4162      54313238 
 4162      5F4D4158 
 4162      5F31305F 
 4162      4558505F 
 4163 1a56 01       		.byte	0x1
 4164 1a57 00       		.uleb128 0
 4165 1a58 5F5F464C 		.ascii "__FLT128_DECIMAL_DIG__ 36\0"
 4165      54313238 
 4165      5F444543 
 4165      494D414C 
 4165      5F444947 
 4166 1a72 01       		.byte	0x1
 4167 1a73 00       		.uleb128 0
 4168 1a74 5F5F464C 		.ascii "__FLT128_MAX__ 1.18973149535723176508575932662800702e+4932F128\0"
 4168      54313238 
 4168      5F4D4158 
 4168      5F5F2031 
 4168      2E313839 
 4169 1ab3 01       		.byte	0x1
 4170 1ab4 00       		.uleb128 0
 4171 1ab5 5F5F464C 		.ascii "__FLT128_MIN__ 3.36210314311209350626267781732175260e-4932F128\0"
 4171      54313238 
 4171      5F4D494E 
 4171      5F5F2033 
 4171      2E333632 
 4172 1af4 01       		.byte	0x1
 4173 1af5 00       		.uleb128 0
 4174 1af6 5F5F464C 		.ascii "__FLT128_EPSILON__ 1.92592994438723585305597794258492732e-34F128\0"
 4174      54313238 
 4174      5F455053 
 4174      494C4F4E 
 4174      5F5F2031 
 4175 1b37 01       		.byte	0x1
 4176 1b38 00       		.uleb128 0
 4177 1b39 5F5F464C 		.ascii "__FLT128_DENORM_MIN__ 6.47517511943802511092443895822764655e-4966F128\0"
 4177      54313238 
 4177      5F44454E 
 4177      4F524D5F 
 4177      4D494E5F 
 4178 1b7f 01       		.byte	0x1
 4179 1b80 00       		.uleb128 0
 4180 1b81 5F5F464C 		.ascii "__FLT128_HAS_DENORM__ 1\0"
 4180      54313238 
 4180      5F484153 
GAS LISTING C:\Users\PRESID~1\AppData\Local\Temp\ccM0pvSr.s 			page 117


 4180      5F44454E 
 4180      4F524D5F 
 4181 1b99 01       		.byte	0x1
 4182 1b9a 00       		.uleb128 0
 4183 1b9b 5F5F464C 		.ascii "__FLT128_HAS_INFINITY__ 1\0"
 4183      54313238 
 4183      5F484153 
 4183      5F494E46 
 4183      494E4954 
 4184 1bb5 01       		.byte	0x1
 4185 1bb6 00       		.uleb128 0
 4186 1bb7 5F5F464C 		.ascii "__FLT128_HAS_QUIET_NAN__ 1\0"
 4186      54313238 
 4186      5F484153 
 4186      5F515549 
 4186      45545F4E 
 4187 1bd2 01       		.byte	0x1
 4188 1bd3 00       		.uleb128 0
 4189 1bd4 5F5F464C 		.ascii "__FLT32X_MANT_DIG__ 53\0"
 4189      54333258 
 4189      5F4D414E 
 4189      545F4449 
 4189      475F5F20 
 4190 1beb 01       		.byte	0x1
 4191 1bec 00       		.uleb128 0
 4192 1bed 5F5F464C 		.ascii "__FLT32X_DIG__ 15\0"
 4192      54333258 
 4192      5F444947 
 4192      5F5F2031 
 4192      3500
 4193 1bff 01       		.byte	0x1
 4194 1c00 00       		.uleb128 0
 4195 1c01 5F5F464C 		.ascii "__FLT32X_MIN_EXP__ (-1021)\0"
 4195      54333258 
 4195      5F4D494E 
 4195      5F455850 
 4195      5F5F2028 
 4196 1c1c 01       		.byte	0x1
 4197 1c1d 00       		.uleb128 0
 4198 1c1e 5F5F464C 		.ascii "__FLT32X_MIN_10_EXP__ (-307)\0"
 4198      54333258 
 4198      5F4D494E 
 4198      5F31305F 
 4198      4558505F 
 4199 1c3b 01       		.byte	0x1
 4200 1c3c 00       		.uleb128 0
 4201 1c3d 5F5F464C 		.ascii "__FLT32X_MAX_EXP__ 1024\0"
 4201      54333258 
 4201      5F4D4158 
 4201      5F455850 
 4201      5F5F2031 
 4202 1c55 01       		.byte	0x1
 4203 1c56 00       		.uleb128 0
 4204 1c57 5F5F464C 		.ascii "__FLT32X_MAX_10_EXP__ 308\0"
 4204      54333258 
 4204      5F4D4158 
 4204      5F31305F 
GAS LISTING C:\Users\PRESID~1\AppData\Local\Temp\ccM0pvSr.s 			page 118


 4204      4558505F 
 4205 1c71 01       		.byte	0x1
 4206 1c72 00       		.uleb128 0
 4207 1c73 5F5F464C 		.ascii "__FLT32X_DECIMAL_DIG__ 17\0"
 4207      54333258 
 4207      5F444543 
 4207      494D414C 
 4207      5F444947 
 4208 1c8d 01       		.byte	0x1
 4209 1c8e 00       		.uleb128 0
 4210 1c8f 5F5F464C 		.ascii "__FLT32X_MAX__ 1.79769313486231570814527423731704357e+308F32x\0"
 4210      54333258 
 4210      5F4D4158 
 4210      5F5F2031 
 4210      2E373937 
 4211 1ccd 01       		.byte	0x1
 4212 1cce 00       		.uleb128 0
 4213 1ccf 5F5F464C 		.ascii "__FLT32X_MIN__ 2.22507385850720138309023271733240406e-308F32x\0"
 4213      54333258 
 4213      5F4D494E 
 4213      5F5F2032 
 4213      2E323235 
 4214 1d0d 01       		.byte	0x1
 4215 1d0e 00       		.uleb128 0
 4216 1d0f 5F5F464C 		.ascii "__FLT32X_EPSILON__ 2.22044604925031308084726333618164062e-16F32x\0"
 4216      54333258 
 4216      5F455053 
 4216      494C4F4E 
 4216      5F5F2032 
 4217 1d50 01       		.byte	0x1
 4218 1d51 00       		.uleb128 0
 4219 1d52 5F5F464C 		.ascii "__FLT32X_DENORM_MIN__ 4.94065645841246544176568792868221372e-324F32x\0"
 4219      54333258 
 4219      5F44454E 
 4219      4F524D5F 
 4219      4D494E5F 
 4220 1d97 01       		.byte	0x1
 4221 1d98 00       		.uleb128 0
 4222 1d99 5F5F464C 		.ascii "__FLT32X_HAS_DENORM__ 1\0"
 4222      54333258 
 4222      5F484153 
 4222      5F44454E 
 4222      4F524D5F 
 4223 1db1 01       		.byte	0x1
 4224 1db2 00       		.uleb128 0
 4225 1db3 5F5F464C 		.ascii "__FLT32X_HAS_INFINITY__ 1\0"
 4225      54333258 
 4225      5F484153 
 4225      5F494E46 
 4225      494E4954 
 4226 1dcd 01       		.byte	0x1
 4227 1dce 00       		.uleb128 0
 4228 1dcf 5F5F464C 		.ascii "__FLT32X_HAS_QUIET_NAN__ 1\0"
 4228      54333258 
 4228      5F484153 
 4228      5F515549 
 4228      45545F4E 
GAS LISTING C:\Users\PRESID~1\AppData\Local\Temp\ccM0pvSr.s 			page 119


 4229 1dea 01       		.byte	0x1
 4230 1deb 00       		.uleb128 0
 4231 1dec 5F5F464C 		.ascii "__FLT64X_MANT_DIG__ 64\0"
 4231      54363458 
 4231      5F4D414E 
 4231      545F4449 
 4231      475F5F20 
 4232 1e03 01       		.byte	0x1
 4233 1e04 00       		.uleb128 0
 4234 1e05 5F5F464C 		.ascii "__FLT64X_DIG__ 18\0"
 4234      54363458 
 4234      5F444947 
 4234      5F5F2031 
 4234      3800
 4235 1e17 01       		.byte	0x1
 4236 1e18 00       		.uleb128 0
 4237 1e19 5F5F464C 		.ascii "__FLT64X_MIN_EXP__ (-16381)\0"
 4237      54363458 
 4237      5F4D494E 
 4237      5F455850 
 4237      5F5F2028 
 4238 1e35 01       		.byte	0x1
 4239 1e36 00       		.uleb128 0
 4240 1e37 5F5F464C 		.ascii "__FLT64X_MIN_10_EXP__ (-4931)\0"
 4240      54363458 
 4240      5F4D494E 
 4240      5F31305F 
 4240      4558505F 
 4241 1e55 01       		.byte	0x1
 4242 1e56 00       		.uleb128 0
 4243 1e57 5F5F464C 		.ascii "__FLT64X_MAX_EXP__ 16384\0"
 4243      54363458 
 4243      5F4D4158 
 4243      5F455850 
 4243      5F5F2031 
 4244 1e70 01       		.byte	0x1
 4245 1e71 00       		.uleb128 0
 4246 1e72 5F5F464C 		.ascii "__FLT64X_MAX_10_EXP__ 4932\0"
 4246      54363458 
 4246      5F4D4158 
 4246      5F31305F 
 4246      4558505F 
 4247 1e8d 01       		.byte	0x1
 4248 1e8e 00       		.uleb128 0
 4249 1e8f 5F5F464C 		.ascii "__FLT64X_DECIMAL_DIG__ 21\0"
 4249      54363458 
 4249      5F444543 
 4249      494D414C 
 4249      5F444947 
 4250 1ea9 01       		.byte	0x1
 4251 1eaa 00       		.uleb128 0
 4252 1eab 5F5F464C 		.ascii "__FLT64X_MAX__ 1.18973149535723176502126385303097021e+4932F64x\0"
 4252      54363458 
 4252      5F4D4158 
 4252      5F5F2031 
 4252      2E313839 
 4253 1eea 01       		.byte	0x1
GAS LISTING C:\Users\PRESID~1\AppData\Local\Temp\ccM0pvSr.s 			page 120


 4254 1eeb 00       		.uleb128 0
 4255 1eec 5F5F464C 		.ascii "__FLT64X_MIN__ 3.36210314311209350626267781732175260e-4932F64x\0"
 4255      54363458 
 4255      5F4D494E 
 4255      5F5F2033 
 4255      2E333632 
 4256 1f2b 01       		.byte	0x1
 4257 1f2c 00       		.uleb128 0
 4258 1f2d 5F5F464C 		.ascii "__FLT64X_EPSILON__ 1.08420217248550443400745280086994171e-19F64x\0"
 4258      54363458 
 4258      5F455053 
 4258      494C4F4E 
 4258      5F5F2031 
 4259 1f6e 01       		.byte	0x1
 4260 1f6f 00       		.uleb128 0
 4261 1f70 5F5F464C 		.ascii "__FLT64X_DENORM_MIN__ 3.64519953188247460252840593361941982e-4951F64x\0"
 4261      54363458 
 4261      5F44454E 
 4261      4F524D5F 
 4261      4D494E5F 
 4262 1fb6 01       		.byte	0x1
 4263 1fb7 00       		.uleb128 0
 4264 1fb8 5F5F464C 		.ascii "__FLT64X_HAS_DENORM__ 1\0"
 4264      54363458 
 4264      5F484153 
 4264      5F44454E 
 4264      4F524D5F 
 4265 1fd0 01       		.byte	0x1
 4266 1fd1 00       		.uleb128 0
 4267 1fd2 5F5F464C 		.ascii "__FLT64X_HAS_INFINITY__ 1\0"
 4267      54363458 
 4267      5F484153 
 4267      5F494E46 
 4267      494E4954 
 4268 1fec 01       		.byte	0x1
 4269 1fed 00       		.uleb128 0
 4270 1fee 5F5F464C 		.ascii "__FLT64X_HAS_QUIET_NAN__ 1\0"
 4270      54363458 
 4270      5F484153 
 4270      5F515549 
 4270      45545F4E 
 4271 2009 01       		.byte	0x1
 4272 200a 00       		.uleb128 0
 4273 200b 5F5F4445 		.ascii "__DEC32_MANT_DIG__ 7\0"
 4273      4333325F 
 4273      4D414E54 
 4273      5F444947 
 4273      5F5F2037 
 4274 2020 01       		.byte	0x1
 4275 2021 00       		.uleb128 0
 4276 2022 5F5F4445 		.ascii "__DEC32_MIN_EXP__ (-94)\0"
 4276      4333325F 
 4276      4D494E5F 
 4276      4558505F 
 4276      5F20282D 
 4277 203a 01       		.byte	0x1
 4278 203b 00       		.uleb128 0
GAS LISTING C:\Users\PRESID~1\AppData\Local\Temp\ccM0pvSr.s 			page 121


 4279 203c 5F5F4445 		.ascii "__DEC32_MAX_EXP__ 97\0"
 4279      4333325F 
 4279      4D41585F 
 4279      4558505F 
 4279      5F203937 
 4280 2051 01       		.byte	0x1
 4281 2052 00       		.uleb128 0
 4282 2053 5F5F4445 		.ascii "__DEC32_MIN__ 1E-95DF\0"
 4282      4333325F 
 4282      4D494E5F 
 4282      5F203145 
 4282      2D393544 
 4283 2069 01       		.byte	0x1
 4284 206a 00       		.uleb128 0
 4285 206b 5F5F4445 		.ascii "__DEC32_MAX__ 9.999999E96DF\0"
 4285      4333325F 
 4285      4D41585F 
 4285      5F20392E 
 4285      39393939 
 4286 2087 01       		.byte	0x1
 4287 2088 00       		.uleb128 0
 4288 2089 5F5F4445 		.ascii "__DEC32_EPSILON__ 1E-6DF\0"
 4288      4333325F 
 4288      45505349 
 4288      4C4F4E5F 
 4288      5F203145 
 4289 20a2 01       		.byte	0x1
 4290 20a3 00       		.uleb128 0
 4291 20a4 5F5F4445 		.ascii "__DEC32_SUBNORMAL_MIN__ 0.000001E-95DF\0"
 4291      4333325F 
 4291      5355424E 
 4291      4F524D41 
 4291      4C5F4D49 
 4292 20cb 01       		.byte	0x1
 4293 20cc 00       		.uleb128 0
 4294 20cd 5F5F4445 		.ascii "__DEC64_MANT_DIG__ 16\0"
 4294      4336345F 
 4294      4D414E54 
 4294      5F444947 
 4294      5F5F2031 
 4295 20e3 01       		.byte	0x1
 4296 20e4 00       		.uleb128 0
 4297 20e5 5F5F4445 		.ascii "__DEC64_MIN_EXP__ (-382)\0"
 4297      4336345F 
 4297      4D494E5F 
 4297      4558505F 
 4297      5F20282D 
 4298 20fe 01       		.byte	0x1
 4299 20ff 00       		.uleb128 0
 4300 2100 5F5F4445 		.ascii "__DEC64_MAX_EXP__ 385\0"
 4300      4336345F 
 4300      4D41585F 
 4300      4558505F 
 4300      5F203338 
 4301 2116 01       		.byte	0x1
 4302 2117 00       		.uleb128 0
 4303 2118 5F5F4445 		.ascii "__DEC64_MIN__ 1E-383DD\0"
GAS LISTING C:\Users\PRESID~1\AppData\Local\Temp\ccM0pvSr.s 			page 122


 4303      4336345F 
 4303      4D494E5F 
 4303      5F203145 
 4303      2D333833 
 4304 212f 01       		.byte	0x1
 4305 2130 00       		.uleb128 0
 4306 2131 5F5F4445 		.ascii "__DEC64_MAX__ 9.999999999999999E384DD\0"
 4306      4336345F 
 4306      4D41585F 
 4306      5F20392E 
 4306      39393939 
 4307 2157 01       		.byte	0x1
 4308 2158 00       		.uleb128 0
 4309 2159 5F5F4445 		.ascii "__DEC64_EPSILON__ 1E-15DD\0"
 4309      4336345F 
 4309      45505349 
 4309      4C4F4E5F 
 4309      5F203145 
 4310 2173 01       		.byte	0x1
 4311 2174 00       		.uleb128 0
 4312 2175 5F5F4445 		.ascii "__DEC64_SUBNORMAL_MIN__ 0.000000000000001E-383DD\0"
 4312      4336345F 
 4312      5355424E 
 4312      4F524D41 
 4312      4C5F4D49 
 4313 21a6 01       		.byte	0x1
 4314 21a7 00       		.uleb128 0
 4315 21a8 5F5F4445 		.ascii "__DEC128_MANT_DIG__ 34\0"
 4315      43313238 
 4315      5F4D414E 
 4315      545F4449 
 4315      475F5F20 
 4316 21bf 01       		.byte	0x1
 4317 21c0 00       		.uleb128 0
 4318 21c1 5F5F4445 		.ascii "__DEC128_MIN_EXP__ (-6142)\0"
 4318      43313238 
 4318      5F4D494E 
 4318      5F455850 
 4318      5F5F2028 
 4319 21dc 01       		.byte	0x1
 4320 21dd 00       		.uleb128 0
 4321 21de 5F5F4445 		.ascii "__DEC128_MAX_EXP__ 6145\0"
 4321      43313238 
 4321      5F4D4158 
 4321      5F455850 
 4321      5F5F2036 
 4322 21f6 01       		.byte	0x1
 4323 21f7 00       		.uleb128 0
 4324 21f8 5F5F4445 		.ascii "__DEC128_MIN__ 1E-6143DL\0"
 4324      43313238 
 4324      5F4D494E 
 4324      5F5F2031 
 4324      452D3631 
 4325 2211 01       		.byte	0x1
 4326 2212 00       		.uleb128 0
 4327 2213 5F5F4445 		.ascii "__DEC128_MAX__ 9.999999999999999999999999999999999E6144DL\0"
 4327      43313238 
GAS LISTING C:\Users\PRESID~1\AppData\Local\Temp\ccM0pvSr.s 			page 123


 4327      5F4D4158 
 4327      5F5F2039 
 4327      2E393939 
 4328 224d 01       		.byte	0x1
 4329 224e 00       		.uleb128 0
 4330 224f 5F5F4445 		.ascii "__DEC128_EPSILON__ 1E-33DL\0"
 4330      43313238 
 4330      5F455053 
 4330      494C4F4E 
 4330      5F5F2031 
 4331 226a 01       		.byte	0x1
 4332 226b 00       		.uleb128 0
 4333 226c 5F5F4445 		.ascii "__DEC128_SUBNORMAL_MIN__ 0.000000000000000000000000000000001E-6143DL\0"
 4333      43313238 
 4333      5F535542 
 4333      4E4F524D 
 4333      414C5F4D 
 4334 22b1 01       		.byte	0x1
 4335 22b2 00       		.uleb128 0
 4336 22b3 5F5F5245 		.ascii "__REGISTER_PREFIX__ \0"
 4336      47495354 
 4336      45525F50 
 4336      52454649 
 4336      585F5F20 
 4337 22c8 01       		.byte	0x1
 4338 22c9 00       		.uleb128 0
 4339 22ca 5F5F5553 		.ascii "__USER_LABEL_PREFIX__ _\0"
 4339      45525F4C 
 4339      4142454C 
 4339      5F505245 
 4339      4649585F 
 4340 22e2 01       		.byte	0x1
 4341 22e3 00       		.uleb128 0
 4342 22e4 5F5F474E 		.ascii "__GNUC_GNU_INLINE__ 1\0"
 4342      55435F47 
 4342      4E555F49 
 4342      4E4C494E 
 4342      455F5F20 
 4343 22fa 01       		.byte	0x1
 4344 22fb 00       		.uleb128 0
 4345 22fc 5F5F4E4F 		.ascii "__NO_INLINE__ 1\0"
 4345      5F494E4C 
 4345      494E455F 
 4345      5F203100 
 4346 230c 01       		.byte	0x1
 4347 230d 00       		.uleb128 0
 4348 230e 5F5F5354 		.ascii "__STRICT_ANSI__ 1\0"
 4348      52494354 
 4348      5F414E53 
 4348      495F5F20 
 4348      3100
 4349 2320 01       		.byte	0x1
 4350 2321 00       		.uleb128 0
 4351 2322 5F5F4743 		.ascii "__GCC_ATOMIC_BOOL_LOCK_FREE 1\0"
 4351      435F4154 
 4351      4F4D4943 
 4351      5F424F4F 
GAS LISTING C:\Users\PRESID~1\AppData\Local\Temp\ccM0pvSr.s 			page 124


 4351      4C5F4C4F 
 4352 2340 01       		.byte	0x1
 4353 2341 00       		.uleb128 0
 4354 2342 5F5F4743 		.ascii "__GCC_ATOMIC_CHAR_LOCK_FREE 1\0"
 4354      435F4154 
 4354      4F4D4943 
 4354      5F434841 
 4354      525F4C4F 
 4355 2360 01       		.byte	0x1
 4356 2361 00       		.uleb128 0
 4357 2362 5F5F4743 		.ascii "__GCC_ATOMIC_CHAR16_T_LOCK_FREE 1\0"
 4357      435F4154 
 4357      4F4D4943 
 4357      5F434841 
 4357      5231365F 
 4358 2384 01       		.byte	0x1
 4359 2385 00       		.uleb128 0
 4360 2386 5F5F4743 		.ascii "__GCC_ATOMIC_CHAR32_T_LOCK_FREE 1\0"
 4360      435F4154 
 4360      4F4D4943 
 4360      5F434841 
 4360      5233325F 
 4361 23a8 01       		.byte	0x1
 4362 23a9 00       		.uleb128 0
 4363 23aa 5F5F4743 		.ascii "__GCC_ATOMIC_WCHAR_T_LOCK_FREE 1\0"
 4363      435F4154 
 4363      4F4D4943 
 4363      5F574348 
 4363      41525F54 
 4364 23cb 01       		.byte	0x1
 4365 23cc 00       		.uleb128 0
 4366 23cd 5F5F4743 		.ascii "__GCC_ATOMIC_SHORT_LOCK_FREE 1\0"
 4366      435F4154 
 4366      4F4D4943 
 4366      5F53484F 
 4366      52545F4C 
 4367 23ec 01       		.byte	0x1
 4368 23ed 00       		.uleb128 0
 4369 23ee 5F5F4743 		.ascii "__GCC_ATOMIC_INT_LOCK_FREE 1\0"
 4369      435F4154 
 4369      4F4D4943 
 4369      5F494E54 
 4369      5F4C4F43 
 4370 240b 01       		.byte	0x1
 4371 240c 00       		.uleb128 0
 4372 240d 5F5F4743 		.ascii "__GCC_ATOMIC_LONG_LOCK_FREE 1\0"
 4372      435F4154 
 4372      4F4D4943 
 4372      5F4C4F4E 
 4372      475F4C4F 
 4373 242b 01       		.byte	0x1
 4374 242c 00       		.uleb128 0
 4375 242d 5F5F4743 		.ascii "__GCC_ATOMIC_LLONG_LOCK_FREE 1\0"
 4375      435F4154 
 4375      4F4D4943 
 4375      5F4C4C4F 
 4375      4E475F4C 
GAS LISTING C:\Users\PRESID~1\AppData\Local\Temp\ccM0pvSr.s 			page 125


 4376 244c 01       		.byte	0x1
 4377 244d 00       		.uleb128 0
 4378 244e 5F5F4743 		.ascii "__GCC_ATOMIC_TEST_AND_SET_TRUEVAL 1\0"
 4378      435F4154 
 4378      4F4D4943 
 4378      5F544553 
 4378      545F414E 
 4379 2472 01       		.byte	0x1
 4380 2473 00       		.uleb128 0
 4381 2474 5F5F4743 		.ascii "__GCC_ATOMIC_POINTER_LOCK_FREE 1\0"
 4381      435F4154 
 4381      4F4D4943 
 4381      5F504F49 
 4381      4E544552 
 4382 2495 01       		.byte	0x1
 4383 2496 00       		.uleb128 0
 4384 2497 5F5F4743 		.ascii "__GCC_HAVE_DWARF2_CFI_ASM 1\0"
 4384      435F4841 
 4384      56455F44 
 4384      57415246 
 4384      325F4346 
 4385 24b3 01       		.byte	0x1
 4386 24b4 00       		.uleb128 0
 4387 24b5 5F5F5052 		.ascii "__PRAGMA_REDEFINE_EXTNAME 1\0"
 4387      41474D41 
 4387      5F524544 
 4387      4546494E 
 4387      455F4558 
 4388 24d1 01       		.byte	0x1
 4389 24d2 00       		.uleb128 0
 4390 24d3 5F5F5349 		.ascii "__SIZEOF_WCHAR_T__ 2\0"
 4390      5A454F46 
 4390      5F574348 
 4390      41525F54 
 4390      5F5F2032 
 4391 24e8 01       		.byte	0x1
 4392 24e9 00       		.uleb128 0
 4393 24ea 5F5F5349 		.ascii "__SIZEOF_WINT_T__ 2\0"
 4393      5A454F46 
 4393      5F57494E 
 4393      545F545F 
 4393      5F203200 
 4394 24fe 01       		.byte	0x1
 4395 24ff 00       		.uleb128 0
 4396 2500 5F5F5349 		.ascii "__SIZEOF_PTRDIFF_T__ 4\0"
 4396      5A454F46 
 4396      5F505452 
 4396      44494646 
 4396      5F545F5F 
 4397 2517 01       		.byte	0x1
 4398 2518 00       		.uleb128 0
 4399 2519 5F5F6933 		.ascii "__i386 1\0"
 4399      38362031 
 4399      00
 4400 2522 01       		.byte	0x1
 4401 2523 00       		.uleb128 0
 4402 2524 5F5F6933 		.ascii "__i386__ 1\0"
GAS LISTING C:\Users\PRESID~1\AppData\Local\Temp\ccM0pvSr.s 			page 126


 4402      38365F5F 
 4402      203100
 4403 252f 01       		.byte	0x1
 4404 2530 00       		.uleb128 0
 4405 2531 5F5F5349 		.ascii "__SIZEOF_FLOAT80__ 12\0"
 4405      5A454F46 
 4405      5F464C4F 
 4405      41543830 
 4405      5F5F2031 
 4406 2547 01       		.byte	0x1
 4407 2548 00       		.uleb128 0
 4408 2549 5F5F5349 		.ascii "__SIZEOF_FLOAT128__ 16\0"
 4408      5A454F46 
 4408      5F464C4F 
 4408      41543132 
 4408      385F5F20 
 4409 2560 01       		.byte	0x1
 4410 2561 00       		.uleb128 0
 4411 2562 5F5F4154 		.ascii "__ATOMIC_HLE_ACQUIRE 65536\0"
 4411      4F4D4943 
 4411      5F484C45 
 4411      5F414351 
 4411      55495245 
 4412 257d 01       		.byte	0x1
 4413 257e 00       		.uleb128 0
 4414 257f 5F5F4154 		.ascii "__ATOMIC_HLE_RELEASE 131072\0"
 4414      4F4D4943 
 4414      5F484C45 
 4414      5F52454C 
 4414      45415345 
 4415 259b 01       		.byte	0x1
 4416 259c 00       		.uleb128 0
 4417 259d 5F5F4743 		.ascii "__GCC_ASM_FLAG_OUTPUTS__ 1\0"
 4417      435F4153 
 4417      4D5F464C 
 4417      41475F4F 
 4417      55545055 
 4418 25b8 01       		.byte	0x1
 4419 25b9 00       		.uleb128 0
 4420 25ba 5F5F7475 		.ascii "__tune_i386__ 1\0"
 4420      6E655F69 
 4420      3338365F 
 4420      5F203100 
 4421 25ca 01       		.byte	0x1
 4422 25cb 00       		.uleb128 0
 4423 25cc 5F5F636F 		.ascii "__code_model_32__ 1\0"
 4423      64655F6D 
 4423      6F64656C 
 4423      5F33325F 
 4423      5F203100 
 4424 25e0 01       		.byte	0x1
 4425 25e1 00       		.uleb128 0
 4426 25e2 5F5F5345 		.ascii "__SEG_FS 1\0"
 4426      475F4653 
 4426      203100
 4427 25ed 01       		.byte	0x1
 4428 25ee 00       		.uleb128 0
GAS LISTING C:\Users\PRESID~1\AppData\Local\Temp\ccM0pvSr.s 			page 127


 4429 25ef 5F5F5345 		.ascii "__SEG_GS 1\0"
 4429      475F4753 
 4429      203100
 4430 25fa 01       		.byte	0x1
 4431 25fb 00       		.uleb128 0
 4432 25fc 5F583836 		.ascii "_X86_ 1\0"
 4432      5F203100 
 4433 2604 01       		.byte	0x1
 4434 2605 00       		.uleb128 0
 4435 2606 5F5F7374 		.ascii "__stdcall __attribute__((__stdcall__))\0"
 4435      6463616C 
 4435      6C205F5F 
 4435      61747472 
 4435      69627574 
 4436 262d 01       		.byte	0x1
 4437 262e 00       		.uleb128 0
 4438 262f 5F5F6661 		.ascii "__fastcall __attribute__((__fastcall__))\0"
 4438      73746361 
 4438      6C6C205F 
 4438      5F617474 
 4438      72696275 
 4439 2658 01       		.byte	0x1
 4440 2659 00       		.uleb128 0
 4441 265a 5F5F7468 		.ascii "__thiscall __attribute__((__thiscall__))\0"
 4441      69736361 
 4441      6C6C205F 
 4441      5F617474 
 4441      72696275 
 4442 2683 01       		.byte	0x1
 4443 2684 00       		.uleb128 0
 4444 2685 5F5F6364 		.ascii "__cdecl __attribute__((__cdecl__))\0"
 4444      65636C20 
 4444      5F5F6174 
 4444      74726962 
 4444      7574655F 
 4445 26a8 01       		.byte	0x1
 4446 26a9 00       		.uleb128 0
 4447 26aa 5F5F4758 		.ascii "__GXX_MERGED_TYPEINFO_NAMES 0\0"
 4447      585F4D45 
 4447      52474544 
 4447      5F545950 
 4447      45494E46 
 4448 26c8 01       		.byte	0x1
 4449 26c9 00       		.uleb128 0
 4450 26ca 5F5F4758 		.ascii "__GXX_TYPEINFO_EQUALITY_INLINE 0\0"
 4450      585F5459 
 4450      5045494E 
 4450      464F5F45 
 4450      5155414C 
 4451 26eb 01       		.byte	0x1
 4452 26ec 00       		.uleb128 0
 4453 26ed 5F5F4D53 		.ascii "__MSVCRT__ 1\0"
 4453      56435254 
 4453      5F5F2031 
 4453      00
 4454 26fa 01       		.byte	0x1
 4455 26fb 00       		.uleb128 0
GAS LISTING C:\Users\PRESID~1\AppData\Local\Temp\ccM0pvSr.s 			page 128


 4456 26fc 5F5F4D49 		.ascii "__MINGW32__ 1\0"
 4456      4E475733 
 4456      325F5F20 
 4456      3100
 4457 270a 01       		.byte	0x1
 4458 270b 00       		.uleb128 0
 4459 270c 5F57494E 		.ascii "_WIN32 1\0"
 4459      33322031 
 4459      00
 4460 2715 01       		.byte	0x1
 4461 2716 00       		.uleb128 0
 4462 2717 5F5F5749 		.ascii "__WIN32 1\0"
 4462      4E333220 
 4462      3100
 4463 2721 01       		.byte	0x1
 4464 2722 00       		.uleb128 0
 4465 2723 5F5F5749 		.ascii "__WIN32__ 1\0"
 4465      4E33325F 
 4465      5F203100 
 4466 272f 01       		.byte	0x1
 4467 2730 00       		.uleb128 0
 4468 2731 5F5F5749 		.ascii "__WINNT 1\0"
 4468      4E4E5420 
 4468      3100
 4469 273b 01       		.byte	0x1
 4470 273c 00       		.uleb128 0
 4471 273d 5F5F5749 		.ascii "__WINNT__ 1\0"
 4471      4E4E545F 
 4471      5F203100 
 4472 2749 01       		.byte	0x1
 4473 274a 00       		.uleb128 0
 4474 274b 5F494E54 		.ascii "_INTEGRAL_MAX_BITS 64\0"
 4474      45475241 
 4474      4C5F4D41 
 4474      585F4249 
 4474      54532036 
 4475 2761 01       		.byte	0x1
 4476 2762 00       		.uleb128 0
 4477 2763 5F5F6465 		.ascii "__declspec(x) __attribute__((x))\0"
 4477      636C7370 
 4477      65632878 
 4477      29205F5F 
 4477      61747472 
 4478 2784 01       		.byte	0x1
 4479 2785 00       		.uleb128 0
 4480 2786 5F5F4445 		.ascii "__DECIMAL_BID_FORMAT__ 1\0"
 4480      43494D41 
 4480      4C5F4249 
 4480      445F464F 
 4480      524D4154 
 4481 279f 01       		.byte	0x1
 4482 27a0 00       		.uleb128 0
 4483 27a1 4346475F 		.ascii "CFG_PROCESSOR 3\0"
 4483      50524F43 
 4483      4553534F 
 4483      52203300 
 4484 27b1 03       		.byte	0x3
GAS LISTING C:\Users\PRESID~1\AppData\Local\Temp\ccM0pvSr.s 			page 129


 4485 27b2 00       		.uleb128 0
 4486 27b3 01       		.uleb128 0x1
 4487              		.file 9 "C:/Users/president/Desktop/sbx/input/src/os_base/os_firstinc.h"
 4488 27b4 03       		.byte	0x3
 4489 27b5 01       		.uleb128 0x1
 4490 27b6 09       		.uleb128 0x9
 4491 27b7 01       		.byte	0x1
 4492 27b8 02       		.uleb128 0x2
 4493 27b9 5F4F535F 		.ascii "_OS_FIRSTINC_H_ \0"
 4493      46495253 
 4493      54494E43 
 4493      5F485F20 
 4493      00
 4494              		.file 10 "c:/users/president/desktop/sbx/input/src/os_config.h"
 4495 27ca 03       		.byte	0x3
 4496 27cb 04       		.uleb128 0x4
 4497 27cc 0A       		.uleb128 0xa
 4498 27cd 01       		.byte	0x1
 4499 27ce 02       		.uleb128 0x2
 4500 27cf 5F4F535F 		.ascii "_OS_CONFIG_H_ \0"
 4500      434F4E46 
 4500      49475F48 
 4500      5F2000
 4501 27de 01       		.byte	0x1
 4502 27df 05       		.uleb128 0x5
 4503 27e0 494E5445 		.ascii "INTEGER_LLP64_IL32P64 1u\0"
 4503      4745525F 
 4503      4C4C5036 
 4503      345F494C 
 4503      33325036 
 4504 27f9 01       		.byte	0x1
 4505 27fa 06       		.uleb128 0x6
 4506 27fb 494E5445 		.ascii "INTEGER_LP64_I32LP64 2u\0"
 4506      4745525F 
 4506      4C503634 
 4506      5F493332 
 4506      4C503634 
 4507 2813 01       		.byte	0x1
 4508 2814 07       		.uleb128 0x7
 4509 2815 494E5445 		.ascii "INTEGER_ILP64 3u\0"
 4509      4745525F 
 4509      494C5036 
 4509      34203375 
 4509      00
 4510 2826 01       		.byte	0x1
 4511 2827 08       		.uleb128 0x8
 4512 2828 494E5445 		.ascii "INTEGER_SILP64 4u\0"
 4512      4745525F 
 4512      53494C50 
 4512      36342034 
 4512      7500
 4513 283a 01       		.byte	0x1
 4514 283b 09       		.uleb128 0x9
 4515 283c 494E5445 		.ascii "INTEGER_MODEL INTEGER_LLP64_IL32P64\0"
 4515      4745525F 
 4515      4D4F4445 
 4515      4C20494E 
GAS LISTING C:\Users\PRESID~1\AppData\Local\Temp\ccM0pvSr.s 			page 130


 4515      54454745 
 4516 2860 01       		.byte	0x1
 4517 2861 0C       		.uleb128 0xc
 4518 2862 4350505F 		.ascii "CPP_VERSION_NONE 0u\0"
 4518      56455253 
 4518      494F4E5F 
 4518      4E4F4E45 
 4518      20307500 
 4519 2876 01       		.byte	0x1
 4520 2877 0D       		.uleb128 0xd
 4521 2878 4350505F 		.ascii "CPP_VERSION_1998 1u\0"
 4521      56455253 
 4521      494F4E5F 
 4521      31393938 
 4521      20317500 
 4522 288c 01       		.byte	0x1
 4523 288d 0E       		.uleb128 0xe
 4524 288e 4350505F 		.ascii "CPP_VERSION_2003 2u\0"
 4524      56455253 
 4524      494F4E5F 
 4524      32303033 
 4524      20327500 
 4525 28a2 01       		.byte	0x1
 4526 28a3 0F       		.uleb128 0xf
 4527 28a4 4350505F 		.ascii "CPP_VERSION_2007 3u\0"
 4527      56455253 
 4527      494F4E5F 
 4527      32303037 
 4527      20337500 
 4528 28b8 01       		.byte	0x1
 4529 28b9 10       		.uleb128 0x10
 4530 28ba 4350505F 		.ascii "CPP_VERSION_2011 4u\0"
 4530      56455253 
 4530      494F4E5F 
 4530      32303131 
 4530      20347500 
 4531 28ce 01       		.byte	0x1
 4532 28cf 11       		.uleb128 0x11
 4533 28d0 49534F5F 		.ascii "ISO_CPP_VERSION CPP_VERSION_1998\0"
 4533      4350505F 
 4533      56455253 
 4533      494F4E20 
 4533      4350505F 
 4534 28f1 01       		.byte	0x1
 4535 28f2 14       		.uleb128 0x14
 4536 28f3 4249475F 		.ascii "BIG_INT_SIZE 16u\0"
 4536      494E545F 
 4536      53495A45 
 4536      20313675 
 4536      00
 4537 2904 01       		.byte	0x1
 4538 2905 17       		.uleb128 0x17
 4539 2906 4E525F4F 		.ascii "NR_OF_CORES 1u\0"
 4539      465F434F 
 4539      52455320 
 4539      317500
 4540 2915 01       		.byte	0x1
GAS LISTING C:\Users\PRESID~1\AppData\Local\Temp\ccM0pvSr.s 			page 131


 4541 2916 1B       		.uleb128 0x1b
 4542 2917 4D43555F 		.ascii "MCU_CLOCK_IN_HZ ((uint32)168000000u)\0"
 4542      434C4F43 
 4542      4B5F494E 
 4542      5F485A20 
 4542      28287569 
 4543 293c 01       		.byte	0x1
 4544 293d 1D       		.uleb128 0x1d
 4545 293e 44594E41 		.ascii "DYNAMIC_MEMORY_USED FALSE\0"
 4545      4D49435F 
 4545      4D454D4F 
 4545      52595F55 
 4545      53454420 
 4546 2958 01       		.byte	0x1
 4547 2959 1E       		.uleb128 0x1e
 4548 295a 4C4F4F50 		.ascii "LOOPTIME_IN_USEC ((uint32)10000u)\0"
 4548      54494D45 
 4548      5F494E5F 
 4548      55534543 
 4548      20282875 
 4549 297c 01       		.byte	0x1
 4550 297d 21       		.uleb128 0x21
 4551 297e 48454150 		.ascii "HEAP_SIZE 10000u\0"
 4551      5F53495A 
 4551      45203130 
 4551      30303075 
 4551      00
 4552 298f 01       		.byte	0x1
 4553 2990 22       		.uleb128 0x22
 4554 2991 4D494E5F 		.ascii "MIN_BLOCK_SIZE_HEAP 8u\0"
 4554      424C4F43 
 4554      4B5F5349 
 4554      5A455F48 
 4554      45415020 
 4555 29a8 01       		.byte	0x1
 4556 29a9 23       		.uleb128 0x23
 4557 29aa 48454150 		.ascii "HEAP_OFFSET_FOR_SIZE 0u\0"
 4557      5F4F4646 
 4557      5345545F 
 4557      464F525F 
 4557      53495A45 
 4558 29c2 01       		.byte	0x1
 4559 29c3 24       		.uleb128 0x24
 4560 29c4 48454150 		.ascii "HEAP_OFFSET_FOR_USED_SIZE 4u\0"
 4560      5F4F4646 
 4560      5345545F 
 4560      464F525F 
 4560      55534544 
 4561 29e1 01       		.byte	0x1
 4562 29e2 25       		.uleb128 0x25
 4563 29e3 48454150 		.ascii "HEAP_OFFSET_FOR_CHUNK 8u\0"
 4563      5F4F4646 
 4563      5345545F 
 4563      464F525F 
 4563      4348554E 
 4564 29fc 01       		.byte	0x1
 4565 29fd 28       		.uleb128 0x28
GAS LISTING C:\Users\PRESID~1\AppData\Local\Temp\ccM0pvSr.s 			page 132


 4566 29fe 4F535F4D 		.ascii "OS_MAIN_STACK_SIZE 0x400u\0"
 4566      41494E5F 
 4566      53544143 
 4566      4B5F5349 
 4566      5A452030 
 4567 2a18 01       		.byte	0x1
 4568 2a19 29       		.uleb128 0x29
 4569 2a1a 4F535F50 		.ascii "OS_PROCESS_STACK_TASK1_SIZE 0x200u\0"
 4569      524F4345 
 4569      53535F53 
 4569      5441434B 
 4569      5F544153 
 4570 2a3d 01       		.byte	0x1
 4571 2a3e 2A       		.uleb128 0x2a
 4572 2a3f 4F535F50 		.ascii "OS_PROCESS_STACK_TASK2_SIZE 0x200u\0"
 4572      524F4345 
 4572      53535F53 
 4572      5441434B 
 4572      5F544153 
 4573 2a62 01       		.byte	0x1
 4574 2a63 2B       		.uleb128 0x2b
 4575 2a64 4F535F50 		.ascii "OS_PROCESS_STACK_TASK3_SIZE 0x200u\0"
 4575      524F4345 
 4575      53535F53 
 4575      5441434B 
 4575      5F544153 
 4576 2a87 01       		.byte	0x1
 4577 2a88 2C       		.uleb128 0x2c
 4578 2a89 4F535F50 		.ascii "OS_PROCESS_STACK_TASK4_SIZE 0x200u\0"
 4578      524F4345 
 4578      53535F53 
 4578      5441434B 
 4578      5F544153 
 4579 2aac 04       		.byte	0x4
 4580 2aad 03       		.byte	0x3
 4581 2aae 05       		.uleb128 0x5
 4582 2aaf 02       		.uleb128 0x2
 4583 2ab0 01       		.byte	0x1
 4584 2ab1 02       		.uleb128 0x2
 4585 2ab2 5F4F535F 		.ascii "_OS_BASE_TYPES_H_ \0"
 4585      42415345 
 4585      5F545950 
 4585      45535F48 
 4585      5F2000
 4586 2ac5 04       		.byte	0x4
 4587 2ac6 03       		.byte	0x3
 4588 2ac7 06       		.uleb128 0x6
 4589 2ac8 03       		.uleb128 0x3
 4590 2ac9 01       		.byte	0x1
 4591 2aca 02       		.uleb128 0x2
 4592 2acb 5F4F535F 		.ascii "_OS_COMMON_H_ \0"
 4592      434F4D4D 
 4592      4F4E5F48 
 4592      5F2000
 4593 2ada 01       		.byte	0x1
 4594 2adb 06       		.uleb128 0x6
 4595 2adc 46414C53 		.ascii "FALSE 0u\0"
GAS LISTING C:\Users\PRESID~1\AppData\Local\Temp\ccM0pvSr.s 			page 133


 4595      45203075 
 4595      00
 4596 2ae5 01       		.byte	0x1
 4597 2ae6 07       		.uleb128 0x7
 4598 2ae7 54525545 		.ascii "TRUE 1u\0"
 4598      20317500 
 4599 2aef 01       		.byte	0x1
 4600 2af0 08       		.uleb128 0x8
 4601 2af1 46616C73 		.ascii "False FALSE\0"
 4601      65204641 
 4601      4C534500 
 4602 2afd 01       		.byte	0x1
 4603 2afe 09       		.uleb128 0x9
 4604 2aff 54727565 		.ascii "True TRUE\0"
 4604      20545255 
 4604      4500
 4605 2b09 01       		.byte	0x1
 4606 2b0a 0A       		.uleb128 0xa
 4607 2b0b 41434345 		.ascii "ACCEPTED 1u\0"
 4607      50544544 
 4607      20317500 
 4608 2b17 01       		.byte	0x1
 4609 2b18 0B       		.uleb128 0xb
 4610 2b19 52454A45 		.ascii "REJECTED 0u\0"
 4610      43544544 
 4610      20307500 
 4611 2b25 01       		.byte	0x1
 4612 2b26 0C       		.uleb128 0xc
 4613 2b27 4C4F4341 		.ascii "LOCAL static\0"
 4613      4C207374 
 4613      61746963 
 4613      00
 4614 2b34 01       		.byte	0x1
 4615 2b35 0D       		.uleb128 0xd
 4616 2b36 4C4F4341 		.ascii "LOCAL_INLINE static __inline__\0"
 4616      4C5F494E 
 4616      4C494E45 
 4616      20737461 
 4616      74696320 
 4617 2b55 01       		.byte	0x1
 4618 2b56 0E       		.uleb128 0xe
 4619 2b57 474C4F42 		.ascii "GLOBAL_INLINE __inline__\0"
 4619      414C5F49 
 4619      4E4C494E 
 4619      45205F5F 
 4619      696E6C69 
 4620 2b70 01       		.byte	0x1
 4621 2b71 0F       		.uleb128 0xf
 4622 2b72 52454645 		.ascii "REFERENCE_UNUSED_PARAMETER(x) ((x) = (x))\0"
 4622      52454E43 
 4622      455F554E 
 4622      55534544 
 4622      5F504152 
 4623 2b9c 01       		.byte	0x1
 4624 2b9d 10       		.uleb128 0x10
 4625 2b9e 4E554C4C 		.ascii "NULL ((void*)0)\0"
 4625      20282876 
GAS LISTING C:\Users\PRESID~1\AppData\Local\Temp\ccM0pvSr.s 			page 134


 4625      6F69642A 
 4625      29302900 
 4626 2bae 01       		.byte	0x1
 4627 2baf 13       		.uleb128 0x13
 4628 2bb0 4D43555F 		.ascii "MCU_X86 3\0"
 4628      58383620 
 4628      3300
 4629 2bba 01       		.byte	0x1
 4630 2bbb 14       		.uleb128 0x14
 4631 2bbc 4D43555F 		.ascii "MCU_CORTEX_M4 4\0"
 4631      434F5254 
 4631      45585F4D 
 4631      34203400 
 4632 2bcc 01       		.byte	0x1
 4633 2bcd 17       		.uleb128 0x17
 4634 2bce 4457545F 		.ascii "DWT_CTRL ((volatile uint32*)0xE0001000u)\0"
 4634      4354524C 
 4634      20282876 
 4634      6F6C6174 
 4634      696C6520 
 4635 2bf7 01       		.byte	0x1
 4636 2bf8 18       		.uleb128 0x18
 4637 2bf9 4457545F 		.ascii "DWT_CYCCNT ((volatile uint32*)0xE0001004u)\0"
 4637      43594343 
 4637      4E542028 
 4637      28766F6C 
 4637      6174696C 
 4638 2c24 01       		.byte	0x1
 4639 2c25 19       		.uleb128 0x19
 4640 2c26 4457545F 		.ascii "DWT_LAR ((volatile uint32*)0xE0001FB0u)\0"
 4640      4C415220 
 4640      2828766F 
 4640      6C617469 
 4640      6C652075 
 4641 2c4e 01       		.byte	0x1
 4642 2c4f 1A       		.uleb128 0x1a
 4643 2c50 5343425F 		.ascii "SCB_DEMCR ((volatile uint32*)0xE000EDFCu)\0"
 4643      44454D43 
 4643      52202828 
 4643      766F6C61 
 4643      74696C65 
 4644 2c7a 01       		.byte	0x1
 4645 2c7b 1D       		.uleb128 0x1d
 4646 2c7c 44495341 		.ascii "DISABLE_INTERRUPTS() \0"
 4646      424C455F 
 4646      494E5445 
 4646      52525550 
 4646      54532829 
 4647 2c92 01       		.byte	0x1
 4648 2c93 1E       		.uleb128 0x1e
 4649 2c94 454E4142 		.ascii "ENABLE_INTERRUPTS() \0"
 4649      4C455F49 
 4649      4E544552 
 4649      52555054 
 4649      53282920 
 4650 2ca9 01       		.byte	0x1
 4651 2caa 1F       		.uleb128 0x1f
GAS LISTING C:\Users\PRESID~1\AppData\Local\Temp\ccM0pvSr.s 			page 135


 4652 2cab 50524956 		.ascii "PRIVILIGE_LEVEL_SAVE_CURRENT() \0"
 4652      494C4947 
 4652      455F4C45 
 4652      56454C5F 
 4652      53415645 
 4653 2ccb 01       		.byte	0x1
 4654 2ccc 20       		.uleb128 0x20
 4655 2ccd 50524956 		.ascii "PRIVILIGE_LEVEL_ENTER_KERNEL_MODE() \0"
 4655      494C4947 
 4655      455F4C45 
 4655      56454C5F 
 4655      454E5445 
 4656 2cf2 01       		.byte	0x1
 4657 2cf3 21       		.uleb128 0x21
 4658 2cf4 50524956 		.ascii "PRIVILIGE_LEVEL_RESTORE_SAVED() \0"
 4658      494C4947 
 4658      455F4C45 
 4658      56454C5F 
 4658      52455354 
 4659 2d15 01       		.byte	0x1
 4660 2d16 22       		.uleb128 0x22
 4661 2d17 48414C54 		.ascii "HALT_MCU() \0"
 4661      5F4D4355 
 4661      28292000 
 4662 2d23 01       		.byte	0x1
 4663 2d24 42       		.uleb128 0x42
 4664 2d25 414D4F55 		.ascii "AMOUNT_SW_BUG_FUNCTIONS 22\0"
 4664      4E545F53 
 4664      575F4255 
 4664      475F4655 
 4664      4E435449 
 4665 2d40 04       		.byte	0x4
 4666              		.file 11 "c:/users/president/desktop/sbx/input/src/os_sim/lld_global.h"
 4667 2d41 03       		.byte	0x3
 4668 2d42 09       		.uleb128 0x9
 4669 2d43 0B       		.uleb128 0xb
 4670 2d44 01       		.byte	0x1
 4671 2d45 02       		.uleb128 0x2
 4672 2d46 5F4C4C44 		.ascii "_LLD_GLOBAL_H_ \0"
 4672      5F474C4F 
 4672      42414C5F 
 4672      485F2000 
 4673 2d56 03       		.byte	0x3
 4674 2d57 04       		.uleb128 0x4
 4675 2d58 04       		.uleb128 0x4
 4676 2d59 01       		.byte	0x1
 4677 2d5a 02       		.uleb128 0x2
 4678 2d5b 5F4C4C44 		.ascii "_LLD_CORE_H_ \0"
 4678      5F434F52 
 4678      455F485F 
 4678      2000
 4679              		.file 12 "c:/users/president/desktop/sbx/input/src/os_base/os_firstinc.h"
 4680 2d69 03       		.byte	0x3
 4681 2d6a 03       		.uleb128 0x3
 4682 2d6b 0C       		.uleb128 0xc
 4683 2d6c 04       		.byte	0x4
 4684 2d6d 04       		.byte	0x4
GAS LISTING C:\Users\PRESID~1\AppData\Local\Temp\ccM0pvSr.s 			page 136


 4685              		.file 13 "c:/users/president/desktop/sbx/input/src/os_sim/lld_interrupt.h"
 4686 2d6e 03       		.byte	0x3
 4687 2d6f 05       		.uleb128 0x5
 4688 2d70 0D       		.uleb128 0xd
 4689 2d71 01       		.byte	0x1
 4690 2d72 02       		.uleb128 0x2
 4691 2d73 5F4C4C44 		.ascii "_LLD_INTERRUPT_H_ \0"
 4691      5F494E54 
 4691      45525255 
 4691      50545F48 
 4691      5F2000
 4692 2d86 01       		.byte	0x1
 4693 2d87 05       		.uleb128 0x5
 4694 2d88 4F535F49 		.ascii "OS_INTERRUPT_SWI_1 asm(\"swi 1\")\0"
 4694      4E544552 
 4694      52555054 
 4694      5F535749 
 4694      5F312061 
 4695 2da8 01       		.byte	0x1
 4696 2da9 06       		.uleb128 0x6
 4697 2daa 4F535F49 		.ascii "OS_INTERRUPT_SWI_2 asm(\"swi 2\")\0"
 4697      4E544552 
 4697      52555054 
 4697      5F535749 
 4697      5F322061 
 4698 2dca 01       		.byte	0x1
 4699 2dcb 07       		.uleb128 0x7
 4700 2dcc 4F535F49 		.ascii "OS_INTERRUPT_SWI_3 asm(\"swi 3\")\0"
 4700      4E544552 
 4700      52555054 
 4700      5F535749 
 4700      5F332061 
 4701 2dec 01       		.byte	0x1
 4702 2ded 08       		.uleb128 0x8
 4703 2dee 4F535F49 		.ascii "OS_INTERRUPT_SWI_4 asm(\"swi 4\")\0"
 4703      4E544552 
 4703      52555054 
 4703      5F535749 
 4703      5F342061 
 4704 2e0e 01       		.byte	0x1
 4705 2e0f 09       		.uleb128 0x9
 4706 2e10 4F535F49 		.ascii "OS_INTERRUPT_SWI_5 asm(\"swi 5\")\0"
 4706      4E544552 
 4706      52555054 
 4706      5F535749 
 4706      5F352061 
 4707 2e30 04       		.byte	0x4
 4708              		.file 14 "c:/users/president/desktop/sbx/input/src/os_sim/lld_mmu.h"
 4709 2e31 03       		.byte	0x3
 4710 2e32 06       		.uleb128 0x6
 4711 2e33 0E       		.uleb128 0xe
 4712 2e34 01       		.byte	0x1
 4713 2e35 02       		.uleb128 0x2
 4714 2e36 5F4C4C44 		.ascii "_LLD_MMU_H_ \0"
 4714      5F4D4D55 
 4714      5F485F20 
 4714      00
GAS LISTING C:\Users\PRESID~1\AppData\Local\Temp\ccM0pvSr.s 			page 137


 4715 2e43 04       		.byte	0x4
 4716              		.file 15 "c:/users/president/desktop/sbx/input/src/os_sim/lld_timer.h"
 4717 2e44 03       		.byte	0x3
 4718 2e45 07       		.uleb128 0x7
 4719 2e46 0F       		.uleb128 0xf
 4720 2e47 01       		.byte	0x1
 4721 2e48 02       		.uleb128 0x2
 4722 2e49 5F4C4C44 		.ascii "_LLD_TIMER_H_ \0"
 4722      5F54494D 
 4722      45525F48 
 4722      5F2000
 4723 2e58 04       		.byte	0x4
 4724              		.file 16 "c:/users/president/desktop/sbx/input/src/os_sim/lld_power.h"
 4725 2e59 03       		.byte	0x3
 4726 2e5a 08       		.uleb128 0x8
 4727 2e5b 10       		.uleb128 0x10
 4728 2e5c 01       		.byte	0x1
 4729 2e5d 02       		.uleb128 0x2
 4730 2e5e 5F4C4C44 		.ascii "_LLD_POWER_H_ \0"
 4730      5F504F57 
 4730      45525F48 
 4730      5F2000
 4731 2e6d 04       		.byte	0x4
 4732              		.file 17 "c:/users/president/desktop/sbx/input/src/os_sim/lld_ram.h"
 4733 2e6e 03       		.byte	0x3
 4734 2e6f 09       		.uleb128 0x9
 4735 2e70 11       		.uleb128 0x11
 4736 2e71 01       		.byte	0x1
 4737 2e72 02       		.uleb128 0x2
 4738 2e73 5F4C4C44 		.ascii "_LLD_RAM_H_ \0"
 4738      5F52414D 
 4738      5F485F20 
 4738      00
 4739 2e80 04       		.byte	0x4
 4740 2e81 03       		.byte	0x3
 4741 2e82 0A       		.uleb128 0xa
 4742 2e83 05       		.uleb128 0x5
 4743 2e84 01       		.byte	0x1
 4744 2e85 02       		.uleb128 0x2
 4745 2e86 5F4F535F 		.ascii "_OS_TASK_COMMON_H_ \0"
 4745      5441534B 
 4745      5F434F4D 
 4745      4D4F4E5F 
 4745      485F2000 
 4746 2e9a 03       		.byte	0x3
 4747 2e9b 03       		.uleb128 0x3
 4748 2e9c 09       		.uleb128 0x9
 4749 2e9d 04       		.byte	0x4
 4750              		.file 18 "C:/Users/president/Desktop/sbx/input/src/os_base/os_task_config.h"
 4751 2e9e 03       		.byte	0x3
 4752 2e9f 04       		.uleb128 0x4
 4753 2ea0 12       		.uleb128 0x12
 4754 2ea1 01       		.byte	0x1
 4755 2ea2 02       		.uleb128 0x2
 4756 2ea3 5F4F535F 		.ascii "_OS_TASK_CONFIG_H_ \0"
 4756      5441534B 
 4756      5F434F4E 
GAS LISTING C:\Users\PRESID~1\AppData\Local\Temp\ccM0pvSr.s 			page 138


 4756      4649475F 
 4756      485F2000 
 4757 2eb7 01       		.byte	0x1
 4758 2eb8 05       		.uleb128 0x5
 4759 2eb9 5441534B 		.ascii "TASK_MIN_TIME (1e0)\0"
 4759      5F4D494E 
 4759      5F54494D 
 4759      45202831 
 4759      65302900 
 4760 2ecd 01       		.byte	0x1
 4761 2ece 06       		.uleb128 0x6
 4762 2ecf 4E554D42 		.ascii "NUMBER_OF_TASKS 10u\0"
 4762      45525F4F 
 4762      465F5441 
 4762      534B5320 
 4762      31307500 
 4763 2ee3 01       		.byte	0x1
 4764 2ee4 07       		.uleb128 0x7
 4765 2ee5 4D41585F 		.ascii "MAX_RUN_QUEUE_SIZE (NUMBER_OF_TASKS)\0"
 4765      52554E5F 
 4765      51554555 
 4765      455F5349 
 4765      5A452028 
 4766 2f0a 01       		.byte	0x1
 4767 2f0b 08       		.uleb128 0x8
 4768 2f0c 4D41585F 		.ascii "MAX_RUN_PQUEUE_SIZE MAX_RUN_QUEUE_SIZE\0"
 4768      52554E5F 
 4768      50515545 
 4768      55455F53 
 4768      495A4520 
 4769 2f33 01       		.byte	0x1
 4770 2f34 0A       		.uleb128 0xa
 4771 2f35 5441534B 		.ascii "TASK0_STACK_SIZE 2000u\0"
 4771      305F5354 
 4771      41434B5F 
 4771      53495A45 
 4771      20323030 
 4772 2f4c 01       		.byte	0x1
 4773 2f4d 0B       		.uleb128 0xb
 4774 2f4e 5441534B 		.ascii "TASK1_STACK_SIZE 2000u\0"
 4774      315F5354 
 4774      41434B5F 
 4774      53495A45 
 4774      20323030 
 4775 2f65 01       		.byte	0x1
 4776 2f66 0C       		.uleb128 0xc
 4777 2f67 5441534B 		.ascii "TASK2_STACK_SIZE 2000u\0"
 4777      325F5354 
 4777      41434B5F 
 4777      53495A45 
 4777      20323030 
 4778 2f7e 01       		.byte	0x1
 4779 2f7f 0D       		.uleb128 0xd
 4780 2f80 5441534B 		.ascii "TASK3_STACK_SIZE 2000u\0"
 4780      335F5354 
 4780      41434B5F 
 4780      53495A45 
GAS LISTING C:\Users\PRESID~1\AppData\Local\Temp\ccM0pvSr.s 			page 139


 4780      20323030 
 4781 2f97 01       		.byte	0x1
 4782 2f98 0E       		.uleb128 0xe
 4783 2f99 5441534B 		.ascii "TASK4_STACK_SIZE 2000u\0"
 4783      345F5354 
 4783      41434B5F 
 4783      53495A45 
 4783      20323030 
 4784 2fb0 01       		.byte	0x1
 4785 2fb1 12       		.uleb128 0x12
 4786 2fb2 4D535F50 		.ascii "MS_PER_SEC 1000u\0"
 4786      45525F53 
 4786      45432031 
 4786      30303075 
 4786      00
 4787 2fc3 01       		.byte	0x1
 4788 2fc4 13       		.uleb128 0x13
 4789 2fc5 5553455F 		.ascii "USE_STATIC_CREATED_TASKS TRUE\0"
 4789      53544154 
 4789      49435F43 
 4789      52454154 
 4789      45445F54 
 4790 2fe3 04       		.byte	0x4
 4791              		.file 19 "C:/Users/president/Desktop/sbx/input/src/os_base/os_init_task_system.h"
 4792 2fe4 03       		.byte	0x3
 4793 2fe5 05       		.uleb128 0x5
 4794 2fe6 13       		.uleb128 0x13
 4795 2fe7 01       		.byte	0x1
 4796 2fe8 02       		.uleb128 0x2
 4797 2fe9 5F4F535F 		.ascii "_OS_INIT_TASK_SYSTEM_H_ \0"
 4797      494E4954 
 4797      5F544153 
 4797      4B5F5359 
 4797      5354454D 
 4798 3002 04       		.byte	0x4
 4799 3003 01       		.byte	0x1
 4800 3004 5F       		.uleb128 0x5f
 4801 3005 4F535F53 		.ascii "OS_SAVE_TASK_PTR(task_ptr,task_name) (TASK_PTR[(task_name)] = (task_ptr))\0"
 4801      4156455F 
 4801      5441534B 
 4801      5F505452 
 4801      28746173 
 4802 304f 01       		.byte	0x1
 4803 3050 60       		.uleb128 0x60
 4804 3051 4F535F47 		.ascii "OS_GET_TASK_PTR(task_name) ((task_t*) TASK_PTR[(task_name)])\0"
 4804      45545F54 
 4804      41534B5F 
 4804      50545228 
 4804      7461736B 
 4805 308e 04       		.byte	0x4
 4806 308f 04       		.byte	0x4
 4807              		.file 20 "c:/users/president/desktop/sbx/input/src/os_user_code/led.h"
 4808 3090 03       		.byte	0x3
 4809 3091 0D       		.uleb128 0xd
 4810 3092 14       		.uleb128 0x14
 4811 3093 01       		.byte	0x1
 4812 3094 02       		.uleb128 0x2
GAS LISTING C:\Users\PRESID~1\AppData\Local\Temp\ccM0pvSr.s 			page 140


 4813 3095 5F4C4544 		.ascii "_LED_H_ \0"
 4813      5F485F20 
 4813      00
 4814 309e 04       		.byte	0x4
 4815 309f 03       		.byte	0x3
 4816 30a0 0F       		.uleb128 0xf
 4817 30a1 07       		.uleb128 0x7
 4818 30a2 01       		.byte	0x1
 4819 30a3 02       		.uleb128 0x2
 4820 30a4 5F4F535F 		.ascii "_OS_RAM_H_ \0"
 4820      52414D5F 
 4820      485F2000 
 4821              		.file 21 "C:/Users/president/Desktop/sbx/input/src/os_base/os_stack.h"
 4822 30b0 03       		.byte	0x3
 4823 30b1 05       		.uleb128 0x5
 4824 30b2 15       		.uleb128 0x15
 4825 30b3 01       		.byte	0x1
 4826 30b4 02       		.uleb128 0x2
 4827 30b5 5F4F535F 		.ascii "_OS_STACK_H_ \0"
 4827      53544143 
 4827      4B5F485F 
 4827      2000
 4828 30c3 04       		.byte	0x4
 4829              		.file 22 "C:/Users/president/Desktop/sbx/input/src/os_base/os_heap.h"
 4830 30c4 03       		.byte	0x3
 4831 30c5 06       		.uleb128 0x6
 4832 30c6 16       		.uleb128 0x16
 4833 30c7 01       		.byte	0x1
 4834 30c8 02       		.uleb128 0x2
 4835 30c9 5F4F535F 		.ascii "_OS_HEAP_H_ \0"
 4835      48454150 
 4835      5F485F20 
 4835      00
 4836 30d6 04       		.byte	0x4
 4837 30d7 03       		.byte	0x3
 4838 30d8 07       		.uleb128 0x7
 4839 30d9 06       		.uleb128 0x6
 4840 30da 01       		.byte	0x1
 4841 30db 02       		.uleb128 0x2
 4842 30dc 5F4F535F 		.ascii "_OS_MAIN_H_ \0"
 4842      4D41494E 
 4842      5F485F20 
 4842      00
 4843 30e9 04       		.byte	0x4
 4844              		.file 23 "C:/Users/president/Desktop/sbx/input/src/os_base/os_task_common.h"
 4845 30ea 03       		.byte	0x3
 4846 30eb 09       		.uleb128 0x9
 4847 30ec 17       		.uleb128 0x17
 4848 30ed 04       		.byte	0x4
 4849 30ee 04       		.byte	0x4
 4850 30ef 03       		.byte	0x3
 4851 30f0 10       		.uleb128 0x10
 4852 30f1 08       		.uleb128 0x8
 4853 30f2 01       		.byte	0x1
 4854 30f3 02       		.uleb128 0x2
 4855 30f4 5F4F535F 		.ascii "_OS_RAM_STACK_H_ \0"
 4855      52414D5F 
GAS LISTING C:\Users\PRESID~1\AppData\Local\Temp\ccM0pvSr.s 			page 141


 4855      53544143 
 4855      4B5F485F 
 4855      2000
 4856 3106 04       		.byte	0x4
 4857 3107 04       		.byte	0x4
 4858              		.file 24 "C:/Users/president/Desktop/sbx/input/src/os_base/os_common.h"
 4859 3108 03       		.byte	0x3
 4860 3109 02       		.uleb128 0x2
 4861 310a 18       		.uleb128 0x18
 4862 310b 04       		.byte	0x4
 4863              		.file 25 "C:/Users/president/Desktop/sbx/input/src/os_base/os_task_scheduler.h"
 4864 310c 03       		.byte	0x3
 4865 310d 04       		.uleb128 0x4
 4866 310e 19       		.uleb128 0x19
 4867 310f 01       		.byte	0x1
 4868 3110 02       		.uleb128 0x2
 4869 3111 5F4F535F 		.ascii "_OS_TASK_SCHEDULER_H_ \0"
 4869      5441534B 
 4869      5F534348 
 4869      4544554C 
 4869      45525F48 
 4870 3128 01       		.byte	0x1
 4871 3129 07       		.uleb128 0x7
 4872 312a 5441534B 		.ascii "TASK_0_PTR 0u\0"
 4872      5F305F50 
 4872      54522030 
 4872      7500
 4873 3138 01       		.byte	0x1
 4874 3139 08       		.uleb128 0x8
 4875 313a 5441534B 		.ascii "TASK_1_PTR 1u\0"
 4875      5F315F50 
 4875      54522031 
 4875      7500
 4876 3148 01       		.byte	0x1
 4877 3149 09       		.uleb128 0x9
 4878 314a 5441534B 		.ascii "TASK_2_PTR 2u\0"
 4878      5F325F50 
 4878      54522032 
 4878      7500
 4879 3158 01       		.byte	0x1
 4880 3159 0A       		.uleb128 0xa
 4881 315a 5441534B 		.ascii "TASK_3_PTR 3u\0"
 4881      5F335F50 
 4881      54522033 
 4881      7500
 4882 3168 04       		.byte	0x4
 4883              		.file 26 "C:/Users/president/Desktop/sbx/input/src/os_base/os_task_queue.h"
 4884 3169 03       		.byte	0x3
 4885 316a 05       		.uleb128 0x5
 4886 316b 1A       		.uleb128 0x1a
 4887 316c 01       		.byte	0x1
 4888 316d 02       		.uleb128 0x2
 4889 316e 5F4F535F 		.ascii "_OS_TASK_QUEUE_H_ \0"
 4889      5441534B 
 4889      5F515545 
 4889      55455F48 
 4889      5F2000
GAS LISTING C:\Users\PRESID~1\AppData\Local\Temp\ccM0pvSr.s 			page 142


 4890 3181 01       		.byte	0x1
 4891 3182 06       		.uleb128 0x6
 4892 3183 46495253 		.ascii "FIRST_TASK (0u)\0"
 4892      545F5441 
 4892      534B2028 
 4892      30752900 
 4893 3193 01       		.byte	0x1
 4894 3194 07       		.uleb128 0x7
 4895 3195 4C415354 		.ascii "LAST_TASK (MAX_RUN_QUEUE_SIZE-1u)\0"
 4895      5F544153 
 4895      4B20284D 
 4895      41585F52 
 4895      554E5F51 
 4896 31b7 01       		.byte	0x1
 4897 31b8 09       		.uleb128 0x9
 4898 31b9 464F525F 		.ascii "FOR_ALL_TASKS_IN_QUEUE(var) for((var) = FIRST_TASK; (var) <= LAST_TASK; (var)++)\0"
 4898      414C4C5F 
 4898      5441534B 
 4898      535F494E 
 4898      5F515545 
 4899 320a 04       		.byte	0x4
 4900              		.file 27 "C:/Users/president/Desktop/sbx/input/src/os_base/os_exception.h"
 4901 320b 03       		.byte	0x3
 4902 320c 07       		.uleb128 0x7
 4903 320d 1B       		.uleb128 0x1b
 4904 320e 01       		.byte	0x1
 4905 320f 02       		.uleb128 0x2
 4906 3210 5F4F535F 		.ascii "_OS_EXCEPTION_H_ \0"
 4906      45584345 
 4906      5054494F 
 4906      4E5F485F 
 4906      2000
 4907 3222 01       		.byte	0x1
 4908 3223 05       		.uleb128 0x5
 4909 3224 48415244 		.ascii "HARDFAULT_STATUS_REG ((volatile uint32*)0xE000ED2Cu)\0"
 4909      4641554C 
 4909      545F5354 
 4909      41545553 
 4909      5F524547 
 4910 3259 01       		.byte	0x1
 4911 325a 06       		.uleb128 0x6
 4912 325b 4D454D5F 		.ascii "MEM_MANAG_FAULT_STATUS_REG ((volatile uint8*)0xE000ED28u)\0"
 4912      4D414E41 
 4912      475F4641 
 4912      554C545F 
 4912      53544154 
 4913 3295 01       		.byte	0x1
 4914 3296 07       		.uleb128 0x7
 4915 3297 4255535F 		.ascii "BUS_FAULT_STATUS_REG ((volatile uint8*)0xE000ED29u)\0"
 4915      4641554C 
 4915      545F5354 
 4915      41545553 
 4915      5F524547 
 4916 32cb 01       		.byte	0x1
 4917 32cc 08       		.uleb128 0x8
 4918 32cd 55534147 		.ascii "USAGE_FAULT_STATUS_REG ((volatile uint16*)0xE000ED2Au)\0"
 4918      455F4641 
GAS LISTING C:\Users\PRESID~1\AppData\Local\Temp\ccM0pvSr.s 			page 143


 4918      554C545F 
 4918      53544154 
 4918      55535F52 
 4919 3304 01       		.byte	0x1
 4920 3305 09       		.uleb128 0x9
 4921 3306 4D454D5F 		.ascii "MEM_FAULT_ADDR_REG ((volatile uint32*)0xE000ED34u)\0"
 4921      4641554C 
 4921      545F4144 
 4921      44525F52 
 4921      45472028 
 4922 3339 01       		.byte	0x1
 4923 333a 0A       		.uleb128 0xa
 4924 333b 4255535F 		.ascii "BUS_FAULT_ADDR_REG ((volatile uint32*)0xE000ED38u)\0"
 4924      4641554C 
 4924      545F4144 
 4924      44525F52 
 4924      45472028 
 4925 336e 01       		.byte	0x1
 4926 336f 0B       		.uleb128 0xb
 4927 3370 4155585F 		.ascii "AUX_FAULT_STATUS_REG ((volatile uint32*)0xE000ED3Cu)\0"
 4927      4641554C 
 4927      545F5354 
 4927      41545553 
 4927      5F524547 
 4928 33a5 01       		.byte	0x1
 4929 33a6 0E       		.uleb128 0xe
 4930 33a7 53595354 		.ascii "SYSTICK_CTRL_STAT_REG ((uint32*)0xE000E010u)\0"
 4930      49434B5F 
 4930      4354524C 
 4930      5F535441 
 4930      545F5245 
 4931 33d4 01       		.byte	0x1
 4932 33d5 0F       		.uleb128 0xf
 4933 33d6 53595354 		.ascii "SYSTICK_RLD_VAL_REG ((uint32*)0xE000E014u)\0"
 4933      49434B5F 
 4933      524C445F 
 4933      56414C5F 
 4933      52454720 
 4934 3401 01       		.byte	0x1
 4935 3402 10       		.uleb128 0x10
 4936 3403 53595354 		.ascii "SYSTICK_CURRENT_VAL_REG ((uint32*)0xE000E018u)\0"
 4936      49434B5F 
 4936      43555252 
 4936      454E545F 
 4936      56414C5F 
 4937 3432 01       		.byte	0x1
 4938 3433 11       		.uleb128 0x11
 4939 3434 53595354 		.ascii "SYSTICK_CALIB_VAL_REG ((uint32*)0xE000E01Cu)\0"
 4939      49434B5F 
 4939      43414C49 
 4939      425F5641 
 4939      4C5F5245 
 4940 3461 01       		.byte	0x1
 4941 3462 12       		.uleb128 0x12
 4942 3463 53595354 		.ascii "SYSTICK_STAT_REG_CLKSRC_AHB ((uint32 )0x00000004u)\0"
 4942      49434B5F 
 4942      53544154 
GAS LISTING C:\Users\PRESID~1\AppData\Local\Temp\ccM0pvSr.s 			page 144


 4942      5F524547 
 4942      5F434C4B 
 4943 3496 01       		.byte	0x1
 4944 3497 13       		.uleb128 0x13
 4945 3498 53595354 		.ascii "SYSTICK_STAT_REG_CLKSRC_AHB_8 ((uint32 )0x00000000u)\0"
 4945      49434B5F 
 4945      53544154 
 4945      5F524547 
 4945      5F434C4B 
 4946 34cd 01       		.byte	0x1
 4947 34ce 14       		.uleb128 0x14
 4948 34cf 53595354 		.ascii "SYSTICK_STAT_REG_TICKINT ((uint32 )0x00000002u)\0"
 4948      49434B5F 
 4948      53544154 
 4948      5F524547 
 4948      5F544943 
 4949 34ff 01       		.byte	0x1
 4950 3500 15       		.uleb128 0x15
 4951 3501 53595354 		.ascii "SYSTICK_STAT_REG_ENABLE ((uint32 )0x00000001u)\0"
 4951      49434B5F 
 4951      53544154 
 4951      5F524547 
 4951      5F454E41 
 4952 3530 01       		.byte	0x1
 4953 3531 18       		.uleb128 0x18
 4954 3532 5359535F 		.ascii "SYS_HANDLER_CTRL_STATE_REG ((uint32*)0xE000ED24u)\0"
 4954      48414E44 
 4954      4C45525F 
 4954      4354524C 
 4954      5F535441 
 4955 3564 01       		.byte	0x1
 4956 3565 19       		.uleb128 0x19
 4957 3566 5359535F 		.ascii "SYS_HANDLER_CTRL_STATE_BIT_MASK_USGFAULTENA ((uint32 )0x00040000u)\0"
 4957      48414E44 
 4957      4C45525F 
 4957      4354524C 
 4957      5F535441 
 4958 35a9 01       		.byte	0x1
 4959 35aa 1A       		.uleb128 0x1a
 4960 35ab 5359535F 		.ascii "SYS_HANDLER_CTRL_STATE_BIT_MASK_BUSFAULTENA ((uint32 )0x00020000u)\0"
 4960      48414E44 
 4960      4C45525F 
 4960      4354524C 
 4960      5F535441 
 4961 35ee 01       		.byte	0x1
 4962 35ef 1B       		.uleb128 0x1b
 4963 35f0 5359535F 		.ascii "SYS_HANDLER_CTRL_STATE_BIT_MASK_MEMFAULTENA ((uint32 )0x00010000u)\0"
 4963      48414E44 
 4963      4C45525F 
 4963      4354524C 
 4963      5F535441 
 4964 3633 01       		.byte	0x1
 4965 3634 1C       		.uleb128 0x1c
 4966 3635 5359535F 		.ascii "SYS_HANDLER_CTRL_STATE_ENA_ALL_EXCEP (*SYS_HANDLER_CTRL_STATE_REG = *SYS_HANDLER_CTRL_STAT
 4966      48414E44 
 4966      4C45525F 
 4966      4354524C 
GAS LISTING C:\Users\PRESID~1\AppData\Local\Temp\ccM0pvSr.s 			page 145


 4966      5F535441 
 4967 3720 04       		.byte	0x4
 4968 3721 04       		.byte	0x4
 4969 3722 00       		.byte	0
 4970              		.section	.debug_line,"dr"
 4971              	Ldebug_line0:
 4972 0000 7F060000 		.section	.debug_str,"dr"
 4972      03009502 
 4972      00000101 
 4972      FB0E0D00 
 4972      01010101 
 4973              	LASF2:
 4974 0000 7461736B 		.ascii "task_ptr\0"
 4974      5F707472 
 4974      00
 4975              	LASF0:
 4976 0009 6578655F 		.ascii "exe_time\0"
 4976      74696D65 
 4976      00
 4977              	LASF4:
 4978 0012 73636865 		.ascii "scheduling_task\0"
 4978      64756C69 
 4978      6E675F74 
 4978      61736B00 
 4979              	LASF1:
 4980 0022 7461736B 		.ascii "task\0"
 4980      00
 4981              	LASF3:
 4982 0027 73636865 		.ascii "scheduling_task_ptr\0"
 4982      64756C69 
 4982      6E675F74 
 4982      61736B5F 
 4982      70747200 
 4983              		.ident	"GCC: (MinGW.org GCC-8.2.0-3) 8.2.0"
GAS LISTING C:\Users\PRESID~1\AppData\Local\Temp\ccM0pvSr.s 			page 146


DEFINED SYMBOLS
                            *ABS*:00000000 os_task_scheduler.c
C:\Users\PRESID~1\AppData\Local\Temp\ccM0pvSr.s:6      .text:00000000 _OS_ACTIVATE_DISPATCHER
C:\Users\PRESID~1\AppData\Local\Temp\ccM0pvSr.s:26     .text:00000006 _OS_SLEEP_TASK
C:\Users\PRESID~1\AppData\Local\Temp\ccM0pvSr.s:66     .text:00000048 _OS_TASK_STATE_REQUEST
C:\Users\PRESID~1\AppData\Local\Temp\ccM0pvSr.s:237    .text:00000185 _OS_CREATE_TASK
C:\Users\PRESID~1\AppData\Local\Temp\ccM0pvSr.s:296    .text:000001f8 _os_preempt_task
C:\Users\PRESID~1\AppData\Local\Temp\ccM0pvSr.s:380    .text:000002a4 _OS_ACTIVATE_TASK
C:\Users\PRESID~1\AppData\Local\Temp\ccM0pvSr.s:496    .text:0000038c _OS_START_TASK
C:\Users\PRESID~1\AppData\Local\Temp\ccM0pvSr.s:629    .text:000004aa _OS_TERMINATE_TASK
C:\Users\PRESID~1\AppData\Local\Temp\ccM0pvSr.s:721    .text:00000570 _OS_TASK_DISPATCHER
C:\Users\PRESID~1\AppData\Local\Temp\ccM0pvSr.s:786    .text:000005e8 _task_0
C:\Users\PRESID~1\AppData\Local\Temp\ccM0pvSr.s:804    .text:000005ee _task_1
C:\Users\PRESID~1\AppData\Local\Temp\ccM0pvSr.s:838    .text:00000623 _task_2
C:\Users\PRESID~1\AppData\Local\Temp\ccM0pvSr.s:872    .text:00000658 _task_3
C:\Users\PRESID~1\AppData\Local\Temp\ccM0pvSr.s:907    .text:0000068d _OS_INIT_TASKS
C:\Users\PRESID~1\AppData\Local\Temp\ccM0pvSr.s:1021   .text:00000862 _os_task_scheduler

UNDEFINED SYMBOLS
_TASK_TRANSITION_REJECTED_TASK_ADDR
_TASK_TRANSITION_REJECTED_STATE
_TASK_TRANSITION_CURRENT_STATE
_OS_MAIN_STACK
_TASK1_CALL_NR
_LAST_CURRENT_TIME
_TASK_0_VAR
_TASK0_STACK
_TASK_GROUP_1
_TASK_PTR
_TASK_1_VAR
_TASK1_STACK
_TASK_2_VAR
_TASK2_STACK
_TASK_GROUP_2
_TASK_3_VAR
_TASK3_STACK
_TASK_GROUP_3
_OS_GET_CURRENT_TIME
_INT_ADD
_OS_SET_SW_BUG
_OS_TASK_SAVE_TASK_ENVIRONMENT
_OS_TASK_RESTORE_SYSTEM_STACK
_ADD_TO_TASK_QUEUE
_ADD_TO_SCHEDULING_QUEUE
_ADD_TO_IDLE_TASK_QUEUE
_ASSIGN_NULL
_OS_TASK_SAVE_SYSTEM_STACK
_OS_TASK_RESTORETASK_ENVIRONMENT
_ASSIGN
_SET_RUNNING_TASK
_LLF_CHANGE_TO_UNPRIVILIGED_THREAD_MODE
_DELETE_FROM_TASK_QUEUE
_DELETE_FROM_SCHEDULING_QUEUE
_GET_RUNNING_TASK
_GET_RUNNING_SCHEDULING_QUEUE_ELEMENT_PTR
_GET_FROM_TASK_QUEUE
_OS_INIT_TASK_QUEUE
GAS LISTING C:\Users\PRESID~1\AppData\Local\Temp\ccM0pvSr.s 			page 147


_OS_INIT_TASK
_INT_SUB
_GET_FROM_SCHEDULING_QUEUE
_IS_GREATER_OR_EQUAL
_IS_GREATER
_ASSIGN_UINT32
