GAS LISTING C:\Users\PRESID~1\AppData\Local\Temp\ccHWasuY.s 			page 1


   1              		.file	"os_task_queue.c"
   2              		.text
   3              	Ltext0:
   4              		.globl	_SET_RUNNING_TASK
   6              	_SET_RUNNING_TASK:
   7              	LFB0:
   8              		.file 1 "E:/NeuOrga/Programmieren/c_cpp/github_os/input/src/os_base/os_task_queue.c"
   1:E:/NeuOrga/Programmieren/c_cpp/github_os/input/src/os_base\os_task_queue.c **** #include "os_firstinc.h"
   2:E:/NeuOrga/Programmieren/c_cpp/github_os/input/src/os_base\os_task_queue.c **** #include "os_task_common.h"
   3:E:/NeuOrga/Programmieren/c_cpp/github_os/input/src/os_base\os_task_queue.c **** #include "os_task_queue.h"
   4:E:/NeuOrga/Programmieren/c_cpp/github_os/input/src/os_base\os_task_queue.c **** #include "os_task_scheduler.h"
   5:E:/NeuOrga/Programmieren/c_cpp/github_os/input/src/os_base\os_task_queue.c **** 
   6:E:/NeuOrga/Programmieren/c_cpp/github_os/input/src/os_base\os_task_queue.c **** 
   7:E:/NeuOrga/Programmieren/c_cpp/github_os/input/src/os_base\os_task_queue.c **** 
   8:E:/NeuOrga/Programmieren/c_cpp/github_os/input/src/os_base\os_task_queue.c **** 
   9:E:/NeuOrga/Programmieren/c_cpp/github_os/input/src/os_base\os_task_queue.c **** 
  10:E:/NeuOrga/Programmieren/c_cpp/github_os/input/src/os_base\os_task_queue.c **** /* index 0: current task, 1,2,3,4: next tasks to be executed */
  11:E:/NeuOrga/Programmieren/c_cpp/github_os/input/src/os_base\os_task_queue.c **** /*
  12:E:/NeuOrga/Programmieren/c_cpp/github_os/input/src/os_base\os_task_queue.c **** 1. after execution of task finished(OS_TERMINATE_TASK):
  13:E:/NeuOrga/Programmieren/c_cpp/github_os/input/src/os_base\os_task_queue.c ****  - delete run_queue_element         (DELETE_FROM_TASK_QUEUE)
  14:E:/NeuOrga/Programmieren/c_cpp/github_os/input/src/os_base\os_task_queue.c ****  - delete Scheduling queue entry    (DELETE_FROM_SCHEDULING_QUEUE)
  15:E:/NeuOrga/Programmieren/c_cpp/github_os/input/src/os_base\os_task_queue.c ****  - shift pointers towards index 0   (UpdateSchedulingQueue)
  16:E:/NeuOrga/Programmieren/c_cpp/github_os/input/src/os_base\os_task_queue.c **** 
  17:E:/NeuOrga/Programmieren/c_cpp/github_os/input/src/os_base\os_task_queue.c **** 
  18:E:/NeuOrga/Programmieren/c_cpp/github_os/input/src/os_base\os_task_queue.c ****  2. to add new task (ActivateTask):
  19:E:/NeuOrga/Programmieren/c_cpp/github_os/input/src/os_base\os_task_queue.c ****  - add element to run_queue at first free element (ADD_TO_TASK_QUEUE)
  20:E:/NeuOrga/Programmieren/c_cpp/github_os/input/src/os_base\os_task_queue.c ****  - add a reference to the scheduling Queue         (ADD_TO_SCHEDULING_QUEUE)
  21:E:/NeuOrga/Programmieren/c_cpp/github_os/input/src/os_base\os_task_queue.c **** 
  22:E:/NeuOrga/Programmieren/c_cpp/github_os/input/src/os_base\os_task_queue.c ****  3. to start task:
  23:E:/NeuOrga/Programmieren/c_cpp/github_os/input/src/os_base\os_task_queue.c **** - start the task at index = 0                     (GET_FROM_TASK_QUEUE)
  24:E:/NeuOrga/Programmieren/c_cpp/github_os/input/src/os_base\os_task_queue.c **** 
  25:E:/NeuOrga/Programmieren/c_cpp/github_os/input/src/os_base\os_task_queue.c ****  4. to preempt task:
  26:E:/NeuOrga/Programmieren/c_cpp/github_os/input/src/os_base\os_task_queue.c **** - take element of index = 0 of SchedulingQueue and save it somewhere else  (UpdateSchedulingQueue)
  27:E:/NeuOrga/Programmieren/c_cpp/github_os/input/src/os_base\os_task_queue.c **** - shift all entries in SchedulingQueue to 0 by 1                           (UpdateSchedulingQueue)
  28:E:/NeuOrga/Programmieren/c_cpp/github_os/input/src/os_base\os_task_queue.c **** - add saved element at first free entry in SchedulingQueue                 (UpdateSchedulingQueue)
  29:E:/NeuOrga/Programmieren/c_cpp/github_os/input/src/os_base\os_task_queue.c **** - eliminate empty SchedulingQueue entries                                  (UpdateSchedulingQueue)
  30:E:/NeuOrga/Programmieren/c_cpp/github_os/input/src/os_base\os_task_queue.c ****  */
  31:E:/NeuOrga/Programmieren/c_cpp/github_os/input/src/os_base\os_task_queue.c **** 
  32:E:/NeuOrga/Programmieren/c_cpp/github_os/input/src/os_base\os_task_queue.c **** 
  33:E:/NeuOrga/Programmieren/c_cpp/github_os/input/src/os_base\os_task_queue.c **** void SET_RUNNING_TASK(task_t* task, scheduling_t* scheduling_task)
  34:E:/NeuOrga/Programmieren/c_cpp/github_os/input/src/os_base\os_task_queue.c **** {
   9              		.loc 1 34 0
  10              		.cfi_startproc
  11 0000 55       		pushl	%ebp
  12              		.cfi_def_cfa_offset 8
  13              		.cfi_offset 5, -8
  14 0001 89E5     		movl	%esp, %ebp
  15              		.cfi_def_cfa_register 5
  16 0003 83EC18   		subl	$24, %esp
  35:E:/NeuOrga/Programmieren/c_cpp/github_os/input/src/os_base\os_task_queue.c ****    RUNNING_SCHEDULING_QUEUE_ENTRY = scheduling_task;
  17              		.loc 1 35 0
  18 0006 8B450C   		movl	12(%ebp), %eax
  19 0009 A3000000 		movl	%eax, _RUNNING_SCHEDULING_QUEUE_ENTRY
  19      00
  36:E:/NeuOrga/Programmieren/c_cpp/github_os/input/src/os_base\os_task_queue.c ****    if(task != 0u)
  20              		.loc 1 36 0
  21 000e 837D0800 		cmpl	$0, 8(%ebp)
GAS LISTING C:\Users\PRESID~1\AppData\Local\Temp\ccHWasuY.s 			page 2


  22 0012 0F84E501 		je	L1
  22      0000
  37:E:/NeuOrga/Programmieren/c_cpp/github_os/input/src/os_base\os_task_queue.c ****    {
  38:E:/NeuOrga/Programmieren/c_cpp/github_os/input/src/os_base\os_task_queue.c ****       (&RUNNING_TASK[0u])->active                             = task->active;
  23              		.loc 1 38 0
  24 0018 8B4508   		movl	8(%ebp), %eax
  25 001b 8A00     		movb	(%eax), %al
  26 001d 83E001   		andl	$1, %eax
  27 0020 83E001   		andl	$1, %eax
  28 0023 88C2     		movb	%al, %dl
  29 0025 A0000000 		movb	_RUNNING_TASK, %al
  29      00
  30 002a 83E0FE   		andl	$-2, %eax
  31 002d 09D0     		orl	%edx, %eax
  32 002f A2000000 		movb	%al, _RUNNING_TASK
  32      00
  39:E:/NeuOrga/Programmieren/c_cpp/github_os/input/src/os_base\os_task_queue.c ****       (&RUNNING_TASK[0u])->task_queued                        = task->task_queued;
  33              		.loc 1 39 0
  34 0034 8B4508   		movl	8(%ebp), %eax
  35 0037 8A00     		movb	(%eax), %al
  36 0039 D0E8     		shrb	%al
  37 003b 83E001   		andl	$1, %eax
  38 003e 83E001   		andl	$1, %eax
  39 0041 8D1400   		leal	(%eax,%eax), %edx
  40 0044 A0000000 		movb	_RUNNING_TASK, %al
  40      00
  41 0049 83E0FD   		andl	$-3, %eax
  42 004c 09D0     		orl	%edx, %eax
  43 004e A2000000 		movb	%al, _RUNNING_TASK
  43      00
  40:E:/NeuOrga/Programmieren/c_cpp/github_os/input/src/os_base\os_task_queue.c ****       (&RUNNING_TASK[0u])->idle_task                          = task->idle_task;
  44              		.loc 1 40 0
  45 0053 8B4508   		movl	8(%ebp), %eax
  46 0056 8A00     		movb	(%eax), %al
  47 0058 C0E802   		shrb	$2, %al
  48 005b 83E001   		andl	$1, %eax
  49 005e 83E001   		andl	$1, %eax
  50 0061 8D148500 		leal	0(,%eax,4), %edx
  50      000000
  51 0068 A0000000 		movb	_RUNNING_TASK, %al
  51      00
  52 006d 83E0FB   		andl	$-5, %eax
  53 0070 09D0     		orl	%edx, %eax
  54 0072 A2000000 		movb	%al, _RUNNING_TASK
  54      00
  41:E:/NeuOrga/Programmieren/c_cpp/github_os/input/src/os_base\os_task_queue.c ****       (&RUNNING_TASK[0u])->free                               = task->free;
  55              		.loc 1 41 0
  56 0077 8B4508   		movl	8(%ebp), %eax
  57 007a 8B00     		movl	(%eax), %eax
  58 007c C1E803   		shrl	$3, %eax
  59 007f 8D14C500 		leal	0(,%eax,8), %edx
  59      000000
  60 0086 A1000000 		movl	_RUNNING_TASK, %eax
  60      00
  61 008b 83E007   		andl	$7, %eax
  62 008e 09D0     		orl	%edx, %eax
  63 0090 A3000000 		movl	%eax, _RUNNING_TASK
GAS LISTING C:\Users\PRESID~1\AppData\Local\Temp\ccHWasuY.s 			page 3


  63      00
  42:E:/NeuOrga/Programmieren/c_cpp/github_os/input/src/os_base\os_task_queue.c ****       (&RUNNING_TASK[0u])->nr_of_ins_allowed                  = task->nr_of_ins_allowed;
  64              		.loc 1 42 0
  65 0095 8B4508   		movl	8(%ebp), %eax
  66 0098 8A4004   		movb	4(%eax), %al
  67 009b A2040000 		movb	%al, _RUNNING_TASK+4
  67      00
  43:E:/NeuOrga/Programmieren/c_cpp/github_os/input/src/os_base\os_task_queue.c ****       (&RUNNING_TASK[0u])->nr_of_ins_activated                = task->nr_of_ins_activated;
  68              		.loc 1 43 0
  69 00a0 8B4508   		movl	8(%ebp), %eax
  70 00a3 8A4005   		movb	5(%eax), %al
  71 00a6 A2050000 		movb	%al, _RUNNING_TASK+5
  71      00
  44:E:/NeuOrga/Programmieren/c_cpp/github_os/input/src/os_base\os_task_queue.c ****       ASSIGN(&(&RUNNING_TASK[0u])->wait_act_until, &task->wait_act_until);
  72              		.loc 1 44 0
  73 00ab 8B4508   		movl	8(%ebp), %eax
  74 00ae 83C006   		addl	$6, %eax
  75 00b1 89442404 		movl	%eax, 4(%esp)
  76 00b5 C7042406 		movl	$_RUNNING_TASK+6, (%esp)
  76      000000
  77 00bc E8000000 		call	_ASSIGN
  77      00
  45:E:/NeuOrga/Programmieren/c_cpp/github_os/input/src/os_base\os_task_queue.c ****       ASSIGN(&(&RUNNING_TASK[0u])->wait_time, &task->wait_time);
  78              		.loc 1 45 0
  79 00c1 8B4508   		movl	8(%ebp), %eax
  80 00c4 83C016   		addl	$22, %eax
  81 00c7 89442404 		movl	%eax, 4(%esp)
  82 00cb C7042416 		movl	$_RUNNING_TASK+22, (%esp)
  82      000000
  83 00d2 E8000000 		call	_ASSIGN
  83      00
  46:E:/NeuOrga/Programmieren/c_cpp/github_os/input/src/os_base\os_task_queue.c ****       ASSIGN(&(&RUNNING_TASK[0u])->time_to_prio_inc, &task->time_to_prio_inc);
  84              		.loc 1 46 0
  85 00d7 8B4508   		movl	8(%ebp), %eax
  86 00da 83C026   		addl	$38, %eax
  87 00dd 89442404 		movl	%eax, 4(%esp)
  88 00e1 C7042426 		movl	$_RUNNING_TASK+38, (%esp)
  88      000000
  89 00e8 E8000000 		call	_ASSIGN
  89      00
  47:E:/NeuOrga/Programmieren/c_cpp/github_os/input/src/os_base\os_task_queue.c ****       (&RUNNING_TASK[0u])->overwaittime_per_prio_inc_step  = task->overwaittime_per_prio_inc_step;
  90              		.loc 1 47 0
  91 00ed 8B4508   		movl	8(%ebp), %eax
  92 00f0 8B4038   		movl	56(%eax), %eax
  93 00f3 A3380000 		movl	%eax, _RUNNING_TASK+56
  93      00
  48:E:/NeuOrga/Programmieren/c_cpp/github_os/input/src/os_base\os_task_queue.c ****       ASSIGN(&(&RUNNING_TASK[0u])->max_allowed_wait_time, &task->max_allowed_wait_time);
  94              		.loc 1 48 0
  95 00f8 8B4508   		movl	8(%ebp), %eax
  96 00fb 83C03C   		addl	$60, %eax
  97 00fe 89442404 		movl	%eax, 4(%esp)
  98 0102 C704243C 		movl	$_RUNNING_TASK+60, (%esp)
  98      000000
  99 0109 E8000000 		call	_ASSIGN
  99      00
  49:E:/NeuOrga/Programmieren/c_cpp/github_os/input/src/os_base\os_task_queue.c ****       ASSIGN(&(&RUNNING_TASK[0u])->exe_time, &task->exe_time  );
 100              		.loc 1 49 0
GAS LISTING C:\Users\PRESID~1\AppData\Local\Temp\ccHWasuY.s 			page 4


 101 010e 8B4508   		movl	8(%ebp), %eax
 102 0111 83C04C   		addl	$76, %eax
 103 0114 89442404 		movl	%eax, 4(%esp)
 104 0118 C704244C 		movl	$_RUNNING_TASK+76, (%esp)
 104      000000
 105 011f E8000000 		call	_ASSIGN
 105      00
  50:E:/NeuOrga/Programmieren/c_cpp/github_os/input/src/os_base\os_task_queue.c ****       ASSIGN(&(&RUNNING_TASK[0u])->start_time, &task->start_time);
 106              		.loc 1 50 0
 107 0124 8B4508   		movl	8(%ebp), %eax
 108 0127 83C05C   		addl	$92, %eax
 109 012a 89442404 		movl	%eax, 4(%esp)
 110 012e C704245C 		movl	$_RUNNING_TASK+92, (%esp)
 110      000000
 111 0135 E8000000 		call	_ASSIGN
 111      00
  51:E:/NeuOrga/Programmieren/c_cpp/github_os/input/src/os_base\os_task_queue.c ****       (&RUNNING_TASK[0u])->current_prio                    = task->current_prio;
 112              		.loc 1 51 0
 113 013a 8B4508   		movl	8(%ebp), %eax
 114 013d 8A406C   		movb	108(%eax), %al
 115 0140 A26C0000 		movb	%al, _RUNNING_TASK+108
 115      00
  52:E:/NeuOrga/Programmieren/c_cpp/github_os/input/src/os_base\os_task_queue.c ****       (&RUNNING_TASK[0u])->default_prio                    = task->default_prio;
 116              		.loc 1 52 0
 117 0145 8B4508   		movl	8(%ebp), %eax
 118 0148 8A406D   		movb	109(%eax), %al
 119 014b A26D0000 		movb	%al, _RUNNING_TASK+109
 119      00
  53:E:/NeuOrga/Programmieren/c_cpp/github_os/input/src/os_base\os_task_queue.c ****       (&RUNNING_TASK[0u])->fp                              = task->fp;
 120              		.loc 1 53 0
 121 0150 8B4508   		movl	8(%ebp), %eax
 122 0153 8B4074   		movl	116(%eax), %eax
 123 0156 A3740000 		movl	%eax, _RUNNING_TASK+116
 123      00
  54:E:/NeuOrga/Programmieren/c_cpp/github_os/input/src/os_base\os_task_queue.c ****       (&RUNNING_TASK[0u])->state_request                   = task->state_request;
 124              		.loc 1 54 0
 125 015b 8B4508   		movl	8(%ebp), %eax
 126 015e 8B4078   		movl	120(%eax), %eax
 127 0161 A3780000 		movl	%eax, _RUNNING_TASK+120
 127      00
  55:E:/NeuOrga/Programmieren/c_cpp/github_os/input/src/os_base\os_task_queue.c ****       (&RUNNING_TASK[0u])->task_state                      = task->task_state;
 128              		.loc 1 55 0
 129 0166 8B4508   		movl	8(%ebp), %eax
 130 0169 8B407C   		movl	124(%eax), %eax
 131 016c A37C0000 		movl	%eax, _RUNNING_TASK+124
 131      00
  56:E:/NeuOrga/Programmieren/c_cpp/github_os/input/src/os_base\os_task_queue.c ****       (&RUNNING_TASK[0u])->task_group                      = task->task_group;
 132              		.loc 1 56 0
 133 0171 8B4508   		movl	8(%ebp), %eax
 134 0174 8B808000 		movl	128(%eax), %eax
 134      0000
 135 017a A3800000 		movl	%eax, _RUNNING_TASK+128
 135      00
  57:E:/NeuOrga/Programmieren/c_cpp/github_os/input/src/os_base\os_task_queue.c **** #if(CFG_PROCESSOR == MCU_X86)
  58:E:/NeuOrga/Programmieren/c_cpp/github_os/input/src/os_base\os_task_queue.c ****       (&RUNNING_TASK[0u])->eax                             = task->eax;
 136              		.loc 1 58 0
 137 017f 8B4508   		movl	8(%ebp), %eax
GAS LISTING C:\Users\PRESID~1\AppData\Local\Temp\ccHWasuY.s 			page 5


 138 0182 8B808400 		movl	132(%eax), %eax
 138      0000
 139 0188 A3840000 		movl	%eax, _RUNNING_TASK+132
 139      00
  59:E:/NeuOrga/Programmieren/c_cpp/github_os/input/src/os_base\os_task_queue.c ****       (&RUNNING_TASK[0u])->ebx                             = task->ebx;
 140              		.loc 1 59 0
 141 018d 8B4508   		movl	8(%ebp), %eax
 142 0190 8B808800 		movl	136(%eax), %eax
 142      0000
 143 0196 A3880000 		movl	%eax, _RUNNING_TASK+136
 143      00
  60:E:/NeuOrga/Programmieren/c_cpp/github_os/input/src/os_base\os_task_queue.c ****       (&RUNNING_TASK[0u])->ecx                             = task->ecx;
 144              		.loc 1 60 0
 145 019b 8B4508   		movl	8(%ebp), %eax
 146 019e 8B808C00 		movl	140(%eax), %eax
 146      0000
 147 01a4 A38C0000 		movl	%eax, _RUNNING_TASK+140
 147      00
  61:E:/NeuOrga/Programmieren/c_cpp/github_os/input/src/os_base\os_task_queue.c ****       (&RUNNING_TASK[0u])->edx                             = task->edx;
 148              		.loc 1 61 0
 149 01a9 8B4508   		movl	8(%ebp), %eax
 150 01ac 8B809000 		movl	144(%eax), %eax
 150      0000
 151 01b2 A3900000 		movl	%eax, _RUNNING_TASK+144
 151      00
  62:E:/NeuOrga/Programmieren/c_cpp/github_os/input/src/os_base\os_task_queue.c **** #else
  63:E:/NeuOrga/Programmieren/c_cpp/github_os/input/src/os_base\os_task_queue.c ****       (&RUNNING_TASK[0u])->r0                             = task->r0;
  64:E:/NeuOrga/Programmieren/c_cpp/github_os/input/src/os_base\os_task_queue.c ****       (&RUNNING_TASK[0u])->r1                             = task->r1;
  65:E:/NeuOrga/Programmieren/c_cpp/github_os/input/src/os_base\os_task_queue.c ****       (&RUNNING_TASK[0u])->r2                             = task->r2;
  66:E:/NeuOrga/Programmieren/c_cpp/github_os/input/src/os_base\os_task_queue.c ****       (&RUNNING_TASK[0u])->r3                             = task->r3;
  67:E:/NeuOrga/Programmieren/c_cpp/github_os/input/src/os_base\os_task_queue.c ****       (&RUNNING_TASK[0u])->r4                             = task->r4;
  68:E:/NeuOrga/Programmieren/c_cpp/github_os/input/src/os_base\os_task_queue.c ****       (&RUNNING_TASK[0u])->r5                             = task->r5;
  69:E:/NeuOrga/Programmieren/c_cpp/github_os/input/src/os_base\os_task_queue.c ****       (&RUNNING_TASK[0u])->r6                             = task->r6;
  70:E:/NeuOrga/Programmieren/c_cpp/github_os/input/src/os_base\os_task_queue.c ****       (&RUNNING_TASK[0u])->r7                             = task->r7;
  71:E:/NeuOrga/Programmieren/c_cpp/github_os/input/src/os_base\os_task_queue.c ****       (&RUNNING_TASK[0u])->r8                             = task->r8;
  72:E:/NeuOrga/Programmieren/c_cpp/github_os/input/src/os_base\os_task_queue.c ****       (&RUNNING_TASK[0u])->r9                             = task->r9;
  73:E:/NeuOrga/Programmieren/c_cpp/github_os/input/src/os_base\os_task_queue.c ****       (&RUNNING_TASK[0u])->r10                            = task->r10;
  74:E:/NeuOrga/Programmieren/c_cpp/github_os/input/src/os_base\os_task_queue.c ****       (&RUNNING_TASK[0u])->r11                            = task->r11;
  75:E:/NeuOrga/Programmieren/c_cpp/github_os/input/src/os_base\os_task_queue.c ****       (&RUNNING_TASK[0u])->r12                            = task->r12;
  76:E:/NeuOrga/Programmieren/c_cpp/github_os/input/src/os_base\os_task_queue.c **** #endif
  77:E:/NeuOrga/Programmieren/c_cpp/github_os/input/src/os_base\os_task_queue.c **** 
  78:E:/NeuOrga/Programmieren/c_cpp/github_os/input/src/os_base\os_task_queue.c ****       (&RUNNING_TASK[0u])->p_stack_pointer                   = task->p_stack_pointer;
 152              		.loc 1 78 0
 153 01b7 8B4508   		movl	8(%ebp), %eax
 154 01ba 8B809400 		movl	148(%eax), %eax
 154      0000
 155 01c0 A3940000 		movl	%eax, _RUNNING_TASK+148
 155      00
  79:E:/NeuOrga/Programmieren/c_cpp/github_os/input/src/os_base\os_task_queue.c ****       (&RUNNING_TASK[0u])->p_stack_pointer_by_malloc           = task->p_stack_pointer_by_malloc;
 156              		.loc 1 79 0
 157 01c5 8B4508   		movl	8(%ebp), %eax
 158 01c8 8B809800 		movl	152(%eax), %eax
 158      0000
 159 01ce A3980000 		movl	%eax, _RUNNING_TASK+152
 159      00
  80:E:/NeuOrga/Programmieren/c_cpp/github_os/input/src/os_base\os_task_queue.c ****       (&RUNNING_TASK[0u])->p_stack_pointer_start              = task->p_stack_pointer_start;
 160              		.loc 1 80 0
GAS LISTING C:\Users\PRESID~1\AppData\Local\Temp\ccHWasuY.s 			page 6


 161 01d3 8B4508   		movl	8(%ebp), %eax
 162 01d6 8B809C00 		movl	156(%eax), %eax
 162      0000
 163 01dc A39C0000 		movl	%eax, _RUNNING_TASK+156
 163      00
  81:E:/NeuOrga/Programmieren/c_cpp/github_os/input/src/os_base\os_task_queue.c ****       (&RUNNING_TASK[0u])->stack_size                       = task->stack_size;
 164              		.loc 1 81 0
 165 01e1 8B4508   		movl	8(%ebp), %eax
 166 01e4 8B80A000 		movl	160(%eax), %eax
 166      0000
 167 01ea A3A00000 		movl	%eax, _RUNNING_TASK+160
 167      00
  82:E:/NeuOrga/Programmieren/c_cpp/github_os/input/src/os_base\os_task_queue.c ****       (&RUNNING_TASK[0u])->p_stack_pointer_end                = task->p_stack_pointer_end;
 168              		.loc 1 82 0
 169 01ef 8B4508   		movl	8(%ebp), %eax
 170 01f2 8B80A400 		movl	164(%eax), %eax
 170      0000
 171 01f8 A3A40000 		movl	%eax, _RUNNING_TASK+164
 171      00
 172              	L1:
  83:E:/NeuOrga/Programmieren/c_cpp/github_os/input/src/os_base\os_task_queue.c ****    }
  84:E:/NeuOrga/Programmieren/c_cpp/github_os/input/src/os_base\os_task_queue.c **** }
 173              		.loc 1 84 0
 174 01fd C9       		leave
 175              		.cfi_restore 5
 176              		.cfi_def_cfa 4, 4
 177 01fe C3       		ret
 178              		.cfi_endproc
 179              	LFE0:
 180              		.globl	_OS_INIT_TASK_QUEUE
 182              	_OS_INIT_TASK_QUEUE:
 183              	LFB1:
  85:E:/NeuOrga/Programmieren/c_cpp/github_os/input/src/os_base\os_task_queue.c **** 
  86:E:/NeuOrga/Programmieren/c_cpp/github_os/input/src/os_base\os_task_queue.c **** /* task queue handling */
  87:E:/NeuOrga/Programmieren/c_cpp/github_os/input/src/os_base\os_task_queue.c **** void OS_INIT_TASK_QUEUE(void)
  88:E:/NeuOrga/Programmieren/c_cpp/github_os/input/src/os_base\os_task_queue.c **** {
 184              		.loc 1 88 0
 185              		.cfi_startproc
 186 01ff 55       		pushl	%ebp
 187              		.cfi_def_cfa_offset 8
 188              		.cfi_offset 5, -8
 189 0200 89E5     		movl	%esp, %ebp
 190              		.cfi_def_cfa_register 5
 191 0202 83EC28   		subl	$40, %esp
  89:E:/NeuOrga/Programmieren/c_cpp/github_os/input/src/os_base\os_task_queue.c ****    if(bTASK_QUEUE_INITIALIZED == FALSE)
 192              		.loc 1 89 0
 193 0205 A0000000 		movb	_bTASK_QUEUE_INITIALIZED, %al
 193      00
 194 020a 84C0     		testb	%al, %al
 195 020c 7550     		jne	L3
 196              	LBB2:
  90:E:/NeuOrga/Programmieren/c_cpp/github_os/input/src/os_base\os_task_queue.c ****    {
  91:E:/NeuOrga/Programmieren/c_cpp/github_os/input/src/os_base\os_task_queue.c ****       unsigned_char_t element_nr = 0;
 197              		.loc 1 91 0
 198 020e C645F700 		movb	$0, -9(%ebp)
  92:E:/NeuOrga/Programmieren/c_cpp/github_os/input/src/os_base\os_task_queue.c ****       while(element_nr < MAX_RUN_QUEUE_SIZE)
 199              		.loc 1 92 0
GAS LISTING C:\Users\PRESID~1\AppData\Local\Temp\ccHWasuY.s 			page 7


 200 0212 EB3D     		jmp	L5
 201              	L6:
  93:E:/NeuOrga/Programmieren/c_cpp/github_os/input/src/os_base\os_task_queue.c ****       {
  94:E:/NeuOrga/Programmieren/c_cpp/github_os/input/src/os_base\os_task_queue.c ****          TASK_SCHEDULING_QUEUE[element_nr] = (scheduling_t)0u;
 202              		.loc 1 94 0
 203 0214 0FB645F7 		movzbl	-9(%ebp), %eax
 204 0218 C7048500 		movl	$0, _TASK_SCHEDULING_QUEUE(,%eax,4)
 204      00000000 
 204      000000
  95:E:/NeuOrga/Programmieren/c_cpp/github_os/input/src/os_base\os_task_queue.c ****          OS_TASK_INIT_TASK_ENVIRONMENT(&TASK_RUN_QUEUE[element_nr]);
 205              		.loc 1 95 0
 206 0223 0FB655F7 		movzbl	-9(%ebp), %edx
 207 0227 89D0     		movl	%edx, %eax
 208 0229 C1E003   		sall	$3, %eax
 209 022c 01D0     		addl	%edx, %eax
 210 022e 01C0     		addl	%eax, %eax
 211 0230 01D0     		addl	%edx, %eax
 212 0232 8D0CC500 		leal	0(,%eax,8), %ecx
 212      000000
 213 0239 01C8     		addl	%ecx, %eax
 214 023b 01D0     		addl	%edx, %eax
 215 023d 05000000 		addl	$_TASK_RUN_QUEUE, %eax
 215      00
 216 0242 890424   		movl	%eax, (%esp)
 217 0245 E8000000 		call	_OS_TASK_INIT_TASK_ENVIRONMENT
 217      00
  96:E:/NeuOrga/Programmieren/c_cpp/github_os/input/src/os_base\os_task_queue.c ****          element_nr++;
 218              		.loc 1 96 0
 219 024a 8A45F7   		movb	-9(%ebp), %al
 220 024d 40       		incl	%eax
 221 024e 8845F7   		movb	%al, -9(%ebp)
 222              	L5:
  92:E:/NeuOrga/Programmieren/c_cpp/github_os/input/src/os_base\os_task_queue.c ****       {
 223              		.loc 1 92 0
 224 0251 807DF709 		cmpb	$9, -9(%ebp)
 225 0255 76BD     		jbe	L6
  97:E:/NeuOrga/Programmieren/c_cpp/github_os/input/src/os_base\os_task_queue.c ****       }
  98:E:/NeuOrga/Programmieren/c_cpp/github_os/input/src/os_base\os_task_queue.c ****       bTASK_QUEUE_INITIALIZED = TRUE;
 226              		.loc 1 98 0
 227 0257 C6050000 		movb	$1, _bTASK_QUEUE_INITIALIZED
 227      000001
 228              	L3:
 229              	LBE2:
  99:E:/NeuOrga/Programmieren/c_cpp/github_os/input/src/os_base\os_task_queue.c ****    }
 100:E:/NeuOrga/Programmieren/c_cpp/github_os/input/src/os_base\os_task_queue.c **** }
 230              		.loc 1 100 0
 231 025e C9       		leave
 232              		.cfi_restore 5
 233              		.cfi_def_cfa 4, 4
 234 025f C3       		ret
 235              		.cfi_endproc
 236              	LFE1:
 237              		.globl	_ADD_TO_TASK_QUEUE
 239              	_ADD_TO_TASK_QUEUE:
 240              	LFB2:
 101:E:/NeuOrga/Programmieren/c_cpp/github_os/input/src/os_base\os_task_queue.c **** task_t* ADD_TO_TASK_QUEUE(task_t* task)
 102:E:/NeuOrga/Programmieren/c_cpp/github_os/input/src/os_base\os_task_queue.c **** {
GAS LISTING C:\Users\PRESID~1\AppData\Local\Temp\ccHWasuY.s 			page 8


 241              		.loc 1 102 0
 242              		.cfi_startproc
 243 0260 55       		pushl	%ebp
 244              		.cfi_def_cfa_offset 8
 245              		.cfi_offset 5, -8
 246 0261 89E5     		movl	%esp, %ebp
 247              		.cfi_def_cfa_register 5
 248 0263 53       		pushl	%ebx
 249 0264 83EC24   		subl	$36, %esp
 250              		.cfi_offset 3, -12
 103:E:/NeuOrga/Programmieren/c_cpp/github_os/input/src/os_base\os_task_queue.c ****    unsigned_char_t element_nr = 0u;
 251              		.loc 1 103 0
 252 0267 C645F700 		movb	$0, -9(%ebp)
 104:E:/NeuOrga/Programmieren/c_cpp/github_os/input/src/os_base\os_task_queue.c ****    task_t* ret_task = 0u;
 253              		.loc 1 104 0
 254 026b C745F000 		movl	$0, -16(%ebp)
 254      000000
 105:E:/NeuOrga/Programmieren/c_cpp/github_os/input/src/os_base\os_task_queue.c **** 
 106:E:/NeuOrga/Programmieren/c_cpp/github_os/input/src/os_base\os_task_queue.c ****    while( (element_nr < MAX_RUN_QUEUE_SIZE)
 255              		.loc 1 106 0
 256 0272 EB07     		jmp	L8
 257              	L10:
 107:E:/NeuOrga/Programmieren/c_cpp/github_os/input/src/os_base\os_task_queue.c ****           &&((&TASK_RUN_QUEUE[element_nr])->task_queued == TRUE)
 108:E:/NeuOrga/Programmieren/c_cpp/github_os/input/src/os_base\os_task_queue.c ****         )
 109:E:/NeuOrga/Programmieren/c_cpp/github_os/input/src/os_base\os_task_queue.c ****    {
 110:E:/NeuOrga/Programmieren/c_cpp/github_os/input/src/os_base\os_task_queue.c ****       element_nr++;
 258              		.loc 1 110 0
 259 0274 8A45F7   		movb	-9(%ebp), %al
 260 0277 40       		incl	%eax
 261 0278 8845F7   		movb	%al, -9(%ebp)
 262              	L8:
 106:E:/NeuOrga/Programmieren/c_cpp/github_os/input/src/os_base\os_task_queue.c ****           &&((&TASK_RUN_QUEUE[element_nr])->task_queued == TRUE)
 263              		.loc 1 106 0
 264 027b 807DF709 		cmpb	$9, -9(%ebp)
 265 027f 772A     		ja	L9
 107:E:/NeuOrga/Programmieren/c_cpp/github_os/input/src/os_base\os_task_queue.c ****           &&((&TASK_RUN_QUEUE[element_nr])->task_queued == TRUE)
 266              		.loc 1 107 0
 267 0281 0FB655F7 		movzbl	-9(%ebp), %edx
 268 0285 89D0     		movl	%edx, %eax
 269 0287 C1E003   		sall	$3, %eax
 270 028a 01D0     		addl	%edx, %eax
 271 028c 01C0     		addl	%eax, %eax
 272 028e 01D0     		addl	%edx, %eax
 273 0290 8D0CC500 		leal	0(,%eax,8), %ecx
 273      000000
 274 0297 01C8     		addl	%ecx, %eax
 275 0299 01D0     		addl	%edx, %eax
 276 029b 05000000 		addl	$_TASK_RUN_QUEUE, %eax
 276      00
 277 02a0 8A00     		movb	(%eax), %al
 278 02a2 D0E8     		shrb	%al
 279 02a4 83E001   		andl	$1, %eax
 280 02a7 3C01     		cmpb	$1, %al
 281 02a9 74C9     		je	L10
 282              	L9:
 111:E:/NeuOrga/Programmieren/c_cpp/github_os/input/src/os_base\os_task_queue.c ****    }
 112:E:/NeuOrga/Programmieren/c_cpp/github_os/input/src/os_base\os_task_queue.c ****    /* while loop ended due to free task_array slot ...*/
GAS LISTING C:\Users\PRESID~1\AppData\Local\Temp\ccHWasuY.s 			page 9


 113:E:/NeuOrga/Programmieren/c_cpp/github_os/input/src/os_base\os_task_queue.c ****    if( (element_nr < MAX_RUN_QUEUE_SIZE) && ((&TASK_RUN_QUEUE[element_nr])->task_queued == FALSE) )
 283              		.loc 1 113 0
 284 02ab 807DF709 		cmpb	$9, -9(%ebp)
 285 02af 0F875905 		ja	L11
 285      0000
 286              		.loc 1 113 0 is_stmt 0 discriminator 1
 287 02b5 0FB655F7 		movzbl	-9(%ebp), %edx
 288 02b9 89D0     		movl	%edx, %eax
 289 02bb C1E003   		sall	$3, %eax
 290 02be 01D0     		addl	%edx, %eax
 291 02c0 01C0     		addl	%eax, %eax
 292 02c2 01D0     		addl	%edx, %eax
 293 02c4 8D0CC500 		leal	0(,%eax,8), %ecx
 293      000000
 294 02cb 01C8     		addl	%ecx, %eax
 295 02cd 01D0     		addl	%edx, %eax
 296 02cf 05000000 		addl	$_TASK_RUN_QUEUE, %eax
 296      00
 297 02d4 8A00     		movb	(%eax), %al
 298 02d6 D0E8     		shrb	%al
 299 02d8 83E001   		andl	$1, %eax
 300 02db 84C0     		testb	%al, %al
 301 02dd 0F852B05 		jne	L11
 301      0000
 114:E:/NeuOrga/Programmieren/c_cpp/github_os/input/src/os_base\os_task_queue.c ****    {
 115:E:/NeuOrga/Programmieren/c_cpp/github_os/input/src/os_base\os_task_queue.c ****       (&TASK_RUN_QUEUE[element_nr])->active                          = task->active;
 302              		.loc 1 115 0 is_stmt 1
 303 02e3 0FB655F7 		movzbl	-9(%ebp), %edx
 304 02e7 8B4508   		movl	8(%ebp), %eax
 305 02ea 8A00     		movb	(%eax), %al
 306 02ec 83E001   		andl	$1, %eax
 307 02ef 88C3     		movb	%al, %bl
 308 02f1 89D0     		movl	%edx, %eax
 309 02f3 C1E003   		sall	$3, %eax
 310 02f6 01D0     		addl	%edx, %eax
 311 02f8 01C0     		addl	%eax, %eax
 312 02fa 01D0     		addl	%edx, %eax
 313 02fc 8D0CC500 		leal	0(,%eax,8), %ecx
 313      000000
 314 0303 01C8     		addl	%ecx, %eax
 315 0305 01D0     		addl	%edx, %eax
 316 0307 05000000 		addl	$_TASK_RUN_QUEUE, %eax
 316      00
 317 030c 83E301   		andl	$1, %ebx
 318 030f 88D9     		movb	%bl, %cl
 319 0311 8A10     		movb	(%eax), %dl
 320 0313 83E2FE   		andl	$-2, %edx
 321 0316 09CA     		orl	%ecx, %edx
 322 0318 8810     		movb	%dl, (%eax)
 116:E:/NeuOrga/Programmieren/c_cpp/github_os/input/src/os_base\os_task_queue.c ****       (&TASK_RUN_QUEUE[element_nr])->task_queued                     = TRUE;
 323              		.loc 1 116 0
 324 031a 0FB655F7 		movzbl	-9(%ebp), %edx
 325 031e 89D0     		movl	%edx, %eax
 326 0320 C1E003   		sall	$3, %eax
 327 0323 01D0     		addl	%edx, %eax
 328 0325 01C0     		addl	%eax, %eax
 329 0327 01D0     		addl	%edx, %eax
GAS LISTING C:\Users\PRESID~1\AppData\Local\Temp\ccHWasuY.s 			page 10


 330 0329 8D0CC500 		leal	0(,%eax,8), %ecx
 330      000000
 331 0330 01C8     		addl	%ecx, %eax
 332 0332 01D0     		addl	%edx, %eax
 333 0334 05000000 		addl	$_TASK_RUN_QUEUE, %eax
 333      00
 334 0339 8A10     		movb	(%eax), %dl
 335 033b 83CA02   		orl	$2, %edx
 336 033e 8810     		movb	%dl, (%eax)
 117:E:/NeuOrga/Programmieren/c_cpp/github_os/input/src/os_base\os_task_queue.c ****       (&TASK_RUN_QUEUE[element_nr])->idle_task                        = task->idle_task;
 337              		.loc 1 117 0
 338 0340 0FB655F7 		movzbl	-9(%ebp), %edx
 339 0344 8B4508   		movl	8(%ebp), %eax
 340 0347 8A00     		movb	(%eax), %al
 341 0349 C0E802   		shrb	$2, %al
 342 034c 88C1     		movb	%al, %cl
 343 034e 83E101   		andl	$1, %ecx
 344 0351 89D0     		movl	%edx, %eax
 345 0353 C1E003   		sall	$3, %eax
 346 0356 01D0     		addl	%edx, %eax
 347 0358 01C0     		addl	%eax, %eax
 348 035a 01D0     		addl	%edx, %eax
 349 035c 8D1CC500 		leal	0(,%eax,8), %ebx
 349      000000
 350 0363 01D8     		addl	%ebx, %eax
 351 0365 01D0     		addl	%edx, %eax
 352 0367 05000000 		addl	$_TASK_RUN_QUEUE, %eax
 352      00
 353 036c 83E101   		andl	$1, %ecx
 354 036f 88CA     		movb	%cl, %dl
 355 0371 8D0C9500 		leal	0(,%edx,4), %ecx
 355      000000
 356 0378 8A10     		movb	(%eax), %dl
 357 037a 83E2FB   		andl	$-5, %edx
 358 037d 09CA     		orl	%ecx, %edx
 359 037f 8810     		movb	%dl, (%eax)
 118:E:/NeuOrga/Programmieren/c_cpp/github_os/input/src/os_base\os_task_queue.c ****       (&TASK_RUN_QUEUE[element_nr])->free                            = task->free;
 360              		.loc 1 118 0
 361 0381 0FB655F7 		movzbl	-9(%ebp), %edx
 362 0385 8B4508   		movl	8(%ebp), %eax
 363 0388 8B00     		movl	(%eax), %eax
 364 038a C1E803   		shrl	$3, %eax
 365 038d 89C3     		movl	%eax, %ebx
 366 038f 89D0     		movl	%edx, %eax
 367 0391 C1E003   		sall	$3, %eax
 368 0394 01D0     		addl	%edx, %eax
 369 0396 01C0     		addl	%eax, %eax
 370 0398 01D0     		addl	%edx, %eax
 371 039a 8D0CC500 		leal	0(,%eax,8), %ecx
 371      000000
 372 03a1 01C8     		addl	%ecx, %eax
 373 03a3 01D0     		addl	%edx, %eax
 374 03a5 05000000 		addl	$_TASK_RUN_QUEUE, %eax
 374      00
 375 03aa 8D0CDD00 		leal	0(,%ebx,8), %ecx
 375      000000
 376 03b1 8B10     		movl	(%eax), %edx
GAS LISTING C:\Users\PRESID~1\AppData\Local\Temp\ccHWasuY.s 			page 11


 377 03b3 83E207   		andl	$7, %edx
 378 03b6 09CA     		orl	%ecx, %edx
 379 03b8 8910     		movl	%edx, (%eax)
 119:E:/NeuOrga/Programmieren/c_cpp/github_os/input/src/os_base\os_task_queue.c ****       (&TASK_RUN_QUEUE[element_nr])->nr_of_ins_allowed                  = task->nr_of_ins_allowed;
 380              		.loc 1 119 0
 381 03ba 0FB655F7 		movzbl	-9(%ebp), %edx
 382 03be 8B4508   		movl	8(%ebp), %eax
 383 03c1 8A4804   		movb	4(%eax), %cl
 384 03c4 89D0     		movl	%edx, %eax
 385 03c6 C1E003   		sall	$3, %eax
 386 03c9 01D0     		addl	%edx, %eax
 387 03cb 01C0     		addl	%eax, %eax
 388 03cd 01D0     		addl	%edx, %eax
 389 03cf 8D1CC500 		leal	0(,%eax,8), %ebx
 389      000000
 390 03d6 01D8     		addl	%ebx, %eax
 391 03d8 01D0     		addl	%edx, %eax
 392 03da 05000000 		addl	$_TASK_RUN_QUEUE, %eax
 392      00
 393 03df 884804   		movb	%cl, 4(%eax)
 120:E:/NeuOrga/Programmieren/c_cpp/github_os/input/src/os_base\os_task_queue.c ****       (&TASK_RUN_QUEUE[element_nr])->nr_of_ins_activated                = task->nr_of_ins_activated
 394              		.loc 1 120 0
 395 03e2 0FB655F7 		movzbl	-9(%ebp), %edx
 396 03e6 8B4508   		movl	8(%ebp), %eax
 397 03e9 8A4805   		movb	5(%eax), %cl
 398 03ec 89D0     		movl	%edx, %eax
 399 03ee C1E003   		sall	$3, %eax
 400 03f1 01D0     		addl	%edx, %eax
 401 03f3 01C0     		addl	%eax, %eax
 402 03f5 01D0     		addl	%edx, %eax
 403 03f7 8D1CC500 		leal	0(,%eax,8), %ebx
 403      000000
 404 03fe 01D8     		addl	%ebx, %eax
 405 0400 01D0     		addl	%edx, %eax
 406 0402 05000000 		addl	$_TASK_RUN_QUEUE, %eax
 406      00
 407 0407 884805   		movb	%cl, 5(%eax)
 121:E:/NeuOrga/Programmieren/c_cpp/github_os/input/src/os_base\os_task_queue.c ****       ASSIGN(&(&TASK_RUN_QUEUE[element_nr])->wait_act_until, &task->wait_act_until);
 408              		.loc 1 121 0
 409 040a 8B4508   		movl	8(%ebp), %eax
 410 040d 8D4806   		leal	6(%eax), %ecx
 411 0410 0FB655F7 		movzbl	-9(%ebp), %edx
 412 0414 89D0     		movl	%edx, %eax
 413 0416 C1E003   		sall	$3, %eax
 414 0419 01D0     		addl	%edx, %eax
 415 041b 01C0     		addl	%eax, %eax
 416 041d 01D0     		addl	%edx, %eax
 417 041f 8D1CC500 		leal	0(,%eax,8), %ebx
 417      000000
 418 0426 01D8     		addl	%ebx, %eax
 419 0428 01D0     		addl	%edx, %eax
 420 042a 05000000 		addl	$_TASK_RUN_QUEUE, %eax
 420      00
 421 042f 83C006   		addl	$6, %eax
 422 0432 894C2404 		movl	%ecx, 4(%esp)
 423 0436 890424   		movl	%eax, (%esp)
 424 0439 E8000000 		call	_ASSIGN
GAS LISTING C:\Users\PRESID~1\AppData\Local\Temp\ccHWasuY.s 			page 12


 424      00
 122:E:/NeuOrga/Programmieren/c_cpp/github_os/input/src/os_base\os_task_queue.c ****       ASSIGN(&(&TASK_RUN_QUEUE[element_nr])->wait_time, &task->wait_time);
 425              		.loc 1 122 0
 426 043e 8B4508   		movl	8(%ebp), %eax
 427 0441 8D4816   		leal	22(%eax), %ecx
 428 0444 0FB655F7 		movzbl	-9(%ebp), %edx
 429 0448 89D0     		movl	%edx, %eax
 430 044a C1E003   		sall	$3, %eax
 431 044d 01D0     		addl	%edx, %eax
 432 044f 01C0     		addl	%eax, %eax
 433 0451 01D0     		addl	%edx, %eax
 434 0453 8D1CC500 		leal	0(,%eax,8), %ebx
 434      000000
 435 045a 01D8     		addl	%ebx, %eax
 436 045c 01D0     		addl	%edx, %eax
 437 045e 83C010   		addl	$16, %eax
 438 0461 05000000 		addl	$_TASK_RUN_QUEUE, %eax
 438      00
 439 0466 83C006   		addl	$6, %eax
 440 0469 894C2404 		movl	%ecx, 4(%esp)
 441 046d 890424   		movl	%eax, (%esp)
 442 0470 E8000000 		call	_ASSIGN
 442      00
 123:E:/NeuOrga/Programmieren/c_cpp/github_os/input/src/os_base\os_task_queue.c ****       ASSIGN(&(&TASK_RUN_QUEUE[element_nr])->time_to_prio_inc, &task->time_to_prio_inc);
 443              		.loc 1 123 0
 444 0475 8B4508   		movl	8(%ebp), %eax
 445 0478 8D4826   		leal	38(%eax), %ecx
 446 047b 0FB655F7 		movzbl	-9(%ebp), %edx
 447 047f 89D0     		movl	%edx, %eax
 448 0481 C1E003   		sall	$3, %eax
 449 0484 01D0     		addl	%edx, %eax
 450 0486 01C0     		addl	%eax, %eax
 451 0488 01D0     		addl	%edx, %eax
 452 048a 8D1CC500 		leal	0(,%eax,8), %ebx
 452      000000
 453 0491 01D8     		addl	%ebx, %eax
 454 0493 01D0     		addl	%edx, %eax
 455 0495 83C020   		addl	$32, %eax
 456 0498 05000000 		addl	$_TASK_RUN_QUEUE, %eax
 456      00
 457 049d 83C006   		addl	$6, %eax
 458 04a0 894C2404 		movl	%ecx, 4(%esp)
 459 04a4 890424   		movl	%eax, (%esp)
 460 04a7 E8000000 		call	_ASSIGN
 460      00
 124:E:/NeuOrga/Programmieren/c_cpp/github_os/input/src/os_base\os_task_queue.c ****       (&TASK_RUN_QUEUE[element_nr])->overwaittime_per_prio_inc_step  = task->overwaittime_per_prio_
 461              		.loc 1 124 0
 462 04ac 0FB655F7 		movzbl	-9(%ebp), %edx
 463 04b0 8B4508   		movl	8(%ebp), %eax
 464 04b3 8B4838   		movl	56(%eax), %ecx
 465 04b6 89D0     		movl	%edx, %eax
 466 04b8 C1E003   		sall	$3, %eax
 467 04bb 01D0     		addl	%edx, %eax
 468 04bd 01C0     		addl	%eax, %eax
 469 04bf 01D0     		addl	%edx, %eax
 470 04c1 8D1CC500 		leal	0(,%eax,8), %ebx
 470      000000
GAS LISTING C:\Users\PRESID~1\AppData\Local\Temp\ccHWasuY.s 			page 13


 471 04c8 01D8     		addl	%ebx, %eax
 472 04ca 01D0     		addl	%edx, %eax
 473 04cc 05300000 		addl	$_TASK_RUN_QUEUE+48, %eax
 473      00
 474 04d1 894808   		movl	%ecx, 8(%eax)
 125:E:/NeuOrga/Programmieren/c_cpp/github_os/input/src/os_base\os_task_queue.c ****       ASSIGN(&(&TASK_RUN_QUEUE[element_nr])->max_allowed_wait_time, &task->max_allowed_wait_time);
 475              		.loc 1 125 0
 476 04d4 8B4508   		movl	8(%ebp), %eax
 477 04d7 8D483C   		leal	60(%eax), %ecx
 478 04da 0FB655F7 		movzbl	-9(%ebp), %edx
 479 04de 89D0     		movl	%edx, %eax
 480 04e0 C1E003   		sall	$3, %eax
 481 04e3 01D0     		addl	%edx, %eax
 482 04e5 01C0     		addl	%eax, %eax
 483 04e7 01D0     		addl	%edx, %eax
 484 04e9 8D1CC500 		leal	0(,%eax,8), %ebx
 484      000000
 485 04f0 01D8     		addl	%ebx, %eax
 486 04f2 01D0     		addl	%edx, %eax
 487 04f4 83C030   		addl	$48, %eax
 488 04f7 05000000 		addl	$_TASK_RUN_QUEUE, %eax
 488      00
 489 04fc 83C00C   		addl	$12, %eax
 490 04ff 894C2404 		movl	%ecx, 4(%esp)
 491 0503 890424   		movl	%eax, (%esp)
 492 0506 E8000000 		call	_ASSIGN
 492      00
 126:E:/NeuOrga/Programmieren/c_cpp/github_os/input/src/os_base\os_task_queue.c ****       ASSIGN(&(&TASK_RUN_QUEUE[element_nr])->exe_time, &task->exe_time   );
 493              		.loc 1 126 0
 494 050b 8B4508   		movl	8(%ebp), %eax
 495 050e 8D484C   		leal	76(%eax), %ecx
 496 0511 0FB655F7 		movzbl	-9(%ebp), %edx
 497 0515 89D0     		movl	%edx, %eax
 498 0517 C1E003   		sall	$3, %eax
 499 051a 01D0     		addl	%edx, %eax
 500 051c 01C0     		addl	%eax, %eax
 501 051e 01D0     		addl	%edx, %eax
 502 0520 8D1CC500 		leal	0(,%eax,8), %ebx
 502      000000
 503 0527 01D8     		addl	%ebx, %eax
 504 0529 01D0     		addl	%edx, %eax
 505 052b 83C040   		addl	$64, %eax
 506 052e 05000000 		addl	$_TASK_RUN_QUEUE, %eax
 506      00
 507 0533 83C00C   		addl	$12, %eax
 508 0536 894C2404 		movl	%ecx, 4(%esp)
 509 053a 890424   		movl	%eax, (%esp)
 510 053d E8000000 		call	_ASSIGN
 510      00
 127:E:/NeuOrga/Programmieren/c_cpp/github_os/input/src/os_base\os_task_queue.c ****       ASSIGN(&(&TASK_RUN_QUEUE[element_nr])->start_time, &task->start_time );
 511              		.loc 1 127 0
 512 0542 8B4508   		movl	8(%ebp), %eax
 513 0545 8D485C   		leal	92(%eax), %ecx
 514 0548 0FB655F7 		movzbl	-9(%ebp), %edx
 515 054c 89D0     		movl	%edx, %eax
 516 054e C1E003   		sall	$3, %eax
 517 0551 01D0     		addl	%edx, %eax
GAS LISTING C:\Users\PRESID~1\AppData\Local\Temp\ccHWasuY.s 			page 14


 518 0553 01C0     		addl	%eax, %eax
 519 0555 01D0     		addl	%edx, %eax
 520 0557 8D1CC500 		leal	0(,%eax,8), %ebx
 520      000000
 521 055e 01D8     		addl	%ebx, %eax
 522 0560 01D0     		addl	%edx, %eax
 523 0562 83C050   		addl	$80, %eax
 524 0565 05000000 		addl	$_TASK_RUN_QUEUE, %eax
 524      00
 525 056a 83C00C   		addl	$12, %eax
 526 056d 894C2404 		movl	%ecx, 4(%esp)
 527 0571 890424   		movl	%eax, (%esp)
 528 0574 E8000000 		call	_ASSIGN
 528      00
 128:E:/NeuOrga/Programmieren/c_cpp/github_os/input/src/os_base\os_task_queue.c ****       (&TASK_RUN_QUEUE[element_nr])->current_prio                    = task->current_prio;
 529              		.loc 1 128 0
 530 0579 0FB655F7 		movzbl	-9(%ebp), %edx
 531 057d 8B4508   		movl	8(%ebp), %eax
 532 0580 8A486C   		movb	108(%eax), %cl
 533 0583 89D0     		movl	%edx, %eax
 534 0585 C1E003   		sall	$3, %eax
 535 0588 01D0     		addl	%edx, %eax
 536 058a 01C0     		addl	%eax, %eax
 537 058c 01D0     		addl	%edx, %eax
 538 058e 8D1CC500 		leal	0(,%eax,8), %ebx
 538      000000
 539 0595 01D8     		addl	%ebx, %eax
 540 0597 01D0     		addl	%edx, %eax
 541 0599 05600000 		addl	$_TASK_RUN_QUEUE+96, %eax
 541      00
 542 059e 88480C   		movb	%cl, 12(%eax)
 129:E:/NeuOrga/Programmieren/c_cpp/github_os/input/src/os_base\os_task_queue.c ****       (&TASK_RUN_QUEUE[element_nr])->default_prio                    = task->default_prio;
 543              		.loc 1 129 0
 544 05a1 0FB655F7 		movzbl	-9(%ebp), %edx
 545 05a5 8B4508   		movl	8(%ebp), %eax
 546 05a8 8A486D   		movb	109(%eax), %cl
 547 05ab 89D0     		movl	%edx, %eax
 548 05ad C1E003   		sall	$3, %eax
 549 05b0 01D0     		addl	%edx, %eax
 550 05b2 01C0     		addl	%eax, %eax
 551 05b4 01D0     		addl	%edx, %eax
 552 05b6 8D1CC500 		leal	0(,%eax,8), %ebx
 552      000000
 553 05bd 01D8     		addl	%ebx, %eax
 554 05bf 01D0     		addl	%edx, %eax
 555 05c1 05600000 		addl	$_TASK_RUN_QUEUE+96, %eax
 555      00
 556 05c6 88480D   		movb	%cl, 13(%eax)
 130:E:/NeuOrga/Programmieren/c_cpp/github_os/input/src/os_base\os_task_queue.c ****       (&TASK_RUN_QUEUE[element_nr])->fp                              = task->fp;
 557              		.loc 1 130 0
 558 05c9 0FB655F7 		movzbl	-9(%ebp), %edx
 559 05cd 8B4508   		movl	8(%ebp), %eax
 560 05d0 8B4874   		movl	116(%eax), %ecx
 561 05d3 89D0     		movl	%edx, %eax
 562 05d5 C1E003   		sall	$3, %eax
 563 05d8 01D0     		addl	%edx, %eax
 564 05da 01C0     		addl	%eax, %eax
GAS LISTING C:\Users\PRESID~1\AppData\Local\Temp\ccHWasuY.s 			page 15


 565 05dc 01D0     		addl	%edx, %eax
 566 05de 8D1CC500 		leal	0(,%eax,8), %ebx
 566      000000
 567 05e5 01D8     		addl	%ebx, %eax
 568 05e7 01D0     		addl	%edx, %eax
 569 05e9 05700000 		addl	$_TASK_RUN_QUEUE+112, %eax
 569      00
 570 05ee 894804   		movl	%ecx, 4(%eax)
 131:E:/NeuOrga/Programmieren/c_cpp/github_os/input/src/os_base\os_task_queue.c ****       (&TASK_RUN_QUEUE[element_nr])->state_request                   = task->state_request;
 571              		.loc 1 131 0
 572 05f1 0FB655F7 		movzbl	-9(%ebp), %edx
 573 05f5 8B4508   		movl	8(%ebp), %eax
 574 05f8 8B4878   		movl	120(%eax), %ecx
 575 05fb 89D0     		movl	%edx, %eax
 576 05fd C1E003   		sall	$3, %eax
 577 0600 01D0     		addl	%edx, %eax
 578 0602 01C0     		addl	%eax, %eax
 579 0604 01D0     		addl	%edx, %eax
 580 0606 8D1CC500 		leal	0(,%eax,8), %ebx
 580      000000
 581 060d 01D8     		addl	%ebx, %eax
 582 060f 01D0     		addl	%edx, %eax
 583 0611 05700000 		addl	$_TASK_RUN_QUEUE+112, %eax
 583      00
 584 0616 894808   		movl	%ecx, 8(%eax)
 132:E:/NeuOrga/Programmieren/c_cpp/github_os/input/src/os_base\os_task_queue.c ****       (&TASK_RUN_QUEUE[element_nr])->task_state                      = task->task_state;
 585              		.loc 1 132 0
 586 0619 0FB655F7 		movzbl	-9(%ebp), %edx
 587 061d 8B4508   		movl	8(%ebp), %eax
 588 0620 8B487C   		movl	124(%eax), %ecx
 589 0623 89D0     		movl	%edx, %eax
 590 0625 C1E003   		sall	$3, %eax
 591 0628 01D0     		addl	%edx, %eax
 592 062a 01C0     		addl	%eax, %eax
 593 062c 01D0     		addl	%edx, %eax
 594 062e 8D1CC500 		leal	0(,%eax,8), %ebx
 594      000000
 595 0635 01D8     		addl	%ebx, %eax
 596 0637 01D0     		addl	%edx, %eax
 597 0639 05700000 		addl	$_TASK_RUN_QUEUE+112, %eax
 597      00
 598 063e 89480C   		movl	%ecx, 12(%eax)
 133:E:/NeuOrga/Programmieren/c_cpp/github_os/input/src/os_base\os_task_queue.c ****       (&TASK_RUN_QUEUE[element_nr])->task_group                      = task->task_group;
 599              		.loc 1 133 0
 600 0641 0FB655F7 		movzbl	-9(%ebp), %edx
 601 0645 8B4508   		movl	8(%ebp), %eax
 602 0648 8B888000 		movl	128(%eax), %ecx
 602      0000
 603 064e 89D0     		movl	%edx, %eax
 604 0650 C1E003   		sall	$3, %eax
 605 0653 01D0     		addl	%edx, %eax
 606 0655 01C0     		addl	%eax, %eax
 607 0657 01D0     		addl	%edx, %eax
 608 0659 8D1CC500 		leal	0(,%eax,8), %ebx
 608      000000
 609 0660 01D8     		addl	%ebx, %eax
 610 0662 01D0     		addl	%edx, %eax
GAS LISTING C:\Users\PRESID~1\AppData\Local\Temp\ccHWasuY.s 			page 16


 611 0664 05800000 		addl	$_TASK_RUN_QUEUE+128, %eax
 611      00
 612 0669 8908     		movl	%ecx, (%eax)
 134:E:/NeuOrga/Programmieren/c_cpp/github_os/input/src/os_base\os_task_queue.c **** #if(CFG_PROCESSOR == MCU_X86)
 135:E:/NeuOrga/Programmieren/c_cpp/github_os/input/src/os_base\os_task_queue.c ****       (&TASK_RUN_QUEUE[element_nr])->eax                             = task->eax;
 613              		.loc 1 135 0
 614 066b 0FB655F7 		movzbl	-9(%ebp), %edx
 615 066f 8B4508   		movl	8(%ebp), %eax
 616 0672 8B888400 		movl	132(%eax), %ecx
 616      0000
 617 0678 89D0     		movl	%edx, %eax
 618 067a C1E003   		sall	$3, %eax
 619 067d 01D0     		addl	%edx, %eax
 620 067f 01C0     		addl	%eax, %eax
 621 0681 01D0     		addl	%edx, %eax
 622 0683 8D1CC500 		leal	0(,%eax,8), %ebx
 622      000000
 623 068a 01D8     		addl	%ebx, %eax
 624 068c 01D0     		addl	%edx, %eax
 625 068e 05800000 		addl	$_TASK_RUN_QUEUE+128, %eax
 625      00
 626 0693 894804   		movl	%ecx, 4(%eax)
 136:E:/NeuOrga/Programmieren/c_cpp/github_os/input/src/os_base\os_task_queue.c ****       (&TASK_RUN_QUEUE[element_nr])->ebx                             = task->ebx;
 627              		.loc 1 136 0
 628 0696 0FB655F7 		movzbl	-9(%ebp), %edx
 629 069a 8B4508   		movl	8(%ebp), %eax
 630 069d 8B888800 		movl	136(%eax), %ecx
 630      0000
 631 06a3 89D0     		movl	%edx, %eax
 632 06a5 C1E003   		sall	$3, %eax
 633 06a8 01D0     		addl	%edx, %eax
 634 06aa 01C0     		addl	%eax, %eax
 635 06ac 01D0     		addl	%edx, %eax
 636 06ae 8D1CC500 		leal	0(,%eax,8), %ebx
 636      000000
 637 06b5 01D8     		addl	%ebx, %eax
 638 06b7 01D0     		addl	%edx, %eax
 639 06b9 05800000 		addl	$_TASK_RUN_QUEUE+128, %eax
 639      00
 640 06be 894808   		movl	%ecx, 8(%eax)
 137:E:/NeuOrga/Programmieren/c_cpp/github_os/input/src/os_base\os_task_queue.c ****       (&TASK_RUN_QUEUE[element_nr])->ecx                             = task->ecx;
 641              		.loc 1 137 0
 642 06c1 0FB655F7 		movzbl	-9(%ebp), %edx
 643 06c5 8B4508   		movl	8(%ebp), %eax
 644 06c8 8B888C00 		movl	140(%eax), %ecx
 644      0000
 645 06ce 89D0     		movl	%edx, %eax
 646 06d0 C1E003   		sall	$3, %eax
 647 06d3 01D0     		addl	%edx, %eax
 648 06d5 01C0     		addl	%eax, %eax
 649 06d7 01D0     		addl	%edx, %eax
 650 06d9 8D1CC500 		leal	0(,%eax,8), %ebx
 650      000000
 651 06e0 01D8     		addl	%ebx, %eax
 652 06e2 01D0     		addl	%edx, %eax
 653 06e4 05800000 		addl	$_TASK_RUN_QUEUE+128, %eax
 653      00
GAS LISTING C:\Users\PRESID~1\AppData\Local\Temp\ccHWasuY.s 			page 17


 654 06e9 89480C   		movl	%ecx, 12(%eax)
 138:E:/NeuOrga/Programmieren/c_cpp/github_os/input/src/os_base\os_task_queue.c ****       (&TASK_RUN_QUEUE[element_nr])->edx                             = task->edx;
 655              		.loc 1 138 0
 656 06ec 0FB655F7 		movzbl	-9(%ebp), %edx
 657 06f0 8B4508   		movl	8(%ebp), %eax
 658 06f3 8B889000 		movl	144(%eax), %ecx
 658      0000
 659 06f9 89D0     		movl	%edx, %eax
 660 06fb C1E003   		sall	$3, %eax
 661 06fe 01D0     		addl	%edx, %eax
 662 0700 01C0     		addl	%eax, %eax
 663 0702 01D0     		addl	%edx, %eax
 664 0704 8D1CC500 		leal	0(,%eax,8), %ebx
 664      000000
 665 070b 01D8     		addl	%ebx, %eax
 666 070d 01D0     		addl	%edx, %eax
 667 070f 05900000 		addl	$_TASK_RUN_QUEUE+144, %eax
 667      00
 668 0714 8908     		movl	%ecx, (%eax)
 139:E:/NeuOrga/Programmieren/c_cpp/github_os/input/src/os_base\os_task_queue.c **** #else
 140:E:/NeuOrga/Programmieren/c_cpp/github_os/input/src/os_base\os_task_queue.c ****       (&TASK_RUN_QUEUE[element_nr])->r0                             = task->r0;
 141:E:/NeuOrga/Programmieren/c_cpp/github_os/input/src/os_base\os_task_queue.c ****       (&TASK_RUN_QUEUE[element_nr])->r1                             = task->r1;
 142:E:/NeuOrga/Programmieren/c_cpp/github_os/input/src/os_base\os_task_queue.c ****       (&TASK_RUN_QUEUE[element_nr])->r2                             = task->r2;
 143:E:/NeuOrga/Programmieren/c_cpp/github_os/input/src/os_base\os_task_queue.c ****       (&TASK_RUN_QUEUE[element_nr])->r3                             = task->r3;
 144:E:/NeuOrga/Programmieren/c_cpp/github_os/input/src/os_base\os_task_queue.c ****       (&TASK_RUN_QUEUE[element_nr])->r4                             = task->r4;
 145:E:/NeuOrga/Programmieren/c_cpp/github_os/input/src/os_base\os_task_queue.c ****       (&TASK_RUN_QUEUE[element_nr])->r5                             = task->r5;
 146:E:/NeuOrga/Programmieren/c_cpp/github_os/input/src/os_base\os_task_queue.c ****       (&TASK_RUN_QUEUE[element_nr])->r6                             = task->r6;
 147:E:/NeuOrga/Programmieren/c_cpp/github_os/input/src/os_base\os_task_queue.c ****       (&TASK_RUN_QUEUE[element_nr])->r7                             = task->r7;
 148:E:/NeuOrga/Programmieren/c_cpp/github_os/input/src/os_base\os_task_queue.c ****       (&TASK_RUN_QUEUE[element_nr])->r8                             = task->r8;
 149:E:/NeuOrga/Programmieren/c_cpp/github_os/input/src/os_base\os_task_queue.c ****       (&TASK_RUN_QUEUE[element_nr])->r9                             = task->r9;
 150:E:/NeuOrga/Programmieren/c_cpp/github_os/input/src/os_base\os_task_queue.c ****       (&TASK_RUN_QUEUE[element_nr])->r10                            = task->r10;
 151:E:/NeuOrga/Programmieren/c_cpp/github_os/input/src/os_base\os_task_queue.c ****       (&TASK_RUN_QUEUE[element_nr])->r11                            = task->r11;
 152:E:/NeuOrga/Programmieren/c_cpp/github_os/input/src/os_base\os_task_queue.c ****       (&TASK_RUN_QUEUE[element_nr])->r12                            = task->r12;
 153:E:/NeuOrga/Programmieren/c_cpp/github_os/input/src/os_base\os_task_queue.c **** #endif
 154:E:/NeuOrga/Programmieren/c_cpp/github_os/input/src/os_base\os_task_queue.c ****       (&TASK_RUN_QUEUE[element_nr])->p_stack_pointer                   = task->p_stack_pointer;
 669              		.loc 1 154 0
 670 0716 0FB655F7 		movzbl	-9(%ebp), %edx
 671 071a 8B4508   		movl	8(%ebp), %eax
 672 071d 8B889400 		movl	148(%eax), %ecx
 672      0000
 673 0723 89D0     		movl	%edx, %eax
 674 0725 C1E003   		sall	$3, %eax
 675 0728 01D0     		addl	%edx, %eax
 676 072a 01C0     		addl	%eax, %eax
 677 072c 01D0     		addl	%edx, %eax
 678 072e 8D1CC500 		leal	0(,%eax,8), %ebx
 678      000000
 679 0735 01D8     		addl	%ebx, %eax
 680 0737 01D0     		addl	%edx, %eax
 681 0739 05900000 		addl	$_TASK_RUN_QUEUE+144, %eax
 681      00
 682 073e 894804   		movl	%ecx, 4(%eax)
 155:E:/NeuOrga/Programmieren/c_cpp/github_os/input/src/os_base\os_task_queue.c ****       (&TASK_RUN_QUEUE[element_nr])->p_stack_pointer_by_malloc           = task->p_stack_pointer_by
 683              		.loc 1 155 0
 684 0741 0FB655F7 		movzbl	-9(%ebp), %edx
 685 0745 8B4508   		movl	8(%ebp), %eax
 686 0748 8B889800 		movl	152(%eax), %ecx
GAS LISTING C:\Users\PRESID~1\AppData\Local\Temp\ccHWasuY.s 			page 18


 686      0000
 687 074e 89D0     		movl	%edx, %eax
 688 0750 C1E003   		sall	$3, %eax
 689 0753 01D0     		addl	%edx, %eax
 690 0755 01C0     		addl	%eax, %eax
 691 0757 01D0     		addl	%edx, %eax
 692 0759 8D1CC500 		leal	0(,%eax,8), %ebx
 692      000000
 693 0760 01D8     		addl	%ebx, %eax
 694 0762 01D0     		addl	%edx, %eax
 695 0764 05900000 		addl	$_TASK_RUN_QUEUE+144, %eax
 695      00
 696 0769 894808   		movl	%ecx, 8(%eax)
 156:E:/NeuOrga/Programmieren/c_cpp/github_os/input/src/os_base\os_task_queue.c ****       (&TASK_RUN_QUEUE[element_nr])->p_stack_pointer_start              = task->p_stack_pointer_sta
 697              		.loc 1 156 0
 698 076c 0FB655F7 		movzbl	-9(%ebp), %edx
 699 0770 8B4508   		movl	8(%ebp), %eax
 700 0773 8B889C00 		movl	156(%eax), %ecx
 700      0000
 701 0779 89D0     		movl	%edx, %eax
 702 077b C1E003   		sall	$3, %eax
 703 077e 01D0     		addl	%edx, %eax
 704 0780 01C0     		addl	%eax, %eax
 705 0782 01D0     		addl	%edx, %eax
 706 0784 8D1CC500 		leal	0(,%eax,8), %ebx
 706      000000
 707 078b 01D8     		addl	%ebx, %eax
 708 078d 01D0     		addl	%edx, %eax
 709 078f 05900000 		addl	$_TASK_RUN_QUEUE+144, %eax
 709      00
 710 0794 89480C   		movl	%ecx, 12(%eax)
 157:E:/NeuOrga/Programmieren/c_cpp/github_os/input/src/os_base\os_task_queue.c ****       (&TASK_RUN_QUEUE[element_nr])->stack_size                       = task->stack_size;
 711              		.loc 1 157 0
 712 0797 0FB655F7 		movzbl	-9(%ebp), %edx
 713 079b 8B4508   		movl	8(%ebp), %eax
 714 079e 8B88A000 		movl	160(%eax), %ecx
 714      0000
 715 07a4 89D0     		movl	%edx, %eax
 716 07a6 C1E003   		sall	$3, %eax
 717 07a9 01D0     		addl	%edx, %eax
 718 07ab 01C0     		addl	%eax, %eax
 719 07ad 01D0     		addl	%edx, %eax
 720 07af 8D1CC500 		leal	0(,%eax,8), %ebx
 720      000000
 721 07b6 01D8     		addl	%ebx, %eax
 722 07b8 01D0     		addl	%edx, %eax
 723 07ba 05A00000 		addl	$_TASK_RUN_QUEUE+160, %eax
 723      00
 724 07bf 8908     		movl	%ecx, (%eax)
 158:E:/NeuOrga/Programmieren/c_cpp/github_os/input/src/os_base\os_task_queue.c ****       (&TASK_RUN_QUEUE[element_nr])->p_stack_pointer_end                = task->p_stack_pointer_end
 725              		.loc 1 158 0
 726 07c1 0FB655F7 		movzbl	-9(%ebp), %edx
 727 07c5 8B4508   		movl	8(%ebp), %eax
 728 07c8 8B88A400 		movl	164(%eax), %ecx
 728      0000
 729 07ce 89D0     		movl	%edx, %eax
 730 07d0 C1E003   		sall	$3, %eax
GAS LISTING C:\Users\PRESID~1\AppData\Local\Temp\ccHWasuY.s 			page 19


 731 07d3 01D0     		addl	%edx, %eax
 732 07d5 01C0     		addl	%eax, %eax
 733 07d7 01D0     		addl	%edx, %eax
 734 07d9 8D1CC500 		leal	0(,%eax,8), %ebx
 734      000000
 735 07e0 01D8     		addl	%ebx, %eax
 736 07e2 01D0     		addl	%edx, %eax
 737 07e4 05A00000 		addl	$_TASK_RUN_QUEUE+160, %eax
 737      00
 738 07e9 894804   		movl	%ecx, 4(%eax)
 159:E:/NeuOrga/Programmieren/c_cpp/github_os/input/src/os_base\os_task_queue.c ****       ret_task = &TASK_RUN_QUEUE[element_nr];
 739              		.loc 1 159 0
 740 07ec 0FB655F7 		movzbl	-9(%ebp), %edx
 741 07f0 89D0     		movl	%edx, %eax
 742 07f2 C1E003   		sall	$3, %eax
 743 07f5 01D0     		addl	%edx, %eax
 744 07f7 01C0     		addl	%eax, %eax
 745 07f9 01D0     		addl	%edx, %eax
 746 07fb 8D0CC500 		leal	0(,%eax,8), %ecx
 746      000000
 747 0802 01C8     		addl	%ecx, %eax
 748 0804 01D0     		addl	%edx, %eax
 749 0806 05000000 		addl	$_TASK_RUN_QUEUE, %eax
 749      00
 750 080b 8945F0   		movl	%eax, -16(%ebp)
 751              	L11:
 160:E:/NeuOrga/Programmieren/c_cpp/github_os/input/src/os_base\os_task_queue.c ****    }
 161:E:/NeuOrga/Programmieren/c_cpp/github_os/input/src/os_base\os_task_queue.c ****    return ret_task;
 752              		.loc 1 161 0
 753 080e 8B45F0   		movl	-16(%ebp), %eax
 162:E:/NeuOrga/Programmieren/c_cpp/github_os/input/src/os_base\os_task_queue.c **** }
 754              		.loc 1 162 0
 755 0811 83C424   		addl	$36, %esp
 756 0814 5B       		popl	%ebx
 757              		.cfi_restore 3
 758 0815 5D       		popl	%ebp
 759              		.cfi_restore 5
 760              		.cfi_def_cfa 4, 4
 761 0816 C3       		ret
 762              		.cfi_endproc
 763              	LFE2:
 764              		.globl	_DELETE_FROM_TASK_QUEUE
 766              	_DELETE_FROM_TASK_QUEUE:
 767              	LFB3:
 163:E:/NeuOrga/Programmieren/c_cpp/github_os/input/src/os_base\os_task_queue.c **** void DELETE_FROM_TASK_QUEUE(task_t* task)
 164:E:/NeuOrga/Programmieren/c_cpp/github_os/input/src/os_base\os_task_queue.c **** {
 768              		.loc 1 164 0
 769              		.cfi_startproc
 770 0817 55       		pushl	%ebp
 771              		.cfi_def_cfa_offset 8
 772              		.cfi_offset 5, -8
 773 0818 89E5     		movl	%esp, %ebp
 774              		.cfi_def_cfa_register 5
 775 081a 83EC18   		subl	$24, %esp
 165:E:/NeuOrga/Programmieren/c_cpp/github_os/input/src/os_base\os_task_queue.c ****    task->active                                =   FALSE   ;
 776              		.loc 1 165 0
 777 081d 8B4508   		movl	8(%ebp), %eax
GAS LISTING C:\Users\PRESID~1\AppData\Local\Temp\ccHWasuY.s 			page 20


 778 0820 8A10     		movb	(%eax), %dl
 779 0822 83E2FE   		andl	$-2, %edx
 780 0825 8810     		movb	%dl, (%eax)
 166:E:/NeuOrga/Programmieren/c_cpp/github_os/input/src/os_base\os_task_queue.c ****    task->task_queued                           =   FALSE   ;
 781              		.loc 1 166 0
 782 0827 8B4508   		movl	8(%ebp), %eax
 783 082a 8A10     		movb	(%eax), %dl
 784 082c 83E2FD   		andl	$-3, %edx
 785 082f 8810     		movb	%dl, (%eax)
 167:E:/NeuOrga/Programmieren/c_cpp/github_os/input/src/os_base\os_task_queue.c ****    task->idle_task                              =   FALSE   ;
 786              		.loc 1 167 0
 787 0831 8B4508   		movl	8(%ebp), %eax
 788 0834 8A10     		movb	(%eax), %dl
 789 0836 83E2FB   		andl	$-5, %edx
 790 0839 8810     		movb	%dl, (%eax)
 168:E:/NeuOrga/Programmieren/c_cpp/github_os/input/src/os_base\os_task_queue.c ****    task->free                                  =   0u       ;
 791              		.loc 1 168 0
 792 083b 8B4508   		movl	8(%ebp), %eax
 793 083e 8B10     		movl	(%eax), %edx
 794 0840 83E207   		andl	$7, %edx
 795 0843 8910     		movl	%edx, (%eax)
 169:E:/NeuOrga/Programmieren/c_cpp/github_os/input/src/os_base\os_task_queue.c ****    task->nr_of_ins_allowed                        =   0u       ;
 796              		.loc 1 169 0
 797 0845 8B4508   		movl	8(%ebp), %eax
 798 0848 C6400400 		movb	$0, 4(%eax)
 170:E:/NeuOrga/Programmieren/c_cpp/github_os/input/src/os_base\os_task_queue.c ****    task->nr_of_ins_activated                      =   0u       ;
 799              		.loc 1 170 0
 800 084c 8B4508   		movl	8(%ebp), %eax
 801 084f C6400500 		movb	$0, 5(%eax)
 171:E:/NeuOrga/Programmieren/c_cpp/github_os/input/src/os_base\os_task_queue.c ****    ASSIGN_NULL(&task->wait_act_until);
 802              		.loc 1 171 0
 803 0853 8B4508   		movl	8(%ebp), %eax
 804 0856 83C006   		addl	$6, %eax
 805 0859 890424   		movl	%eax, (%esp)
 806 085c E8000000 		call	_ASSIGN_NULL
 806      00
 172:E:/NeuOrga/Programmieren/c_cpp/github_os/input/src/os_base\os_task_queue.c ****    ASSIGN_NULL(&task->wait_time);
 807              		.loc 1 172 0
 808 0861 8B4508   		movl	8(%ebp), %eax
 809 0864 83C016   		addl	$22, %eax
 810 0867 890424   		movl	%eax, (%esp)
 811 086a E8000000 		call	_ASSIGN_NULL
 811      00
 173:E:/NeuOrga/Programmieren/c_cpp/github_os/input/src/os_base\os_task_queue.c ****    ASSIGN_NULL(&task->time_to_prio_inc);
 812              		.loc 1 173 0
 813 086f 8B4508   		movl	8(%ebp), %eax
 814 0872 83C026   		addl	$38, %eax
 815 0875 890424   		movl	%eax, (%esp)
 816 0878 E8000000 		call	_ASSIGN_NULL
 816      00
 174:E:/NeuOrga/Programmieren/c_cpp/github_os/input/src/os_base\os_task_queue.c ****    task->overwaittime_per_prio_inc_step        =   0u       ;
 817              		.loc 1 174 0
 818 087d 8B4508   		movl	8(%ebp), %eax
 819 0880 C7403800 		movl	$0, 56(%eax)
 819      000000
 175:E:/NeuOrga/Programmieren/c_cpp/github_os/input/src/os_base\os_task_queue.c ****    ASSIGN_NULL(&task->max_allowed_wait_time);
 820              		.loc 1 175 0
GAS LISTING C:\Users\PRESID~1\AppData\Local\Temp\ccHWasuY.s 			page 21


 821 0887 8B4508   		movl	8(%ebp), %eax
 822 088a 83C03C   		addl	$60, %eax
 823 088d 890424   		movl	%eax, (%esp)
 824 0890 E8000000 		call	_ASSIGN_NULL
 824      00
 176:E:/NeuOrga/Programmieren/c_cpp/github_os/input/src/os_base\os_task_queue.c ****    ASSIGN_NULL(&task->exe_time);
 825              		.loc 1 176 0
 826 0895 8B4508   		movl	8(%ebp), %eax
 827 0898 83C04C   		addl	$76, %eax
 828 089b 890424   		movl	%eax, (%esp)
 829 089e E8000000 		call	_ASSIGN_NULL
 829      00
 177:E:/NeuOrga/Programmieren/c_cpp/github_os/input/src/os_base\os_task_queue.c ****    ASSIGN_NULL(&task->start_time);
 830              		.loc 1 177 0
 831 08a3 8B4508   		movl	8(%ebp), %eax
 832 08a6 83C05C   		addl	$92, %eax
 833 08a9 890424   		movl	%eax, (%esp)
 834 08ac E8000000 		call	_ASSIGN_NULL
 834      00
 178:E:/NeuOrga/Programmieren/c_cpp/github_os/input/src/os_base\os_task_queue.c ****    task->current_prio                          =   0u       ;
 835              		.loc 1 178 0
 836 08b1 8B4508   		movl	8(%ebp), %eax
 837 08b4 C6406C00 		movb	$0, 108(%eax)
 179:E:/NeuOrga/Programmieren/c_cpp/github_os/input/src/os_base\os_task_queue.c ****    task->default_prio                          =   0u      ;
 838              		.loc 1 179 0
 839 08b8 8B4508   		movl	8(%ebp), %eax
 840 08bb C6406D00 		movb	$0, 109(%eax)
 180:E:/NeuOrga/Programmieren/c_cpp/github_os/input/src/os_base\os_task_queue.c ****    task->fp                                    =   0u       ;
 841              		.loc 1 180 0
 842 08bf 8B4508   		movl	8(%ebp), %eax
 843 08c2 C7407400 		movl	$0, 116(%eax)
 843      000000
 181:E:/NeuOrga/Programmieren/c_cpp/github_os/input/src/os_base\os_task_queue.c ****    task->state_request                         =   &OS_TASK_STATE_REQUEST       ;
 844              		.loc 1 181 0
 845 08c9 8B4508   		movl	8(%ebp), %eax
 846 08cc C7407800 		movl	$_OS_TASK_STATE_REQUEST, 120(%eax)
 846      000000
 182:E:/NeuOrga/Programmieren/c_cpp/github_os/input/src/os_base\os_task_queue.c ****    task->task_state                            =   E_TASK_UNSPECIFIED;
 847              		.loc 1 182 0
 848 08d3 8B4508   		movl	8(%ebp), %eax
 849 08d6 C7407C00 		movl	$0, 124(%eax)
 849      000000
 183:E:/NeuOrga/Programmieren/c_cpp/github_os/input/src/os_base\os_task_queue.c ****    task->task_group                            =   0u       ;
 850              		.loc 1 183 0
 851 08dd 8B4508   		movl	8(%ebp), %eax
 852 08e0 C7808000 		movl	$0, 128(%eax)
 852      00000000 
 852      0000
 184:E:/NeuOrga/Programmieren/c_cpp/github_os/input/src/os_base\os_task_queue.c **** #if(CFG_PROCESSOR == MCU_X86)
 185:E:/NeuOrga/Programmieren/c_cpp/github_os/input/src/os_base\os_task_queue.c ****    task->eax                                   =   0u              ;
 853              		.loc 1 185 0
 854 08ea 8B4508   		movl	8(%ebp), %eax
 855 08ed C7808400 		movl	$0, 132(%eax)
 855      00000000 
 855      0000
 186:E:/NeuOrga/Programmieren/c_cpp/github_os/input/src/os_base\os_task_queue.c ****    task->ebx                                   =   0u             ;
 856              		.loc 1 186 0
GAS LISTING C:\Users\PRESID~1\AppData\Local\Temp\ccHWasuY.s 			page 22


 857 08f7 8B4508   		movl	8(%ebp), %eax
 858 08fa C7808800 		movl	$0, 136(%eax)
 858      00000000 
 858      0000
 187:E:/NeuOrga/Programmieren/c_cpp/github_os/input/src/os_base\os_task_queue.c ****    task->ecx                                   =   0u              ;
 859              		.loc 1 187 0
 860 0904 8B4508   		movl	8(%ebp), %eax
 861 0907 C7808C00 		movl	$0, 140(%eax)
 861      00000000 
 861      0000
 188:E:/NeuOrga/Programmieren/c_cpp/github_os/input/src/os_base\os_task_queue.c ****    task->edx                                   =   0u              ;
 862              		.loc 1 188 0
 863 0911 8B4508   		movl	8(%ebp), %eax
 864 0914 C7809000 		movl	$0, 144(%eax)
 864      00000000 
 864      0000
 189:E:/NeuOrga/Programmieren/c_cpp/github_os/input/src/os_base\os_task_queue.c **** #elif(CFG_PROCESSOR == MCU_CORTEX_M4)
 190:E:/NeuOrga/Programmieren/c_cpp/github_os/input/src/os_base\os_task_queue.c ****    task->r0                                   =   0u              ;
 191:E:/NeuOrga/Programmieren/c_cpp/github_os/input/src/os_base\os_task_queue.c ****    task->r1                                   =   0u              ;
 192:E:/NeuOrga/Programmieren/c_cpp/github_os/input/src/os_base\os_task_queue.c ****    task->r2                                   =   0u              ;
 193:E:/NeuOrga/Programmieren/c_cpp/github_os/input/src/os_base\os_task_queue.c ****    task->r3                                   =   0u              ;
 194:E:/NeuOrga/Programmieren/c_cpp/github_os/input/src/os_base\os_task_queue.c ****    task->r4                                   =   0u              ;
 195:E:/NeuOrga/Programmieren/c_cpp/github_os/input/src/os_base\os_task_queue.c ****    task->r5                                   =   0u              ;
 196:E:/NeuOrga/Programmieren/c_cpp/github_os/input/src/os_base\os_task_queue.c ****    task->r6                                   =   0u              ;
 197:E:/NeuOrga/Programmieren/c_cpp/github_os/input/src/os_base\os_task_queue.c ****    task->r7                                   =   0u              ;
 198:E:/NeuOrga/Programmieren/c_cpp/github_os/input/src/os_base\os_task_queue.c ****    task->r8                                   =   0u              ;
 199:E:/NeuOrga/Programmieren/c_cpp/github_os/input/src/os_base\os_task_queue.c ****    task->r9                                   =   0u              ;
 200:E:/NeuOrga/Programmieren/c_cpp/github_os/input/src/os_base\os_task_queue.c ****    task->r10                                  =   0u             ;
 201:E:/NeuOrga/Programmieren/c_cpp/github_os/input/src/os_base\os_task_queue.c ****    task->r11                                  =   0u             ;
 202:E:/NeuOrga/Programmieren/c_cpp/github_os/input/src/os_base\os_task_queue.c ****    task->r12                                  =   0u             ;
 203:E:/NeuOrga/Programmieren/c_cpp/github_os/input/src/os_base\os_task_queue.c **** #else
 204:E:/NeuOrga/Programmieren/c_cpp/github_os/input/src/os_base\os_task_queue.c **** #error "os_task_queue.c"
 205:E:/NeuOrga/Programmieren/c_cpp/github_os/input/src/os_base\os_task_queue.c **** #endif
 206:E:/NeuOrga/Programmieren/c_cpp/github_os/input/src/os_base\os_task_queue.c ****    task->p_stack_pointer                         =   0u       ;
 865              		.loc 1 206 0
 866 091e 8B4508   		movl	8(%ebp), %eax
 867 0921 C7809400 		movl	$0, 148(%eax)
 867      00000000 
 867      0000
 207:E:/NeuOrga/Programmieren/c_cpp/github_os/input/src/os_base\os_task_queue.c ****    task->p_stack_pointer_by_malloc                 =   0u       ;
 868              		.loc 1 207 0
 869 092b 8B4508   		movl	8(%ebp), %eax
 870 092e C7809800 		movl	$0, 152(%eax)
 870      00000000 
 870      0000
 208:E:/NeuOrga/Programmieren/c_cpp/github_os/input/src/os_base\os_task_queue.c ****    task->p_stack_pointer_start                    =   0u       ;
 871              		.loc 1 208 0
 872 0938 8B4508   		movl	8(%ebp), %eax
 873 093b C7809C00 		movl	$0, 156(%eax)
 873      00000000 
 873      0000
 209:E:/NeuOrga/Programmieren/c_cpp/github_os/input/src/os_base\os_task_queue.c ****    task->stack_size                             =   0u       ;
 874              		.loc 1 209 0
 875 0945 8B4508   		movl	8(%ebp), %eax
 876 0948 C780A000 		movl	$0, 160(%eax)
 876      00000000 
 876      0000
GAS LISTING C:\Users\PRESID~1\AppData\Local\Temp\ccHWasuY.s 			page 23


 210:E:/NeuOrga/Programmieren/c_cpp/github_os/input/src/os_base\os_task_queue.c ****    task->p_stack_pointer_end                      =   0u       ;
 877              		.loc 1 210 0
 878 0952 8B4508   		movl	8(%ebp), %eax
 879 0955 C780A400 		movl	$0, 164(%eax)
 879      00000000 
 879      0000
 211:E:/NeuOrga/Programmieren/c_cpp/github_os/input/src/os_base\os_task_queue.c **** }
 880              		.loc 1 211 0
 881 095f C9       		leave
 882              		.cfi_restore 5
 883              		.cfi_def_cfa 4, 4
 884 0960 C3       		ret
 885              		.cfi_endproc
 886              	LFE3:
 887              		.globl	_GET_FROM_TASK_QUEUE
 889              	_GET_FROM_TASK_QUEUE:
 890              	LFB4:
 212:E:/NeuOrga/Programmieren/c_cpp/github_os/input/src/os_base\os_task_queue.c **** task_t* GET_FROM_TASK_QUEUE(scheduling_t* scheduling_queue_element)
 213:E:/NeuOrga/Programmieren/c_cpp/github_os/input/src/os_base\os_task_queue.c **** {
 891              		.loc 1 213 0
 892              		.cfi_startproc
 893 0961 55       		pushl	%ebp
 894              		.cfi_def_cfa_offset 8
 895              		.cfi_offset 5, -8
 896 0962 89E5     		movl	%esp, %ebp
 897              		.cfi_def_cfa_register 5
 214:E:/NeuOrga/Programmieren/c_cpp/github_os/input/src/os_base\os_task_queue.c ****    return ((task_t*)*scheduling_queue_element);
 898              		.loc 1 214 0
 899 0964 8B4508   		movl	8(%ebp), %eax
 900 0967 8B00     		movl	(%eax), %eax
 215:E:/NeuOrga/Programmieren/c_cpp/github_os/input/src/os_base\os_task_queue.c **** }
 901              		.loc 1 215 0
 902 0969 5D       		popl	%ebp
 903              		.cfi_restore 5
 904              		.cfi_def_cfa 4, 4
 905 096a C3       		ret
 906              		.cfi_endproc
 907              	LFE4:
 908              		.globl	_GET_FROM_SCHEDULING_QUEUE
 910              	_GET_FROM_SCHEDULING_QUEUE:
 911              	LFB5:
 216:E:/NeuOrga/Programmieren/c_cpp/github_os/input/src/os_base\os_task_queue.c **** scheduling_t* GET_FROM_SCHEDULING_QUEUE(unsigned_char_t element_nr)
 217:E:/NeuOrga/Programmieren/c_cpp/github_os/input/src/os_base\os_task_queue.c **** {
 912              		.loc 1 217 0
 913              		.cfi_startproc
 914 096b 55       		pushl	%ebp
 915              		.cfi_def_cfa_offset 8
 916              		.cfi_offset 5, -8
 917 096c 89E5     		movl	%esp, %ebp
 918              		.cfi_def_cfa_register 5
 919 096e 83EC04   		subl	$4, %esp
 920 0971 8B4508   		movl	8(%ebp), %eax
 921 0974 8845FC   		movb	%al, -4(%ebp)
 218:E:/NeuOrga/Programmieren/c_cpp/github_os/input/src/os_base\os_task_queue.c ****    return ((scheduling_t*)&TASK_SCHEDULING_QUEUE[element_nr]);
 922              		.loc 1 218 0
 923 0977 0FB645FC 		movzbl	-4(%ebp), %eax
 924 097b C1E002   		sall	$2, %eax
GAS LISTING C:\Users\PRESID~1\AppData\Local\Temp\ccHWasuY.s 			page 24


 925 097e 05000000 		addl	$_TASK_SCHEDULING_QUEUE, %eax
 925      00
 219:E:/NeuOrga/Programmieren/c_cpp/github_os/input/src/os_base\os_task_queue.c **** }
 926              		.loc 1 219 0
 927 0983 C9       		leave
 928              		.cfi_restore 5
 929              		.cfi_def_cfa 4, 4
 930 0984 C3       		ret
 931              		.cfi_endproc
 932              	LFE5:
 933              		.globl	_DELETE_FROM_SCHEDULING_QUEUE
 935              	_DELETE_FROM_SCHEDULING_QUEUE:
 936              	LFB6:
 220:E:/NeuOrga/Programmieren/c_cpp/github_os/input/src/os_base\os_task_queue.c **** /* Pointer Queue Handling*/
 221:E:/NeuOrga/Programmieren/c_cpp/github_os/input/src/os_base\os_task_queue.c **** void DELETE_FROM_SCHEDULING_QUEUE(scheduling_t* scheduling_queue_element)
 222:E:/NeuOrga/Programmieren/c_cpp/github_os/input/src/os_base\os_task_queue.c **** {
 937              		.loc 1 222 0
 938              		.cfi_startproc
 939 0985 55       		pushl	%ebp
 940              		.cfi_def_cfa_offset 8
 941              		.cfi_offset 5, -8
 942 0986 89E5     		movl	%esp, %ebp
 943              		.cfi_def_cfa_register 5
 223:E:/NeuOrga/Programmieren/c_cpp/github_os/input/src/os_base\os_task_queue.c ****    *scheduling_queue_element = 0u;
 944              		.loc 1 223 0
 945 0988 8B4508   		movl	8(%ebp), %eax
 946 098b C7000000 		movl	$0, (%eax)
 946      0000
 224:E:/NeuOrga/Programmieren/c_cpp/github_os/input/src/os_base\os_task_queue.c **** }
 947              		.loc 1 224 0
 948 0991 5D       		popl	%ebp
 949              		.cfi_restore 5
 950              		.cfi_def_cfa 4, 4
 951 0992 C3       		ret
 952              		.cfi_endproc
 953              	LFE6:
 954              		.globl	_ADD_TO_SCHEDULING_QUEUE
 956              	_ADD_TO_SCHEDULING_QUEUE:
 957              	LFB7:
 225:E:/NeuOrga/Programmieren/c_cpp/github_os/input/src/os_base\os_task_queue.c **** void ADD_TO_SCHEDULING_QUEUE(task_t* task)
 226:E:/NeuOrga/Programmieren/c_cpp/github_os/input/src/os_base\os_task_queue.c **** {
 958              		.loc 1 226 0
 959              		.cfi_startproc
 960 0993 55       		pushl	%ebp
 961              		.cfi_def_cfa_offset 8
 962              		.cfi_offset 5, -8
 963 0994 89E5     		movl	%esp, %ebp
 964              		.cfi_def_cfa_register 5
 965 0996 83EC10   		subl	$16, %esp
 227:E:/NeuOrga/Programmieren/c_cpp/github_os/input/src/os_base\os_task_queue.c ****    /*
 228:E:/NeuOrga/Programmieren/c_cpp/github_os/input/src/os_base\os_task_queue.c ****    Description:
 229:E:/NeuOrga/Programmieren/c_cpp/github_os/input/src/os_base\os_task_queue.c ****    add "task" into next free slot of TASK_SCHEDULING_QUEUE
 230:E:/NeuOrga/Programmieren/c_cpp/github_os/input/src/os_base\os_task_queue.c **** 
 231:E:/NeuOrga/Programmieren/c_cpp/github_os/input/src/os_base\os_task_queue.c ****    in:     task_t* task (task to be added)
 232:E:/NeuOrga/Programmieren/c_cpp/github_os/input/src/os_base\os_task_queue.c ****    out:
 233:E:/NeuOrga/Programmieren/c_cpp/github_os/input/src/os_base\os_task_queue.c ****    */
 234:E:/NeuOrga/Programmieren/c_cpp/github_os/input/src/os_base\os_task_queue.c ****    unsigned_char_t Add_successful = FALSE;
GAS LISTING C:\Users\PRESID~1\AppData\Local\Temp\ccHWasuY.s 			page 25


 966              		.loc 1 234 0
 967 0999 C645FF00 		movb	$0, -1(%ebp)
 235:E:/NeuOrga/Programmieren/c_cpp/github_os/input/src/os_base\os_task_queue.c ****    unsigned_char_t index = 0u;
 968              		.loc 1 235 0
 969 099d C645FE00 		movb	$0, -2(%ebp)
 236:E:/NeuOrga/Programmieren/c_cpp/github_os/input/src/os_base\os_task_queue.c **** 
 237:E:/NeuOrga/Programmieren/c_cpp/github_os/input/src/os_base\os_task_queue.c ****    while(  (index < MAX_RUN_QUEUE_SIZE)
 970              		.loc 1 237 0
 971 09a1 EB28     		jmp	L20
 972              	L23:
 238:E:/NeuOrga/Programmieren/c_cpp/github_os/input/src/os_base\os_task_queue.c ****            &&(Add_successful == FALSE))
 239:E:/NeuOrga/Programmieren/c_cpp/github_os/input/src/os_base\os_task_queue.c ****    {
 240:E:/NeuOrga/Programmieren/c_cpp/github_os/input/src/os_base\os_task_queue.c ****       if(TASK_SCHEDULING_QUEUE[index] == 0u)
 973              		.loc 1 240 0
 974 09a3 0FB645FE 		movzbl	-2(%ebp), %eax
 975 09a7 8B048500 		movl	_TASK_SCHEDULING_QUEUE(,%eax,4), %eax
 975      000000
 976 09ae 85C0     		testl	%eax, %eax
 977 09b0 7512     		jne	L21
 241:E:/NeuOrga/Programmieren/c_cpp/github_os/input/src/os_base\os_task_queue.c ****       {
 242:E:/NeuOrga/Programmieren/c_cpp/github_os/input/src/os_base\os_task_queue.c ****          TASK_SCHEDULING_QUEUE[index] = task;
 978              		.loc 1 242 0
 979 09b2 0FB645FE 		movzbl	-2(%ebp), %eax
 980 09b6 8B5508   		movl	8(%ebp), %edx
 981 09b9 89148500 		movl	%edx, _TASK_SCHEDULING_QUEUE(,%eax,4)
 981      000000
 243:E:/NeuOrga/Programmieren/c_cpp/github_os/input/src/os_base\os_task_queue.c ****          Add_successful         = TRUE;
 982              		.loc 1 243 0
 983 09c0 C645FF01 		movb	$1, -1(%ebp)
 984              	L21:
 244:E:/NeuOrga/Programmieren/c_cpp/github_os/input/src/os_base\os_task_queue.c ****       }
 245:E:/NeuOrga/Programmieren/c_cpp/github_os/input/src/os_base\os_task_queue.c ****       index++;
 985              		.loc 1 245 0
 986 09c4 8A45FE   		movb	-2(%ebp), %al
 987 09c7 40       		incl	%eax
 988 09c8 8845FE   		movb	%al, -2(%ebp)
 989              	L20:
 237:E:/NeuOrga/Programmieren/c_cpp/github_os/input/src/os_base\os_task_queue.c ****            &&(Add_successful == FALSE))
 990              		.loc 1 237 0
 991 09cb 807DFE09 		cmpb	$9, -2(%ebp)
 992 09cf 7706     		ja	L22
 238:E:/NeuOrga/Programmieren/c_cpp/github_os/input/src/os_base\os_task_queue.c ****    {
 993              		.loc 1 238 0
 994 09d1 807DFF00 		cmpb	$0, -1(%ebp)
 995 09d5 74CC     		je	L23
 996              	L22:
 246:E:/NeuOrga/Programmieren/c_cpp/github_os/input/src/os_base\os_task_queue.c ****    }
 247:E:/NeuOrga/Programmieren/c_cpp/github_os/input/src/os_base\os_task_queue.c ****    return;
 997              		.loc 1 247 0
 998 09d7 90       		nop
 248:E:/NeuOrga/Programmieren/c_cpp/github_os/input/src/os_base\os_task_queue.c **** }
 999              		.loc 1 248 0
 1000 09d8 C9       		leave
 1001              		.cfi_restore 5
 1002              		.cfi_def_cfa 4, 4
 1003 09d9 C3       		ret
 1004              		.cfi_endproc
GAS LISTING C:\Users\PRESID~1\AppData\Local\Temp\ccHWasuY.s 			page 26


 1005              	LFE7:
 1006              		.globl	_GET_IDLE_TASK
 1008              	_GET_IDLE_TASK:
 1009              	LFB8:
 249:E:/NeuOrga/Programmieren/c_cpp/github_os/input/src/os_base\os_task_queue.c **** #if(0)
 250:E:/NeuOrga/Programmieren/c_cpp/github_os/input/src/os_base\os_task_queue.c **** void UpdateSchedulingQueue(void)
 251:E:/NeuOrga/Programmieren/c_cpp/github_os/input/src/os_base\os_task_queue.c **** {
 252:E:/NeuOrga/Programmieren/c_cpp/github_os/input/src/os_base\os_task_queue.c ****    /* eliminate emptry link list entries (should be colleted at the high numbers) */
 253:E:/NeuOrga/Programmieren/c_cpp/github_os/input/src/os_base\os_task_queue.c ****    unsigned_char_t dest = 0u, src = 0u;
 254:E:/NeuOrga/Programmieren/c_cpp/github_os/input/src/os_base\os_task_queue.c **** 
 255:E:/NeuOrga/Programmieren/c_cpp/github_os/input/src/os_base\os_task_queue.c ****    while (dest < MAX_RUN_PQUEUE_SIZE)
 256:E:/NeuOrga/Programmieren/c_cpp/github_os/input/src/os_base\os_task_queue.c ****    {
 257:E:/NeuOrga/Programmieren/c_cpp/github_os/input/src/os_base\os_task_queue.c ****       if(TASK_SCHEDULING_QUEUE[dest] == 0u)
 258:E:/NeuOrga/Programmieren/c_cpp/github_os/input/src/os_base\os_task_queue.c ****       {
 259:E:/NeuOrga/Programmieren/c_cpp/github_os/input/src/os_base\os_task_queue.c ****          /* found empty entry ->shift following elements left in array */
 260:E:/NeuOrga/Programmieren/c_cpp/github_os/input/src/os_base\os_task_queue.c **** 
 261:E:/NeuOrga/Programmieren/c_cpp/github_os/input/src/os_base\os_task_queue.c ****          src = dest; /* start from empty entry point */
 262:E:/NeuOrga/Programmieren/c_cpp/github_os/input/src/os_base\os_task_queue.c ****          while((src < MAX_RUN_PQUEUE_SIZE)&&(TASK_SCHEDULING_QUEUE[src]==0u))
 263:E:/NeuOrga/Programmieren/c_cpp/github_os/input/src/os_base\os_task_queue.c ****          {
 264:E:/NeuOrga/Programmieren/c_cpp/github_os/input/src/os_base\os_task_queue.c ****             src++;
 265:E:/NeuOrga/Programmieren/c_cpp/github_os/input/src/os_base\os_task_queue.c ****          }
 266:E:/NeuOrga/Programmieren/c_cpp/github_os/input/src/os_base\os_task_queue.c ****          if((src < MAX_RUN_PQUEUE_SIZE)&&(TASK_SCHEDULING_QUEUE[src]!=0))
 267:E:/NeuOrga/Programmieren/c_cpp/github_os/input/src/os_base\os_task_queue.c ****          {
 268:E:/NeuOrga/Programmieren/c_cpp/github_os/input/src/os_base\os_task_queue.c ****             TASK_SCHEDULING_QUEUE[dest] = TASK_SCHEDULING_QUEUE[src];
 269:E:/NeuOrga/Programmieren/c_cpp/github_os/input/src/os_base\os_task_queue.c ****             TASK_SCHEDULING_QUEUE[src]  = 0u;
 270:E:/NeuOrga/Programmieren/c_cpp/github_os/input/src/os_base\os_task_queue.c ****          }
 271:E:/NeuOrga/Programmieren/c_cpp/github_os/input/src/os_base\os_task_queue.c ****       }
 272:E:/NeuOrga/Programmieren/c_cpp/github_os/input/src/os_base\os_task_queue.c ****       dest++;
 273:E:/NeuOrga/Programmieren/c_cpp/github_os/input/src/os_base\os_task_queue.c ****    }
 274:E:/NeuOrga/Programmieren/c_cpp/github_os/input/src/os_base\os_task_queue.c **** }
 275:E:/NeuOrga/Programmieren/c_cpp/github_os/input/src/os_base\os_task_queue.c **** #endif
 276:E:/NeuOrga/Programmieren/c_cpp/github_os/input/src/os_base\os_task_queue.c **** 
 277:E:/NeuOrga/Programmieren/c_cpp/github_os/input/src/os_base\os_task_queue.c **** /* Idle task queue handling */
 278:E:/NeuOrga/Programmieren/c_cpp/github_os/input/src/os_base\os_task_queue.c **** task_t* GET_IDLE_TASK(void)
 279:E:/NeuOrga/Programmieren/c_cpp/github_os/input/src/os_base\os_task_queue.c **** {
 1010              		.loc 1 279 0
 1011              		.cfi_startproc
 1012 09da 55       		pushl	%ebp
 1013              		.cfi_def_cfa_offset 8
 1014              		.cfi_offset 5, -8
 1015 09db 89E5     		movl	%esp, %ebp
 1016              		.cfi_def_cfa_register 5
 280:E:/NeuOrga/Programmieren/c_cpp/github_os/input/src/os_base\os_task_queue.c ****    return (&TASK_IDLE_QUEUE[0u]);
 1017              		.loc 1 280 0
 1018 09dd B8000000 		movl	$_TASK_IDLE_QUEUE, %eax
 1018      00
 281:E:/NeuOrga/Programmieren/c_cpp/github_os/input/src/os_base\os_task_queue.c **** }
 1019              		.loc 1 281 0
 1020 09e2 5D       		popl	%ebp
 1021              		.cfi_restore 5
 1022              		.cfi_def_cfa 4, 4
 1023 09e3 C3       		ret
 1024              		.cfi_endproc
 1025              	LFE8:
 1026              		.globl	_ADD_TO_IDLE_TASK_QUEUE
 1028              	_ADD_TO_IDLE_TASK_QUEUE:
 1029              	LFB9:
GAS LISTING C:\Users\PRESID~1\AppData\Local\Temp\ccHWasuY.s 			page 27


 282:E:/NeuOrga/Programmieren/c_cpp/github_os/input/src/os_base\os_task_queue.c **** void ADD_TO_IDLE_TASK_QUEUE(task_t* task)
 283:E:/NeuOrga/Programmieren/c_cpp/github_os/input/src/os_base\os_task_queue.c **** {
 1030              		.loc 1 283 0
 1031              		.cfi_startproc
 1032 09e4 55       		pushl	%ebp
 1033              		.cfi_def_cfa_offset 8
 1034              		.cfi_offset 5, -8
 1035 09e5 89E5     		movl	%esp, %ebp
 1036              		.cfi_def_cfa_register 5
 1037 09e7 83EC18   		subl	$24, %esp
 284:E:/NeuOrga/Programmieren/c_cpp/github_os/input/src/os_base\os_task_queue.c ****    /* only 1 element for TASK_IDLE_QUEUE allowed */
 285:E:/NeuOrga/Programmieren/c_cpp/github_os/input/src/os_base\os_task_queue.c ****    if((&TASK_IDLE_QUEUE[0u])->idle_task == FALSE)
 1038              		.loc 1 285 0
 1039 09ea A0000000 		movb	_TASK_IDLE_QUEUE, %al
 1039      00
 1040 09ef 83E004   		andl	$4, %eax
 1041 09f2 84C0     		testb	%al, %al
 1042 09f4 0F85CE01 		jne	L27
 1042      0000
 286:E:/NeuOrga/Programmieren/c_cpp/github_os/input/src/os_base\os_task_queue.c ****    {
 287:E:/NeuOrga/Programmieren/c_cpp/github_os/input/src/os_base\os_task_queue.c ****       (&TASK_IDLE_QUEUE[0u])->active                                =   task->active           ;
 1043              		.loc 1 287 0
 1044 09fa 8B4508   		movl	8(%ebp), %eax
 1045 09fd 8A00     		movb	(%eax), %al
 1046 09ff 83E001   		andl	$1, %eax
 1047 0a02 83E001   		andl	$1, %eax
 1048 0a05 88C2     		movb	%al, %dl
 1049 0a07 A0000000 		movb	_TASK_IDLE_QUEUE, %al
 1049      00
 1050 0a0c 83E0FE   		andl	$-2, %eax
 1051 0a0f 09D0     		orl	%edx, %eax
 1052 0a11 A2000000 		movb	%al, _TASK_IDLE_QUEUE
 1052      00
 288:E:/NeuOrga/Programmieren/c_cpp/github_os/input/src/os_base\os_task_queue.c ****       (&TASK_IDLE_QUEUE[0u])->task_queued                           =   task->task_queued      ;
 1053              		.loc 1 288 0
 1054 0a16 8B4508   		movl	8(%ebp), %eax
 1055 0a19 8A00     		movb	(%eax), %al
 1056 0a1b D0E8     		shrb	%al
 1057 0a1d 83E001   		andl	$1, %eax
 1058 0a20 83E001   		andl	$1, %eax
 1059 0a23 8D1400   		leal	(%eax,%eax), %edx
 1060 0a26 A0000000 		movb	_TASK_IDLE_QUEUE, %al
 1060      00
 1061 0a2b 83E0FD   		andl	$-3, %eax
 1062 0a2e 09D0     		orl	%edx, %eax
 1063 0a30 A2000000 		movb	%al, _TASK_IDLE_QUEUE
 1063      00
 289:E:/NeuOrga/Programmieren/c_cpp/github_os/input/src/os_base\os_task_queue.c ****       (&TASK_IDLE_QUEUE[0u])->idle_task                              =   task->idle_task         ;
 1064              		.loc 1 289 0
 1065 0a35 8B4508   		movl	8(%ebp), %eax
 1066 0a38 8A00     		movb	(%eax), %al
 1067 0a3a C0E802   		shrb	$2, %al
 1068 0a3d 83E001   		andl	$1, %eax
 1069 0a40 83E001   		andl	$1, %eax
 1070 0a43 8D148500 		leal	0(,%eax,4), %edx
 1070      000000
 1071 0a4a A0000000 		movb	_TASK_IDLE_QUEUE, %al
GAS LISTING C:\Users\PRESID~1\AppData\Local\Temp\ccHWasuY.s 			page 28


 1071      00
 1072 0a4f 83E0FB   		andl	$-5, %eax
 1073 0a52 09D0     		orl	%edx, %eax
 1074 0a54 A2000000 		movb	%al, _TASK_IDLE_QUEUE
 1074      00
 290:E:/NeuOrga/Programmieren/c_cpp/github_os/input/src/os_base\os_task_queue.c ****       (&TASK_IDLE_QUEUE[0u])->free                                  =   task->free             ;
 1075              		.loc 1 290 0
 1076 0a59 8B4508   		movl	8(%ebp), %eax
 1077 0a5c 8B00     		movl	(%eax), %eax
 1078 0a5e C1E803   		shrl	$3, %eax
 1079 0a61 8D14C500 		leal	0(,%eax,8), %edx
 1079      000000
 1080 0a68 A1000000 		movl	_TASK_IDLE_QUEUE, %eax
 1080      00
 1081 0a6d 83E007   		andl	$7, %eax
 1082 0a70 09D0     		orl	%edx, %eax
 1083 0a72 A3000000 		movl	%eax, _TASK_IDLE_QUEUE
 1083      00
 291:E:/NeuOrga/Programmieren/c_cpp/github_os/input/src/os_base\os_task_queue.c ****       (&TASK_IDLE_QUEUE[0u])->nr_of_ins_allowed                        =   task->nr_of_ins_allowed 
 1084              		.loc 1 291 0
 1085 0a77 8B4508   		movl	8(%ebp), %eax
 1086 0a7a 8A4004   		movb	4(%eax), %al
 1087 0a7d A2040000 		movb	%al, _TASK_IDLE_QUEUE+4
 1087      00
 292:E:/NeuOrga/Programmieren/c_cpp/github_os/input/src/os_base\os_task_queue.c ****       (&TASK_IDLE_QUEUE[0u])->nr_of_ins_activated                      =   task->nr_of_ins_activate
 1088              		.loc 1 292 0
 1089 0a82 8B4508   		movl	8(%ebp), %eax
 1090 0a85 8A4005   		movb	5(%eax), %al
 1091 0a88 A2050000 		movb	%al, _TASK_IDLE_QUEUE+5
 1091      00
 293:E:/NeuOrga/Programmieren/c_cpp/github_os/input/src/os_base\os_task_queue.c ****       ASSIGN(&(&TASK_IDLE_QUEUE[0u])->wait_act_until, &task->wait_act_until);
 1092              		.loc 1 293 0
 1093 0a8d 8B4508   		movl	8(%ebp), %eax
 1094 0a90 83C006   		addl	$6, %eax
 1095 0a93 89442404 		movl	%eax, 4(%esp)
 1096 0a97 C7042406 		movl	$_TASK_IDLE_QUEUE+6, (%esp)
 1096      000000
 1097 0a9e E8000000 		call	_ASSIGN
 1097      00
 294:E:/NeuOrga/Programmieren/c_cpp/github_os/input/src/os_base\os_task_queue.c ****       ASSIGN(&(&TASK_IDLE_QUEUE[0u])->wait_time, &task->wait_time);
 1098              		.loc 1 294 0
 1099 0aa3 8B4508   		movl	8(%ebp), %eax
 1100 0aa6 83C016   		addl	$22, %eax
 1101 0aa9 89442404 		movl	%eax, 4(%esp)
 1102 0aad C7042416 		movl	$_TASK_IDLE_QUEUE+22, (%esp)
 1102      000000
 1103 0ab4 E8000000 		call	_ASSIGN
 1103      00
 295:E:/NeuOrga/Programmieren/c_cpp/github_os/input/src/os_base\os_task_queue.c ****       ASSIGN(&(&TASK_IDLE_QUEUE[0u])->time_to_prio_inc, &task->time_to_prio_inc);
 1104              		.loc 1 295 0
 1105 0ab9 8B4508   		movl	8(%ebp), %eax
 1106 0abc 83C026   		addl	$38, %eax
 1107 0abf 89442404 		movl	%eax, 4(%esp)
 1108 0ac3 C7042426 		movl	$_TASK_IDLE_QUEUE+38, (%esp)
 1108      000000
 1109 0aca E8000000 		call	_ASSIGN
 1109      00
GAS LISTING C:\Users\PRESID~1\AppData\Local\Temp\ccHWasuY.s 			page 29


 296:E:/NeuOrga/Programmieren/c_cpp/github_os/input/src/os_base\os_task_queue.c ****       (&TASK_IDLE_QUEUE[0u])->overwaittime_per_prio_inc_step       =    task->overwaittime_per_prio
 1110              		.loc 1 296 0
 1111 0acf 8B4508   		movl	8(%ebp), %eax
 1112 0ad2 8B4038   		movl	56(%eax), %eax
 1113 0ad5 A3380000 		movl	%eax, _TASK_IDLE_QUEUE+56
 1113      00
 297:E:/NeuOrga/Programmieren/c_cpp/github_os/input/src/os_base\os_task_queue.c ****       ASSIGN(&(&TASK_IDLE_QUEUE[0u])->max_allowed_wait_time, &task->max_allowed_wait_time);
 1114              		.loc 1 297 0
 1115 0ada 8B4508   		movl	8(%ebp), %eax
 1116 0add 83C03C   		addl	$60, %eax
 1117 0ae0 89442404 		movl	%eax, 4(%esp)
 1118 0ae4 C704243C 		movl	$_TASK_IDLE_QUEUE+60, (%esp)
 1118      000000
 1119 0aeb E8000000 		call	_ASSIGN
 1119      00
 298:E:/NeuOrga/Programmieren/c_cpp/github_os/input/src/os_base\os_task_queue.c ****       ASSIGN(&(&TASK_IDLE_QUEUE[0u])->exe_time, &task->exe_time);
 1120              		.loc 1 298 0
 1121 0af0 8B4508   		movl	8(%ebp), %eax
 1122 0af3 83C04C   		addl	$76, %eax
 1123 0af6 89442404 		movl	%eax, 4(%esp)
 1124 0afa C704244C 		movl	$_TASK_IDLE_QUEUE+76, (%esp)
 1124      000000
 1125 0b01 E8000000 		call	_ASSIGN
 1125      00
 299:E:/NeuOrga/Programmieren/c_cpp/github_os/input/src/os_base\os_task_queue.c ****       (&TASK_IDLE_QUEUE[0u])->current_prio                          =   task->current_prio     ;
 1126              		.loc 1 299 0
 1127 0b06 8B4508   		movl	8(%ebp), %eax
 1128 0b09 8A406C   		movb	108(%eax), %al
 1129 0b0c A26C0000 		movb	%al, _TASK_IDLE_QUEUE+108
 1129      00
 300:E:/NeuOrga/Programmieren/c_cpp/github_os/input/src/os_base\os_task_queue.c ****       (&TASK_IDLE_QUEUE[0u])->default_prio                          =   task->default_prio     ;
 1130              		.loc 1 300 0
 1131 0b11 8B4508   		movl	8(%ebp), %eax
 1132 0b14 8A406D   		movb	109(%eax), %al
 1133 0b17 A26D0000 		movb	%al, _TASK_IDLE_QUEUE+109
 1133      00
 301:E:/NeuOrga/Programmieren/c_cpp/github_os/input/src/os_base\os_task_queue.c ****       (&TASK_IDLE_QUEUE[0u])->fp                                    =   task->fp               ;
 1134              		.loc 1 301 0
 1135 0b1c 8B4508   		movl	8(%ebp), %eax
 1136 0b1f 8B4074   		movl	116(%eax), %eax
 1137 0b22 A3740000 		movl	%eax, _TASK_IDLE_QUEUE+116
 1137      00
 302:E:/NeuOrga/Programmieren/c_cpp/github_os/input/src/os_base\os_task_queue.c ****       (&TASK_IDLE_QUEUE[0u])->state_request                         =   task->state_request    ;
 1138              		.loc 1 302 0
 1139 0b27 8B4508   		movl	8(%ebp), %eax
 1140 0b2a 8B4078   		movl	120(%eax), %eax
 1141 0b2d A3780000 		movl	%eax, _TASK_IDLE_QUEUE+120
 1141      00
 303:E:/NeuOrga/Programmieren/c_cpp/github_os/input/src/os_base\os_task_queue.c ****       (&TASK_IDLE_QUEUE[0u])->task_state                            =   E_TASK_READY             ;
 1142              		.loc 1 303 0
 1143 0b32 C7057C00 		movl	$2, _TASK_IDLE_QUEUE+124
 1143      00000200 
 1143      0000
 304:E:/NeuOrga/Programmieren/c_cpp/github_os/input/src/os_base\os_task_queue.c ****       (&TASK_IDLE_QUEUE[0u])->task_group                            =   task->task_group       ;
 1144              		.loc 1 304 0
 1145 0b3c 8B4508   		movl	8(%ebp), %eax
 1146 0b3f 8B808000 		movl	128(%eax), %eax
GAS LISTING C:\Users\PRESID~1\AppData\Local\Temp\ccHWasuY.s 			page 30


 1146      0000
 1147 0b45 A3800000 		movl	%eax, _TASK_IDLE_QUEUE+128
 1147      00
 305:E:/NeuOrga/Programmieren/c_cpp/github_os/input/src/os_base\os_task_queue.c **** #if(CFG_PROCESSOR == MCU_X86)
 306:E:/NeuOrga/Programmieren/c_cpp/github_os/input/src/os_base\os_task_queue.c ****       (&TASK_IDLE_QUEUE[0u])->eax                                   =   task->eax              ;
 1148              		.loc 1 306 0
 1149 0b4a 8B4508   		movl	8(%ebp), %eax
 1150 0b4d 8B808400 		movl	132(%eax), %eax
 1150      0000
 1151 0b53 A3840000 		movl	%eax, _TASK_IDLE_QUEUE+132
 1151      00
 307:E:/NeuOrga/Programmieren/c_cpp/github_os/input/src/os_base\os_task_queue.c ****       (&TASK_IDLE_QUEUE[0u])->ebx                                   =   task->ebx              ;
 1152              		.loc 1 307 0
 1153 0b58 8B4508   		movl	8(%ebp), %eax
 1154 0b5b 8B808800 		movl	136(%eax), %eax
 1154      0000
 1155 0b61 A3880000 		movl	%eax, _TASK_IDLE_QUEUE+136
 1155      00
 308:E:/NeuOrga/Programmieren/c_cpp/github_os/input/src/os_base\os_task_queue.c ****       (&TASK_IDLE_QUEUE[0u])->ecx                                   =   task->ecx              ;
 1156              		.loc 1 308 0
 1157 0b66 8B4508   		movl	8(%ebp), %eax
 1158 0b69 8B808C00 		movl	140(%eax), %eax
 1158      0000
 1159 0b6f A38C0000 		movl	%eax, _TASK_IDLE_QUEUE+140
 1159      00
 309:E:/NeuOrga/Programmieren/c_cpp/github_os/input/src/os_base\os_task_queue.c ****       (&TASK_IDLE_QUEUE[0u])->edx                                   =   task->edx              ;
 1160              		.loc 1 309 0
 1161 0b74 8B4508   		movl	8(%ebp), %eax
 1162 0b77 8B809000 		movl	144(%eax), %eax
 1162      0000
 1163 0b7d A3900000 		movl	%eax, _TASK_IDLE_QUEUE+144
 1163      00
 310:E:/NeuOrga/Programmieren/c_cpp/github_os/input/src/os_base\os_task_queue.c **** #elif(CFG_PROCESSOR == MCU_CORTEX_M4)
 311:E:/NeuOrga/Programmieren/c_cpp/github_os/input/src/os_base\os_task_queue.c ****       (&TASK_IDLE_QUEUE[0u])->r0                                   =   task->r0              ;
 312:E:/NeuOrga/Programmieren/c_cpp/github_os/input/src/os_base\os_task_queue.c ****       (&TASK_IDLE_QUEUE[0u])->r1                                   =   task->r1              ;
 313:E:/NeuOrga/Programmieren/c_cpp/github_os/input/src/os_base\os_task_queue.c ****       (&TASK_IDLE_QUEUE[0u])->r2                                   =   task->r2              ;
 314:E:/NeuOrga/Programmieren/c_cpp/github_os/input/src/os_base\os_task_queue.c ****       (&TASK_IDLE_QUEUE[0u])->r3                                   =   task->r3              ;
 315:E:/NeuOrga/Programmieren/c_cpp/github_os/input/src/os_base\os_task_queue.c ****       (&TASK_IDLE_QUEUE[0u])->r4                                   =   task->r4              ;
 316:E:/NeuOrga/Programmieren/c_cpp/github_os/input/src/os_base\os_task_queue.c ****       (&TASK_IDLE_QUEUE[0u])->r5                                   =   task->r5              ;
 317:E:/NeuOrga/Programmieren/c_cpp/github_os/input/src/os_base\os_task_queue.c ****       (&TASK_IDLE_QUEUE[0u])->r6                                   =   task->r6              ;
 318:E:/NeuOrga/Programmieren/c_cpp/github_os/input/src/os_base\os_task_queue.c ****       (&TASK_IDLE_QUEUE[0u])->r7                                   =   task->r7              ;
 319:E:/NeuOrga/Programmieren/c_cpp/github_os/input/src/os_base\os_task_queue.c ****       (&TASK_IDLE_QUEUE[0u])->r8                                   =   task->r8              ;
 320:E:/NeuOrga/Programmieren/c_cpp/github_os/input/src/os_base\os_task_queue.c ****       (&TASK_IDLE_QUEUE[0u])->r9                                   =   task->r9              ;
 321:E:/NeuOrga/Programmieren/c_cpp/github_os/input/src/os_base\os_task_queue.c ****       (&TASK_IDLE_QUEUE[0u])->r10                                  =   task->r10             ;
 322:E:/NeuOrga/Programmieren/c_cpp/github_os/input/src/os_base\os_task_queue.c ****       (&TASK_IDLE_QUEUE[0u])->r11                                  =   task->r11             ;
 323:E:/NeuOrga/Programmieren/c_cpp/github_os/input/src/os_base\os_task_queue.c ****       (&TASK_IDLE_QUEUE[0u])->r12                                  =   task->r12             ;
 324:E:/NeuOrga/Programmieren/c_cpp/github_os/input/src/os_base\os_task_queue.c **** #else
 325:E:/NeuOrga/Programmieren/c_cpp/github_os/input/src/os_base\os_task_queue.c **** #error "os_task_queue.c"
 326:E:/NeuOrga/Programmieren/c_cpp/github_os/input/src/os_base\os_task_queue.c **** #endif
 327:E:/NeuOrga/Programmieren/c_cpp/github_os/input/src/os_base\os_task_queue.c ****       (&TASK_IDLE_QUEUE[0u])->p_stack_pointer                         =   task->p_stack_pointer    
 1164              		.loc 1 327 0
 1165 0b82 8B4508   		movl	8(%ebp), %eax
 1166 0b85 8B809400 		movl	148(%eax), %eax
 1166      0000
 1167 0b8b A3940000 		movl	%eax, _TASK_IDLE_QUEUE+148
 1167      00
 328:E:/NeuOrga/Programmieren/c_cpp/github_os/input/src/os_base\os_task_queue.c ****       (&TASK_IDLE_QUEUE[0u])->p_stack_pointer_by_malloc                 =   task->p_stack_pointer_b
GAS LISTING C:\Users\PRESID~1\AppData\Local\Temp\ccHWasuY.s 			page 31


 1168              		.loc 1 328 0
 1169 0b90 8B4508   		movl	8(%ebp), %eax
 1170 0b93 8B809800 		movl	152(%eax), %eax
 1170      0000
 1171 0b99 A3980000 		movl	%eax, _TASK_IDLE_QUEUE+152
 1171      00
 329:E:/NeuOrga/Programmieren/c_cpp/github_os/input/src/os_base\os_task_queue.c ****       (&TASK_IDLE_QUEUE[0u])->p_stack_pointer_start                    =   task->p_stack_pointer_st
 1172              		.loc 1 329 0
 1173 0b9e 8B4508   		movl	8(%ebp), %eax
 1174 0ba1 8B809C00 		movl	156(%eax), %eax
 1174      0000
 1175 0ba7 A39C0000 		movl	%eax, _TASK_IDLE_QUEUE+156
 1175      00
 330:E:/NeuOrga/Programmieren/c_cpp/github_os/input/src/os_base\os_task_queue.c ****       (&TASK_IDLE_QUEUE[0u])->stack_size                             =   task->stack_size        ;
 1176              		.loc 1 330 0
 1177 0bac 8B4508   		movl	8(%ebp), %eax
 1178 0baf 8B80A000 		movl	160(%eax), %eax
 1178      0000
 1179 0bb5 A3A00000 		movl	%eax, _TASK_IDLE_QUEUE+160
 1179      00
 331:E:/NeuOrga/Programmieren/c_cpp/github_os/input/src/os_base\os_task_queue.c ****       (&TASK_IDLE_QUEUE[0u])->p_stack_pointer_end                      =   task->p_stack_pointer_en
 1180              		.loc 1 331 0
 1181 0bba 8B4508   		movl	8(%ebp), %eax
 1182 0bbd 8B80A400 		movl	164(%eax), %eax
 1182      0000
 1183 0bc3 A3A40000 		movl	%eax, _TASK_IDLE_QUEUE+164
 1183      00
 1184              	L27:
 332:E:/NeuOrga/Programmieren/c_cpp/github_os/input/src/os_base\os_task_queue.c ****    }
 333:E:/NeuOrga/Programmieren/c_cpp/github_os/input/src/os_base\os_task_queue.c **** }
 1185              		.loc 1 333 0
 1186 0bc8 C9       		leave
 1187              		.cfi_restore 5
 1188              		.cfi_def_cfa 4, 4
 1189 0bc9 C3       		ret
 1190              		.cfi_endproc
 1191              	LFE9:
 1192              		.globl	_GET_RUNNING_TASK
 1194              	_GET_RUNNING_TASK:
 1195              	LFB10:
 334:E:/NeuOrga/Programmieren/c_cpp/github_os/input/src/os_base\os_task_queue.c **** task_t* GET_RUNNING_TASK(void)
 335:E:/NeuOrga/Programmieren/c_cpp/github_os/input/src/os_base\os_task_queue.c **** {
 1196              		.loc 1 335 0
 1197              		.cfi_startproc
 1198 0bca 55       		pushl	%ebp
 1199              		.cfi_def_cfa_offset 8
 1200              		.cfi_offset 5, -8
 1201 0bcb 89E5     		movl	%esp, %ebp
 1202              		.cfi_def_cfa_register 5
 336:E:/NeuOrga/Programmieren/c_cpp/github_os/input/src/os_base\os_task_queue.c ****    return (&RUNNING_TASK[0u]);
 1203              		.loc 1 336 0
 1204 0bcd B8000000 		movl	$_RUNNING_TASK, %eax
 1204      00
 337:E:/NeuOrga/Programmieren/c_cpp/github_os/input/src/os_base\os_task_queue.c **** }
 1205              		.loc 1 337 0
 1206 0bd2 5D       		popl	%ebp
 1207              		.cfi_restore 5
GAS LISTING C:\Users\PRESID~1\AppData\Local\Temp\ccHWasuY.s 			page 32


 1208              		.cfi_def_cfa 4, 4
 1209 0bd3 C3       		ret
 1210              		.cfi_endproc
 1211              	LFE10:
 1212              		.globl	_GET_RUNNING_SCHEDULING_QUEUE_ELEMENT_PTR
 1214              	_GET_RUNNING_SCHEDULING_QUEUE_ELEMENT_PTR:
 1215              	LFB11:
 338:E:/NeuOrga/Programmieren/c_cpp/github_os/input/src/os_base\os_task_queue.c **** scheduling_t* GET_RUNNING_SCHEDULING_QUEUE_ELEMENT_PTR(void)
 339:E:/NeuOrga/Programmieren/c_cpp/github_os/input/src/os_base\os_task_queue.c **** {
 1216              		.loc 1 339 0
 1217              		.cfi_startproc
 1218 0bd4 55       		pushl	%ebp
 1219              		.cfi_def_cfa_offset 8
 1220              		.cfi_offset 5, -8
 1221 0bd5 89E5     		movl	%esp, %ebp
 1222              		.cfi_def_cfa_register 5
 340:E:/NeuOrga/Programmieren/c_cpp/github_os/input/src/os_base\os_task_queue.c ****    return RUNNING_SCHEDULING_QUEUE_ENTRY;
 1223              		.loc 1 340 0
 1224 0bd7 A1000000 		movl	_RUNNING_SCHEDULING_QUEUE_ENTRY, %eax
 1224      00
 341:E:/NeuOrga/Programmieren/c_cpp/github_os/input/src/os_base\os_task_queue.c **** }
 1225              		.loc 1 341 0
 1226 0bdc 5D       		popl	%ebp
 1227              		.cfi_restore 5
 1228              		.cfi_def_cfa 4, 4
 1229 0bdd C3       		ret
 1230              		.cfi_endproc
 1231              	LFE11:
 1232              		.globl	_OS_INIT_TASK
 1234              	_OS_INIT_TASK:
 1235              	LFB12:
 342:E:/NeuOrga/Programmieren/c_cpp/github_os/input/src/os_base\os_task_queue.c **** void OS_INIT_TASK(
 343:E:/NeuOrga/Programmieren/c_cpp/github_os/input/src/os_base\os_task_queue.c ****    task_t*          task,
 344:E:/NeuOrga/Programmieren/c_cpp/github_os/input/src/os_base\os_task_queue.c ****    func_p_t         TaskFunction,
 345:E:/NeuOrga/Programmieren/c_cpp/github_os/input/src/os_base\os_task_queue.c ****    unsigned_char_t  AllowedInstances,
 346:E:/NeuOrga/Programmieren/c_cpp/github_os/input/src/os_base\os_task_queue.c ****    unsigned_char_t  idle_task,
 347:E:/NeuOrga/Programmieren/c_cpp/github_os/input/src/os_base\os_task_queue.c ****    task_group_t*    p_task_group,
 348:E:/NeuOrga/Programmieren/c_cpp/github_os/input/src/os_base\os_task_queue.c ****    unsigned_char_t* pStackAddr,
 349:E:/NeuOrga/Programmieren/c_cpp/github_os/input/src/os_base\os_task_queue.c ****    unsigned_int32_t uStackSize,
 350:E:/NeuOrga/Programmieren/c_cpp/github_os/input/src/os_base\os_task_queue.c ****    privilige_mode_t privilige_mode,
 351:E:/NeuOrga/Programmieren/c_cpp/github_os/input/src/os_base\os_task_queue.c ****    coreid_t         core,
 352:E:/NeuOrga/Programmieren/c_cpp/github_os/input/src/os_base\os_task_queue.c ****    unsigned_char_t  default_prio
 353:E:/NeuOrga/Programmieren/c_cpp/github_os/input/src/os_base\os_task_queue.c **** )
 354:E:/NeuOrga/Programmieren/c_cpp/github_os/input/src/os_base\os_task_queue.c **** {
 1236              		.loc 1 354 0
 1237              		.cfi_startproc
 1238 0bde 55       		pushl	%ebp
 1239              		.cfi_def_cfa_offset 8
 1240              		.cfi_offset 5, -8
 1241 0bdf 89E5     		movl	%esp, %ebp
 1242              		.cfi_def_cfa_register 5
 1243 0be1 83EC28   		subl	$40, %esp
 1244 0be4 8B4D10   		movl	16(%ebp), %ecx
 1245 0be7 8B5514   		movl	20(%ebp), %edx
 1246 0bea 8B452C   		movl	44(%ebp), %eax
 1247 0bed 884DF4   		movb	%cl, -12(%ebp)
 1248 0bf0 8855F0   		movb	%dl, -16(%ebp)
GAS LISTING C:\Users\PRESID~1\AppData\Local\Temp\ccHWasuY.s 			page 33


 1249 0bf3 8845EC   		movb	%al, -20(%ebp)
 355:E:/NeuOrga/Programmieren/c_cpp/github_os/input/src/os_base\os_task_queue.c ****    REFERENCE_UNUSED_PARAMETER(core);
 356:E:/NeuOrga/Programmieren/c_cpp/github_os/input/src/os_base\os_task_queue.c ****    if(task!=0u)
 1250              		.loc 1 356 0
 1251 0bf6 837D0800 		cmpl	$0, 8(%ebp)
 1252 0bfa 0F840401 		je	L34
 1252      0000
 357:E:/NeuOrga/Programmieren/c_cpp/github_os/input/src/os_base\os_task_queue.c ****    {
 358:E:/NeuOrga/Programmieren/c_cpp/github_os/input/src/os_base\os_task_queue.c ****       task->active           = FALSE;
 1253              		.loc 1 358 0
 1254 0c00 8B4508   		movl	8(%ebp), %eax
 1255 0c03 8A10     		movb	(%eax), %dl
 1256 0c05 83E2FE   		andl	$-2, %edx
 1257 0c08 8810     		movb	%dl, (%eax)
 359:E:/NeuOrga/Programmieren/c_cpp/github_os/input/src/os_base\os_task_queue.c ****       task->fp               = TaskFunction;
 1258              		.loc 1 359 0
 1259 0c0a 8B4508   		movl	8(%ebp), %eax
 1260 0c0d 8B550C   		movl	12(%ebp), %edx
 1261 0c10 895074   		movl	%edx, 116(%eax)
 360:E:/NeuOrga/Programmieren/c_cpp/github_os/input/src/os_base\os_task_queue.c ****       task->nr_of_ins_allowed   = AllowedInstances;
 1262              		.loc 1 360 0
 1263 0c13 8B4508   		movl	8(%ebp), %eax
 1264 0c16 8A55F4   		movb	-12(%ebp), %dl
 1265 0c19 885004   		movb	%dl, 4(%eax)
 361:E:/NeuOrga/Programmieren/c_cpp/github_os/input/src/os_base\os_task_queue.c ****       task->task_group       = p_task_group;
 1266              		.loc 1 361 0
 1267 0c1c 8B4508   		movl	8(%ebp), %eax
 1268 0c1f 8B5518   		movl	24(%ebp), %edx
 1269 0c22 89908000 		movl	%edx, 128(%eax)
 1269      0000
 362:E:/NeuOrga/Programmieren/c_cpp/github_os/input/src/os_base\os_task_queue.c ****       task->nr_of_ins_activated = 0u;
 1270              		.loc 1 362 0
 1271 0c28 8B4508   		movl	8(%ebp), %eax
 1272 0c2b C6400500 		movb	$0, 5(%eax)
 363:E:/NeuOrga/Programmieren/c_cpp/github_os/input/src/os_base\os_task_queue.c ****       ASSIGN_NULL(&task->wait_act_until);
 1273              		.loc 1 363 0
 1274 0c2f 8B4508   		movl	8(%ebp), %eax
 1275 0c32 83C006   		addl	$6, %eax
 1276 0c35 890424   		movl	%eax, (%esp)
 1277 0c38 E8000000 		call	_ASSIGN_NULL
 1277      00
 364:E:/NeuOrga/Programmieren/c_cpp/github_os/input/src/os_base\os_task_queue.c ****       task->privilige_mode   = privilige_mode;
 1278              		.loc 1 364 0
 1279 0c3d 8B4508   		movl	8(%ebp), %eax
 1280 0c40 8B5524   		movl	36(%ebp), %edx
 1281 0c43 8990A800 		movl	%edx, 168(%eax)
 1281      0000
 365:E:/NeuOrga/Programmieren/c_cpp/github_os/input/src/os_base\os_task_queue.c ****       task->default_prio     = default_prio;
 1282              		.loc 1 365 0
 1283 0c49 8B4508   		movl	8(%ebp), %eax
 1284 0c4c 8A55EC   		movb	-20(%ebp), %dl
 1285 0c4f 88506D   		movb	%dl, 109(%eax)
 366:E:/NeuOrga/Programmieren/c_cpp/github_os/input/src/os_base\os_task_queue.c **** 
 367:E:/NeuOrga/Programmieren/c_cpp/github_os/input/src/os_base\os_task_queue.c ****       task->overwaittime_per_prio_inc_step = 1u;
 1286              		.loc 1 367 0
 1287 0c52 8B4508   		movl	8(%ebp), %eax
 1288 0c55 C7403801 		movl	$1, 56(%eax)
GAS LISTING C:\Users\PRESID~1\AppData\Local\Temp\ccHWasuY.s 			page 34


 1288      000000
 368:E:/NeuOrga/Programmieren/c_cpp/github_os/input/src/os_base\os_task_queue.c ****       ASSIGN_UINT32(&task->max_allowed_wait_time, 100000u);
 1289              		.loc 1 368 0
 1290 0c5c 8B4508   		movl	8(%ebp), %eax
 1291 0c5f 83C03C   		addl	$60, %eax
 1292 0c62 C7442404 		movl	$100000, 4(%esp)
 1292      A0860100 
 1293 0c6a 890424   		movl	%eax, (%esp)
 1294 0c6d E8000000 		call	_ASSIGN_UINT32
 1294      00
 369:E:/NeuOrga/Programmieren/c_cpp/github_os/input/src/os_base\os_task_queue.c **** 
 370:E:/NeuOrga/Programmieren/c_cpp/github_os/input/src/os_base\os_task_queue.c ****       task->idle_task      = idle_task;
 1295              		.loc 1 370 0
 1296 0c72 8A45F0   		movb	-16(%ebp), %al
 1297 0c75 83E001   		andl	$1, %eax
 1298 0c78 88C2     		movb	%al, %dl
 1299 0c7a 8B4508   		movl	8(%ebp), %eax
 1300 0c7d 83E201   		andl	$1, %edx
 1301 0c80 8D0C9500 		leal	0(,%edx,4), %ecx
 1301      000000
 1302 0c87 8A10     		movb	(%eax), %dl
 1303 0c89 83E2FB   		andl	$-5, %edx
 1304 0c8c 09CA     		orl	%ecx, %edx
 1305 0c8e 8810     		movb	%dl, (%eax)
 371:E:/NeuOrga/Programmieren/c_cpp/github_os/input/src/os_base\os_task_queue.c ****       task->state_request = &OS_TASK_STATE_REQUEST;
 1306              		.loc 1 371 0
 1307 0c90 8B4508   		movl	8(%ebp), %eax
 1308 0c93 C7407800 		movl	$_OS_TASK_STATE_REQUEST, 120(%eax)
 1308      000000
 372:E:/NeuOrga/Programmieren/c_cpp/github_os/input/src/os_base\os_task_queue.c ****       OS_TASK_STATE_REQUEST(task, E_TASK_UNSPECIFIED);
 1309              		.loc 1 372 0
 1310 0c9a C7442404 		movl	$0, 4(%esp)
 1310      00000000 
 1311 0ca2 8B4508   		movl	8(%ebp), %eax
 1312 0ca5 890424   		movl	%eax, (%esp)
 1313 0ca8 E8000000 		call	_OS_TASK_STATE_REQUEST
 1313      00
 373:E:/NeuOrga/Programmieren/c_cpp/github_os/input/src/os_base\os_task_queue.c ****       OS_CREATE_TASK(task);
 1314              		.loc 1 373 0
 1315 0cad 8B4508   		movl	8(%ebp), %eax
 1316 0cb0 890424   		movl	%eax, (%esp)
 1317 0cb3 E8000000 		call	_OS_CREATE_TASK
 1317      00
 374:E:/NeuOrga/Programmieren/c_cpp/github_os/input/src/os_base\os_task_queue.c **** 
 375:E:/NeuOrga/Programmieren/c_cpp/github_os/input/src/os_base\os_task_queue.c ****       /* just create stack */
 376:E:/NeuOrga/Programmieren/c_cpp/github_os/input/src/os_base\os_task_queue.c ****       task->p_stack_pointer_by_malloc = pStackAddr;
 1318              		.loc 1 376 0
 1319 0cb8 8B4508   		movl	8(%ebp), %eax
 1320 0cbb 8B551C   		movl	28(%ebp), %edx
 1321 0cbe 89909800 		movl	%edx, 152(%eax)
 1321      0000
 377:E:/NeuOrga/Programmieren/c_cpp/github_os/input/src/os_base\os_task_queue.c ****       task->p_stack_pointer_start    = pStackAddr;/*low addresse */
 1322              		.loc 1 377 0
 1323 0cc4 8B4508   		movl	8(%ebp), %eax
 1324 0cc7 8B551C   		movl	28(%ebp), %edx
 1325 0cca 89909C00 		movl	%edx, 156(%eax)
 1325      0000
GAS LISTING C:\Users\PRESID~1\AppData\Local\Temp\ccHWasuY.s 			page 35


 378:E:/NeuOrga/Programmieren/c_cpp/github_os/input/src/os_base\os_task_queue.c ****       task->p_stack_pointer_end      = (unsigned_char_t*)pStackAddr + uStackSize - 1;/* end address
 1326              		.loc 1 378 0
 1327 0cd0 8B4520   		movl	32(%ebp), %eax
 1328 0cd3 8D50FF   		leal	-1(%eax), %edx
 1329 0cd6 8B451C   		movl	28(%ebp), %eax
 1330 0cd9 01C2     		addl	%eax, %edx
 1331 0cdb 8B4508   		movl	8(%ebp), %eax
 1332 0cde 8990A400 		movl	%edx, 164(%eax)
 1332      0000
 379:E:/NeuOrga/Programmieren/c_cpp/github_os/input/src/os_base\os_task_queue.c ****       task->stack_size             = uStackSize;
 1333              		.loc 1 379 0
 1334 0ce4 8B4508   		movl	8(%ebp), %eax
 1335 0ce7 8B5520   		movl	32(%ebp), %edx
 1336 0cea 8990A000 		movl	%edx, 160(%eax)
 1336      0000
 380:E:/NeuOrga/Programmieren/c_cpp/github_os/input/src/os_base\os_task_queue.c ****       /* stack register */
 381:E:/NeuOrga/Programmieren/c_cpp/github_os/input/src/os_base\os_task_queue.c ****       task->p_stack_pointer                    = task->p_stack_pointer_end;/* stack wchst von gro
 1337              		.loc 1 381 0
 1338 0cf0 8B4508   		movl	8(%ebp), %eax
 1339 0cf3 8B90A400 		movl	164(%eax), %edx
 1339      0000
 1340 0cf9 8B4508   		movl	8(%ebp), %eax
 1341 0cfc 89909400 		movl	%edx, 148(%eax)
 1341      0000
 1342 0d02 EB14     		jmp	L33
 1343              	L34:
 382:E:/NeuOrga/Programmieren/c_cpp/github_os/input/src/os_base\os_task_queue.c ****    }
 383:E:/NeuOrga/Programmieren/c_cpp/github_os/input/src/os_base\os_task_queue.c ****    else
 384:E:/NeuOrga/Programmieren/c_cpp/github_os/input/src/os_base\os_task_queue.c ****    {
 385:E:/NeuOrga/Programmieren/c_cpp/github_os/input/src/os_base\os_task_queue.c ****       OS_SET_SW_BUG(E_OS_BUG_NULL_POINTER, E_FUNC_INITTASK);
 1344              		.loc 1 385 0
 1345 0d04 C7442404 		movl	$10, 4(%esp)
 1345      0A000000 
 1346 0d0c C7042402 		movl	$2, (%esp)
 1346      000000
 1347 0d13 E8000000 		call	_OS_SET_SW_BUG
 1347      00
 1348              	L33:
 386:E:/NeuOrga/Programmieren/c_cpp/github_os/input/src/os_base\os_task_queue.c ****    }
 387:E:/NeuOrga/Programmieren/c_cpp/github_os/input/src/os_base\os_task_queue.c **** }
 1349              		.loc 1 387 0
 1350 0d18 C9       		leave
 1351              		.cfi_restore 5
 1352              		.cfi_def_cfa 4, 4
 1353 0d19 C3       		ret
 1354              		.cfi_endproc
 1355              	LFE12:
 1356              	Letext0:
 1357              		.file 2 "E:/NeuOrga/Programmieren/c_cpp/github_os/input/src/os_base/../os_base/os_base_types.h"
 1358              		.file 3 "E:/NeuOrga/Programmieren/c_cpp/github_os/input/src/os_base/../os_base/os_common.h"
 1359              		.file 4 "E:/NeuOrga/Programmieren/c_cpp/github_os/input/src/os_base/../os_sim/lld_core.h"
 1360              		.file 5 "E:/NeuOrga/Programmieren/c_cpp/github_os/input/src/os_base/../os_sim/../os_base/os_task_c
 1361              		.file 6 "E:/NeuOrga/Programmieren/c_cpp/github_os/input/src/os_base/../os_base/os_ram.h"