GAS LISTING C:\Users\PRESID~1\AppData\Local\Temp\ccR9pTsK.s 			page 1


   1              		.file	"os_task_scheduler.c"
   2              		.text
   3              	Ltext0:
   4              	.lcomm _TASK_STACK,1000,32
   5              	.lcomm _LAST_CURRENT_TIME,4,4
   6              		.globl	_OS_ACTIVATE_DISPATCHER
   8              	_OS_ACTIVATE_DISPATCHER:
   9              	LFB0:
  10              		.file 1 "E:/NeuOrga/Programmieren/c_cpp/github_os/input/src/os_base/os_task_scheduler.c"
   1:E:/NeuOrga/Programmieren/c_cpp/github_os/input/src/os_base\os_task_scheduler.c **** #include "os_firstinc.h"
   2:E:/NeuOrga/Programmieren/c_cpp/github_os/input/src/os_base\os_task_scheduler.c **** #include "os_common.h"
   3:E:/NeuOrga/Programmieren/c_cpp/github_os/input/src/os_base\os_task_scheduler.c **** #include "os_task_common.h"
   4:E:/NeuOrga/Programmieren/c_cpp/github_os/input/src/os_base\os_task_scheduler.c **** #include "os_task_scheduler.h"
   5:E:/NeuOrga/Programmieren/c_cpp/github_os/input/src/os_base\os_task_scheduler.c **** #include "os_task_queue.h"
   6:E:/NeuOrga/Programmieren/c_cpp/github_os/input/src/os_base\os_task_scheduler.c **** #include "os_stack.h"
   7:E:/NeuOrga/Programmieren/c_cpp/github_os/input/src/os_base\os_task_scheduler.c **** 
   8:E:/NeuOrga/Programmieren/c_cpp/github_os/input/src/os_base\os_task_scheduler.c **** /*
   9:E:/NeuOrga/Programmieren/c_cpp/github_os/input/src/os_base\os_task_scheduler.c **** 1. running     --(terminate)--> suspend
  10:E:/NeuOrga/Programmieren/c_cpp/github_os/input/src/os_base\os_task_scheduler.c **** 2. running     --(preempt  )--> ready
  11:E:/NeuOrga/Programmieren/c_cpp/github_os/input/src/os_base\os_task_scheduler.c **** 3. suspend     --(activate )--> ready
  12:E:/NeuOrga/Programmieren/c_cpp/github_os/input/src/os_base\os_task_scheduler.c **** 4. ready       --(start    )--> running
  13:E:/NeuOrga/Programmieren/c_cpp/github_os/input/src/os_base\os_task_scheduler.c **** 5. unspecified --(create   )--> suspend
  14:E:/NeuOrga/Programmieren/c_cpp/github_os/input/src/os_base\os_task_scheduler.c **** */
  15:E:/NeuOrga/Programmieren/c_cpp/github_os/input/src/os_base\os_task_scheduler.c **** 
  16:E:/NeuOrga/Programmieren/c_cpp/github_os/input/src/os_base\os_task_scheduler.c **** Local void OS_STARTTASK(task_t* task);
  17:E:/NeuOrga/Programmieren/c_cpp/github_os/input/src/os_base\os_task_scheduler.c **** Local void OS_TERMINATE_TASK(task_t* task);
  18:E:/NeuOrga/Programmieren/c_cpp/github_os/input/src/os_base\os_task_scheduler.c **** Local void TASK_0(void* task_ptr);
  19:E:/NeuOrga/Programmieren/c_cpp/github_os/input/src/os_base\os_task_scheduler.c **** Local void TASK_1(void* task_ptr);
  20:E:/NeuOrga/Programmieren/c_cpp/github_os/input/src/os_base\os_task_scheduler.c **** Local void TASK_2(void* task_ptr);
  21:E:/NeuOrga/Programmieren/c_cpp/github_os/input/src/os_base\os_task_scheduler.c **** Local void OS_TASK_DISPATCHER(void);
  22:E:/NeuOrga/Programmieren/c_cpp/github_os/input/src/os_base\os_task_scheduler.c **** Local task_t* OS_TaskScheduler();
  23:E:/NeuOrga/Programmieren/c_cpp/github_os/input/src/os_base\os_task_scheduler.c **** 
  24:E:/NeuOrga/Programmieren/c_cpp/github_os/input/src/os_base\os_task_scheduler.c **** Local unsigned_char_t   TASK_STACK[MAX_RUN_QUEUE_SIZE][TASK_STACK_SIZE];
  25:E:/NeuOrga/Programmieren/c_cpp/github_os/input/src/os_base\os_task_scheduler.c **** Local scheduler_time_t LAST_CURRENT_TIME = 0;
  26:E:/NeuOrga/Programmieren/c_cpp/github_os/input/src/os_base\os_task_scheduler.c **** 
  27:E:/NeuOrga/Programmieren/c_cpp/github_os/input/src/os_base\os_task_scheduler.c **** 
  28:E:/NeuOrga/Programmieren/c_cpp/github_os/input/src/os_base\os_task_scheduler.c **** void OS_ACTIVATE_DISPATCHER(void)
  29:E:/NeuOrga/Programmieren/c_cpp/github_os/input/src/os_base\os_task_scheduler.c **** {
  11              		.loc 1 29 0
  12              		.cfi_startproc
  13 0000 55       		pushl	%ebp
  14              		.cfi_def_cfa_offset 8
  15              		.cfi_offset 5, -8
  16 0001 89E5     		movl	%esp, %ebp
  17              		.cfi_def_cfa_register 5
  30:E:/NeuOrga/Programmieren/c_cpp/github_os/input/src/os_base\os_task_scheduler.c **** 
  31:E:/NeuOrga/Programmieren/c_cpp/github_os/input/src/os_base\os_task_scheduler.c ****    /* configure the TCMP */
  32:E:/NeuOrga/Programmieren/c_cpp/github_os/input/src/os_base\os_task_scheduler.c ****    /*
  33:E:/NeuOrga/Programmieren/c_cpp/github_os/input/src/os_base\os_task_scheduler.c ****    Dispatcher function for Core 0:
  34:E:/NeuOrga/Programmieren/c_cpp/github_os/input/src/os_base\os_task_scheduler.c ****     -> ISR_TASK_DISPATCH_C0
  35:E:/NeuOrga/Programmieren/c_cpp/github_os/input/src/os_base\os_task_scheduler.c ****    Write Adresse into the config register (interrupts are requested by SWI/SVC???)
  36:E:/NeuOrga/Programmieren/c_cpp/github_os/input/src/os_base\os_task_scheduler.c ****    */
  37:E:/NeuOrga/Programmieren/c_cpp/github_os/input/src/os_base\os_task_scheduler.c ****    #define SYSTICK_CTRL_STAT_REG ((uint32*)0xE000E010)
  38:E:/NeuOrga/Programmieren/c_cpp/github_os/input/src/os_base\os_task_scheduler.c ****    #define SYSTICK_RLD_VAL_REG   ((uint32*)0xE000E014)
  39:E:/NeuOrga/Programmieren/c_cpp/github_os/input/src/os_base\os_task_scheduler.c ****    #define SYSTICK_CURRENT_VAL_REG ((uint32*)0xE000E018)
  40:E:/NeuOrga/Programmieren/c_cpp/github_os/input/src/os_base\os_task_scheduler.c ****    #define SYSTICK_STAT_REG_TICKINT ((uint32)0x00000002)
  41:E:/NeuOrga/Programmieren/c_cpp/github_os/input/src/os_base\os_task_scheduler.c ****    #define SYSTICK_STAT_REG_ENABLE  ((uint32)0x00000001)
GAS LISTING C:\Users\PRESID~1\AppData\Local\Temp\ccR9pTsK.s 			page 2


  42:E:/NeuOrga/Programmieren/c_cpp/github_os/input/src/os_base\os_task_scheduler.c ****    #define LOOPTIME_IN_USEC ((uint32)10000u)
  43:E:/NeuOrga/Programmieren/c_cpp/github_os/input/src/os_base\os_task_scheduler.c ****    /*
  44:E:/NeuOrga/Programmieren/c_cpp/github_os/input/src/os_base\os_task_scheduler.c ****    CLOCK = HCLK / 8
  45:E:/NeuOrga/Programmieren/c_cpp/github_os/input/src/os_base\os_task_scheduler.c ****    vermutlich: CLOCK = 150Mhz / 8 = 18,75 Mhz
  46:E:/NeuOrga/Programmieren/c_cpp/github_os/input/src/os_base\os_task_scheduler.c ****    */
  47:E:/NeuOrga/Programmieren/c_cpp/github_os/input/src/os_base\os_task_scheduler.c ****    #if(CFG_PROCESSOR == cMCU_CORTEX_M4)
  48:E:/NeuOrga/Programmieren/c_cpp/github_os/input/src/os_base\os_task_scheduler.c ****    *SYSTICK_RLD_VAL_REG = *SYSTICK_RLD_VAL_REG | (((uint32)MCU_CLOCK_IN_HZ * LOOPTIME_IN_USEC) / ((
  49:E:/NeuOrga/Programmieren/c_cpp/github_os/input/src/os_base\os_task_scheduler.c ****    *SYSTICK_CURRENT_VAL_REG = ((uint32)0x00000000);
  50:E:/NeuOrga/Programmieren/c_cpp/github_os/input/src/os_base\os_task_scheduler.c ****    *SYSTICK_CTRL_STAT_REG = *SYSTICK_CTRL_STAT_REG | SYSTICK_STAT_REG_TICKINT | SYSTICK_STAT_REG_EN
  51:E:/NeuOrga/Programmieren/c_cpp/github_os/input/src/os_base\os_task_scheduler.c ****    #endif
  52:E:/NeuOrga/Programmieren/c_cpp/github_os/input/src/os_base\os_task_scheduler.c **** }
  18              		.loc 1 52 0
  19 0003 5D       		popl	%ebp
  20              		.cfi_restore 5
  21              		.cfi_def_cfa 4, 4
  22 0004 C3       		ret
  23              		.cfi_endproc
  24              	LFE0:
  25              		.globl	_OS_SLEEPTASK
  27              	_OS_SLEEPTASK:
  28              	LFB1:
  53:E:/NeuOrga/Programmieren/c_cpp/github_os/input/src/os_base\os_task_scheduler.c **** 
  54:E:/NeuOrga/Programmieren/c_cpp/github_os/input/src/os_base\os_task_scheduler.c **** 
  55:E:/NeuOrga/Programmieren/c_cpp/github_os/input/src/os_base\os_task_scheduler.c **** void OS_SLEEPTASK(task_t* task, task_time_t millisec)
  56:E:/NeuOrga/Programmieren/c_cpp/github_os/input/src/os_base\os_task_scheduler.c **** {
  29              		.loc 1 56 0
  30              		.cfi_startproc
  31 0005 55       		pushl	%ebp
  32              		.cfi_def_cfa_offset 8
  33              		.cfi_offset 5, -8
  34 0006 89E5     		movl	%esp, %ebp
  35              		.cfi_def_cfa_register 5
  36 0008 83EC08   		subl	$8, %esp
  57:E:/NeuOrga/Programmieren/c_cpp/github_os/input/src/os_base\os_task_scheduler.c ****    task->WaitActUntil = Get_current_time() + millisec;
  37              		.loc 1 57 0
  38 000b E8000000 		call	_Get_current_time
  38      00
  39 0010 89C2     		movl	%eax, %edx
  40 0012 8B450C   		movl	12(%ebp), %eax
  41 0015 01C2     		addl	%eax, %edx
  42 0017 8B4508   		movl	8(%ebp), %eax
  43 001a 895008   		movl	%edx, 8(%eax)
  58:E:/NeuOrga/Programmieren/c_cpp/github_os/input/src/os_base\os_task_scheduler.c **** }
  44              		.loc 1 58 0
  45 001d C9       		leave
  46              		.cfi_restore 5
  47              		.cfi_def_cfa 4, 4
  48 001e C3       		ret
  49              		.cfi_endproc
  50              	LFE1:
  51              		.globl	_task_state_request
  53              	_task_state_request:
  54              	LFB2:
  59:E:/NeuOrga/Programmieren/c_cpp/github_os/input/src/os_base\os_task_scheduler.c **** 
  60:E:/NeuOrga/Programmieren/c_cpp/github_os/input/src/os_base\os_task_scheduler.c **** unsigned_char_t task_state_request(void* temp_task, task_state_t requested_state)
  61:E:/NeuOrga/Programmieren/c_cpp/github_os/input/src/os_base\os_task_scheduler.c **** {
  55              		.loc 1 61 0
GAS LISTING C:\Users\PRESID~1\AppData\Local\Temp\ccR9pTsK.s 			page 3


  56              		.cfi_startproc
  57 001f 55       		pushl	%ebp
  58              		.cfi_def_cfa_offset 8
  59              		.cfi_offset 5, -8
  60 0020 89E5     		movl	%esp, %ebp
  61              		.cfi_def_cfa_register 5
  62 0022 83EC28   		subl	$40, %esp
  62:E:/NeuOrga/Programmieren/c_cpp/github_os/input/src/os_base\os_task_scheduler.c ****    unsigned_char_t RequestState = Rejected;
  63              		.loc 1 62 0
  64 0025 C645F700 		movb	$0, -9(%ebp)
  63:E:/NeuOrga/Programmieren/c_cpp/github_os/input/src/os_base\os_task_scheduler.c **** 
  64:E:/NeuOrga/Programmieren/c_cpp/github_os/input/src/os_base\os_task_scheduler.c ****    task_t* task = (task_t*) temp_task;
  65              		.loc 1 64 0
  66 0029 8B4508   		movl	8(%ebp), %eax
  67 002c 8945F0   		movl	%eax, -16(%ebp)
  65:E:/NeuOrga/Programmieren/c_cpp/github_os/input/src/os_base\os_task_scheduler.c **** 
  66:E:/NeuOrga/Programmieren/c_cpp/github_os/input/src/os_base\os_task_scheduler.c ****    switch(requested_state)
  68              		.loc 1 66 0
  69 002f 8B450C   		movl	12(%ebp), %eax
  70 0032 83F801   		cmpl	$1, %eax
  71 0035 743E     		je	L5
  72 0037 83F801   		cmpl	$1, %eax
  73 003a 7213     		jb	L6
  74 003c 83F802   		cmpl	$2, %eax
  75 003f 0F848000 		je	L7
  75      0000
  76 0045 83F803   		cmpl	$3, %eax
  77 0048 745D     		je	L8
  67:E:/NeuOrga/Programmieren/c_cpp/github_os/input/src/os_base\os_task_scheduler.c ****    {
  68:E:/NeuOrga/Programmieren/c_cpp/github_os/input/src/os_base\os_task_scheduler.c ****    case Task_unspecified:/* 1. create new task */
  69:E:/NeuOrga/Programmieren/c_cpp/github_os/input/src/os_base\os_task_scheduler.c ****    {
  70:E:/NeuOrga/Programmieren/c_cpp/github_os/input/src/os_base\os_task_scheduler.c ****       switch(task->task_state)
  71:E:/NeuOrga/Programmieren/c_cpp/github_os/input/src/os_base\os_task_scheduler.c ****       {
  72:E:/NeuOrga/Programmieren/c_cpp/github_os/input/src/os_base\os_task_scheduler.c ****       case Task_ready:
  73:E:/NeuOrga/Programmieren/c_cpp/github_os/input/src/os_base\os_task_scheduler.c ****       case Task_running:
  74:E:/NeuOrga/Programmieren/c_cpp/github_os/input/src/os_base\os_task_scheduler.c ****       case Task_suspended:
  75:E:/NeuOrga/Programmieren/c_cpp/github_os/input/src/os_base\os_task_scheduler.c ****       {
  76:E:/NeuOrga/Programmieren/c_cpp/github_os/input/src/os_base\os_task_scheduler.c ****          RequestState = Rejected;
  77:E:/NeuOrga/Programmieren/c_cpp/github_os/input/src/os_base\os_task_scheduler.c ****          break;
  78:E:/NeuOrga/Programmieren/c_cpp/github_os/input/src/os_base\os_task_scheduler.c ****       }
  79:E:/NeuOrga/Programmieren/c_cpp/github_os/input/src/os_base\os_task_scheduler.c ****       default:
  80:E:/NeuOrga/Programmieren/c_cpp/github_os/input/src/os_base\os_task_scheduler.c ****       {
  81:E:/NeuOrga/Programmieren/c_cpp/github_os/input/src/os_base\os_task_scheduler.c ****          task->task_state = Task_unspecified;
  82:E:/NeuOrga/Programmieren/c_cpp/github_os/input/src/os_base\os_task_scheduler.c ****          RequestState = Accepted;
  83:E:/NeuOrga/Programmieren/c_cpp/github_os/input/src/os_base\os_task_scheduler.c ****          break;
  84:E:/NeuOrga/Programmieren/c_cpp/github_os/input/src/os_base\os_task_scheduler.c ****       }
  85:E:/NeuOrga/Programmieren/c_cpp/github_os/input/src/os_base\os_task_scheduler.c ****       }
  86:E:/NeuOrga/Programmieren/c_cpp/github_os/input/src/os_base\os_task_scheduler.c ****       break;
  87:E:/NeuOrga/Programmieren/c_cpp/github_os/input/src/os_base\os_task_scheduler.c ****    }
  88:E:/NeuOrga/Programmieren/c_cpp/github_os/input/src/os_base\os_task_scheduler.c ****    case Task_suspended:
  89:E:/NeuOrga/Programmieren/c_cpp/github_os/input/src/os_base\os_task_scheduler.c ****    {
  90:E:/NeuOrga/Programmieren/c_cpp/github_os/input/src/os_base\os_task_scheduler.c ****       switch(task->task_state)
  91:E:/NeuOrga/Programmieren/c_cpp/github_os/input/src/os_base\os_task_scheduler.c ****       {
  92:E:/NeuOrga/Programmieren/c_cpp/github_os/input/src/os_base\os_task_scheduler.c ****       case Task_unspecified: /* 2. create task transition */
  93:E:/NeuOrga/Programmieren/c_cpp/github_os/input/src/os_base\os_task_scheduler.c ****       {
  94:E:/NeuOrga/Programmieren/c_cpp/github_os/input/src/os_base\os_task_scheduler.c ****          /* no checks */
  95:E:/NeuOrga/Programmieren/c_cpp/github_os/input/src/os_base\os_task_scheduler.c ****          task->task_state = Task_suspended;
GAS LISTING C:\Users\PRESID~1\AppData\Local\Temp\ccR9pTsK.s 			page 4


  96:E:/NeuOrga/Programmieren/c_cpp/github_os/input/src/os_base\os_task_scheduler.c ****          RequestState = Accepted;
  97:E:/NeuOrga/Programmieren/c_cpp/github_os/input/src/os_base\os_task_scheduler.c ****          break;
  98:E:/NeuOrga/Programmieren/c_cpp/github_os/input/src/os_base\os_task_scheduler.c ****       }
  99:E:/NeuOrga/Programmieren/c_cpp/github_os/input/src/os_base\os_task_scheduler.c ****       case Task_running: /* 3. terminate task */
 100:E:/NeuOrga/Programmieren/c_cpp/github_os/input/src/os_base\os_task_scheduler.c ****       {
 101:E:/NeuOrga/Programmieren/c_cpp/github_os/input/src/os_base\os_task_scheduler.c ****          task->task_state = Task_suspended;
 102:E:/NeuOrga/Programmieren/c_cpp/github_os/input/src/os_base\os_task_scheduler.c ****          RequestState = Accepted;
 103:E:/NeuOrga/Programmieren/c_cpp/github_os/input/src/os_base\os_task_scheduler.c ****          break;
 104:E:/NeuOrga/Programmieren/c_cpp/github_os/input/src/os_base\os_task_scheduler.c ****       }
 105:E:/NeuOrga/Programmieren/c_cpp/github_os/input/src/os_base\os_task_scheduler.c ****       default:
 106:E:/NeuOrga/Programmieren/c_cpp/github_os/input/src/os_base\os_task_scheduler.c ****       {
 107:E:/NeuOrga/Programmieren/c_cpp/github_os/input/src/os_base\os_task_scheduler.c ****          /* no change in states allowed */
 108:E:/NeuOrga/Programmieren/c_cpp/github_os/input/src/os_base\os_task_scheduler.c ****          break;
 109:E:/NeuOrga/Programmieren/c_cpp/github_os/input/src/os_base\os_task_scheduler.c ****       }
 110:E:/NeuOrga/Programmieren/c_cpp/github_os/input/src/os_base\os_task_scheduler.c ****       }
 111:E:/NeuOrga/Programmieren/c_cpp/github_os/input/src/os_base\os_task_scheduler.c ****       break;
 112:E:/NeuOrga/Programmieren/c_cpp/github_os/input/src/os_base\os_task_scheduler.c ****    }
 113:E:/NeuOrga/Programmieren/c_cpp/github_os/input/src/os_base\os_task_scheduler.c ****    case Task_running:
 114:E:/NeuOrga/Programmieren/c_cpp/github_os/input/src/os_base\os_task_scheduler.c ****    {
 115:E:/NeuOrga/Programmieren/c_cpp/github_os/input/src/os_base\os_task_scheduler.c ****       switch(task->task_state)
 116:E:/NeuOrga/Programmieren/c_cpp/github_os/input/src/os_base\os_task_scheduler.c ****       {
 117:E:/NeuOrga/Programmieren/c_cpp/github_os/input/src/os_base\os_task_scheduler.c ****       case Task_ready: /* 4. start task transition */
 118:E:/NeuOrga/Programmieren/c_cpp/github_os/input/src/os_base\os_task_scheduler.c ****       {
 119:E:/NeuOrga/Programmieren/c_cpp/github_os/input/src/os_base\os_task_scheduler.c ****          task->task_state = Task_running;
 120:E:/NeuOrga/Programmieren/c_cpp/github_os/input/src/os_base\os_task_scheduler.c ****          RequestState   = Accepted;
 121:E:/NeuOrga/Programmieren/c_cpp/github_os/input/src/os_base\os_task_scheduler.c ****          break;
 122:E:/NeuOrga/Programmieren/c_cpp/github_os/input/src/os_base\os_task_scheduler.c ****       }
 123:E:/NeuOrga/Programmieren/c_cpp/github_os/input/src/os_base\os_task_scheduler.c ****       default:
 124:E:/NeuOrga/Programmieren/c_cpp/github_os/input/src/os_base\os_task_scheduler.c ****       {
 125:E:/NeuOrga/Programmieren/c_cpp/github_os/input/src/os_base\os_task_scheduler.c ****          /* no change in states allowed */
 126:E:/NeuOrga/Programmieren/c_cpp/github_os/input/src/os_base\os_task_scheduler.c ****          break;
 127:E:/NeuOrga/Programmieren/c_cpp/github_os/input/src/os_base\os_task_scheduler.c ****       }
 128:E:/NeuOrga/Programmieren/c_cpp/github_os/input/src/os_base\os_task_scheduler.c ****       }
 129:E:/NeuOrga/Programmieren/c_cpp/github_os/input/src/os_base\os_task_scheduler.c ****       break;
 130:E:/NeuOrga/Programmieren/c_cpp/github_os/input/src/os_base\os_task_scheduler.c **** 
 131:E:/NeuOrga/Programmieren/c_cpp/github_os/input/src/os_base\os_task_scheduler.c ****    }
 132:E:/NeuOrga/Programmieren/c_cpp/github_os/input/src/os_base\os_task_scheduler.c ****    case Task_ready:
 133:E:/NeuOrga/Programmieren/c_cpp/github_os/input/src/os_base\os_task_scheduler.c ****    {
 134:E:/NeuOrga/Programmieren/c_cpp/github_os/input/src/os_base\os_task_scheduler.c ****       switch(task->task_state)
 135:E:/NeuOrga/Programmieren/c_cpp/github_os/input/src/os_base\os_task_scheduler.c ****       {
 136:E:/NeuOrga/Programmieren/c_cpp/github_os/input/src/os_base\os_task_scheduler.c ****       case Task_suspended: /* activate task transition */
 137:E:/NeuOrga/Programmieren/c_cpp/github_os/input/src/os_base\os_task_scheduler.c ****       {
 138:E:/NeuOrga/Programmieren/c_cpp/github_os/input/src/os_base\os_task_scheduler.c ****          task->task_state = Task_ready;
 139:E:/NeuOrga/Programmieren/c_cpp/github_os/input/src/os_base\os_task_scheduler.c ****          RequestState   = Accepted;
 140:E:/NeuOrga/Programmieren/c_cpp/github_os/input/src/os_base\os_task_scheduler.c ****          break;
 141:E:/NeuOrga/Programmieren/c_cpp/github_os/input/src/os_base\os_task_scheduler.c ****       }
 142:E:/NeuOrga/Programmieren/c_cpp/github_os/input/src/os_base\os_task_scheduler.c ****       case Task_running: /* preempt task transition */
 143:E:/NeuOrga/Programmieren/c_cpp/github_os/input/src/os_base\os_task_scheduler.c ****       {
 144:E:/NeuOrga/Programmieren/c_cpp/github_os/input/src/os_base\os_task_scheduler.c ****          task->task_state = Task_ready;
 145:E:/NeuOrga/Programmieren/c_cpp/github_os/input/src/os_base\os_task_scheduler.c ****          RequestState   = Accepted;
 146:E:/NeuOrga/Programmieren/c_cpp/github_os/input/src/os_base\os_task_scheduler.c ****          break;
 147:E:/NeuOrga/Programmieren/c_cpp/github_os/input/src/os_base\os_task_scheduler.c ****       }
 148:E:/NeuOrga/Programmieren/c_cpp/github_os/input/src/os_base\os_task_scheduler.c ****       default:
 149:E:/NeuOrga/Programmieren/c_cpp/github_os/input/src/os_base\os_task_scheduler.c ****       {
 150:E:/NeuOrga/Programmieren/c_cpp/github_os/input/src/os_base\os_task_scheduler.c ****          /* no change in states allowed */
 151:E:/NeuOrga/Programmieren/c_cpp/github_os/input/src/os_base\os_task_scheduler.c ****          break;
 152:E:/NeuOrga/Programmieren/c_cpp/github_os/input/src/os_base\os_task_scheduler.c ****       }
GAS LISTING C:\Users\PRESID~1\AppData\Local\Temp\ccR9pTsK.s 			page 5


 153:E:/NeuOrga/Programmieren/c_cpp/github_os/input/src/os_base\os_task_scheduler.c ****       }
 154:E:/NeuOrga/Programmieren/c_cpp/github_os/input/src/os_base\os_task_scheduler.c ****       break;
 155:E:/NeuOrga/Programmieren/c_cpp/github_os/input/src/os_base\os_task_scheduler.c ****    }
 156:E:/NeuOrga/Programmieren/c_cpp/github_os/input/src/os_base\os_task_scheduler.c ****    default:
 157:E:/NeuOrga/Programmieren/c_cpp/github_os/input/src/os_base\os_task_scheduler.c ****    {
 158:E:/NeuOrga/Programmieren/c_cpp/github_os/input/src/os_base\os_task_scheduler.c ****       break;
  78              		.loc 1 158 0
  79 004a E9A80000 		jmp	L12
  79      00
  80              	L6:
  70:E:/NeuOrga/Programmieren/c_cpp/github_os/input/src/os_base\os_task_scheduler.c ****       {
  81              		.loc 1 70 0
  82 004f 8B45F0   		movl	-16(%ebp), %eax
  83 0052 8B4030   		movl	48(%eax), %eax
  84 0055 48       		decl	%eax
  85 0056 83F802   		cmpl	$2, %eax
  86 0059 7706     		ja	L9
  76:E:/NeuOrga/Programmieren/c_cpp/github_os/input/src/os_base\os_task_scheduler.c ****          break;
  87              		.loc 1 76 0
  88 005b C645F700 		movb	$0, -9(%ebp)
  77:E:/NeuOrga/Programmieren/c_cpp/github_os/input/src/os_base\os_task_scheduler.c ****       }
  89              		.loc 1 77 0
  90 005f EB0F     		jmp	L11
  91              	L9:
  81:E:/NeuOrga/Programmieren/c_cpp/github_os/input/src/os_base\os_task_scheduler.c ****          RequestState = Accepted;
  92              		.loc 1 81 0
  93 0061 8B45F0   		movl	-16(%ebp), %eax
  94 0064 C7403000 		movl	$0, 48(%eax)
  94      000000
  82:E:/NeuOrga/Programmieren/c_cpp/github_os/input/src/os_base\os_task_scheduler.c ****          break;
  95              		.loc 1 82 0
  96 006b C645F701 		movb	$1, -9(%ebp)
  83:E:/NeuOrga/Programmieren/c_cpp/github_os/input/src/os_base\os_task_scheduler.c ****       }
  97              		.loc 1 83 0
  98 006f 90       		nop
  99              	L11:
  86:E:/NeuOrga/Programmieren/c_cpp/github_os/input/src/os_base\os_task_scheduler.c ****    }
 100              		.loc 1 86 0
 101 0070 E9820000 		jmp	L12
 101      00
 102              	L5:
  90:E:/NeuOrga/Programmieren/c_cpp/github_os/input/src/os_base\os_task_scheduler.c ****       {
 103              		.loc 1 90 0
 104 0075 8B45F0   		movl	-16(%ebp), %eax
 105 0078 8B4030   		movl	48(%eax), %eax
 106 007b 85C0     		testl	%eax, %eax
 107 007d 7407     		je	L14
 108 007f 83F803   		cmpl	$3, %eax
 109 0082 7412     		je	L15
 108:E:/NeuOrga/Programmieren/c_cpp/github_os/input/src/os_base\os_task_scheduler.c ****       }
 110              		.loc 1 108 0
 111 0084 EB1F     		jmp	L16
 112              	L14:
  95:E:/NeuOrga/Programmieren/c_cpp/github_os/input/src/os_base\os_task_scheduler.c ****          RequestState = Accepted;
 113              		.loc 1 95 0
 114 0086 8B45F0   		movl	-16(%ebp), %eax
 115 0089 C7403001 		movl	$1, 48(%eax)
GAS LISTING C:\Users\PRESID~1\AppData\Local\Temp\ccR9pTsK.s 			page 6


 115      000000
  96:E:/NeuOrga/Programmieren/c_cpp/github_os/input/src/os_base\os_task_scheduler.c ****          break;
 116              		.loc 1 96 0
 117 0090 C645F701 		movb	$1, -9(%ebp)
  97:E:/NeuOrga/Programmieren/c_cpp/github_os/input/src/os_base\os_task_scheduler.c ****       }
 118              		.loc 1 97 0
 119 0094 EB0F     		jmp	L16
 120              	L15:
 101:E:/NeuOrga/Programmieren/c_cpp/github_os/input/src/os_base\os_task_scheduler.c ****          RequestState = Accepted;
 121              		.loc 1 101 0
 122 0096 8B45F0   		movl	-16(%ebp), %eax
 123 0099 C7403001 		movl	$1, 48(%eax)
 123      000000
 102:E:/NeuOrga/Programmieren/c_cpp/github_os/input/src/os_base\os_task_scheduler.c ****          break;
 124              		.loc 1 102 0
 125 00a0 C645F701 		movb	$1, -9(%ebp)
 103:E:/NeuOrga/Programmieren/c_cpp/github_os/input/src/os_base\os_task_scheduler.c ****       }
 126              		.loc 1 103 0
 127 00a4 90       		nop
 128              	L16:
 111:E:/NeuOrga/Programmieren/c_cpp/github_os/input/src/os_base\os_task_scheduler.c ****    }
 129              		.loc 1 111 0 discriminator 1
 130 00a5 EB50     		jmp	L12
 131              	L8:
 115:E:/NeuOrga/Programmieren/c_cpp/github_os/input/src/os_base\os_task_scheduler.c ****       {
 132              		.loc 1 115 0
 133 00a7 8B45F0   		movl	-16(%ebp), %eax
 134 00aa 8B4030   		movl	48(%eax), %eax
 135 00ad 83F802   		cmpl	$2, %eax
 136 00b0 7402     		je	L18
 126:E:/NeuOrga/Programmieren/c_cpp/github_os/input/src/os_base\os_task_scheduler.c ****       }
 137              		.loc 1 126 0
 138 00b2 EB0F     		jmp	L19
 139              	L18:
 119:E:/NeuOrga/Programmieren/c_cpp/github_os/input/src/os_base\os_task_scheduler.c ****          RequestState   = Accepted;
 140              		.loc 1 119 0
 141 00b4 8B45F0   		movl	-16(%ebp), %eax
 142 00b7 C7403003 		movl	$3, 48(%eax)
 142      000000
 120:E:/NeuOrga/Programmieren/c_cpp/github_os/input/src/os_base\os_task_scheduler.c ****          break;
 143              		.loc 1 120 0
 144 00be C645F701 		movb	$1, -9(%ebp)
 121:E:/NeuOrga/Programmieren/c_cpp/github_os/input/src/os_base\os_task_scheduler.c ****       }
 145              		.loc 1 121 0
 146 00c2 90       		nop
 147              	L19:
 129:E:/NeuOrga/Programmieren/c_cpp/github_os/input/src/os_base\os_task_scheduler.c **** 
 148              		.loc 1 129 0 discriminator 2
 149 00c3 EB32     		jmp	L12
 150              	L7:
 134:E:/NeuOrga/Programmieren/c_cpp/github_os/input/src/os_base\os_task_scheduler.c ****       {
 151              		.loc 1 134 0
 152 00c5 8B45F0   		movl	-16(%ebp), %eax
 153 00c8 8B4030   		movl	48(%eax), %eax
 154 00cb 83F801   		cmpl	$1, %eax
 155 00ce 7407     		je	L21
 156 00d0 83F803   		cmpl	$3, %eax
GAS LISTING C:\Users\PRESID~1\AppData\Local\Temp\ccR9pTsK.s 			page 7


 157 00d3 7412     		je	L22
 151:E:/NeuOrga/Programmieren/c_cpp/github_os/input/src/os_base\os_task_scheduler.c ****       }
 158              		.loc 1 151 0
 159 00d5 EB1F     		jmp	L23
 160              	L21:
 138:E:/NeuOrga/Programmieren/c_cpp/github_os/input/src/os_base\os_task_scheduler.c ****          RequestState   = Accepted;
 161              		.loc 1 138 0
 162 00d7 8B45F0   		movl	-16(%ebp), %eax
 163 00da C7403002 		movl	$2, 48(%eax)
 163      000000
 139:E:/NeuOrga/Programmieren/c_cpp/github_os/input/src/os_base\os_task_scheduler.c ****          break;
 164              		.loc 1 139 0
 165 00e1 C645F701 		movb	$1, -9(%ebp)
 140:E:/NeuOrga/Programmieren/c_cpp/github_os/input/src/os_base\os_task_scheduler.c ****       }
 166              		.loc 1 140 0
 167 00e5 EB0F     		jmp	L23
 168              	L22:
 144:E:/NeuOrga/Programmieren/c_cpp/github_os/input/src/os_base\os_task_scheduler.c ****          RequestState   = Accepted;
 169              		.loc 1 144 0
 170 00e7 8B45F0   		movl	-16(%ebp), %eax
 171 00ea C7403002 		movl	$2, 48(%eax)
 171      000000
 145:E:/NeuOrga/Programmieren/c_cpp/github_os/input/src/os_base\os_task_scheduler.c ****          break;
 172              		.loc 1 145 0
 173 00f1 C645F701 		movb	$1, -9(%ebp)
 146:E:/NeuOrga/Programmieren/c_cpp/github_os/input/src/os_base\os_task_scheduler.c ****       }
 174              		.loc 1 146 0
 175 00f5 90       		nop
 176              	L23:
 154:E:/NeuOrga/Programmieren/c_cpp/github_os/input/src/os_base\os_task_scheduler.c ****    }
 177              		.loc 1 154 0 discriminator 3
 178 00f6 90       		nop
 179              	L12:
 159:E:/NeuOrga/Programmieren/c_cpp/github_os/input/src/os_base\os_task_scheduler.c ****    }
 160:E:/NeuOrga/Programmieren/c_cpp/github_os/input/src/os_base\os_task_scheduler.c ****    }
 161:E:/NeuOrga/Programmieren/c_cpp/github_os/input/src/os_base\os_task_scheduler.c ****    if(RequestState == Rejected)
 180              		.loc 1 161 0
 181 00f7 807DF700 		cmpb	$0, -9(%ebp)
 182 00fb 7514     		jne	L24
 162:E:/NeuOrga/Programmieren/c_cpp/github_os/input/src/os_base\os_task_scheduler.c ****    {
 163:E:/NeuOrga/Programmieren/c_cpp/github_os/input/src/os_base\os_task_scheduler.c ****       OS_SET_SW_BUG(os_bug_taskstate_request_denied, Func_TaskStateRequest);
 183              		.loc 1 163 0
 184 00fd C7442404 		movl	$11, 4(%esp)
 184      0B000000 
 185 0105 C7042401 		movl	$1, (%esp)
 185      000000
 186 010c E8000000 		call	_OS_SET_SW_BUG
 186      00
 187              	L24:
 164:E:/NeuOrga/Programmieren/c_cpp/github_os/input/src/os_base\os_task_scheduler.c ****    }
 165:E:/NeuOrga/Programmieren/c_cpp/github_os/input/src/os_base\os_task_scheduler.c ****    return RequestState;
 188              		.loc 1 165 0
 189 0111 8A45F7   		movb	-9(%ebp), %al
 166:E:/NeuOrga/Programmieren/c_cpp/github_os/input/src/os_base\os_task_scheduler.c **** }
 190              		.loc 1 166 0
 191 0114 C9       		leave
 192              		.cfi_restore 5
GAS LISTING C:\Users\PRESID~1\AppData\Local\Temp\ccR9pTsK.s 			page 8


 193              		.cfi_def_cfa 4, 4
 194 0115 C3       		ret
 195              		.cfi_endproc
 196              	LFE2:
 197              		.globl	_OS_ActivateTask
 199              	_OS_ActivateTask:
 200              	LFB3:
 167:E:/NeuOrga/Programmieren/c_cpp/github_os/input/src/os_base\os_task_scheduler.c **** void OS_ActivateTask(task_t* task)
 168:E:/NeuOrga/Programmieren/c_cpp/github_os/input/src/os_base\os_task_scheduler.c **** {
 201              		.loc 1 168 0
 202              		.cfi_startproc
 203 0116 55       		pushl	%ebp
 204              		.cfi_def_cfa_offset 8
 205              		.cfi_offset 5, -8
 206 0117 89E5     		movl	%esp, %ebp
 207              		.cfi_def_cfa_register 5
 208 0119 83EC18   		subl	$24, %esp
 169:E:/NeuOrga/Programmieren/c_cpp/github_os/input/src/os_base\os_task_scheduler.c ****    /*
 170:E:/NeuOrga/Programmieren/c_cpp/github_os/input/src/os_base\os_task_scheduler.c ****    Activate Task:
 171:E:/NeuOrga/Programmieren/c_cpp/github_os/input/src/os_base\os_task_scheduler.c ****    - Disable Interrupts
 172:E:/NeuOrga/Programmieren/c_cpp/github_os/input/src/os_base\os_task_scheduler.c ****    - Add to schedule Queue
 173:E:/NeuOrga/Programmieren/c_cpp/github_os/input/src/os_base\os_task_scheduler.c ****    - Enable Interrupts
 174:E:/NeuOrga/Programmieren/c_cpp/github_os/input/src/os_base\os_task_scheduler.c **** 
 175:E:/NeuOrga/Programmieren/c_cpp/github_os/input/src/os_base\os_task_scheduler.c ****    in case of valid request, the content, where the "task_t* task" is point to is stored in TASK_RU
 176:E:/NeuOrga/Programmieren/c_cpp/github_os/input/src/os_base\os_task_scheduler.c ****    */
 177:E:/NeuOrga/Programmieren/c_cpp/github_os/input/src/os_base\os_task_scheduler.c ****    if(task != 0)
 209              		.loc 1 177 0
 210 011c 837D0800 		cmpl	$0, 8(%ebp)
 211 0120 0F84AC00 		je	L26
 211      0000
 178:E:/NeuOrga/Programmieren/c_cpp/github_os/input/src/os_base\os_task_scheduler.c ****    {
 179:E:/NeuOrga/Programmieren/c_cpp/github_os/input/src/os_base\os_task_scheduler.c ****       if((task->IdleTask != False)||(task->state_request(task, Task_ready)==Accepted))
 212              		.loc 1 179 0
 213 0126 8B4508   		movl	8(%ebp), %eax
 214 0129 8A00     		movb	(%eax), %al
 215 012b 83E004   		andl	$4, %eax
 216 012e 84C0     		testb	%al, %al
 217 0130 751A     		jne	L28
 218              		.loc 1 179 0 is_stmt 0 discriminator 1
 219 0132 8B4508   		movl	8(%ebp), %eax
 220 0135 8B402C   		movl	44(%eax), %eax
 221 0138 C7442404 		movl	$2, 4(%esp)
 221      02000000 
 222 0140 8B5508   		movl	8(%ebp), %edx
 223 0143 891424   		movl	%edx, (%esp)
 224 0146 FFD0     		call	*%eax
 225 0148 3C01     		cmpb	$1, %al
 226 014a 7572     		jne	L29
 227              	L28:
 180:E:/NeuOrga/Programmieren/c_cpp/github_os/input/src/os_base\os_task_scheduler.c ****       {
 181:E:/NeuOrga/Programmieren/c_cpp/github_os/input/src/os_base\os_task_scheduler.c ****          DisableInterrupts();
 182:E:/NeuOrga/Programmieren/c_cpp/github_os/input/src/os_base\os_task_scheduler.c ****          /* 3. suspended to ready (add to runqueue) */
 183:E:/NeuOrga/Programmieren/c_cpp/github_os/input/src/os_base\os_task_scheduler.c ****          if(task->IdleTask == False)
 228              		.loc 1 183 0 is_stmt 1
 229 014c 8B4508   		movl	8(%ebp), %eax
 230 014f 8A00     		movb	(%eax), %al
 231 0151 83E004   		andl	$4, %eax
GAS LISTING C:\Users\PRESID~1\AppData\Local\Temp\ccR9pTsK.s 			page 9


 232 0154 84C0     		testb	%al, %al
 233 0156 7557     		jne	L30
 184:E:/NeuOrga/Programmieren/c_cpp/github_os/input/src/os_base\os_task_scheduler.c ****          {
 185:E:/NeuOrga/Programmieren/c_cpp/github_os/input/src/os_base\os_task_scheduler.c ****             if( (task->active == False)
 234              		.loc 1 185 0
 235 0158 8B4508   		movl	8(%ebp), %eax
 236 015b 8A00     		movb	(%eax), %al
 237 015d 83E001   		andl	$1, %eax
 238 0160 84C0     		testb	%al, %al
 239 0162 741C     		je	L31
 186:E:/NeuOrga/Programmieren/c_cpp/github_os/input/src/os_base\os_task_scheduler.c ****                   || ( (task->active == True) && (task->NrOfInsAllowed > task->NrOfInsActivated) )
 240              		.loc 1 186 0
 241 0164 8B4508   		movl	8(%ebp), %eax
 242 0167 8A00     		movb	(%eax), %al
 243 0169 83E001   		andl	$1, %eax
 244 016c 84C0     		testb	%al, %al
 245 016e 744C     		je	L33
 246              		.loc 1 186 0 is_stmt 0 discriminator 1
 247 0170 8B4508   		movl	8(%ebp), %eax
 248 0173 8A5004   		movb	4(%eax), %dl
 249 0176 8B4508   		movl	8(%ebp), %eax
 250 0179 8A4005   		movb	5(%eax), %al
 251 017c 38C2     		cmpb	%al, %dl
 252 017e 763C     		jbe	L33
 253              	L31:
 187:E:/NeuOrga/Programmieren/c_cpp/github_os/input/src/os_base\os_task_scheduler.c ****               )
 188:E:/NeuOrga/Programmieren/c_cpp/github_os/input/src/os_base\os_task_scheduler.c ****             {
 189:E:/NeuOrga/Programmieren/c_cpp/github_os/input/src/os_base\os_task_scheduler.c ****                /* only activate if allowed by rule */
 190:E:/NeuOrga/Programmieren/c_cpp/github_os/input/src/os_base\os_task_scheduler.c ****                task = AddToTaskQueue(task);
 254              		.loc 1 190 0 is_stmt 1
 255 0180 8B4508   		movl	8(%ebp), %eax
 256 0183 890424   		movl	%eax, (%esp)
 257 0186 E8000000 		call	_AddToTaskQueue
 257      00
 258 018b 894508   		movl	%eax, 8(%ebp)
 191:E:/NeuOrga/Programmieren/c_cpp/github_os/input/src/os_base\os_task_scheduler.c **** 
 192:E:/NeuOrga/Programmieren/c_cpp/github_os/input/src/os_base\os_task_scheduler.c ****                AddToLinkList(task);
 259              		.loc 1 192 0
 260 018e 8B4508   		movl	8(%ebp), %eax
 261 0191 890424   		movl	%eax, (%esp)
 262 0194 E8000000 		call	_AddToLinkList
 262      00
 193:E:/NeuOrga/Programmieren/c_cpp/github_os/input/src/os_base\os_task_scheduler.c ****                UpdateLinkList();
 263              		.loc 1 193 0
 264 0199 E8000000 		call	_UpdateLinkList
 264      00
 194:E:/NeuOrga/Programmieren/c_cpp/github_os/input/src/os_base\os_task_scheduler.c ****                task->NrOfInsActivated++;
 265              		.loc 1 194 0
 266 019e 8B4508   		movl	8(%ebp), %eax
 267 01a1 8A4005   		movb	5(%eax), %al
 268 01a4 8D5001   		leal	1(%eax), %edx
 269 01a7 8B4508   		movl	8(%ebp), %eax
 270 01aa 885005   		movb	%dl, 5(%eax)
 183:E:/NeuOrga/Programmieren/c_cpp/github_os/input/src/os_base\os_task_scheduler.c ****          {
 271              		.loc 1 183 0
 272 01ad EB23     		jmp	L26
 273              	L30:
GAS LISTING C:\Users\PRESID~1\AppData\Local\Temp\ccR9pTsK.s 			page 10


 195:E:/NeuOrga/Programmieren/c_cpp/github_os/input/src/os_base\os_task_scheduler.c ****             }
 196:E:/NeuOrga/Programmieren/c_cpp/github_os/input/src/os_base\os_task_scheduler.c ****             else
 197:E:/NeuOrga/Programmieren/c_cpp/github_os/input/src/os_base\os_task_scheduler.c ****             {
 198:E:/NeuOrga/Programmieren/c_cpp/github_os/input/src/os_base\os_task_scheduler.c ****                /* multiple activation bug occured */
 199:E:/NeuOrga/Programmieren/c_cpp/github_os/input/src/os_base\os_task_scheduler.c ****             }
 200:E:/NeuOrga/Programmieren/c_cpp/github_os/input/src/os_base\os_task_scheduler.c ****          }
 201:E:/NeuOrga/Programmieren/c_cpp/github_os/input/src/os_base\os_task_scheduler.c ****          else
 202:E:/NeuOrga/Programmieren/c_cpp/github_os/input/src/os_base\os_task_scheduler.c ****          {
 203:E:/NeuOrga/Programmieren/c_cpp/github_os/input/src/os_base\os_task_scheduler.c ****             AddToIdleTaskQueue(task);
 274              		.loc 1 203 0
 275 01af 8B4508   		movl	8(%ebp), %eax
 276 01b2 890424   		movl	%eax, (%esp)
 277 01b5 E8000000 		call	_AddToIdleTaskQueue
 277      00
 183:E:/NeuOrga/Programmieren/c_cpp/github_os/input/src/os_base\os_task_scheduler.c ****          {
 278              		.loc 1 183 0
 279 01ba EB16     		jmp	L26
 280              	L33:
 183:E:/NeuOrga/Programmieren/c_cpp/github_os/input/src/os_base\os_task_scheduler.c ****          {
 281              		.loc 1 183 0 is_stmt 0 discriminator 1
 282 01bc EB14     		jmp	L26
 283              	L29:
 204:E:/NeuOrga/Programmieren/c_cpp/github_os/input/src/os_base\os_task_scheduler.c ****          }
 205:E:/NeuOrga/Programmieren/c_cpp/github_os/input/src/os_base\os_task_scheduler.c ****          EnableInterrupts();
 206:E:/NeuOrga/Programmieren/c_cpp/github_os/input/src/os_base\os_task_scheduler.c ****       }
 207:E:/NeuOrga/Programmieren/c_cpp/github_os/input/src/os_base\os_task_scheduler.c ****       else
 208:E:/NeuOrga/Programmieren/c_cpp/github_os/input/src/os_base\os_task_scheduler.c ****       {
 209:E:/NeuOrga/Programmieren/c_cpp/github_os/input/src/os_base\os_task_scheduler.c ****          OS_SET_SW_BUG(os_bug_taskstate_request_denied, Func_ActivateTask);
 284              		.loc 1 209 0 is_stmt 1
 285 01be C7442404 		movl	$10, 4(%esp)
 285      0A000000 
 286 01c6 C7042401 		movl	$1, (%esp)
 286      000000
 287 01cd E8000000 		call	_OS_SET_SW_BUG
 287      00
 288              	L26:
 210:E:/NeuOrga/Programmieren/c_cpp/github_os/input/src/os_base\os_task_scheduler.c ****       }
 211:E:/NeuOrga/Programmieren/c_cpp/github_os/input/src/os_base\os_task_scheduler.c ****    }
 212:E:/NeuOrga/Programmieren/c_cpp/github_os/input/src/os_base\os_task_scheduler.c **** }
 289              		.loc 1 212 0
 290 01d2 C9       		leave
 291              		.cfi_restore 5
 292              		.cfi_def_cfa 4, 4
 293 01d3 C3       		ret
 294              		.cfi_endproc
 295              	LFE3:
 297              	_OS_STARTTASK:
 298              	LFB4:
 213:E:/NeuOrga/Programmieren/c_cpp/github_os/input/src/os_base\os_task_scheduler.c **** Local void OS_STARTTASK(task_t* task)
 214:E:/NeuOrga/Programmieren/c_cpp/github_os/input/src/os_base\os_task_scheduler.c **** {
 299              		.loc 1 214 0
 300              		.cfi_startproc
 301 01d4 55       		pushl	%ebp
 302              		.cfi_def_cfa_offset 8
 303              		.cfi_offset 5, -8
 304 01d5 89E5     		movl	%esp, %ebp
 305              		.cfi_def_cfa_register 5
GAS LISTING C:\Users\PRESID~1\AppData\Local\Temp\ccR9pTsK.s 			page 11


 306 01d7 83EC28   		subl	$40, %esp
 215:E:/NeuOrga/Programmieren/c_cpp/github_os/input/src/os_base\os_task_scheduler.c ****    /* OS_STARTTASK
 216:E:/NeuOrga/Programmieren/c_cpp/github_os/input/src/os_base\os_task_scheduler.c ****    - Disable interrupts
 217:E:/NeuOrga/Programmieren/c_cpp/github_os/input/src/os_base\os_task_scheduler.c ****    - restore Environment
 218:E:/NeuOrga/Programmieren/c_cpp/github_os/input/src/os_base\os_task_scheduler.c ****    - enable interrupts
 219:E:/NeuOrga/Programmieren/c_cpp/github_os/input/src/os_base\os_task_scheduler.c **** 
 220:E:/NeuOrga/Programmieren/c_cpp/github_os/input/src/os_base\os_task_scheduler.c ****    - Start Task
 221:E:/NeuOrga/Programmieren/c_cpp/github_os/input/src/os_base\os_task_scheduler.c ****     */
 222:E:/NeuOrga/Programmieren/c_cpp/github_os/input/src/os_base\os_task_scheduler.c ****    scheduler_time_t start_time;
 223:E:/NeuOrga/Programmieren/c_cpp/github_os/input/src/os_base\os_task_scheduler.c ****    if(task != 0 && ((task->task_queued != False)||(task->IdleTask != False)))
 307              		.loc 1 223 0
 308 01da 837D0800 		cmpl	$0, 8(%ebp)
 309 01de 0F844A01 		je	L34
 309      0000
 310              		.loc 1 223 0 is_stmt 0 discriminator 1
 311 01e4 8B4508   		movl	8(%ebp), %eax
 312 01e7 8A00     		movb	(%eax), %al
 313 01e9 83E002   		andl	$2, %eax
 314 01ec 84C0     		testb	%al, %al
 315 01ee 7510     		jne	L36
 316              		.loc 1 223 0 discriminator 2
 317 01f0 8B4508   		movl	8(%ebp), %eax
 318 01f3 8A00     		movb	(%eax), %al
 319 01f5 83E004   		andl	$4, %eax
 320 01f8 84C0     		testb	%al, %al
 321 01fa 0F842E01 		je	L34
 321      0000
 322              	L36:
 224:E:/NeuOrga/Programmieren/c_cpp/github_os/input/src/os_base\os_task_scheduler.c ****    {
 225:E:/NeuOrga/Programmieren/c_cpp/github_os/input/src/os_base\os_task_scheduler.c ****       if(task->state_request !=0)
 323              		.loc 1 225 0 is_stmt 1
 324 0200 8B4508   		movl	8(%ebp), %eax
 325 0203 8B402C   		movl	44(%eax), %eax
 326 0206 85C0     		testl	%eax, %eax
 327 0208 0F840C01 		je	L37
 327      0000
 226:E:/NeuOrga/Programmieren/c_cpp/github_os/input/src/os_base\os_task_scheduler.c ****       {
 227:E:/NeuOrga/Programmieren/c_cpp/github_os/input/src/os_base\os_task_scheduler.c ****          if(task->state_request(task, Task_running)== Accepted)
 328              		.loc 1 227 0
 329 020e 8B4508   		movl	8(%ebp), %eax
 330 0211 8B402C   		movl	44(%eax), %eax
 331 0214 C7442404 		movl	$3, 4(%esp)
 331      03000000 
 332 021c 8B5508   		movl	8(%ebp), %edx
 333 021f 891424   		movl	%edx, (%esp)
 334 0222 FFD0     		call	*%eax
 335 0224 3C01     		cmpb	$1, %al
 336 0226 0F85D800 		jne	L38
 336      0000
 228:E:/NeuOrga/Programmieren/c_cpp/github_os/input/src/os_base\os_task_scheduler.c ****          {
 229:E:/NeuOrga/Programmieren/c_cpp/github_os/input/src/os_base\os_task_scheduler.c ****             DisableInterrupts();
 230:E:/NeuOrga/Programmieren/c_cpp/github_os/input/src/os_base\os_task_scheduler.c ****             task->active =  True;
 337              		.loc 1 230 0
 338 022c 8B4508   		movl	8(%ebp), %eax
 339 022f 8A10     		movb	(%eax), %dl
 340 0231 83CA01   		orl	$1, %edx
 341 0234 8810     		movb	%dl, (%eax)
GAS LISTING C:\Users\PRESID~1\AppData\Local\Temp\ccR9pTsK.s 			page 12


 231:E:/NeuOrga/Programmieren/c_cpp/github_os/input/src/os_base\os_task_scheduler.c ****             task->wait_time = 0;
 342              		.loc 1 231 0
 343 0236 8B4508   		movl	8(%ebp), %eax
 344 0239 C7400C00 		movl	$0, 12(%eax)
 344      000000
 232:E:/NeuOrga/Programmieren/c_cpp/github_os/input/src/os_base\os_task_scheduler.c ****             task->current_prio = task->default_prio;
 345              		.loc 1 232 0
 346 0240 8B4508   		movl	8(%ebp), %eax
 347 0243 8A5021   		movb	33(%eax), %dl
 348 0246 8B4508   		movl	8(%ebp), %eax
 349 0249 885020   		movb	%dl, 32(%eax)
 233:E:/NeuOrga/Programmieren/c_cpp/github_os/input/src/os_base\os_task_scheduler.c ****             OS_TASK_SAVE_SYSTEM_STACK(&OS_STACK[GET_CORE_ID()][0]);
 350              		.loc 1 233 0
 351 024c E8000000 		call	_GET_CORE_ID
 351      00
 352 0251 C1E008   		sall	$8, %eax
 353 0254 05000000 		addl	$_OS_STACK, %eax
 353      00
 354 0259 890424   		movl	%eax, (%esp)
 355 025c E8000000 		call	_OS_TASK_SAVE_SYSTEM_STACK
 355      00
 234:E:/NeuOrga/Programmieren/c_cpp/github_os/input/src/os_base\os_task_scheduler.c ****             OS_TASK_RESTORETASK_ENVIRONMENT(task);
 356              		.loc 1 234 0
 357 0261 8B4508   		movl	8(%ebp), %eax
 358 0264 890424   		movl	%eax, (%esp)
 359 0267 E8000000 		call	_OS_TASK_RESTORETASK_ENVIRONMENT
 359      00
 235:E:/NeuOrga/Programmieren/c_cpp/github_os/input/src/os_base\os_task_scheduler.c ****             start_time = Get_current_time();
 360              		.loc 1 235 0
 361 026c E8000000 		call	_Get_current_time
 361      00
 362 0271 8945F4   		movl	%eax, -12(%ebp)
 236:E:/NeuOrga/Programmieren/c_cpp/github_os/input/src/os_base\os_task_scheduler.c ****             EnableInterrupts();
 237:E:/NeuOrga/Programmieren/c_cpp/github_os/input/src/os_base\os_task_scheduler.c **** 
 238:E:/NeuOrga/Programmieren/c_cpp/github_os/input/src/os_base\os_task_scheduler.c ****             /* task execution shall not happen with disabled interrupts */
 239:E:/NeuOrga/Programmieren/c_cpp/github_os/input/src/os_base\os_task_scheduler.c ****             SET_RUNNING_TASK(task);
 363              		.loc 1 239 0
 364 0274 8B4508   		movl	8(%ebp), %eax
 365 0277 890424   		movl	%eax, (%esp)
 366 027a E8000000 		call	_SET_RUNNING_TASK
 366      00
 240:E:/NeuOrga/Programmieren/c_cpp/github_os/input/src/os_base\os_task_scheduler.c ****             /* save and enter privilige levels...*/
 241:E:/NeuOrga/Programmieren/c_cpp/github_os/input/src/os_base\os_task_scheduler.c ****             Privilige_level_save_current();
 242:E:/NeuOrga/Programmieren/c_cpp/github_os/input/src/os_base\os_task_scheduler.c ****             if(task->task_kernel_mode == True)
 243:E:/NeuOrga/Programmieren/c_cpp/github_os/input/src/os_base\os_task_scheduler.c ****             {
 244:E:/NeuOrga/Programmieren/c_cpp/github_os/input/src/os_base\os_task_scheduler.c ****                Privilige_level_enter_kernel_mode();
 245:E:/NeuOrga/Programmieren/c_cpp/github_os/input/src/os_base\os_task_scheduler.c ****             }
 246:E:/NeuOrga/Programmieren/c_cpp/github_os/input/src/os_base\os_task_scheduler.c ****             task->fp(task);
 367              		.loc 1 246 0
 368 027f 8B4508   		movl	8(%ebp), %eax
 369 0282 8B4028   		movl	40(%eax), %eax
 370 0285 8B5508   		movl	8(%ebp), %edx
 371 0288 891424   		movl	%edx, (%esp)
 372 028b FFD0     		call	*%eax
 247:E:/NeuOrga/Programmieren/c_cpp/github_os/input/src/os_base\os_task_scheduler.c ****             Privilige_level_restore_saved();
 248:E:/NeuOrga/Programmieren/c_cpp/github_os/input/src/os_base\os_task_scheduler.c **** 
 249:E:/NeuOrga/Programmieren/c_cpp/github_os/input/src/os_base\os_task_scheduler.c ****             DisableInterrupts();
GAS LISTING C:\Users\PRESID~1\AppData\Local\Temp\ccR9pTsK.s 			page 13


 250:E:/NeuOrga/Programmieren/c_cpp/github_os/input/src/os_base\os_task_scheduler.c ****             OS_TASK_SAVETASK_ENVIRONMENT(task);
 373              		.loc 1 250 0
 374 028d 8B4508   		movl	8(%ebp), %eax
 375 0290 890424   		movl	%eax, (%esp)
 376 0293 E8000000 		call	_OS_TASK_SAVETASK_ENVIRONMENT
 376      00
 251:E:/NeuOrga/Programmieren/c_cpp/github_os/input/src/os_base\os_task_scheduler.c ****             OS_TASK_RESTORE_SYSTEM_STACK(&OS_STACK[GET_CORE_ID()][0]);
 377              		.loc 1 251 0
 378 0298 E8000000 		call	_GET_CORE_ID
 378      00
 379 029d C1E008   		sall	$8, %eax
 380 02a0 05000000 		addl	$_OS_STACK, %eax
 380      00
 381 02a5 890424   		movl	%eax, (%esp)
 382 02a8 E8000000 		call	_OS_TASK_RESTORE_SYSTEM_STACK
 382      00
 252:E:/NeuOrga/Programmieren/c_cpp/github_os/input/src/os_base\os_task_scheduler.c ****             task->active = False;
 383              		.loc 1 252 0
 384 02ad 8B4508   		movl	8(%ebp), %eax
 385 02b0 8A10     		movb	(%eax), %dl
 386 02b2 83E2FE   		andl	$-2, %edx
 387 02b5 8810     		movb	%dl, (%eax)
 253:E:/NeuOrga/Programmieren/c_cpp/github_os/input/src/os_base\os_task_scheduler.c ****             task->exe_time += (Get_current_time() - start_time);
 388              		.loc 1 253 0
 389 02b7 E8000000 		call	_Get_current_time
 389      00
 390 02bc 2B45F4   		subl	-12(%ebp), %eax
 391 02bf 89C2     		movl	%eax, %edx
 392 02c1 8B4508   		movl	8(%ebp), %eax
 393 02c4 8B401C   		movl	28(%eax), %eax
 394 02c7 01C2     		addl	%eax, %edx
 395 02c9 8B4508   		movl	8(%ebp), %eax
 396 02cc 89501C   		movl	%edx, 28(%eax)
 254:E:/NeuOrga/Programmieren/c_cpp/github_os/input/src/os_base\os_task_scheduler.c ****             task->task_group->exe_time += (Get_current_time() - start_time);
 397              		.loc 1 254 0
 398 02cf E8000000 		call	_Get_current_time
 398      00
 399 02d4 2B45F4   		subl	-12(%ebp), %eax
 400 02d7 89C1     		movl	%eax, %ecx
 401 02d9 8B4508   		movl	8(%ebp), %eax
 402 02dc 8B4034   		movl	52(%eax), %eax
 403 02df 8B5508   		movl	8(%ebp), %edx
 404 02e2 8B5234   		movl	52(%edx), %edx
 405 02e5 8B12     		movl	(%edx), %edx
 406 02e7 01CA     		addl	%ecx, %edx
 407 02e9 8910     		movl	%edx, (%eax)
 255:E:/NeuOrga/Programmieren/c_cpp/github_os/input/src/os_base\os_task_scheduler.c ****             SET_RUNNING_TASK(0);
 408              		.loc 1 255 0
 409 02eb C7042400 		movl	$0, (%esp)
 409      000000
 410 02f2 E8000000 		call	_SET_RUNNING_TASK
 410      00
 256:E:/NeuOrga/Programmieren/c_cpp/github_os/input/src/os_base\os_task_scheduler.c ****             OS_TERMINATE_TASK(task);
 411              		.loc 1 256 0
 412 02f7 8B4508   		movl	8(%ebp), %eax
 413 02fa 890424   		movl	%eax, (%esp)
 414 02fd E82E0000 		call	_OS_TERMINATE_TASK
GAS LISTING C:\Users\PRESID~1\AppData\Local\Temp\ccR9pTsK.s 			page 14


 414      00
 415 0302 EB2A     		jmp	L34
 416              	L38:
 257:E:/NeuOrga/Programmieren/c_cpp/github_os/input/src/os_base\os_task_scheduler.c ****             EnableInterrupts();
 258:E:/NeuOrga/Programmieren/c_cpp/github_os/input/src/os_base\os_task_scheduler.c ****             /* RUNNING_TASK->task_state sollte an dieser stelle (bei beendigung des Tasks durch Ter
 259:E:/NeuOrga/Programmieren/c_cpp/github_os/input/src/os_base\os_task_scheduler.c ****          }
 260:E:/NeuOrga/Programmieren/c_cpp/github_os/input/src/os_base\os_task_scheduler.c ****          else
 261:E:/NeuOrga/Programmieren/c_cpp/github_os/input/src/os_base\os_task_scheduler.c ****          {
 262:E:/NeuOrga/Programmieren/c_cpp/github_os/input/src/os_base\os_task_scheduler.c ****             OS_SET_SW_BUG(os_bug_taskstate_request_denied, Func_StartTask);
 417              		.loc 1 262 0
 418 0304 C7442404 		movl	$5, 4(%esp)
 418      05000000 
 419 030c C7042401 		movl	$1, (%esp)
 419      000000
 420 0313 E8000000 		call	_OS_SET_SW_BUG
 420      00
 421 0318 EB14     		jmp	L34
 422              	L37:
 263:E:/NeuOrga/Programmieren/c_cpp/github_os/input/src/os_base\os_task_scheduler.c ****          }
 264:E:/NeuOrga/Programmieren/c_cpp/github_os/input/src/os_base\os_task_scheduler.c **** 
 265:E:/NeuOrga/Programmieren/c_cpp/github_os/input/src/os_base\os_task_scheduler.c ****       }
 266:E:/NeuOrga/Programmieren/c_cpp/github_os/input/src/os_base\os_task_scheduler.c ****       else
 267:E:/NeuOrga/Programmieren/c_cpp/github_os/input/src/os_base\os_task_scheduler.c ****       {
 268:E:/NeuOrga/Programmieren/c_cpp/github_os/input/src/os_base\os_task_scheduler.c ****          OS_SET_SW_BUG(os_bug_null_pointer, Func_StartTask);
 423              		.loc 1 268 0
 424 031a C7442404 		movl	$5, 4(%esp)
 424      05000000 
 425 0322 C7042402 		movl	$2, (%esp)
 425      000000
 426 0329 E8000000 		call	_OS_SET_SW_BUG
 426      00
 427              	L34:
 269:E:/NeuOrga/Programmieren/c_cpp/github_os/input/src/os_base\os_task_scheduler.c ****       }
 270:E:/NeuOrga/Programmieren/c_cpp/github_os/input/src/os_base\os_task_scheduler.c ****    }
 271:E:/NeuOrga/Programmieren/c_cpp/github_os/input/src/os_base\os_task_scheduler.c ****    /* allowed in case of empty QUEUE elements (queue elements which have no activate_task yet recei
 272:E:/NeuOrga/Programmieren/c_cpp/github_os/input/src/os_base\os_task_scheduler.c ****    else
 273:E:/NeuOrga/Programmieren/c_cpp/github_os/input/src/os_base\os_task_scheduler.c ****    {
 274:E:/NeuOrga/Programmieren/c_cpp/github_os/input/src/os_base\os_task_scheduler.c ****        OS_SET_SW_BUG(os_bug_null_pointer, Func_StartTask);
 275:E:/NeuOrga/Programmieren/c_cpp/github_os/input/src/os_base\os_task_scheduler.c ****    }
 276:E:/NeuOrga/Programmieren/c_cpp/github_os/input/src/os_base\os_task_scheduler.c ****    */
 277:E:/NeuOrga/Programmieren/c_cpp/github_os/input/src/os_base\os_task_scheduler.c **** }
 428              		.loc 1 277 0
 429 032e C9       		leave
 430              		.cfi_restore 5
 431              		.cfi_def_cfa 4, 4
 432 032f C3       		ret
 433              		.cfi_endproc
 434              	LFE4:
 436              	_OS_TERMINATE_TASK:
 437              	LFB5:
 278:E:/NeuOrga/Programmieren/c_cpp/github_os/input/src/os_base\os_task_scheduler.c **** Local void OS_TERMINATE_TASK(task_t* task)
 279:E:/NeuOrga/Programmieren/c_cpp/github_os/input/src/os_base\os_task_scheduler.c **** {
 438              		.loc 1 279 0
 439              		.cfi_startproc
 440 0330 55       		pushl	%ebp
 441              		.cfi_def_cfa_offset 8
 442              		.cfi_offset 5, -8
GAS LISTING C:\Users\PRESID~1\AppData\Local\Temp\ccR9pTsK.s 			page 15


 443 0331 89E5     		movl	%esp, %ebp
 444              		.cfi_def_cfa_register 5
 445 0333 83EC18   		subl	$24, %esp
 280:E:/NeuOrga/Programmieren/c_cpp/github_os/input/src/os_base\os_task_scheduler.c ****    /* Preempt task
 281:E:/NeuOrga/Programmieren/c_cpp/github_os/input/src/os_base\os_task_scheduler.c ****    - Disable Interrupts
 282:E:/NeuOrga/Programmieren/c_cpp/github_os/input/src/os_base\os_task_scheduler.c ****    - os_TASK_SAVETASK_ENVIRONMENT
 283:E:/NeuOrga/Programmieren/c_cpp/github_os/input/src/os_base\os_task_scheduler.c ****    - add to Schedule Queue / delete from RunQueue
 284:E:/NeuOrga/Programmieren/c_cpp/github_os/input/src/os_base\os_task_scheduler.c ****    - delete active flag
 285:E:/NeuOrga/Programmieren/c_cpp/github_os/input/src/os_base\os_task_scheduler.c ****    - enable Interrupts
 286:E:/NeuOrga/Programmieren/c_cpp/github_os/input/src/os_base\os_task_scheduler.c ****    */
 287:E:/NeuOrga/Programmieren/c_cpp/github_os/input/src/os_base\os_task_scheduler.c ****    if(task != 0)
 446              		.loc 1 287 0
 447 0336 837D0800 		cmpl	$0, 8(%ebp)
 448 033a 0F849400 		je	L41
 448      0000
 288:E:/NeuOrga/Programmieren/c_cpp/github_os/input/src/os_base\os_task_scheduler.c ****    {
 289:E:/NeuOrga/Programmieren/c_cpp/github_os/input/src/os_base\os_task_scheduler.c ****       if(task->state_request != 0)
 449              		.loc 1 289 0
 450 0340 8B4508   		movl	8(%ebp), %eax
 451 0343 8B402C   		movl	44(%eax), %eax
 452 0346 85C0     		testl	%eax, %eax
 453 0348 7474     		je	L42
 290:E:/NeuOrga/Programmieren/c_cpp/github_os/input/src/os_base\os_task_scheduler.c ****       {
 291:E:/NeuOrga/Programmieren/c_cpp/github_os/input/src/os_base\os_task_scheduler.c ****          if((task->IdleTask != False)||(task->state_request(task, Task_ready)== Accepted))
 454              		.loc 1 291 0
 455 034a 8B4508   		movl	8(%ebp), %eax
 456 034d 8A00     		movb	(%eax), %al
 457 034f 83E004   		andl	$4, %eax
 458 0352 84C0     		testb	%al, %al
 459 0354 751A     		jne	L43
 460              		.loc 1 291 0 is_stmt 0 discriminator 1
 461 0356 8B4508   		movl	8(%ebp), %eax
 462 0359 8B402C   		movl	44(%eax), %eax
 463 035c C7442404 		movl	$2, 4(%esp)
 463      02000000 
 464 0364 8B5508   		movl	8(%ebp), %edx
 465 0367 891424   		movl	%edx, (%esp)
 466 036a FFD0     		call	*%eax
 467 036c 3C01     		cmpb	$1, %al
 468 036e 7538     		jne	L44
 469              	L43:
 292:E:/NeuOrga/Programmieren/c_cpp/github_os/input/src/os_base\os_task_scheduler.c ****          {
 293:E:/NeuOrga/Programmieren/c_cpp/github_os/input/src/os_base\os_task_scheduler.c ****             DisableInterrupts();
 294:E:/NeuOrga/Programmieren/c_cpp/github_os/input/src/os_base\os_task_scheduler.c ****             OS_TASK_SAVETASK_ENVIRONMENT(task);
 470              		.loc 1 294 0 is_stmt 1
 471 0370 8B4508   		movl	8(%ebp), %eax
 472 0373 890424   		movl	%eax, (%esp)
 473 0376 E8000000 		call	_OS_TASK_SAVETASK_ENVIRONMENT
 473      00
 295:E:/NeuOrga/Programmieren/c_cpp/github_os/input/src/os_base\os_task_scheduler.c ****             OS_TASK_RESTORE_SYSTEM_STACK(&OS_STACK[GET_CORE_ID()][0]);
 474              		.loc 1 295 0
 475 037b E8000000 		call	_GET_CORE_ID
 475      00
 476 0380 C1E008   		sall	$8, %eax
 477 0383 05000000 		addl	$_OS_STACK, %eax
 477      00
 478 0388 890424   		movl	%eax, (%esp)
GAS LISTING C:\Users\PRESID~1\AppData\Local\Temp\ccR9pTsK.s 			page 16


 479 038b E8000000 		call	_OS_TASK_RESTORE_SYSTEM_STACK
 479      00
 296:E:/NeuOrga/Programmieren/c_cpp/github_os/input/src/os_base\os_task_scheduler.c **** 
 297:E:/NeuOrga/Programmieren/c_cpp/github_os/input/src/os_base\os_task_scheduler.c ****             task->active = False;
 480              		.loc 1 297 0
 481 0390 8B4508   		movl	8(%ebp), %eax
 482 0393 8A10     		movb	(%eax), %dl
 483 0395 83E2FE   		andl	$-2, %edx
 484 0398 8810     		movb	%dl, (%eax)
 298:E:/NeuOrga/Programmieren/c_cpp/github_os/input/src/os_base\os_task_scheduler.c ****             /* reset the prio increase for waiting */
 299:E:/NeuOrga/Programmieren/c_cpp/github_os/input/src/os_base\os_task_scheduler.c ****             task->current_prio = task->default_prio;
 485              		.loc 1 299 0
 486 039a 8B4508   		movl	8(%ebp), %eax
 487 039d 8A5021   		movb	33(%eax), %dl
 488 03a0 8B4508   		movl	8(%ebp), %eax
 489 03a3 885020   		movb	%dl, 32(%eax)
 490 03a6 EB40     		jmp	L40
 491              	L44:
 300:E:/NeuOrga/Programmieren/c_cpp/github_os/input/src/os_base\os_task_scheduler.c ****             EnableInterrupts();
 301:E:/NeuOrga/Programmieren/c_cpp/github_os/input/src/os_base\os_task_scheduler.c ****          }
 302:E:/NeuOrga/Programmieren/c_cpp/github_os/input/src/os_base\os_task_scheduler.c ****          else
 303:E:/NeuOrga/Programmieren/c_cpp/github_os/input/src/os_base\os_task_scheduler.c ****          {
 304:E:/NeuOrga/Programmieren/c_cpp/github_os/input/src/os_base\os_task_scheduler.c ****             OS_SET_SW_BUG(os_bug_taskstate_request_denied, Func_TerminateTask);
 492              		.loc 1 304 0
 493 03a8 C7442404 		movl	$7, 4(%esp)
 493      07000000 
 494 03b0 C7042401 		movl	$1, (%esp)
 494      000000
 495 03b7 E8000000 		call	_OS_SET_SW_BUG
 495      00
 496 03bc EB2A     		jmp	L40
 497              	L42:
 305:E:/NeuOrga/Programmieren/c_cpp/github_os/input/src/os_base\os_task_scheduler.c ****          }
 306:E:/NeuOrga/Programmieren/c_cpp/github_os/input/src/os_base\os_task_scheduler.c ****       }
 307:E:/NeuOrga/Programmieren/c_cpp/github_os/input/src/os_base\os_task_scheduler.c ****       else
 308:E:/NeuOrga/Programmieren/c_cpp/github_os/input/src/os_base\os_task_scheduler.c ****       {
 309:E:/NeuOrga/Programmieren/c_cpp/github_os/input/src/os_base\os_task_scheduler.c ****          OS_SET_SW_BUG(os_bug_null_pointer, Func_TerminateTask);
 498              		.loc 1 309 0
 499 03be C7442404 		movl	$7, 4(%esp)
 499      07000000 
 500 03c6 C7042402 		movl	$2, (%esp)
 500      000000
 501 03cd E8000000 		call	_OS_SET_SW_BUG
 501      00
 502 03d2 EB14     		jmp	L40
 503              	L41:
 310:E:/NeuOrga/Programmieren/c_cpp/github_os/input/src/os_base\os_task_scheduler.c ****       }
 311:E:/NeuOrga/Programmieren/c_cpp/github_os/input/src/os_base\os_task_scheduler.c **** 
 312:E:/NeuOrga/Programmieren/c_cpp/github_os/input/src/os_base\os_task_scheduler.c ****    }
 313:E:/NeuOrga/Programmieren/c_cpp/github_os/input/src/os_base\os_task_scheduler.c ****    else
 314:E:/NeuOrga/Programmieren/c_cpp/github_os/input/src/os_base\os_task_scheduler.c ****    {
 315:E:/NeuOrga/Programmieren/c_cpp/github_os/input/src/os_base\os_task_scheduler.c ****       OS_SET_SW_BUG(os_bug_null_pointer, Func_TerminateTask);
 504              		.loc 1 315 0
 505 03d4 C7442404 		movl	$7, 4(%esp)
 505      07000000 
 506 03dc C7042402 		movl	$2, (%esp)
 506      000000
GAS LISTING C:\Users\PRESID~1\AppData\Local\Temp\ccR9pTsK.s 			page 17


 507 03e3 E8000000 		call	_OS_SET_SW_BUG
 507      00
 508              	L40:
 316:E:/NeuOrga/Programmieren/c_cpp/github_os/input/src/os_base\os_task_scheduler.c ****    }
 317:E:/NeuOrga/Programmieren/c_cpp/github_os/input/src/os_base\os_task_scheduler.c **** }
 509              		.loc 1 317 0
 510 03e8 C9       		leave
 511              		.cfi_restore 5
 512              		.cfi_def_cfa 4, 4
 513 03e9 C3       		ret
 514              		.cfi_endproc
 515              	LFE5:
 517              	_OS_TASK_DISPATCHER:
 518              	LFB6:
 318:E:/NeuOrga/Programmieren/c_cpp/github_os/input/src/os_base\os_task_scheduler.c **** void OS_TASK_DISPATCHER(void)
 319:E:/NeuOrga/Programmieren/c_cpp/github_os/input/src/os_base\os_task_scheduler.c **** {
 519              		.loc 1 319 0
 520              		.cfi_startproc
 521 03ea 55       		pushl	%ebp
 522              		.cfi_def_cfa_offset 8
 523              		.cfi_offset 5, -8
 524 03eb 89E5     		movl	%esp, %ebp
 525              		.cfi_def_cfa_register 5
 526 03ed 83EC28   		subl	$40, %esp
 320:E:/NeuOrga/Programmieren/c_cpp/github_os/input/src/os_base\os_task_scheduler.c ****    /* called in an certain core context (Core_0/1/2/3)*/
 321:E:/NeuOrga/Programmieren/c_cpp/github_os/input/src/os_base\os_task_scheduler.c **** 
 322:E:/NeuOrga/Programmieren/c_cpp/github_os/input/src/os_base\os_task_scheduler.c **** 
 323:E:/NeuOrga/Programmieren/c_cpp/github_os/input/src/os_base\os_task_scheduler.c ****    /*
 324:E:/NeuOrga/Programmieren/c_cpp/github_os/input/src/os_base\os_task_scheduler.c ****    1. running     --(terminate)--> suspend
 325:E:/NeuOrga/Programmieren/c_cpp/github_os/input/src/os_base\os_task_scheduler.c ****    2. running     --(preempt  )--> ready
 326:E:/NeuOrga/Programmieren/c_cpp/github_os/input/src/os_base\os_task_scheduler.c ****    3. suspend     --(activate )--> ready
 327:E:/NeuOrga/Programmieren/c_cpp/github_os/input/src/os_base\os_task_scheduler.c ****    4. ready       --(start    )--> running
 328:E:/NeuOrga/Programmieren/c_cpp/github_os/input/src/os_base\os_task_scheduler.c ****    5. unspecified --(create   )--> suspend
 329:E:/NeuOrga/Programmieren/c_cpp/github_os/input/src/os_base\os_task_scheduler.c ****    */
 330:E:/NeuOrga/Programmieren/c_cpp/github_os/input/src/os_base\os_task_scheduler.c ****    task_t* task = 0;
 527              		.loc 1 330 0
 528 03f0 C745F400 		movl	$0, -12(%ebp)
 528      000000
 331:E:/NeuOrga/Programmieren/c_cpp/github_os/input/src/os_base\os_task_scheduler.c ****    /* get running task */
 332:E:/NeuOrga/Programmieren/c_cpp/github_os/input/src/os_base\os_task_scheduler.c ****    task = GetRunningTask(); /* bug: at first call of TaskSheduler*//* might reply tasks in state re
 529              		.loc 1 332 0
 530 03f7 E8000000 		call	_GetRunningTask
 530      00
 531 03fc 8945F4   		movl	%eax, -12(%ebp)
 333:E:/NeuOrga/Programmieren/c_cpp/github_os/input/src/os_base\os_task_scheduler.c **** 
 334:E:/NeuOrga/Programmieren/c_cpp/github_os/input/src/os_base\os_task_scheduler.c ****    /* Preempt Task */
 335:E:/NeuOrga/Programmieren/c_cpp/github_os/input/src/os_base\os_task_scheduler.c ****    OS_TERMINATE_TASK(task);
 532              		.loc 1 335 0
 533 03ff 8B45F4   		movl	-12(%ebp), %eax
 534 0402 890424   		movl	%eax, (%esp)
 535 0405 E826FFFF 		call	_OS_TERMINATE_TASK
 535      FF
 336:E:/NeuOrga/Programmieren/c_cpp/github_os/input/src/os_base\os_task_scheduler.c **** 
 337:E:/NeuOrga/Programmieren/c_cpp/github_os/input/src/os_base\os_task_scheduler.c ****    /* ask for the next task to be activated... */
 338:E:/NeuOrga/Programmieren/c_cpp/github_os/input/src/os_base\os_task_scheduler.c ****    task = OS_TaskScheduler();
 536              		.loc 1 338 0
 537 040a E88B0100 		call	_OS_TaskScheduler
GAS LISTING C:\Users\PRESID~1\AppData\Local\Temp\ccR9pTsK.s 			page 18


 537      00
 538 040f 8945F4   		movl	%eax, -12(%ebp)
 339:E:/NeuOrga/Programmieren/c_cpp/github_os/input/src/os_base\os_task_scheduler.c **** 
 340:E:/NeuOrga/Programmieren/c_cpp/github_os/input/src/os_base\os_task_scheduler.c ****    OS_STARTTASK(task);
 539              		.loc 1 340 0
 540 0412 8B45F4   		movl	-12(%ebp), %eax
 541 0415 890424   		movl	%eax, (%esp)
 542 0418 E8B7FDFF 		call	_OS_STARTTASK
 542      FF
 341:E:/NeuOrga/Programmieren/c_cpp/github_os/input/src/os_base\os_task_scheduler.c **** }
 543              		.loc 1 341 0
 544 041d C9       		leave
 545              		.cfi_restore 5
 546              		.cfi_def_cfa 4, 4
 547 041e C3       		ret
 548              		.cfi_endproc
 549              	LFE6:
 551              	_TASK_0:
 552              	LFB7:
 342:E:/NeuOrga/Programmieren/c_cpp/github_os/input/src/os_base\os_task_scheduler.c **** Local void TASK_0(void* task_ptr)
 343:E:/NeuOrga/Programmieren/c_cpp/github_os/input/src/os_base\os_task_scheduler.c **** {
 553              		.loc 1 343 0
 554              		.cfi_startproc
 555 041f 55       		pushl	%ebp
 556              		.cfi_def_cfa_offset 8
 557              		.cfi_offset 5, -8
 558 0420 89E5     		movl	%esp, %ebp
 559              		.cfi_def_cfa_register 5
 344:E:/NeuOrga/Programmieren/c_cpp/github_os/input/src/os_base\os_task_scheduler.c ****    ReferenceUnusedParameter(task_ptr);
 345:E:/NeuOrga/Programmieren/c_cpp/github_os/input/src/os_base\os_task_scheduler.c ****    HaltMcu();/* HLT will be ended by timer interrupt, what shall be done with the rest of the funct
 346:E:/NeuOrga/Programmieren/c_cpp/github_os/input/src/os_base\os_task_scheduler.c **** }
 560              		.loc 1 346 0
 561 0422 5D       		popl	%ebp
 562              		.cfi_restore 5
 563              		.cfi_def_cfa 4, 4
 564 0423 C3       		ret
 565              		.cfi_endproc
 566              	LFE7:
 568              	_TASK_1:
 569              	LFB8:
 347:E:/NeuOrga/Programmieren/c_cpp/github_os/input/src/os_base\os_task_scheduler.c **** Local void TASK_1(void* task_ptr)
 348:E:/NeuOrga/Programmieren/c_cpp/github_os/input/src/os_base\os_task_scheduler.c **** {
 570              		.loc 1 348 0
 571              		.cfi_startproc
 572 0424 55       		pushl	%ebp
 573              		.cfi_def_cfa_offset 8
 574              		.cfi_offset 5, -8
 575 0425 89E5     		movl	%esp, %ebp
 576              		.cfi_def_cfa_register 5
 577 0427 83EC18   		subl	$24, %esp
 349:E:/NeuOrga/Programmieren/c_cpp/github_os/input/src/os_base\os_task_scheduler.c ****    ReferenceUnusedParameter(task_ptr);
 350:E:/NeuOrga/Programmieren/c_cpp/github_os/input/src/os_base\os_task_scheduler.c ****    /* worker task */
 351:E:/NeuOrga/Programmieren/c_cpp/github_os/input/src/os_base\os_task_scheduler.c **** 
 352:E:/NeuOrga/Programmieren/c_cpp/github_os/input/src/os_base\os_task_scheduler.c ****    /* do some things */
 353:E:/NeuOrga/Programmieren/c_cpp/github_os/input/src/os_base\os_task_scheduler.c ****    /*while(1) {}*/
 354:E:/NeuOrga/Programmieren/c_cpp/github_os/input/src/os_base\os_task_scheduler.c ****    OS_SLEEPTASK((task_t*)task_ptr, 100000000);
 578              		.loc 1 354 0
GAS LISTING C:\Users\PRESID~1\AppData\Local\Temp\ccR9pTsK.s 			page 19


 579 042a C7442404 		movl	$100000000, 4(%esp)
 579      00E1F505 
 580 0432 8B4508   		movl	8(%ebp), %eax
 581 0435 890424   		movl	%eax, (%esp)
 582 0438 E8C8FBFF 		call	_OS_SLEEPTASK
 582      FF
 355:E:/NeuOrga/Programmieren/c_cpp/github_os/input/src/os_base\os_task_scheduler.c **** 
 356:E:/NeuOrga/Programmieren/c_cpp/github_os/input/src/os_base\os_task_scheduler.c ****    /* end */
 357:E:/NeuOrga/Programmieren/c_cpp/github_os/input/src/os_base\os_task_scheduler.c **** }
 583              		.loc 1 357 0
 584 043d C9       		leave
 585              		.cfi_restore 5
 586              		.cfi_def_cfa 4, 4
 587 043e C3       		ret
 588              		.cfi_endproc
 589              	LFE8:
 591              	_TASK_2:
 592              	LFB9:
 358:E:/NeuOrga/Programmieren/c_cpp/github_os/input/src/os_base\os_task_scheduler.c **** Local void TASK_2(void* task_ptr)
 359:E:/NeuOrga/Programmieren/c_cpp/github_os/input/src/os_base\os_task_scheduler.c **** {
 593              		.loc 1 359 0
 594              		.cfi_startproc
 595 043f 55       		pushl	%ebp
 596              		.cfi_def_cfa_offset 8
 597              		.cfi_offset 5, -8
 598 0440 89E5     		movl	%esp, %ebp
 599              		.cfi_def_cfa_register 5
 360:E:/NeuOrga/Programmieren/c_cpp/github_os/input/src/os_base\os_task_scheduler.c ****    ReferenceUnusedParameter(task_ptr);
 361:E:/NeuOrga/Programmieren/c_cpp/github_os/input/src/os_base\os_task_scheduler.c ****    /* worker task */
 362:E:/NeuOrga/Programmieren/c_cpp/github_os/input/src/os_base\os_task_scheduler.c **** 
 363:E:/NeuOrga/Programmieren/c_cpp/github_os/input/src/os_base\os_task_scheduler.c ****    /* do some things */
 364:E:/NeuOrga/Programmieren/c_cpp/github_os/input/src/os_base\os_task_scheduler.c ****    /*while(1) {}*/
 365:E:/NeuOrga/Programmieren/c_cpp/github_os/input/src/os_base\os_task_scheduler.c **** 
 366:E:/NeuOrga/Programmieren/c_cpp/github_os/input/src/os_base\os_task_scheduler.c ****    /* end */
 367:E:/NeuOrga/Programmieren/c_cpp/github_os/input/src/os_base\os_task_scheduler.c **** }
 600              		.loc 1 367 0
 601 0442 5D       		popl	%ebp
 602              		.cfi_restore 5
 603              		.cfi_def_cfa 4, 4
 604 0443 C3       		ret
 605              		.cfi_endproc
 606              	LFE9:
 608              	_TASK_3:
 609              	LFB10:
 368:E:/NeuOrga/Programmieren/c_cpp/github_os/input/src/os_base\os_task_scheduler.c **** Local void TASK_3(void* task_ptr)
 369:E:/NeuOrga/Programmieren/c_cpp/github_os/input/src/os_base\os_task_scheduler.c **** {
 610              		.loc 1 369 0
 611              		.cfi_startproc
 612 0444 55       		pushl	%ebp
 613              		.cfi_def_cfa_offset 8
 614              		.cfi_offset 5, -8
 615 0445 89E5     		movl	%esp, %ebp
 616              		.cfi_def_cfa_register 5
 370:E:/NeuOrga/Programmieren/c_cpp/github_os/input/src/os_base\os_task_scheduler.c ****    ReferenceUnusedParameter(task_ptr);
 371:E:/NeuOrga/Programmieren/c_cpp/github_os/input/src/os_base\os_task_scheduler.c ****    /* worker task */
 372:E:/NeuOrga/Programmieren/c_cpp/github_os/input/src/os_base\os_task_scheduler.c **** 
 373:E:/NeuOrga/Programmieren/c_cpp/github_os/input/src/os_base\os_task_scheduler.c ****    /* do some things */
GAS LISTING C:\Users\PRESID~1\AppData\Local\Temp\ccR9pTsK.s 			page 20


 374:E:/NeuOrga/Programmieren/c_cpp/github_os/input/src/os_base\os_task_scheduler.c ****    /*while(1) {}*/
 375:E:/NeuOrga/Programmieren/c_cpp/github_os/input/src/os_base\os_task_scheduler.c **** 
 376:E:/NeuOrga/Programmieren/c_cpp/github_os/input/src/os_base\os_task_scheduler.c ****    /* end */
 377:E:/NeuOrga/Programmieren/c_cpp/github_os/input/src/os_base\os_task_scheduler.c **** }
 617              		.loc 1 377 0
 618 0447 5D       		popl	%ebp
 619              		.cfi_restore 5
 620              		.cfi_def_cfa 4, 4
 621 0448 C3       		ret
 622              		.cfi_endproc
 623              	LFE10:
 624              		.globl	_OS_INIT_TASKS
 626              	_OS_INIT_TASKS:
 627              	LFB11:
 378:E:/NeuOrga/Programmieren/c_cpp/github_os/input/src/os_base\os_task_scheduler.c **** void OS_INIT_TASKS(void)
 379:E:/NeuOrga/Programmieren/c_cpp/github_os/input/src/os_base\os_task_scheduler.c **** {
 628              		.loc 1 379 0
 629              		.cfi_startproc
 630 0449 55       		pushl	%ebp
 631              		.cfi_def_cfa_offset 8
 632              		.cfi_offset 5, -8
 633 044a 89E5     		movl	%esp, %ebp
 634              		.cfi_def_cfa_register 5
 635 044c 83EC38   		subl	$56, %esp
 380:E:/NeuOrga/Programmieren/c_cpp/github_os/input/src/os_base\os_task_scheduler.c ****    Local task_t task_0, task_1, task_2, task_3;
 381:E:/NeuOrga/Programmieren/c_cpp/github_os/input/src/os_base\os_task_scheduler.c ****    Local task_group_t TASK_GROUP_1;
 382:E:/NeuOrga/Programmieren/c_cpp/github_os/input/src/os_base\os_task_scheduler.c ****    Local task_group_t TASK_GROUP_2;
 383:E:/NeuOrga/Programmieren/c_cpp/github_os/input/src/os_base\os_task_scheduler.c ****    Local task_group_t TASK_GROUP_3;
 384:E:/NeuOrga/Programmieren/c_cpp/github_os/input/src/os_base\os_task_scheduler.c ****    Local task_group_t TASK_GROUP_4;
 385:E:/NeuOrga/Programmieren/c_cpp/github_os/input/src/os_base\os_task_scheduler.c ****    Local task_group_t TASK_GROUP_5;
 386:E:/NeuOrga/Programmieren/c_cpp/github_os/input/src/os_base\os_task_scheduler.c ****    task_t* task_ptr = 0;
 636              		.loc 1 386 0
 637 044f C745F400 		movl	$0, -12(%ebp)
 637      000000
 387:E:/NeuOrga/Programmieren/c_cpp/github_os/input/src/os_base\os_task_scheduler.c ****    LAST_CURRENT_TIME = Get_current_time();
 638              		.loc 1 387 0
 639 0456 E8000000 		call	_Get_current_time
 639      00
 640 045b A3E80300 		movl	%eax, _LAST_CURRENT_TIME
 640      00
 388:E:/NeuOrga/Programmieren/c_cpp/github_os/input/src/os_base\os_task_scheduler.c **** 
 389:E:/NeuOrga/Programmieren/c_cpp/github_os/input/src/os_base\os_task_scheduler.c ****    ReferenceUnusedParameter (TASK_GROUP_1);
 390:E:/NeuOrga/Programmieren/c_cpp/github_os/input/src/os_base\os_task_scheduler.c ****    ReferenceUnusedParameter (TASK_GROUP_2);
 391:E:/NeuOrga/Programmieren/c_cpp/github_os/input/src/os_base\os_task_scheduler.c ****    ReferenceUnusedParameter (TASK_GROUP_3);
 392:E:/NeuOrga/Programmieren/c_cpp/github_os/input/src/os_base\os_task_scheduler.c ****    ReferenceUnusedParameter (TASK_GROUP_4);
 393:E:/NeuOrga/Programmieren/c_cpp/github_os/input/src/os_base\os_task_scheduler.c ****    ReferenceUnusedParameter (TASK_GROUP_5);
 394:E:/NeuOrga/Programmieren/c_cpp/github_os/input/src/os_base\os_task_scheduler.c **** 
 395:E:/NeuOrga/Programmieren/c_cpp/github_os/input/src/os_base\os_task_scheduler.c **** 
 396:E:/NeuOrga/Programmieren/c_cpp/github_os/input/src/os_base\os_task_scheduler.c ****    /*#warn "CoreId, Privilige Level (User Mode, System Mode, Abort, Undefined, FiQ, IRQ), MEMORY Re
 397:E:/NeuOrga/Programmieren/c_cpp/github_os/input/src/os_base\os_task_scheduler.c ****    /*
 398:E:/NeuOrga/Programmieren/c_cpp/github_os/input/src/os_base\os_task_scheduler.c ****    set task_state for all tasks to Task_unspecified
 399:E:/NeuOrga/Programmieren/c_cpp/github_os/input/src/os_base\os_task_scheduler.c ****     */
 400:E:/NeuOrga/Programmieren/c_cpp/github_os/input/src/os_base\os_task_scheduler.c ****    OS_INIT_TASK_QUEUE();
 641              		.loc 1 400 0
 642 0460 E8000000 		call	_OS_INIT_TASK_QUEUE
 642      00
 401:E:/NeuOrga/Programmieren/c_cpp/github_os/input/src/os_base\os_task_scheduler.c **** 
GAS LISTING C:\Users\PRESID~1\AppData\Local\Temp\ccR9pTsK.s 			page 21


 402:E:/NeuOrga/Programmieren/c_cpp/github_os/input/src/os_base\os_task_scheduler.c ****    /* setup idle task */
 403:E:/NeuOrga/Programmieren/c_cpp/github_os/input/src/os_base\os_task_scheduler.c ****    task_ptr = &task_0;
 643              		.loc 1 403 0
 644 0465 C745F420 		movl	$_task_0.1361, -12(%ebp)
 644      040000
 404:E:/NeuOrga/Programmieren/c_cpp/github_os/input/src/os_base\os_task_scheduler.c ****    OS_INIT_TASK(task_ptr,                          /* task */
 645              		.loc 1 404 0
 646 046c C744241C 		movl	$1, 28(%esp)
 646      01000000 
 647 0474 C7442418 		movl	$200, 24(%esp)
 647      C8000000 
 648 047c C7442414 		movl	$_TASK_STACK, 20(%esp)
 648      00000000 
 649 0484 C7442410 		movl	$_TASK_GROUP_1.1365, 16(%esp)
 649      EC030000 
 650 048c C744240C 		movl	$1, 12(%esp)
 650      01000000 
 651 0494 C7442408 		movl	$1, 8(%esp)
 651      01000000 
 652 049c C7442404 		movl	$_TASK_0, 4(%esp)
 652      1F040000 
 653 04a4 8B45F4   		movl	-12(%ebp), %eax
 654 04a7 890424   		movl	%eax, (%esp)
 655 04aa E8000000 		call	_OS_INIT_TASK
 655      00
 405:E:/NeuOrga/Programmieren/c_cpp/github_os/input/src/os_base\os_task_scheduler.c ****                 &TASK_0,                           /* Task Function*/
 406:E:/NeuOrga/Programmieren/c_cpp/github_os/input/src/os_base\os_task_scheduler.c ****                 1,                                 /* Nr of allowed instances*/
 407:E:/NeuOrga/Programmieren/c_cpp/github_os/input/src/os_base\os_task_scheduler.c ****                 True,                              /* Idle Task */
 408:E:/NeuOrga/Programmieren/c_cpp/github_os/input/src/os_base\os_task_scheduler.c ****                 &TASK_GROUP_1,                     /* Task Group */
 409:E:/NeuOrga/Programmieren/c_cpp/github_os/input/src/os_base\os_task_scheduler.c ****                 (unsigned_char_t*)&TASK_STACK[0],  /* Task_stack */
 410:E:/NeuOrga/Programmieren/c_cpp/github_os/input/src/os_base\os_task_scheduler.c ****                 200,                                /* Stack Size */
 411:E:/NeuOrga/Programmieren/c_cpp/github_os/input/src/os_base\os_task_scheduler.c ****                 True                                /* Kernel Mode */
 412:E:/NeuOrga/Programmieren/c_cpp/github_os/input/src/os_base\os_task_scheduler.c ****                );
 413:E:/NeuOrga/Programmieren/c_cpp/github_os/input/src/os_base\os_task_scheduler.c ****    OS_SaveTaskPtr(task_ptr, Task_0_ptr);
 414:E:/NeuOrga/Programmieren/c_cpp/github_os/input/src/os_base\os_task_scheduler.c **** 
 415:E:/NeuOrga/Programmieren/c_cpp/github_os/input/src/os_base\os_task_scheduler.c ****    /*set the idle-task as first running task, otherwise preempt might fail */
 416:E:/NeuOrga/Programmieren/c_cpp/github_os/input/src/os_base\os_task_scheduler.c ****    SET_RUNNING_TASK(task_ptr);
 656              		.loc 1 416 0
 657 04af 8B45F4   		movl	-12(%ebp), %eax
 658 04b2 890424   		movl	%eax, (%esp)
 659 04b5 E8000000 		call	_SET_RUNNING_TASK
 659      00
 417:E:/NeuOrga/Programmieren/c_cpp/github_os/input/src/os_base\os_task_scheduler.c **** 
 418:E:/NeuOrga/Programmieren/c_cpp/github_os/input/src/os_base\os_task_scheduler.c ****    /* setup worker task */
 419:E:/NeuOrga/Programmieren/c_cpp/github_os/input/src/os_base\os_task_scheduler.c ****    task_ptr = &task_1;
 660              		.loc 1 419 0
 661 04ba C745F480 		movl	$_task_1.1362, -12(%ebp)
 661      040000
 420:E:/NeuOrga/Programmieren/c_cpp/github_os/input/src/os_base\os_task_scheduler.c ****    OS_INIT_TASK(task_ptr,      /* task */
 662              		.loc 1 420 0
 663 04c1 C744241C 		movl	$0, 28(%esp)
 663      00000000 
 664 04c9 C7442418 		movl	$200, 24(%esp)
 664      C8000000 
 665 04d1 C7442414 		movl	$_TASK_STACK+200, 20(%esp)
 665      C8000000 
 666 04d9 C7442410 		movl	$_TASK_GROUP_1.1365, 16(%esp)
GAS LISTING C:\Users\PRESID~1\AppData\Local\Temp\ccR9pTsK.s 			page 22


 666      EC030000 
 667 04e1 C744240C 		movl	$0, 12(%esp)
 667      00000000 
 668 04e9 C7442408 		movl	$1, 8(%esp)
 668      01000000 
 669 04f1 C7442404 		movl	$_TASK_1, 4(%esp)
 669      24040000 
 670 04f9 8B45F4   		movl	-12(%ebp), %eax
 671 04fc 890424   		movl	%eax, (%esp)
 672 04ff E8000000 		call	_OS_INIT_TASK
 672      00
 421:E:/NeuOrga/Programmieren/c_cpp/github_os/input/src/os_base\os_task_scheduler.c ****                 &TASK_1,       /* Task Function*/
 422:E:/NeuOrga/Programmieren/c_cpp/github_os/input/src/os_base\os_task_scheduler.c ****                 1,             /* Nr of allowed instances*/
 423:E:/NeuOrga/Programmieren/c_cpp/github_os/input/src/os_base\os_task_scheduler.c ****                 False,          /* Idle Task */
 424:E:/NeuOrga/Programmieren/c_cpp/github_os/input/src/os_base\os_task_scheduler.c ****                 &TASK_GROUP_1, /* Task Group */
 425:E:/NeuOrga/Programmieren/c_cpp/github_os/input/src/os_base\os_task_scheduler.c ****                 (unsigned_char_t*)&TASK_STACK[1],/* Task_stack */
 426:E:/NeuOrga/Programmieren/c_cpp/github_os/input/src/os_base\os_task_scheduler.c ****                 200,            /* Stack Size */
 427:E:/NeuOrga/Programmieren/c_cpp/github_os/input/src/os_base\os_task_scheduler.c ****                 False           /* Kernel Mode */
 428:E:/NeuOrga/Programmieren/c_cpp/github_os/input/src/os_base\os_task_scheduler.c ****                );
 429:E:/NeuOrga/Programmieren/c_cpp/github_os/input/src/os_base\os_task_scheduler.c ****    OS_SaveTaskPtr(task_ptr, Task_1_ptr);
 430:E:/NeuOrga/Programmieren/c_cpp/github_os/input/src/os_base\os_task_scheduler.c **** 
 431:E:/NeuOrga/Programmieren/c_cpp/github_os/input/src/os_base\os_task_scheduler.c ****    /* setup worker task */
 432:E:/NeuOrga/Programmieren/c_cpp/github_os/input/src/os_base\os_task_scheduler.c ****    task_ptr = &task_2;
 673              		.loc 1 432 0
 674 0504 C745F4E0 		movl	$_task_2.1363, -12(%ebp)
 674      040000
 433:E:/NeuOrga/Programmieren/c_cpp/github_os/input/src/os_base\os_task_scheduler.c ****    OS_INIT_TASK(task_ptr,      /* task */
 675              		.loc 1 433 0
 676 050b C744241C 		movl	$0, 28(%esp)
 676      00000000 
 677 0513 C7442418 		movl	$200, 24(%esp)
 677      C8000000 
 678 051b C7442414 		movl	$_TASK_STACK+400, 20(%esp)
 678      90010000 
 679 0523 C7442410 		movl	$_TASK_GROUP_2.1366, 16(%esp)
 679      F4030000 
 680 052b C744240C 		movl	$0, 12(%esp)
 680      00000000 
 681 0533 C7442408 		movl	$1, 8(%esp)
 681      01000000 
 682 053b C7442404 		movl	$_TASK_2, 4(%esp)
 682      3F040000 
 683 0543 8B45F4   		movl	-12(%ebp), %eax
 684 0546 890424   		movl	%eax, (%esp)
 685 0549 E8000000 		call	_OS_INIT_TASK
 685      00
 434:E:/NeuOrga/Programmieren/c_cpp/github_os/input/src/os_base\os_task_scheduler.c ****                 &TASK_2,       /* Task Function*/
 435:E:/NeuOrga/Programmieren/c_cpp/github_os/input/src/os_base\os_task_scheduler.c ****                 1,             /* Nr of allowed instances*/
 436:E:/NeuOrga/Programmieren/c_cpp/github_os/input/src/os_base\os_task_scheduler.c ****                 False,          /* Idle Task */
 437:E:/NeuOrga/Programmieren/c_cpp/github_os/input/src/os_base\os_task_scheduler.c ****                 &TASK_GROUP_2, /* Task Group */
 438:E:/NeuOrga/Programmieren/c_cpp/github_os/input/src/os_base\os_task_scheduler.c ****                 (unsigned_char_t*)&TASK_STACK[2],/* Task_stack */
 439:E:/NeuOrga/Programmieren/c_cpp/github_os/input/src/os_base\os_task_scheduler.c ****                 200,            /* Stack Size */
 440:E:/NeuOrga/Programmieren/c_cpp/github_os/input/src/os_base\os_task_scheduler.c ****                 False           /* Kernel Mode */
 441:E:/NeuOrga/Programmieren/c_cpp/github_os/input/src/os_base\os_task_scheduler.c ****                );
 442:E:/NeuOrga/Programmieren/c_cpp/github_os/input/src/os_base\os_task_scheduler.c ****    OS_SaveTaskPtr(task_ptr, Task_2_ptr);
 443:E:/NeuOrga/Programmieren/c_cpp/github_os/input/src/os_base\os_task_scheduler.c **** 
 444:E:/NeuOrga/Programmieren/c_cpp/github_os/input/src/os_base\os_task_scheduler.c ****    /* setup worker task */
GAS LISTING C:\Users\PRESID~1\AppData\Local\Temp\ccR9pTsK.s 			page 23


 445:E:/NeuOrga/Programmieren/c_cpp/github_os/input/src/os_base\os_task_scheduler.c ****    task_ptr = &task_3;
 686              		.loc 1 445 0
 687 054e C745F440 		movl	$_task_3.1364, -12(%ebp)
 687      050000
 446:E:/NeuOrga/Programmieren/c_cpp/github_os/input/src/os_base\os_task_scheduler.c ****    OS_INIT_TASK(task_ptr,      /* task */
 688              		.loc 1 446 0
 689 0555 C744241C 		movl	$1, 28(%esp)
 689      01000000 
 690 055d C7442418 		movl	$200, 24(%esp)
 690      C8000000 
 691 0565 C7442414 		movl	$_TASK_STACK+600, 20(%esp)
 691      58020000 
 692 056d C7442410 		movl	$_TASK_GROUP_3.1367, 16(%esp)
 692      FC030000 
 693 0575 C744240C 		movl	$0, 12(%esp)
 693      00000000 
 694 057d C7442408 		movl	$1, 8(%esp)
 694      01000000 
 695 0585 C7442404 		movl	$_TASK_3, 4(%esp)
 695      44040000 
 696 058d 8B45F4   		movl	-12(%ebp), %eax
 697 0590 890424   		movl	%eax, (%esp)
 698 0593 E8000000 		call	_OS_INIT_TASK
 698      00
 447:E:/NeuOrga/Programmieren/c_cpp/github_os/input/src/os_base\os_task_scheduler.c ****                 &TASK_3,       /* Task Function*/
 448:E:/NeuOrga/Programmieren/c_cpp/github_os/input/src/os_base\os_task_scheduler.c ****                 1,             /* Nr of allowed instances*/
 449:E:/NeuOrga/Programmieren/c_cpp/github_os/input/src/os_base\os_task_scheduler.c ****                 False,          /* Idle Task */
 450:E:/NeuOrga/Programmieren/c_cpp/github_os/input/src/os_base\os_task_scheduler.c ****                 &TASK_GROUP_3, /* Task Group */
 451:E:/NeuOrga/Programmieren/c_cpp/github_os/input/src/os_base\os_task_scheduler.c ****                 (unsigned_char_t*)&TASK_STACK[3],/* Task_stack */
 452:E:/NeuOrga/Programmieren/c_cpp/github_os/input/src/os_base\os_task_scheduler.c ****                 200,           /* Stack Size */
 453:E:/NeuOrga/Programmieren/c_cpp/github_os/input/src/os_base\os_task_scheduler.c ****                 True                                /* Kernel Mode */
 454:E:/NeuOrga/Programmieren/c_cpp/github_os/input/src/os_base\os_task_scheduler.c ****                );
 455:E:/NeuOrga/Programmieren/c_cpp/github_os/input/src/os_base\os_task_scheduler.c ****    OS_SaveTaskPtr(task_ptr, Task_3_ptr);   
 456:E:/NeuOrga/Programmieren/c_cpp/github_os/input/src/os_base\os_task_scheduler.c **** }
 699              		.loc 1 456 0
 700 0598 C9       		leave
 701              		.cfi_restore 5
 702              		.cfi_def_cfa 4, 4
 703 0599 C3       		ret
 704              		.cfi_endproc
 705              	LFE11:
 707              	_OS_TaskScheduler:
 708              	LFB12:
 457:E:/NeuOrga/Programmieren/c_cpp/github_os/input/src/os_base\os_task_scheduler.c **** 
 458:E:/NeuOrga/Programmieren/c_cpp/github_os/input/src/os_base\os_task_scheduler.c **** 
 459:E:/NeuOrga/Programmieren/c_cpp/github_os/input/src/os_base\os_task_scheduler.c **** Local task_t* OS_TaskScheduler(void)
 460:E:/NeuOrga/Programmieren/c_cpp/github_os/input/src/os_base\os_task_scheduler.c **** {
 709              		.loc 1 460 0
 710              		.cfi_startproc
 711 059a 55       		pushl	%ebp
 712              		.cfi_def_cfa_offset 8
 713              		.cfi_offset 5, -8
 714 059b 89E5     		movl	%esp, %ebp
 715              		.cfi_def_cfa_register 5
 716 059d 53       		pushl	%ebx
 717 059e 83EC34   		subl	$52, %esp
 718              		.cfi_offset 3, -12
GAS LISTING C:\Users\PRESID~1\AppData\Local\Temp\ccR9pTsK.s 			page 24


 461:E:/NeuOrga/Programmieren/c_cpp/github_os/input/src/os_base\os_task_scheduler.c ****    Local task_t* task = 0;
 462:E:/NeuOrga/Programmieren/c_cpp/github_os/input/src/os_base\os_task_scheduler.c ****    Local unsigned_char_t Winner_prio = 0;
 463:E:/NeuOrga/Programmieren/c_cpp/github_os/input/src/os_base\os_task_scheduler.c ****    task_t*         Winner_task = 0;
 719              		.loc 1 463 0
 720 05a1 C745F400 		movl	$0, -12(%ebp)
 720      000000
 464:E:/NeuOrga/Programmieren/c_cpp/github_os/input/src/os_base\os_task_scheduler.c ****    Local link_list_t*    link_list_member;
 465:E:/NeuOrga/Programmieren/c_cpp/github_os/input/src/os_base\os_task_scheduler.c ****    unsigned_char_t       element_nr;
 466:E:/NeuOrga/Programmieren/c_cpp/github_os/input/src/os_base\os_task_scheduler.c **** 
 467:E:/NeuOrga/Programmieren/c_cpp/github_os/input/src/os_base\os_task_scheduler.c ****    scheduler_time_t delta_time = Get_current_time() - LAST_CURRENT_TIME;
 721              		.loc 1 467 0
 722 05a8 E8000000 		call	_Get_current_time
 722      00
 723 05ad 89C2     		movl	%eax, %edx
 724 05af A1E80300 		movl	_LAST_CURRENT_TIME, %eax
 724      00
 725 05b4 29C2     		subl	%eax, %edx
 726 05b6 89D0     		movl	%edx, %eax
 727 05b8 8945EC   		movl	%eax, -20(%ebp)
 468:E:/NeuOrga/Programmieren/c_cpp/github_os/input/src/os_base\os_task_scheduler.c ****    LAST_CURRENT_TIME = Get_current_time();
 728              		.loc 1 468 0
 729 05bb E8000000 		call	_Get_current_time
 729      00
 730 05c0 A3E80300 		movl	%eax, _LAST_CURRENT_TIME
 730      00
 469:E:/NeuOrga/Programmieren/c_cpp/github_os/input/src/os_base\os_task_scheduler.c **** 
 470:E:/NeuOrga/Programmieren/c_cpp/github_os/input/src/os_base\os_task_scheduler.c ****    /*
 471:E:/NeuOrga/Programmieren/c_cpp/github_os/input/src/os_base\os_task_scheduler.c ****    x const for single task: task->default_prio // low = 0,.....high=100
 472:E:/NeuOrga/Programmieren/c_cpp/github_os/input/src/os_base\os_task_scheduler.c ****    x var   for single task: task->current_prio // see prio_std
 473:E:/NeuOrga/Programmieren/c_cpp/github_os/input/src/os_base\os_task_scheduler.c ****    x var   for single task: task->wait_time    //
 474:E:/NeuOrga/Programmieren/c_cpp/github_os/input/src/os_base\os_task_scheduler.c ****    x var   for single task: task->exe_time
 475:E:/NeuOrga/Programmieren/c_cpp/github_os/input/src/os_base\os_task_scheduler.c ****    x const for single task: task->TimeToPrioInc
 476:E:/NeuOrga/Programmieren/c_cpp/github_os/input/src/os_base\os_task_scheduler.c ****    x const for single task: task->max_allowed_wait_time
 477:E:/NeuOrga/Programmieren/c_cpp/github_os/input/src/os_base\os_task_scheduler.c ****    x const for single task: task->min_allowed_wait_time
 478:E:/NeuOrga/Programmieren/c_cpp/github_os/input/src/os_base\os_task_scheduler.c ****    x const for single task: task->overwaittime_per_prio_inc_step //e.g. 100*MinTimeSlice_us
 479:E:/NeuOrga/Programmieren/c_cpp/github_os/input/src/os_base\os_task_scheduler.c ****    x const for single task: task->task_group  //to allow processor access control by groups (e.g. u
 480:E:/NeuOrga/Programmieren/c_cpp/github_os/input/src/os_base\os_task_scheduler.c ****    x const for single task: task->WaitActUntil
 481:E:/NeuOrga/Programmieren/c_cpp/github_os/input/src/os_base\os_task_scheduler.c ****    (task_group is designed to allow proccessor access control between e.g. Customer Software Task a
 482:E:/NeuOrga/Programmieren/c_cpp/github_os/input/src/os_base\os_task_scheduler.c ****    */
 483:E:/NeuOrga/Programmieren/c_cpp/github_os/input/src/os_base\os_task_scheduler.c ****    For_all_tasks_in_queue(element_nr)
 731              		.loc 1 483 0
 732 05c5 C645F300 		movb	$0, -13(%ebp)
 733 05c9 E9230100 		jmp	L55
 733      00
 734              	L63:
 484:E:/NeuOrga/Programmieren/c_cpp/github_os/input/src/os_base\os_task_scheduler.c ****    {
 485:E:/NeuOrga/Programmieren/c_cpp/github_os/input/src/os_base\os_task_scheduler.c ****       link_list_member = GetFromLinkList(element_nr);
 735              		.loc 1 485 0
 736 05ce 0FB645F3 		movzbl	-13(%ebp), %eax
 737 05d2 890424   		movl	%eax, (%esp)
 738 05d5 E8000000 		call	_GetFromLinkList
 738      00
 739 05da A3A00500 		movl	%eax, _link_list_member.1377
 739      00
 486:E:/NeuOrga/Programmieren/c_cpp/github_os/input/src/os_base\os_task_scheduler.c ****       /*task will have a pointer on the task_obj, and might be equal to "(task_t*) 0" */
 487:E:/NeuOrga/Programmieren/c_cpp/github_os/input/src/os_base\os_task_scheduler.c ****       task             = GetFromTaskQueue(link_list_member);
 740              		.loc 1 487 0
GAS LISTING C:\Users\PRESID~1\AppData\Local\Temp\ccR9pTsK.s 			page 25


 741 05df A1A00500 		movl	_link_list_member.1377, %eax
 741      00
 742 05e4 890424   		movl	%eax, (%esp)
 743 05e7 E8000000 		call	_GetFromTaskQueue
 743      00
 744 05ec A3A40500 		movl	%eax, _task.1374
 744      00
 488:E:/NeuOrga/Programmieren/c_cpp/github_os/input/src/os_base\os_task_scheduler.c ****       /* increase prio: high numbers->high prio */
 489:E:/NeuOrga/Programmieren/c_cpp/github_os/input/src/os_base\os_task_scheduler.c ****       if((task != 0)&&(task->task_queued != False))
 745              		.loc 1 489 0
 746 05f1 A1A40500 		movl	_task.1374, %eax
 746      00
 747 05f6 85C0     		testl	%eax, %eax
 748 05f8 0F84EC00 		je	L56
 748      0000
 749              		.loc 1 489 0 is_stmt 0 discriminator 1
 750 05fe A1A40500 		movl	_task.1374, %eax
 750      00
 751 0603 8A00     		movb	(%eax), %al
 752 0605 83E002   		andl	$2, %eax
 753 0608 84C0     		testb	%al, %al
 754 060a 0F84DA00 		je	L56
 754      0000
 490:E:/NeuOrga/Programmieren/c_cpp/github_os/input/src/os_base\os_task_scheduler.c ****       {
 491:E:/NeuOrga/Programmieren/c_cpp/github_os/input/src/os_base\os_task_scheduler.c ****          if(task->wait_time >= task->TimeToPrioInc)
 755              		.loc 1 491 0 is_stmt 1
 756 0610 A1A40500 		movl	_task.1374, %eax
 756      00
 757 0615 8B500C   		movl	12(%eax), %edx
 758 0618 A1A40500 		movl	_task.1374, %eax
 758      00
 759 061d 8B4010   		movl	16(%eax), %eax
 760 0620 39C2     		cmpl	%eax, %edx
 761 0622 721C     		jb	L57
 492:E:/NeuOrga/Programmieren/c_cpp/github_os/input/src/os_base\os_task_scheduler.c ****          {
 493:E:/NeuOrga/Programmieren/c_cpp/github_os/input/src/os_base\os_task_scheduler.c ****             task->current_prio = task->current_prio + task->overwaittime_per_prio_inc_step;
 762              		.loc 1 493 0
 763 0624 A1A40500 		movl	_task.1374, %eax
 763      00
 764 0629 8B15A405 		movl	_task.1374, %edx
 764      0000
 765 062f 8A4A20   		movb	32(%edx), %cl
 766 0632 8B15A405 		movl	_task.1374, %edx
 766      0000
 767 0638 8B5214   		movl	20(%edx), %edx
 768 063b 01CA     		addl	%ecx, %edx
 769 063d 885020   		movb	%dl, 32(%eax)
 770              	L57:
 494:E:/NeuOrga/Programmieren/c_cpp/github_os/input/src/os_base\os_task_scheduler.c ****          }
 495:E:/NeuOrga/Programmieren/c_cpp/github_os/input/src/os_base\os_task_scheduler.c ****          /* in case wait condition not yet fulfilled, set prio to 0 */
 496:E:/NeuOrga/Programmieren/c_cpp/github_os/input/src/os_base\os_task_scheduler.c ****          if(task->WaitActUntil > Get_current_time())
 771              		.loc 1 496 0
 772 0640 A1A40500 		movl	_task.1374, %eax
 772      00
 773 0645 8B5808   		movl	8(%eax), %ebx
 774 0648 E8000000 		call	_Get_current_time
 774      00
GAS LISTING C:\Users\PRESID~1\AppData\Local\Temp\ccR9pTsK.s 			page 26


 775 064d 39C3     		cmpl	%eax, %ebx
 776 064f 7609     		jbe	L58
 497:E:/NeuOrga/Programmieren/c_cpp/github_os/input/src/os_base\os_task_scheduler.c ****          {
 498:E:/NeuOrga/Programmieren/c_cpp/github_os/input/src/os_base\os_task_scheduler.c ****             task->current_prio = 0;
 777              		.loc 1 498 0
 778 0651 A1A40500 		movl	_task.1374, %eax
 778      00
 779 0656 C6402000 		movb	$0, 32(%eax)
 780              	L58:
 499:E:/NeuOrga/Programmieren/c_cpp/github_os/input/src/os_base\os_task_scheduler.c ****          }
 500:E:/NeuOrga/Programmieren/c_cpp/github_os/input/src/os_base\os_task_scheduler.c ****          if(task->wait_time > task->max_allowed_wait_time)
 781              		.loc 1 500 0
 782 065a A1A40500 		movl	_task.1374, %eax
 782      00
 783 065f 8B500C   		movl	12(%eax), %edx
 784 0662 A1A40500 		movl	_task.1374, %eax
 784      00
 785 0667 8B4018   		movl	24(%eax), %eax
 786 066a 39C2     		cmpl	%eax, %edx
 787 066c 7614     		jbe	L59
 501:E:/NeuOrga/Programmieren/c_cpp/github_os/input/src/os_base\os_task_scheduler.c ****          {
 502:E:/NeuOrga/Programmieren/c_cpp/github_os/input/src/os_base\os_task_scheduler.c ****             /* set bug */
 503:E:/NeuOrga/Programmieren/c_cpp/github_os/input/src/os_base\os_task_scheduler.c ****             OS_SET_SW_BUG(os_bug_task_max_wait_time_reached, Func_TaskScheduler);
 788              		.loc 1 503 0
 789 066e C7442404 		movl	$8, 4(%esp)
 789      08000000 
 790 0676 C7042403 		movl	$3, (%esp)
 790      000000
 791 067d E8000000 		call	_OS_SET_SW_BUG
 791      00
 792              	L59:
 504:E:/NeuOrga/Programmieren/c_cpp/github_os/input/src/os_base\os_task_scheduler.c ****          }
 505:E:/NeuOrga/Programmieren/c_cpp/github_os/input/src/os_base\os_task_scheduler.c ****          /* not active TASK_RUN_QUEUE elements have no valid task_group!!*/
 506:E:/NeuOrga/Programmieren/c_cpp/github_os/input/src/os_base\os_task_scheduler.c ****          if(task->task_group!=0)
 793              		.loc 1 506 0
 794 0682 A1A40500 		movl	_task.1374, %eax
 794      00
 795 0687 8B4034   		movl	52(%eax), %eax
 796 068a 85C0     		testl	%eax, %eax
 797 068c 7448     		je	L60
 507:E:/NeuOrga/Programmieren/c_cpp/github_os/input/src/os_base\os_task_scheduler.c ****          {
 508:E:/NeuOrga/Programmieren/c_cpp/github_os/input/src/os_base\os_task_scheduler.c ****             /* usage the exe time for scheduling strategy */
 509:E:/NeuOrga/Programmieren/c_cpp/github_os/input/src/os_base\os_task_scheduler.c ****             if(task->task_group->exe_time > task->task_group->fair_exe_time)
 798              		.loc 1 509 0
 799 068e A1A40500 		movl	_task.1374, %eax
 799      00
 800 0693 8B4034   		movl	52(%eax), %eax
 801 0696 8B10     		movl	(%eax), %edx
 802 0698 A1A40500 		movl	_task.1374, %eax
 802      00
 803 069d 8B4034   		movl	52(%eax), %eax
 804 06a0 8B4004   		movl	4(%eax), %eax
 805 06a3 39C2     		cmpl	%eax, %edx
 806 06a5 7643     		jbe	L56
 510:E:/NeuOrga/Programmieren/c_cpp/github_os/input/src/os_base\os_task_scheduler.c ****             {
 511:E:/NeuOrga/Programmieren/c_cpp/github_os/input/src/os_base\os_task_scheduler.c ****                if(task->exe_time > Task_min_time)/* guarantee min time */
 807              		.loc 1 511 0
GAS LISTING C:\Users\PRESID~1\AppData\Local\Temp\ccR9pTsK.s 			page 27


 808 06a7 A1A40500 		movl	_task.1374, %eax
 808      00
 809 06ac 8B401C   		movl	28(%eax), %eax
 810 06af 8945E0   		movl	%eax, -32(%ebp)
 811 06b2 C745E400 		movl	$0, -28(%ebp)
 811      000000
 812 06b9 DF6DE0   		fildq	-32(%ebp)
 813 06bc D9E8     		fld1
 814 06be D9C9     		fxch	%st(1)
 815 06c0 DAE9     		fucompp
 816 06c2 DFE0     		fnstsw	%ax
 817 06c4 F6C445   		testb	$69, %ah
 818 06c7 7402     		je	L71
 819 06c9 EB1F     		jmp	L56
 820              	L71:
 512:E:/NeuOrga/Programmieren/c_cpp/github_os/input/src/os_base\os_task_scheduler.c ****                {
 513:E:/NeuOrga/Programmieren/c_cpp/github_os/input/src/os_base\os_task_scheduler.c ****                   task->current_prio = 0;
 821              		.loc 1 513 0
 822 06cb A1A40500 		movl	_task.1374, %eax
 822      00
 823 06d0 C6402000 		movb	$0, 32(%eax)
 824 06d4 EB14     		jmp	L56
 825              	L60:
 514:E:/NeuOrga/Programmieren/c_cpp/github_os/input/src/os_base\os_task_scheduler.c **** 
 515:E:/NeuOrga/Programmieren/c_cpp/github_os/input/src/os_base\os_task_scheduler.c ****                }
 516:E:/NeuOrga/Programmieren/c_cpp/github_os/input/src/os_base\os_task_scheduler.c ****             }
 517:E:/NeuOrga/Programmieren/c_cpp/github_os/input/src/os_base\os_task_scheduler.c ****          }
 518:E:/NeuOrga/Programmieren/c_cpp/github_os/input/src/os_base\os_task_scheduler.c ****          else
 519:E:/NeuOrga/Programmieren/c_cpp/github_os/input/src/os_base\os_task_scheduler.c ****          {
 520:E:/NeuOrga/Programmieren/c_cpp/github_os/input/src/os_base\os_task_scheduler.c ****             OS_SET_SW_BUG(os_bug_null_pointer, Func_TaskScheduler);
 826              		.loc 1 520 0
 827 06d6 C7442404 		movl	$8, 4(%esp)
 827      08000000 
 828 06de C7042402 		movl	$2, (%esp)
 828      000000
 829 06e5 E8000000 		call	_OS_SET_SW_BUG
 829      00
 830              	L56:
 483:E:/NeuOrga/Programmieren/c_cpp/github_os/input/src/os_base\os_task_scheduler.c ****    {
 831              		.loc 1 483 0 discriminator 2
 832 06ea 8A45F3   		movb	-13(%ebp), %al
 833 06ed 40       		incl	%eax
 834 06ee 8845F3   		movb	%al, -13(%ebp)
 835              	L55:
 483:E:/NeuOrga/Programmieren/c_cpp/github_os/input/src/os_base\os_task_scheduler.c ****    {
 836              		.loc 1 483 0 is_stmt 0 discriminator 1
 837 06f1 807DF304 		cmpb	$4, -13(%ebp)
 838 06f5 0F86D3FE 		jbe	L63
 838      FFFF
 521:E:/NeuOrga/Programmieren/c_cpp/github_os/input/src/os_base\os_task_scheduler.c ****          }
 522:E:/NeuOrga/Programmieren/c_cpp/github_os/input/src/os_base\os_task_scheduler.c ****       }
 523:E:/NeuOrga/Programmieren/c_cpp/github_os/input/src/os_base\os_task_scheduler.c ****       /* do not set bug, because task =0 is used for empty queue elements
 524:E:/NeuOrga/Programmieren/c_cpp/github_os/input/src/os_base\os_task_scheduler.c ****       else
 525:E:/NeuOrga/Programmieren/c_cpp/github_os/input/src/os_base\os_task_scheduler.c ****       {
 526:E:/NeuOrga/Programmieren/c_cpp/github_os/input/src/os_base\os_task_scheduler.c ****           OS_SET_SW_BUG(os_bug_null_pointer, Func_TaskScheduler);
 527:E:/NeuOrga/Programmieren/c_cpp/github_os/input/src/os_base\os_task_scheduler.c ****       }
 528:E:/NeuOrga/Programmieren/c_cpp/github_os/input/src/os_base\os_task_scheduler.c ****       */
GAS LISTING C:\Users\PRESID~1\AppData\Local\Temp\ccR9pTsK.s 			page 28


 529:E:/NeuOrga/Programmieren/c_cpp/github_os/input/src/os_base\os_task_scheduler.c ****    }
 530:E:/NeuOrga/Programmieren/c_cpp/github_os/input/src/os_base\os_task_scheduler.c ****    For_all_tasks_in_queue(element_nr)
 839              		.loc 1 530 0 is_stmt 1
 840 06fb C645F300 		movb	$0, -13(%ebp)
 841 06ff EB7D     		jmp	L64
 842              	L67:
 531:E:/NeuOrga/Programmieren/c_cpp/github_os/input/src/os_base\os_task_scheduler.c ****    {
 532:E:/NeuOrga/Programmieren/c_cpp/github_os/input/src/os_base\os_task_scheduler.c ****       link_list_member = GetFromLinkList(element_nr);
 843              		.loc 1 532 0
 844 0701 0FB645F3 		movzbl	-13(%ebp), %eax
 845 0705 890424   		movl	%eax, (%esp)
 846 0708 E8000000 		call	_GetFromLinkList
 846      00
 847 070d A3A00500 		movl	%eax, _link_list_member.1377
 847      00
 533:E:/NeuOrga/Programmieren/c_cpp/github_os/input/src/os_base\os_task_scheduler.c ****       task             = GetFromTaskQueue(link_list_member);
 848              		.loc 1 533 0
 849 0712 A1A00500 		movl	_link_list_member.1377, %eax
 849      00
 850 0717 890424   		movl	%eax, (%esp)
 851 071a E8000000 		call	_GetFromTaskQueue
 851      00
 852 071f A3A40500 		movl	%eax, _task.1374
 852      00
 534:E:/NeuOrga/Programmieren/c_cpp/github_os/input/src/os_base\os_task_scheduler.c ****       if(task != 0)
 853              		.loc 1 534 0
 854 0724 A1A40500 		movl	_task.1374, %eax
 854      00
 855 0729 85C0     		testl	%eax, %eax
 856 072b 744A     		je	L65
 535:E:/NeuOrga/Programmieren/c_cpp/github_os/input/src/os_base\os_task_scheduler.c ****       {
 536:E:/NeuOrga/Programmieren/c_cpp/github_os/input/src/os_base\os_task_scheduler.c ****          /*update wait time */
 537:E:/NeuOrga/Programmieren/c_cpp/github_os/input/src/os_base\os_task_scheduler.c ****          if(task->IdleTask != True)
 857              		.loc 1 537 0
 858 072d A1A40500 		movl	_task.1374, %eax
 858      00
 859 0732 8A00     		movb	(%eax), %al
 860 0734 83E004   		andl	$4, %eax
 861 0737 84C0     		testb	%al, %al
 862 0739 7516     		jne	L66
 538:E:/NeuOrga/Programmieren/c_cpp/github_os/input/src/os_base\os_task_scheduler.c ****          {
 539:E:/NeuOrga/Programmieren/c_cpp/github_os/input/src/os_base\os_task_scheduler.c ****             task->wait_time += delta_time;
 863              		.loc 1 539 0
 864 073b A1A40500 		movl	_task.1374, %eax
 864      00
 865 0740 8B15A405 		movl	_task.1374, %edx
 865      0000
 866 0746 8B4A0C   		movl	12(%edx), %ecx
 867 0749 8B55EC   		movl	-20(%ebp), %edx
 868 074c 01CA     		addl	%ecx, %edx
 869 074e 89500C   		movl	%edx, 12(%eax)
 870              	L66:
 540:E:/NeuOrga/Programmieren/c_cpp/github_os/input/src/os_base\os_task_scheduler.c ****          }
 541:E:/NeuOrga/Programmieren/c_cpp/github_os/input/src/os_base\os_task_scheduler.c ****          /* search for task with highest prio and assign it to Winner_task */
 542:E:/NeuOrga/Programmieren/c_cpp/github_os/input/src/os_base\os_task_scheduler.c ****          if(task->current_prio > Winner_prio)
 871              		.loc 1 542 0
 872 0751 A1A40500 		movl	_task.1374, %eax
GAS LISTING C:\Users\PRESID~1\AppData\Local\Temp\ccR9pTsK.s 			page 29


 872      00
 873 0756 8A5020   		movb	32(%eax), %dl
 874 0759 A0A80500 		movb	_Winner_prio.1375, %al
 874      00
 875 075e 38C2     		cmpb	%al, %dl
 876 0760 7615     		jbe	L65
 543:E:/NeuOrga/Programmieren/c_cpp/github_os/input/src/os_base\os_task_scheduler.c ****          {
 544:E:/NeuOrga/Programmieren/c_cpp/github_os/input/src/os_base\os_task_scheduler.c ****             Winner_prio = task->current_prio;
 877              		.loc 1 544 0
 878 0762 A1A40500 		movl	_task.1374, %eax
 878      00
 879 0767 8A4020   		movb	32(%eax), %al
 880 076a A2A80500 		movb	%al, _Winner_prio.1375
 880      00
 545:E:/NeuOrga/Programmieren/c_cpp/github_os/input/src/os_base\os_task_scheduler.c ****             Winner_task = task;
 881              		.loc 1 545 0
 882 076f A1A40500 		movl	_task.1374, %eax
 882      00
 883 0774 8945F4   		movl	%eax, -12(%ebp)
 884              	L65:
 530:E:/NeuOrga/Programmieren/c_cpp/github_os/input/src/os_base\os_task_scheduler.c ****    {
 885              		.loc 1 530 0 discriminator 2
 886 0777 8A45F3   		movb	-13(%ebp), %al
 887 077a 40       		incl	%eax
 888 077b 8845F3   		movb	%al, -13(%ebp)
 889              	L64:
 530:E:/NeuOrga/Programmieren/c_cpp/github_os/input/src/os_base\os_task_scheduler.c ****    {
 890              		.loc 1 530 0 is_stmt 0 discriminator 1
 891 077e 807DF304 		cmpb	$4, -13(%ebp)
 892 0782 0F8679FF 		jbe	L67
 892      FFFF
 546:E:/NeuOrga/Programmieren/c_cpp/github_os/input/src/os_base\os_task_scheduler.c ****          }
 547:E:/NeuOrga/Programmieren/c_cpp/github_os/input/src/os_base\os_task_scheduler.c **** 
 548:E:/NeuOrga/Programmieren/c_cpp/github_os/input/src/os_base\os_task_scheduler.c ****       }
 549:E:/NeuOrga/Programmieren/c_cpp/github_os/input/src/os_base\os_task_scheduler.c ****       /* do not set bug, because task =0 is used for empty queue elements
 550:E:/NeuOrga/Programmieren/c_cpp/github_os/input/src/os_base\os_task_scheduler.c ****       else
 551:E:/NeuOrga/Programmieren/c_cpp/github_os/input/src/os_base\os_task_scheduler.c ****       {
 552:E:/NeuOrga/Programmieren/c_cpp/github_os/input/src/os_base\os_task_scheduler.c ****           OS_SET_SW_BUG(os_bug_null_pointer, Func_TaskScheduler);
 553:E:/NeuOrga/Programmieren/c_cpp/github_os/input/src/os_base\os_task_scheduler.c ****       }
 554:E:/NeuOrga/Programmieren/c_cpp/github_os/input/src/os_base\os_task_scheduler.c ****       */
 555:E:/NeuOrga/Programmieren/c_cpp/github_os/input/src/os_base\os_task_scheduler.c ****    }
 556:E:/NeuOrga/Programmieren/c_cpp/github_os/input/src/os_base\os_task_scheduler.c ****    /* prevent deathlook by permanently winning same task */
 557:E:/NeuOrga/Programmieren/c_cpp/github_os/input/src/os_base\os_task_scheduler.c ****    if(Winner_task != 0)
 893              		.loc 1 557 0 is_stmt 1
 894 0788 837DF400 		cmpl	$0, -12(%ebp)
 895 078c 7409     		je	L68
 558:E:/NeuOrga/Programmieren/c_cpp/github_os/input/src/os_base\os_task_scheduler.c ****    {
 559:E:/NeuOrga/Programmieren/c_cpp/github_os/input/src/os_base\os_task_scheduler.c ****       Winner_task->current_prio = 0;
 896              		.loc 1 559 0
 897 078e 8B45F4   		movl	-12(%ebp), %eax
 898 0791 C6402000 		movb	$0, 32(%eax)
 899 0795 EB08     		jmp	L69
 900              	L68:
 560:E:/NeuOrga/Programmieren/c_cpp/github_os/input/src/os_base\os_task_scheduler.c ****    }
 561:E:/NeuOrga/Programmieren/c_cpp/github_os/input/src/os_base\os_task_scheduler.c ****    else
 562:E:/NeuOrga/Programmieren/c_cpp/github_os/input/src/os_base\os_task_scheduler.c ****    {
 563:E:/NeuOrga/Programmieren/c_cpp/github_os/input/src/os_base\os_task_scheduler.c ****       Winner_task = GetIdleTask();
GAS LISTING C:\Users\PRESID~1\AppData\Local\Temp\ccR9pTsK.s 			page 30


 901              		.loc 1 563 0
 902 0797 E8000000 		call	_GetIdleTask
 902      00
 903 079c 8945F4   		movl	%eax, -12(%ebp)
 904              	L69:
 564:E:/NeuOrga/Programmieren/c_cpp/github_os/input/src/os_base\os_task_scheduler.c ****    }
 565:E:/NeuOrga/Programmieren/c_cpp/github_os/input/src/os_base\os_task_scheduler.c ****    return Winner_task;
 905              		.loc 1 565 0
 906 079f 8B45F4   		movl	-12(%ebp), %eax
 566:E:/NeuOrga/Programmieren/c_cpp/github_os/input/src/os_base\os_task_scheduler.c **** }
 907              		.loc 1 566 0
 908 07a2 83C434   		addl	$52, %esp
 909 07a5 5B       		popl	%ebx
 910              		.cfi_restore 3
 911 07a6 5D       		popl	%ebp
 912              		.cfi_restore 5
 913              		.cfi_def_cfa 4, 4
 914 07a7 C3       		ret
 915              		.cfi_endproc
 916              	LFE12:
 917              		.globl	_ISR_TASK_DISPATCH_C0
 919              	_ISR_TASK_DISPATCH_C0:
 920              	LFB13:
 567:E:/NeuOrga/Programmieren/c_cpp/github_os/input/src/os_base\os_task_scheduler.c **** 
 568:E:/NeuOrga/Programmieren/c_cpp/github_os/input/src/os_base\os_task_scheduler.c **** void ISR_TASK_DISPATCH_C0(void)
 569:E:/NeuOrga/Programmieren/c_cpp/github_os/input/src/os_base\os_task_scheduler.c **** {
 921              		.loc 1 569 0
 922              		.cfi_startproc
 923 07a8 55       		pushl	%ebp
 924              		.cfi_def_cfa_offset 8
 925              		.cfi_offset 5, -8
 926 07a9 89E5     		movl	%esp, %ebp
 927              		.cfi_def_cfa_register 5
 928 07ab 83EC18   		subl	$24, %esp
 570:E:/NeuOrga/Programmieren/c_cpp/github_os/input/src/os_base\os_task_scheduler.c ****    /* after time MinTimeSlice_us is elapsed, the OS_TASK_DISPATCHER will be called again, interrupt
 571:E:/NeuOrga/Programmieren/c_cpp/github_os/input/src/os_base\os_task_scheduler.c ****    LLF_ADD_2_TCMP(MinTimeSlice_us);
 929              		.loc 1 571 0
 930 07ae C70424E7 		movl	$999, (%esp)
 930      030000
 931 07b5 E8000000 		call	_LLF_ADD_2_TCMP
 931      00
 572:E:/NeuOrga/Programmieren/c_cpp/github_os/input/src/os_base\os_task_scheduler.c **** 
 573:E:/NeuOrga/Programmieren/c_cpp/github_os/input/src/os_base\os_task_scheduler.c ****    /*#warn "task scheduler should know which core it is running, to select the correct task to term
 574:E:/NeuOrga/Programmieren/c_cpp/github_os/input/src/os_base\os_task_scheduler.c ****    OS_TASK_DISPATCHER();
 932              		.loc 1 574 0
 933 07ba E82BFCFF 		call	_OS_TASK_DISPATCHER
 933      FF
 575:E:/NeuOrga/Programmieren/c_cpp/github_os/input/src/os_base\os_task_scheduler.c **** 
 576:E:/NeuOrga/Programmieren/c_cpp/github_os/input/src/os_base\os_task_scheduler.c **** }
 934              		.loc 1 576 0
 935 07bf C9       		leave
 936              		.cfi_restore 5
 937              		.cfi_def_cfa 4, 4
 938 07c0 C3       		ret
 939              		.cfi_endproc
 940              	LFE13:
 941              		.globl	_ISR_TASK_DISPATCH_C1
GAS LISTING C:\Users\PRESID~1\AppData\Local\Temp\ccR9pTsK.s 			page 31


 943              	_ISR_TASK_DISPATCH_C1:
 944              	LFB14:
 577:E:/NeuOrga/Programmieren/c_cpp/github_os/input/src/os_base\os_task_scheduler.c **** 
 578:E:/NeuOrga/Programmieren/c_cpp/github_os/input/src/os_base\os_task_scheduler.c **** void ISR_TASK_DISPATCH_C1(void)
 579:E:/NeuOrga/Programmieren/c_cpp/github_os/input/src/os_base\os_task_scheduler.c **** {
 945              		.loc 1 579 0
 946              		.cfi_startproc
 947 07c1 55       		pushl	%ebp
 948              		.cfi_def_cfa_offset 8
 949              		.cfi_offset 5, -8
 950 07c2 89E5     		movl	%esp, %ebp
 951              		.cfi_def_cfa_register 5
 952 07c4 83EC18   		subl	$24, %esp
 580:E:/NeuOrga/Programmieren/c_cpp/github_os/input/src/os_base\os_task_scheduler.c ****    /* after time MinTimeSlice_us is elapsed, the OS_TASK_DISPATCHER will be called again, interrupt
 581:E:/NeuOrga/Programmieren/c_cpp/github_os/input/src/os_base\os_task_scheduler.c ****    LLF_ADD_2_TCMP(MinTimeSlice_us);
 953              		.loc 1 581 0
 954 07c7 C70424E7 		movl	$999, (%esp)
 954      030000
 955 07ce E8000000 		call	_LLF_ADD_2_TCMP
 955      00
 582:E:/NeuOrga/Programmieren/c_cpp/github_os/input/src/os_base\os_task_scheduler.c **** 
 583:E:/NeuOrga/Programmieren/c_cpp/github_os/input/src/os_base\os_task_scheduler.c ****    /*#warn "task scheduler should know which core it is running, to select the correct task to term
 584:E:/NeuOrga/Programmieren/c_cpp/github_os/input/src/os_base\os_task_scheduler.c ****    OS_TASK_DISPATCHER();
 956              		.loc 1 584 0
 957 07d3 E812FCFF 		call	_OS_TASK_DISPATCHER
 957      FF
 585:E:/NeuOrga/Programmieren/c_cpp/github_os/input/src/os_base\os_task_scheduler.c **** 
 586:E:/NeuOrga/Programmieren/c_cpp/github_os/input/src/os_base\os_task_scheduler.c **** }
 958              		.loc 1 586 0
 959 07d8 C9       		leave
 960              		.cfi_restore 5
 961              		.cfi_def_cfa 4, 4
 962 07d9 C3       		ret
 963              		.cfi_endproc
 964              	LFE14:
 965              		.globl	_ISR_TASK_DISPATCH_C2
 967              	_ISR_TASK_DISPATCH_C2:
 968              	LFB15:
 587:E:/NeuOrga/Programmieren/c_cpp/github_os/input/src/os_base\os_task_scheduler.c **** 
 588:E:/NeuOrga/Programmieren/c_cpp/github_os/input/src/os_base\os_task_scheduler.c **** void ISR_TASK_DISPATCH_C2(void)
 589:E:/NeuOrga/Programmieren/c_cpp/github_os/input/src/os_base\os_task_scheduler.c **** {
 969              		.loc 1 589 0
 970              		.cfi_startproc
 971 07da 55       		pushl	%ebp
 972              		.cfi_def_cfa_offset 8
 973              		.cfi_offset 5, -8
 974 07db 89E5     		movl	%esp, %ebp
 975              		.cfi_def_cfa_register 5
 976 07dd 83EC18   		subl	$24, %esp
 590:E:/NeuOrga/Programmieren/c_cpp/github_os/input/src/os_base\os_task_scheduler.c ****    /* after time MinTimeSlice_us is elapsed, the OS_TASK_DISPATCHER will be called again, interrupt
 591:E:/NeuOrga/Programmieren/c_cpp/github_os/input/src/os_base\os_task_scheduler.c ****    LLF_ADD_2_TCMP(MinTimeSlice_us);
 977              		.loc 1 591 0
 978 07e0 C70424E7 		movl	$999, (%esp)
 978      030000
 979 07e7 E8000000 		call	_LLF_ADD_2_TCMP
 979      00
 592:E:/NeuOrga/Programmieren/c_cpp/github_os/input/src/os_base\os_task_scheduler.c **** 
GAS LISTING C:\Users\PRESID~1\AppData\Local\Temp\ccR9pTsK.s 			page 32


 593:E:/NeuOrga/Programmieren/c_cpp/github_os/input/src/os_base\os_task_scheduler.c ****    /*#warn "task scheduler should know which core it is running, to select the correct task to term
 594:E:/NeuOrga/Programmieren/c_cpp/github_os/input/src/os_base\os_task_scheduler.c ****    OS_TASK_DISPATCHER();
 980              		.loc 1 594 0
 981 07ec E8F9FBFF 		call	_OS_TASK_DISPATCHER
 981      FF
 595:E:/NeuOrga/Programmieren/c_cpp/github_os/input/src/os_base\os_task_scheduler.c **** 
 596:E:/NeuOrga/Programmieren/c_cpp/github_os/input/src/os_base\os_task_scheduler.c **** }
 982              		.loc 1 596 0
 983 07f1 C9       		leave
 984              		.cfi_restore 5
 985              		.cfi_def_cfa 4, 4
 986 07f2 C3       		ret
 987              		.cfi_endproc
 988              	LFE15:
 989              		.globl	_ISR_TASK_DISPATCH_C3
 991              	_ISR_TASK_DISPATCH_C3:
 992              	LFB16:
 597:E:/NeuOrga/Programmieren/c_cpp/github_os/input/src/os_base\os_task_scheduler.c **** void ISR_TASK_DISPATCH_C3(void)
 598:E:/NeuOrga/Programmieren/c_cpp/github_os/input/src/os_base\os_task_scheduler.c **** {
 993              		.loc 1 598 0
 994              		.cfi_startproc
 995 07f3 55       		pushl	%ebp
 996              		.cfi_def_cfa_offset 8
 997              		.cfi_offset 5, -8
 998 07f4 89E5     		movl	%esp, %ebp
 999              		.cfi_def_cfa_register 5
 1000 07f6 83EC18   		subl	$24, %esp
 599:E:/NeuOrga/Programmieren/c_cpp/github_os/input/src/os_base\os_task_scheduler.c ****    /* after time MinTimeSlice_us is elapsed, the OS_TASK_DISPATCHER will be called again, interrupt
 600:E:/NeuOrga/Programmieren/c_cpp/github_os/input/src/os_base\os_task_scheduler.c ****    LLF_ADD_2_TCMP(MinTimeSlice_us);
 1001              		.loc 1 600 0
 1002 07f9 C70424E7 		movl	$999, (%esp)
 1002      030000
 1003 0800 E8000000 		call	_LLF_ADD_2_TCMP
 1003      00
 601:E:/NeuOrga/Programmieren/c_cpp/github_os/input/src/os_base\os_task_scheduler.c **** 
 602:E:/NeuOrga/Programmieren/c_cpp/github_os/input/src/os_base\os_task_scheduler.c ****    /*#warn "task scheduler should know which core it is running, to select the correct task to term
 603:E:/NeuOrga/Programmieren/c_cpp/github_os/input/src/os_base\os_task_scheduler.c ****    OS_TASK_DISPATCHER();
 1004              		.loc 1 603 0
 1005 0805 E8E0FBFF 		call	_OS_TASK_DISPATCHER
 1005      FF
 604:E:/NeuOrga/Programmieren/c_cpp/github_os/input/src/os_base\os_task_scheduler.c **** 
 605:E:/NeuOrga/Programmieren/c_cpp/github_os/input/src/os_base\os_task_scheduler.c **** }
 1006              		.loc 1 605 0
 1007 080a C9       		leave
 1008              		.cfi_restore 5
 1009              		.cfi_def_cfa 4, 4
 1010 080b C3       		ret
 1011              		.cfi_endproc
 1012              	LFE16:
 1013              	.lcomm _TASK_GROUP_1.1365,8,4
 1014              	.lcomm _TASK_GROUP_2.1366,8,4
 1015              	.lcomm _TASK_GROUP_3.1367,8,4
 1016              	.lcomm _TASK_GROUP_4.1368,8,4
 1017              	.lcomm _TASK_GROUP_5.1369,8,4
 1018              	.lcomm _task_0.1361,96,32
 1019              	.lcomm _task_1.1362,96,32
 1020              	.lcomm _task_2.1363,96,32
GAS LISTING C:\Users\PRESID~1\AppData\Local\Temp\ccR9pTsK.s 			page 33


 1021              	.lcomm _task_3.1364,96,32
 1022              	.lcomm _link_list_member.1377,4,4
 1023              	.lcomm _task.1374,4,4
 1024              	.lcomm _Winner_prio.1375,1,1
 1025              	Letext0:
 1026              		.file 2 "E:/NeuOrga/Programmieren/c_cpp/github_os/input/src/os_base/../os_base/os_base_types.h"
 1027              		.file 3 "E:/NeuOrga/Programmieren/c_cpp/github_os/input/src/os_base/../os_base/os_common.h"
 1028              		.file 4 "E:/NeuOrga/Programmieren/c_cpp/github_os/input/src/os_base/../os_sim/../os_base/os_task_c
 1029              		.file 5 "E:/NeuOrga/Programmieren/c_cpp/github_os/input/src/os_base/os_task_scheduler.h"
 1030              		.file 6 "E:/NeuOrga/Programmieren/c_cpp/github_os/input/src/os_base/os_task_queue.h"
 1031              		.file 7 "E:/NeuOrga/Programmieren/c_cpp/github_os/input/src/os_base/../os_base/os_ram.h"
 1032              		.section	.debug_info,"dr"
 1033              	Ldebug_info0:
 1034 0000 4F0C0000 		.long	0xc4f
 1035 0004 0400     		.word	0x4
 1036 0006 00000000 		.secrel32	Ldebug_abbrev0
 1037 000a 04       		.byte	0x4
 1038 000b 01       		.uleb128 0x1
 1039 000c 474E5520 		.ascii "GNU C 4.9.3 -march=i386 -g3 -O0 -std=c90\0"
 1039      4320342E 
 1039      392E3320 
 1039      2D6D6172 
 1039      63683D69 
 1040 0035 01       		.byte	0x1
 1041 0036 453A5C4E 		.ascii "E:\\NeuOrga\\Programmieren\\c_cpp\\github_os\\input\\src\\os_base\\os_task_scheduler.c\0"
 1041      65754F72 
 1041      67615C50 
 1041      726F6772 
 1041      616D6D69 
 1042 0085 00000000 		.long	Ltext0
 1043 0089 0C080000 		.long	Letext0-Ltext0
 1044 008d 00000000 		.secrel32	Ldebug_line0
 1045 0091 00000000 		.secrel32	Ldebug_macro0
 1046 0095 02       		.uleb128 0x2
 1047 0096 756E7369 		.ascii "unsigned_char_t\0"
 1047      676E6564 
 1047      5F636861 
 1047      725F7400 
 1048 00a6 02       		.byte	0x2
 1049 00a7 1D       		.byte	0x1d
 1050 00a8 AC000000 		.long	0xac
 1051 00ac 03       		.uleb128 0x3
 1052 00ad 01       		.byte	0x1
 1053 00ae 08       		.byte	0x8
 1054 00af 756E7369 		.ascii "unsigned char\0"
 1054      676E6564 
 1054      20636861 
 1054      7200
 1055 00bd 03       		.uleb128 0x3
 1056 00be 02       		.byte	0x2
 1057 00bf 07       		.byte	0x7
 1058 00c0 73686F72 		.ascii "short unsigned int\0"
 1058      7420756E 
 1058      7369676E 
 1058      65642069 
 1058      6E7400
 1059 00d3 02       		.uleb128 0x2
GAS LISTING C:\Users\PRESID~1\AppData\Local\Temp\ccR9pTsK.s 			page 34


 1060 00d4 756E7369 		.ascii "unsigned_int32_t\0"
 1060      676E6564 
 1060      5F696E74 
 1060      33325F74 
 1060      00
 1061 00e5 02       		.byte	0x2
 1062 00e6 22       		.byte	0x22
 1063 00e7 EB000000 		.long	0xeb
 1064 00eb 03       		.uleb128 0x3
 1065 00ec 04       		.byte	0x4
 1066 00ed 07       		.byte	0x7
 1067 00ee 6C6F6E67 		.ascii "long unsigned int\0"
 1067      20756E73 
 1067      69676E65 
 1067      6420696E 
 1067      7400
 1068 0100 04       		.uleb128 0x4
 1069 0101 6F735F73 		.ascii "os_sw_bugs_e\0"
 1069      775F6275 
 1069      67735F65 
 1069      00
 1070 010e 04       		.byte	0x4
 1071 010f 03       		.byte	0x3
 1072 0110 35       		.byte	0x35
 1073 0111 FE010000 		.long	0x1fe
 1074 0115 05       		.uleb128 0x5
 1075 0116 6F735F62 		.ascii "os_bug_no_bug\0"
 1075      75675F6E 
 1075      6F5F6275 
 1075      6700
 1076 0124 00       		.sleb128 0
 1077 0125 05       		.uleb128 0x5
 1078 0126 6F735F62 		.ascii "os_bug_taskstate_request_denied\0"
 1078      75675F74 
 1078      61736B73 
 1078      74617465 
 1078      5F726571 
 1079 0146 01       		.sleb128 1
 1080 0147 05       		.uleb128 0x5
 1081 0148 6F735F62 		.ascii "os_bug_null_pointer\0"
 1081      75675F6E 
 1081      756C6C5F 
 1081      706F696E 
 1081      74657200 
 1082 015c 02       		.sleb128 2
 1083 015d 05       		.uleb128 0x5
 1084 015e 6F735F62 		.ascii "os_bug_task_max_wait_time_reached\0"
 1084      75675F74 
 1084      61736B5F 
 1084      6D61785F 
 1084      77616974 
 1085 0180 03       		.sleb128 3
 1086 0181 05       		.uleb128 0x5
 1087 0182 6F735F62 		.ascii "os_bug_Task_unspecified\0"
 1087      75675F54 
 1087      61736B5F 
 1087      756E7370 
GAS LISTING C:\Users\PRESID~1\AppData\Local\Temp\ccR9pTsK.s 			page 35


 1087      65636966 
 1088 019a 04       		.sleb128 4
 1089 019b 05       		.uleb128 0x5
 1090 019c 6F735F62 		.ascii "os_bug_exception_UndefInstruction\0"
 1090      75675F65 
 1090      78636570 
 1090      74696F6E 
 1090      5F556E64 
 1091 01be 05       		.sleb128 5
 1092 01bf 05       		.uleb128 0x5
 1093 01c0 6F735F62 		.ascii "os_bug_exception_AbortPrefetch\0"
 1093      75675F65 
 1093      78636570 
 1093      74696F6E 
 1093      5F41626F 
 1094 01df 06       		.sleb128 6
 1095 01e0 05       		.uleb128 0x5
 1096 01e1 6F735F62 		.ascii "os_bug_exception_AbortData\0"
 1096      75675F65 
 1096      78636570 
 1096      74696F6E 
 1096      5F41626F 
 1097 01fc 07       		.sleb128 7
 1098 01fd 00       		.byte	0
 1099 01fe 04       		.uleb128 0x4
 1100 01ff 6F735F73 		.ascii "os_sw_bugs_function_e\0"
 1100      775F6275 
 1100      67735F66 
 1100      756E6374 
 1100      696F6E5F 
 1101 0215 04       		.byte	0x4
 1102 0216 03       		.byte	0x3
 1103 0217 41       		.byte	0x41
 1104 0218 40030000 		.long	0x340
 1105 021c 05       		.uleb128 0x5
 1106 021d 46756E63 		.ascii "Func_NoFunction\0"
 1106      5F4E6F46 
 1106      756E6374 
 1106      696F6E00 
 1107 022d 00       		.sleb128 0
 1108 022e 05       		.uleb128 0x5
 1109 022f 46756E63 		.ascii "Func_SaveTaskEnvironment\0"
 1109      5F536176 
 1109      65546173 
 1109      6B456E76 
 1109      69726F6E 
 1110 0248 01       		.sleb128 1
 1111 0249 05       		.uleb128 0x5
 1112 024a 46756E63 		.ascii "Func_RestoreTaskEnvironment\0"
 1112      5F526573 
 1112      746F7265 
 1112      5461736B 
 1112      456E7669 
 1113 0266 02       		.sleb128 2
 1114 0267 05       		.uleb128 0x5
 1115 0268 46756E63 		.ascii "Func_CreateTaskEnvironment\0"
 1115      5F437265 
GAS LISTING C:\Users\PRESID~1\AppData\Local\Temp\ccR9pTsK.s 			page 36


 1115      61746554 
 1115      61736B45 
 1115      6E766972 
 1116 0283 03       		.sleb128 3
 1117 0284 05       		.uleb128 0x5
 1118 0285 46756E63 		.ascii "Func_DeleteTaskEnvironment\0"
 1118      5F44656C 
 1118      65746554 
 1118      61736B45 
 1118      6E766972 
 1119 02a0 04       		.sleb128 4
 1120 02a1 05       		.uleb128 0x5
 1121 02a2 46756E63 		.ascii "Func_StartTask\0"
 1121      5F537461 
 1121      72745461 
 1121      736B00
 1122 02b1 05       		.sleb128 5
 1123 02b2 05       		.uleb128 0x5
 1124 02b3 46756E63 		.ascii "Func_PreemptTask\0"
 1124      5F507265 
 1124      656D7074 
 1124      5461736B 
 1124      00
 1125 02c4 06       		.sleb128 6
 1126 02c5 05       		.uleb128 0x5
 1127 02c6 46756E63 		.ascii "Func_TerminateTask\0"
 1127      5F546572 
 1127      6D696E61 
 1127      74655461 
 1127      736B00
 1128 02d9 07       		.sleb128 7
 1129 02da 05       		.uleb128 0x5
 1130 02db 46756E63 		.ascii "Func_TaskScheduler\0"
 1130      5F546173 
 1130      6B536368 
 1130      6564756C 
 1130      657200
 1131 02ee 08       		.sleb128 8
 1132 02ef 05       		.uleb128 0x5
 1133 02f0 46756E63 		.ascii "Func_InitTask\0"
 1133      5F496E69 
 1133      74546173 
 1133      6B00
 1134 02fe 09       		.sleb128 9
 1135 02ff 05       		.uleb128 0x5
 1136 0300 46756E63 		.ascii "Func_ActivateTask\0"
 1136      5F416374 
 1136      69766174 
 1136      65546173 
 1136      6B00
 1137 0312 0A       		.sleb128 10
 1138 0313 05       		.uleb128 0x5
 1139 0314 46756E63 		.ascii "Func_TaskStateRequest\0"
 1139      5F546173 
 1139      6B537461 
 1139      74655265 
 1139      71756573 
GAS LISTING C:\Users\PRESID~1\AppData\Local\Temp\ccR9pTsK.s 			page 37


 1140 032a 0B       		.sleb128 11
 1141 032b 05       		.uleb128 0x5
 1142 032c 46756E63 		.ascii "Func_os_exception\0"
 1142      5F6F735F 
 1142      65786365 
 1142      7074696F 
 1142      6E00
 1143 033e 0C       		.sleb128 12
 1144 033f 00       		.byte	0
 1145 0340 04       		.uleb128 0x4
 1146 0341 7461736B 		.ascii "task_state_e\0"
 1146      5F737461 
 1146      74655F65 
 1146      00
 1147 034e 04       		.byte	0x4
 1148 034f 04       		.byte	0x4
 1149 0350 07       		.byte	0x7
 1150 0351 96030000 		.long	0x396
 1151 0355 05       		.uleb128 0x5
 1152 0356 5461736B 		.ascii "Task_unspecified\0"
 1152      5F756E73 
 1152      70656369 
 1152      66696564 
 1152      00
 1153 0367 00       		.sleb128 0
 1154 0368 05       		.uleb128 0x5
 1155 0369 5461736B 		.ascii "Task_suspended\0"
 1155      5F737573 
 1155      70656E64 
 1155      656400
 1156 0378 01       		.sleb128 1
 1157 0379 05       		.uleb128 0x5
 1158 037a 5461736B 		.ascii "Task_ready\0"
 1158      5F726561 
 1158      647900
 1159 0385 02       		.sleb128 2
 1160 0386 05       		.uleb128 0x5
 1161 0387 5461736B 		.ascii "Task_running\0"
 1161      5F72756E 
 1161      6E696E67 
 1161      00
 1162 0394 03       		.sleb128 3
 1163 0395 00       		.byte	0
 1164 0396 02       		.uleb128 0x2
 1165 0397 7461736B 		.ascii "task_state_t\0"
 1165      5F737461 
 1165      74655F74 
 1165      00
 1166 03a4 04       		.byte	0x4
 1167 03a5 0E       		.byte	0xe
 1168 03a6 40030000 		.long	0x340
 1169 03aa 02       		.uleb128 0x2
 1170 03ab 66756E63 		.ascii "func_p_t\0"
 1170      5F705F74 
 1170      00
 1171 03b4 04       		.byte	0x4
 1172 03b5 13       		.byte	0x13
GAS LISTING C:\Users\PRESID~1\AppData\Local\Temp\ccR9pTsK.s 			page 38


 1173 03b6 BA030000 		.long	0x3ba
 1174 03ba 06       		.uleb128 0x6
 1175 03bb 04       		.byte	0x4
 1176 03bc C0030000 		.long	0x3c0
 1177 03c0 07       		.uleb128 0x7
 1178 03c1 CB030000 		.long	0x3cb
 1179 03c5 08       		.uleb128 0x8
 1180 03c6 CB030000 		.long	0x3cb
 1181 03ca 00       		.byte	0
 1182 03cb 09       		.uleb128 0x9
 1183 03cc 04       		.byte	0x4
 1184 03cd 02       		.uleb128 0x2
 1185 03ce 66756E63 		.ascii "func_p_state_change_t\0"
 1185      5F705F73 
 1185      74617465 
 1185      5F636861 
 1185      6E67655F 
 1186 03e4 04       		.byte	0x4
 1187 03e5 15       		.byte	0x15
 1188 03e6 EA030000 		.long	0x3ea
 1189 03ea 06       		.uleb128 0x6
 1190 03eb 04       		.byte	0x4
 1191 03ec F0030000 		.long	0x3f0
 1192 03f0 0A       		.uleb128 0xa
 1193 03f1 95000000 		.long	0x95
 1194 03f5 04040000 		.long	0x404
 1195 03f9 08       		.uleb128 0x8
 1196 03fa CB030000 		.long	0x3cb
 1197 03fe 08       		.uleb128 0x8
 1198 03ff 96030000 		.long	0x396
 1199 0403 00       		.byte	0
 1200 0404 0B       		.uleb128 0xb
 1201 0405 7461736B 		.ascii "task_group_s\0"
 1201      5F67726F 
 1201      75705F73 
 1201      00
 1202 0412 08       		.byte	0x8
 1203 0413 04       		.byte	0x4
 1204 0414 16       		.byte	0x16
 1205 0415 3C040000 		.long	0x43c
 1206 0419 0C       		.uleb128 0xc
 1207 041a 0E000000 		.secrel32	LASF0
 1208 041e 04       		.byte	0x4
 1209 041f 18       		.byte	0x18
 1210 0420 D3000000 		.long	0xd3
 1211 0424 00       		.byte	0
 1212 0425 0D       		.uleb128 0xd
 1213 0426 66616972 		.ascii "fair_exe_time\0"
 1213      5F657865 
 1213      5F74696D 
 1213      6500
 1214 0434 04       		.byte	0x4
 1215 0435 19       		.byte	0x19
 1216 0436 D3000000 		.long	0xd3
 1217 043a 04       		.byte	0x4
 1218 043b 00       		.byte	0
 1219 043c 02       		.uleb128 0x2
GAS LISTING C:\Users\PRESID~1\AppData\Local\Temp\ccR9pTsK.s 			page 39


 1220 043d 7461736B 		.ascii "task_group_t\0"
 1220      5F67726F 
 1220      75705F74 
 1220      00
 1221 044a 04       		.byte	0x4
 1222 044b 1B       		.byte	0x1b
 1223 044c 04040000 		.long	0x404
 1224 0450 0B       		.uleb128 0xb
 1225 0451 7461736B 		.ascii "task_s\0"
 1225      5F7300
 1226 0458 60       		.byte	0x60
 1227 0459 04       		.byte	0x4
 1228 045a 1D       		.byte	0x1d
 1229 045b B3060000 		.long	0x6b3
 1230 045f 0E       		.uleb128 0xe
 1231 0460 61637469 		.ascii "active\0"
 1231      766500
 1232 0467 04       		.byte	0x4
 1233 0468 1F       		.byte	0x1f
 1234 0469 B3060000 		.long	0x6b3
 1235 046d 04       		.byte	0x4
 1236 046e 01       		.byte	0x1
 1237 046f 1F       		.byte	0x1f
 1238 0470 00       		.byte	0
 1239 0471 0E       		.uleb128 0xe
 1240 0472 7461736B 		.ascii "task_queued\0"
 1240      5F717565 
 1240      75656400 
 1241 047e 04       		.byte	0x4
 1242 047f 20       		.byte	0x20
 1243 0480 B3060000 		.long	0x6b3
 1244 0484 04       		.byte	0x4
 1245 0485 01       		.byte	0x1
 1246 0486 1E       		.byte	0x1e
 1247 0487 00       		.byte	0
 1248 0488 0E       		.uleb128 0xe
 1249 0489 49646C65 		.ascii "IdleTask\0"
 1249      5461736B 
 1249      00
 1250 0492 04       		.byte	0x4
 1251 0493 21       		.byte	0x21
 1252 0494 B3060000 		.long	0x6b3
 1253 0498 04       		.byte	0x4
 1254 0499 01       		.byte	0x1
 1255 049a 1D       		.byte	0x1d
 1256 049b 00       		.byte	0
 1257 049c 0E       		.uleb128 0xe
 1258 049d 46524545 		.ascii "FREE\0"
 1258      00
 1259 04a2 04       		.byte	0x4
 1260 04a3 22       		.byte	0x22
 1261 04a4 B3060000 		.long	0x6b3
 1262 04a8 04       		.byte	0x4
 1263 04a9 1D       		.byte	0x1d
 1264 04aa 00       		.byte	0
 1265 04ab 00       		.byte	0
 1266 04ac 0D       		.uleb128 0xd
GAS LISTING C:\Users\PRESID~1\AppData\Local\Temp\ccR9pTsK.s 			page 40


 1267 04ad 4E724F66 		.ascii "NrOfInsAllowed\0"
 1267      496E7341 
 1267      6C6C6F77 
 1267      656400
 1268 04bc 04       		.byte	0x4
 1269 04bd 23       		.byte	0x23
 1270 04be 95000000 		.long	0x95
 1271 04c2 04       		.byte	0x4
 1272 04c3 0D       		.uleb128 0xd
 1273 04c4 4E724F66 		.ascii "NrOfInsActivated\0"
 1273      496E7341 
 1273      63746976 
 1273      61746564 
 1273      00
 1274 04d5 04       		.byte	0x4
 1275 04d6 24       		.byte	0x24
 1276 04d7 95000000 		.long	0x95
 1277 04db 05       		.byte	0x5
 1278 04dc 0D       		.uleb128 0xd
 1279 04dd 57616974 		.ascii "WaitActUntil\0"
 1279      41637455 
 1279      6E74696C 
 1279      00
 1280 04ea 04       		.byte	0x4
 1281 04eb 25       		.byte	0x25
 1282 04ec D3000000 		.long	0xd3
 1283 04f0 08       		.byte	0x8
 1284 04f1 0D       		.uleb128 0xd
 1285 04f2 77616974 		.ascii "wait_time\0"
 1285      5F74696D 
 1285      6500
 1286 04fc 04       		.byte	0x4
 1287 04fd 26       		.byte	0x26
 1288 04fe D3000000 		.long	0xd3
 1289 0502 0C       		.byte	0xc
 1290 0503 0D       		.uleb128 0xd
 1291 0504 54696D65 		.ascii "TimeToPrioInc\0"
 1291      546F5072 
 1291      696F496E 
 1291      6300
 1292 0512 04       		.byte	0x4
 1293 0513 27       		.byte	0x27
 1294 0514 D3000000 		.long	0xd3
 1295 0518 10       		.byte	0x10
 1296 0519 0D       		.uleb128 0xd
 1297 051a 6F766572 		.ascii "overwaittime_per_prio_inc_step\0"
 1297      77616974 
 1297      74696D65 
 1297      5F706572 
 1297      5F707269 
 1298 0539 04       		.byte	0x4
 1299 053a 28       		.byte	0x28
 1300 053b D3000000 		.long	0xd3
 1301 053f 14       		.byte	0x14
 1302 0540 0D       		.uleb128 0xd
 1303 0541 6D61785F 		.ascii "max_allowed_wait_time\0"
 1303      616C6C6F 
GAS LISTING C:\Users\PRESID~1\AppData\Local\Temp\ccR9pTsK.s 			page 41


 1303      7765645F 
 1303      77616974 
 1303      5F74696D 
 1304 0557 04       		.byte	0x4
 1305 0558 29       		.byte	0x29
 1306 0559 D3000000 		.long	0xd3
 1307 055d 18       		.byte	0x18
 1308 055e 0C       		.uleb128 0xc
 1309 055f 0E000000 		.secrel32	LASF0
 1310 0563 04       		.byte	0x4
 1311 0564 2A       		.byte	0x2a
 1312 0565 D3000000 		.long	0xd3
 1313 0569 1C       		.byte	0x1c
 1314 056a 0D       		.uleb128 0xd
 1315 056b 63757272 		.ascii "current_prio\0"
 1315      656E745F 
 1315      7072696F 
 1315      00
 1316 0578 04       		.byte	0x4
 1317 0579 2B       		.byte	0x2b
 1318 057a 95000000 		.long	0x95
 1319 057e 20       		.byte	0x20
 1320 057f 0D       		.uleb128 0xd
 1321 0580 64656661 		.ascii "default_prio\0"
 1321      756C745F 
 1321      7072696F 
 1321      00
 1322 058d 04       		.byte	0x4
 1323 058e 2C       		.byte	0x2c
 1324 058f 95000000 		.long	0x95
 1325 0593 21       		.byte	0x21
 1326 0594 0D       		.uleb128 0xd
 1327 0595 7461736B 		.ascii "task_number\0"
 1327      5F6E756D 
 1327      62657200 
 1328 05a1 04       		.byte	0x4
 1329 05a2 2D       		.byte	0x2d
 1330 05a3 D3000000 		.long	0xd3
 1331 05a7 24       		.byte	0x24
 1332 05a8 0D       		.uleb128 0xd
 1333 05a9 667000   		.ascii "fp\0"
 1334 05ac 04       		.byte	0x4
 1335 05ad 2E       		.byte	0x2e
 1336 05ae AA030000 		.long	0x3aa
 1337 05b2 28       		.byte	0x28
 1338 05b3 0D       		.uleb128 0xd
 1339 05b4 73746174 		.ascii "state_request\0"
 1339      655F7265 
 1339      71756573 
 1339      7400
 1340 05c2 04       		.byte	0x4
 1341 05c3 2F       		.byte	0x2f
 1342 05c4 CD030000 		.long	0x3cd
 1343 05c8 2C       		.byte	0x2c
 1344 05c9 0D       		.uleb128 0xd
 1345 05ca 7461736B 		.ascii "task_state\0"
 1345      5F737461 
GAS LISTING C:\Users\PRESID~1\AppData\Local\Temp\ccR9pTsK.s 			page 42


 1345      746500
 1346 05d5 04       		.byte	0x4
 1347 05d6 30       		.byte	0x30
 1348 05d7 96030000 		.long	0x396
 1349 05db 30       		.byte	0x30
 1350 05dc 0D       		.uleb128 0xd
 1351 05dd 7461736B 		.ascii "task_group\0"
 1351      5F67726F 
 1351      757000
 1352 05e8 04       		.byte	0x4
 1353 05e9 31       		.byte	0x31
 1354 05ea C3060000 		.long	0x6c3
 1355 05ee 34       		.byte	0x34
 1356 05ef 0D       		.uleb128 0xd
 1357 05f0 45415800 		.ascii "EAX\0"
 1358 05f4 04       		.byte	0x4
 1359 05f5 33       		.byte	0x33
 1360 05f6 D3000000 		.long	0xd3
 1361 05fa 38       		.byte	0x38
 1362 05fb 0D       		.uleb128 0xd
 1363 05fc 45425800 		.ascii "EBX\0"
 1364 0600 04       		.byte	0x4
 1365 0601 34       		.byte	0x34
 1366 0602 D3000000 		.long	0xd3
 1367 0606 3C       		.byte	0x3c
 1368 0607 0D       		.uleb128 0xd
 1369 0608 45435800 		.ascii "ECX\0"
 1370 060c 04       		.byte	0x4
 1371 060d 35       		.byte	0x35
 1372 060e D3000000 		.long	0xd3
 1373 0612 40       		.byte	0x40
 1374 0613 0D       		.uleb128 0xd
 1375 0614 45445800 		.ascii "EDX\0"
 1376 0618 04       		.byte	0x4
 1377 0619 36       		.byte	0x36
 1378 061a D3000000 		.long	0xd3
 1379 061e 44       		.byte	0x44
 1380 061f 0D       		.uleb128 0xd
 1381 0620 70537461 		.ascii "pStackPointer\0"
 1381      636B506F 
 1381      696E7465 
 1381      7200
 1382 062e 04       		.byte	0x4
 1383 062f 46       		.byte	0x46
 1384 0630 C9060000 		.long	0x6c9
 1385 0634 48       		.byte	0x48
 1386 0635 0D       		.uleb128 0xd
 1387 0636 70537461 		.ascii "pStackPointerByMalloc\0"
 1387      636B506F 
 1387      696E7465 
 1387      7242794D 
 1387      616C6C6F 
 1388 064c 04       		.byte	0x4
 1389 064d 47       		.byte	0x47
 1390 064e C9060000 		.long	0x6c9
 1391 0652 4C       		.byte	0x4c
 1392 0653 0D       		.uleb128 0xd
GAS LISTING C:\Users\PRESID~1\AppData\Local\Temp\ccR9pTsK.s 			page 43


 1393 0654 70537461 		.ascii "pStackPointerStart\0"
 1393      636B506F 
 1393      696E7465 
 1393      72537461 
 1393      727400
 1394 0667 04       		.byte	0x4
 1395 0668 48       		.byte	0x48
 1396 0669 C9060000 		.long	0x6c9
 1397 066d 50       		.byte	0x50
 1398 066e 0D       		.uleb128 0xd
 1399 066f 53746163 		.ascii "StackSize\0"
 1399      6B53697A 
 1399      6500
 1400 0679 04       		.byte	0x4
 1401 067a 49       		.byte	0x49
 1402 067b D3000000 		.long	0xd3
 1403 067f 54       		.byte	0x54
 1404 0680 0D       		.uleb128 0xd
 1405 0681 70537461 		.ascii "pStackPointerEnd\0"
 1405      636B506F 
 1405      696E7465 
 1405      72456E64 
 1405      00
 1406 0692 04       		.byte	0x4
 1407 0693 4A       		.byte	0x4a
 1408 0694 C9060000 		.long	0x6c9
 1409 0698 58       		.byte	0x58
 1410 0699 0D       		.uleb128 0xd
 1411 069a 7461736B 		.ascii "task_kernel_mode\0"
 1411      5F6B6572 
 1411      6E656C5F 
 1411      6D6F6465 
 1411      00
 1412 06ab 04       		.byte	0x4
 1413 06ac 4B       		.byte	0x4b
 1414 06ad 95000000 		.long	0x95
 1415 06b1 5C       		.byte	0x5c
 1416 06b2 00       		.byte	0
 1417 06b3 03       		.uleb128 0x3
 1418 06b4 04       		.byte	0x4
 1419 06b5 07       		.byte	0x7
 1420 06b6 756E7369 		.ascii "unsigned int\0"
 1420      676E6564 
 1420      20696E74 
 1420      00
 1421 06c3 06       		.uleb128 0x6
 1422 06c4 04       		.byte	0x4
 1423 06c5 3C040000 		.long	0x43c
 1424 06c9 06       		.uleb128 0x6
 1425 06ca 04       		.byte	0x4
 1426 06cb 95000000 		.long	0x95
 1427 06cf 02       		.uleb128 0x2
 1428 06d0 7461736B 		.ascii "task_t\0"
 1428      5F7400
 1429 06d7 04       		.byte	0x4
 1430 06d8 4D       		.byte	0x4d
 1431 06d9 50040000 		.long	0x450
GAS LISTING C:\Users\PRESID~1\AppData\Local\Temp\ccR9pTsK.s 			page 44


 1432 06dd 02       		.uleb128 0x2
 1433 06de 73636865 		.ascii "scheduler_time_t\0"
 1433      64756C65 
 1433      725F7469 
 1433      6D655F74 
 1433      00
 1434 06ef 04       		.byte	0x4
 1435 06f0 5A       		.byte	0x5a
 1436 06f1 B3060000 		.long	0x6b3
 1437 06f5 02       		.uleb128 0x2
 1438 06f6 7461736B 		.ascii "task_time_t\0"
 1438      5F74696D 
 1438      655F7400 
 1439 0702 05       		.byte	0x5
 1440 0703 0F       		.byte	0xf
 1441 0704 B3060000 		.long	0x6b3
 1442 0708 02       		.uleb128 0x2
 1443 0709 6C696E6B 		.ascii "link_list_t\0"
 1443      5F6C6973 
 1443      745F7400 
 1444 0715 06       		.byte	0x6
 1445 0716 0B       		.byte	0xb
 1446 0717 CB030000 		.long	0x3cb
 1447 071b 0F       		.uleb128 0xf
 1448 071c 4F535F41 		.ascii "OS_ACTIVATE_DISPATCHER\0"
 1448      43544956 
 1448      4154455F 
 1448      44495350 
 1448      41544348 
 1449 0733 01       		.byte	0x1
 1450 0734 1C       		.byte	0x1c
 1451 0735 00000000 		.long	LFB0
 1452 0739 05000000 		.long	LFE0-LFB0
 1453 073d 01       		.uleb128 0x1
 1454 073e 9C       		.byte	0x9c
 1455 073f 10       		.uleb128 0x10
 1456 0740 4F535F53 		.ascii "OS_SLEEPTASK\0"
 1456      4C454550 
 1456      5441534B 
 1456      00
 1457 074d 01       		.byte	0x1
 1458 074e 37       		.byte	0x37
 1459 074f 05000000 		.long	LFB1
 1460 0753 1A000000 		.long	LFE1-LFB1
 1461 0757 01       		.uleb128 0x1
 1462 0758 9C       		.byte	0x9c
 1463 0759 7F070000 		.long	0x77f
 1464 075d 11       		.uleb128 0x11
 1465 075e 00000000 		.secrel32	LASF1
 1466 0762 01       		.byte	0x1
 1467 0763 37       		.byte	0x37
 1468 0764 7F070000 		.long	0x77f
 1469 0768 02       		.uleb128 0x2
 1470 0769 91       		.byte	0x91
 1471 076a 00       		.sleb128 0
 1472 076b 12       		.uleb128 0x12
 1473 076c 6D696C6C 		.ascii "millisec\0"
GAS LISTING C:\Users\PRESID~1\AppData\Local\Temp\ccR9pTsK.s 			page 45


 1473      69736563 
 1473      00
 1474 0775 01       		.byte	0x1
 1475 0776 37       		.byte	0x37
 1476 0777 F5060000 		.long	0x6f5
 1477 077b 02       		.uleb128 0x2
 1478 077c 91       		.byte	0x91
 1479 077d 04       		.sleb128 4
 1480 077e 00       		.byte	0
 1481 077f 06       		.uleb128 0x6
 1482 0780 04       		.byte	0x4
 1483 0781 CF060000 		.long	0x6cf
 1484 0785 13       		.uleb128 0x13
 1485 0786 7461736B 		.ascii "task_state_request\0"
 1485      5F737461 
 1485      74655F72 
 1485      65717565 
 1485      737400
 1486 0799 01       		.byte	0x1
 1487 079a 3C       		.byte	0x3c
 1488 079b 95000000 		.long	0x95
 1489 079f 1F000000 		.long	LFB2
 1490 07a3 F7000000 		.long	LFE2-LFB2
 1491 07a7 01       		.uleb128 0x1
 1492 07a8 9C       		.byte	0x9c
 1493 07a9 01080000 		.long	0x801
 1494 07ad 12       		.uleb128 0x12
 1495 07ae 74656D70 		.ascii "temp_task\0"
 1495      5F746173 
 1495      6B00
 1496 07b8 01       		.byte	0x1
 1497 07b9 3C       		.byte	0x3c
 1498 07ba CB030000 		.long	0x3cb
 1499 07be 02       		.uleb128 0x2
 1500 07bf 91       		.byte	0x91
 1501 07c0 00       		.sleb128 0
 1502 07c1 12       		.uleb128 0x12
 1503 07c2 72657175 		.ascii "requested_state\0"
 1503      65737465 
 1503      645F7374 
 1503      61746500 
 1504 07d2 01       		.byte	0x1
 1505 07d3 3C       		.byte	0x3c
 1506 07d4 96030000 		.long	0x396
 1507 07d8 02       		.uleb128 0x2
 1508 07d9 91       		.byte	0x91
 1509 07da 04       		.sleb128 4
 1510 07db 14       		.uleb128 0x14
 1511 07dc 52657175 		.ascii "RequestState\0"
 1511      65737453 
 1511      74617465 
 1511      00
 1512 07e9 01       		.byte	0x1
 1513 07ea 3E       		.byte	0x3e
 1514 07eb 95000000 		.long	0x95
 1515 07ef 02       		.uleb128 0x2
 1516 07f0 91       		.byte	0x91
GAS LISTING C:\Users\PRESID~1\AppData\Local\Temp\ccR9pTsK.s 			page 46


 1517 07f1 6F       		.sleb128 -17
 1518 07f2 15       		.uleb128 0x15
 1519 07f3 00000000 		.secrel32	LASF1
 1520 07f7 01       		.byte	0x1
 1521 07f8 40       		.byte	0x40
 1522 07f9 7F070000 		.long	0x77f
 1523 07fd 02       		.uleb128 0x2
 1524 07fe 91       		.byte	0x91
 1525 07ff 68       		.sleb128 -24
 1526 0800 00       		.byte	0
 1527 0801 10       		.uleb128 0x10
 1528 0802 4F535F41 		.ascii "OS_ActivateTask\0"
 1528      63746976 
 1528      61746554 
 1528      61736B00 
 1529 0812 01       		.byte	0x1
 1530 0813 A7       		.byte	0xa7
 1531 0814 16010000 		.long	LFB3
 1532 0818 BE000000 		.long	LFE3-LFB3
 1533 081c 01       		.uleb128 0x1
 1534 081d 9C       		.byte	0x9c
 1535 081e 31080000 		.long	0x831
 1536 0822 11       		.uleb128 0x11
 1537 0823 00000000 		.secrel32	LASF1
 1538 0827 01       		.byte	0x1
 1539 0828 A7       		.byte	0xa7
 1540 0829 7F070000 		.long	0x77f
 1541 082d 02       		.uleb128 0x2
 1542 082e 91       		.byte	0x91
 1543 082f 00       		.sleb128 0
 1544 0830 00       		.byte	0
 1545 0831 16       		.uleb128 0x16
 1546 0832 4F535F53 		.ascii "OS_STARTTASK\0"
 1546      54415254 
 1546      5441534B 
 1546      00
 1547 083f 01       		.byte	0x1
 1548 0840 D5       		.byte	0xd5
 1549 0841 D4010000 		.long	LFB4
 1550 0845 5C010000 		.long	LFE4-LFB4
 1551 0849 01       		.uleb128 0x1
 1552 084a 9C       		.byte	0x9c
 1553 084b 73080000 		.long	0x873
 1554 084f 11       		.uleb128 0x11
 1555 0850 00000000 		.secrel32	LASF1
 1556 0854 01       		.byte	0x1
 1557 0855 D5       		.byte	0xd5
 1558 0856 7F070000 		.long	0x77f
 1559 085a 02       		.uleb128 0x2
 1560 085b 91       		.byte	0x91
 1561 085c 00       		.sleb128 0
 1562 085d 14       		.uleb128 0x14
 1563 085e 73746172 		.ascii "start_time\0"
 1563      745F7469 
 1563      6D6500
 1564 0869 01       		.byte	0x1
 1565 086a DE       		.byte	0xde
GAS LISTING C:\Users\PRESID~1\AppData\Local\Temp\ccR9pTsK.s 			page 47


 1566 086b DD060000 		.long	0x6dd
 1567 086f 02       		.uleb128 0x2
 1568 0870 91       		.byte	0x91
 1569 0871 6C       		.sleb128 -20
 1570 0872 00       		.byte	0
 1571 0873 17       		.uleb128 0x17
 1572 0874 4F535F54 		.ascii "OS_TERMINATE_TASK\0"
 1572      45524D49 
 1572      4E415445 
 1572      5F544153 
 1572      4B00
 1573 0886 01       		.byte	0x1
 1574 0887 1601     		.word	0x116
 1575 0889 30030000 		.long	LFB5
 1576 088d BA000000 		.long	LFE5-LFB5
 1577 0891 01       		.uleb128 0x1
 1578 0892 9C       		.byte	0x9c
 1579 0893 A7080000 		.long	0x8a7
 1580 0897 18       		.uleb128 0x18
 1581 0898 00000000 		.secrel32	LASF1
 1582 089c 01       		.byte	0x1
 1583 089d 1601     		.word	0x116
 1584 089f 7F070000 		.long	0x77f
 1585 08a3 02       		.uleb128 0x2
 1586 08a4 91       		.byte	0x91
 1587 08a5 00       		.sleb128 0
 1588 08a6 00       		.byte	0
 1589 08a7 17       		.uleb128 0x17
 1590 08a8 4F535F54 		.ascii "OS_TASK_DISPATCHER\0"
 1590      41534B5F 
 1590      44495350 
 1590      41544348 
 1590      455200
 1591 08bb 01       		.byte	0x1
 1592 08bc 3E01     		.word	0x13e
 1593 08be EA030000 		.long	LFB6
 1594 08c2 35000000 		.long	LFE6-LFB6
 1595 08c6 01       		.uleb128 0x1
 1596 08c7 9C       		.byte	0x9c
 1597 08c8 DC080000 		.long	0x8dc
 1598 08cc 19       		.uleb128 0x19
 1599 08cd 00000000 		.secrel32	LASF1
 1600 08d1 01       		.byte	0x1
 1601 08d2 4A01     		.word	0x14a
 1602 08d4 7F070000 		.long	0x77f
 1603 08d8 02       		.uleb128 0x2
 1604 08d9 91       		.byte	0x91
 1605 08da 6C       		.sleb128 -20
 1606 08db 00       		.byte	0
 1607 08dc 1A       		.uleb128 0x1a
 1608 08dd 5441534B 		.ascii "TASK_0\0"
 1608      5F3000
 1609 08e4 01       		.byte	0x1
 1610 08e5 5601     		.word	0x156
 1611 08e7 1F040000 		.long	LFB7
 1612 08eb 05000000 		.long	LFE7-LFB7
 1613 08ef 01       		.uleb128 0x1
GAS LISTING C:\Users\PRESID~1\AppData\Local\Temp\ccR9pTsK.s 			page 48


 1614 08f0 9C       		.byte	0x9c
 1615 08f1 05090000 		.long	0x905
 1616 08f5 18       		.uleb128 0x18
 1617 08f6 05000000 		.secrel32	LASF2
 1618 08fa 01       		.byte	0x1
 1619 08fb 5601     		.word	0x156
 1620 08fd CB030000 		.long	0x3cb
 1621 0901 02       		.uleb128 0x2
 1622 0902 91       		.byte	0x91
 1623 0903 00       		.sleb128 0
 1624 0904 00       		.byte	0
 1625 0905 17       		.uleb128 0x17
 1626 0906 5441534B 		.ascii "TASK_1\0"
 1626      5F3100
 1627 090d 01       		.byte	0x1
 1628 090e 5B01     		.word	0x15b
 1629 0910 24040000 		.long	LFB8
 1630 0914 1B000000 		.long	LFE8-LFB8
 1631 0918 01       		.uleb128 0x1
 1632 0919 9C       		.byte	0x9c
 1633 091a 2E090000 		.long	0x92e
 1634 091e 18       		.uleb128 0x18
 1635 091f 05000000 		.secrel32	LASF2
 1636 0923 01       		.byte	0x1
 1637 0924 5B01     		.word	0x15b
 1638 0926 CB030000 		.long	0x3cb
 1639 092a 02       		.uleb128 0x2
 1640 092b 91       		.byte	0x91
 1641 092c 00       		.sleb128 0
 1642 092d 00       		.byte	0
 1643 092e 1A       		.uleb128 0x1a
 1644 092f 5441534B 		.ascii "TASK_2\0"
 1644      5F3200
 1645 0936 01       		.byte	0x1
 1646 0937 6601     		.word	0x166
 1647 0939 3F040000 		.long	LFB9
 1648 093d 05000000 		.long	LFE9-LFB9
 1649 0941 01       		.uleb128 0x1
 1650 0942 9C       		.byte	0x9c
 1651 0943 57090000 		.long	0x957
 1652 0947 18       		.uleb128 0x18
 1653 0948 05000000 		.secrel32	LASF2
 1654 094c 01       		.byte	0x1
 1655 094d 6601     		.word	0x166
 1656 094f CB030000 		.long	0x3cb
 1657 0953 02       		.uleb128 0x2
 1658 0954 91       		.byte	0x91
 1659 0955 00       		.sleb128 0
 1660 0956 00       		.byte	0
 1661 0957 1A       		.uleb128 0x1a
 1662 0958 5441534B 		.ascii "TASK_3\0"
 1662      5F3300
 1663 095f 01       		.byte	0x1
 1664 0960 7001     		.word	0x170
 1665 0962 44040000 		.long	LFB10
 1666 0966 05000000 		.long	LFE10-LFB10
 1667 096a 01       		.uleb128 0x1
GAS LISTING C:\Users\PRESID~1\AppData\Local\Temp\ccR9pTsK.s 			page 49


 1668 096b 9C       		.byte	0x9c
 1669 096c 80090000 		.long	0x980
 1670 0970 18       		.uleb128 0x18
 1671 0971 05000000 		.secrel32	LASF2
 1672 0975 01       		.byte	0x1
 1673 0976 7001     		.word	0x170
 1674 0978 CB030000 		.long	0x3cb
 1675 097c 02       		.uleb128 0x2
 1676 097d 91       		.byte	0x91
 1677 097e 00       		.sleb128 0
 1678 097f 00       		.byte	0
 1679 0980 1B       		.uleb128 0x1b
 1680 0981 4F535F49 		.ascii "OS_INIT_TASKS\0"
 1680      4E49545F 
 1680      5441534B 
 1680      5300
 1681 098f 01       		.byte	0x1
 1682 0990 7A01     		.word	0x17a
 1683 0992 49040000 		.long	LFB11
 1684 0996 51010000 		.long	LFE11-LFB11
 1685 099a 01       		.uleb128 0x1
 1686 099b 9C       		.byte	0x9c
 1687 099c 8B0A0000 		.long	0xa8b
 1688 09a0 1C       		.uleb128 0x1c
 1689 09a1 7461736B 		.ascii "task_0\0"
 1689      5F3000
 1690 09a8 01       		.byte	0x1
 1691 09a9 7C01     		.word	0x17c
 1692 09ab CF060000 		.long	0x6cf
 1693 09af 05       		.uleb128 0x5
 1694 09b0 03       		.byte	0x3
 1695 09b1 20040000 		.long	_task_0.1361
 1696 09b5 1C       		.uleb128 0x1c
 1697 09b6 7461736B 		.ascii "task_1\0"
 1697      5F3100
 1698 09bd 01       		.byte	0x1
 1699 09be 7C01     		.word	0x17c
 1700 09c0 CF060000 		.long	0x6cf
 1701 09c4 05       		.uleb128 0x5
 1702 09c5 03       		.byte	0x3
 1703 09c6 80040000 		.long	_task_1.1362
 1704 09ca 1C       		.uleb128 0x1c
 1705 09cb 7461736B 		.ascii "task_2\0"
 1705      5F3200
 1706 09d2 01       		.byte	0x1
 1707 09d3 7C01     		.word	0x17c
 1708 09d5 CF060000 		.long	0x6cf
 1709 09d9 05       		.uleb128 0x5
 1710 09da 03       		.byte	0x3
 1711 09db E0040000 		.long	_task_2.1363
 1712 09df 1C       		.uleb128 0x1c
 1713 09e0 7461736B 		.ascii "task_3\0"
 1713      5F3300
 1714 09e7 01       		.byte	0x1
 1715 09e8 7C01     		.word	0x17c
 1716 09ea CF060000 		.long	0x6cf
 1717 09ee 05       		.uleb128 0x5
GAS LISTING C:\Users\PRESID~1\AppData\Local\Temp\ccR9pTsK.s 			page 50


 1718 09ef 03       		.byte	0x3
 1719 09f0 40050000 		.long	_task_3.1364
 1720 09f4 1C       		.uleb128 0x1c
 1721 09f5 5441534B 		.ascii "TASK_GROUP_1\0"
 1721      5F47524F 
 1721      55505F31 
 1721      00
 1722 0a02 01       		.byte	0x1
 1723 0a03 7D01     		.word	0x17d
 1724 0a05 3C040000 		.long	0x43c
 1725 0a09 05       		.uleb128 0x5
 1726 0a0a 03       		.byte	0x3
 1727 0a0b EC030000 		.long	_TASK_GROUP_1.1365
 1728 0a0f 1C       		.uleb128 0x1c
 1729 0a10 5441534B 		.ascii "TASK_GROUP_2\0"
 1729      5F47524F 
 1729      55505F32 
 1729      00
 1730 0a1d 01       		.byte	0x1
 1731 0a1e 7E01     		.word	0x17e
 1732 0a20 3C040000 		.long	0x43c
 1733 0a24 05       		.uleb128 0x5
 1734 0a25 03       		.byte	0x3
 1735 0a26 F4030000 		.long	_TASK_GROUP_2.1366
 1736 0a2a 1C       		.uleb128 0x1c
 1737 0a2b 5441534B 		.ascii "TASK_GROUP_3\0"
 1737      5F47524F 
 1737      55505F33 
 1737      00
 1738 0a38 01       		.byte	0x1
 1739 0a39 7F01     		.word	0x17f
 1740 0a3b 3C040000 		.long	0x43c
 1741 0a3f 05       		.uleb128 0x5
 1742 0a40 03       		.byte	0x3
 1743 0a41 FC030000 		.long	_TASK_GROUP_3.1367
 1744 0a45 1C       		.uleb128 0x1c
 1745 0a46 5441534B 		.ascii "TASK_GROUP_4\0"
 1745      5F47524F 
 1745      55505F34 
 1745      00
 1746 0a53 01       		.byte	0x1
 1747 0a54 8001     		.word	0x180
 1748 0a56 3C040000 		.long	0x43c
 1749 0a5a 05       		.uleb128 0x5
 1750 0a5b 03       		.byte	0x3
 1751 0a5c 04040000 		.long	_TASK_GROUP_4.1368
 1752 0a60 1C       		.uleb128 0x1c
 1753 0a61 5441534B 		.ascii "TASK_GROUP_5\0"
 1753      5F47524F 
 1753      55505F35 
 1753      00
 1754 0a6e 01       		.byte	0x1
 1755 0a6f 8101     		.word	0x181
 1756 0a71 3C040000 		.long	0x43c
 1757 0a75 05       		.uleb128 0x5
 1758 0a76 03       		.byte	0x3
 1759 0a77 0C040000 		.long	_TASK_GROUP_5.1369
GAS LISTING C:\Users\PRESID~1\AppData\Local\Temp\ccR9pTsK.s 			page 51


 1760 0a7b 19       		.uleb128 0x19
 1761 0a7c 05000000 		.secrel32	LASF2
 1762 0a80 01       		.byte	0x1
 1763 0a81 8201     		.word	0x182
 1764 0a83 7F070000 		.long	0x77f
 1765 0a87 02       		.uleb128 0x2
 1766 0a88 91       		.byte	0x91
 1767 0a89 6C       		.sleb128 -20
 1768 0a8a 00       		.byte	0
 1769 0a8b 1D       		.uleb128 0x1d
 1770 0a8c 4F535F54 		.ascii "OS_TaskScheduler\0"
 1770      61736B53 
 1770      63686564 
 1770      756C6572 
 1770      00
 1771 0a9d 01       		.byte	0x1
 1772 0a9e CB01     		.word	0x1cb
 1773 0aa0 7F070000 		.long	0x77f
 1774 0aa4 9A050000 		.long	LFB12
 1775 0aa8 0E020000 		.long	LFE12-LFB12
 1776 0aac 01       		.uleb128 0x1
 1777 0aad 9C       		.byte	0x9c
 1778 0aae 410B0000 		.long	0xb41
 1779 0ab2 19       		.uleb128 0x19
 1780 0ab3 00000000 		.secrel32	LASF1
 1781 0ab7 01       		.byte	0x1
 1782 0ab8 CD01     		.word	0x1cd
 1783 0aba 7F070000 		.long	0x77f
 1784 0abe 05       		.uleb128 0x5
 1785 0abf 03       		.byte	0x3
 1786 0ac0 A4050000 		.long	_task.1374
 1787 0ac4 1C       		.uleb128 0x1c
 1788 0ac5 57696E6E 		.ascii "Winner_prio\0"
 1788      65725F70 
 1788      72696F00 
 1789 0ad1 01       		.byte	0x1
 1790 0ad2 CE01     		.word	0x1ce
 1791 0ad4 95000000 		.long	0x95
 1792 0ad8 05       		.uleb128 0x5
 1793 0ad9 03       		.byte	0x3
 1794 0ada A8050000 		.long	_Winner_prio.1375
 1795 0ade 1C       		.uleb128 0x1c
 1796 0adf 57696E6E 		.ascii "Winner_task\0"
 1796      65725F74 
 1796      61736B00 
 1797 0aeb 01       		.byte	0x1
 1798 0aec CF01     		.word	0x1cf
 1799 0aee 7F070000 		.long	0x77f
 1800 0af2 02       		.uleb128 0x2
 1801 0af3 91       		.byte	0x91
 1802 0af4 6C       		.sleb128 -20
 1803 0af5 1C       		.uleb128 0x1c
 1804 0af6 6C696E6B 		.ascii "link_list_member\0"
 1804      5F6C6973 
 1804      745F6D65 
 1804      6D626572 
 1804      00
GAS LISTING C:\Users\PRESID~1\AppData\Local\Temp\ccR9pTsK.s 			page 52


 1805 0b07 01       		.byte	0x1
 1806 0b08 D001     		.word	0x1d0
 1807 0b0a 410B0000 		.long	0xb41
 1808 0b0e 05       		.uleb128 0x5
 1809 0b0f 03       		.byte	0x3
 1810 0b10 A0050000 		.long	_link_list_member.1377
 1811 0b14 1C       		.uleb128 0x1c
 1812 0b15 656C656D 		.ascii "element_nr\0"
 1812      656E745F 
 1812      6E7200
 1813 0b20 01       		.byte	0x1
 1814 0b21 D101     		.word	0x1d1
 1815 0b23 95000000 		.long	0x95
 1816 0b27 02       		.uleb128 0x2
 1817 0b28 91       		.byte	0x91
 1818 0b29 6B       		.sleb128 -21
 1819 0b2a 1C       		.uleb128 0x1c
 1820 0b2b 64656C74 		.ascii "delta_time\0"
 1820      615F7469 
 1820      6D6500
 1821 0b36 01       		.byte	0x1
 1822 0b37 D301     		.word	0x1d3
 1823 0b39 DD060000 		.long	0x6dd
 1824 0b3d 02       		.uleb128 0x2
 1825 0b3e 91       		.byte	0x91
 1826 0b3f 64       		.sleb128 -28
 1827 0b40 00       		.byte	0
 1828 0b41 06       		.uleb128 0x6
 1829 0b42 04       		.byte	0x4
 1830 0b43 08070000 		.long	0x708
 1831 0b47 1E       		.uleb128 0x1e
 1832 0b48 4953525F 		.ascii "ISR_TASK_DISPATCH_C0\0"
 1832      5441534B 
 1832      5F444953 
 1832      50415443 
 1832      485F4330 
 1833 0b5d 01       		.byte	0x1
 1834 0b5e 3802     		.word	0x238
 1835 0b60 A8070000 		.long	LFB13
 1836 0b64 19000000 		.long	LFE13-LFB13
 1837 0b68 01       		.uleb128 0x1
 1838 0b69 9C       		.byte	0x9c
 1839 0b6a 1E       		.uleb128 0x1e
 1840 0b6b 4953525F 		.ascii "ISR_TASK_DISPATCH_C1\0"
 1840      5441534B 
 1840      5F444953 
 1840      50415443 
 1840      485F4331 
 1841 0b80 01       		.byte	0x1
 1842 0b81 4202     		.word	0x242
 1843 0b83 C1070000 		.long	LFB14
 1844 0b87 19000000 		.long	LFE14-LFB14
 1845 0b8b 01       		.uleb128 0x1
 1846 0b8c 9C       		.byte	0x9c
 1847 0b8d 1E       		.uleb128 0x1e
 1848 0b8e 4953525F 		.ascii "ISR_TASK_DISPATCH_C2\0"
 1848      5441534B 
GAS LISTING C:\Users\PRESID~1\AppData\Local\Temp\ccR9pTsK.s 			page 53


 1848      5F444953 
 1848      50415443 
 1848      485F4332 
 1849 0ba3 01       		.byte	0x1
 1850 0ba4 4C02     		.word	0x24c
 1851 0ba6 DA070000 		.long	LFB15
 1852 0baa 19000000 		.long	LFE15-LFB15
 1853 0bae 01       		.uleb128 0x1
 1854 0baf 9C       		.byte	0x9c
 1855 0bb0 1E       		.uleb128 0x1e
 1856 0bb1 4953525F 		.ascii "ISR_TASK_DISPATCH_C3\0"
 1856      5441534B 
 1856      5F444953 
 1856      50415443 
 1856      485F4333 
 1857 0bc6 01       		.byte	0x1
 1858 0bc7 5502     		.word	0x255
 1859 0bc9 F3070000 		.long	LFB16
 1860 0bcd 19000000 		.long	LFE16-LFB16
 1861 0bd1 01       		.uleb128 0x1
 1862 0bd2 9C       		.byte	0x9c
 1863 0bd3 1F       		.uleb128 0x1f
 1864 0bd4 95000000 		.long	0x95
 1865 0bd8 E90B0000 		.long	0xbe9
 1866 0bdc 20       		.uleb128 0x20
 1867 0bdd E90B0000 		.long	0xbe9
 1868 0be1 04       		.byte	0x4
 1869 0be2 20       		.uleb128 0x20
 1870 0be3 E90B0000 		.long	0xbe9
 1871 0be7 C7       		.byte	0xc7
 1872 0be8 00       		.byte	0
 1873 0be9 03       		.uleb128 0x3
 1874 0bea 04       		.byte	0x4
 1875 0beb 07       		.byte	0x7
 1876 0bec 73697A65 		.ascii "sizetype\0"
 1876      74797065 
 1876      00
 1877 0bf5 14       		.uleb128 0x14
 1878 0bf6 5441534B 		.ascii "TASK_STACK\0"
 1878      5F535441 
 1878      434B00
 1879 0c01 01       		.byte	0x1
 1880 0c02 18       		.byte	0x18
 1881 0c03 D30B0000 		.long	0xbd3
 1882 0c07 05       		.uleb128 0x5
 1883 0c08 03       		.byte	0x3
 1884 0c09 00000000 		.long	_TASK_STACK
 1885 0c0d 14       		.uleb128 0x14
 1886 0c0e 4C415354 		.ascii "LAST_CURRENT_TIME\0"
 1886      5F435552 
 1886      52454E54 
 1886      5F54494D 
 1886      4500
 1887 0c20 01       		.byte	0x1
 1888 0c21 19       		.byte	0x19
 1889 0c22 DD060000 		.long	0x6dd
 1890 0c26 05       		.uleb128 0x5
GAS LISTING C:\Users\PRESID~1\AppData\Local\Temp\ccR9pTsK.s 			page 54


 1891 0c27 03       		.byte	0x3
 1892 0c28 E8030000 		.long	_LAST_CURRENT_TIME
 1893 0c2c 1F       		.uleb128 0x1f
 1894 0c2d 95000000 		.long	0x95
 1895 0c31 420C0000 		.long	0xc42
 1896 0c35 20       		.uleb128 0x20
 1897 0c36 E90B0000 		.long	0xbe9
 1898 0c3a 00       		.byte	0
 1899 0c3b 20       		.uleb128 0x20
 1900 0c3c E90B0000 		.long	0xbe9
 1901 0c40 FF       		.byte	0xff
 1902 0c41 00       		.byte	0
 1903 0c42 21       		.uleb128 0x21
 1904 0c43 4F535F53 		.ascii "OS_STACK\0"
 1904      5441434B 
 1904      00
 1905 0c4c 07       		.byte	0x7
 1906 0c4d 0D       		.byte	0xd
 1907 0c4e 2C0C0000 		.long	0xc2c
 1908 0c52 00       		.byte	0
 1909              		.section	.debug_abbrev,"dr"
 1910              	Ldebug_abbrev0:
 1911 0000 01       		.uleb128 0x1
 1912 0001 11       		.uleb128 0x11
 1913 0002 01       		.byte	0x1
 1914 0003 25       		.uleb128 0x25
 1915 0004 08       		.uleb128 0x8
 1916 0005 13       		.uleb128 0x13
 1917 0006 0B       		.uleb128 0xb
 1918 0007 03       		.uleb128 0x3
 1919 0008 08       		.uleb128 0x8
 1920 0009 11       		.uleb128 0x11
 1921 000a 01       		.uleb128 0x1
 1922 000b 12       		.uleb128 0x12
 1923 000c 06       		.uleb128 0x6
 1924 000d 10       		.uleb128 0x10
 1925 000e 17       		.uleb128 0x17
 1926 000f 9942     		.uleb128 0x2119
 1927 0011 17       		.uleb128 0x17
 1928 0012 00       		.byte	0
 1929 0013 00       		.byte	0
 1930 0014 02       		.uleb128 0x2
 1931 0015 16       		.uleb128 0x16
 1932 0016 00       		.byte	0
 1933 0017 03       		.uleb128 0x3
 1934 0018 08       		.uleb128 0x8
 1935 0019 3A       		.uleb128 0x3a
 1936 001a 0B       		.uleb128 0xb
 1937 001b 3B       		.uleb128 0x3b
 1938 001c 0B       		.uleb128 0xb
 1939 001d 49       		.uleb128 0x49
 1940 001e 13       		.uleb128 0x13
 1941 001f 00       		.byte	0
 1942 0020 00       		.byte	0
 1943 0021 03       		.uleb128 0x3
 1944 0022 24       		.uleb128 0x24
 1945 0023 00       		.byte	0
GAS LISTING C:\Users\PRESID~1\AppData\Local\Temp\ccR9pTsK.s 			page 55


 1946 0024 0B       		.uleb128 0xb
 1947 0025 0B       		.uleb128 0xb
 1948 0026 3E       		.uleb128 0x3e
 1949 0027 0B       		.uleb128 0xb
 1950 0028 03       		.uleb128 0x3
 1951 0029 08       		.uleb128 0x8
 1952 002a 00       		.byte	0
 1953 002b 00       		.byte	0
 1954 002c 04       		.uleb128 0x4
 1955 002d 04       		.uleb128 0x4
 1956 002e 01       		.byte	0x1
 1957 002f 03       		.uleb128 0x3
 1958 0030 08       		.uleb128 0x8
 1959 0031 0B       		.uleb128 0xb
 1960 0032 0B       		.uleb128 0xb
 1961 0033 3A       		.uleb128 0x3a
 1962 0034 0B       		.uleb128 0xb
 1963 0035 3B       		.uleb128 0x3b
 1964 0036 0B       		.uleb128 0xb
 1965 0037 01       		.uleb128 0x1
 1966 0038 13       		.uleb128 0x13
 1967 0039 00       		.byte	0
 1968 003a 00       		.byte	0
 1969 003b 05       		.uleb128 0x5
 1970 003c 28       		.uleb128 0x28
 1971 003d 00       		.byte	0
 1972 003e 03       		.uleb128 0x3
 1973 003f 08       		.uleb128 0x8
 1974 0040 1C       		.uleb128 0x1c
 1975 0041 0D       		.uleb128 0xd
 1976 0042 00       		.byte	0
 1977 0043 00       		.byte	0
 1978 0044 06       		.uleb128 0x6
 1979 0045 0F       		.uleb128 0xf
 1980 0046 00       		.byte	0
 1981 0047 0B       		.uleb128 0xb
 1982 0048 0B       		.uleb128 0xb
 1983 0049 49       		.uleb128 0x49
 1984 004a 13       		.uleb128 0x13
 1985 004b 00       		.byte	0
 1986 004c 00       		.byte	0
 1987 004d 07       		.uleb128 0x7
 1988 004e 15       		.uleb128 0x15
 1989 004f 01       		.byte	0x1
 1990 0050 27       		.uleb128 0x27
 1991 0051 19       		.uleb128 0x19
 1992 0052 01       		.uleb128 0x1
 1993 0053 13       		.uleb128 0x13
 1994 0054 00       		.byte	0
 1995 0055 00       		.byte	0
 1996 0056 08       		.uleb128 0x8
 1997 0057 05       		.uleb128 0x5
 1998 0058 00       		.byte	0
 1999 0059 49       		.uleb128 0x49
 2000 005a 13       		.uleb128 0x13
 2001 005b 00       		.byte	0
 2002 005c 00       		.byte	0
GAS LISTING C:\Users\PRESID~1\AppData\Local\Temp\ccR9pTsK.s 			page 56


 2003 005d 09       		.uleb128 0x9
 2004 005e 0F       		.uleb128 0xf
 2005 005f 00       		.byte	0
 2006 0060 0B       		.uleb128 0xb
 2007 0061 0B       		.uleb128 0xb
 2008 0062 00       		.byte	0
 2009 0063 00       		.byte	0
 2010 0064 0A       		.uleb128 0xa
 2011 0065 15       		.uleb128 0x15
 2012 0066 01       		.byte	0x1
 2013 0067 27       		.uleb128 0x27
 2014 0068 19       		.uleb128 0x19
 2015 0069 49       		.uleb128 0x49
 2016 006a 13       		.uleb128 0x13
 2017 006b 01       		.uleb128 0x1
 2018 006c 13       		.uleb128 0x13
 2019 006d 00       		.byte	0
 2020 006e 00       		.byte	0
 2021 006f 0B       		.uleb128 0xb
 2022 0070 13       		.uleb128 0x13
 2023 0071 01       		.byte	0x1
 2024 0072 03       		.uleb128 0x3
 2025 0073 08       		.uleb128 0x8
 2026 0074 0B       		.uleb128 0xb
 2027 0075 0B       		.uleb128 0xb
 2028 0076 3A       		.uleb128 0x3a
 2029 0077 0B       		.uleb128 0xb
 2030 0078 3B       		.uleb128 0x3b
 2031 0079 0B       		.uleb128 0xb
 2032 007a 01       		.uleb128 0x1
 2033 007b 13       		.uleb128 0x13
 2034 007c 00       		.byte	0
 2035 007d 00       		.byte	0
 2036 007e 0C       		.uleb128 0xc
 2037 007f 0D       		.uleb128 0xd
 2038 0080 00       		.byte	0
 2039 0081 03       		.uleb128 0x3
 2040 0082 0E       		.uleb128 0xe
 2041 0083 3A       		.uleb128 0x3a
 2042 0084 0B       		.uleb128 0xb
 2043 0085 3B       		.uleb128 0x3b
 2044 0086 0B       		.uleb128 0xb
 2045 0087 49       		.uleb128 0x49
 2046 0088 13       		.uleb128 0x13
 2047 0089 38       		.uleb128 0x38
 2048 008a 0B       		.uleb128 0xb
 2049 008b 00       		.byte	0
 2050 008c 00       		.byte	0
 2051 008d 0D       		.uleb128 0xd
 2052 008e 0D       		.uleb128 0xd
 2053 008f 00       		.byte	0
 2054 0090 03       		.uleb128 0x3
 2055 0091 08       		.uleb128 0x8
 2056 0092 3A       		.uleb128 0x3a
 2057 0093 0B       		.uleb128 0xb
 2058 0094 3B       		.uleb128 0x3b
 2059 0095 0B       		.uleb128 0xb
GAS LISTING C:\Users\PRESID~1\AppData\Local\Temp\ccR9pTsK.s 			page 57


 2060 0096 49       		.uleb128 0x49
 2061 0097 13       		.uleb128 0x13
 2062 0098 38       		.uleb128 0x38
 2063 0099 0B       		.uleb128 0xb
 2064 009a 00       		.byte	0
 2065 009b 00       		.byte	0
 2066 009c 0E       		.uleb128 0xe
 2067 009d 0D       		.uleb128 0xd
 2068 009e 00       		.byte	0
 2069 009f 03       		.uleb128 0x3
 2070 00a0 08       		.uleb128 0x8
 2071 00a1 3A       		.uleb128 0x3a
 2072 00a2 0B       		.uleb128 0xb
 2073 00a3 3B       		.uleb128 0x3b
 2074 00a4 0B       		.uleb128 0xb
 2075 00a5 49       		.uleb128 0x49
 2076 00a6 13       		.uleb128 0x13
 2077 00a7 0B       		.uleb128 0xb
 2078 00a8 0B       		.uleb128 0xb
 2079 00a9 0D       		.uleb128 0xd
 2080 00aa 0B       		.uleb128 0xb
 2081 00ab 0C       		.uleb128 0xc
 2082 00ac 0B       		.uleb128 0xb
 2083 00ad 38       		.uleb128 0x38
 2084 00ae 0B       		.uleb128 0xb
 2085 00af 00       		.byte	0
 2086 00b0 00       		.byte	0
 2087 00b1 0F       		.uleb128 0xf
 2088 00b2 2E       		.uleb128 0x2e
 2089 00b3 00       		.byte	0
 2090 00b4 3F       		.uleb128 0x3f
 2091 00b5 19       		.uleb128 0x19
 2092 00b6 03       		.uleb128 0x3
 2093 00b7 08       		.uleb128 0x8
 2094 00b8 3A       		.uleb128 0x3a
 2095 00b9 0B       		.uleb128 0xb
 2096 00ba 3B       		.uleb128 0x3b
 2097 00bb 0B       		.uleb128 0xb
 2098 00bc 27       		.uleb128 0x27
 2099 00bd 19       		.uleb128 0x19
 2100 00be 11       		.uleb128 0x11
 2101 00bf 01       		.uleb128 0x1
 2102 00c0 12       		.uleb128 0x12
 2103 00c1 06       		.uleb128 0x6
 2104 00c2 40       		.uleb128 0x40
 2105 00c3 18       		.uleb128 0x18
 2106 00c4 9742     		.uleb128 0x2117
 2107 00c6 19       		.uleb128 0x19
 2108 00c7 00       		.byte	0
 2109 00c8 00       		.byte	0
 2110 00c9 10       		.uleb128 0x10
 2111 00ca 2E       		.uleb128 0x2e
 2112 00cb 01       		.byte	0x1
 2113 00cc 3F       		.uleb128 0x3f
 2114 00cd 19       		.uleb128 0x19
 2115 00ce 03       		.uleb128 0x3
 2116 00cf 08       		.uleb128 0x8
GAS LISTING C:\Users\PRESID~1\AppData\Local\Temp\ccR9pTsK.s 			page 58


 2117 00d0 3A       		.uleb128 0x3a
 2118 00d1 0B       		.uleb128 0xb
 2119 00d2 3B       		.uleb128 0x3b
 2120 00d3 0B       		.uleb128 0xb
 2121 00d4 27       		.uleb128 0x27
 2122 00d5 19       		.uleb128 0x19
 2123 00d6 11       		.uleb128 0x11
 2124 00d7 01       		.uleb128 0x1
 2125 00d8 12       		.uleb128 0x12
 2126 00d9 06       		.uleb128 0x6
 2127 00da 40       		.uleb128 0x40
 2128 00db 18       		.uleb128 0x18
 2129 00dc 9642     		.uleb128 0x2116
 2130 00de 19       		.uleb128 0x19
 2131 00df 01       		.uleb128 0x1
 2132 00e0 13       		.uleb128 0x13
 2133 00e1 00       		.byte	0
 2134 00e2 00       		.byte	0
 2135 00e3 11       		.uleb128 0x11
 2136 00e4 05       		.uleb128 0x5
 2137 00e5 00       		.byte	0
 2138 00e6 03       		.uleb128 0x3
 2139 00e7 0E       		.uleb128 0xe
 2140 00e8 3A       		.uleb128 0x3a
 2141 00e9 0B       		.uleb128 0xb
 2142 00ea 3B       		.uleb128 0x3b
 2143 00eb 0B       		.uleb128 0xb
 2144 00ec 49       		.uleb128 0x49
 2145 00ed 13       		.uleb128 0x13
 2146 00ee 02       		.uleb128 0x2
 2147 00ef 18       		.uleb128 0x18
 2148 00f0 00       		.byte	0
 2149 00f1 00       		.byte	0
 2150 00f2 12       		.uleb128 0x12
 2151 00f3 05       		.uleb128 0x5
 2152 00f4 00       		.byte	0
 2153 00f5 03       		.uleb128 0x3
 2154 00f6 08       		.uleb128 0x8
 2155 00f7 3A       		.uleb128 0x3a
 2156 00f8 0B       		.uleb128 0xb
 2157 00f9 3B       		.uleb128 0x3b
 2158 00fa 0B       		.uleb128 0xb
 2159 00fb 49       		.uleb128 0x49
 2160 00fc 13       		.uleb128 0x13
 2161 00fd 02       		.uleb128 0x2
 2162 00fe 18       		.uleb128 0x18
 2163 00ff 00       		.byte	0
 2164 0100 00       		.byte	0
 2165 0101 13       		.uleb128 0x13
 2166 0102 2E       		.uleb128 0x2e
 2167 0103 01       		.byte	0x1
 2168 0104 3F       		.uleb128 0x3f
 2169 0105 19       		.uleb128 0x19
 2170 0106 03       		.uleb128 0x3
 2171 0107 08       		.uleb128 0x8
 2172 0108 3A       		.uleb128 0x3a
 2173 0109 0B       		.uleb128 0xb
GAS LISTING C:\Users\PRESID~1\AppData\Local\Temp\ccR9pTsK.s 			page 59


 2174 010a 3B       		.uleb128 0x3b
 2175 010b 0B       		.uleb128 0xb
 2176 010c 27       		.uleb128 0x27
 2177 010d 19       		.uleb128 0x19
 2178 010e 49       		.uleb128 0x49
 2179 010f 13       		.uleb128 0x13
 2180 0110 11       		.uleb128 0x11
 2181 0111 01       		.uleb128 0x1
 2182 0112 12       		.uleb128 0x12
 2183 0113 06       		.uleb128 0x6
 2184 0114 40       		.uleb128 0x40
 2185 0115 18       		.uleb128 0x18
 2186 0116 9642     		.uleb128 0x2116
 2187 0118 19       		.uleb128 0x19
 2188 0119 01       		.uleb128 0x1
 2189 011a 13       		.uleb128 0x13
 2190 011b 00       		.byte	0
 2191 011c 00       		.byte	0
 2192 011d 14       		.uleb128 0x14
 2193 011e 34       		.uleb128 0x34
 2194 011f 00       		.byte	0
 2195 0120 03       		.uleb128 0x3
 2196 0121 08       		.uleb128 0x8
 2197 0122 3A       		.uleb128 0x3a
 2198 0123 0B       		.uleb128 0xb
 2199 0124 3B       		.uleb128 0x3b
 2200 0125 0B       		.uleb128 0xb
 2201 0126 49       		.uleb128 0x49
 2202 0127 13       		.uleb128 0x13
 2203 0128 02       		.uleb128 0x2
 2204 0129 18       		.uleb128 0x18
 2205 012a 00       		.byte	0
 2206 012b 00       		.byte	0
 2207 012c 15       		.uleb128 0x15
 2208 012d 34       		.uleb128 0x34
 2209 012e 00       		.byte	0
 2210 012f 03       		.uleb128 0x3
 2211 0130 0E       		.uleb128 0xe
 2212 0131 3A       		.uleb128 0x3a
 2213 0132 0B       		.uleb128 0xb
 2214 0133 3B       		.uleb128 0x3b
 2215 0134 0B       		.uleb128 0xb
 2216 0135 49       		.uleb128 0x49
 2217 0136 13       		.uleb128 0x13
 2218 0137 02       		.uleb128 0x2
 2219 0138 18       		.uleb128 0x18
 2220 0139 00       		.byte	0
 2221 013a 00       		.byte	0
 2222 013b 16       		.uleb128 0x16
 2223 013c 2E       		.uleb128 0x2e
 2224 013d 01       		.byte	0x1
 2225 013e 03       		.uleb128 0x3
 2226 013f 08       		.uleb128 0x8
 2227 0140 3A       		.uleb128 0x3a
 2228 0141 0B       		.uleb128 0xb
 2229 0142 3B       		.uleb128 0x3b
 2230 0143 0B       		.uleb128 0xb
GAS LISTING C:\Users\PRESID~1\AppData\Local\Temp\ccR9pTsK.s 			page 60


 2231 0144 27       		.uleb128 0x27
 2232 0145 19       		.uleb128 0x19
 2233 0146 11       		.uleb128 0x11
 2234 0147 01       		.uleb128 0x1
 2235 0148 12       		.uleb128 0x12
 2236 0149 06       		.uleb128 0x6
 2237 014a 40       		.uleb128 0x40
 2238 014b 18       		.uleb128 0x18
 2239 014c 9642     		.uleb128 0x2116
 2240 014e 19       		.uleb128 0x19
 2241 014f 01       		.uleb128 0x1
 2242 0150 13       		.uleb128 0x13
 2243 0151 00       		.byte	0
 2244 0152 00       		.byte	0
 2245 0153 17       		.uleb128 0x17
 2246 0154 2E       		.uleb128 0x2e
 2247 0155 01       		.byte	0x1
 2248 0156 03       		.uleb128 0x3
 2249 0157 08       		.uleb128 0x8
 2250 0158 3A       		.uleb128 0x3a
 2251 0159 0B       		.uleb128 0xb
 2252 015a 3B       		.uleb128 0x3b
 2253 015b 05       		.uleb128 0x5
 2254 015c 27       		.uleb128 0x27
 2255 015d 19       		.uleb128 0x19
 2256 015e 11       		.uleb128 0x11
 2257 015f 01       		.uleb128 0x1
 2258 0160 12       		.uleb128 0x12
 2259 0161 06       		.uleb128 0x6
 2260 0162 40       		.uleb128 0x40
 2261 0163 18       		.uleb128 0x18
 2262 0164 9642     		.uleb128 0x2116
 2263 0166 19       		.uleb128 0x19
 2264 0167 01       		.uleb128 0x1
 2265 0168 13       		.uleb128 0x13
 2266 0169 00       		.byte	0
 2267 016a 00       		.byte	0
 2268 016b 18       		.uleb128 0x18
 2269 016c 05       		.uleb128 0x5
 2270 016d 00       		.byte	0
 2271 016e 03       		.uleb128 0x3
 2272 016f 0E       		.uleb128 0xe
 2273 0170 3A       		.uleb128 0x3a
 2274 0171 0B       		.uleb128 0xb
 2275 0172 3B       		.uleb128 0x3b
 2276 0173 05       		.uleb128 0x5
 2277 0174 49       		.uleb128 0x49
 2278 0175 13       		.uleb128 0x13
 2279 0176 02       		.uleb128 0x2
 2280 0177 18       		.uleb128 0x18
 2281 0178 00       		.byte	0
 2282 0179 00       		.byte	0
 2283 017a 19       		.uleb128 0x19
 2284 017b 34       		.uleb128 0x34
 2285 017c 00       		.byte	0
 2286 017d 03       		.uleb128 0x3
 2287 017e 0E       		.uleb128 0xe
GAS LISTING C:\Users\PRESID~1\AppData\Local\Temp\ccR9pTsK.s 			page 61


 2288 017f 3A       		.uleb128 0x3a
 2289 0180 0B       		.uleb128 0xb
 2290 0181 3B       		.uleb128 0x3b
 2291 0182 05       		.uleb128 0x5
 2292 0183 49       		.uleb128 0x49
 2293 0184 13       		.uleb128 0x13
 2294 0185 02       		.uleb128 0x2
 2295 0186 18       		.uleb128 0x18
 2296 0187 00       		.byte	0
 2297 0188 00       		.byte	0
 2298 0189 1A       		.uleb128 0x1a
 2299 018a 2E       		.uleb128 0x2e
 2300 018b 01       		.byte	0x1
 2301 018c 03       		.uleb128 0x3
 2302 018d 08       		.uleb128 0x8
 2303 018e 3A       		.uleb128 0x3a
 2304 018f 0B       		.uleb128 0xb
 2305 0190 3B       		.uleb128 0x3b
 2306 0191 05       		.uleb128 0x5
 2307 0192 27       		.uleb128 0x27
 2308 0193 19       		.uleb128 0x19
 2309 0194 11       		.uleb128 0x11
 2310 0195 01       		.uleb128 0x1
 2311 0196 12       		.uleb128 0x12
 2312 0197 06       		.uleb128 0x6
 2313 0198 40       		.uleb128 0x40
 2314 0199 18       		.uleb128 0x18
 2315 019a 9742     		.uleb128 0x2117
 2316 019c 19       		.uleb128 0x19
 2317 019d 01       		.uleb128 0x1
 2318 019e 13       		.uleb128 0x13
 2319 019f 00       		.byte	0
 2320 01a0 00       		.byte	0
 2321 01a1 1B       		.uleb128 0x1b
 2322 01a2 2E       		.uleb128 0x2e
 2323 01a3 01       		.byte	0x1
 2324 01a4 3F       		.uleb128 0x3f
 2325 01a5 19       		.uleb128 0x19
 2326 01a6 03       		.uleb128 0x3
 2327 01a7 08       		.uleb128 0x8
 2328 01a8 3A       		.uleb128 0x3a
 2329 01a9 0B       		.uleb128 0xb
 2330 01aa 3B       		.uleb128 0x3b
 2331 01ab 05       		.uleb128 0x5
 2332 01ac 27       		.uleb128 0x27
 2333 01ad 19       		.uleb128 0x19
 2334 01ae 11       		.uleb128 0x11
 2335 01af 01       		.uleb128 0x1
 2336 01b0 12       		.uleb128 0x12
 2337 01b1 06       		.uleb128 0x6
 2338 01b2 40       		.uleb128 0x40
 2339 01b3 18       		.uleb128 0x18
 2340 01b4 9642     		.uleb128 0x2116
 2341 01b6 19       		.uleb128 0x19
 2342 01b7 01       		.uleb128 0x1
 2343 01b8 13       		.uleb128 0x13
 2344 01b9 00       		.byte	0
GAS LISTING C:\Users\PRESID~1\AppData\Local\Temp\ccR9pTsK.s 			page 62


 2345 01ba 00       		.byte	0
 2346 01bb 1C       		.uleb128 0x1c
 2347 01bc 34       		.uleb128 0x34
 2348 01bd 00       		.byte	0
 2349 01be 03       		.uleb128 0x3
 2350 01bf 08       		.uleb128 0x8
 2351 01c0 3A       		.uleb128 0x3a
 2352 01c1 0B       		.uleb128 0xb
 2353 01c2 3B       		.uleb128 0x3b
 2354 01c3 05       		.uleb128 0x5
 2355 01c4 49       		.uleb128 0x49
 2356 01c5 13       		.uleb128 0x13
 2357 01c6 02       		.uleb128 0x2
 2358 01c7 18       		.uleb128 0x18
 2359 01c8 00       		.byte	0
 2360 01c9 00       		.byte	0
 2361 01ca 1D       		.uleb128 0x1d
 2362 01cb 2E       		.uleb128 0x2e
 2363 01cc 01       		.byte	0x1
 2364 01cd 03       		.uleb128 0x3
 2365 01ce 08       		.uleb128 0x8
 2366 01cf 3A       		.uleb128 0x3a
 2367 01d0 0B       		.uleb128 0xb
 2368 01d1 3B       		.uleb128 0x3b
 2369 01d2 05       		.uleb128 0x5
 2370 01d3 27       		.uleb128 0x27
 2371 01d4 19       		.uleb128 0x19
 2372 01d5 49       		.uleb128 0x49
 2373 01d6 13       		.uleb128 0x13
 2374 01d7 11       		.uleb128 0x11
 2375 01d8 01       		.uleb128 0x1
 2376 01d9 12       		.uleb128 0x12
 2377 01da 06       		.uleb128 0x6
 2378 01db 40       		.uleb128 0x40
 2379 01dc 18       		.uleb128 0x18
 2380 01dd 9642     		.uleb128 0x2116
 2381 01df 19       		.uleb128 0x19
 2382 01e0 01       		.uleb128 0x1
 2383 01e1 13       		.uleb128 0x13
 2384 01e2 00       		.byte	0
 2385 01e3 00       		.byte	0
 2386 01e4 1E       		.uleb128 0x1e
 2387 01e5 2E       		.uleb128 0x2e
 2388 01e6 00       		.byte	0
 2389 01e7 3F       		.uleb128 0x3f
 2390 01e8 19       		.uleb128 0x19
 2391 01e9 03       		.uleb128 0x3
 2392 01ea 08       		.uleb128 0x8
 2393 01eb 3A       		.uleb128 0x3a
 2394 01ec 0B       		.uleb128 0xb
 2395 01ed 3B       		.uleb128 0x3b
 2396 01ee 05       		.uleb128 0x5
 2397 01ef 27       		.uleb128 0x27
 2398 01f0 19       		.uleb128 0x19
 2399 01f1 11       		.uleb128 0x11
 2400 01f2 01       		.uleb128 0x1
 2401 01f3 12       		.uleb128 0x12
GAS LISTING C:\Users\PRESID~1\AppData\Local\Temp\ccR9pTsK.s 			page 63


 2402 01f4 06       		.uleb128 0x6
 2403 01f5 40       		.uleb128 0x40
 2404 01f6 18       		.uleb128 0x18
 2405 01f7 9642     		.uleb128 0x2116
 2406 01f9 19       		.uleb128 0x19
 2407 01fa 00       		.byte	0
 2408 01fb 00       		.byte	0
 2409 01fc 1F       		.uleb128 0x1f
 2410 01fd 01       		.uleb128 0x1
 2411 01fe 01       		.byte	0x1
 2412 01ff 49       		.uleb128 0x49
 2413 0200 13       		.uleb128 0x13
 2414 0201 01       		.uleb128 0x1
 2415 0202 13       		.uleb128 0x13
 2416 0203 00       		.byte	0
 2417 0204 00       		.byte	0
 2418 0205 20       		.uleb128 0x20
 2419 0206 21       		.uleb128 0x21
 2420 0207 00       		.byte	0
 2421 0208 49       		.uleb128 0x49
 2422 0209 13       		.uleb128 0x13
 2423 020a 2F       		.uleb128 0x2f
 2424 020b 0B       		.uleb128 0xb
 2425 020c 00       		.byte	0
 2426 020d 00       		.byte	0
 2427 020e 21       		.uleb128 0x21
 2428 020f 34       		.uleb128 0x34
 2429 0210 00       		.byte	0
 2430 0211 03       		.uleb128 0x3
 2431 0212 08       		.uleb128 0x8
 2432 0213 3A       		.uleb128 0x3a
 2433 0214 0B       		.uleb128 0xb
 2434 0215 3B       		.uleb128 0x3b
 2435 0216 0B       		.uleb128 0xb
 2436 0217 49       		.uleb128 0x49
 2437 0218 13       		.uleb128 0x13
 2438 0219 3F       		.uleb128 0x3f
 2439 021a 19       		.uleb128 0x19
 2440 021b 3C       		.uleb128 0x3c
 2441 021c 19       		.uleb128 0x19
 2442 021d 00       		.byte	0
 2443 021e 00       		.byte	0
 2444 021f 00       		.byte	0
 2445              		.section	.debug_aranges,"dr"
 2446 0000 1C000000 		.long	0x1c
 2447 0004 0200     		.word	0x2
 2448 0006 00000000 		.secrel32	Ldebug_info0
 2449 000a 04       		.byte	0x4
 2450 000b 00       		.byte	0
 2451 000c 0000     		.word	0
 2452 000e 0000     		.word	0
 2453 0010 00000000 		.long	Ltext0
 2454 0014 0C080000 		.long	Letext0-Ltext0
 2455 0018 00000000 		.long	0
 2456 001c 00000000 		.long	0
 2457              		.section	.debug_macro,"dr"
 2458              	Ldebug_macro0:
GAS LISTING C:\Users\PRESID~1\AppData\Local\Temp\ccR9pTsK.s 			page 64


 2459 0000 0400     		.word	0x4
 2460 0002 02       		.byte	0x2
 2461 0003 00000000 		.secrel32	Ldebug_line0
 2462 0007 01       		.byte	0x1
 2463 0008 00       		.uleb128 0
 2464 0009 5F5F5354 		.ascii "__STDC__ 1\0"
 2464      44435F5F 
 2464      203100
 2465 0014 01       		.byte	0x1
 2466 0015 00       		.uleb128 0
 2467 0016 5F5F5354 		.ascii "__STDC_HOSTED__ 1\0"
 2467      44435F48 
 2467      4F535445 
 2467      445F5F20 
 2467      3100
 2468 0028 01       		.byte	0x1
 2469 0029 00       		.uleb128 0
 2470 002a 5F5F474E 		.ascii "__GNUC__ 4\0"
 2470      55435F5F 
 2470      203400
 2471 0035 01       		.byte	0x1
 2472 0036 00       		.uleb128 0
 2473 0037 5F5F474E 		.ascii "__GNUC_MINOR__ 9\0"
 2473      55435F4D 
 2473      494E4F52 
 2473      5F5F2039 
 2473      00
 2474 0048 01       		.byte	0x1
 2475 0049 00       		.uleb128 0
 2476 004a 5F5F474E 		.ascii "__GNUC_PATCHLEVEL__ 3\0"
 2476      55435F50 
 2476      41544348 
 2476      4C455645 
 2476      4C5F5F20 
 2477 0060 01       		.byte	0x1
 2478 0061 00       		.uleb128 0
 2479 0062 5F5F5645 		.ascii "__VERSION__ \"4.9.3\"\0"
 2479      5253494F 
 2479      4E5F5F20 
 2479      22342E39 
 2479      2E332200 
 2480 0076 01       		.byte	0x1
 2481 0077 00       		.uleb128 0
 2482 0078 5F5F4154 		.ascii "__ATOMIC_RELAXED 0\0"
 2482      4F4D4943 
 2482      5F52454C 
 2482      41584544 
 2482      203000
 2483 008b 01       		.byte	0x1
 2484 008c 00       		.uleb128 0
 2485 008d 5F5F4154 		.ascii "__ATOMIC_SEQ_CST 5\0"
 2485      4F4D4943 
 2485      5F534551 
 2485      5F435354 
 2485      203500
 2486 00a0 01       		.byte	0x1
 2487 00a1 00       		.uleb128 0
GAS LISTING C:\Users\PRESID~1\AppData\Local\Temp\ccR9pTsK.s 			page 65


 2488 00a2 5F5F4154 		.ascii "__ATOMIC_ACQUIRE 2\0"
 2488      4F4D4943 
 2488      5F414351 
 2488      55495245 
 2488      203200
 2489 00b5 01       		.byte	0x1
 2490 00b6 00       		.uleb128 0
 2491 00b7 5F5F4154 		.ascii "__ATOMIC_RELEASE 3\0"
 2491      4F4D4943 
 2491      5F52454C 
 2491      45415345 
 2491      203300
 2492 00ca 01       		.byte	0x1
 2493 00cb 00       		.uleb128 0
 2494 00cc 5F5F4154 		.ascii "__ATOMIC_ACQ_REL 4\0"
 2494      4F4D4943 
 2494      5F414351 
 2494      5F52454C 
 2494      203400
 2495 00df 01       		.byte	0x1
 2496 00e0 00       		.uleb128 0
 2497 00e1 5F5F4154 		.ascii "__ATOMIC_CONSUME 1\0"
 2497      4F4D4943 
 2497      5F434F4E 
 2497      53554D45 
 2497      203100
 2498 00f4 01       		.byte	0x1
 2499 00f5 00       		.uleb128 0
 2500 00f6 5F5F4649 		.ascii "__FINITE_MATH_ONLY__ 0\0"
 2500      4E495445 
 2500      5F4D4154 
 2500      485F4F4E 
 2500      4C595F5F 
 2501 010d 01       		.byte	0x1
 2502 010e 00       		.uleb128 0
 2503 010f 5F5F5349 		.ascii "__SIZEOF_INT__ 4\0"
 2503      5A454F46 
 2503      5F494E54 
 2503      5F5F2034 
 2503      00
 2504 0120 01       		.byte	0x1
 2505 0121 00       		.uleb128 0
 2506 0122 5F5F5349 		.ascii "__SIZEOF_LONG__ 4\0"
 2506      5A454F46 
 2506      5F4C4F4E 
 2506      475F5F20 
 2506      3400
 2507 0134 01       		.byte	0x1
 2508 0135 00       		.uleb128 0
 2509 0136 5F5F5349 		.ascii "__SIZEOF_LONG_LONG__ 8\0"
 2509      5A454F46 
 2509      5F4C4F4E 
 2509      475F4C4F 
 2509      4E475F5F 
 2510 014d 01       		.byte	0x1
 2511 014e 00       		.uleb128 0
 2512 014f 5F5F5349 		.ascii "__SIZEOF_SHORT__ 2\0"
GAS LISTING C:\Users\PRESID~1\AppData\Local\Temp\ccR9pTsK.s 			page 66


 2512      5A454F46 
 2512      5F53484F 
 2512      52545F5F 
 2512      203200
 2513 0162 01       		.byte	0x1
 2514 0163 00       		.uleb128 0
 2515 0164 5F5F5349 		.ascii "__SIZEOF_FLOAT__ 4\0"
 2515      5A454F46 
 2515      5F464C4F 
 2515      41545F5F 
 2515      203400
 2516 0177 01       		.byte	0x1
 2517 0178 00       		.uleb128 0
 2518 0179 5F5F5349 		.ascii "__SIZEOF_DOUBLE__ 8\0"
 2518      5A454F46 
 2518      5F444F55 
 2518      424C455F 
 2518      5F203800 
 2519 018d 01       		.byte	0x1
 2520 018e 00       		.uleb128 0
 2521 018f 5F5F5349 		.ascii "__SIZEOF_LONG_DOUBLE__ 12\0"
 2521      5A454F46 
 2521      5F4C4F4E 
 2521      475F444F 
 2521      55424C45 
 2522 01a9 01       		.byte	0x1
 2523 01aa 00       		.uleb128 0
 2524 01ab 5F5F5349 		.ascii "__SIZEOF_SIZE_T__ 4\0"
 2524      5A454F46 
 2524      5F53495A 
 2524      455F545F 
 2524      5F203400 
 2525 01bf 01       		.byte	0x1
 2526 01c0 00       		.uleb128 0
 2527 01c1 5F5F4348 		.ascii "__CHAR_BIT__ 8\0"
 2527      41525F42 
 2527      49545F5F 
 2527      203800
 2528 01d0 01       		.byte	0x1
 2529 01d1 00       		.uleb128 0
 2530 01d2 5F5F4249 		.ascii "__BIGGEST_ALIGNMENT__ 16\0"
 2530      47474553 
 2530      545F414C 
 2530      49474E4D 
 2530      454E545F 
 2531 01eb 01       		.byte	0x1
 2532 01ec 00       		.uleb128 0
 2533 01ed 5F5F4F52 		.ascii "__ORDER_LITTLE_ENDIAN__ 1234\0"
 2533      4445525F 
 2533      4C495454 
 2533      4C455F45 
 2533      4E444941 
 2534 020a 01       		.byte	0x1
 2535 020b 00       		.uleb128 0
 2536 020c 5F5F4F52 		.ascii "__ORDER_BIG_ENDIAN__ 4321\0"
 2536      4445525F 
 2536      4249475F 
GAS LISTING C:\Users\PRESID~1\AppData\Local\Temp\ccR9pTsK.s 			page 67


 2536      454E4449 
 2536      414E5F5F 
 2537 0226 01       		.byte	0x1
 2538 0227 00       		.uleb128 0
 2539 0228 5F5F4F52 		.ascii "__ORDER_PDP_ENDIAN__ 3412\0"
 2539      4445525F 
 2539      5044505F 
 2539      454E4449 
 2539      414E5F5F 
 2540 0242 01       		.byte	0x1
 2541 0243 00       		.uleb128 0
 2542 0244 5F5F4259 		.ascii "__BYTE_ORDER__ __ORDER_LITTLE_ENDIAN__\0"
 2542      54455F4F 
 2542      52444552 
 2542      5F5F205F 
 2542      5F4F5244 
 2543 026b 01       		.byte	0x1
 2544 026c 00       		.uleb128 0
 2545 026d 5F5F464C 		.ascii "__FLOAT_WORD_ORDER__ __ORDER_LITTLE_ENDIAN__\0"
 2545      4F41545F 
 2545      574F5244 
 2545      5F4F5244 
 2545      45525F5F 
 2546 029a 01       		.byte	0x1
 2547 029b 00       		.uleb128 0
 2548 029c 5F5F5349 		.ascii "__SIZEOF_POINTER__ 4\0"
 2548      5A454F46 
 2548      5F504F49 
 2548      4E544552 
 2548      5F5F2034 
 2549 02b1 01       		.byte	0x1
 2550 02b2 00       		.uleb128 0
 2551 02b3 5F5F5349 		.ascii "__SIZE_TYPE__ unsigned int\0"
 2551      5A455F54 
 2551      5950455F 
 2551      5F20756E 
 2551      7369676E 
 2552 02ce 01       		.byte	0x1
 2553 02cf 00       		.uleb128 0
 2554 02d0 5F5F5054 		.ascii "__PTRDIFF_TYPE__ int\0"
 2554      52444946 
 2554      465F5459 
 2554      50455F5F 
 2554      20696E74 
 2555 02e5 01       		.byte	0x1
 2556 02e6 00       		.uleb128 0
 2557 02e7 5F5F5743 		.ascii "__WCHAR_TYPE__ short unsigned int\0"
 2557      4841525F 
 2557      54595045 
 2557      5F5F2073 
 2557      686F7274 
 2558 0309 01       		.byte	0x1
 2559 030a 00       		.uleb128 0
 2560 030b 5F5F5749 		.ascii "__WINT_TYPE__ short unsigned int\0"
 2560      4E545F54 
 2560      5950455F 
 2560      5F207368 
GAS LISTING C:\Users\PRESID~1\AppData\Local\Temp\ccR9pTsK.s 			page 68


 2560      6F727420 
 2561 032c 01       		.byte	0x1
 2562 032d 00       		.uleb128 0
 2563 032e 5F5F494E 		.ascii "__INTMAX_TYPE__ long long int\0"
 2563      544D4158 
 2563      5F545950 
 2563      455F5F20 
 2563      6C6F6E67 
 2564 034c 01       		.byte	0x1
 2565 034d 00       		.uleb128 0
 2566 034e 5F5F5549 		.ascii "__UINTMAX_TYPE__ long long unsigned int\0"
 2566      4E544D41 
 2566      585F5459 
 2566      50455F5F 
 2566      206C6F6E 
 2567 0376 01       		.byte	0x1
 2568 0377 00       		.uleb128 0
 2569 0378 5F5F4348 		.ascii "__CHAR16_TYPE__ short unsigned int\0"
 2569      41523136 
 2569      5F545950 
 2569      455F5F20 
 2569      73686F72 
 2570 039b 01       		.byte	0x1
 2571 039c 00       		.uleb128 0
 2572 039d 5F5F4348 		.ascii "__CHAR32_TYPE__ unsigned int\0"
 2572      41523332 
 2572      5F545950 
 2572      455F5F20 
 2572      756E7369 
 2573 03ba 01       		.byte	0x1
 2574 03bb 00       		.uleb128 0
 2575 03bc 5F5F5349 		.ascii "__SIG_ATOMIC_TYPE__ int\0"
 2575      475F4154 
 2575      4F4D4943 
 2575      5F545950 
 2575      455F5F20 
 2576 03d4 01       		.byte	0x1
 2577 03d5 00       		.uleb128 0
 2578 03d6 5F5F494E 		.ascii "__INT8_TYPE__ signed char\0"
 2578      54385F54 
 2578      5950455F 
 2578      5F207369 
 2578      676E6564 
 2579 03f0 01       		.byte	0x1
 2580 03f1 00       		.uleb128 0
 2581 03f2 5F5F494E 		.ascii "__INT16_TYPE__ short int\0"
 2581      5431365F 
 2581      54595045 
 2581      5F5F2073 
 2581      686F7274 
 2582 040b 01       		.byte	0x1
 2583 040c 00       		.uleb128 0
 2584 040d 5F5F494E 		.ascii "__INT32_TYPE__ int\0"
 2584      5433325F 
 2584      54595045 
 2584      5F5F2069 
 2584      6E7400
GAS LISTING C:\Users\PRESID~1\AppData\Local\Temp\ccR9pTsK.s 			page 69


 2585 0420 01       		.byte	0x1
 2586 0421 00       		.uleb128 0
 2587 0422 5F5F494E 		.ascii "__INT64_TYPE__ long long int\0"
 2587      5436345F 
 2587      54595045 
 2587      5F5F206C 
 2587      6F6E6720 
 2588 043f 01       		.byte	0x1
 2589 0440 00       		.uleb128 0
 2590 0441 5F5F5549 		.ascii "__UINT8_TYPE__ unsigned char\0"
 2590      4E54385F 
 2590      54595045 
 2590      5F5F2075 
 2590      6E736967 
 2591 045e 01       		.byte	0x1
 2592 045f 00       		.uleb128 0
 2593 0460 5F5F5549 		.ascii "__UINT16_TYPE__ short unsigned int\0"
 2593      4E543136 
 2593      5F545950 
 2593      455F5F20 
 2593      73686F72 
 2594 0483 01       		.byte	0x1
 2595 0484 00       		.uleb128 0
 2596 0485 5F5F5549 		.ascii "__UINT32_TYPE__ unsigned int\0"
 2596      4E543332 
 2596      5F545950 
 2596      455F5F20 
 2596      756E7369 
 2597 04a2 01       		.byte	0x1
 2598 04a3 00       		.uleb128 0
 2599 04a4 5F5F5549 		.ascii "__UINT64_TYPE__ long long unsigned int\0"
 2599      4E543634 
 2599      5F545950 
 2599      455F5F20 
 2599      6C6F6E67 
 2600 04cb 01       		.byte	0x1
 2601 04cc 00       		.uleb128 0
 2602 04cd 5F5F494E 		.ascii "__INT_LEAST8_TYPE__ signed char\0"
 2602      545F4C45 
 2602      41535438 
 2602      5F545950 
 2602      455F5F20 
 2603 04ed 01       		.byte	0x1
 2604 04ee 00       		.uleb128 0
 2605 04ef 5F5F494E 		.ascii "__INT_LEAST16_TYPE__ short int\0"
 2605      545F4C45 
 2605      41535431 
 2605      365F5459 
 2605      50455F5F 
 2606 050e 01       		.byte	0x1
 2607 050f 00       		.uleb128 0
 2608 0510 5F5F494E 		.ascii "__INT_LEAST32_TYPE__ int\0"
 2608      545F4C45 
 2608      41535433 
 2608      325F5459 
 2608      50455F5F 
 2609 0529 01       		.byte	0x1
GAS LISTING C:\Users\PRESID~1\AppData\Local\Temp\ccR9pTsK.s 			page 70


 2610 052a 00       		.uleb128 0
 2611 052b 5F5F494E 		.ascii "__INT_LEAST64_TYPE__ long long int\0"
 2611      545F4C45 
 2611      41535436 
 2611      345F5459 
 2611      50455F5F 
 2612 054e 01       		.byte	0x1
 2613 054f 00       		.uleb128 0
 2614 0550 5F5F5549 		.ascii "__UINT_LEAST8_TYPE__ unsigned char\0"
 2614      4E545F4C 
 2614      45415354 
 2614      385F5459 
 2614      50455F5F 
 2615 0573 01       		.byte	0x1
 2616 0574 00       		.uleb128 0
 2617 0575 5F5F5549 		.ascii "__UINT_LEAST16_TYPE__ short unsigned int\0"
 2617      4E545F4C 
 2617      45415354 
 2617      31365F54 
 2617      5950455F 
 2618 059e 01       		.byte	0x1
 2619 059f 00       		.uleb128 0
 2620 05a0 5F5F5549 		.ascii "__UINT_LEAST32_TYPE__ unsigned int\0"
 2620      4E545F4C 
 2620      45415354 
 2620      33325F54 
 2620      5950455F 
 2621 05c3 01       		.byte	0x1
 2622 05c4 00       		.uleb128 0
 2623 05c5 5F5F5549 		.ascii "__UINT_LEAST64_TYPE__ long long unsigned int\0"
 2623      4E545F4C 
 2623      45415354 
 2623      36345F54 
 2623      5950455F 
 2624 05f2 01       		.byte	0x1
 2625 05f3 00       		.uleb128 0
 2626 05f4 5F5F494E 		.ascii "__INT_FAST8_TYPE__ signed char\0"
 2626      545F4641 
 2626      5354385F 
 2626      54595045 
 2626      5F5F2073 
 2627 0613 01       		.byte	0x1
 2628 0614 00       		.uleb128 0
 2629 0615 5F5F494E 		.ascii "__INT_FAST16_TYPE__ short int\0"
 2629      545F4641 
 2629      53543136 
 2629      5F545950 
 2629      455F5F20 
 2630 0633 01       		.byte	0x1
 2631 0634 00       		.uleb128 0
 2632 0635 5F5F494E 		.ascii "__INT_FAST32_TYPE__ int\0"
 2632      545F4641 
 2632      53543332 
 2632      5F545950 
 2632      455F5F20 
 2633 064d 01       		.byte	0x1
 2634 064e 00       		.uleb128 0
GAS LISTING C:\Users\PRESID~1\AppData\Local\Temp\ccR9pTsK.s 			page 71


 2635 064f 5F5F494E 		.ascii "__INT_FAST64_TYPE__ long long int\0"
 2635      545F4641 
 2635      53543634 
 2635      5F545950 
 2635      455F5F20 
 2636 0671 01       		.byte	0x1
 2637 0672 00       		.uleb128 0
 2638 0673 5F5F5549 		.ascii "__UINT_FAST8_TYPE__ unsigned char\0"
 2638      4E545F46 
 2638      41535438 
 2638      5F545950 
 2638      455F5F20 
 2639 0695 01       		.byte	0x1
 2640 0696 00       		.uleb128 0
 2641 0697 5F5F5549 		.ascii "__UINT_FAST16_TYPE__ short unsigned int\0"
 2641      4E545F46 
 2641      41535431 
 2641      365F5459 
 2641      50455F5F 
 2642 06bf 01       		.byte	0x1
 2643 06c0 00       		.uleb128 0
 2644 06c1 5F5F5549 		.ascii "__UINT_FAST32_TYPE__ unsigned int\0"
 2644      4E545F46 
 2644      41535433 
 2644      325F5459 
 2644      50455F5F 
 2645 06e3 01       		.byte	0x1
 2646 06e4 00       		.uleb128 0
 2647 06e5 5F5F5549 		.ascii "__UINT_FAST64_TYPE__ long long unsigned int\0"
 2647      4E545F46 
 2647      41535436 
 2647      345F5459 
 2647      50455F5F 
 2648 0711 01       		.byte	0x1
 2649 0712 00       		.uleb128 0
 2650 0713 5F5F494E 		.ascii "__INTPTR_TYPE__ int\0"
 2650      54505452 
 2650      5F545950 
 2650      455F5F20 
 2650      696E7400 
 2651 0727 01       		.byte	0x1
 2652 0728 00       		.uleb128 0
 2653 0729 5F5F5549 		.ascii "__UINTPTR_TYPE__ unsigned int\0"
 2653      4E545054 
 2653      525F5459 
 2653      50455F5F 
 2653      20756E73 
 2654 0747 01       		.byte	0x1
 2655 0748 00       		.uleb128 0
 2656 0749 5F5F6861 		.ascii "__has_include(STR) __has_include__(STR)\0"
 2656      735F696E 
 2656      636C7564 
 2656      65285354 
 2656      5229205F 
 2657 0771 01       		.byte	0x1
 2658 0772 00       		.uleb128 0
 2659 0773 5F5F6861 		.ascii "__has_include_next(STR) __has_include_next__(STR)\0"
GAS LISTING C:\Users\PRESID~1\AppData\Local\Temp\ccR9pTsK.s 			page 72


 2659      735F696E 
 2659      636C7564 
 2659      655F6E65 
 2659      78742853 
 2660 07a5 01       		.byte	0x1
 2661 07a6 00       		.uleb128 0
 2662 07a7 5F5F4758 		.ascii "__GXX_ABI_VERSION 1002\0"
 2662      585F4142 
 2662      495F5645 
 2662      5253494F 
 2662      4E203130 
 2663 07be 01       		.byte	0x1
 2664 07bf 00       		.uleb128 0
 2665 07c0 5F5F5343 		.ascii "__SCHAR_MAX__ 127\0"
 2665      4841525F 
 2665      4D41585F 
 2665      5F203132 
 2665      3700
 2666 07d2 01       		.byte	0x1
 2667 07d3 00       		.uleb128 0
 2668 07d4 5F5F5348 		.ascii "__SHRT_MAX__ 32767\0"
 2668      52545F4D 
 2668      41585F5F 
 2668      20333237 
 2668      363700
 2669 07e7 01       		.byte	0x1
 2670 07e8 00       		.uleb128 0
 2671 07e9 5F5F494E 		.ascii "__INT_MAX__ 2147483647\0"
 2671      545F4D41 
 2671      585F5F20 
 2671      32313437 
 2671      34383336 
 2672 0800 01       		.byte	0x1
 2673 0801 00       		.uleb128 0
 2674 0802 5F5F4C4F 		.ascii "__LONG_MAX__ 2147483647L\0"
 2674      4E475F4D 
 2674      41585F5F 
 2674      20323134 
 2674      37343833 
 2675 081b 01       		.byte	0x1
 2676 081c 00       		.uleb128 0
 2677 081d 5F5F4C4F 		.ascii "__LONG_LONG_MAX__ 9223372036854775807LL\0"
 2677      4E475F4C 
 2677      4F4E475F 
 2677      4D41585F 
 2677      5F203932 
 2678 0845 01       		.byte	0x1
 2679 0846 00       		.uleb128 0
 2680 0847 5F5F5743 		.ascii "__WCHAR_MAX__ 65535\0"
 2680      4841525F 
 2680      4D41585F 
 2680      5F203635 
 2680      35333500 
 2681 085b 01       		.byte	0x1
 2682 085c 00       		.uleb128 0
 2683 085d 5F5F5743 		.ascii "__WCHAR_MIN__ 0\0"
 2683      4841525F 
GAS LISTING C:\Users\PRESID~1\AppData\Local\Temp\ccR9pTsK.s 			page 73


 2683      4D494E5F 
 2683      5F203000 
 2684 086d 01       		.byte	0x1
 2685 086e 00       		.uleb128 0
 2686 086f 5F5F5749 		.ascii "__WINT_MAX__ 65535\0"
 2686      4E545F4D 
 2686      41585F5F 
 2686      20363535 
 2686      333500
 2687 0882 01       		.byte	0x1
 2688 0883 00       		.uleb128 0
 2689 0884 5F5F5749 		.ascii "__WINT_MIN__ 0\0"
 2689      4E545F4D 
 2689      494E5F5F 
 2689      203000
 2690 0893 01       		.byte	0x1
 2691 0894 00       		.uleb128 0
 2692 0895 5F5F5054 		.ascii "__PTRDIFF_MAX__ 2147483647\0"
 2692      52444946 
 2692      465F4D41 
 2692      585F5F20 
 2692      32313437 
 2693 08b0 01       		.byte	0x1
 2694 08b1 00       		.uleb128 0
 2695 08b2 5F5F5349 		.ascii "__SIZE_MAX__ 4294967295U\0"
 2695      5A455F4D 
 2695      41585F5F 
 2695      20343239 
 2695      34393637 
 2696 08cb 01       		.byte	0x1
 2697 08cc 00       		.uleb128 0
 2698 08cd 5F5F494E 		.ascii "__INTMAX_MAX__ 9223372036854775807LL\0"
 2698      544D4158 
 2698      5F4D4158 
 2698      5F5F2039 
 2698      32323333 
 2699 08f2 01       		.byte	0x1
 2700 08f3 00       		.uleb128 0
 2701 08f4 5F5F494E 		.ascii "__INTMAX_C(c) c ## LL\0"
 2701      544D4158 
 2701      5F432863 
 2701      29206320 
 2701      2323204C 
 2702 090a 01       		.byte	0x1
 2703 090b 00       		.uleb128 0
 2704 090c 5F5F5549 		.ascii "__UINTMAX_MAX__ 18446744073709551615ULL\0"
 2704      4E544D41 
 2704      585F4D41 
 2704      585F5F20 
 2704      31383434 
 2705 0934 01       		.byte	0x1
 2706 0935 00       		.uleb128 0
 2707 0936 5F5F5549 		.ascii "__UINTMAX_C(c) c ## ULL\0"
 2707      4E544D41 
 2707      585F4328 
 2707      63292063 
 2707      20232320 
GAS LISTING C:\Users\PRESID~1\AppData\Local\Temp\ccR9pTsK.s 			page 74


 2708 094e 01       		.byte	0x1
 2709 094f 00       		.uleb128 0
 2710 0950 5F5F5349 		.ascii "__SIG_ATOMIC_MAX__ 2147483647\0"
 2710      475F4154 
 2710      4F4D4943 
 2710      5F4D4158 
 2710      5F5F2032 
 2711 096e 01       		.byte	0x1
 2712 096f 00       		.uleb128 0
 2713 0970 5F5F5349 		.ascii "__SIG_ATOMIC_MIN__ (-__SIG_ATOMIC_MAX__ - 1)\0"
 2713      475F4154 
 2713      4F4D4943 
 2713      5F4D494E 
 2713      5F5F2028 
 2714 099d 01       		.byte	0x1
 2715 099e 00       		.uleb128 0
 2716 099f 5F5F494E 		.ascii "__INT8_MAX__ 127\0"
 2716      54385F4D 
 2716      41585F5F 
 2716      20313237 
 2716      00
 2717 09b0 01       		.byte	0x1
 2718 09b1 00       		.uleb128 0
 2719 09b2 5F5F494E 		.ascii "__INT16_MAX__ 32767\0"
 2719      5431365F 
 2719      4D41585F 
 2719      5F203332 
 2719      37363700 
 2720 09c6 01       		.byte	0x1
 2721 09c7 00       		.uleb128 0
 2722 09c8 5F5F494E 		.ascii "__INT32_MAX__ 2147483647\0"
 2722      5433325F 
 2722      4D41585F 
 2722      5F203231 
 2722      34373438 
 2723 09e1 01       		.byte	0x1
 2724 09e2 00       		.uleb128 0
 2725 09e3 5F5F494E 		.ascii "__INT64_MAX__ 9223372036854775807LL\0"
 2725      5436345F 
 2725      4D41585F 
 2725      5F203932 
 2725      32333337 
 2726 0a07 01       		.byte	0x1
 2727 0a08 00       		.uleb128 0
 2728 0a09 5F5F5549 		.ascii "__UINT8_MAX__ 255\0"
 2728      4E54385F 
 2728      4D41585F 
 2728      5F203235 
 2728      3500
 2729 0a1b 01       		.byte	0x1
 2730 0a1c 00       		.uleb128 0
 2731 0a1d 5F5F5549 		.ascii "__UINT16_MAX__ 65535\0"
 2731      4E543136 
 2731      5F4D4158 
 2731      5F5F2036 
 2731      35353335 
 2732 0a32 01       		.byte	0x1
GAS LISTING C:\Users\PRESID~1\AppData\Local\Temp\ccR9pTsK.s 			page 75


 2733 0a33 00       		.uleb128 0
 2734 0a34 5F5F5549 		.ascii "__UINT32_MAX__ 4294967295U\0"
 2734      4E543332 
 2734      5F4D4158 
 2734      5F5F2034 
 2734      32393439 
 2735 0a4f 01       		.byte	0x1
 2736 0a50 00       		.uleb128 0
 2737 0a51 5F5F5549 		.ascii "__UINT64_MAX__ 18446744073709551615ULL\0"
 2737      4E543634 
 2737      5F4D4158 
 2737      5F5F2031 
 2737      38343436 
 2738 0a78 01       		.byte	0x1
 2739 0a79 00       		.uleb128 0
 2740 0a7a 5F5F494E 		.ascii "__INT_LEAST8_MAX__ 127\0"
 2740      545F4C45 
 2740      41535438 
 2740      5F4D4158 
 2740      5F5F2031 
 2741 0a91 01       		.byte	0x1
 2742 0a92 00       		.uleb128 0
 2743 0a93 5F5F494E 		.ascii "__INT8_C(c) c\0"
 2743      54385F43 
 2743      28632920 
 2743      6300
 2744 0aa1 01       		.byte	0x1
 2745 0aa2 00       		.uleb128 0
 2746 0aa3 5F5F494E 		.ascii "__INT_LEAST16_MAX__ 32767\0"
 2746      545F4C45 
 2746      41535431 
 2746      365F4D41 
 2746      585F5F20 
 2747 0abd 01       		.byte	0x1
 2748 0abe 00       		.uleb128 0
 2749 0abf 5F5F494E 		.ascii "__INT16_C(c) c\0"
 2749      5431365F 
 2749      43286329 
 2749      206300
 2750 0ace 01       		.byte	0x1
 2751 0acf 00       		.uleb128 0
 2752 0ad0 5F5F494E 		.ascii "__INT_LEAST32_MAX__ 2147483647\0"
 2752      545F4C45 
 2752      41535433 
 2752      325F4D41 
 2752      585F5F20 
 2753 0aef 01       		.byte	0x1
 2754 0af0 00       		.uleb128 0
 2755 0af1 5F5F494E 		.ascii "__INT32_C(c) c\0"
 2755      5433325F 
 2755      43286329 
 2755      206300
 2756 0b00 01       		.byte	0x1
 2757 0b01 00       		.uleb128 0
 2758 0b02 5F5F494E 		.ascii "__INT_LEAST64_MAX__ 9223372036854775807LL\0"
 2758      545F4C45 
 2758      41535436 
GAS LISTING C:\Users\PRESID~1\AppData\Local\Temp\ccR9pTsK.s 			page 76


 2758      345F4D41 
 2758      585F5F20 
 2759 0b2c 01       		.byte	0x1
 2760 0b2d 00       		.uleb128 0
 2761 0b2e 5F5F494E 		.ascii "__INT64_C(c) c ## LL\0"
 2761      5436345F 
 2761      43286329 
 2761      20632023 
 2761      23204C4C 
 2762 0b43 01       		.byte	0x1
 2763 0b44 00       		.uleb128 0
 2764 0b45 5F5F5549 		.ascii "__UINT_LEAST8_MAX__ 255\0"
 2764      4E545F4C 
 2764      45415354 
 2764      385F4D41 
 2764      585F5F20 
 2765 0b5d 01       		.byte	0x1
 2766 0b5e 00       		.uleb128 0
 2767 0b5f 5F5F5549 		.ascii "__UINT8_C(c) c\0"
 2767      4E54385F 
 2767      43286329 
 2767      206300
 2768 0b6e 01       		.byte	0x1
 2769 0b6f 00       		.uleb128 0
 2770 0b70 5F5F5549 		.ascii "__UINT_LEAST16_MAX__ 65535\0"
 2770      4E545F4C 
 2770      45415354 
 2770      31365F4D 
 2770      41585F5F 
 2771 0b8b 01       		.byte	0x1
 2772 0b8c 00       		.uleb128 0
 2773 0b8d 5F5F5549 		.ascii "__UINT16_C(c) c\0"
 2773      4E543136 
 2773      5F432863 
 2773      29206300 
 2774 0b9d 01       		.byte	0x1
 2775 0b9e 00       		.uleb128 0
 2776 0b9f 5F5F5549 		.ascii "__UINT_LEAST32_MAX__ 4294967295U\0"
 2776      4E545F4C 
 2776      45415354 
 2776      33325F4D 
 2776      41585F5F 
 2777 0bc0 01       		.byte	0x1
 2778 0bc1 00       		.uleb128 0
 2779 0bc2 5F5F5549 		.ascii "__UINT32_C(c) c ## U\0"
 2779      4E543332 
 2779      5F432863 
 2779      29206320 
 2779      23232055 
 2780 0bd7 01       		.byte	0x1
 2781 0bd8 00       		.uleb128 0
 2782 0bd9 5F5F5549 		.ascii "__UINT_LEAST64_MAX__ 18446744073709551615ULL\0"
 2782      4E545F4C 
 2782      45415354 
 2782      36345F4D 
 2782      41585F5F 
 2783 0c06 01       		.byte	0x1
GAS LISTING C:\Users\PRESID~1\AppData\Local\Temp\ccR9pTsK.s 			page 77


 2784 0c07 00       		.uleb128 0
 2785 0c08 5F5F5549 		.ascii "__UINT64_C(c) c ## ULL\0"
 2785      4E543634 
 2785      5F432863 
 2785      29206320 
 2785      23232055 
 2786 0c1f 01       		.byte	0x1
 2787 0c20 00       		.uleb128 0
 2788 0c21 5F5F494E 		.ascii "__INT_FAST8_MAX__ 127\0"
 2788      545F4641 
 2788      5354385F 
 2788      4D41585F 
 2788      5F203132 
 2789 0c37 01       		.byte	0x1
 2790 0c38 00       		.uleb128 0
 2791 0c39 5F5F494E 		.ascii "__INT_FAST16_MAX__ 32767\0"
 2791      545F4641 
 2791      53543136 
 2791      5F4D4158 
 2791      5F5F2033 
 2792 0c52 01       		.byte	0x1
 2793 0c53 00       		.uleb128 0
 2794 0c54 5F5F494E 		.ascii "__INT_FAST32_MAX__ 2147483647\0"
 2794      545F4641 
 2794      53543332 
 2794      5F4D4158 
 2794      5F5F2032 
 2795 0c72 01       		.byte	0x1
 2796 0c73 00       		.uleb128 0
 2797 0c74 5F5F494E 		.ascii "__INT_FAST64_MAX__ 9223372036854775807LL\0"
 2797      545F4641 
 2797      53543634 
 2797      5F4D4158 
 2797      5F5F2039 
 2798 0c9d 01       		.byte	0x1
 2799 0c9e 00       		.uleb128 0
 2800 0c9f 5F5F5549 		.ascii "__UINT_FAST8_MAX__ 255\0"
 2800      4E545F46 
 2800      41535438 
 2800      5F4D4158 
 2800      5F5F2032 
 2801 0cb6 01       		.byte	0x1
 2802 0cb7 00       		.uleb128 0
 2803 0cb8 5F5F5549 		.ascii "__UINT_FAST16_MAX__ 65535\0"
 2803      4E545F46 
 2803      41535431 
 2803      365F4D41 
 2803      585F5F20 
 2804 0cd2 01       		.byte	0x1
 2805 0cd3 00       		.uleb128 0
 2806 0cd4 5F5F5549 		.ascii "__UINT_FAST32_MAX__ 4294967295U\0"
 2806      4E545F46 
 2806      41535433 
 2806      325F4D41 
 2806      585F5F20 
 2807 0cf4 01       		.byte	0x1
 2808 0cf5 00       		.uleb128 0
GAS LISTING C:\Users\PRESID~1\AppData\Local\Temp\ccR9pTsK.s 			page 78


 2809 0cf6 5F5F5549 		.ascii "__UINT_FAST64_MAX__ 18446744073709551615ULL\0"
 2809      4E545F46 
 2809      41535436 
 2809      345F4D41 
 2809      585F5F20 
 2810 0d22 01       		.byte	0x1
 2811 0d23 00       		.uleb128 0
 2812 0d24 5F5F494E 		.ascii "__INTPTR_MAX__ 2147483647\0"
 2812      54505452 
 2812      5F4D4158 
 2812      5F5F2032 
 2812      31343734 
 2813 0d3e 01       		.byte	0x1
 2814 0d3f 00       		.uleb128 0
 2815 0d40 5F5F5549 		.ascii "__UINTPTR_MAX__ 4294967295U\0"
 2815      4E545054 
 2815      525F4D41 
 2815      585F5F20 
 2815      34323934 
 2816 0d5c 01       		.byte	0x1
 2817 0d5d 00       		.uleb128 0
 2818 0d5e 5F5F4743 		.ascii "__GCC_IEC_559 2\0"
 2818      435F4945 
 2818      435F3535 
 2818      39203200 
 2819 0d6e 01       		.byte	0x1
 2820 0d6f 00       		.uleb128 0
 2821 0d70 5F5F4743 		.ascii "__GCC_IEC_559_COMPLEX 2\0"
 2821      435F4945 
 2821      435F3535 
 2821      395F434F 
 2821      4D504C45 
 2822 0d88 01       		.byte	0x1
 2823 0d89 00       		.uleb128 0
 2824 0d8a 5F5F464C 		.ascii "__FLT_EVAL_METHOD__ 2\0"
 2824      545F4556 
 2824      414C5F4D 
 2824      4554484F 
 2824      445F5F20 
 2825 0da0 01       		.byte	0x1
 2826 0da1 00       		.uleb128 0
 2827 0da2 5F5F4445 		.ascii "__DEC_EVAL_METHOD__ 2\0"
 2827      435F4556 
 2827      414C5F4D 
 2827      4554484F 
 2827      445F5F20 
 2828 0db8 01       		.byte	0x1
 2829 0db9 00       		.uleb128 0
 2830 0dba 5F5F464C 		.ascii "__FLT_RADIX__ 2\0"
 2830      545F5241 
 2830      4449585F 
 2830      5F203200 
 2831 0dca 01       		.byte	0x1
 2832 0dcb 00       		.uleb128 0
 2833 0dcc 5F5F464C 		.ascii "__FLT_MANT_DIG__ 24\0"
 2833      545F4D41 
 2833      4E545F44 
GAS LISTING C:\Users\PRESID~1\AppData\Local\Temp\ccR9pTsK.s 			page 79


 2833      49475F5F 
 2833      20323400 
 2834 0de0 01       		.byte	0x1
 2835 0de1 00       		.uleb128 0
 2836 0de2 5F5F464C 		.ascii "__FLT_DIG__ 6\0"
 2836      545F4449 
 2836      475F5F20 
 2836      3600
 2837 0df0 01       		.byte	0x1
 2838 0df1 00       		.uleb128 0
 2839 0df2 5F5F464C 		.ascii "__FLT_MIN_EXP__ (-125)\0"
 2839      545F4D49 
 2839      4E5F4558 
 2839      505F5F20 
 2839      282D3132 
 2840 0e09 01       		.byte	0x1
 2841 0e0a 00       		.uleb128 0
 2842 0e0b 5F5F464C 		.ascii "__FLT_MIN_10_EXP__ (-37)\0"
 2842      545F4D49 
 2842      4E5F3130 
 2842      5F455850 
 2842      5F5F2028 
 2843 0e24 01       		.byte	0x1
 2844 0e25 00       		.uleb128 0
 2845 0e26 5F5F464C 		.ascii "__FLT_MAX_EXP__ 128\0"
 2845      545F4D41 
 2845      585F4558 
 2845      505F5F20 
 2845      31323800 
 2846 0e3a 01       		.byte	0x1
 2847 0e3b 00       		.uleb128 0
 2848 0e3c 5F5F464C 		.ascii "__FLT_MAX_10_EXP__ 38\0"
 2848      545F4D41 
 2848      585F3130 
 2848      5F455850 
 2848      5F5F2033 
 2849 0e52 01       		.byte	0x1
 2850 0e53 00       		.uleb128 0
 2851 0e54 5F5F464C 		.ascii "__FLT_DECIMAL_DIG__ 9\0"
 2851      545F4445 
 2851      43494D41 
 2851      4C5F4449 
 2851      475F5F20 
 2852 0e6a 01       		.byte	0x1
 2853 0e6b 00       		.uleb128 0
 2854 0e6c 5F5F464C 		.ascii "__FLT_MAX__ 3.40282346638528859812e+38F\0"
 2854      545F4D41 
 2854      585F5F20 
 2854      332E3430 
 2854      32383233 
 2855 0e94 01       		.byte	0x1
 2856 0e95 00       		.uleb128 0
 2857 0e96 5F5F464C 		.ascii "__FLT_MIN__ 1.17549435082228750797e-38F\0"
 2857      545F4D49 
 2857      4E5F5F20 
 2857      312E3137 
 2857      35343934 
GAS LISTING C:\Users\PRESID~1\AppData\Local\Temp\ccR9pTsK.s 			page 80


 2858 0ebe 01       		.byte	0x1
 2859 0ebf 00       		.uleb128 0
 2860 0ec0 5F5F464C 		.ascii "__FLT_EPSILON__ 1.19209289550781250000e-7F\0"
 2860      545F4550 
 2860      53494C4F 
 2860      4E5F5F20 
 2860      312E3139 
 2861 0eeb 01       		.byte	0x1
 2862 0eec 00       		.uleb128 0
 2863 0eed 5F5F464C 		.ascii "__FLT_DENORM_MIN__ 1.40129846432481707092e-45F\0"
 2863      545F4445 
 2863      4E4F524D 
 2863      5F4D494E 
 2863      5F5F2031 
 2864 0f1c 01       		.byte	0x1
 2865 0f1d 00       		.uleb128 0
 2866 0f1e 5F5F464C 		.ascii "__FLT_HAS_DENORM__ 1\0"
 2866      545F4841 
 2866      535F4445 
 2866      4E4F524D 
 2866      5F5F2031 
 2867 0f33 01       		.byte	0x1
 2868 0f34 00       		.uleb128 0
 2869 0f35 5F5F464C 		.ascii "__FLT_HAS_INFINITY__ 1\0"
 2869      545F4841 
 2869      535F494E 
 2869      46494E49 
 2869      54595F5F 
 2870 0f4c 01       		.byte	0x1
 2871 0f4d 00       		.uleb128 0
 2872 0f4e 5F5F464C 		.ascii "__FLT_HAS_QUIET_NAN__ 1\0"
 2872      545F4841 
 2872      535F5155 
 2872      4945545F 
 2872      4E414E5F 
 2873 0f66 01       		.byte	0x1
 2874 0f67 00       		.uleb128 0
 2875 0f68 5F5F4442 		.ascii "__DBL_MANT_DIG__ 53\0"
 2875      4C5F4D41 
 2875      4E545F44 
 2875      49475F5F 
 2875      20353300 
 2876 0f7c 01       		.byte	0x1
 2877 0f7d 00       		.uleb128 0
 2878 0f7e 5F5F4442 		.ascii "__DBL_DIG__ 15\0"
 2878      4C5F4449 
 2878      475F5F20 
 2878      313500
 2879 0f8d 01       		.byte	0x1
 2880 0f8e 00       		.uleb128 0
 2881 0f8f 5F5F4442 		.ascii "__DBL_MIN_EXP__ (-1021)\0"
 2881      4C5F4D49 
 2881      4E5F4558 
 2881      505F5F20 
 2881      282D3130 
 2882 0fa7 01       		.byte	0x1
 2883 0fa8 00       		.uleb128 0
GAS LISTING C:\Users\PRESID~1\AppData\Local\Temp\ccR9pTsK.s 			page 81


 2884 0fa9 5F5F4442 		.ascii "__DBL_MIN_10_EXP__ (-307)\0"
 2884      4C5F4D49 
 2884      4E5F3130 
 2884      5F455850 
 2884      5F5F2028 
 2885 0fc3 01       		.byte	0x1
 2886 0fc4 00       		.uleb128 0
 2887 0fc5 5F5F4442 		.ascii "__DBL_MAX_EXP__ 1024\0"
 2887      4C5F4D41 
 2887      585F4558 
 2887      505F5F20 
 2887      31303234 
 2888 0fda 01       		.byte	0x1
 2889 0fdb 00       		.uleb128 0
 2890 0fdc 5F5F4442 		.ascii "__DBL_MAX_10_EXP__ 308\0"
 2890      4C5F4D41 
 2890      585F3130 
 2890      5F455850 
 2890      5F5F2033 
 2891 0ff3 01       		.byte	0x1
 2892 0ff4 00       		.uleb128 0
 2893 0ff5 5F5F4442 		.ascii "__DBL_DECIMAL_DIG__ 17\0"
 2893      4C5F4445 
 2893      43494D41 
 2893      4C5F4449 
 2893      475F5F20 
 2894 100c 01       		.byte	0x1
 2895 100d 00       		.uleb128 0
 2896 100e 5F5F4442 		.ascii "__DBL_MAX__ ((double)1.79769313486231570815e+308L)\0"
 2896      4C5F4D41 
 2896      585F5F20 
 2896      2828646F 
 2896      75626C65 
 2897 1041 01       		.byte	0x1
 2898 1042 00       		.uleb128 0
 2899 1043 5F5F4442 		.ascii "__DBL_MIN__ ((double)2.22507385850720138309e-308L)\0"
 2899      4C5F4D49 
 2899      4E5F5F20 
 2899      2828646F 
 2899      75626C65 
 2900 1076 01       		.byte	0x1
 2901 1077 00       		.uleb128 0
 2902 1078 5F5F4442 		.ascii "__DBL_EPSILON__ ((double)2.22044604925031308085e-16L)\0"
 2902      4C5F4550 
 2902      53494C4F 
 2902      4E5F5F20 
 2902      2828646F 
 2903 10ae 01       		.byte	0x1
 2904 10af 00       		.uleb128 0
 2905 10b0 5F5F4442 		.ascii "__DBL_DENORM_MIN__ ((double)4.94065645841246544177e-324L)\0"
 2905      4C5F4445 
 2905      4E4F524D 
 2905      5F4D494E 
 2905      5F5F2028 
 2906 10ea 01       		.byte	0x1
 2907 10eb 00       		.uleb128 0
 2908 10ec 5F5F4442 		.ascii "__DBL_HAS_DENORM__ 1\0"
GAS LISTING C:\Users\PRESID~1\AppData\Local\Temp\ccR9pTsK.s 			page 82


 2908      4C5F4841 
 2908      535F4445 
 2908      4E4F524D 
 2908      5F5F2031 
 2909 1101 01       		.byte	0x1
 2910 1102 00       		.uleb128 0
 2911 1103 5F5F4442 		.ascii "__DBL_HAS_INFINITY__ 1\0"
 2911      4C5F4841 
 2911      535F494E 
 2911      46494E49 
 2911      54595F5F 
 2912 111a 01       		.byte	0x1
 2913 111b 00       		.uleb128 0
 2914 111c 5F5F4442 		.ascii "__DBL_HAS_QUIET_NAN__ 1\0"
 2914      4C5F4841 
 2914      535F5155 
 2914      4945545F 
 2914      4E414E5F 
 2915 1134 01       		.byte	0x1
 2916 1135 00       		.uleb128 0
 2917 1136 5F5F4C44 		.ascii "__LDBL_MANT_DIG__ 64\0"
 2917      424C5F4D 
 2917      414E545F 
 2917      4449475F 
 2917      5F203634 
 2918 114b 01       		.byte	0x1
 2919 114c 00       		.uleb128 0
 2920 114d 5F5F4C44 		.ascii "__LDBL_DIG__ 18\0"
 2920      424C5F44 
 2920      49475F5F 
 2920      20313800 
 2921 115d 01       		.byte	0x1
 2922 115e 00       		.uleb128 0
 2923 115f 5F5F4C44 		.ascii "__LDBL_MIN_EXP__ (-16381)\0"
 2923      424C5F4D 
 2923      494E5F45 
 2923      58505F5F 
 2923      20282D31 
 2924 1179 01       		.byte	0x1
 2925 117a 00       		.uleb128 0
 2926 117b 5F5F4C44 		.ascii "__LDBL_MIN_10_EXP__ (-4931)\0"
 2926      424C5F4D 
 2926      494E5F31 
 2926      305F4558 
 2926      505F5F20 
 2927 1197 01       		.byte	0x1
 2928 1198 00       		.uleb128 0
 2929 1199 5F5F4C44 		.ascii "__LDBL_MAX_EXP__ 16384\0"
 2929      424C5F4D 
 2929      41585F45 
 2929      58505F5F 
 2929      20313633 
 2930 11b0 01       		.byte	0x1
 2931 11b1 00       		.uleb128 0
 2932 11b2 5F5F4C44 		.ascii "__LDBL_MAX_10_EXP__ 4932\0"
 2932      424C5F4D 
 2932      41585F31 
GAS LISTING C:\Users\PRESID~1\AppData\Local\Temp\ccR9pTsK.s 			page 83


 2932      305F4558 
 2932      505F5F20 
 2933 11cb 01       		.byte	0x1
 2934 11cc 00       		.uleb128 0
 2935 11cd 5F5F4445 		.ascii "__DECIMAL_DIG__ 21\0"
 2935      43494D41 
 2935      4C5F4449 
 2935      475F5F20 
 2935      323100
 2936 11e0 01       		.byte	0x1
 2937 11e1 00       		.uleb128 0
 2938 11e2 5F5F4C44 		.ascii "__LDBL_MAX__ 1.18973149535723176502e+4932L\0"
 2938      424C5F4D 
 2938      41585F5F 
 2938      20312E31 
 2938      38393733 
 2939 120d 01       		.byte	0x1
 2940 120e 00       		.uleb128 0
 2941 120f 5F5F4C44 		.ascii "__LDBL_MIN__ 3.36210314311209350626e-4932L\0"
 2941      424C5F4D 
 2941      494E5F5F 
 2941      20332E33 
 2941      36323130 
 2942 123a 01       		.byte	0x1
 2943 123b 00       		.uleb128 0
 2944 123c 5F5F4C44 		.ascii "__LDBL_EPSILON__ 1.08420217248550443401e-19L\0"
 2944      424C5F45 
 2944      5053494C 
 2944      4F4E5F5F 
 2944      20312E30 
 2945 1269 01       		.byte	0x1
 2946 126a 00       		.uleb128 0
 2947 126b 5F5F4C44 		.ascii "__LDBL_DENORM_MIN__ 3.64519953188247460253e-4951L\0"
 2947      424C5F44 
 2947      454E4F52 
 2947      4D5F4D49 
 2947      4E5F5F20 
 2948 129d 01       		.byte	0x1
 2949 129e 00       		.uleb128 0
 2950 129f 5F5F4C44 		.ascii "__LDBL_HAS_DENORM__ 1\0"
 2950      424C5F48 
 2950      41535F44 
 2950      454E4F52 
 2950      4D5F5F20 
 2951 12b5 01       		.byte	0x1
 2952 12b6 00       		.uleb128 0
 2953 12b7 5F5F4C44 		.ascii "__LDBL_HAS_INFINITY__ 1\0"
 2953      424C5F48 
 2953      41535F49 
 2953      4E46494E 
 2953      4954595F 
 2954 12cf 01       		.byte	0x1
 2955 12d0 00       		.uleb128 0
 2956 12d1 5F5F4C44 		.ascii "__LDBL_HAS_QUIET_NAN__ 1\0"
 2956      424C5F48 
 2956      41535F51 
 2956      55494554 
GAS LISTING C:\Users\PRESID~1\AppData\Local\Temp\ccR9pTsK.s 			page 84


 2956      5F4E414E 
 2957 12ea 01       		.byte	0x1
 2958 12eb 00       		.uleb128 0
 2959 12ec 5F5F4445 		.ascii "__DEC32_MANT_DIG__ 7\0"
 2959      4333325F 
 2959      4D414E54 
 2959      5F444947 
 2959      5F5F2037 
 2960 1301 01       		.byte	0x1
 2961 1302 00       		.uleb128 0
 2962 1303 5F5F4445 		.ascii "__DEC32_MIN_EXP__ (-94)\0"
 2962      4333325F 
 2962      4D494E5F 
 2962      4558505F 
 2962      5F20282D 
 2963 131b 01       		.byte	0x1
 2964 131c 00       		.uleb128 0
 2965 131d 5F5F4445 		.ascii "__DEC32_MAX_EXP__ 97\0"
 2965      4333325F 
 2965      4D41585F 
 2965      4558505F 
 2965      5F203937 
 2966 1332 01       		.byte	0x1
 2967 1333 00       		.uleb128 0
 2968 1334 5F5F4445 		.ascii "__DEC32_MIN__ 1E-95DF\0"
 2968      4333325F 
 2968      4D494E5F 
 2968      5F203145 
 2968      2D393544 
 2969 134a 01       		.byte	0x1
 2970 134b 00       		.uleb128 0
 2971 134c 5F5F4445 		.ascii "__DEC32_MAX__ 9.999999E96DF\0"
 2971      4333325F 
 2971      4D41585F 
 2971      5F20392E 
 2971      39393939 
 2972 1368 01       		.byte	0x1
 2973 1369 00       		.uleb128 0
 2974 136a 5F5F4445 		.ascii "__DEC32_EPSILON__ 1E-6DF\0"
 2974      4333325F 
 2974      45505349 
 2974      4C4F4E5F 
 2974      5F203145 
 2975 1383 01       		.byte	0x1
 2976 1384 00       		.uleb128 0
 2977 1385 5F5F4445 		.ascii "__DEC32_SUBNORMAL_MIN__ 0.000001E-95DF\0"
 2977      4333325F 
 2977      5355424E 
 2977      4F524D41 
 2977      4C5F4D49 
 2978 13ac 01       		.byte	0x1
 2979 13ad 00       		.uleb128 0
 2980 13ae 5F5F4445 		.ascii "__DEC64_MANT_DIG__ 16\0"
 2980      4336345F 
 2980      4D414E54 
 2980      5F444947 
 2980      5F5F2031 
GAS LISTING C:\Users\PRESID~1\AppData\Local\Temp\ccR9pTsK.s 			page 85


 2981 13c4 01       		.byte	0x1
 2982 13c5 00       		.uleb128 0
 2983 13c6 5F5F4445 		.ascii "__DEC64_MIN_EXP__ (-382)\0"
 2983      4336345F 
 2983      4D494E5F 
 2983      4558505F 
 2983      5F20282D 
 2984 13df 01       		.byte	0x1
 2985 13e0 00       		.uleb128 0
 2986 13e1 5F5F4445 		.ascii "__DEC64_MAX_EXP__ 385\0"
 2986      4336345F 
 2986      4D41585F 
 2986      4558505F 
 2986      5F203338 
 2987 13f7 01       		.byte	0x1
 2988 13f8 00       		.uleb128 0
 2989 13f9 5F5F4445 		.ascii "__DEC64_MIN__ 1E-383DD\0"
 2989      4336345F 
 2989      4D494E5F 
 2989      5F203145 
 2989      2D333833 
 2990 1410 01       		.byte	0x1
 2991 1411 00       		.uleb128 0
 2992 1412 5F5F4445 		.ascii "__DEC64_MAX__ 9.999999999999999E384DD\0"
 2992      4336345F 
 2992      4D41585F 
 2992      5F20392E 
 2992      39393939 
 2993 1438 01       		.byte	0x1
 2994 1439 00       		.uleb128 0
 2995 143a 5F5F4445 		.ascii "__DEC64_EPSILON__ 1E-15DD\0"
 2995      4336345F 
 2995      45505349 
 2995      4C4F4E5F 
 2995      5F203145 
 2996 1454 01       		.byte	0x1
 2997 1455 00       		.uleb128 0
 2998 1456 5F5F4445 		.ascii "__DEC64_SUBNORMAL_MIN__ 0.000000000000001E-383DD\0"
 2998      4336345F 
 2998      5355424E 
 2998      4F524D41 
 2998      4C5F4D49 
 2999 1487 01       		.byte	0x1
 3000 1488 00       		.uleb128 0
 3001 1489 5F5F4445 		.ascii "__DEC128_MANT_DIG__ 34\0"
 3001      43313238 
 3001      5F4D414E 
 3001      545F4449 
 3001      475F5F20 
 3002 14a0 01       		.byte	0x1
 3003 14a1 00       		.uleb128 0
 3004 14a2 5F5F4445 		.ascii "__DEC128_MIN_EXP__ (-6142)\0"
 3004      43313238 
 3004      5F4D494E 
 3004      5F455850 
 3004      5F5F2028 
 3005 14bd 01       		.byte	0x1
GAS LISTING C:\Users\PRESID~1\AppData\Local\Temp\ccR9pTsK.s 			page 86


 3006 14be 00       		.uleb128 0
 3007 14bf 5F5F4445 		.ascii "__DEC128_MAX_EXP__ 6145\0"
 3007      43313238 
 3007      5F4D4158 
 3007      5F455850 
 3007      5F5F2036 
 3008 14d7 01       		.byte	0x1
 3009 14d8 00       		.uleb128 0
 3010 14d9 5F5F4445 		.ascii "__DEC128_MIN__ 1E-6143DL\0"
 3010      43313238 
 3010      5F4D494E 
 3010      5F5F2031 
 3010      452D3631 
 3011 14f2 01       		.byte	0x1
 3012 14f3 00       		.uleb128 0
 3013 14f4 5F5F4445 		.ascii "__DEC128_MAX__ 9.999999999999999999999999999999999E6144DL\0"
 3013      43313238 
 3013      5F4D4158 
 3013      5F5F2039 
 3013      2E393939 
 3014 152e 01       		.byte	0x1
 3015 152f 00       		.uleb128 0
 3016 1530 5F5F4445 		.ascii "__DEC128_EPSILON__ 1E-33DL\0"
 3016      43313238 
 3016      5F455053 
 3016      494C4F4E 
 3016      5F5F2031 
 3017 154b 01       		.byte	0x1
 3018 154c 00       		.uleb128 0
 3019 154d 5F5F4445 		.ascii "__DEC128_SUBNORMAL_MIN__ 0.000000000000000000000000000000001E-6143DL\0"
 3019      43313238 
 3019      5F535542 
 3019      4E4F524D 
 3019      414C5F4D 
 3020 1592 01       		.byte	0x1
 3021 1593 00       		.uleb128 0
 3022 1594 5F5F5245 		.ascii "__REGISTER_PREFIX__ \0"
 3022      47495354 
 3022      45525F50 
 3022      52454649 
 3022      585F5F20 
 3023 15a9 01       		.byte	0x1
 3024 15aa 00       		.uleb128 0
 3025 15ab 5F5F5553 		.ascii "__USER_LABEL_PREFIX__ _\0"
 3025      45525F4C 
 3025      4142454C 
 3025      5F505245 
 3025      4649585F 
 3026 15c3 01       		.byte	0x1
 3027 15c4 00       		.uleb128 0
 3028 15c5 5F5F474E 		.ascii "__GNUC_GNU_INLINE__ 1\0"
 3028      55435F47 
 3028      4E555F49 
 3028      4E4C494E 
 3028      455F5F20 
 3029 15db 01       		.byte	0x1
 3030 15dc 00       		.uleb128 0
GAS LISTING C:\Users\PRESID~1\AppData\Local\Temp\ccR9pTsK.s 			page 87


 3031 15dd 5F5F4E4F 		.ascii "__NO_INLINE__ 1\0"
 3031      5F494E4C 
 3031      494E455F 
 3031      5F203100 
 3032 15ed 01       		.byte	0x1
 3033 15ee 00       		.uleb128 0
 3034 15ef 5F5F5354 		.ascii "__STRICT_ANSI__ 1\0"
 3034      52494354 
 3034      5F414E53 
 3034      495F5F20 
 3034      3100
 3035 1601 01       		.byte	0x1
 3036 1602 00       		.uleb128 0
 3037 1603 5F5F4743 		.ascii "__GCC_ATOMIC_BOOL_LOCK_FREE 1\0"
 3037      435F4154 
 3037      4F4D4943 
 3037      5F424F4F 
 3037      4C5F4C4F 
 3038 1621 01       		.byte	0x1
 3039 1622 00       		.uleb128 0
 3040 1623 5F5F4743 		.ascii "__GCC_ATOMIC_CHAR_LOCK_FREE 1\0"
 3040      435F4154 
 3040      4F4D4943 
 3040      5F434841 
 3040      525F4C4F 
 3041 1641 01       		.byte	0x1
 3042 1642 00       		.uleb128 0
 3043 1643 5F5F4743 		.ascii "__GCC_ATOMIC_CHAR16_T_LOCK_FREE 1\0"
 3043      435F4154 
 3043      4F4D4943 
 3043      5F434841 
 3043      5231365F 
 3044 1665 01       		.byte	0x1
 3045 1666 00       		.uleb128 0
 3046 1667 5F5F4743 		.ascii "__GCC_ATOMIC_CHAR32_T_LOCK_FREE 1\0"
 3046      435F4154 
 3046      4F4D4943 
 3046      5F434841 
 3046      5233325F 
 3047 1689 01       		.byte	0x1
 3048 168a 00       		.uleb128 0
 3049 168b 5F5F4743 		.ascii "__GCC_ATOMIC_WCHAR_T_LOCK_FREE 1\0"
 3049      435F4154 
 3049      4F4D4943 
 3049      5F574348 
 3049      41525F54 
 3050 16ac 01       		.byte	0x1
 3051 16ad 00       		.uleb128 0
 3052 16ae 5F5F4743 		.ascii "__GCC_ATOMIC_SHORT_LOCK_FREE 1\0"
 3052      435F4154 
 3052      4F4D4943 
 3052      5F53484F 
 3052      52545F4C 
 3053 16cd 01       		.byte	0x1
 3054 16ce 00       		.uleb128 0
 3055 16cf 5F5F4743 		.ascii "__GCC_ATOMIC_INT_LOCK_FREE 1\0"
 3055      435F4154 
GAS LISTING C:\Users\PRESID~1\AppData\Local\Temp\ccR9pTsK.s 			page 88


 3055      4F4D4943 
 3055      5F494E54 
 3055      5F4C4F43 
 3056 16ec 01       		.byte	0x1
 3057 16ed 00       		.uleb128 0
 3058 16ee 5F5F4743 		.ascii "__GCC_ATOMIC_LONG_LOCK_FREE 1\0"
 3058      435F4154 
 3058      4F4D4943 
 3058      5F4C4F4E 
 3058      475F4C4F 
 3059 170c 01       		.byte	0x1
 3060 170d 00       		.uleb128 0
 3061 170e 5F5F4743 		.ascii "__GCC_ATOMIC_LLONG_LOCK_FREE 1\0"
 3061      435F4154 
 3061      4F4D4943 
 3061      5F4C4C4F 
 3061      4E475F4C 
 3062 172d 01       		.byte	0x1
 3063 172e 00       		.uleb128 0
 3064 172f 5F5F4743 		.ascii "__GCC_ATOMIC_TEST_AND_SET_TRUEVAL 1\0"
 3064      435F4154 
 3064      4F4D4943 
 3064      5F544553 
 3064      545F414E 
 3065 1753 01       		.byte	0x1
 3066 1754 00       		.uleb128 0
 3067 1755 5F5F4743 		.ascii "__GCC_ATOMIC_POINTER_LOCK_FREE 1\0"
 3067      435F4154 
 3067      4F4D4943 
 3067      5F504F49 
 3067      4E544552 
 3068 1776 01       		.byte	0x1
 3069 1777 00       		.uleb128 0
 3070 1778 5F5F4743 		.ascii "__GCC_HAVE_DWARF2_CFI_ASM 1\0"
 3070      435F4841 
 3070      56455F44 
 3070      57415246 
 3070      325F4346 
 3071 1794 01       		.byte	0x1
 3072 1795 00       		.uleb128 0
 3073 1796 5F5F5052 		.ascii "__PRAGMA_REDEFINE_EXTNAME 1\0"
 3073      41474D41 
 3073      5F524544 
 3073      4546494E 
 3073      455F4558 
 3074 17b2 01       		.byte	0x1
 3075 17b3 00       		.uleb128 0
 3076 17b4 5F5F5349 		.ascii "__SIZEOF_WCHAR_T__ 2\0"
 3076      5A454F46 
 3076      5F574348 
 3076      41525F54 
 3076      5F5F2032 
 3077 17c9 01       		.byte	0x1
 3078 17ca 00       		.uleb128 0
 3079 17cb 5F5F5349 		.ascii "__SIZEOF_WINT_T__ 2\0"
 3079      5A454F46 
 3079      5F57494E 
GAS LISTING C:\Users\PRESID~1\AppData\Local\Temp\ccR9pTsK.s 			page 89


 3079      545F545F 
 3079      5F203200 
 3080 17df 01       		.byte	0x1
 3081 17e0 00       		.uleb128 0
 3082 17e1 5F5F5349 		.ascii "__SIZEOF_PTRDIFF_T__ 4\0"
 3082      5A454F46 
 3082      5F505452 
 3082      44494646 
 3082      5F545F5F 
 3083 17f8 01       		.byte	0x1
 3084 17f9 00       		.uleb128 0
 3085 17fa 5F5F6933 		.ascii "__i386 1\0"
 3085      38362031 
 3085      00
 3086 1803 01       		.byte	0x1
 3087 1804 00       		.uleb128 0
 3088 1805 5F5F6933 		.ascii "__i386__ 1\0"
 3088      38365F5F 
 3088      203100
 3089 1810 01       		.byte	0x1
 3090 1811 00       		.uleb128 0
 3091 1812 5F5F4154 		.ascii "__ATOMIC_HLE_ACQUIRE 65536\0"
 3091      4F4D4943 
 3091      5F484C45 
 3091      5F414351 
 3091      55495245 
 3092 182d 01       		.byte	0x1
 3093 182e 00       		.uleb128 0
 3094 182f 5F5F4154 		.ascii "__ATOMIC_HLE_RELEASE 131072\0"
 3094      4F4D4943 
 3094      5F484C45 
 3094      5F52454C 
 3094      45415345 
 3095 184b 01       		.byte	0x1
 3096 184c 00       		.uleb128 0
 3097 184d 5F5F7475 		.ascii "__tune_i386__ 1\0"
 3097      6E655F69 
 3097      3338365F 
 3097      5F203100 
 3098 185d 01       		.byte	0x1
 3099 185e 00       		.uleb128 0
 3100 185f 5F5F636F 		.ascii "__code_model_32__ 1\0"
 3100      64655F6D 
 3100      6F64656C 
 3100      5F33325F 
 3100      5F203100 
 3101 1873 01       		.byte	0x1
 3102 1874 00       		.uleb128 0
 3103 1875 5F583836 		.ascii "_X86_ 1\0"
 3103      5F203100 
 3104 187d 01       		.byte	0x1
 3105 187e 00       		.uleb128 0
 3106 187f 5F5F7374 		.ascii "__stdcall __attribute__((__stdcall__))\0"
 3106      6463616C 
 3106      6C205F5F 
 3106      61747472 
 3106      69627574 
GAS LISTING C:\Users\PRESID~1\AppData\Local\Temp\ccR9pTsK.s 			page 90


 3107 18a6 01       		.byte	0x1
 3108 18a7 00       		.uleb128 0
 3109 18a8 5F5F6661 		.ascii "__fastcall __attribute__((__fastcall__))\0"
 3109      73746361 
 3109      6C6C205F 
 3109      5F617474 
 3109      72696275 
 3110 18d1 01       		.byte	0x1
 3111 18d2 00       		.uleb128 0
 3112 18d3 5F5F7468 		.ascii "__thiscall __attribute__((__thiscall__))\0"
 3112      69736361 
 3112      6C6C205F 
 3112      5F617474 
 3112      72696275 
 3113 18fc 01       		.byte	0x1
 3114 18fd 00       		.uleb128 0
 3115 18fe 5F5F6364 		.ascii "__cdecl __attribute__((__cdecl__))\0"
 3115      65636C20 
 3115      5F5F6174 
 3115      74726962 
 3115      7574655F 
 3116 1921 01       		.byte	0x1
 3117 1922 00       		.uleb128 0
 3118 1923 5F5F4758 		.ascii "__GXX_MERGED_TYPEINFO_NAMES 0\0"
 3118      585F4D45 
 3118      52474544 
 3118      5F545950 
 3118      45494E46 
 3119 1941 01       		.byte	0x1
 3120 1942 00       		.uleb128 0
 3121 1943 5F5F4758 		.ascii "__GXX_TYPEINFO_EQUALITY_INLINE 0\0"
 3121      585F5459 
 3121      5045494E 
 3121      464F5F45 
 3121      5155414C 
 3122 1964 01       		.byte	0x1
 3123 1965 00       		.uleb128 0
 3124 1966 5F5F4D53 		.ascii "__MSVCRT__ 1\0"
 3124      56435254 
 3124      5F5F2031 
 3124      00
 3125 1973 01       		.byte	0x1
 3126 1974 00       		.uleb128 0
 3127 1975 5F5F4D49 		.ascii "__MINGW32__ 1\0"
 3127      4E475733 
 3127      325F5F20 
 3127      3100
 3128 1983 01       		.byte	0x1
 3129 1984 00       		.uleb128 0
 3130 1985 5F57494E 		.ascii "_WIN32 1\0"
 3130      33322031 
 3130      00
 3131 198e 01       		.byte	0x1
 3132 198f 00       		.uleb128 0
 3133 1990 5F5F5749 		.ascii "__WIN32 1\0"
 3133      4E333220 
 3133      3100
GAS LISTING C:\Users\PRESID~1\AppData\Local\Temp\ccR9pTsK.s 			page 91


 3134 199a 01       		.byte	0x1
 3135 199b 00       		.uleb128 0
 3136 199c 5F5F5749 		.ascii "__WIN32__ 1\0"
 3136      4E33325F 
 3136      5F203100 
 3137 19a8 01       		.byte	0x1
 3138 19a9 00       		.uleb128 0
 3139 19aa 5F5F5749 		.ascii "__WINNT 1\0"
 3139      4E4E5420 
 3139      3100
 3140 19b4 01       		.byte	0x1
 3141 19b5 00       		.uleb128 0
 3142 19b6 5F5F5749 		.ascii "__WINNT__ 1\0"
 3142      4E4E545F 
 3142      5F203100 
 3143 19c2 01       		.byte	0x1
 3144 19c3 00       		.uleb128 0
 3145 19c4 5F494E54 		.ascii "_INTEGRAL_MAX_BITS 64\0"
 3145      45475241 
 3145      4C5F4D41 
 3145      585F4249 
 3145      54532036 
 3146 19da 01       		.byte	0x1
 3147 19db 00       		.uleb128 0
 3148 19dc 5F5F6465 		.ascii "__declspec(x) __attribute__((x))\0"
 3148      636C7370 
 3148      65632878 
 3148      29205F5F 
 3148      61747472 
 3149 19fd 01       		.byte	0x1
 3150 19fe 00       		.uleb128 0
 3151 19ff 5F5F4445 		.ascii "__DECIMAL_BID_FORMAT__ 1\0"
 3151      43494D41 
 3151      4C5F4249 
 3151      445F464F 
 3151      524D4154 
 3152 1a18 01       		.byte	0x1
 3153 1a19 00       		.uleb128 0
 3154 1a1a 4346475F 		.ascii "CFG_PROCESSOR 3\0"
 3154      50524F43 
 3154      4553534F 
 3154      52203300 
 3155 1a2a 03       		.byte	0x3
 3156 1a2b 00       		.uleb128 0
 3157 1a2c 01       		.uleb128 0x1
 3158              		.file 8 "E:/NeuOrga/Programmieren/c_cpp/github_os/input/src/os_base/os_firstinc.h"
 3159 1a2d 03       		.byte	0x3
 3160 1a2e 01       		.uleb128 0x1
 3161 1a2f 08       		.uleb128 0x8
 3162 1a30 01       		.byte	0x1
 3163 1a31 02       		.uleb128 0x2
 3164 1a32 5F6F735F 		.ascii "_os_firstinc_h_ \0"
 3164      66697273 
 3164      74696E63 
 3164      5F685F20 
 3164      00
 3165 1a43 03       		.byte	0x3
GAS LISTING C:\Users\PRESID~1\AppData\Local\Temp\ccR9pTsK.s 			page 92


 3166 1a44 04       		.uleb128 0x4
 3167 1a45 02       		.uleb128 0x2
 3168 1a46 01       		.byte	0x1
 3169 1a47 02       		.uleb128 0x2
 3170 1a48 5F424153 		.ascii "_BASE_TYPES_H_ \0"
 3170      455F5459 
 3170      5045535F 
 3170      485F2000 
 3171 1a58 01       		.byte	0x1
 3172 1a59 04       		.uleb128 0x4
 3173 1a5a 494E5445 		.ascii "INTEGER_LLP64_IL32P64 1\0"
 3173      4745525F 
 3173      4C4C5036 
 3173      345F494C 
 3173      33325036 
 3174 1a72 01       		.byte	0x1
 3175 1a73 05       		.uleb128 0x5
 3176 1a74 494E5445 		.ascii "INTEGER_LP64_I32LP64 2\0"
 3176      4745525F 
 3176      4C503634 
 3176      5F493332 
 3176      4C503634 
 3177 1a8b 01       		.byte	0x1
 3178 1a8c 06       		.uleb128 0x6
 3179 1a8d 494E5445 		.ascii "INTEGER_ILP64 3\0"
 3179      4745525F 
 3179      494C5036 
 3179      34203300 
 3180 1a9d 01       		.byte	0x1
 3181 1a9e 07       		.uleb128 0x7
 3182 1a9f 494E5445 		.ascii "INTEGER_SILP64 4\0"
 3182      4745525F 
 3182      53494C50 
 3182      36342034 
 3182      00
 3183 1ab0 01       		.byte	0x1
 3184 1ab1 09       		.uleb128 0x9
 3185 1ab2 4350505F 		.ascii "CPP_VERSION_NONE 0\0"
 3185      56455253 
 3185      494F4E5F 
 3185      4E4F4E45 
 3185      203000
 3186 1ac5 01       		.byte	0x1
 3187 1ac6 0A       		.uleb128 0xa
 3188 1ac7 4350505F 		.ascii "CPP_VERSION_1998 1\0"
 3188      56455253 
 3188      494F4E5F 
 3188      31393938 
 3188      203100
 3189 1ada 01       		.byte	0x1
 3190 1adb 0B       		.uleb128 0xb
 3191 1adc 4350505F 		.ascii "CPP_VERSION_2003 2\0"
 3191      56455253 
 3191      494F4E5F 
 3191      32303033 
 3191      203200
 3192 1aef 01       		.byte	0x1
GAS LISTING C:\Users\PRESID~1\AppData\Local\Temp\ccR9pTsK.s 			page 93


 3193 1af0 0C       		.uleb128 0xc
 3194 1af1 4350505F 		.ascii "CPP_VERSION_2007 3\0"
 3194      56455253 
 3194      494F4E5F 
 3194      32303037 
 3194      203300
 3195 1b04 01       		.byte	0x1
 3196 1b05 0D       		.uleb128 0xd
 3197 1b06 4350505F 		.ascii "CPP_VERSION_2011 4\0"
 3197      56455253 
 3197      494F4E5F 
 3197      32303131 
 3197      203400
 3198 1b19 01       		.byte	0x1
 3199 1b1a 0E       		.uleb128 0xe
 3200 1b1b 49534F5F 		.ascii "ISO_CPP_VERSION CPP_VERSION_1998\0"
 3200      4350505F 
 3200      56455253 
 3200      494F4E20 
 3200      4350505F 
 3201 1b3c 01       		.byte	0x1
 3202 1b3d 10       		.uleb128 0x10
 3203 1b3e 494E5445 		.ascii "INTEGER_MODEL INTEGER_LLP64_IL32P64\0"
 3203      4745525F 
 3203      4D4F4445 
 3203      4C20494E 
 3203      54454745 
 3204 1b62 04       		.byte	0x4
 3205 1b63 03       		.byte	0x3
 3206 1b64 05       		.uleb128 0x5
 3207 1b65 03       		.uleb128 0x3
 3208 1b66 01       		.byte	0x1
 3209 1b67 02       		.uleb128 0x2
 3210 1b68 5F6F735F 		.ascii "_os_common_h_ \0"
 3210      636F6D6D 
 3210      6F6E5F68 
 3210      5F2000
 3211 1b77 01       		.byte	0x1
 3212 1b78 06       		.uleb128 0x6
 3213 1b79 46616C73 		.ascii "False 0\0"
 3213      65203000 
 3214 1b81 01       		.byte	0x1
 3215 1b82 07       		.uleb128 0x7
 3216 1b83 54727565 		.ascii "True 1\0"
 3216      203100
 3217 1b8a 01       		.byte	0x1
 3218 1b8b 08       		.uleb128 0x8
 3219 1b8c 46414C53 		.ascii "FALSE False\0"
 3219      45204661 
 3219      6C736500 
 3220 1b98 01       		.byte	0x1
 3221 1b99 09       		.uleb128 0x9
 3222 1b9a 54525545 		.ascii "TRUE True\0"
 3222      20547275 
 3222      6500
 3223 1ba4 01       		.byte	0x1
 3224 1ba5 0A       		.uleb128 0xa
GAS LISTING C:\Users\PRESID~1\AppData\Local\Temp\ccR9pTsK.s 			page 94


 3225 1ba6 41636365 		.ascii "Accepted 1\0"
 3225      70746564 
 3225      203100
 3226 1bb1 01       		.byte	0x1
 3227 1bb2 0B       		.uleb128 0xb
 3228 1bb3 52656A65 		.ascii "Rejected 0\0"
 3228      63746564 
 3228      203000
 3229 1bbe 01       		.byte	0x1
 3230 1bbf 0C       		.uleb128 0xc
 3231 1bc0 4C6F6361 		.ascii "Local static\0"
 3231      6C207374 
 3231      61746963 
 3231      00
 3232 1bcd 01       		.byte	0x1
 3233 1bce 0D       		.uleb128 0xd
 3234 1bcf 4C6F6361 		.ascii "Local_inline static __inline__\0"
 3234      6C5F696E 
 3234      6C696E65 
 3234      20737461 
 3234      74696320 
 3235 1bee 01       		.byte	0x1
 3236 1bef 0E       		.uleb128 0xe
 3237 1bf0 476C6F62 		.ascii "Global_inline __inline__\0"
 3237      616C5F69 
 3237      6E6C696E 
 3237      65205F5F 
 3237      696E6C69 
 3238 1c09 01       		.byte	0x1
 3239 1c0a 0F       		.uleb128 0xf
 3240 1c0b 52656665 		.ascii "ReferenceUnusedParameter(x) ((x) = (x))\0"
 3240      72656E63 
 3240      65556E75 
 3240      73656450 
 3240      6172616D 
 3241 1c33 01       		.byte	0x1
 3242 1c34 12       		.uleb128 0x12
 3243 1c35 634D4355 		.ascii "cMCU_SIMULATION 1\0"
 3243      5F53494D 
 3243      554C4154 
 3243      494F4E20 
 3243      3100
 3244 1c47 01       		.byte	0x1
 3245 1c48 13       		.uleb128 0x13
 3246 1c49 634D4355 		.ascii "cMCU_POWERPC 2\0"
 3246      5F504F57 
 3246      45525043 
 3246      203200
 3247 1c58 01       		.byte	0x1
 3248 1c59 14       		.uleb128 0x14
 3249 1c5a 634D4355 		.ascii "cMCU_X86 3\0"
 3249      5F583836 
 3249      203300
 3250 1c65 01       		.byte	0x1
 3251 1c66 15       		.uleb128 0x15
 3252 1c67 634D4355 		.ascii "cMCU_CORTEX_M4 4\0"
 3252      5F434F52 
GAS LISTING C:\Users\PRESID~1\AppData\Local\Temp\ccR9pTsK.s 			page 95


 3252      5445585F 
 3252      4D342034 
 3252      00
 3253 1c78 01       		.byte	0x1
 3254 1c79 18       		.uleb128 0x18
 3255 1c7a 4E525F4F 		.ascii "NR_OF_CORES 1\0"
 3255      465F434F 
 3255      52455320 
 3255      3100
 3256 1c88 01       		.byte	0x1
 3257 1c89 1A       		.uleb128 0x1a
 3258 1c8a 4D43555F 		.ascii "MCU_CLOCK_IN_HZ ((uint32)168000000u)\0"
 3258      434C4F43 
 3258      4B5F494E 
 3258      5F485A20 
 3258      28287569 
 3259 1caf 01       		.byte	0x1
 3260 1cb0 27       		.uleb128 0x27
 3261 1cb1 44697361 		.ascii "DisableInterrupts() \0"
 3261      626C6549 
 3261      6E746572 
 3261      72757074 
 3261      73282920 
 3262 1cc6 01       		.byte	0x1
 3263 1cc7 28       		.uleb128 0x28
 3264 1cc8 456E6162 		.ascii "EnableInterrupts() \0"
 3264      6C65496E 
 3264      74657272 
 3264      75707473 
 3264      28292000 
 3265 1cdc 01       		.byte	0x1
 3266 1cdd 29       		.uleb128 0x29
 3267 1cde 50726976 		.ascii "Privilige_level_save_current() \0"
 3267      696C6967 
 3267      655F6C65 
 3267      76656C5F 
 3267      73617665 
 3268 1cfe 01       		.byte	0x1
 3269 1cff 2A       		.uleb128 0x2a
 3270 1d00 50726976 		.ascii "Privilige_level_enter_kernel_mode() \0"
 3270      696C6967 
 3270      655F6C65 
 3270      76656C5F 
 3270      656E7465 
 3271 1d25 01       		.byte	0x1
 3272 1d26 2B       		.uleb128 0x2b
 3273 1d27 50726976 		.ascii "Privilige_level_restore_saved() \0"
 3273      696C6967 
 3273      655F6C65 
 3273      76656C5F 
 3273      72657374 
 3274 1d48 01       		.byte	0x1
 3275 1d49 2C       		.uleb128 0x2c
 3276 1d4a 48616C74 		.ascii "HaltMcu() \0"
 3276      4D637528 
 3276      292000
 3277 1d55 04       		.byte	0x4
GAS LISTING C:\Users\PRESID~1\AppData\Local\Temp\ccR9pTsK.s 			page 96


 3278 1d56 03       		.byte	0x3
 3279 1d57 07       		.uleb128 0x7
 3280 1d58 07       		.uleb128 0x7
 3281 1d59 01       		.byte	0x1
 3282 1d5a 02       		.uleb128 0x2
 3283 1d5b 5F4F535F 		.ascii "_OS_RAM_H_ \0"
 3283      52414D5F 
 3283      485F2000 
 3284              		.file 9 "E:/NeuOrga/Programmieren/c_cpp/github_os/input/src/os_base/../os_base/os_firstinc.h"
 3285 1d67 03       		.byte	0x3
 3286 1d68 04       		.uleb128 0x4
 3287 1d69 09       		.uleb128 0x9
 3288 1d6a 04       		.byte	0x4
 3289              		.file 10 "E:/NeuOrga/Programmieren/c_cpp/github_os/input/src/os_base/../os_base/os_stack.h"
 3290 1d6b 03       		.byte	0x3
 3291 1d6c 05       		.uleb128 0x5
 3292 1d6d 0A       		.uleb128 0xa
 3293 1d6e 01       		.byte	0x1
 3294 1d6f 02       		.uleb128 0x2
 3295 1d70 5F6F735F 		.ascii "_os_stack_h_ \0"
 3295      73746163 
 3295      6B5F685F 
 3295      2000
 3296 1d7e 01       		.byte	0x1
 3297 1d7f 04       		.uleb128 0x4
 3298 1d80 4F535F53 		.ascii "OS_STACK_SIZE 0x100\0"
 3298      5441434B 
 3298      5F53495A 
 3298      45203078 
 3298      31303000 
 3299 1d94 01       		.byte	0x1
 3300 1d95 06       		.uleb128 0x6
 3301 1d96 4F535F53 		.ascii "OS_STACK_SIZE_END 0x01u\0"
 3301      5441434B 
 3301      5F53495A 
 3301      455F454E 
 3301      44203078 
 3302 1dae 04       		.byte	0x4
 3303              		.file 11 "E:/NeuOrga/Programmieren/c_cpp/github_os/input/src/os_base/../os_base/os_heap.h"
 3304 1daf 03       		.byte	0x3
 3305 1db0 06       		.uleb128 0x6
 3306 1db1 0B       		.uleb128 0xb
 3307 1db2 01       		.byte	0x1
 3308 1db3 02       		.uleb128 0x2
 3309 1db4 5F6F735F 		.ascii "_os_heap_h_ \0"
 3309      68656170 
 3309      5F685F20 
 3309      00
 3310 1dc1 01       		.byte	0x1
 3311 1dc2 05       		.uleb128 0x5
 3312 1dc3 48454150 		.ascii "HEAP_SIZE 10000\0"
 3312      5F53495A 
 3312      45203130 
 3312      30303000 
 3313 1dd3 01       		.byte	0x1
 3314 1dd4 06       		.uleb128 0x6
 3315 1dd5 4D494E5F 		.ascii "MIN_BLOCK_SIZE_HEAP 8\0"
GAS LISTING C:\Users\PRESID~1\AppData\Local\Temp\ccR9pTsK.s 			page 97


 3315      424C4F43 
 3315      4B5F5349 
 3315      5A455F48 
 3315      45415020 
 3316 1deb 01       		.byte	0x1
 3317 1dec 09       		.uleb128 0x9
 3318 1ded 48454150 		.ascii "HEAP_OFFSET_FOR_SIZE 0\0"
 3318      5F4F4646 
 3318      5345545F 
 3318      464F525F 
 3318      53495A45 
 3319 1e04 01       		.byte	0x1
 3320 1e05 0A       		.uleb128 0xa
 3321 1e06 48454150 		.ascii "HEAP_OFFSET_FOR_USED_SIZE 4\0"
 3321      5F4F4646 
 3321      5345545F 
 3321      464F525F 
 3321      55534544 
 3322 1e22 01       		.byte	0x1
 3323 1e23 0B       		.uleb128 0xb
 3324 1e24 48454150 		.ascii "HEAP_OFFSET_FOR_CHUNK 8\0"
 3324      5F4F4646 
 3324      5345545F 
 3324      464F525F 
 3324      4348554E 
 3325 1e3c 04       		.byte	0x4
 3326              		.file 12 "E:/NeuOrga/Programmieren/c_cpp/github_os/input/src/os_base/../os_base/os_main.h"
 3327 1e3d 03       		.byte	0x3
 3328 1e3e 07       		.uleb128 0x7
 3329 1e3f 0C       		.uleb128 0xc
 3330 1e40 01       		.byte	0x1
 3331 1e41 02       		.uleb128 0x2
 3332 1e42 5F6F735F 		.ascii "_os_main_h_ \0"
 3332      6D61696E 
 3332      5F685F20 
 3332      00
 3333 1e4f 01       		.byte	0x1
 3334 1e50 03       		.uleb128 0x3
 3335 1e51 6F735F69 		.ascii "os_init 0\0"
 3335      6E697420 
 3335      3000
 3336 1e5b 01       		.byte	0x1
 3337 1e5c 04       		.uleb128 0x4
 3338 1e5d 6F735F72 		.ascii "os_running 1\0"
 3338      756E6E69 
 3338      6E672031 
 3338      00
 3339 1e6a 01       		.byte	0x1
 3340 1e6b 05       		.uleb128 0x5
 3341 1e6c 6F735F73 		.ascii "os_shutdown 2\0"
 3341      68757464 
 3341      6F776E20 
 3341      3200
 3342 1e7a 04       		.byte	0x4
 3343 1e7b 04       		.byte	0x4
 3344              		.file 13 "E:/NeuOrga/Programmieren/c_cpp/github_os/input/src/os_base/../os_sim/lld_global.h"
 3345 1e7c 03       		.byte	0x3
GAS LISTING C:\Users\PRESID~1\AppData\Local\Temp\ccR9pTsK.s 			page 98


 3346 1e7d 0A       		.uleb128 0xa
 3347 1e7e 0D       		.uleb128 0xd
 3348 1e7f 01       		.byte	0x1
 3349 1e80 02       		.uleb128 0x2
 3350 1e81 5F6C6C64 		.ascii "_lld_global_h_ \0"
 3350      5F676C6F 
 3350      62616C5F 
 3350      685F2000 
 3351              		.file 14 "E:/NeuOrga/Programmieren/c_cpp/github_os/input/src/os_base/../os_sim/lld_core.h"
 3352 1e91 03       		.byte	0x3
 3353 1e92 04       		.uleb128 0x4
 3354 1e93 0E       		.uleb128 0xe
 3355 1e94 01       		.byte	0x1
 3356 1e95 02       		.uleb128 0x2
 3357 1e96 5F6C6C64 		.ascii "_lld_core_h_ \0"
 3357      5F636F72 
 3357      655F685F 
 3357      2000
 3358              		.file 15 "E:/NeuOrga/Programmieren/c_cpp/github_os/input/src/os_base/../os_sim/../os_base/os_first
 3359 1ea4 03       		.byte	0x3
 3360 1ea5 03       		.uleb128 0x3
 3361 1ea6 0F       		.uleb128 0xf
 3362 1ea7 04       		.byte	0x4
 3363 1ea8 04       		.byte	0x4
 3364              		.file 16 "E:/NeuOrga/Programmieren/c_cpp/github_os/input/src/os_base/../os_sim/lld_interrupt.h"
 3365 1ea9 03       		.byte	0x3
 3366 1eaa 05       		.uleb128 0x5
 3367 1eab 10       		.uleb128 0x10
 3368 1eac 01       		.byte	0x1
 3369 1ead 02       		.uleb128 0x2
 3370 1eae 5F6C6C64 		.ascii "_lld_interrupt_h_ \0"
 3370      5F696E74 
 3370      65727275 
 3370      70745F68 
 3370      5F2000
 3371 1ec1 01       		.byte	0x1
 3372 1ec2 05       		.uleb128 0x5
 3373 1ec3 6F735F69 		.ascii "os_interrupt_swi_1 asm(\"swi 1\")\0"
 3373      6E746572 
 3373      72757074 
 3373      5F737769 
 3373      5F312061 
 3374 1ee3 01       		.byte	0x1
 3375 1ee4 06       		.uleb128 0x6
 3376 1ee5 6F735F69 		.ascii "os_interrupt_swi_2 asm(\"swi 2\")\0"
 3376      6E746572 
 3376      72757074 
 3376      5F737769 
 3376      5F322061 
 3377 1f05 01       		.byte	0x1
 3378 1f06 07       		.uleb128 0x7
 3379 1f07 6F735F69 		.ascii "os_interrupt_swi_3 asm(\"swi 3\")\0"
 3379      6E746572 
 3379      72757074 
 3379      5F737769 
 3379      5F332061 
 3380 1f27 01       		.byte	0x1
GAS LISTING C:\Users\PRESID~1\AppData\Local\Temp\ccR9pTsK.s 			page 99


 3381 1f28 08       		.uleb128 0x8
 3382 1f29 6F735F69 		.ascii "os_interrupt_swi_4 asm(\"swi 4\")\0"
 3382      6E746572 
 3382      72757074 
 3382      5F737769 
 3382      5F342061 
 3383 1f49 01       		.byte	0x1
 3384 1f4a 09       		.uleb128 0x9
 3385 1f4b 6F735F69 		.ascii "os_interrupt_swi_5 asm(\"swi 5\")\0"
 3385      6E746572 
 3385      72757074 
 3385      5F737769 
 3385      5F352061 
 3386 1f6b 04       		.byte	0x4
 3387              		.file 17 "E:/NeuOrga/Programmieren/c_cpp/github_os/input/src/os_base/../os_sim/lld_mmu.h"
 3388 1f6c 03       		.byte	0x3
 3389 1f6d 06       		.uleb128 0x6
 3390 1f6e 11       		.uleb128 0x11
 3391 1f6f 01       		.byte	0x1
 3392 1f70 02       		.uleb128 0x2
 3393 1f71 5F6C6C64 		.ascii "_lld_mmu_h_ \0"
 3393      5F6D6D75 
 3393      5F685F20 
 3393      00
 3394 1f7e 04       		.byte	0x4
 3395              		.file 18 "E:/NeuOrga/Programmieren/c_cpp/github_os/input/src/os_base/../os_sim/lld_timer.h"
 3396 1f7f 03       		.byte	0x3
 3397 1f80 07       		.uleb128 0x7
 3398 1f81 12       		.uleb128 0x12
 3399 1f82 01       		.byte	0x1
 3400 1f83 02       		.uleb128 0x2
 3401 1f84 5F6C6C64 		.ascii "_lld_timer_h_ \0"
 3401      5F74696D 
 3401      65725F68 
 3401      5F2000
 3402 1f93 04       		.byte	0x4
 3403              		.file 19 "E:/NeuOrga/Programmieren/c_cpp/github_os/input/src/os_base/../os_sim/lld_power.h"
 3404 1f94 03       		.byte	0x3
 3405 1f95 08       		.uleb128 0x8
 3406 1f96 13       		.uleb128 0x13
 3407 1f97 01       		.byte	0x1
 3408 1f98 02       		.uleb128 0x2
 3409 1f99 5F6C6C64 		.ascii "_lld_power_h_ \0"
 3409      5F706F77 
 3409      65725F68 
 3409      5F2000
 3410 1fa8 04       		.byte	0x4
 3411              		.file 20 "E:/NeuOrga/Programmieren/c_cpp/github_os/input/src/os_base/../os_sim/lld_ram.h"
 3412 1fa9 03       		.byte	0x3
 3413 1faa 09       		.uleb128 0x9
 3414 1fab 14       		.uleb128 0x14
 3415 1fac 01       		.byte	0x1
 3416 1fad 02       		.uleb128 0x2
 3417 1fae 5F6C6C64 		.ascii "_lld_ram_h_ \0"
 3417      5F72616D 
 3417      5F685F20 
 3417      00
GAS LISTING C:\Users\PRESID~1\AppData\Local\Temp\ccR9pTsK.s 			page 100


 3418 1fbb 04       		.byte	0x4
 3419 1fbc 03       		.byte	0x3
 3420 1fbd 0A       		.uleb128 0xa
 3421 1fbe 04       		.uleb128 0x4
 3422 1fbf 01       		.byte	0x1
 3423 1fc0 02       		.uleb128 0x2
 3424 1fc1 5F6F735F 		.ascii "_os_task_common_h_ \0"
 3424      7461736B 
 3424      5F636F6D 
 3424      6D6F6E5F 
 3424      685F2000 
 3425              		.file 21 "E:/NeuOrga/Programmieren/c_cpp/github_os/input/src/os_base/../os_sim/../os_base/os_task_
 3426 1fd5 03       		.byte	0x3
 3427 1fd6 04       		.uleb128 0x4
 3428 1fd7 15       		.uleb128 0x15
 3429 1fd8 01       		.byte	0x1
 3430 1fd9 02       		.uleb128 0x2
 3431 1fda 5F6F735F 		.ascii "_os_task_config_h_ \0"
 3431      7461736B 
 3431      5F636F6E 
 3431      6669675F 
 3431      685F2000 
 3432 1fee 01       		.byte	0x1
 3433 1fef 05       		.uleb128 0x5
 3434 1ff0 53636865 		.ascii "SchedulerFrequency (1.0e3)\0"
 3434      64756C65 
 3434      72467265 
 3434      7175656E 
 3434      63792028 
 3435 200b 01       		.byte	0x1
 3436 200c 06       		.uleb128 0x6
 3437 200d 4D696E54 		.ascii "MinTimeSlice_s (1.0/SchedulerFrequency)\0"
 3437      696D6553 
 3437      6C696365 
 3437      5F732028 
 3437      312E302F 
 3438 2035 01       		.byte	0x1
 3439 2036 07       		.uleb128 0x7
 3440 2037 4D696E54 		.ascii "MinTimeSlice_us ((1.0/SchedulerFrequency)*1e6)\0"
 3440      696D6553 
 3440      6C696365 
 3440      5F757320 
 3440      2828312E 
 3441 2066 01       		.byte	0x1
 3442 2067 08       		.uleb128 0x8
 3443 2068 5461736B 		.ascii "Task_min_time (1e0)\0"
 3443      5F6D696E 
 3443      5F74696D 
 3443      65202831 
 3443      65302900 
 3444 207c 01       		.byte	0x1
 3445 207d 09       		.uleb128 0x9
 3446 207e 4E554D42 		.ascii "NUMBER_OF_TASKS 5\0"
 3446      45525F4F 
 3446      465F5441 
 3446      534B5320 
 3446      3500
GAS LISTING C:\Users\PRESID~1\AppData\Local\Temp\ccR9pTsK.s 			page 101


 3447 2090 01       		.byte	0x1
 3448 2091 0A       		.uleb128 0xa
 3449 2092 4D41585F 		.ascii "MAX_RUN_QUEUE_SIZE (NUMBER_OF_TASKS)\0"
 3449      52554E5F 
 3449      51554555 
 3449      455F5349 
 3449      5A452028 
 3450 20b7 01       		.byte	0x1
 3451 20b8 0B       		.uleb128 0xb
 3452 20b9 4D41585F 		.ascii "MAX_RUN_PQUEUE_SIZE MAX_RUN_QUEUE_SIZE\0"
 3452      52554E5F 
 3452      50515545 
 3452      55455F53 
 3452      495A4520 
 3453 20e0 01       		.byte	0x1
 3454 20e1 0D       		.uleb128 0xd
 3455 20e2 5441534B 		.ascii "TASK_STACK_SIZE 200\0"
 3455      5F535441 
 3455      434B5F53 
 3455      495A4520 
 3455      32303000 
 3456 20f6 01       		.byte	0x1
 3457 20f7 10       		.uleb128 0x10
 3458 20f8 4D535F50 		.ascii "MS_PER_SEC (1000)\0"
 3458      45525F53 
 3458      45432028 
 3458      31303030 
 3458      2900
 3459 210a 01       		.byte	0x1
 3460 210b 11       		.uleb128 0x11
 3461 210c 5553455F 		.ascii "USE_STATIC_CREATED_TASKS True\0"
 3461      53544154 
 3461      49435F43 
 3461      52454154 
 3461      45445F54 
 3462 212a 04       		.byte	0x4
 3463              		.file 22 "E:/NeuOrga/Programmieren/c_cpp/github_os/input/src/os_base/../os_sim/../os_base/os_init_
 3464 212b 03       		.byte	0x3
 3465 212c 05       		.uleb128 0x5
 3466 212d 16       		.uleb128 0x16
 3467 212e 01       		.byte	0x1
 3468 212f 02       		.uleb128 0x2
 3469 2130 5F6F735F 		.ascii "_os_init_task_system_h_ \0"
 3469      696E6974 
 3469      5F746173 
 3469      6B5F7379 
 3469      7374656D 
 3470 2149 04       		.byte	0x4
 3471 214a 01       		.byte	0x1
 3472 214b 5C       		.uleb128 0x5c
 3473 214c 6F735F53 		.ascii "os_SaveTaskPtr(task_ptr,task_name) (TASK_PTR[(task_name)] = (task_ptr))\0"
 3473      61766554 
 3473      61736B50 
 3473      74722874 
 3473      61736B5F 
 3474 2194 01       		.byte	0x1
 3475 2195 5D       		.uleb128 0x5d
GAS LISTING C:\Users\PRESID~1\AppData\Local\Temp\ccR9pTsK.s 			page 102


 3476 2196 6F735F47 		.ascii "os_GetTaskPtr(task_name) ((task_t*) TASK_PTR[(task_name)])\0"
 3476      65745461 
 3476      736B5074 
 3476      72287461 
 3476      736B5F6E 
 3477 21d1 04       		.byte	0x4
 3478 21d2 04       		.byte	0x4
 3479              		.file 23 "E:/NeuOrga/Programmieren/c_cpp/github_os/input/src/os_base/../os_user_code/led.h"
 3480 21d3 03       		.byte	0x3
 3481 21d4 0E       		.uleb128 0xe
 3482 21d5 17       		.uleb128 0x17
 3483 21d6 01       		.byte	0x1
 3484 21d7 02       		.uleb128 0x2
 3485 21d8 5F4C4544 		.ascii "_LED_H_ \0"
 3485      5F485F20 
 3485      00
 3486 21e1 04       		.byte	0x4
 3487 21e2 04       		.byte	0x4
 3488              		.file 24 "E:/NeuOrga/Programmieren/c_cpp/github_os/input/src/os_base/os_common.h"
 3489 21e3 03       		.byte	0x3
 3490 21e4 02       		.uleb128 0x2
 3491 21e5 18       		.uleb128 0x18
 3492 21e6 04       		.byte	0x4
 3493              		.file 25 "E:/NeuOrga/Programmieren/c_cpp/github_os/input/src/os_base/os_task_common.h"
 3494 21e7 03       		.byte	0x3
 3495 21e8 03       		.uleb128 0x3
 3496 21e9 19       		.uleb128 0x19
 3497 21ea 04       		.byte	0x4
 3498 21eb 03       		.byte	0x3
 3499 21ec 04       		.uleb128 0x4
 3500 21ed 05       		.uleb128 0x5
 3501 21ee 01       		.byte	0x1
 3502 21ef 02       		.uleb128 0x2
 3503 21f0 5F6F735F 		.ascii "_os_task_scheduler_h_ \0"
 3503      7461736B 
 3503      5F736368 
 3503      6564756C 
 3503      65725F68 
 3504 2207 01       		.byte	0x1
 3505 2208 07       		.uleb128 0x7
 3506 2209 5461736B 		.ascii "Task_0_ptr 0\0"
 3506      5F305F70 
 3506      74722030 
 3506      00
 3507 2216 01       		.byte	0x1
 3508 2217 08       		.uleb128 0x8
 3509 2218 5461736B 		.ascii "Task_1_ptr 1\0"
 3509      5F315F70 
 3509      74722031 
 3509      00
 3510 2225 01       		.byte	0x1
 3511 2226 09       		.uleb128 0x9
 3512 2227 5461736B 		.ascii "Task_2_ptr 2\0"
 3512      5F325F70 
 3512      74722032 
 3512      00
 3513 2234 01       		.byte	0x1
GAS LISTING C:\Users\PRESID~1\AppData\Local\Temp\ccR9pTsK.s 			page 103


 3514 2235 0A       		.uleb128 0xa
 3515 2236 5461736B 		.ascii "Task_3_ptr 3\0"
 3515      5F335F70 
 3515      74722033 
 3515      00
 3516 2243 01       		.byte	0x1
 3517 2244 0C       		.uleb128 0xc
 3518 2245 4F535F53 		.ascii "OS_SaveTaskPtr(task_ptr,Task_n_ptr) \0"
 3518      61766554 
 3518      61736B50 
 3518      74722874 
 3518      61736B5F 
 3519 226a 04       		.byte	0x4
 3520 226b 03       		.byte	0x3
 3521 226c 05       		.uleb128 0x5
 3522 226d 06       		.uleb128 0x6
 3523 226e 01       		.byte	0x1
 3524 226f 02       		.uleb128 0x2
 3525 2270 5F6F735F 		.ascii "_os_task_queue_h_ \0"
 3525      7461736B 
 3525      5F717565 
 3525      75655F68 
 3525      5F2000
 3526 2283 01       		.byte	0x1
 3527 2284 06       		.uleb128 0x6
 3528 2285 46697273 		.ascii "First_task (0)\0"
 3528      745F7461 
 3528      736B2028 
 3528      302900
 3529 2294 01       		.byte	0x1
 3530 2295 07       		.uleb128 0x7
 3531 2296 4C617374 		.ascii "Last_task (MAX_RUN_QUEUE_SIZE-1)\0"
 3531      5F746173 
 3531      6B20284D 
 3531      41585F52 
 3531      554E5F51 
 3532 22b7 01       		.byte	0x1
 3533 22b8 09       		.uleb128 0x9
 3534 22b9 466F725F 		.ascii "For_all_tasks_in_queue(var) for((var) = First_task; (var) <= Last_task; (var)++)\0"
 3534      616C6C5F 
 3534      7461736B 
 3534      735F696E 
 3534      5F717565 
 3535 230a 04       		.byte	0x4
 3536              		.file 26 "E:/NeuOrga/Programmieren/c_cpp/github_os/input/src/os_base/os_stack.h"
 3537 230b 03       		.byte	0x3
 3538 230c 06       		.uleb128 0x6
 3539 230d 1A       		.uleb128 0x1a
 3540 230e 04       		.byte	0x4
 3541 230f 01       		.byte	0x1
 3542 2310 25       		.uleb128 0x25
 3543 2311 53595354 		.ascii "SYSTICK_CTRL_STAT_REG ((uint32*)0xE000E010)\0"
 3543      49434B5F 
 3543      4354524C 
 3543      5F535441 
 3543      545F5245 
 3544 233d 01       		.byte	0x1
GAS LISTING C:\Users\PRESID~1\AppData\Local\Temp\ccR9pTsK.s 			page 104


 3545 233e 26       		.uleb128 0x26
 3546 233f 53595354 		.ascii "SYSTICK_RLD_VAL_REG ((uint32*)0xE000E014)\0"
 3546      49434B5F 
 3546      524C445F 
 3546      56414C5F 
 3546      52454720 
 3547 2369 01       		.byte	0x1
 3548 236a 27       		.uleb128 0x27
 3549 236b 53595354 		.ascii "SYSTICK_CURRENT_VAL_REG ((uint32*)0xE000E018)\0"
 3549      49434B5F 
 3549      43555252 
 3549      454E545F 
 3549      56414C5F 
 3550 2399 01       		.byte	0x1
 3551 239a 28       		.uleb128 0x28
 3552 239b 53595354 		.ascii "SYSTICK_STAT_REG_TICKINT ((uint32)0x00000002)\0"
 3552      49434B5F 
 3552      53544154 
 3552      5F524547 
 3552      5F544943 
 3553 23c9 01       		.byte	0x1
 3554 23ca 29       		.uleb128 0x29
 3555 23cb 53595354 		.ascii "SYSTICK_STAT_REG_ENABLE ((uint32)0x00000001)\0"
 3555      49434B5F 
 3555      53544154 
 3555      5F524547 
 3555      5F454E41 
 3556 23f8 01       		.byte	0x1
 3557 23f9 2A       		.uleb128 0x2a
 3558 23fa 4C4F4F50 		.ascii "LOOPTIME_IN_USEC ((uint32)10000u)\0"
 3558      54494D45 
 3558      5F494E5F 
 3558      55534543 
 3558      20282875 
 3559 241c 04       		.byte	0x4
 3560 241d 00       		.byte	0
 3561              		.section	.debug_line,"dr"
 3562              	Ldebug_line0:
 3563 0000 99040000 		.section	.debug_str,"dr"
 3563      02002203 
 3563      00000101 
 3563      FB0E0D00 
 3563      01010101 
 3564              	LASF1:
 3565 0000 7461736B 		.ascii "task\0"
 3565      00
 3566              	LASF2:
 3567 0005 7461736B 		.ascii "task_ptr\0"
 3567      5F707472 
 3567      00
 3568              	LASF0:
 3569 000e 6578655F 		.ascii "exe_time\0"
 3569      74696D65 
 3569      00
 3570              		.ident	"GCC: (GNU) 4.9.3"
GAS LISTING C:\Users\PRESID~1\AppData\Local\Temp\ccR9pTsK.s 			page 105


DEFINED SYMBOLS
                            *ABS*:00000000 os_task_scheduler.c
C:\Users\PRESID~1\AppData\Local\Temp\ccR9pTsK.s:4      .bss:00000000 _TASK_STACK
C:\Users\PRESID~1\AppData\Local\Temp\ccR9pTsK.s:5      .bss:000003e8 _LAST_CURRENT_TIME
C:\Users\PRESID~1\AppData\Local\Temp\ccR9pTsK.s:8      .text:00000000 _OS_ACTIVATE_DISPATCHER
C:\Users\PRESID~1\AppData\Local\Temp\ccR9pTsK.s:27     .text:00000005 _OS_SLEEPTASK
C:\Users\PRESID~1\AppData\Local\Temp\ccR9pTsK.s:53     .text:0000001f _task_state_request
C:\Users\PRESID~1\AppData\Local\Temp\ccR9pTsK.s:199    .text:00000116 _OS_ActivateTask
C:\Users\PRESID~1\AppData\Local\Temp\ccR9pTsK.s:297    .text:000001d4 _OS_STARTTASK
C:\Users\PRESID~1\AppData\Local\Temp\ccR9pTsK.s:436    .text:00000330 _OS_TERMINATE_TASK
C:\Users\PRESID~1\AppData\Local\Temp\ccR9pTsK.s:517    .text:000003ea _OS_TASK_DISPATCHER
C:\Users\PRESID~1\AppData\Local\Temp\ccR9pTsK.s:551    .text:0000041f _TASK_0
C:\Users\PRESID~1\AppData\Local\Temp\ccR9pTsK.s:568    .text:00000424 _TASK_1
C:\Users\PRESID~1\AppData\Local\Temp\ccR9pTsK.s:591    .text:0000043f _TASK_2
C:\Users\PRESID~1\AppData\Local\Temp\ccR9pTsK.s:608    .text:00000444 _TASK_3
C:\Users\PRESID~1\AppData\Local\Temp\ccR9pTsK.s:626    .text:00000449 _OS_INIT_TASKS
C:\Users\PRESID~1\AppData\Local\Temp\ccR9pTsK.s:1018   .bss:00000420 _task_0.1361
C:\Users\PRESID~1\AppData\Local\Temp\ccR9pTsK.s:1013   .bss:000003ec _TASK_GROUP_1.1365
C:\Users\PRESID~1\AppData\Local\Temp\ccR9pTsK.s:1019   .bss:00000480 _task_1.1362
C:\Users\PRESID~1\AppData\Local\Temp\ccR9pTsK.s:1020   .bss:000004e0 _task_2.1363
C:\Users\PRESID~1\AppData\Local\Temp\ccR9pTsK.s:1014   .bss:000003f4 _TASK_GROUP_2.1366
C:\Users\PRESID~1\AppData\Local\Temp\ccR9pTsK.s:1021   .bss:00000540 _task_3.1364
C:\Users\PRESID~1\AppData\Local\Temp\ccR9pTsK.s:1015   .bss:000003fc _TASK_GROUP_3.1367
C:\Users\PRESID~1\AppData\Local\Temp\ccR9pTsK.s:707    .text:0000059a _OS_TaskScheduler
C:\Users\PRESID~1\AppData\Local\Temp\ccR9pTsK.s:1022   .bss:000005a0 _link_list_member.1377
C:\Users\PRESID~1\AppData\Local\Temp\ccR9pTsK.s:1023   .bss:000005a4 _task.1374
C:\Users\PRESID~1\AppData\Local\Temp\ccR9pTsK.s:1023   .bss:000005a8 _Winner_prio.1375
C:\Users\PRESID~1\AppData\Local\Temp\ccR9pTsK.s:919    .text:000007a8 _ISR_TASK_DISPATCH_C0
C:\Users\PRESID~1\AppData\Local\Temp\ccR9pTsK.s:943    .text:000007c1 _ISR_TASK_DISPATCH_C1
C:\Users\PRESID~1\AppData\Local\Temp\ccR9pTsK.s:967    .text:000007da _ISR_TASK_DISPATCH_C2
C:\Users\PRESID~1\AppData\Local\Temp\ccR9pTsK.s:991    .text:000007f3 _ISR_TASK_DISPATCH_C3
C:\Users\PRESID~1\AppData\Local\Temp\ccR9pTsK.s:1016   .bss:00000404 _TASK_GROUP_4.1368
C:\Users\PRESID~1\AppData\Local\Temp\ccR9pTsK.s:1017   .bss:0000040c _TASK_GROUP_5.1369

UNDEFINED SYMBOLS
_OS_STACK
_Get_current_time
_OS_SET_SW_BUG
_AddToTaskQueue
_AddToLinkList
_UpdateLinkList
_AddToIdleTaskQueue
_GET_CORE_ID
_OS_TASK_SAVE_SYSTEM_STACK
_OS_TASK_RESTORETASK_ENVIRONMENT
_SET_RUNNING_TASK
_OS_TASK_SAVETASK_ENVIRONMENT
_OS_TASK_RESTORE_SYSTEM_STACK
_GetRunningTask
_OS_INIT_TASK_QUEUE
_OS_INIT_TASK
_GetFromLinkList
_GetFromTaskQueue
_GetIdleTask
_LLF_ADD_2_TCMP
