GAS LISTING C:\Users\PRESID~1\AppData\Local\Temp\ccblGL8o.s 			page 1


   1              		.file	"os_task_scheduler.c"
   2              		.text
   3              	Ltext0:
   4              		.globl	_OS_ACTIVATE_DISPATCHER
   6              	_OS_ACTIVATE_DISPATCHER:
   7              	LFB0:
   8              		.file 1 "E:/NeuOrga/Programmieren/c_cpp/github_os/input/src/os_base/os_task_scheduler.c"
   1:E:/NeuOrga/Programmieren/c_cpp/github_os/input/src/os_base\os_task_scheduler.c **** #include "os_firstinc.h"
   2:E:/NeuOrga/Programmieren/c_cpp/github_os/input/src/os_base\os_task_scheduler.c **** #include "os_common.h"
   3:E:/NeuOrga/Programmieren/c_cpp/github_os/input/src/os_base\os_task_scheduler.c **** #include "os_task_common.h"
   4:E:/NeuOrga/Programmieren/c_cpp/github_os/input/src/os_base\os_task_scheduler.c **** #include "os_task_scheduler.h"
   5:E:/NeuOrga/Programmieren/c_cpp/github_os/input/src/os_base\os_task_scheduler.c **** #include "os_task_queue.h"
   6:E:/NeuOrga/Programmieren/c_cpp/github_os/input/src/os_base\os_task_scheduler.c **** #include "os_stack.h"
   7:E:/NeuOrga/Programmieren/c_cpp/github_os/input/src/os_base\os_task_scheduler.c **** 
   8:E:/NeuOrga/Programmieren/c_cpp/github_os/input/src/os_base\os_task_scheduler.c **** /*
   9:E:/NeuOrga/Programmieren/c_cpp/github_os/input/src/os_base\os_task_scheduler.c **** 1. running     --(terminate)--> suspend
  10:E:/NeuOrga/Programmieren/c_cpp/github_os/input/src/os_base\os_task_scheduler.c **** 2. running     --(preempt  )--> ready
  11:E:/NeuOrga/Programmieren/c_cpp/github_os/input/src/os_base\os_task_scheduler.c **** 3. suspend     --(activate )--> ready
  12:E:/NeuOrga/Programmieren/c_cpp/github_os/input/src/os_base\os_task_scheduler.c **** 4. ready       --(start    )--> running
  13:E:/NeuOrga/Programmieren/c_cpp/github_os/input/src/os_base\os_task_scheduler.c **** 5. unspecified --(create   )--> suspend
  14:E:/NeuOrga/Programmieren/c_cpp/github_os/input/src/os_base\os_task_scheduler.c **** */
  15:E:/NeuOrga/Programmieren/c_cpp/github_os/input/src/os_base\os_task_scheduler.c **** 
  16:E:/NeuOrga/Programmieren/c_cpp/github_os/input/src/os_base\os_task_scheduler.c **** Local void OS_STARTTASK(task_t* task);
  17:E:/NeuOrga/Programmieren/c_cpp/github_os/input/src/os_base\os_task_scheduler.c **** Local void TASK_0(void* task_ptr);
  18:E:/NeuOrga/Programmieren/c_cpp/github_os/input/src/os_base\os_task_scheduler.c **** Local void TASK_1(void* task_ptr);
  19:E:/NeuOrga/Programmieren/c_cpp/github_os/input/src/os_base\os_task_scheduler.c **** Local void TASK_2(void* task_ptr);
  20:E:/NeuOrga/Programmieren/c_cpp/github_os/input/src/os_base\os_task_scheduler.c **** Local task_t* OS_TaskScheduler();
  21:E:/NeuOrga/Programmieren/c_cpp/github_os/input/src/os_base\os_task_scheduler.c **** 
  22:E:/NeuOrga/Programmieren/c_cpp/github_os/input/src/os_base\os_task_scheduler.c **** void OS_ACTIVATE_DISPATCHER(void)
  23:E:/NeuOrga/Programmieren/c_cpp/github_os/input/src/os_base\os_task_scheduler.c **** {
   9              		.loc 1 23 0
  10              		.cfi_startproc
  11 0000 55       		pushl	%ebp
  12              		.cfi_def_cfa_offset 8
  13              		.cfi_offset 5, -8
  14 0001 89E5     		movl	%esp, %ebp
  15              		.cfi_def_cfa_register 5
  24:E:/NeuOrga/Programmieren/c_cpp/github_os/input/src/os_base\os_task_scheduler.c **** 
  25:E:/NeuOrga/Programmieren/c_cpp/github_os/input/src/os_base\os_task_scheduler.c ****    /* configure the TCMP */
  26:E:/NeuOrga/Programmieren/c_cpp/github_os/input/src/os_base\os_task_scheduler.c ****    /*
  27:E:/NeuOrga/Programmieren/c_cpp/github_os/input/src/os_base\os_task_scheduler.c ****    Dispatcher function for Core 0:
  28:E:/NeuOrga/Programmieren/c_cpp/github_os/input/src/os_base\os_task_scheduler.c ****     -> ISR_TASK_DISPATCH_C0
  29:E:/NeuOrga/Programmieren/c_cpp/github_os/input/src/os_base\os_task_scheduler.c ****    Write Adresse into the config register (interrupts are requested by SWI/SVC???)
  30:E:/NeuOrga/Programmieren/c_cpp/github_os/input/src/os_base\os_task_scheduler.c ****    */
  31:E:/NeuOrga/Programmieren/c_cpp/github_os/input/src/os_base\os_task_scheduler.c ****    #define SYSTICK_CTRL_STAT_REG ((uint32*)0xE000E010)
  32:E:/NeuOrga/Programmieren/c_cpp/github_os/input/src/os_base\os_task_scheduler.c ****    #define SYSTICK_RLD_VAL_REG   ((uint32*)0xE000E014)
  33:E:/NeuOrga/Programmieren/c_cpp/github_os/input/src/os_base\os_task_scheduler.c ****    #define SYSTICK_CURRENT_VAL_REG ((uint32*)0xE000E018)
  34:E:/NeuOrga/Programmieren/c_cpp/github_os/input/src/os_base\os_task_scheduler.c ****    #define SYSTICK_STAT_REG_TICKINT ((uint32)0x00000002)
  35:E:/NeuOrga/Programmieren/c_cpp/github_os/input/src/os_base\os_task_scheduler.c ****    #define SYSTICK_STAT_REG_ENABLE  ((uint32)0x00000001)
  36:E:/NeuOrga/Programmieren/c_cpp/github_os/input/src/os_base\os_task_scheduler.c ****    #define LOOPTIME_IN_USEC ((uint32)10000u)
  37:E:/NeuOrga/Programmieren/c_cpp/github_os/input/src/os_base\os_task_scheduler.c ****    /*
  38:E:/NeuOrga/Programmieren/c_cpp/github_os/input/src/os_base\os_task_scheduler.c ****    CLOCK = HCLK / 8
  39:E:/NeuOrga/Programmieren/c_cpp/github_os/input/src/os_base\os_task_scheduler.c ****    vermutlich: CLOCK = 150Mhz / 8 = 18,75 Mhz
  40:E:/NeuOrga/Programmieren/c_cpp/github_os/input/src/os_base\os_task_scheduler.c ****    */
  41:E:/NeuOrga/Programmieren/c_cpp/github_os/input/src/os_base\os_task_scheduler.c ****    #if(CFG_PROCESSOR == cMCU_CORTEX_M4)
  42:E:/NeuOrga/Programmieren/c_cpp/github_os/input/src/os_base\os_task_scheduler.c ****    *SYSTICK_RLD_VAL_REG = (*SYSTICK_RLD_VAL_REG & 0xFF000000 )| (((uint32)MCU_CLOCK_IN_HZ / ((uint3
  43:E:/NeuOrga/Programmieren/c_cpp/github_os/input/src/os_base\os_task_scheduler.c ****    *SYSTICK_CURRENT_VAL_REG = ((uint32)0x00000000);
GAS LISTING C:\Users\PRESID~1\AppData\Local\Temp\ccblGL8o.s 			page 2


  44:E:/NeuOrga/Programmieren/c_cpp/github_os/input/src/os_base\os_task_scheduler.c ****    *SYSTICK_CTRL_STAT_REG = *SYSTICK_CTRL_STAT_REG | SYSTICK_STAT_REG_TICKINT | SYSTICK_STAT_REG_EN
  45:E:/NeuOrga/Programmieren/c_cpp/github_os/input/src/os_base\os_task_scheduler.c ****    #endif
  46:E:/NeuOrga/Programmieren/c_cpp/github_os/input/src/os_base\os_task_scheduler.c **** }
  16              		.loc 1 46 0
  17 0003 5D       		popl	%ebp
  18              		.cfi_restore 5
  19              		.cfi_def_cfa 4, 4
  20 0004 C3       		ret
  21              		.cfi_endproc
  22              	LFE0:
  23              		.globl	_OS_SLEEPTASK
  25              	_OS_SLEEPTASK:
  26              	LFB1:
  47:E:/NeuOrga/Programmieren/c_cpp/github_os/input/src/os_base\os_task_scheduler.c **** 
  48:E:/NeuOrga/Programmieren/c_cpp/github_os/input/src/os_base\os_task_scheduler.c **** 
  49:E:/NeuOrga/Programmieren/c_cpp/github_os/input/src/os_base\os_task_scheduler.c **** void OS_SLEEPTASK(task_t* task, task_time_t millisec)
  50:E:/NeuOrga/Programmieren/c_cpp/github_os/input/src/os_base\os_task_scheduler.c **** {
  27              		.loc 1 50 0
  28              		.cfi_startproc
  29 0005 55       		pushl	%ebp
  30              		.cfi_def_cfa_offset 8
  31              		.cfi_offset 5, -8
  32 0006 89E5     		movl	%esp, %ebp
  33              		.cfi_def_cfa_register 5
  34 0008 83EC08   		subl	$8, %esp
  51:E:/NeuOrga/Programmieren/c_cpp/github_os/input/src/os_base\os_task_scheduler.c ****    task->WaitActUntil = Get_current_time() + millisec;
  35              		.loc 1 51 0
  36 000b E8000000 		call	_Get_current_time
  36      00
  37 0010 89C2     		movl	%eax, %edx
  38 0012 8B450C   		movl	12(%ebp), %eax
  39 0015 01C2     		addl	%eax, %edx
  40 0017 8B4508   		movl	8(%ebp), %eax
  41 001a 895008   		movl	%edx, 8(%eax)
  52:E:/NeuOrga/Programmieren/c_cpp/github_os/input/src/os_base\os_task_scheduler.c **** }
  42              		.loc 1 52 0
  43 001d C9       		leave
  44              		.cfi_restore 5
  45              		.cfi_def_cfa 4, 4
  46 001e C3       		ret
  47              		.cfi_endproc
  48              	LFE1:
  49              		.globl	_task_state_request
  51              	_task_state_request:
  52              	LFB2:
  53:E:/NeuOrga/Programmieren/c_cpp/github_os/input/src/os_base\os_task_scheduler.c **** 
  54:E:/NeuOrga/Programmieren/c_cpp/github_os/input/src/os_base\os_task_scheduler.c **** unsigned_char_t task_state_request(void* temp_task, task_state_t requested_state)
  55:E:/NeuOrga/Programmieren/c_cpp/github_os/input/src/os_base\os_task_scheduler.c **** {
  53              		.loc 1 55 0
  54              		.cfi_startproc
  55 001f 55       		pushl	%ebp
  56              		.cfi_def_cfa_offset 8
  57              		.cfi_offset 5, -8
  58 0020 89E5     		movl	%esp, %ebp
  59              		.cfi_def_cfa_register 5
  60 0022 83EC28   		subl	$40, %esp
  56:E:/NeuOrga/Programmieren/c_cpp/github_os/input/src/os_base\os_task_scheduler.c ****    unsigned_char_t RequestState = Rejected;
GAS LISTING C:\Users\PRESID~1\AppData\Local\Temp\ccblGL8o.s 			page 3


  61              		.loc 1 56 0
  62 0025 C645F700 		movb	$0, -9(%ebp)
  57:E:/NeuOrga/Programmieren/c_cpp/github_os/input/src/os_base\os_task_scheduler.c **** 
  58:E:/NeuOrga/Programmieren/c_cpp/github_os/input/src/os_base\os_task_scheduler.c ****    task_t* task = (task_t*) temp_task;
  63              		.loc 1 58 0
  64 0029 8B4508   		movl	8(%ebp), %eax
  65 002c 8945F0   		movl	%eax, -16(%ebp)
  59:E:/NeuOrga/Programmieren/c_cpp/github_os/input/src/os_base\os_task_scheduler.c **** 
  60:E:/NeuOrga/Programmieren/c_cpp/github_os/input/src/os_base\os_task_scheduler.c ****    switch(requested_state)
  66              		.loc 1 60 0
  67 002f 8B450C   		movl	12(%ebp), %eax
  68 0032 83F801   		cmpl	$1, %eax
  69 0035 743E     		je	L5
  70 0037 83F801   		cmpl	$1, %eax
  71 003a 7213     		jb	L6
  72 003c 83F802   		cmpl	$2, %eax
  73 003f 0F848000 		je	L7
  73      0000
  74 0045 83F803   		cmpl	$3, %eax
  75 0048 745D     		je	L8
  61:E:/NeuOrga/Programmieren/c_cpp/github_os/input/src/os_base\os_task_scheduler.c ****    {
  62:E:/NeuOrga/Programmieren/c_cpp/github_os/input/src/os_base\os_task_scheduler.c ****    case Task_unspecified:/* 1. create new task */
  63:E:/NeuOrga/Programmieren/c_cpp/github_os/input/src/os_base\os_task_scheduler.c ****    {
  64:E:/NeuOrga/Programmieren/c_cpp/github_os/input/src/os_base\os_task_scheduler.c ****       switch(task->task_state)
  65:E:/NeuOrga/Programmieren/c_cpp/github_os/input/src/os_base\os_task_scheduler.c ****       {
  66:E:/NeuOrga/Programmieren/c_cpp/github_os/input/src/os_base\os_task_scheduler.c ****       case Task_ready:
  67:E:/NeuOrga/Programmieren/c_cpp/github_os/input/src/os_base\os_task_scheduler.c ****       case Task_running:
  68:E:/NeuOrga/Programmieren/c_cpp/github_os/input/src/os_base\os_task_scheduler.c ****       case Task_suspended:
  69:E:/NeuOrga/Programmieren/c_cpp/github_os/input/src/os_base\os_task_scheduler.c ****       {
  70:E:/NeuOrga/Programmieren/c_cpp/github_os/input/src/os_base\os_task_scheduler.c ****          RequestState = Rejected;
  71:E:/NeuOrga/Programmieren/c_cpp/github_os/input/src/os_base\os_task_scheduler.c ****          break;
  72:E:/NeuOrga/Programmieren/c_cpp/github_os/input/src/os_base\os_task_scheduler.c ****       }
  73:E:/NeuOrga/Programmieren/c_cpp/github_os/input/src/os_base\os_task_scheduler.c ****       default:
  74:E:/NeuOrga/Programmieren/c_cpp/github_os/input/src/os_base\os_task_scheduler.c ****       {
  75:E:/NeuOrga/Programmieren/c_cpp/github_os/input/src/os_base\os_task_scheduler.c ****          task->task_state = Task_unspecified;
  76:E:/NeuOrga/Programmieren/c_cpp/github_os/input/src/os_base\os_task_scheduler.c ****          RequestState = Accepted;
  77:E:/NeuOrga/Programmieren/c_cpp/github_os/input/src/os_base\os_task_scheduler.c ****          break;
  78:E:/NeuOrga/Programmieren/c_cpp/github_os/input/src/os_base\os_task_scheduler.c ****       }
  79:E:/NeuOrga/Programmieren/c_cpp/github_os/input/src/os_base\os_task_scheduler.c ****       }
  80:E:/NeuOrga/Programmieren/c_cpp/github_os/input/src/os_base\os_task_scheduler.c ****       break;
  81:E:/NeuOrga/Programmieren/c_cpp/github_os/input/src/os_base\os_task_scheduler.c ****    }
  82:E:/NeuOrga/Programmieren/c_cpp/github_os/input/src/os_base\os_task_scheduler.c ****    case Task_suspended:
  83:E:/NeuOrga/Programmieren/c_cpp/github_os/input/src/os_base\os_task_scheduler.c ****    {
  84:E:/NeuOrga/Programmieren/c_cpp/github_os/input/src/os_base\os_task_scheduler.c ****       switch(task->task_state)
  85:E:/NeuOrga/Programmieren/c_cpp/github_os/input/src/os_base\os_task_scheduler.c ****       {
  86:E:/NeuOrga/Programmieren/c_cpp/github_os/input/src/os_base\os_task_scheduler.c ****       case Task_unspecified: /* 2. create task transition */
  87:E:/NeuOrga/Programmieren/c_cpp/github_os/input/src/os_base\os_task_scheduler.c ****       {
  88:E:/NeuOrga/Programmieren/c_cpp/github_os/input/src/os_base\os_task_scheduler.c ****          /* no checks */
  89:E:/NeuOrga/Programmieren/c_cpp/github_os/input/src/os_base\os_task_scheduler.c ****          task->task_state = Task_suspended;
  90:E:/NeuOrga/Programmieren/c_cpp/github_os/input/src/os_base\os_task_scheduler.c ****          RequestState = Accepted;
  91:E:/NeuOrga/Programmieren/c_cpp/github_os/input/src/os_base\os_task_scheduler.c ****          break;
  92:E:/NeuOrga/Programmieren/c_cpp/github_os/input/src/os_base\os_task_scheduler.c ****       }
  93:E:/NeuOrga/Programmieren/c_cpp/github_os/input/src/os_base\os_task_scheduler.c ****       case Task_running: /* 3. terminate task */
  94:E:/NeuOrga/Programmieren/c_cpp/github_os/input/src/os_base\os_task_scheduler.c ****       {
  95:E:/NeuOrga/Programmieren/c_cpp/github_os/input/src/os_base\os_task_scheduler.c ****          task->task_state = Task_suspended;
  96:E:/NeuOrga/Programmieren/c_cpp/github_os/input/src/os_base\os_task_scheduler.c ****          RequestState = Accepted;
  97:E:/NeuOrga/Programmieren/c_cpp/github_os/input/src/os_base\os_task_scheduler.c ****          break;
GAS LISTING C:\Users\PRESID~1\AppData\Local\Temp\ccblGL8o.s 			page 4


  98:E:/NeuOrga/Programmieren/c_cpp/github_os/input/src/os_base\os_task_scheduler.c ****       }
  99:E:/NeuOrga/Programmieren/c_cpp/github_os/input/src/os_base\os_task_scheduler.c ****       default:
 100:E:/NeuOrga/Programmieren/c_cpp/github_os/input/src/os_base\os_task_scheduler.c ****       {
 101:E:/NeuOrga/Programmieren/c_cpp/github_os/input/src/os_base\os_task_scheduler.c ****          /* no change in states allowed */
 102:E:/NeuOrga/Programmieren/c_cpp/github_os/input/src/os_base\os_task_scheduler.c ****          break;
 103:E:/NeuOrga/Programmieren/c_cpp/github_os/input/src/os_base\os_task_scheduler.c ****       }
 104:E:/NeuOrga/Programmieren/c_cpp/github_os/input/src/os_base\os_task_scheduler.c ****       }
 105:E:/NeuOrga/Programmieren/c_cpp/github_os/input/src/os_base\os_task_scheduler.c ****       break;
 106:E:/NeuOrga/Programmieren/c_cpp/github_os/input/src/os_base\os_task_scheduler.c ****    }
 107:E:/NeuOrga/Programmieren/c_cpp/github_os/input/src/os_base\os_task_scheduler.c ****    case Task_running:
 108:E:/NeuOrga/Programmieren/c_cpp/github_os/input/src/os_base\os_task_scheduler.c ****    {
 109:E:/NeuOrga/Programmieren/c_cpp/github_os/input/src/os_base\os_task_scheduler.c ****       switch(task->task_state)
 110:E:/NeuOrga/Programmieren/c_cpp/github_os/input/src/os_base\os_task_scheduler.c ****       {
 111:E:/NeuOrga/Programmieren/c_cpp/github_os/input/src/os_base\os_task_scheduler.c ****       case Task_ready: /* 4. start task transition */
 112:E:/NeuOrga/Programmieren/c_cpp/github_os/input/src/os_base\os_task_scheduler.c ****       {
 113:E:/NeuOrga/Programmieren/c_cpp/github_os/input/src/os_base\os_task_scheduler.c ****          task->task_state = Task_running;
 114:E:/NeuOrga/Programmieren/c_cpp/github_os/input/src/os_base\os_task_scheduler.c ****          RequestState   = Accepted;
 115:E:/NeuOrga/Programmieren/c_cpp/github_os/input/src/os_base\os_task_scheduler.c ****          break;
 116:E:/NeuOrga/Programmieren/c_cpp/github_os/input/src/os_base\os_task_scheduler.c ****       }
 117:E:/NeuOrga/Programmieren/c_cpp/github_os/input/src/os_base\os_task_scheduler.c ****       default:
 118:E:/NeuOrga/Programmieren/c_cpp/github_os/input/src/os_base\os_task_scheduler.c ****       {
 119:E:/NeuOrga/Programmieren/c_cpp/github_os/input/src/os_base\os_task_scheduler.c ****          /* no change in states allowed */
 120:E:/NeuOrga/Programmieren/c_cpp/github_os/input/src/os_base\os_task_scheduler.c ****          break;
 121:E:/NeuOrga/Programmieren/c_cpp/github_os/input/src/os_base\os_task_scheduler.c ****       }
 122:E:/NeuOrga/Programmieren/c_cpp/github_os/input/src/os_base\os_task_scheduler.c ****       }
 123:E:/NeuOrga/Programmieren/c_cpp/github_os/input/src/os_base\os_task_scheduler.c ****       break;
 124:E:/NeuOrga/Programmieren/c_cpp/github_os/input/src/os_base\os_task_scheduler.c **** 
 125:E:/NeuOrga/Programmieren/c_cpp/github_os/input/src/os_base\os_task_scheduler.c ****    }
 126:E:/NeuOrga/Programmieren/c_cpp/github_os/input/src/os_base\os_task_scheduler.c ****    case Task_ready:
 127:E:/NeuOrga/Programmieren/c_cpp/github_os/input/src/os_base\os_task_scheduler.c ****    {
 128:E:/NeuOrga/Programmieren/c_cpp/github_os/input/src/os_base\os_task_scheduler.c ****       switch(task->task_state)
 129:E:/NeuOrga/Programmieren/c_cpp/github_os/input/src/os_base\os_task_scheduler.c ****       {
 130:E:/NeuOrga/Programmieren/c_cpp/github_os/input/src/os_base\os_task_scheduler.c ****       case Task_suspended: /* activate task transition */
 131:E:/NeuOrga/Programmieren/c_cpp/github_os/input/src/os_base\os_task_scheduler.c ****       {
 132:E:/NeuOrga/Programmieren/c_cpp/github_os/input/src/os_base\os_task_scheduler.c ****          task->task_state = Task_ready;
 133:E:/NeuOrga/Programmieren/c_cpp/github_os/input/src/os_base\os_task_scheduler.c ****          RequestState   = Accepted;
 134:E:/NeuOrga/Programmieren/c_cpp/github_os/input/src/os_base\os_task_scheduler.c ****          break;
 135:E:/NeuOrga/Programmieren/c_cpp/github_os/input/src/os_base\os_task_scheduler.c ****       }
 136:E:/NeuOrga/Programmieren/c_cpp/github_os/input/src/os_base\os_task_scheduler.c ****       case Task_running: /* preempt task transition */
 137:E:/NeuOrga/Programmieren/c_cpp/github_os/input/src/os_base\os_task_scheduler.c ****       {
 138:E:/NeuOrga/Programmieren/c_cpp/github_os/input/src/os_base\os_task_scheduler.c ****          task->task_state = Task_ready;
 139:E:/NeuOrga/Programmieren/c_cpp/github_os/input/src/os_base\os_task_scheduler.c ****          RequestState   = Accepted;
 140:E:/NeuOrga/Programmieren/c_cpp/github_os/input/src/os_base\os_task_scheduler.c ****          break;
 141:E:/NeuOrga/Programmieren/c_cpp/github_os/input/src/os_base\os_task_scheduler.c ****       }
 142:E:/NeuOrga/Programmieren/c_cpp/github_os/input/src/os_base\os_task_scheduler.c ****       default:
 143:E:/NeuOrga/Programmieren/c_cpp/github_os/input/src/os_base\os_task_scheduler.c ****       {
 144:E:/NeuOrga/Programmieren/c_cpp/github_os/input/src/os_base\os_task_scheduler.c ****          /* no change in states allowed */
 145:E:/NeuOrga/Programmieren/c_cpp/github_os/input/src/os_base\os_task_scheduler.c ****          break;
 146:E:/NeuOrga/Programmieren/c_cpp/github_os/input/src/os_base\os_task_scheduler.c ****       }
 147:E:/NeuOrga/Programmieren/c_cpp/github_os/input/src/os_base\os_task_scheduler.c ****       }
 148:E:/NeuOrga/Programmieren/c_cpp/github_os/input/src/os_base\os_task_scheduler.c ****       break;
 149:E:/NeuOrga/Programmieren/c_cpp/github_os/input/src/os_base\os_task_scheduler.c ****    }
 150:E:/NeuOrga/Programmieren/c_cpp/github_os/input/src/os_base\os_task_scheduler.c ****    default:
 151:E:/NeuOrga/Programmieren/c_cpp/github_os/input/src/os_base\os_task_scheduler.c ****    {
 152:E:/NeuOrga/Programmieren/c_cpp/github_os/input/src/os_base\os_task_scheduler.c ****       break;
  76              		.loc 1 152 0
  77 004a E9A80000 		jmp	L12
GAS LISTING C:\Users\PRESID~1\AppData\Local\Temp\ccblGL8o.s 			page 5


  77      00
  78              	L6:
  64:E:/NeuOrga/Programmieren/c_cpp/github_os/input/src/os_base\os_task_scheduler.c ****       {
  79              		.loc 1 64 0
  80 004f 8B45F0   		movl	-16(%ebp), %eax
  81 0052 8B4034   		movl	52(%eax), %eax
  82 0055 48       		decl	%eax
  83 0056 83F802   		cmpl	$2, %eax
  84 0059 7706     		ja	L9
  70:E:/NeuOrga/Programmieren/c_cpp/github_os/input/src/os_base\os_task_scheduler.c ****          break;
  85              		.loc 1 70 0
  86 005b C645F700 		movb	$0, -9(%ebp)
  71:E:/NeuOrga/Programmieren/c_cpp/github_os/input/src/os_base\os_task_scheduler.c ****       }
  87              		.loc 1 71 0
  88 005f EB0F     		jmp	L11
  89              	L9:
  75:E:/NeuOrga/Programmieren/c_cpp/github_os/input/src/os_base\os_task_scheduler.c ****          RequestState = Accepted;
  90              		.loc 1 75 0
  91 0061 8B45F0   		movl	-16(%ebp), %eax
  92 0064 C7403400 		movl	$0, 52(%eax)
  92      000000
  76:E:/NeuOrga/Programmieren/c_cpp/github_os/input/src/os_base\os_task_scheduler.c ****          break;
  93              		.loc 1 76 0
  94 006b C645F701 		movb	$1, -9(%ebp)
  77:E:/NeuOrga/Programmieren/c_cpp/github_os/input/src/os_base\os_task_scheduler.c ****       }
  95              		.loc 1 77 0
  96 006f 90       		nop
  97              	L11:
  80:E:/NeuOrga/Programmieren/c_cpp/github_os/input/src/os_base\os_task_scheduler.c ****    }
  98              		.loc 1 80 0
  99 0070 E9820000 		jmp	L12
  99      00
 100              	L5:
  84:E:/NeuOrga/Programmieren/c_cpp/github_os/input/src/os_base\os_task_scheduler.c ****       {
 101              		.loc 1 84 0
 102 0075 8B45F0   		movl	-16(%ebp), %eax
 103 0078 8B4034   		movl	52(%eax), %eax
 104 007b 85C0     		testl	%eax, %eax
 105 007d 7407     		je	L14
 106 007f 83F803   		cmpl	$3, %eax
 107 0082 7412     		je	L15
 102:E:/NeuOrga/Programmieren/c_cpp/github_os/input/src/os_base\os_task_scheduler.c ****       }
 108              		.loc 1 102 0
 109 0084 EB1F     		jmp	L16
 110              	L14:
  89:E:/NeuOrga/Programmieren/c_cpp/github_os/input/src/os_base\os_task_scheduler.c ****          RequestState = Accepted;
 111              		.loc 1 89 0
 112 0086 8B45F0   		movl	-16(%ebp), %eax
 113 0089 C7403401 		movl	$1, 52(%eax)
 113      000000
  90:E:/NeuOrga/Programmieren/c_cpp/github_os/input/src/os_base\os_task_scheduler.c ****          break;
 114              		.loc 1 90 0
 115 0090 C645F701 		movb	$1, -9(%ebp)
  91:E:/NeuOrga/Programmieren/c_cpp/github_os/input/src/os_base\os_task_scheduler.c ****       }
 116              		.loc 1 91 0
 117 0094 EB0F     		jmp	L16
 118              	L15:
GAS LISTING C:\Users\PRESID~1\AppData\Local\Temp\ccblGL8o.s 			page 6


  95:E:/NeuOrga/Programmieren/c_cpp/github_os/input/src/os_base\os_task_scheduler.c ****          RequestState = Accepted;
 119              		.loc 1 95 0
 120 0096 8B45F0   		movl	-16(%ebp), %eax
 121 0099 C7403401 		movl	$1, 52(%eax)
 121      000000
  96:E:/NeuOrga/Programmieren/c_cpp/github_os/input/src/os_base\os_task_scheduler.c ****          break;
 122              		.loc 1 96 0
 123 00a0 C645F701 		movb	$1, -9(%ebp)
  97:E:/NeuOrga/Programmieren/c_cpp/github_os/input/src/os_base\os_task_scheduler.c ****       }
 124              		.loc 1 97 0
 125 00a4 90       		nop
 126              	L16:
 105:E:/NeuOrga/Programmieren/c_cpp/github_os/input/src/os_base\os_task_scheduler.c ****    }
 127              		.loc 1 105 0 discriminator 1
 128 00a5 EB50     		jmp	L12
 129              	L8:
 109:E:/NeuOrga/Programmieren/c_cpp/github_os/input/src/os_base\os_task_scheduler.c ****       {
 130              		.loc 1 109 0
 131 00a7 8B45F0   		movl	-16(%ebp), %eax
 132 00aa 8B4034   		movl	52(%eax), %eax
 133 00ad 83F802   		cmpl	$2, %eax
 134 00b0 7402     		je	L18
 120:E:/NeuOrga/Programmieren/c_cpp/github_os/input/src/os_base\os_task_scheduler.c ****       }
 135              		.loc 1 120 0
 136 00b2 EB0F     		jmp	L19
 137              	L18:
 113:E:/NeuOrga/Programmieren/c_cpp/github_os/input/src/os_base\os_task_scheduler.c ****          RequestState   = Accepted;
 138              		.loc 1 113 0
 139 00b4 8B45F0   		movl	-16(%ebp), %eax
 140 00b7 C7403403 		movl	$3, 52(%eax)
 140      000000
 114:E:/NeuOrga/Programmieren/c_cpp/github_os/input/src/os_base\os_task_scheduler.c ****          break;
 141              		.loc 1 114 0
 142 00be C645F701 		movb	$1, -9(%ebp)
 115:E:/NeuOrga/Programmieren/c_cpp/github_os/input/src/os_base\os_task_scheduler.c ****       }
 143              		.loc 1 115 0
 144 00c2 90       		nop
 145              	L19:
 123:E:/NeuOrga/Programmieren/c_cpp/github_os/input/src/os_base\os_task_scheduler.c **** 
 146              		.loc 1 123 0 discriminator 2
 147 00c3 EB32     		jmp	L12
 148              	L7:
 128:E:/NeuOrga/Programmieren/c_cpp/github_os/input/src/os_base\os_task_scheduler.c ****       {
 149              		.loc 1 128 0
 150 00c5 8B45F0   		movl	-16(%ebp), %eax
 151 00c8 8B4034   		movl	52(%eax), %eax
 152 00cb 83F801   		cmpl	$1, %eax
 153 00ce 7407     		je	L21
 154 00d0 83F803   		cmpl	$3, %eax
 155 00d3 7412     		je	L22
 145:E:/NeuOrga/Programmieren/c_cpp/github_os/input/src/os_base\os_task_scheduler.c ****       }
 156              		.loc 1 145 0
 157 00d5 EB1F     		jmp	L23
 158              	L21:
 132:E:/NeuOrga/Programmieren/c_cpp/github_os/input/src/os_base\os_task_scheduler.c ****          RequestState   = Accepted;
 159              		.loc 1 132 0
 160 00d7 8B45F0   		movl	-16(%ebp), %eax
GAS LISTING C:\Users\PRESID~1\AppData\Local\Temp\ccblGL8o.s 			page 7


 161 00da C7403402 		movl	$2, 52(%eax)
 161      000000
 133:E:/NeuOrga/Programmieren/c_cpp/github_os/input/src/os_base\os_task_scheduler.c ****          break;
 162              		.loc 1 133 0
 163 00e1 C645F701 		movb	$1, -9(%ebp)
 134:E:/NeuOrga/Programmieren/c_cpp/github_os/input/src/os_base\os_task_scheduler.c ****       }
 164              		.loc 1 134 0
 165 00e5 EB0F     		jmp	L23
 166              	L22:
 138:E:/NeuOrga/Programmieren/c_cpp/github_os/input/src/os_base\os_task_scheduler.c ****          RequestState   = Accepted;
 167              		.loc 1 138 0
 168 00e7 8B45F0   		movl	-16(%ebp), %eax
 169 00ea C7403402 		movl	$2, 52(%eax)
 169      000000
 139:E:/NeuOrga/Programmieren/c_cpp/github_os/input/src/os_base\os_task_scheduler.c ****          break;
 170              		.loc 1 139 0
 171 00f1 C645F701 		movb	$1, -9(%ebp)
 140:E:/NeuOrga/Programmieren/c_cpp/github_os/input/src/os_base\os_task_scheduler.c ****       }
 172              		.loc 1 140 0
 173 00f5 90       		nop
 174              	L23:
 148:E:/NeuOrga/Programmieren/c_cpp/github_os/input/src/os_base\os_task_scheduler.c ****    }
 175              		.loc 1 148 0 discriminator 3
 176 00f6 90       		nop
 177              	L12:
 153:E:/NeuOrga/Programmieren/c_cpp/github_os/input/src/os_base\os_task_scheduler.c ****    }
 154:E:/NeuOrga/Programmieren/c_cpp/github_os/input/src/os_base\os_task_scheduler.c ****    }
 155:E:/NeuOrga/Programmieren/c_cpp/github_os/input/src/os_base\os_task_scheduler.c ****    if(RequestState == Rejected)
 178              		.loc 1 155 0
 179 00f7 807DF700 		cmpb	$0, -9(%ebp)
 180 00fb 7514     		jne	L24
 156:E:/NeuOrga/Programmieren/c_cpp/github_os/input/src/os_base\os_task_scheduler.c ****    {
 157:E:/NeuOrga/Programmieren/c_cpp/github_os/input/src/os_base\os_task_scheduler.c ****       OS_SET_SW_BUG(os_bug_taskstate_request_denied, Func_TaskStateRequest);
 181              		.loc 1 157 0
 182 00fd C7442404 		movl	$11, 4(%esp)
 182      0B000000 
 183 0105 C7042401 		movl	$1, (%esp)
 183      000000
 184 010c E8000000 		call	_OS_SET_SW_BUG
 184      00
 185              	L24:
 158:E:/NeuOrga/Programmieren/c_cpp/github_os/input/src/os_base\os_task_scheduler.c ****    }
 159:E:/NeuOrga/Programmieren/c_cpp/github_os/input/src/os_base\os_task_scheduler.c ****    return RequestState;
 186              		.loc 1 159 0
 187 0111 8A45F7   		movb	-9(%ebp), %al
 160:E:/NeuOrga/Programmieren/c_cpp/github_os/input/src/os_base\os_task_scheduler.c **** }
 188              		.loc 1 160 0
 189 0114 C9       		leave
 190              		.cfi_restore 5
 191              		.cfi_def_cfa 4, 4
 192 0115 C3       		ret
 193              		.cfi_endproc
 194              	LFE2:
 195              		.globl	_OS_ActivateTask
 197              	_OS_ActivateTask:
 198              	LFB3:
 161:E:/NeuOrga/Programmieren/c_cpp/github_os/input/src/os_base\os_task_scheduler.c **** void OS_ActivateTask(task_t* task)
GAS LISTING C:\Users\PRESID~1\AppData\Local\Temp\ccblGL8o.s 			page 8


 162:E:/NeuOrga/Programmieren/c_cpp/github_os/input/src/os_base\os_task_scheduler.c **** {
 199              		.loc 1 162 0
 200              		.cfi_startproc
 201 0116 55       		pushl	%ebp
 202              		.cfi_def_cfa_offset 8
 203              		.cfi_offset 5, -8
 204 0117 89E5     		movl	%esp, %ebp
 205              		.cfi_def_cfa_register 5
 206 0119 83EC18   		subl	$24, %esp
 163:E:/NeuOrga/Programmieren/c_cpp/github_os/input/src/os_base\os_task_scheduler.c ****    /*
 164:E:/NeuOrga/Programmieren/c_cpp/github_os/input/src/os_base\os_task_scheduler.c ****    Activate Task:
 165:E:/NeuOrga/Programmieren/c_cpp/github_os/input/src/os_base\os_task_scheduler.c ****    - Disable Interrupts
 166:E:/NeuOrga/Programmieren/c_cpp/github_os/input/src/os_base\os_task_scheduler.c ****    - Add to schedule Queue
 167:E:/NeuOrga/Programmieren/c_cpp/github_os/input/src/os_base\os_task_scheduler.c ****    - Enable Interrupts
 168:E:/NeuOrga/Programmieren/c_cpp/github_os/input/src/os_base\os_task_scheduler.c **** 
 169:E:/NeuOrga/Programmieren/c_cpp/github_os/input/src/os_base\os_task_scheduler.c ****    in case of valid request, the content, where the "task_t* task" is point to is stored in TASK_RU
 170:E:/NeuOrga/Programmieren/c_cpp/github_os/input/src/os_base\os_task_scheduler.c ****    */
 171:E:/NeuOrga/Programmieren/c_cpp/github_os/input/src/os_base\os_task_scheduler.c ****    if(task != 0)
 207              		.loc 1 171 0
 208 011c 837D0800 		cmpl	$0, 8(%ebp)
 209 0120 0F84AC00 		je	L26
 209      0000
 172:E:/NeuOrga/Programmieren/c_cpp/github_os/input/src/os_base\os_task_scheduler.c ****    {
 173:E:/NeuOrga/Programmieren/c_cpp/github_os/input/src/os_base\os_task_scheduler.c ****       if((task->IdleTask != False)||(task->state_request(task, Task_ready)==Accepted))
 210              		.loc 1 173 0
 211 0126 8B4508   		movl	8(%ebp), %eax
 212 0129 8A00     		movb	(%eax), %al
 213 012b 83E004   		andl	$4, %eax
 214 012e 84C0     		testb	%al, %al
 215 0130 751A     		jne	L28
 216              		.loc 1 173 0 is_stmt 0 discriminator 1
 217 0132 8B4508   		movl	8(%ebp), %eax
 218 0135 8B4030   		movl	48(%eax), %eax
 219 0138 C7442404 		movl	$2, 4(%esp)
 219      02000000 
 220 0140 8B5508   		movl	8(%ebp), %edx
 221 0143 891424   		movl	%edx, (%esp)
 222 0146 FFD0     		call	*%eax
 223 0148 3C01     		cmpb	$1, %al
 224 014a 7572     		jne	L29
 225              	L28:
 174:E:/NeuOrga/Programmieren/c_cpp/github_os/input/src/os_base\os_task_scheduler.c ****       {
 175:E:/NeuOrga/Programmieren/c_cpp/github_os/input/src/os_base\os_task_scheduler.c ****          DisableInterrupts();
 176:E:/NeuOrga/Programmieren/c_cpp/github_os/input/src/os_base\os_task_scheduler.c ****          /* 3. suspended to ready (add to runqueue) */
 177:E:/NeuOrga/Programmieren/c_cpp/github_os/input/src/os_base\os_task_scheduler.c ****          if(task->IdleTask == False)
 226              		.loc 1 177 0 is_stmt 1
 227 014c 8B4508   		movl	8(%ebp), %eax
 228 014f 8A00     		movb	(%eax), %al
 229 0151 83E004   		andl	$4, %eax
 230 0154 84C0     		testb	%al, %al
 231 0156 7557     		jne	L30
 178:E:/NeuOrga/Programmieren/c_cpp/github_os/input/src/os_base\os_task_scheduler.c ****          {
 179:E:/NeuOrga/Programmieren/c_cpp/github_os/input/src/os_base\os_task_scheduler.c ****             if( (task->active == False)
 232              		.loc 1 179 0
 233 0158 8B4508   		movl	8(%ebp), %eax
 234 015b 8A00     		movb	(%eax), %al
 235 015d 83E001   		andl	$1, %eax
GAS LISTING C:\Users\PRESID~1\AppData\Local\Temp\ccblGL8o.s 			page 9


 236 0160 84C0     		testb	%al, %al
 237 0162 741C     		je	L31
 180:E:/NeuOrga/Programmieren/c_cpp/github_os/input/src/os_base\os_task_scheduler.c ****                   || ( (task->active == True) && (task->NrOfInsAllowed > task->NrOfInsActivated) )/
 238              		.loc 1 180 0
 239 0164 8B4508   		movl	8(%ebp), %eax
 240 0167 8A00     		movb	(%eax), %al
 241 0169 83E001   		andl	$1, %eax
 242 016c 84C0     		testb	%al, %al
 243 016e 744C     		je	L33
 244              		.loc 1 180 0 is_stmt 0 discriminator 1
 245 0170 8B4508   		movl	8(%ebp), %eax
 246 0173 8A5004   		movb	4(%eax), %dl
 247 0176 8B4508   		movl	8(%ebp), %eax
 248 0179 8A4005   		movb	5(%eax), %al
 249 017c 38C2     		cmpb	%al, %dl
 250 017e 763C     		jbe	L33
 251              	L31:
 181:E:/NeuOrga/Programmieren/c_cpp/github_os/input/src/os_base\os_task_scheduler.c ****               )
 182:E:/NeuOrga/Programmieren/c_cpp/github_os/input/src/os_base\os_task_scheduler.c ****             {
 183:E:/NeuOrga/Programmieren/c_cpp/github_os/input/src/os_base\os_task_scheduler.c ****                /* only activate if allowed by rule */
 184:E:/NeuOrga/Programmieren/c_cpp/github_os/input/src/os_base\os_task_scheduler.c ****                task = AddToTaskQueue(task);
 252              		.loc 1 184 0 is_stmt 1
 253 0180 8B4508   		movl	8(%ebp), %eax
 254 0183 890424   		movl	%eax, (%esp)
 255 0186 E8000000 		call	_AddToTaskQueue
 255      00
 256 018b 894508   		movl	%eax, 8(%ebp)
 185:E:/NeuOrga/Programmieren/c_cpp/github_os/input/src/os_base\os_task_scheduler.c **** 
 186:E:/NeuOrga/Programmieren/c_cpp/github_os/input/src/os_base\os_task_scheduler.c ****                AddToLinkList(task);
 257              		.loc 1 186 0
 258 018e 8B4508   		movl	8(%ebp), %eax
 259 0191 890424   		movl	%eax, (%esp)
 260 0194 E8000000 		call	_AddToLinkList
 260      00
 187:E:/NeuOrga/Programmieren/c_cpp/github_os/input/src/os_base\os_task_scheduler.c ****                UpdateLinkList();
 261              		.loc 1 187 0
 262 0199 E8000000 		call	_UpdateLinkList
 262      00
 188:E:/NeuOrga/Programmieren/c_cpp/github_os/input/src/os_base\os_task_scheduler.c ****                task->NrOfInsActivated++;
 263              		.loc 1 188 0
 264 019e 8B4508   		movl	8(%ebp), %eax
 265 01a1 8A4005   		movb	5(%eax), %al
 266 01a4 8D5001   		leal	1(%eax), %edx
 267 01a7 8B4508   		movl	8(%ebp), %eax
 268 01aa 885005   		movb	%dl, 5(%eax)
 177:E:/NeuOrga/Programmieren/c_cpp/github_os/input/src/os_base\os_task_scheduler.c ****          {
 269              		.loc 1 177 0
 270 01ad EB23     		jmp	L26
 271              	L30:
 189:E:/NeuOrga/Programmieren/c_cpp/github_os/input/src/os_base\os_task_scheduler.c ****             }
 190:E:/NeuOrga/Programmieren/c_cpp/github_os/input/src/os_base\os_task_scheduler.c ****             else
 191:E:/NeuOrga/Programmieren/c_cpp/github_os/input/src/os_base\os_task_scheduler.c ****             {
 192:E:/NeuOrga/Programmieren/c_cpp/github_os/input/src/os_base\os_task_scheduler.c ****                /* multiple activation bug occured */
 193:E:/NeuOrga/Programmieren/c_cpp/github_os/input/src/os_base\os_task_scheduler.c ****             }
 194:E:/NeuOrga/Programmieren/c_cpp/github_os/input/src/os_base\os_task_scheduler.c ****          }
 195:E:/NeuOrga/Programmieren/c_cpp/github_os/input/src/os_base\os_task_scheduler.c ****          else
 196:E:/NeuOrga/Programmieren/c_cpp/github_os/input/src/os_base\os_task_scheduler.c ****          {
GAS LISTING C:\Users\PRESID~1\AppData\Local\Temp\ccblGL8o.s 			page 10


 197:E:/NeuOrga/Programmieren/c_cpp/github_os/input/src/os_base\os_task_scheduler.c ****             AddToIdleTaskQueue(task);
 272              		.loc 1 197 0
 273 01af 8B4508   		movl	8(%ebp), %eax
 274 01b2 890424   		movl	%eax, (%esp)
 275 01b5 E8000000 		call	_AddToIdleTaskQueue
 275      00
 177:E:/NeuOrga/Programmieren/c_cpp/github_os/input/src/os_base\os_task_scheduler.c ****          {
 276              		.loc 1 177 0
 277 01ba EB16     		jmp	L26
 278              	L33:
 177:E:/NeuOrga/Programmieren/c_cpp/github_os/input/src/os_base\os_task_scheduler.c ****          {
 279              		.loc 1 177 0 is_stmt 0 discriminator 1
 280 01bc EB14     		jmp	L26
 281              	L29:
 198:E:/NeuOrga/Programmieren/c_cpp/github_os/input/src/os_base\os_task_scheduler.c ****          }
 199:E:/NeuOrga/Programmieren/c_cpp/github_os/input/src/os_base\os_task_scheduler.c ****          EnableInterrupts();
 200:E:/NeuOrga/Programmieren/c_cpp/github_os/input/src/os_base\os_task_scheduler.c ****       }
 201:E:/NeuOrga/Programmieren/c_cpp/github_os/input/src/os_base\os_task_scheduler.c ****       else
 202:E:/NeuOrga/Programmieren/c_cpp/github_os/input/src/os_base\os_task_scheduler.c ****       {
 203:E:/NeuOrga/Programmieren/c_cpp/github_os/input/src/os_base\os_task_scheduler.c ****          OS_SET_SW_BUG(os_bug_taskstate_request_denied, Func_ActivateTask);
 282              		.loc 1 203 0 is_stmt 1
 283 01be C7442404 		movl	$10, 4(%esp)
 283      0A000000 
 284 01c6 C7042401 		movl	$1, (%esp)
 284      000000
 285 01cd E8000000 		call	_OS_SET_SW_BUG
 285      00
 286              	L26:
 204:E:/NeuOrga/Programmieren/c_cpp/github_os/input/src/os_base\os_task_scheduler.c ****       }
 205:E:/NeuOrga/Programmieren/c_cpp/github_os/input/src/os_base\os_task_scheduler.c ****    }
 206:E:/NeuOrga/Programmieren/c_cpp/github_os/input/src/os_base\os_task_scheduler.c **** }
 287              		.loc 1 206 0
 288 01d2 C9       		leave
 289              		.cfi_restore 5
 290              		.cfi_def_cfa 4, 4
 291 01d3 C3       		ret
 292              		.cfi_endproc
 293              	LFE3:
 295              	_OS_STARTTASK:
 296              	LFB4:
 207:E:/NeuOrga/Programmieren/c_cpp/github_os/input/src/os_base\os_task_scheduler.c **** Local void OS_STARTTASK(task_t* task)
 208:E:/NeuOrga/Programmieren/c_cpp/github_os/input/src/os_base\os_task_scheduler.c **** {
 297              		.loc 1 208 0
 298              		.cfi_startproc
 299 01d4 55       		pushl	%ebp
 300              		.cfi_def_cfa_offset 8
 301              		.cfi_offset 5, -8
 302 01d5 89E5     		movl	%esp, %ebp
 303              		.cfi_def_cfa_register 5
 304 01d7 83EC18   		subl	$24, %esp
 209:E:/NeuOrga/Programmieren/c_cpp/github_os/input/src/os_base\os_task_scheduler.c ****    /* OS_STARTTASK
 210:E:/NeuOrga/Programmieren/c_cpp/github_os/input/src/os_base\os_task_scheduler.c ****    - Disable interrupts
 211:E:/NeuOrga/Programmieren/c_cpp/github_os/input/src/os_base\os_task_scheduler.c ****    - restore Environment
 212:E:/NeuOrga/Programmieren/c_cpp/github_os/input/src/os_base\os_task_scheduler.c ****    - enable interrupts
 213:E:/NeuOrga/Programmieren/c_cpp/github_os/input/src/os_base\os_task_scheduler.c **** 
 214:E:/NeuOrga/Programmieren/c_cpp/github_os/input/src/os_base\os_task_scheduler.c ****    - Start Task
 215:E:/NeuOrga/Programmieren/c_cpp/github_os/input/src/os_base\os_task_scheduler.c ****     */
GAS LISTING C:\Users\PRESID~1\AppData\Local\Temp\ccblGL8o.s 			page 11


 216:E:/NeuOrga/Programmieren/c_cpp/github_os/input/src/os_base\os_task_scheduler.c ****    if(task != 0 && ((task->task_queued != False)||(task->IdleTask != False)))
 305              		.loc 1 216 0
 306 01da 837D0800 		cmpl	$0, 8(%ebp)
 307 01de 0F84E500 		je	L34
 307      0000
 308              		.loc 1 216 0 is_stmt 0 discriminator 1
 309 01e4 8B4508   		movl	8(%ebp), %eax
 310 01e7 8A00     		movb	(%eax), %al
 311 01e9 83E002   		andl	$2, %eax
 312 01ec 84C0     		testb	%al, %al
 313 01ee 7510     		jne	L36
 314              		.loc 1 216 0 discriminator 2
 315 01f0 8B4508   		movl	8(%ebp), %eax
 316 01f3 8A00     		movb	(%eax), %al
 317 01f5 83E004   		andl	$4, %eax
 318 01f8 84C0     		testb	%al, %al
 319 01fa 0F84C900 		je	L34
 319      0000
 320              	L36:
 217:E:/NeuOrga/Programmieren/c_cpp/github_os/input/src/os_base\os_task_scheduler.c ****    {
 218:E:/NeuOrga/Programmieren/c_cpp/github_os/input/src/os_base\os_task_scheduler.c ****       if(task->state_request !=0)
 321              		.loc 1 218 0 is_stmt 1
 322 0200 8B4508   		movl	8(%ebp), %eax
 323 0203 8B4030   		movl	48(%eax), %eax
 324 0206 85C0     		testl	%eax, %eax
 325 0208 0F84A700 		je	L37
 325      0000
 219:E:/NeuOrga/Programmieren/c_cpp/github_os/input/src/os_base\os_task_scheduler.c ****       {
 220:E:/NeuOrga/Programmieren/c_cpp/github_os/input/src/os_base\os_task_scheduler.c ****          if(task->state_request(task, Task_running)== Accepted)
 326              		.loc 1 220 0
 327 020e 8B4508   		movl	8(%ebp), %eax
 328 0211 8B4030   		movl	48(%eax), %eax
 329 0214 C7442404 		movl	$3, 4(%esp)
 329      03000000 
 330 021c 8B5508   		movl	8(%ebp), %edx
 331 021f 891424   		movl	%edx, (%esp)
 332 0222 FFD0     		call	*%eax
 333 0224 3C01     		cmpb	$1, %al
 334 0226 7577     		jne	L38
 221:E:/NeuOrga/Programmieren/c_cpp/github_os/input/src/os_base\os_task_scheduler.c ****          {
 222:E:/NeuOrga/Programmieren/c_cpp/github_os/input/src/os_base\os_task_scheduler.c ****             DisableInterrupts();
 223:E:/NeuOrga/Programmieren/c_cpp/github_os/input/src/os_base\os_task_scheduler.c ****             task->active =  True;
 335              		.loc 1 223 0
 336 0228 8B4508   		movl	8(%ebp), %eax
 337 022b 8A10     		movb	(%eax), %dl
 338 022d 83CA01   		orl	$1, %edx
 339 0230 8810     		movb	%dl, (%eax)
 224:E:/NeuOrga/Programmieren/c_cpp/github_os/input/src/os_base\os_task_scheduler.c ****             task->wait_time = 0;
 340              		.loc 1 224 0
 341 0232 8B4508   		movl	8(%ebp), %eax
 342 0235 C7400C00 		movl	$0, 12(%eax)
 342      000000
 225:E:/NeuOrga/Programmieren/c_cpp/github_os/input/src/os_base\os_task_scheduler.c ****             task->current_prio = task->default_prio;
 343              		.loc 1 225 0
 344 023c 8B4508   		movl	8(%ebp), %eax
 345 023f 8A5025   		movb	37(%eax), %dl
 346 0242 8B4508   		movl	8(%ebp), %eax
GAS LISTING C:\Users\PRESID~1\AppData\Local\Temp\ccblGL8o.s 			page 12


 347 0245 885024   		movb	%dl, 36(%eax)
 226:E:/NeuOrga/Programmieren/c_cpp/github_os/input/src/os_base\os_task_scheduler.c ****             OS_TASK_SAVE_SYSTEM_STACK(&OS_STACK[GET_CORE_ID()][0]);
 348              		.loc 1 226 0
 349 0248 E8000000 		call	_GET_CORE_ID
 349      00
 350 024d C1E008   		sall	$8, %eax
 351 0250 05000000 		addl	$_OS_STACK, %eax
 351      00
 352 0255 890424   		movl	%eax, (%esp)
 353 0258 E8000000 		call	_OS_TASK_SAVE_SYSTEM_STACK
 353      00
 227:E:/NeuOrga/Programmieren/c_cpp/github_os/input/src/os_base\os_task_scheduler.c ****             OS_TASK_RESTORETASK_ENVIRONMENT(task);
 354              		.loc 1 227 0
 355 025d 8B4508   		movl	8(%ebp), %eax
 356 0260 890424   		movl	%eax, (%esp)
 357 0263 E8000000 		call	_OS_TASK_RESTORETASK_ENVIRONMENT
 357      00
 228:E:/NeuOrga/Programmieren/c_cpp/github_os/input/src/os_base\os_task_scheduler.c ****             task->start_time = Get_current_time();
 358              		.loc 1 228 0
 359 0268 E8000000 		call	_Get_current_time
 359      00
 360 026d 89C2     		movl	%eax, %edx
 361 026f 8B4508   		movl	8(%ebp), %eax
 362 0272 895020   		movl	%edx, 32(%eax)
 229:E:/NeuOrga/Programmieren/c_cpp/github_os/input/src/os_base\os_task_scheduler.c ****             EnableInterrupts();
 230:E:/NeuOrga/Programmieren/c_cpp/github_os/input/src/os_base\os_task_scheduler.c **** 
 231:E:/NeuOrga/Programmieren/c_cpp/github_os/input/src/os_base\os_task_scheduler.c ****             /* task execution shall not happen with disabled interrupts */
 232:E:/NeuOrga/Programmieren/c_cpp/github_os/input/src/os_base\os_task_scheduler.c ****             SET_RUNNING_TASK(task);
 363              		.loc 1 232 0
 364 0275 8B4508   		movl	8(%ebp), %eax
 365 0278 890424   		movl	%eax, (%esp)
 366 027b E8000000 		call	_SET_RUNNING_TASK
 366      00
 233:E:/NeuOrga/Programmieren/c_cpp/github_os/input/src/os_base\os_task_scheduler.c ****             /* change to user mode... */
 234:E:/NeuOrga/Programmieren/c_cpp/github_os/input/src/os_base\os_task_scheduler.c ****             if(task->privilige_mode == ePriviligeMode_unpriviliged_thread_mode)
 367              		.loc 1 234 0
 368 0280 8B4508   		movl	8(%ebp), %eax
 369 0283 8B4060   		movl	96(%eax), %eax
 370 0286 85C0     		testl	%eax, %eax
 371 0288 7505     		jne	L39
 235:E:/NeuOrga/Programmieren/c_cpp/github_os/input/src/os_base\os_task_scheduler.c ****             {
 236:E:/NeuOrga/Programmieren/c_cpp/github_os/input/src/os_base\os_task_scheduler.c ****                LLF_CHANGE_TO_UNPRIVILIGED_THREAD_MODE();
 372              		.loc 1 236 0
 373 028a E8000000 		call	_LLF_CHANGE_TO_UNPRIVILIGED_THREAD_MODE
 373      00
 374              	L39:
 237:E:/NeuOrga/Programmieren/c_cpp/github_os/input/src/os_base\os_task_scheduler.c ****             }            
 238:E:/NeuOrga/Programmieren/c_cpp/github_os/input/src/os_base\os_task_scheduler.c ****   
 239:E:/NeuOrga/Programmieren/c_cpp/github_os/input/src/os_base\os_task_scheduler.c ****             /* call the task entry function */  
 240:E:/NeuOrga/Programmieren/c_cpp/github_os/input/src/os_base\os_task_scheduler.c ****             task->fp(task);
 375              		.loc 1 240 0
 376 028f 8B4508   		movl	8(%ebp), %eax
 377 0292 8B402C   		movl	44(%eax), %eax
 378 0295 8B5508   		movl	8(%ebp), %edx
 379 0298 891424   		movl	%edx, (%esp)
 380 029b FFD0     		call	*%eax
 381 029d EB2A     		jmp	L34
GAS LISTING C:\Users\PRESID~1\AppData\Local\Temp\ccblGL8o.s 			page 13


 382              	L38:
 241:E:/NeuOrga/Programmieren/c_cpp/github_os/input/src/os_base\os_task_scheduler.c ****          }
 242:E:/NeuOrga/Programmieren/c_cpp/github_os/input/src/os_base\os_task_scheduler.c ****          else
 243:E:/NeuOrga/Programmieren/c_cpp/github_os/input/src/os_base\os_task_scheduler.c ****          {
 244:E:/NeuOrga/Programmieren/c_cpp/github_os/input/src/os_base\os_task_scheduler.c ****             OS_SET_SW_BUG(os_bug_taskstate_request_denied, Func_StartTask);
 383              		.loc 1 244 0
 384 029f C7442404 		movl	$5, 4(%esp)
 384      05000000 
 385 02a7 C7042401 		movl	$1, (%esp)
 385      000000
 386 02ae E8000000 		call	_OS_SET_SW_BUG
 386      00
 387 02b3 EB14     		jmp	L34
 388              	L37:
 245:E:/NeuOrga/Programmieren/c_cpp/github_os/input/src/os_base\os_task_scheduler.c ****          }
 246:E:/NeuOrga/Programmieren/c_cpp/github_os/input/src/os_base\os_task_scheduler.c **** 
 247:E:/NeuOrga/Programmieren/c_cpp/github_os/input/src/os_base\os_task_scheduler.c ****       }
 248:E:/NeuOrga/Programmieren/c_cpp/github_os/input/src/os_base\os_task_scheduler.c ****       else
 249:E:/NeuOrga/Programmieren/c_cpp/github_os/input/src/os_base\os_task_scheduler.c ****       {
 250:E:/NeuOrga/Programmieren/c_cpp/github_os/input/src/os_base\os_task_scheduler.c ****          OS_SET_SW_BUG(os_bug_null_pointer, Func_StartTask);
 389              		.loc 1 250 0
 390 02b5 C7442404 		movl	$5, 4(%esp)
 390      05000000 
 391 02bd C7042402 		movl	$2, (%esp)
 391      000000
 392 02c4 E8000000 		call	_OS_SET_SW_BUG
 392      00
 393              	L34:
 251:E:/NeuOrga/Programmieren/c_cpp/github_os/input/src/os_base\os_task_scheduler.c ****       }
 252:E:/NeuOrga/Programmieren/c_cpp/github_os/input/src/os_base\os_task_scheduler.c ****    }
 253:E:/NeuOrga/Programmieren/c_cpp/github_os/input/src/os_base\os_task_scheduler.c ****    /* allowed in case of empty QUEUE elements (queue elements which have no activate_task yet recei
 254:E:/NeuOrga/Programmieren/c_cpp/github_os/input/src/os_base\os_task_scheduler.c ****    else
 255:E:/NeuOrga/Programmieren/c_cpp/github_os/input/src/os_base\os_task_scheduler.c ****    {
 256:E:/NeuOrga/Programmieren/c_cpp/github_os/input/src/os_base\os_task_scheduler.c ****        OS_SET_SW_BUG(os_bug_null_pointer, Func_StartTask);
 257:E:/NeuOrga/Programmieren/c_cpp/github_os/input/src/os_base\os_task_scheduler.c ****    }
 258:E:/NeuOrga/Programmieren/c_cpp/github_os/input/src/os_base\os_task_scheduler.c ****    */
 259:E:/NeuOrga/Programmieren/c_cpp/github_os/input/src/os_base\os_task_scheduler.c **** }
 394              		.loc 1 259 0
 395 02c9 C9       		leave
 396              		.cfi_restore 5
 397              		.cfi_def_cfa 4, 4
 398 02ca C3       		ret
 399              		.cfi_endproc
 400              	LFE4:
 401              		.globl	_OS_TERMINATE_TASK
 403              	_OS_TERMINATE_TASK:
 404              	LFB5:
 260:E:/NeuOrga/Programmieren/c_cpp/github_os/input/src/os_base\os_task_scheduler.c **** void OS_TERMINATE_TASK(task_t* task)
 261:E:/NeuOrga/Programmieren/c_cpp/github_os/input/src/os_base\os_task_scheduler.c **** {
 405              		.loc 1 261 0
 406              		.cfi_startproc
 407 02cb 55       		pushl	%ebp
 408              		.cfi_def_cfa_offset 8
 409              		.cfi_offset 5, -8
 410 02cc 89E5     		movl	%esp, %ebp
 411              		.cfi_def_cfa_register 5
 412 02ce 83EC18   		subl	$24, %esp
GAS LISTING C:\Users\PRESID~1\AppData\Local\Temp\ccblGL8o.s 			page 14


 262:E:/NeuOrga/Programmieren/c_cpp/github_os/input/src/os_base\os_task_scheduler.c ****    /* Preempt task
 263:E:/NeuOrga/Programmieren/c_cpp/github_os/input/src/os_base\os_task_scheduler.c ****    - Disable Interrupts
 264:E:/NeuOrga/Programmieren/c_cpp/github_os/input/src/os_base\os_task_scheduler.c ****    - os_TASK_SAVETASK_ENVIRONMENT
 265:E:/NeuOrga/Programmieren/c_cpp/github_os/input/src/os_base\os_task_scheduler.c ****    - add to Schedule Queue / delete from RunQueue
 266:E:/NeuOrga/Programmieren/c_cpp/github_os/input/src/os_base\os_task_scheduler.c ****    - delete active flag
 267:E:/NeuOrga/Programmieren/c_cpp/github_os/input/src/os_base\os_task_scheduler.c ****    - enable Interrupts
 268:E:/NeuOrga/Programmieren/c_cpp/github_os/input/src/os_base\os_task_scheduler.c ****    */
 269:E:/NeuOrga/Programmieren/c_cpp/github_os/input/src/os_base\os_task_scheduler.c ****    if(task != 0)
 413              		.loc 1 269 0
 414 02d1 837D0800 		cmpl	$0, 8(%ebp)
 415 02d5 0F849400 		je	L42
 415      0000
 270:E:/NeuOrga/Programmieren/c_cpp/github_os/input/src/os_base\os_task_scheduler.c ****    {
 271:E:/NeuOrga/Programmieren/c_cpp/github_os/input/src/os_base\os_task_scheduler.c ****       if(task->state_request != 0)
 416              		.loc 1 271 0
 417 02db 8B4508   		movl	8(%ebp), %eax
 418 02de 8B4030   		movl	48(%eax), %eax
 419 02e1 85C0     		testl	%eax, %eax
 420 02e3 7474     		je	L43
 272:E:/NeuOrga/Programmieren/c_cpp/github_os/input/src/os_base\os_task_scheduler.c ****       {
 273:E:/NeuOrga/Programmieren/c_cpp/github_os/input/src/os_base\os_task_scheduler.c ****          if((task->IdleTask != False)||(task->state_request(task, Task_ready)== Accepted))
 421              		.loc 1 273 0
 422 02e5 8B4508   		movl	8(%ebp), %eax
 423 02e8 8A00     		movb	(%eax), %al
 424 02ea 83E004   		andl	$4, %eax
 425 02ed 84C0     		testb	%al, %al
 426 02ef 751A     		jne	L44
 427              		.loc 1 273 0 is_stmt 0 discriminator 1
 428 02f1 8B4508   		movl	8(%ebp), %eax
 429 02f4 8B4030   		movl	48(%eax), %eax
 430 02f7 C7442404 		movl	$2, 4(%esp)
 430      02000000 
 431 02ff 8B5508   		movl	8(%ebp), %edx
 432 0302 891424   		movl	%edx, (%esp)
 433 0305 FFD0     		call	*%eax
 434 0307 3C01     		cmpb	$1, %al
 435 0309 7538     		jne	L45
 436              	L44:
 274:E:/NeuOrga/Programmieren/c_cpp/github_os/input/src/os_base\os_task_scheduler.c ****          {
 275:E:/NeuOrga/Programmieren/c_cpp/github_os/input/src/os_base\os_task_scheduler.c ****             DisableInterrupts();
 276:E:/NeuOrga/Programmieren/c_cpp/github_os/input/src/os_base\os_task_scheduler.c ****             OS_TASK_SAVETASK_ENVIRONMENT(task);
 437              		.loc 1 276 0 is_stmt 1
 438 030b 8B4508   		movl	8(%ebp), %eax
 439 030e 890424   		movl	%eax, (%esp)
 440 0311 E8000000 		call	_OS_TASK_SAVETASK_ENVIRONMENT
 440      00
 277:E:/NeuOrga/Programmieren/c_cpp/github_os/input/src/os_base\os_task_scheduler.c ****             OS_TASK_RESTORE_SYSTEM_STACK(&OS_STACK[GET_CORE_ID()][0]);
 441              		.loc 1 277 0
 442 0316 E8000000 		call	_GET_CORE_ID
 442      00
 443 031b C1E008   		sall	$8, %eax
 444 031e 05000000 		addl	$_OS_STACK, %eax
 444      00
 445 0323 890424   		movl	%eax, (%esp)
 446 0326 E8000000 		call	_OS_TASK_RESTORE_SYSTEM_STACK
 446      00
 278:E:/NeuOrga/Programmieren/c_cpp/github_os/input/src/os_base\os_task_scheduler.c **** 
GAS LISTING C:\Users\PRESID~1\AppData\Local\Temp\ccblGL8o.s 			page 15


 279:E:/NeuOrga/Programmieren/c_cpp/github_os/input/src/os_base\os_task_scheduler.c ****             task->active = False;
 447              		.loc 1 279 0
 448 032b 8B4508   		movl	8(%ebp), %eax
 449 032e 8A10     		movb	(%eax), %dl
 450 0330 83E2FE   		andl	$-2, %edx
 451 0333 8810     		movb	%dl, (%eax)
 280:E:/NeuOrga/Programmieren/c_cpp/github_os/input/src/os_base\os_task_scheduler.c ****             /* reset the prio increase for waiting */
 281:E:/NeuOrga/Programmieren/c_cpp/github_os/input/src/os_base\os_task_scheduler.c ****             task->current_prio = task->default_prio;
 452              		.loc 1 281 0
 453 0335 8B4508   		movl	8(%ebp), %eax
 454 0338 8A5025   		movb	37(%eax), %dl
 455 033b 8B4508   		movl	8(%ebp), %eax
 456 033e 885024   		movb	%dl, 36(%eax)
 457 0341 EB40     		jmp	L41
 458              	L45:
 282:E:/NeuOrga/Programmieren/c_cpp/github_os/input/src/os_base\os_task_scheduler.c ****             EnableInterrupts();
 283:E:/NeuOrga/Programmieren/c_cpp/github_os/input/src/os_base\os_task_scheduler.c ****          }
 284:E:/NeuOrga/Programmieren/c_cpp/github_os/input/src/os_base\os_task_scheduler.c ****          else
 285:E:/NeuOrga/Programmieren/c_cpp/github_os/input/src/os_base\os_task_scheduler.c ****          {
 286:E:/NeuOrga/Programmieren/c_cpp/github_os/input/src/os_base\os_task_scheduler.c ****             OS_SET_SW_BUG(os_bug_taskstate_request_denied, Func_TerminateTask);
 459              		.loc 1 286 0
 460 0343 C7442404 		movl	$7, 4(%esp)
 460      07000000 
 461 034b C7042401 		movl	$1, (%esp)
 461      000000
 462 0352 E8000000 		call	_OS_SET_SW_BUG
 462      00
 463 0357 EB2A     		jmp	L41
 464              	L43:
 287:E:/NeuOrga/Programmieren/c_cpp/github_os/input/src/os_base\os_task_scheduler.c ****          }
 288:E:/NeuOrga/Programmieren/c_cpp/github_os/input/src/os_base\os_task_scheduler.c ****       }
 289:E:/NeuOrga/Programmieren/c_cpp/github_os/input/src/os_base\os_task_scheduler.c ****       else
 290:E:/NeuOrga/Programmieren/c_cpp/github_os/input/src/os_base\os_task_scheduler.c ****       {
 291:E:/NeuOrga/Programmieren/c_cpp/github_os/input/src/os_base\os_task_scheduler.c ****          OS_SET_SW_BUG(os_bug_null_pointer, Func_TerminateTask);
 465              		.loc 1 291 0
 466 0359 C7442404 		movl	$7, 4(%esp)
 466      07000000 
 467 0361 C7042402 		movl	$2, (%esp)
 467      000000
 468 0368 E8000000 		call	_OS_SET_SW_BUG
 468      00
 469 036d EB14     		jmp	L41
 470              	L42:
 292:E:/NeuOrga/Programmieren/c_cpp/github_os/input/src/os_base\os_task_scheduler.c ****       }
 293:E:/NeuOrga/Programmieren/c_cpp/github_os/input/src/os_base\os_task_scheduler.c **** 
 294:E:/NeuOrga/Programmieren/c_cpp/github_os/input/src/os_base\os_task_scheduler.c ****    }
 295:E:/NeuOrga/Programmieren/c_cpp/github_os/input/src/os_base\os_task_scheduler.c ****    else
 296:E:/NeuOrga/Programmieren/c_cpp/github_os/input/src/os_base\os_task_scheduler.c ****    {
 297:E:/NeuOrga/Programmieren/c_cpp/github_os/input/src/os_base\os_task_scheduler.c ****       OS_SET_SW_BUG(os_bug_null_pointer, Func_TerminateTask);
 471              		.loc 1 297 0
 472 036f C7442404 		movl	$7, 4(%esp)
 472      07000000 
 473 0377 C7042402 		movl	$2, (%esp)
 473      000000
 474 037e E8000000 		call	_OS_SET_SW_BUG
 474      00
 475              	L41:
GAS LISTING C:\Users\PRESID~1\AppData\Local\Temp\ccblGL8o.s 			page 16


 298:E:/NeuOrga/Programmieren/c_cpp/github_os/input/src/os_base\os_task_scheduler.c ****    }
 299:E:/NeuOrga/Programmieren/c_cpp/github_os/input/src/os_base\os_task_scheduler.c **** }
 476              		.loc 1 299 0
 477 0383 C9       		leave
 478              		.cfi_restore 5
 479              		.cfi_def_cfa 4, 4
 480 0384 C3       		ret
 481              		.cfi_endproc
 482              	LFE5:
 483              		.globl	_OS_TASK_DISPATCHER
 485              	_OS_TASK_DISPATCHER:
 486              	LFB6:
 300:E:/NeuOrga/Programmieren/c_cpp/github_os/input/src/os_base\os_task_scheduler.c **** void OS_TASK_DISPATCHER(void)
 301:E:/NeuOrga/Programmieren/c_cpp/github_os/input/src/os_base\os_task_scheduler.c **** {
 487              		.loc 1 301 0
 488              		.cfi_startproc
 489 0385 55       		pushl	%ebp
 490              		.cfi_def_cfa_offset 8
 491              		.cfi_offset 5, -8
 492 0386 89E5     		movl	%esp, %ebp
 493              		.cfi_def_cfa_register 5
 494 0388 83EC28   		subl	$40, %esp
 302:E:/NeuOrga/Programmieren/c_cpp/github_os/input/src/os_base\os_task_scheduler.c ****    /* called in an certain core context (Core_0/1/2/3)*/
 303:E:/NeuOrga/Programmieren/c_cpp/github_os/input/src/os_base\os_task_scheduler.c **** 
 304:E:/NeuOrga/Programmieren/c_cpp/github_os/input/src/os_base\os_task_scheduler.c **** 
 305:E:/NeuOrga/Programmieren/c_cpp/github_os/input/src/os_base\os_task_scheduler.c ****    /*
 306:E:/NeuOrga/Programmieren/c_cpp/github_os/input/src/os_base\os_task_scheduler.c ****    1. running     --(terminate)--> suspend
 307:E:/NeuOrga/Programmieren/c_cpp/github_os/input/src/os_base\os_task_scheduler.c ****    2. running     --(preempt  )--> ready
 308:E:/NeuOrga/Programmieren/c_cpp/github_os/input/src/os_base\os_task_scheduler.c ****    3. suspend     --(activate )--> ready
 309:E:/NeuOrga/Programmieren/c_cpp/github_os/input/src/os_base\os_task_scheduler.c ****    4. ready       --(start    )--> running
 310:E:/NeuOrga/Programmieren/c_cpp/github_os/input/src/os_base\os_task_scheduler.c ****    5. unspecified --(create   )--> suspend
 311:E:/NeuOrga/Programmieren/c_cpp/github_os/input/src/os_base\os_task_scheduler.c ****    */
 312:E:/NeuOrga/Programmieren/c_cpp/github_os/input/src/os_base\os_task_scheduler.c ****    task_t* task = 0;
 495              		.loc 1 312 0
 496 038b C745F400 		movl	$0, -12(%ebp)
 496      000000
 313:E:/NeuOrga/Programmieren/c_cpp/github_os/input/src/os_base\os_task_scheduler.c ****    /* get running task */
 314:E:/NeuOrga/Programmieren/c_cpp/github_os/input/src/os_base\os_task_scheduler.c ****    task = GetRunningTask(); /* bug: at first call of TaskSheduler*//* might reply tasks in state re
 497              		.loc 1 314 0
 498 0392 E8000000 		call	_GetRunningTask
 498      00
 499 0397 8945F4   		movl	%eax, -12(%ebp)
 315:E:/NeuOrga/Programmieren/c_cpp/github_os/input/src/os_base\os_task_scheduler.c **** 
 316:E:/NeuOrga/Programmieren/c_cpp/github_os/input/src/os_base\os_task_scheduler.c ****    /* Preempt Task */
 317:E:/NeuOrga/Programmieren/c_cpp/github_os/input/src/os_base\os_task_scheduler.c ****    if(task!=0)
 500              		.loc 1 317 0
 501 039a 837DF400 		cmpl	$0, -12(%ebp)
 502 039e 740B     		je	L50
 318:E:/NeuOrga/Programmieren/c_cpp/github_os/input/src/os_base\os_task_scheduler.c ****    {
 319:E:/NeuOrga/Programmieren/c_cpp/github_os/input/src/os_base\os_task_scheduler.c ****       OS_TERMINATE_TASK(task);   
 503              		.loc 1 319 0
 504 03a0 8B45F4   		movl	-12(%ebp), %eax
 505 03a3 890424   		movl	%eax, (%esp)
 506 03a6 E820FFFF 		call	_OS_TERMINATE_TASK
 506      FF
 507              	L50:
 320:E:/NeuOrga/Programmieren/c_cpp/github_os/input/src/os_base\os_task_scheduler.c ****    }   
GAS LISTING C:\Users\PRESID~1\AppData\Local\Temp\ccblGL8o.s 			page 17


 321:E:/NeuOrga/Programmieren/c_cpp/github_os/input/src/os_base\os_task_scheduler.c ****    
 322:E:/NeuOrga/Programmieren/c_cpp/github_os/input/src/os_base\os_task_scheduler.c **** 
 323:E:/NeuOrga/Programmieren/c_cpp/github_os/input/src/os_base\os_task_scheduler.c ****    /* ask for the next task to be activated... */
 324:E:/NeuOrga/Programmieren/c_cpp/github_os/input/src/os_base\os_task_scheduler.c ****    task = OS_TaskScheduler();
 508              		.loc 1 324 0
 509 03ab E8EC0100 		call	_OS_TaskScheduler
 509      00
 510 03b0 8945F4   		movl	%eax, -12(%ebp)
 325:E:/NeuOrga/Programmieren/c_cpp/github_os/input/src/os_base\os_task_scheduler.c **** 
 326:E:/NeuOrga/Programmieren/c_cpp/github_os/input/src/os_base\os_task_scheduler.c ****    OS_STARTTASK(task);
 511              		.loc 1 326 0
 512 03b3 8B45F4   		movl	-12(%ebp), %eax
 513 03b6 890424   		movl	%eax, (%esp)
 514 03b9 E816FEFF 		call	_OS_STARTTASK
 514      FF
 327:E:/NeuOrga/Programmieren/c_cpp/github_os/input/src/os_base\os_task_scheduler.c **** }
 515              		.loc 1 327 0
 516 03be C9       		leave
 517              		.cfi_restore 5
 518              		.cfi_def_cfa 4, 4
 519 03bf C3       		ret
 520              		.cfi_endproc
 521              	LFE6:
 523              	_TASK_0:
 524              	LFB7:
 328:E:/NeuOrga/Programmieren/c_cpp/github_os/input/src/os_base\os_task_scheduler.c **** Local void TASK_0(void* task_ptr)
 329:E:/NeuOrga/Programmieren/c_cpp/github_os/input/src/os_base\os_task_scheduler.c **** {
 525              		.loc 1 329 0
 526              		.cfi_startproc
 527 03c0 55       		pushl	%ebp
 528              		.cfi_def_cfa_offset 8
 529              		.cfi_offset 5, -8
 530 03c1 89E5     		movl	%esp, %ebp
 531              		.cfi_def_cfa_register 5
 330:E:/NeuOrga/Programmieren/c_cpp/github_os/input/src/os_base\os_task_scheduler.c ****    ReferenceUnusedParameter(task_ptr);
 331:E:/NeuOrga/Programmieren/c_cpp/github_os/input/src/os_base\os_task_scheduler.c ****    HaltMcu();/* HLT will be ended by timer interrupt, what shall be done with the rest of the funct
 332:E:/NeuOrga/Programmieren/c_cpp/github_os/input/src/os_base\os_task_scheduler.c **** }
 532              		.loc 1 332 0
 533 03c3 5D       		popl	%ebp
 534              		.cfi_restore 5
 535              		.cfi_def_cfa 4, 4
 536 03c4 C3       		ret
 537              		.cfi_endproc
 538              	LFE7:
 540              	_TASK_1:
 541              	LFB8:
 333:E:/NeuOrga/Programmieren/c_cpp/github_os/input/src/os_base\os_task_scheduler.c **** Local void TASK_1(void* task_ptr)
 334:E:/NeuOrga/Programmieren/c_cpp/github_os/input/src/os_base\os_task_scheduler.c **** {
 542              		.loc 1 334 0
 543              		.cfi_startproc
 544 03c5 55       		pushl	%ebp
 545              		.cfi_def_cfa_offset 8
 546              		.cfi_offset 5, -8
 547 03c6 89E5     		movl	%esp, %ebp
 548              		.cfi_def_cfa_register 5
 549 03c8 83EC18   		subl	$24, %esp
 335:E:/NeuOrga/Programmieren/c_cpp/github_os/input/src/os_base\os_task_scheduler.c ****    ReferenceUnusedParameter(task_ptr);
GAS LISTING C:\Users\PRESID~1\AppData\Local\Temp\ccblGL8o.s 			page 18


 336:E:/NeuOrga/Programmieren/c_cpp/github_os/input/src/os_base\os_task_scheduler.c ****    /* worker task */
 337:E:/NeuOrga/Programmieren/c_cpp/github_os/input/src/os_base\os_task_scheduler.c **** 
 338:E:/NeuOrga/Programmieren/c_cpp/github_os/input/src/os_base\os_task_scheduler.c ****    /* do some things */
 339:E:/NeuOrga/Programmieren/c_cpp/github_os/input/src/os_base\os_task_scheduler.c ****    /*while(1) {}*/
 340:E:/NeuOrga/Programmieren/c_cpp/github_os/input/src/os_base\os_task_scheduler.c ****    TASK1_CALL_NR++;
 550              		.loc 1 340 0
 551 03cb A1000000 		movl	_TASK1_CALL_NR, %eax
 551      00
 552 03d0 40       		incl	%eax
 553 03d1 A3000000 		movl	%eax, _TASK1_CALL_NR
 553      00
 341:E:/NeuOrga/Programmieren/c_cpp/github_os/input/src/os_base\os_task_scheduler.c ****    OS_SLEEPTASK((task_t*)task_ptr, 10);
 554              		.loc 1 341 0
 555 03d6 C7442404 		movl	$10, 4(%esp)
 555      0A000000 
 556 03de 8B4508   		movl	8(%ebp), %eax
 557 03e1 890424   		movl	%eax, (%esp)
 558 03e4 E81CFCFF 		call	_OS_SLEEPTASK
 558      FF
 559              	L53:
 342:E:/NeuOrga/Programmieren/c_cpp/github_os/input/src/os_base\os_task_scheduler.c ****    while(1) {}
 560              		.loc 1 342 0 discriminator 1
 561 03e9 EBFE     		jmp	L53
 562              		.cfi_endproc
 563              	LFE8:
 565              	_TASK_2:
 566              	LFB9:
 343:E:/NeuOrga/Programmieren/c_cpp/github_os/input/src/os_base\os_task_scheduler.c ****    /* end */
 344:E:/NeuOrga/Programmieren/c_cpp/github_os/input/src/os_base\os_task_scheduler.c **** }
 345:E:/NeuOrga/Programmieren/c_cpp/github_os/input/src/os_base\os_task_scheduler.c **** Local void TASK_2(void* task_ptr)
 346:E:/NeuOrga/Programmieren/c_cpp/github_os/input/src/os_base\os_task_scheduler.c **** {
 567              		.loc 1 346 0
 568              		.cfi_startproc
 569 03eb 55       		pushl	%ebp
 570              		.cfi_def_cfa_offset 8
 571              		.cfi_offset 5, -8
 572 03ec 89E5     		movl	%esp, %ebp
 573              		.cfi_def_cfa_register 5
 347:E:/NeuOrga/Programmieren/c_cpp/github_os/input/src/os_base\os_task_scheduler.c ****    ReferenceUnusedParameter(task_ptr);
 348:E:/NeuOrga/Programmieren/c_cpp/github_os/input/src/os_base\os_task_scheduler.c ****    /* worker task */
 349:E:/NeuOrga/Programmieren/c_cpp/github_os/input/src/os_base\os_task_scheduler.c **** 
 350:E:/NeuOrga/Programmieren/c_cpp/github_os/input/src/os_base\os_task_scheduler.c ****    /* do some things */
 351:E:/NeuOrga/Programmieren/c_cpp/github_os/input/src/os_base\os_task_scheduler.c ****    TASK2_CALL_NR++;
 574              		.loc 1 351 0
 575 03ee A1000000 		movl	_TASK2_CALL_NR, %eax
 575      00
 576 03f3 40       		incl	%eax
 577 03f4 A3000000 		movl	%eax, _TASK2_CALL_NR
 577      00
 578              	L55:
 352:E:/NeuOrga/Programmieren/c_cpp/github_os/input/src/os_base\os_task_scheduler.c ****    while(1) {}
 579              		.loc 1 352 0 discriminator 1
 580 03f9 EBFE     		jmp	L55
 581              		.cfi_endproc
 582              	LFE9:
 584              	_TASK_3:
 585              	LFB10:
GAS LISTING C:\Users\PRESID~1\AppData\Local\Temp\ccblGL8o.s 			page 19


 353:E:/NeuOrga/Programmieren/c_cpp/github_os/input/src/os_base\os_task_scheduler.c ****    /* end */
 354:E:/NeuOrga/Programmieren/c_cpp/github_os/input/src/os_base\os_task_scheduler.c **** }
 355:E:/NeuOrga/Programmieren/c_cpp/github_os/input/src/os_base\os_task_scheduler.c **** Local void TASK_3(void* task_ptr)
 356:E:/NeuOrga/Programmieren/c_cpp/github_os/input/src/os_base\os_task_scheduler.c **** {
 586              		.loc 1 356 0
 587              		.cfi_startproc
 588 03fb 55       		pushl	%ebp
 589              		.cfi_def_cfa_offset 8
 590              		.cfi_offset 5, -8
 591 03fc 89E5     		movl	%esp, %ebp
 592              		.cfi_def_cfa_register 5
 357:E:/NeuOrga/Programmieren/c_cpp/github_os/input/src/os_base\os_task_scheduler.c ****    ReferenceUnusedParameter(task_ptr);
 358:E:/NeuOrga/Programmieren/c_cpp/github_os/input/src/os_base\os_task_scheduler.c ****    /* worker task */
 359:E:/NeuOrga/Programmieren/c_cpp/github_os/input/src/os_base\os_task_scheduler.c **** 
 360:E:/NeuOrga/Programmieren/c_cpp/github_os/input/src/os_base\os_task_scheduler.c ****    /* do some things */
 361:E:/NeuOrga/Programmieren/c_cpp/github_os/input/src/os_base\os_task_scheduler.c ****    TASK3_CALL_NR++;
 593              		.loc 1 361 0
 594 03fe A1000000 		movl	_TASK3_CALL_NR, %eax
 594      00
 595 0403 40       		incl	%eax
 596 0404 A3000000 		movl	%eax, _TASK3_CALL_NR
 596      00
 597              	L57:
 362:E:/NeuOrga/Programmieren/c_cpp/github_os/input/src/os_base\os_task_scheduler.c ****    while(1) {}
 598              		.loc 1 362 0 discriminator 1
 599 0409 EBFE     		jmp	L57
 600              		.cfi_endproc
 601              	LFE10:
 602              		.globl	_OS_INIT_TASKS
 604              	_OS_INIT_TASKS:
 605              	LFB11:
 363:E:/NeuOrga/Programmieren/c_cpp/github_os/input/src/os_base\os_task_scheduler.c ****    /* end */
 364:E:/NeuOrga/Programmieren/c_cpp/github_os/input/src/os_base\os_task_scheduler.c **** }
 365:E:/NeuOrga/Programmieren/c_cpp/github_os/input/src/os_base\os_task_scheduler.c **** void OS_INIT_TASKS(void)
 366:E:/NeuOrga/Programmieren/c_cpp/github_os/input/src/os_base\os_task_scheduler.c **** {
 606              		.loc 1 366 0
 607              		.cfi_startproc
 608 040b 55       		pushl	%ebp
 609              		.cfi_def_cfa_offset 8
 610              		.cfi_offset 5, -8
 611 040c 89E5     		movl	%esp, %ebp
 612              		.cfi_def_cfa_register 5
 613 040e 83EC48   		subl	$72, %esp
 367:E:/NeuOrga/Programmieren/c_cpp/github_os/input/src/os_base\os_task_scheduler.c ****    Local task_t task_0, task_1, task_2, task_3;
 368:E:/NeuOrga/Programmieren/c_cpp/github_os/input/src/os_base\os_task_scheduler.c ****    Local task_group_t TASK_GROUP_1;
 369:E:/NeuOrga/Programmieren/c_cpp/github_os/input/src/os_base\os_task_scheduler.c ****    Local task_group_t TASK_GROUP_2;
 370:E:/NeuOrga/Programmieren/c_cpp/github_os/input/src/os_base\os_task_scheduler.c ****    Local task_group_t TASK_GROUP_3;
 371:E:/NeuOrga/Programmieren/c_cpp/github_os/input/src/os_base\os_task_scheduler.c ****    Local task_group_t TASK_GROUP_4;
 372:E:/NeuOrga/Programmieren/c_cpp/github_os/input/src/os_base\os_task_scheduler.c ****    Local task_group_t TASK_GROUP_5;
 373:E:/NeuOrga/Programmieren/c_cpp/github_os/input/src/os_base\os_task_scheduler.c ****    task_t* task_ptr = 0;
 614              		.loc 1 373 0
 615 0411 C745F400 		movl	$0, -12(%ebp)
 615      000000
 374:E:/NeuOrga/Programmieren/c_cpp/github_os/input/src/os_base\os_task_scheduler.c ****    LAST_CURRENT_TIME = Get_current_time();
 616              		.loc 1 374 0
 617 0418 E8000000 		call	_Get_current_time
 617      00
GAS LISTING C:\Users\PRESID~1\AppData\Local\Temp\ccblGL8o.s 			page 20


 618 041d A3000000 		movl	%eax, _LAST_CURRENT_TIME
 618      00
 375:E:/NeuOrga/Programmieren/c_cpp/github_os/input/src/os_base\os_task_scheduler.c **** 
 376:E:/NeuOrga/Programmieren/c_cpp/github_os/input/src/os_base\os_task_scheduler.c ****    ReferenceUnusedParameter (TASK_GROUP_1);
 377:E:/NeuOrga/Programmieren/c_cpp/github_os/input/src/os_base\os_task_scheduler.c ****    ReferenceUnusedParameter (TASK_GROUP_2);
 378:E:/NeuOrga/Programmieren/c_cpp/github_os/input/src/os_base\os_task_scheduler.c ****    ReferenceUnusedParameter (TASK_GROUP_3);
 379:E:/NeuOrga/Programmieren/c_cpp/github_os/input/src/os_base\os_task_scheduler.c ****    ReferenceUnusedParameter (TASK_GROUP_4);
 380:E:/NeuOrga/Programmieren/c_cpp/github_os/input/src/os_base\os_task_scheduler.c ****    ReferenceUnusedParameter (TASK_GROUP_5);
 381:E:/NeuOrga/Programmieren/c_cpp/github_os/input/src/os_base\os_task_scheduler.c **** 
 382:E:/NeuOrga/Programmieren/c_cpp/github_os/input/src/os_base\os_task_scheduler.c ****     /*
 383:E:/NeuOrga/Programmieren/c_cpp/github_os/input/src/os_base\os_task_scheduler.c ****    set task_state for all tasks to Task_unspecified
 384:E:/NeuOrga/Programmieren/c_cpp/github_os/input/src/os_base\os_task_scheduler.c ****     */
 385:E:/NeuOrga/Programmieren/c_cpp/github_os/input/src/os_base\os_task_scheduler.c ****    OS_INIT_TASK_QUEUE();
 619              		.loc 1 385 0
 620 0422 E8000000 		call	_OS_INIT_TASK_QUEUE
 620      00
 386:E:/NeuOrga/Programmieren/c_cpp/github_os/input/src/os_base\os_task_scheduler.c **** 
 387:E:/NeuOrga/Programmieren/c_cpp/github_os/input/src/os_base\os_task_scheduler.c ****    /* setup idle task */
 388:E:/NeuOrga/Programmieren/c_cpp/github_os/input/src/os_base\os_task_scheduler.c ****    task_ptr = &task_0;
 621              		.loc 1 388 0
 622 0427 C745F440 		movl	$_task_0.1376, -12(%ebp)
 622      000000
 389:E:/NeuOrga/Programmieren/c_cpp/github_os/input/src/os_base\os_task_scheduler.c ****    OS_INIT_TASK(task_ptr,                          /* task */
 623              		.loc 1 389 0
 624 042e C7442424 		movl	$0, 36(%esp)
 624      00000000 
 625 0436 C7442420 		movl	$0, 32(%esp)
 625      00000000 
 626 043e C744241C 		movl	$0, 28(%esp)
 626      00000000 
 627 0446 C7442418 		movl	$200, 24(%esp)
 627      C8000000 
 628 044e C7442414 		movl	$_TASK_STACK, 20(%esp)
 628      00000000 
 629 0456 C7442410 		movl	$_TASK_GROUP_1.1380, 16(%esp)
 629      00000000 
 630 045e C744240C 		movl	$1, 12(%esp)
 630      01000000 
 631 0466 C7442408 		movl	$1, 8(%esp)
 631      01000000 
 632 046e C7442404 		movl	$_TASK_0, 4(%esp)
 632      C0030000 
 633 0476 8B45F4   		movl	-12(%ebp), %eax
 634 0479 890424   		movl	%eax, (%esp)
 635 047c E8000000 		call	_OS_INIT_TASK
 635      00
 390:E:/NeuOrga/Programmieren/c_cpp/github_os/input/src/os_base\os_task_scheduler.c ****                 &TASK_0,                           /* Task Function*/
 391:E:/NeuOrga/Programmieren/c_cpp/github_os/input/src/os_base\os_task_scheduler.c ****                 1,                                 /* Nr of allowed instances*/
 392:E:/NeuOrga/Programmieren/c_cpp/github_os/input/src/os_base\os_task_scheduler.c ****                 True,                              /* Idle Task */
 393:E:/NeuOrga/Programmieren/c_cpp/github_os/input/src/os_base\os_task_scheduler.c ****                 &TASK_GROUP_1,                     /* Task Group */
 394:E:/NeuOrga/Programmieren/c_cpp/github_os/input/src/os_base\os_task_scheduler.c ****                 (unsigned_char_t*)&TASK_STACK[0],  /* Task_stack */
 395:E:/NeuOrga/Programmieren/c_cpp/github_os/input/src/os_base\os_task_scheduler.c ****                 200,                                /* Stack Size */
 396:E:/NeuOrga/Programmieren/c_cpp/github_os/input/src/os_base\os_task_scheduler.c ****                 ePriviligeMode_unpriviliged_thread_mode, /* Unpriviliged Thread Mode */
 397:E:/NeuOrga/Programmieren/c_cpp/github_os/input/src/os_base\os_task_scheduler.c ****                 Core0,                            /* Cortex M4 has only 1 core */
 398:E:/NeuOrga/Programmieren/c_cpp/github_os/input/src/os_base\os_task_scheduler.c ****                 0                                   /* default prio */
 399:E:/NeuOrga/Programmieren/c_cpp/github_os/input/src/os_base\os_task_scheduler.c ****                );
 400:E:/NeuOrga/Programmieren/c_cpp/github_os/input/src/os_base\os_task_scheduler.c ****    OS_SaveTaskPtr(task_ptr, Task_0_ptr);
GAS LISTING C:\Users\PRESID~1\AppData\Local\Temp\ccblGL8o.s 			page 21


 401:E:/NeuOrga/Programmieren/c_cpp/github_os/input/src/os_base\os_task_scheduler.c **** 
 402:E:/NeuOrga/Programmieren/c_cpp/github_os/input/src/os_base\os_task_scheduler.c ****    /*set the idle-task as first running task, otherwise preempt might fail */
 403:E:/NeuOrga/Programmieren/c_cpp/github_os/input/src/os_base\os_task_scheduler.c ****    SET_RUNNING_TASK(task_ptr);
 636              		.loc 1 403 0
 637 0481 8B45F4   		movl	-12(%ebp), %eax
 638 0484 890424   		movl	%eax, (%esp)
 639 0487 E8000000 		call	_SET_RUNNING_TASK
 639      00
 404:E:/NeuOrga/Programmieren/c_cpp/github_os/input/src/os_base\os_task_scheduler.c **** 
 405:E:/NeuOrga/Programmieren/c_cpp/github_os/input/src/os_base\os_task_scheduler.c ****    /* setup worker task */
 406:E:/NeuOrga/Programmieren/c_cpp/github_os/input/src/os_base\os_task_scheduler.c ****    task_ptr = &task_1;
 640              		.loc 1 406 0
 641 048c C745F4C0 		movl	$_task_1.1377, -12(%ebp)
 641      000000
 407:E:/NeuOrga/Programmieren/c_cpp/github_os/input/src/os_base\os_task_scheduler.c ****    OS_INIT_TASK(task_ptr,      /* task */
 642              		.loc 1 407 0
 643 0493 C7442424 		movl	$1, 36(%esp)
 643      01000000 
 644 049b C7442420 		movl	$0, 32(%esp)
 644      00000000 
 645 04a3 C744241C 		movl	$0, 28(%esp)
 645      00000000 
 646 04ab C7442418 		movl	$200, 24(%esp)
 646      C8000000 
 647 04b3 C7442414 		movl	$_TASK_STACK+200, 20(%esp)
 647      C8000000 
 648 04bb C7442410 		movl	$_TASK_GROUP_1.1380, 16(%esp)
 648      00000000 
 649 04c3 C744240C 		movl	$0, 12(%esp)
 649      00000000 
 650 04cb C7442408 		movl	$1, 8(%esp)
 650      01000000 
 651 04d3 C7442404 		movl	$_TASK_1, 4(%esp)
 651      C5030000 
 652 04db 8B45F4   		movl	-12(%ebp), %eax
 653 04de 890424   		movl	%eax, (%esp)
 654 04e1 E8000000 		call	_OS_INIT_TASK
 654      00
 408:E:/NeuOrga/Programmieren/c_cpp/github_os/input/src/os_base\os_task_scheduler.c ****                 &TASK_1,       /* Task Function*/
 409:E:/NeuOrga/Programmieren/c_cpp/github_os/input/src/os_base\os_task_scheduler.c ****                 1,             /* Nr of allowed instances*/
 410:E:/NeuOrga/Programmieren/c_cpp/github_os/input/src/os_base\os_task_scheduler.c ****                 False,          /* Idle Task */
 411:E:/NeuOrga/Programmieren/c_cpp/github_os/input/src/os_base\os_task_scheduler.c ****                 &TASK_GROUP_1, /* Task Group */
 412:E:/NeuOrga/Programmieren/c_cpp/github_os/input/src/os_base\os_task_scheduler.c ****                 (unsigned_char_t*)&TASK_STACK[1],/* Task_stack */
 413:E:/NeuOrga/Programmieren/c_cpp/github_os/input/src/os_base\os_task_scheduler.c ****                 200,            /* Stack Size */
 414:E:/NeuOrga/Programmieren/c_cpp/github_os/input/src/os_base\os_task_scheduler.c ****                 ePriviligeMode_unpriviliged_thread_mode, /* Unpriviliged Thread Mode */
 415:E:/NeuOrga/Programmieren/c_cpp/github_os/input/src/os_base\os_task_scheduler.c ****                 Core0,
 416:E:/NeuOrga/Programmieren/c_cpp/github_os/input/src/os_base\os_task_scheduler.c ****                 1                                   /* default prio */
 417:E:/NeuOrga/Programmieren/c_cpp/github_os/input/src/os_base\os_task_scheduler.c ****                );
 418:E:/NeuOrga/Programmieren/c_cpp/github_os/input/src/os_base\os_task_scheduler.c ****    OS_SaveTaskPtr(task_ptr, Task_1_ptr);
 419:E:/NeuOrga/Programmieren/c_cpp/github_os/input/src/os_base\os_task_scheduler.c **** 
 420:E:/NeuOrga/Programmieren/c_cpp/github_os/input/src/os_base\os_task_scheduler.c ****    /* setup worker task */
 421:E:/NeuOrga/Programmieren/c_cpp/github_os/input/src/os_base\os_task_scheduler.c ****    task_ptr = &task_2;
 655              		.loc 1 421 0
 656 04e6 C745F440 		movl	$_task_2.1378, -12(%ebp)
 656      010000
 422:E:/NeuOrga/Programmieren/c_cpp/github_os/input/src/os_base\os_task_scheduler.c ****    OS_INIT_TASK(task_ptr,      /* task */
 657              		.loc 1 422 0
GAS LISTING C:\Users\PRESID~1\AppData\Local\Temp\ccblGL8o.s 			page 22


 658 04ed C7442424 		movl	$2, 36(%esp)
 658      02000000 
 659 04f5 C7442420 		movl	$0, 32(%esp)
 659      00000000 
 660 04fd C744241C 		movl	$0, 28(%esp)
 660      00000000 
 661 0505 C7442418 		movl	$200, 24(%esp)
 661      C8000000 
 662 050d C7442414 		movl	$_TASK_STACK+400, 20(%esp)
 662      90010000 
 663 0515 C7442410 		movl	$_TASK_GROUP_2.1381, 16(%esp)
 663      08000000 
 664 051d C744240C 		movl	$0, 12(%esp)
 664      00000000 
 665 0525 C7442408 		movl	$1, 8(%esp)
 665      01000000 
 666 052d C7442404 		movl	$_TASK_2, 4(%esp)
 666      EB030000 
 667 0535 8B45F4   		movl	-12(%ebp), %eax
 668 0538 890424   		movl	%eax, (%esp)
 669 053b E8000000 		call	_OS_INIT_TASK
 669      00
 423:E:/NeuOrga/Programmieren/c_cpp/github_os/input/src/os_base\os_task_scheduler.c ****                 &TASK_2,       /* Task Function*/
 424:E:/NeuOrga/Programmieren/c_cpp/github_os/input/src/os_base\os_task_scheduler.c ****                 1,             /* Nr of allowed instances*/
 425:E:/NeuOrga/Programmieren/c_cpp/github_os/input/src/os_base\os_task_scheduler.c ****                 False,          /* Idle Task */
 426:E:/NeuOrga/Programmieren/c_cpp/github_os/input/src/os_base\os_task_scheduler.c ****                 &TASK_GROUP_2, /* Task Group */
 427:E:/NeuOrga/Programmieren/c_cpp/github_os/input/src/os_base\os_task_scheduler.c ****                 (unsigned_char_t*)&TASK_STACK[2],/* Task_stack */
 428:E:/NeuOrga/Programmieren/c_cpp/github_os/input/src/os_base\os_task_scheduler.c ****                 200,            /* Stack Size */
 429:E:/NeuOrga/Programmieren/c_cpp/github_os/input/src/os_base\os_task_scheduler.c ****                 ePriviligeMode_unpriviliged_thread_mode, /* Unpriviliged Thread Mode */
 430:E:/NeuOrga/Programmieren/c_cpp/github_os/input/src/os_base\os_task_scheduler.c ****                 Core0,
 431:E:/NeuOrga/Programmieren/c_cpp/github_os/input/src/os_base\os_task_scheduler.c ****                 2                                   /* default prio */                
 432:E:/NeuOrga/Programmieren/c_cpp/github_os/input/src/os_base\os_task_scheduler.c ****                );
 433:E:/NeuOrga/Programmieren/c_cpp/github_os/input/src/os_base\os_task_scheduler.c ****    OS_SaveTaskPtr(task_ptr, Task_2_ptr);
 434:E:/NeuOrga/Programmieren/c_cpp/github_os/input/src/os_base\os_task_scheduler.c **** 
 435:E:/NeuOrga/Programmieren/c_cpp/github_os/input/src/os_base\os_task_scheduler.c ****    /* setup worker task */
 436:E:/NeuOrga/Programmieren/c_cpp/github_os/input/src/os_base\os_task_scheduler.c ****    task_ptr = &task_3;
 670              		.loc 1 436 0
 671 0540 C745F4C0 		movl	$_task_3.1379, -12(%ebp)
 671      010000
 437:E:/NeuOrga/Programmieren/c_cpp/github_os/input/src/os_base\os_task_scheduler.c ****    OS_INIT_TASK(task_ptr,      /* task */
 672              		.loc 1 437 0
 673 0547 C7442424 		movl	$3, 36(%esp)
 673      03000000 
 674 054f C7442420 		movl	$0, 32(%esp)
 674      00000000 
 675 0557 C744241C 		movl	$0, 28(%esp)
 675      00000000 
 676 055f C7442418 		movl	$200, 24(%esp)
 676      C8000000 
 677 0567 C7442414 		movl	$_TASK_STACK+600, 20(%esp)
 677      58020000 
 678 056f C7442410 		movl	$_TASK_GROUP_3.1382, 16(%esp)
 678      10000000 
 679 0577 C744240C 		movl	$0, 12(%esp)
 679      00000000 
 680 057f C7442408 		movl	$1, 8(%esp)
 680      01000000 
GAS LISTING C:\Users\PRESID~1\AppData\Local\Temp\ccblGL8o.s 			page 23


 681 0587 C7442404 		movl	$_TASK_3, 4(%esp)
 681      FB030000 
 682 058f 8B45F4   		movl	-12(%ebp), %eax
 683 0592 890424   		movl	%eax, (%esp)
 684 0595 E8000000 		call	_OS_INIT_TASK
 684      00
 438:E:/NeuOrga/Programmieren/c_cpp/github_os/input/src/os_base\os_task_scheduler.c ****                 &TASK_3,       /* Task Function*/
 439:E:/NeuOrga/Programmieren/c_cpp/github_os/input/src/os_base\os_task_scheduler.c ****                 1,             /* Nr of allowed instances*/
 440:E:/NeuOrga/Programmieren/c_cpp/github_os/input/src/os_base\os_task_scheduler.c ****                 False,          /* Idle Task */
 441:E:/NeuOrga/Programmieren/c_cpp/github_os/input/src/os_base\os_task_scheduler.c ****                 &TASK_GROUP_3, /* Task Group */
 442:E:/NeuOrga/Programmieren/c_cpp/github_os/input/src/os_base\os_task_scheduler.c ****                 (unsigned_char_t*)&TASK_STACK[3],/* Task_stack */
 443:E:/NeuOrga/Programmieren/c_cpp/github_os/input/src/os_base\os_task_scheduler.c ****                 200,           /* Stack Size */
 444:E:/NeuOrga/Programmieren/c_cpp/github_os/input/src/os_base\os_task_scheduler.c ****                 ePriviligeMode_unpriviliged_thread_mode, /* Unpriviliged Thread Mode */
 445:E:/NeuOrga/Programmieren/c_cpp/github_os/input/src/os_base\os_task_scheduler.c ****                 Core0,
 446:E:/NeuOrga/Programmieren/c_cpp/github_os/input/src/os_base\os_task_scheduler.c ****                 3                                   /* default prio */                             
 447:E:/NeuOrga/Programmieren/c_cpp/github_os/input/src/os_base\os_task_scheduler.c ****                );
 448:E:/NeuOrga/Programmieren/c_cpp/github_os/input/src/os_base\os_task_scheduler.c ****    OS_SaveTaskPtr(task_ptr, Task_3_ptr);   
 449:E:/NeuOrga/Programmieren/c_cpp/github_os/input/src/os_base\os_task_scheduler.c **** }
 685              		.loc 1 449 0
 686 059a C9       		leave
 687              		.cfi_restore 5
 688              		.cfi_def_cfa 4, 4
 689 059b C3       		ret
 690              		.cfi_endproc
 691              	LFE11:
 693              	_OS_TaskScheduler:
 694              	LFB12:
 450:E:/NeuOrga/Programmieren/c_cpp/github_os/input/src/os_base\os_task_scheduler.c **** 
 451:E:/NeuOrga/Programmieren/c_cpp/github_os/input/src/os_base\os_task_scheduler.c **** 
 452:E:/NeuOrga/Programmieren/c_cpp/github_os/input/src/os_base\os_task_scheduler.c **** Local task_t* OS_TaskScheduler(void)
 453:E:/NeuOrga/Programmieren/c_cpp/github_os/input/src/os_base\os_task_scheduler.c **** {
 695              		.loc 1 453 0
 696              		.cfi_startproc
 697 059c 55       		pushl	%ebp
 698              		.cfi_def_cfa_offset 8
 699              		.cfi_offset 5, -8
 700 059d 89E5     		movl	%esp, %ebp
 701              		.cfi_def_cfa_register 5
 702 059f 53       		pushl	%ebx
 703 05a0 83EC34   		subl	$52, %esp
 704              		.cfi_offset 3, -12
 454:E:/NeuOrga/Programmieren/c_cpp/github_os/input/src/os_base\os_task_scheduler.c ****    Local task_t* task = 0;
 455:E:/NeuOrga/Programmieren/c_cpp/github_os/input/src/os_base\os_task_scheduler.c ****    Local unsigned_char_t Winner_prio = 0;
 456:E:/NeuOrga/Programmieren/c_cpp/github_os/input/src/os_base\os_task_scheduler.c ****    task_t*         Winner_task = 0;
 705              		.loc 1 456 0
 706 05a3 C745F400 		movl	$0, -12(%ebp)
 706      000000
 457:E:/NeuOrga/Programmieren/c_cpp/github_os/input/src/os_base\os_task_scheduler.c ****    Local link_list_t*    link_list_member;
 458:E:/NeuOrga/Programmieren/c_cpp/github_os/input/src/os_base\os_task_scheduler.c ****    unsigned_char_t       element_nr;
 459:E:/NeuOrga/Programmieren/c_cpp/github_os/input/src/os_base\os_task_scheduler.c **** 
 460:E:/NeuOrga/Programmieren/c_cpp/github_os/input/src/os_base\os_task_scheduler.c ****    scheduler_time_t delta_time = Get_current_time() - LAST_CURRENT_TIME;
 707              		.loc 1 460 0
 708 05aa E8000000 		call	_Get_current_time
 708      00
 709 05af 89C2     		movl	%eax, %edx
 710 05b1 A1000000 		movl	_LAST_CURRENT_TIME, %eax
 710      00
GAS LISTING C:\Users\PRESID~1\AppData\Local\Temp\ccblGL8o.s 			page 24


 711 05b6 29C2     		subl	%eax, %edx
 712 05b8 89D0     		movl	%edx, %eax
 713 05ba 8945EC   		movl	%eax, -20(%ebp)
 461:E:/NeuOrga/Programmieren/c_cpp/github_os/input/src/os_base\os_task_scheduler.c ****    LAST_CURRENT_TIME = Get_current_time();
 714              		.loc 1 461 0
 715 05bd E8000000 		call	_Get_current_time
 715      00
 716 05c2 A3000000 		movl	%eax, _LAST_CURRENT_TIME
 716      00
 462:E:/NeuOrga/Programmieren/c_cpp/github_os/input/src/os_base\os_task_scheduler.c **** 
 463:E:/NeuOrga/Programmieren/c_cpp/github_os/input/src/os_base\os_task_scheduler.c ****    /*
 464:E:/NeuOrga/Programmieren/c_cpp/github_os/input/src/os_base\os_task_scheduler.c ****    x const for single task: task->default_prio // low = 0,.....high=100
 465:E:/NeuOrga/Programmieren/c_cpp/github_os/input/src/os_base\os_task_scheduler.c ****    x var   for single task: task->current_prio // see prio_std
 466:E:/NeuOrga/Programmieren/c_cpp/github_os/input/src/os_base\os_task_scheduler.c ****    x var   for single task: task->wait_time    //
 467:E:/NeuOrga/Programmieren/c_cpp/github_os/input/src/os_base\os_task_scheduler.c ****    x var   for single task: task->exe_time
 468:E:/NeuOrga/Programmieren/c_cpp/github_os/input/src/os_base\os_task_scheduler.c ****    x const for single task: task->TimeToPrioInc
 469:E:/NeuOrga/Programmieren/c_cpp/github_os/input/src/os_base\os_task_scheduler.c ****    x const for single task: task->max_allowed_wait_time
 470:E:/NeuOrga/Programmieren/c_cpp/github_os/input/src/os_base\os_task_scheduler.c ****    x const for single task: task->min_allowed_wait_time
 471:E:/NeuOrga/Programmieren/c_cpp/github_os/input/src/os_base\os_task_scheduler.c ****    x const for single task: task->overwaittime_per_prio_inc_step //e.g. 100*MinTimeSlice_us
 472:E:/NeuOrga/Programmieren/c_cpp/github_os/input/src/os_base\os_task_scheduler.c ****    x const for single task: task->task_group  //to allow processor access control by groups (e.g. u
 473:E:/NeuOrga/Programmieren/c_cpp/github_os/input/src/os_base\os_task_scheduler.c ****    x const for single task: task->WaitActUntil
 474:E:/NeuOrga/Programmieren/c_cpp/github_os/input/src/os_base\os_task_scheduler.c ****    (task_group is designed to allow proccessor access control between e.g. Customer Software Task a
 475:E:/NeuOrga/Programmieren/c_cpp/github_os/input/src/os_base\os_task_scheduler.c ****    */
 476:E:/NeuOrga/Programmieren/c_cpp/github_os/input/src/os_base\os_task_scheduler.c ****    For_all_tasks_in_queue(element_nr)
 717              		.loc 1 476 0
 718 05c7 C645F300 		movb	$0, -13(%ebp)
 719 05cb E9230100 		jmp	L60
 719      00
 720              	L68:
 477:E:/NeuOrga/Programmieren/c_cpp/github_os/input/src/os_base\os_task_scheduler.c ****    {
 478:E:/NeuOrga/Programmieren/c_cpp/github_os/input/src/os_base\os_task_scheduler.c ****       link_list_member = GetFromLinkList(element_nr);
 721              		.loc 1 478 0
 722 05d0 0FB645F3 		movzbl	-13(%ebp), %eax
 723 05d4 890424   		movl	%eax, (%esp)
 724 05d7 E8000000 		call	_GetFromLinkList
 724      00
 725 05dc A3240200 		movl	%eax, _link_list_member.1392
 725      00
 479:E:/NeuOrga/Programmieren/c_cpp/github_os/input/src/os_base\os_task_scheduler.c ****       /*task will have a pointer on the task_obj, and might be equal to "(task_t*) 0" */
 480:E:/NeuOrga/Programmieren/c_cpp/github_os/input/src/os_base\os_task_scheduler.c ****       task             = GetFromTaskQueue(link_list_member);
 726              		.loc 1 480 0
 727 05e1 A1240200 		movl	_link_list_member.1392, %eax
 727      00
 728 05e6 890424   		movl	%eax, (%esp)
 729 05e9 E8000000 		call	_GetFromTaskQueue
 729      00
 730 05ee A3280200 		movl	%eax, _task.1389
 730      00
 481:E:/NeuOrga/Programmieren/c_cpp/github_os/input/src/os_base\os_task_scheduler.c ****       /* increase prio: high numbers->high prio */
 482:E:/NeuOrga/Programmieren/c_cpp/github_os/input/src/os_base\os_task_scheduler.c ****       if((task != 0)&&(task->task_queued != False))
 731              		.loc 1 482 0
 732 05f3 A1280200 		movl	_task.1389, %eax
 732      00
 733 05f8 85C0     		testl	%eax, %eax
 734 05fa 0F84EC00 		je	L61
 734      0000
 735              		.loc 1 482 0 is_stmt 0 discriminator 1
GAS LISTING C:\Users\PRESID~1\AppData\Local\Temp\ccblGL8o.s 			page 25


 736 0600 A1280200 		movl	_task.1389, %eax
 736      00
 737 0605 8A00     		movb	(%eax), %al
 738 0607 83E002   		andl	$2, %eax
 739 060a 84C0     		testb	%al, %al
 740 060c 0F84DA00 		je	L61
 740      0000
 483:E:/NeuOrga/Programmieren/c_cpp/github_os/input/src/os_base\os_task_scheduler.c ****       {
 484:E:/NeuOrga/Programmieren/c_cpp/github_os/input/src/os_base\os_task_scheduler.c ****          if(task->wait_time >= task->TimeToPrioInc)
 741              		.loc 1 484 0 is_stmt 1
 742 0612 A1280200 		movl	_task.1389, %eax
 742      00
 743 0617 8B500C   		movl	12(%eax), %edx
 744 061a A1280200 		movl	_task.1389, %eax
 744      00
 745 061f 8B4010   		movl	16(%eax), %eax
 746 0622 39C2     		cmpl	%eax, %edx
 747 0624 721C     		jb	L62
 485:E:/NeuOrga/Programmieren/c_cpp/github_os/input/src/os_base\os_task_scheduler.c ****          {
 486:E:/NeuOrga/Programmieren/c_cpp/github_os/input/src/os_base\os_task_scheduler.c ****             task->current_prio = task->current_prio + task->overwaittime_per_prio_inc_step;
 748              		.loc 1 486 0
 749 0626 A1280200 		movl	_task.1389, %eax
 749      00
 750 062b 8B152802 		movl	_task.1389, %edx
 750      0000
 751 0631 8A4A24   		movb	36(%edx), %cl
 752 0634 8B152802 		movl	_task.1389, %edx
 752      0000
 753 063a 8B5214   		movl	20(%edx), %edx
 754 063d 01CA     		addl	%ecx, %edx
 755 063f 885024   		movb	%dl, 36(%eax)
 756              	L62:
 487:E:/NeuOrga/Programmieren/c_cpp/github_os/input/src/os_base\os_task_scheduler.c ****          }
 488:E:/NeuOrga/Programmieren/c_cpp/github_os/input/src/os_base\os_task_scheduler.c ****          /* in case wait condition not yet fulfilled, set prio to 0 */
 489:E:/NeuOrga/Programmieren/c_cpp/github_os/input/src/os_base\os_task_scheduler.c ****          if(task->WaitActUntil > Get_current_time())
 757              		.loc 1 489 0
 758 0642 A1280200 		movl	_task.1389, %eax
 758      00
 759 0647 8B5808   		movl	8(%eax), %ebx
 760 064a E8000000 		call	_Get_current_time
 760      00
 761 064f 39C3     		cmpl	%eax, %ebx
 762 0651 7609     		jbe	L63
 490:E:/NeuOrga/Programmieren/c_cpp/github_os/input/src/os_base\os_task_scheduler.c ****          {
 491:E:/NeuOrga/Programmieren/c_cpp/github_os/input/src/os_base\os_task_scheduler.c ****             task->current_prio = 0;
 763              		.loc 1 491 0
 764 0653 A1280200 		movl	_task.1389, %eax
 764      00
 765 0658 C6402400 		movb	$0, 36(%eax)
 766              	L63:
 492:E:/NeuOrga/Programmieren/c_cpp/github_os/input/src/os_base\os_task_scheduler.c ****          }
 493:E:/NeuOrga/Programmieren/c_cpp/github_os/input/src/os_base\os_task_scheduler.c ****          if(task->wait_time > task->max_allowed_wait_time)
 767              		.loc 1 493 0
 768 065c A1280200 		movl	_task.1389, %eax
 768      00
 769 0661 8B500C   		movl	12(%eax), %edx
 770 0664 A1280200 		movl	_task.1389, %eax
GAS LISTING C:\Users\PRESID~1\AppData\Local\Temp\ccblGL8o.s 			page 26


 770      00
 771 0669 8B4018   		movl	24(%eax), %eax
 772 066c 39C2     		cmpl	%eax, %edx
 773 066e 7614     		jbe	L64
 494:E:/NeuOrga/Programmieren/c_cpp/github_os/input/src/os_base\os_task_scheduler.c ****          {
 495:E:/NeuOrga/Programmieren/c_cpp/github_os/input/src/os_base\os_task_scheduler.c ****             /* set bug */
 496:E:/NeuOrga/Programmieren/c_cpp/github_os/input/src/os_base\os_task_scheduler.c ****             OS_SET_SW_BUG(os_bug_task_max_wait_time_reached, Func_TaskScheduler);
 774              		.loc 1 496 0
 775 0670 C7442404 		movl	$8, 4(%esp)
 775      08000000 
 776 0678 C7042403 		movl	$3, (%esp)
 776      000000
 777 067f E8000000 		call	_OS_SET_SW_BUG
 777      00
 778              	L64:
 497:E:/NeuOrga/Programmieren/c_cpp/github_os/input/src/os_base\os_task_scheduler.c ****          }
 498:E:/NeuOrga/Programmieren/c_cpp/github_os/input/src/os_base\os_task_scheduler.c ****          /* not active TASK_RUN_QUEUE elements have no valid task_group!!*/
 499:E:/NeuOrga/Programmieren/c_cpp/github_os/input/src/os_base\os_task_scheduler.c ****          if(task->task_group!=0)
 779              		.loc 1 499 0
 780 0684 A1280200 		movl	_task.1389, %eax
 780      00
 781 0689 8B4038   		movl	56(%eax), %eax
 782 068c 85C0     		testl	%eax, %eax
 783 068e 7448     		je	L65
 500:E:/NeuOrga/Programmieren/c_cpp/github_os/input/src/os_base\os_task_scheduler.c ****          {
 501:E:/NeuOrga/Programmieren/c_cpp/github_os/input/src/os_base\os_task_scheduler.c ****             /* usage the exe time for scheduling strategy */
 502:E:/NeuOrga/Programmieren/c_cpp/github_os/input/src/os_base\os_task_scheduler.c ****             if(task->task_group->exe_time > task->task_group->fair_exe_time)
 784              		.loc 1 502 0
 785 0690 A1280200 		movl	_task.1389, %eax
 785      00
 786 0695 8B4038   		movl	56(%eax), %eax
 787 0698 8B10     		movl	(%eax), %edx
 788 069a A1280200 		movl	_task.1389, %eax
 788      00
 789 069f 8B4038   		movl	56(%eax), %eax
 790 06a2 8B4004   		movl	4(%eax), %eax
 791 06a5 39C2     		cmpl	%eax, %edx
 792 06a7 7643     		jbe	L61
 503:E:/NeuOrga/Programmieren/c_cpp/github_os/input/src/os_base\os_task_scheduler.c ****             {
 504:E:/NeuOrga/Programmieren/c_cpp/github_os/input/src/os_base\os_task_scheduler.c ****                if(task->exe_time > Task_min_time)/* guarantee min time */
 793              		.loc 1 504 0
 794 06a9 A1280200 		movl	_task.1389, %eax
 794      00
 795 06ae 8B401C   		movl	28(%eax), %eax
 796 06b1 8945E0   		movl	%eax, -32(%ebp)
 797 06b4 C745E400 		movl	$0, -28(%ebp)
 797      000000
 798 06bb DF6DE0   		fildq	-32(%ebp)
 799 06be D9E8     		fld1
 800 06c0 D9C9     		fxch	%st(1)
 801 06c2 DAE9     		fucompp
 802 06c4 DFE0     		fnstsw	%ax
 803 06c6 F6C445   		testb	$69, %ah
 804 06c9 7402     		je	L76
 805 06cb EB1F     		jmp	L61
 806              	L76:
 505:E:/NeuOrga/Programmieren/c_cpp/github_os/input/src/os_base\os_task_scheduler.c ****                {
GAS LISTING C:\Users\PRESID~1\AppData\Local\Temp\ccblGL8o.s 			page 27


 506:E:/NeuOrga/Programmieren/c_cpp/github_os/input/src/os_base\os_task_scheduler.c ****                   task->current_prio = 0;
 807              		.loc 1 506 0
 808 06cd A1280200 		movl	_task.1389, %eax
 808      00
 809 06d2 C6402400 		movb	$0, 36(%eax)
 810 06d6 EB14     		jmp	L61
 811              	L65:
 507:E:/NeuOrga/Programmieren/c_cpp/github_os/input/src/os_base\os_task_scheduler.c **** 
 508:E:/NeuOrga/Programmieren/c_cpp/github_os/input/src/os_base\os_task_scheduler.c ****                }
 509:E:/NeuOrga/Programmieren/c_cpp/github_os/input/src/os_base\os_task_scheduler.c ****             }
 510:E:/NeuOrga/Programmieren/c_cpp/github_os/input/src/os_base\os_task_scheduler.c ****          }
 511:E:/NeuOrga/Programmieren/c_cpp/github_os/input/src/os_base\os_task_scheduler.c ****          else
 512:E:/NeuOrga/Programmieren/c_cpp/github_os/input/src/os_base\os_task_scheduler.c ****          {
 513:E:/NeuOrga/Programmieren/c_cpp/github_os/input/src/os_base\os_task_scheduler.c ****             OS_SET_SW_BUG(os_bug_null_pointer, Func_TaskScheduler);
 812              		.loc 1 513 0
 813 06d8 C7442404 		movl	$8, 4(%esp)
 813      08000000 
 814 06e0 C7042402 		movl	$2, (%esp)
 814      000000
 815 06e7 E8000000 		call	_OS_SET_SW_BUG
 815      00
 816              	L61:
 476:E:/NeuOrga/Programmieren/c_cpp/github_os/input/src/os_base\os_task_scheduler.c ****    {
 817              		.loc 1 476 0 discriminator 2
 818 06ec 8A45F3   		movb	-13(%ebp), %al
 819 06ef 40       		incl	%eax
 820 06f0 8845F3   		movb	%al, -13(%ebp)
 821              	L60:
 476:E:/NeuOrga/Programmieren/c_cpp/github_os/input/src/os_base\os_task_scheduler.c ****    {
 822              		.loc 1 476 0 is_stmt 0 discriminator 1
 823 06f3 807DF304 		cmpb	$4, -13(%ebp)
 824 06f7 0F86D3FE 		jbe	L68
 824      FFFF
 514:E:/NeuOrga/Programmieren/c_cpp/github_os/input/src/os_base\os_task_scheduler.c ****          }
 515:E:/NeuOrga/Programmieren/c_cpp/github_os/input/src/os_base\os_task_scheduler.c ****       }
 516:E:/NeuOrga/Programmieren/c_cpp/github_os/input/src/os_base\os_task_scheduler.c ****       /* do not set bug, because task =0 is used for empty queue elements
 517:E:/NeuOrga/Programmieren/c_cpp/github_os/input/src/os_base\os_task_scheduler.c ****       else
 518:E:/NeuOrga/Programmieren/c_cpp/github_os/input/src/os_base\os_task_scheduler.c ****       {
 519:E:/NeuOrga/Programmieren/c_cpp/github_os/input/src/os_base\os_task_scheduler.c ****           OS_SET_SW_BUG(os_bug_null_pointer, Func_TaskScheduler);
 520:E:/NeuOrga/Programmieren/c_cpp/github_os/input/src/os_base\os_task_scheduler.c ****       }
 521:E:/NeuOrga/Programmieren/c_cpp/github_os/input/src/os_base\os_task_scheduler.c ****       */
 522:E:/NeuOrga/Programmieren/c_cpp/github_os/input/src/os_base\os_task_scheduler.c ****    }
 523:E:/NeuOrga/Programmieren/c_cpp/github_os/input/src/os_base\os_task_scheduler.c ****    For_all_tasks_in_queue(element_nr)
 825              		.loc 1 523 0 is_stmt 1
 826 06fd C645F300 		movb	$0, -13(%ebp)
 827 0701 EB7D     		jmp	L69
 828              	L72:
 524:E:/NeuOrga/Programmieren/c_cpp/github_os/input/src/os_base\os_task_scheduler.c ****    {
 525:E:/NeuOrga/Programmieren/c_cpp/github_os/input/src/os_base\os_task_scheduler.c ****       link_list_member = GetFromLinkList(element_nr);
 829              		.loc 1 525 0
 830 0703 0FB645F3 		movzbl	-13(%ebp), %eax
 831 0707 890424   		movl	%eax, (%esp)
 832 070a E8000000 		call	_GetFromLinkList
 832      00
 833 070f A3240200 		movl	%eax, _link_list_member.1392
 833      00
 526:E:/NeuOrga/Programmieren/c_cpp/github_os/input/src/os_base\os_task_scheduler.c ****       task             = GetFromTaskQueue(link_list_member);
GAS LISTING C:\Users\PRESID~1\AppData\Local\Temp\ccblGL8o.s 			page 28


 834              		.loc 1 526 0
 835 0714 A1240200 		movl	_link_list_member.1392, %eax
 835      00
 836 0719 890424   		movl	%eax, (%esp)
 837 071c E8000000 		call	_GetFromTaskQueue
 837      00
 838 0721 A3280200 		movl	%eax, _task.1389
 838      00
 527:E:/NeuOrga/Programmieren/c_cpp/github_os/input/src/os_base\os_task_scheduler.c ****       if(task != 0)
 839              		.loc 1 527 0
 840 0726 A1280200 		movl	_task.1389, %eax
 840      00
 841 072b 85C0     		testl	%eax, %eax
 842 072d 744A     		je	L70
 528:E:/NeuOrga/Programmieren/c_cpp/github_os/input/src/os_base\os_task_scheduler.c ****       {
 529:E:/NeuOrga/Programmieren/c_cpp/github_os/input/src/os_base\os_task_scheduler.c ****          /*update wait time */
 530:E:/NeuOrga/Programmieren/c_cpp/github_os/input/src/os_base\os_task_scheduler.c ****          if(task->IdleTask != True)
 843              		.loc 1 530 0
 844 072f A1280200 		movl	_task.1389, %eax
 844      00
 845 0734 8A00     		movb	(%eax), %al
 846 0736 83E004   		andl	$4, %eax
 847 0739 84C0     		testb	%al, %al
 848 073b 7516     		jne	L71
 531:E:/NeuOrga/Programmieren/c_cpp/github_os/input/src/os_base\os_task_scheduler.c ****          {
 532:E:/NeuOrga/Programmieren/c_cpp/github_os/input/src/os_base\os_task_scheduler.c ****             task->wait_time += delta_time;
 849              		.loc 1 532 0
 850 073d A1280200 		movl	_task.1389, %eax
 850      00
 851 0742 8B152802 		movl	_task.1389, %edx
 851      0000
 852 0748 8B4A0C   		movl	12(%edx), %ecx
 853 074b 8B55EC   		movl	-20(%ebp), %edx
 854 074e 01CA     		addl	%ecx, %edx
 855 0750 89500C   		movl	%edx, 12(%eax)
 856              	L71:
 533:E:/NeuOrga/Programmieren/c_cpp/github_os/input/src/os_base\os_task_scheduler.c ****          }
 534:E:/NeuOrga/Programmieren/c_cpp/github_os/input/src/os_base\os_task_scheduler.c ****          /* search for task with highest prio and assign it to Winner_task */
 535:E:/NeuOrga/Programmieren/c_cpp/github_os/input/src/os_base\os_task_scheduler.c ****          if(task->current_prio > Winner_prio)
 857              		.loc 1 535 0
 858 0753 A1280200 		movl	_task.1389, %eax
 858      00
 859 0758 8A5024   		movb	36(%eax), %dl
 860 075b A02C0200 		movb	_Winner_prio.1390, %al
 860      00
 861 0760 38C2     		cmpb	%al, %dl
 862 0762 7615     		jbe	L70
 536:E:/NeuOrga/Programmieren/c_cpp/github_os/input/src/os_base\os_task_scheduler.c ****          {
 537:E:/NeuOrga/Programmieren/c_cpp/github_os/input/src/os_base\os_task_scheduler.c ****             Winner_prio = task->current_prio;
 863              		.loc 1 537 0
 864 0764 A1280200 		movl	_task.1389, %eax
 864      00
 865 0769 8A4024   		movb	36(%eax), %al
 866 076c A22C0200 		movb	%al, _Winner_prio.1390
 866      00
 538:E:/NeuOrga/Programmieren/c_cpp/github_os/input/src/os_base\os_task_scheduler.c ****             Winner_task = task;
 867              		.loc 1 538 0
GAS LISTING C:\Users\PRESID~1\AppData\Local\Temp\ccblGL8o.s 			page 29


 868 0771 A1280200 		movl	_task.1389, %eax
 868      00
 869 0776 8945F4   		movl	%eax, -12(%ebp)
 870              	L70:
 523:E:/NeuOrga/Programmieren/c_cpp/github_os/input/src/os_base\os_task_scheduler.c ****    {
 871              		.loc 1 523 0 discriminator 2
 872 0779 8A45F3   		movb	-13(%ebp), %al
 873 077c 40       		incl	%eax
 874 077d 8845F3   		movb	%al, -13(%ebp)
 875              	L69:
 523:E:/NeuOrga/Programmieren/c_cpp/github_os/input/src/os_base\os_task_scheduler.c ****    {
 876              		.loc 1 523 0 is_stmt 0 discriminator 1
 877 0780 807DF304 		cmpb	$4, -13(%ebp)
 878 0784 0F8679FF 		jbe	L72
 878      FFFF
 539:E:/NeuOrga/Programmieren/c_cpp/github_os/input/src/os_base\os_task_scheduler.c ****          }
 540:E:/NeuOrga/Programmieren/c_cpp/github_os/input/src/os_base\os_task_scheduler.c **** 
 541:E:/NeuOrga/Programmieren/c_cpp/github_os/input/src/os_base\os_task_scheduler.c ****       }
 542:E:/NeuOrga/Programmieren/c_cpp/github_os/input/src/os_base\os_task_scheduler.c ****       /* do not set bug, because task =0 is used for empty queue elements
 543:E:/NeuOrga/Programmieren/c_cpp/github_os/input/src/os_base\os_task_scheduler.c ****       else
 544:E:/NeuOrga/Programmieren/c_cpp/github_os/input/src/os_base\os_task_scheduler.c ****       {
 545:E:/NeuOrga/Programmieren/c_cpp/github_os/input/src/os_base\os_task_scheduler.c ****           OS_SET_SW_BUG(os_bug_null_pointer, Func_TaskScheduler);
 546:E:/NeuOrga/Programmieren/c_cpp/github_os/input/src/os_base\os_task_scheduler.c ****       }
 547:E:/NeuOrga/Programmieren/c_cpp/github_os/input/src/os_base\os_task_scheduler.c ****       */
 548:E:/NeuOrga/Programmieren/c_cpp/github_os/input/src/os_base\os_task_scheduler.c ****    }
 549:E:/NeuOrga/Programmieren/c_cpp/github_os/input/src/os_base\os_task_scheduler.c ****    /* prevent deathlook by permanently winning same task */
 550:E:/NeuOrga/Programmieren/c_cpp/github_os/input/src/os_base\os_task_scheduler.c ****    if(Winner_task != 0)
 879              		.loc 1 550 0 is_stmt 1
 880 078a 837DF400 		cmpl	$0, -12(%ebp)
 881 078e 7409     		je	L73
 551:E:/NeuOrga/Programmieren/c_cpp/github_os/input/src/os_base\os_task_scheduler.c ****    {
 552:E:/NeuOrga/Programmieren/c_cpp/github_os/input/src/os_base\os_task_scheduler.c ****       Winner_task->current_prio = 0;
 882              		.loc 1 552 0
 883 0790 8B45F4   		movl	-12(%ebp), %eax
 884 0793 C6402400 		movb	$0, 36(%eax)
 885 0797 EB08     		jmp	L74
 886              	L73:
 553:E:/NeuOrga/Programmieren/c_cpp/github_os/input/src/os_base\os_task_scheduler.c ****    }
 554:E:/NeuOrga/Programmieren/c_cpp/github_os/input/src/os_base\os_task_scheduler.c ****    else
 555:E:/NeuOrga/Programmieren/c_cpp/github_os/input/src/os_base\os_task_scheduler.c ****    {
 556:E:/NeuOrga/Programmieren/c_cpp/github_os/input/src/os_base\os_task_scheduler.c ****       Winner_task = GetIdleTask();
 887              		.loc 1 556 0
 888 0799 E8000000 		call	_GetIdleTask
 888      00
 889 079e 8945F4   		movl	%eax, -12(%ebp)
 890              	L74:
 557:E:/NeuOrga/Programmieren/c_cpp/github_os/input/src/os_base\os_task_scheduler.c ****    }
 558:E:/NeuOrga/Programmieren/c_cpp/github_os/input/src/os_base\os_task_scheduler.c ****    return Winner_task;
 891              		.loc 1 558 0
 892 07a1 8B45F4   		movl	-12(%ebp), %eax
 559:E:/NeuOrga/Programmieren/c_cpp/github_os/input/src/os_base\os_task_scheduler.c **** }
 893              		.loc 1 559 0
 894 07a4 83C434   		addl	$52, %esp
 895 07a7 5B       		popl	%ebx
 896              		.cfi_restore 3
 897 07a8 5D       		popl	%ebp
 898              		.cfi_restore 5
GAS LISTING C:\Users\PRESID~1\AppData\Local\Temp\ccblGL8o.s 			page 30


 899              		.cfi_def_cfa 4, 4
 900 07a9 C3       		ret
 901              		.cfi_endproc
 902              	LFE12:
 903              		.globl	_ISR_TASK_DISPATCH_C0
 905              	_ISR_TASK_DISPATCH_C0:
 906              	LFB13:
 560:E:/NeuOrga/Programmieren/c_cpp/github_os/input/src/os_base\os_task_scheduler.c **** 
 561:E:/NeuOrga/Programmieren/c_cpp/github_os/input/src/os_base\os_task_scheduler.c **** void ISR_TASK_DISPATCH_C0(void)
 562:E:/NeuOrga/Programmieren/c_cpp/github_os/input/src/os_base\os_task_scheduler.c **** {
 907              		.loc 1 562 0
 908              		.cfi_startproc
 909 07aa 55       		pushl	%ebp
 910              		.cfi_def_cfa_offset 8
 911              		.cfi_offset 5, -8
 912 07ab 89E5     		movl	%esp, %ebp
 913              		.cfi_def_cfa_register 5
 914 07ad 83EC08   		subl	$8, %esp
 563:E:/NeuOrga/Programmieren/c_cpp/github_os/input/src/os_base\os_task_scheduler.c ****    #if(NR_OF_CORES != 1u)
 564:E:/NeuOrga/Programmieren/c_cpp/github_os/input/src/os_base\os_task_scheduler.c ****    #warn "task scheduler should know which core it is running, to select the correct task to termin
 565:E:/NeuOrga/Programmieren/c_cpp/github_os/input/src/os_base\os_task_scheduler.c ****    #endif 
 566:E:/NeuOrga/Programmieren/c_cpp/github_os/input/src/os_base\os_task_scheduler.c ****    OS_TASK_DISPATCHER();
 915              		.loc 1 566 0
 916 07b0 E8D0FBFF 		call	_OS_TASK_DISPATCHER
 916      FF
 567:E:/NeuOrga/Programmieren/c_cpp/github_os/input/src/os_base\os_task_scheduler.c **** 
 568:E:/NeuOrga/Programmieren/c_cpp/github_os/input/src/os_base\os_task_scheduler.c **** }
 917              		.loc 1 568 0
 918 07b5 C9       		leave
 919              		.cfi_restore 5
 920              		.cfi_def_cfa 4, 4
 921 07b6 C3       		ret
 922              		.cfi_endproc
 923              	LFE13:
 924              	.lcomm _TASK_GROUP_1.1380,8,4
 925              	.lcomm _TASK_GROUP_2.1381,8,4
 926              	.lcomm _TASK_GROUP_3.1382,8,4
 927              	.lcomm _TASK_GROUP_4.1383,8,4
 928              	.lcomm _TASK_GROUP_5.1384,8,4
 929              	.lcomm _task_0.1376,100,32
 930              	.lcomm _task_1.1377,100,32
 931              	.lcomm _task_2.1378,100,32
 932              	.lcomm _task_3.1379,100,32
 933              	.lcomm _link_list_member.1392,4,4
 934              	.lcomm _task.1389,4,4
 935              	.lcomm _Winner_prio.1390,1,1
 936              	Letext0:
 937              		.file 2 "E:/NeuOrga/Programmieren/c_cpp/github_os/input/src/os_base/../os_base/os_base_types.h"
 938              		.file 3 "E:/NeuOrga/Programmieren/c_cpp/github_os/input/src/os_base/../os_base/os_common.h"
 939              		.file 4 "E:/NeuOrga/Programmieren/c_cpp/github_os/input/src/os_base/../os_sim/lld_core.h"
 940              		.file 5 "E:/NeuOrga/Programmieren/c_cpp/github_os/input/src/os_base/../os_sim/../os_base/os_task_c
 941              		.file 6 "E:/NeuOrga/Programmieren/c_cpp/github_os/input/src/os_base/os_task_scheduler.h"
 942              		.file 7 "E:/NeuOrga/Programmieren/c_cpp/github_os/input/src/os_base/os_task_queue.h"
 943              		.file 8 "E:/NeuOrga/Programmieren/c_cpp/github_os/input/src/os_base/../os_base/os_ram.h"
 944 07b7 90       		.section	.debug_info,"dr"
 945              	Ldebug_info0:
 946 0000 070D0000 		.long	0xd07
GAS LISTING C:\Users\PRESID~1\AppData\Local\Temp\ccblGL8o.s 			page 31


 947 0004 0400     		.word	0x4
 948 0006 00000000 		.secrel32	Ldebug_abbrev0
 949 000a 04       		.byte	0x4
 950 000b 01       		.uleb128 0x1
 951 000c 474E5520 		.ascii "GNU C 4.9.3 -march=i386 -g3 -O0 -std=c90\0"
 951      4320342E 
 951      392E3320 
 951      2D6D6172 
 951      63683D69 
 952 0035 01       		.byte	0x1
 953 0036 453A5C4E 		.ascii "E:\\NeuOrga\\Programmieren\\c_cpp\\github_os\\input\\src\\os_base\\os_task_scheduler.c\0"
 953      65754F72 
 953      67615C50 
 953      726F6772 
 953      616D6D69 
 954 0085 00000000 		.long	Ltext0
 955 0089 B7070000 		.long	Letext0-Ltext0
 956 008d 00000000 		.secrel32	Ldebug_line0
 957 0091 00000000 		.secrel32	Ldebug_macro0
 958 0095 02       		.uleb128 0x2
 959 0096 756E7369 		.ascii "unsigned_char_t\0"
 959      676E6564 
 959      5F636861 
 959      725F7400 
 960 00a6 02       		.byte	0x2
 961 00a7 1D       		.byte	0x1d
 962 00a8 AC000000 		.long	0xac
 963 00ac 03       		.uleb128 0x3
 964 00ad 01       		.byte	0x1
 965 00ae 08       		.byte	0x8
 966 00af 756E7369 		.ascii "unsigned char\0"
 966      676E6564 
 966      20636861 
 966      7200
 967 00bd 03       		.uleb128 0x3
 968 00be 02       		.byte	0x2
 969 00bf 07       		.byte	0x7
 970 00c0 73686F72 		.ascii "short unsigned int\0"
 970      7420756E 
 970      7369676E 
 970      65642069 
 970      6E7400
 971 00d3 02       		.uleb128 0x2
 972 00d4 756E7369 		.ascii "unsigned_int32_t\0"
 972      676E6564 
 972      5F696E74 
 972      33325F74 
 972      00
 973 00e5 02       		.byte	0x2
 974 00e6 22       		.byte	0x22
 975 00e7 EB000000 		.long	0xeb
 976 00eb 03       		.uleb128 0x3
 977 00ec 04       		.byte	0x4
 978 00ed 07       		.byte	0x7
 979 00ee 6C6F6E67 		.ascii "long unsigned int\0"
 979      20756E73 
 979      69676E65 
GAS LISTING C:\Users\PRESID~1\AppData\Local\Temp\ccblGL8o.s 			page 32


 979      6420696E 
 979      7400
 980 0100 02       		.uleb128 0x2
 981 0101 75696E74 		.ascii "uint32\0"
 981      333200
 982 0108 02       		.byte	0x2
 983 0109 23       		.byte	0x23
 984 010a EB000000 		.long	0xeb
 985 010e 04       		.uleb128 0x4
 986 010f 6F735F73 		.ascii "os_sw_bugs_e\0"
 986      775F6275 
 986      67735F65 
 986      00
 987 011c 04       		.byte	0x4
 988 011d 03       		.byte	0x3
 989 011e 2A       		.byte	0x2a
 990 011f 0C020000 		.long	0x20c
 991 0123 05       		.uleb128 0x5
 992 0124 6F735F62 		.ascii "os_bug_no_bug\0"
 992      75675F6E 
 992      6F5F6275 
 992      6700
 993 0132 00       		.sleb128 0
 994 0133 05       		.uleb128 0x5
 995 0134 6F735F62 		.ascii "os_bug_taskstate_request_denied\0"
 995      75675F74 
 995      61736B73 
 995      74617465 
 995      5F726571 
 996 0154 01       		.sleb128 1
 997 0155 05       		.uleb128 0x5
 998 0156 6F735F62 		.ascii "os_bug_null_pointer\0"
 998      75675F6E 
 998      756C6C5F 
 998      706F696E 
 998      74657200 
 999 016a 02       		.sleb128 2
 1000 016b 05       		.uleb128 0x5
 1001 016c 6F735F62 		.ascii "os_bug_task_max_wait_time_reached\0"
 1001      75675F74 
 1001      61736B5F 
 1001      6D61785F 
 1001      77616974 
 1002 018e 03       		.sleb128 3
 1003 018f 05       		.uleb128 0x5
 1004 0190 6F735F62 		.ascii "os_bug_Task_unspecified\0"
 1004      75675F54 
 1004      61736B5F 
 1004      756E7370 
 1004      65636966 
 1005 01a8 04       		.sleb128 4
 1006 01a9 05       		.uleb128 0x5
 1007 01aa 6F735F62 		.ascii "os_bug_exception_UndefInstruction\0"
 1007      75675F65 
 1007      78636570 
 1007      74696F6E 
 1007      5F556E64 
GAS LISTING C:\Users\PRESID~1\AppData\Local\Temp\ccblGL8o.s 			page 33


 1008 01cc 05       		.sleb128 5
 1009 01cd 05       		.uleb128 0x5
 1010 01ce 6F735F62 		.ascii "os_bug_exception_AbortPrefetch\0"
 1010      75675F65 
 1010      78636570 
 1010      74696F6E 
 1010      5F41626F 
 1011 01ed 06       		.sleb128 6
 1012 01ee 05       		.uleb128 0x5
 1013 01ef 6F735F62 		.ascii "os_bug_exception_AbortData\0"
 1013      75675F65 
 1013      78636570 
 1013      74696F6E 
 1013      5F41626F 
 1014 020a 07       		.sleb128 7
 1015 020b 00       		.byte	0
 1016 020c 04       		.uleb128 0x4
 1017 020d 6F735F73 		.ascii "os_sw_bugs_function_e\0"
 1017      775F6275 
 1017      67735F66 
 1017      756E6374 
 1017      696F6E5F 
 1018 0223 04       		.byte	0x4
 1019 0224 03       		.byte	0x3
 1020 0225 36       		.byte	0x36
 1021 0226 4E030000 		.long	0x34e
 1022 022a 05       		.uleb128 0x5
 1023 022b 46756E63 		.ascii "Func_NoFunction\0"
 1023      5F4E6F46 
 1023      756E6374 
 1023      696F6E00 
 1024 023b 00       		.sleb128 0
 1025 023c 05       		.uleb128 0x5
 1026 023d 46756E63 		.ascii "Func_SaveTaskEnvironment\0"
 1026      5F536176 
 1026      65546173 
 1026      6B456E76 
 1026      69726F6E 
 1027 0256 01       		.sleb128 1
 1028 0257 05       		.uleb128 0x5
 1029 0258 46756E63 		.ascii "Func_RestoreTaskEnvironment\0"
 1029      5F526573 
 1029      746F7265 
 1029      5461736B 
 1029      456E7669 
 1030 0274 02       		.sleb128 2
 1031 0275 05       		.uleb128 0x5
 1032 0276 46756E63 		.ascii "Func_CreateTaskEnvironment\0"
 1032      5F437265 
 1032      61746554 
 1032      61736B45 
 1032      6E766972 
 1033 0291 03       		.sleb128 3
 1034 0292 05       		.uleb128 0x5
 1035 0293 46756E63 		.ascii "Func_DeleteTaskEnvironment\0"
 1035      5F44656C 
 1035      65746554 
GAS LISTING C:\Users\PRESID~1\AppData\Local\Temp\ccblGL8o.s 			page 34


 1035      61736B45 
 1035      6E766972 
 1036 02ae 04       		.sleb128 4
 1037 02af 05       		.uleb128 0x5
 1038 02b0 46756E63 		.ascii "Func_StartTask\0"
 1038      5F537461 
 1038      72745461 
 1038      736B00
 1039 02bf 05       		.sleb128 5
 1040 02c0 05       		.uleb128 0x5
 1041 02c1 46756E63 		.ascii "Func_PreemptTask\0"
 1041      5F507265 
 1041      656D7074 
 1041      5461736B 
 1041      00
 1042 02d2 06       		.sleb128 6
 1043 02d3 05       		.uleb128 0x5
 1044 02d4 46756E63 		.ascii "Func_TerminateTask\0"
 1044      5F546572 
 1044      6D696E61 
 1044      74655461 
 1044      736B00
 1045 02e7 07       		.sleb128 7
 1046 02e8 05       		.uleb128 0x5
 1047 02e9 46756E63 		.ascii "Func_TaskScheduler\0"
 1047      5F546173 
 1047      6B536368 
 1047      6564756C 
 1047      657200
 1048 02fc 08       		.sleb128 8
 1049 02fd 05       		.uleb128 0x5
 1050 02fe 46756E63 		.ascii "Func_InitTask\0"
 1050      5F496E69 
 1050      74546173 
 1050      6B00
 1051 030c 09       		.sleb128 9
 1052 030d 05       		.uleb128 0x5
 1053 030e 46756E63 		.ascii "Func_ActivateTask\0"
 1053      5F416374 
 1053      69766174 
 1053      65546173 
 1053      6B00
 1054 0320 0A       		.sleb128 10
 1055 0321 05       		.uleb128 0x5
 1056 0322 46756E63 		.ascii "Func_TaskStateRequest\0"
 1056      5F546173 
 1056      6B537461 
 1056      74655265 
 1056      71756573 
 1057 0338 0B       		.sleb128 11
 1058 0339 05       		.uleb128 0x5
 1059 033a 46756E63 		.ascii "Func_os_exception\0"
 1059      5F6F735F 
 1059      65786365 
 1059      7074696F 
 1059      6E00
 1060 034c 0C       		.sleb128 12
GAS LISTING C:\Users\PRESID~1\AppData\Local\Temp\ccblGL8o.s 			page 35


 1061 034d 00       		.byte	0
 1062 034e 04       		.uleb128 0x4
 1063 034f 436F7265 		.ascii "CoreID_e\0"
 1063      49445F65 
 1063      00
 1064 0358 04       		.byte	0x4
 1065 0359 04       		.byte	0x4
 1066 035a 04       		.byte	0x4
 1067 035b 80030000 		.long	0x380
 1068 035f 05       		.uleb128 0x5
 1069 0360 436F7265 		.ascii "Core0\0"
 1069      3000
 1070 0366 00       		.sleb128 0
 1071 0367 05       		.uleb128 0x5
 1072 0368 436F7265 		.ascii "Core1\0"
 1072      3100
 1073 036e 01       		.sleb128 1
 1074 036f 05       		.uleb128 0x5
 1075 0370 436F7265 		.ascii "Core2\0"
 1075      3200
 1076 0376 02       		.sleb128 2
 1077 0377 05       		.uleb128 0x5
 1078 0378 436F7265 		.ascii "Core3\0"
 1078      3300
 1079 037e 03       		.sleb128 3
 1080 037f 00       		.byte	0
 1081 0380 04       		.uleb128 0x4
 1082 0381 70726976 		.ascii "privilige_mode_e\0"
 1082      696C6967 
 1082      655F6D6F 
 1082      64655F65 
 1082      00
 1083 0392 04       		.byte	0x4
 1084 0393 04       		.byte	0x4
 1085 0394 10       		.byte	0x10
 1086 0395 15040000 		.long	0x415
 1087 0399 05       		.uleb128 0x5
 1088 039a 65507269 		.ascii "ePriviligeMode_unpriviliged_thread_mode\0"
 1088      76696C69 
 1088      67654D6F 
 1088      64655F75 
 1088      6E707269 
 1089 03c2 00       		.sleb128 0
 1090 03c3 05       		.uleb128 0x5
 1091 03c4 65507269 		.ascii "ePriviligeMode_priviliged_thread_mode\0"
 1091      76696C69 
 1091      67654D6F 
 1091      64655F70 
 1091      72697669 
 1092 03ea 01       		.sleb128 1
 1093 03eb 05       		.uleb128 0x5
 1094 03ec 65507269 		.ascii "ePriviligeMode_priviliged_handler_mode\0"
 1094      76696C69 
 1094      67654D6F 
 1094      64655F70 
 1094      72697669 
 1095 0413 02       		.sleb128 2
GAS LISTING C:\Users\PRESID~1\AppData\Local\Temp\ccblGL8o.s 			page 36


 1096 0414 00       		.byte	0
 1097 0415 02       		.uleb128 0x2
 1098 0416 70726976 		.ascii "privilige_mode_t\0"
 1098      696C6967 
 1098      655F6D6F 
 1098      64655F74 
 1098      00
 1099 0427 04       		.byte	0x4
 1100 0428 16       		.byte	0x16
 1101 0429 80030000 		.long	0x380
 1102 042d 04       		.uleb128 0x4
 1103 042e 7461736B 		.ascii "task_state_e\0"
 1103      5F737461 
 1103      74655F65 
 1103      00
 1104 043b 04       		.byte	0x4
 1105 043c 05       		.byte	0x5
 1106 043d 07       		.byte	0x7
 1107 043e 83040000 		.long	0x483
 1108 0442 05       		.uleb128 0x5
 1109 0443 5461736B 		.ascii "Task_unspecified\0"
 1109      5F756E73 
 1109      70656369 
 1109      66696564 
 1109      00
 1110 0454 00       		.sleb128 0
 1111 0455 05       		.uleb128 0x5
 1112 0456 5461736B 		.ascii "Task_suspended\0"
 1112      5F737573 
 1112      70656E64 
 1112      656400
 1113 0465 01       		.sleb128 1
 1114 0466 05       		.uleb128 0x5
 1115 0467 5461736B 		.ascii "Task_ready\0"
 1115      5F726561 
 1115      647900
 1116 0472 02       		.sleb128 2
 1117 0473 05       		.uleb128 0x5
 1118 0474 5461736B 		.ascii "Task_running\0"
 1118      5F72756E 
 1118      6E696E67 
 1118      00
 1119 0481 03       		.sleb128 3
 1120 0482 00       		.byte	0
 1121 0483 02       		.uleb128 0x2
 1122 0484 7461736B 		.ascii "task_state_t\0"
 1122      5F737461 
 1122      74655F74 
 1122      00
 1123 0491 05       		.byte	0x5
 1124 0492 0E       		.byte	0xe
 1125 0493 2D040000 		.long	0x42d
 1126 0497 02       		.uleb128 0x2
 1127 0498 66756E63 		.ascii "func_p_t\0"
 1127      5F705F74 
 1127      00
 1128 04a1 05       		.byte	0x5
GAS LISTING C:\Users\PRESID~1\AppData\Local\Temp\ccblGL8o.s 			page 37


 1129 04a2 13       		.byte	0x13
 1130 04a3 A7040000 		.long	0x4a7
 1131 04a7 06       		.uleb128 0x6
 1132 04a8 04       		.byte	0x4
 1133 04a9 AD040000 		.long	0x4ad
 1134 04ad 07       		.uleb128 0x7
 1135 04ae B8040000 		.long	0x4b8
 1136 04b2 08       		.uleb128 0x8
 1137 04b3 B8040000 		.long	0x4b8
 1138 04b7 00       		.byte	0
 1139 04b8 09       		.uleb128 0x9
 1140 04b9 04       		.byte	0x4
 1141 04ba 02       		.uleb128 0x2
 1142 04bb 66756E63 		.ascii "func_p_state_change_t\0"
 1142      5F705F73 
 1142      74617465 
 1142      5F636861 
 1142      6E67655F 
 1143 04d1 05       		.byte	0x5
 1144 04d2 15       		.byte	0x15
 1145 04d3 D7040000 		.long	0x4d7
 1146 04d7 06       		.uleb128 0x6
 1147 04d8 04       		.byte	0x4
 1148 04d9 DD040000 		.long	0x4dd
 1149 04dd 0A       		.uleb128 0xa
 1150 04de 95000000 		.long	0x95
 1151 04e2 F1040000 		.long	0x4f1
 1152 04e6 08       		.uleb128 0x8
 1153 04e7 B8040000 		.long	0x4b8
 1154 04eb 08       		.uleb128 0x8
 1155 04ec 83040000 		.long	0x483
 1156 04f0 00       		.byte	0
 1157 04f1 0B       		.uleb128 0xb
 1158 04f2 7461736B 		.ascii "task_group_s\0"
 1158      5F67726F 
 1158      75705F73 
 1158      00
 1159 04ff 08       		.byte	0x8
 1160 0500 05       		.byte	0x5
 1161 0501 16       		.byte	0x16
 1162 0502 29050000 		.long	0x529
 1163 0506 0C       		.uleb128 0xc
 1164 0507 0E000000 		.secrel32	LASF0
 1165 050b 05       		.byte	0x5
 1166 050c 18       		.byte	0x18
 1167 050d D3000000 		.long	0xd3
 1168 0511 00       		.byte	0
 1169 0512 0D       		.uleb128 0xd
 1170 0513 66616972 		.ascii "fair_exe_time\0"
 1170      5F657865 
 1170      5F74696D 
 1170      6500
 1171 0521 05       		.byte	0x5
 1172 0522 19       		.byte	0x19
 1173 0523 D3000000 		.long	0xd3
 1174 0527 04       		.byte	0x4
 1175 0528 00       		.byte	0
GAS LISTING C:\Users\PRESID~1\AppData\Local\Temp\ccblGL8o.s 			page 38


 1176 0529 02       		.uleb128 0x2
 1177 052a 7461736B 		.ascii "task_group_t\0"
 1177      5F67726F 
 1177      75705F74 
 1177      00
 1178 0537 05       		.byte	0x5
 1179 0538 1B       		.byte	0x1b
 1180 0539 F1040000 		.long	0x4f1
 1181 053d 0B       		.uleb128 0xb
 1182 053e 7461736B 		.ascii "task_s\0"
 1182      5F7300
 1183 0545 64       		.byte	0x64
 1184 0546 05       		.byte	0x5
 1185 0547 1D       		.byte	0x1d
 1186 0548 B1070000 		.long	0x7b1
 1187 054c 0E       		.uleb128 0xe
 1188 054d 61637469 		.ascii "active\0"
 1188      766500
 1189 0554 05       		.byte	0x5
 1190 0555 1F       		.byte	0x1f
 1191 0556 B1070000 		.long	0x7b1
 1192 055a 04       		.byte	0x4
 1193 055b 01       		.byte	0x1
 1194 055c 1F       		.byte	0x1f
 1195 055d 00       		.byte	0
 1196 055e 0E       		.uleb128 0xe
 1197 055f 7461736B 		.ascii "task_queued\0"
 1197      5F717565 
 1197      75656400 
 1198 056b 05       		.byte	0x5
 1199 056c 20       		.byte	0x20
 1200 056d B1070000 		.long	0x7b1
 1201 0571 04       		.byte	0x4
 1202 0572 01       		.byte	0x1
 1203 0573 1E       		.byte	0x1e
 1204 0574 00       		.byte	0
 1205 0575 0E       		.uleb128 0xe
 1206 0576 49646C65 		.ascii "IdleTask\0"
 1206      5461736B 
 1206      00
 1207 057f 05       		.byte	0x5
 1208 0580 21       		.byte	0x21
 1209 0581 B1070000 		.long	0x7b1
 1210 0585 04       		.byte	0x4
 1211 0586 01       		.byte	0x1
 1212 0587 1D       		.byte	0x1d
 1213 0588 00       		.byte	0
 1214 0589 0E       		.uleb128 0xe
 1215 058a 46524545 		.ascii "FREE\0"
 1215      00
 1216 058f 05       		.byte	0x5
 1217 0590 22       		.byte	0x22
 1218 0591 B1070000 		.long	0x7b1
 1219 0595 04       		.byte	0x4
 1220 0596 1D       		.byte	0x1d
 1221 0597 00       		.byte	0
 1222 0598 00       		.byte	0
GAS LISTING C:\Users\PRESID~1\AppData\Local\Temp\ccblGL8o.s 			page 39


 1223 0599 0D       		.uleb128 0xd
 1224 059a 4E724F66 		.ascii "NrOfInsAllowed\0"
 1224      496E7341 
 1224      6C6C6F77 
 1224      656400
 1225 05a9 05       		.byte	0x5
 1226 05aa 23       		.byte	0x23
 1227 05ab 95000000 		.long	0x95
 1228 05af 04       		.byte	0x4
 1229 05b0 0D       		.uleb128 0xd
 1230 05b1 4E724F66 		.ascii "NrOfInsActivated\0"
 1230      496E7341 
 1230      63746976 
 1230      61746564 
 1230      00
 1231 05c2 05       		.byte	0x5
 1232 05c3 24       		.byte	0x24
 1233 05c4 95000000 		.long	0x95
 1234 05c8 05       		.byte	0x5
 1235 05c9 0D       		.uleb128 0xd
 1236 05ca 57616974 		.ascii "WaitActUntil\0"
 1236      41637455 
 1236      6E74696C 
 1236      00
 1237 05d7 05       		.byte	0x5
 1238 05d8 25       		.byte	0x25
 1239 05d9 D3000000 		.long	0xd3
 1240 05dd 08       		.byte	0x8
 1241 05de 0D       		.uleb128 0xd
 1242 05df 77616974 		.ascii "wait_time\0"
 1242      5F74696D 
 1242      6500
 1243 05e9 05       		.byte	0x5
 1244 05ea 26       		.byte	0x26
 1245 05eb D3000000 		.long	0xd3
 1246 05ef 0C       		.byte	0xc
 1247 05f0 0D       		.uleb128 0xd
 1248 05f1 54696D65 		.ascii "TimeToPrioInc\0"
 1248      546F5072 
 1248      696F496E 
 1248      6300
 1249 05ff 05       		.byte	0x5
 1250 0600 27       		.byte	0x27
 1251 0601 D3000000 		.long	0xd3
 1252 0605 10       		.byte	0x10
 1253 0606 0D       		.uleb128 0xd
 1254 0607 6F766572 		.ascii "overwaittime_per_prio_inc_step\0"
 1254      77616974 
 1254      74696D65 
 1254      5F706572 
 1254      5F707269 
 1255 0626 05       		.byte	0x5
 1256 0627 28       		.byte	0x28
 1257 0628 D3000000 		.long	0xd3
 1258 062c 14       		.byte	0x14
 1259 062d 0D       		.uleb128 0xd
 1260 062e 6D61785F 		.ascii "max_allowed_wait_time\0"
GAS LISTING C:\Users\PRESID~1\AppData\Local\Temp\ccblGL8o.s 			page 40


 1260      616C6C6F 
 1260      7765645F 
 1260      77616974 
 1260      5F74696D 
 1261 0644 05       		.byte	0x5
 1262 0645 29       		.byte	0x29
 1263 0646 D3000000 		.long	0xd3
 1264 064a 18       		.byte	0x18
 1265 064b 0C       		.uleb128 0xc
 1266 064c 0E000000 		.secrel32	LASF0
 1267 0650 05       		.byte	0x5
 1268 0651 2A       		.byte	0x2a
 1269 0652 D3000000 		.long	0xd3
 1270 0656 1C       		.byte	0x1c
 1271 0657 0D       		.uleb128 0xd
 1272 0658 73746172 		.ascii "start_time\0"
 1272      745F7469 
 1272      6D6500
 1273 0663 05       		.byte	0x5
 1274 0664 2B       		.byte	0x2b
 1275 0665 D3000000 		.long	0xd3
 1276 0669 20       		.byte	0x20
 1277 066a 0D       		.uleb128 0xd
 1278 066b 63757272 		.ascii "current_prio\0"
 1278      656E745F 
 1278      7072696F 
 1278      00
 1279 0678 05       		.byte	0x5
 1280 0679 2C       		.byte	0x2c
 1281 067a 95000000 		.long	0x95
 1282 067e 24       		.byte	0x24
 1283 067f 0D       		.uleb128 0xd
 1284 0680 64656661 		.ascii "default_prio\0"
 1284      756C745F 
 1284      7072696F 
 1284      00
 1285 068d 05       		.byte	0x5
 1286 068e 2D       		.byte	0x2d
 1287 068f 95000000 		.long	0x95
 1288 0693 25       		.byte	0x25
 1289 0694 0D       		.uleb128 0xd
 1290 0695 7461736B 		.ascii "task_number\0"
 1290      5F6E756D 
 1290      62657200 
 1291 06a1 05       		.byte	0x5
 1292 06a2 2E       		.byte	0x2e
 1293 06a3 D3000000 		.long	0xd3
 1294 06a7 28       		.byte	0x28
 1295 06a8 0D       		.uleb128 0xd
 1296 06a9 667000   		.ascii "fp\0"
 1297 06ac 05       		.byte	0x5
 1298 06ad 2F       		.byte	0x2f
 1299 06ae 97040000 		.long	0x497
 1300 06b2 2C       		.byte	0x2c
 1301 06b3 0D       		.uleb128 0xd
 1302 06b4 73746174 		.ascii "state_request\0"
 1302      655F7265 
GAS LISTING C:\Users\PRESID~1\AppData\Local\Temp\ccblGL8o.s 			page 41


 1302      71756573 
 1302      7400
 1303 06c2 05       		.byte	0x5
 1304 06c3 30       		.byte	0x30
 1305 06c4 BA040000 		.long	0x4ba
 1306 06c8 30       		.byte	0x30
 1307 06c9 0D       		.uleb128 0xd
 1308 06ca 7461736B 		.ascii "task_state\0"
 1308      5F737461 
 1308      746500
 1309 06d5 05       		.byte	0x5
 1310 06d6 31       		.byte	0x31
 1311 06d7 83040000 		.long	0x483
 1312 06db 34       		.byte	0x34
 1313 06dc 0D       		.uleb128 0xd
 1314 06dd 7461736B 		.ascii "task_group\0"
 1314      5F67726F 
 1314      757000
 1315 06e8 05       		.byte	0x5
 1316 06e9 32       		.byte	0x32
 1317 06ea C1070000 		.long	0x7c1
 1318 06ee 38       		.byte	0x38
 1319 06ef 0D       		.uleb128 0xd
 1320 06f0 45415800 		.ascii "EAX\0"
 1321 06f4 05       		.byte	0x5
 1322 06f5 34       		.byte	0x34
 1323 06f6 D3000000 		.long	0xd3
 1324 06fa 3C       		.byte	0x3c
 1325 06fb 0D       		.uleb128 0xd
 1326 06fc 45425800 		.ascii "EBX\0"
 1327 0700 05       		.byte	0x5
 1328 0701 35       		.byte	0x35
 1329 0702 D3000000 		.long	0xd3
 1330 0706 40       		.byte	0x40
 1331 0707 0D       		.uleb128 0xd
 1332 0708 45435800 		.ascii "ECX\0"
 1333 070c 05       		.byte	0x5
 1334 070d 36       		.byte	0x36
 1335 070e D3000000 		.long	0xd3
 1336 0712 44       		.byte	0x44
 1337 0713 0D       		.uleb128 0xd
 1338 0714 45445800 		.ascii "EDX\0"
 1339 0718 05       		.byte	0x5
 1340 0719 37       		.byte	0x37
 1341 071a D3000000 		.long	0xd3
 1342 071e 48       		.byte	0x48
 1343 071f 0D       		.uleb128 0xd
 1344 0720 70537461 		.ascii "pStackPointer\0"
 1344      636B506F 
 1344      696E7465 
 1344      7200
 1345 072e 05       		.byte	0x5
 1346 072f 47       		.byte	0x47
 1347 0730 C7070000 		.long	0x7c7
 1348 0734 4C       		.byte	0x4c
 1349 0735 0D       		.uleb128 0xd
 1350 0736 70537461 		.ascii "pStackPointerByMalloc\0"
GAS LISTING C:\Users\PRESID~1\AppData\Local\Temp\ccblGL8o.s 			page 42


 1350      636B506F 
 1350      696E7465 
 1350      7242794D 
 1350      616C6C6F 
 1351 074c 05       		.byte	0x5
 1352 074d 48       		.byte	0x48
 1353 074e C7070000 		.long	0x7c7
 1354 0752 50       		.byte	0x50
 1355 0753 0D       		.uleb128 0xd
 1356 0754 70537461 		.ascii "pStackPointerStart\0"
 1356      636B506F 
 1356      696E7465 
 1356      72537461 
 1356      727400
 1357 0767 05       		.byte	0x5
 1358 0768 49       		.byte	0x49
 1359 0769 C7070000 		.long	0x7c7
 1360 076d 54       		.byte	0x54
 1361 076e 0D       		.uleb128 0xd
 1362 076f 53746163 		.ascii "StackSize\0"
 1362      6B53697A 
 1362      6500
 1363 0779 05       		.byte	0x5
 1364 077a 4A       		.byte	0x4a
 1365 077b D3000000 		.long	0xd3
 1366 077f 58       		.byte	0x58
 1367 0780 0D       		.uleb128 0xd
 1368 0781 70537461 		.ascii "pStackPointerEnd\0"
 1368      636B506F 
 1368      696E7465 
 1368      72456E64 
 1368      00
 1369 0792 05       		.byte	0x5
 1370 0793 4B       		.byte	0x4b
 1371 0794 C7070000 		.long	0x7c7
 1372 0798 5C       		.byte	0x5c
 1373 0799 0D       		.uleb128 0xd
 1374 079a 70726976 		.ascii "privilige_mode\0"
 1374      696C6967 
 1374      655F6D6F 
 1374      646500
 1375 07a9 05       		.byte	0x5
 1376 07aa 4C       		.byte	0x4c
 1377 07ab 15040000 		.long	0x415
 1378 07af 60       		.byte	0x60
 1379 07b0 00       		.byte	0
 1380 07b1 03       		.uleb128 0x3
 1381 07b2 04       		.byte	0x4
 1382 07b3 07       		.byte	0x7
 1383 07b4 756E7369 		.ascii "unsigned int\0"
 1383      676E6564 
 1383      20696E74 
 1383      00
 1384 07c1 06       		.uleb128 0x6
 1385 07c2 04       		.byte	0x4
 1386 07c3 29050000 		.long	0x529
 1387 07c7 06       		.uleb128 0x6
GAS LISTING C:\Users\PRESID~1\AppData\Local\Temp\ccblGL8o.s 			page 43


 1388 07c8 04       		.byte	0x4
 1389 07c9 95000000 		.long	0x95
 1390 07cd 02       		.uleb128 0x2
 1391 07ce 7461736B 		.ascii "task_t\0"
 1391      5F7400
 1392 07d5 05       		.byte	0x5
 1393 07d6 4E       		.byte	0x4e
 1394 07d7 3D050000 		.long	0x53d
 1395 07db 02       		.uleb128 0x2
 1396 07dc 73636865 		.ascii "scheduler_time_t\0"
 1396      64756C65 
 1396      725F7469 
 1396      6D655F74 
 1396      00
 1397 07ed 05       		.byte	0x5
 1398 07ee 5B       		.byte	0x5b
 1399 07ef B1070000 		.long	0x7b1
 1400 07f3 02       		.uleb128 0x2
 1401 07f4 7461736B 		.ascii "task_time_t\0"
 1401      5F74696D 
 1401      655F7400 
 1402 0800 06       		.byte	0x6
 1403 0801 0F       		.byte	0xf
 1404 0802 B1070000 		.long	0x7b1
 1405 0806 02       		.uleb128 0x2
 1406 0807 6C696E6B 		.ascii "link_list_t\0"
 1406      5F6C6973 
 1406      745F7400 
 1407 0813 07       		.byte	0x7
 1408 0814 0B       		.byte	0xb
 1409 0815 B8040000 		.long	0x4b8
 1410 0819 0F       		.uleb128 0xf
 1411 081a 4F535F41 		.ascii "OS_ACTIVATE_DISPATCHER\0"
 1411      43544956 
 1411      4154455F 
 1411      44495350 
 1411      41544348 
 1412 0831 01       		.byte	0x1
 1413 0832 16       		.byte	0x16
 1414 0833 00000000 		.long	LFB0
 1415 0837 05000000 		.long	LFE0-LFB0
 1416 083b 01       		.uleb128 0x1
 1417 083c 9C       		.byte	0x9c
 1418 083d 10       		.uleb128 0x10
 1419 083e 4F535F53 		.ascii "OS_SLEEPTASK\0"
 1419      4C454550 
 1419      5441534B 
 1419      00
 1420 084b 01       		.byte	0x1
 1421 084c 31       		.byte	0x31
 1422 084d 05000000 		.long	LFB1
 1423 0851 1A000000 		.long	LFE1-LFB1
 1424 0855 01       		.uleb128 0x1
 1425 0856 9C       		.byte	0x9c
 1426 0857 7D080000 		.long	0x87d
 1427 085b 11       		.uleb128 0x11
 1428 085c 00000000 		.secrel32	LASF1
GAS LISTING C:\Users\PRESID~1\AppData\Local\Temp\ccblGL8o.s 			page 44


 1429 0860 01       		.byte	0x1
 1430 0861 31       		.byte	0x31
 1431 0862 7D080000 		.long	0x87d
 1432 0866 02       		.uleb128 0x2
 1433 0867 91       		.byte	0x91
 1434 0868 00       		.sleb128 0
 1435 0869 12       		.uleb128 0x12
 1436 086a 6D696C6C 		.ascii "millisec\0"
 1436      69736563 
 1436      00
 1437 0873 01       		.byte	0x1
 1438 0874 31       		.byte	0x31
 1439 0875 F3070000 		.long	0x7f3
 1440 0879 02       		.uleb128 0x2
 1441 087a 91       		.byte	0x91
 1442 087b 04       		.sleb128 4
 1443 087c 00       		.byte	0
 1444 087d 06       		.uleb128 0x6
 1445 087e 04       		.byte	0x4
 1446 087f CD070000 		.long	0x7cd
 1447 0883 13       		.uleb128 0x13
 1448 0884 7461736B 		.ascii "task_state_request\0"
 1448      5F737461 
 1448      74655F72 
 1448      65717565 
 1448      737400
 1449 0897 01       		.byte	0x1
 1450 0898 36       		.byte	0x36
 1451 0899 95000000 		.long	0x95
 1452 089d 1F000000 		.long	LFB2
 1453 08a1 F7000000 		.long	LFE2-LFB2
 1454 08a5 01       		.uleb128 0x1
 1455 08a6 9C       		.byte	0x9c
 1456 08a7 FF080000 		.long	0x8ff
 1457 08ab 12       		.uleb128 0x12
 1458 08ac 74656D70 		.ascii "temp_task\0"
 1458      5F746173 
 1458      6B00
 1459 08b6 01       		.byte	0x1
 1460 08b7 36       		.byte	0x36
 1461 08b8 B8040000 		.long	0x4b8
 1462 08bc 02       		.uleb128 0x2
 1463 08bd 91       		.byte	0x91
 1464 08be 00       		.sleb128 0
 1465 08bf 12       		.uleb128 0x12
 1466 08c0 72657175 		.ascii "requested_state\0"
 1466      65737465 
 1466      645F7374 
 1466      61746500 
 1467 08d0 01       		.byte	0x1
 1468 08d1 36       		.byte	0x36
 1469 08d2 83040000 		.long	0x483
 1470 08d6 02       		.uleb128 0x2
 1471 08d7 91       		.byte	0x91
 1472 08d8 04       		.sleb128 4
 1473 08d9 14       		.uleb128 0x14
 1474 08da 52657175 		.ascii "RequestState\0"
GAS LISTING C:\Users\PRESID~1\AppData\Local\Temp\ccblGL8o.s 			page 45


 1474      65737453 
 1474      74617465 
 1474      00
 1475 08e7 01       		.byte	0x1
 1476 08e8 38       		.byte	0x38
 1477 08e9 95000000 		.long	0x95
 1478 08ed 02       		.uleb128 0x2
 1479 08ee 91       		.byte	0x91
 1480 08ef 6F       		.sleb128 -17
 1481 08f0 15       		.uleb128 0x15
 1482 08f1 00000000 		.secrel32	LASF1
 1483 08f5 01       		.byte	0x1
 1484 08f6 3A       		.byte	0x3a
 1485 08f7 7D080000 		.long	0x87d
 1486 08fb 02       		.uleb128 0x2
 1487 08fc 91       		.byte	0x91
 1488 08fd 68       		.sleb128 -24
 1489 08fe 00       		.byte	0
 1490 08ff 10       		.uleb128 0x10
 1491 0900 4F535F41 		.ascii "OS_ActivateTask\0"
 1491      63746976 
 1491      61746554 
 1491      61736B00 
 1492 0910 01       		.byte	0x1
 1493 0911 A1       		.byte	0xa1
 1494 0912 16010000 		.long	LFB3
 1495 0916 BE000000 		.long	LFE3-LFB3
 1496 091a 01       		.uleb128 0x1
 1497 091b 9C       		.byte	0x9c
 1498 091c 2F090000 		.long	0x92f
 1499 0920 11       		.uleb128 0x11
 1500 0921 00000000 		.secrel32	LASF1
 1501 0925 01       		.byte	0x1
 1502 0926 A1       		.byte	0xa1
 1503 0927 7D080000 		.long	0x87d
 1504 092b 02       		.uleb128 0x2
 1505 092c 91       		.byte	0x91
 1506 092d 00       		.sleb128 0
 1507 092e 00       		.byte	0
 1508 092f 16       		.uleb128 0x16
 1509 0930 4F535F53 		.ascii "OS_STARTTASK\0"
 1509      54415254 
 1509      5441534B 
 1509      00
 1510 093d 01       		.byte	0x1
 1511 093e CF       		.byte	0xcf
 1512 093f D4010000 		.long	LFB4
 1513 0943 F7000000 		.long	LFE4-LFB4
 1514 0947 01       		.uleb128 0x1
 1515 0948 9C       		.byte	0x9c
 1516 0949 5C090000 		.long	0x95c
 1517 094d 11       		.uleb128 0x11
 1518 094e 00000000 		.secrel32	LASF1
 1519 0952 01       		.byte	0x1
 1520 0953 CF       		.byte	0xcf
 1521 0954 7D080000 		.long	0x87d
 1522 0958 02       		.uleb128 0x2
GAS LISTING C:\Users\PRESID~1\AppData\Local\Temp\ccblGL8o.s 			page 46


 1523 0959 91       		.byte	0x91
 1524 095a 00       		.sleb128 0
 1525 095b 00       		.byte	0
 1526 095c 17       		.uleb128 0x17
 1527 095d 4F535F54 		.ascii "OS_TERMINATE_TASK\0"
 1527      45524D49 
 1527      4E415445 
 1527      5F544153 
 1527      4B00
 1528 096f 01       		.byte	0x1
 1529 0970 0401     		.word	0x104
 1530 0972 CB020000 		.long	LFB5
 1531 0976 BA000000 		.long	LFE5-LFB5
 1532 097a 01       		.uleb128 0x1
 1533 097b 9C       		.byte	0x9c
 1534 097c 90090000 		.long	0x990
 1535 0980 18       		.uleb128 0x18
 1536 0981 00000000 		.secrel32	LASF1
 1537 0985 01       		.byte	0x1
 1538 0986 0401     		.word	0x104
 1539 0988 7D080000 		.long	0x87d
 1540 098c 02       		.uleb128 0x2
 1541 098d 91       		.byte	0x91
 1542 098e 00       		.sleb128 0
 1543 098f 00       		.byte	0
 1544 0990 17       		.uleb128 0x17
 1545 0991 4F535F54 		.ascii "OS_TASK_DISPATCHER\0"
 1545      41534B5F 
 1545      44495350 
 1545      41544348 
 1545      455200
 1546 09a4 01       		.byte	0x1
 1547 09a5 2C01     		.word	0x12c
 1548 09a7 85030000 		.long	LFB6
 1549 09ab 3B000000 		.long	LFE6-LFB6
 1550 09af 01       		.uleb128 0x1
 1551 09b0 9C       		.byte	0x9c
 1552 09b1 C5090000 		.long	0x9c5
 1553 09b5 19       		.uleb128 0x19
 1554 09b6 00000000 		.secrel32	LASF1
 1555 09ba 01       		.byte	0x1
 1556 09bb 3801     		.word	0x138
 1557 09bd 7D080000 		.long	0x87d
 1558 09c1 02       		.uleb128 0x2
 1559 09c2 91       		.byte	0x91
 1560 09c3 6C       		.sleb128 -20
 1561 09c4 00       		.byte	0
 1562 09c5 1A       		.uleb128 0x1a
 1563 09c6 5441534B 		.ascii "TASK_0\0"
 1563      5F3000
 1564 09cd 01       		.byte	0x1
 1565 09ce 4801     		.word	0x148
 1566 09d0 C0030000 		.long	LFB7
 1567 09d4 05000000 		.long	LFE7-LFB7
 1568 09d8 01       		.uleb128 0x1
 1569 09d9 9C       		.byte	0x9c
 1570 09da EE090000 		.long	0x9ee
GAS LISTING C:\Users\PRESID~1\AppData\Local\Temp\ccblGL8o.s 			page 47


 1571 09de 18       		.uleb128 0x18
 1572 09df 05000000 		.secrel32	LASF2
 1573 09e3 01       		.byte	0x1
 1574 09e4 4801     		.word	0x148
 1575 09e6 B8040000 		.long	0x4b8
 1576 09ea 02       		.uleb128 0x2
 1577 09eb 91       		.byte	0x91
 1578 09ec 00       		.sleb128 0
 1579 09ed 00       		.byte	0
 1580 09ee 1B       		.uleb128 0x1b
 1581 09ef 5441534B 		.ascii "TASK_1\0"
 1581      5F3100
 1582 09f6 01       		.byte	0x1
 1583 09f7 4D01     		.word	0x14d
 1584 09f9 C5030000 		.long	LFB8
 1585 09fd 26000000 		.long	LFE8-LFB8
 1586 0a01 01       		.uleb128 0x1
 1587 0a02 9C       		.byte	0x9c
 1588 0a03 170A0000 		.long	0xa17
 1589 0a07 18       		.uleb128 0x18
 1590 0a08 05000000 		.secrel32	LASF2
 1591 0a0c 01       		.byte	0x1
 1592 0a0d 4D01     		.word	0x14d
 1593 0a0f B8040000 		.long	0x4b8
 1594 0a13 02       		.uleb128 0x2
 1595 0a14 91       		.byte	0x91
 1596 0a15 00       		.sleb128 0
 1597 0a16 00       		.byte	0
 1598 0a17 1A       		.uleb128 0x1a
 1599 0a18 5441534B 		.ascii "TASK_2\0"
 1599      5F3200
 1600 0a1f 01       		.byte	0x1
 1601 0a20 5901     		.word	0x159
 1602 0a22 EB030000 		.long	LFB9
 1603 0a26 10000000 		.long	LFE9-LFB9
 1604 0a2a 01       		.uleb128 0x1
 1605 0a2b 9C       		.byte	0x9c
 1606 0a2c 400A0000 		.long	0xa40
 1607 0a30 18       		.uleb128 0x18
 1608 0a31 05000000 		.secrel32	LASF2
 1609 0a35 01       		.byte	0x1
 1610 0a36 5901     		.word	0x159
 1611 0a38 B8040000 		.long	0x4b8
 1612 0a3c 02       		.uleb128 0x2
 1613 0a3d 91       		.byte	0x91
 1614 0a3e 00       		.sleb128 0
 1615 0a3f 00       		.byte	0
 1616 0a40 1A       		.uleb128 0x1a
 1617 0a41 5441534B 		.ascii "TASK_3\0"
 1617      5F3300
 1618 0a48 01       		.byte	0x1
 1619 0a49 6301     		.word	0x163
 1620 0a4b FB030000 		.long	LFB10
 1621 0a4f 10000000 		.long	LFE10-LFB10
 1622 0a53 01       		.uleb128 0x1
 1623 0a54 9C       		.byte	0x9c
 1624 0a55 690A0000 		.long	0xa69
GAS LISTING C:\Users\PRESID~1\AppData\Local\Temp\ccblGL8o.s 			page 48


 1625 0a59 18       		.uleb128 0x18
 1626 0a5a 05000000 		.secrel32	LASF2
 1627 0a5e 01       		.byte	0x1
 1628 0a5f 6301     		.word	0x163
 1629 0a61 B8040000 		.long	0x4b8
 1630 0a65 02       		.uleb128 0x2
 1631 0a66 91       		.byte	0x91
 1632 0a67 00       		.sleb128 0
 1633 0a68 00       		.byte	0
 1634 0a69 17       		.uleb128 0x17
 1635 0a6a 4F535F49 		.ascii "OS_INIT_TASKS\0"
 1635      4E49545F 
 1635      5441534B 
 1635      5300
 1636 0a78 01       		.byte	0x1
 1637 0a79 6D01     		.word	0x16d
 1638 0a7b 0B040000 		.long	LFB11
 1639 0a7f 91010000 		.long	LFE11-LFB11
 1640 0a83 01       		.uleb128 0x1
 1641 0a84 9C       		.byte	0x9c
 1642 0a85 740B0000 		.long	0xb74
 1643 0a89 1C       		.uleb128 0x1c
 1644 0a8a 7461736B 		.ascii "task_0\0"
 1644      5F3000
 1645 0a91 01       		.byte	0x1
 1646 0a92 6F01     		.word	0x16f
 1647 0a94 CD070000 		.long	0x7cd
 1648 0a98 05       		.uleb128 0x5
 1649 0a99 03       		.byte	0x3
 1650 0a9a 40000000 		.long	_task_0.1376
 1651 0a9e 1C       		.uleb128 0x1c
 1652 0a9f 7461736B 		.ascii "task_1\0"
 1652      5F3100
 1653 0aa6 01       		.byte	0x1
 1654 0aa7 6F01     		.word	0x16f
 1655 0aa9 CD070000 		.long	0x7cd
 1656 0aad 05       		.uleb128 0x5
 1657 0aae 03       		.byte	0x3
 1658 0aaf C0000000 		.long	_task_1.1377
 1659 0ab3 1C       		.uleb128 0x1c
 1660 0ab4 7461736B 		.ascii "task_2\0"
 1660      5F3200
 1661 0abb 01       		.byte	0x1
 1662 0abc 6F01     		.word	0x16f
 1663 0abe CD070000 		.long	0x7cd
 1664 0ac2 05       		.uleb128 0x5
 1665 0ac3 03       		.byte	0x3
 1666 0ac4 40010000 		.long	_task_2.1378
 1667 0ac8 1C       		.uleb128 0x1c
 1668 0ac9 7461736B 		.ascii "task_3\0"
 1668      5F3300
 1669 0ad0 01       		.byte	0x1
 1670 0ad1 6F01     		.word	0x16f
 1671 0ad3 CD070000 		.long	0x7cd
 1672 0ad7 05       		.uleb128 0x5
 1673 0ad8 03       		.byte	0x3
 1674 0ad9 C0010000 		.long	_task_3.1379
GAS LISTING C:\Users\PRESID~1\AppData\Local\Temp\ccblGL8o.s 			page 49


 1675 0add 1C       		.uleb128 0x1c
 1676 0ade 5441534B 		.ascii "TASK_GROUP_1\0"
 1676      5F47524F 
 1676      55505F31 
 1676      00
 1677 0aeb 01       		.byte	0x1
 1678 0aec 7001     		.word	0x170
 1679 0aee 29050000 		.long	0x529
 1680 0af2 05       		.uleb128 0x5
 1681 0af3 03       		.byte	0x3
 1682 0af4 00000000 		.long	_TASK_GROUP_1.1380
 1683 0af8 1C       		.uleb128 0x1c
 1684 0af9 5441534B 		.ascii "TASK_GROUP_2\0"
 1684      5F47524F 
 1684      55505F32 
 1684      00
 1685 0b06 01       		.byte	0x1
 1686 0b07 7101     		.word	0x171
 1687 0b09 29050000 		.long	0x529
 1688 0b0d 05       		.uleb128 0x5
 1689 0b0e 03       		.byte	0x3
 1690 0b0f 08000000 		.long	_TASK_GROUP_2.1381
 1691 0b13 1C       		.uleb128 0x1c
 1692 0b14 5441534B 		.ascii "TASK_GROUP_3\0"
 1692      5F47524F 
 1692      55505F33 
 1692      00
 1693 0b21 01       		.byte	0x1
 1694 0b22 7201     		.word	0x172
 1695 0b24 29050000 		.long	0x529
 1696 0b28 05       		.uleb128 0x5
 1697 0b29 03       		.byte	0x3
 1698 0b2a 10000000 		.long	_TASK_GROUP_3.1382
 1699 0b2e 1C       		.uleb128 0x1c
 1700 0b2f 5441534B 		.ascii "TASK_GROUP_4\0"
 1700      5F47524F 
 1700      55505F34 
 1700      00
 1701 0b3c 01       		.byte	0x1
 1702 0b3d 7301     		.word	0x173
 1703 0b3f 29050000 		.long	0x529
 1704 0b43 05       		.uleb128 0x5
 1705 0b44 03       		.byte	0x3
 1706 0b45 18000000 		.long	_TASK_GROUP_4.1383
 1707 0b49 1C       		.uleb128 0x1c
 1708 0b4a 5441534B 		.ascii "TASK_GROUP_5\0"
 1708      5F47524F 
 1708      55505F35 
 1708      00
 1709 0b57 01       		.byte	0x1
 1710 0b58 7401     		.word	0x174
 1711 0b5a 29050000 		.long	0x529
 1712 0b5e 05       		.uleb128 0x5
 1713 0b5f 03       		.byte	0x3
 1714 0b60 20000000 		.long	_TASK_GROUP_5.1384
 1715 0b64 19       		.uleb128 0x19
 1716 0b65 05000000 		.secrel32	LASF2
GAS LISTING C:\Users\PRESID~1\AppData\Local\Temp\ccblGL8o.s 			page 50


 1717 0b69 01       		.byte	0x1
 1718 0b6a 7501     		.word	0x175
 1719 0b6c 7D080000 		.long	0x87d
 1720 0b70 02       		.uleb128 0x2
 1721 0b71 91       		.byte	0x91
 1722 0b72 6C       		.sleb128 -20
 1723 0b73 00       		.byte	0
 1724 0b74 1D       		.uleb128 0x1d
 1725 0b75 4F535F54 		.ascii "OS_TaskScheduler\0"
 1725      61736B53 
 1725      63686564 
 1725      756C6572 
 1725      00
 1726 0b86 01       		.byte	0x1
 1727 0b87 C401     		.word	0x1c4
 1728 0b89 7D080000 		.long	0x87d
 1729 0b8d 9C050000 		.long	LFB12
 1730 0b91 0E020000 		.long	LFE12-LFB12
 1731 0b95 01       		.uleb128 0x1
 1732 0b96 9C       		.byte	0x9c
 1733 0b97 2A0C0000 		.long	0xc2a
 1734 0b9b 19       		.uleb128 0x19
 1735 0b9c 00000000 		.secrel32	LASF1
 1736 0ba0 01       		.byte	0x1
 1737 0ba1 C601     		.word	0x1c6
 1738 0ba3 7D080000 		.long	0x87d
 1739 0ba7 05       		.uleb128 0x5
 1740 0ba8 03       		.byte	0x3
 1741 0ba9 28020000 		.long	_task.1389
 1742 0bad 1C       		.uleb128 0x1c
 1743 0bae 57696E6E 		.ascii "Winner_prio\0"
 1743      65725F70 
 1743      72696F00 
 1744 0bba 01       		.byte	0x1
 1745 0bbb C701     		.word	0x1c7
 1746 0bbd 95000000 		.long	0x95
 1747 0bc1 05       		.uleb128 0x5
 1748 0bc2 03       		.byte	0x3
 1749 0bc3 2C020000 		.long	_Winner_prio.1390
 1750 0bc7 1C       		.uleb128 0x1c
 1751 0bc8 57696E6E 		.ascii "Winner_task\0"
 1751      65725F74 
 1751      61736B00 
 1752 0bd4 01       		.byte	0x1
 1753 0bd5 C801     		.word	0x1c8
 1754 0bd7 7D080000 		.long	0x87d
 1755 0bdb 02       		.uleb128 0x2
 1756 0bdc 91       		.byte	0x91
 1757 0bdd 6C       		.sleb128 -20
 1758 0bde 1C       		.uleb128 0x1c
 1759 0bdf 6C696E6B 		.ascii "link_list_member\0"
 1759      5F6C6973 
 1759      745F6D65 
 1759      6D626572 
 1759      00
 1760 0bf0 01       		.byte	0x1
 1761 0bf1 C901     		.word	0x1c9
GAS LISTING C:\Users\PRESID~1\AppData\Local\Temp\ccblGL8o.s 			page 51


 1762 0bf3 2A0C0000 		.long	0xc2a
 1763 0bf7 05       		.uleb128 0x5
 1764 0bf8 03       		.byte	0x3
 1765 0bf9 24020000 		.long	_link_list_member.1392
 1766 0bfd 1C       		.uleb128 0x1c
 1767 0bfe 656C656D 		.ascii "element_nr\0"
 1767      656E745F 
 1767      6E7200
 1768 0c09 01       		.byte	0x1
 1769 0c0a CA01     		.word	0x1ca
 1770 0c0c 95000000 		.long	0x95
 1771 0c10 02       		.uleb128 0x2
 1772 0c11 91       		.byte	0x91
 1773 0c12 6B       		.sleb128 -21
 1774 0c13 1C       		.uleb128 0x1c
 1775 0c14 64656C74 		.ascii "delta_time\0"
 1775      615F7469 
 1775      6D6500
 1776 0c1f 01       		.byte	0x1
 1777 0c20 CC01     		.word	0x1cc
 1778 0c22 DB070000 		.long	0x7db
 1779 0c26 02       		.uleb128 0x2
 1780 0c27 91       		.byte	0x91
 1781 0c28 64       		.sleb128 -28
 1782 0c29 00       		.byte	0
 1783 0c2a 06       		.uleb128 0x6
 1784 0c2b 04       		.byte	0x4
 1785 0c2c 06080000 		.long	0x806
 1786 0c30 1E       		.uleb128 0x1e
 1787 0c31 4953525F 		.ascii "ISR_TASK_DISPATCH_C0\0"
 1787      5441534B 
 1787      5F444953 
 1787      50415443 
 1787      485F4330 
 1788 0c46 01       		.byte	0x1
 1789 0c47 3102     		.word	0x231
 1790 0c49 AA070000 		.long	LFB13
 1791 0c4d 0D000000 		.long	LFE13-LFB13
 1792 0c51 01       		.uleb128 0x1
 1793 0c52 9C       		.byte	0x9c
 1794 0c53 1F       		.uleb128 0x1f
 1795 0c54 95000000 		.long	0x95
 1796 0c58 690C0000 		.long	0xc69
 1797 0c5c 20       		.uleb128 0x20
 1798 0c5d 690C0000 		.long	0xc69
 1799 0c61 00       		.byte	0
 1800 0c62 20       		.uleb128 0x20
 1801 0c63 690C0000 		.long	0xc69
 1802 0c67 FF       		.byte	0xff
 1803 0c68 00       		.byte	0
 1804 0c69 03       		.uleb128 0x3
 1805 0c6a 04       		.byte	0x4
 1806 0c6b 07       		.byte	0x7
 1807 0c6c 73697A65 		.ascii "sizetype\0"
 1807      74797065 
 1807      00
 1808 0c75 21       		.uleb128 0x21
GAS LISTING C:\Users\PRESID~1\AppData\Local\Temp\ccblGL8o.s 			page 52


 1809 0c76 4F535F53 		.ascii "OS_STACK\0"
 1809      5441434B 
 1809      00
 1810 0c7f 08       		.byte	0x8
 1811 0c80 0E       		.byte	0xe
 1812 0c81 530C0000 		.long	0xc53
 1813 0c85 21       		.uleb128 0x21
 1814 0c86 5441534B 		.ascii "TASK1_CALL_NR\0"
 1814      315F4341 
 1814      4C4C5F4E 
 1814      5200
 1815 0c94 08       		.byte	0x8
 1816 0c95 1F       		.byte	0x1f
 1817 0c96 9A0C0000 		.long	0xc9a
 1818 0c9a 22       		.uleb128 0x22
 1819 0c9b 00010000 		.long	0x100
 1820 0c9f 21       		.uleb128 0x21
 1821 0ca0 5441534B 		.ascii "TASK2_CALL_NR\0"
 1821      325F4341 
 1821      4C4C5F4E 
 1821      5200
 1822 0cae 08       		.byte	0x8
 1823 0caf 20       		.byte	0x20
 1824 0cb0 9A0C0000 		.long	0xc9a
 1825 0cb4 21       		.uleb128 0x21
 1826 0cb5 5441534B 		.ascii "TASK3_CALL_NR\0"
 1826      335F4341 
 1826      4C4C5F4E 
 1826      5200
 1827 0cc3 08       		.byte	0x8
 1828 0cc4 21       		.byte	0x21
 1829 0cc5 9A0C0000 		.long	0xc9a
 1830 0cc9 1F       		.uleb128 0x1f
 1831 0cca 95000000 		.long	0x95
 1832 0cce DF0C0000 		.long	0xcdf
 1833 0cd2 20       		.uleb128 0x20
 1834 0cd3 690C0000 		.long	0xc69
 1835 0cd7 04       		.byte	0x4
 1836 0cd8 20       		.uleb128 0x20
 1837 0cd9 690C0000 		.long	0xc69
 1838 0cdd C7       		.byte	0xc7
 1839 0cde 00       		.byte	0
 1840 0cdf 21       		.uleb128 0x21
 1841 0ce0 5441534B 		.ascii "TASK_STACK\0"
 1841      5F535441 
 1841      434B00
 1842 0ceb 08       		.byte	0x8
 1843 0cec 24       		.byte	0x24
 1844 0ced C90C0000 		.long	0xcc9
 1845 0cf1 21       		.uleb128 0x21
 1846 0cf2 4C415354 		.ascii "LAST_CURRENT_TIME\0"
 1846      5F435552 
 1846      52454E54 
 1846      5F54494D 
 1846      4500
 1847 0d04 08       		.byte	0x8
 1848 0d05 25       		.byte	0x25
GAS LISTING C:\Users\PRESID~1\AppData\Local\Temp\ccblGL8o.s 			page 53


 1849 0d06 DB070000 		.long	0x7db
 1850 0d0a 00       		.byte	0
 1851              		.section	.debug_abbrev,"dr"
 1852              	Ldebug_abbrev0:
 1853 0000 01       		.uleb128 0x1
 1854 0001 11       		.uleb128 0x11
 1855 0002 01       		.byte	0x1
 1856 0003 25       		.uleb128 0x25
 1857 0004 08       		.uleb128 0x8
 1858 0005 13       		.uleb128 0x13
 1859 0006 0B       		.uleb128 0xb
 1860 0007 03       		.uleb128 0x3
 1861 0008 08       		.uleb128 0x8
 1862 0009 11       		.uleb128 0x11
 1863 000a 01       		.uleb128 0x1
 1864 000b 12       		.uleb128 0x12
 1865 000c 06       		.uleb128 0x6
 1866 000d 10       		.uleb128 0x10
 1867 000e 17       		.uleb128 0x17
 1868 000f 9942     		.uleb128 0x2119
 1869 0011 17       		.uleb128 0x17
 1870 0012 00       		.byte	0
 1871 0013 00       		.byte	0
 1872 0014 02       		.uleb128 0x2
 1873 0015 16       		.uleb128 0x16
 1874 0016 00       		.byte	0
 1875 0017 03       		.uleb128 0x3
 1876 0018 08       		.uleb128 0x8
 1877 0019 3A       		.uleb128 0x3a
 1878 001a 0B       		.uleb128 0xb
 1879 001b 3B       		.uleb128 0x3b
 1880 001c 0B       		.uleb128 0xb
 1881 001d 49       		.uleb128 0x49
 1882 001e 13       		.uleb128 0x13
 1883 001f 00       		.byte	0
 1884 0020 00       		.byte	0
 1885 0021 03       		.uleb128 0x3
 1886 0022 24       		.uleb128 0x24
 1887 0023 00       		.byte	0
 1888 0024 0B       		.uleb128 0xb
 1889 0025 0B       		.uleb128 0xb
 1890 0026 3E       		.uleb128 0x3e
 1891 0027 0B       		.uleb128 0xb
 1892 0028 03       		.uleb128 0x3
 1893 0029 08       		.uleb128 0x8
 1894 002a 00       		.byte	0
 1895 002b 00       		.byte	0
 1896 002c 04       		.uleb128 0x4
 1897 002d 04       		.uleb128 0x4
 1898 002e 01       		.byte	0x1
 1899 002f 03       		.uleb128 0x3
 1900 0030 08       		.uleb128 0x8
 1901 0031 0B       		.uleb128 0xb
 1902 0032 0B       		.uleb128 0xb
 1903 0033 3A       		.uleb128 0x3a
 1904 0034 0B       		.uleb128 0xb
 1905 0035 3B       		.uleb128 0x3b
GAS LISTING C:\Users\PRESID~1\AppData\Local\Temp\ccblGL8o.s 			page 54


 1906 0036 0B       		.uleb128 0xb
 1907 0037 01       		.uleb128 0x1
 1908 0038 13       		.uleb128 0x13
 1909 0039 00       		.byte	0
 1910 003a 00       		.byte	0
 1911 003b 05       		.uleb128 0x5
 1912 003c 28       		.uleb128 0x28
 1913 003d 00       		.byte	0
 1914 003e 03       		.uleb128 0x3
 1915 003f 08       		.uleb128 0x8
 1916 0040 1C       		.uleb128 0x1c
 1917 0041 0D       		.uleb128 0xd
 1918 0042 00       		.byte	0
 1919 0043 00       		.byte	0
 1920 0044 06       		.uleb128 0x6
 1921 0045 0F       		.uleb128 0xf
 1922 0046 00       		.byte	0
 1923 0047 0B       		.uleb128 0xb
 1924 0048 0B       		.uleb128 0xb
 1925 0049 49       		.uleb128 0x49
 1926 004a 13       		.uleb128 0x13
 1927 004b 00       		.byte	0
 1928 004c 00       		.byte	0
 1929 004d 07       		.uleb128 0x7
 1930 004e 15       		.uleb128 0x15
 1931 004f 01       		.byte	0x1
 1932 0050 27       		.uleb128 0x27
 1933 0051 19       		.uleb128 0x19
 1934 0052 01       		.uleb128 0x1
 1935 0053 13       		.uleb128 0x13
 1936 0054 00       		.byte	0
 1937 0055 00       		.byte	0
 1938 0056 08       		.uleb128 0x8
 1939 0057 05       		.uleb128 0x5
 1940 0058 00       		.byte	0
 1941 0059 49       		.uleb128 0x49
 1942 005a 13       		.uleb128 0x13
 1943 005b 00       		.byte	0
 1944 005c 00       		.byte	0
 1945 005d 09       		.uleb128 0x9
 1946 005e 0F       		.uleb128 0xf
 1947 005f 00       		.byte	0
 1948 0060 0B       		.uleb128 0xb
 1949 0061 0B       		.uleb128 0xb
 1950 0062 00       		.byte	0
 1951 0063 00       		.byte	0
 1952 0064 0A       		.uleb128 0xa
 1953 0065 15       		.uleb128 0x15
 1954 0066 01       		.byte	0x1
 1955 0067 27       		.uleb128 0x27
 1956 0068 19       		.uleb128 0x19
 1957 0069 49       		.uleb128 0x49
 1958 006a 13       		.uleb128 0x13
 1959 006b 01       		.uleb128 0x1
 1960 006c 13       		.uleb128 0x13
 1961 006d 00       		.byte	0
 1962 006e 00       		.byte	0
GAS LISTING C:\Users\PRESID~1\AppData\Local\Temp\ccblGL8o.s 			page 55


 1963 006f 0B       		.uleb128 0xb
 1964 0070 13       		.uleb128 0x13
 1965 0071 01       		.byte	0x1
 1966 0072 03       		.uleb128 0x3
 1967 0073 08       		.uleb128 0x8
 1968 0074 0B       		.uleb128 0xb
 1969 0075 0B       		.uleb128 0xb
 1970 0076 3A       		.uleb128 0x3a
 1971 0077 0B       		.uleb128 0xb
 1972 0078 3B       		.uleb128 0x3b
 1973 0079 0B       		.uleb128 0xb
 1974 007a 01       		.uleb128 0x1
 1975 007b 13       		.uleb128 0x13
 1976 007c 00       		.byte	0
 1977 007d 00       		.byte	0
 1978 007e 0C       		.uleb128 0xc
 1979 007f 0D       		.uleb128 0xd
 1980 0080 00       		.byte	0
 1981 0081 03       		.uleb128 0x3
 1982 0082 0E       		.uleb128 0xe
 1983 0083 3A       		.uleb128 0x3a
 1984 0084 0B       		.uleb128 0xb
 1985 0085 3B       		.uleb128 0x3b
 1986 0086 0B       		.uleb128 0xb
 1987 0087 49       		.uleb128 0x49
 1988 0088 13       		.uleb128 0x13
 1989 0089 38       		.uleb128 0x38
 1990 008a 0B       		.uleb128 0xb
 1991 008b 00       		.byte	0
 1992 008c 00       		.byte	0
 1993 008d 0D       		.uleb128 0xd
 1994 008e 0D       		.uleb128 0xd
 1995 008f 00       		.byte	0
 1996 0090 03       		.uleb128 0x3
 1997 0091 08       		.uleb128 0x8
 1998 0092 3A       		.uleb128 0x3a
 1999 0093 0B       		.uleb128 0xb
 2000 0094 3B       		.uleb128 0x3b
 2001 0095 0B       		.uleb128 0xb
 2002 0096 49       		.uleb128 0x49
 2003 0097 13       		.uleb128 0x13
 2004 0098 38       		.uleb128 0x38
 2005 0099 0B       		.uleb128 0xb
 2006 009a 00       		.byte	0
 2007 009b 00       		.byte	0
 2008 009c 0E       		.uleb128 0xe
 2009 009d 0D       		.uleb128 0xd
 2010 009e 00       		.byte	0
 2011 009f 03       		.uleb128 0x3
 2012 00a0 08       		.uleb128 0x8
 2013 00a1 3A       		.uleb128 0x3a
 2014 00a2 0B       		.uleb128 0xb
 2015 00a3 3B       		.uleb128 0x3b
 2016 00a4 0B       		.uleb128 0xb
 2017 00a5 49       		.uleb128 0x49
 2018 00a6 13       		.uleb128 0x13
 2019 00a7 0B       		.uleb128 0xb
GAS LISTING C:\Users\PRESID~1\AppData\Local\Temp\ccblGL8o.s 			page 56


 2020 00a8 0B       		.uleb128 0xb
 2021 00a9 0D       		.uleb128 0xd
 2022 00aa 0B       		.uleb128 0xb
 2023 00ab 0C       		.uleb128 0xc
 2024 00ac 0B       		.uleb128 0xb
 2025 00ad 38       		.uleb128 0x38
 2026 00ae 0B       		.uleb128 0xb
 2027 00af 00       		.byte	0
 2028 00b0 00       		.byte	0
 2029 00b1 0F       		.uleb128 0xf
 2030 00b2 2E       		.uleb128 0x2e
 2031 00b3 00       		.byte	0
 2032 00b4 3F       		.uleb128 0x3f
 2033 00b5 19       		.uleb128 0x19
 2034 00b6 03       		.uleb128 0x3
 2035 00b7 08       		.uleb128 0x8
 2036 00b8 3A       		.uleb128 0x3a
 2037 00b9 0B       		.uleb128 0xb
 2038 00ba 3B       		.uleb128 0x3b
 2039 00bb 0B       		.uleb128 0xb
 2040 00bc 27       		.uleb128 0x27
 2041 00bd 19       		.uleb128 0x19
 2042 00be 11       		.uleb128 0x11
 2043 00bf 01       		.uleb128 0x1
 2044 00c0 12       		.uleb128 0x12
 2045 00c1 06       		.uleb128 0x6
 2046 00c2 40       		.uleb128 0x40
 2047 00c3 18       		.uleb128 0x18
 2048 00c4 9742     		.uleb128 0x2117
 2049 00c6 19       		.uleb128 0x19
 2050 00c7 00       		.byte	0
 2051 00c8 00       		.byte	0
 2052 00c9 10       		.uleb128 0x10
 2053 00ca 2E       		.uleb128 0x2e
 2054 00cb 01       		.byte	0x1
 2055 00cc 3F       		.uleb128 0x3f
 2056 00cd 19       		.uleb128 0x19
 2057 00ce 03       		.uleb128 0x3
 2058 00cf 08       		.uleb128 0x8
 2059 00d0 3A       		.uleb128 0x3a
 2060 00d1 0B       		.uleb128 0xb
 2061 00d2 3B       		.uleb128 0x3b
 2062 00d3 0B       		.uleb128 0xb
 2063 00d4 27       		.uleb128 0x27
 2064 00d5 19       		.uleb128 0x19
 2065 00d6 11       		.uleb128 0x11
 2066 00d7 01       		.uleb128 0x1
 2067 00d8 12       		.uleb128 0x12
 2068 00d9 06       		.uleb128 0x6
 2069 00da 40       		.uleb128 0x40
 2070 00db 18       		.uleb128 0x18
 2071 00dc 9642     		.uleb128 0x2116
 2072 00de 19       		.uleb128 0x19
 2073 00df 01       		.uleb128 0x1
 2074 00e0 13       		.uleb128 0x13
 2075 00e1 00       		.byte	0
 2076 00e2 00       		.byte	0
GAS LISTING C:\Users\PRESID~1\AppData\Local\Temp\ccblGL8o.s 			page 57


 2077 00e3 11       		.uleb128 0x11
 2078 00e4 05       		.uleb128 0x5
 2079 00e5 00       		.byte	0
 2080 00e6 03       		.uleb128 0x3
 2081 00e7 0E       		.uleb128 0xe
 2082 00e8 3A       		.uleb128 0x3a
 2083 00e9 0B       		.uleb128 0xb
 2084 00ea 3B       		.uleb128 0x3b
 2085 00eb 0B       		.uleb128 0xb
 2086 00ec 49       		.uleb128 0x49
 2087 00ed 13       		.uleb128 0x13
 2088 00ee 02       		.uleb128 0x2
 2089 00ef 18       		.uleb128 0x18
 2090 00f0 00       		.byte	0
 2091 00f1 00       		.byte	0
 2092 00f2 12       		.uleb128 0x12
 2093 00f3 05       		.uleb128 0x5
 2094 00f4 00       		.byte	0
 2095 00f5 03       		.uleb128 0x3
 2096 00f6 08       		.uleb128 0x8
 2097 00f7 3A       		.uleb128 0x3a
 2098 00f8 0B       		.uleb128 0xb
 2099 00f9 3B       		.uleb128 0x3b
 2100 00fa 0B       		.uleb128 0xb
 2101 00fb 49       		.uleb128 0x49
 2102 00fc 13       		.uleb128 0x13
 2103 00fd 02       		.uleb128 0x2
 2104 00fe 18       		.uleb128 0x18
 2105 00ff 00       		.byte	0
 2106 0100 00       		.byte	0
 2107 0101 13       		.uleb128 0x13
 2108 0102 2E       		.uleb128 0x2e
 2109 0103 01       		.byte	0x1
 2110 0104 3F       		.uleb128 0x3f
 2111 0105 19       		.uleb128 0x19
 2112 0106 03       		.uleb128 0x3
 2113 0107 08       		.uleb128 0x8
 2114 0108 3A       		.uleb128 0x3a
 2115 0109 0B       		.uleb128 0xb
 2116 010a 3B       		.uleb128 0x3b
 2117 010b 0B       		.uleb128 0xb
 2118 010c 27       		.uleb128 0x27
 2119 010d 19       		.uleb128 0x19
 2120 010e 49       		.uleb128 0x49
 2121 010f 13       		.uleb128 0x13
 2122 0110 11       		.uleb128 0x11
 2123 0111 01       		.uleb128 0x1
 2124 0112 12       		.uleb128 0x12
 2125 0113 06       		.uleb128 0x6
 2126 0114 40       		.uleb128 0x40
 2127 0115 18       		.uleb128 0x18
 2128 0116 9642     		.uleb128 0x2116
 2129 0118 19       		.uleb128 0x19
 2130 0119 01       		.uleb128 0x1
 2131 011a 13       		.uleb128 0x13
 2132 011b 00       		.byte	0
 2133 011c 00       		.byte	0
GAS LISTING C:\Users\PRESID~1\AppData\Local\Temp\ccblGL8o.s 			page 58


 2134 011d 14       		.uleb128 0x14
 2135 011e 34       		.uleb128 0x34
 2136 011f 00       		.byte	0
 2137 0120 03       		.uleb128 0x3
 2138 0121 08       		.uleb128 0x8
 2139 0122 3A       		.uleb128 0x3a
 2140 0123 0B       		.uleb128 0xb
 2141 0124 3B       		.uleb128 0x3b
 2142 0125 0B       		.uleb128 0xb
 2143 0126 49       		.uleb128 0x49
 2144 0127 13       		.uleb128 0x13
 2145 0128 02       		.uleb128 0x2
 2146 0129 18       		.uleb128 0x18
 2147 012a 00       		.byte	0
 2148 012b 00       		.byte	0
 2149 012c 15       		.uleb128 0x15
 2150 012d 34       		.uleb128 0x34
 2151 012e 00       		.byte	0
 2152 012f 03       		.uleb128 0x3
 2153 0130 0E       		.uleb128 0xe
 2154 0131 3A       		.uleb128 0x3a
 2155 0132 0B       		.uleb128 0xb
 2156 0133 3B       		.uleb128 0x3b
 2157 0134 0B       		.uleb128 0xb
 2158 0135 49       		.uleb128 0x49
 2159 0136 13       		.uleb128 0x13
 2160 0137 02       		.uleb128 0x2
 2161 0138 18       		.uleb128 0x18
 2162 0139 00       		.byte	0
 2163 013a 00       		.byte	0
 2164 013b 16       		.uleb128 0x16
 2165 013c 2E       		.uleb128 0x2e
 2166 013d 01       		.byte	0x1
 2167 013e 03       		.uleb128 0x3
 2168 013f 08       		.uleb128 0x8
 2169 0140 3A       		.uleb128 0x3a
 2170 0141 0B       		.uleb128 0xb
 2171 0142 3B       		.uleb128 0x3b
 2172 0143 0B       		.uleb128 0xb
 2173 0144 27       		.uleb128 0x27
 2174 0145 19       		.uleb128 0x19
 2175 0146 11       		.uleb128 0x11
 2176 0147 01       		.uleb128 0x1
 2177 0148 12       		.uleb128 0x12
 2178 0149 06       		.uleb128 0x6
 2179 014a 40       		.uleb128 0x40
 2180 014b 18       		.uleb128 0x18
 2181 014c 9642     		.uleb128 0x2116
 2182 014e 19       		.uleb128 0x19
 2183 014f 01       		.uleb128 0x1
 2184 0150 13       		.uleb128 0x13
 2185 0151 00       		.byte	0
 2186 0152 00       		.byte	0
 2187 0153 17       		.uleb128 0x17
 2188 0154 2E       		.uleb128 0x2e
 2189 0155 01       		.byte	0x1
 2190 0156 3F       		.uleb128 0x3f
GAS LISTING C:\Users\PRESID~1\AppData\Local\Temp\ccblGL8o.s 			page 59


 2191 0157 19       		.uleb128 0x19
 2192 0158 03       		.uleb128 0x3
 2193 0159 08       		.uleb128 0x8
 2194 015a 3A       		.uleb128 0x3a
 2195 015b 0B       		.uleb128 0xb
 2196 015c 3B       		.uleb128 0x3b
 2197 015d 05       		.uleb128 0x5
 2198 015e 27       		.uleb128 0x27
 2199 015f 19       		.uleb128 0x19
 2200 0160 11       		.uleb128 0x11
 2201 0161 01       		.uleb128 0x1
 2202 0162 12       		.uleb128 0x12
 2203 0163 06       		.uleb128 0x6
 2204 0164 40       		.uleb128 0x40
 2205 0165 18       		.uleb128 0x18
 2206 0166 9642     		.uleb128 0x2116
 2207 0168 19       		.uleb128 0x19
 2208 0169 01       		.uleb128 0x1
 2209 016a 13       		.uleb128 0x13
 2210 016b 00       		.byte	0
 2211 016c 00       		.byte	0
 2212 016d 18       		.uleb128 0x18
 2213 016e 05       		.uleb128 0x5
 2214 016f 00       		.byte	0
 2215 0170 03       		.uleb128 0x3
 2216 0171 0E       		.uleb128 0xe
 2217 0172 3A       		.uleb128 0x3a
 2218 0173 0B       		.uleb128 0xb
 2219 0174 3B       		.uleb128 0x3b
 2220 0175 05       		.uleb128 0x5
 2221 0176 49       		.uleb128 0x49
 2222 0177 13       		.uleb128 0x13
 2223 0178 02       		.uleb128 0x2
 2224 0179 18       		.uleb128 0x18
 2225 017a 00       		.byte	0
 2226 017b 00       		.byte	0
 2227 017c 19       		.uleb128 0x19
 2228 017d 34       		.uleb128 0x34
 2229 017e 00       		.byte	0
 2230 017f 03       		.uleb128 0x3
 2231 0180 0E       		.uleb128 0xe
 2232 0181 3A       		.uleb128 0x3a
 2233 0182 0B       		.uleb128 0xb
 2234 0183 3B       		.uleb128 0x3b
 2235 0184 05       		.uleb128 0x5
 2236 0185 49       		.uleb128 0x49
 2237 0186 13       		.uleb128 0x13
 2238 0187 02       		.uleb128 0x2
 2239 0188 18       		.uleb128 0x18
 2240 0189 00       		.byte	0
 2241 018a 00       		.byte	0
 2242 018b 1A       		.uleb128 0x1a
 2243 018c 2E       		.uleb128 0x2e
 2244 018d 01       		.byte	0x1
 2245 018e 03       		.uleb128 0x3
 2246 018f 08       		.uleb128 0x8
 2247 0190 3A       		.uleb128 0x3a
GAS LISTING C:\Users\PRESID~1\AppData\Local\Temp\ccblGL8o.s 			page 60


 2248 0191 0B       		.uleb128 0xb
 2249 0192 3B       		.uleb128 0x3b
 2250 0193 05       		.uleb128 0x5
 2251 0194 27       		.uleb128 0x27
 2252 0195 19       		.uleb128 0x19
 2253 0196 11       		.uleb128 0x11
 2254 0197 01       		.uleb128 0x1
 2255 0198 12       		.uleb128 0x12
 2256 0199 06       		.uleb128 0x6
 2257 019a 40       		.uleb128 0x40
 2258 019b 18       		.uleb128 0x18
 2259 019c 9742     		.uleb128 0x2117
 2260 019e 19       		.uleb128 0x19
 2261 019f 01       		.uleb128 0x1
 2262 01a0 13       		.uleb128 0x13
 2263 01a1 00       		.byte	0
 2264 01a2 00       		.byte	0
 2265 01a3 1B       		.uleb128 0x1b
 2266 01a4 2E       		.uleb128 0x2e
 2267 01a5 01       		.byte	0x1
 2268 01a6 03       		.uleb128 0x3
 2269 01a7 08       		.uleb128 0x8
 2270 01a8 3A       		.uleb128 0x3a
 2271 01a9 0B       		.uleb128 0xb
 2272 01aa 3B       		.uleb128 0x3b
 2273 01ab 05       		.uleb128 0x5
 2274 01ac 27       		.uleb128 0x27
 2275 01ad 19       		.uleb128 0x19
 2276 01ae 11       		.uleb128 0x11
 2277 01af 01       		.uleb128 0x1
 2278 01b0 12       		.uleb128 0x12
 2279 01b1 06       		.uleb128 0x6
 2280 01b2 40       		.uleb128 0x40
 2281 01b3 18       		.uleb128 0x18
 2282 01b4 9642     		.uleb128 0x2116
 2283 01b6 19       		.uleb128 0x19
 2284 01b7 01       		.uleb128 0x1
 2285 01b8 13       		.uleb128 0x13
 2286 01b9 00       		.byte	0
 2287 01ba 00       		.byte	0
 2288 01bb 1C       		.uleb128 0x1c
 2289 01bc 34       		.uleb128 0x34
 2290 01bd 00       		.byte	0
 2291 01be 03       		.uleb128 0x3
 2292 01bf 08       		.uleb128 0x8
 2293 01c0 3A       		.uleb128 0x3a
 2294 01c1 0B       		.uleb128 0xb
 2295 01c2 3B       		.uleb128 0x3b
 2296 01c3 05       		.uleb128 0x5
 2297 01c4 49       		.uleb128 0x49
 2298 01c5 13       		.uleb128 0x13
 2299 01c6 02       		.uleb128 0x2
 2300 01c7 18       		.uleb128 0x18
 2301 01c8 00       		.byte	0
 2302 01c9 00       		.byte	0
 2303 01ca 1D       		.uleb128 0x1d
 2304 01cb 2E       		.uleb128 0x2e
GAS LISTING C:\Users\PRESID~1\AppData\Local\Temp\ccblGL8o.s 			page 61


 2305 01cc 01       		.byte	0x1
 2306 01cd 03       		.uleb128 0x3
 2307 01ce 08       		.uleb128 0x8
 2308 01cf 3A       		.uleb128 0x3a
 2309 01d0 0B       		.uleb128 0xb
 2310 01d1 3B       		.uleb128 0x3b
 2311 01d2 05       		.uleb128 0x5
 2312 01d3 27       		.uleb128 0x27
 2313 01d4 19       		.uleb128 0x19
 2314 01d5 49       		.uleb128 0x49
 2315 01d6 13       		.uleb128 0x13
 2316 01d7 11       		.uleb128 0x11
 2317 01d8 01       		.uleb128 0x1
 2318 01d9 12       		.uleb128 0x12
 2319 01da 06       		.uleb128 0x6
 2320 01db 40       		.uleb128 0x40
 2321 01dc 18       		.uleb128 0x18
 2322 01dd 9642     		.uleb128 0x2116
 2323 01df 19       		.uleb128 0x19
 2324 01e0 01       		.uleb128 0x1
 2325 01e1 13       		.uleb128 0x13
 2326 01e2 00       		.byte	0
 2327 01e3 00       		.byte	0
 2328 01e4 1E       		.uleb128 0x1e
 2329 01e5 2E       		.uleb128 0x2e
 2330 01e6 00       		.byte	0
 2331 01e7 3F       		.uleb128 0x3f
 2332 01e8 19       		.uleb128 0x19
 2333 01e9 03       		.uleb128 0x3
 2334 01ea 08       		.uleb128 0x8
 2335 01eb 3A       		.uleb128 0x3a
 2336 01ec 0B       		.uleb128 0xb
 2337 01ed 3B       		.uleb128 0x3b
 2338 01ee 05       		.uleb128 0x5
 2339 01ef 27       		.uleb128 0x27
 2340 01f0 19       		.uleb128 0x19
 2341 01f1 11       		.uleb128 0x11
 2342 01f2 01       		.uleb128 0x1
 2343 01f3 12       		.uleb128 0x12
 2344 01f4 06       		.uleb128 0x6
 2345 01f5 40       		.uleb128 0x40
 2346 01f6 18       		.uleb128 0x18
 2347 01f7 9642     		.uleb128 0x2116
 2348 01f9 19       		.uleb128 0x19
 2349 01fa 00       		.byte	0
 2350 01fb 00       		.byte	0
 2351 01fc 1F       		.uleb128 0x1f
 2352 01fd 01       		.uleb128 0x1
 2353 01fe 01       		.byte	0x1
 2354 01ff 49       		.uleb128 0x49
 2355 0200 13       		.uleb128 0x13
 2356 0201 01       		.uleb128 0x1
 2357 0202 13       		.uleb128 0x13
 2358 0203 00       		.byte	0
 2359 0204 00       		.byte	0
 2360 0205 20       		.uleb128 0x20
 2361 0206 21       		.uleb128 0x21
GAS LISTING C:\Users\PRESID~1\AppData\Local\Temp\ccblGL8o.s 			page 62


 2362 0207 00       		.byte	0
 2363 0208 49       		.uleb128 0x49
 2364 0209 13       		.uleb128 0x13
 2365 020a 2F       		.uleb128 0x2f
 2366 020b 0B       		.uleb128 0xb
 2367 020c 00       		.byte	0
 2368 020d 00       		.byte	0
 2369 020e 21       		.uleb128 0x21
 2370 020f 34       		.uleb128 0x34
 2371 0210 00       		.byte	0
 2372 0211 03       		.uleb128 0x3
 2373 0212 08       		.uleb128 0x8
 2374 0213 3A       		.uleb128 0x3a
 2375 0214 0B       		.uleb128 0xb
 2376 0215 3B       		.uleb128 0x3b
 2377 0216 0B       		.uleb128 0xb
 2378 0217 49       		.uleb128 0x49
 2379 0218 13       		.uleb128 0x13
 2380 0219 3F       		.uleb128 0x3f
 2381 021a 19       		.uleb128 0x19
 2382 021b 3C       		.uleb128 0x3c
 2383 021c 19       		.uleb128 0x19
 2384 021d 00       		.byte	0
 2385 021e 00       		.byte	0
 2386 021f 22       		.uleb128 0x22
 2387 0220 35       		.uleb128 0x35
 2388 0221 00       		.byte	0
 2389 0222 49       		.uleb128 0x49
 2390 0223 13       		.uleb128 0x13
 2391 0224 00       		.byte	0
 2392 0225 00       		.byte	0
 2393 0226 00       		.byte	0
 2394              		.section	.debug_aranges,"dr"
 2395 0000 1C000000 		.long	0x1c
 2396 0004 0200     		.word	0x2
 2397 0006 00000000 		.secrel32	Ldebug_info0
 2398 000a 04       		.byte	0x4
 2399 000b 00       		.byte	0
 2400 000c 0000     		.word	0
 2401 000e 0000     		.word	0
 2402 0010 00000000 		.long	Ltext0
 2403 0014 B7070000 		.long	Letext0-Ltext0
 2404 0018 00000000 		.long	0
 2405 001c 00000000 		.long	0
 2406              		.section	.debug_macro,"dr"
 2407              	Ldebug_macro0:
 2408 0000 0400     		.word	0x4
 2409 0002 02       		.byte	0x2
 2410 0003 00000000 		.secrel32	Ldebug_line0
 2411 0007 01       		.byte	0x1
 2412 0008 00       		.uleb128 0
 2413 0009 5F5F5354 		.ascii "__STDC__ 1\0"
 2413      44435F5F 
 2413      203100
 2414 0014 01       		.byte	0x1
 2415 0015 00       		.uleb128 0
 2416 0016 5F5F5354 		.ascii "__STDC_HOSTED__ 1\0"
GAS LISTING C:\Users\PRESID~1\AppData\Local\Temp\ccblGL8o.s 			page 63


 2416      44435F48 
 2416      4F535445 
 2416      445F5F20 
 2416      3100
 2417 0028 01       		.byte	0x1
 2418 0029 00       		.uleb128 0
 2419 002a 5F5F474E 		.ascii "__GNUC__ 4\0"
 2419      55435F5F 
 2419      203400
 2420 0035 01       		.byte	0x1
 2421 0036 00       		.uleb128 0
 2422 0037 5F5F474E 		.ascii "__GNUC_MINOR__ 9\0"
 2422      55435F4D 
 2422      494E4F52 
 2422      5F5F2039 
 2422      00
 2423 0048 01       		.byte	0x1
 2424 0049 00       		.uleb128 0
 2425 004a 5F5F474E 		.ascii "__GNUC_PATCHLEVEL__ 3\0"
 2425      55435F50 
 2425      41544348 
 2425      4C455645 
 2425      4C5F5F20 
 2426 0060 01       		.byte	0x1
 2427 0061 00       		.uleb128 0
 2428 0062 5F5F5645 		.ascii "__VERSION__ \"4.9.3\"\0"
 2428      5253494F 
 2428      4E5F5F20 
 2428      22342E39 
 2428      2E332200 
 2429 0076 01       		.byte	0x1
 2430 0077 00       		.uleb128 0
 2431 0078 5F5F4154 		.ascii "__ATOMIC_RELAXED 0\0"
 2431      4F4D4943 
 2431      5F52454C 
 2431      41584544 
 2431      203000
 2432 008b 01       		.byte	0x1
 2433 008c 00       		.uleb128 0
 2434 008d 5F5F4154 		.ascii "__ATOMIC_SEQ_CST 5\0"
 2434      4F4D4943 
 2434      5F534551 
 2434      5F435354 
 2434      203500
 2435 00a0 01       		.byte	0x1
 2436 00a1 00       		.uleb128 0
 2437 00a2 5F5F4154 		.ascii "__ATOMIC_ACQUIRE 2\0"
 2437      4F4D4943 
 2437      5F414351 
 2437      55495245 
 2437      203200
 2438 00b5 01       		.byte	0x1
 2439 00b6 00       		.uleb128 0
 2440 00b7 5F5F4154 		.ascii "__ATOMIC_RELEASE 3\0"
 2440      4F4D4943 
 2440      5F52454C 
 2440      45415345 
GAS LISTING C:\Users\PRESID~1\AppData\Local\Temp\ccblGL8o.s 			page 64


 2440      203300
 2441 00ca 01       		.byte	0x1
 2442 00cb 00       		.uleb128 0
 2443 00cc 5F5F4154 		.ascii "__ATOMIC_ACQ_REL 4\0"
 2443      4F4D4943 
 2443      5F414351 
 2443      5F52454C 
 2443      203400
 2444 00df 01       		.byte	0x1
 2445 00e0 00       		.uleb128 0
 2446 00e1 5F5F4154 		.ascii "__ATOMIC_CONSUME 1\0"
 2446      4F4D4943 
 2446      5F434F4E 
 2446      53554D45 
 2446      203100
 2447 00f4 01       		.byte	0x1
 2448 00f5 00       		.uleb128 0
 2449 00f6 5F5F4649 		.ascii "__FINITE_MATH_ONLY__ 0\0"
 2449      4E495445 
 2449      5F4D4154 
 2449      485F4F4E 
 2449      4C595F5F 
 2450 010d 01       		.byte	0x1
 2451 010e 00       		.uleb128 0
 2452 010f 5F5F5349 		.ascii "__SIZEOF_INT__ 4\0"
 2452      5A454F46 
 2452      5F494E54 
 2452      5F5F2034 
 2452      00
 2453 0120 01       		.byte	0x1
 2454 0121 00       		.uleb128 0
 2455 0122 5F5F5349 		.ascii "__SIZEOF_LONG__ 4\0"
 2455      5A454F46 
 2455      5F4C4F4E 
 2455      475F5F20 
 2455      3400
 2456 0134 01       		.byte	0x1
 2457 0135 00       		.uleb128 0
 2458 0136 5F5F5349 		.ascii "__SIZEOF_LONG_LONG__ 8\0"
 2458      5A454F46 
 2458      5F4C4F4E 
 2458      475F4C4F 
 2458      4E475F5F 
 2459 014d 01       		.byte	0x1
 2460 014e 00       		.uleb128 0
 2461 014f 5F5F5349 		.ascii "__SIZEOF_SHORT__ 2\0"
 2461      5A454F46 
 2461      5F53484F 
 2461      52545F5F 
 2461      203200
 2462 0162 01       		.byte	0x1
 2463 0163 00       		.uleb128 0
 2464 0164 5F5F5349 		.ascii "__SIZEOF_FLOAT__ 4\0"
 2464      5A454F46 
 2464      5F464C4F 
 2464      41545F5F 
 2464      203400
GAS LISTING C:\Users\PRESID~1\AppData\Local\Temp\ccblGL8o.s 			page 65


 2465 0177 01       		.byte	0x1
 2466 0178 00       		.uleb128 0
 2467 0179 5F5F5349 		.ascii "__SIZEOF_DOUBLE__ 8\0"
 2467      5A454F46 
 2467      5F444F55 
 2467      424C455F 
 2467      5F203800 
 2468 018d 01       		.byte	0x1
 2469 018e 00       		.uleb128 0
 2470 018f 5F5F5349 		.ascii "__SIZEOF_LONG_DOUBLE__ 12\0"
 2470      5A454F46 
 2470      5F4C4F4E 
 2470      475F444F 
 2470      55424C45 
 2471 01a9 01       		.byte	0x1
 2472 01aa 00       		.uleb128 0
 2473 01ab 5F5F5349 		.ascii "__SIZEOF_SIZE_T__ 4\0"
 2473      5A454F46 
 2473      5F53495A 
 2473      455F545F 
 2473      5F203400 
 2474 01bf 01       		.byte	0x1
 2475 01c0 00       		.uleb128 0
 2476 01c1 5F5F4348 		.ascii "__CHAR_BIT__ 8\0"
 2476      41525F42 
 2476      49545F5F 
 2476      203800
 2477 01d0 01       		.byte	0x1
 2478 01d1 00       		.uleb128 0
 2479 01d2 5F5F4249 		.ascii "__BIGGEST_ALIGNMENT__ 16\0"
 2479      47474553 
 2479      545F414C 
 2479      49474E4D 
 2479      454E545F 
 2480 01eb 01       		.byte	0x1
 2481 01ec 00       		.uleb128 0
 2482 01ed 5F5F4F52 		.ascii "__ORDER_LITTLE_ENDIAN__ 1234\0"
 2482      4445525F 
 2482      4C495454 
 2482      4C455F45 
 2482      4E444941 
 2483 020a 01       		.byte	0x1
 2484 020b 00       		.uleb128 0
 2485 020c 5F5F4F52 		.ascii "__ORDER_BIG_ENDIAN__ 4321\0"
 2485      4445525F 
 2485      4249475F 
 2485      454E4449 
 2485      414E5F5F 
 2486 0226 01       		.byte	0x1
 2487 0227 00       		.uleb128 0
 2488 0228 5F5F4F52 		.ascii "__ORDER_PDP_ENDIAN__ 3412\0"
 2488      4445525F 
 2488      5044505F 
 2488      454E4449 
 2488      414E5F5F 
 2489 0242 01       		.byte	0x1
 2490 0243 00       		.uleb128 0
GAS LISTING C:\Users\PRESID~1\AppData\Local\Temp\ccblGL8o.s 			page 66


 2491 0244 5F5F4259 		.ascii "__BYTE_ORDER__ __ORDER_LITTLE_ENDIAN__\0"
 2491      54455F4F 
 2491      52444552 
 2491      5F5F205F 
 2491      5F4F5244 
 2492 026b 01       		.byte	0x1
 2493 026c 00       		.uleb128 0
 2494 026d 5F5F464C 		.ascii "__FLOAT_WORD_ORDER__ __ORDER_LITTLE_ENDIAN__\0"
 2494      4F41545F 
 2494      574F5244 
 2494      5F4F5244 
 2494      45525F5F 
 2495 029a 01       		.byte	0x1
 2496 029b 00       		.uleb128 0
 2497 029c 5F5F5349 		.ascii "__SIZEOF_POINTER__ 4\0"
 2497      5A454F46 
 2497      5F504F49 
 2497      4E544552 
 2497      5F5F2034 
 2498 02b1 01       		.byte	0x1
 2499 02b2 00       		.uleb128 0
 2500 02b3 5F5F5349 		.ascii "__SIZE_TYPE__ unsigned int\0"
 2500      5A455F54 
 2500      5950455F 
 2500      5F20756E 
 2500      7369676E 
 2501 02ce 01       		.byte	0x1
 2502 02cf 00       		.uleb128 0
 2503 02d0 5F5F5054 		.ascii "__PTRDIFF_TYPE__ int\0"
 2503      52444946 
 2503      465F5459 
 2503      50455F5F 
 2503      20696E74 
 2504 02e5 01       		.byte	0x1
 2505 02e6 00       		.uleb128 0
 2506 02e7 5F5F5743 		.ascii "__WCHAR_TYPE__ short unsigned int\0"
 2506      4841525F 
 2506      54595045 
 2506      5F5F2073 
 2506      686F7274 
 2507 0309 01       		.byte	0x1
 2508 030a 00       		.uleb128 0
 2509 030b 5F5F5749 		.ascii "__WINT_TYPE__ short unsigned int\0"
 2509      4E545F54 
 2509      5950455F 
 2509      5F207368 
 2509      6F727420 
 2510 032c 01       		.byte	0x1
 2511 032d 00       		.uleb128 0
 2512 032e 5F5F494E 		.ascii "__INTMAX_TYPE__ long long int\0"
 2512      544D4158 
 2512      5F545950 
 2512      455F5F20 
 2512      6C6F6E67 
 2513 034c 01       		.byte	0x1
 2514 034d 00       		.uleb128 0
 2515 034e 5F5F5549 		.ascii "__UINTMAX_TYPE__ long long unsigned int\0"
GAS LISTING C:\Users\PRESID~1\AppData\Local\Temp\ccblGL8o.s 			page 67


 2515      4E544D41 
 2515      585F5459 
 2515      50455F5F 
 2515      206C6F6E 
 2516 0376 01       		.byte	0x1
 2517 0377 00       		.uleb128 0
 2518 0378 5F5F4348 		.ascii "__CHAR16_TYPE__ short unsigned int\0"
 2518      41523136 
 2518      5F545950 
 2518      455F5F20 
 2518      73686F72 
 2519 039b 01       		.byte	0x1
 2520 039c 00       		.uleb128 0
 2521 039d 5F5F4348 		.ascii "__CHAR32_TYPE__ unsigned int\0"
 2521      41523332 
 2521      5F545950 
 2521      455F5F20 
 2521      756E7369 
 2522 03ba 01       		.byte	0x1
 2523 03bb 00       		.uleb128 0
 2524 03bc 5F5F5349 		.ascii "__SIG_ATOMIC_TYPE__ int\0"
 2524      475F4154 
 2524      4F4D4943 
 2524      5F545950 
 2524      455F5F20 
 2525 03d4 01       		.byte	0x1
 2526 03d5 00       		.uleb128 0
 2527 03d6 5F5F494E 		.ascii "__INT8_TYPE__ signed char\0"
 2527      54385F54 
 2527      5950455F 
 2527      5F207369 
 2527      676E6564 
 2528 03f0 01       		.byte	0x1
 2529 03f1 00       		.uleb128 0
 2530 03f2 5F5F494E 		.ascii "__INT16_TYPE__ short int\0"
 2530      5431365F 
 2530      54595045 
 2530      5F5F2073 
 2530      686F7274 
 2531 040b 01       		.byte	0x1
 2532 040c 00       		.uleb128 0
 2533 040d 5F5F494E 		.ascii "__INT32_TYPE__ int\0"
 2533      5433325F 
 2533      54595045 
 2533      5F5F2069 
 2533      6E7400
 2534 0420 01       		.byte	0x1
 2535 0421 00       		.uleb128 0
 2536 0422 5F5F494E 		.ascii "__INT64_TYPE__ long long int\0"
 2536      5436345F 
 2536      54595045 
 2536      5F5F206C 
 2536      6F6E6720 
 2537 043f 01       		.byte	0x1
 2538 0440 00       		.uleb128 0
 2539 0441 5F5F5549 		.ascii "__UINT8_TYPE__ unsigned char\0"
 2539      4E54385F 
GAS LISTING C:\Users\PRESID~1\AppData\Local\Temp\ccblGL8o.s 			page 68


 2539      54595045 
 2539      5F5F2075 
 2539      6E736967 
 2540 045e 01       		.byte	0x1
 2541 045f 00       		.uleb128 0
 2542 0460 5F5F5549 		.ascii "__UINT16_TYPE__ short unsigned int\0"
 2542      4E543136 
 2542      5F545950 
 2542      455F5F20 
 2542      73686F72 
 2543 0483 01       		.byte	0x1
 2544 0484 00       		.uleb128 0
 2545 0485 5F5F5549 		.ascii "__UINT32_TYPE__ unsigned int\0"
 2545      4E543332 
 2545      5F545950 
 2545      455F5F20 
 2545      756E7369 
 2546 04a2 01       		.byte	0x1
 2547 04a3 00       		.uleb128 0
 2548 04a4 5F5F5549 		.ascii "__UINT64_TYPE__ long long unsigned int\0"
 2548      4E543634 
 2548      5F545950 
 2548      455F5F20 
 2548      6C6F6E67 
 2549 04cb 01       		.byte	0x1
 2550 04cc 00       		.uleb128 0
 2551 04cd 5F5F494E 		.ascii "__INT_LEAST8_TYPE__ signed char\0"
 2551      545F4C45 
 2551      41535438 
 2551      5F545950 
 2551      455F5F20 
 2552 04ed 01       		.byte	0x1
 2553 04ee 00       		.uleb128 0
 2554 04ef 5F5F494E 		.ascii "__INT_LEAST16_TYPE__ short int\0"
 2554      545F4C45 
 2554      41535431 
 2554      365F5459 
 2554      50455F5F 
 2555 050e 01       		.byte	0x1
 2556 050f 00       		.uleb128 0
 2557 0510 5F5F494E 		.ascii "__INT_LEAST32_TYPE__ int\0"
 2557      545F4C45 
 2557      41535433 
 2557      325F5459 
 2557      50455F5F 
 2558 0529 01       		.byte	0x1
 2559 052a 00       		.uleb128 0
 2560 052b 5F5F494E 		.ascii "__INT_LEAST64_TYPE__ long long int\0"
 2560      545F4C45 
 2560      41535436 
 2560      345F5459 
 2560      50455F5F 
 2561 054e 01       		.byte	0x1
 2562 054f 00       		.uleb128 0
 2563 0550 5F5F5549 		.ascii "__UINT_LEAST8_TYPE__ unsigned char\0"
 2563      4E545F4C 
 2563      45415354 
GAS LISTING C:\Users\PRESID~1\AppData\Local\Temp\ccblGL8o.s 			page 69


 2563      385F5459 
 2563      50455F5F 
 2564 0573 01       		.byte	0x1
 2565 0574 00       		.uleb128 0
 2566 0575 5F5F5549 		.ascii "__UINT_LEAST16_TYPE__ short unsigned int\0"
 2566      4E545F4C 
 2566      45415354 
 2566      31365F54 
 2566      5950455F 
 2567 059e 01       		.byte	0x1
 2568 059f 00       		.uleb128 0
 2569 05a0 5F5F5549 		.ascii "__UINT_LEAST32_TYPE__ unsigned int\0"
 2569      4E545F4C 
 2569      45415354 
 2569      33325F54 
 2569      5950455F 
 2570 05c3 01       		.byte	0x1
 2571 05c4 00       		.uleb128 0
 2572 05c5 5F5F5549 		.ascii "__UINT_LEAST64_TYPE__ long long unsigned int\0"
 2572      4E545F4C 
 2572      45415354 
 2572      36345F54 
 2572      5950455F 
 2573 05f2 01       		.byte	0x1
 2574 05f3 00       		.uleb128 0
 2575 05f4 5F5F494E 		.ascii "__INT_FAST8_TYPE__ signed char\0"
 2575      545F4641 
 2575      5354385F 
 2575      54595045 
 2575      5F5F2073 
 2576 0613 01       		.byte	0x1
 2577 0614 00       		.uleb128 0
 2578 0615 5F5F494E 		.ascii "__INT_FAST16_TYPE__ short int\0"
 2578      545F4641 
 2578      53543136 
 2578      5F545950 
 2578      455F5F20 
 2579 0633 01       		.byte	0x1
 2580 0634 00       		.uleb128 0
 2581 0635 5F5F494E 		.ascii "__INT_FAST32_TYPE__ int\0"
 2581      545F4641 
 2581      53543332 
 2581      5F545950 
 2581      455F5F20 
 2582 064d 01       		.byte	0x1
 2583 064e 00       		.uleb128 0
 2584 064f 5F5F494E 		.ascii "__INT_FAST64_TYPE__ long long int\0"
 2584      545F4641 
 2584      53543634 
 2584      5F545950 
 2584      455F5F20 
 2585 0671 01       		.byte	0x1
 2586 0672 00       		.uleb128 0
 2587 0673 5F5F5549 		.ascii "__UINT_FAST8_TYPE__ unsigned char\0"
 2587      4E545F46 
 2587      41535438 
 2587      5F545950 
GAS LISTING C:\Users\PRESID~1\AppData\Local\Temp\ccblGL8o.s 			page 70


 2587      455F5F20 
 2588 0695 01       		.byte	0x1
 2589 0696 00       		.uleb128 0
 2590 0697 5F5F5549 		.ascii "__UINT_FAST16_TYPE__ short unsigned int\0"
 2590      4E545F46 
 2590      41535431 
 2590      365F5459 
 2590      50455F5F 
 2591 06bf 01       		.byte	0x1
 2592 06c0 00       		.uleb128 0
 2593 06c1 5F5F5549 		.ascii "__UINT_FAST32_TYPE__ unsigned int\0"
 2593      4E545F46 
 2593      41535433 
 2593      325F5459 
 2593      50455F5F 
 2594 06e3 01       		.byte	0x1
 2595 06e4 00       		.uleb128 0
 2596 06e5 5F5F5549 		.ascii "__UINT_FAST64_TYPE__ long long unsigned int\0"
 2596      4E545F46 
 2596      41535436 
 2596      345F5459 
 2596      50455F5F 
 2597 0711 01       		.byte	0x1
 2598 0712 00       		.uleb128 0
 2599 0713 5F5F494E 		.ascii "__INTPTR_TYPE__ int\0"
 2599      54505452 
 2599      5F545950 
 2599      455F5F20 
 2599      696E7400 
 2600 0727 01       		.byte	0x1
 2601 0728 00       		.uleb128 0
 2602 0729 5F5F5549 		.ascii "__UINTPTR_TYPE__ unsigned int\0"
 2602      4E545054 
 2602      525F5459 
 2602      50455F5F 
 2602      20756E73 
 2603 0747 01       		.byte	0x1
 2604 0748 00       		.uleb128 0
 2605 0749 5F5F6861 		.ascii "__has_include(STR) __has_include__(STR)\0"
 2605      735F696E 
 2605      636C7564 
 2605      65285354 
 2605      5229205F 
 2606 0771 01       		.byte	0x1
 2607 0772 00       		.uleb128 0
 2608 0773 5F5F6861 		.ascii "__has_include_next(STR) __has_include_next__(STR)\0"
 2608      735F696E 
 2608      636C7564 
 2608      655F6E65 
 2608      78742853 
 2609 07a5 01       		.byte	0x1
 2610 07a6 00       		.uleb128 0
 2611 07a7 5F5F4758 		.ascii "__GXX_ABI_VERSION 1002\0"
 2611      585F4142 
 2611      495F5645 
 2611      5253494F 
 2611      4E203130 
GAS LISTING C:\Users\PRESID~1\AppData\Local\Temp\ccblGL8o.s 			page 71


 2612 07be 01       		.byte	0x1
 2613 07bf 00       		.uleb128 0
 2614 07c0 5F5F5343 		.ascii "__SCHAR_MAX__ 127\0"
 2614      4841525F 
 2614      4D41585F 
 2614      5F203132 
 2614      3700
 2615 07d2 01       		.byte	0x1
 2616 07d3 00       		.uleb128 0
 2617 07d4 5F5F5348 		.ascii "__SHRT_MAX__ 32767\0"
 2617      52545F4D 
 2617      41585F5F 
 2617      20333237 
 2617      363700
 2618 07e7 01       		.byte	0x1
 2619 07e8 00       		.uleb128 0
 2620 07e9 5F5F494E 		.ascii "__INT_MAX__ 2147483647\0"
 2620      545F4D41 
 2620      585F5F20 
 2620      32313437 
 2620      34383336 
 2621 0800 01       		.byte	0x1
 2622 0801 00       		.uleb128 0
 2623 0802 5F5F4C4F 		.ascii "__LONG_MAX__ 2147483647L\0"
 2623      4E475F4D 
 2623      41585F5F 
 2623      20323134 
 2623      37343833 
 2624 081b 01       		.byte	0x1
 2625 081c 00       		.uleb128 0
 2626 081d 5F5F4C4F 		.ascii "__LONG_LONG_MAX__ 9223372036854775807LL\0"
 2626      4E475F4C 
 2626      4F4E475F 
 2626      4D41585F 
 2626      5F203932 
 2627 0845 01       		.byte	0x1
 2628 0846 00       		.uleb128 0
 2629 0847 5F5F5743 		.ascii "__WCHAR_MAX__ 65535\0"
 2629      4841525F 
 2629      4D41585F 
 2629      5F203635 
 2629      35333500 
 2630 085b 01       		.byte	0x1
 2631 085c 00       		.uleb128 0
 2632 085d 5F5F5743 		.ascii "__WCHAR_MIN__ 0\0"
 2632      4841525F 
 2632      4D494E5F 
 2632      5F203000 
 2633 086d 01       		.byte	0x1
 2634 086e 00       		.uleb128 0
 2635 086f 5F5F5749 		.ascii "__WINT_MAX__ 65535\0"
 2635      4E545F4D 
 2635      41585F5F 
 2635      20363535 
 2635      333500
 2636 0882 01       		.byte	0x1
 2637 0883 00       		.uleb128 0
GAS LISTING C:\Users\PRESID~1\AppData\Local\Temp\ccblGL8o.s 			page 72


 2638 0884 5F5F5749 		.ascii "__WINT_MIN__ 0\0"
 2638      4E545F4D 
 2638      494E5F5F 
 2638      203000
 2639 0893 01       		.byte	0x1
 2640 0894 00       		.uleb128 0
 2641 0895 5F5F5054 		.ascii "__PTRDIFF_MAX__ 2147483647\0"
 2641      52444946 
 2641      465F4D41 
 2641      585F5F20 
 2641      32313437 
 2642 08b0 01       		.byte	0x1
 2643 08b1 00       		.uleb128 0
 2644 08b2 5F5F5349 		.ascii "__SIZE_MAX__ 4294967295U\0"
 2644      5A455F4D 
 2644      41585F5F 
 2644      20343239 
 2644      34393637 
 2645 08cb 01       		.byte	0x1
 2646 08cc 00       		.uleb128 0
 2647 08cd 5F5F494E 		.ascii "__INTMAX_MAX__ 9223372036854775807LL\0"
 2647      544D4158 
 2647      5F4D4158 
 2647      5F5F2039 
 2647      32323333 
 2648 08f2 01       		.byte	0x1
 2649 08f3 00       		.uleb128 0
 2650 08f4 5F5F494E 		.ascii "__INTMAX_C(c) c ## LL\0"
 2650      544D4158 
 2650      5F432863 
 2650      29206320 
 2650      2323204C 
 2651 090a 01       		.byte	0x1
 2652 090b 00       		.uleb128 0
 2653 090c 5F5F5549 		.ascii "__UINTMAX_MAX__ 18446744073709551615ULL\0"
 2653      4E544D41 
 2653      585F4D41 
 2653      585F5F20 
 2653      31383434 
 2654 0934 01       		.byte	0x1
 2655 0935 00       		.uleb128 0
 2656 0936 5F5F5549 		.ascii "__UINTMAX_C(c) c ## ULL\0"
 2656      4E544D41 
 2656      585F4328 
 2656      63292063 
 2656      20232320 
 2657 094e 01       		.byte	0x1
 2658 094f 00       		.uleb128 0
 2659 0950 5F5F5349 		.ascii "__SIG_ATOMIC_MAX__ 2147483647\0"
 2659      475F4154 
 2659      4F4D4943 
 2659      5F4D4158 
 2659      5F5F2032 
 2660 096e 01       		.byte	0x1
 2661 096f 00       		.uleb128 0
 2662 0970 5F5F5349 		.ascii "__SIG_ATOMIC_MIN__ (-__SIG_ATOMIC_MAX__ - 1)\0"
 2662      475F4154 
GAS LISTING C:\Users\PRESID~1\AppData\Local\Temp\ccblGL8o.s 			page 73


 2662      4F4D4943 
 2662      5F4D494E 
 2662      5F5F2028 
 2663 099d 01       		.byte	0x1
 2664 099e 00       		.uleb128 0
 2665 099f 5F5F494E 		.ascii "__INT8_MAX__ 127\0"
 2665      54385F4D 
 2665      41585F5F 
 2665      20313237 
 2665      00
 2666 09b0 01       		.byte	0x1
 2667 09b1 00       		.uleb128 0
 2668 09b2 5F5F494E 		.ascii "__INT16_MAX__ 32767\0"
 2668      5431365F 
 2668      4D41585F 
 2668      5F203332 
 2668      37363700 
 2669 09c6 01       		.byte	0x1
 2670 09c7 00       		.uleb128 0
 2671 09c8 5F5F494E 		.ascii "__INT32_MAX__ 2147483647\0"
 2671      5433325F 
 2671      4D41585F 
 2671      5F203231 
 2671      34373438 
 2672 09e1 01       		.byte	0x1
 2673 09e2 00       		.uleb128 0
 2674 09e3 5F5F494E 		.ascii "__INT64_MAX__ 9223372036854775807LL\0"
 2674      5436345F 
 2674      4D41585F 
 2674      5F203932 
 2674      32333337 
 2675 0a07 01       		.byte	0x1
 2676 0a08 00       		.uleb128 0
 2677 0a09 5F5F5549 		.ascii "__UINT8_MAX__ 255\0"
 2677      4E54385F 
 2677      4D41585F 
 2677      5F203235 
 2677      3500
 2678 0a1b 01       		.byte	0x1
 2679 0a1c 00       		.uleb128 0
 2680 0a1d 5F5F5549 		.ascii "__UINT16_MAX__ 65535\0"
 2680      4E543136 
 2680      5F4D4158 
 2680      5F5F2036 
 2680      35353335 
 2681 0a32 01       		.byte	0x1
 2682 0a33 00       		.uleb128 0
 2683 0a34 5F5F5549 		.ascii "__UINT32_MAX__ 4294967295U\0"
 2683      4E543332 
 2683      5F4D4158 
 2683      5F5F2034 
 2683      32393439 
 2684 0a4f 01       		.byte	0x1
 2685 0a50 00       		.uleb128 0
 2686 0a51 5F5F5549 		.ascii "__UINT64_MAX__ 18446744073709551615ULL\0"
 2686      4E543634 
 2686      5F4D4158 
GAS LISTING C:\Users\PRESID~1\AppData\Local\Temp\ccblGL8o.s 			page 74


 2686      5F5F2031 
 2686      38343436 
 2687 0a78 01       		.byte	0x1
 2688 0a79 00       		.uleb128 0
 2689 0a7a 5F5F494E 		.ascii "__INT_LEAST8_MAX__ 127\0"
 2689      545F4C45 
 2689      41535438 
 2689      5F4D4158 
 2689      5F5F2031 
 2690 0a91 01       		.byte	0x1
 2691 0a92 00       		.uleb128 0
 2692 0a93 5F5F494E 		.ascii "__INT8_C(c) c\0"
 2692      54385F43 
 2692      28632920 
 2692      6300
 2693 0aa1 01       		.byte	0x1
 2694 0aa2 00       		.uleb128 0
 2695 0aa3 5F5F494E 		.ascii "__INT_LEAST16_MAX__ 32767\0"
 2695      545F4C45 
 2695      41535431 
 2695      365F4D41 
 2695      585F5F20 
 2696 0abd 01       		.byte	0x1
 2697 0abe 00       		.uleb128 0
 2698 0abf 5F5F494E 		.ascii "__INT16_C(c) c\0"
 2698      5431365F 
 2698      43286329 
 2698      206300
 2699 0ace 01       		.byte	0x1
 2700 0acf 00       		.uleb128 0
 2701 0ad0 5F5F494E 		.ascii "__INT_LEAST32_MAX__ 2147483647\0"
 2701      545F4C45 
 2701      41535433 
 2701      325F4D41 
 2701      585F5F20 
 2702 0aef 01       		.byte	0x1
 2703 0af0 00       		.uleb128 0
 2704 0af1 5F5F494E 		.ascii "__INT32_C(c) c\0"
 2704      5433325F 
 2704      43286329 
 2704      206300
 2705 0b00 01       		.byte	0x1
 2706 0b01 00       		.uleb128 0
 2707 0b02 5F5F494E 		.ascii "__INT_LEAST64_MAX__ 9223372036854775807LL\0"
 2707      545F4C45 
 2707      41535436 
 2707      345F4D41 
 2707      585F5F20 
 2708 0b2c 01       		.byte	0x1
 2709 0b2d 00       		.uleb128 0
 2710 0b2e 5F5F494E 		.ascii "__INT64_C(c) c ## LL\0"
 2710      5436345F 
 2710      43286329 
 2710      20632023 
 2710      23204C4C 
 2711 0b43 01       		.byte	0x1
 2712 0b44 00       		.uleb128 0
GAS LISTING C:\Users\PRESID~1\AppData\Local\Temp\ccblGL8o.s 			page 75


 2713 0b45 5F5F5549 		.ascii "__UINT_LEAST8_MAX__ 255\0"
 2713      4E545F4C 
 2713      45415354 
 2713      385F4D41 
 2713      585F5F20 
 2714 0b5d 01       		.byte	0x1
 2715 0b5e 00       		.uleb128 0
 2716 0b5f 5F5F5549 		.ascii "__UINT8_C(c) c\0"
 2716      4E54385F 
 2716      43286329 
 2716      206300
 2717 0b6e 01       		.byte	0x1
 2718 0b6f 00       		.uleb128 0
 2719 0b70 5F5F5549 		.ascii "__UINT_LEAST16_MAX__ 65535\0"
 2719      4E545F4C 
 2719      45415354 
 2719      31365F4D 
 2719      41585F5F 
 2720 0b8b 01       		.byte	0x1
 2721 0b8c 00       		.uleb128 0
 2722 0b8d 5F5F5549 		.ascii "__UINT16_C(c) c\0"
 2722      4E543136 
 2722      5F432863 
 2722      29206300 
 2723 0b9d 01       		.byte	0x1
 2724 0b9e 00       		.uleb128 0
 2725 0b9f 5F5F5549 		.ascii "__UINT_LEAST32_MAX__ 4294967295U\0"
 2725      4E545F4C 
 2725      45415354 
 2725      33325F4D 
 2725      41585F5F 
 2726 0bc0 01       		.byte	0x1
 2727 0bc1 00       		.uleb128 0
 2728 0bc2 5F5F5549 		.ascii "__UINT32_C(c) c ## U\0"
 2728      4E543332 
 2728      5F432863 
 2728      29206320 
 2728      23232055 
 2729 0bd7 01       		.byte	0x1
 2730 0bd8 00       		.uleb128 0
 2731 0bd9 5F5F5549 		.ascii "__UINT_LEAST64_MAX__ 18446744073709551615ULL\0"
 2731      4E545F4C 
 2731      45415354 
 2731      36345F4D 
 2731      41585F5F 
 2732 0c06 01       		.byte	0x1
 2733 0c07 00       		.uleb128 0
 2734 0c08 5F5F5549 		.ascii "__UINT64_C(c) c ## ULL\0"
 2734      4E543634 
 2734      5F432863 
 2734      29206320 
 2734      23232055 
 2735 0c1f 01       		.byte	0x1
 2736 0c20 00       		.uleb128 0
 2737 0c21 5F5F494E 		.ascii "__INT_FAST8_MAX__ 127\0"
 2737      545F4641 
 2737      5354385F 
GAS LISTING C:\Users\PRESID~1\AppData\Local\Temp\ccblGL8o.s 			page 76


 2737      4D41585F 
 2737      5F203132 
 2738 0c37 01       		.byte	0x1
 2739 0c38 00       		.uleb128 0
 2740 0c39 5F5F494E 		.ascii "__INT_FAST16_MAX__ 32767\0"
 2740      545F4641 
 2740      53543136 
 2740      5F4D4158 
 2740      5F5F2033 
 2741 0c52 01       		.byte	0x1
 2742 0c53 00       		.uleb128 0
 2743 0c54 5F5F494E 		.ascii "__INT_FAST32_MAX__ 2147483647\0"
 2743      545F4641 
 2743      53543332 
 2743      5F4D4158 
 2743      5F5F2032 
 2744 0c72 01       		.byte	0x1
 2745 0c73 00       		.uleb128 0
 2746 0c74 5F5F494E 		.ascii "__INT_FAST64_MAX__ 9223372036854775807LL\0"
 2746      545F4641 
 2746      53543634 
 2746      5F4D4158 
 2746      5F5F2039 
 2747 0c9d 01       		.byte	0x1
 2748 0c9e 00       		.uleb128 0
 2749 0c9f 5F5F5549 		.ascii "__UINT_FAST8_MAX__ 255\0"
 2749      4E545F46 
 2749      41535438 
 2749      5F4D4158 
 2749      5F5F2032 
 2750 0cb6 01       		.byte	0x1
 2751 0cb7 00       		.uleb128 0
 2752 0cb8 5F5F5549 		.ascii "__UINT_FAST16_MAX__ 65535\0"
 2752      4E545F46 
 2752      41535431 
 2752      365F4D41 
 2752      585F5F20 
 2753 0cd2 01       		.byte	0x1
 2754 0cd3 00       		.uleb128 0
 2755 0cd4 5F5F5549 		.ascii "__UINT_FAST32_MAX__ 4294967295U\0"
 2755      4E545F46 
 2755      41535433 
 2755      325F4D41 
 2755      585F5F20 
 2756 0cf4 01       		.byte	0x1
 2757 0cf5 00       		.uleb128 0
 2758 0cf6 5F5F5549 		.ascii "__UINT_FAST64_MAX__ 18446744073709551615ULL\0"
 2758      4E545F46 
 2758      41535436 
 2758      345F4D41 
 2758      585F5F20 
 2759 0d22 01       		.byte	0x1
 2760 0d23 00       		.uleb128 0
 2761 0d24 5F5F494E 		.ascii "__INTPTR_MAX__ 2147483647\0"
 2761      54505452 
 2761      5F4D4158 
 2761      5F5F2032 
GAS LISTING C:\Users\PRESID~1\AppData\Local\Temp\ccblGL8o.s 			page 77


 2761      31343734 
 2762 0d3e 01       		.byte	0x1
 2763 0d3f 00       		.uleb128 0
 2764 0d40 5F5F5549 		.ascii "__UINTPTR_MAX__ 4294967295U\0"
 2764      4E545054 
 2764      525F4D41 
 2764      585F5F20 
 2764      34323934 
 2765 0d5c 01       		.byte	0x1
 2766 0d5d 00       		.uleb128 0
 2767 0d5e 5F5F4743 		.ascii "__GCC_IEC_559 2\0"
 2767      435F4945 
 2767      435F3535 
 2767      39203200 
 2768 0d6e 01       		.byte	0x1
 2769 0d6f 00       		.uleb128 0
 2770 0d70 5F5F4743 		.ascii "__GCC_IEC_559_COMPLEX 2\0"
 2770      435F4945 
 2770      435F3535 
 2770      395F434F 
 2770      4D504C45 
 2771 0d88 01       		.byte	0x1
 2772 0d89 00       		.uleb128 0
 2773 0d8a 5F5F464C 		.ascii "__FLT_EVAL_METHOD__ 2\0"
 2773      545F4556 
 2773      414C5F4D 
 2773      4554484F 
 2773      445F5F20 
 2774 0da0 01       		.byte	0x1
 2775 0da1 00       		.uleb128 0
 2776 0da2 5F5F4445 		.ascii "__DEC_EVAL_METHOD__ 2\0"
 2776      435F4556 
 2776      414C5F4D 
 2776      4554484F 
 2776      445F5F20 
 2777 0db8 01       		.byte	0x1
 2778 0db9 00       		.uleb128 0
 2779 0dba 5F5F464C 		.ascii "__FLT_RADIX__ 2\0"
 2779      545F5241 
 2779      4449585F 
 2779      5F203200 
 2780 0dca 01       		.byte	0x1
 2781 0dcb 00       		.uleb128 0
 2782 0dcc 5F5F464C 		.ascii "__FLT_MANT_DIG__ 24\0"
 2782      545F4D41 
 2782      4E545F44 
 2782      49475F5F 
 2782      20323400 
 2783 0de0 01       		.byte	0x1
 2784 0de1 00       		.uleb128 0
 2785 0de2 5F5F464C 		.ascii "__FLT_DIG__ 6\0"
 2785      545F4449 
 2785      475F5F20 
 2785      3600
 2786 0df0 01       		.byte	0x1
 2787 0df1 00       		.uleb128 0
 2788 0df2 5F5F464C 		.ascii "__FLT_MIN_EXP__ (-125)\0"
GAS LISTING C:\Users\PRESID~1\AppData\Local\Temp\ccblGL8o.s 			page 78


 2788      545F4D49 
 2788      4E5F4558 
 2788      505F5F20 
 2788      282D3132 
 2789 0e09 01       		.byte	0x1
 2790 0e0a 00       		.uleb128 0
 2791 0e0b 5F5F464C 		.ascii "__FLT_MIN_10_EXP__ (-37)\0"
 2791      545F4D49 
 2791      4E5F3130 
 2791      5F455850 
 2791      5F5F2028 
 2792 0e24 01       		.byte	0x1
 2793 0e25 00       		.uleb128 0
 2794 0e26 5F5F464C 		.ascii "__FLT_MAX_EXP__ 128\0"
 2794      545F4D41 
 2794      585F4558 
 2794      505F5F20 
 2794      31323800 
 2795 0e3a 01       		.byte	0x1
 2796 0e3b 00       		.uleb128 0
 2797 0e3c 5F5F464C 		.ascii "__FLT_MAX_10_EXP__ 38\0"
 2797      545F4D41 
 2797      585F3130 
 2797      5F455850 
 2797      5F5F2033 
 2798 0e52 01       		.byte	0x1
 2799 0e53 00       		.uleb128 0
 2800 0e54 5F5F464C 		.ascii "__FLT_DECIMAL_DIG__ 9\0"
 2800      545F4445 
 2800      43494D41 
 2800      4C5F4449 
 2800      475F5F20 
 2801 0e6a 01       		.byte	0x1
 2802 0e6b 00       		.uleb128 0
 2803 0e6c 5F5F464C 		.ascii "__FLT_MAX__ 3.40282346638528859812e+38F\0"
 2803      545F4D41 
 2803      585F5F20 
 2803      332E3430 
 2803      32383233 
 2804 0e94 01       		.byte	0x1
 2805 0e95 00       		.uleb128 0
 2806 0e96 5F5F464C 		.ascii "__FLT_MIN__ 1.17549435082228750797e-38F\0"
 2806      545F4D49 
 2806      4E5F5F20 
 2806      312E3137 
 2806      35343934 
 2807 0ebe 01       		.byte	0x1
 2808 0ebf 00       		.uleb128 0
 2809 0ec0 5F5F464C 		.ascii "__FLT_EPSILON__ 1.19209289550781250000e-7F\0"
 2809      545F4550 
 2809      53494C4F 
 2809      4E5F5F20 
 2809      312E3139 
 2810 0eeb 01       		.byte	0x1
 2811 0eec 00       		.uleb128 0
 2812 0eed 5F5F464C 		.ascii "__FLT_DENORM_MIN__ 1.40129846432481707092e-45F\0"
 2812      545F4445 
GAS LISTING C:\Users\PRESID~1\AppData\Local\Temp\ccblGL8o.s 			page 79


 2812      4E4F524D 
 2812      5F4D494E 
 2812      5F5F2031 
 2813 0f1c 01       		.byte	0x1
 2814 0f1d 00       		.uleb128 0
 2815 0f1e 5F5F464C 		.ascii "__FLT_HAS_DENORM__ 1\0"
 2815      545F4841 
 2815      535F4445 
 2815      4E4F524D 
 2815      5F5F2031 
 2816 0f33 01       		.byte	0x1
 2817 0f34 00       		.uleb128 0
 2818 0f35 5F5F464C 		.ascii "__FLT_HAS_INFINITY__ 1\0"
 2818      545F4841 
 2818      535F494E 
 2818      46494E49 
 2818      54595F5F 
 2819 0f4c 01       		.byte	0x1
 2820 0f4d 00       		.uleb128 0
 2821 0f4e 5F5F464C 		.ascii "__FLT_HAS_QUIET_NAN__ 1\0"
 2821      545F4841 
 2821      535F5155 
 2821      4945545F 
 2821      4E414E5F 
 2822 0f66 01       		.byte	0x1
 2823 0f67 00       		.uleb128 0
 2824 0f68 5F5F4442 		.ascii "__DBL_MANT_DIG__ 53\0"
 2824      4C5F4D41 
 2824      4E545F44 
 2824      49475F5F 
 2824      20353300 
 2825 0f7c 01       		.byte	0x1
 2826 0f7d 00       		.uleb128 0
 2827 0f7e 5F5F4442 		.ascii "__DBL_DIG__ 15\0"
 2827      4C5F4449 
 2827      475F5F20 
 2827      313500
 2828 0f8d 01       		.byte	0x1
 2829 0f8e 00       		.uleb128 0
 2830 0f8f 5F5F4442 		.ascii "__DBL_MIN_EXP__ (-1021)\0"
 2830      4C5F4D49 
 2830      4E5F4558 
 2830      505F5F20 
 2830      282D3130 
 2831 0fa7 01       		.byte	0x1
 2832 0fa8 00       		.uleb128 0
 2833 0fa9 5F5F4442 		.ascii "__DBL_MIN_10_EXP__ (-307)\0"
 2833      4C5F4D49 
 2833      4E5F3130 
 2833      5F455850 
 2833      5F5F2028 
 2834 0fc3 01       		.byte	0x1
 2835 0fc4 00       		.uleb128 0
 2836 0fc5 5F5F4442 		.ascii "__DBL_MAX_EXP__ 1024\0"
 2836      4C5F4D41 
 2836      585F4558 
 2836      505F5F20 
GAS LISTING C:\Users\PRESID~1\AppData\Local\Temp\ccblGL8o.s 			page 80


 2836      31303234 
 2837 0fda 01       		.byte	0x1
 2838 0fdb 00       		.uleb128 0
 2839 0fdc 5F5F4442 		.ascii "__DBL_MAX_10_EXP__ 308\0"
 2839      4C5F4D41 
 2839      585F3130 
 2839      5F455850 
 2839      5F5F2033 
 2840 0ff3 01       		.byte	0x1
 2841 0ff4 00       		.uleb128 0
 2842 0ff5 5F5F4442 		.ascii "__DBL_DECIMAL_DIG__ 17\0"
 2842      4C5F4445 
 2842      43494D41 
 2842      4C5F4449 
 2842      475F5F20 
 2843 100c 01       		.byte	0x1
 2844 100d 00       		.uleb128 0
 2845 100e 5F5F4442 		.ascii "__DBL_MAX__ ((double)1.79769313486231570815e+308L)\0"
 2845      4C5F4D41 
 2845      585F5F20 
 2845      2828646F 
 2845      75626C65 
 2846 1041 01       		.byte	0x1
 2847 1042 00       		.uleb128 0
 2848 1043 5F5F4442 		.ascii "__DBL_MIN__ ((double)2.22507385850720138309e-308L)\0"
 2848      4C5F4D49 
 2848      4E5F5F20 
 2848      2828646F 
 2848      75626C65 
 2849 1076 01       		.byte	0x1
 2850 1077 00       		.uleb128 0
 2851 1078 5F5F4442 		.ascii "__DBL_EPSILON__ ((double)2.22044604925031308085e-16L)\0"
 2851      4C5F4550 
 2851      53494C4F 
 2851      4E5F5F20 
 2851      2828646F 
 2852 10ae 01       		.byte	0x1
 2853 10af 00       		.uleb128 0
 2854 10b0 5F5F4442 		.ascii "__DBL_DENORM_MIN__ ((double)4.94065645841246544177e-324L)\0"
 2854      4C5F4445 
 2854      4E4F524D 
 2854      5F4D494E 
 2854      5F5F2028 
 2855 10ea 01       		.byte	0x1
 2856 10eb 00       		.uleb128 0
 2857 10ec 5F5F4442 		.ascii "__DBL_HAS_DENORM__ 1\0"
 2857      4C5F4841 
 2857      535F4445 
 2857      4E4F524D 
 2857      5F5F2031 
 2858 1101 01       		.byte	0x1
 2859 1102 00       		.uleb128 0
 2860 1103 5F5F4442 		.ascii "__DBL_HAS_INFINITY__ 1\0"
 2860      4C5F4841 
 2860      535F494E 
 2860      46494E49 
 2860      54595F5F 
GAS LISTING C:\Users\PRESID~1\AppData\Local\Temp\ccblGL8o.s 			page 81


 2861 111a 01       		.byte	0x1
 2862 111b 00       		.uleb128 0
 2863 111c 5F5F4442 		.ascii "__DBL_HAS_QUIET_NAN__ 1\0"
 2863      4C5F4841 
 2863      535F5155 
 2863      4945545F 
 2863      4E414E5F 
 2864 1134 01       		.byte	0x1
 2865 1135 00       		.uleb128 0
 2866 1136 5F5F4C44 		.ascii "__LDBL_MANT_DIG__ 64\0"
 2866      424C5F4D 
 2866      414E545F 
 2866      4449475F 
 2866      5F203634 
 2867 114b 01       		.byte	0x1
 2868 114c 00       		.uleb128 0
 2869 114d 5F5F4C44 		.ascii "__LDBL_DIG__ 18\0"
 2869      424C5F44 
 2869      49475F5F 
 2869      20313800 
 2870 115d 01       		.byte	0x1
 2871 115e 00       		.uleb128 0
 2872 115f 5F5F4C44 		.ascii "__LDBL_MIN_EXP__ (-16381)\0"
 2872      424C5F4D 
 2872      494E5F45 
 2872      58505F5F 
 2872      20282D31 
 2873 1179 01       		.byte	0x1
 2874 117a 00       		.uleb128 0
 2875 117b 5F5F4C44 		.ascii "__LDBL_MIN_10_EXP__ (-4931)\0"
 2875      424C5F4D 
 2875      494E5F31 
 2875      305F4558 
 2875      505F5F20 
 2876 1197 01       		.byte	0x1
 2877 1198 00       		.uleb128 0
 2878 1199 5F5F4C44 		.ascii "__LDBL_MAX_EXP__ 16384\0"
 2878      424C5F4D 
 2878      41585F45 
 2878      58505F5F 
 2878      20313633 
 2879 11b0 01       		.byte	0x1
 2880 11b1 00       		.uleb128 0
 2881 11b2 5F5F4C44 		.ascii "__LDBL_MAX_10_EXP__ 4932\0"
 2881      424C5F4D 
 2881      41585F31 
 2881      305F4558 
 2881      505F5F20 
 2882 11cb 01       		.byte	0x1
 2883 11cc 00       		.uleb128 0
 2884 11cd 5F5F4445 		.ascii "__DECIMAL_DIG__ 21\0"
 2884      43494D41 
 2884      4C5F4449 
 2884      475F5F20 
 2884      323100
 2885 11e0 01       		.byte	0x1
 2886 11e1 00       		.uleb128 0
GAS LISTING C:\Users\PRESID~1\AppData\Local\Temp\ccblGL8o.s 			page 82


 2887 11e2 5F5F4C44 		.ascii "__LDBL_MAX__ 1.18973149535723176502e+4932L\0"
 2887      424C5F4D 
 2887      41585F5F 
 2887      20312E31 
 2887      38393733 
 2888 120d 01       		.byte	0x1
 2889 120e 00       		.uleb128 0
 2890 120f 5F5F4C44 		.ascii "__LDBL_MIN__ 3.36210314311209350626e-4932L\0"
 2890      424C5F4D 
 2890      494E5F5F 
 2890      20332E33 
 2890      36323130 
 2891 123a 01       		.byte	0x1
 2892 123b 00       		.uleb128 0
 2893 123c 5F5F4C44 		.ascii "__LDBL_EPSILON__ 1.08420217248550443401e-19L\0"
 2893      424C5F45 
 2893      5053494C 
 2893      4F4E5F5F 
 2893      20312E30 
 2894 1269 01       		.byte	0x1
 2895 126a 00       		.uleb128 0
 2896 126b 5F5F4C44 		.ascii "__LDBL_DENORM_MIN__ 3.64519953188247460253e-4951L\0"
 2896      424C5F44 
 2896      454E4F52 
 2896      4D5F4D49 
 2896      4E5F5F20 
 2897 129d 01       		.byte	0x1
 2898 129e 00       		.uleb128 0
 2899 129f 5F5F4C44 		.ascii "__LDBL_HAS_DENORM__ 1\0"
 2899      424C5F48 
 2899      41535F44 
 2899      454E4F52 
 2899      4D5F5F20 
 2900 12b5 01       		.byte	0x1
 2901 12b6 00       		.uleb128 0
 2902 12b7 5F5F4C44 		.ascii "__LDBL_HAS_INFINITY__ 1\0"
 2902      424C5F48 
 2902      41535F49 
 2902      4E46494E 
 2902      4954595F 
 2903 12cf 01       		.byte	0x1
 2904 12d0 00       		.uleb128 0
 2905 12d1 5F5F4C44 		.ascii "__LDBL_HAS_QUIET_NAN__ 1\0"
 2905      424C5F48 
 2905      41535F51 
 2905      55494554 
 2905      5F4E414E 
 2906 12ea 01       		.byte	0x1
 2907 12eb 00       		.uleb128 0
 2908 12ec 5F5F4445 		.ascii "__DEC32_MANT_DIG__ 7\0"
 2908      4333325F 
 2908      4D414E54 
 2908      5F444947 
 2908      5F5F2037 
 2909 1301 01       		.byte	0x1
 2910 1302 00       		.uleb128 0
 2911 1303 5F5F4445 		.ascii "__DEC32_MIN_EXP__ (-94)\0"
GAS LISTING C:\Users\PRESID~1\AppData\Local\Temp\ccblGL8o.s 			page 83


 2911      4333325F 
 2911      4D494E5F 
 2911      4558505F 
 2911      5F20282D 
 2912 131b 01       		.byte	0x1
 2913 131c 00       		.uleb128 0
 2914 131d 5F5F4445 		.ascii "__DEC32_MAX_EXP__ 97\0"
 2914      4333325F 
 2914      4D41585F 
 2914      4558505F 
 2914      5F203937 
 2915 1332 01       		.byte	0x1
 2916 1333 00       		.uleb128 0
 2917 1334 5F5F4445 		.ascii "__DEC32_MIN__ 1E-95DF\0"
 2917      4333325F 
 2917      4D494E5F 
 2917      5F203145 
 2917      2D393544 
 2918 134a 01       		.byte	0x1
 2919 134b 00       		.uleb128 0
 2920 134c 5F5F4445 		.ascii "__DEC32_MAX__ 9.999999E96DF\0"
 2920      4333325F 
 2920      4D41585F 
 2920      5F20392E 
 2920      39393939 
 2921 1368 01       		.byte	0x1
 2922 1369 00       		.uleb128 0
 2923 136a 5F5F4445 		.ascii "__DEC32_EPSILON__ 1E-6DF\0"
 2923      4333325F 
 2923      45505349 
 2923      4C4F4E5F 
 2923      5F203145 
 2924 1383 01       		.byte	0x1
 2925 1384 00       		.uleb128 0
 2926 1385 5F5F4445 		.ascii "__DEC32_SUBNORMAL_MIN__ 0.000001E-95DF\0"
 2926      4333325F 
 2926      5355424E 
 2926      4F524D41 
 2926      4C5F4D49 
 2927 13ac 01       		.byte	0x1
 2928 13ad 00       		.uleb128 0
 2929 13ae 5F5F4445 		.ascii "__DEC64_MANT_DIG__ 16\0"
 2929      4336345F 
 2929      4D414E54 
 2929      5F444947 
 2929      5F5F2031 
 2930 13c4 01       		.byte	0x1
 2931 13c5 00       		.uleb128 0
 2932 13c6 5F5F4445 		.ascii "__DEC64_MIN_EXP__ (-382)\0"
 2932      4336345F 
 2932      4D494E5F 
 2932      4558505F 
 2932      5F20282D 
 2933 13df 01       		.byte	0x1
 2934 13e0 00       		.uleb128 0
 2935 13e1 5F5F4445 		.ascii "__DEC64_MAX_EXP__ 385\0"
 2935      4336345F 
GAS LISTING C:\Users\PRESID~1\AppData\Local\Temp\ccblGL8o.s 			page 84


 2935      4D41585F 
 2935      4558505F 
 2935      5F203338 
 2936 13f7 01       		.byte	0x1
 2937 13f8 00       		.uleb128 0
 2938 13f9 5F5F4445 		.ascii "__DEC64_MIN__ 1E-383DD\0"
 2938      4336345F 
 2938      4D494E5F 
 2938      5F203145 
 2938      2D333833 
 2939 1410 01       		.byte	0x1
 2940 1411 00       		.uleb128 0
 2941 1412 5F5F4445 		.ascii "__DEC64_MAX__ 9.999999999999999E384DD\0"
 2941      4336345F 
 2941      4D41585F 
 2941      5F20392E 
 2941      39393939 
 2942 1438 01       		.byte	0x1
 2943 1439 00       		.uleb128 0
 2944 143a 5F5F4445 		.ascii "__DEC64_EPSILON__ 1E-15DD\0"
 2944      4336345F 
 2944      45505349 
 2944      4C4F4E5F 
 2944      5F203145 
 2945 1454 01       		.byte	0x1
 2946 1455 00       		.uleb128 0
 2947 1456 5F5F4445 		.ascii "__DEC64_SUBNORMAL_MIN__ 0.000000000000001E-383DD\0"
 2947      4336345F 
 2947      5355424E 
 2947      4F524D41 
 2947      4C5F4D49 
 2948 1487 01       		.byte	0x1
 2949 1488 00       		.uleb128 0
 2950 1489 5F5F4445 		.ascii "__DEC128_MANT_DIG__ 34\0"
 2950      43313238 
 2950      5F4D414E 
 2950      545F4449 
 2950      475F5F20 
 2951 14a0 01       		.byte	0x1
 2952 14a1 00       		.uleb128 0
 2953 14a2 5F5F4445 		.ascii "__DEC128_MIN_EXP__ (-6142)\0"
 2953      43313238 
 2953      5F4D494E 
 2953      5F455850 
 2953      5F5F2028 
 2954 14bd 01       		.byte	0x1
 2955 14be 00       		.uleb128 0
 2956 14bf 5F5F4445 		.ascii "__DEC128_MAX_EXP__ 6145\0"
 2956      43313238 
 2956      5F4D4158 
 2956      5F455850 
 2956      5F5F2036 
 2957 14d7 01       		.byte	0x1
 2958 14d8 00       		.uleb128 0
 2959 14d9 5F5F4445 		.ascii "__DEC128_MIN__ 1E-6143DL\0"
 2959      43313238 
 2959      5F4D494E 
GAS LISTING C:\Users\PRESID~1\AppData\Local\Temp\ccblGL8o.s 			page 85


 2959      5F5F2031 
 2959      452D3631 
 2960 14f2 01       		.byte	0x1
 2961 14f3 00       		.uleb128 0
 2962 14f4 5F5F4445 		.ascii "__DEC128_MAX__ 9.999999999999999999999999999999999E6144DL\0"
 2962      43313238 
 2962      5F4D4158 
 2962      5F5F2039 
 2962      2E393939 
 2963 152e 01       		.byte	0x1
 2964 152f 00       		.uleb128 0
 2965 1530 5F5F4445 		.ascii "__DEC128_EPSILON__ 1E-33DL\0"
 2965      43313238 
 2965      5F455053 
 2965      494C4F4E 
 2965      5F5F2031 
 2966 154b 01       		.byte	0x1
 2967 154c 00       		.uleb128 0
 2968 154d 5F5F4445 		.ascii "__DEC128_SUBNORMAL_MIN__ 0.000000000000000000000000000000001E-6143DL\0"
 2968      43313238 
 2968      5F535542 
 2968      4E4F524D 
 2968      414C5F4D 
 2969 1592 01       		.byte	0x1
 2970 1593 00       		.uleb128 0
 2971 1594 5F5F5245 		.ascii "__REGISTER_PREFIX__ \0"
 2971      47495354 
 2971      45525F50 
 2971      52454649 
 2971      585F5F20 
 2972 15a9 01       		.byte	0x1
 2973 15aa 00       		.uleb128 0
 2974 15ab 5F5F5553 		.ascii "__USER_LABEL_PREFIX__ _\0"
 2974      45525F4C 
 2974      4142454C 
 2974      5F505245 
 2974      4649585F 
 2975 15c3 01       		.byte	0x1
 2976 15c4 00       		.uleb128 0
 2977 15c5 5F5F474E 		.ascii "__GNUC_GNU_INLINE__ 1\0"
 2977      55435F47 
 2977      4E555F49 
 2977      4E4C494E 
 2977      455F5F20 
 2978 15db 01       		.byte	0x1
 2979 15dc 00       		.uleb128 0
 2980 15dd 5F5F4E4F 		.ascii "__NO_INLINE__ 1\0"
 2980      5F494E4C 
 2980      494E455F 
 2980      5F203100 
 2981 15ed 01       		.byte	0x1
 2982 15ee 00       		.uleb128 0
 2983 15ef 5F5F5354 		.ascii "__STRICT_ANSI__ 1\0"
 2983      52494354 
 2983      5F414E53 
 2983      495F5F20 
 2983      3100
GAS LISTING C:\Users\PRESID~1\AppData\Local\Temp\ccblGL8o.s 			page 86


 2984 1601 01       		.byte	0x1
 2985 1602 00       		.uleb128 0
 2986 1603 5F5F4743 		.ascii "__GCC_ATOMIC_BOOL_LOCK_FREE 1\0"
 2986      435F4154 
 2986      4F4D4943 
 2986      5F424F4F 
 2986      4C5F4C4F 
 2987 1621 01       		.byte	0x1
 2988 1622 00       		.uleb128 0
 2989 1623 5F5F4743 		.ascii "__GCC_ATOMIC_CHAR_LOCK_FREE 1\0"
 2989      435F4154 
 2989      4F4D4943 
 2989      5F434841 
 2989      525F4C4F 
 2990 1641 01       		.byte	0x1
 2991 1642 00       		.uleb128 0
 2992 1643 5F5F4743 		.ascii "__GCC_ATOMIC_CHAR16_T_LOCK_FREE 1\0"
 2992      435F4154 
 2992      4F4D4943 
 2992      5F434841 
 2992      5231365F 
 2993 1665 01       		.byte	0x1
 2994 1666 00       		.uleb128 0
 2995 1667 5F5F4743 		.ascii "__GCC_ATOMIC_CHAR32_T_LOCK_FREE 1\0"
 2995      435F4154 
 2995      4F4D4943 
 2995      5F434841 
 2995      5233325F 
 2996 1689 01       		.byte	0x1
 2997 168a 00       		.uleb128 0
 2998 168b 5F5F4743 		.ascii "__GCC_ATOMIC_WCHAR_T_LOCK_FREE 1\0"
 2998      435F4154 
 2998      4F4D4943 
 2998      5F574348 
 2998      41525F54 
 2999 16ac 01       		.byte	0x1
 3000 16ad 00       		.uleb128 0
 3001 16ae 5F5F4743 		.ascii "__GCC_ATOMIC_SHORT_LOCK_FREE 1\0"
 3001      435F4154 
 3001      4F4D4943 
 3001      5F53484F 
 3001      52545F4C 
 3002 16cd 01       		.byte	0x1
 3003 16ce 00       		.uleb128 0
 3004 16cf 5F5F4743 		.ascii "__GCC_ATOMIC_INT_LOCK_FREE 1\0"
 3004      435F4154 
 3004      4F4D4943 
 3004      5F494E54 
 3004      5F4C4F43 
 3005 16ec 01       		.byte	0x1
 3006 16ed 00       		.uleb128 0
 3007 16ee 5F5F4743 		.ascii "__GCC_ATOMIC_LONG_LOCK_FREE 1\0"
 3007      435F4154 
 3007      4F4D4943 
 3007      5F4C4F4E 
 3007      475F4C4F 
 3008 170c 01       		.byte	0x1
GAS LISTING C:\Users\PRESID~1\AppData\Local\Temp\ccblGL8o.s 			page 87


 3009 170d 00       		.uleb128 0
 3010 170e 5F5F4743 		.ascii "__GCC_ATOMIC_LLONG_LOCK_FREE 1\0"
 3010      435F4154 
 3010      4F4D4943 
 3010      5F4C4C4F 
 3010      4E475F4C 
 3011 172d 01       		.byte	0x1
 3012 172e 00       		.uleb128 0
 3013 172f 5F5F4743 		.ascii "__GCC_ATOMIC_TEST_AND_SET_TRUEVAL 1\0"
 3013      435F4154 
 3013      4F4D4943 
 3013      5F544553 
 3013      545F414E 
 3014 1753 01       		.byte	0x1
 3015 1754 00       		.uleb128 0
 3016 1755 5F5F4743 		.ascii "__GCC_ATOMIC_POINTER_LOCK_FREE 1\0"
 3016      435F4154 
 3016      4F4D4943 
 3016      5F504F49 
 3016      4E544552 
 3017 1776 01       		.byte	0x1
 3018 1777 00       		.uleb128 0
 3019 1778 5F5F4743 		.ascii "__GCC_HAVE_DWARF2_CFI_ASM 1\0"
 3019      435F4841 
 3019      56455F44 
 3019      57415246 
 3019      325F4346 
 3020 1794 01       		.byte	0x1
 3021 1795 00       		.uleb128 0
 3022 1796 5F5F5052 		.ascii "__PRAGMA_REDEFINE_EXTNAME 1\0"
 3022      41474D41 
 3022      5F524544 
 3022      4546494E 
 3022      455F4558 
 3023 17b2 01       		.byte	0x1
 3024 17b3 00       		.uleb128 0
 3025 17b4 5F5F5349 		.ascii "__SIZEOF_WCHAR_T__ 2\0"
 3025      5A454F46 
 3025      5F574348 
 3025      41525F54 
 3025      5F5F2032 
 3026 17c9 01       		.byte	0x1
 3027 17ca 00       		.uleb128 0
 3028 17cb 5F5F5349 		.ascii "__SIZEOF_WINT_T__ 2\0"
 3028      5A454F46 
 3028      5F57494E 
 3028      545F545F 
 3028      5F203200 
 3029 17df 01       		.byte	0x1
 3030 17e0 00       		.uleb128 0
 3031 17e1 5F5F5349 		.ascii "__SIZEOF_PTRDIFF_T__ 4\0"
 3031      5A454F46 
 3031      5F505452 
 3031      44494646 
 3031      5F545F5F 
 3032 17f8 01       		.byte	0x1
 3033 17f9 00       		.uleb128 0
GAS LISTING C:\Users\PRESID~1\AppData\Local\Temp\ccblGL8o.s 			page 88


 3034 17fa 5F5F6933 		.ascii "__i386 1\0"
 3034      38362031 
 3034      00
 3035 1803 01       		.byte	0x1
 3036 1804 00       		.uleb128 0
 3037 1805 5F5F6933 		.ascii "__i386__ 1\0"
 3037      38365F5F 
 3037      203100
 3038 1810 01       		.byte	0x1
 3039 1811 00       		.uleb128 0
 3040 1812 5F5F4154 		.ascii "__ATOMIC_HLE_ACQUIRE 65536\0"
 3040      4F4D4943 
 3040      5F484C45 
 3040      5F414351 
 3040      55495245 
 3041 182d 01       		.byte	0x1
 3042 182e 00       		.uleb128 0
 3043 182f 5F5F4154 		.ascii "__ATOMIC_HLE_RELEASE 131072\0"
 3043      4F4D4943 
 3043      5F484C45 
 3043      5F52454C 
 3043      45415345 
 3044 184b 01       		.byte	0x1
 3045 184c 00       		.uleb128 0
 3046 184d 5F5F7475 		.ascii "__tune_i386__ 1\0"
 3046      6E655F69 
 3046      3338365F 
 3046      5F203100 
 3047 185d 01       		.byte	0x1
 3048 185e 00       		.uleb128 0
 3049 185f 5F5F636F 		.ascii "__code_model_32__ 1\0"
 3049      64655F6D 
 3049      6F64656C 
 3049      5F33325F 
 3049      5F203100 
 3050 1873 01       		.byte	0x1
 3051 1874 00       		.uleb128 0
 3052 1875 5F583836 		.ascii "_X86_ 1\0"
 3052      5F203100 
 3053 187d 01       		.byte	0x1
 3054 187e 00       		.uleb128 0
 3055 187f 5F5F7374 		.ascii "__stdcall __attribute__((__stdcall__))\0"
 3055      6463616C 
 3055      6C205F5F 
 3055      61747472 
 3055      69627574 
 3056 18a6 01       		.byte	0x1
 3057 18a7 00       		.uleb128 0
 3058 18a8 5F5F6661 		.ascii "__fastcall __attribute__((__fastcall__))\0"
 3058      73746361 
 3058      6C6C205F 
 3058      5F617474 
 3058      72696275 
 3059 18d1 01       		.byte	0x1
 3060 18d2 00       		.uleb128 0
 3061 18d3 5F5F7468 		.ascii "__thiscall __attribute__((__thiscall__))\0"
 3061      69736361 
GAS LISTING C:\Users\PRESID~1\AppData\Local\Temp\ccblGL8o.s 			page 89


 3061      6C6C205F 
 3061      5F617474 
 3061      72696275 
 3062 18fc 01       		.byte	0x1
 3063 18fd 00       		.uleb128 0
 3064 18fe 5F5F6364 		.ascii "__cdecl __attribute__((__cdecl__))\0"
 3064      65636C20 
 3064      5F5F6174 
 3064      74726962 
 3064      7574655F 
 3065 1921 01       		.byte	0x1
 3066 1922 00       		.uleb128 0
 3067 1923 5F5F4758 		.ascii "__GXX_MERGED_TYPEINFO_NAMES 0\0"
 3067      585F4D45 
 3067      52474544 
 3067      5F545950 
 3067      45494E46 
 3068 1941 01       		.byte	0x1
 3069 1942 00       		.uleb128 0
 3070 1943 5F5F4758 		.ascii "__GXX_TYPEINFO_EQUALITY_INLINE 0\0"
 3070      585F5459 
 3070      5045494E 
 3070      464F5F45 
 3070      5155414C 
 3071 1964 01       		.byte	0x1
 3072 1965 00       		.uleb128 0
 3073 1966 5F5F4D53 		.ascii "__MSVCRT__ 1\0"
 3073      56435254 
 3073      5F5F2031 
 3073      00
 3074 1973 01       		.byte	0x1
 3075 1974 00       		.uleb128 0
 3076 1975 5F5F4D49 		.ascii "__MINGW32__ 1\0"
 3076      4E475733 
 3076      325F5F20 
 3076      3100
 3077 1983 01       		.byte	0x1
 3078 1984 00       		.uleb128 0
 3079 1985 5F57494E 		.ascii "_WIN32 1\0"
 3079      33322031 
 3079      00
 3080 198e 01       		.byte	0x1
 3081 198f 00       		.uleb128 0
 3082 1990 5F5F5749 		.ascii "__WIN32 1\0"
 3082      4E333220 
 3082      3100
 3083 199a 01       		.byte	0x1
 3084 199b 00       		.uleb128 0
 3085 199c 5F5F5749 		.ascii "__WIN32__ 1\0"
 3085      4E33325F 
 3085      5F203100 
 3086 19a8 01       		.byte	0x1
 3087 19a9 00       		.uleb128 0
 3088 19aa 5F5F5749 		.ascii "__WINNT 1\0"
 3088      4E4E5420 
 3088      3100
 3089 19b4 01       		.byte	0x1
GAS LISTING C:\Users\PRESID~1\AppData\Local\Temp\ccblGL8o.s 			page 90


 3090 19b5 00       		.uleb128 0
 3091 19b6 5F5F5749 		.ascii "__WINNT__ 1\0"
 3091      4E4E545F 
 3091      5F203100 
 3092 19c2 01       		.byte	0x1
 3093 19c3 00       		.uleb128 0
 3094 19c4 5F494E54 		.ascii "_INTEGRAL_MAX_BITS 64\0"
 3094      45475241 
 3094      4C5F4D41 
 3094      585F4249 
 3094      54532036 
 3095 19da 01       		.byte	0x1
 3096 19db 00       		.uleb128 0
 3097 19dc 5F5F6465 		.ascii "__declspec(x) __attribute__((x))\0"
 3097      636C7370 
 3097      65632878 
 3097      29205F5F 
 3097      61747472 
 3098 19fd 01       		.byte	0x1
 3099 19fe 00       		.uleb128 0
 3100 19ff 5F5F4445 		.ascii "__DECIMAL_BID_FORMAT__ 1\0"
 3100      43494D41 
 3100      4C5F4249 
 3100      445F464F 
 3100      524D4154 
 3101 1a18 01       		.byte	0x1
 3102 1a19 00       		.uleb128 0
 3103 1a1a 4346475F 		.ascii "CFG_PROCESSOR 3\0"
 3103      50524F43 
 3103      4553534F 
 3103      52203300 
 3104 1a2a 03       		.byte	0x3
 3105 1a2b 00       		.uleb128 0
 3106 1a2c 01       		.uleb128 0x1
 3107              		.file 9 "E:/NeuOrga/Programmieren/c_cpp/github_os/input/src/os_base/os_firstinc.h"
 3108 1a2d 03       		.byte	0x3
 3109 1a2e 01       		.uleb128 0x1
 3110 1a2f 09       		.uleb128 0x9
 3111 1a30 01       		.byte	0x1
 3112 1a31 02       		.uleb128 0x2
 3113 1a32 5F6F735F 		.ascii "_os_firstinc_h_ \0"
 3113      66697273 
 3113      74696E63 
 3113      5F685F20 
 3113      00
 3114 1a43 03       		.byte	0x3
 3115 1a44 04       		.uleb128 0x4
 3116 1a45 02       		.uleb128 0x2
 3117 1a46 01       		.byte	0x1
 3118 1a47 02       		.uleb128 0x2
 3119 1a48 5F424153 		.ascii "_BASE_TYPES_H_ \0"
 3119      455F5459 
 3119      5045535F 
 3119      485F2000 
 3120 1a58 01       		.byte	0x1
 3121 1a59 04       		.uleb128 0x4
 3122 1a5a 494E5445 		.ascii "INTEGER_LLP64_IL32P64 1\0"
GAS LISTING C:\Users\PRESID~1\AppData\Local\Temp\ccblGL8o.s 			page 91


 3122      4745525F 
 3122      4C4C5036 
 3122      345F494C 
 3122      33325036 
 3123 1a72 01       		.byte	0x1
 3124 1a73 05       		.uleb128 0x5
 3125 1a74 494E5445 		.ascii "INTEGER_LP64_I32LP64 2\0"
 3125      4745525F 
 3125      4C503634 
 3125      5F493332 
 3125      4C503634 
 3126 1a8b 01       		.byte	0x1
 3127 1a8c 06       		.uleb128 0x6
 3128 1a8d 494E5445 		.ascii "INTEGER_ILP64 3\0"
 3128      4745525F 
 3128      494C5036 
 3128      34203300 
 3129 1a9d 01       		.byte	0x1
 3130 1a9e 07       		.uleb128 0x7
 3131 1a9f 494E5445 		.ascii "INTEGER_SILP64 4\0"
 3131      4745525F 
 3131      53494C50 
 3131      36342034 
 3131      00
 3132 1ab0 01       		.byte	0x1
 3133 1ab1 09       		.uleb128 0x9
 3134 1ab2 4350505F 		.ascii "CPP_VERSION_NONE 0\0"
 3134      56455253 
 3134      494F4E5F 
 3134      4E4F4E45 
 3134      203000
 3135 1ac5 01       		.byte	0x1
 3136 1ac6 0A       		.uleb128 0xa
 3137 1ac7 4350505F 		.ascii "CPP_VERSION_1998 1\0"
 3137      56455253 
 3137      494F4E5F 
 3137      31393938 
 3137      203100
 3138 1ada 01       		.byte	0x1
 3139 1adb 0B       		.uleb128 0xb
 3140 1adc 4350505F 		.ascii "CPP_VERSION_2003 2\0"
 3140      56455253 
 3140      494F4E5F 
 3140      32303033 
 3140      203200
 3141 1aef 01       		.byte	0x1
 3142 1af0 0C       		.uleb128 0xc
 3143 1af1 4350505F 		.ascii "CPP_VERSION_2007 3\0"
 3143      56455253 
 3143      494F4E5F 
 3143      32303037 
 3143      203300
 3144 1b04 01       		.byte	0x1
 3145 1b05 0D       		.uleb128 0xd
 3146 1b06 4350505F 		.ascii "CPP_VERSION_2011 4\0"
 3146      56455253 
 3146      494F4E5F 
GAS LISTING C:\Users\PRESID~1\AppData\Local\Temp\ccblGL8o.s 			page 92


 3146      32303131 
 3146      203400
 3147 1b19 01       		.byte	0x1
 3148 1b1a 0E       		.uleb128 0xe
 3149 1b1b 49534F5F 		.ascii "ISO_CPP_VERSION CPP_VERSION_1998\0"
 3149      4350505F 
 3149      56455253 
 3149      494F4E20 
 3149      4350505F 
 3150 1b3c 01       		.byte	0x1
 3151 1b3d 10       		.uleb128 0x10
 3152 1b3e 494E5445 		.ascii "INTEGER_MODEL INTEGER_LLP64_IL32P64\0"
 3152      4745525F 
 3152      4D4F4445 
 3152      4C20494E 
 3152      54454745 
 3153 1b62 04       		.byte	0x4
 3154 1b63 03       		.byte	0x3
 3155 1b64 05       		.uleb128 0x5
 3156 1b65 03       		.uleb128 0x3
 3157 1b66 01       		.byte	0x1
 3158 1b67 02       		.uleb128 0x2
 3159 1b68 5F6F735F 		.ascii "_os_common_h_ \0"
 3159      636F6D6D 
 3159      6F6E5F68 
 3159      5F2000
 3160 1b77 01       		.byte	0x1
 3161 1b78 06       		.uleb128 0x6
 3162 1b79 46616C73 		.ascii "False 0\0"
 3162      65203000 
 3163 1b81 01       		.byte	0x1
 3164 1b82 07       		.uleb128 0x7
 3165 1b83 54727565 		.ascii "True 1\0"
 3165      203100
 3166 1b8a 01       		.byte	0x1
 3167 1b8b 08       		.uleb128 0x8
 3168 1b8c 46414C53 		.ascii "FALSE False\0"
 3168      45204661 
 3168      6C736500 
 3169 1b98 01       		.byte	0x1
 3170 1b99 09       		.uleb128 0x9
 3171 1b9a 54525545 		.ascii "TRUE True\0"
 3171      20547275 
 3171      6500
 3172 1ba4 01       		.byte	0x1
 3173 1ba5 0A       		.uleb128 0xa
 3174 1ba6 41636365 		.ascii "Accepted 1\0"
 3174      70746564 
 3174      203100
 3175 1bb1 01       		.byte	0x1
 3176 1bb2 0B       		.uleb128 0xb
 3177 1bb3 52656A65 		.ascii "Rejected 0\0"
 3177      63746564 
 3177      203000
 3178 1bbe 01       		.byte	0x1
 3179 1bbf 0C       		.uleb128 0xc
 3180 1bc0 4C6F6361 		.ascii "Local static\0"
GAS LISTING C:\Users\PRESID~1\AppData\Local\Temp\ccblGL8o.s 			page 93


 3180      6C207374 
 3180      61746963 
 3180      00
 3181 1bcd 01       		.byte	0x1
 3182 1bce 0D       		.uleb128 0xd
 3183 1bcf 4C6F6361 		.ascii "Local_inline static __inline__\0"
 3183      6C5F696E 
 3183      6C696E65 
 3183      20737461 
 3183      74696320 
 3184 1bee 01       		.byte	0x1
 3185 1bef 0E       		.uleb128 0xe
 3186 1bf0 476C6F62 		.ascii "Global_inline __inline__\0"
 3186      616C5F69 
 3186      6E6C696E 
 3186      65205F5F 
 3186      696E6C69 
 3187 1c09 01       		.byte	0x1
 3188 1c0a 0F       		.uleb128 0xf
 3189 1c0b 52656665 		.ascii "ReferenceUnusedParameter(x) ((x) = (x))\0"
 3189      72656E63 
 3189      65556E75 
 3189      73656450 
 3189      6172616D 
 3190 1c33 01       		.byte	0x1
 3191 1c34 12       		.uleb128 0x12
 3192 1c35 634D4355 		.ascii "cMCU_X86 3\0"
 3192      5F583836 
 3192      203300
 3193 1c40 01       		.byte	0x1
 3194 1c41 13       		.uleb128 0x13
 3195 1c42 634D4355 		.ascii "cMCU_CORTEX_M4 4\0"
 3195      5F434F52 
 3195      5445585F 
 3195      4D342034 
 3195      00
 3196 1c53 01       		.byte	0x1
 3197 1c54 16       		.uleb128 0x16
 3198 1c55 4E525F4F 		.ascii "NR_OF_CORES 1\0"
 3198      465F434F 
 3198      52455320 
 3198      3100
 3199 1c63 01       		.byte	0x1
 3200 1c64 18       		.uleb128 0x18
 3201 1c65 4D43555F 		.ascii "MCU_CLOCK_IN_HZ ((uint32)168000000u)\0"
 3201      434C4F43 
 3201      4B5F494E 
 3201      5F485A20 
 3201      28287569 
 3202 1c8a 01       		.byte	0x1
 3203 1c8b 1C       		.uleb128 0x1c
 3204 1c8c 44697361 		.ascii "DisableInterrupts() \0"
 3204      626C6549 
 3204      6E746572 
 3204      72757074 
 3204      73282920 
 3205 1ca1 01       		.byte	0x1
GAS LISTING C:\Users\PRESID~1\AppData\Local\Temp\ccblGL8o.s 			page 94


 3206 1ca2 1D       		.uleb128 0x1d
 3207 1ca3 456E6162 		.ascii "EnableInterrupts() \0"
 3207      6C65496E 
 3207      74657272 
 3207      75707473 
 3207      28292000 
 3208 1cb7 01       		.byte	0x1
 3209 1cb8 1E       		.uleb128 0x1e
 3210 1cb9 50726976 		.ascii "Privilige_level_save_current() \0"
 3210      696C6967 
 3210      655F6C65 
 3210      76656C5F 
 3210      73617665 
 3211 1cd9 01       		.byte	0x1
 3212 1cda 1F       		.uleb128 0x1f
 3213 1cdb 50726976 		.ascii "Privilige_level_enter_kernel_mode() \0"
 3213      696C6967 
 3213      655F6C65 
 3213      76656C5F 
 3213      656E7465 
 3214 1d00 01       		.byte	0x1
 3215 1d01 20       		.uleb128 0x20
 3216 1d02 50726976 		.ascii "Privilige_level_restore_saved() \0"
 3216      696C6967 
 3216      655F6C65 
 3216      76656C5F 
 3216      72657374 
 3217 1d23 01       		.byte	0x1
 3218 1d24 21       		.uleb128 0x21
 3219 1d25 48616C74 		.ascii "HaltMcu() \0"
 3219      4D637528 
 3219      292000
 3220 1d30 04       		.byte	0x4
 3221              		.file 10 "E:/NeuOrga/Programmieren/c_cpp/github_os/input/src/os_base/../os_sim/lld_global.h"
 3222 1d31 03       		.byte	0x3
 3223 1d32 08       		.uleb128 0x8
 3224 1d33 0A       		.uleb128 0xa
 3225 1d34 01       		.byte	0x1
 3226 1d35 02       		.uleb128 0x2
 3227 1d36 5F6C6C64 		.ascii "_lld_global_h_ \0"
 3227      5F676C6F 
 3227      62616C5F 
 3227      685F2000 
 3228 1d46 03       		.byte	0x3
 3229 1d47 04       		.uleb128 0x4
 3230 1d48 04       		.uleb128 0x4
 3231 1d49 01       		.byte	0x1
 3232 1d4a 02       		.uleb128 0x2
 3233 1d4b 5F6C6C64 		.ascii "_lld_core_h_ \0"
 3233      5F636F72 
 3233      655F685F 
 3233      2000
 3234              		.file 11 "E:/NeuOrga/Programmieren/c_cpp/github_os/input/src/os_base/../os_sim/../os_base/os_first
 3235 1d59 03       		.byte	0x3
 3236 1d5a 03       		.uleb128 0x3
 3237 1d5b 0B       		.uleb128 0xb
 3238 1d5c 04       		.byte	0x4
GAS LISTING C:\Users\PRESID~1\AppData\Local\Temp\ccblGL8o.s 			page 95


 3239 1d5d 04       		.byte	0x4
 3240              		.file 12 "E:/NeuOrga/Programmieren/c_cpp/github_os/input/src/os_base/../os_sim/lld_interrupt.h"
 3241 1d5e 03       		.byte	0x3
 3242 1d5f 05       		.uleb128 0x5
 3243 1d60 0C       		.uleb128 0xc
 3244 1d61 01       		.byte	0x1
 3245 1d62 02       		.uleb128 0x2
 3246 1d63 5F6C6C64 		.ascii "_lld_interrupt_h_ \0"
 3246      5F696E74 
 3246      65727275 
 3246      70745F68 
 3246      5F2000
 3247 1d76 01       		.byte	0x1
 3248 1d77 05       		.uleb128 0x5
 3249 1d78 6F735F69 		.ascii "os_interrupt_swi_1 asm(\"swi 1\")\0"
 3249      6E746572 
 3249      72757074 
 3249      5F737769 
 3249      5F312061 
 3250 1d98 01       		.byte	0x1
 3251 1d99 06       		.uleb128 0x6
 3252 1d9a 6F735F69 		.ascii "os_interrupt_swi_2 asm(\"swi 2\")\0"
 3252      6E746572 
 3252      72757074 
 3252      5F737769 
 3252      5F322061 
 3253 1dba 01       		.byte	0x1
 3254 1dbb 07       		.uleb128 0x7
 3255 1dbc 6F735F69 		.ascii "os_interrupt_swi_3 asm(\"swi 3\")\0"
 3255      6E746572 
 3255      72757074 
 3255      5F737769 
 3255      5F332061 
 3256 1ddc 01       		.byte	0x1
 3257 1ddd 08       		.uleb128 0x8
 3258 1dde 6F735F69 		.ascii "os_interrupt_swi_4 asm(\"swi 4\")\0"
 3258      6E746572 
 3258      72757074 
 3258      5F737769 
 3258      5F342061 
 3259 1dfe 01       		.byte	0x1
 3260 1dff 09       		.uleb128 0x9
 3261 1e00 6F735F69 		.ascii "os_interrupt_swi_5 asm(\"swi 5\")\0"
 3261      6E746572 
 3261      72757074 
 3261      5F737769 
 3261      5F352061 
 3262 1e20 04       		.byte	0x4
 3263              		.file 13 "E:/NeuOrga/Programmieren/c_cpp/github_os/input/src/os_base/../os_sim/lld_mmu.h"
 3264 1e21 03       		.byte	0x3
 3265 1e22 06       		.uleb128 0x6
 3266 1e23 0D       		.uleb128 0xd
 3267 1e24 01       		.byte	0x1
 3268 1e25 02       		.uleb128 0x2
 3269 1e26 5F6C6C64 		.ascii "_lld_mmu_h_ \0"
 3269      5F6D6D75 
 3269      5F685F20 
GAS LISTING C:\Users\PRESID~1\AppData\Local\Temp\ccblGL8o.s 			page 96


 3269      00
 3270 1e33 04       		.byte	0x4
 3271              		.file 14 "E:/NeuOrga/Programmieren/c_cpp/github_os/input/src/os_base/../os_sim/lld_timer.h"
 3272 1e34 03       		.byte	0x3
 3273 1e35 07       		.uleb128 0x7
 3274 1e36 0E       		.uleb128 0xe
 3275 1e37 01       		.byte	0x1
 3276 1e38 02       		.uleb128 0x2
 3277 1e39 5F6C6C64 		.ascii "_lld_timer_h_ \0"
 3277      5F74696D 
 3277      65725F68 
 3277      5F2000
 3278 1e48 04       		.byte	0x4
 3279              		.file 15 "E:/NeuOrga/Programmieren/c_cpp/github_os/input/src/os_base/../os_sim/lld_power.h"
 3280 1e49 03       		.byte	0x3
 3281 1e4a 08       		.uleb128 0x8
 3282 1e4b 0F       		.uleb128 0xf
 3283 1e4c 01       		.byte	0x1
 3284 1e4d 02       		.uleb128 0x2
 3285 1e4e 5F6C6C64 		.ascii "_lld_power_h_ \0"
 3285      5F706F77 
 3285      65725F68 
 3285      5F2000
 3286 1e5d 04       		.byte	0x4
 3287              		.file 16 "E:/NeuOrga/Programmieren/c_cpp/github_os/input/src/os_base/../os_sim/lld_ram.h"
 3288 1e5e 03       		.byte	0x3
 3289 1e5f 09       		.uleb128 0x9
 3290 1e60 10       		.uleb128 0x10
 3291 1e61 01       		.byte	0x1
 3292 1e62 02       		.uleb128 0x2
 3293 1e63 5F6C6C64 		.ascii "_lld_ram_h_ \0"
 3293      5F72616D 
 3293      5F685F20 
 3293      00
 3294 1e70 04       		.byte	0x4
 3295 1e71 03       		.byte	0x3
 3296 1e72 0A       		.uleb128 0xa
 3297 1e73 05       		.uleb128 0x5
 3298 1e74 01       		.byte	0x1
 3299 1e75 02       		.uleb128 0x2
 3300 1e76 5F6F735F 		.ascii "_os_task_common_h_ \0"
 3300      7461736B 
 3300      5F636F6D 
 3300      6D6F6E5F 
 3300      685F2000 
 3301 1e8a 03       		.byte	0x3
 3302 1e8b 03       		.uleb128 0x3
 3303 1e8c 0B       		.uleb128 0xb
 3304 1e8d 04       		.byte	0x4
 3305              		.file 17 "E:/NeuOrga/Programmieren/c_cpp/github_os/input/src/os_base/../os_sim/../os_base/os_task_
 3306 1e8e 03       		.byte	0x3
 3307 1e8f 04       		.uleb128 0x4
 3308 1e90 11       		.uleb128 0x11
 3309 1e91 01       		.byte	0x1
 3310 1e92 02       		.uleb128 0x2
 3311 1e93 5F6F735F 		.ascii "_os_task_config_h_ \0"
 3311      7461736B 
GAS LISTING C:\Users\PRESID~1\AppData\Local\Temp\ccblGL8o.s 			page 97


 3311      5F636F6E 
 3311      6669675F 
 3311      685F2000 
 3312 1ea7 01       		.byte	0x1
 3313 1ea8 05       		.uleb128 0x5
 3314 1ea9 53636865 		.ascii "SchedulerFrequency (1.0e3)\0"
 3314      64756C65 
 3314      72467265 
 3314      7175656E 
 3314      63792028 
 3315 1ec4 01       		.byte	0x1
 3316 1ec5 06       		.uleb128 0x6
 3317 1ec6 4D696E54 		.ascii "MinTimeSlice_s (1.0/SchedulerFrequency)\0"
 3317      696D6553 
 3317      6C696365 
 3317      5F732028 
 3317      312E302F 
 3318 1eee 01       		.byte	0x1
 3319 1eef 07       		.uleb128 0x7
 3320 1ef0 4D696E54 		.ascii "MinTimeSlice_us ((1.0/SchedulerFrequency)*1e6)\0"
 3320      696D6553 
 3320      6C696365 
 3320      5F757320 
 3320      2828312E 
 3321 1f1f 01       		.byte	0x1
 3322 1f20 08       		.uleb128 0x8
 3323 1f21 5461736B 		.ascii "Task_min_time (1e0)\0"
 3323      5F6D696E 
 3323      5F74696D 
 3323      65202831 
 3323      65302900 
 3324 1f35 01       		.byte	0x1
 3325 1f36 09       		.uleb128 0x9
 3326 1f37 4E554D42 		.ascii "NUMBER_OF_TASKS 5\0"
 3326      45525F4F 
 3326      465F5441 
 3326      534B5320 
 3326      3500
 3327 1f49 01       		.byte	0x1
 3328 1f4a 0A       		.uleb128 0xa
 3329 1f4b 4D41585F 		.ascii "MAX_RUN_QUEUE_SIZE (NUMBER_OF_TASKS)\0"
 3329      52554E5F 
 3329      51554555 
 3329      455F5349 
 3329      5A452028 
 3330 1f70 01       		.byte	0x1
 3331 1f71 0B       		.uleb128 0xb
 3332 1f72 4D41585F 		.ascii "MAX_RUN_PQUEUE_SIZE MAX_RUN_QUEUE_SIZE\0"
 3332      52554E5F 
 3332      50515545 
 3332      55455F53 
 3332      495A4520 
 3333 1f99 01       		.byte	0x1
 3334 1f9a 0D       		.uleb128 0xd
 3335 1f9b 5441534B 		.ascii "TASK_STACK_SIZE 200\0"
 3335      5F535441 
 3335      434B5F53 
GAS LISTING C:\Users\PRESID~1\AppData\Local\Temp\ccblGL8o.s 			page 98


 3335      495A4520 
 3335      32303000 
 3336 1faf 01       		.byte	0x1
 3337 1fb0 10       		.uleb128 0x10
 3338 1fb1 4D535F50 		.ascii "MS_PER_SEC (1000)\0"
 3338      45525F53 
 3338      45432028 
 3338      31303030 
 3338      2900
 3339 1fc3 01       		.byte	0x1
 3340 1fc4 11       		.uleb128 0x11
 3341 1fc5 5553455F 		.ascii "USE_STATIC_CREATED_TASKS True\0"
 3341      53544154 
 3341      49435F43 
 3341      52454154 
 3341      45445F54 
 3342 1fe3 04       		.byte	0x4
 3343              		.file 18 "E:/NeuOrga/Programmieren/c_cpp/github_os/input/src/os_base/../os_sim/../os_base/os_init_
 3344 1fe4 03       		.byte	0x3
 3345 1fe5 05       		.uleb128 0x5
 3346 1fe6 12       		.uleb128 0x12
 3347 1fe7 01       		.byte	0x1
 3348 1fe8 02       		.uleb128 0x2
 3349 1fe9 5F6F735F 		.ascii "_os_init_task_system_h_ \0"
 3349      696E6974 
 3349      5F746173 
 3349      6B5F7379 
 3349      7374656D 
 3350 2002 04       		.byte	0x4
 3351 2003 01       		.byte	0x1
 3352 2004 5D       		.uleb128 0x5d
 3353 2005 6F735F53 		.ascii "os_SaveTaskPtr(task_ptr,task_name) (TASK_PTR[(task_name)] = (task_ptr))\0"
 3353      61766554 
 3353      61736B50 
 3353      74722874 
 3353      61736B5F 
 3354 204d 01       		.byte	0x1
 3355 204e 5E       		.uleb128 0x5e
 3356 204f 6F735F47 		.ascii "os_GetTaskPtr(task_name) ((task_t*) TASK_PTR[(task_name)])\0"
 3356      65745461 
 3356      736B5074 
 3356      72287461 
 3356      736B5F6E 
 3357 208a 04       		.byte	0x4
 3358 208b 04       		.byte	0x4
 3359              		.file 19 "E:/NeuOrga/Programmieren/c_cpp/github_os/input/src/os_base/../os_user_code/led.h"
 3360 208c 03       		.byte	0x3
 3361 208d 0C       		.uleb128 0xc
 3362 208e 13       		.uleb128 0x13
 3363 208f 01       		.byte	0x1
 3364 2090 02       		.uleb128 0x2
 3365 2091 5F4C4544 		.ascii "_LED_H_ \0"
 3365      5F485F20 
 3365      00
 3366 209a 04       		.byte	0x4
 3367 209b 03       		.byte	0x3
 3368 209c 0E       		.uleb128 0xe
GAS LISTING C:\Users\PRESID~1\AppData\Local\Temp\ccblGL8o.s 			page 99


 3369 209d 08       		.uleb128 0x8
 3370 209e 01       		.byte	0x1
 3371 209f 02       		.uleb128 0x2
 3372 20a0 5F4F535F 		.ascii "_OS_RAM_H_ \0"
 3372      52414D5F 
 3372      485F2000 
 3373              		.file 20 "E:/NeuOrga/Programmieren/c_cpp/github_os/input/src/os_base/../os_base/os_firstinc.h"
 3374 20ac 03       		.byte	0x3
 3375 20ad 04       		.uleb128 0x4
 3376 20ae 14       		.uleb128 0x14
 3377 20af 04       		.byte	0x4
 3378              		.file 21 "E:/NeuOrga/Programmieren/c_cpp/github_os/input/src/os_base/../os_base/os_stack.h"
 3379 20b0 03       		.byte	0x3
 3380 20b1 05       		.uleb128 0x5
 3381 20b2 15       		.uleb128 0x15
 3382 20b3 01       		.byte	0x1
 3383 20b4 02       		.uleb128 0x2
 3384 20b5 5F6F735F 		.ascii "_os_stack_h_ \0"
 3384      73746163 
 3384      6B5F685F 
 3384      2000
 3385 20c3 01       		.byte	0x1
 3386 20c4 04       		.uleb128 0x4
 3387 20c5 4F535F53 		.ascii "OS_STACK_SIZE 0x100\0"
 3387      5441434B 
 3387      5F53495A 
 3387      45203078 
 3387      31303000 
 3388 20d9 01       		.byte	0x1
 3389 20da 06       		.uleb128 0x6
 3390 20db 4F535F53 		.ascii "OS_STACK_SIZE_END 0x01u\0"
 3390      5441434B 
 3390      5F53495A 
 3390      455F454E 
 3390      44203078 
 3391 20f3 04       		.byte	0x4
 3392              		.file 22 "E:/NeuOrga/Programmieren/c_cpp/github_os/input/src/os_base/../os_base/os_heap.h"
 3393 20f4 03       		.byte	0x3
 3394 20f5 06       		.uleb128 0x6
 3395 20f6 16       		.uleb128 0x16
 3396 20f7 01       		.byte	0x1
 3397 20f8 02       		.uleb128 0x2
 3398 20f9 5F6F735F 		.ascii "_os_heap_h_ \0"
 3398      68656170 
 3398      5F685F20 
 3398      00
 3399 2106 01       		.byte	0x1
 3400 2107 05       		.uleb128 0x5
 3401 2108 48454150 		.ascii "HEAP_SIZE 10000\0"
 3401      5F53495A 
 3401      45203130 
 3401      30303000 
 3402 2118 01       		.byte	0x1
 3403 2119 06       		.uleb128 0x6
 3404 211a 4D494E5F 		.ascii "MIN_BLOCK_SIZE_HEAP 8\0"
 3404      424C4F43 
 3404      4B5F5349 
GAS LISTING C:\Users\PRESID~1\AppData\Local\Temp\ccblGL8o.s 			page 100


 3404      5A455F48 
 3404      45415020 
 3405 2130 01       		.byte	0x1
 3406 2131 09       		.uleb128 0x9
 3407 2132 48454150 		.ascii "HEAP_OFFSET_FOR_SIZE 0\0"
 3407      5F4F4646 
 3407      5345545F 
 3407      464F525F 
 3407      53495A45 
 3408 2149 01       		.byte	0x1
 3409 214a 0A       		.uleb128 0xa
 3410 214b 48454150 		.ascii "HEAP_OFFSET_FOR_USED_SIZE 4\0"
 3410      5F4F4646 
 3410      5345545F 
 3410      464F525F 
 3410      55534544 
 3411 2167 01       		.byte	0x1
 3412 2168 0B       		.uleb128 0xb
 3413 2169 48454150 		.ascii "HEAP_OFFSET_FOR_CHUNK 8\0"
 3413      5F4F4646 
 3413      5345545F 
 3413      464F525F 
 3413      4348554E 
 3414 2181 04       		.byte	0x4
 3415              		.file 23 "E:/NeuOrga/Programmieren/c_cpp/github_os/input/src/os_base/../os_base/os_main.h"
 3416 2182 03       		.byte	0x3
 3417 2183 07       		.uleb128 0x7
 3418 2184 17       		.uleb128 0x17
 3419 2185 01       		.byte	0x1
 3420 2186 02       		.uleb128 0x2
 3421 2187 5F6F735F 		.ascii "_os_main_h_ \0"
 3421      6D61696E 
 3421      5F685F20 
 3421      00
 3422 2194 01       		.byte	0x1
 3423 2195 03       		.uleb128 0x3
 3424 2196 6F735F69 		.ascii "os_init 0\0"
 3424      6E697420 
 3424      3000
 3425 21a0 01       		.byte	0x1
 3426 21a1 04       		.uleb128 0x4
 3427 21a2 6F735F72 		.ascii "os_running 1\0"
 3427      756E6E69 
 3427      6E672031 
 3427      00
 3428 21af 01       		.byte	0x1
 3429 21b0 05       		.uleb128 0x5
 3430 21b1 6F735F73 		.ascii "os_shutdown 2\0"
 3430      68757464 
 3430      6F776E20 
 3430      3200
 3431 21bf 04       		.byte	0x4
 3432              		.file 24 "E:/NeuOrga/Programmieren/c_cpp/github_os/input/src/os_base/../os_base/os_task_config.h"
 3433 21c0 03       		.byte	0x3
 3434 21c1 08       		.uleb128 0x8
 3435 21c2 18       		.uleb128 0x18
 3436 21c3 04       		.byte	0x4
GAS LISTING C:\Users\PRESID~1\AppData\Local\Temp\ccblGL8o.s 			page 101


 3437              		.file 25 "E:/NeuOrga/Programmieren/c_cpp/github_os/input/src/os_base/../os_base/os_task_common.h"
 3438 21c4 03       		.byte	0x3
 3439 21c5 09       		.uleb128 0x9
 3440 21c6 19       		.uleb128 0x19
 3441 21c7 04       		.byte	0x4
 3442 21c8 04       		.byte	0x4
 3443 21c9 04       		.byte	0x4
 3444              		.file 26 "E:/NeuOrga/Programmieren/c_cpp/github_os/input/src/os_base/os_common.h"
 3445 21ca 03       		.byte	0x3
 3446 21cb 02       		.uleb128 0x2
 3447 21cc 1A       		.uleb128 0x1a
 3448 21cd 04       		.byte	0x4
 3449              		.file 27 "E:/NeuOrga/Programmieren/c_cpp/github_os/input/src/os_base/os_task_common.h"
 3450 21ce 03       		.byte	0x3
 3451 21cf 03       		.uleb128 0x3
 3452 21d0 1B       		.uleb128 0x1b
 3453 21d1 04       		.byte	0x4
 3454 21d2 03       		.byte	0x3
 3455 21d3 04       		.uleb128 0x4
 3456 21d4 06       		.uleb128 0x6
 3457 21d5 01       		.byte	0x1
 3458 21d6 02       		.uleb128 0x2
 3459 21d7 5F6F735F 		.ascii "_os_task_scheduler_h_ \0"
 3459      7461736B 
 3459      5F736368 
 3459      6564756C 
 3459      65725F68 
 3460 21ee 01       		.byte	0x1
 3461 21ef 07       		.uleb128 0x7
 3462 21f0 5461736B 		.ascii "Task_0_ptr 0\0"
 3462      5F305F70 
 3462      74722030 
 3462      00
 3463 21fd 01       		.byte	0x1
 3464 21fe 08       		.uleb128 0x8
 3465 21ff 5461736B 		.ascii "Task_1_ptr 1\0"
 3465      5F315F70 
 3465      74722031 
 3465      00
 3466 220c 01       		.byte	0x1
 3467 220d 09       		.uleb128 0x9
 3468 220e 5461736B 		.ascii "Task_2_ptr 2\0"
 3468      5F325F70 
 3468      74722032 
 3468      00
 3469 221b 01       		.byte	0x1
 3470 221c 0A       		.uleb128 0xa
 3471 221d 5461736B 		.ascii "Task_3_ptr 3\0"
 3471      5F335F70 
 3471      74722033 
 3471      00
 3472 222a 01       		.byte	0x1
 3473 222b 0C       		.uleb128 0xc
 3474 222c 4F535F53 		.ascii "OS_SaveTaskPtr(task_ptr,Task_n_ptr) \0"
 3474      61766554 
 3474      61736B50 
 3474      74722874 
GAS LISTING C:\Users\PRESID~1\AppData\Local\Temp\ccblGL8o.s 			page 102


 3474      61736B5F 
 3475 2251 04       		.byte	0x4
 3476 2252 03       		.byte	0x3
 3477 2253 05       		.uleb128 0x5
 3478 2254 07       		.uleb128 0x7
 3479 2255 01       		.byte	0x1
 3480 2256 02       		.uleb128 0x2
 3481 2257 5F6F735F 		.ascii "_os_task_queue_h_ \0"
 3481      7461736B 
 3481      5F717565 
 3481      75655F68 
 3481      5F2000
 3482 226a 01       		.byte	0x1
 3483 226b 06       		.uleb128 0x6
 3484 226c 46697273 		.ascii "First_task (0)\0"
 3484      745F7461 
 3484      736B2028 
 3484      302900
 3485 227b 01       		.byte	0x1
 3486 227c 07       		.uleb128 0x7
 3487 227d 4C617374 		.ascii "Last_task (MAX_RUN_QUEUE_SIZE-1)\0"
 3487      5F746173 
 3487      6B20284D 
 3487      41585F52 
 3487      554E5F51 
 3488 229e 01       		.byte	0x1
 3489 229f 09       		.uleb128 0x9
 3490 22a0 466F725F 		.ascii "For_all_tasks_in_queue(var) for((var) = First_task; (var) <= Last_task; (var)++)\0"
 3490      616C6C5F 
 3490      7461736B 
 3490      735F696E 
 3490      5F717565 
 3491 22f1 04       		.byte	0x4
 3492              		.file 28 "E:/NeuOrga/Programmieren/c_cpp/github_os/input/src/os_base/os_stack.h"
 3493 22f2 03       		.byte	0x3
 3494 22f3 06       		.uleb128 0x6
 3495 22f4 1C       		.uleb128 0x1c
 3496 22f5 04       		.byte	0x4
 3497 22f6 01       		.byte	0x1
 3498 22f7 1F       		.uleb128 0x1f
 3499 22f8 53595354 		.ascii "SYSTICK_CTRL_STAT_REG ((uint32*)0xE000E010)\0"
 3499      49434B5F 
 3499      4354524C 
 3499      5F535441 
 3499      545F5245 
 3500 2324 01       		.byte	0x1
 3501 2325 20       		.uleb128 0x20
 3502 2326 53595354 		.ascii "SYSTICK_RLD_VAL_REG ((uint32*)0xE000E014)\0"
 3502      49434B5F 
 3502      524C445F 
 3502      56414C5F 
 3502      52454720 
 3503 2350 01       		.byte	0x1
 3504 2351 21       		.uleb128 0x21
 3505 2352 53595354 		.ascii "SYSTICK_CURRENT_VAL_REG ((uint32*)0xE000E018)\0"
 3505      49434B5F 
 3505      43555252 
GAS LISTING C:\Users\PRESID~1\AppData\Local\Temp\ccblGL8o.s 			page 103


 3505      454E545F 
 3505      56414C5F 
 3506 2380 01       		.byte	0x1
 3507 2381 22       		.uleb128 0x22
 3508 2382 53595354 		.ascii "SYSTICK_STAT_REG_TICKINT ((uint32)0x00000002)\0"
 3508      49434B5F 
 3508      53544154 
 3508      5F524547 
 3508      5F544943 
 3509 23b0 01       		.byte	0x1
 3510 23b1 23       		.uleb128 0x23
 3511 23b2 53595354 		.ascii "SYSTICK_STAT_REG_ENABLE ((uint32)0x00000001)\0"
 3511      49434B5F 
 3511      53544154 
 3511      5F524547 
 3511      5F454E41 
 3512 23df 01       		.byte	0x1
 3513 23e0 24       		.uleb128 0x24
 3514 23e1 4C4F4F50 		.ascii "LOOPTIME_IN_USEC ((uint32)10000u)\0"
 3514      54494D45 
 3514      5F494E5F 
 3514      55534543 
 3514      20282875 
 3515 2403 04       		.byte	0x4
 3516 2404 00       		.byte	0
 3517              		.section	.debug_line,"dr"
 3518              	Ldebug_line0:
 3519 0000 BA040000 		.section	.debug_str,"dr"
 3519      02004A03 
 3519      00000101 
 3519      FB0E0D00 
 3519      01010101 
 3520              	LASF1:
 3521 0000 7461736B 		.ascii "task\0"
 3521      00
 3522              	LASF2:
 3523 0005 7461736B 		.ascii "task_ptr\0"
 3523      5F707472 
 3523      00
 3524              	LASF0:
 3525 000e 6578655F 		.ascii "exe_time\0"
 3525      74696D65 
 3525      00
 3526              		.ident	"GCC: (GNU) 4.9.3"
GAS LISTING C:\Users\PRESID~1\AppData\Local\Temp\ccblGL8o.s 			page 104


DEFINED SYMBOLS
                            *ABS*:00000000 os_task_scheduler.c
C:\Users\PRESID~1\AppData\Local\Temp\ccblGL8o.s:6      .text:00000000 _OS_ACTIVATE_DISPATCHER
C:\Users\PRESID~1\AppData\Local\Temp\ccblGL8o.s:25     .text:00000005 _OS_SLEEPTASK
C:\Users\PRESID~1\AppData\Local\Temp\ccblGL8o.s:51     .text:0000001f _task_state_request
C:\Users\PRESID~1\AppData\Local\Temp\ccblGL8o.s:197    .text:00000116 _OS_ActivateTask
C:\Users\PRESID~1\AppData\Local\Temp\ccblGL8o.s:295    .text:000001d4 _OS_STARTTASK
C:\Users\PRESID~1\AppData\Local\Temp\ccblGL8o.s:403    .text:000002cb _OS_TERMINATE_TASK
C:\Users\PRESID~1\AppData\Local\Temp\ccblGL8o.s:485    .text:00000385 _OS_TASK_DISPATCHER
C:\Users\PRESID~1\AppData\Local\Temp\ccblGL8o.s:523    .text:000003c0 _TASK_0
C:\Users\PRESID~1\AppData\Local\Temp\ccblGL8o.s:540    .text:000003c5 _TASK_1
C:\Users\PRESID~1\AppData\Local\Temp\ccblGL8o.s:565    .text:000003eb _TASK_2
C:\Users\PRESID~1\AppData\Local\Temp\ccblGL8o.s:584    .text:000003fb _TASK_3
C:\Users\PRESID~1\AppData\Local\Temp\ccblGL8o.s:604    .text:0000040b _OS_INIT_TASKS
C:\Users\PRESID~1\AppData\Local\Temp\ccblGL8o.s:929    .bss:00000040 _task_0.1376
C:\Users\PRESID~1\AppData\Local\Temp\ccblGL8o.s:924    .bss:00000000 _TASK_GROUP_1.1380
C:\Users\PRESID~1\AppData\Local\Temp\ccblGL8o.s:930    .bss:000000c0 _task_1.1377
C:\Users\PRESID~1\AppData\Local\Temp\ccblGL8o.s:931    .bss:00000140 _task_2.1378
C:\Users\PRESID~1\AppData\Local\Temp\ccblGL8o.s:925    .bss:00000008 _TASK_GROUP_2.1381
C:\Users\PRESID~1\AppData\Local\Temp\ccblGL8o.s:932    .bss:000001c0 _task_3.1379
C:\Users\PRESID~1\AppData\Local\Temp\ccblGL8o.s:926    .bss:00000010 _TASK_GROUP_3.1382
C:\Users\PRESID~1\AppData\Local\Temp\ccblGL8o.s:693    .text:0000059c _OS_TaskScheduler
C:\Users\PRESID~1\AppData\Local\Temp\ccblGL8o.s:933    .bss:00000224 _link_list_member.1392
C:\Users\PRESID~1\AppData\Local\Temp\ccblGL8o.s:934    .bss:00000228 _task.1389
C:\Users\PRESID~1\AppData\Local\Temp\ccblGL8o.s:934    .bss:0000022c _Winner_prio.1390
C:\Users\PRESID~1\AppData\Local\Temp\ccblGL8o.s:905    .text:000007aa _ISR_TASK_DISPATCH_C0
C:\Users\PRESID~1\AppData\Local\Temp\ccblGL8o.s:927    .bss:00000018 _TASK_GROUP_4.1383
C:\Users\PRESID~1\AppData\Local\Temp\ccblGL8o.s:928    .bss:00000020 _TASK_GROUP_5.1384

UNDEFINED SYMBOLS
_OS_STACK
_TASK1_CALL_NR
_TASK2_CALL_NR
_TASK3_CALL_NR
_LAST_CURRENT_TIME
_TASK_STACK
_Get_current_time
_OS_SET_SW_BUG
_AddToTaskQueue
_AddToLinkList
_UpdateLinkList
_AddToIdleTaskQueue
_GET_CORE_ID
_OS_TASK_SAVE_SYSTEM_STACK
_OS_TASK_RESTORETASK_ENVIRONMENT
_SET_RUNNING_TASK
_LLF_CHANGE_TO_UNPRIVILIGED_THREAD_MODE
_OS_TASK_SAVETASK_ENVIRONMENT
_OS_TASK_RESTORE_SYSTEM_STACK
_GetRunningTask
_OS_INIT_TASK_QUEUE
_OS_INIT_TASK
_GetFromLinkList
_GetFromTaskQueue
_GetIdleTask
