GAS LISTING C:\Users\PRESID~1\AppData\Local\Temp\cc1SpG1Y.s 			page 1


   1              		.file	"os_task_queue.c"
   2              		.text
   3              	Ltext0:
   4              		.globl	_SET_RUNNING_TASK
   6              	_SET_RUNNING_TASK:
   7              	LFB0:
   8              		.file 1 "C:/Users/president/Desktop/sbx/input/src/os_base/os_task_queue.c"
   1:C:/Users/president/Desktop/sbx/input/src/os_base\os_task_queue.c **** #include "os_firstinc.h"
   2:C:/Users/president/Desktop/sbx/input/src/os_base\os_task_queue.c **** #include "os_task_common.h"
   3:C:/Users/president/Desktop/sbx/input/src/os_base\os_task_queue.c **** #include "os_task_queue.h"
   4:C:/Users/president/Desktop/sbx/input/src/os_base\os_task_queue.c **** #include "os_task_scheduler.h"
   5:C:/Users/president/Desktop/sbx/input/src/os_base\os_task_queue.c **** 
   6:C:/Users/president/Desktop/sbx/input/src/os_base\os_task_queue.c **** 
   7:C:/Users/president/Desktop/sbx/input/src/os_base\os_task_queue.c **** 
   8:C:/Users/president/Desktop/sbx/input/src/os_base\os_task_queue.c **** 
   9:C:/Users/president/Desktop/sbx/input/src/os_base\os_task_queue.c **** 
  10:C:/Users/president/Desktop/sbx/input/src/os_base\os_task_queue.c **** /* index 0: current task, 1,2,3,4: next tasks to be executed */
  11:C:/Users/president/Desktop/sbx/input/src/os_base\os_task_queue.c **** /*
  12:C:/Users/president/Desktop/sbx/input/src/os_base\os_task_queue.c **** 1. after execution of task finished(OS_TERMINATE_TASK):
  13:C:/Users/president/Desktop/sbx/input/src/os_base\os_task_queue.c ****  - delete run_queue_element         (DELETE_FROM_TASK_QUEUE)
  14:C:/Users/president/Desktop/sbx/input/src/os_base\os_task_queue.c ****  - delete Scheduling queue entry    (DELETE_FROM_SCHEDULING_QUEUE)
  15:C:/Users/president/Desktop/sbx/input/src/os_base\os_task_queue.c ****  - shift pointers towards index 0   (UpdateSchedulingQueue)
  16:C:/Users/president/Desktop/sbx/input/src/os_base\os_task_queue.c **** 
  17:C:/Users/president/Desktop/sbx/input/src/os_base\os_task_queue.c **** 
  18:C:/Users/president/Desktop/sbx/input/src/os_base\os_task_queue.c ****  2. to add new task (ActivateTask):
  19:C:/Users/president/Desktop/sbx/input/src/os_base\os_task_queue.c ****  - add element to run_queue at first free element (ADD_TO_TASK_QUEUE)
  20:C:/Users/president/Desktop/sbx/input/src/os_base\os_task_queue.c ****  - add a reference to the scheduling Queue         (ADD_TO_SCHEDULING_QUEUE)
  21:C:/Users/president/Desktop/sbx/input/src/os_base\os_task_queue.c **** 
  22:C:/Users/president/Desktop/sbx/input/src/os_base\os_task_queue.c ****  3. to start task:
  23:C:/Users/president/Desktop/sbx/input/src/os_base\os_task_queue.c **** - start the task at index = 0                     (GET_FROM_TASK_QUEUE)
  24:C:/Users/president/Desktop/sbx/input/src/os_base\os_task_queue.c **** 
  25:C:/Users/president/Desktop/sbx/input/src/os_base\os_task_queue.c ****  4. to preempt task:
  26:C:/Users/president/Desktop/sbx/input/src/os_base\os_task_queue.c **** - take element of index = 0 of SchedulingQueue and save it somewhere else  (UpdateSchedulingQueue)
  27:C:/Users/president/Desktop/sbx/input/src/os_base\os_task_queue.c **** - shift all entries in SchedulingQueue to 0 by 1                           (UpdateSchedulingQueue)
  28:C:/Users/president/Desktop/sbx/input/src/os_base\os_task_queue.c **** - add saved element at first free entry in SchedulingQueue                 (UpdateSchedulingQueue)
  29:C:/Users/president/Desktop/sbx/input/src/os_base\os_task_queue.c **** - eliminate empty SchedulingQueue entries                                  (UpdateSchedulingQueue)
  30:C:/Users/president/Desktop/sbx/input/src/os_base\os_task_queue.c ****  */
  31:C:/Users/president/Desktop/sbx/input/src/os_base\os_task_queue.c **** 
  32:C:/Users/president/Desktop/sbx/input/src/os_base\os_task_queue.c **** 
  33:C:/Users/president/Desktop/sbx/input/src/os_base\os_task_queue.c **** void SET_RUNNING_TASK(task_t* task, scheduling_t* scheduling_task)
  34:C:/Users/president/Desktop/sbx/input/src/os_base\os_task_queue.c **** {
   9              		.loc 1 34 1
  10              		.cfi_startproc
  11 0000 55       		pushl	%ebp
  12              		.cfi_def_cfa_offset 8
  13              		.cfi_offset 5, -8
  14 0001 89E5     		movl	%esp, %ebp
  15              		.cfi_def_cfa_register 5
  16 0003 83EC18   		subl	$24, %esp
  35:C:/Users/president/Desktop/sbx/input/src/os_base\os_task_queue.c ****    RUNNING_SCHEDULING_QUEUE_ENTRY = scheduling_task;
  17              		.loc 1 35 35
  18 0006 8B450C   		movl	12(%ebp), %eax
  19 0009 A3000000 		movl	%eax, _RUNNING_SCHEDULING_QUEUE_ENTRY
  19      00
  36:C:/Users/president/Desktop/sbx/input/src/os_base\os_task_queue.c ****    if(task != NULL)
  20              		.loc 1 36 6
  21 000e 837D0800 		cmpl	$0, 8(%ebp)
GAS LISTING C:\Users\PRESID~1\AppData\Local\Temp\cc1SpG1Y.s 			page 2


  22 0012 0F84E501 		je	L3
  22      0000
  37:C:/Users/president/Desktop/sbx/input/src/os_base\os_task_queue.c ****    {
  38:C:/Users/president/Desktop/sbx/input/src/os_base\os_task_queue.c ****       (&RUNNING_TASK[0u])->active                             = task->active;
  23              		.loc 1 38 69
  24 0018 8B4508   		movl	8(%ebp), %eax
  25 001b 8A00     		movb	(%eax), %al
  26 001d 83E001   		andl	$1, %eax
  27              		.loc 1 38 63
  28 0020 83E001   		andl	$1, %eax
  29 0023 88C2     		movb	%al, %dl
  30 0025 A0000000 		movb	_RUNNING_TASK, %al
  30      00
  31 002a 83E0FE   		andl	$-2, %eax
  32 002d 09D0     		orl	%edx, %eax
  33 002f A2000000 		movb	%al, _RUNNING_TASK
  33      00
  39:C:/Users/president/Desktop/sbx/input/src/os_base\os_task_queue.c ****       (&RUNNING_TASK[0u])->task_queued                        = task->task_queued;
  34              		.loc 1 39 69
  35 0034 8B4508   		movl	8(%ebp), %eax
  36 0037 8A00     		movb	(%eax), %al
  37 0039 D0E8     		shrb	%al
  38 003b 83E001   		andl	$1, %eax
  39              		.loc 1 39 63
  40 003e 83E001   		andl	$1, %eax
  41 0041 8D1400   		leal	(%eax,%eax), %edx
  42 0044 A0000000 		movb	_RUNNING_TASK, %al
  42      00
  43 0049 83E0FD   		andl	$-3, %eax
  44 004c 09D0     		orl	%edx, %eax
  45 004e A2000000 		movb	%al, _RUNNING_TASK
  45      00
  40:C:/Users/president/Desktop/sbx/input/src/os_base\os_task_queue.c ****       (&RUNNING_TASK[0u])->idle_task                          = task->idle_task;
  46              		.loc 1 40 69
  47 0053 8B4508   		movl	8(%ebp), %eax
  48 0056 8A00     		movb	(%eax), %al
  49 0058 C0E802   		shrb	$2, %al
  50 005b 83E001   		andl	$1, %eax
  51              		.loc 1 40 63
  52 005e 83E001   		andl	$1, %eax
  53 0061 8D148500 		leal	0(,%eax,4), %edx
  53      000000
  54 0068 A0000000 		movb	_RUNNING_TASK, %al
  54      00
  55 006d 83E0FB   		andl	$-5, %eax
  56 0070 09D0     		orl	%edx, %eax
  57 0072 A2000000 		movb	%al, _RUNNING_TASK
  57      00
  41:C:/Users/president/Desktop/sbx/input/src/os_base\os_task_queue.c ****       (&RUNNING_TASK[0u])->free                               = task->free;
  58              		.loc 1 41 69
  59 0077 8B4508   		movl	8(%ebp), %eax
  60 007a 8B00     		movl	(%eax), %eax
  61 007c C1E803   		shrl	$3, %eax
  62              		.loc 1 41 63
  63 007f 8D14C500 		leal	0(,%eax,8), %edx
  63      000000
  64 0086 A1000000 		movl	_RUNNING_TASK, %eax
GAS LISTING C:\Users\PRESID~1\AppData\Local\Temp\cc1SpG1Y.s 			page 3


  64      00
  65 008b 83E007   		andl	$7, %eax
  66 008e 09D0     		orl	%edx, %eax
  67 0090 A3000000 		movl	%eax, _RUNNING_TASK
  67      00
  42:C:/Users/president/Desktop/sbx/input/src/os_base\os_task_queue.c ****       (&RUNNING_TASK[0u])->nr_of_ins_allowed                  = task->nr_of_ins_allowed;
  68              		.loc 1 42 69
  69 0095 8B4508   		movl	8(%ebp), %eax
  70 0098 8A4004   		movb	4(%eax), %al
  71              		.loc 1 42 63
  72 009b A2040000 		movb	%al, _RUNNING_TASK+4
  72      00
  43:C:/Users/president/Desktop/sbx/input/src/os_base\os_task_queue.c ****       (&RUNNING_TASK[0u])->nr_of_ins_activated                = task->nr_of_ins_activated;
  73              		.loc 1 43 69
  74 00a0 8B4508   		movl	8(%ebp), %eax
  75 00a3 8A4005   		movb	5(%eax), %al
  76              		.loc 1 43 63
  77 00a6 A2050000 		movb	%al, _RUNNING_TASK+5
  77      00
  44:C:/Users/president/Desktop/sbx/input/src/os_base\os_task_queue.c ****       ASSIGN(&(&RUNNING_TASK[0u])->wait_act_until, &task->wait_act_until);
  78              		.loc 1 44 52
  79 00ab 8B4508   		movl	8(%ebp), %eax
  80 00ae 83C006   		addl	$6, %eax
  81              		.loc 1 44 7
  82 00b1 89442404 		movl	%eax, 4(%esp)
  83 00b5 C7042406 		movl	$_RUNNING_TASK+6, (%esp)
  83      000000
  84 00bc E8000000 		call	_ASSIGN
  84      00
  45:C:/Users/president/Desktop/sbx/input/src/os_base\os_task_queue.c ****       ASSIGN(&(&RUNNING_TASK[0u])->wait_time, &task->wait_time);
  85              		.loc 1 45 47
  86 00c1 8B4508   		movl	8(%ebp), %eax
  87 00c4 83C016   		addl	$22, %eax
  88              		.loc 1 45 7
  89 00c7 89442404 		movl	%eax, 4(%esp)
  90 00cb C7042416 		movl	$_RUNNING_TASK+22, (%esp)
  90      000000
  91 00d2 E8000000 		call	_ASSIGN
  91      00
  46:C:/Users/president/Desktop/sbx/input/src/os_base\os_task_queue.c ****       ASSIGN(&(&RUNNING_TASK[0u])->time_to_prio_inc, &task->time_to_prio_inc);
  92              		.loc 1 46 54
  93 00d7 8B4508   		movl	8(%ebp), %eax
  94 00da 83C026   		addl	$38, %eax
  95              		.loc 1 46 7
  96 00dd 89442404 		movl	%eax, 4(%esp)
  97 00e1 C7042426 		movl	$_RUNNING_TASK+38, (%esp)
  97      000000
  98 00e8 E8000000 		call	_ASSIGN
  98      00
  47:C:/Users/president/Desktop/sbx/input/src/os_base\os_task_queue.c ****       (&RUNNING_TASK[0u])->overwaittime_per_prio_inc_step  = task->overwaittime_per_prio_inc_step;
  99              		.loc 1 47 66
 100 00ed 8B4508   		movl	8(%ebp), %eax
 101 00f0 8B4038   		movl	56(%eax), %eax
 102              		.loc 1 47 60
 103 00f3 A3380000 		movl	%eax, _RUNNING_TASK+56
 103      00
  48:C:/Users/president/Desktop/sbx/input/src/os_base\os_task_queue.c ****       ASSIGN(&(&RUNNING_TASK[0u])->max_allowed_wait_time, &task->max_allowed_wait_time);
GAS LISTING C:\Users\PRESID~1\AppData\Local\Temp\cc1SpG1Y.s 			page 4


 104              		.loc 1 48 59
 105 00f8 8B4508   		movl	8(%ebp), %eax
 106 00fb 83C03C   		addl	$60, %eax
 107              		.loc 1 48 7
 108 00fe 89442404 		movl	%eax, 4(%esp)
 109 0102 C704243C 		movl	$_RUNNING_TASK+60, (%esp)
 109      000000
 110 0109 E8000000 		call	_ASSIGN
 110      00
  49:C:/Users/president/Desktop/sbx/input/src/os_base\os_task_queue.c ****       ASSIGN(&(&RUNNING_TASK[0u])->exe_time, &task->exe_time  );
 111              		.loc 1 49 46
 112 010e 8B4508   		movl	8(%ebp), %eax
 113 0111 83C04C   		addl	$76, %eax
 114              		.loc 1 49 7
 115 0114 89442404 		movl	%eax, 4(%esp)
 116 0118 C704244C 		movl	$_RUNNING_TASK+76, (%esp)
 116      000000
 117 011f E8000000 		call	_ASSIGN
 117      00
  50:C:/Users/president/Desktop/sbx/input/src/os_base\os_task_queue.c ****       ASSIGN(&(&RUNNING_TASK[0u])->start_time, &task->start_time);
 118              		.loc 1 50 48
 119 0124 8B4508   		movl	8(%ebp), %eax
 120 0127 83C05C   		addl	$92, %eax
 121              		.loc 1 50 7
 122 012a 89442404 		movl	%eax, 4(%esp)
 123 012e C704245C 		movl	$_RUNNING_TASK+92, (%esp)
 123      000000
 124 0135 E8000000 		call	_ASSIGN
 124      00
  51:C:/Users/president/Desktop/sbx/input/src/os_base\os_task_queue.c ****       (&RUNNING_TASK[0u])->current_prio                    = task->current_prio;
 125              		.loc 1 51 66
 126 013a 8B4508   		movl	8(%ebp), %eax
 127 013d 8A406C   		movb	108(%eax), %al
 128              		.loc 1 51 60
 129 0140 A26C0000 		movb	%al, _RUNNING_TASK+108
 129      00
  52:C:/Users/president/Desktop/sbx/input/src/os_base\os_task_queue.c ****       (&RUNNING_TASK[0u])->default_prio                    = task->default_prio;
 130              		.loc 1 52 66
 131 0145 8B4508   		movl	8(%ebp), %eax
 132 0148 8A406D   		movb	109(%eax), %al
 133              		.loc 1 52 60
 134 014b A26D0000 		movb	%al, _RUNNING_TASK+109
 134      00
  53:C:/Users/president/Desktop/sbx/input/src/os_base\os_task_queue.c ****       (&RUNNING_TASK[0u])->fp                              = task->fp;
 135              		.loc 1 53 66
 136 0150 8B4508   		movl	8(%ebp), %eax
 137 0153 8B4074   		movl	116(%eax), %eax
 138              		.loc 1 53 60
 139 0156 A3740000 		movl	%eax, _RUNNING_TASK+116
 139      00
  54:C:/Users/president/Desktop/sbx/input/src/os_base\os_task_queue.c ****       (&RUNNING_TASK[0u])->state_request                   = task->state_request;
 140              		.loc 1 54 66
 141 015b 8B4508   		movl	8(%ebp), %eax
 142 015e 8B4078   		movl	120(%eax), %eax
 143              		.loc 1 54 60
 144 0161 A3780000 		movl	%eax, _RUNNING_TASK+120
 144      00
GAS LISTING C:\Users\PRESID~1\AppData\Local\Temp\cc1SpG1Y.s 			page 5


  55:C:/Users/president/Desktop/sbx/input/src/os_base\os_task_queue.c ****       (&RUNNING_TASK[0u])->task_state                      = task->task_state;
 145              		.loc 1 55 66
 146 0166 8B4508   		movl	8(%ebp), %eax
 147 0169 8B407C   		movl	124(%eax), %eax
 148              		.loc 1 55 60
 149 016c A37C0000 		movl	%eax, _RUNNING_TASK+124
 149      00
  56:C:/Users/president/Desktop/sbx/input/src/os_base\os_task_queue.c ****       (&RUNNING_TASK[0u])->task_group                      = task->task_group;
 150              		.loc 1 56 66
 151 0171 8B4508   		movl	8(%ebp), %eax
 152 0174 8B808000 		movl	128(%eax), %eax
 152      0000
 153              		.loc 1 56 60
 154 017a A3800000 		movl	%eax, _RUNNING_TASK+128
 154      00
  57:C:/Users/president/Desktop/sbx/input/src/os_base\os_task_queue.c **** #if(CFG_PROCESSOR == MCU_X86)
  58:C:/Users/president/Desktop/sbx/input/src/os_base\os_task_queue.c ****       (&RUNNING_TASK[0u])->eax                             = task->eax;
 155              		.loc 1 58 66
 156 017f 8B4508   		movl	8(%ebp), %eax
 157 0182 8B808400 		movl	132(%eax), %eax
 157      0000
 158              		.loc 1 58 60
 159 0188 A3840000 		movl	%eax, _RUNNING_TASK+132
 159      00
  59:C:/Users/president/Desktop/sbx/input/src/os_base\os_task_queue.c ****       (&RUNNING_TASK[0u])->ebx                             = task->ebx;
 160              		.loc 1 59 66
 161 018d 8B4508   		movl	8(%ebp), %eax
 162 0190 8B808800 		movl	136(%eax), %eax
 162      0000
 163              		.loc 1 59 60
 164 0196 A3880000 		movl	%eax, _RUNNING_TASK+136
 164      00
  60:C:/Users/president/Desktop/sbx/input/src/os_base\os_task_queue.c ****       (&RUNNING_TASK[0u])->ecx                             = task->ecx;
 165              		.loc 1 60 66
 166 019b 8B4508   		movl	8(%ebp), %eax
 167 019e 8B808C00 		movl	140(%eax), %eax
 167      0000
 168              		.loc 1 60 60
 169 01a4 A38C0000 		movl	%eax, _RUNNING_TASK+140
 169      00
  61:C:/Users/president/Desktop/sbx/input/src/os_base\os_task_queue.c ****       (&RUNNING_TASK[0u])->edx                             = task->edx;
 170              		.loc 1 61 66
 171 01a9 8B4508   		movl	8(%ebp), %eax
 172 01ac 8B809000 		movl	144(%eax), %eax
 172      0000
 173              		.loc 1 61 60
 174 01b2 A3900000 		movl	%eax, _RUNNING_TASK+144
 174      00
  62:C:/Users/president/Desktop/sbx/input/src/os_base\os_task_queue.c **** #else
  63:C:/Users/president/Desktop/sbx/input/src/os_base\os_task_queue.c ****       (&RUNNING_TASK[0u])->r0                             = task->r0;
  64:C:/Users/president/Desktop/sbx/input/src/os_base\os_task_queue.c ****       (&RUNNING_TASK[0u])->r1                             = task->r1;
  65:C:/Users/president/Desktop/sbx/input/src/os_base\os_task_queue.c ****       (&RUNNING_TASK[0u])->r2                             = task->r2;
  66:C:/Users/president/Desktop/sbx/input/src/os_base\os_task_queue.c ****       (&RUNNING_TASK[0u])->r3                             = task->r3;
  67:C:/Users/president/Desktop/sbx/input/src/os_base\os_task_queue.c ****       (&RUNNING_TASK[0u])->r4                             = task->r4;
  68:C:/Users/president/Desktop/sbx/input/src/os_base\os_task_queue.c ****       (&RUNNING_TASK[0u])->r5                             = task->r5;
  69:C:/Users/president/Desktop/sbx/input/src/os_base\os_task_queue.c ****       (&RUNNING_TASK[0u])->r6                             = task->r6;
  70:C:/Users/president/Desktop/sbx/input/src/os_base\os_task_queue.c ****       (&RUNNING_TASK[0u])->r7                             = task->r7;
GAS LISTING C:\Users\PRESID~1\AppData\Local\Temp\cc1SpG1Y.s 			page 6


  71:C:/Users/president/Desktop/sbx/input/src/os_base\os_task_queue.c ****       (&RUNNING_TASK[0u])->r8                             = task->r8;
  72:C:/Users/president/Desktop/sbx/input/src/os_base\os_task_queue.c ****       (&RUNNING_TASK[0u])->r9                             = task->r9;
  73:C:/Users/president/Desktop/sbx/input/src/os_base\os_task_queue.c ****       (&RUNNING_TASK[0u])->r10                            = task->r10;
  74:C:/Users/president/Desktop/sbx/input/src/os_base\os_task_queue.c ****       (&RUNNING_TASK[0u])->r11                            = task->r11;
  75:C:/Users/president/Desktop/sbx/input/src/os_base\os_task_queue.c ****       (&RUNNING_TASK[0u])->r12                            = task->r12;
  76:C:/Users/president/Desktop/sbx/input/src/os_base\os_task_queue.c **** #endif
  77:C:/Users/president/Desktop/sbx/input/src/os_base\os_task_queue.c **** 
  78:C:/Users/president/Desktop/sbx/input/src/os_base\os_task_queue.c ****       (&RUNNING_TASK[0u])->p_stack_pointer                   = task->p_stack_pointer;
 175              		.loc 1 78 68
 176 01b7 8B4508   		movl	8(%ebp), %eax
 177 01ba 8B809400 		movl	148(%eax), %eax
 177      0000
 178              		.loc 1 78 62
 179 01c0 A3940000 		movl	%eax, _RUNNING_TASK+148
 179      00
  79:C:/Users/president/Desktop/sbx/input/src/os_base\os_task_queue.c ****       (&RUNNING_TASK[0u])->p_stack_pointer_by_malloc           = task->p_stack_pointer_by_malloc;
 180              		.loc 1 79 70
 181 01c5 8B4508   		movl	8(%ebp), %eax
 182 01c8 8B809800 		movl	152(%eax), %eax
 182      0000
 183              		.loc 1 79 64
 184 01ce A3980000 		movl	%eax, _RUNNING_TASK+152
 184      00
  80:C:/Users/president/Desktop/sbx/input/src/os_base\os_task_queue.c ****       (&RUNNING_TASK[0u])->p_stack_pointer_start              = task->p_stack_pointer_start;
 185              		.loc 1 80 69
 186 01d3 8B4508   		movl	8(%ebp), %eax
 187 01d6 8B809C00 		movl	156(%eax), %eax
 187      0000
 188              		.loc 1 80 63
 189 01dc A39C0000 		movl	%eax, _RUNNING_TASK+156
 189      00
  81:C:/Users/president/Desktop/sbx/input/src/os_base\os_task_queue.c ****       (&RUNNING_TASK[0u])->stack_size                       = task->stack_size;
 190              		.loc 1 81 67
 191 01e1 8B4508   		movl	8(%ebp), %eax
 192 01e4 8B80A000 		movl	160(%eax), %eax
 192      0000
 193              		.loc 1 81 61
 194 01ea A3A00000 		movl	%eax, _RUNNING_TASK+160
 194      00
  82:C:/Users/president/Desktop/sbx/input/src/os_base\os_task_queue.c ****       (&RUNNING_TASK[0u])->p_stack_pointer_end                = task->p_stack_pointer_end;
 195              		.loc 1 82 69
 196 01ef 8B4508   		movl	8(%ebp), %eax
 197 01f2 8B80A400 		movl	164(%eax), %eax
 197      0000
 198              		.loc 1 82 63
 199 01f8 A3A40000 		movl	%eax, _RUNNING_TASK+164
 199      00
 200              	L3:
  83:C:/Users/president/Desktop/sbx/input/src/os_base\os_task_queue.c ****    }
  84:C:/Users/president/Desktop/sbx/input/src/os_base\os_task_queue.c **** }
 201              		.loc 1 84 1
 202 01fd 90       		nop
 203 01fe C9       		leave
 204              		.cfi_restore 5
 205              		.cfi_def_cfa 4, 4
 206 01ff C3       		ret
 207              		.cfi_endproc
GAS LISTING C:\Users\PRESID~1\AppData\Local\Temp\cc1SpG1Y.s 			page 7


 208              	LFE0:
 209              		.globl	_OS_INIT_TASK_QUEUE
 211              	_OS_INIT_TASK_QUEUE:
 212              	LFB1:
  85:C:/Users/president/Desktop/sbx/input/src/os_base\os_task_queue.c **** 
  86:C:/Users/president/Desktop/sbx/input/src/os_base\os_task_queue.c **** /* task queue handling */
  87:C:/Users/president/Desktop/sbx/input/src/os_base\os_task_queue.c **** void OS_INIT_TASK_QUEUE(void)
  88:C:/Users/president/Desktop/sbx/input/src/os_base\os_task_queue.c **** {
 213              		.loc 1 88 1
 214              		.cfi_startproc
 215 0200 55       		pushl	%ebp
 216              		.cfi_def_cfa_offset 8
 217              		.cfi_offset 5, -8
 218 0201 89E5     		movl	%esp, %ebp
 219              		.cfi_def_cfa_register 5
 220 0203 83EC28   		subl	$40, %esp
  89:C:/Users/president/Desktop/sbx/input/src/os_base\os_task_queue.c ****    if(bTASK_QUEUE_INITIALIZED == FALSE)
 221              		.loc 1 89 31
 222 0206 A0000000 		movb	_bTASK_QUEUE_INITIALIZED, %al
 222      00
 223              		.loc 1 89 6
 224 020b 84C0     		testb	%al, %al
 225 020d 7550     		jne	L8
 226              	LBB2:
  90:C:/Users/president/Desktop/sbx/input/src/os_base\os_task_queue.c ****    {
  91:C:/Users/president/Desktop/sbx/input/src/os_base\os_task_queue.c ****       unsigned_char_t element_nr = 0;
 227              		.loc 1 91 23
 228 020f C645F700 		movb	$0, -9(%ebp)
  92:C:/Users/president/Desktop/sbx/input/src/os_base\os_task_queue.c ****       while(element_nr < MAX_RUN_QUEUE_SIZE)
 229              		.loc 1 92 12
 230 0213 EB3D     		jmp	L6
 231              	L7:
  93:C:/Users/president/Desktop/sbx/input/src/os_base\os_task_queue.c ****       {
  94:C:/Users/president/Desktop/sbx/input/src/os_base\os_task_queue.c ****          TASK_SCHEDULING_QUEUE[element_nr] = (scheduling_t)0u;
 232              		.loc 1 94 31
 233 0215 0FB645F7 		movzbl	-9(%ebp), %eax
 234              		.loc 1 94 44
 235 0219 C7048500 		movl	$0, _TASK_SCHEDULING_QUEUE(,%eax,4)
 235      00000000 
 235      000000
  95:C:/Users/president/Desktop/sbx/input/src/os_base\os_task_queue.c ****          OS_TASK_INIT_TASK_ENVIRONMENT(&TASK_RUN_QUEUE[element_nr]);
 236              		.loc 1 95 55
 237 0224 0FB655F7 		movzbl	-9(%ebp), %edx
 238              		.loc 1 95 10
 239 0228 89D0     		movl	%edx, %eax
 240 022a C1E003   		sall	$3, %eax
 241 022d 01D0     		addl	%edx, %eax
 242 022f 01C0     		addl	%eax, %eax
 243 0231 01D0     		addl	%edx, %eax
 244 0233 8D0CC500 		leal	0(,%eax,8), %ecx
 244      000000
 245 023a 01C8     		addl	%ecx, %eax
 246 023c 01D0     		addl	%edx, %eax
 247 023e 05000000 		addl	$_TASK_RUN_QUEUE, %eax
 247      00
 248 0243 890424   		movl	%eax, (%esp)
 249 0246 E8000000 		call	_OS_TASK_INIT_TASK_ENVIRONMENT
GAS LISTING C:\Users\PRESID~1\AppData\Local\Temp\cc1SpG1Y.s 			page 8


 249      00
  96:C:/Users/president/Desktop/sbx/input/src/os_base\os_task_queue.c ****          element_nr++;
 250              		.loc 1 96 20
 251 024b 8A45F7   		movb	-9(%ebp), %al
 252 024e 40       		incl	%eax
 253 024f 8845F7   		movb	%al, -9(%ebp)
 254              	L6:
  92:C:/Users/president/Desktop/sbx/input/src/os_base\os_task_queue.c ****       {
 255              		.loc 1 92 12
 256 0252 807DF709 		cmpb	$9, -9(%ebp)
 257 0256 76BD     		jbe	L7
  97:C:/Users/president/Desktop/sbx/input/src/os_base\os_task_queue.c ****       }
  98:C:/Users/president/Desktop/sbx/input/src/os_base\os_task_queue.c ****       bTASK_QUEUE_INITIALIZED = TRUE;
 258              		.loc 1 98 31
 259 0258 C6050000 		movb	$1, _bTASK_QUEUE_INITIALIZED
 259      000001
 260              	L8:
 261              	LBE2:
  99:C:/Users/president/Desktop/sbx/input/src/os_base\os_task_queue.c ****    }
 100:C:/Users/president/Desktop/sbx/input/src/os_base\os_task_queue.c **** }
 262              		.loc 1 100 1
 263 025f 90       		nop
 264 0260 C9       		leave
 265              		.cfi_restore 5
 266              		.cfi_def_cfa 4, 4
 267 0261 C3       		ret
 268              		.cfi_endproc
 269              	LFE1:
 270              		.globl	_ADD_TO_TASK_QUEUE
 272              	_ADD_TO_TASK_QUEUE:
 273              	LFB2:
 101:C:/Users/president/Desktop/sbx/input/src/os_base\os_task_queue.c **** task_t* ADD_TO_TASK_QUEUE(task_t* task)
 102:C:/Users/president/Desktop/sbx/input/src/os_base\os_task_queue.c **** {
 274              		.loc 1 102 1
 275              		.cfi_startproc
 276 0262 55       		pushl	%ebp
 277              		.cfi_def_cfa_offset 8
 278              		.cfi_offset 5, -8
 279 0263 89E5     		movl	%esp, %ebp
 280              		.cfi_def_cfa_register 5
 281 0265 53       		pushl	%ebx
 282 0266 83EC24   		subl	$36, %esp
 283              		.cfi_offset 3, -12
 103:C:/Users/president/Desktop/sbx/input/src/os_base\os_task_queue.c ****    unsigned_char_t element_nr = 0u;
 284              		.loc 1 103 20
 285 0269 C645F700 		movb	$0, -9(%ebp)
 104:C:/Users/president/Desktop/sbx/input/src/os_base\os_task_queue.c ****    task_t* ret_task = 0u;
 286              		.loc 1 104 12
 287 026d C745F000 		movl	$0, -16(%ebp)
 287      000000
 105:C:/Users/president/Desktop/sbx/input/src/os_base\os_task_queue.c **** 
 106:C:/Users/president/Desktop/sbx/input/src/os_base\os_task_queue.c ****    while( (element_nr < MAX_RUN_QUEUE_SIZE)
 288              		.loc 1 106 9
 289 0274 EB07     		jmp	L10
 290              	L12:
 107:C:/Users/president/Desktop/sbx/input/src/os_base\os_task_queue.c ****           &&((&TASK_RUN_QUEUE[element_nr])->task_queued == TRUE)
 108:C:/Users/president/Desktop/sbx/input/src/os_base\os_task_queue.c ****         )
GAS LISTING C:\Users\PRESID~1\AppData\Local\Temp\cc1SpG1Y.s 			page 9


 109:C:/Users/president/Desktop/sbx/input/src/os_base\os_task_queue.c ****    {
 110:C:/Users/president/Desktop/sbx/input/src/os_base\os_task_queue.c ****       element_nr++;
 291              		.loc 1 110 17
 292 0276 8A45F7   		movb	-9(%ebp), %al
 293 0279 40       		incl	%eax
 294 027a 8845F7   		movb	%al, -9(%ebp)
 295              	L10:
 106:C:/Users/president/Desktop/sbx/input/src/os_base\os_task_queue.c ****           &&((&TASK_RUN_QUEUE[element_nr])->task_queued == TRUE)
 296              		.loc 1 106 9
 297 027d 807DF709 		cmpb	$9, -9(%ebp)
 298 0281 772A     		ja	L11
 107:C:/Users/president/Desktop/sbx/input/src/os_base\os_task_queue.c ****           &&((&TASK_RUN_QUEUE[element_nr])->task_queued == TRUE)
 299              		.loc 1 107 43
 300 0283 0FB655F7 		movzbl	-9(%ebp), %edx
 301 0287 89D0     		movl	%edx, %eax
 302 0289 C1E003   		sall	$3, %eax
 303 028c 01D0     		addl	%edx, %eax
 304 028e 01C0     		addl	%eax, %eax
 305 0290 01D0     		addl	%edx, %eax
 306 0292 8D0CC500 		leal	0(,%eax,8), %ecx
 306      000000
 307 0299 01C8     		addl	%ecx, %eax
 308 029b 01D0     		addl	%edx, %eax
 309 029d 05000000 		addl	$_TASK_RUN_QUEUE, %eax
 309      00
 310 02a2 8A00     		movb	(%eax), %al
 311 02a4 D0E8     		shrb	%al
 312 02a6 83E001   		andl	$1, %eax
 107:C:/Users/president/Desktop/sbx/input/src/os_base\os_task_queue.c ****           &&((&TASK_RUN_QUEUE[element_nr])->task_queued == TRUE)
 313              		.loc 1 107 11
 314 02a9 3C01     		cmpb	$1, %al
 315 02ab 74C9     		je	L12
 316              	L11:
 111:C:/Users/president/Desktop/sbx/input/src/os_base\os_task_queue.c ****    }
 112:C:/Users/president/Desktop/sbx/input/src/os_base\os_task_queue.c ****    /* while loop ended due to free task_array slot ...*/
 113:C:/Users/president/Desktop/sbx/input/src/os_base\os_task_queue.c ****    if( (element_nr < MAX_RUN_QUEUE_SIZE) && ((&TASK_RUN_QUEUE[element_nr])->task_queued == FALSE) )
 317              		.loc 1 113 6
 318 02ad 807DF709 		cmpb	$9, -9(%ebp)
 319 02b1 0F874A05 		ja	L13
 319      0000
 320              		.loc 1 113 75 discriminator 1
 321 02b7 0FB655F7 		movzbl	-9(%ebp), %edx
 322 02bb 89D0     		movl	%edx, %eax
 323 02bd C1E003   		sall	$3, %eax
 324 02c0 01D0     		addl	%edx, %eax
 325 02c2 01C0     		addl	%eax, %eax
 326 02c4 01D0     		addl	%edx, %eax
 327 02c6 8D0CC500 		leal	0(,%eax,8), %ecx
 327      000000
 328 02cd 01C8     		addl	%ecx, %eax
 329 02cf 01D0     		addl	%edx, %eax
 330 02d1 05000000 		addl	$_TASK_RUN_QUEUE, %eax
 330      00
 331 02d6 8A00     		movb	(%eax), %al
 332 02d8 D0E8     		shrb	%al
 333 02da 83E001   		andl	$1, %eax
 334              		.loc 1 113 42 discriminator 1
GAS LISTING C:\Users\PRESID~1\AppData\Local\Temp\cc1SpG1Y.s 			page 10


 335 02dd 84C0     		testb	%al, %al
 336 02df 0F851C05 		jne	L13
 336      0000
 114:C:/Users/president/Desktop/sbx/input/src/os_base\os_task_queue.c ****    {
 115:C:/Users/president/Desktop/sbx/input/src/os_base\os_task_queue.c ****       (&TASK_RUN_QUEUE[element_nr])->active                          = task->active;
 337              		.loc 1 115 36
 338 02e5 0FB655F7 		movzbl	-9(%ebp), %edx
 339              		.loc 1 115 76
 340 02e9 8B4508   		movl	8(%ebp), %eax
 341 02ec 8A00     		movb	(%eax), %al
 342 02ee 83E001   		andl	$1, %eax
 343 02f1 88C3     		movb	%al, %bl
 344              		.loc 1 115 70
 345 02f3 89D0     		movl	%edx, %eax
 346 02f5 C1E003   		sall	$3, %eax
 347 02f8 01D0     		addl	%edx, %eax
 348 02fa 01C0     		addl	%eax, %eax
 349 02fc 01D0     		addl	%edx, %eax
 350 02fe 8D0CC500 		leal	0(,%eax,8), %ecx
 350      000000
 351 0305 01C8     		addl	%ecx, %eax
 352 0307 01D0     		addl	%edx, %eax
 353 0309 05000000 		addl	$_TASK_RUN_QUEUE, %eax
 353      00
 354 030e 83E301   		andl	$1, %ebx
 355 0311 88D9     		movb	%bl, %cl
 356 0313 8A10     		movb	(%eax), %dl
 357 0315 83E2FE   		andl	$-2, %edx
 358 0318 09CA     		orl	%ecx, %edx
 359 031a 8810     		movb	%dl, (%eax)
 116:C:/Users/president/Desktop/sbx/input/src/os_base\os_task_queue.c ****       (&TASK_RUN_QUEUE[element_nr])->task_queued                     = TRUE;
 360              		.loc 1 116 36
 361 031c 0FB655F7 		movzbl	-9(%ebp), %edx
 362              		.loc 1 116 70
 363 0320 89D0     		movl	%edx, %eax
 364 0322 C1E003   		sall	$3, %eax
 365 0325 01D0     		addl	%edx, %eax
 366 0327 01C0     		addl	%eax, %eax
 367 0329 01D0     		addl	%edx, %eax
 368 032b 8D0CC500 		leal	0(,%eax,8), %ecx
 368      000000
 369 0332 01C8     		addl	%ecx, %eax
 370 0334 01D0     		addl	%edx, %eax
 371 0336 05000000 		addl	$_TASK_RUN_QUEUE, %eax
 371      00
 372 033b 8A10     		movb	(%eax), %dl
 373 033d 83CA02   		orl	$2, %edx
 374 0340 8810     		movb	%dl, (%eax)
 117:C:/Users/president/Desktop/sbx/input/src/os_base\os_task_queue.c ****       (&TASK_RUN_QUEUE[element_nr])->idle_task                        = task->idle_task;
 375              		.loc 1 117 36
 376 0342 0FB655F7 		movzbl	-9(%ebp), %edx
 377              		.loc 1 117 77
 378 0346 8B4508   		movl	8(%ebp), %eax
 379 0349 8A00     		movb	(%eax), %al
 380 034b C0E802   		shrb	$2, %al
 381 034e 88C1     		movb	%al, %cl
 382 0350 83E101   		andl	$1, %ecx
GAS LISTING C:\Users\PRESID~1\AppData\Local\Temp\cc1SpG1Y.s 			page 11


 383              		.loc 1 117 71
 384 0353 89D0     		movl	%edx, %eax
 385 0355 C1E003   		sall	$3, %eax
 386 0358 01D0     		addl	%edx, %eax
 387 035a 01C0     		addl	%eax, %eax
 388 035c 01D0     		addl	%edx, %eax
 389 035e 8D1CC500 		leal	0(,%eax,8), %ebx
 389      000000
 390 0365 01D8     		addl	%ebx, %eax
 391 0367 01D0     		addl	%edx, %eax
 392 0369 05000000 		addl	$_TASK_RUN_QUEUE, %eax
 392      00
 393 036e 83E101   		andl	$1, %ecx
 394 0371 88CA     		movb	%cl, %dl
 395 0373 8D0C9500 		leal	0(,%edx,4), %ecx
 395      000000
 396 037a 8A10     		movb	(%eax), %dl
 397 037c 83E2FB   		andl	$-5, %edx
 398 037f 09CA     		orl	%ecx, %edx
 399 0381 8810     		movb	%dl, (%eax)
 118:C:/Users/president/Desktop/sbx/input/src/os_base\os_task_queue.c ****       (&TASK_RUN_QUEUE[element_nr])->free                            = task->free;
 400              		.loc 1 118 36
 401 0383 0FB655F7 		movzbl	-9(%ebp), %edx
 402              		.loc 1 118 76
 403 0387 8B4508   		movl	8(%ebp), %eax
 404 038a 8B00     		movl	(%eax), %eax
 405 038c C1E803   		shrl	$3, %eax
 406 038f 89C3     		movl	%eax, %ebx
 407              		.loc 1 118 70
 408 0391 89D0     		movl	%edx, %eax
 409 0393 C1E003   		sall	$3, %eax
 410 0396 01D0     		addl	%edx, %eax
 411 0398 01C0     		addl	%eax, %eax
 412 039a 01D0     		addl	%edx, %eax
 413 039c 8D0CC500 		leal	0(,%eax,8), %ecx
 413      000000
 414 03a3 01C8     		addl	%ecx, %eax
 415 03a5 01D0     		addl	%edx, %eax
 416 03a7 05000000 		addl	$_TASK_RUN_QUEUE, %eax
 416      00
 417 03ac 8D0CDD00 		leal	0(,%ebx,8), %ecx
 417      000000
 418 03b3 8B10     		movl	(%eax), %edx
 419 03b5 83E207   		andl	$7, %edx
 420 03b8 09CA     		orl	%ecx, %edx
 421 03ba 8910     		movl	%edx, (%eax)
 119:C:/Users/president/Desktop/sbx/input/src/os_base\os_task_queue.c ****       (&TASK_RUN_QUEUE[element_nr])->nr_of_ins_allowed                  = task->nr_of_ins_allowed;
 422              		.loc 1 119 36
 423 03bc 0FB655F7 		movzbl	-9(%ebp), %edx
 424              		.loc 1 119 79
 425 03c0 8B4508   		movl	8(%ebp), %eax
 426 03c3 8A4804   		movb	4(%eax), %cl
 427              		.loc 1 119 73
 428 03c6 89D0     		movl	%edx, %eax
 429 03c8 C1E003   		sall	$3, %eax
 430 03cb 01D0     		addl	%edx, %eax
 431 03cd 01C0     		addl	%eax, %eax
GAS LISTING C:\Users\PRESID~1\AppData\Local\Temp\cc1SpG1Y.s 			page 12


 432 03cf 01D0     		addl	%edx, %eax
 433 03d1 8D1CC500 		leal	0(,%eax,8), %ebx
 433      000000
 434 03d8 01D8     		addl	%ebx, %eax
 435 03da 01D0     		addl	%edx, %eax
 436 03dc 05040000 		addl	$_TASK_RUN_QUEUE+4, %eax
 436      00
 437 03e1 8808     		movb	%cl, (%eax)
 120:C:/Users/president/Desktop/sbx/input/src/os_base\os_task_queue.c ****       (&TASK_RUN_QUEUE[element_nr])->nr_of_ins_activated                = task->nr_of_ins_activated
 438              		.loc 1 120 36
 439 03e3 0FB655F7 		movzbl	-9(%ebp), %edx
 440              		.loc 1 120 79
 441 03e7 8B4508   		movl	8(%ebp), %eax
 442 03ea 8A4805   		movb	5(%eax), %cl
 443              		.loc 1 120 73
 444 03ed 89D0     		movl	%edx, %eax
 445 03ef C1E003   		sall	$3, %eax
 446 03f2 01D0     		addl	%edx, %eax
 447 03f4 01C0     		addl	%eax, %eax
 448 03f6 01D0     		addl	%edx, %eax
 449 03f8 8D1CC500 		leal	0(,%eax,8), %ebx
 449      000000
 450 03ff 01D8     		addl	%ebx, %eax
 451 0401 01D0     		addl	%edx, %eax
 452 0403 05050000 		addl	$_TASK_RUN_QUEUE+5, %eax
 452      00
 453 0408 8808     		movb	%cl, (%eax)
 121:C:/Users/president/Desktop/sbx/input/src/os_base\os_task_queue.c ****       ASSIGN(&(&TASK_RUN_QUEUE[element_nr])->wait_act_until, &task->wait_act_until);
 454              		.loc 1 121 62
 455 040a 8B4508   		movl	8(%ebp), %eax
 456 040d 8D4806   		leal	6(%eax), %ecx
 457              		.loc 1 121 44
 458 0410 0FB655F7 		movzbl	-9(%ebp), %edx
 459              		.loc 1 121 14
 460 0414 89D0     		movl	%edx, %eax
 461 0416 C1E003   		sall	$3, %eax
 462 0419 01D0     		addl	%edx, %eax
 463 041b 01C0     		addl	%eax, %eax
 464 041d 01D0     		addl	%edx, %eax
 465 041f 8D1CC500 		leal	0(,%eax,8), %ebx
 465      000000
 466 0426 01D8     		addl	%ebx, %eax
 467 0428 01D0     		addl	%edx, %eax
 468 042a 05000000 		addl	$_TASK_RUN_QUEUE, %eax
 468      00
 469 042f 83C006   		addl	$6, %eax
 470              		.loc 1 121 7
 471 0432 894C2404 		movl	%ecx, 4(%esp)
 472 0436 890424   		movl	%eax, (%esp)
 473 0439 E8000000 		call	_ASSIGN
 473      00
 122:C:/Users/president/Desktop/sbx/input/src/os_base\os_task_queue.c ****       ASSIGN(&(&TASK_RUN_QUEUE[element_nr])->wait_time, &task->wait_time);
 474              		.loc 1 122 57
 475 043e 8B4508   		movl	8(%ebp), %eax
 476 0441 8D4816   		leal	22(%eax), %ecx
 477              		.loc 1 122 44
 478 0444 0FB655F7 		movzbl	-9(%ebp), %edx
GAS LISTING C:\Users\PRESID~1\AppData\Local\Temp\cc1SpG1Y.s 			page 13


 479              		.loc 1 122 14
 480 0448 89D0     		movl	%edx, %eax
 481 044a C1E003   		sall	$3, %eax
 482 044d 01D0     		addl	%edx, %eax
 483 044f 01C0     		addl	%eax, %eax
 484 0451 01D0     		addl	%edx, %eax
 485 0453 8D1CC500 		leal	0(,%eax,8), %ebx
 485      000000
 486 045a 01D8     		addl	%ebx, %eax
 487 045c 01D0     		addl	%edx, %eax
 488 045e 83C010   		addl	$16, %eax
 489 0461 05000000 		addl	$_TASK_RUN_QUEUE, %eax
 489      00
 490 0466 83C006   		addl	$6, %eax
 491              		.loc 1 122 7
 492 0469 894C2404 		movl	%ecx, 4(%esp)
 493 046d 890424   		movl	%eax, (%esp)
 494 0470 E8000000 		call	_ASSIGN
 494      00
 123:C:/Users/president/Desktop/sbx/input/src/os_base\os_task_queue.c ****       ASSIGN(&(&TASK_RUN_QUEUE[element_nr])->time_to_prio_inc, &task->time_to_prio_inc);
 495              		.loc 1 123 64
 496 0475 8B4508   		movl	8(%ebp), %eax
 497 0478 8D4826   		leal	38(%eax), %ecx
 498              		.loc 1 123 44
 499 047b 0FB655F7 		movzbl	-9(%ebp), %edx
 500              		.loc 1 123 14
 501 047f 89D0     		movl	%edx, %eax
 502 0481 C1E003   		sall	$3, %eax
 503 0484 01D0     		addl	%edx, %eax
 504 0486 01C0     		addl	%eax, %eax
 505 0488 01D0     		addl	%edx, %eax
 506 048a 8D1CC500 		leal	0(,%eax,8), %ebx
 506      000000
 507 0491 01D8     		addl	%ebx, %eax
 508 0493 01D0     		addl	%edx, %eax
 509 0495 83C020   		addl	$32, %eax
 510 0498 05000000 		addl	$_TASK_RUN_QUEUE, %eax
 510      00
 511 049d 83C006   		addl	$6, %eax
 512              		.loc 1 123 7
 513 04a0 894C2404 		movl	%ecx, 4(%esp)
 514 04a4 890424   		movl	%eax, (%esp)
 515 04a7 E8000000 		call	_ASSIGN
 515      00
 124:C:/Users/president/Desktop/sbx/input/src/os_base\os_task_queue.c ****       (&TASK_RUN_QUEUE[element_nr])->overwaittime_per_prio_inc_step  = task->overwaittime_per_prio_
 516              		.loc 1 124 36
 517 04ac 0FB655F7 		movzbl	-9(%ebp), %edx
 518              		.loc 1 124 76
 519 04b0 8B4508   		movl	8(%ebp), %eax
 520 04b3 8B4838   		movl	56(%eax), %ecx
 521              		.loc 1 124 70
 522 04b6 89D0     		movl	%edx, %eax
 523 04b8 C1E003   		sall	$3, %eax
 524 04bb 01D0     		addl	%edx, %eax
 525 04bd 01C0     		addl	%eax, %eax
 526 04bf 01D0     		addl	%edx, %eax
 527 04c1 8D1CC500 		leal	0(,%eax,8), %ebx
GAS LISTING C:\Users\PRESID~1\AppData\Local\Temp\cc1SpG1Y.s 			page 14


 527      000000
 528 04c8 01D8     		addl	%ebx, %eax
 529 04ca 01D0     		addl	%edx, %eax
 530 04cc 05380000 		addl	$_TASK_RUN_QUEUE+56, %eax
 530      00
 531 04d1 8908     		movl	%ecx, (%eax)
 125:C:/Users/president/Desktop/sbx/input/src/os_base\os_task_queue.c ****       ASSIGN(&(&TASK_RUN_QUEUE[element_nr])->max_allowed_wait_time, &task->max_allowed_wait_time);
 532              		.loc 1 125 69
 533 04d3 8B4508   		movl	8(%ebp), %eax
 534 04d6 8D483C   		leal	60(%eax), %ecx
 535              		.loc 1 125 44
 536 04d9 0FB655F7 		movzbl	-9(%ebp), %edx
 537              		.loc 1 125 14
 538 04dd 89D0     		movl	%edx, %eax
 539 04df C1E003   		sall	$3, %eax
 540 04e2 01D0     		addl	%edx, %eax
 541 04e4 01C0     		addl	%eax, %eax
 542 04e6 01D0     		addl	%edx, %eax
 543 04e8 8D1CC500 		leal	0(,%eax,8), %ebx
 543      000000
 544 04ef 01D8     		addl	%ebx, %eax
 545 04f1 01D0     		addl	%edx, %eax
 546 04f3 83C030   		addl	$48, %eax
 547 04f6 05000000 		addl	$_TASK_RUN_QUEUE, %eax
 547      00
 548 04fb 83C00C   		addl	$12, %eax
 549              		.loc 1 125 7
 550 04fe 894C2404 		movl	%ecx, 4(%esp)
 551 0502 890424   		movl	%eax, (%esp)
 552 0505 E8000000 		call	_ASSIGN
 552      00
 126:C:/Users/president/Desktop/sbx/input/src/os_base\os_task_queue.c ****       ASSIGN(&(&TASK_RUN_QUEUE[element_nr])->exe_time, &task->exe_time   );
 553              		.loc 1 126 56
 554 050a 8B4508   		movl	8(%ebp), %eax
 555 050d 8D484C   		leal	76(%eax), %ecx
 556              		.loc 1 126 44
 557 0510 0FB655F7 		movzbl	-9(%ebp), %edx
 558              		.loc 1 126 14
 559 0514 89D0     		movl	%edx, %eax
 560 0516 C1E003   		sall	$3, %eax
 561 0519 01D0     		addl	%edx, %eax
 562 051b 01C0     		addl	%eax, %eax
 563 051d 01D0     		addl	%edx, %eax
 564 051f 8D1CC500 		leal	0(,%eax,8), %ebx
 564      000000
 565 0526 01D8     		addl	%ebx, %eax
 566 0528 01D0     		addl	%edx, %eax
 567 052a 83C040   		addl	$64, %eax
 568 052d 05000000 		addl	$_TASK_RUN_QUEUE, %eax
 568      00
 569 0532 83C00C   		addl	$12, %eax
 570              		.loc 1 126 7
 571 0535 894C2404 		movl	%ecx, 4(%esp)
 572 0539 890424   		movl	%eax, (%esp)
 573 053c E8000000 		call	_ASSIGN
 573      00
 127:C:/Users/president/Desktop/sbx/input/src/os_base\os_task_queue.c ****       ASSIGN(&(&TASK_RUN_QUEUE[element_nr])->start_time, &task->start_time );
GAS LISTING C:\Users\PRESID~1\AppData\Local\Temp\cc1SpG1Y.s 			page 15


 574              		.loc 1 127 58
 575 0541 8B4508   		movl	8(%ebp), %eax
 576 0544 8D485C   		leal	92(%eax), %ecx
 577              		.loc 1 127 44
 578 0547 0FB655F7 		movzbl	-9(%ebp), %edx
 579              		.loc 1 127 14
 580 054b 89D0     		movl	%edx, %eax
 581 054d C1E003   		sall	$3, %eax
 582 0550 01D0     		addl	%edx, %eax
 583 0552 01C0     		addl	%eax, %eax
 584 0554 01D0     		addl	%edx, %eax
 585 0556 8D1CC500 		leal	0(,%eax,8), %ebx
 585      000000
 586 055d 01D8     		addl	%ebx, %eax
 587 055f 01D0     		addl	%edx, %eax
 588 0561 83C050   		addl	$80, %eax
 589 0564 05000000 		addl	$_TASK_RUN_QUEUE, %eax
 589      00
 590 0569 83C00C   		addl	$12, %eax
 591              		.loc 1 127 7
 592 056c 894C2404 		movl	%ecx, 4(%esp)
 593 0570 890424   		movl	%eax, (%esp)
 594 0573 E8000000 		call	_ASSIGN
 594      00
 128:C:/Users/president/Desktop/sbx/input/src/os_base\os_task_queue.c ****       (&TASK_RUN_QUEUE[element_nr])->current_prio                    = task->current_prio;
 595              		.loc 1 128 36
 596 0578 0FB655F7 		movzbl	-9(%ebp), %edx
 597              		.loc 1 128 76
 598 057c 8B4508   		movl	8(%ebp), %eax
 599 057f 8A486C   		movb	108(%eax), %cl
 600              		.loc 1 128 70
 601 0582 89D0     		movl	%edx, %eax
 602 0584 C1E003   		sall	$3, %eax
 603 0587 01D0     		addl	%edx, %eax
 604 0589 01C0     		addl	%eax, %eax
 605 058b 01D0     		addl	%edx, %eax
 606 058d 8D1CC500 		leal	0(,%eax,8), %ebx
 606      000000
 607 0594 01D8     		addl	%ebx, %eax
 608 0596 01D0     		addl	%edx, %eax
 609 0598 056C0000 		addl	$_TASK_RUN_QUEUE+108, %eax
 609      00
 610 059d 8808     		movb	%cl, (%eax)
 129:C:/Users/president/Desktop/sbx/input/src/os_base\os_task_queue.c ****       (&TASK_RUN_QUEUE[element_nr])->default_prio                    = task->default_prio;
 611              		.loc 1 129 36
 612 059f 0FB655F7 		movzbl	-9(%ebp), %edx
 613              		.loc 1 129 76
 614 05a3 8B4508   		movl	8(%ebp), %eax
 615 05a6 8A486D   		movb	109(%eax), %cl
 616              		.loc 1 129 70
 617 05a9 89D0     		movl	%edx, %eax
 618 05ab C1E003   		sall	$3, %eax
 619 05ae 01D0     		addl	%edx, %eax
 620 05b0 01C0     		addl	%eax, %eax
 621 05b2 01D0     		addl	%edx, %eax
 622 05b4 8D1CC500 		leal	0(,%eax,8), %ebx
 622      000000
GAS LISTING C:\Users\PRESID~1\AppData\Local\Temp\cc1SpG1Y.s 			page 16


 623 05bb 01D8     		addl	%ebx, %eax
 624 05bd 01D0     		addl	%edx, %eax
 625 05bf 056D0000 		addl	$_TASK_RUN_QUEUE+109, %eax
 625      00
 626 05c4 8808     		movb	%cl, (%eax)
 130:C:/Users/president/Desktop/sbx/input/src/os_base\os_task_queue.c ****       (&TASK_RUN_QUEUE[element_nr])->fp                              = task->fp;
 627              		.loc 1 130 36
 628 05c6 0FB655F7 		movzbl	-9(%ebp), %edx
 629              		.loc 1 130 76
 630 05ca 8B4508   		movl	8(%ebp), %eax
 631 05cd 8B4874   		movl	116(%eax), %ecx
 632              		.loc 1 130 70
 633 05d0 89D0     		movl	%edx, %eax
 634 05d2 C1E003   		sall	$3, %eax
 635 05d5 01D0     		addl	%edx, %eax
 636 05d7 01C0     		addl	%eax, %eax
 637 05d9 01D0     		addl	%edx, %eax
 638 05db 8D1CC500 		leal	0(,%eax,8), %ebx
 638      000000
 639 05e2 01D8     		addl	%ebx, %eax
 640 05e4 01D0     		addl	%edx, %eax
 641 05e6 05740000 		addl	$_TASK_RUN_QUEUE+116, %eax
 641      00
 642 05eb 8908     		movl	%ecx, (%eax)
 131:C:/Users/president/Desktop/sbx/input/src/os_base\os_task_queue.c ****       (&TASK_RUN_QUEUE[element_nr])->state_request                   = task->state_request;
 643              		.loc 1 131 36
 644 05ed 0FB655F7 		movzbl	-9(%ebp), %edx
 645              		.loc 1 131 76
 646 05f1 8B4508   		movl	8(%ebp), %eax
 647 05f4 8B4878   		movl	120(%eax), %ecx
 648              		.loc 1 131 70
 649 05f7 89D0     		movl	%edx, %eax
 650 05f9 C1E003   		sall	$3, %eax
 651 05fc 01D0     		addl	%edx, %eax
 652 05fe 01C0     		addl	%eax, %eax
 653 0600 01D0     		addl	%edx, %eax
 654 0602 8D1CC500 		leal	0(,%eax,8), %ebx
 654      000000
 655 0609 01D8     		addl	%ebx, %eax
 656 060b 01D0     		addl	%edx, %eax
 657 060d 05780000 		addl	$_TASK_RUN_QUEUE+120, %eax
 657      00
 658 0612 8908     		movl	%ecx, (%eax)
 132:C:/Users/president/Desktop/sbx/input/src/os_base\os_task_queue.c ****       (&TASK_RUN_QUEUE[element_nr])->task_state                      = task->task_state;
 659              		.loc 1 132 36
 660 0614 0FB655F7 		movzbl	-9(%ebp), %edx
 661              		.loc 1 132 76
 662 0618 8B4508   		movl	8(%ebp), %eax
 663 061b 8B487C   		movl	124(%eax), %ecx
 664              		.loc 1 132 70
 665 061e 89D0     		movl	%edx, %eax
 666 0620 C1E003   		sall	$3, %eax
 667 0623 01D0     		addl	%edx, %eax
 668 0625 01C0     		addl	%eax, %eax
 669 0627 01D0     		addl	%edx, %eax
 670 0629 8D1CC500 		leal	0(,%eax,8), %ebx
 670      000000
GAS LISTING C:\Users\PRESID~1\AppData\Local\Temp\cc1SpG1Y.s 			page 17


 671 0630 01D8     		addl	%ebx, %eax
 672 0632 01D0     		addl	%edx, %eax
 673 0634 057C0000 		addl	$_TASK_RUN_QUEUE+124, %eax
 673      00
 674 0639 8908     		movl	%ecx, (%eax)
 133:C:/Users/president/Desktop/sbx/input/src/os_base\os_task_queue.c ****       (&TASK_RUN_QUEUE[element_nr])->task_group                      = task->task_group;
 675              		.loc 1 133 36
 676 063b 0FB655F7 		movzbl	-9(%ebp), %edx
 677              		.loc 1 133 76
 678 063f 8B4508   		movl	8(%ebp), %eax
 679 0642 8B888000 		movl	128(%eax), %ecx
 679      0000
 680              		.loc 1 133 70
 681 0648 89D0     		movl	%edx, %eax
 682 064a C1E003   		sall	$3, %eax
 683 064d 01D0     		addl	%edx, %eax
 684 064f 01C0     		addl	%eax, %eax
 685 0651 01D0     		addl	%edx, %eax
 686 0653 8D1CC500 		leal	0(,%eax,8), %ebx
 686      000000
 687 065a 01D8     		addl	%ebx, %eax
 688 065c 01D0     		addl	%edx, %eax
 689 065e 05800000 		addl	$_TASK_RUN_QUEUE+128, %eax
 689      00
 690 0663 8908     		movl	%ecx, (%eax)
 134:C:/Users/president/Desktop/sbx/input/src/os_base\os_task_queue.c **** #if(CFG_PROCESSOR == MCU_X86)
 135:C:/Users/president/Desktop/sbx/input/src/os_base\os_task_queue.c ****       (&TASK_RUN_QUEUE[element_nr])->eax                             = task->eax;
 691              		.loc 1 135 36
 692 0665 0FB655F7 		movzbl	-9(%ebp), %edx
 693              		.loc 1 135 76
 694 0669 8B4508   		movl	8(%ebp), %eax
 695 066c 8B888400 		movl	132(%eax), %ecx
 695      0000
 696              		.loc 1 135 70
 697 0672 89D0     		movl	%edx, %eax
 698 0674 C1E003   		sall	$3, %eax
 699 0677 01D0     		addl	%edx, %eax
 700 0679 01C0     		addl	%eax, %eax
 701 067b 01D0     		addl	%edx, %eax
 702 067d 8D1CC500 		leal	0(,%eax,8), %ebx
 702      000000
 703 0684 01D8     		addl	%ebx, %eax
 704 0686 01D0     		addl	%edx, %eax
 705 0688 05840000 		addl	$_TASK_RUN_QUEUE+132, %eax
 705      00
 706 068d 8908     		movl	%ecx, (%eax)
 136:C:/Users/president/Desktop/sbx/input/src/os_base\os_task_queue.c ****       (&TASK_RUN_QUEUE[element_nr])->ebx                             = task->ebx;
 707              		.loc 1 136 36
 708 068f 0FB655F7 		movzbl	-9(%ebp), %edx
 709              		.loc 1 136 76
 710 0693 8B4508   		movl	8(%ebp), %eax
 711 0696 8B888800 		movl	136(%eax), %ecx
 711      0000
 712              		.loc 1 136 70
 713 069c 89D0     		movl	%edx, %eax
 714 069e C1E003   		sall	$3, %eax
 715 06a1 01D0     		addl	%edx, %eax
GAS LISTING C:\Users\PRESID~1\AppData\Local\Temp\cc1SpG1Y.s 			page 18


 716 06a3 01C0     		addl	%eax, %eax
 717 06a5 01D0     		addl	%edx, %eax
 718 06a7 8D1CC500 		leal	0(,%eax,8), %ebx
 718      000000
 719 06ae 01D8     		addl	%ebx, %eax
 720 06b0 01D0     		addl	%edx, %eax
 721 06b2 05880000 		addl	$_TASK_RUN_QUEUE+136, %eax
 721      00
 722 06b7 8908     		movl	%ecx, (%eax)
 137:C:/Users/president/Desktop/sbx/input/src/os_base\os_task_queue.c ****       (&TASK_RUN_QUEUE[element_nr])->ecx                             = task->ecx;
 723              		.loc 1 137 36
 724 06b9 0FB655F7 		movzbl	-9(%ebp), %edx
 725              		.loc 1 137 76
 726 06bd 8B4508   		movl	8(%ebp), %eax
 727 06c0 8B888C00 		movl	140(%eax), %ecx
 727      0000
 728              		.loc 1 137 70
 729 06c6 89D0     		movl	%edx, %eax
 730 06c8 C1E003   		sall	$3, %eax
 731 06cb 01D0     		addl	%edx, %eax
 732 06cd 01C0     		addl	%eax, %eax
 733 06cf 01D0     		addl	%edx, %eax
 734 06d1 8D1CC500 		leal	0(,%eax,8), %ebx
 734      000000
 735 06d8 01D8     		addl	%ebx, %eax
 736 06da 01D0     		addl	%edx, %eax
 737 06dc 058C0000 		addl	$_TASK_RUN_QUEUE+140, %eax
 737      00
 738 06e1 8908     		movl	%ecx, (%eax)
 138:C:/Users/president/Desktop/sbx/input/src/os_base\os_task_queue.c ****       (&TASK_RUN_QUEUE[element_nr])->edx                             = task->edx;
 739              		.loc 1 138 36
 740 06e3 0FB655F7 		movzbl	-9(%ebp), %edx
 741              		.loc 1 138 76
 742 06e7 8B4508   		movl	8(%ebp), %eax
 743 06ea 8B889000 		movl	144(%eax), %ecx
 743      0000
 744              		.loc 1 138 70
 745 06f0 89D0     		movl	%edx, %eax
 746 06f2 C1E003   		sall	$3, %eax
 747 06f5 01D0     		addl	%edx, %eax
 748 06f7 01C0     		addl	%eax, %eax
 749 06f9 01D0     		addl	%edx, %eax
 750 06fb 8D1CC500 		leal	0(,%eax,8), %ebx
 750      000000
 751 0702 01D8     		addl	%ebx, %eax
 752 0704 01D0     		addl	%edx, %eax
 753 0706 05900000 		addl	$_TASK_RUN_QUEUE+144, %eax
 753      00
 754 070b 8908     		movl	%ecx, (%eax)
 139:C:/Users/president/Desktop/sbx/input/src/os_base\os_task_queue.c **** #else
 140:C:/Users/president/Desktop/sbx/input/src/os_base\os_task_queue.c ****       (&TASK_RUN_QUEUE[element_nr])->r0                             = task->r0;
 141:C:/Users/president/Desktop/sbx/input/src/os_base\os_task_queue.c ****       (&TASK_RUN_QUEUE[element_nr])->r1                             = task->r1;
 142:C:/Users/president/Desktop/sbx/input/src/os_base\os_task_queue.c ****       (&TASK_RUN_QUEUE[element_nr])->r2                             = task->r2;
 143:C:/Users/president/Desktop/sbx/input/src/os_base\os_task_queue.c ****       (&TASK_RUN_QUEUE[element_nr])->r3                             = task->r3;
 144:C:/Users/president/Desktop/sbx/input/src/os_base\os_task_queue.c ****       (&TASK_RUN_QUEUE[element_nr])->r4                             = task->r4;
 145:C:/Users/president/Desktop/sbx/input/src/os_base\os_task_queue.c ****       (&TASK_RUN_QUEUE[element_nr])->r5                             = task->r5;
 146:C:/Users/president/Desktop/sbx/input/src/os_base\os_task_queue.c ****       (&TASK_RUN_QUEUE[element_nr])->r6                             = task->r6;
GAS LISTING C:\Users\PRESID~1\AppData\Local\Temp\cc1SpG1Y.s 			page 19


 147:C:/Users/president/Desktop/sbx/input/src/os_base\os_task_queue.c ****       (&TASK_RUN_QUEUE[element_nr])->r7                             = task->r7;
 148:C:/Users/president/Desktop/sbx/input/src/os_base\os_task_queue.c ****       (&TASK_RUN_QUEUE[element_nr])->r8                             = task->r8;
 149:C:/Users/president/Desktop/sbx/input/src/os_base\os_task_queue.c ****       (&TASK_RUN_QUEUE[element_nr])->r9                             = task->r9;
 150:C:/Users/president/Desktop/sbx/input/src/os_base\os_task_queue.c ****       (&TASK_RUN_QUEUE[element_nr])->r10                            = task->r10;
 151:C:/Users/president/Desktop/sbx/input/src/os_base\os_task_queue.c ****       (&TASK_RUN_QUEUE[element_nr])->r11                            = task->r11;
 152:C:/Users/president/Desktop/sbx/input/src/os_base\os_task_queue.c ****       (&TASK_RUN_QUEUE[element_nr])->r12                            = task->r12;
 153:C:/Users/president/Desktop/sbx/input/src/os_base\os_task_queue.c **** #endif
 154:C:/Users/president/Desktop/sbx/input/src/os_base\os_task_queue.c ****       (&TASK_RUN_QUEUE[element_nr])->p_stack_pointer                   = task->p_stack_pointer;
 755              		.loc 1 154 36
 756 070d 0FB655F7 		movzbl	-9(%ebp), %edx
 757              		.loc 1 154 78
 758 0711 8B4508   		movl	8(%ebp), %eax
 759 0714 8B889400 		movl	148(%eax), %ecx
 759      0000
 760              		.loc 1 154 72
 761 071a 89D0     		movl	%edx, %eax
 762 071c C1E003   		sall	$3, %eax
 763 071f 01D0     		addl	%edx, %eax
 764 0721 01C0     		addl	%eax, %eax
 765 0723 01D0     		addl	%edx, %eax
 766 0725 8D1CC500 		leal	0(,%eax,8), %ebx
 766      000000
 767 072c 01D8     		addl	%ebx, %eax
 768 072e 01D0     		addl	%edx, %eax
 769 0730 05940000 		addl	$_TASK_RUN_QUEUE+148, %eax
 769      00
 770 0735 8908     		movl	%ecx, (%eax)
 155:C:/Users/president/Desktop/sbx/input/src/os_base\os_task_queue.c ****       (&TASK_RUN_QUEUE[element_nr])->p_stack_pointer_by_malloc           = task->p_stack_pointer_by
 771              		.loc 1 155 36
 772 0737 0FB655F7 		movzbl	-9(%ebp), %edx
 773              		.loc 1 155 80
 774 073b 8B4508   		movl	8(%ebp), %eax
 775 073e 8B889800 		movl	152(%eax), %ecx
 775      0000
 776              		.loc 1 155 74
 777 0744 89D0     		movl	%edx, %eax
 778 0746 C1E003   		sall	$3, %eax
 779 0749 01D0     		addl	%edx, %eax
 780 074b 01C0     		addl	%eax, %eax
 781 074d 01D0     		addl	%edx, %eax
 782 074f 8D1CC500 		leal	0(,%eax,8), %ebx
 782      000000
 783 0756 01D8     		addl	%ebx, %eax
 784 0758 01D0     		addl	%edx, %eax
 785 075a 05980000 		addl	$_TASK_RUN_QUEUE+152, %eax
 785      00
 786 075f 8908     		movl	%ecx, (%eax)
 156:C:/Users/president/Desktop/sbx/input/src/os_base\os_task_queue.c ****       (&TASK_RUN_QUEUE[element_nr])->p_stack_pointer_start              = task->p_stack_pointer_sta
 787              		.loc 1 156 36
 788 0761 0FB655F7 		movzbl	-9(%ebp), %edx
 789              		.loc 1 156 79
 790 0765 8B4508   		movl	8(%ebp), %eax
 791 0768 8B889C00 		movl	156(%eax), %ecx
 791      0000
 792              		.loc 1 156 73
 793 076e 89D0     		movl	%edx, %eax
 794 0770 C1E003   		sall	$3, %eax
GAS LISTING C:\Users\PRESID~1\AppData\Local\Temp\cc1SpG1Y.s 			page 20


 795 0773 01D0     		addl	%edx, %eax
 796 0775 01C0     		addl	%eax, %eax
 797 0777 01D0     		addl	%edx, %eax
 798 0779 8D1CC500 		leal	0(,%eax,8), %ebx
 798      000000
 799 0780 01D8     		addl	%ebx, %eax
 800 0782 01D0     		addl	%edx, %eax
 801 0784 059C0000 		addl	$_TASK_RUN_QUEUE+156, %eax
 801      00
 802 0789 8908     		movl	%ecx, (%eax)
 157:C:/Users/president/Desktop/sbx/input/src/os_base\os_task_queue.c ****       (&TASK_RUN_QUEUE[element_nr])->stack_size                       = task->stack_size;
 803              		.loc 1 157 36
 804 078b 0FB655F7 		movzbl	-9(%ebp), %edx
 805              		.loc 1 157 77
 806 078f 8B4508   		movl	8(%ebp), %eax
 807 0792 8B88A000 		movl	160(%eax), %ecx
 807      0000
 808              		.loc 1 157 71
 809 0798 89D0     		movl	%edx, %eax
 810 079a C1E003   		sall	$3, %eax
 811 079d 01D0     		addl	%edx, %eax
 812 079f 01C0     		addl	%eax, %eax
 813 07a1 01D0     		addl	%edx, %eax
 814 07a3 8D1CC500 		leal	0(,%eax,8), %ebx
 814      000000
 815 07aa 01D8     		addl	%ebx, %eax
 816 07ac 01D0     		addl	%edx, %eax
 817 07ae 05A00000 		addl	$_TASK_RUN_QUEUE+160, %eax
 817      00
 818 07b3 8908     		movl	%ecx, (%eax)
 158:C:/Users/president/Desktop/sbx/input/src/os_base\os_task_queue.c ****       (&TASK_RUN_QUEUE[element_nr])->p_stack_pointer_end                = task->p_stack_pointer_end
 819              		.loc 1 158 36
 820 07b5 0FB655F7 		movzbl	-9(%ebp), %edx
 821              		.loc 1 158 79
 822 07b9 8B4508   		movl	8(%ebp), %eax
 823 07bc 8B88A400 		movl	164(%eax), %ecx
 823      0000
 824              		.loc 1 158 73
 825 07c2 89D0     		movl	%edx, %eax
 826 07c4 C1E003   		sall	$3, %eax
 827 07c7 01D0     		addl	%edx, %eax
 828 07c9 01C0     		addl	%eax, %eax
 829 07cb 01D0     		addl	%edx, %eax
 830 07cd 8D1CC500 		leal	0(,%eax,8), %ebx
 830      000000
 831 07d4 01D8     		addl	%ebx, %eax
 832 07d6 01D0     		addl	%edx, %eax
 833 07d8 05A40000 		addl	$_TASK_RUN_QUEUE+164, %eax
 833      00
 834 07dd 8908     		movl	%ecx, (%eax)
 159:C:/Users/president/Desktop/sbx/input/src/os_base\os_task_queue.c ****       ret_task = &TASK_RUN_QUEUE[element_nr];
 835              		.loc 1 159 33
 836 07df 0FB655F7 		movzbl	-9(%ebp), %edx
 837              		.loc 1 159 16
 838 07e3 89D0     		movl	%edx, %eax
 839 07e5 C1E003   		sall	$3, %eax
 840 07e8 01D0     		addl	%edx, %eax
GAS LISTING C:\Users\PRESID~1\AppData\Local\Temp\cc1SpG1Y.s 			page 21


 841 07ea 01C0     		addl	%eax, %eax
 842 07ec 01D0     		addl	%edx, %eax
 843 07ee 8D0CC500 		leal	0(,%eax,8), %ecx
 843      000000
 844 07f5 01C8     		addl	%ecx, %eax
 845 07f7 01D0     		addl	%edx, %eax
 846 07f9 05000000 		addl	$_TASK_RUN_QUEUE, %eax
 846      00
 847 07fe 8945F0   		movl	%eax, -16(%ebp)
 848              	L13:
 160:C:/Users/president/Desktop/sbx/input/src/os_base\os_task_queue.c ****    }
 161:C:/Users/president/Desktop/sbx/input/src/os_base\os_task_queue.c ****    return ret_task;
 849              		.loc 1 161 11
 850 0801 8B45F0   		movl	-16(%ebp), %eax
 162:C:/Users/president/Desktop/sbx/input/src/os_base\os_task_queue.c **** }
 851              		.loc 1 162 1
 852 0804 83C424   		addl	$36, %esp
 853 0807 5B       		popl	%ebx
 854              		.cfi_restore 3
 855 0808 5D       		popl	%ebp
 856              		.cfi_restore 5
 857              		.cfi_def_cfa 4, 4
 858 0809 C3       		ret
 859              		.cfi_endproc
 860              	LFE2:
 861              		.globl	_DELETE_FROM_TASK_QUEUE
 863              	_DELETE_FROM_TASK_QUEUE:
 864              	LFB3:
 163:C:/Users/president/Desktop/sbx/input/src/os_base\os_task_queue.c **** void DELETE_FROM_TASK_QUEUE(task_t* task)
 164:C:/Users/president/Desktop/sbx/input/src/os_base\os_task_queue.c **** {
 865              		.loc 1 164 1
 866              		.cfi_startproc
 867 080a 55       		pushl	%ebp
 868              		.cfi_def_cfa_offset 8
 869              		.cfi_offset 5, -8
 870 080b 89E5     		movl	%esp, %ebp
 871              		.cfi_def_cfa_register 5
 872 080d 83EC18   		subl	$24, %esp
 165:C:/Users/president/Desktop/sbx/input/src/os_base\os_task_queue.c ****    task->active                                =   FALSE   ;
 873              		.loc 1 165 48
 874 0810 8B4508   		movl	8(%ebp), %eax
 875 0813 8A10     		movb	(%eax), %dl
 876 0815 83E2FE   		andl	$-2, %edx
 877 0818 8810     		movb	%dl, (%eax)
 166:C:/Users/president/Desktop/sbx/input/src/os_base\os_task_queue.c ****    task->task_queued                           =   FALSE   ;
 878              		.loc 1 166 48
 879 081a 8B4508   		movl	8(%ebp), %eax
 880 081d 8A10     		movb	(%eax), %dl
 881 081f 83E2FD   		andl	$-3, %edx
 882 0822 8810     		movb	%dl, (%eax)
 167:C:/Users/president/Desktop/sbx/input/src/os_base\os_task_queue.c ****    task->idle_task                              =   FALSE   ;
 883              		.loc 1 167 49
 884 0824 8B4508   		movl	8(%ebp), %eax
 885 0827 8A10     		movb	(%eax), %dl
 886 0829 83E2FB   		andl	$-5, %edx
 887 082c 8810     		movb	%dl, (%eax)
 168:C:/Users/president/Desktop/sbx/input/src/os_base\os_task_queue.c ****    task->free                                  =   0u       ;
GAS LISTING C:\Users\PRESID~1\AppData\Local\Temp\cc1SpG1Y.s 			page 22


 888              		.loc 1 168 48
 889 082e 8B4508   		movl	8(%ebp), %eax
 890 0831 8B10     		movl	(%eax), %edx
 891 0833 83E207   		andl	$7, %edx
 892 0836 8910     		movl	%edx, (%eax)
 169:C:/Users/president/Desktop/sbx/input/src/os_base\os_task_queue.c ****    task->nr_of_ins_allowed                        =   0u       ;
 893              		.loc 1 169 51
 894 0838 8B4508   		movl	8(%ebp), %eax
 895 083b C6400400 		movb	$0, 4(%eax)
 170:C:/Users/president/Desktop/sbx/input/src/os_base\os_task_queue.c ****    task->nr_of_ins_activated                      =   0u       ;
 896              		.loc 1 170 51
 897 083f 8B4508   		movl	8(%ebp), %eax
 898 0842 C6400500 		movb	$0, 5(%eax)
 171:C:/Users/president/Desktop/sbx/input/src/os_base\os_task_queue.c ****    ASSIGN_NULL(&task->wait_act_until);
 899              		.loc 1 171 16
 900 0846 8B4508   		movl	8(%ebp), %eax
 901 0849 83C006   		addl	$6, %eax
 902              		.loc 1 171 4
 903 084c 890424   		movl	%eax, (%esp)
 904 084f E8000000 		call	_ASSIGN_NULL
 904      00
 172:C:/Users/president/Desktop/sbx/input/src/os_base\os_task_queue.c ****    ASSIGN_NULL(&task->wait_time);
 905              		.loc 1 172 16
 906 0854 8B4508   		movl	8(%ebp), %eax
 907 0857 83C016   		addl	$22, %eax
 908              		.loc 1 172 4
 909 085a 890424   		movl	%eax, (%esp)
 910 085d E8000000 		call	_ASSIGN_NULL
 910      00
 173:C:/Users/president/Desktop/sbx/input/src/os_base\os_task_queue.c ****    ASSIGN_NULL(&task->time_to_prio_inc);
 911              		.loc 1 173 16
 912 0862 8B4508   		movl	8(%ebp), %eax
 913 0865 83C026   		addl	$38, %eax
 914              		.loc 1 173 4
 915 0868 890424   		movl	%eax, (%esp)
 916 086b E8000000 		call	_ASSIGN_NULL
 916      00
 174:C:/Users/president/Desktop/sbx/input/src/os_base\os_task_queue.c ****    task->overwaittime_per_prio_inc_step        =   0u       ;
 917              		.loc 1 174 48
 918 0870 8B4508   		movl	8(%ebp), %eax
 919 0873 C7403800 		movl	$0, 56(%eax)
 919      000000
 175:C:/Users/president/Desktop/sbx/input/src/os_base\os_task_queue.c ****    ASSIGN_NULL(&task->max_allowed_wait_time);
 920              		.loc 1 175 16
 921 087a 8B4508   		movl	8(%ebp), %eax
 922 087d 83C03C   		addl	$60, %eax
 923              		.loc 1 175 4
 924 0880 890424   		movl	%eax, (%esp)
 925 0883 E8000000 		call	_ASSIGN_NULL
 925      00
 176:C:/Users/president/Desktop/sbx/input/src/os_base\os_task_queue.c ****    ASSIGN_NULL(&task->exe_time);
 926              		.loc 1 176 16
 927 0888 8B4508   		movl	8(%ebp), %eax
 928 088b 83C04C   		addl	$76, %eax
 929              		.loc 1 176 4
 930 088e 890424   		movl	%eax, (%esp)
 931 0891 E8000000 		call	_ASSIGN_NULL
GAS LISTING C:\Users\PRESID~1\AppData\Local\Temp\cc1SpG1Y.s 			page 23


 931      00
 177:C:/Users/president/Desktop/sbx/input/src/os_base\os_task_queue.c ****    ASSIGN_NULL(&task->start_time);
 932              		.loc 1 177 16
 933 0896 8B4508   		movl	8(%ebp), %eax
 934 0899 83C05C   		addl	$92, %eax
 935              		.loc 1 177 4
 936 089c 890424   		movl	%eax, (%esp)
 937 089f E8000000 		call	_ASSIGN_NULL
 937      00
 178:C:/Users/president/Desktop/sbx/input/src/os_base\os_task_queue.c ****    task->current_prio                          =   0u       ;
 938              		.loc 1 178 48
 939 08a4 8B4508   		movl	8(%ebp), %eax
 940 08a7 C6406C00 		movb	$0, 108(%eax)
 179:C:/Users/president/Desktop/sbx/input/src/os_base\os_task_queue.c ****    task->default_prio                          =   0u      ;
 941              		.loc 1 179 48
 942 08ab 8B4508   		movl	8(%ebp), %eax
 943 08ae C6406D00 		movb	$0, 109(%eax)
 180:C:/Users/president/Desktop/sbx/input/src/os_base\os_task_queue.c ****    task->fp                                    =   0u       ;
 944              		.loc 1 180 48
 945 08b2 8B4508   		movl	8(%ebp), %eax
 946 08b5 C7407400 		movl	$0, 116(%eax)
 946      000000
 181:C:/Users/president/Desktop/sbx/input/src/os_base\os_task_queue.c ****    task->state_request                         =   &OS_TASK_STATE_REQUEST       ;
 947              		.loc 1 181 48
 948 08bc 8B4508   		movl	8(%ebp), %eax
 949 08bf C7407800 		movl	$_OS_TASK_STATE_REQUEST, 120(%eax)
 949      000000
 182:C:/Users/president/Desktop/sbx/input/src/os_base\os_task_queue.c ****    task->task_state                            =   E_TASK_UNSPECIFIED;
 950              		.loc 1 182 48
 951 08c6 8B4508   		movl	8(%ebp), %eax
 952 08c9 C7407C00 		movl	$0, 124(%eax)
 952      000000
 183:C:/Users/president/Desktop/sbx/input/src/os_base\os_task_queue.c ****    task->task_group                            =   0u       ;
 953              		.loc 1 183 48
 954 08d0 8B4508   		movl	8(%ebp), %eax
 955 08d3 C7808000 		movl	$0, 128(%eax)
 955      00000000 
 955      0000
 184:C:/Users/president/Desktop/sbx/input/src/os_base\os_task_queue.c **** #if(CFG_PROCESSOR == MCU_X86)
 185:C:/Users/president/Desktop/sbx/input/src/os_base\os_task_queue.c ****    task->eax                                   =   0u              ;
 956              		.loc 1 185 48
 957 08dd 8B4508   		movl	8(%ebp), %eax
 958 08e0 C7808400 		movl	$0, 132(%eax)
 958      00000000 
 958      0000
 186:C:/Users/president/Desktop/sbx/input/src/os_base\os_task_queue.c ****    task->ebx                                   =   0u             ;
 959              		.loc 1 186 48
 960 08ea 8B4508   		movl	8(%ebp), %eax
 961 08ed C7808800 		movl	$0, 136(%eax)
 961      00000000 
 961      0000
 187:C:/Users/president/Desktop/sbx/input/src/os_base\os_task_queue.c ****    task->ecx                                   =   0u              ;
 962              		.loc 1 187 48
 963 08f7 8B4508   		movl	8(%ebp), %eax
 964 08fa C7808C00 		movl	$0, 140(%eax)
 964      00000000 
 964      0000
GAS LISTING C:\Users\PRESID~1\AppData\Local\Temp\cc1SpG1Y.s 			page 24


 188:C:/Users/president/Desktop/sbx/input/src/os_base\os_task_queue.c ****    task->edx                                   =   0u              ;
 965              		.loc 1 188 48
 966 0904 8B4508   		movl	8(%ebp), %eax
 967 0907 C7809000 		movl	$0, 144(%eax)
 967      00000000 
 967      0000
 189:C:/Users/president/Desktop/sbx/input/src/os_base\os_task_queue.c **** #elif(CFG_PROCESSOR == MCU_CORTEX_M4)
 190:C:/Users/president/Desktop/sbx/input/src/os_base\os_task_queue.c ****    task->r0                                   =   0u              ;
 191:C:/Users/president/Desktop/sbx/input/src/os_base\os_task_queue.c ****    task->r1                                   =   0u              ;
 192:C:/Users/president/Desktop/sbx/input/src/os_base\os_task_queue.c ****    task->r2                                   =   0u              ;
 193:C:/Users/president/Desktop/sbx/input/src/os_base\os_task_queue.c ****    task->r3                                   =   0u              ;
 194:C:/Users/president/Desktop/sbx/input/src/os_base\os_task_queue.c ****    task->r4                                   =   0u              ;
 195:C:/Users/president/Desktop/sbx/input/src/os_base\os_task_queue.c ****    task->r5                                   =   0u              ;
 196:C:/Users/president/Desktop/sbx/input/src/os_base\os_task_queue.c ****    task->r6                                   =   0u              ;
 197:C:/Users/president/Desktop/sbx/input/src/os_base\os_task_queue.c ****    task->r7                                   =   0u              ;
 198:C:/Users/president/Desktop/sbx/input/src/os_base\os_task_queue.c ****    task->r8                                   =   0u              ;
 199:C:/Users/president/Desktop/sbx/input/src/os_base\os_task_queue.c ****    task->r9                                   =   0u              ;
 200:C:/Users/president/Desktop/sbx/input/src/os_base\os_task_queue.c ****    task->r10                                  =   0u             ;
 201:C:/Users/president/Desktop/sbx/input/src/os_base\os_task_queue.c ****    task->r11                                  =   0u             ;
 202:C:/Users/president/Desktop/sbx/input/src/os_base\os_task_queue.c ****    task->r12                                  =   0u             ;
 203:C:/Users/president/Desktop/sbx/input/src/os_base\os_task_queue.c **** #else
 204:C:/Users/president/Desktop/sbx/input/src/os_base\os_task_queue.c **** #error "os_task_queue.c"
 205:C:/Users/president/Desktop/sbx/input/src/os_base\os_task_queue.c **** #endif
 206:C:/Users/president/Desktop/sbx/input/src/os_base\os_task_queue.c ****    task->p_stack_pointer                         =   0u       ;
 968              		.loc 1 206 50
 969 0911 8B4508   		movl	8(%ebp), %eax
 970 0914 C7809400 		movl	$0, 148(%eax)
 970      00000000 
 970      0000
 207:C:/Users/president/Desktop/sbx/input/src/os_base\os_task_queue.c ****    task->p_stack_pointer_by_malloc                 =   0u       ;
 971              		.loc 1 207 52
 972 091e 8B4508   		movl	8(%ebp), %eax
 973 0921 C7809800 		movl	$0, 152(%eax)
 973      00000000 
 973      0000
 208:C:/Users/president/Desktop/sbx/input/src/os_base\os_task_queue.c ****    task->p_stack_pointer_start                    =   0u       ;
 974              		.loc 1 208 51
 975 092b 8B4508   		movl	8(%ebp), %eax
 976 092e C7809C00 		movl	$0, 156(%eax)
 976      00000000 
 976      0000
 209:C:/Users/president/Desktop/sbx/input/src/os_base\os_task_queue.c ****    task->stack_size                             =   0u       ;
 977              		.loc 1 209 49
 978 0938 8B4508   		movl	8(%ebp), %eax
 979 093b C780A000 		movl	$0, 160(%eax)
 979      00000000 
 979      0000
 210:C:/Users/president/Desktop/sbx/input/src/os_base\os_task_queue.c ****    task->p_stack_pointer_end                      =   0u       ;
 980              		.loc 1 210 51
 981 0945 8B4508   		movl	8(%ebp), %eax
 982 0948 C780A400 		movl	$0, 164(%eax)
 982      00000000 
 982      0000
 211:C:/Users/president/Desktop/sbx/input/src/os_base\os_task_queue.c **** }
 983              		.loc 1 211 1
 984 0952 90       		nop
 985 0953 C9       		leave
GAS LISTING C:\Users\PRESID~1\AppData\Local\Temp\cc1SpG1Y.s 			page 25


 986              		.cfi_restore 5
 987              		.cfi_def_cfa 4, 4
 988 0954 C3       		ret
 989              		.cfi_endproc
 990              	LFE3:
 991              		.globl	_GET_FROM_TASK_QUEUE
 993              	_GET_FROM_TASK_QUEUE:
 994              	LFB4:
 212:C:/Users/president/Desktop/sbx/input/src/os_base\os_task_queue.c **** task_t* GET_FROM_TASK_QUEUE(scheduling_t* scheduling_queue_element)
 213:C:/Users/president/Desktop/sbx/input/src/os_base\os_task_queue.c **** {
 995              		.loc 1 213 1
 996              		.cfi_startproc
 997 0955 55       		pushl	%ebp
 998              		.cfi_def_cfa_offset 8
 999              		.cfi_offset 5, -8
 1000 0956 89E5     		movl	%esp, %ebp
 1001              		.cfi_def_cfa_register 5
 214:C:/Users/president/Desktop/sbx/input/src/os_base\os_task_queue.c ****    return ((task_t*)*scheduling_queue_element);
 1002              		.loc 1 214 12
 1003 0958 8B4508   		movl	8(%ebp), %eax
 1004 095b 8B00     		movl	(%eax), %eax
 215:C:/Users/president/Desktop/sbx/input/src/os_base\os_task_queue.c **** }
 1005              		.loc 1 215 1
 1006 095d 5D       		popl	%ebp
 1007              		.cfi_restore 5
 1008              		.cfi_def_cfa 4, 4
 1009 095e C3       		ret
 1010              		.cfi_endproc
 1011              	LFE4:
 1012              		.globl	_GET_FROM_SCHEDULING_QUEUE
 1014              	_GET_FROM_SCHEDULING_QUEUE:
 1015              	LFB5:
 216:C:/Users/president/Desktop/sbx/input/src/os_base\os_task_queue.c **** scheduling_t* GET_FROM_SCHEDULING_QUEUE(unsigned_char_t element_nr)
 217:C:/Users/president/Desktop/sbx/input/src/os_base\os_task_queue.c **** {
 1016              		.loc 1 217 1
 1017              		.cfi_startproc
 1018 095f 55       		pushl	%ebp
 1019              		.cfi_def_cfa_offset 8
 1020              		.cfi_offset 5, -8
 1021 0960 89E5     		movl	%esp, %ebp
 1022              		.cfi_def_cfa_register 5
 1023 0962 83EC04   		subl	$4, %esp
 1024 0965 8B4508   		movl	8(%ebp), %eax
 1025 0968 8845FC   		movb	%al, -4(%ebp)
 218:C:/Users/president/Desktop/sbx/input/src/os_base\os_task_queue.c ****    return ((scheduling_t*)&TASK_SCHEDULING_QUEUE[element_nr]);
 1026              		.loc 1 218 49
 1027 096b 0FB645FC 		movzbl	-4(%ebp), %eax
 1028              		.loc 1 218 12
 1029 096f C1E002   		sall	$2, %eax
 1030 0972 05000000 		addl	$_TASK_SCHEDULING_QUEUE, %eax
 1030      00
 219:C:/Users/president/Desktop/sbx/input/src/os_base\os_task_queue.c **** }
 1031              		.loc 1 219 1
 1032 0977 C9       		leave
 1033              		.cfi_restore 5
 1034              		.cfi_def_cfa 4, 4
 1035 0978 C3       		ret
GAS LISTING C:\Users\PRESID~1\AppData\Local\Temp\cc1SpG1Y.s 			page 26


 1036              		.cfi_endproc
 1037              	LFE5:
 1038              		.globl	_DELETE_FROM_SCHEDULING_QUEUE
 1040              	_DELETE_FROM_SCHEDULING_QUEUE:
 1041              	LFB6:
 220:C:/Users/president/Desktop/sbx/input/src/os_base\os_task_queue.c **** /* Pointer Queue Handling*/
 221:C:/Users/president/Desktop/sbx/input/src/os_base\os_task_queue.c **** void DELETE_FROM_SCHEDULING_QUEUE(scheduling_t* scheduling_queue_element)
 222:C:/Users/president/Desktop/sbx/input/src/os_base\os_task_queue.c **** {
 1042              		.loc 1 222 1
 1043              		.cfi_startproc
 1044 0979 55       		pushl	%ebp
 1045              		.cfi_def_cfa_offset 8
 1046              		.cfi_offset 5, -8
 1047 097a 89E5     		movl	%esp, %ebp
 1048              		.cfi_def_cfa_register 5
 223:C:/Users/president/Desktop/sbx/input/src/os_base\os_task_queue.c ****    *scheduling_queue_element = 0u;
 1049              		.loc 1 223 30
 1050 097c 8B4508   		movl	8(%ebp), %eax
 1051 097f C7000000 		movl	$0, (%eax)
 1051      0000
 224:C:/Users/president/Desktop/sbx/input/src/os_base\os_task_queue.c **** }
 1052              		.loc 1 224 1
 1053 0985 90       		nop
 1054 0986 5D       		popl	%ebp
 1055              		.cfi_restore 5
 1056              		.cfi_def_cfa 4, 4
 1057 0987 C3       		ret
 1058              		.cfi_endproc
 1059              	LFE6:
 1060              		.globl	_ADD_TO_SCHEDULING_QUEUE
 1062              	_ADD_TO_SCHEDULING_QUEUE:
 1063              	LFB7:
 225:C:/Users/president/Desktop/sbx/input/src/os_base\os_task_queue.c **** void ADD_TO_SCHEDULING_QUEUE(task_t* task)
 226:C:/Users/president/Desktop/sbx/input/src/os_base\os_task_queue.c **** {
 1064              		.loc 1 226 1
 1065              		.cfi_startproc
 1066 0988 55       		pushl	%ebp
 1067              		.cfi_def_cfa_offset 8
 1068              		.cfi_offset 5, -8
 1069 0989 89E5     		movl	%esp, %ebp
 1070              		.cfi_def_cfa_register 5
 1071 098b 83EC10   		subl	$16, %esp
 227:C:/Users/president/Desktop/sbx/input/src/os_base\os_task_queue.c ****    /*
 228:C:/Users/president/Desktop/sbx/input/src/os_base\os_task_queue.c ****    Description:
 229:C:/Users/president/Desktop/sbx/input/src/os_base\os_task_queue.c ****    add "task" into next free slot of TASK_SCHEDULING_QUEUE
 230:C:/Users/president/Desktop/sbx/input/src/os_base\os_task_queue.c **** 
 231:C:/Users/president/Desktop/sbx/input/src/os_base\os_task_queue.c ****    in:     task_t* task (task to be added)
 232:C:/Users/president/Desktop/sbx/input/src/os_base\os_task_queue.c ****    out:
 233:C:/Users/president/Desktop/sbx/input/src/os_base\os_task_queue.c ****    */
 234:C:/Users/president/Desktop/sbx/input/src/os_base\os_task_queue.c ****    unsigned_char_t Add_successful = FALSE;
 1072              		.loc 1 234 20
 1073 098e C645FF00 		movb	$0, -1(%ebp)
 235:C:/Users/president/Desktop/sbx/input/src/os_base\os_task_queue.c ****    unsigned_char_t index = 0u;
 1074              		.loc 1 235 20
 1075 0992 C645FE00 		movb	$0, -2(%ebp)
 236:C:/Users/president/Desktop/sbx/input/src/os_base\os_task_queue.c **** 
 237:C:/Users/president/Desktop/sbx/input/src/os_base\os_task_queue.c ****    while(  (index < MAX_RUN_QUEUE_SIZE)
GAS LISTING C:\Users\PRESID~1\AppData\Local\Temp\cc1SpG1Y.s 			page 27


 1076              		.loc 1 237 9
 1077 0996 EB28     		jmp	L22
 1078              	L25:
 238:C:/Users/president/Desktop/sbx/input/src/os_base\os_task_queue.c ****            &&(Add_successful == FALSE))
 239:C:/Users/president/Desktop/sbx/input/src/os_base\os_task_queue.c ****    {
 240:C:/Users/president/Desktop/sbx/input/src/os_base\os_task_queue.c ****       if(TASK_SCHEDULING_QUEUE[index] == NULL)
 1079              		.loc 1 240 31
 1080 0998 0FB645FE 		movzbl	-2(%ebp), %eax
 1081 099c 8B048500 		movl	_TASK_SCHEDULING_QUEUE(,%eax,4), %eax
 1081      000000
 1082              		.loc 1 240 9
 1083 09a3 85C0     		testl	%eax, %eax
 1084 09a5 7512     		jne	L23
 241:C:/Users/president/Desktop/sbx/input/src/os_base\os_task_queue.c ****       {
 242:C:/Users/president/Desktop/sbx/input/src/os_base\os_task_queue.c ****          TASK_SCHEDULING_QUEUE[index] = task;
 1085              		.loc 1 242 31
 1086 09a7 0FB645FE 		movzbl	-2(%ebp), %eax
 1087              		.loc 1 242 39
 1088 09ab 8B5508   		movl	8(%ebp), %edx
 1089 09ae 89148500 		movl	%edx, _TASK_SCHEDULING_QUEUE(,%eax,4)
 1089      000000
 243:C:/Users/president/Desktop/sbx/input/src/os_base\os_task_queue.c ****          Add_successful         = TRUE;
 1090              		.loc 1 243 33
 1091 09b5 C645FF01 		movb	$1, -1(%ebp)
 1092              	L23:
 244:C:/Users/president/Desktop/sbx/input/src/os_base\os_task_queue.c ****       }
 245:C:/Users/president/Desktop/sbx/input/src/os_base\os_task_queue.c ****       index++;
 1093              		.loc 1 245 12
 1094 09b9 8A45FE   		movb	-2(%ebp), %al
 1095 09bc 40       		incl	%eax
 1096 09bd 8845FE   		movb	%al, -2(%ebp)
 1097              	L22:
 237:C:/Users/president/Desktop/sbx/input/src/os_base\os_task_queue.c ****            &&(Add_successful == FALSE))
 1098              		.loc 1 237 9
 1099 09c0 807DFE09 		cmpb	$9, -2(%ebp)
 1100 09c4 7707     		ja	L27
 238:C:/Users/president/Desktop/sbx/input/src/os_base\os_task_queue.c ****    {
 1101              		.loc 1 238 12
 1102 09c6 807DFF00 		cmpb	$0, -1(%ebp)
 1103 09ca 74CC     		je	L25
 246:C:/Users/president/Desktop/sbx/input/src/os_base\os_task_queue.c ****    }
 247:C:/Users/president/Desktop/sbx/input/src/os_base\os_task_queue.c ****    return;
 1104              		.loc 1 247 4
 1105 09cc 90       		nop
 1106              	L27:
 1107 09cd 90       		nop
 248:C:/Users/president/Desktop/sbx/input/src/os_base\os_task_queue.c **** }
 1108              		.loc 1 248 1
 1109 09ce C9       		leave
 1110              		.cfi_restore 5
 1111              		.cfi_def_cfa 4, 4
 1112 09cf C3       		ret
 1113              		.cfi_endproc
 1114              	LFE7:
 1115              		.globl	_GET_IDLE_TASK
 1117              	_GET_IDLE_TASK:
 1118              	LFB8:
GAS LISTING C:\Users\PRESID~1\AppData\Local\Temp\cc1SpG1Y.s 			page 28


 249:C:/Users/president/Desktop/sbx/input/src/os_base\os_task_queue.c **** #if(0)
 250:C:/Users/president/Desktop/sbx/input/src/os_base\os_task_queue.c **** void UpdateSchedulingQueue(void)
 251:C:/Users/president/Desktop/sbx/input/src/os_base\os_task_queue.c **** {
 252:C:/Users/president/Desktop/sbx/input/src/os_base\os_task_queue.c ****    /* eliminate emptry link list entries (should be colleted at the high numbers) */
 253:C:/Users/president/Desktop/sbx/input/src/os_base\os_task_queue.c ****    unsigned_char_t dest = 0u, src = 0u;
 254:C:/Users/president/Desktop/sbx/input/src/os_base\os_task_queue.c **** 
 255:C:/Users/president/Desktop/sbx/input/src/os_base\os_task_queue.c ****    while (dest < MAX_RUN_PQUEUE_SIZE)
 256:C:/Users/president/Desktop/sbx/input/src/os_base\os_task_queue.c ****    {
 257:C:/Users/president/Desktop/sbx/input/src/os_base\os_task_queue.c ****       if(TASK_SCHEDULING_QUEUE[dest] == 0u)
 258:C:/Users/president/Desktop/sbx/input/src/os_base\os_task_queue.c ****       {
 259:C:/Users/president/Desktop/sbx/input/src/os_base\os_task_queue.c ****          /* found empty entry ->shift following elements left in array */
 260:C:/Users/president/Desktop/sbx/input/src/os_base\os_task_queue.c **** 
 261:C:/Users/president/Desktop/sbx/input/src/os_base\os_task_queue.c ****          src = dest; /* start from empty entry point */
 262:C:/Users/president/Desktop/sbx/input/src/os_base\os_task_queue.c ****          while((src < MAX_RUN_PQUEUE_SIZE)&&(TASK_SCHEDULING_QUEUE[src]==0u))
 263:C:/Users/president/Desktop/sbx/input/src/os_base\os_task_queue.c ****          {
 264:C:/Users/president/Desktop/sbx/input/src/os_base\os_task_queue.c ****             src++;
 265:C:/Users/president/Desktop/sbx/input/src/os_base\os_task_queue.c ****          }
 266:C:/Users/president/Desktop/sbx/input/src/os_base\os_task_queue.c ****          if((src < MAX_RUN_PQUEUE_SIZE)&&(TASK_SCHEDULING_QUEUE[src]!=0))
 267:C:/Users/president/Desktop/sbx/input/src/os_base\os_task_queue.c ****          {
 268:C:/Users/president/Desktop/sbx/input/src/os_base\os_task_queue.c ****             TASK_SCHEDULING_QUEUE[dest] = TASK_SCHEDULING_QUEUE[src];
 269:C:/Users/president/Desktop/sbx/input/src/os_base\os_task_queue.c ****             TASK_SCHEDULING_QUEUE[src]  = 0u;
 270:C:/Users/president/Desktop/sbx/input/src/os_base\os_task_queue.c ****          }
 271:C:/Users/president/Desktop/sbx/input/src/os_base\os_task_queue.c ****       }
 272:C:/Users/president/Desktop/sbx/input/src/os_base\os_task_queue.c ****       dest++;
 273:C:/Users/president/Desktop/sbx/input/src/os_base\os_task_queue.c ****    }
 274:C:/Users/president/Desktop/sbx/input/src/os_base\os_task_queue.c **** }
 275:C:/Users/president/Desktop/sbx/input/src/os_base\os_task_queue.c **** #endif
 276:C:/Users/president/Desktop/sbx/input/src/os_base\os_task_queue.c **** 
 277:C:/Users/president/Desktop/sbx/input/src/os_base\os_task_queue.c **** /* Idle task queue handling */
 278:C:/Users/president/Desktop/sbx/input/src/os_base\os_task_queue.c **** task_t* GET_IDLE_TASK(void)
 279:C:/Users/president/Desktop/sbx/input/src/os_base\os_task_queue.c **** {
 1119              		.loc 1 279 1
 1120              		.cfi_startproc
 1121 09d0 55       		pushl	%ebp
 1122              		.cfi_def_cfa_offset 8
 1123              		.cfi_offset 5, -8
 1124 09d1 89E5     		movl	%esp, %ebp
 1125              		.cfi_def_cfa_register 5
 280:C:/Users/president/Desktop/sbx/input/src/os_base\os_task_queue.c ****    return (&TASK_IDLE_QUEUE[0u]);
 1126              		.loc 1 280 12
 1127 09d3 B8000000 		movl	$_TASK_IDLE_QUEUE, %eax
 1127      00
 281:C:/Users/president/Desktop/sbx/input/src/os_base\os_task_queue.c **** }
 1128              		.loc 1 281 1
 1129 09d8 5D       		popl	%ebp
 1130              		.cfi_restore 5
 1131              		.cfi_def_cfa 4, 4
 1132 09d9 C3       		ret
 1133              		.cfi_endproc
 1134              	LFE8:
 1135              		.globl	_ADD_TO_IDLE_TASK_QUEUE
 1137              	_ADD_TO_IDLE_TASK_QUEUE:
 1138              	LFB9:
 282:C:/Users/president/Desktop/sbx/input/src/os_base\os_task_queue.c **** void ADD_TO_IDLE_TASK_QUEUE(task_t* task)
 283:C:/Users/president/Desktop/sbx/input/src/os_base\os_task_queue.c **** {
 1139              		.loc 1 283 1
 1140              		.cfi_startproc
GAS LISTING C:\Users\PRESID~1\AppData\Local\Temp\cc1SpG1Y.s 			page 29


 1141 09da 55       		pushl	%ebp
 1142              		.cfi_def_cfa_offset 8
 1143              		.cfi_offset 5, -8
 1144 09db 89E5     		movl	%esp, %ebp
 1145              		.cfi_def_cfa_register 5
 1146 09dd 83EC18   		subl	$24, %esp
 284:C:/Users/president/Desktop/sbx/input/src/os_base\os_task_queue.c ****    /* only 1 element for TASK_IDLE_QUEUE allowed */
 285:C:/Users/president/Desktop/sbx/input/src/os_base\os_task_queue.c ****    if((&TASK_IDLE_QUEUE[0u])->idle_task == FALSE)
 1147              		.loc 1 285 41
 1148 09e0 A0000000 		movb	_TASK_IDLE_QUEUE, %al
 1148      00
 1149 09e5 83E004   		andl	$4, %eax
 1150              		.loc 1 285 6
 1151 09e8 84C0     		testb	%al, %al
 1152 09ea 0F85CE01 		jne	L32
 1152      0000
 286:C:/Users/president/Desktop/sbx/input/src/os_base\os_task_queue.c ****    {
 287:C:/Users/president/Desktop/sbx/input/src/os_base\os_task_queue.c ****       (&TASK_IDLE_QUEUE[0u])->active                                =   task->active           ;
 1153              		.loc 1 287 77
 1154 09f0 8B4508   		movl	8(%ebp), %eax
 1155 09f3 8A00     		movb	(%eax), %al
 1156 09f5 83E001   		andl	$1, %eax
 1157              		.loc 1 287 69
 1158 09f8 83E001   		andl	$1, %eax
 1159 09fb 88C2     		movb	%al, %dl
 1160 09fd A0000000 		movb	_TASK_IDLE_QUEUE, %al
 1160      00
 1161 0a02 83E0FE   		andl	$-2, %eax
 1162 0a05 09D0     		orl	%edx, %eax
 1163 0a07 A2000000 		movb	%al, _TASK_IDLE_QUEUE
 1163      00
 288:C:/Users/president/Desktop/sbx/input/src/os_base\os_task_queue.c ****       (&TASK_IDLE_QUEUE[0u])->task_queued                           =   task->task_queued      ;
 1164              		.loc 1 288 77
 1165 0a0c 8B4508   		movl	8(%ebp), %eax
 1166 0a0f 8A00     		movb	(%eax), %al
 1167 0a11 D0E8     		shrb	%al
 1168 0a13 83E001   		andl	$1, %eax
 1169              		.loc 1 288 69
 1170 0a16 83E001   		andl	$1, %eax
 1171 0a19 8D1400   		leal	(%eax,%eax), %edx
 1172 0a1c A0000000 		movb	_TASK_IDLE_QUEUE, %al
 1172      00
 1173 0a21 83E0FD   		andl	$-3, %eax
 1174 0a24 09D0     		orl	%edx, %eax
 1175 0a26 A2000000 		movb	%al, _TASK_IDLE_QUEUE
 1175      00
 289:C:/Users/president/Desktop/sbx/input/src/os_base\os_task_queue.c ****       (&TASK_IDLE_QUEUE[0u])->idle_task                              =   task->idle_task         ;
 1176              		.loc 1 289 78
 1177 0a2b 8B4508   		movl	8(%ebp), %eax
 1178 0a2e 8A00     		movb	(%eax), %al
 1179 0a30 C0E802   		shrb	$2, %al
 1180 0a33 83E001   		andl	$1, %eax
 1181              		.loc 1 289 70
 1182 0a36 83E001   		andl	$1, %eax
 1183 0a39 8D148500 		leal	0(,%eax,4), %edx
 1183      000000
 1184 0a40 A0000000 		movb	_TASK_IDLE_QUEUE, %al
GAS LISTING C:\Users\PRESID~1\AppData\Local\Temp\cc1SpG1Y.s 			page 30


 1184      00
 1185 0a45 83E0FB   		andl	$-5, %eax
 1186 0a48 09D0     		orl	%edx, %eax
 1187 0a4a A2000000 		movb	%al, _TASK_IDLE_QUEUE
 1187      00
 290:C:/Users/president/Desktop/sbx/input/src/os_base\os_task_queue.c ****       (&TASK_IDLE_QUEUE[0u])->free                                  =   task->free             ;
 1188              		.loc 1 290 77
 1189 0a4f 8B4508   		movl	8(%ebp), %eax
 1190 0a52 8B00     		movl	(%eax), %eax
 1191 0a54 C1E803   		shrl	$3, %eax
 1192              		.loc 1 290 69
 1193 0a57 8D14C500 		leal	0(,%eax,8), %edx
 1193      000000
 1194 0a5e A1000000 		movl	_TASK_IDLE_QUEUE, %eax
 1194      00
 1195 0a63 83E007   		andl	$7, %eax
 1196 0a66 09D0     		orl	%edx, %eax
 1197 0a68 A3000000 		movl	%eax, _TASK_IDLE_QUEUE
 1197      00
 291:C:/Users/president/Desktop/sbx/input/src/os_base\os_task_queue.c ****       (&TASK_IDLE_QUEUE[0u])->nr_of_ins_allowed                        =   task->nr_of_ins_allowed 
 1198              		.loc 1 291 80
 1199 0a6d 8B4508   		movl	8(%ebp), %eax
 1200 0a70 8A4004   		movb	4(%eax), %al
 1201              		.loc 1 291 72
 1202 0a73 A2040000 		movb	%al, _TASK_IDLE_QUEUE+4
 1202      00
 292:C:/Users/president/Desktop/sbx/input/src/os_base\os_task_queue.c ****       (&TASK_IDLE_QUEUE[0u])->nr_of_ins_activated                      =   task->nr_of_ins_activate
 1203              		.loc 1 292 80
 1204 0a78 8B4508   		movl	8(%ebp), %eax
 1205 0a7b 8A4005   		movb	5(%eax), %al
 1206              		.loc 1 292 72
 1207 0a7e A2050000 		movb	%al, _TASK_IDLE_QUEUE+5
 1207      00
 293:C:/Users/president/Desktop/sbx/input/src/os_base\os_task_queue.c ****       ASSIGN(&(&TASK_IDLE_QUEUE[0u])->wait_act_until, &task->wait_act_until);
 1208              		.loc 1 293 55
 1209 0a83 8B4508   		movl	8(%ebp), %eax
 1210 0a86 83C006   		addl	$6, %eax
 1211              		.loc 1 293 7
 1212 0a89 89442404 		movl	%eax, 4(%esp)
 1213 0a8d C7042406 		movl	$_TASK_IDLE_QUEUE+6, (%esp)
 1213      000000
 1214 0a94 E8000000 		call	_ASSIGN
 1214      00
 294:C:/Users/president/Desktop/sbx/input/src/os_base\os_task_queue.c ****       ASSIGN(&(&TASK_IDLE_QUEUE[0u])->wait_time, &task->wait_time);
 1215              		.loc 1 294 50
 1216 0a99 8B4508   		movl	8(%ebp), %eax
 1217 0a9c 83C016   		addl	$22, %eax
 1218              		.loc 1 294 7
 1219 0a9f 89442404 		movl	%eax, 4(%esp)
 1220 0aa3 C7042416 		movl	$_TASK_IDLE_QUEUE+22, (%esp)
 1220      000000
 1221 0aaa E8000000 		call	_ASSIGN
 1221      00
 295:C:/Users/president/Desktop/sbx/input/src/os_base\os_task_queue.c ****       ASSIGN(&(&TASK_IDLE_QUEUE[0u])->time_to_prio_inc, &task->time_to_prio_inc);
 1222              		.loc 1 295 57
 1223 0aaf 8B4508   		movl	8(%ebp), %eax
 1224 0ab2 83C026   		addl	$38, %eax
GAS LISTING C:\Users\PRESID~1\AppData\Local\Temp\cc1SpG1Y.s 			page 31


 1225              		.loc 1 295 7
 1226 0ab5 89442404 		movl	%eax, 4(%esp)
 1227 0ab9 C7042426 		movl	$_TASK_IDLE_QUEUE+38, (%esp)
 1227      000000
 1228 0ac0 E8000000 		call	_ASSIGN
 1228      00
 296:C:/Users/president/Desktop/sbx/input/src/os_base\os_task_queue.c ****       (&TASK_IDLE_QUEUE[0u])->overwaittime_per_prio_inc_step       =    task->overwaittime_per_prio
 1229              		.loc 1 296 77
 1230 0ac5 8B4508   		movl	8(%ebp), %eax
 1231 0ac8 8B4038   		movl	56(%eax), %eax
 1232              		.loc 1 296 68
 1233 0acb A3380000 		movl	%eax, _TASK_IDLE_QUEUE+56
 1233      00
 297:C:/Users/president/Desktop/sbx/input/src/os_base\os_task_queue.c ****       ASSIGN(&(&TASK_IDLE_QUEUE[0u])->max_allowed_wait_time, &task->max_allowed_wait_time);
 1234              		.loc 1 297 62
 1235 0ad0 8B4508   		movl	8(%ebp), %eax
 1236 0ad3 83C03C   		addl	$60, %eax
 1237              		.loc 1 297 7
 1238 0ad6 89442404 		movl	%eax, 4(%esp)
 1239 0ada C704243C 		movl	$_TASK_IDLE_QUEUE+60, (%esp)
 1239      000000
 1240 0ae1 E8000000 		call	_ASSIGN
 1240      00
 298:C:/Users/president/Desktop/sbx/input/src/os_base\os_task_queue.c ****       ASSIGN(&(&TASK_IDLE_QUEUE[0u])->exe_time, &task->exe_time);
 1241              		.loc 1 298 49
 1242 0ae6 8B4508   		movl	8(%ebp), %eax
 1243 0ae9 83C04C   		addl	$76, %eax
 1244              		.loc 1 298 7
 1245 0aec 89442404 		movl	%eax, 4(%esp)
 1246 0af0 C704244C 		movl	$_TASK_IDLE_QUEUE+76, (%esp)
 1246      000000
 1247 0af7 E8000000 		call	_ASSIGN
 1247      00
 299:C:/Users/president/Desktop/sbx/input/src/os_base\os_task_queue.c ****       (&TASK_IDLE_QUEUE[0u])->current_prio                          =   task->current_prio     ;
 1248              		.loc 1 299 77
 1249 0afc 8B4508   		movl	8(%ebp), %eax
 1250 0aff 8A406C   		movb	108(%eax), %al
 1251              		.loc 1 299 69
 1252 0b02 A26C0000 		movb	%al, _TASK_IDLE_QUEUE+108
 1252      00
 300:C:/Users/president/Desktop/sbx/input/src/os_base\os_task_queue.c ****       (&TASK_IDLE_QUEUE[0u])->default_prio                          =   task->default_prio     ;
 1253              		.loc 1 300 77
 1254 0b07 8B4508   		movl	8(%ebp), %eax
 1255 0b0a 8A406D   		movb	109(%eax), %al
 1256              		.loc 1 300 69
 1257 0b0d A26D0000 		movb	%al, _TASK_IDLE_QUEUE+109
 1257      00
 301:C:/Users/president/Desktop/sbx/input/src/os_base\os_task_queue.c ****       (&TASK_IDLE_QUEUE[0u])->fp                                    =   task->fp               ;
 1258              		.loc 1 301 77
 1259 0b12 8B4508   		movl	8(%ebp), %eax
 1260 0b15 8B4074   		movl	116(%eax), %eax
 1261              		.loc 1 301 69
 1262 0b18 A3740000 		movl	%eax, _TASK_IDLE_QUEUE+116
 1262      00
 302:C:/Users/president/Desktop/sbx/input/src/os_base\os_task_queue.c ****       (&TASK_IDLE_QUEUE[0u])->state_request                         =   task->state_request    ;
 1263              		.loc 1 302 77
 1264 0b1d 8B4508   		movl	8(%ebp), %eax
GAS LISTING C:\Users\PRESID~1\AppData\Local\Temp\cc1SpG1Y.s 			page 32


 1265 0b20 8B4078   		movl	120(%eax), %eax
 1266              		.loc 1 302 69
 1267 0b23 A3780000 		movl	%eax, _TASK_IDLE_QUEUE+120
 1267      00
 303:C:/Users/president/Desktop/sbx/input/src/os_base\os_task_queue.c ****       (&TASK_IDLE_QUEUE[0u])->task_state                            =   E_TASK_READY             ;
 1268              		.loc 1 303 69
 1269 0b28 C7057C00 		movl	$2, _TASK_IDLE_QUEUE+124
 1269      00000200 
 1269      0000
 304:C:/Users/president/Desktop/sbx/input/src/os_base\os_task_queue.c ****       (&TASK_IDLE_QUEUE[0u])->task_group                            =   task->task_group       ;
 1270              		.loc 1 304 77
 1271 0b32 8B4508   		movl	8(%ebp), %eax
 1272 0b35 8B808000 		movl	128(%eax), %eax
 1272      0000
 1273              		.loc 1 304 69
 1274 0b3b A3800000 		movl	%eax, _TASK_IDLE_QUEUE+128
 1274      00
 305:C:/Users/president/Desktop/sbx/input/src/os_base\os_task_queue.c **** #if(CFG_PROCESSOR == MCU_X86)
 306:C:/Users/president/Desktop/sbx/input/src/os_base\os_task_queue.c ****       (&TASK_IDLE_QUEUE[0u])->eax                                   =   task->eax              ;
 1275              		.loc 1 306 77
 1276 0b40 8B4508   		movl	8(%ebp), %eax
 1277 0b43 8B808400 		movl	132(%eax), %eax
 1277      0000
 1278              		.loc 1 306 69
 1279 0b49 A3840000 		movl	%eax, _TASK_IDLE_QUEUE+132
 1279      00
 307:C:/Users/president/Desktop/sbx/input/src/os_base\os_task_queue.c ****       (&TASK_IDLE_QUEUE[0u])->ebx                                   =   task->ebx              ;
 1280              		.loc 1 307 77
 1281 0b4e 8B4508   		movl	8(%ebp), %eax
 1282 0b51 8B808800 		movl	136(%eax), %eax
 1282      0000
 1283              		.loc 1 307 69
 1284 0b57 A3880000 		movl	%eax, _TASK_IDLE_QUEUE+136
 1284      00
 308:C:/Users/president/Desktop/sbx/input/src/os_base\os_task_queue.c ****       (&TASK_IDLE_QUEUE[0u])->ecx                                   =   task->ecx              ;
 1285              		.loc 1 308 77
 1286 0b5c 8B4508   		movl	8(%ebp), %eax
 1287 0b5f 8B808C00 		movl	140(%eax), %eax
 1287      0000
 1288              		.loc 1 308 69
 1289 0b65 A38C0000 		movl	%eax, _TASK_IDLE_QUEUE+140
 1289      00
 309:C:/Users/president/Desktop/sbx/input/src/os_base\os_task_queue.c ****       (&TASK_IDLE_QUEUE[0u])->edx                                   =   task->edx              ;
 1290              		.loc 1 309 77
 1291 0b6a 8B4508   		movl	8(%ebp), %eax
 1292 0b6d 8B809000 		movl	144(%eax), %eax
 1292      0000
 1293              		.loc 1 309 69
 1294 0b73 A3900000 		movl	%eax, _TASK_IDLE_QUEUE+144
 1294      00
 310:C:/Users/president/Desktop/sbx/input/src/os_base\os_task_queue.c **** #elif(CFG_PROCESSOR == MCU_CORTEX_M4)
 311:C:/Users/president/Desktop/sbx/input/src/os_base\os_task_queue.c ****       (&TASK_IDLE_QUEUE[0u])->r0                                   =   task->r0              ;
 312:C:/Users/president/Desktop/sbx/input/src/os_base\os_task_queue.c ****       (&TASK_IDLE_QUEUE[0u])->r1                                   =   task->r1              ;
 313:C:/Users/president/Desktop/sbx/input/src/os_base\os_task_queue.c ****       (&TASK_IDLE_QUEUE[0u])->r2                                   =   task->r2              ;
 314:C:/Users/president/Desktop/sbx/input/src/os_base\os_task_queue.c ****       (&TASK_IDLE_QUEUE[0u])->r3                                   =   task->r3              ;
 315:C:/Users/president/Desktop/sbx/input/src/os_base\os_task_queue.c ****       (&TASK_IDLE_QUEUE[0u])->r4                                   =   task->r4              ;
 316:C:/Users/president/Desktop/sbx/input/src/os_base\os_task_queue.c ****       (&TASK_IDLE_QUEUE[0u])->r5                                   =   task->r5              ;
GAS LISTING C:\Users\PRESID~1\AppData\Local\Temp\cc1SpG1Y.s 			page 33


 317:C:/Users/president/Desktop/sbx/input/src/os_base\os_task_queue.c ****       (&TASK_IDLE_QUEUE[0u])->r6                                   =   task->r6              ;
 318:C:/Users/president/Desktop/sbx/input/src/os_base\os_task_queue.c ****       (&TASK_IDLE_QUEUE[0u])->r7                                   =   task->r7              ;
 319:C:/Users/president/Desktop/sbx/input/src/os_base\os_task_queue.c ****       (&TASK_IDLE_QUEUE[0u])->r8                                   =   task->r8              ;
 320:C:/Users/president/Desktop/sbx/input/src/os_base\os_task_queue.c ****       (&TASK_IDLE_QUEUE[0u])->r9                                   =   task->r9              ;
 321:C:/Users/president/Desktop/sbx/input/src/os_base\os_task_queue.c ****       (&TASK_IDLE_QUEUE[0u])->r10                                  =   task->r10             ;
 322:C:/Users/president/Desktop/sbx/input/src/os_base\os_task_queue.c ****       (&TASK_IDLE_QUEUE[0u])->r11                                  =   task->r11             ;
 323:C:/Users/president/Desktop/sbx/input/src/os_base\os_task_queue.c ****       (&TASK_IDLE_QUEUE[0u])->r12                                  =   task->r12             ;
 324:C:/Users/president/Desktop/sbx/input/src/os_base\os_task_queue.c **** #else
 325:C:/Users/president/Desktop/sbx/input/src/os_base\os_task_queue.c **** #error "os_task_queue.c"
 326:C:/Users/president/Desktop/sbx/input/src/os_base\os_task_queue.c **** #endif
 327:C:/Users/president/Desktop/sbx/input/src/os_base\os_task_queue.c ****       (&TASK_IDLE_QUEUE[0u])->p_stack_pointer                         =   task->p_stack_pointer    
 1295              		.loc 1 327 79
 1296 0b78 8B4508   		movl	8(%ebp), %eax
 1297 0b7b 8B809400 		movl	148(%eax), %eax
 1297      0000
 1298              		.loc 1 327 71
 1299 0b81 A3940000 		movl	%eax, _TASK_IDLE_QUEUE+148
 1299      00
 328:C:/Users/president/Desktop/sbx/input/src/os_base\os_task_queue.c ****       (&TASK_IDLE_QUEUE[0u])->p_stack_pointer_by_malloc                 =   task->p_stack_pointer_b
 1300              		.loc 1 328 81
 1301 0b86 8B4508   		movl	8(%ebp), %eax
 1302 0b89 8B809800 		movl	152(%eax), %eax
 1302      0000
 1303              		.loc 1 328 73
 1304 0b8f A3980000 		movl	%eax, _TASK_IDLE_QUEUE+152
 1304      00
 329:C:/Users/president/Desktop/sbx/input/src/os_base\os_task_queue.c ****       (&TASK_IDLE_QUEUE[0u])->p_stack_pointer_start                    =   task->p_stack_pointer_st
 1305              		.loc 1 329 80
 1306 0b94 8B4508   		movl	8(%ebp), %eax
 1307 0b97 8B809C00 		movl	156(%eax), %eax
 1307      0000
 1308              		.loc 1 329 72
 1309 0b9d A39C0000 		movl	%eax, _TASK_IDLE_QUEUE+156
 1309      00
 330:C:/Users/president/Desktop/sbx/input/src/os_base\os_task_queue.c ****       (&TASK_IDLE_QUEUE[0u])->stack_size                             =   task->stack_size        ;
 1310              		.loc 1 330 78
 1311 0ba2 8B4508   		movl	8(%ebp), %eax
 1312 0ba5 8B80A000 		movl	160(%eax), %eax
 1312      0000
 1313              		.loc 1 330 70
 1314 0bab A3A00000 		movl	%eax, _TASK_IDLE_QUEUE+160
 1314      00
 331:C:/Users/president/Desktop/sbx/input/src/os_base\os_task_queue.c ****       (&TASK_IDLE_QUEUE[0u])->p_stack_pointer_end                      =   task->p_stack_pointer_en
 1315              		.loc 1 331 80
 1316 0bb0 8B4508   		movl	8(%ebp), %eax
 1317 0bb3 8B80A400 		movl	164(%eax), %eax
 1317      0000
 1318              		.loc 1 331 72
 1319 0bb9 A3A40000 		movl	%eax, _TASK_IDLE_QUEUE+164
 1319      00
 1320              	L32:
 332:C:/Users/president/Desktop/sbx/input/src/os_base\os_task_queue.c ****    }
 333:C:/Users/president/Desktop/sbx/input/src/os_base\os_task_queue.c **** }
 1321              		.loc 1 333 1
 1322 0bbe 90       		nop
 1323 0bbf C9       		leave
 1324              		.cfi_restore 5
GAS LISTING C:\Users\PRESID~1\AppData\Local\Temp\cc1SpG1Y.s 			page 34


 1325              		.cfi_def_cfa 4, 4
 1326 0bc0 C3       		ret
 1327              		.cfi_endproc
 1328              	LFE9:
 1329              		.globl	_GET_RUNNING_TASK
 1331              	_GET_RUNNING_TASK:
 1332              	LFB10:
 334:C:/Users/president/Desktop/sbx/input/src/os_base\os_task_queue.c **** task_t* GET_RUNNING_TASK(void)
 335:C:/Users/president/Desktop/sbx/input/src/os_base\os_task_queue.c **** {
 1333              		.loc 1 335 1
 1334              		.cfi_startproc
 1335 0bc1 55       		pushl	%ebp
 1336              		.cfi_def_cfa_offset 8
 1337              		.cfi_offset 5, -8
 1338 0bc2 89E5     		movl	%esp, %ebp
 1339              		.cfi_def_cfa_register 5
 336:C:/Users/president/Desktop/sbx/input/src/os_base\os_task_queue.c ****    return (&RUNNING_TASK[0u]);
 1340              		.loc 1 336 12
 1341 0bc4 B8000000 		movl	$_RUNNING_TASK, %eax
 1341      00
 337:C:/Users/president/Desktop/sbx/input/src/os_base\os_task_queue.c **** }
 1342              		.loc 1 337 1
 1343 0bc9 5D       		popl	%ebp
 1344              		.cfi_restore 5
 1345              		.cfi_def_cfa 4, 4
 1346 0bca C3       		ret
 1347              		.cfi_endproc
 1348              	LFE10:
 1349              		.globl	_GET_RUNNING_SCHEDULING_QUEUE_ELEMENT_PTR
 1351              	_GET_RUNNING_SCHEDULING_QUEUE_ELEMENT_PTR:
 1352              	LFB11:
 338:C:/Users/president/Desktop/sbx/input/src/os_base\os_task_queue.c **** scheduling_t* GET_RUNNING_SCHEDULING_QUEUE_ELEMENT_PTR(void)
 339:C:/Users/president/Desktop/sbx/input/src/os_base\os_task_queue.c **** {
 1353              		.loc 1 339 1
 1354              		.cfi_startproc
 1355 0bcb 55       		pushl	%ebp
 1356              		.cfi_def_cfa_offset 8
 1357              		.cfi_offset 5, -8
 1358 0bcc 89E5     		movl	%esp, %ebp
 1359              		.cfi_def_cfa_register 5
 340:C:/Users/president/Desktop/sbx/input/src/os_base\os_task_queue.c ****    return RUNNING_SCHEDULING_QUEUE_ENTRY;
 1360              		.loc 1 340 11
 1361 0bce A1000000 		movl	_RUNNING_SCHEDULING_QUEUE_ENTRY, %eax
 1361      00
 341:C:/Users/president/Desktop/sbx/input/src/os_base\os_task_queue.c **** }
 1362              		.loc 1 341 1
 1363 0bd3 5D       		popl	%ebp
 1364              		.cfi_restore 5
 1365              		.cfi_def_cfa 4, 4
 1366 0bd4 C3       		ret
 1367              		.cfi_endproc
 1368              	LFE11:
 1369              		.globl	_OS_INIT_TASK
 1371              	_OS_INIT_TASK:
 1372              	LFB12:
 342:C:/Users/president/Desktop/sbx/input/src/os_base\os_task_queue.c **** void OS_INIT_TASK(
 343:C:/Users/president/Desktop/sbx/input/src/os_base\os_task_queue.c ****    task_t*          task,
GAS LISTING C:\Users\PRESID~1\AppData\Local\Temp\cc1SpG1Y.s 			page 35


 344:C:/Users/president/Desktop/sbx/input/src/os_base\os_task_queue.c ****    func_p_t         TaskFunction,
 345:C:/Users/president/Desktop/sbx/input/src/os_base\os_task_queue.c ****    unsigned_char_t  AllowedInstances,
 346:C:/Users/president/Desktop/sbx/input/src/os_base\os_task_queue.c ****    unsigned_char_t  idle_task,
 347:C:/Users/president/Desktop/sbx/input/src/os_base\os_task_queue.c ****    task_group_t*    p_task_group,
 348:C:/Users/president/Desktop/sbx/input/src/os_base\os_task_queue.c ****    unsigned_char_t* pStackAddr,
 349:C:/Users/president/Desktop/sbx/input/src/os_base\os_task_queue.c ****    unsigned_int32_t uStackSize,
 350:C:/Users/president/Desktop/sbx/input/src/os_base\os_task_queue.c ****    privilige_mode_t privilige_mode,
 351:C:/Users/president/Desktop/sbx/input/src/os_base\os_task_queue.c ****    coreid_t         core,
 352:C:/Users/president/Desktop/sbx/input/src/os_base\os_task_queue.c ****    unsigned_char_t  default_prio
 353:C:/Users/president/Desktop/sbx/input/src/os_base\os_task_queue.c **** )
 354:C:/Users/president/Desktop/sbx/input/src/os_base\os_task_queue.c **** {
 1373              		.loc 1 354 1
 1374              		.cfi_startproc
 1375 0bd5 55       		pushl	%ebp
 1376              		.cfi_def_cfa_offset 8
 1377              		.cfi_offset 5, -8
 1378 0bd6 89E5     		movl	%esp, %ebp
 1379              		.cfi_def_cfa_register 5
 1380 0bd8 83EC28   		subl	$40, %esp
 1381 0bdb 8B4D10   		movl	16(%ebp), %ecx
 1382 0bde 8B5514   		movl	20(%ebp), %edx
 1383 0be1 8B452C   		movl	44(%ebp), %eax
 1384 0be4 884DF4   		movb	%cl, -12(%ebp)
 1385 0be7 8855F0   		movb	%dl, -16(%ebp)
 1386 0bea 8845EC   		movb	%al, -20(%ebp)
 355:C:/Users/president/Desktop/sbx/input/src/os_base\os_task_queue.c ****    REFERENCE_UNUSED_PARAMETER(core);
 356:C:/Users/president/Desktop/sbx/input/src/os_base\os_task_queue.c ****    if(task != NULL)
 1387              		.loc 1 356 6
 1388 0bed 837D0800 		cmpl	$0, 8(%ebp)
 1389 0bf1 0F840401 		je	L38
 1389      0000
 357:C:/Users/president/Desktop/sbx/input/src/os_base\os_task_queue.c ****    {
 358:C:/Users/president/Desktop/sbx/input/src/os_base\os_task_queue.c ****       task->active           = FALSE;
 1390              		.loc 1 358 30
 1391 0bf7 8B4508   		movl	8(%ebp), %eax
 1392 0bfa 8A10     		movb	(%eax), %dl
 1393 0bfc 83E2FE   		andl	$-2, %edx
 1394 0bff 8810     		movb	%dl, (%eax)
 359:C:/Users/president/Desktop/sbx/input/src/os_base\os_task_queue.c ****       task->fp               = TaskFunction;
 1395              		.loc 1 359 30
 1396 0c01 8B4508   		movl	8(%ebp), %eax
 1397 0c04 8B550C   		movl	12(%ebp), %edx
 1398 0c07 895074   		movl	%edx, 116(%eax)
 360:C:/Users/president/Desktop/sbx/input/src/os_base\os_task_queue.c ****       task->nr_of_ins_allowed   = AllowedInstances;
 1399              		.loc 1 360 33
 1400 0c0a 8B4508   		movl	8(%ebp), %eax
 1401 0c0d 8A55F4   		movb	-12(%ebp), %dl
 1402 0c10 885004   		movb	%dl, 4(%eax)
 361:C:/Users/president/Desktop/sbx/input/src/os_base\os_task_queue.c ****       task->task_group       = p_task_group;
 1403              		.loc 1 361 30
 1404 0c13 8B4508   		movl	8(%ebp), %eax
 1405 0c16 8B5518   		movl	24(%ebp), %edx
 1406 0c19 89908000 		movl	%edx, 128(%eax)
 1406      0000
 362:C:/Users/president/Desktop/sbx/input/src/os_base\os_task_queue.c ****       task->nr_of_ins_activated = 0u;
 1407              		.loc 1 362 33
 1408 0c1f 8B4508   		movl	8(%ebp), %eax
GAS LISTING C:\Users\PRESID~1\AppData\Local\Temp\cc1SpG1Y.s 			page 36


 1409 0c22 C6400500 		movb	$0, 5(%eax)
 363:C:/Users/president/Desktop/sbx/input/src/os_base\os_task_queue.c ****       ASSIGN_NULL(&task->wait_act_until);
 1410              		.loc 1 363 19
 1411 0c26 8B4508   		movl	8(%ebp), %eax
 1412 0c29 83C006   		addl	$6, %eax
 1413              		.loc 1 363 7
 1414 0c2c 890424   		movl	%eax, (%esp)
 1415 0c2f E8000000 		call	_ASSIGN_NULL
 1415      00
 364:C:/Users/president/Desktop/sbx/input/src/os_base\os_task_queue.c ****       task->privilige_mode   = privilige_mode;
 1416              		.loc 1 364 30
 1417 0c34 8B4508   		movl	8(%ebp), %eax
 1418 0c37 8B5524   		movl	36(%ebp), %edx
 1419 0c3a 8990A800 		movl	%edx, 168(%eax)
 1419      0000
 365:C:/Users/president/Desktop/sbx/input/src/os_base\os_task_queue.c ****       task->default_prio     = default_prio;
 1420              		.loc 1 365 30
 1421 0c40 8B4508   		movl	8(%ebp), %eax
 1422 0c43 8A55EC   		movb	-20(%ebp), %dl
 1423 0c46 88506D   		movb	%dl, 109(%eax)
 366:C:/Users/president/Desktop/sbx/input/src/os_base\os_task_queue.c **** 
 367:C:/Users/president/Desktop/sbx/input/src/os_base\os_task_queue.c ****       task->overwaittime_per_prio_inc_step = 1u;
 1424              		.loc 1 367 44
 1425 0c49 8B4508   		movl	8(%ebp), %eax
 1426 0c4c C7403801 		movl	$1, 56(%eax)
 1426      000000
 368:C:/Users/president/Desktop/sbx/input/src/os_base\os_task_queue.c ****       ASSIGN_UINT32(&task->max_allowed_wait_time, 100000u);
 1427              		.loc 1 368 21
 1428 0c53 8B4508   		movl	8(%ebp), %eax
 1429 0c56 83C03C   		addl	$60, %eax
 1430              		.loc 1 368 7
 1431 0c59 C7442404 		movl	$100000, 4(%esp)
 1431      A0860100 
 1432 0c61 890424   		movl	%eax, (%esp)
 1433 0c64 E8000000 		call	_ASSIGN_UINT32
 1433      00
 369:C:/Users/president/Desktop/sbx/input/src/os_base\os_task_queue.c **** 
 370:C:/Users/president/Desktop/sbx/input/src/os_base\os_task_queue.c ****       task->idle_task      = idle_task;
 1434              		.loc 1 370 28
 1435 0c69 8A45F0   		movb	-16(%ebp), %al
 1436 0c6c 83E001   		andl	$1, %eax
 1437 0c6f 88C2     		movb	%al, %dl
 1438 0c71 8B4508   		movl	8(%ebp), %eax
 1439 0c74 83E201   		andl	$1, %edx
 1440 0c77 8D0C9500 		leal	0(,%edx,4), %ecx
 1440      000000
 1441 0c7e 8A10     		movb	(%eax), %dl
 1442 0c80 83E2FB   		andl	$-5, %edx
 1443 0c83 09CA     		orl	%ecx, %edx
 1444 0c85 8810     		movb	%dl, (%eax)
 371:C:/Users/president/Desktop/sbx/input/src/os_base\os_task_queue.c ****       task->state_request = &OS_TASK_STATE_REQUEST;
 1445              		.loc 1 371 27
 1446 0c87 8B4508   		movl	8(%ebp), %eax
 1447 0c8a C7407800 		movl	$_OS_TASK_STATE_REQUEST, 120(%eax)
 1447      000000
 372:C:/Users/president/Desktop/sbx/input/src/os_base\os_task_queue.c ****       OS_TASK_STATE_REQUEST(task, E_TASK_UNSPECIFIED);
 1448              		.loc 1 372 7
GAS LISTING C:\Users\PRESID~1\AppData\Local\Temp\cc1SpG1Y.s 			page 37


 1449 0c91 C7442404 		movl	$0, 4(%esp)
 1449      00000000 
 1450 0c99 8B4508   		movl	8(%ebp), %eax
 1451 0c9c 890424   		movl	%eax, (%esp)
 1452 0c9f E8000000 		call	_OS_TASK_STATE_REQUEST
 1452      00
 373:C:/Users/president/Desktop/sbx/input/src/os_base\os_task_queue.c ****       OS_CREATE_TASK(task);
 1453              		.loc 1 373 7
 1454 0ca4 8B4508   		movl	8(%ebp), %eax
 1455 0ca7 890424   		movl	%eax, (%esp)
 1456 0caa E8000000 		call	_OS_CREATE_TASK
 1456      00
 374:C:/Users/president/Desktop/sbx/input/src/os_base\os_task_queue.c **** 
 375:C:/Users/president/Desktop/sbx/input/src/os_base\os_task_queue.c ****       /* just create stack */
 376:C:/Users/president/Desktop/sbx/input/src/os_base\os_task_queue.c ****       task->p_stack_pointer_by_malloc = pStackAddr;
 1457              		.loc 1 376 39
 1458 0caf 8B4508   		movl	8(%ebp), %eax
 1459 0cb2 8B551C   		movl	28(%ebp), %edx
 1460 0cb5 89909800 		movl	%edx, 152(%eax)
 1460      0000
 377:C:/Users/president/Desktop/sbx/input/src/os_base\os_task_queue.c ****       task->p_stack_pointer_start    = pStackAddr;/*low addresse */
 1461              		.loc 1 377 38
 1462 0cbb 8B4508   		movl	8(%ebp), %eax
 1463 0cbe 8B551C   		movl	28(%ebp), %edx
 1464 0cc1 89909C00 		movl	%edx, 156(%eax)
 1464      0000
 378:C:/Users/president/Desktop/sbx/input/src/os_base\os_task_queue.c ****       task->p_stack_pointer_end      = (unsigned_char_t*)pStackAddr + uStackSize - 1;/* end address
 1465              		.loc 1 378 82
 1466 0cc7 8B4520   		movl	32(%ebp), %eax
 1467 0cca 8D50FF   		leal	-1(%eax), %edx
 1468 0ccd 8B451C   		movl	28(%ebp), %eax
 1469 0cd0 01C2     		addl	%eax, %edx
 1470              		.loc 1 378 38
 1471 0cd2 8B4508   		movl	8(%ebp), %eax
 1472 0cd5 8990A400 		movl	%edx, 164(%eax)
 1472      0000
 379:C:/Users/president/Desktop/sbx/input/src/os_base\os_task_queue.c ****       task->stack_size             = uStackSize;
 1473              		.loc 1 379 36
 1474 0cdb 8B4508   		movl	8(%ebp), %eax
 1475 0cde 8B5520   		movl	32(%ebp), %edx
 1476 0ce1 8990A000 		movl	%edx, 160(%eax)
 1476      0000
 380:C:/Users/president/Desktop/sbx/input/src/os_base\os_task_queue.c ****       /* stack register */
 381:C:/Users/president/Desktop/sbx/input/src/os_base\os_task_queue.c ****       task->p_stack_pointer                    = task->p_stack_pointer_end;/* stack wchst von gro
 1477              		.loc 1 381 54
 1478 0ce7 8B4508   		movl	8(%ebp), %eax
 1479 0cea 8B90A400 		movl	164(%eax), %edx
 1479      0000
 1480              		.loc 1 381 48
 1481 0cf0 8B4508   		movl	8(%ebp), %eax
 1482 0cf3 89909400 		movl	%edx, 148(%eax)
 1482      0000
 382:C:/Users/president/Desktop/sbx/input/src/os_base\os_task_queue.c ****    }
 383:C:/Users/president/Desktop/sbx/input/src/os_base\os_task_queue.c ****    else
 384:C:/Users/president/Desktop/sbx/input/src/os_base\os_task_queue.c ****    {
 385:C:/Users/president/Desktop/sbx/input/src/os_base\os_task_queue.c ****       OS_SET_SW_BUG(E_OS_BUG_NULL_POINTER, E_FUNC_INITTASK);
 386:C:/Users/president/Desktop/sbx/input/src/os_base\os_task_queue.c ****    }
GAS LISTING C:\Users\PRESID~1\AppData\Local\Temp\cc1SpG1Y.s 			page 38


 387:C:/Users/president/Desktop/sbx/input/src/os_base\os_task_queue.c **** }
 1483              		.loc 1 387 1
 1484 0cf9 EB14     		jmp	L40
 1485              	L38:
 385:C:/Users/president/Desktop/sbx/input/src/os_base\os_task_queue.c ****    }
 1486              		.loc 1 385 7
 1487 0cfb C7442404 		movl	$10, 4(%esp)
 1487      0A000000 
 1488 0d03 C7042402 		movl	$2, (%esp)
 1488      000000
 1489 0d0a E8000000 		call	_OS_SET_SW_BUG
 1489      00
 1490              	L40:
 1491              		.loc 1 387 1
 1492 0d0f 90       		nop
 1493 0d10 C9       		leave
 1494              		.cfi_restore 5
 1495              		.cfi_def_cfa 4, 4
 1496 0d11 C3       		ret
 1497              		.cfi_endproc
 1498              	LFE12:
 1499              	Letext0:
 1500              		.file 2 "c:/users/president/desktop/sbx/input/src/os_base/os_base_types.h"
 1501              		.file 3 "c:/users/president/desktop/sbx/input/src/os_base/os_common.h"
 1502              		.file 4 "c:/users/president/desktop/sbx/input/src/os_sim/lld_core.h"
 1503              		.file 5 "c:/users/president/desktop/sbx/input/src/os_base/os_task_common.h"
 1504              		.file 6 "C:/Users/president/Desktop/sbx/input/src/os_base/os_main.h"
 1505              		.file 7 "c:/users/president/desktop/sbx/input/src/os_base/os_ram.h"
 1506              		.file 8 "c:/users/president/desktop/sbx/input/src/os_base/os_ram_stack.h"
 1507              		.section	.debug_info,"dr"
 1508              	Ldebug_info0:
 1509 0000 9B160000 		.long	0x169b
 1510 0004 0400     		.word	0x4
 1511 0006 00000000 		.secrel32	Ldebug_abbrev0
 1512 000a 04       		.byte	0x4
 1513 000b 01       		.uleb128 0x1
 1514 000c 474E5520 		.ascii "GNU C89 8.2.0 -march=i386 -g3 -O0 -std=c90\0"
 1514      43383920 
 1514      382E322E 
 1514      30202D6D 
 1514      61726368 
 1515 0037 01       		.byte	0x1
 1516 0038 433A5C55 		.ascii "C:\\Users\\president\\Desktop\\sbx\\input\\src\\os_base\\os_task_queue.c\0"
 1516      73657273 
 1516      5C707265 
 1516      73696465 
 1516      6E745C44 
 1517 0079 433A5C50 		.ascii "C:\\Program\\MinGW\\bin\0"
 1517      726F6772 
 1517      616D5C4D 
 1517      696E4757 
 1517      5C62696E 
 1518 008e 00000000 		.long	Ltext0
 1519 0092 120D0000 		.long	Letext0-Ltext0
 1520 0096 00000000 		.secrel32	Ldebug_line0
 1521 009a 00000000 		.secrel32	Ldebug_macro0
 1522 009e 02       		.uleb128 0x2
GAS LISTING C:\Users\PRESID~1\AppData\Local\Temp\cc1SpG1Y.s 			page 39


 1523 009f 756E7369 		.ascii "unsigned_char_t\0"
 1523      676E6564 
 1523      5F636861 
 1523      725F7400 
 1524 00af 02       		.byte	0x2
 1525 00b0 11       		.byte	0x11
 1526 00b1 18       		.byte	0x18
 1527 00b2 B6000000 		.long	0xb6
 1528 00b6 03       		.uleb128 0x3
 1529 00b7 01       		.byte	0x1
 1530 00b8 08       		.byte	0x8
 1531 00b9 756E7369 		.ascii "unsigned char\0"
 1531      676E6564 
 1531      20636861 
 1531      7200
 1532 00c7 03       		.uleb128 0x3
 1533 00c8 01       		.byte	0x1
 1534 00c9 06       		.byte	0x6
 1535 00ca 7369676E 		.ascii "signed char\0"
 1535      65642063 
 1535      68617200 
 1536 00d6 02       		.uleb128 0x2
 1537 00d7 75696E74 		.ascii "uint8\0"
 1537      3800
 1538 00dd 02       		.byte	0x2
 1539 00de 15       		.byte	0x15
 1540 00df 18       		.byte	0x18
 1541 00e0 B6000000 		.long	0xb6
 1542 00e4 03       		.uleb128 0x3
 1543 00e5 02       		.byte	0x2
 1544 00e6 07       		.byte	0x7
 1545 00e7 73686F72 		.ascii "short unsigned int\0"
 1545      7420756E 
 1545      7369676E 
 1545      65642069 
 1545      6E7400
 1546 00fa 03       		.uleb128 0x3
 1547 00fb 02       		.byte	0x2
 1548 00fc 05       		.byte	0x5
 1549 00fd 73686F72 		.ascii "short int\0"
 1549      7420696E 
 1549      7400
 1550 0107 02       		.uleb128 0x2
 1551 0108 756E7369 		.ascii "unsigned_int32_t\0"
 1551      676E6564 
 1551      5F696E74 
 1551      33325F74 
 1551      00
 1552 0119 02       		.byte	0x2
 1553 011a 1B       		.byte	0x1b
 1554 011b 18       		.byte	0x18
 1555 011c 20010000 		.long	0x120
 1556 0120 03       		.uleb128 0x3
 1557 0121 04       		.byte	0x4
 1558 0122 07       		.byte	0x7
 1559 0123 6C6F6E67 		.ascii "long unsigned int\0"
 1559      20756E73 
GAS LISTING C:\Users\PRESID~1\AppData\Local\Temp\cc1SpG1Y.s 			page 40


 1559      69676E65 
 1559      6420696E 
 1559      7400
 1560 0135 03       		.uleb128 0x3
 1561 0136 04       		.byte	0x4
 1562 0137 05       		.byte	0x5
 1563 0138 6C6F6E67 		.ascii "long int\0"
 1563      20696E74 
 1563      00
 1564 0141 02       		.uleb128 0x2
 1565 0142 75696E74 		.ascii "uint32\0"
 1565      333200
 1566 0149 02       		.byte	0x2
 1567 014a 1D       		.byte	0x1d
 1568 014b 18       		.byte	0x18
 1569 014c 20010000 		.long	0x120
 1570 0150 04       		.uleb128 0x4
 1571 0151 41010000 		.long	0x141
 1572 0155 05       		.uleb128 0x5
 1573 0156 6F735F73 		.ascii "os_sw_bugs_e\0"
 1573      775F6275 
 1573      67735F65 
 1573      00
 1574 0163 07       		.byte	0x7
 1575 0164 04       		.byte	0x4
 1576 0165 2F030000 		.long	0x32f
 1577 0169 03       		.byte	0x3
 1578 016a 2E       		.byte	0x2e
 1579 016b 06       		.byte	0x6
 1580 016c 2F030000 		.long	0x32f
 1581 0170 06       		.uleb128 0x6
 1582 0171 455F4F53 		.ascii "E_OS_BUG_NO_BUG\0"
 1582      5F425547 
 1582      5F4E4F5F 
 1582      42554700 
 1583 0181 00       		.byte	0
 1584 0182 06       		.uleb128 0x6
 1585 0183 455F4F53 		.ascii "E_OS_BUG_TASKSTATE_REQUEST_DENIED\0"
 1585      5F425547 
 1585      5F544153 
 1585      4B535441 
 1585      54455F52 
 1586 01a5 01       		.byte	0x1
 1587 01a6 06       		.uleb128 0x6
 1588 01a7 455F4F53 		.ascii "E_OS_BUG_NULL_POINTER\0"
 1588      5F425547 
 1588      5F4E554C 
 1588      4C5F504F 
 1588      494E5445 
 1589 01bd 02       		.byte	0x2
 1590 01be 06       		.uleb128 0x6
 1591 01bf 455F4F53 		.ascii "E_OS_BUG_TASK_MAX_WAIT_TIME_REACHED\0"
 1591      5F425547 
 1591      5F544153 
 1591      4B5F4D41 
 1591      585F5741 
 1592 01e3 03       		.byte	0x3
GAS LISTING C:\Users\PRESID~1\AppData\Local\Temp\cc1SpG1Y.s 			page 41


 1593 01e4 06       		.uleb128 0x6
 1594 01e5 455F4F53 		.ascii "E_OS_BUG_TASK_UNSPECIFIED\0"
 1594      5F425547 
 1594      5F544153 
 1594      4B5F554E 
 1594      53504543 
 1595 01ff 04       		.byte	0x4
 1596 0200 06       		.uleb128 0x6
 1597 0201 455F4F53 		.ascii "E_OS_BUG_EXCEPTION_UNDEFINSTRUCTION\0"
 1597      5F425547 
 1597      5F455843 
 1597      45505449 
 1597      4F4E5F55 
 1598 0225 05       		.byte	0x5
 1599 0226 06       		.uleb128 0x6
 1600 0227 455F4F53 		.ascii "E_OS_BUG_EXCEPTION_ABORTPREFETCH\0"
 1600      5F425547 
 1600      5F455843 
 1600      45505449 
 1600      4F4E5F41 
 1601 0248 06       		.byte	0x6
 1602 0249 06       		.uleb128 0x6
 1603 024a 455F4F53 		.ascii "E_OS_BUG_EXCEPTION_ABORTDATA\0"
 1603      5F425547 
 1603      5F455843 
 1603      45505449 
 1603      4F4E5F41 
 1604 0267 07       		.byte	0x7
 1605 0268 06       		.uleb128 0x6
 1606 0269 455F4F53 		.ascii "E_OS_BUG_RESET_EXIT_OR_SHUTDOWN_FAILED\0"
 1606      5F425547 
 1606      5F524553 
 1606      45545F45 
 1606      5849545F 
 1607 0290 08       		.byte	0x8
 1608 0291 06       		.uleb128 0x6
 1609 0292 455F4F53 		.ascii "E_OS_BUG_CRITICAL_STACK_USAGE\0"
 1609      5F425547 
 1609      5F435249 
 1609      54494341 
 1609      4C5F5354 
 1610 02b0 09       		.byte	0x9
 1611 02b1 06       		.uleb128 0x6
 1612 02b2 455F4F53 		.ascii "E_OS_BUG_SVC_NUMBER_MISSING\0"
 1612      5F425547 
 1612      5F535643 
 1612      5F4E554D 
 1612      4245525F 
 1613 02ce 0A       		.byte	0xa
 1614 02cf 06       		.uleb128 0x6
 1615 02d0 455F4F53 		.ascii "E_OS_BUG_MAX_WAIT_TIME_REACHED\0"
 1615      5F425547 
 1615      5F4D4158 
 1615      5F574149 
 1615      545F5449 
 1616 02ef 0B       		.byte	0xb
 1617 02f0 06       		.uleb128 0x6
GAS LISTING C:\Users\PRESID~1\AppData\Local\Temp\cc1SpG1Y.s 			page 42


 1618 02f1 455F4F53 		.ascii "E_OS_BUG_DIVISION_BY_ZERO\0"
 1618      5F425547 
 1618      5F444956 
 1618      4953494F 
 1618      4E5F4259 
 1619 030b 0C       		.byte	0xc
 1620 030c 06       		.uleb128 0x6
 1621 030d 455F4F53 		.ascii "E_OS_BUG_BIT_SHIFT_OUT_OF_RANGE\0"
 1621      5F425547 
 1621      5F424954 
 1621      5F534849 
 1621      46545F4F 
 1622 032d 0D       		.byte	0xd
 1623 032e 00       		.byte	0
 1624 032f 03       		.uleb128 0x3
 1625 0330 04       		.byte	0x4
 1626 0331 07       		.byte	0x7
 1627 0332 756E7369 		.ascii "unsigned int\0"
 1627      676E6564 
 1627      20696E74 
 1627      00
 1628 033f 02       		.uleb128 0x2
 1629 0340 6F735F73 		.ascii "os_sw_bugs_t\0"
 1629      775F6275 
 1629      67735F74 
 1629      00
 1630 034d 03       		.byte	0x3
 1631 034e 3F       		.byte	0x3f
 1632 034f 1B       		.byte	0x1b
 1633 0350 55010000 		.long	0x155
 1634 0354 04       		.uleb128 0x4
 1635 0355 3F030000 		.long	0x33f
 1636 0359 05       		.uleb128 0x5
 1637 035a 6F735F73 		.ascii "os_sw_bugs_function_e\0"
 1637      775F6275 
 1637      67735F66 
 1637      756E6374 
 1637      696F6E5F 
 1638 0370 07       		.byte	0x7
 1639 0371 04       		.byte	0x4
 1640 0372 2F030000 		.long	0x32f
 1641 0376 03       		.byte	0x3
 1642 0377 43       		.byte	0x43
 1643 0378 06       		.byte	0x6
 1644 0379 77050000 		.long	0x577
 1645 037d 06       		.uleb128 0x6
 1646 037e 455F4655 		.ascii "E_FUNC_NOFUNCTION\0"
 1646      4E435F4E 
 1646      4F46554E 
 1646      4354494F 
 1646      4E00
 1647 0390 00       		.byte	0
 1648 0391 06       		.uleb128 0x6
 1649 0392 455F4655 		.ascii "E_FUNC_SAVETASKENVIRONMENT\0"
 1649      4E435F53 
 1649      41564554 
 1649      41534B45 
GAS LISTING C:\Users\PRESID~1\AppData\Local\Temp\cc1SpG1Y.s 			page 43


 1649      4E564952 
 1650 03ad 01       		.byte	0x1
 1651 03ae 06       		.uleb128 0x6
 1652 03af 455F4655 		.ascii "E_FUNC_RESTORETASKENVIRONMENT\0"
 1652      4E435F52 
 1652      4553544F 
 1652      52455441 
 1652      534B454E 
 1653 03cd 02       		.byte	0x2
 1654 03ce 06       		.uleb128 0x6
 1655 03cf 455F4655 		.ascii "E_FUNC_CREATETASKENVIRONMENT\0"
 1655      4E435F43 
 1655      52454154 
 1655      45544153 
 1655      4B454E56 
 1656 03ec 03       		.byte	0x3
 1657 03ed 06       		.uleb128 0x6
 1658 03ee 455F4655 		.ascii "E_FUNC_DELETETASKENVIRONMENT\0"
 1658      4E435F44 
 1658      454C4554 
 1658      45544153 
 1658      4B454E56 
 1659 040b 04       		.byte	0x4
 1660 040c 06       		.uleb128 0x6
 1661 040d 455F4655 		.ascii "E_FUNC_INITTASKENVIRONMENT\0"
 1661      4E435F49 
 1661      4E495454 
 1661      41534B45 
 1661      4E564952 
 1662 0428 05       		.byte	0x5
 1663 0429 06       		.uleb128 0x6
 1664 042a 455F4655 		.ascii "E_FUNC_STARTTASK\0"
 1664      4E435F53 
 1664      54415254 
 1664      5441534B 
 1664      00
 1665 043b 06       		.byte	0x6
 1666 043c 06       		.uleb128 0x6
 1667 043d 455F4655 		.ascii "E_FUNC_PREEMPTTASK\0"
 1667      4E435F50 
 1667      5245454D 
 1667      50545441 
 1667      534B00
 1668 0450 07       		.byte	0x7
 1669 0451 06       		.uleb128 0x6
 1670 0452 455F4655 		.ascii "E_FUNC_TERMINATETASK\0"
 1670      4E435F54 
 1670      45524D49 
 1670      4E415445 
 1670      5441534B 
 1671 0467 08       		.byte	0x8
 1672 0468 06       		.uleb128 0x6
 1673 0469 455F4655 		.ascii "E_FUNC_TASKSCHEDULER\0"
 1673      4E435F54 
 1673      41534B53 
 1673      43484544 
 1673      554C4552 
GAS LISTING C:\Users\PRESID~1\AppData\Local\Temp\cc1SpG1Y.s 			page 44


 1674 047e 09       		.byte	0x9
 1675 047f 06       		.uleb128 0x6
 1676 0480 455F4655 		.ascii "E_FUNC_INITTASK\0"
 1676      4E435F49 
 1676      4E495454 
 1676      41534B00 
 1677 0490 0A       		.byte	0xa
 1678 0491 06       		.uleb128 0x6
 1679 0492 455F4655 		.ascii "E_FUNC_ACTIVATETASK\0"
 1679      4E435F41 
 1679      43544956 
 1679      41544554 
 1679      41534B00 
 1680 04a6 0B       		.byte	0xb
 1681 04a7 06       		.uleb128 0x6
 1682 04a8 455F4655 		.ascii "E_FUNC_TASKSTATEREQUEST\0"
 1682      4E435F54 
 1682      41534B53 
 1682      54415445 
 1682      52455155 
 1683 04c0 0C       		.byte	0xc
 1684 04c1 06       		.uleb128 0x6
 1685 04c2 455F4655 		.ascii "E_FUNC_PREEMPT_TASK\0"
 1685      4E435F50 
 1685      5245454D 
 1685      50545F54 
 1685      41534B00 
 1686 04d6 0D       		.byte	0xd
 1687 04d7 06       		.uleb128 0x6
 1688 04d8 455F4655 		.ascii "E_FUNC_OS_EXCEPTION\0"
 1688      4E435F4F 
 1688      535F4558 
 1688      43455054 
 1688      494F4E00 
 1689 04ec 0E       		.byte	0xe
 1690 04ed 06       		.uleb128 0x6
 1691 04ee 455F4655 		.ascii "E_FUNC_CREATETASK\0"
 1691      4E435F43 
 1691      52454154 
 1691      45544153 
 1691      4B00
 1692 0500 0F       		.byte	0xf
 1693 0501 06       		.uleb128 0x6
 1694 0502 455F4655 		.ascii "E_FUNC_SHUTDOWN\0"
 1694      4E435F53 
 1694      48555444 
 1694      4F574E00 
 1695 0512 10       		.byte	0x10
 1696 0513 06       		.uleb128 0x6
 1697 0514 455F4655 		.ascii "E_FUNC_STACKCHECK\0"
 1697      4E435F53 
 1697      5441434B 
 1697      43484543 
 1697      4B00
 1698 0526 11       		.byte	0x11
 1699 0527 06       		.uleb128 0x6
 1700 0528 455F4655 		.ascii "E_FUNC_ISRHANDLER\0"
GAS LISTING C:\Users\PRESID~1\AppData\Local\Temp\cc1SpG1Y.s 			page 45


 1700      4E435F49 
 1700      53524841 
 1700      4E444C45 
 1700      5200
 1701 053a 12       		.byte	0x12
 1702 053b 06       		.uleb128 0x6
 1703 053c 455F4655 		.ascii "E_FUNC_STATE_HANDLER\0"
 1703      4E435F53 
 1703      54415445 
 1703      5F48414E 
 1703      444C4552 
 1704 0551 13       		.byte	0x13
 1705 0552 06       		.uleb128 0x6
 1706 0553 455F4655 		.ascii "E_FUNC_INTDIV\0"
 1706      4E435F49 
 1706      4E544449 
 1706      5600
 1707 0561 14       		.byte	0x14
 1708 0562 06       		.uleb128 0x6
 1709 0563 455F4655 		.ascii "E_FUNC_SHIFT_LEFT\0"
 1709      4E435F53 
 1709      48494654 
 1709      5F4C4546 
 1709      5400
 1710 0575 15       		.byte	0x15
 1711 0576 00       		.byte	0
 1712 0577 07       		.uleb128 0x7
 1713 0578 6269675F 		.ascii "big_int_s\0"
 1713      696E745F 
 1713      7300
 1714 0582 10       		.byte	0x10
 1715 0583 03       		.byte	0x3
 1716 0584 63       		.byte	0x63
 1717 0585 10       		.byte	0x10
 1718 0586 9B050000 		.long	0x59b
 1719 058a 08       		.uleb128 0x8
 1720 058b 6E756D62 		.ascii "number\0"
 1720      657200
 1721 0592 03       		.byte	0x3
 1722 0593 6C       		.byte	0x6c
 1723 0594 0A       		.byte	0xa
 1724 0595 9B050000 		.long	0x59b
 1725 0599 00       		.byte	0
 1726 059a 00       		.byte	0
 1727 059b 09       		.uleb128 0x9
 1728 059c D6000000 		.long	0xd6
 1729 05a0 AB050000 		.long	0x5ab
 1730 05a4 0A       		.uleb128 0xa
 1731 05a5 2F030000 		.long	0x32f
 1732 05a9 0F       		.byte	0xf
 1733 05aa 00       		.byte	0
 1734 05ab 02       		.uleb128 0x2
 1735 05ac 6269675F 		.ascii "big_int\0"
 1735      696E7400 
 1736 05b4 03       		.byte	0x3
 1737 05b5 6D       		.byte	0x6d
 1738 05b6 03       		.byte	0x3
GAS LISTING C:\Users\PRESID~1\AppData\Local\Temp\cc1SpG1Y.s 			page 46


 1739 05b7 77050000 		.long	0x577
 1740 05bb 02       		.uleb128 0x2
 1741 05bc 74696D65 		.ascii "timebig_t\0"
 1741      6269675F 
 1741      7400
 1742 05c6 03       		.byte	0x3
 1743 05c7 6F       		.byte	0x6f
 1744 05c8 11       		.byte	0x11
 1745 05c9 AB050000 		.long	0x5ab
 1746 05cd 05       		.uleb128 0x5
 1747 05ce 636F7265 		.ascii "coreid_e\0"
 1747      69645F65 
 1747      00
 1748 05d7 07       		.byte	0x7
 1749 05d8 04       		.byte	0x4
 1750 05d9 2F030000 		.long	0x32f
 1751 05dd 04       		.byte	0x4
 1752 05de 04       		.byte	0x4
 1753 05df 06       		.byte	0x6
 1754 05e0 0D060000 		.long	0x60d
 1755 05e4 06       		.uleb128 0x6
 1756 05e5 455F434F 		.ascii "E_CORE0\0"
 1756      52453000 
 1757 05ed 00       		.byte	0
 1758 05ee 06       		.uleb128 0x6
 1759 05ef 455F434F 		.ascii "E_CORE1\0"
 1759      52453100 
 1760 05f7 01       		.byte	0x1
 1761 05f8 06       		.uleb128 0x6
 1762 05f9 455F434F 		.ascii "E_CORE2\0"
 1762      52453200 
 1763 0601 02       		.byte	0x2
 1764 0602 06       		.uleb128 0x6
 1765 0603 455F434F 		.ascii "E_CORE3\0"
 1765      52453300 
 1766 060b 03       		.byte	0x3
 1767 060c 00       		.byte	0
 1768 060d 02       		.uleb128 0x2
 1769 060e 636F7265 		.ascii "coreid_t\0"
 1769      69645F74 
 1769      00
 1770 0617 04       		.byte	0x4
 1771 0618 0B       		.byte	0xb
 1772 0619 18       		.byte	0x18
 1773 061a CD050000 		.long	0x5cd
 1774 061e 05       		.uleb128 0x5
 1775 061f 70726976 		.ascii "privilige_mode_e\0"
 1775      696C6967 
 1775      655F6D6F 
 1775      64655F65 
 1775      00
 1776 0630 07       		.byte	0x7
 1777 0631 04       		.byte	0x4
 1778 0632 2F030000 		.long	0x32f
 1779 0636 04       		.byte	0x4
 1780 0637 10       		.byte	0x10
 1781 0638 06       		.byte	0x6
GAS LISTING C:\Users\PRESID~1\AppData\Local\Temp\cc1SpG1Y.s 			page 47


 1782 0639 BC060000 		.long	0x6bc
 1783 063d 06       		.uleb128 0x6
 1784 063e 455F5052 		.ascii "E_PRIVILIGEMODE_UNPRIVILIGED_THREAD_MODE\0"
 1784      4956494C 
 1784      4947454D 
 1784      4F44455F 
 1784      554E5052 
 1785 0667 00       		.byte	0
 1786 0668 06       		.uleb128 0x6
 1787 0669 455F5052 		.ascii "E_PRIVILIGEMODE_PRIVILIGED_THREAD_MODE\0"
 1787      4956494C 
 1787      4947454D 
 1787      4F44455F 
 1787      50524956 
 1788 0690 01       		.byte	0x1
 1789 0691 06       		.uleb128 0x6
 1790 0692 455F5052 		.ascii "E_PRIVILIGEMODE_PRIVILIGED_HANDLER_MODE\0"
 1790      4956494C 
 1790      4947454D 
 1790      4F44455F 
 1790      50524956 
 1791 06ba 02       		.byte	0x2
 1792 06bb 00       		.byte	0
 1793 06bc 02       		.uleb128 0x2
 1794 06bd 70726976 		.ascii "privilige_mode_t\0"
 1794      696C6967 
 1794      655F6D6F 
 1794      64655F74 
 1794      00
 1795 06ce 04       		.byte	0x4
 1796 06cf 16       		.byte	0x16
 1797 06d0 20       		.byte	0x20
 1798 06d1 1E060000 		.long	0x61e
 1799 06d5 05       		.uleb128 0x5
 1800 06d6 7461736B 		.ascii "task_state_e\0"
 1800      5F737461 
 1800      74655F65 
 1800      00
 1801 06e3 07       		.byte	0x7
 1802 06e4 04       		.byte	0x4
 1803 06e5 2F030000 		.long	0x32f
 1804 06e9 05       		.byte	0x5
 1805 06ea 07       		.byte	0x7
 1806 06eb 06       		.byte	0x6
 1807 06ec 39070000 		.long	0x739
 1808 06f0 06       		.uleb128 0x6
 1809 06f1 455F5441 		.ascii "E_TASK_UNSPECIFIED\0"
 1809      534B5F55 
 1809      4E535045 
 1809      43494649 
 1809      454400
 1810 0704 00       		.byte	0
 1811 0705 06       		.uleb128 0x6
 1812 0706 455F5441 		.ascii "E_TASK_SUSPENDED\0"
 1812      534B5F53 
 1812      55535045 
 1812      4E444544 
GAS LISTING C:\Users\PRESID~1\AppData\Local\Temp\cc1SpG1Y.s 			page 48


 1812      00
 1813 0717 01       		.byte	0x1
 1814 0718 06       		.uleb128 0x6
 1815 0719 455F5441 		.ascii "E_TASK_READY\0"
 1815      534B5F52 
 1815      45414459 
 1815      00
 1816 0726 02       		.byte	0x2
 1817 0727 06       		.uleb128 0x6
 1818 0728 455F5441 		.ascii "E_TASK_RUNNING\0"
 1818      534B5F52 
 1818      554E4E49 
 1818      4E4700
 1819 0737 03       		.byte	0x3
 1820 0738 00       		.byte	0
 1821 0739 02       		.uleb128 0x2
 1822 073a 7461736B 		.ascii "task_state_t\0"
 1822      5F737461 
 1822      74655F74 
 1822      00
 1823 0747 05       		.byte	0x5
 1824 0748 0E       		.byte	0xe
 1825 0749 1B       		.byte	0x1b
 1826 074a D5060000 		.long	0x6d5
 1827 074e 02       		.uleb128 0x2
 1828 074f 66756E63 		.ascii "func_p_t\0"
 1828      5F705F74 
 1828      00
 1829 0758 05       		.byte	0x5
 1830 0759 13       		.byte	0x13
 1831 075a 1B       		.byte	0x1b
 1832 075b 5F070000 		.long	0x75f
 1833 075f 0B       		.uleb128 0xb
 1834 0760 04       		.byte	0x4
 1835 0761 65070000 		.long	0x765
 1836 0765 0C       		.uleb128 0xc
 1837 0766 70070000 		.long	0x770
 1838 076a 0D       		.uleb128 0xd
 1839 076b 70070000 		.long	0x770
 1840 076f 00       		.byte	0
 1841 0770 0E       		.uleb128 0xe
 1842 0771 04       		.byte	0x4
 1843 0772 02       		.uleb128 0x2
 1844 0773 66756E63 		.ascii "func_p_state_change_t\0"
 1844      5F705F73 
 1844      74617465 
 1844      5F636861 
 1844      6E67655F 
 1845 0789 05       		.byte	0x5
 1846 078a 15       		.byte	0x15
 1847 078b 1B       		.byte	0x1b
 1848 078c 90070000 		.long	0x790
 1849 0790 0B       		.uleb128 0xb
 1850 0791 04       		.byte	0x4
 1851 0792 96070000 		.long	0x796
 1852 0796 0F       		.uleb128 0xf
 1853 0797 9E000000 		.long	0x9e
GAS LISTING C:\Users\PRESID~1\AppData\Local\Temp\cc1SpG1Y.s 			page 49


 1854 079b AA070000 		.long	0x7aa
 1855 079f 0D       		.uleb128 0xd
 1856 07a0 70070000 		.long	0x770
 1857 07a4 0D       		.uleb128 0xd
 1858 07a5 39070000 		.long	0x739
 1859 07a9 00       		.byte	0
 1860 07aa 07       		.uleb128 0x7
 1861 07ab 7461736B 		.ascii "task_group_s\0"
 1861      5F67726F 
 1861      75705F73 
 1861      00
 1862 07b8 20       		.byte	0x20
 1863 07b9 05       		.byte	0x5
 1864 07ba 18       		.byte	0x18
 1865 07bb 08       		.byte	0x8
 1866 07bc E5070000 		.long	0x7e5
 1867 07c0 10       		.uleb128 0x10
 1868 07c1 37000000 		.secrel32	LASF0
 1869 07c5 05       		.byte	0x5
 1870 07c6 1A       		.byte	0x1a
 1871 07c7 0E       		.byte	0xe
 1872 07c8 BB050000 		.long	0x5bb
 1873 07cc 00       		.byte	0
 1874 07cd 08       		.uleb128 0x8
 1875 07ce 66616972 		.ascii "fair_exe_time\0"
 1875      5F657865 
 1875      5F74696D 
 1875      6500
 1876 07dc 05       		.byte	0x5
 1877 07dd 1B       		.byte	0x1b
 1878 07de 0E       		.byte	0xe
 1879 07df BB050000 		.long	0x5bb
 1880 07e3 10       		.byte	0x10
 1881 07e4 00       		.byte	0
 1882 07e5 02       		.uleb128 0x2
 1883 07e6 7461736B 		.ascii "task_group_t\0"
 1883      5F67726F 
 1883      75705F74 
 1883      00
 1884 07f3 05       		.byte	0x5
 1885 07f4 1D       		.byte	0x1d
 1886 07f5 1D       		.byte	0x1d
 1887 07f6 AA070000 		.long	0x7aa
 1888 07fa 07       		.uleb128 0x7
 1889 07fb 7461736B 		.ascii "task_s\0"
 1889      5F7300
 1890 0802 AC       		.byte	0xac
 1891 0803 05       		.byte	0x5
 1892 0804 1F       		.byte	0x1f
 1893 0805 08       		.byte	0x8
 1894 0806 8C0A0000 		.long	0xa8c
 1895 080a 11       		.uleb128 0x11
 1896 080b 61637469 		.ascii "active\0"
 1896      766500
 1897 0812 05       		.byte	0x5
 1898 0813 21       		.byte	0x21
 1899 0814 0D       		.byte	0xd
GAS LISTING C:\Users\PRESID~1\AppData\Local\Temp\cc1SpG1Y.s 			page 50


 1900 0815 2F030000 		.long	0x32f
 1901 0819 04       		.byte	0x4
 1902 081a 01       		.byte	0x1
 1903 081b 1F       		.byte	0x1f
 1904 081c 00       		.byte	0
 1905 081d 11       		.uleb128 0x11
 1906 081e 7461736B 		.ascii "task_queued\0"
 1906      5F717565 
 1906      75656400 
 1907 082a 05       		.byte	0x5
 1908 082b 22       		.byte	0x22
 1909 082c 0D       		.byte	0xd
 1910 082d 2F030000 		.long	0x32f
 1911 0831 04       		.byte	0x4
 1912 0832 01       		.byte	0x1
 1913 0833 1E       		.byte	0x1e
 1914 0834 00       		.byte	0
 1915 0835 12       		.uleb128 0x12
 1916 0836 00000000 		.secrel32	LASF1
 1917 083a 05       		.byte	0x5
 1918 083b 23       		.byte	0x23
 1919 083c 0D       		.byte	0xd
 1920 083d 2F030000 		.long	0x32f
 1921 0841 04       		.byte	0x4
 1922 0842 01       		.byte	0x1
 1923 0843 1D       		.byte	0x1d
 1924 0844 00       		.byte	0
 1925 0845 11       		.uleb128 0x11
 1926 0846 66726565 		.ascii "free\0"
 1926      00
 1927 084b 05       		.byte	0x5
 1928 084c 24       		.byte	0x24
 1929 084d 0D       		.byte	0xd
 1930 084e 2F030000 		.long	0x32f
 1931 0852 04       		.byte	0x4
 1932 0853 1D       		.byte	0x1d
 1933 0854 00       		.byte	0
 1934 0855 00       		.byte	0
 1935 0856 08       		.uleb128 0x8
 1936 0857 6E725F6F 		.ascii "nr_of_ins_allowed\0"
 1936      665F696E 
 1936      735F616C 
 1936      6C6F7765 
 1936      6400
 1937 0869 05       		.byte	0x5
 1938 086a 25       		.byte	0x25
 1939 086b 14       		.byte	0x14
 1940 086c 9E000000 		.long	0x9e
 1941 0870 04       		.byte	0x4
 1942 0871 08       		.uleb128 0x8
 1943 0872 6E725F6F 		.ascii "nr_of_ins_activated\0"
 1943      665F696E 
 1943      735F6163 
 1943      74697661 
 1943      74656400 
 1944 0886 05       		.byte	0x5
 1945 0887 26       		.byte	0x26
GAS LISTING C:\Users\PRESID~1\AppData\Local\Temp\cc1SpG1Y.s 			page 51


 1946 0888 14       		.byte	0x14
 1947 0889 9E000000 		.long	0x9e
 1948 088d 05       		.byte	0x5
 1949 088e 08       		.uleb128 0x8
 1950 088f 77616974 		.ascii "wait_act_until\0"
 1950      5F616374 
 1950      5F756E74 
 1950      696C00
 1951 089e 05       		.byte	0x5
 1952 089f 27       		.byte	0x27
 1953 08a0 0E       		.byte	0xe
 1954 08a1 BB050000 		.long	0x5bb
 1955 08a5 06       		.byte	0x6
 1956 08a6 08       		.uleb128 0x8
 1957 08a7 77616974 		.ascii "wait_time\0"
 1957      5F74696D 
 1957      6500
 1958 08b1 05       		.byte	0x5
 1959 08b2 28       		.byte	0x28
 1960 08b3 0E       		.byte	0xe
 1961 08b4 BB050000 		.long	0x5bb
 1962 08b8 16       		.byte	0x16
 1963 08b9 08       		.uleb128 0x8
 1964 08ba 74696D65 		.ascii "time_to_prio_inc\0"
 1964      5F746F5F 
 1964      7072696F 
 1964      5F696E63 
 1964      00
 1965 08cb 05       		.byte	0x5
 1966 08cc 29       		.byte	0x29
 1967 08cd 0E       		.byte	0xe
 1968 08ce BB050000 		.long	0x5bb
 1969 08d2 26       		.byte	0x26
 1970 08d3 08       		.uleb128 0x8
 1971 08d4 6F766572 		.ascii "overwaittime_per_prio_inc_step\0"
 1971      77616974 
 1971      74696D65 
 1971      5F706572 
 1971      5F707269 
 1972 08f3 05       		.byte	0x5
 1973 08f4 2A       		.byte	0x2a
 1974 08f5 0B       		.byte	0xb
 1975 08f6 41010000 		.long	0x141
 1976 08fa 38       		.byte	0x38
 1977 08fb 08       		.uleb128 0x8
 1978 08fc 6D61785F 		.ascii "max_allowed_wait_time\0"
 1978      616C6C6F 
 1978      7765645F 
 1978      77616974 
 1978      5F74696D 
 1979 0912 05       		.byte	0x5
 1980 0913 2B       		.byte	0x2b
 1981 0914 0E       		.byte	0xe
 1982 0915 BB050000 		.long	0x5bb
 1983 0919 3C       		.byte	0x3c
 1984 091a 10       		.uleb128 0x10
 1985 091b 37000000 		.secrel32	LASF0
GAS LISTING C:\Users\PRESID~1\AppData\Local\Temp\cc1SpG1Y.s 			page 52


 1986 091f 05       		.byte	0x5
 1987 0920 2C       		.byte	0x2c
 1988 0921 0E       		.byte	0xe
 1989 0922 BB050000 		.long	0x5bb
 1990 0926 4C       		.byte	0x4c
 1991 0927 08       		.uleb128 0x8
 1992 0928 73746172 		.ascii "start_time\0"
 1992      745F7469 
 1992      6D6500
 1993 0933 05       		.byte	0x5
 1994 0934 2D       		.byte	0x2d
 1995 0935 0E       		.byte	0xe
 1996 0936 BB050000 		.long	0x5bb
 1997 093a 5C       		.byte	0x5c
 1998 093b 08       		.uleb128 0x8
 1999 093c 63757272 		.ascii "current_prio\0"
 1999      656E745F 
 1999      7072696F 
 1999      00
 2000 0949 05       		.byte	0x5
 2001 094a 2E       		.byte	0x2e
 2002 094b 14       		.byte	0x14
 2003 094c 9E000000 		.long	0x9e
 2004 0950 6C       		.byte	0x6c
 2005 0951 10       		.uleb128 0x10
 2006 0952 4B000000 		.secrel32	LASF2
 2007 0956 05       		.byte	0x5
 2008 0957 2F       		.byte	0x2f
 2009 0958 14       		.byte	0x14
 2010 0959 9E000000 		.long	0x9e
 2011 095d 6D       		.byte	0x6d
 2012 095e 08       		.uleb128 0x8
 2013 095f 7461736B 		.ascii "task_number\0"
 2013      5F6E756D 
 2013      62657200 
 2014 096b 05       		.byte	0x5
 2015 096c 30       		.byte	0x30
 2016 096d 15       		.byte	0x15
 2017 096e 07010000 		.long	0x107
 2018 0972 70       		.byte	0x70
 2019 0973 08       		.uleb128 0x8
 2020 0974 667000   		.ascii "fp\0"
 2021 0977 05       		.byte	0x5
 2022 0978 31       		.byte	0x31
 2023 0979 0D       		.byte	0xd
 2024 097a 4E070000 		.long	0x74e
 2025 097e 74       		.byte	0x74
 2026 097f 08       		.uleb128 0x8
 2027 0980 73746174 		.ascii "state_request\0"
 2027      655F7265 
 2027      71756573 
 2027      7400
 2028 098e 05       		.byte	0x5
 2029 098f 32       		.byte	0x32
 2030 0990 1A       		.byte	0x1a
 2031 0991 72070000 		.long	0x772
 2032 0995 78       		.byte	0x78
GAS LISTING C:\Users\PRESID~1\AppData\Local\Temp\cc1SpG1Y.s 			page 53


 2033 0996 08       		.uleb128 0x8
 2034 0997 7461736B 		.ascii "task_state\0"
 2034      5F737461 
 2034      746500
 2035 09a2 05       		.byte	0x5
 2036 09a3 33       		.byte	0x33
 2037 09a4 11       		.byte	0x11
 2038 09a5 39070000 		.long	0x739
 2039 09a9 7C       		.byte	0x7c
 2040 09aa 08       		.uleb128 0x8
 2041 09ab 7461736B 		.ascii "task_group\0"
 2041      5F67726F 
 2041      757000
 2042 09b6 05       		.byte	0x5
 2043 09b7 34       		.byte	0x34
 2044 09b8 12       		.byte	0x12
 2045 09b9 8C0A0000 		.long	0xa8c
 2046 09bd 80       		.byte	0x80
 2047 09be 08       		.uleb128 0x8
 2048 09bf 65617800 		.ascii "eax\0"
 2049 09c3 05       		.byte	0x5
 2050 09c4 36       		.byte	0x36
 2051 09c5 15       		.byte	0x15
 2052 09c6 07010000 		.long	0x107
 2053 09ca 84       		.byte	0x84
 2054 09cb 08       		.uleb128 0x8
 2055 09cc 65627800 		.ascii "ebx\0"
 2056 09d0 05       		.byte	0x5
 2057 09d1 37       		.byte	0x37
 2058 09d2 15       		.byte	0x15
 2059 09d3 07010000 		.long	0x107
 2060 09d7 88       		.byte	0x88
 2061 09d8 08       		.uleb128 0x8
 2062 09d9 65637800 		.ascii "ecx\0"
 2063 09dd 05       		.byte	0x5
 2064 09de 38       		.byte	0x38
 2065 09df 15       		.byte	0x15
 2066 09e0 07010000 		.long	0x107
 2067 09e4 8C       		.byte	0x8c
 2068 09e5 08       		.uleb128 0x8
 2069 09e6 65647800 		.ascii "edx\0"
 2070 09ea 05       		.byte	0x5
 2071 09eb 39       		.byte	0x39
 2072 09ec 15       		.byte	0x15
 2073 09ed 07010000 		.long	0x107
 2074 09f1 90       		.byte	0x90
 2075 09f2 08       		.uleb128 0x8
 2076 09f3 705F7374 		.ascii "p_stack_pointer\0"
 2076      61636B5F 
 2076      706F696E 
 2076      74657200 
 2077 0a03 05       		.byte	0x5
 2078 0a04 49       		.byte	0x49
 2079 0a05 15       		.byte	0x15
 2080 0a06 920A0000 		.long	0xa92
 2081 0a0a 94       		.byte	0x94
 2082 0a0b 08       		.uleb128 0x8
GAS LISTING C:\Users\PRESID~1\AppData\Local\Temp\cc1SpG1Y.s 			page 54


 2083 0a0c 705F7374 		.ascii "p_stack_pointer_by_malloc\0"
 2083      61636B5F 
 2083      706F696E 
 2083      7465725F 
 2083      62795F6D 
 2084 0a26 05       		.byte	0x5
 2085 0a27 4A       		.byte	0x4a
 2086 0a28 15       		.byte	0x15
 2087 0a29 920A0000 		.long	0xa92
 2088 0a2d 98       		.byte	0x98
 2089 0a2e 08       		.uleb128 0x8
 2090 0a2f 705F7374 		.ascii "p_stack_pointer_start\0"
 2090      61636B5F 
 2090      706F696E 
 2090      7465725F 
 2090      73746172 
 2091 0a45 05       		.byte	0x5
 2092 0a46 4B       		.byte	0x4b
 2093 0a47 15       		.byte	0x15
 2094 0a48 920A0000 		.long	0xa92
 2095 0a4c 9C       		.byte	0x9c
 2096 0a4d 08       		.uleb128 0x8
 2097 0a4e 73746163 		.ascii "stack_size\0"
 2097      6B5F7369 
 2097      7A6500
 2098 0a59 05       		.byte	0x5
 2099 0a5a 4C       		.byte	0x4c
 2100 0a5b 16       		.byte	0x16
 2101 0a5c 07010000 		.long	0x107
 2102 0a60 A0       		.byte	0xa0
 2103 0a61 08       		.uleb128 0x8
 2104 0a62 705F7374 		.ascii "p_stack_pointer_end\0"
 2104      61636B5F 
 2104      706F696E 
 2104      7465725F 
 2104      656E6400 
 2105 0a76 05       		.byte	0x5
 2106 0a77 4D       		.byte	0x4d
 2107 0a78 15       		.byte	0x15
 2108 0a79 920A0000 		.long	0xa92
 2109 0a7d A4       		.byte	0xa4
 2110 0a7e 10       		.uleb128 0x10
 2111 0a7f 23000000 		.secrel32	LASF3
 2112 0a83 05       		.byte	0x5
 2113 0a84 4E       		.byte	0x4e
 2114 0a85 15       		.byte	0x15
 2115 0a86 BC060000 		.long	0x6bc
 2116 0a8a A8       		.byte	0xa8
 2117 0a8b 00       		.byte	0
 2118 0a8c 0B       		.uleb128 0xb
 2119 0a8d 04       		.byte	0x4
 2120 0a8e E5070000 		.long	0x7e5
 2121 0a92 0B       		.uleb128 0xb
 2122 0a93 04       		.byte	0x4
 2123 0a94 9E000000 		.long	0x9e
 2124 0a98 02       		.uleb128 0x2
 2125 0a99 7461736B 		.ascii "task_t\0"
GAS LISTING C:\Users\PRESID~1\AppData\Local\Temp\cc1SpG1Y.s 			page 55


 2125      5F7400
 2126 0aa0 05       		.byte	0x5
 2127 0aa1 50       		.byte	0x50
 2128 0aa2 17       		.byte	0x17
 2129 0aa3 FA070000 		.long	0x7fa
 2130 0aa7 02       		.uleb128 0x2
 2131 0aa8 73636865 		.ascii "scheduling_t\0"
 2131      64756C69 
 2131      6E675F74 
 2131      00
 2132 0ab5 05       		.byte	0x5
 2133 0ab6 51       		.byte	0x51
 2134 0ab7 11       		.byte	0x11
 2135 0ab8 BC0A0000 		.long	0xabc
 2136 0abc 0B       		.uleb128 0xb
 2137 0abd 04       		.byte	0x4
 2138 0abe 980A0000 		.long	0xa98
 2139 0ac2 09       		.uleb128 0x9
 2140 0ac3 BC0A0000 		.long	0xabc
 2141 0ac7 D20A0000 		.long	0xad2
 2142 0acb 0A       		.uleb128 0xa
 2143 0acc 2F030000 		.long	0x32f
 2144 0ad0 09       		.byte	0x9
 2145 0ad1 00       		.byte	0
 2146 0ad2 13       		.uleb128 0x13
 2147 0ad3 5441534B 		.ascii "TASK_PTR\0"
 2147      5F505452 
 2147      00
 2148 0adc 05       		.byte	0x5
 2149 0add 5B       		.byte	0x5b
 2150 0ade 10       		.byte	0x10
 2151 0adf C20A0000 		.long	0xac2
 2152 0ae3 02       		.uleb128 0x2
 2153 0ae4 73636865 		.ascii "scheduler_time_t\0"
 2153      64756C65 
 2153      725F7469 
 2153      6D655F74 
 2153      00
 2154 0af5 05       		.byte	0x5
 2155 0af6 5D       		.byte	0x5d
 2156 0af7 13       		.byte	0x13
 2157 0af8 BB050000 		.long	0x5bb
 2158 0afc 05       		.uleb128 0x5
 2159 0afd 6F735F73 		.ascii "os_state_e\0"
 2159      74617465 
 2159      5F6500
 2160 0b08 07       		.byte	0x7
 2161 0b09 04       		.byte	0x4
 2162 0b0a 2F030000 		.long	0x32f
 2163 0b0e 06       		.byte	0x6
 2164 0b0f 04       		.byte	0x4
 2165 0b10 06       		.byte	0x6
 2166 0b11 4D0B0000 		.long	0xb4d
 2167 0b15 06       		.uleb128 0x6
 2168 0b16 4F535F53 		.ascii "OS_STATE_INIT\0"
 2168      54415445 
 2168      5F494E49 
GAS LISTING C:\Users\PRESID~1\AppData\Local\Temp\cc1SpG1Y.s 			page 56


 2168      5400
 2169 0b24 00       		.byte	0
 2170 0b25 06       		.uleb128 0x6
 2171 0b26 4F535F53 		.ascii "OS_STATE_RUNNING\0"
 2171      54415445 
 2171      5F52554E 
 2171      4E494E47 
 2171      00
 2172 0b37 01       		.byte	0x1
 2173 0b38 06       		.uleb128 0x6
 2174 0b39 4F535F53 		.ascii "OS_STATE_SHUTDOWN\0"
 2174      54415445 
 2174      5F534855 
 2174      54444F57 
 2174      4E00
 2175 0b4b 02       		.byte	0x2
 2176 0b4c 00       		.byte	0
 2177 0b4d 02       		.uleb128 0x2
 2178 0b4e 6F735F73 		.ascii "os_state_t\0"
 2178      74617465 
 2178      5F7400
 2179 0b59 06       		.byte	0x6
 2180 0b5a 0A       		.byte	0xa
 2181 0b5b 19       		.byte	0x19
 2182 0b5c FC0A0000 		.long	0xafc
 2183 0b60 04       		.uleb128 0x4
 2184 0b61 4D0B0000 		.long	0xb4d
 2185 0b65 09       		.uleb128 0x9
 2186 0b66 9E000000 		.long	0x9e
 2187 0b6a 760B0000 		.long	0xb76
 2188 0b6e 14       		.uleb128 0x14
 2189 0b6f 2F030000 		.long	0x32f
 2190 0b73 0F27     		.word	0x270f
 2191 0b75 00       		.byte	0
 2192 0b76 13       		.uleb128 0x13
 2193 0b77 48454150 		.ascii "HEAP\0"
 2193      00
 2194 0b7c 07       		.byte	0x7
 2195 0b7d 0B       		.byte	0xb
 2196 0b7e 18       		.byte	0x18
 2197 0b7f 650B0000 		.long	0xb65
 2198 0b83 09       		.uleb128 0x9
 2199 0b84 54030000 		.long	0x354
 2200 0b88 930B0000 		.long	0xb93
 2201 0b8c 0A       		.uleb128 0xa
 2202 0b8d 2F030000 		.long	0x32f
 2203 0b91 15       		.byte	0x15
 2204 0b92 00       		.byte	0
 2205 0b93 04       		.uleb128 0x4
 2206 0b94 830B0000 		.long	0xb83
 2207 0b98 13       		.uleb128 0x13
 2208 0b99 4F535F53 		.ascii "OS_SW_BUG\0"
 2208      575F4255 
 2208      4700
 2209 0ba3 07       		.byte	0x7
 2210 0ba4 0E       		.byte	0xe
 2211 0ba5 1E       		.byte	0x1e
GAS LISTING C:\Users\PRESID~1\AppData\Local\Temp\cc1SpG1Y.s 			page 57


 2212 0ba6 930B0000 		.long	0xb93
 2213 0baa 13       		.uleb128 0x13
 2214 0bab 4F535F53 		.ascii "OS_STATE\0"
 2214      54415445 
 2214      00
 2215 0bb4 07       		.byte	0x7
 2216 0bb5 0F       		.byte	0xf
 2217 0bb6 1C       		.byte	0x1c
 2218 0bb7 600B0000 		.long	0xb60
 2219 0bbb 13       		.uleb128 0x13
 2220 0bbc 5641525F 		.ascii "VAR_HARDFAULT_STATUS_REG\0"
 2220      48415244 
 2220      4641554C 
 2220      545F5354 
 2220      41545553 
 2221 0bd5 07       		.byte	0x7
 2222 0bd6 10       		.byte	0x10
 2223 0bd7 18       		.byte	0x18
 2224 0bd8 50010000 		.long	0x150
 2225 0bdc 13       		.uleb128 0x13
 2226 0bdd 5641525F 		.ascii "VAR_MEM_MANAG_FAULT_STATUS_REG\0"
 2226      4D454D5F 
 2226      4D414E41 
 2226      475F4641 
 2226      554C545F 
 2227 0bfc 07       		.byte	0x7
 2228 0bfd 11       		.byte	0x11
 2229 0bfe 18       		.byte	0x18
 2230 0bff 50010000 		.long	0x150
 2231 0c03 13       		.uleb128 0x13
 2232 0c04 5641525F 		.ascii "VAR_USAGE_FAULT_STATUS_REG\0"
 2232      55534147 
 2232      455F4641 
 2232      554C545F 
 2232      53544154 
 2233 0c1f 07       		.byte	0x7
 2234 0c20 12       		.byte	0x12
 2235 0c21 18       		.byte	0x18
 2236 0c22 50010000 		.long	0x150
 2237 0c26 13       		.uleb128 0x13
 2238 0c27 5641525F 		.ascii "VAR_FAULT_STATUS_REG\0"
 2238      4641554C 
 2238      545F5354 
 2238      41545553 
 2238      5F524547 
 2239 0c3c 07       		.byte	0x7
 2240 0c3d 13       		.byte	0x13
 2241 0c3e 18       		.byte	0x18
 2242 0c3f 50010000 		.long	0x150
 2243 0c43 13       		.uleb128 0x13
 2244 0c44 5641525F 		.ascii "VAR_MEM_FAULT_ADDR_REG\0"
 2244      4D454D5F 
 2244      4641554C 
 2244      545F4144 
 2244      44525F52 
 2245 0c5b 07       		.byte	0x7
 2246 0c5c 14       		.byte	0x14
GAS LISTING C:\Users\PRESID~1\AppData\Local\Temp\cc1SpG1Y.s 			page 58


 2247 0c5d 18       		.byte	0x18
 2248 0c5e 50010000 		.long	0x150
 2249 0c62 13       		.uleb128 0x13
 2250 0c63 5641525F 		.ascii "VAR_BUS_FAULT_ADDR_REG\0"
 2250      4255535F 
 2250      4641554C 
 2250      545F4144 
 2250      44525F52 
 2251 0c7a 07       		.byte	0x7
 2252 0c7b 15       		.byte	0x15
 2253 0c7c 18       		.byte	0x18
 2254 0c7d 50010000 		.long	0x150
 2255 0c81 13       		.uleb128 0x13
 2256 0c82 5641525F 		.ascii "VAR_AUX_FAULT_STATUS_REG\0"
 2256      4155585F 
 2256      4641554C 
 2256      545F5354 
 2256      41545553 
 2257 0c9b 07       		.byte	0x7
 2258 0c9c 16       		.byte	0x16
 2259 0c9d 18       		.byte	0x18
 2260 0c9e 50010000 		.long	0x150
 2261 0ca2 13       		.uleb128 0x13
 2262 0ca3 5641525F 		.ascii "VAR_BUS_FAULT_STATUS_REG\0"
 2262      4255535F 
 2262      4641554C 
 2262      545F5354 
 2262      41545553 
 2263 0cbc 07       		.byte	0x7
 2264 0cbd 17       		.byte	0x17
 2265 0cbe 18       		.byte	0x18
 2266 0cbf 50010000 		.long	0x150
 2267 0cc3 13       		.uleb128 0x13
 2268 0cc4 4C494E4B 		.ascii "LINK_REGISTER_HANDLER\0"
 2268      5F524547 
 2268      49535445 
 2268      525F4841 
 2268      4E444C45 
 2269 0cda 07       		.byte	0x7
 2270 0cdb 18       		.byte	0x18
 2271 0cdc 18       		.byte	0x18
 2272 0cdd 50010000 		.long	0x150
 2273 0ce1 13       		.uleb128 0x13
 2274 0ce2 4241434B 		.ascii "BACKUP_SYSTICK_CURRENT_VAL_REG\0"
 2274      55505F53 
 2274      59535449 
 2274      434B5F43 
 2274      55525245 
 2275 0d01 07       		.byte	0x7
 2276 0d02 19       		.byte	0x19
 2277 0d03 18       		.byte	0x18
 2278 0d04 50010000 		.long	0x150
 2279 0d08 13       		.uleb128 0x13
 2280 0d09 4442475F 		.ascii "DBG_RLD_VALUE\0"
 2280      524C445F 
 2280      56414C55 
 2280      4500
GAS LISTING C:\Users\PRESID~1\AppData\Local\Temp\cc1SpG1Y.s 			page 59


 2281 0d17 07       		.byte	0x7
 2282 0d18 1A       		.byte	0x1a
 2283 0d19 18       		.byte	0x18
 2284 0d1a 50010000 		.long	0x150
 2285 0d1e 13       		.uleb128 0x13
 2286 0d1f 4442475F 		.ascii "DBG_CURR_VAL\0"
 2286      43555252 
 2286      5F56414C 
 2286      00
 2287 0d2c 07       		.byte	0x7
 2288 0d2d 1B       		.byte	0x1b
 2289 0d2e 18       		.byte	0x18
 2290 0d2f 50010000 		.long	0x150
 2291 0d33 13       		.uleb128 0x13
 2292 0d34 4442475F 		.ascii "DBG_CTRL_VALUE\0"
 2292      4354524C 
 2292      5F56414C 
 2292      554500
 2293 0d43 07       		.byte	0x7
 2294 0d44 1C       		.byte	0x1c
 2295 0d45 18       		.byte	0x18
 2296 0d46 50010000 		.long	0x150
 2297 0d4a 13       		.uleb128 0x13
 2298 0d4b 4442475F 		.ascii "DBG_CALIB_VALUE\0"
 2298      43414C49 
 2298      425F5641 
 2298      4C554500 
 2299 0d5b 07       		.byte	0x7
 2300 0d5c 1D       		.byte	0x1d
 2301 0d5d 18       		.byte	0x18
 2302 0d5e 50010000 		.long	0x150
 2303 0d62 13       		.uleb128 0x13
 2304 0d63 5441534B 		.ascii "TASK1_CALL_NR\0"
 2304      315F4341 
 2304      4C4C5F4E 
 2304      5200
 2305 0d71 07       		.byte	0x7
 2306 0d72 1E       		.byte	0x1e
 2307 0d73 18       		.byte	0x18
 2308 0d74 50010000 		.long	0x150
 2309 0d78 13       		.uleb128 0x13
 2310 0d79 5441534B 		.ascii "TASK2_CALL_NR\0"
 2310      325F4341 
 2310      4C4C5F4E 
 2310      5200
 2311 0d87 07       		.byte	0x7
 2312 0d88 1F       		.byte	0x1f
 2313 0d89 18       		.byte	0x18
 2314 0d8a 50010000 		.long	0x150
 2315 0d8e 13       		.uleb128 0x13
 2316 0d8f 5441534B 		.ascii "TASK3_CALL_NR\0"
 2316      335F4341 
 2316      4C4C5F4E 
 2316      5200
 2317 0d9d 07       		.byte	0x7
 2318 0d9e 20       		.byte	0x20
 2319 0d9f 18       		.byte	0x18
GAS LISTING C:\Users\PRESID~1\AppData\Local\Temp\cc1SpG1Y.s 			page 60


 2320 0da0 50010000 		.long	0x150
 2321 0da4 13       		.uleb128 0x13
 2322 0da5 5441534B 		.ascii "TASK4_CALL_NR\0"
 2322      345F4341 
 2322      4C4C5F4E 
 2322      5200
 2323 0db3 07       		.byte	0x7
 2324 0db4 21       		.byte	0x21
 2325 0db5 18       		.byte	0x18
 2326 0db6 50010000 		.long	0x150
 2327 0dba 13       		.uleb128 0x13
 2328 0dbb 4F535F4D 		.ascii "OS_MAIN_STACK_ADDR\0"
 2328      41494E5F 
 2328      53544143 
 2328      4B5F4144 
 2328      445200
 2329 0dce 07       		.byte	0x7
 2330 0dcf 23       		.byte	0x23
 2331 0dd0 19       		.byte	0x19
 2332 0dd1 D50D0000 		.long	0xdd5
 2333 0dd5 0B       		.uleb128 0xb
 2334 0dd6 04       		.byte	0x4
 2335 0dd7 50010000 		.long	0x150
 2336 0ddb 13       		.uleb128 0x13
 2337 0ddc 4F535F4D 		.ascii "OS_MAIN_STACK_POS\0"
 2337      41494E5F 
 2337      53544143 
 2337      4B5F504F 
 2337      5300
 2338 0dee 07       		.byte	0x7
 2339 0def 24       		.byte	0x24
 2340 0df0 19       		.byte	0x19
 2341 0df1 50010000 		.long	0x150
 2342 0df5 13       		.uleb128 0x13
 2343 0df6 4F535F4D 		.ascii "OS_MAIN_STACK_USAGE_PERCENT\0"
 2343      41494E5F 
 2343      53544143 
 2343      4B5F5553 
 2343      4147455F 
 2344 0e12 07       		.byte	0x7
 2345 0e13 25       		.byte	0x25
 2346 0e14 19       		.byte	0x19
 2347 0e15 50010000 		.long	0x150
 2348 0e19 13       		.uleb128 0x13
 2349 0e1a 5441534B 		.ascii "TASK0_STACK_ADDR\0"
 2349      305F5354 
 2349      41434B5F 
 2349      41444452 
 2349      00
 2350 0e2b 07       		.byte	0x7
 2351 0e2c 26       		.byte	0x26
 2352 0e2d 19       		.byte	0x19
 2353 0e2e D50D0000 		.long	0xdd5
 2354 0e32 13       		.uleb128 0x13
 2355 0e33 5441534B 		.ascii "TASK0_STACK_POS\0"
 2355      305F5354 
 2355      41434B5F 
GAS LISTING C:\Users\PRESID~1\AppData\Local\Temp\cc1SpG1Y.s 			page 61


 2355      504F5300 
 2356 0e43 07       		.byte	0x7
 2357 0e44 27       		.byte	0x27
 2358 0e45 19       		.byte	0x19
 2359 0e46 50010000 		.long	0x150
 2360 0e4a 13       		.uleb128 0x13
 2361 0e4b 5441534B 		.ascii "TASK0_STACK_USAGE_PERCENT\0"
 2361      305F5354 
 2361      41434B5F 
 2361      55534147 
 2361      455F5045 
 2362 0e65 07       		.byte	0x7
 2363 0e66 28       		.byte	0x28
 2364 0e67 19       		.byte	0x19
 2365 0e68 50010000 		.long	0x150
 2366 0e6c 13       		.uleb128 0x13
 2367 0e6d 5441534B 		.ascii "TASK1_STACK_ADDR\0"
 2367      315F5354 
 2367      41434B5F 
 2367      41444452 
 2367      00
 2368 0e7e 07       		.byte	0x7
 2369 0e7f 29       		.byte	0x29
 2370 0e80 19       		.byte	0x19
 2371 0e81 D50D0000 		.long	0xdd5
 2372 0e85 13       		.uleb128 0x13
 2373 0e86 5441534B 		.ascii "TASK1_STACK_POS\0"
 2373      315F5354 
 2373      41434B5F 
 2373      504F5300 
 2374 0e96 07       		.byte	0x7
 2375 0e97 2A       		.byte	0x2a
 2376 0e98 19       		.byte	0x19
 2377 0e99 50010000 		.long	0x150
 2378 0e9d 13       		.uleb128 0x13
 2379 0e9e 5441534B 		.ascii "TASK1_STACK_USAGE_PERCENT\0"
 2379      315F5354 
 2379      41434B5F 
 2379      55534147 
 2379      455F5045 
 2380 0eb8 07       		.byte	0x7
 2381 0eb9 2B       		.byte	0x2b
 2382 0eba 19       		.byte	0x19
 2383 0ebb 50010000 		.long	0x150
 2384 0ebf 13       		.uleb128 0x13
 2385 0ec0 5441534B 		.ascii "TASK2_STACK_ADDR\0"
 2385      325F5354 
 2385      41434B5F 
 2385      41444452 
 2385      00
 2386 0ed1 07       		.byte	0x7
 2387 0ed2 2C       		.byte	0x2c
 2388 0ed3 19       		.byte	0x19
 2389 0ed4 D50D0000 		.long	0xdd5
 2390 0ed8 13       		.uleb128 0x13
 2391 0ed9 5441534B 		.ascii "TASK2_STACK_POS\0"
 2391      325F5354 
GAS LISTING C:\Users\PRESID~1\AppData\Local\Temp\cc1SpG1Y.s 			page 62


 2391      41434B5F 
 2391      504F5300 
 2392 0ee9 07       		.byte	0x7
 2393 0eea 2D       		.byte	0x2d
 2394 0eeb 19       		.byte	0x19
 2395 0eec 50010000 		.long	0x150
 2396 0ef0 13       		.uleb128 0x13
 2397 0ef1 5441534B 		.ascii "TASK2_STACK_USAGE_PERCENT\0"
 2397      325F5354 
 2397      41434B5F 
 2397      55534147 
 2397      455F5045 
 2398 0f0b 07       		.byte	0x7
 2399 0f0c 2E       		.byte	0x2e
 2400 0f0d 19       		.byte	0x19
 2401 0f0e 50010000 		.long	0x150
 2402 0f12 13       		.uleb128 0x13
 2403 0f13 5441534B 		.ascii "TASK3_STACK_ADDR\0"
 2403      335F5354 
 2403      41434B5F 
 2403      41444452 
 2403      00
 2404 0f24 07       		.byte	0x7
 2405 0f25 2F       		.byte	0x2f
 2406 0f26 19       		.byte	0x19
 2407 0f27 D50D0000 		.long	0xdd5
 2408 0f2b 13       		.uleb128 0x13
 2409 0f2c 5441534B 		.ascii "TASK3_STACK_POS\0"
 2409      335F5354 
 2409      41434B5F 
 2409      504F5300 
 2410 0f3c 07       		.byte	0x7
 2411 0f3d 30       		.byte	0x30
 2412 0f3e 19       		.byte	0x19
 2413 0f3f 50010000 		.long	0x150
 2414 0f43 13       		.uleb128 0x13
 2415 0f44 5441534B 		.ascii "TASK3_STACK_USAGE_PERCENT\0"
 2415      335F5354 
 2415      41434B5F 
 2415      55534147 
 2415      455F5045 
 2416 0f5e 07       		.byte	0x7
 2417 0f5f 31       		.byte	0x31
 2418 0f60 19       		.byte	0x19
 2419 0f61 50010000 		.long	0x150
 2420 0f65 13       		.uleb128 0x13
 2421 0f66 5441534B 		.ascii "TASK4_STACK_ADDR\0"
 2421      345F5354 
 2421      41434B5F 
 2421      41444452 
 2421      00
 2422 0f77 07       		.byte	0x7
 2423 0f78 32       		.byte	0x32
 2424 0f79 19       		.byte	0x19
 2425 0f7a D50D0000 		.long	0xdd5
 2426 0f7e 13       		.uleb128 0x13
 2427 0f7f 5441534B 		.ascii "TASK4_STACK_POS\0"
GAS LISTING C:\Users\PRESID~1\AppData\Local\Temp\cc1SpG1Y.s 			page 63


 2427      345F5354 
 2427      41434B5F 
 2427      504F5300 
 2428 0f8f 07       		.byte	0x7
 2429 0f90 33       		.byte	0x33
 2430 0f91 19       		.byte	0x19
 2431 0f92 50010000 		.long	0x150
 2432 0f96 13       		.uleb128 0x13
 2433 0f97 5441534B 		.ascii "TASK4_STACK_USAGE_PERCENT\0"
 2433      345F5354 
 2433      41434B5F 
 2433      55534147 
 2433      455F5045 
 2434 0fb1 07       		.byte	0x7
 2435 0fb2 34       		.byte	0x34
 2436 0fb3 19       		.byte	0x19
 2437 0fb4 50010000 		.long	0x150
 2438 0fb8 09       		.uleb128 0x9
 2439 0fb9 9E000000 		.long	0x9e
 2440 0fbd C90F0000 		.long	0xfc9
 2441 0fc1 14       		.uleb128 0x14
 2442 0fc2 2F030000 		.long	0x32f
 2443 0fc6 CF07     		.word	0x7cf
 2444 0fc8 00       		.byte	0
 2445 0fc9 13       		.uleb128 0x13
 2446 0fca 5441534B 		.ascii "TASK0_STACK\0"
 2446      305F5354 
 2446      41434B00 
 2447 0fd6 07       		.byte	0x7
 2448 0fd7 35       		.byte	0x35
 2449 0fd8 1A       		.byte	0x1a
 2450 0fd9 B80F0000 		.long	0xfb8
 2451 0fdd 13       		.uleb128 0x13
 2452 0fde 5441534B 		.ascii "TASK1_STACK\0"
 2452      315F5354 
 2452      41434B00 
 2453 0fea 07       		.byte	0x7
 2454 0feb 36       		.byte	0x36
 2455 0fec 1A       		.byte	0x1a
 2456 0fed B80F0000 		.long	0xfb8
 2457 0ff1 13       		.uleb128 0x13
 2458 0ff2 5441534B 		.ascii "TASK2_STACK\0"
 2458      325F5354 
 2458      41434B00 
 2459 0ffe 07       		.byte	0x7
 2460 0fff 37       		.byte	0x37
 2461 1000 1A       		.byte	0x1a
 2462 1001 B80F0000 		.long	0xfb8
 2463 1005 13       		.uleb128 0x13
 2464 1006 5441534B 		.ascii "TASK3_STACK\0"
 2464      335F5354 
 2464      41434B00 
 2465 1012 07       		.byte	0x7
 2466 1013 38       		.byte	0x38
 2467 1014 1A       		.byte	0x1a
 2468 1015 B80F0000 		.long	0xfb8
 2469 1019 13       		.uleb128 0x13
GAS LISTING C:\Users\PRESID~1\AppData\Local\Temp\cc1SpG1Y.s 			page 64


 2470 101a 5441534B 		.ascii "TASK4_STACK\0"
 2470      345F5354 
 2470      41434B00 
 2471 1026 07       		.byte	0x7
 2472 1027 39       		.byte	0x39
 2473 1028 1A       		.byte	0x1a
 2474 1029 B80F0000 		.long	0xfb8
 2475 102d 13       		.uleb128 0x13
 2476 102e 4C415354 		.ascii "LAST_CURRENT_TIME\0"
 2476      5F435552 
 2476      52454E54 
 2476      5F54494D 
 2476      4500
 2477 1040 07       		.byte	0x7
 2478 1041 3A       		.byte	0x3a
 2479 1042 1A       		.byte	0x1a
 2480 1043 E30A0000 		.long	0xae3
 2481 1047 09       		.uleb128 0x9
 2482 1048 A70A0000 		.long	0xaa7
 2483 104c 57100000 		.long	0x1057
 2484 1050 0A       		.uleb128 0xa
 2485 1051 2F030000 		.long	0x32f
 2486 1055 09       		.byte	0x9
 2487 1056 00       		.byte	0
 2488 1057 13       		.uleb128 0x13
 2489 1058 5441534B 		.ascii "TASK_SCHEDULING_QUEUE\0"
 2489      5F534348 
 2489      4544554C 
 2489      494E475F 
 2489      51554555 
 2490 106e 07       		.byte	0x7
 2491 106f 3B       		.byte	0x3b
 2492 1070 1A       		.byte	0x1a
 2493 1071 47100000 		.long	0x1047
 2494 1075 13       		.uleb128 0x13
 2495 1076 52554E4E 		.ascii "RUNNING_SCHEDULING_QUEUE_ENTRY\0"
 2495      494E475F 
 2495      53434845 
 2495      44554C49 
 2495      4E475F51 
 2496 1095 07       		.byte	0x7
 2497 1096 3C       		.byte	0x3c
 2498 1097 1A       		.byte	0x1a
 2499 1098 9C100000 		.long	0x109c
 2500 109c 0B       		.uleb128 0xb
 2501 109d 04       		.byte	0x4
 2502 109e A70A0000 		.long	0xaa7
 2503 10a2 09       		.uleb128 0x9
 2504 10a3 980A0000 		.long	0xa98
 2505 10a7 B2100000 		.long	0x10b2
 2506 10ab 0A       		.uleb128 0xa
 2507 10ac 2F030000 		.long	0x32f
 2508 10b0 09       		.byte	0x9
 2509 10b1 00       		.byte	0
 2510 10b2 13       		.uleb128 0x13
 2511 10b3 5441534B 		.ascii "TASK_RUN_QUEUE\0"
 2511      5F52554E 
GAS LISTING C:\Users\PRESID~1\AppData\Local\Temp\cc1SpG1Y.s 			page 65


 2511      5F515545 
 2511      554500
 2512 10c2 07       		.byte	0x7
 2513 10c3 3D       		.byte	0x3d
 2514 10c4 1A       		.byte	0x1a
 2515 10c5 A2100000 		.long	0x10a2
 2516 10c9 09       		.uleb128 0x9
 2517 10ca 980A0000 		.long	0xa98
 2518 10ce D9100000 		.long	0x10d9
 2519 10d2 0A       		.uleb128 0xa
 2520 10d3 2F030000 		.long	0x32f
 2521 10d7 00       		.byte	0
 2522 10d8 00       		.byte	0
 2523 10d9 13       		.uleb128 0x13
 2524 10da 52554E4E 		.ascii "RUNNING_TASK\0"
 2524      494E475F 
 2524      5441534B 
 2524      00
 2525 10e7 07       		.byte	0x7
 2526 10e8 3E       		.byte	0x3e
 2527 10e9 1A       		.byte	0x1a
 2528 10ea C9100000 		.long	0x10c9
 2529 10ee 13       		.uleb128 0x13
 2530 10ef 5441534B 		.ascii "TASK_IDLE_QUEUE\0"
 2530      5F49444C 
 2530      455F5155 
 2530      45554500 
 2531 10ff 07       		.byte	0x7
 2532 1100 3F       		.byte	0x3f
 2533 1101 1A       		.byte	0x1a
 2534 1102 C9100000 		.long	0x10c9
 2535 1106 13       		.uleb128 0x13
 2536 1107 62544153 		.ascii "bTASK_QUEUE_INITIALIZED\0"
 2536      4B5F5155 
 2536      4555455F 
 2536      494E4954 
 2536      49414C49 
 2537 111f 07       		.byte	0x7
 2538 1120 40       		.byte	0x40
 2539 1121 1A       		.byte	0x1a
 2540 1122 9E000000 		.long	0x9e
 2541 1126 13       		.uleb128 0x13
 2542 1127 5441534B 		.ascii "TASK_0_VAR\0"
 2542      5F305F56 
 2542      415200
 2543 1132 07       		.byte	0x7
 2544 1133 41       		.byte	0x41
 2545 1134 0F       		.byte	0xf
 2546 1135 980A0000 		.long	0xa98
 2547 1139 13       		.uleb128 0x13
 2548 113a 5441534B 		.ascii "TASK_1_VAR\0"
 2548      5F315F56 
 2548      415200
 2549 1145 07       		.byte	0x7
 2550 1146 41       		.byte	0x41
 2551 1147 1B       		.byte	0x1b
 2552 1148 980A0000 		.long	0xa98
GAS LISTING C:\Users\PRESID~1\AppData\Local\Temp\cc1SpG1Y.s 			page 66


 2553 114c 13       		.uleb128 0x13
 2554 114d 5441534B 		.ascii "TASK_2_VAR\0"
 2554      5F325F56 
 2554      415200
 2555 1158 07       		.byte	0x7
 2556 1159 41       		.byte	0x41
 2557 115a 27       		.byte	0x27
 2558 115b 980A0000 		.long	0xa98
 2559 115f 13       		.uleb128 0x13
 2560 1160 5441534B 		.ascii "TASK_3_VAR\0"
 2560      5F335F56 
 2560      415200
 2561 116b 07       		.byte	0x7
 2562 116c 41       		.byte	0x41
 2563 116d 33       		.byte	0x33
 2564 116e 980A0000 		.long	0xa98
 2565 1172 13       		.uleb128 0x13
 2566 1173 5441534B 		.ascii "TASK_GROUP_1\0"
 2566      5F47524F 
 2566      55505F31 
 2566      00
 2567 1180 07       		.byte	0x7
 2568 1181 42       		.byte	0x42
 2569 1182 15       		.byte	0x15
 2570 1183 E5070000 		.long	0x7e5
 2571 1187 13       		.uleb128 0x13
 2572 1188 5441534B 		.ascii "TASK_GROUP_2\0"
 2572      5F47524F 
 2572      55505F32 
 2572      00
 2573 1195 07       		.byte	0x7
 2574 1196 42       		.byte	0x42
 2575 1197 23       		.byte	0x23
 2576 1198 E5070000 		.long	0x7e5
 2577 119c 13       		.uleb128 0x13
 2578 119d 5441534B 		.ascii "TASK_GROUP_3\0"
 2578      5F47524F 
 2578      55505F33 
 2578      00
 2579 11aa 07       		.byte	0x7
 2580 11ab 42       		.byte	0x42
 2581 11ac 31       		.byte	0x31
 2582 11ad E5070000 		.long	0x7e5
 2583 11b1 13       		.uleb128 0x13
 2584 11b2 5441534B 		.ascii "TASK_GROUP_4\0"
 2584      5F47524F 
 2584      55505F34 
 2584      00
 2585 11bf 07       		.byte	0x7
 2586 11c0 42       		.byte	0x42
 2587 11c1 3F       		.byte	0x3f
 2588 11c2 E5070000 		.long	0x7e5
 2589 11c6 13       		.uleb128 0x13
 2590 11c7 5441534B 		.ascii "TASK_GROUP_5\0"
 2590      5F47524F 
 2590      55505F35 
 2590      00
GAS LISTING C:\Users\PRESID~1\AppData\Local\Temp\cc1SpG1Y.s 			page 67


 2591 11d4 07       		.byte	0x7
 2592 11d5 42       		.byte	0x42
 2593 11d6 4D       		.byte	0x4d
 2594 11d7 E5070000 		.long	0x7e5
 2595 11db 13       		.uleb128 0x13
 2596 11dc 5441534B 		.ascii "TASK_TRANSITION_REJECTED_TASK_ADDR\0"
 2596      5F545241 
 2596      4E534954 
 2596      494F4E5F 
 2596      52454A45 
 2597 11ff 07       		.byte	0x7
 2598 1200 43       		.byte	0x43
 2599 1201 1A       		.byte	0x1a
 2600 1202 BC0A0000 		.long	0xabc
 2601 1206 13       		.uleb128 0x13
 2602 1207 5441534B 		.ascii "TASK_TRANSITION_REJECTED_STATE\0"
 2602      5F545241 
 2602      4E534954 
 2602      494F4E5F 
 2602      52454A45 
 2603 1226 07       		.byte	0x7
 2604 1227 44       		.byte	0x44
 2605 1228 1A       		.byte	0x1a
 2606 1229 39070000 		.long	0x739
 2607 122d 13       		.uleb128 0x13
 2608 122e 5441534B 		.ascii "TASK_TRANSITION_CURRENT_STATE\0"
 2608      5F545241 
 2608      4E534954 
 2608      494F4E5F 
 2608      43555252 
 2609 124c 07       		.byte	0x7
 2610 124d 45       		.byte	0x45
 2611 124e 1A       		.byte	0x1a
 2612 124f 39070000 		.long	0x739
 2613 1253 13       		.uleb128 0x13
 2614 1254 53595354 		.ascii "SYSTEM_STATE_ACCEPTED\0"
 2614      454D5F53 
 2614      54415445 
 2614      5F414343 
 2614      45505445 
 2615 126a 07       		.byte	0x7
 2616 126b 46       		.byte	0x46
 2617 126c 1C       		.byte	0x1c
 2618 126d 600B0000 		.long	0xb60
 2619 1271 13       		.uleb128 0x13
 2620 1272 4C4F4341 		.ascii "LOCAL_SYSTEM_TIME\0"
 2620      4C5F5359 
 2620      5354454D 
 2620      5F54494D 
 2620      4500
 2621 1284 07       		.byte	0x7
 2622 1285 47       		.byte	0x47
 2623 1286 12       		.byte	0x12
 2624 1287 BB050000 		.long	0x5bb
 2625 128b 09       		.uleb128 0x9
 2626 128c 9E000000 		.long	0x9e
 2627 1290 9C120000 		.long	0x129c
GAS LISTING C:\Users\PRESID~1\AppData\Local\Temp\cc1SpG1Y.s 			page 68


 2628 1294 14       		.uleb128 0x14
 2629 1295 2F030000 		.long	0x32f
 2630 1299 FF03     		.word	0x3ff
 2631 129b 00       		.byte	0
 2632 129c 13       		.uleb128 0x13
 2633 129d 4F535F4D 		.ascii "OS_MAIN_STACK\0"
 2633      41494E5F 
 2633      53544143 
 2633      4B00
 2634 12ab 08       		.byte	0x8
 2635 12ac 0C       		.byte	0xc
 2636 12ad 18       		.byte	0x18
 2637 12ae 8B120000 		.long	0x128b
 2638 12b2 15       		.uleb128 0x15
 2639 12b3 4F535F49 		.ascii "OS_INIT_TASK\0"
 2639      4E49545F 
 2639      5441534B 
 2639      00
 2640 12c0 01       		.byte	0x1
 2641 12c1 5601     		.word	0x156
 2642 12c3 06       		.byte	0x6
 2643 12c4 D50B0000 		.long	LFB12
 2644 12c8 3D010000 		.long	LFE12-LFB12
 2645 12cc 01       		.uleb128 0x1
 2646 12cd 9C       		.byte	0x9c
 2647 12ce A1130000 		.long	0x13a1
 2648 12d2 16       		.uleb128 0x16
 2649 12d3 32000000 		.secrel32	LASF4
 2650 12d7 01       		.byte	0x1
 2651 12d8 5701     		.word	0x157
 2652 12da 15       		.byte	0x15
 2653 12db BC0A0000 		.long	0xabc
 2654 12df 02       		.uleb128 0x2
 2655 12e0 91       		.byte	0x91
 2656 12e1 00       		.sleb128 0
 2657 12e2 17       		.uleb128 0x17
 2658 12e3 5461736B 		.ascii "TaskFunction\0"
 2658      46756E63 
 2658      74696F6E 
 2658      00
 2659 12f0 01       		.byte	0x1
 2660 12f1 5801     		.word	0x158
 2661 12f3 15       		.byte	0x15
 2662 12f4 4E070000 		.long	0x74e
 2663 12f8 02       		.uleb128 0x2
 2664 12f9 91       		.byte	0x91
 2665 12fa 04       		.sleb128 4
 2666 12fb 17       		.uleb128 0x17
 2667 12fc 416C6C6F 		.ascii "AllowedInstances\0"
 2667      77656449 
 2667      6E737461 
 2667      6E636573 
 2667      00
 2668 130d 01       		.byte	0x1
 2669 130e 5901     		.word	0x159
 2670 1310 15       		.byte	0x15
 2671 1311 9E000000 		.long	0x9e
GAS LISTING C:\Users\PRESID~1\AppData\Local\Temp\cc1SpG1Y.s 			page 69


 2672 1315 02       		.uleb128 0x2
 2673 1316 91       		.byte	0x91
 2674 1317 6C       		.sleb128 -20
 2675 1318 16       		.uleb128 0x16
 2676 1319 00000000 		.secrel32	LASF1
 2677 131d 01       		.byte	0x1
 2678 131e 5A01     		.word	0x15a
 2679 1320 15       		.byte	0x15
 2680 1321 9E000000 		.long	0x9e
 2681 1325 02       		.uleb128 0x2
 2682 1326 91       		.byte	0x91
 2683 1327 68       		.sleb128 -24
 2684 1328 17       		.uleb128 0x17
 2685 1329 705F7461 		.ascii "p_task_group\0"
 2685      736B5F67 
 2685      726F7570 
 2685      00
 2686 1336 01       		.byte	0x1
 2687 1337 5B01     		.word	0x15b
 2688 1339 15       		.byte	0x15
 2689 133a 8C0A0000 		.long	0xa8c
 2690 133e 02       		.uleb128 0x2
 2691 133f 91       		.byte	0x91
 2692 1340 10       		.sleb128 16
 2693 1341 17       		.uleb128 0x17
 2694 1342 70537461 		.ascii "pStackAddr\0"
 2694      636B4164 
 2694      647200
 2695 134d 01       		.byte	0x1
 2696 134e 5C01     		.word	0x15c
 2697 1350 15       		.byte	0x15
 2698 1351 920A0000 		.long	0xa92
 2699 1355 02       		.uleb128 0x2
 2700 1356 91       		.byte	0x91
 2701 1357 14       		.sleb128 20
 2702 1358 17       		.uleb128 0x17
 2703 1359 75537461 		.ascii "uStackSize\0"
 2703      636B5369 
 2703      7A6500
 2704 1364 01       		.byte	0x1
 2705 1365 5D01     		.word	0x15d
 2706 1367 15       		.byte	0x15
 2707 1368 07010000 		.long	0x107
 2708 136c 02       		.uleb128 0x2
 2709 136d 91       		.byte	0x91
 2710 136e 18       		.sleb128 24
 2711 136f 16       		.uleb128 0x16
 2712 1370 23000000 		.secrel32	LASF3
 2713 1374 01       		.byte	0x1
 2714 1375 5E01     		.word	0x15e
 2715 1377 15       		.byte	0x15
 2716 1378 BC060000 		.long	0x6bc
 2717 137c 02       		.uleb128 0x2
 2718 137d 91       		.byte	0x91
 2719 137e 1C       		.sleb128 28
 2720 137f 17       		.uleb128 0x17
 2721 1380 636F7265 		.ascii "core\0"
GAS LISTING C:\Users\PRESID~1\AppData\Local\Temp\cc1SpG1Y.s 			page 70


 2721      00
 2722 1385 01       		.byte	0x1
 2723 1386 5F01     		.word	0x15f
 2724 1388 15       		.byte	0x15
 2725 1389 0D060000 		.long	0x60d
 2726 138d 02       		.uleb128 0x2
 2727 138e 91       		.byte	0x91
 2728 138f 20       		.sleb128 32
 2729 1390 16       		.uleb128 0x16
 2730 1391 4B000000 		.secrel32	LASF2
 2731 1395 01       		.byte	0x1
 2732 1396 6001     		.word	0x160
 2733 1398 15       		.byte	0x15
 2734 1399 9E000000 		.long	0x9e
 2735 139d 02       		.uleb128 0x2
 2736 139e 91       		.byte	0x91
 2737 139f 64       		.sleb128 -28
 2738 13a0 00       		.byte	0
 2739 13a1 18       		.uleb128 0x18
 2740 13a2 4745545F 		.ascii "GET_RUNNING_SCHEDULING_QUEUE_ELEMENT_PTR\0"
 2740      52554E4E 
 2740      494E475F 
 2740      53434845 
 2740      44554C49 
 2741 13cb 01       		.byte	0x1
 2742 13cc 5201     		.word	0x152
 2743 13ce 0F       		.byte	0xf
 2744 13cf DD130000 		.long	0x13dd
 2745 13d3 CB0B0000 		.long	LFB11
 2746 13d7 0A000000 		.long	LFE11-LFB11
 2747 13db 01       		.uleb128 0x1
 2748 13dc 9C       		.byte	0x9c
 2749 13dd 0B       		.uleb128 0xb
 2750 13de 04       		.byte	0x4
 2751 13df BC0A0000 		.long	0xabc
 2752 13e3 18       		.uleb128 0x18
 2753 13e4 4745545F 		.ascii "GET_RUNNING_TASK\0"
 2753      52554E4E 
 2753      494E475F 
 2753      5441534B 
 2753      00
 2754 13f5 01       		.byte	0x1
 2755 13f6 4E01     		.word	0x14e
 2756 13f8 09       		.byte	0x9
 2757 13f9 BC0A0000 		.long	0xabc
 2758 13fd C10B0000 		.long	LFB10
 2759 1401 0A000000 		.long	LFE10-LFB10
 2760 1405 01       		.uleb128 0x1
 2761 1406 9C       		.byte	0x9c
 2762 1407 15       		.uleb128 0x15
 2763 1408 4144445F 		.ascii "ADD_TO_IDLE_TASK_QUEUE\0"
 2763      544F5F49 
 2763      444C455F 
 2763      5441534B 
 2763      5F515545 
 2764 141f 01       		.byte	0x1
 2765 1420 1A01     		.word	0x11a
GAS LISTING C:\Users\PRESID~1\AppData\Local\Temp\cc1SpG1Y.s 			page 71


 2766 1422 06       		.byte	0x6
 2767 1423 DA090000 		.long	LFB9
 2768 1427 E7010000 		.long	LFE9-LFB9
 2769 142b 01       		.uleb128 0x1
 2770 142c 9C       		.byte	0x9c
 2771 142d 42140000 		.long	0x1442
 2772 1431 16       		.uleb128 0x16
 2773 1432 32000000 		.secrel32	LASF4
 2774 1436 01       		.byte	0x1
 2775 1437 1A01     		.word	0x11a
 2776 1439 25       		.byte	0x25
 2777 143a BC0A0000 		.long	0xabc
 2778 143e 02       		.uleb128 0x2
 2779 143f 91       		.byte	0x91
 2780 1440 00       		.sleb128 0
 2781 1441 00       		.byte	0
 2782 1442 18       		.uleb128 0x18
 2783 1443 4745545F 		.ascii "GET_IDLE_TASK\0"
 2783      49444C45 
 2783      5F544153 
 2783      4B00
 2784 1451 01       		.byte	0x1
 2785 1452 1601     		.word	0x116
 2786 1454 09       		.byte	0x9
 2787 1455 BC0A0000 		.long	0xabc
 2788 1459 D0090000 		.long	LFB8
 2789 145d 0A000000 		.long	LFE8-LFB8
 2790 1461 01       		.uleb128 0x1
 2791 1462 9C       		.byte	0x9c
 2792 1463 19       		.uleb128 0x19
 2793 1464 4144445F 		.ascii "ADD_TO_SCHEDULING_QUEUE\0"
 2793      544F5F53 
 2793      43484544 
 2793      554C494E 
 2793      475F5155 
 2794 147c 01       		.byte	0x1
 2795 147d E1       		.byte	0xe1
 2796 147e 06       		.byte	0x6
 2797 147f 88090000 		.long	LFB7
 2798 1483 48000000 		.long	LFE7-LFB7
 2799 1487 01       		.uleb128 0x1
 2800 1488 9C       		.byte	0x9c
 2801 1489 C8140000 		.long	0x14c8
 2802 148d 1A       		.uleb128 0x1a
 2803 148e 32000000 		.secrel32	LASF4
 2804 1492 01       		.byte	0x1
 2805 1493 E1       		.byte	0xe1
 2806 1494 26       		.byte	0x26
 2807 1495 BC0A0000 		.long	0xabc
 2808 1499 02       		.uleb128 0x2
 2809 149a 91       		.byte	0x91
 2810 149b 00       		.sleb128 0
 2811 149c 1B       		.uleb128 0x1b
 2812 149d 4164645F 		.ascii "Add_successful\0"
 2812      73756363 
 2812      65737366 
 2812      756C00
GAS LISTING C:\Users\PRESID~1\AppData\Local\Temp\cc1SpG1Y.s 			page 72


 2813 14ac 01       		.byte	0x1
 2814 14ad EA       		.byte	0xea
 2815 14ae 14       		.byte	0x14
 2816 14af 9E000000 		.long	0x9e
 2817 14b3 02       		.uleb128 0x2
 2818 14b4 91       		.byte	0x91
 2819 14b5 77       		.sleb128 -9
 2820 14b6 1B       		.uleb128 0x1b
 2821 14b7 696E6465 		.ascii "index\0"
 2821      7800
 2822 14bd 01       		.byte	0x1
 2823 14be EB       		.byte	0xeb
 2824 14bf 14       		.byte	0x14
 2825 14c0 9E000000 		.long	0x9e
 2826 14c4 02       		.uleb128 0x2
 2827 14c5 91       		.byte	0x91
 2828 14c6 76       		.sleb128 -10
 2829 14c7 00       		.byte	0
 2830 14c8 19       		.uleb128 0x19
 2831 14c9 44454C45 		.ascii "DELETE_FROM_SCHEDULING_QUEUE\0"
 2831      54455F46 
 2831      524F4D5F 
 2831      53434845 
 2831      44554C49 
 2832 14e6 01       		.byte	0x1
 2833 14e7 DD       		.byte	0xdd
 2834 14e8 06       		.byte	0x6
 2835 14e9 79090000 		.long	LFB6
 2836 14ed 0F000000 		.long	LFE6-LFB6
 2837 14f1 01       		.uleb128 0x1
 2838 14f2 9C       		.byte	0x9c
 2839 14f3 07150000 		.long	0x1507
 2840 14f7 1A       		.uleb128 0x1a
 2841 14f8 0A000000 		.secrel32	LASF5
 2842 14fc 01       		.byte	0x1
 2843 14fd DD       		.byte	0xdd
 2844 14fe 31       		.byte	0x31
 2845 14ff 9C100000 		.long	0x109c
 2846 1503 02       		.uleb128 0x2
 2847 1504 91       		.byte	0x91
 2848 1505 00       		.sleb128 0
 2849 1506 00       		.byte	0
 2850 1507 1C       		.uleb128 0x1c
 2851 1508 4745545F 		.ascii "GET_FROM_SCHEDULING_QUEUE\0"
 2851      46524F4D 
 2851      5F534348 
 2851      4544554C 
 2851      494E475F 
 2852 1522 01       		.byte	0x1
 2853 1523 D8       		.byte	0xd8
 2854 1524 0F       		.byte	0xf
 2855 1525 9C100000 		.long	0x109c
 2856 1529 5F090000 		.long	LFB5
 2857 152d 1A000000 		.long	LFE5-LFB5
 2858 1531 01       		.uleb128 0x1
 2859 1532 9C       		.byte	0x9c
 2860 1533 47150000 		.long	0x1547
GAS LISTING C:\Users\PRESID~1\AppData\Local\Temp\cc1SpG1Y.s 			page 73


 2861 1537 1A       		.uleb128 0x1a
 2862 1538 40000000 		.secrel32	LASF6
 2863 153c 01       		.byte	0x1
 2864 153d D8       		.byte	0xd8
 2865 153e 39       		.byte	0x39
 2866 153f 9E000000 		.long	0x9e
 2867 1543 02       		.uleb128 0x2
 2868 1544 91       		.byte	0x91
 2869 1545 74       		.sleb128 -12
 2870 1546 00       		.byte	0
 2871 1547 1C       		.uleb128 0x1c
 2872 1548 4745545F 		.ascii "GET_FROM_TASK_QUEUE\0"
 2872      46524F4D 
 2872      5F544153 
 2872      4B5F5155 
 2872      45554500 
 2873 155c 01       		.byte	0x1
 2874 155d D4       		.byte	0xd4
 2875 155e 09       		.byte	0x9
 2876 155f BC0A0000 		.long	0xabc
 2877 1563 55090000 		.long	LFB4
 2878 1567 0A000000 		.long	LFE4-LFB4
 2879 156b 01       		.uleb128 0x1
 2880 156c 9C       		.byte	0x9c
 2881 156d 81150000 		.long	0x1581
 2882 1571 1A       		.uleb128 0x1a
 2883 1572 0A000000 		.secrel32	LASF5
 2884 1576 01       		.byte	0x1
 2885 1577 D4       		.byte	0xd4
 2886 1578 2B       		.byte	0x2b
 2887 1579 9C100000 		.long	0x109c
 2888 157d 02       		.uleb128 0x2
 2889 157e 91       		.byte	0x91
 2890 157f 00       		.sleb128 0
 2891 1580 00       		.byte	0
 2892 1581 1D       		.uleb128 0x1d
 2893 1582 44454C45 		.ascii "DELETE_FROM_TASK_QUEUE\0"
 2893      54455F46 
 2893      524F4D5F 
 2893      5441534B 
 2893      5F515545 
 2894 1599 01       		.byte	0x1
 2895 159a A3       		.byte	0xa3
 2896 159b 06       		.byte	0x6
 2897 159c 0A080000 		.long	LFB3
 2898 15a0 4B010000 		.long	LFE3-LFB3
 2899 15a4 01       		.uleb128 0x1
 2900 15a5 9C       		.byte	0x9c
 2901 15a6 BA150000 		.long	0x15ba
 2902 15aa 1A       		.uleb128 0x1a
 2903 15ab 32000000 		.secrel32	LASF4
 2904 15af 01       		.byte	0x1
 2905 15b0 A3       		.byte	0xa3
 2906 15b1 25       		.byte	0x25
 2907 15b2 BC0A0000 		.long	0xabc
 2908 15b6 02       		.uleb128 0x2
 2909 15b7 91       		.byte	0x91
GAS LISTING C:\Users\PRESID~1\AppData\Local\Temp\cc1SpG1Y.s 			page 74


 2910 15b8 00       		.sleb128 0
 2911 15b9 00       		.byte	0
 2912 15ba 1E       		.uleb128 0x1e
 2913 15bb 4144445F 		.ascii "ADD_TO_TASK_QUEUE\0"
 2913      544F5F54 
 2913      41534B5F 
 2913      51554555 
 2913      4500
 2914 15cd 01       		.byte	0x1
 2915 15ce 65       		.byte	0x65
 2916 15cf 09       		.byte	0x9
 2917 15d0 BC0A0000 		.long	0xabc
 2918 15d4 62020000 		.long	LFB2
 2919 15d8 A8050000 		.long	LFE2-LFB2
 2920 15dc 01       		.uleb128 0x1
 2921 15dd 9C       		.byte	0x9c
 2922 15de 15160000 		.long	0x1615
 2923 15e2 1A       		.uleb128 0x1a
 2924 15e3 32000000 		.secrel32	LASF4
 2925 15e7 01       		.byte	0x1
 2926 15e8 65       		.byte	0x65
 2927 15e9 23       		.byte	0x23
 2928 15ea BC0A0000 		.long	0xabc
 2929 15ee 02       		.uleb128 0x2
 2930 15ef 91       		.byte	0x91
 2931 15f0 00       		.sleb128 0
 2932 15f1 1F       		.uleb128 0x1f
 2933 15f2 40000000 		.secrel32	LASF6
 2934 15f6 01       		.byte	0x1
 2935 15f7 67       		.byte	0x67
 2936 15f8 14       		.byte	0x14
 2937 15f9 9E000000 		.long	0x9e
 2938 15fd 02       		.uleb128 0x2
 2939 15fe 91       		.byte	0x91
 2940 15ff 6F       		.sleb128 -17
 2941 1600 1B       		.uleb128 0x1b
 2942 1601 7265745F 		.ascii "ret_task\0"
 2942      7461736B 
 2942      00
 2943 160a 01       		.byte	0x1
 2944 160b 68       		.byte	0x68
 2945 160c 0C       		.byte	0xc
 2946 160d BC0A0000 		.long	0xabc
 2947 1611 02       		.uleb128 0x2
 2948 1612 91       		.byte	0x91
 2949 1613 68       		.sleb128 -24
 2950 1614 00       		.byte	0
 2951 1615 1D       		.uleb128 0x1d
 2952 1616 4F535F49 		.ascii "OS_INIT_TASK_QUEUE\0"
 2952      4E49545F 
 2952      5441534B 
 2952      5F515545 
 2952      554500
 2953 1629 01       		.byte	0x1
 2954 162a 57       		.byte	0x57
 2955 162b 06       		.byte	0x6
 2956 162c 00020000 		.long	LFB1
GAS LISTING C:\Users\PRESID~1\AppData\Local\Temp\cc1SpG1Y.s 			page 75


 2957 1630 62000000 		.long	LFE1-LFB1
 2958 1634 01       		.uleb128 0x1
 2959 1635 9C       		.byte	0x9c
 2960 1636 54160000 		.long	0x1654
 2961 163a 20       		.uleb128 0x20
 2962 163b 0F020000 		.long	LBB2
 2963 163f 50000000 		.long	LBE2-LBB2
 2964 1643 1F       		.uleb128 0x1f
 2965 1644 40000000 		.secrel32	LASF6
 2966 1648 01       		.byte	0x1
 2967 1649 5B       		.byte	0x5b
 2968 164a 17       		.byte	0x17
 2969 164b 9E000000 		.long	0x9e
 2970 164f 02       		.uleb128 0x2
 2971 1650 91       		.byte	0x91
 2972 1651 6F       		.sleb128 -17
 2973 1652 00       		.byte	0
 2974 1653 00       		.byte	0
 2975 1654 21       		.uleb128 0x21
 2976 1655 5345545F 		.ascii "SET_RUNNING_TASK\0"
 2976      52554E4E 
 2976      494E475F 
 2976      5441534B 
 2976      00
 2977 1666 01       		.byte	0x1
 2978 1667 21       		.byte	0x21
 2979 1668 06       		.byte	0x6
 2980 1669 00000000 		.long	LFB0
 2981 166d 00020000 		.long	LFE0-LFB0
 2982 1671 01       		.uleb128 0x1
 2983 1672 9C       		.byte	0x9c
 2984 1673 1A       		.uleb128 0x1a
 2985 1674 32000000 		.secrel32	LASF4
 2986 1678 01       		.byte	0x1
 2987 1679 21       		.byte	0x21
 2988 167a 1F       		.byte	0x1f
 2989 167b BC0A0000 		.long	0xabc
 2990 167f 02       		.uleb128 0x2
 2991 1680 91       		.byte	0x91
 2992 1681 00       		.sleb128 0
 2993 1682 22       		.uleb128 0x22
 2994 1683 73636865 		.ascii "scheduling_task\0"
 2994      64756C69 
 2994      6E675F74 
 2994      61736B00 
 2995 1693 01       		.byte	0x1
 2996 1694 21       		.byte	0x21
 2997 1695 33       		.byte	0x33
 2998 1696 9C100000 		.long	0x109c
 2999 169a 02       		.uleb128 0x2
 3000 169b 91       		.byte	0x91
 3001 169c 04       		.sleb128 4
 3002 169d 00       		.byte	0
 3003 169e 00       		.byte	0
 3004              		.section	.debug_abbrev,"dr"
 3005              	Ldebug_abbrev0:
 3006 0000 01       		.uleb128 0x1
GAS LISTING C:\Users\PRESID~1\AppData\Local\Temp\cc1SpG1Y.s 			page 76


 3007 0001 11       		.uleb128 0x11
 3008 0002 01       		.byte	0x1
 3009 0003 25       		.uleb128 0x25
 3010 0004 08       		.uleb128 0x8
 3011 0005 13       		.uleb128 0x13
 3012 0006 0B       		.uleb128 0xb
 3013 0007 03       		.uleb128 0x3
 3014 0008 08       		.uleb128 0x8
 3015 0009 1B       		.uleb128 0x1b
 3016 000a 08       		.uleb128 0x8
 3017 000b 11       		.uleb128 0x11
 3018 000c 01       		.uleb128 0x1
 3019 000d 12       		.uleb128 0x12
 3020 000e 06       		.uleb128 0x6
 3021 000f 10       		.uleb128 0x10
 3022 0010 17       		.uleb128 0x17
 3023 0011 9942     		.uleb128 0x2119
 3024 0013 17       		.uleb128 0x17
 3025 0014 00       		.byte	0
 3026 0015 00       		.byte	0
 3027 0016 02       		.uleb128 0x2
 3028 0017 16       		.uleb128 0x16
 3029 0018 00       		.byte	0
 3030 0019 03       		.uleb128 0x3
 3031 001a 08       		.uleb128 0x8
 3032 001b 3A       		.uleb128 0x3a
 3033 001c 0B       		.uleb128 0xb
 3034 001d 3B       		.uleb128 0x3b
 3035 001e 0B       		.uleb128 0xb
 3036 001f 39       		.uleb128 0x39
 3037 0020 0B       		.uleb128 0xb
 3038 0021 49       		.uleb128 0x49
 3039 0022 13       		.uleb128 0x13
 3040 0023 00       		.byte	0
 3041 0024 00       		.byte	0
 3042 0025 03       		.uleb128 0x3
 3043 0026 24       		.uleb128 0x24
 3044 0027 00       		.byte	0
 3045 0028 0B       		.uleb128 0xb
 3046 0029 0B       		.uleb128 0xb
 3047 002a 3E       		.uleb128 0x3e
 3048 002b 0B       		.uleb128 0xb
 3049 002c 03       		.uleb128 0x3
 3050 002d 08       		.uleb128 0x8
 3051 002e 00       		.byte	0
 3052 002f 00       		.byte	0
 3053 0030 04       		.uleb128 0x4
 3054 0031 35       		.uleb128 0x35
 3055 0032 00       		.byte	0
 3056 0033 49       		.uleb128 0x49
 3057 0034 13       		.uleb128 0x13
 3058 0035 00       		.byte	0
 3059 0036 00       		.byte	0
 3060 0037 05       		.uleb128 0x5
 3061 0038 04       		.uleb128 0x4
 3062 0039 01       		.byte	0x1
 3063 003a 03       		.uleb128 0x3
GAS LISTING C:\Users\PRESID~1\AppData\Local\Temp\cc1SpG1Y.s 			page 77


 3064 003b 08       		.uleb128 0x8
 3065 003c 3E       		.uleb128 0x3e
 3066 003d 0B       		.uleb128 0xb
 3067 003e 0B       		.uleb128 0xb
 3068 003f 0B       		.uleb128 0xb
 3069 0040 49       		.uleb128 0x49
 3070 0041 13       		.uleb128 0x13
 3071 0042 3A       		.uleb128 0x3a
 3072 0043 0B       		.uleb128 0xb
 3073 0044 3B       		.uleb128 0x3b
 3074 0045 0B       		.uleb128 0xb
 3075 0046 39       		.uleb128 0x39
 3076 0047 0B       		.uleb128 0xb
 3077 0048 01       		.uleb128 0x1
 3078 0049 13       		.uleb128 0x13
 3079 004a 00       		.byte	0
 3080 004b 00       		.byte	0
 3081 004c 06       		.uleb128 0x6
 3082 004d 28       		.uleb128 0x28
 3083 004e 00       		.byte	0
 3084 004f 03       		.uleb128 0x3
 3085 0050 08       		.uleb128 0x8
 3086 0051 1C       		.uleb128 0x1c
 3087 0052 0B       		.uleb128 0xb
 3088 0053 00       		.byte	0
 3089 0054 00       		.byte	0
 3090 0055 07       		.uleb128 0x7
 3091 0056 13       		.uleb128 0x13
 3092 0057 01       		.byte	0x1
 3093 0058 03       		.uleb128 0x3
 3094 0059 08       		.uleb128 0x8
 3095 005a 0B       		.uleb128 0xb
 3096 005b 0B       		.uleb128 0xb
 3097 005c 3A       		.uleb128 0x3a
 3098 005d 0B       		.uleb128 0xb
 3099 005e 3B       		.uleb128 0x3b
 3100 005f 0B       		.uleb128 0xb
 3101 0060 39       		.uleb128 0x39
 3102 0061 0B       		.uleb128 0xb
 3103 0062 01       		.uleb128 0x1
 3104 0063 13       		.uleb128 0x13
 3105 0064 00       		.byte	0
 3106 0065 00       		.byte	0
 3107 0066 08       		.uleb128 0x8
 3108 0067 0D       		.uleb128 0xd
 3109 0068 00       		.byte	0
 3110 0069 03       		.uleb128 0x3
 3111 006a 08       		.uleb128 0x8
 3112 006b 3A       		.uleb128 0x3a
 3113 006c 0B       		.uleb128 0xb
 3114 006d 3B       		.uleb128 0x3b
 3115 006e 0B       		.uleb128 0xb
 3116 006f 39       		.uleb128 0x39
 3117 0070 0B       		.uleb128 0xb
 3118 0071 49       		.uleb128 0x49
 3119 0072 13       		.uleb128 0x13
 3120 0073 38       		.uleb128 0x38
GAS LISTING C:\Users\PRESID~1\AppData\Local\Temp\cc1SpG1Y.s 			page 78


 3121 0074 0B       		.uleb128 0xb
 3122 0075 00       		.byte	0
 3123 0076 00       		.byte	0
 3124 0077 09       		.uleb128 0x9
 3125 0078 01       		.uleb128 0x1
 3126 0079 01       		.byte	0x1
 3127 007a 49       		.uleb128 0x49
 3128 007b 13       		.uleb128 0x13
 3129 007c 01       		.uleb128 0x1
 3130 007d 13       		.uleb128 0x13
 3131 007e 00       		.byte	0
 3132 007f 00       		.byte	0
 3133 0080 0A       		.uleb128 0xa
 3134 0081 21       		.uleb128 0x21
 3135 0082 00       		.byte	0
 3136 0083 49       		.uleb128 0x49
 3137 0084 13       		.uleb128 0x13
 3138 0085 2F       		.uleb128 0x2f
 3139 0086 0B       		.uleb128 0xb
 3140 0087 00       		.byte	0
 3141 0088 00       		.byte	0
 3142 0089 0B       		.uleb128 0xb
 3143 008a 0F       		.uleb128 0xf
 3144 008b 00       		.byte	0
 3145 008c 0B       		.uleb128 0xb
 3146 008d 0B       		.uleb128 0xb
 3147 008e 49       		.uleb128 0x49
 3148 008f 13       		.uleb128 0x13
 3149 0090 00       		.byte	0
 3150 0091 00       		.byte	0
 3151 0092 0C       		.uleb128 0xc
 3152 0093 15       		.uleb128 0x15
 3153 0094 01       		.byte	0x1
 3154 0095 27       		.uleb128 0x27
 3155 0096 19       		.uleb128 0x19
 3156 0097 01       		.uleb128 0x1
 3157 0098 13       		.uleb128 0x13
 3158 0099 00       		.byte	0
 3159 009a 00       		.byte	0
 3160 009b 0D       		.uleb128 0xd
 3161 009c 05       		.uleb128 0x5
 3162 009d 00       		.byte	0
 3163 009e 49       		.uleb128 0x49
 3164 009f 13       		.uleb128 0x13
 3165 00a0 00       		.byte	0
 3166 00a1 00       		.byte	0
 3167 00a2 0E       		.uleb128 0xe
 3168 00a3 0F       		.uleb128 0xf
 3169 00a4 00       		.byte	0
 3170 00a5 0B       		.uleb128 0xb
 3171 00a6 0B       		.uleb128 0xb
 3172 00a7 00       		.byte	0
 3173 00a8 00       		.byte	0
 3174 00a9 0F       		.uleb128 0xf
 3175 00aa 15       		.uleb128 0x15
 3176 00ab 01       		.byte	0x1
 3177 00ac 27       		.uleb128 0x27
GAS LISTING C:\Users\PRESID~1\AppData\Local\Temp\cc1SpG1Y.s 			page 79


 3178 00ad 19       		.uleb128 0x19
 3179 00ae 49       		.uleb128 0x49
 3180 00af 13       		.uleb128 0x13
 3181 00b0 01       		.uleb128 0x1
 3182 00b1 13       		.uleb128 0x13
 3183 00b2 00       		.byte	0
 3184 00b3 00       		.byte	0
 3185 00b4 10       		.uleb128 0x10
 3186 00b5 0D       		.uleb128 0xd
 3187 00b6 00       		.byte	0
 3188 00b7 03       		.uleb128 0x3
 3189 00b8 0E       		.uleb128 0xe
 3190 00b9 3A       		.uleb128 0x3a
 3191 00ba 0B       		.uleb128 0xb
 3192 00bb 3B       		.uleb128 0x3b
 3193 00bc 0B       		.uleb128 0xb
 3194 00bd 39       		.uleb128 0x39
 3195 00be 0B       		.uleb128 0xb
 3196 00bf 49       		.uleb128 0x49
 3197 00c0 13       		.uleb128 0x13
 3198 00c1 38       		.uleb128 0x38
 3199 00c2 0B       		.uleb128 0xb
 3200 00c3 00       		.byte	0
 3201 00c4 00       		.byte	0
 3202 00c5 11       		.uleb128 0x11
 3203 00c6 0D       		.uleb128 0xd
 3204 00c7 00       		.byte	0
 3205 00c8 03       		.uleb128 0x3
 3206 00c9 08       		.uleb128 0x8
 3207 00ca 3A       		.uleb128 0x3a
 3208 00cb 0B       		.uleb128 0xb
 3209 00cc 3B       		.uleb128 0x3b
 3210 00cd 0B       		.uleb128 0xb
 3211 00ce 39       		.uleb128 0x39
 3212 00cf 0B       		.uleb128 0xb
 3213 00d0 49       		.uleb128 0x49
 3214 00d1 13       		.uleb128 0x13
 3215 00d2 0B       		.uleb128 0xb
 3216 00d3 0B       		.uleb128 0xb
 3217 00d4 0D       		.uleb128 0xd
 3218 00d5 0B       		.uleb128 0xb
 3219 00d6 0C       		.uleb128 0xc
 3220 00d7 0B       		.uleb128 0xb
 3221 00d8 38       		.uleb128 0x38
 3222 00d9 0B       		.uleb128 0xb
 3223 00da 00       		.byte	0
 3224 00db 00       		.byte	0
 3225 00dc 12       		.uleb128 0x12
 3226 00dd 0D       		.uleb128 0xd
 3227 00de 00       		.byte	0
 3228 00df 03       		.uleb128 0x3
 3229 00e0 0E       		.uleb128 0xe
 3230 00e1 3A       		.uleb128 0x3a
 3231 00e2 0B       		.uleb128 0xb
 3232 00e3 3B       		.uleb128 0x3b
 3233 00e4 0B       		.uleb128 0xb
 3234 00e5 39       		.uleb128 0x39
GAS LISTING C:\Users\PRESID~1\AppData\Local\Temp\cc1SpG1Y.s 			page 80


 3235 00e6 0B       		.uleb128 0xb
 3236 00e7 49       		.uleb128 0x49
 3237 00e8 13       		.uleb128 0x13
 3238 00e9 0B       		.uleb128 0xb
 3239 00ea 0B       		.uleb128 0xb
 3240 00eb 0D       		.uleb128 0xd
 3241 00ec 0B       		.uleb128 0xb
 3242 00ed 0C       		.uleb128 0xc
 3243 00ee 0B       		.uleb128 0xb
 3244 00ef 38       		.uleb128 0x38
 3245 00f0 0B       		.uleb128 0xb
 3246 00f1 00       		.byte	0
 3247 00f2 00       		.byte	0
 3248 00f3 13       		.uleb128 0x13
 3249 00f4 34       		.uleb128 0x34
 3250 00f5 00       		.byte	0
 3251 00f6 03       		.uleb128 0x3
 3252 00f7 08       		.uleb128 0x8
 3253 00f8 3A       		.uleb128 0x3a
 3254 00f9 0B       		.uleb128 0xb
 3255 00fa 3B       		.uleb128 0x3b
 3256 00fb 0B       		.uleb128 0xb
 3257 00fc 39       		.uleb128 0x39
 3258 00fd 0B       		.uleb128 0xb
 3259 00fe 49       		.uleb128 0x49
 3260 00ff 13       		.uleb128 0x13
 3261 0100 3F       		.uleb128 0x3f
 3262 0101 19       		.uleb128 0x19
 3263 0102 3C       		.uleb128 0x3c
 3264 0103 19       		.uleb128 0x19
 3265 0104 00       		.byte	0
 3266 0105 00       		.byte	0
 3267 0106 14       		.uleb128 0x14
 3268 0107 21       		.uleb128 0x21
 3269 0108 00       		.byte	0
 3270 0109 49       		.uleb128 0x49
 3271 010a 13       		.uleb128 0x13
 3272 010b 2F       		.uleb128 0x2f
 3273 010c 05       		.uleb128 0x5
 3274 010d 00       		.byte	0
 3275 010e 00       		.byte	0
 3276 010f 15       		.uleb128 0x15
 3277 0110 2E       		.uleb128 0x2e
 3278 0111 01       		.byte	0x1
 3279 0112 3F       		.uleb128 0x3f
 3280 0113 19       		.uleb128 0x19
 3281 0114 03       		.uleb128 0x3
 3282 0115 08       		.uleb128 0x8
 3283 0116 3A       		.uleb128 0x3a
 3284 0117 0B       		.uleb128 0xb
 3285 0118 3B       		.uleb128 0x3b
 3286 0119 05       		.uleb128 0x5
 3287 011a 39       		.uleb128 0x39
 3288 011b 0B       		.uleb128 0xb
 3289 011c 27       		.uleb128 0x27
 3290 011d 19       		.uleb128 0x19
 3291 011e 11       		.uleb128 0x11
GAS LISTING C:\Users\PRESID~1\AppData\Local\Temp\cc1SpG1Y.s 			page 81


 3292 011f 01       		.uleb128 0x1
 3293 0120 12       		.uleb128 0x12
 3294 0121 06       		.uleb128 0x6
 3295 0122 40       		.uleb128 0x40
 3296 0123 18       		.uleb128 0x18
 3297 0124 9642     		.uleb128 0x2116
 3298 0126 19       		.uleb128 0x19
 3299 0127 01       		.uleb128 0x1
 3300 0128 13       		.uleb128 0x13
 3301 0129 00       		.byte	0
 3302 012a 00       		.byte	0
 3303 012b 16       		.uleb128 0x16
 3304 012c 05       		.uleb128 0x5
 3305 012d 00       		.byte	0
 3306 012e 03       		.uleb128 0x3
 3307 012f 0E       		.uleb128 0xe
 3308 0130 3A       		.uleb128 0x3a
 3309 0131 0B       		.uleb128 0xb
 3310 0132 3B       		.uleb128 0x3b
 3311 0133 05       		.uleb128 0x5
 3312 0134 39       		.uleb128 0x39
 3313 0135 0B       		.uleb128 0xb
 3314 0136 49       		.uleb128 0x49
 3315 0137 13       		.uleb128 0x13
 3316 0138 02       		.uleb128 0x2
 3317 0139 18       		.uleb128 0x18
 3318 013a 00       		.byte	0
 3319 013b 00       		.byte	0
 3320 013c 17       		.uleb128 0x17
 3321 013d 05       		.uleb128 0x5
 3322 013e 00       		.byte	0
 3323 013f 03       		.uleb128 0x3
 3324 0140 08       		.uleb128 0x8
 3325 0141 3A       		.uleb128 0x3a
 3326 0142 0B       		.uleb128 0xb
 3327 0143 3B       		.uleb128 0x3b
 3328 0144 05       		.uleb128 0x5
 3329 0145 39       		.uleb128 0x39
 3330 0146 0B       		.uleb128 0xb
 3331 0147 49       		.uleb128 0x49
 3332 0148 13       		.uleb128 0x13
 3333 0149 02       		.uleb128 0x2
 3334 014a 18       		.uleb128 0x18
 3335 014b 00       		.byte	0
 3336 014c 00       		.byte	0
 3337 014d 18       		.uleb128 0x18
 3338 014e 2E       		.uleb128 0x2e
 3339 014f 00       		.byte	0
 3340 0150 3F       		.uleb128 0x3f
 3341 0151 19       		.uleb128 0x19
 3342 0152 03       		.uleb128 0x3
 3343 0153 08       		.uleb128 0x8
 3344 0154 3A       		.uleb128 0x3a
 3345 0155 0B       		.uleb128 0xb
 3346 0156 3B       		.uleb128 0x3b
 3347 0157 05       		.uleb128 0x5
 3348 0158 39       		.uleb128 0x39
GAS LISTING C:\Users\PRESID~1\AppData\Local\Temp\cc1SpG1Y.s 			page 82


 3349 0159 0B       		.uleb128 0xb
 3350 015a 27       		.uleb128 0x27
 3351 015b 19       		.uleb128 0x19
 3352 015c 49       		.uleb128 0x49
 3353 015d 13       		.uleb128 0x13
 3354 015e 11       		.uleb128 0x11
 3355 015f 01       		.uleb128 0x1
 3356 0160 12       		.uleb128 0x12
 3357 0161 06       		.uleb128 0x6
 3358 0162 40       		.uleb128 0x40
 3359 0163 18       		.uleb128 0x18
 3360 0164 9742     		.uleb128 0x2117
 3361 0166 19       		.uleb128 0x19
 3362 0167 00       		.byte	0
 3363 0168 00       		.byte	0
 3364 0169 19       		.uleb128 0x19
 3365 016a 2E       		.uleb128 0x2e
 3366 016b 01       		.byte	0x1
 3367 016c 3F       		.uleb128 0x3f
 3368 016d 19       		.uleb128 0x19
 3369 016e 03       		.uleb128 0x3
 3370 016f 08       		.uleb128 0x8
 3371 0170 3A       		.uleb128 0x3a
 3372 0171 0B       		.uleb128 0xb
 3373 0172 3B       		.uleb128 0x3b
 3374 0173 0B       		.uleb128 0xb
 3375 0174 39       		.uleb128 0x39
 3376 0175 0B       		.uleb128 0xb
 3377 0176 27       		.uleb128 0x27
 3378 0177 19       		.uleb128 0x19
 3379 0178 11       		.uleb128 0x11
 3380 0179 01       		.uleb128 0x1
 3381 017a 12       		.uleb128 0x12
 3382 017b 06       		.uleb128 0x6
 3383 017c 40       		.uleb128 0x40
 3384 017d 18       		.uleb128 0x18
 3385 017e 9742     		.uleb128 0x2117
 3386 0180 19       		.uleb128 0x19
 3387 0181 01       		.uleb128 0x1
 3388 0182 13       		.uleb128 0x13
 3389 0183 00       		.byte	0
 3390 0184 00       		.byte	0
 3391 0185 1A       		.uleb128 0x1a
 3392 0186 05       		.uleb128 0x5
 3393 0187 00       		.byte	0
 3394 0188 03       		.uleb128 0x3
 3395 0189 0E       		.uleb128 0xe
 3396 018a 3A       		.uleb128 0x3a
 3397 018b 0B       		.uleb128 0xb
 3398 018c 3B       		.uleb128 0x3b
 3399 018d 0B       		.uleb128 0xb
 3400 018e 39       		.uleb128 0x39
 3401 018f 0B       		.uleb128 0xb
 3402 0190 49       		.uleb128 0x49
 3403 0191 13       		.uleb128 0x13
 3404 0192 02       		.uleb128 0x2
 3405 0193 18       		.uleb128 0x18
GAS LISTING C:\Users\PRESID~1\AppData\Local\Temp\cc1SpG1Y.s 			page 83


 3406 0194 00       		.byte	0
 3407 0195 00       		.byte	0
 3408 0196 1B       		.uleb128 0x1b
 3409 0197 34       		.uleb128 0x34
 3410 0198 00       		.byte	0
 3411 0199 03       		.uleb128 0x3
 3412 019a 08       		.uleb128 0x8
 3413 019b 3A       		.uleb128 0x3a
 3414 019c 0B       		.uleb128 0xb
 3415 019d 3B       		.uleb128 0x3b
 3416 019e 0B       		.uleb128 0xb
 3417 019f 39       		.uleb128 0x39
 3418 01a0 0B       		.uleb128 0xb
 3419 01a1 49       		.uleb128 0x49
 3420 01a2 13       		.uleb128 0x13
 3421 01a3 02       		.uleb128 0x2
 3422 01a4 18       		.uleb128 0x18
 3423 01a5 00       		.byte	0
 3424 01a6 00       		.byte	0
 3425 01a7 1C       		.uleb128 0x1c
 3426 01a8 2E       		.uleb128 0x2e
 3427 01a9 01       		.byte	0x1
 3428 01aa 3F       		.uleb128 0x3f
 3429 01ab 19       		.uleb128 0x19
 3430 01ac 03       		.uleb128 0x3
 3431 01ad 08       		.uleb128 0x8
 3432 01ae 3A       		.uleb128 0x3a
 3433 01af 0B       		.uleb128 0xb
 3434 01b0 3B       		.uleb128 0x3b
 3435 01b1 0B       		.uleb128 0xb
 3436 01b2 39       		.uleb128 0x39
 3437 01b3 0B       		.uleb128 0xb
 3438 01b4 27       		.uleb128 0x27
 3439 01b5 19       		.uleb128 0x19
 3440 01b6 49       		.uleb128 0x49
 3441 01b7 13       		.uleb128 0x13
 3442 01b8 11       		.uleb128 0x11
 3443 01b9 01       		.uleb128 0x1
 3444 01ba 12       		.uleb128 0x12
 3445 01bb 06       		.uleb128 0x6
 3446 01bc 40       		.uleb128 0x40
 3447 01bd 18       		.uleb128 0x18
 3448 01be 9742     		.uleb128 0x2117
 3449 01c0 19       		.uleb128 0x19
 3450 01c1 01       		.uleb128 0x1
 3451 01c2 13       		.uleb128 0x13
 3452 01c3 00       		.byte	0
 3453 01c4 00       		.byte	0
 3454 01c5 1D       		.uleb128 0x1d
 3455 01c6 2E       		.uleb128 0x2e
 3456 01c7 01       		.byte	0x1
 3457 01c8 3F       		.uleb128 0x3f
 3458 01c9 19       		.uleb128 0x19
 3459 01ca 03       		.uleb128 0x3
 3460 01cb 08       		.uleb128 0x8
 3461 01cc 3A       		.uleb128 0x3a
 3462 01cd 0B       		.uleb128 0xb
GAS LISTING C:\Users\PRESID~1\AppData\Local\Temp\cc1SpG1Y.s 			page 84


 3463 01ce 3B       		.uleb128 0x3b
 3464 01cf 0B       		.uleb128 0xb
 3465 01d0 39       		.uleb128 0x39
 3466 01d1 0B       		.uleb128 0xb
 3467 01d2 27       		.uleb128 0x27
 3468 01d3 19       		.uleb128 0x19
 3469 01d4 11       		.uleb128 0x11
 3470 01d5 01       		.uleb128 0x1
 3471 01d6 12       		.uleb128 0x12
 3472 01d7 06       		.uleb128 0x6
 3473 01d8 40       		.uleb128 0x40
 3474 01d9 18       		.uleb128 0x18
 3475 01da 9642     		.uleb128 0x2116
 3476 01dc 19       		.uleb128 0x19
 3477 01dd 01       		.uleb128 0x1
 3478 01de 13       		.uleb128 0x13
 3479 01df 00       		.byte	0
 3480 01e0 00       		.byte	0
 3481 01e1 1E       		.uleb128 0x1e
 3482 01e2 2E       		.uleb128 0x2e
 3483 01e3 01       		.byte	0x1
 3484 01e4 3F       		.uleb128 0x3f
 3485 01e5 19       		.uleb128 0x19
 3486 01e6 03       		.uleb128 0x3
 3487 01e7 08       		.uleb128 0x8
 3488 01e8 3A       		.uleb128 0x3a
 3489 01e9 0B       		.uleb128 0xb
 3490 01ea 3B       		.uleb128 0x3b
 3491 01eb 0B       		.uleb128 0xb
 3492 01ec 39       		.uleb128 0x39
 3493 01ed 0B       		.uleb128 0xb
 3494 01ee 27       		.uleb128 0x27
 3495 01ef 19       		.uleb128 0x19
 3496 01f0 49       		.uleb128 0x49
 3497 01f1 13       		.uleb128 0x13
 3498 01f2 11       		.uleb128 0x11
 3499 01f3 01       		.uleb128 0x1
 3500 01f4 12       		.uleb128 0x12
 3501 01f5 06       		.uleb128 0x6
 3502 01f6 40       		.uleb128 0x40
 3503 01f7 18       		.uleb128 0x18
 3504 01f8 9642     		.uleb128 0x2116
 3505 01fa 19       		.uleb128 0x19
 3506 01fb 01       		.uleb128 0x1
 3507 01fc 13       		.uleb128 0x13
 3508 01fd 00       		.byte	0
 3509 01fe 00       		.byte	0
 3510 01ff 1F       		.uleb128 0x1f
 3511 0200 34       		.uleb128 0x34
 3512 0201 00       		.byte	0
 3513 0202 03       		.uleb128 0x3
 3514 0203 0E       		.uleb128 0xe
 3515 0204 3A       		.uleb128 0x3a
 3516 0205 0B       		.uleb128 0xb
 3517 0206 3B       		.uleb128 0x3b
 3518 0207 0B       		.uleb128 0xb
 3519 0208 39       		.uleb128 0x39
GAS LISTING C:\Users\PRESID~1\AppData\Local\Temp\cc1SpG1Y.s 			page 85


 3520 0209 0B       		.uleb128 0xb
 3521 020a 49       		.uleb128 0x49
 3522 020b 13       		.uleb128 0x13
 3523 020c 02       		.uleb128 0x2
 3524 020d 18       		.uleb128 0x18
 3525 020e 00       		.byte	0
 3526 020f 00       		.byte	0
 3527 0210 20       		.uleb128 0x20
 3528 0211 0B       		.uleb128 0xb
 3529 0212 01       		.byte	0x1
 3530 0213 11       		.uleb128 0x11
 3531 0214 01       		.uleb128 0x1
 3532 0215 12       		.uleb128 0x12
 3533 0216 06       		.uleb128 0x6
 3534 0217 00       		.byte	0
 3535 0218 00       		.byte	0
 3536 0219 21       		.uleb128 0x21
 3537 021a 2E       		.uleb128 0x2e
 3538 021b 01       		.byte	0x1
 3539 021c 3F       		.uleb128 0x3f
 3540 021d 19       		.uleb128 0x19
 3541 021e 03       		.uleb128 0x3
 3542 021f 08       		.uleb128 0x8
 3543 0220 3A       		.uleb128 0x3a
 3544 0221 0B       		.uleb128 0xb
 3545 0222 3B       		.uleb128 0x3b
 3546 0223 0B       		.uleb128 0xb
 3547 0224 39       		.uleb128 0x39
 3548 0225 0B       		.uleb128 0xb
 3549 0226 27       		.uleb128 0x27
 3550 0227 19       		.uleb128 0x19
 3551 0228 11       		.uleb128 0x11
 3552 0229 01       		.uleb128 0x1
 3553 022a 12       		.uleb128 0x12
 3554 022b 06       		.uleb128 0x6
 3555 022c 40       		.uleb128 0x40
 3556 022d 18       		.uleb128 0x18
 3557 022e 9642     		.uleb128 0x2116
 3558 0230 19       		.uleb128 0x19
 3559 0231 00       		.byte	0
 3560 0232 00       		.byte	0
 3561 0233 22       		.uleb128 0x22
 3562 0234 05       		.uleb128 0x5
 3563 0235 00       		.byte	0
 3564 0236 03       		.uleb128 0x3
 3565 0237 08       		.uleb128 0x8
 3566 0238 3A       		.uleb128 0x3a
 3567 0239 0B       		.uleb128 0xb
 3568 023a 3B       		.uleb128 0x3b
 3569 023b 0B       		.uleb128 0xb
 3570 023c 39       		.uleb128 0x39
 3571 023d 0B       		.uleb128 0xb
 3572 023e 49       		.uleb128 0x49
 3573 023f 13       		.uleb128 0x13
 3574 0240 02       		.uleb128 0x2
 3575 0241 18       		.uleb128 0x18
 3576 0242 00       		.byte	0
GAS LISTING C:\Users\PRESID~1\AppData\Local\Temp\cc1SpG1Y.s 			page 86


 3577 0243 00       		.byte	0
 3578 0244 00       		.byte	0
 3579              		.section	.debug_aranges,"dr"
 3580 0000 1C000000 		.long	0x1c
 3581 0004 0200     		.word	0x2
 3582 0006 00000000 		.secrel32	Ldebug_info0
 3583 000a 04       		.byte	0x4
 3584 000b 00       		.byte	0
 3585 000c 0000     		.word	0
 3586 000e 0000     		.word	0
 3587 0010 00000000 		.long	Ltext0
 3588 0014 120D0000 		.long	Letext0-Ltext0
 3589 0018 00000000 		.long	0
 3590 001c 00000000 		.long	0
 3591              		.section	.debug_macro,"dr"
 3592              	Ldebug_macro0:
 3593 0000 0400     		.word	0x4
 3594 0002 02       		.byte	0x2
 3595 0003 00000000 		.secrel32	Ldebug_line0
 3596 0007 01       		.byte	0x1
 3597 0008 00       		.uleb128 0
 3598 0009 5F5F5354 		.ascii "__STDC__ 1\0"
 3598      44435F5F 
 3598      203100
 3599 0014 01       		.byte	0x1
 3600 0015 00       		.uleb128 0
 3601 0016 5F5F5354 		.ascii "__STDC_HOSTED__ 1\0"
 3601      44435F48 
 3601      4F535445 
 3601      445F5F20 
 3601      3100
 3602 0028 01       		.byte	0x1
 3603 0029 00       		.uleb128 0
 3604 002a 5F5F474E 		.ascii "__GNUC__ 8\0"
 3604      55435F5F 
 3604      203800
 3605 0035 01       		.byte	0x1
 3606 0036 00       		.uleb128 0
 3607 0037 5F5F474E 		.ascii "__GNUC_MINOR__ 2\0"
 3607      55435F4D 
 3607      494E4F52 
 3607      5F5F2032 
 3607      00
 3608 0048 01       		.byte	0x1
 3609 0049 00       		.uleb128 0
 3610 004a 5F5F474E 		.ascii "__GNUC_PATCHLEVEL__ 0\0"
 3610      55435F50 
 3610      41544348 
 3610      4C455645 
 3610      4C5F5F20 
 3611 0060 01       		.byte	0x1
 3612 0061 00       		.uleb128 0
 3613 0062 5F5F5645 		.ascii "__VERSION__ \"8.2.0\"\0"
 3613      5253494F 
 3613      4E5F5F20 
 3613      22382E32 
 3613      2E302200 
GAS LISTING C:\Users\PRESID~1\AppData\Local\Temp\cc1SpG1Y.s 			page 87


 3614 0076 01       		.byte	0x1
 3615 0077 00       		.uleb128 0
 3616 0078 5F5F4154 		.ascii "__ATOMIC_RELAXED 0\0"
 3616      4F4D4943 
 3616      5F52454C 
 3616      41584544 
 3616      203000
 3617 008b 01       		.byte	0x1
 3618 008c 00       		.uleb128 0
 3619 008d 5F5F4154 		.ascii "__ATOMIC_SEQ_CST 5\0"
 3619      4F4D4943 
 3619      5F534551 
 3619      5F435354 
 3619      203500
 3620 00a0 01       		.byte	0x1
 3621 00a1 00       		.uleb128 0
 3622 00a2 5F5F4154 		.ascii "__ATOMIC_ACQUIRE 2\0"
 3622      4F4D4943 
 3622      5F414351 
 3622      55495245 
 3622      203200
 3623 00b5 01       		.byte	0x1
 3624 00b6 00       		.uleb128 0
 3625 00b7 5F5F4154 		.ascii "__ATOMIC_RELEASE 3\0"
 3625      4F4D4943 
 3625      5F52454C 
 3625      45415345 
 3625      203300
 3626 00ca 01       		.byte	0x1
 3627 00cb 00       		.uleb128 0
 3628 00cc 5F5F4154 		.ascii "__ATOMIC_ACQ_REL 4\0"
 3628      4F4D4943 
 3628      5F414351 
 3628      5F52454C 
 3628      203400
 3629 00df 01       		.byte	0x1
 3630 00e0 00       		.uleb128 0
 3631 00e1 5F5F4154 		.ascii "__ATOMIC_CONSUME 1\0"
 3631      4F4D4943 
 3631      5F434F4E 
 3631      53554D45 
 3631      203100
 3632 00f4 01       		.byte	0x1
 3633 00f5 00       		.uleb128 0
 3634 00f6 5F5F4649 		.ascii "__FINITE_MATH_ONLY__ 0\0"
 3634      4E495445 
 3634      5F4D4154 
 3634      485F4F4E 
 3634      4C595F5F 
 3635 010d 01       		.byte	0x1
 3636 010e 00       		.uleb128 0
 3637 010f 5F5F5349 		.ascii "__SIZEOF_INT__ 4\0"
 3637      5A454F46 
 3637      5F494E54 
 3637      5F5F2034 
 3637      00
 3638 0120 01       		.byte	0x1
GAS LISTING C:\Users\PRESID~1\AppData\Local\Temp\cc1SpG1Y.s 			page 88


 3639 0121 00       		.uleb128 0
 3640 0122 5F5F5349 		.ascii "__SIZEOF_LONG__ 4\0"
 3640      5A454F46 
 3640      5F4C4F4E 
 3640      475F5F20 
 3640      3400
 3641 0134 01       		.byte	0x1
 3642 0135 00       		.uleb128 0
 3643 0136 5F5F5349 		.ascii "__SIZEOF_LONG_LONG__ 8\0"
 3643      5A454F46 
 3643      5F4C4F4E 
 3643      475F4C4F 
 3643      4E475F5F 
 3644 014d 01       		.byte	0x1
 3645 014e 00       		.uleb128 0
 3646 014f 5F5F5349 		.ascii "__SIZEOF_SHORT__ 2\0"
 3646      5A454F46 
 3646      5F53484F 
 3646      52545F5F 
 3646      203200
 3647 0162 01       		.byte	0x1
 3648 0163 00       		.uleb128 0
 3649 0164 5F5F5349 		.ascii "__SIZEOF_FLOAT__ 4\0"
 3649      5A454F46 
 3649      5F464C4F 
 3649      41545F5F 
 3649      203400
 3650 0177 01       		.byte	0x1
 3651 0178 00       		.uleb128 0
 3652 0179 5F5F5349 		.ascii "__SIZEOF_DOUBLE__ 8\0"
 3652      5A454F46 
 3652      5F444F55 
 3652      424C455F 
 3652      5F203800 
 3653 018d 01       		.byte	0x1
 3654 018e 00       		.uleb128 0
 3655 018f 5F5F5349 		.ascii "__SIZEOF_LONG_DOUBLE__ 12\0"
 3655      5A454F46 
 3655      5F4C4F4E 
 3655      475F444F 
 3655      55424C45 
 3656 01a9 01       		.byte	0x1
 3657 01aa 00       		.uleb128 0
 3658 01ab 5F5F5349 		.ascii "__SIZEOF_SIZE_T__ 4\0"
 3658      5A454F46 
 3658      5F53495A 
 3658      455F545F 
 3658      5F203400 
 3659 01bf 01       		.byte	0x1
 3660 01c0 00       		.uleb128 0
 3661 01c1 5F5F4348 		.ascii "__CHAR_BIT__ 8\0"
 3661      41525F42 
 3661      49545F5F 
 3661      203800
 3662 01d0 01       		.byte	0x1
 3663 01d1 00       		.uleb128 0
 3664 01d2 5F5F4249 		.ascii "__BIGGEST_ALIGNMENT__ 16\0"
GAS LISTING C:\Users\PRESID~1\AppData\Local\Temp\cc1SpG1Y.s 			page 89


 3664      47474553 
 3664      545F414C 
 3664      49474E4D 
 3664      454E545F 
 3665 01eb 01       		.byte	0x1
 3666 01ec 00       		.uleb128 0
 3667 01ed 5F5F4F52 		.ascii "__ORDER_LITTLE_ENDIAN__ 1234\0"
 3667      4445525F 
 3667      4C495454 
 3667      4C455F45 
 3667      4E444941 
 3668 020a 01       		.byte	0x1
 3669 020b 00       		.uleb128 0
 3670 020c 5F5F4F52 		.ascii "__ORDER_BIG_ENDIAN__ 4321\0"
 3670      4445525F 
 3670      4249475F 
 3670      454E4449 
 3670      414E5F5F 
 3671 0226 01       		.byte	0x1
 3672 0227 00       		.uleb128 0
 3673 0228 5F5F4F52 		.ascii "__ORDER_PDP_ENDIAN__ 3412\0"
 3673      4445525F 
 3673      5044505F 
 3673      454E4449 
 3673      414E5F5F 
 3674 0242 01       		.byte	0x1
 3675 0243 00       		.uleb128 0
 3676 0244 5F5F4259 		.ascii "__BYTE_ORDER__ __ORDER_LITTLE_ENDIAN__\0"
 3676      54455F4F 
 3676      52444552 
 3676      5F5F205F 
 3676      5F4F5244 
 3677 026b 01       		.byte	0x1
 3678 026c 00       		.uleb128 0
 3679 026d 5F5F464C 		.ascii "__FLOAT_WORD_ORDER__ __ORDER_LITTLE_ENDIAN__\0"
 3679      4F41545F 
 3679      574F5244 
 3679      5F4F5244 
 3679      45525F5F 
 3680 029a 01       		.byte	0x1
 3681 029b 00       		.uleb128 0
 3682 029c 5F5F5349 		.ascii "__SIZEOF_POINTER__ 4\0"
 3682      5A454F46 
 3682      5F504F49 
 3682      4E544552 
 3682      5F5F2034 
 3683 02b1 01       		.byte	0x1
 3684 02b2 00       		.uleb128 0
 3685 02b3 5F5F5349 		.ascii "__SIZE_TYPE__ unsigned int\0"
 3685      5A455F54 
 3685      5950455F 
 3685      5F20756E 
 3685      7369676E 
 3686 02ce 01       		.byte	0x1
 3687 02cf 00       		.uleb128 0
 3688 02d0 5F5F5054 		.ascii "__PTRDIFF_TYPE__ int\0"
 3688      52444946 
GAS LISTING C:\Users\PRESID~1\AppData\Local\Temp\cc1SpG1Y.s 			page 90


 3688      465F5459 
 3688      50455F5F 
 3688      20696E74 
 3689 02e5 01       		.byte	0x1
 3690 02e6 00       		.uleb128 0
 3691 02e7 5F5F5743 		.ascii "__WCHAR_TYPE__ short unsigned int\0"
 3691      4841525F 
 3691      54595045 
 3691      5F5F2073 
 3691      686F7274 
 3692 0309 01       		.byte	0x1
 3693 030a 00       		.uleb128 0
 3694 030b 5F5F5749 		.ascii "__WINT_TYPE__ short unsigned int\0"
 3694      4E545F54 
 3694      5950455F 
 3694      5F207368 
 3694      6F727420 
 3695 032c 01       		.byte	0x1
 3696 032d 00       		.uleb128 0
 3697 032e 5F5F494E 		.ascii "__INTMAX_TYPE__ long long int\0"
 3697      544D4158 
 3697      5F545950 
 3697      455F5F20 
 3697      6C6F6E67 
 3698 034c 01       		.byte	0x1
 3699 034d 00       		.uleb128 0
 3700 034e 5F5F5549 		.ascii "__UINTMAX_TYPE__ long long unsigned int\0"
 3700      4E544D41 
 3700      585F5459 
 3700      50455F5F 
 3700      206C6F6E 
 3701 0376 01       		.byte	0x1
 3702 0377 00       		.uleb128 0
 3703 0378 5F5F4348 		.ascii "__CHAR16_TYPE__ short unsigned int\0"
 3703      41523136 
 3703      5F545950 
 3703      455F5F20 
 3703      73686F72 
 3704 039b 01       		.byte	0x1
 3705 039c 00       		.uleb128 0
 3706 039d 5F5F4348 		.ascii "__CHAR32_TYPE__ unsigned int\0"
 3706      41523332 
 3706      5F545950 
 3706      455F5F20 
 3706      756E7369 
 3707 03ba 01       		.byte	0x1
 3708 03bb 00       		.uleb128 0
 3709 03bc 5F5F5349 		.ascii "__SIG_ATOMIC_TYPE__ int\0"
 3709      475F4154 
 3709      4F4D4943 
 3709      5F545950 
 3709      455F5F20 
 3710 03d4 01       		.byte	0x1
 3711 03d5 00       		.uleb128 0
 3712 03d6 5F5F494E 		.ascii "__INT8_TYPE__ signed char\0"
 3712      54385F54 
 3712      5950455F 
GAS LISTING C:\Users\PRESID~1\AppData\Local\Temp\cc1SpG1Y.s 			page 91


 3712      5F207369 
 3712      676E6564 
 3713 03f0 01       		.byte	0x1
 3714 03f1 00       		.uleb128 0
 3715 03f2 5F5F494E 		.ascii "__INT16_TYPE__ short int\0"
 3715      5431365F 
 3715      54595045 
 3715      5F5F2073 
 3715      686F7274 
 3716 040b 01       		.byte	0x1
 3717 040c 00       		.uleb128 0
 3718 040d 5F5F494E 		.ascii "__INT32_TYPE__ int\0"
 3718      5433325F 
 3718      54595045 
 3718      5F5F2069 
 3718      6E7400
 3719 0420 01       		.byte	0x1
 3720 0421 00       		.uleb128 0
 3721 0422 5F5F494E 		.ascii "__INT64_TYPE__ long long int\0"
 3721      5436345F 
 3721      54595045 
 3721      5F5F206C 
 3721      6F6E6720 
 3722 043f 01       		.byte	0x1
 3723 0440 00       		.uleb128 0
 3724 0441 5F5F5549 		.ascii "__UINT8_TYPE__ unsigned char\0"
 3724      4E54385F 
 3724      54595045 
 3724      5F5F2075 
 3724      6E736967 
 3725 045e 01       		.byte	0x1
 3726 045f 00       		.uleb128 0
 3727 0460 5F5F5549 		.ascii "__UINT16_TYPE__ short unsigned int\0"
 3727      4E543136 
 3727      5F545950 
 3727      455F5F20 
 3727      73686F72 
 3728 0483 01       		.byte	0x1
 3729 0484 00       		.uleb128 0
 3730 0485 5F5F5549 		.ascii "__UINT32_TYPE__ unsigned int\0"
 3730      4E543332 
 3730      5F545950 
 3730      455F5F20 
 3730      756E7369 
 3731 04a2 01       		.byte	0x1
 3732 04a3 00       		.uleb128 0
 3733 04a4 5F5F5549 		.ascii "__UINT64_TYPE__ long long unsigned int\0"
 3733      4E543634 
 3733      5F545950 
 3733      455F5F20 
 3733      6C6F6E67 
 3734 04cb 01       		.byte	0x1
 3735 04cc 00       		.uleb128 0
 3736 04cd 5F5F494E 		.ascii "__INT_LEAST8_TYPE__ signed char\0"
 3736      545F4C45 
 3736      41535438 
 3736      5F545950 
GAS LISTING C:\Users\PRESID~1\AppData\Local\Temp\cc1SpG1Y.s 			page 92


 3736      455F5F20 
 3737 04ed 01       		.byte	0x1
 3738 04ee 00       		.uleb128 0
 3739 04ef 5F5F494E 		.ascii "__INT_LEAST16_TYPE__ short int\0"
 3739      545F4C45 
 3739      41535431 
 3739      365F5459 
 3739      50455F5F 
 3740 050e 01       		.byte	0x1
 3741 050f 00       		.uleb128 0
 3742 0510 5F5F494E 		.ascii "__INT_LEAST32_TYPE__ int\0"
 3742      545F4C45 
 3742      41535433 
 3742      325F5459 
 3742      50455F5F 
 3743 0529 01       		.byte	0x1
 3744 052a 00       		.uleb128 0
 3745 052b 5F5F494E 		.ascii "__INT_LEAST64_TYPE__ long long int\0"
 3745      545F4C45 
 3745      41535436 
 3745      345F5459 
 3745      50455F5F 
 3746 054e 01       		.byte	0x1
 3747 054f 00       		.uleb128 0
 3748 0550 5F5F5549 		.ascii "__UINT_LEAST8_TYPE__ unsigned char\0"
 3748      4E545F4C 
 3748      45415354 
 3748      385F5459 
 3748      50455F5F 
 3749 0573 01       		.byte	0x1
 3750 0574 00       		.uleb128 0
 3751 0575 5F5F5549 		.ascii "__UINT_LEAST16_TYPE__ short unsigned int\0"
 3751      4E545F4C 
 3751      45415354 
 3751      31365F54 
 3751      5950455F 
 3752 059e 01       		.byte	0x1
 3753 059f 00       		.uleb128 0
 3754 05a0 5F5F5549 		.ascii "__UINT_LEAST32_TYPE__ unsigned int\0"
 3754      4E545F4C 
 3754      45415354 
 3754      33325F54 
 3754      5950455F 
 3755 05c3 01       		.byte	0x1
 3756 05c4 00       		.uleb128 0
 3757 05c5 5F5F5549 		.ascii "__UINT_LEAST64_TYPE__ long long unsigned int\0"
 3757      4E545F4C 
 3757      45415354 
 3757      36345F54 
 3757      5950455F 
 3758 05f2 01       		.byte	0x1
 3759 05f3 00       		.uleb128 0
 3760 05f4 5F5F494E 		.ascii "__INT_FAST8_TYPE__ signed char\0"
 3760      545F4641 
 3760      5354385F 
 3760      54595045 
 3760      5F5F2073 
GAS LISTING C:\Users\PRESID~1\AppData\Local\Temp\cc1SpG1Y.s 			page 93


 3761 0613 01       		.byte	0x1
 3762 0614 00       		.uleb128 0
 3763 0615 5F5F494E 		.ascii "__INT_FAST16_TYPE__ short int\0"
 3763      545F4641 
 3763      53543136 
 3763      5F545950 
 3763      455F5F20 
 3764 0633 01       		.byte	0x1
 3765 0634 00       		.uleb128 0
 3766 0635 5F5F494E 		.ascii "__INT_FAST32_TYPE__ int\0"
 3766      545F4641 
 3766      53543332 
 3766      5F545950 
 3766      455F5F20 
 3767 064d 01       		.byte	0x1
 3768 064e 00       		.uleb128 0
 3769 064f 5F5F494E 		.ascii "__INT_FAST64_TYPE__ long long int\0"
 3769      545F4641 
 3769      53543634 
 3769      5F545950 
 3769      455F5F20 
 3770 0671 01       		.byte	0x1
 3771 0672 00       		.uleb128 0
 3772 0673 5F5F5549 		.ascii "__UINT_FAST8_TYPE__ unsigned char\0"
 3772      4E545F46 
 3772      41535438 
 3772      5F545950 
 3772      455F5F20 
 3773 0695 01       		.byte	0x1
 3774 0696 00       		.uleb128 0
 3775 0697 5F5F5549 		.ascii "__UINT_FAST16_TYPE__ short unsigned int\0"
 3775      4E545F46 
 3775      41535431 
 3775      365F5459 
 3775      50455F5F 
 3776 06bf 01       		.byte	0x1
 3777 06c0 00       		.uleb128 0
 3778 06c1 5F5F5549 		.ascii "__UINT_FAST32_TYPE__ unsigned int\0"
 3778      4E545F46 
 3778      41535433 
 3778      325F5459 
 3778      50455F5F 
 3779 06e3 01       		.byte	0x1
 3780 06e4 00       		.uleb128 0
 3781 06e5 5F5F5549 		.ascii "__UINT_FAST64_TYPE__ long long unsigned int\0"
 3781      4E545F46 
 3781      41535436 
 3781      345F5459 
 3781      50455F5F 
 3782 0711 01       		.byte	0x1
 3783 0712 00       		.uleb128 0
 3784 0713 5F5F494E 		.ascii "__INTPTR_TYPE__ int\0"
 3784      54505452 
 3784      5F545950 
 3784      455F5F20 
 3784      696E7400 
 3785 0727 01       		.byte	0x1
GAS LISTING C:\Users\PRESID~1\AppData\Local\Temp\cc1SpG1Y.s 			page 94


 3786 0728 00       		.uleb128 0
 3787 0729 5F5F5549 		.ascii "__UINTPTR_TYPE__ unsigned int\0"
 3787      4E545054 
 3787      525F5459 
 3787      50455F5F 
 3787      20756E73 
 3788 0747 01       		.byte	0x1
 3789 0748 00       		.uleb128 0
 3790 0749 5F5F6861 		.ascii "__has_include(STR) __has_include__(STR)\0"
 3790      735F696E 
 3790      636C7564 
 3790      65285354 
 3790      5229205F 
 3791 0771 01       		.byte	0x1
 3792 0772 00       		.uleb128 0
 3793 0773 5F5F6861 		.ascii "__has_include_next(STR) __has_include_next__(STR)\0"
 3793      735F696E 
 3793      636C7564 
 3793      655F6E65 
 3793      78742853 
 3794 07a5 01       		.byte	0x1
 3795 07a6 00       		.uleb128 0
 3796 07a7 5F5F4758 		.ascii "__GXX_ABI_VERSION 1013\0"
 3796      585F4142 
 3796      495F5645 
 3796      5253494F 
 3796      4E203130 
 3797 07be 01       		.byte	0x1
 3798 07bf 00       		.uleb128 0
 3799 07c0 5F5F5343 		.ascii "__SCHAR_MAX__ 0x7f\0"
 3799      4841525F 
 3799      4D41585F 
 3799      5F203078 
 3799      376600
 3800 07d3 01       		.byte	0x1
 3801 07d4 00       		.uleb128 0
 3802 07d5 5F5F5348 		.ascii "__SHRT_MAX__ 0x7fff\0"
 3802      52545F4D 
 3802      41585F5F 
 3802      20307837 
 3802      66666600 
 3803 07e9 01       		.byte	0x1
 3804 07ea 00       		.uleb128 0
 3805 07eb 5F5F494E 		.ascii "__INT_MAX__ 0x7fffffff\0"
 3805      545F4D41 
 3805      585F5F20 
 3805      30783766 
 3805      66666666 
 3806 0802 01       		.byte	0x1
 3807 0803 00       		.uleb128 0
 3808 0804 5F5F4C4F 		.ascii "__LONG_MAX__ 0x7fffffffL\0"
 3808      4E475F4D 
 3808      41585F5F 
 3808      20307837 
 3808      66666666 
 3809 081d 01       		.byte	0x1
 3810 081e 00       		.uleb128 0
GAS LISTING C:\Users\PRESID~1\AppData\Local\Temp\cc1SpG1Y.s 			page 95


 3811 081f 5F5F4C4F 		.ascii "__LONG_LONG_MAX__ 0x7fffffffffffffffLL\0"
 3811      4E475F4C 
 3811      4F4E475F 
 3811      4D41585F 
 3811      5F203078 
 3812 0846 01       		.byte	0x1
 3813 0847 00       		.uleb128 0
 3814 0848 5F5F5743 		.ascii "__WCHAR_MAX__ 0xffff\0"
 3814      4841525F 
 3814      4D41585F 
 3814      5F203078 
 3814      66666666 
 3815 085d 01       		.byte	0x1
 3816 085e 00       		.uleb128 0
 3817 085f 5F5F5743 		.ascii "__WCHAR_MIN__ 0\0"
 3817      4841525F 
 3817      4D494E5F 
 3817      5F203000 
 3818 086f 01       		.byte	0x1
 3819 0870 00       		.uleb128 0
 3820 0871 5F5F5749 		.ascii "__WINT_MAX__ 0xffff\0"
 3820      4E545F4D 
 3820      41585F5F 
 3820      20307866 
 3820      66666600 
 3821 0885 01       		.byte	0x1
 3822 0886 00       		.uleb128 0
 3823 0887 5F5F5749 		.ascii "__WINT_MIN__ 0\0"
 3823      4E545F4D 
 3823      494E5F5F 
 3823      203000
 3824 0896 01       		.byte	0x1
 3825 0897 00       		.uleb128 0
 3826 0898 5F5F5054 		.ascii "__PTRDIFF_MAX__ 0x7fffffff\0"
 3826      52444946 
 3826      465F4D41 
 3826      585F5F20 
 3826      30783766 
 3827 08b3 01       		.byte	0x1
 3828 08b4 00       		.uleb128 0
 3829 08b5 5F5F5349 		.ascii "__SIZE_MAX__ 0xffffffffU\0"
 3829      5A455F4D 
 3829      41585F5F 
 3829      20307866 
 3829      66666666 
 3830 08ce 01       		.byte	0x1
 3831 08cf 00       		.uleb128 0
 3832 08d0 5F5F5343 		.ascii "__SCHAR_WIDTH__ 8\0"
 3832      4841525F 
 3832      57494454 
 3832      485F5F20 
 3832      3800
 3833 08e2 01       		.byte	0x1
 3834 08e3 00       		.uleb128 0
 3835 08e4 5F5F5348 		.ascii "__SHRT_WIDTH__ 16\0"
 3835      52545F57 
 3835      49445448 
GAS LISTING C:\Users\PRESID~1\AppData\Local\Temp\cc1SpG1Y.s 			page 96


 3835      5F5F2031 
 3835      3600
 3836 08f6 01       		.byte	0x1
 3837 08f7 00       		.uleb128 0
 3838 08f8 5F5F494E 		.ascii "__INT_WIDTH__ 32\0"
 3838      545F5749 
 3838      4454485F 
 3838      5F203332 
 3838      00
 3839 0909 01       		.byte	0x1
 3840 090a 00       		.uleb128 0
 3841 090b 5F5F4C4F 		.ascii "__LONG_WIDTH__ 32\0"
 3841      4E475F57 
 3841      49445448 
 3841      5F5F2033 
 3841      3200
 3842 091d 01       		.byte	0x1
 3843 091e 00       		.uleb128 0
 3844 091f 5F5F4C4F 		.ascii "__LONG_LONG_WIDTH__ 64\0"
 3844      4E475F4C 
 3844      4F4E475F 
 3844      57494454 
 3844      485F5F20 
 3845 0936 01       		.byte	0x1
 3846 0937 00       		.uleb128 0
 3847 0938 5F5F5743 		.ascii "__WCHAR_WIDTH__ 16\0"
 3847      4841525F 
 3847      57494454 
 3847      485F5F20 
 3847      313600
 3848 094b 01       		.byte	0x1
 3849 094c 00       		.uleb128 0
 3850 094d 5F5F5749 		.ascii "__WINT_WIDTH__ 16\0"
 3850      4E545F57 
 3850      49445448 
 3850      5F5F2031 
 3850      3600
 3851 095f 01       		.byte	0x1
 3852 0960 00       		.uleb128 0
 3853 0961 5F5F5054 		.ascii "__PTRDIFF_WIDTH__ 32\0"
 3853      52444946 
 3853      465F5749 
 3853      4454485F 
 3853      5F203332 
 3854 0976 01       		.byte	0x1
 3855 0977 00       		.uleb128 0
 3856 0978 5F5F5349 		.ascii "__SIZE_WIDTH__ 32\0"
 3856      5A455F57 
 3856      49445448 
 3856      5F5F2033 
 3856      3200
 3857 098a 01       		.byte	0x1
 3858 098b 00       		.uleb128 0
 3859 098c 5F5F494E 		.ascii "__INTMAX_MAX__ 0x7fffffffffffffffLL\0"
 3859      544D4158 
 3859      5F4D4158 
 3859      5F5F2030 
GAS LISTING C:\Users\PRESID~1\AppData\Local\Temp\cc1SpG1Y.s 			page 97


 3859      78376666 
 3860 09b0 01       		.byte	0x1
 3861 09b1 00       		.uleb128 0
 3862 09b2 5F5F494E 		.ascii "__INTMAX_C(c) c ## LL\0"
 3862      544D4158 
 3862      5F432863 
 3862      29206320 
 3862      2323204C 
 3863 09c8 01       		.byte	0x1
 3864 09c9 00       		.uleb128 0
 3865 09ca 5F5F5549 		.ascii "__UINTMAX_MAX__ 0xffffffffffffffffULL\0"
 3865      4E544D41 
 3865      585F4D41 
 3865      585F5F20 
 3865      30786666 
 3866 09f0 01       		.byte	0x1
 3867 09f1 00       		.uleb128 0
 3868 09f2 5F5F5549 		.ascii "__UINTMAX_C(c) c ## ULL\0"
 3868      4E544D41 
 3868      585F4328 
 3868      63292063 
 3868      20232320 
 3869 0a0a 01       		.byte	0x1
 3870 0a0b 00       		.uleb128 0
 3871 0a0c 5F5F494E 		.ascii "__INTMAX_WIDTH__ 64\0"
 3871      544D4158 
 3871      5F574944 
 3871      54485F5F 
 3871      20363400 
 3872 0a20 01       		.byte	0x1
 3873 0a21 00       		.uleb128 0
 3874 0a22 5F5F5349 		.ascii "__SIG_ATOMIC_MAX__ 0x7fffffff\0"
 3874      475F4154 
 3874      4F4D4943 
 3874      5F4D4158 
 3874      5F5F2030 
 3875 0a40 01       		.byte	0x1
 3876 0a41 00       		.uleb128 0
 3877 0a42 5F5F5349 		.ascii "__SIG_ATOMIC_MIN__ (-__SIG_ATOMIC_MAX__ - 1)\0"
 3877      475F4154 
 3877      4F4D4943 
 3877      5F4D494E 
 3877      5F5F2028 
 3878 0a6f 01       		.byte	0x1
 3879 0a70 00       		.uleb128 0
 3880 0a71 5F5F5349 		.ascii "__SIG_ATOMIC_WIDTH__ 32\0"
 3880      475F4154 
 3880      4F4D4943 
 3880      5F574944 
 3880      54485F5F 
 3881 0a89 01       		.byte	0x1
 3882 0a8a 00       		.uleb128 0
 3883 0a8b 5F5F494E 		.ascii "__INT8_MAX__ 0x7f\0"
 3883      54385F4D 
 3883      41585F5F 
 3883      20307837 
 3883      6600
GAS LISTING C:\Users\PRESID~1\AppData\Local\Temp\cc1SpG1Y.s 			page 98


 3884 0a9d 01       		.byte	0x1
 3885 0a9e 00       		.uleb128 0
 3886 0a9f 5F5F494E 		.ascii "__INT16_MAX__ 0x7fff\0"
 3886      5431365F 
 3886      4D41585F 
 3886      5F203078 
 3886      37666666 
 3887 0ab4 01       		.byte	0x1
 3888 0ab5 00       		.uleb128 0
 3889 0ab6 5F5F494E 		.ascii "__INT32_MAX__ 0x7fffffff\0"
 3889      5433325F 
 3889      4D41585F 
 3889      5F203078 
 3889      37666666 
 3890 0acf 01       		.byte	0x1
 3891 0ad0 00       		.uleb128 0
 3892 0ad1 5F5F494E 		.ascii "__INT64_MAX__ 0x7fffffffffffffffLL\0"
 3892      5436345F 
 3892      4D41585F 
 3892      5F203078 
 3892      37666666 
 3893 0af4 01       		.byte	0x1
 3894 0af5 00       		.uleb128 0
 3895 0af6 5F5F5549 		.ascii "__UINT8_MAX__ 0xff\0"
 3895      4E54385F 
 3895      4D41585F 
 3895      5F203078 
 3895      666600
 3896 0b09 01       		.byte	0x1
 3897 0b0a 00       		.uleb128 0
 3898 0b0b 5F5F5549 		.ascii "__UINT16_MAX__ 0xffff\0"
 3898      4E543136 
 3898      5F4D4158 
 3898      5F5F2030 
 3898      78666666 
 3899 0b21 01       		.byte	0x1
 3900 0b22 00       		.uleb128 0
 3901 0b23 5F5F5549 		.ascii "__UINT32_MAX__ 0xffffffffU\0"
 3901      4E543332 
 3901      5F4D4158 
 3901      5F5F2030 
 3901      78666666 
 3902 0b3e 01       		.byte	0x1
 3903 0b3f 00       		.uleb128 0
 3904 0b40 5F5F5549 		.ascii "__UINT64_MAX__ 0xffffffffffffffffULL\0"
 3904      4E543634 
 3904      5F4D4158 
 3904      5F5F2030 
 3904      78666666 
 3905 0b65 01       		.byte	0x1
 3906 0b66 00       		.uleb128 0
 3907 0b67 5F5F494E 		.ascii "__INT_LEAST8_MAX__ 0x7f\0"
 3907      545F4C45 
 3907      41535438 
 3907      5F4D4158 
 3907      5F5F2030 
 3908 0b7f 01       		.byte	0x1
GAS LISTING C:\Users\PRESID~1\AppData\Local\Temp\cc1SpG1Y.s 			page 99


 3909 0b80 00       		.uleb128 0
 3910 0b81 5F5F494E 		.ascii "__INT8_C(c) c\0"
 3910      54385F43 
 3910      28632920 
 3910      6300
 3911 0b8f 01       		.byte	0x1
 3912 0b90 00       		.uleb128 0
 3913 0b91 5F5F494E 		.ascii "__INT_LEAST8_WIDTH__ 8\0"
 3913      545F4C45 
 3913      41535438 
 3913      5F574944 
 3913      54485F5F 
 3914 0ba8 01       		.byte	0x1
 3915 0ba9 00       		.uleb128 0
 3916 0baa 5F5F494E 		.ascii "__INT_LEAST16_MAX__ 0x7fff\0"
 3916      545F4C45 
 3916      41535431 
 3916      365F4D41 
 3916      585F5F20 
 3917 0bc5 01       		.byte	0x1
 3918 0bc6 00       		.uleb128 0
 3919 0bc7 5F5F494E 		.ascii "__INT16_C(c) c\0"
 3919      5431365F 
 3919      43286329 
 3919      206300
 3920 0bd6 01       		.byte	0x1
 3921 0bd7 00       		.uleb128 0
 3922 0bd8 5F5F494E 		.ascii "__INT_LEAST16_WIDTH__ 16\0"
 3922      545F4C45 
 3922      41535431 
 3922      365F5749 
 3922      4454485F 
 3923 0bf1 01       		.byte	0x1
 3924 0bf2 00       		.uleb128 0
 3925 0bf3 5F5F494E 		.ascii "__INT_LEAST32_MAX__ 0x7fffffff\0"
 3925      545F4C45 
 3925      41535433 
 3925      325F4D41 
 3925      585F5F20 
 3926 0c12 01       		.byte	0x1
 3927 0c13 00       		.uleb128 0
 3928 0c14 5F5F494E 		.ascii "__INT32_C(c) c\0"
 3928      5433325F 
 3928      43286329 
 3928      206300
 3929 0c23 01       		.byte	0x1
 3930 0c24 00       		.uleb128 0
 3931 0c25 5F5F494E 		.ascii "__INT_LEAST32_WIDTH__ 32\0"
 3931      545F4C45 
 3931      41535433 
 3931      325F5749 
 3931      4454485F 
 3932 0c3e 01       		.byte	0x1
 3933 0c3f 00       		.uleb128 0
 3934 0c40 5F5F494E 		.ascii "__INT_LEAST64_MAX__ 0x7fffffffffffffffLL\0"
 3934      545F4C45 
 3934      41535436 
GAS LISTING C:\Users\PRESID~1\AppData\Local\Temp\cc1SpG1Y.s 			page 100


 3934      345F4D41 
 3934      585F5F20 
 3935 0c69 01       		.byte	0x1
 3936 0c6a 00       		.uleb128 0
 3937 0c6b 5F5F494E 		.ascii "__INT64_C(c) c ## LL\0"
 3937      5436345F 
 3937      43286329 
 3937      20632023 
 3937      23204C4C 
 3938 0c80 01       		.byte	0x1
 3939 0c81 00       		.uleb128 0
 3940 0c82 5F5F494E 		.ascii "__INT_LEAST64_WIDTH__ 64\0"
 3940      545F4C45 
 3940      41535436 
 3940      345F5749 
 3940      4454485F 
 3941 0c9b 01       		.byte	0x1
 3942 0c9c 00       		.uleb128 0
 3943 0c9d 5F5F5549 		.ascii "__UINT_LEAST8_MAX__ 0xff\0"
 3943      4E545F4C 
 3943      45415354 
 3943      385F4D41 
 3943      585F5F20 
 3944 0cb6 01       		.byte	0x1
 3945 0cb7 00       		.uleb128 0
 3946 0cb8 5F5F5549 		.ascii "__UINT8_C(c) c\0"
 3946      4E54385F 
 3946      43286329 
 3946      206300
 3947 0cc7 01       		.byte	0x1
 3948 0cc8 00       		.uleb128 0
 3949 0cc9 5F5F5549 		.ascii "__UINT_LEAST16_MAX__ 0xffff\0"
 3949      4E545F4C 
 3949      45415354 
 3949      31365F4D 
 3949      41585F5F 
 3950 0ce5 01       		.byte	0x1
 3951 0ce6 00       		.uleb128 0
 3952 0ce7 5F5F5549 		.ascii "__UINT16_C(c) c\0"
 3952      4E543136 
 3952      5F432863 
 3952      29206300 
 3953 0cf7 01       		.byte	0x1
 3954 0cf8 00       		.uleb128 0
 3955 0cf9 5F5F5549 		.ascii "__UINT_LEAST32_MAX__ 0xffffffffU\0"
 3955      4E545F4C 
 3955      45415354 
 3955      33325F4D 
 3955      41585F5F 
 3956 0d1a 01       		.byte	0x1
 3957 0d1b 00       		.uleb128 0
 3958 0d1c 5F5F5549 		.ascii "__UINT32_C(c) c ## U\0"
 3958      4E543332 
 3958      5F432863 
 3958      29206320 
 3958      23232055 
 3959 0d31 01       		.byte	0x1
GAS LISTING C:\Users\PRESID~1\AppData\Local\Temp\cc1SpG1Y.s 			page 101


 3960 0d32 00       		.uleb128 0
 3961 0d33 5F5F5549 		.ascii "__UINT_LEAST64_MAX__ 0xffffffffffffffffULL\0"
 3961      4E545F4C 
 3961      45415354 
 3961      36345F4D 
 3961      41585F5F 
 3962 0d5e 01       		.byte	0x1
 3963 0d5f 00       		.uleb128 0
 3964 0d60 5F5F5549 		.ascii "__UINT64_C(c) c ## ULL\0"
 3964      4E543634 
 3964      5F432863 
 3964      29206320 
 3964      23232055 
 3965 0d77 01       		.byte	0x1
 3966 0d78 00       		.uleb128 0
 3967 0d79 5F5F494E 		.ascii "__INT_FAST8_MAX__ 0x7f\0"
 3967      545F4641 
 3967      5354385F 
 3967      4D41585F 
 3967      5F203078 
 3968 0d90 01       		.byte	0x1
 3969 0d91 00       		.uleb128 0
 3970 0d92 5F5F494E 		.ascii "__INT_FAST8_WIDTH__ 8\0"
 3970      545F4641 
 3970      5354385F 
 3970      57494454 
 3970      485F5F20 
 3971 0da8 01       		.byte	0x1
 3972 0da9 00       		.uleb128 0
 3973 0daa 5F5F494E 		.ascii "__INT_FAST16_MAX__ 0x7fff\0"
 3973      545F4641 
 3973      53543136 
 3973      5F4D4158 
 3973      5F5F2030 
 3974 0dc4 01       		.byte	0x1
 3975 0dc5 00       		.uleb128 0
 3976 0dc6 5F5F494E 		.ascii "__INT_FAST16_WIDTH__ 16\0"
 3976      545F4641 
 3976      53543136 
 3976      5F574944 
 3976      54485F5F 
 3977 0dde 01       		.byte	0x1
 3978 0ddf 00       		.uleb128 0
 3979 0de0 5F5F494E 		.ascii "__INT_FAST32_MAX__ 0x7fffffff\0"
 3979      545F4641 
 3979      53543332 
 3979      5F4D4158 
 3979      5F5F2030 
 3980 0dfe 01       		.byte	0x1
 3981 0dff 00       		.uleb128 0
 3982 0e00 5F5F494E 		.ascii "__INT_FAST32_WIDTH__ 32\0"
 3982      545F4641 
 3982      53543332 
 3982      5F574944 
 3982      54485F5F 
 3983 0e18 01       		.byte	0x1
 3984 0e19 00       		.uleb128 0
GAS LISTING C:\Users\PRESID~1\AppData\Local\Temp\cc1SpG1Y.s 			page 102


 3985 0e1a 5F5F494E 		.ascii "__INT_FAST64_MAX__ 0x7fffffffffffffffLL\0"
 3985      545F4641 
 3985      53543634 
 3985      5F4D4158 
 3985      5F5F2030 
 3986 0e42 01       		.byte	0x1
 3987 0e43 00       		.uleb128 0
 3988 0e44 5F5F494E 		.ascii "__INT_FAST64_WIDTH__ 64\0"
 3988      545F4641 
 3988      53543634 
 3988      5F574944 
 3988      54485F5F 
 3989 0e5c 01       		.byte	0x1
 3990 0e5d 00       		.uleb128 0
 3991 0e5e 5F5F5549 		.ascii "__UINT_FAST8_MAX__ 0xff\0"
 3991      4E545F46 
 3991      41535438 
 3991      5F4D4158 
 3991      5F5F2030 
 3992 0e76 01       		.byte	0x1
 3993 0e77 00       		.uleb128 0
 3994 0e78 5F5F5549 		.ascii "__UINT_FAST16_MAX__ 0xffff\0"
 3994      4E545F46 
 3994      41535431 
 3994      365F4D41 
 3994      585F5F20 
 3995 0e93 01       		.byte	0x1
 3996 0e94 00       		.uleb128 0
 3997 0e95 5F5F5549 		.ascii "__UINT_FAST32_MAX__ 0xffffffffU\0"
 3997      4E545F46 
 3997      41535433 
 3997      325F4D41 
 3997      585F5F20 
 3998 0eb5 01       		.byte	0x1
 3999 0eb6 00       		.uleb128 0
 4000 0eb7 5F5F5549 		.ascii "__UINT_FAST64_MAX__ 0xffffffffffffffffULL\0"
 4000      4E545F46 
 4000      41535436 
 4000      345F4D41 
 4000      585F5F20 
 4001 0ee1 01       		.byte	0x1
 4002 0ee2 00       		.uleb128 0
 4003 0ee3 5F5F494E 		.ascii "__INTPTR_MAX__ 0x7fffffff\0"
 4003      54505452 
 4003      5F4D4158 
 4003      5F5F2030 
 4003      78376666 
 4004 0efd 01       		.byte	0x1
 4005 0efe 00       		.uleb128 0
 4006 0eff 5F5F494E 		.ascii "__INTPTR_WIDTH__ 32\0"
 4006      54505452 
 4006      5F574944 
 4006      54485F5F 
 4006      20333200 
 4007 0f13 01       		.byte	0x1
 4008 0f14 00       		.uleb128 0
 4009 0f15 5F5F5549 		.ascii "__UINTPTR_MAX__ 0xffffffffU\0"
GAS LISTING C:\Users\PRESID~1\AppData\Local\Temp\cc1SpG1Y.s 			page 103


 4009      4E545054 
 4009      525F4D41 
 4009      585F5F20 
 4009      30786666 
 4010 0f31 01       		.byte	0x1
 4011 0f32 00       		.uleb128 0
 4012 0f33 5F5F4743 		.ascii "__GCC_IEC_559 2\0"
 4012      435F4945 
 4012      435F3535 
 4012      39203200 
 4013 0f43 01       		.byte	0x1
 4014 0f44 00       		.uleb128 0
 4015 0f45 5F5F4743 		.ascii "__GCC_IEC_559_COMPLEX 2\0"
 4015      435F4945 
 4015      435F3535 
 4015      395F434F 
 4015      4D504C45 
 4016 0f5d 01       		.byte	0x1
 4017 0f5e 00       		.uleb128 0
 4018 0f5f 5F5F464C 		.ascii "__FLT_EVAL_METHOD__ 2\0"
 4018      545F4556 
 4018      414C5F4D 
 4018      4554484F 
 4018      445F5F20 
 4019 0f75 01       		.byte	0x1
 4020 0f76 00       		.uleb128 0
 4021 0f77 5F5F464C 		.ascii "__FLT_EVAL_METHOD_TS_18661_3__ 2\0"
 4021      545F4556 
 4021      414C5F4D 
 4021      4554484F 
 4021      445F5453 
 4022 0f98 01       		.byte	0x1
 4023 0f99 00       		.uleb128 0
 4024 0f9a 5F5F4445 		.ascii "__DEC_EVAL_METHOD__ 2\0"
 4024      435F4556 
 4024      414C5F4D 
 4024      4554484F 
 4024      445F5F20 
 4025 0fb0 01       		.byte	0x1
 4026 0fb1 00       		.uleb128 0
 4027 0fb2 5F5F464C 		.ascii "__FLT_RADIX__ 2\0"
 4027      545F5241 
 4027      4449585F 
 4027      5F203200 
 4028 0fc2 01       		.byte	0x1
 4029 0fc3 00       		.uleb128 0
 4030 0fc4 5F5F464C 		.ascii "__FLT_MANT_DIG__ 24\0"
 4030      545F4D41 
 4030      4E545F44 
 4030      49475F5F 
 4030      20323400 
 4031 0fd8 01       		.byte	0x1
 4032 0fd9 00       		.uleb128 0
 4033 0fda 5F5F464C 		.ascii "__FLT_DIG__ 6\0"
 4033      545F4449 
 4033      475F5F20 
 4033      3600
GAS LISTING C:\Users\PRESID~1\AppData\Local\Temp\cc1SpG1Y.s 			page 104


 4034 0fe8 01       		.byte	0x1
 4035 0fe9 00       		.uleb128 0
 4036 0fea 5F5F464C 		.ascii "__FLT_MIN_EXP__ (-125)\0"
 4036      545F4D49 
 4036      4E5F4558 
 4036      505F5F20 
 4036      282D3132 
 4037 1001 01       		.byte	0x1
 4038 1002 00       		.uleb128 0
 4039 1003 5F5F464C 		.ascii "__FLT_MIN_10_EXP__ (-37)\0"
 4039      545F4D49 
 4039      4E5F3130 
 4039      5F455850 
 4039      5F5F2028 
 4040 101c 01       		.byte	0x1
 4041 101d 00       		.uleb128 0
 4042 101e 5F5F464C 		.ascii "__FLT_MAX_EXP__ 128\0"
 4042      545F4D41 
 4042      585F4558 
 4042      505F5F20 
 4042      31323800 
 4043 1032 01       		.byte	0x1
 4044 1033 00       		.uleb128 0
 4045 1034 5F5F464C 		.ascii "__FLT_MAX_10_EXP__ 38\0"
 4045      545F4D41 
 4045      585F3130 
 4045      5F455850 
 4045      5F5F2033 
 4046 104a 01       		.byte	0x1
 4047 104b 00       		.uleb128 0
 4048 104c 5F5F464C 		.ascii "__FLT_DECIMAL_DIG__ 9\0"
 4048      545F4445 
 4048      43494D41 
 4048      4C5F4449 
 4048      475F5F20 
 4049 1062 01       		.byte	0x1
 4050 1063 00       		.uleb128 0
 4051 1064 5F5F464C 		.ascii "__FLT_MAX__ 3.40282346638528859811704183484516925e+38F\0"
 4051      545F4D41 
 4051      585F5F20 
 4051      332E3430 
 4051      32383233 
 4052 109b 01       		.byte	0x1
 4053 109c 00       		.uleb128 0
 4054 109d 5F5F464C 		.ascii "__FLT_MIN__ 1.17549435082228750796873653722224568e-38F\0"
 4054      545F4D49 
 4054      4E5F5F20 
 4054      312E3137 
 4054      35343934 
 4055 10d4 01       		.byte	0x1
 4056 10d5 00       		.uleb128 0
 4057 10d6 5F5F464C 		.ascii "__FLT_EPSILON__ 1.19209289550781250000000000000000000e-7F\0"
 4057      545F4550 
 4057      53494C4F 
 4057      4E5F5F20 
 4057      312E3139 
 4058 1110 01       		.byte	0x1
GAS LISTING C:\Users\PRESID~1\AppData\Local\Temp\cc1SpG1Y.s 			page 105


 4059 1111 00       		.uleb128 0
 4060 1112 5F5F464C 		.ascii "__FLT_DENORM_MIN__ 1.40129846432481707092372958328991613e-45F\0"
 4060      545F4445 
 4060      4E4F524D 
 4060      5F4D494E 
 4060      5F5F2031 
 4061 1150 01       		.byte	0x1
 4062 1151 00       		.uleb128 0
 4063 1152 5F5F464C 		.ascii "__FLT_HAS_DENORM__ 1\0"
 4063      545F4841 
 4063      535F4445 
 4063      4E4F524D 
 4063      5F5F2031 
 4064 1167 01       		.byte	0x1
 4065 1168 00       		.uleb128 0
 4066 1169 5F5F464C 		.ascii "__FLT_HAS_INFINITY__ 1\0"
 4066      545F4841 
 4066      535F494E 
 4066      46494E49 
 4066      54595F5F 
 4067 1180 01       		.byte	0x1
 4068 1181 00       		.uleb128 0
 4069 1182 5F5F464C 		.ascii "__FLT_HAS_QUIET_NAN__ 1\0"
 4069      545F4841 
 4069      535F5155 
 4069      4945545F 
 4069      4E414E5F 
 4070 119a 01       		.byte	0x1
 4071 119b 00       		.uleb128 0
 4072 119c 5F5F4442 		.ascii "__DBL_MANT_DIG__ 53\0"
 4072      4C5F4D41 
 4072      4E545F44 
 4072      49475F5F 
 4072      20353300 
 4073 11b0 01       		.byte	0x1
 4074 11b1 00       		.uleb128 0
 4075 11b2 5F5F4442 		.ascii "__DBL_DIG__ 15\0"
 4075      4C5F4449 
 4075      475F5F20 
 4075      313500
 4076 11c1 01       		.byte	0x1
 4077 11c2 00       		.uleb128 0
 4078 11c3 5F5F4442 		.ascii "__DBL_MIN_EXP__ (-1021)\0"
 4078      4C5F4D49 
 4078      4E5F4558 
 4078      505F5F20 
 4078      282D3130 
 4079 11db 01       		.byte	0x1
 4080 11dc 00       		.uleb128 0
 4081 11dd 5F5F4442 		.ascii "__DBL_MIN_10_EXP__ (-307)\0"
 4081      4C5F4D49 
 4081      4E5F3130 
 4081      5F455850 
 4081      5F5F2028 
 4082 11f7 01       		.byte	0x1
 4083 11f8 00       		.uleb128 0
 4084 11f9 5F5F4442 		.ascii "__DBL_MAX_EXP__ 1024\0"
GAS LISTING C:\Users\PRESID~1\AppData\Local\Temp\cc1SpG1Y.s 			page 106


 4084      4C5F4D41 
 4084      585F4558 
 4084      505F5F20 
 4084      31303234 
 4085 120e 01       		.byte	0x1
 4086 120f 00       		.uleb128 0
 4087 1210 5F5F4442 		.ascii "__DBL_MAX_10_EXP__ 308\0"
 4087      4C5F4D41 
 4087      585F3130 
 4087      5F455850 
 4087      5F5F2033 
 4088 1227 01       		.byte	0x1
 4089 1228 00       		.uleb128 0
 4090 1229 5F5F4442 		.ascii "__DBL_DECIMAL_DIG__ 17\0"
 4090      4C5F4445 
 4090      43494D41 
 4090      4C5F4449 
 4090      475F5F20 
 4091 1240 01       		.byte	0x1
 4092 1241 00       		.uleb128 0
 4093 1242 5F5F4442 		.ascii "__DBL_MAX__ ((double)1.79769313486231570814527423731704357e+308L)\0"
 4093      4C5F4D41 
 4093      585F5F20 
 4093      2828646F 
 4093      75626C65 
 4094 1284 01       		.byte	0x1
 4095 1285 00       		.uleb128 0
 4096 1286 5F5F4442 		.ascii "__DBL_MIN__ ((double)2.22507385850720138309023271733240406e-308L)\0"
 4096      4C5F4D49 
 4096      4E5F5F20 
 4096      2828646F 
 4096      75626C65 
 4097 12c8 01       		.byte	0x1
 4098 12c9 00       		.uleb128 0
 4099 12ca 5F5F4442 		.ascii "__DBL_EPSILON__ ((double)2.22044604925031308084726333618164062e-16L)\0"
 4099      4C5F4550 
 4099      53494C4F 
 4099      4E5F5F20 
 4099      2828646F 
 4100 130f 01       		.byte	0x1
 4101 1310 00       		.uleb128 0
 4102 1311 5F5F4442 		.ascii "__DBL_DENORM_MIN__ ((double)4.94065645841246544176568792868221372e-324L)\0"
 4102      4C5F4445 
 4102      4E4F524D 
 4102      5F4D494E 
 4102      5F5F2028 
 4103 135a 01       		.byte	0x1
 4104 135b 00       		.uleb128 0
 4105 135c 5F5F4442 		.ascii "__DBL_HAS_DENORM__ 1\0"
 4105      4C5F4841 
 4105      535F4445 
 4105      4E4F524D 
 4105      5F5F2031 
 4106 1371 01       		.byte	0x1
 4107 1372 00       		.uleb128 0
 4108 1373 5F5F4442 		.ascii "__DBL_HAS_INFINITY__ 1\0"
 4108      4C5F4841 
GAS LISTING C:\Users\PRESID~1\AppData\Local\Temp\cc1SpG1Y.s 			page 107


 4108      535F494E 
 4108      46494E49 
 4108      54595F5F 
 4109 138a 01       		.byte	0x1
 4110 138b 00       		.uleb128 0
 4111 138c 5F5F4442 		.ascii "__DBL_HAS_QUIET_NAN__ 1\0"
 4111      4C5F4841 
 4111      535F5155 
 4111      4945545F 
 4111      4E414E5F 
 4112 13a4 01       		.byte	0x1
 4113 13a5 00       		.uleb128 0
 4114 13a6 5F5F4C44 		.ascii "__LDBL_MANT_DIG__ 64\0"
 4114      424C5F4D 
 4114      414E545F 
 4114      4449475F 
 4114      5F203634 
 4115 13bb 01       		.byte	0x1
 4116 13bc 00       		.uleb128 0
 4117 13bd 5F5F4C44 		.ascii "__LDBL_DIG__ 18\0"
 4117      424C5F44 
 4117      49475F5F 
 4117      20313800 
 4118 13cd 01       		.byte	0x1
 4119 13ce 00       		.uleb128 0
 4120 13cf 5F5F4C44 		.ascii "__LDBL_MIN_EXP__ (-16381)\0"
 4120      424C5F4D 
 4120      494E5F45 
 4120      58505F5F 
 4120      20282D31 
 4121 13e9 01       		.byte	0x1
 4122 13ea 00       		.uleb128 0
 4123 13eb 5F5F4C44 		.ascii "__LDBL_MIN_10_EXP__ (-4931)\0"
 4123      424C5F4D 
 4123      494E5F31 
 4123      305F4558 
 4123      505F5F20 
 4124 1407 01       		.byte	0x1
 4125 1408 00       		.uleb128 0
 4126 1409 5F5F4C44 		.ascii "__LDBL_MAX_EXP__ 16384\0"
 4126      424C5F4D 
 4126      41585F45 
 4126      58505F5F 
 4126      20313633 
 4127 1420 01       		.byte	0x1
 4128 1421 00       		.uleb128 0
 4129 1422 5F5F4C44 		.ascii "__LDBL_MAX_10_EXP__ 4932\0"
 4129      424C5F4D 
 4129      41585F31 
 4129      305F4558 
 4129      505F5F20 
 4130 143b 01       		.byte	0x1
 4131 143c 00       		.uleb128 0
 4132 143d 5F5F4445 		.ascii "__DECIMAL_DIG__ 21\0"
 4132      43494D41 
 4132      4C5F4449 
 4132      475F5F20 
GAS LISTING C:\Users\PRESID~1\AppData\Local\Temp\cc1SpG1Y.s 			page 108


 4132      323100
 4133 1450 01       		.byte	0x1
 4134 1451 00       		.uleb128 0
 4135 1452 5F5F4C44 		.ascii "__LDBL_DECIMAL_DIG__ 21\0"
 4135      424C5F44 
 4135      4543494D 
 4135      414C5F44 
 4135      49475F5F 
 4136 146a 01       		.byte	0x1
 4137 146b 00       		.uleb128 0
 4138 146c 5F5F4C44 		.ascii "__LDBL_MAX__ 1.18973149535723176502126385303097021e+4932L\0"
 4138      424C5F4D 
 4138      41585F5F 
 4138      20312E31 
 4138      38393733 
 4139 14a6 01       		.byte	0x1
 4140 14a7 00       		.uleb128 0
 4141 14a8 5F5F4C44 		.ascii "__LDBL_MIN__ 3.36210314311209350626267781732175260e-4932L\0"
 4141      424C5F4D 
 4141      494E5F5F 
 4141      20332E33 
 4141      36323130 
 4142 14e2 01       		.byte	0x1
 4143 14e3 00       		.uleb128 0
 4144 14e4 5F5F4C44 		.ascii "__LDBL_EPSILON__ 1.08420217248550443400745280086994171e-19L\0"
 4144      424C5F45 
 4144      5053494C 
 4144      4F4E5F5F 
 4144      20312E30 
 4145 1520 01       		.byte	0x1
 4146 1521 00       		.uleb128 0
 4147 1522 5F5F4C44 		.ascii "__LDBL_DENORM_MIN__ 3.64519953188247460252840593361941982e-4951L\0"
 4147      424C5F44 
 4147      454E4F52 
 4147      4D5F4D49 
 4147      4E5F5F20 
 4148 1563 01       		.byte	0x1
 4149 1564 00       		.uleb128 0
 4150 1565 5F5F4C44 		.ascii "__LDBL_HAS_DENORM__ 1\0"
 4150      424C5F48 
 4150      41535F44 
 4150      454E4F52 
 4150      4D5F5F20 
 4151 157b 01       		.byte	0x1
 4152 157c 00       		.uleb128 0
 4153 157d 5F5F4C44 		.ascii "__LDBL_HAS_INFINITY__ 1\0"
 4153      424C5F48 
 4153      41535F49 
 4153      4E46494E 
 4153      4954595F 
 4154 1595 01       		.byte	0x1
 4155 1596 00       		.uleb128 0
 4156 1597 5F5F4C44 		.ascii "__LDBL_HAS_QUIET_NAN__ 1\0"
 4156      424C5F48 
 4156      41535F51 
 4156      55494554 
 4156      5F4E414E 
GAS LISTING C:\Users\PRESID~1\AppData\Local\Temp\cc1SpG1Y.s 			page 109


 4157 15b0 01       		.byte	0x1
 4158 15b1 00       		.uleb128 0
 4159 15b2 5F5F464C 		.ascii "__FLT32_MANT_DIG__ 24\0"
 4159      5433325F 
 4159      4D414E54 
 4159      5F444947 
 4159      5F5F2032 
 4160 15c8 01       		.byte	0x1
 4161 15c9 00       		.uleb128 0
 4162 15ca 5F5F464C 		.ascii "__FLT32_DIG__ 6\0"
 4162      5433325F 
 4162      4449475F 
 4162      5F203600 
 4163 15da 01       		.byte	0x1
 4164 15db 00       		.uleb128 0
 4165 15dc 5F5F464C 		.ascii "__FLT32_MIN_EXP__ (-125)\0"
 4165      5433325F 
 4165      4D494E5F 
 4165      4558505F 
 4165      5F20282D 
 4166 15f5 01       		.byte	0x1
 4167 15f6 00       		.uleb128 0
 4168 15f7 5F5F464C 		.ascii "__FLT32_MIN_10_EXP__ (-37)\0"
 4168      5433325F 
 4168      4D494E5F 
 4168      31305F45 
 4168      58505F5F 
 4169 1612 01       		.byte	0x1
 4170 1613 00       		.uleb128 0
 4171 1614 5F5F464C 		.ascii "__FLT32_MAX_EXP__ 128\0"
 4171      5433325F 
 4171      4D41585F 
 4171      4558505F 
 4171      5F203132 
 4172 162a 01       		.byte	0x1
 4173 162b 00       		.uleb128 0
 4174 162c 5F5F464C 		.ascii "__FLT32_MAX_10_EXP__ 38\0"
 4174      5433325F 
 4174      4D41585F 
 4174      31305F45 
 4174      58505F5F 
 4175 1644 01       		.byte	0x1
 4176 1645 00       		.uleb128 0
 4177 1646 5F5F464C 		.ascii "__FLT32_DECIMAL_DIG__ 9\0"
 4177      5433325F 
 4177      44454349 
 4177      4D414C5F 
 4177      4449475F 
 4178 165e 01       		.byte	0x1
 4179 165f 00       		.uleb128 0
 4180 1660 5F5F464C 		.ascii "__FLT32_MAX__ 3.40282346638528859811704183484516925e+38F32\0"
 4180      5433325F 
 4180      4D41585F 
 4180      5F20332E 
 4180      34303238 
 4181 169b 01       		.byte	0x1
 4182 169c 00       		.uleb128 0
GAS LISTING C:\Users\PRESID~1\AppData\Local\Temp\cc1SpG1Y.s 			page 110


 4183 169d 5F5F464C 		.ascii "__FLT32_MIN__ 1.17549435082228750796873653722224568e-38F32\0"
 4183      5433325F 
 4183      4D494E5F 
 4183      5F20312E 
 4183      31373534 
 4184 16d8 01       		.byte	0x1
 4185 16d9 00       		.uleb128 0
 4186 16da 5F5F464C 		.ascii "__FLT32_EPSILON__ 1.19209289550781250000000000000000000e-7F32\0"
 4186      5433325F 
 4186      45505349 
 4186      4C4F4E5F 
 4186      5F20312E 
 4187 1718 01       		.byte	0x1
 4188 1719 00       		.uleb128 0
 4189 171a 5F5F464C 		.ascii "__FLT32_DENORM_MIN__ 1.40129846432481707092372958328991613e-45F32\0"
 4189      5433325F 
 4189      44454E4F 
 4189      524D5F4D 
 4189      494E5F5F 
 4190 175c 01       		.byte	0x1
 4191 175d 00       		.uleb128 0
 4192 175e 5F5F464C 		.ascii "__FLT32_HAS_DENORM__ 1\0"
 4192      5433325F 
 4192      4841535F 
 4192      44454E4F 
 4192      524D5F5F 
 4193 1775 01       		.byte	0x1
 4194 1776 00       		.uleb128 0
 4195 1777 5F5F464C 		.ascii "__FLT32_HAS_INFINITY__ 1\0"
 4195      5433325F 
 4195      4841535F 
 4195      494E4649 
 4195      4E495459 
 4196 1790 01       		.byte	0x1
 4197 1791 00       		.uleb128 0
 4198 1792 5F5F464C 		.ascii "__FLT32_HAS_QUIET_NAN__ 1\0"
 4198      5433325F 
 4198      4841535F 
 4198      51554945 
 4198      545F4E41 
 4199 17ac 01       		.byte	0x1
 4200 17ad 00       		.uleb128 0
 4201 17ae 5F5F464C 		.ascii "__FLT64_MANT_DIG__ 53\0"
 4201      5436345F 
 4201      4D414E54 
 4201      5F444947 
 4201      5F5F2035 
 4202 17c4 01       		.byte	0x1
 4203 17c5 00       		.uleb128 0
 4204 17c6 5F5F464C 		.ascii "__FLT64_DIG__ 15\0"
 4204      5436345F 
 4204      4449475F 
 4204      5F203135 
 4204      00
 4205 17d7 01       		.byte	0x1
 4206 17d8 00       		.uleb128 0
 4207 17d9 5F5F464C 		.ascii "__FLT64_MIN_EXP__ (-1021)\0"
GAS LISTING C:\Users\PRESID~1\AppData\Local\Temp\cc1SpG1Y.s 			page 111


 4207      5436345F 
 4207      4D494E5F 
 4207      4558505F 
 4207      5F20282D 
 4208 17f3 01       		.byte	0x1
 4209 17f4 00       		.uleb128 0
 4210 17f5 5F5F464C 		.ascii "__FLT64_MIN_10_EXP__ (-307)\0"
 4210      5436345F 
 4210      4D494E5F 
 4210      31305F45 
 4210      58505F5F 
 4211 1811 01       		.byte	0x1
 4212 1812 00       		.uleb128 0
 4213 1813 5F5F464C 		.ascii "__FLT64_MAX_EXP__ 1024\0"
 4213      5436345F 
 4213      4D41585F 
 4213      4558505F 
 4213      5F203130 
 4214 182a 01       		.byte	0x1
 4215 182b 00       		.uleb128 0
 4216 182c 5F5F464C 		.ascii "__FLT64_MAX_10_EXP__ 308\0"
 4216      5436345F 
 4216      4D41585F 
 4216      31305F45 
 4216      58505F5F 
 4217 1845 01       		.byte	0x1
 4218 1846 00       		.uleb128 0
 4219 1847 5F5F464C 		.ascii "__FLT64_DECIMAL_DIG__ 17\0"
 4219      5436345F 
 4219      44454349 
 4219      4D414C5F 
 4219      4449475F 
 4220 1860 01       		.byte	0x1
 4221 1861 00       		.uleb128 0
 4222 1862 5F5F464C 		.ascii "__FLT64_MAX__ 1.79769313486231570814527423731704357e+308F64\0"
 4222      5436345F 
 4222      4D41585F 
 4222      5F20312E 
 4222      37393736 
 4223 189e 01       		.byte	0x1
 4224 189f 00       		.uleb128 0
 4225 18a0 5F5F464C 		.ascii "__FLT64_MIN__ 2.22507385850720138309023271733240406e-308F64\0"
 4225      5436345F 
 4225      4D494E5F 
 4225      5F20322E 
 4225      32323530 
 4226 18dc 01       		.byte	0x1
 4227 18dd 00       		.uleb128 0
 4228 18de 5F5F464C 		.ascii "__FLT64_EPSILON__ 2.22044604925031308084726333618164062e-16F64\0"
 4228      5436345F 
 4228      45505349 
 4228      4C4F4E5F 
 4228      5F20322E 
 4229 191d 01       		.byte	0x1
 4230 191e 00       		.uleb128 0
 4231 191f 5F5F464C 		.ascii "__FLT64_DENORM_MIN__ 4.94065645841246544176568792868221372e-324F64\0"
 4231      5436345F 
GAS LISTING C:\Users\PRESID~1\AppData\Local\Temp\cc1SpG1Y.s 			page 112


 4231      44454E4F 
 4231      524D5F4D 
 4231      494E5F5F 
 4232 1962 01       		.byte	0x1
 4233 1963 00       		.uleb128 0
 4234 1964 5F5F464C 		.ascii "__FLT64_HAS_DENORM__ 1\0"
 4234      5436345F 
 4234      4841535F 
 4234      44454E4F 
 4234      524D5F5F 
 4235 197b 01       		.byte	0x1
 4236 197c 00       		.uleb128 0
 4237 197d 5F5F464C 		.ascii "__FLT64_HAS_INFINITY__ 1\0"
 4237      5436345F 
 4237      4841535F 
 4237      494E4649 
 4237      4E495459 
 4238 1996 01       		.byte	0x1
 4239 1997 00       		.uleb128 0
 4240 1998 5F5F464C 		.ascii "__FLT64_HAS_QUIET_NAN__ 1\0"
 4240      5436345F 
 4240      4841535F 
 4240      51554945 
 4240      545F4E41 
 4241 19b2 01       		.byte	0x1
 4242 19b3 00       		.uleb128 0
 4243 19b4 5F5F464C 		.ascii "__FLT128_MANT_DIG__ 113\0"
 4243      54313238 
 4243      5F4D414E 
 4243      545F4449 
 4243      475F5F20 
 4244 19cc 01       		.byte	0x1
 4245 19cd 00       		.uleb128 0
 4246 19ce 5F5F464C 		.ascii "__FLT128_DIG__ 33\0"
 4246      54313238 
 4246      5F444947 
 4246      5F5F2033 
 4246      3300
 4247 19e0 01       		.byte	0x1
 4248 19e1 00       		.uleb128 0
 4249 19e2 5F5F464C 		.ascii "__FLT128_MIN_EXP__ (-16381)\0"
 4249      54313238 
 4249      5F4D494E 
 4249      5F455850 
 4249      5F5F2028 
 4250 19fe 01       		.byte	0x1
 4251 19ff 00       		.uleb128 0
 4252 1a00 5F5F464C 		.ascii "__FLT128_MIN_10_EXP__ (-4931)\0"
 4252      54313238 
 4252      5F4D494E 
 4252      5F31305F 
 4252      4558505F 
 4253 1a1e 01       		.byte	0x1
 4254 1a1f 00       		.uleb128 0
 4255 1a20 5F5F464C 		.ascii "__FLT128_MAX_EXP__ 16384\0"
 4255      54313238 
 4255      5F4D4158 
GAS LISTING C:\Users\PRESID~1\AppData\Local\Temp\cc1SpG1Y.s 			page 113


 4255      5F455850 
 4255      5F5F2031 
 4256 1a39 01       		.byte	0x1
 4257 1a3a 00       		.uleb128 0
 4258 1a3b 5F5F464C 		.ascii "__FLT128_MAX_10_EXP__ 4932\0"
 4258      54313238 
 4258      5F4D4158 
 4258      5F31305F 
 4258      4558505F 
 4259 1a56 01       		.byte	0x1
 4260 1a57 00       		.uleb128 0
 4261 1a58 5F5F464C 		.ascii "__FLT128_DECIMAL_DIG__ 36\0"
 4261      54313238 
 4261      5F444543 
 4261      494D414C 
 4261      5F444947 
 4262 1a72 01       		.byte	0x1
 4263 1a73 00       		.uleb128 0
 4264 1a74 5F5F464C 		.ascii "__FLT128_MAX__ 1.18973149535723176508575932662800702e+4932F128\0"
 4264      54313238 
 4264      5F4D4158 
 4264      5F5F2031 
 4264      2E313839 
 4265 1ab3 01       		.byte	0x1
 4266 1ab4 00       		.uleb128 0
 4267 1ab5 5F5F464C 		.ascii "__FLT128_MIN__ 3.36210314311209350626267781732175260e-4932F128\0"
 4267      54313238 
 4267      5F4D494E 
 4267      5F5F2033 
 4267      2E333632 
 4268 1af4 01       		.byte	0x1
 4269 1af5 00       		.uleb128 0
 4270 1af6 5F5F464C 		.ascii "__FLT128_EPSILON__ 1.92592994438723585305597794258492732e-34F128\0"
 4270      54313238 
 4270      5F455053 
 4270      494C4F4E 
 4270      5F5F2031 
 4271 1b37 01       		.byte	0x1
 4272 1b38 00       		.uleb128 0
 4273 1b39 5F5F464C 		.ascii "__FLT128_DENORM_MIN__ 6.47517511943802511092443895822764655e-4966F128\0"
 4273      54313238 
 4273      5F44454E 
 4273      4F524D5F 
 4273      4D494E5F 
 4274 1b7f 01       		.byte	0x1
 4275 1b80 00       		.uleb128 0
 4276 1b81 5F5F464C 		.ascii "__FLT128_HAS_DENORM__ 1\0"
 4276      54313238 
 4276      5F484153 
 4276      5F44454E 
 4276      4F524D5F 
 4277 1b99 01       		.byte	0x1
 4278 1b9a 00       		.uleb128 0
 4279 1b9b 5F5F464C 		.ascii "__FLT128_HAS_INFINITY__ 1\0"
 4279      54313238 
 4279      5F484153 
 4279      5F494E46 
GAS LISTING C:\Users\PRESID~1\AppData\Local\Temp\cc1SpG1Y.s 			page 114


 4279      494E4954 
 4280 1bb5 01       		.byte	0x1
 4281 1bb6 00       		.uleb128 0
 4282 1bb7 5F5F464C 		.ascii "__FLT128_HAS_QUIET_NAN__ 1\0"
 4282      54313238 
 4282      5F484153 
 4282      5F515549 
 4282      45545F4E 
 4283 1bd2 01       		.byte	0x1
 4284 1bd3 00       		.uleb128 0
 4285 1bd4 5F5F464C 		.ascii "__FLT32X_MANT_DIG__ 53\0"
 4285      54333258 
 4285      5F4D414E 
 4285      545F4449 
 4285      475F5F20 
 4286 1beb 01       		.byte	0x1
 4287 1bec 00       		.uleb128 0
 4288 1bed 5F5F464C 		.ascii "__FLT32X_DIG__ 15\0"
 4288      54333258 
 4288      5F444947 
 4288      5F5F2031 
 4288      3500
 4289 1bff 01       		.byte	0x1
 4290 1c00 00       		.uleb128 0
 4291 1c01 5F5F464C 		.ascii "__FLT32X_MIN_EXP__ (-1021)\0"
 4291      54333258 
 4291      5F4D494E 
 4291      5F455850 
 4291      5F5F2028 
 4292 1c1c 01       		.byte	0x1
 4293 1c1d 00       		.uleb128 0
 4294 1c1e 5F5F464C 		.ascii "__FLT32X_MIN_10_EXP__ (-307)\0"
 4294      54333258 
 4294      5F4D494E 
 4294      5F31305F 
 4294      4558505F 
 4295 1c3b 01       		.byte	0x1
 4296 1c3c 00       		.uleb128 0
 4297 1c3d 5F5F464C 		.ascii "__FLT32X_MAX_EXP__ 1024\0"
 4297      54333258 
 4297      5F4D4158 
 4297      5F455850 
 4297      5F5F2031 
 4298 1c55 01       		.byte	0x1
 4299 1c56 00       		.uleb128 0
 4300 1c57 5F5F464C 		.ascii "__FLT32X_MAX_10_EXP__ 308\0"
 4300      54333258 
 4300      5F4D4158 
 4300      5F31305F 
 4300      4558505F 
 4301 1c71 01       		.byte	0x1
 4302 1c72 00       		.uleb128 0
 4303 1c73 5F5F464C 		.ascii "__FLT32X_DECIMAL_DIG__ 17\0"
 4303      54333258 
 4303      5F444543 
 4303      494D414C 
 4303      5F444947 
GAS LISTING C:\Users\PRESID~1\AppData\Local\Temp\cc1SpG1Y.s 			page 115


 4304 1c8d 01       		.byte	0x1
 4305 1c8e 00       		.uleb128 0
 4306 1c8f 5F5F464C 		.ascii "__FLT32X_MAX__ 1.79769313486231570814527423731704357e+308F32x\0"
 4306      54333258 
 4306      5F4D4158 
 4306      5F5F2031 
 4306      2E373937 
 4307 1ccd 01       		.byte	0x1
 4308 1cce 00       		.uleb128 0
 4309 1ccf 5F5F464C 		.ascii "__FLT32X_MIN__ 2.22507385850720138309023271733240406e-308F32x\0"
 4309      54333258 
 4309      5F4D494E 
 4309      5F5F2032 
 4309      2E323235 
 4310 1d0d 01       		.byte	0x1
 4311 1d0e 00       		.uleb128 0
 4312 1d0f 5F5F464C 		.ascii "__FLT32X_EPSILON__ 2.22044604925031308084726333618164062e-16F32x\0"
 4312      54333258 
 4312      5F455053 
 4312      494C4F4E 
 4312      5F5F2032 
 4313 1d50 01       		.byte	0x1
 4314 1d51 00       		.uleb128 0
 4315 1d52 5F5F464C 		.ascii "__FLT32X_DENORM_MIN__ 4.94065645841246544176568792868221372e-324F32x\0"
 4315      54333258 
 4315      5F44454E 
 4315      4F524D5F 
 4315      4D494E5F 
 4316 1d97 01       		.byte	0x1
 4317 1d98 00       		.uleb128 0
 4318 1d99 5F5F464C 		.ascii "__FLT32X_HAS_DENORM__ 1\0"
 4318      54333258 
 4318      5F484153 
 4318      5F44454E 
 4318      4F524D5F 
 4319 1db1 01       		.byte	0x1
 4320 1db2 00       		.uleb128 0
 4321 1db3 5F5F464C 		.ascii "__FLT32X_HAS_INFINITY__ 1\0"
 4321      54333258 
 4321      5F484153 
 4321      5F494E46 
 4321      494E4954 
 4322 1dcd 01       		.byte	0x1
 4323 1dce 00       		.uleb128 0
 4324 1dcf 5F5F464C 		.ascii "__FLT32X_HAS_QUIET_NAN__ 1\0"
 4324      54333258 
 4324      5F484153 
 4324      5F515549 
 4324      45545F4E 
 4325 1dea 01       		.byte	0x1
 4326 1deb 00       		.uleb128 0
 4327 1dec 5F5F464C 		.ascii "__FLT64X_MANT_DIG__ 64\0"
 4327      54363458 
 4327      5F4D414E 
 4327      545F4449 
 4327      475F5F20 
 4328 1e03 01       		.byte	0x1
GAS LISTING C:\Users\PRESID~1\AppData\Local\Temp\cc1SpG1Y.s 			page 116


 4329 1e04 00       		.uleb128 0
 4330 1e05 5F5F464C 		.ascii "__FLT64X_DIG__ 18\0"
 4330      54363458 
 4330      5F444947 
 4330      5F5F2031 
 4330      3800
 4331 1e17 01       		.byte	0x1
 4332 1e18 00       		.uleb128 0
 4333 1e19 5F5F464C 		.ascii "__FLT64X_MIN_EXP__ (-16381)\0"
 4333      54363458 
 4333      5F4D494E 
 4333      5F455850 
 4333      5F5F2028 
 4334 1e35 01       		.byte	0x1
 4335 1e36 00       		.uleb128 0
 4336 1e37 5F5F464C 		.ascii "__FLT64X_MIN_10_EXP__ (-4931)\0"
 4336      54363458 
 4336      5F4D494E 
 4336      5F31305F 
 4336      4558505F 
 4337 1e55 01       		.byte	0x1
 4338 1e56 00       		.uleb128 0
 4339 1e57 5F5F464C 		.ascii "__FLT64X_MAX_EXP__ 16384\0"
 4339      54363458 
 4339      5F4D4158 
 4339      5F455850 
 4339      5F5F2031 
 4340 1e70 01       		.byte	0x1
 4341 1e71 00       		.uleb128 0
 4342 1e72 5F5F464C 		.ascii "__FLT64X_MAX_10_EXP__ 4932\0"
 4342      54363458 
 4342      5F4D4158 
 4342      5F31305F 
 4342      4558505F 
 4343 1e8d 01       		.byte	0x1
 4344 1e8e 00       		.uleb128 0
 4345 1e8f 5F5F464C 		.ascii "__FLT64X_DECIMAL_DIG__ 21\0"
 4345      54363458 
 4345      5F444543 
 4345      494D414C 
 4345      5F444947 
 4346 1ea9 01       		.byte	0x1
 4347 1eaa 00       		.uleb128 0
 4348 1eab 5F5F464C 		.ascii "__FLT64X_MAX__ 1.18973149535723176502126385303097021e+4932F64x\0"
 4348      54363458 
 4348      5F4D4158 
 4348      5F5F2031 
 4348      2E313839 
 4349 1eea 01       		.byte	0x1
 4350 1eeb 00       		.uleb128 0
 4351 1eec 5F5F464C 		.ascii "__FLT64X_MIN__ 3.36210314311209350626267781732175260e-4932F64x\0"
 4351      54363458 
 4351      5F4D494E 
 4351      5F5F2033 
 4351      2E333632 
 4352 1f2b 01       		.byte	0x1
 4353 1f2c 00       		.uleb128 0
GAS LISTING C:\Users\PRESID~1\AppData\Local\Temp\cc1SpG1Y.s 			page 117


 4354 1f2d 5F5F464C 		.ascii "__FLT64X_EPSILON__ 1.08420217248550443400745280086994171e-19F64x\0"
 4354      54363458 
 4354      5F455053 
 4354      494C4F4E 
 4354      5F5F2031 
 4355 1f6e 01       		.byte	0x1
 4356 1f6f 00       		.uleb128 0
 4357 1f70 5F5F464C 		.ascii "__FLT64X_DENORM_MIN__ 3.64519953188247460252840593361941982e-4951F64x\0"
 4357      54363458 
 4357      5F44454E 
 4357      4F524D5F 
 4357      4D494E5F 
 4358 1fb6 01       		.byte	0x1
 4359 1fb7 00       		.uleb128 0
 4360 1fb8 5F5F464C 		.ascii "__FLT64X_HAS_DENORM__ 1\0"
 4360      54363458 
 4360      5F484153 
 4360      5F44454E 
 4360      4F524D5F 
 4361 1fd0 01       		.byte	0x1
 4362 1fd1 00       		.uleb128 0
 4363 1fd2 5F5F464C 		.ascii "__FLT64X_HAS_INFINITY__ 1\0"
 4363      54363458 
 4363      5F484153 
 4363      5F494E46 
 4363      494E4954 
 4364 1fec 01       		.byte	0x1
 4365 1fed 00       		.uleb128 0
 4366 1fee 5F5F464C 		.ascii "__FLT64X_HAS_QUIET_NAN__ 1\0"
 4366      54363458 
 4366      5F484153 
 4366      5F515549 
 4366      45545F4E 
 4367 2009 01       		.byte	0x1
 4368 200a 00       		.uleb128 0
 4369 200b 5F5F4445 		.ascii "__DEC32_MANT_DIG__ 7\0"
 4369      4333325F 
 4369      4D414E54 
 4369      5F444947 
 4369      5F5F2037 
 4370 2020 01       		.byte	0x1
 4371 2021 00       		.uleb128 0
 4372 2022 5F5F4445 		.ascii "__DEC32_MIN_EXP__ (-94)\0"
 4372      4333325F 
 4372      4D494E5F 
 4372      4558505F 
 4372      5F20282D 
 4373 203a 01       		.byte	0x1
 4374 203b 00       		.uleb128 0
 4375 203c 5F5F4445 		.ascii "__DEC32_MAX_EXP__ 97\0"
 4375      4333325F 
 4375      4D41585F 
 4375      4558505F 
 4375      5F203937 
 4376 2051 01       		.byte	0x1
 4377 2052 00       		.uleb128 0
 4378 2053 5F5F4445 		.ascii "__DEC32_MIN__ 1E-95DF\0"
GAS LISTING C:\Users\PRESID~1\AppData\Local\Temp\cc1SpG1Y.s 			page 118


 4378      4333325F 
 4378      4D494E5F 
 4378      5F203145 
 4378      2D393544 
 4379 2069 01       		.byte	0x1
 4380 206a 00       		.uleb128 0
 4381 206b 5F5F4445 		.ascii "__DEC32_MAX__ 9.999999E96DF\0"
 4381      4333325F 
 4381      4D41585F 
 4381      5F20392E 
 4381      39393939 
 4382 2087 01       		.byte	0x1
 4383 2088 00       		.uleb128 0
 4384 2089 5F5F4445 		.ascii "__DEC32_EPSILON__ 1E-6DF\0"
 4384      4333325F 
 4384      45505349 
 4384      4C4F4E5F 
 4384      5F203145 
 4385 20a2 01       		.byte	0x1
 4386 20a3 00       		.uleb128 0
 4387 20a4 5F5F4445 		.ascii "__DEC32_SUBNORMAL_MIN__ 0.000001E-95DF\0"
 4387      4333325F 
 4387      5355424E 
 4387      4F524D41 
 4387      4C5F4D49 
 4388 20cb 01       		.byte	0x1
 4389 20cc 00       		.uleb128 0
 4390 20cd 5F5F4445 		.ascii "__DEC64_MANT_DIG__ 16\0"
 4390      4336345F 
 4390      4D414E54 
 4390      5F444947 
 4390      5F5F2031 
 4391 20e3 01       		.byte	0x1
 4392 20e4 00       		.uleb128 0
 4393 20e5 5F5F4445 		.ascii "__DEC64_MIN_EXP__ (-382)\0"
 4393      4336345F 
 4393      4D494E5F 
 4393      4558505F 
 4393      5F20282D 
 4394 20fe 01       		.byte	0x1
 4395 20ff 00       		.uleb128 0
 4396 2100 5F5F4445 		.ascii "__DEC64_MAX_EXP__ 385\0"
 4396      4336345F 
 4396      4D41585F 
 4396      4558505F 
 4396      5F203338 
 4397 2116 01       		.byte	0x1
 4398 2117 00       		.uleb128 0
 4399 2118 5F5F4445 		.ascii "__DEC64_MIN__ 1E-383DD\0"
 4399      4336345F 
 4399      4D494E5F 
 4399      5F203145 
 4399      2D333833 
 4400 212f 01       		.byte	0x1
 4401 2130 00       		.uleb128 0
 4402 2131 5F5F4445 		.ascii "__DEC64_MAX__ 9.999999999999999E384DD\0"
 4402      4336345F 
GAS LISTING C:\Users\PRESID~1\AppData\Local\Temp\cc1SpG1Y.s 			page 119


 4402      4D41585F 
 4402      5F20392E 
 4402      39393939 
 4403 2157 01       		.byte	0x1
 4404 2158 00       		.uleb128 0
 4405 2159 5F5F4445 		.ascii "__DEC64_EPSILON__ 1E-15DD\0"
 4405      4336345F 
 4405      45505349 
 4405      4C4F4E5F 
 4405      5F203145 
 4406 2173 01       		.byte	0x1
 4407 2174 00       		.uleb128 0
 4408 2175 5F5F4445 		.ascii "__DEC64_SUBNORMAL_MIN__ 0.000000000000001E-383DD\0"
 4408      4336345F 
 4408      5355424E 
 4408      4F524D41 
 4408      4C5F4D49 
 4409 21a6 01       		.byte	0x1
 4410 21a7 00       		.uleb128 0
 4411 21a8 5F5F4445 		.ascii "__DEC128_MANT_DIG__ 34\0"
 4411      43313238 
 4411      5F4D414E 
 4411      545F4449 
 4411      475F5F20 
 4412 21bf 01       		.byte	0x1
 4413 21c0 00       		.uleb128 0
 4414 21c1 5F5F4445 		.ascii "__DEC128_MIN_EXP__ (-6142)\0"
 4414      43313238 
 4414      5F4D494E 
 4414      5F455850 
 4414      5F5F2028 
 4415 21dc 01       		.byte	0x1
 4416 21dd 00       		.uleb128 0
 4417 21de 5F5F4445 		.ascii "__DEC128_MAX_EXP__ 6145\0"
 4417      43313238 
 4417      5F4D4158 
 4417      5F455850 
 4417      5F5F2036 
 4418 21f6 01       		.byte	0x1
 4419 21f7 00       		.uleb128 0
 4420 21f8 5F5F4445 		.ascii "__DEC128_MIN__ 1E-6143DL\0"
 4420      43313238 
 4420      5F4D494E 
 4420      5F5F2031 
 4420      452D3631 
 4421 2211 01       		.byte	0x1
 4422 2212 00       		.uleb128 0
 4423 2213 5F5F4445 		.ascii "__DEC128_MAX__ 9.999999999999999999999999999999999E6144DL\0"
 4423      43313238 
 4423      5F4D4158 
 4423      5F5F2039 
 4423      2E393939 
 4424 224d 01       		.byte	0x1
 4425 224e 00       		.uleb128 0
 4426 224f 5F5F4445 		.ascii "__DEC128_EPSILON__ 1E-33DL\0"
 4426      43313238 
 4426      5F455053 
GAS LISTING C:\Users\PRESID~1\AppData\Local\Temp\cc1SpG1Y.s 			page 120


 4426      494C4F4E 
 4426      5F5F2031 
 4427 226a 01       		.byte	0x1
 4428 226b 00       		.uleb128 0
 4429 226c 5F5F4445 		.ascii "__DEC128_SUBNORMAL_MIN__ 0.000000000000000000000000000000001E-6143DL\0"
 4429      43313238 
 4429      5F535542 
 4429      4E4F524D 
 4429      414C5F4D 
 4430 22b1 01       		.byte	0x1
 4431 22b2 00       		.uleb128 0
 4432 22b3 5F5F5245 		.ascii "__REGISTER_PREFIX__ \0"
 4432      47495354 
 4432      45525F50 
 4432      52454649 
 4432      585F5F20 
 4433 22c8 01       		.byte	0x1
 4434 22c9 00       		.uleb128 0
 4435 22ca 5F5F5553 		.ascii "__USER_LABEL_PREFIX__ _\0"
 4435      45525F4C 
 4435      4142454C 
 4435      5F505245 
 4435      4649585F 
 4436 22e2 01       		.byte	0x1
 4437 22e3 00       		.uleb128 0
 4438 22e4 5F5F474E 		.ascii "__GNUC_GNU_INLINE__ 1\0"
 4438      55435F47 
 4438      4E555F49 
 4438      4E4C494E 
 4438      455F5F20 
 4439 22fa 01       		.byte	0x1
 4440 22fb 00       		.uleb128 0
 4441 22fc 5F5F4E4F 		.ascii "__NO_INLINE__ 1\0"
 4441      5F494E4C 
 4441      494E455F 
 4441      5F203100 
 4442 230c 01       		.byte	0x1
 4443 230d 00       		.uleb128 0
 4444 230e 5F5F5354 		.ascii "__STRICT_ANSI__ 1\0"
 4444      52494354 
 4444      5F414E53 
 4444      495F5F20 
 4444      3100
 4445 2320 01       		.byte	0x1
 4446 2321 00       		.uleb128 0
 4447 2322 5F5F4743 		.ascii "__GCC_ATOMIC_BOOL_LOCK_FREE 1\0"
 4447      435F4154 
 4447      4F4D4943 
 4447      5F424F4F 
 4447      4C5F4C4F 
 4448 2340 01       		.byte	0x1
 4449 2341 00       		.uleb128 0
 4450 2342 5F5F4743 		.ascii "__GCC_ATOMIC_CHAR_LOCK_FREE 1\0"
 4450      435F4154 
 4450      4F4D4943 
 4450      5F434841 
 4450      525F4C4F 
GAS LISTING C:\Users\PRESID~1\AppData\Local\Temp\cc1SpG1Y.s 			page 121


 4451 2360 01       		.byte	0x1
 4452 2361 00       		.uleb128 0
 4453 2362 5F5F4743 		.ascii "__GCC_ATOMIC_CHAR16_T_LOCK_FREE 1\0"
 4453      435F4154 
 4453      4F4D4943 
 4453      5F434841 
 4453      5231365F 
 4454 2384 01       		.byte	0x1
 4455 2385 00       		.uleb128 0
 4456 2386 5F5F4743 		.ascii "__GCC_ATOMIC_CHAR32_T_LOCK_FREE 1\0"
 4456      435F4154 
 4456      4F4D4943 
 4456      5F434841 
 4456      5233325F 
 4457 23a8 01       		.byte	0x1
 4458 23a9 00       		.uleb128 0
 4459 23aa 5F5F4743 		.ascii "__GCC_ATOMIC_WCHAR_T_LOCK_FREE 1\0"
 4459      435F4154 
 4459      4F4D4943 
 4459      5F574348 
 4459      41525F54 
 4460 23cb 01       		.byte	0x1
 4461 23cc 00       		.uleb128 0
 4462 23cd 5F5F4743 		.ascii "__GCC_ATOMIC_SHORT_LOCK_FREE 1\0"
 4462      435F4154 
 4462      4F4D4943 
 4462      5F53484F 
 4462      52545F4C 
 4463 23ec 01       		.byte	0x1
 4464 23ed 00       		.uleb128 0
 4465 23ee 5F5F4743 		.ascii "__GCC_ATOMIC_INT_LOCK_FREE 1\0"
 4465      435F4154 
 4465      4F4D4943 
 4465      5F494E54 
 4465      5F4C4F43 
 4466 240b 01       		.byte	0x1
 4467 240c 00       		.uleb128 0
 4468 240d 5F5F4743 		.ascii "__GCC_ATOMIC_LONG_LOCK_FREE 1\0"
 4468      435F4154 
 4468      4F4D4943 
 4468      5F4C4F4E 
 4468      475F4C4F 
 4469 242b 01       		.byte	0x1
 4470 242c 00       		.uleb128 0
 4471 242d 5F5F4743 		.ascii "__GCC_ATOMIC_LLONG_LOCK_FREE 1\0"
 4471      435F4154 
 4471      4F4D4943 
 4471      5F4C4C4F 
 4471      4E475F4C 
 4472 244c 01       		.byte	0x1
 4473 244d 00       		.uleb128 0
 4474 244e 5F5F4743 		.ascii "__GCC_ATOMIC_TEST_AND_SET_TRUEVAL 1\0"
 4474      435F4154 
 4474      4F4D4943 
 4474      5F544553 
 4474      545F414E 
 4475 2472 01       		.byte	0x1
GAS LISTING C:\Users\PRESID~1\AppData\Local\Temp\cc1SpG1Y.s 			page 122


 4476 2473 00       		.uleb128 0
 4477 2474 5F5F4743 		.ascii "__GCC_ATOMIC_POINTER_LOCK_FREE 1\0"
 4477      435F4154 
 4477      4F4D4943 
 4477      5F504F49 
 4477      4E544552 
 4478 2495 01       		.byte	0x1
 4479 2496 00       		.uleb128 0
 4480 2497 5F5F4743 		.ascii "__GCC_HAVE_DWARF2_CFI_ASM 1\0"
 4480      435F4841 
 4480      56455F44 
 4480      57415246 
 4480      325F4346 
 4481 24b3 01       		.byte	0x1
 4482 24b4 00       		.uleb128 0
 4483 24b5 5F5F5052 		.ascii "__PRAGMA_REDEFINE_EXTNAME 1\0"
 4483      41474D41 
 4483      5F524544 
 4483      4546494E 
 4483      455F4558 
 4484 24d1 01       		.byte	0x1
 4485 24d2 00       		.uleb128 0
 4486 24d3 5F5F5349 		.ascii "__SIZEOF_WCHAR_T__ 2\0"
 4486      5A454F46 
 4486      5F574348 
 4486      41525F54 
 4486      5F5F2032 
 4487 24e8 01       		.byte	0x1
 4488 24e9 00       		.uleb128 0
 4489 24ea 5F5F5349 		.ascii "__SIZEOF_WINT_T__ 2\0"
 4489      5A454F46 
 4489      5F57494E 
 4489      545F545F 
 4489      5F203200 
 4490 24fe 01       		.byte	0x1
 4491 24ff 00       		.uleb128 0
 4492 2500 5F5F5349 		.ascii "__SIZEOF_PTRDIFF_T__ 4\0"
 4492      5A454F46 
 4492      5F505452 
 4492      44494646 
 4492      5F545F5F 
 4493 2517 01       		.byte	0x1
 4494 2518 00       		.uleb128 0
 4495 2519 5F5F6933 		.ascii "__i386 1\0"
 4495      38362031 
 4495      00
 4496 2522 01       		.byte	0x1
 4497 2523 00       		.uleb128 0
 4498 2524 5F5F6933 		.ascii "__i386__ 1\0"
 4498      38365F5F 
 4498      203100
 4499 252f 01       		.byte	0x1
 4500 2530 00       		.uleb128 0
 4501 2531 5F5F5349 		.ascii "__SIZEOF_FLOAT80__ 12\0"
 4501      5A454F46 
 4501      5F464C4F 
 4501      41543830 
GAS LISTING C:\Users\PRESID~1\AppData\Local\Temp\cc1SpG1Y.s 			page 123


 4501      5F5F2031 
 4502 2547 01       		.byte	0x1
 4503 2548 00       		.uleb128 0
 4504 2549 5F5F5349 		.ascii "__SIZEOF_FLOAT128__ 16\0"
 4504      5A454F46 
 4504      5F464C4F 
 4504      41543132 
 4504      385F5F20 
 4505 2560 01       		.byte	0x1
 4506 2561 00       		.uleb128 0
 4507 2562 5F5F4154 		.ascii "__ATOMIC_HLE_ACQUIRE 65536\0"
 4507      4F4D4943 
 4507      5F484C45 
 4507      5F414351 
 4507      55495245 
 4508 257d 01       		.byte	0x1
 4509 257e 00       		.uleb128 0
 4510 257f 5F5F4154 		.ascii "__ATOMIC_HLE_RELEASE 131072\0"
 4510      4F4D4943 
 4510      5F484C45 
 4510      5F52454C 
 4510      45415345 
 4511 259b 01       		.byte	0x1
 4512 259c 00       		.uleb128 0
 4513 259d 5F5F4743 		.ascii "__GCC_ASM_FLAG_OUTPUTS__ 1\0"
 4513      435F4153 
 4513      4D5F464C 
 4513      41475F4F 
 4513      55545055 
 4514 25b8 01       		.byte	0x1
 4515 25b9 00       		.uleb128 0
 4516 25ba 5F5F7475 		.ascii "__tune_i386__ 1\0"
 4516      6E655F69 
 4516      3338365F 
 4516      5F203100 
 4517 25ca 01       		.byte	0x1
 4518 25cb 00       		.uleb128 0
 4519 25cc 5F5F636F 		.ascii "__code_model_32__ 1\0"
 4519      64655F6D 
 4519      6F64656C 
 4519      5F33325F 
 4519      5F203100 
 4520 25e0 01       		.byte	0x1
 4521 25e1 00       		.uleb128 0
 4522 25e2 5F5F5345 		.ascii "__SEG_FS 1\0"
 4522      475F4653 
 4522      203100
 4523 25ed 01       		.byte	0x1
 4524 25ee 00       		.uleb128 0
 4525 25ef 5F5F5345 		.ascii "__SEG_GS 1\0"
 4525      475F4753 
 4525      203100
 4526 25fa 01       		.byte	0x1
 4527 25fb 00       		.uleb128 0
 4528 25fc 5F583836 		.ascii "_X86_ 1\0"
 4528      5F203100 
 4529 2604 01       		.byte	0x1
GAS LISTING C:\Users\PRESID~1\AppData\Local\Temp\cc1SpG1Y.s 			page 124


 4530 2605 00       		.uleb128 0
 4531 2606 5F5F7374 		.ascii "__stdcall __attribute__((__stdcall__))\0"
 4531      6463616C 
 4531      6C205F5F 
 4531      61747472 
 4531      69627574 
 4532 262d 01       		.byte	0x1
 4533 262e 00       		.uleb128 0
 4534 262f 5F5F6661 		.ascii "__fastcall __attribute__((__fastcall__))\0"
 4534      73746361 
 4534      6C6C205F 
 4534      5F617474 
 4534      72696275 
 4535 2658 01       		.byte	0x1
 4536 2659 00       		.uleb128 0
 4537 265a 5F5F7468 		.ascii "__thiscall __attribute__((__thiscall__))\0"
 4537      69736361 
 4537      6C6C205F 
 4537      5F617474 
 4537      72696275 
 4538 2683 01       		.byte	0x1
 4539 2684 00       		.uleb128 0
 4540 2685 5F5F6364 		.ascii "__cdecl __attribute__((__cdecl__))\0"
 4540      65636C20 
 4540      5F5F6174 
 4540      74726962 
 4540      7574655F 
 4541 26a8 01       		.byte	0x1
 4542 26a9 00       		.uleb128 0
 4543 26aa 5F5F4758 		.ascii "__GXX_MERGED_TYPEINFO_NAMES 0\0"
 4543      585F4D45 
 4543      52474544 
 4543      5F545950 
 4543      45494E46 
 4544 26c8 01       		.byte	0x1
 4545 26c9 00       		.uleb128 0
 4546 26ca 5F5F4758 		.ascii "__GXX_TYPEINFO_EQUALITY_INLINE 0\0"
 4546      585F5459 
 4546      5045494E 
 4546      464F5F45 
 4546      5155414C 
 4547 26eb 01       		.byte	0x1
 4548 26ec 00       		.uleb128 0
 4549 26ed 5F5F4D53 		.ascii "__MSVCRT__ 1\0"
 4549      56435254 
 4549      5F5F2031 
 4549      00
 4550 26fa 01       		.byte	0x1
 4551 26fb 00       		.uleb128 0
 4552 26fc 5F5F4D49 		.ascii "__MINGW32__ 1\0"
 4552      4E475733 
 4552      325F5F20 
 4552      3100
 4553 270a 01       		.byte	0x1
 4554 270b 00       		.uleb128 0
 4555 270c 5F57494E 		.ascii "_WIN32 1\0"
 4555      33322031 
GAS LISTING C:\Users\PRESID~1\AppData\Local\Temp\cc1SpG1Y.s 			page 125


 4555      00
 4556 2715 01       		.byte	0x1
 4557 2716 00       		.uleb128 0
 4558 2717 5F5F5749 		.ascii "__WIN32 1\0"
 4558      4E333220 
 4558      3100
 4559 2721 01       		.byte	0x1
 4560 2722 00       		.uleb128 0
 4561 2723 5F5F5749 		.ascii "__WIN32__ 1\0"
 4561      4E33325F 
 4561      5F203100 
 4562 272f 01       		.byte	0x1
 4563 2730 00       		.uleb128 0
 4564 2731 5F5F5749 		.ascii "__WINNT 1\0"
 4564      4E4E5420 
 4564      3100
 4565 273b 01       		.byte	0x1
 4566 273c 00       		.uleb128 0
 4567 273d 5F5F5749 		.ascii "__WINNT__ 1\0"
 4567      4E4E545F 
 4567      5F203100 
 4568 2749 01       		.byte	0x1
 4569 274a 00       		.uleb128 0
 4570 274b 5F494E54 		.ascii "_INTEGRAL_MAX_BITS 64\0"
 4570      45475241 
 4570      4C5F4D41 
 4570      585F4249 
 4570      54532036 
 4571 2761 01       		.byte	0x1
 4572 2762 00       		.uleb128 0
 4573 2763 5F5F6465 		.ascii "__declspec(x) __attribute__((x))\0"
 4573      636C7370 
 4573      65632878 
 4573      29205F5F 
 4573      61747472 
 4574 2784 01       		.byte	0x1
 4575 2785 00       		.uleb128 0
 4576 2786 5F5F4445 		.ascii "__DECIMAL_BID_FORMAT__ 1\0"
 4576      43494D41 
 4576      4C5F4249 
 4576      445F464F 
 4576      524D4154 
 4577 279f 01       		.byte	0x1
 4578 27a0 00       		.uleb128 0
 4579 27a1 4346475F 		.ascii "CFG_PROCESSOR 3\0"
 4579      50524F43 
 4579      4553534F 
 4579      52203300 
 4580 27b1 03       		.byte	0x3
 4581 27b2 00       		.uleb128 0
 4582 27b3 01       		.uleb128 0x1
 4583              		.file 9 "C:/Users/president/Desktop/sbx/input/src/os_base/os_firstinc.h"
 4584 27b4 03       		.byte	0x3
 4585 27b5 01       		.uleb128 0x1
 4586 27b6 09       		.uleb128 0x9
 4587 27b7 01       		.byte	0x1
 4588 27b8 02       		.uleb128 0x2
GAS LISTING C:\Users\PRESID~1\AppData\Local\Temp\cc1SpG1Y.s 			page 126


 4589 27b9 5F4F535F 		.ascii "_OS_FIRSTINC_H_ \0"
 4589      46495253 
 4589      54494E43 
 4589      5F485F20 
 4589      00
 4590              		.file 10 "c:/users/president/desktop/sbx/input/src/os_config.h"
 4591 27ca 03       		.byte	0x3
 4592 27cb 04       		.uleb128 0x4
 4593 27cc 0A       		.uleb128 0xa
 4594 27cd 01       		.byte	0x1
 4595 27ce 02       		.uleb128 0x2
 4596 27cf 5F4F535F 		.ascii "_OS_CONFIG_H_ \0"
 4596      434F4E46 
 4596      49475F48 
 4596      5F2000
 4597 27de 01       		.byte	0x1
 4598 27df 05       		.uleb128 0x5
 4599 27e0 494E5445 		.ascii "INTEGER_LLP64_IL32P64 1u\0"
 4599      4745525F 
 4599      4C4C5036 
 4599      345F494C 
 4599      33325036 
 4600 27f9 01       		.byte	0x1
 4601 27fa 06       		.uleb128 0x6
 4602 27fb 494E5445 		.ascii "INTEGER_LP64_I32LP64 2u\0"
 4602      4745525F 
 4602      4C503634 
 4602      5F493332 
 4602      4C503634 
 4603 2813 01       		.byte	0x1
 4604 2814 07       		.uleb128 0x7
 4605 2815 494E5445 		.ascii "INTEGER_ILP64 3u\0"
 4605      4745525F 
 4605      494C5036 
 4605      34203375 
 4605      00
 4606 2826 01       		.byte	0x1
 4607 2827 08       		.uleb128 0x8
 4608 2828 494E5445 		.ascii "INTEGER_SILP64 4u\0"
 4608      4745525F 
 4608      53494C50 
 4608      36342034 
 4608      7500
 4609 283a 01       		.byte	0x1
 4610 283b 09       		.uleb128 0x9
 4611 283c 494E5445 		.ascii "INTEGER_MODEL INTEGER_LLP64_IL32P64\0"
 4611      4745525F 
 4611      4D4F4445 
 4611      4C20494E 
 4611      54454745 
 4612 2860 01       		.byte	0x1
 4613 2861 0C       		.uleb128 0xc
 4614 2862 4350505F 		.ascii "CPP_VERSION_NONE 0u\0"
 4614      56455253 
 4614      494F4E5F 
 4614      4E4F4E45 
 4614      20307500 
GAS LISTING C:\Users\PRESID~1\AppData\Local\Temp\cc1SpG1Y.s 			page 127


 4615 2876 01       		.byte	0x1
 4616 2877 0D       		.uleb128 0xd
 4617 2878 4350505F 		.ascii "CPP_VERSION_1998 1u\0"
 4617      56455253 
 4617      494F4E5F 
 4617      31393938 
 4617      20317500 
 4618 288c 01       		.byte	0x1
 4619 288d 0E       		.uleb128 0xe
 4620 288e 4350505F 		.ascii "CPP_VERSION_2003 2u\0"
 4620      56455253 
 4620      494F4E5F 
 4620      32303033 
 4620      20327500 
 4621 28a2 01       		.byte	0x1
 4622 28a3 0F       		.uleb128 0xf
 4623 28a4 4350505F 		.ascii "CPP_VERSION_2007 3u\0"
 4623      56455253 
 4623      494F4E5F 
 4623      32303037 
 4623      20337500 
 4624 28b8 01       		.byte	0x1
 4625 28b9 10       		.uleb128 0x10
 4626 28ba 4350505F 		.ascii "CPP_VERSION_2011 4u\0"
 4626      56455253 
 4626      494F4E5F 
 4626      32303131 
 4626      20347500 
 4627 28ce 01       		.byte	0x1
 4628 28cf 11       		.uleb128 0x11
 4629 28d0 49534F5F 		.ascii "ISO_CPP_VERSION CPP_VERSION_1998\0"
 4629      4350505F 
 4629      56455253 
 4629      494F4E20 
 4629      4350505F 
 4630 28f1 01       		.byte	0x1
 4631 28f2 14       		.uleb128 0x14
 4632 28f3 4249475F 		.ascii "BIG_INT_SIZE 16u\0"
 4632      494E545F 
 4632      53495A45 
 4632      20313675 
 4632      00
 4633 2904 01       		.byte	0x1
 4634 2905 17       		.uleb128 0x17
 4635 2906 4E525F4F 		.ascii "NR_OF_CORES 1u\0"
 4635      465F434F 
 4635      52455320 
 4635      317500
 4636 2915 01       		.byte	0x1
 4637 2916 1B       		.uleb128 0x1b
 4638 2917 4D43555F 		.ascii "MCU_CLOCK_IN_HZ ((uint32)168000000u)\0"
 4638      434C4F43 
 4638      4B5F494E 
 4638      5F485A20 
 4638      28287569 
 4639 293c 01       		.byte	0x1
 4640 293d 1D       		.uleb128 0x1d
GAS LISTING C:\Users\PRESID~1\AppData\Local\Temp\cc1SpG1Y.s 			page 128


 4641 293e 44594E41 		.ascii "DYNAMIC_MEMORY_USED FALSE\0"
 4641      4D49435F 
 4641      4D454D4F 
 4641      52595F55 
 4641      53454420 
 4642 2958 01       		.byte	0x1
 4643 2959 1E       		.uleb128 0x1e
 4644 295a 4C4F4F50 		.ascii "LOOPTIME_IN_USEC ((uint32)10000u)\0"
 4644      54494D45 
 4644      5F494E5F 
 4644      55534543 
 4644      20282875 
 4645 297c 01       		.byte	0x1
 4646 297d 21       		.uleb128 0x21
 4647 297e 48454150 		.ascii "HEAP_SIZE 10000u\0"
 4647      5F53495A 
 4647      45203130 
 4647      30303075 
 4647      00
 4648 298f 01       		.byte	0x1
 4649 2990 22       		.uleb128 0x22
 4650 2991 4D494E5F 		.ascii "MIN_BLOCK_SIZE_HEAP 8u\0"
 4650      424C4F43 
 4650      4B5F5349 
 4650      5A455F48 
 4650      45415020 
 4651 29a8 01       		.byte	0x1
 4652 29a9 23       		.uleb128 0x23
 4653 29aa 48454150 		.ascii "HEAP_OFFSET_FOR_SIZE 0u\0"
 4653      5F4F4646 
 4653      5345545F 
 4653      464F525F 
 4653      53495A45 
 4654 29c2 01       		.byte	0x1
 4655 29c3 24       		.uleb128 0x24
 4656 29c4 48454150 		.ascii "HEAP_OFFSET_FOR_USED_SIZE 4u\0"
 4656      5F4F4646 
 4656      5345545F 
 4656      464F525F 
 4656      55534544 
 4657 29e1 01       		.byte	0x1
 4658 29e2 25       		.uleb128 0x25
 4659 29e3 48454150 		.ascii "HEAP_OFFSET_FOR_CHUNK 8u\0"
 4659      5F4F4646 
 4659      5345545F 
 4659      464F525F 
 4659      4348554E 
 4660 29fc 01       		.byte	0x1
 4661 29fd 28       		.uleb128 0x28
 4662 29fe 4F535F4D 		.ascii "OS_MAIN_STACK_SIZE 0x400u\0"
 4662      41494E5F 
 4662      53544143 
 4662      4B5F5349 
 4662      5A452030 
 4663 2a18 01       		.byte	0x1
 4664 2a19 29       		.uleb128 0x29
 4665 2a1a 4F535F50 		.ascii "OS_PROCESS_STACK_TASK1_SIZE 0x200u\0"
GAS LISTING C:\Users\PRESID~1\AppData\Local\Temp\cc1SpG1Y.s 			page 129


 4665      524F4345 
 4665      53535F53 
 4665      5441434B 
 4665      5F544153 
 4666 2a3d 01       		.byte	0x1
 4667 2a3e 2A       		.uleb128 0x2a
 4668 2a3f 4F535F50 		.ascii "OS_PROCESS_STACK_TASK2_SIZE 0x200u\0"
 4668      524F4345 
 4668      53535F53 
 4668      5441434B 
 4668      5F544153 
 4669 2a62 01       		.byte	0x1
 4670 2a63 2B       		.uleb128 0x2b
 4671 2a64 4F535F50 		.ascii "OS_PROCESS_STACK_TASK3_SIZE 0x200u\0"
 4671      524F4345 
 4671      53535F53 
 4671      5441434B 
 4671      5F544153 
 4672 2a87 01       		.byte	0x1
 4673 2a88 2C       		.uleb128 0x2c
 4674 2a89 4F535F50 		.ascii "OS_PROCESS_STACK_TASK4_SIZE 0x200u\0"
 4674      524F4345 
 4674      53535F53 
 4674      5441434B 
 4674      5F544153 
 4675 2aac 04       		.byte	0x4
 4676 2aad 03       		.byte	0x3
 4677 2aae 05       		.uleb128 0x5
 4678 2aaf 02       		.uleb128 0x2
 4679 2ab0 01       		.byte	0x1
 4680 2ab1 02       		.uleb128 0x2
 4681 2ab2 5F4F535F 		.ascii "_OS_BASE_TYPES_H_ \0"
 4681      42415345 
 4681      5F545950 
 4681      45535F48 
 4681      5F2000
 4682 2ac5 04       		.byte	0x4
 4683 2ac6 03       		.byte	0x3
 4684 2ac7 06       		.uleb128 0x6
 4685 2ac8 03       		.uleb128 0x3
 4686 2ac9 01       		.byte	0x1
 4687 2aca 02       		.uleb128 0x2
 4688 2acb 5F4F535F 		.ascii "_OS_COMMON_H_ \0"
 4688      434F4D4D 
 4688      4F4E5F48 
 4688      5F2000
 4689 2ada 01       		.byte	0x1
 4690 2adb 06       		.uleb128 0x6
 4691 2adc 46414C53 		.ascii "FALSE 0u\0"
 4691      45203075 
 4691      00
 4692 2ae5 01       		.byte	0x1
 4693 2ae6 07       		.uleb128 0x7
 4694 2ae7 54525545 		.ascii "TRUE 1u\0"
 4694      20317500 
 4695 2aef 01       		.byte	0x1
 4696 2af0 08       		.uleb128 0x8
GAS LISTING C:\Users\PRESID~1\AppData\Local\Temp\cc1SpG1Y.s 			page 130


 4697 2af1 46616C73 		.ascii "False FALSE\0"
 4697      65204641 
 4697      4C534500 
 4698 2afd 01       		.byte	0x1
 4699 2afe 09       		.uleb128 0x9
 4700 2aff 54727565 		.ascii "True TRUE\0"
 4700      20545255 
 4700      4500
 4701 2b09 01       		.byte	0x1
 4702 2b0a 0A       		.uleb128 0xa
 4703 2b0b 41434345 		.ascii "ACCEPTED 1u\0"
 4703      50544544 
 4703      20317500 
 4704 2b17 01       		.byte	0x1
 4705 2b18 0B       		.uleb128 0xb
 4706 2b19 52454A45 		.ascii "REJECTED 0u\0"
 4706      43544544 
 4706      20307500 
 4707 2b25 01       		.byte	0x1
 4708 2b26 0C       		.uleb128 0xc
 4709 2b27 4C4F4341 		.ascii "LOCAL static\0"
 4709      4C207374 
 4709      61746963 
 4709      00
 4710 2b34 01       		.byte	0x1
 4711 2b35 0D       		.uleb128 0xd
 4712 2b36 4C4F4341 		.ascii "LOCAL_INLINE static __inline__\0"
 4712      4C5F494E 
 4712      4C494E45 
 4712      20737461 
 4712      74696320 
 4713 2b55 01       		.byte	0x1
 4714 2b56 0E       		.uleb128 0xe
 4715 2b57 474C4F42 		.ascii "GLOBAL_INLINE __inline__\0"
 4715      414C5F49 
 4715      4E4C494E 
 4715      45205F5F 
 4715      696E6C69 
 4716 2b70 01       		.byte	0x1
 4717 2b71 0F       		.uleb128 0xf
 4718 2b72 52454645 		.ascii "REFERENCE_UNUSED_PARAMETER(x) ((x) = (x))\0"
 4718      52454E43 
 4718      455F554E 
 4718      55534544 
 4718      5F504152 
 4719 2b9c 01       		.byte	0x1
 4720 2b9d 10       		.uleb128 0x10
 4721 2b9e 4E554C4C 		.ascii "NULL ((void*)0)\0"
 4721      20282876 
 4721      6F69642A 
 4721      29302900 
 4722 2bae 01       		.byte	0x1
 4723 2baf 13       		.uleb128 0x13
 4724 2bb0 4D43555F 		.ascii "MCU_X86 3\0"
 4724      58383620 
 4724      3300
 4725 2bba 01       		.byte	0x1
GAS LISTING C:\Users\PRESID~1\AppData\Local\Temp\cc1SpG1Y.s 			page 131


 4726 2bbb 14       		.uleb128 0x14
 4727 2bbc 4D43555F 		.ascii "MCU_CORTEX_M4 4\0"
 4727      434F5254 
 4727      45585F4D 
 4727      34203400 
 4728 2bcc 01       		.byte	0x1
 4729 2bcd 17       		.uleb128 0x17
 4730 2bce 4457545F 		.ascii "DWT_CTRL ((volatile uint32*)0xE0001000u)\0"
 4730      4354524C 
 4730      20282876 
 4730      6F6C6174 
 4730      696C6520 
 4731 2bf7 01       		.byte	0x1
 4732 2bf8 18       		.uleb128 0x18
 4733 2bf9 4457545F 		.ascii "DWT_CYCCNT ((volatile uint32*)0xE0001004u)\0"
 4733      43594343 
 4733      4E542028 
 4733      28766F6C 
 4733      6174696C 
 4734 2c24 01       		.byte	0x1
 4735 2c25 19       		.uleb128 0x19
 4736 2c26 4457545F 		.ascii "DWT_LAR ((volatile uint32*)0xE0001FB0u)\0"
 4736      4C415220 
 4736      2828766F 
 4736      6C617469 
 4736      6C652075 
 4737 2c4e 01       		.byte	0x1
 4738 2c4f 1A       		.uleb128 0x1a
 4739 2c50 5343425F 		.ascii "SCB_DEMCR ((volatile uint32*)0xE000EDFCu)\0"
 4739      44454D43 
 4739      52202828 
 4739      766F6C61 
 4739      74696C65 
 4740 2c7a 01       		.byte	0x1
 4741 2c7b 1D       		.uleb128 0x1d
 4742 2c7c 44495341 		.ascii "DISABLE_INTERRUPTS() \0"
 4742      424C455F 
 4742      494E5445 
 4742      52525550 
 4742      54532829 
 4743 2c92 01       		.byte	0x1
 4744 2c93 1E       		.uleb128 0x1e
 4745 2c94 454E4142 		.ascii "ENABLE_INTERRUPTS() \0"
 4745      4C455F49 
 4745      4E544552 
 4745      52555054 
 4745      53282920 
 4746 2ca9 01       		.byte	0x1
 4747 2caa 1F       		.uleb128 0x1f
 4748 2cab 50524956 		.ascii "PRIVILIGE_LEVEL_SAVE_CURRENT() \0"
 4748      494C4947 
 4748      455F4C45 
 4748      56454C5F 
 4748      53415645 
 4749 2ccb 01       		.byte	0x1
 4750 2ccc 20       		.uleb128 0x20
 4751 2ccd 50524956 		.ascii "PRIVILIGE_LEVEL_ENTER_KERNEL_MODE() \0"
GAS LISTING C:\Users\PRESID~1\AppData\Local\Temp\cc1SpG1Y.s 			page 132


 4751      494C4947 
 4751      455F4C45 
 4751      56454C5F 
 4751      454E5445 
 4752 2cf2 01       		.byte	0x1
 4753 2cf3 21       		.uleb128 0x21
 4754 2cf4 50524956 		.ascii "PRIVILIGE_LEVEL_RESTORE_SAVED() \0"
 4754      494C4947 
 4754      455F4C45 
 4754      56454C5F 
 4754      52455354 
 4755 2d15 01       		.byte	0x1
 4756 2d16 22       		.uleb128 0x22
 4757 2d17 48414C54 		.ascii "HALT_MCU() \0"
 4757      5F4D4355 
 4757      28292000 
 4758 2d23 01       		.byte	0x1
 4759 2d24 42       		.uleb128 0x42
 4760 2d25 414D4F55 		.ascii "AMOUNT_SW_BUG_FUNCTIONS 22\0"
 4760      4E545F53 
 4760      575F4255 
 4760      475F4655 
 4760      4E435449 
 4761 2d40 04       		.byte	0x4
 4762              		.file 11 "c:/users/president/desktop/sbx/input/src/os_sim/lld_global.h"
 4763 2d41 03       		.byte	0x3
 4764 2d42 09       		.uleb128 0x9
 4765 2d43 0B       		.uleb128 0xb
 4766 2d44 01       		.byte	0x1
 4767 2d45 02       		.uleb128 0x2
 4768 2d46 5F4C4C44 		.ascii "_LLD_GLOBAL_H_ \0"
 4768      5F474C4F 
 4768      42414C5F 
 4768      485F2000 
 4769 2d56 03       		.byte	0x3
 4770 2d57 04       		.uleb128 0x4
 4771 2d58 04       		.uleb128 0x4
 4772 2d59 01       		.byte	0x1
 4773 2d5a 02       		.uleb128 0x2
 4774 2d5b 5F4C4C44 		.ascii "_LLD_CORE_H_ \0"
 4774      5F434F52 
 4774      455F485F 
 4774      2000
 4775              		.file 12 "c:/users/president/desktop/sbx/input/src/os_base/os_firstinc.h"
 4776 2d69 03       		.byte	0x3
 4777 2d6a 03       		.uleb128 0x3
 4778 2d6b 0C       		.uleb128 0xc
 4779 2d6c 04       		.byte	0x4
 4780 2d6d 04       		.byte	0x4
 4781              		.file 13 "c:/users/president/desktop/sbx/input/src/os_sim/lld_interrupt.h"
 4782 2d6e 03       		.byte	0x3
 4783 2d6f 05       		.uleb128 0x5
 4784 2d70 0D       		.uleb128 0xd
 4785 2d71 01       		.byte	0x1
 4786 2d72 02       		.uleb128 0x2
 4787 2d73 5F4C4C44 		.ascii "_LLD_INTERRUPT_H_ \0"
 4787      5F494E54 
GAS LISTING C:\Users\PRESID~1\AppData\Local\Temp\cc1SpG1Y.s 			page 133


 4787      45525255 
 4787      50545F48 
 4787      5F2000
 4788 2d86 01       		.byte	0x1
 4789 2d87 05       		.uleb128 0x5
 4790 2d88 4F535F49 		.ascii "OS_INTERRUPT_SWI_1 asm(\"swi 1\")\0"
 4790      4E544552 
 4790      52555054 
 4790      5F535749 
 4790      5F312061 
 4791 2da8 01       		.byte	0x1
 4792 2da9 06       		.uleb128 0x6
 4793 2daa 4F535F49 		.ascii "OS_INTERRUPT_SWI_2 asm(\"swi 2\")\0"
 4793      4E544552 
 4793      52555054 
 4793      5F535749 
 4793      5F322061 
 4794 2dca 01       		.byte	0x1
 4795 2dcb 07       		.uleb128 0x7
 4796 2dcc 4F535F49 		.ascii "OS_INTERRUPT_SWI_3 asm(\"swi 3\")\0"
 4796      4E544552 
 4796      52555054 
 4796      5F535749 
 4796      5F332061 
 4797 2dec 01       		.byte	0x1
 4798 2ded 08       		.uleb128 0x8
 4799 2dee 4F535F49 		.ascii "OS_INTERRUPT_SWI_4 asm(\"swi 4\")\0"
 4799      4E544552 
 4799      52555054 
 4799      5F535749 
 4799      5F342061 
 4800 2e0e 01       		.byte	0x1
 4801 2e0f 09       		.uleb128 0x9
 4802 2e10 4F535F49 		.ascii "OS_INTERRUPT_SWI_5 asm(\"swi 5\")\0"
 4802      4E544552 
 4802      52555054 
 4802      5F535749 
 4802      5F352061 
 4803 2e30 04       		.byte	0x4
 4804              		.file 14 "c:/users/president/desktop/sbx/input/src/os_sim/lld_mmu.h"
 4805 2e31 03       		.byte	0x3
 4806 2e32 06       		.uleb128 0x6
 4807 2e33 0E       		.uleb128 0xe
 4808 2e34 01       		.byte	0x1
 4809 2e35 02       		.uleb128 0x2
 4810 2e36 5F4C4C44 		.ascii "_LLD_MMU_H_ \0"
 4810      5F4D4D55 
 4810      5F485F20 
 4810      00
 4811 2e43 04       		.byte	0x4
 4812              		.file 15 "c:/users/president/desktop/sbx/input/src/os_sim/lld_timer.h"
 4813 2e44 03       		.byte	0x3
 4814 2e45 07       		.uleb128 0x7
 4815 2e46 0F       		.uleb128 0xf
 4816 2e47 01       		.byte	0x1
 4817 2e48 02       		.uleb128 0x2
 4818 2e49 5F4C4C44 		.ascii "_LLD_TIMER_H_ \0"
GAS LISTING C:\Users\PRESID~1\AppData\Local\Temp\cc1SpG1Y.s 			page 134


 4818      5F54494D 
 4818      45525F48 
 4818      5F2000
 4819 2e58 04       		.byte	0x4
 4820              		.file 16 "c:/users/president/desktop/sbx/input/src/os_sim/lld_power.h"
 4821 2e59 03       		.byte	0x3
 4822 2e5a 08       		.uleb128 0x8
 4823 2e5b 10       		.uleb128 0x10
 4824 2e5c 01       		.byte	0x1
 4825 2e5d 02       		.uleb128 0x2
 4826 2e5e 5F4C4C44 		.ascii "_LLD_POWER_H_ \0"
 4826      5F504F57 
 4826      45525F48 
 4826      5F2000
 4827 2e6d 04       		.byte	0x4
 4828              		.file 17 "c:/users/president/desktop/sbx/input/src/os_sim/lld_ram.h"
 4829 2e6e 03       		.byte	0x3
 4830 2e6f 09       		.uleb128 0x9
 4831 2e70 11       		.uleb128 0x11
 4832 2e71 01       		.byte	0x1
 4833 2e72 02       		.uleb128 0x2
 4834 2e73 5F4C4C44 		.ascii "_LLD_RAM_H_ \0"
 4834      5F52414D 
 4834      5F485F20 
 4834      00
 4835 2e80 04       		.byte	0x4
 4836 2e81 03       		.byte	0x3
 4837 2e82 0A       		.uleb128 0xa
 4838 2e83 05       		.uleb128 0x5
 4839 2e84 01       		.byte	0x1
 4840 2e85 02       		.uleb128 0x2
 4841 2e86 5F4F535F 		.ascii "_OS_TASK_COMMON_H_ \0"
 4841      5441534B 
 4841      5F434F4D 
 4841      4D4F4E5F 
 4841      485F2000 
 4842 2e9a 03       		.byte	0x3
 4843 2e9b 03       		.uleb128 0x3
 4844 2e9c 09       		.uleb128 0x9
 4845 2e9d 04       		.byte	0x4
 4846              		.file 18 "C:/Users/president/Desktop/sbx/input/src/os_base/os_task_config.h"
 4847 2e9e 03       		.byte	0x3
 4848 2e9f 04       		.uleb128 0x4
 4849 2ea0 12       		.uleb128 0x12
 4850 2ea1 01       		.byte	0x1
 4851 2ea2 02       		.uleb128 0x2
 4852 2ea3 5F4F535F 		.ascii "_OS_TASK_CONFIG_H_ \0"
 4852      5441534B 
 4852      5F434F4E 
 4852      4649475F 
 4852      485F2000 
 4853 2eb7 01       		.byte	0x1
 4854 2eb8 05       		.uleb128 0x5
 4855 2eb9 5441534B 		.ascii "TASK_MIN_TIME (1e0)\0"
 4855      5F4D494E 
 4855      5F54494D 
 4855      45202831 
GAS LISTING C:\Users\PRESID~1\AppData\Local\Temp\cc1SpG1Y.s 			page 135


 4855      65302900 
 4856 2ecd 01       		.byte	0x1
 4857 2ece 06       		.uleb128 0x6
 4858 2ecf 4E554D42 		.ascii "NUMBER_OF_TASKS 10u\0"
 4858      45525F4F 
 4858      465F5441 
 4858      534B5320 
 4858      31307500 
 4859 2ee3 01       		.byte	0x1
 4860 2ee4 07       		.uleb128 0x7
 4861 2ee5 4D41585F 		.ascii "MAX_RUN_QUEUE_SIZE (NUMBER_OF_TASKS)\0"
 4861      52554E5F 
 4861      51554555 
 4861      455F5349 
 4861      5A452028 
 4862 2f0a 01       		.byte	0x1
 4863 2f0b 08       		.uleb128 0x8
 4864 2f0c 4D41585F 		.ascii "MAX_RUN_PQUEUE_SIZE MAX_RUN_QUEUE_SIZE\0"
 4864      52554E5F 
 4864      50515545 
 4864      55455F53 
 4864      495A4520 
 4865 2f33 01       		.byte	0x1
 4866 2f34 0A       		.uleb128 0xa
 4867 2f35 5441534B 		.ascii "TASK0_STACK_SIZE 2000u\0"
 4867      305F5354 
 4867      41434B5F 
 4867      53495A45 
 4867      20323030 
 4868 2f4c 01       		.byte	0x1
 4869 2f4d 0B       		.uleb128 0xb
 4870 2f4e 5441534B 		.ascii "TASK1_STACK_SIZE 2000u\0"
 4870      315F5354 
 4870      41434B5F 
 4870      53495A45 
 4870      20323030 
 4871 2f65 01       		.byte	0x1
 4872 2f66 0C       		.uleb128 0xc
 4873 2f67 5441534B 		.ascii "TASK2_STACK_SIZE 2000u\0"
 4873      325F5354 
 4873      41434B5F 
 4873      53495A45 
 4873      20323030 
 4874 2f7e 01       		.byte	0x1
 4875 2f7f 0D       		.uleb128 0xd
 4876 2f80 5441534B 		.ascii "TASK3_STACK_SIZE 2000u\0"
 4876      335F5354 
 4876      41434B5F 
 4876      53495A45 
 4876      20323030 
 4877 2f97 01       		.byte	0x1
 4878 2f98 0E       		.uleb128 0xe
 4879 2f99 5441534B 		.ascii "TASK4_STACK_SIZE 2000u\0"
 4879      345F5354 
 4879      41434B5F 
 4879      53495A45 
 4879      20323030 
GAS LISTING C:\Users\PRESID~1\AppData\Local\Temp\cc1SpG1Y.s 			page 136


 4880 2fb0 01       		.byte	0x1
 4881 2fb1 12       		.uleb128 0x12
 4882 2fb2 4D535F50 		.ascii "MS_PER_SEC 1000u\0"
 4882      45525F53 
 4882      45432031 
 4882      30303075 
 4882      00
 4883 2fc3 01       		.byte	0x1
 4884 2fc4 13       		.uleb128 0x13
 4885 2fc5 5553455F 		.ascii "USE_STATIC_CREATED_TASKS TRUE\0"
 4885      53544154 
 4885      49435F43 
 4885      52454154 
 4885      45445F54 
 4886 2fe3 04       		.byte	0x4
 4887              		.file 19 "C:/Users/president/Desktop/sbx/input/src/os_base/os_init_task_system.h"
 4888 2fe4 03       		.byte	0x3
 4889 2fe5 05       		.uleb128 0x5
 4890 2fe6 13       		.uleb128 0x13
 4891 2fe7 01       		.byte	0x1
 4892 2fe8 02       		.uleb128 0x2
 4893 2fe9 5F4F535F 		.ascii "_OS_INIT_TASK_SYSTEM_H_ \0"
 4893      494E4954 
 4893      5F544153 
 4893      4B5F5359 
 4893      5354454D 
 4894 3002 04       		.byte	0x4
 4895 3003 01       		.byte	0x1
 4896 3004 5F       		.uleb128 0x5f
 4897 3005 4F535F53 		.ascii "OS_SAVE_TASK_PTR(task_ptr,task_name) (TASK_PTR[(task_name)] = (task_ptr))\0"
 4897      4156455F 
 4897      5441534B 
 4897      5F505452 
 4897      28746173 
 4898 304f 01       		.byte	0x1
 4899 3050 60       		.uleb128 0x60
 4900 3051 4F535F47 		.ascii "OS_GET_TASK_PTR(task_name) ((task_t*) TASK_PTR[(task_name)])\0"
 4900      45545F54 
 4900      41534B5F 
 4900      50545228 
 4900      7461736B 
 4901 308e 04       		.byte	0x4
 4902 308f 04       		.byte	0x4
 4903              		.file 20 "c:/users/president/desktop/sbx/input/src/os_user_code/led.h"
 4904 3090 03       		.byte	0x3
 4905 3091 0D       		.uleb128 0xd
 4906 3092 14       		.uleb128 0x14
 4907 3093 01       		.byte	0x1
 4908 3094 02       		.uleb128 0x2
 4909 3095 5F4C4544 		.ascii "_LED_H_ \0"
 4909      5F485F20 
 4909      00
 4910 309e 04       		.byte	0x4
 4911 309f 03       		.byte	0x3
 4912 30a0 0F       		.uleb128 0xf
 4913 30a1 07       		.uleb128 0x7
 4914 30a2 01       		.byte	0x1
GAS LISTING C:\Users\PRESID~1\AppData\Local\Temp\cc1SpG1Y.s 			page 137


 4915 30a3 02       		.uleb128 0x2
 4916 30a4 5F4F535F 		.ascii "_OS_RAM_H_ \0"
 4916      52414D5F 
 4916      485F2000 
 4917              		.file 21 "C:/Users/president/Desktop/sbx/input/src/os_base/os_stack.h"
 4918 30b0 03       		.byte	0x3
 4919 30b1 05       		.uleb128 0x5
 4920 30b2 15       		.uleb128 0x15
 4921 30b3 01       		.byte	0x1
 4922 30b4 02       		.uleb128 0x2
 4923 30b5 5F4F535F 		.ascii "_OS_STACK_H_ \0"
 4923      53544143 
 4923      4B5F485F 
 4923      2000
 4924 30c3 04       		.byte	0x4
 4925              		.file 22 "C:/Users/president/Desktop/sbx/input/src/os_base/os_heap.h"
 4926 30c4 03       		.byte	0x3
 4927 30c5 06       		.uleb128 0x6
 4928 30c6 16       		.uleb128 0x16
 4929 30c7 01       		.byte	0x1
 4930 30c8 02       		.uleb128 0x2
 4931 30c9 5F4F535F 		.ascii "_OS_HEAP_H_ \0"
 4931      48454150 
 4931      5F485F20 
 4931      00
 4932 30d6 04       		.byte	0x4
 4933 30d7 03       		.byte	0x3
 4934 30d8 07       		.uleb128 0x7
 4935 30d9 06       		.uleb128 0x6
 4936 30da 01       		.byte	0x1
 4937 30db 02       		.uleb128 0x2
 4938 30dc 5F4F535F 		.ascii "_OS_MAIN_H_ \0"
 4938      4D41494E 
 4938      5F485F20 
 4938      00
 4939 30e9 04       		.byte	0x4
 4940              		.file 23 "C:/Users/president/Desktop/sbx/input/src/os_base/os_task_common.h"
 4941 30ea 03       		.byte	0x3
 4942 30eb 09       		.uleb128 0x9
 4943 30ec 17       		.uleb128 0x17
 4944 30ed 04       		.byte	0x4
 4945 30ee 04       		.byte	0x4
 4946 30ef 03       		.byte	0x3
 4947 30f0 10       		.uleb128 0x10
 4948 30f1 08       		.uleb128 0x8
 4949 30f2 01       		.byte	0x1
 4950 30f3 02       		.uleb128 0x2
 4951 30f4 5F4F535F 		.ascii "_OS_RAM_STACK_H_ \0"
 4951      52414D5F 
 4951      53544143 
 4951      4B5F485F 
 4951      2000
 4952 3106 04       		.byte	0x4
 4953 3107 04       		.byte	0x4
 4954              		.file 24 "C:/Users/president/Desktop/sbx/input/src/os_base/os_task_queue.h"
 4955 3108 03       		.byte	0x3
 4956 3109 03       		.uleb128 0x3
GAS LISTING C:\Users\PRESID~1\AppData\Local\Temp\cc1SpG1Y.s 			page 138


 4957 310a 18       		.uleb128 0x18
 4958 310b 01       		.byte	0x1
 4959 310c 02       		.uleb128 0x2
 4960 310d 5F4F535F 		.ascii "_OS_TASK_QUEUE_H_ \0"
 4960      5441534B 
 4960      5F515545 
 4960      55455F48 
 4960      5F2000
 4961 3120 01       		.byte	0x1
 4962 3121 06       		.uleb128 0x6
 4963 3122 46495253 		.ascii "FIRST_TASK (0u)\0"
 4963      545F5441 
 4963      534B2028 
 4963      30752900 
 4964 3132 01       		.byte	0x1
 4965 3133 07       		.uleb128 0x7
 4966 3134 4C415354 		.ascii "LAST_TASK (MAX_RUN_QUEUE_SIZE-1u)\0"
 4966      5F544153 
 4966      4B20284D 
 4966      41585F52 
 4966      554E5F51 
 4967 3156 01       		.byte	0x1
 4968 3157 09       		.uleb128 0x9
 4969 3158 464F525F 		.ascii "FOR_ALL_TASKS_IN_QUEUE(var) for((var) = FIRST_TASK; (var) <= LAST_TASK; (var)++)\0"
 4969      414C4C5F 
 4969      5441534B 
 4969      535F494E 
 4969      5F515545 
 4970 31a9 04       		.byte	0x4
 4971              		.file 25 "C:/Users/president/Desktop/sbx/input/src/os_base/os_task_scheduler.h"
 4972 31aa 03       		.byte	0x3
 4973 31ab 04       		.uleb128 0x4
 4974 31ac 19       		.uleb128 0x19
 4975 31ad 01       		.byte	0x1
 4976 31ae 02       		.uleb128 0x2
 4977 31af 5F4F535F 		.ascii "_OS_TASK_SCHEDULER_H_ \0"
 4977      5441534B 
 4977      5F534348 
 4977      4544554C 
 4977      45525F48 
 4978 31c6 01       		.byte	0x1
 4979 31c7 07       		.uleb128 0x7
 4980 31c8 5441534B 		.ascii "TASK_0_PTR 0u\0"
 4980      5F305F50 
 4980      54522030 
 4980      7500
 4981 31d6 01       		.byte	0x1
 4982 31d7 08       		.uleb128 0x8
 4983 31d8 5441534B 		.ascii "TASK_1_PTR 1u\0"
 4983      5F315F50 
 4983      54522031 
 4983      7500
 4984 31e6 01       		.byte	0x1
 4985 31e7 09       		.uleb128 0x9
 4986 31e8 5441534B 		.ascii "TASK_2_PTR 2u\0"
 4986      5F325F50 
 4986      54522032 
GAS LISTING C:\Users\PRESID~1\AppData\Local\Temp\cc1SpG1Y.s 			page 139


 4986      7500
 4987 31f6 01       		.byte	0x1
 4988 31f7 0A       		.uleb128 0xa
 4989 31f8 5441534B 		.ascii "TASK_3_PTR 3u\0"
 4989      5F335F50 
 4989      54522033 
 4989      7500
 4990 3206 04       		.byte	0x4
 4991 3207 04       		.byte	0x4
 4992 3208 00       		.byte	0
 4993              		.section	.debug_line,"dr"
 4994              	Ldebug_line0:
 4995 0000 78060000 		.section	.debug_str,"dr"
 4995      03007002 
 4995      00000101 
 4995      FB0E0D00 
 4995      01010101 
 4996              	LASF1:
 4997 0000 69646C65 		.ascii "idle_task\0"
 4997      5F746173 
 4997      6B00
 4998              	LASF5:
 4999 000a 73636865 		.ascii "scheduling_queue_element\0"
 4999      64756C69 
 4999      6E675F71 
 4999      75657565 
 4999      5F656C65 
 5000              	LASF3:
 5001 0023 70726976 		.ascii "privilige_mode\0"
 5001      696C6967 
 5001      655F6D6F 
 5001      646500
 5002              	LASF4:
 5003 0032 7461736B 		.ascii "task\0"
 5003      00
 5004              	LASF0:
 5005 0037 6578655F 		.ascii "exe_time\0"
 5005      74696D65 
 5005      00
 5006              	LASF6:
 5007 0040 656C656D 		.ascii "element_nr\0"
 5007      656E745F 
 5007      6E7200
 5008              	LASF2:
 5009 004b 64656661 		.ascii "default_prio\0"
 5009      756C745F 
 5009      7072696F 
 5009      00
 5010              		.ident	"GCC: (MinGW.org GCC-8.2.0-3) 8.2.0"
GAS LISTING C:\Users\PRESID~1\AppData\Local\Temp\cc1SpG1Y.s 			page 140


DEFINED SYMBOLS
                            *ABS*:00000000 os_task_queue.c
C:\Users\PRESID~1\AppData\Local\Temp\cc1SpG1Y.s:6      .text:00000000 _SET_RUNNING_TASK
C:\Users\PRESID~1\AppData\Local\Temp\cc1SpG1Y.s:211    .text:00000200 _OS_INIT_TASK_QUEUE
C:\Users\PRESID~1\AppData\Local\Temp\cc1SpG1Y.s:272    .text:00000262 _ADD_TO_TASK_QUEUE
C:\Users\PRESID~1\AppData\Local\Temp\cc1SpG1Y.s:863    .text:0000080a _DELETE_FROM_TASK_QUEUE
C:\Users\PRESID~1\AppData\Local\Temp\cc1SpG1Y.s:993    .text:00000955 _GET_FROM_TASK_QUEUE
C:\Users\PRESID~1\AppData\Local\Temp\cc1SpG1Y.s:1014   .text:0000095f _GET_FROM_SCHEDULING_QUEUE
C:\Users\PRESID~1\AppData\Local\Temp\cc1SpG1Y.s:1040   .text:00000979 _DELETE_FROM_SCHEDULING_QUEUE
C:\Users\PRESID~1\AppData\Local\Temp\cc1SpG1Y.s:1062   .text:00000988 _ADD_TO_SCHEDULING_QUEUE
C:\Users\PRESID~1\AppData\Local\Temp\cc1SpG1Y.s:1117   .text:000009d0 _GET_IDLE_TASK
C:\Users\PRESID~1\AppData\Local\Temp\cc1SpG1Y.s:1137   .text:000009da _ADD_TO_IDLE_TASK_QUEUE
C:\Users\PRESID~1\AppData\Local\Temp\cc1SpG1Y.s:1331   .text:00000bc1 _GET_RUNNING_TASK
C:\Users\PRESID~1\AppData\Local\Temp\cc1SpG1Y.s:1351   .text:00000bcb _GET_RUNNING_SCHEDULING_QUEUE_ELEMENT_PTR
C:\Users\PRESID~1\AppData\Local\Temp\cc1SpG1Y.s:1371   .text:00000bd5 _OS_INIT_TASK

UNDEFINED SYMBOLS
_RUNNING_SCHEDULING_QUEUE_ENTRY
_RUNNING_TASK
_bTASK_QUEUE_INITIALIZED
_TASK_SCHEDULING_QUEUE
_TASK_RUN_QUEUE
_TASK_IDLE_QUEUE
_ASSIGN
_OS_TASK_INIT_TASK_ENVIRONMENT
_ASSIGN_NULL
_OS_TASK_STATE_REQUEST
_ASSIGN_UINT32
_OS_CREATE_TASK
_OS_SET_SW_BUG
