GAS LISTING C:\Users\PRESID~1\AppData\Local\Temp\ccbcQyxt.s 			page 1


   1              		.file	"os_task_common.c"
   2              		.text
   3              	Ltext0:
   4              		.comm	_TASK_PTR, 40, 5
   5              		.globl	_OS_TASK_SAVE_TASK_ENVIRONMENT
   7              	_OS_TASK_SAVE_TASK_ENVIRONMENT:
   8              	LFB0:
   9              		.file 1 "E:/NeuOrga/Programmieren/c_cpp/github_os/input/src/os_base/os_task_common.c"
   1:E:/NeuOrga/Programmieren/c_cpp/github_os/input/src/os_base\os_task_common.c **** #include "os_firstinc.h"
   2:E:/NeuOrga/Programmieren/c_cpp/github_os/input/src/os_base\os_task_common.c **** #include "os_task_common.h"
   3:E:/NeuOrga/Programmieren/c_cpp/github_os/input/src/os_base\os_task_common.c **** #include "os_task_scheduler.h"
   4:E:/NeuOrga/Programmieren/c_cpp/github_os/input/src/os_base\os_task_common.c **** #include "os_heap.h"
   5:E:/NeuOrga/Programmieren/c_cpp/github_os/input/src/os_base\os_task_common.c **** 
   6:E:/NeuOrga/Programmieren/c_cpp/github_os/input/src/os_base\os_task_common.c **** /* Create and delete the task environment is not supported,
   7:E:/NeuOrga/Programmieren/c_cpp/github_os/input/src/os_base\os_task_common.c ****    because we do not allow dynamic RAM allocation for task environment.
   8:E:/NeuOrga/Programmieren/c_cpp/github_os/input/src/os_base\os_task_common.c **** 
   9:E:/NeuOrga/Programmieren/c_cpp/github_os/input/src/os_base\os_task_common.c **** 
  10:E:/NeuOrga/Programmieren/c_cpp/github_os/input/src/os_base\os_task_common.c **** */
  11:E:/NeuOrga/Programmieren/c_cpp/github_os/input/src/os_base\os_task_common.c **** 
  12:E:/NeuOrga/Programmieren/c_cpp/github_os/input/src/os_base\os_task_common.c **** 
  13:E:/NeuOrga/Programmieren/c_cpp/github_os/input/src/os_base\os_task_common.c **** task_t* TASK_PTR[MAX_RUN_QUEUE_SIZE];
  14:E:/NeuOrga/Programmieren/c_cpp/github_os/input/src/os_base\os_task_common.c **** 
  15:E:/NeuOrga/Programmieren/c_cpp/github_os/input/src/os_base\os_task_common.c **** void OS_TASK_SAVE_TASK_ENVIRONMENT(task_t* task)
  16:E:/NeuOrga/Programmieren/c_cpp/github_os/input/src/os_base\os_task_common.c **** {
  10              		.loc 1 16 0
  11              		.cfi_startproc
  12 0000 55       		pushl	%ebp
  13              		.cfi_def_cfa_offset 8
  14              		.cfi_offset 5, -8
  15 0001 89E5     		movl	%esp, %ebp
  16              		.cfi_def_cfa_register 5
  17 0003 53       		pushl	%ebx
  18 0004 83EC14   		subl	$20, %esp
  19              		.cfi_offset 3, -12
  17:E:/NeuOrga/Programmieren/c_cpp/github_os/input/src/os_base\os_task_common.c ****    if(task != 0u)
  20              		.loc 1 17 0
  21 0007 837D0800 		cmpl	$0, 8(%ebp)
  22 000b 744B     		je	L2
  18:E:/NeuOrga/Programmieren/c_cpp/github_os/input/src/os_base\os_task_common.c ****    {
  19:E:/NeuOrga/Programmieren/c_cpp/github_os/input/src/os_base\os_task_common.c ****       /*
  20:E:/NeuOrga/Programmieren/c_cpp/github_os/input/src/os_base\os_task_common.c ****       http://www.ibiblio.org/gferg/ldp/GCC-Inline-Assembly-HOWTO.html#s2
  21:E:/NeuOrga/Programmieren/c_cpp/github_os/input/src/os_base\os_task_common.c ****       x86: mov ... esp
  22:E:/NeuOrga/Programmieren/c_cpp/github_os/input/src/os_base\os_task_common.c ****       */
  23:E:/NeuOrga/Programmieren/c_cpp/github_os/input/src/os_base\os_task_common.c ****       LLF_SAVE_TASK_STACK(task->p_stack_pointer);
  23              		.loc 1 23 0
  24 000d 8B4508   		movl	8(%ebp), %eax
  25 0010 8B809400 		movl	148(%eax), %eax
  25      0000
  26 0016 890424   		movl	%eax, (%esp)
  27 0019 E8000000 		call	_LLF_SAVE_TASK_STACK
  27      00
  24:E:/NeuOrga/Programmieren/c_cpp/github_os/input/src/os_base\os_task_common.c **** #if(CFG_PROCESSOR == MCU_X86)
  25:E:/NeuOrga/Programmieren/c_cpp/github_os/input/src/os_base\os_task_common.c ****       LLF_SAVE_REGISTERS(task->eax,task->ebx,task->ecx,task->edx);
  28              		.loc 1 25 0
  29 001e 8B4508   		movl	8(%ebp), %eax
  30 0021 8B989000 		movl	144(%eax), %ebx
  30      0000
GAS LISTING C:\Users\PRESID~1\AppData\Local\Temp\ccbcQyxt.s 			page 2


  31 0027 8B4508   		movl	8(%ebp), %eax
  32 002a 8B888C00 		movl	140(%eax), %ecx
  32      0000
  33 0030 8B4508   		movl	8(%ebp), %eax
  34 0033 8B908800 		movl	136(%eax), %edx
  34      0000
  35 0039 8B4508   		movl	8(%ebp), %eax
  36 003c 8B808400 		movl	132(%eax), %eax
  36      0000
  37 0042 895C240C 		movl	%ebx, 12(%esp)
  38 0046 894C2408 		movl	%ecx, 8(%esp)
  39 004a 89542404 		movl	%edx, 4(%esp)
  40 004e 890424   		movl	%eax, (%esp)
  41 0051 E8000000 		call	_LLF_SAVE_REGISTERS
  41      00
  42 0056 EB14     		jmp	L3
  43              	L2:
  26:E:/NeuOrga/Programmieren/c_cpp/github_os/input/src/os_base\os_task_common.c **** #else
  27:E:/NeuOrga/Programmieren/c_cpp/github_os/input/src/os_base\os_task_common.c ****       LLF_SAVE_REGISTERS(task->r0,task->r1,task->r2,task->r3);
  28:E:/NeuOrga/Programmieren/c_cpp/github_os/input/src/os_base\os_task_common.c **** #endif
  29:E:/NeuOrga/Programmieren/c_cpp/github_os/input/src/os_base\os_task_common.c ****    }
  30:E:/NeuOrga/Programmieren/c_cpp/github_os/input/src/os_base\os_task_common.c ****    else
  31:E:/NeuOrga/Programmieren/c_cpp/github_os/input/src/os_base\os_task_common.c ****    {
  32:E:/NeuOrga/Programmieren/c_cpp/github_os/input/src/os_base\os_task_common.c ****       OS_SET_SW_BUG(E_OS_BUG_NULL_POINTER,E_FUNC_SAVETASKENVIRONMENT);
  44              		.loc 1 32 0
  45 0058 C7442404 		movl	$1, 4(%esp)
  45      01000000 
  46 0060 C7042402 		movl	$2, (%esp)
  46      000000
  47 0067 E8000000 		call	_OS_SET_SW_BUG
  47      00
  48              	L3:
  33:E:/NeuOrga/Programmieren/c_cpp/github_os/input/src/os_base\os_task_common.c ****    }
  34:E:/NeuOrga/Programmieren/c_cpp/github_os/input/src/os_base\os_task_common.c ****    return;
  49              		.loc 1 34 0
  50 006c 90       		nop
  35:E:/NeuOrga/Programmieren/c_cpp/github_os/input/src/os_base\os_task_common.c **** }
  51              		.loc 1 35 0
  52 006d 83C414   		addl	$20, %esp
  53 0070 5B       		popl	%ebx
  54              		.cfi_restore 3
  55 0071 5D       		popl	%ebp
  56              		.cfi_restore 5
  57              		.cfi_def_cfa 4, 4
  58 0072 C3       		ret
  59              		.cfi_endproc
  60              	LFE0:
  61              		.globl	_OS_TASK_RESTORETASK_ENVIRONMENT
  63              	_OS_TASK_RESTORETASK_ENVIRONMENT:
  64              	LFB1:
  36:E:/NeuOrga/Programmieren/c_cpp/github_os/input/src/os_base\os_task_common.c **** 
  37:E:/NeuOrga/Programmieren/c_cpp/github_os/input/src/os_base\os_task_common.c **** void OS_TASK_RESTORETASK_ENVIRONMENT(task_t* task)
  38:E:/NeuOrga/Programmieren/c_cpp/github_os/input/src/os_base\os_task_common.c **** {
  65              		.loc 1 38 0
  66              		.cfi_startproc
  67 0073 55       		pushl	%ebp
  68              		.cfi_def_cfa_offset 8
GAS LISTING C:\Users\PRESID~1\AppData\Local\Temp\ccbcQyxt.s 			page 3


  69              		.cfi_offset 5, -8
  70 0074 89E5     		movl	%esp, %ebp
  71              		.cfi_def_cfa_register 5
  72 0076 83EC18   		subl	$24, %esp
  39:E:/NeuOrga/Programmieren/c_cpp/github_os/input/src/os_base\os_task_common.c ****    if(task!=0u)
  73              		.loc 1 39 0
  74 0079 837D0800 		cmpl	$0, 8(%ebp)
  75 007d 741E     		je	L6
  40:E:/NeuOrga/Programmieren/c_cpp/github_os/input/src/os_base\os_task_common.c ****    {
  41:E:/NeuOrga/Programmieren/c_cpp/github_os/input/src/os_base\os_task_common.c ****       LLF_RESTORE_TASK_STACK(task->p_stack_pointer);
  76              		.loc 1 41 0
  77 007f 8B4508   		movl	8(%ebp), %eax
  78 0082 8B809400 		movl	148(%eax), %eax
  78      0000
  79 0088 890424   		movl	%eax, (%esp)
  80 008b E8000000 		call	_LLF_RESTORE_TASK_STACK
  80      00
  42:E:/NeuOrga/Programmieren/c_cpp/github_os/input/src/os_base\os_task_common.c ****       LLF_RESTORE_REGISTERS(task);
  81              		.loc 1 42 0
  82 0090 8B4508   		movl	8(%ebp), %eax
  83 0093 890424   		movl	%eax, (%esp)
  84 0096 E8000000 		call	_LLF_RESTORE_REGISTERS
  84      00
  85 009b EB14     		jmp	L5
  86              	L6:
  43:E:/NeuOrga/Programmieren/c_cpp/github_os/input/src/os_base\os_task_common.c ****    }
  44:E:/NeuOrga/Programmieren/c_cpp/github_os/input/src/os_base\os_task_common.c ****    else
  45:E:/NeuOrga/Programmieren/c_cpp/github_os/input/src/os_base\os_task_common.c ****    {
  46:E:/NeuOrga/Programmieren/c_cpp/github_os/input/src/os_base\os_task_common.c ****       OS_SET_SW_BUG(E_OS_BUG_NULL_POINTER,E_FUNC_RESTORETASKENVIRONMENT);
  87              		.loc 1 46 0
  88 009d C7442404 		movl	$2, 4(%esp)
  88      02000000 
  89 00a5 C7042402 		movl	$2, (%esp)
  89      000000
  90 00ac E8000000 		call	_OS_SET_SW_BUG
  90      00
  91              	L5:
  47:E:/NeuOrga/Programmieren/c_cpp/github_os/input/src/os_base\os_task_common.c ****    }
  48:E:/NeuOrga/Programmieren/c_cpp/github_os/input/src/os_base\os_task_common.c **** }
  92              		.loc 1 48 0
  93 00b1 C9       		leave
  94              		.cfi_restore 5
  95              		.cfi_def_cfa 4, 4
  96 00b2 C3       		ret
  97              		.cfi_endproc
  98              	LFE1:
  99              		.globl	_OS_TASK_RESTORE_SYSTEM_STACK
 101              	_OS_TASK_RESTORE_SYSTEM_STACK:
 102              	LFB2:
  49:E:/NeuOrga/Programmieren/c_cpp/github_os/input/src/os_base\os_task_common.c **** void OS_TASK_RESTORE_SYSTEM_STACK(uint8* system_stack_ptr)
  50:E:/NeuOrga/Programmieren/c_cpp/github_os/input/src/os_base\os_task_common.c **** {
 103              		.loc 1 50 0
 104              		.cfi_startproc
 105 00b3 55       		pushl	%ebp
 106              		.cfi_def_cfa_offset 8
 107              		.cfi_offset 5, -8
 108 00b4 89E5     		movl	%esp, %ebp
GAS LISTING C:\Users\PRESID~1\AppData\Local\Temp\ccbcQyxt.s 			page 4


 109              		.cfi_def_cfa_register 5
 110 00b6 83EC18   		subl	$24, %esp
  51:E:/NeuOrga/Programmieren/c_cpp/github_os/input/src/os_base\os_task_common.c ****    LLF_RESTORE_SYSTEM_STACK(system_stack_ptr);
 111              		.loc 1 51 0
 112 00b9 8B4508   		movl	8(%ebp), %eax
 113 00bc 890424   		movl	%eax, (%esp)
 114 00bf E8000000 		call	_LLF_RESTORE_SYSTEM_STACK
 114      00
  52:E:/NeuOrga/Programmieren/c_cpp/github_os/input/src/os_base\os_task_common.c **** }
 115              		.loc 1 52 0
 116 00c4 C9       		leave
 117              		.cfi_restore 5
 118              		.cfi_def_cfa 4, 4
 119 00c5 C3       		ret
 120              		.cfi_endproc
 121              	LFE2:
 122              		.globl	_OS_TASK_SAVE_SYSTEM_STACK
 124              	_OS_TASK_SAVE_SYSTEM_STACK:
 125              	LFB3:
  53:E:/NeuOrga/Programmieren/c_cpp/github_os/input/src/os_base\os_task_common.c **** void OS_TASK_SAVE_SYSTEM_STACK(uint8* system_stack_ptr)
  54:E:/NeuOrga/Programmieren/c_cpp/github_os/input/src/os_base\os_task_common.c **** {
 126              		.loc 1 54 0
 127              		.cfi_startproc
 128 00c6 55       		pushl	%ebp
 129              		.cfi_def_cfa_offset 8
 130              		.cfi_offset 5, -8
 131 00c7 89E5     		movl	%esp, %ebp
 132              		.cfi_def_cfa_register 5
 133 00c9 83EC18   		subl	$24, %esp
  55:E:/NeuOrga/Programmieren/c_cpp/github_os/input/src/os_base\os_task_common.c ****    LLF_SAVE_SYSTEM_STACK(system_stack_ptr);
 134              		.loc 1 55 0
 135 00cc 8B4508   		movl	8(%ebp), %eax
 136 00cf 890424   		movl	%eax, (%esp)
 137 00d2 E8000000 		call	_LLF_SAVE_SYSTEM_STACK
 137      00
  56:E:/NeuOrga/Programmieren/c_cpp/github_os/input/src/os_base\os_task_common.c **** }
 138              		.loc 1 56 0
 139 00d7 C9       		leave
 140              		.cfi_restore 5
 141              		.cfi_def_cfa 4, 4
 142 00d8 C3       		ret
 143              		.cfi_endproc
 144              	LFE3:
 145              		.globl	_OS_TASK_INIT_TASK_ENVIRONMENT
 147              	_OS_TASK_INIT_TASK_ENVIRONMENT:
 148              	LFB4:
  57:E:/NeuOrga/Programmieren/c_cpp/github_os/input/src/os_base\os_task_common.c **** void OS_TASK_INIT_TASK_ENVIRONMENT(task_t* task)
  58:E:/NeuOrga/Programmieren/c_cpp/github_os/input/src/os_base\os_task_common.c **** {
 149              		.loc 1 58 0
 150              		.cfi_startproc
 151 00d9 55       		pushl	%ebp
 152              		.cfi_def_cfa_offset 8
 153              		.cfi_offset 5, -8
 154 00da 89E5     		movl	%esp, %ebp
 155              		.cfi_def_cfa_register 5
 156 00dc 83EC18   		subl	$24, %esp
  59:E:/NeuOrga/Programmieren/c_cpp/github_os/input/src/os_base\os_task_common.c ****    if(task != 0u)
GAS LISTING C:\Users\PRESID~1\AppData\Local\Temp\ccbcQyxt.s 			page 5


 157              		.loc 1 59 0
 158 00df 837D0800 		cmpl	$0, 8(%ebp)
 159 00e3 0F84EE00 		je	L11
 159      0000
  60:E:/NeuOrga/Programmieren/c_cpp/github_os/input/src/os_base\os_task_common.c ****    {
  61:E:/NeuOrga/Programmieren/c_cpp/github_os/input/src/os_base\os_task_common.c ****       /* general*/
  62:E:/NeuOrga/Programmieren/c_cpp/github_os/input/src/os_base\os_task_common.c ****       task->active                = FALSE;
 160              		.loc 1 62 0
 161 00e9 8B4508   		movl	8(%ebp), %eax
 162 00ec 8A10     		movb	(%eax), %dl
 163 00ee 83E2FE   		andl	$-2, %edx
 164 00f1 8810     		movb	%dl, (%eax)
  63:E:/NeuOrga/Programmieren/c_cpp/github_os/input/src/os_base\os_task_common.c ****       /* general purpose registers */
  64:E:/NeuOrga/Programmieren/c_cpp/github_os/input/src/os_base\os_task_common.c **** #if(CFG_PROCESSOR == MCU_X86)
  65:E:/NeuOrga/Programmieren/c_cpp/github_os/input/src/os_base\os_task_common.c ****       task->eax                             = (unsigned_int32_t)       0u;
 165              		.loc 1 65 0
 166 00f3 8B4508   		movl	8(%ebp), %eax
 167 00f6 C7808400 		movl	$0, 132(%eax)
 167      00000000 
 167      0000
  66:E:/NeuOrga/Programmieren/c_cpp/github_os/input/src/os_base\os_task_common.c ****       task->ebx                             = (unsigned_int32_t)       0u;
 168              		.loc 1 66 0
 169 0100 8B4508   		movl	8(%ebp), %eax
 170 0103 C7808800 		movl	$0, 136(%eax)
 170      00000000 
 170      0000
  67:E:/NeuOrga/Programmieren/c_cpp/github_os/input/src/os_base\os_task_common.c ****       task->ecx                             = (unsigned_int32_t)       0u;
 171              		.loc 1 67 0
 172 010d 8B4508   		movl	8(%ebp), %eax
 173 0110 C7808C00 		movl	$0, 140(%eax)
 173      00000000 
 173      0000
  68:E:/NeuOrga/Programmieren/c_cpp/github_os/input/src/os_base\os_task_common.c ****       task->edx                             = (unsigned_int32_t)       0u;
 174              		.loc 1 68 0
 175 011a 8B4508   		movl	8(%ebp), %eax
 176 011d C7809000 		movl	$0, 144(%eax)
 176      00000000 
 176      0000
  69:E:/NeuOrga/Programmieren/c_cpp/github_os/input/src/os_base\os_task_common.c **** #else
  70:E:/NeuOrga/Programmieren/c_cpp/github_os/input/src/os_base\os_task_common.c ****       task->r0                             = (unsigned_int32_t)       0u;
  71:E:/NeuOrga/Programmieren/c_cpp/github_os/input/src/os_base\os_task_common.c ****       task->r1                             = (unsigned_int32_t)       0u;
  72:E:/NeuOrga/Programmieren/c_cpp/github_os/input/src/os_base\os_task_common.c ****       task->r2                             = (unsigned_int32_t)       0u;
  73:E:/NeuOrga/Programmieren/c_cpp/github_os/input/src/os_base\os_task_common.c ****       task->r3                             = (unsigned_int32_t)       0u;
  74:E:/NeuOrga/Programmieren/c_cpp/github_os/input/src/os_base\os_task_common.c ****       task->r4                             = (unsigned_int32_t)       0u;
  75:E:/NeuOrga/Programmieren/c_cpp/github_os/input/src/os_base\os_task_common.c ****       task->r5                             = (unsigned_int32_t)       0u;
  76:E:/NeuOrga/Programmieren/c_cpp/github_os/input/src/os_base\os_task_common.c ****       task->r6                             = (unsigned_int32_t)       0u;
  77:E:/NeuOrga/Programmieren/c_cpp/github_os/input/src/os_base\os_task_common.c ****       task->r7                             = (unsigned_int32_t)       0u;
  78:E:/NeuOrga/Programmieren/c_cpp/github_os/input/src/os_base\os_task_common.c ****       task->r8                             = (unsigned_int32_t)       0u;
  79:E:/NeuOrga/Programmieren/c_cpp/github_os/input/src/os_base\os_task_common.c ****       task->r9                             = (unsigned_int32_t)       0u;
  80:E:/NeuOrga/Programmieren/c_cpp/github_os/input/src/os_base\os_task_common.c ****       task->r10                             = (unsigned_int32_t)       0u;
  81:E:/NeuOrga/Programmieren/c_cpp/github_os/input/src/os_base\os_task_common.c ****       task->r11                             = (unsigned_int32_t)       0u;
  82:E:/NeuOrga/Programmieren/c_cpp/github_os/input/src/os_base\os_task_common.c ****       task->r12                             = (unsigned_int32_t)       0u;
  83:E:/NeuOrga/Programmieren/c_cpp/github_os/input/src/os_base\os_task_common.c **** #endif
  84:E:/NeuOrga/Programmieren/c_cpp/github_os/input/src/os_base\os_task_common.c ****       /* task scheduling */
  85:E:/NeuOrga/Programmieren/c_cpp/github_os/input/src/os_base\os_task_common.c ****       ASSIGN_NULL(&task->wait_act_until);
 177              		.loc 1 85 0
 178 0127 8B4508   		movl	8(%ebp), %eax
GAS LISTING C:\Users\PRESID~1\AppData\Local\Temp\ccbcQyxt.s 			page 6


 179 012a 83C006   		addl	$6, %eax
 180 012d 890424   		movl	%eax, (%esp)
 181 0130 E8000000 		call	_ASSIGN_NULL
 181      00
  86:E:/NeuOrga/Programmieren/c_cpp/github_os/input/src/os_base\os_task_common.c ****       ASSIGN_NULL(&task->wait_time);
 182              		.loc 1 86 0
 183 0135 8B4508   		movl	8(%ebp), %eax
 184 0138 83C016   		addl	$22, %eax
 185 013b 890424   		movl	%eax, (%esp)
 186 013e E8000000 		call	_ASSIGN_NULL
 186      00
  87:E:/NeuOrga/Programmieren/c_cpp/github_os/input/src/os_base\os_task_common.c ****       ASSIGN_UINT32(&task->time_to_prio_inc, 5u);
 187              		.loc 1 87 0
 188 0143 8B4508   		movl	8(%ebp), %eax
 189 0146 83C026   		addl	$38, %eax
 190 0149 C7442404 		movl	$5, 4(%esp)
 190      05000000 
 191 0151 890424   		movl	%eax, (%esp)
 192 0154 E8000000 		call	_ASSIGN_UINT32
 192      00
  88:E:/NeuOrga/Programmieren/c_cpp/github_os/input/src/os_base\os_task_common.c ****       task->overwaittime_per_prio_inc_step   = (unsigned_int32_t)        1u;/* has to be >=1 */
 193              		.loc 1 88 0
 194 0159 8B4508   		movl	8(%ebp), %eax
 195 015c C7403801 		movl	$1, 56(%eax)
 195      000000
  89:E:/NeuOrga/Programmieren/c_cpp/github_os/input/src/os_base\os_task_common.c ****       ASSIGN_UINT32(&task->max_allowed_wait_time,         100000u);
 196              		.loc 1 89 0
 197 0163 8B4508   		movl	8(%ebp), %eax
 198 0166 83C03C   		addl	$60, %eax
 199 0169 C7442404 		movl	$100000, 4(%esp)
 199      A0860100 
 200 0171 890424   		movl	%eax, (%esp)
 201 0174 E8000000 		call	_ASSIGN_UINT32
 201      00
  90:E:/NeuOrga/Programmieren/c_cpp/github_os/input/src/os_base\os_task_common.c ****       ASSIGN_NULL(&task->exe_time);
 202              		.loc 1 90 0
 203 0179 8B4508   		movl	8(%ebp), %eax
 204 017c 83C04C   		addl	$76, %eax
 205 017f 890424   		movl	%eax, (%esp)
 206 0182 E8000000 		call	_ASSIGN_NULL
 206      00
  91:E:/NeuOrga/Programmieren/c_cpp/github_os/input/src/os_base\os_task_common.c ****       task->current_prio                     = (unsigned_char_t)         0u;
 207              		.loc 1 91 0
 208 0187 8B4508   		movl	8(%ebp), %eax
 209 018a C6406C00 		movb	$0, 108(%eax)
  92:E:/NeuOrga/Programmieren/c_cpp/github_os/input/src/os_base\os_task_common.c ****       task->default_prio                     = (unsigned_char_t)         0u;/* the default prio for
 210              		.loc 1 92 0
 211 018e 8B4508   		movl	8(%ebp), %eax
 212 0191 C6406D00 		movb	$0, 109(%eax)
  93:E:/NeuOrga/Programmieren/c_cpp/github_os/input/src/os_base\os_task_common.c **** 
  94:E:/NeuOrga/Programmieren/c_cpp/github_os/input/src/os_base\os_task_common.c ****       /* task management */
  95:E:/NeuOrga/Programmieren/c_cpp/github_os/input/src/os_base\os_task_common.c ****       task->state_request                    =                           &OS_TASK_STATE_REQUEST;
 213              		.loc 1 95 0
 214 0195 8B4508   		movl	8(%ebp), %eax
 215 0198 C7407800 		movl	$_OS_TASK_STATE_REQUEST, 120(%eax)
 215      000000
  96:E:/NeuOrga/Programmieren/c_cpp/github_os/input/src/os_base\os_task_common.c ****       task->task_state                       =                           E_TASK_UNSPECIFIED;
GAS LISTING C:\Users\PRESID~1\AppData\Local\Temp\ccbcQyxt.s 			page 7


 216              		.loc 1 96 0
 217 019f 8B4508   		movl	8(%ebp), %eax
 218 01a2 C7407C00 		movl	$0, 124(%eax)
 218      000000
  97:E:/NeuOrga/Programmieren/c_cpp/github_os/input/src/os_base\os_task_common.c ****       task->task_queued                      =                           FALSE;
 219              		.loc 1 97 0
 220 01a9 8B4508   		movl	8(%ebp), %eax
 221 01ac 8A10     		movb	(%eax), %dl
 222 01ae 83E2FD   		andl	$-3, %edx
 223 01b1 8810     		movb	%dl, (%eax)
  98:E:/NeuOrga/Programmieren/c_cpp/github_os/input/src/os_base\os_task_common.c ****       task->free                             =                           0u;
 224              		.loc 1 98 0
 225 01b3 8B4508   		movl	8(%ebp), %eax
 226 01b6 8B10     		movl	(%eax), %edx
 227 01b8 83E207   		andl	$7, %edx
 228 01bb 8910     		movl	%edx, (%eax)
  99:E:/NeuOrga/Programmieren/c_cpp/github_os/input/src/os_base\os_task_common.c ****       task->nr_of_ins_allowed                   = (unsigned_char_t)         0u;
 229              		.loc 1 99 0
 230 01bd 8B4508   		movl	8(%ebp), %eax
 231 01c0 C6400400 		movb	$0, 4(%eax)
 100:E:/NeuOrga/Programmieren/c_cpp/github_os/input/src/os_base\os_task_common.c ****       task->nr_of_ins_activated                 = (unsigned_char_t)         0u;
 232              		.loc 1 100 0
 233 01c4 8B4508   		movl	8(%ebp), %eax
 234 01c7 C6400500 		movb	$0, 5(%eax)
 101:E:/NeuOrga/Programmieren/c_cpp/github_os/input/src/os_base\os_task_common.c ****       task->fp                               = (func_p_t)                0u;
 235              		.loc 1 101 0
 236 01cb 8B4508   		movl	8(%ebp), %eax
 237 01ce C7407400 		movl	$0, 116(%eax)
 237      000000
 238 01d5 EB14     		jmp	L10
 239              	L11:
 102:E:/NeuOrga/Programmieren/c_cpp/github_os/input/src/os_base\os_task_common.c **** 
 103:E:/NeuOrga/Programmieren/c_cpp/github_os/input/src/os_base\os_task_common.c ****    }
 104:E:/NeuOrga/Programmieren/c_cpp/github_os/input/src/os_base\os_task_common.c ****    else
 105:E:/NeuOrga/Programmieren/c_cpp/github_os/input/src/os_base\os_task_common.c ****    {
 106:E:/NeuOrga/Programmieren/c_cpp/github_os/input/src/os_base\os_task_common.c ****       OS_SET_SW_BUG(E_OS_BUG_NULL_POINTER,E_FUNC_INITTASKENVIRONMENT);
 240              		.loc 1 106 0
 241 01d7 C7442404 		movl	$5, 4(%esp)
 241      05000000 
 242 01df C7042402 		movl	$2, (%esp)
 242      000000
 243 01e6 E8000000 		call	_OS_SET_SW_BUG
 243      00
 244              	L10:
 107:E:/NeuOrga/Programmieren/c_cpp/github_os/input/src/os_base\os_task_common.c ****    }
 108:E:/NeuOrga/Programmieren/c_cpp/github_os/input/src/os_base\os_task_common.c **** }
 245              		.loc 1 108 0
 246 01eb C9       		leave
 247              		.cfi_restore 5
 248              		.cfi_def_cfa 4, 4
 249 01ec C3       		ret
 250              		.cfi_endproc
 251              	LFE4:
 252              	Letext0:
 253              		.file 2 "E:/NeuOrga/Programmieren/c_cpp/github_os/input/src/os_base/../os_base/os_base_types.h"
 254              		.file 3 "E:/NeuOrga/Programmieren/c_cpp/github_os/input/src/os_base/../os_base/os_common.h"
 255              		.file 4 "E:/NeuOrga/Programmieren/c_cpp/github_os/input/src/os_base/../os_sim/lld_core.h"
GAS LISTING C:\Users\PRESID~1\AppData\Local\Temp\ccbcQyxt.s 			page 8


 256              		.file 5 "E:/NeuOrga/Programmieren/c_cpp/github_os/input/src/os_base/../os_sim/../os_base/os_task_c