GAS LISTING C:\Users\PRESID~1\AppData\Local\Temp\ccLfwevT.s 			page 1


   1              		.file	"os_task_scheduler.c"
   2              		.text
   3              	Ltext0:
   4              	.lcomm _TASK_STACK,1000,32
   5              	.lcomm _LAST_CURRENT_TIME,4,4
   6              		.globl	_OS_ACTIVATE_DISPATCHER
   8              	_OS_ACTIVATE_DISPATCHER:
   9              	LFB0:
  10              		.file 1 "E:/NeuOrga/Programmieren/c_cpp/github_os/input/src/os_base/os_task_scheduler.c"
   1:E:/NeuOrga/Programmieren/c_cpp/github_os/input/src/os_base\os_task_scheduler.c **** #include "os_firstinc.h"
   2:E:/NeuOrga/Programmieren/c_cpp/github_os/input/src/os_base\os_task_scheduler.c **** #include "os_common.h"
   3:E:/NeuOrga/Programmieren/c_cpp/github_os/input/src/os_base\os_task_scheduler.c **** #include "os_task_common.h"
   4:E:/NeuOrga/Programmieren/c_cpp/github_os/input/src/os_base\os_task_scheduler.c **** #include "os_task_scheduler.h"
   5:E:/NeuOrga/Programmieren/c_cpp/github_os/input/src/os_base\os_task_scheduler.c **** #include "os_task_queue.h"
   6:E:/NeuOrga/Programmieren/c_cpp/github_os/input/src/os_base\os_task_scheduler.c **** #include "os_stack.h"
   7:E:/NeuOrga/Programmieren/c_cpp/github_os/input/src/os_base\os_task_scheduler.c **** 
   8:E:/NeuOrga/Programmieren/c_cpp/github_os/input/src/os_base\os_task_scheduler.c **** /*
   9:E:/NeuOrga/Programmieren/c_cpp/github_os/input/src/os_base\os_task_scheduler.c **** 1. running     --(terminate)--> suspend
  10:E:/NeuOrga/Programmieren/c_cpp/github_os/input/src/os_base\os_task_scheduler.c **** 2. running     --(preempt  )--> ready
  11:E:/NeuOrga/Programmieren/c_cpp/github_os/input/src/os_base\os_task_scheduler.c **** 3. suspend     --(activate )--> ready
  12:E:/NeuOrga/Programmieren/c_cpp/github_os/input/src/os_base\os_task_scheduler.c **** 4. ready       --(start    )--> running
  13:E:/NeuOrga/Programmieren/c_cpp/github_os/input/src/os_base\os_task_scheduler.c **** 5. unspecified --(create   )--> suspend
  14:E:/NeuOrga/Programmieren/c_cpp/github_os/input/src/os_base\os_task_scheduler.c **** */
  15:E:/NeuOrga/Programmieren/c_cpp/github_os/input/src/os_base\os_task_scheduler.c **** 
  16:E:/NeuOrga/Programmieren/c_cpp/github_os/input/src/os_base\os_task_scheduler.c **** Local void OS_STARTTASK(task_t* task);
  17:E:/NeuOrga/Programmieren/c_cpp/github_os/input/src/os_base\os_task_scheduler.c **** Local void OS_TERMINATE_TASK(task_t* task);
  18:E:/NeuOrga/Programmieren/c_cpp/github_os/input/src/os_base\os_task_scheduler.c **** Local void TASK_0(void* task_ptr);
  19:E:/NeuOrga/Programmieren/c_cpp/github_os/input/src/os_base\os_task_scheduler.c **** Local void TASK_1(void* task_ptr);
  20:E:/NeuOrga/Programmieren/c_cpp/github_os/input/src/os_base\os_task_scheduler.c **** Local void TASK_2(void* task_ptr);
  21:E:/NeuOrga/Programmieren/c_cpp/github_os/input/src/os_base\os_task_scheduler.c **** Local void OS_TASK_DISPATCHER(void);
  22:E:/NeuOrga/Programmieren/c_cpp/github_os/input/src/os_base\os_task_scheduler.c **** Local task_t* OS_TaskScheduler();
  23:E:/NeuOrga/Programmieren/c_cpp/github_os/input/src/os_base\os_task_scheduler.c **** 
  24:E:/NeuOrga/Programmieren/c_cpp/github_os/input/src/os_base\os_task_scheduler.c **** Local unsigned_char_t   TASK_STACK[MAX_RUN_QUEUE_SIZE][TASK_STACK_SIZE];
  25:E:/NeuOrga/Programmieren/c_cpp/github_os/input/src/os_base\os_task_scheduler.c **** Local scheduler_time_t LAST_CURRENT_TIME = 0;
  26:E:/NeuOrga/Programmieren/c_cpp/github_os/input/src/os_base\os_task_scheduler.c **** 
  27:E:/NeuOrga/Programmieren/c_cpp/github_os/input/src/os_base\os_task_scheduler.c **** void OS_ACTIVATE_DISPATCHER(void)
  28:E:/NeuOrga/Programmieren/c_cpp/github_os/input/src/os_base\os_task_scheduler.c **** {
  11              		.loc 1 28 0
  12              		.cfi_startproc
  13 0000 55       		pushl	%ebp
  14              		.cfi_def_cfa_offset 8
  15              		.cfi_offset 5, -8
  16 0001 89E5     		movl	%esp, %ebp
  17              		.cfi_def_cfa_register 5
  18 0003 83EC08   		subl	$8, %esp
  29:E:/NeuOrga/Programmieren/c_cpp/github_os/input/src/os_base\os_task_scheduler.c **** 
  30:E:/NeuOrga/Programmieren/c_cpp/github_os/input/src/os_base\os_task_scheduler.c ****    /* configure the TCMP */
  31:E:/NeuOrga/Programmieren/c_cpp/github_os/input/src/os_base\os_task_scheduler.c ****    /*
  32:E:/NeuOrga/Programmieren/c_cpp/github_os/input/src/os_base\os_task_scheduler.c ****    Dispatcher function for Core 0:
  33:E:/NeuOrga/Programmieren/c_cpp/github_os/input/src/os_base\os_task_scheduler.c ****     -> ISR_TASK_DISPATCH_C0
  34:E:/NeuOrga/Programmieren/c_cpp/github_os/input/src/os_base\os_task_scheduler.c ****    Write Adresse into the config register (interrupts are requested by SWI/SVC???)
  35:E:/NeuOrga/Programmieren/c_cpp/github_os/input/src/os_base\os_task_scheduler.c ****    */
  36:E:/NeuOrga/Programmieren/c_cpp/github_os/input/src/os_base\os_task_scheduler.c ****    LLF_TCMP1_CONFIG();
  19              		.loc 1 36 0
  20 0006 E8000000 		call	_LLF_TCMP1_CONFIG
  20      00
  37:E:/NeuOrga/Programmieren/c_cpp/github_os/input/src/os_base\os_task_scheduler.c **** 
GAS LISTING C:\Users\PRESID~1\AppData\Local\Temp\ccLfwevT.s 			page 2


  38:E:/NeuOrga/Programmieren/c_cpp/github_os/input/src/os_base\os_task_scheduler.c ****    /* activate now the interrupts */
  39:E:/NeuOrga/Programmieren/c_cpp/github_os/input/src/os_base\os_task_scheduler.c ****    LLF_INT_ENABLE();
  21              		.loc 1 39 0
  22 000b E8000000 		call	_LLF_INT_ENABLE
  22      00
  40:E:/NeuOrga/Programmieren/c_cpp/github_os/input/src/os_base\os_task_scheduler.c **** }
  23              		.loc 1 40 0
  24 0010 C9       		leave
  25              		.cfi_restore 5
  26              		.cfi_def_cfa 4, 4
  27 0011 C3       		ret
  28              		.cfi_endproc
  29              	LFE0:
  30              		.globl	_OS_SLEEPTASK
  32              	_OS_SLEEPTASK:
  33              	LFB1:
  41:E:/NeuOrga/Programmieren/c_cpp/github_os/input/src/os_base\os_task_scheduler.c **** 
  42:E:/NeuOrga/Programmieren/c_cpp/github_os/input/src/os_base\os_task_scheduler.c **** 
  43:E:/NeuOrga/Programmieren/c_cpp/github_os/input/src/os_base\os_task_scheduler.c **** void OS_SLEEPTASK(task_t* task, task_time_t millisec)
  44:E:/NeuOrga/Programmieren/c_cpp/github_os/input/src/os_base\os_task_scheduler.c **** {
  34              		.loc 1 44 0
  35              		.cfi_startproc
  36 0012 55       		pushl	%ebp
  37              		.cfi_def_cfa_offset 8
  38              		.cfi_offset 5, -8
  39 0013 89E5     		movl	%esp, %ebp
  40              		.cfi_def_cfa_register 5
  41 0015 83EC08   		subl	$8, %esp
  45:E:/NeuOrga/Programmieren/c_cpp/github_os/input/src/os_base\os_task_scheduler.c ****    task->WaitActUntil = Get_current_time() + millisec;
  42              		.loc 1 45 0
  43 0018 E8000000 		call	_Get_current_time
  43      00
  44 001d 89C2     		movl	%eax, %edx
  45 001f 8B450C   		movl	12(%ebp), %eax
  46 0022 01C2     		addl	%eax, %edx
  47 0024 8B4508   		movl	8(%ebp), %eax
  48 0027 895008   		movl	%edx, 8(%eax)
  46:E:/NeuOrga/Programmieren/c_cpp/github_os/input/src/os_base\os_task_scheduler.c **** }
  49              		.loc 1 46 0
  50 002a C9       		leave
  51              		.cfi_restore 5
  52              		.cfi_def_cfa 4, 4
  53 002b C3       		ret
  54              		.cfi_endproc
  55              	LFE1:
  56              		.globl	_task_state_request
  58              	_task_state_request:
  59              	LFB2:
  47:E:/NeuOrga/Programmieren/c_cpp/github_os/input/src/os_base\os_task_scheduler.c **** 
  48:E:/NeuOrga/Programmieren/c_cpp/github_os/input/src/os_base\os_task_scheduler.c **** unsigned_char_t task_state_request(void* temp_task, task_state_t requested_state)
  49:E:/NeuOrga/Programmieren/c_cpp/github_os/input/src/os_base\os_task_scheduler.c **** {
  60              		.loc 1 49 0
  61              		.cfi_startproc
  62 002c 55       		pushl	%ebp
  63              		.cfi_def_cfa_offset 8
  64              		.cfi_offset 5, -8
  65 002d 89E5     		movl	%esp, %ebp
GAS LISTING C:\Users\PRESID~1\AppData\Local\Temp\ccLfwevT.s 			page 3


  66              		.cfi_def_cfa_register 5
  67 002f 83EC28   		subl	$40, %esp
  50:E:/NeuOrga/Programmieren/c_cpp/github_os/input/src/os_base\os_task_scheduler.c ****    unsigned_char_t RequestState = Rejected;
  68              		.loc 1 50 0
  69 0032 C645F700 		movb	$0, -9(%ebp)
  51:E:/NeuOrga/Programmieren/c_cpp/github_os/input/src/os_base\os_task_scheduler.c **** 
  52:E:/NeuOrga/Programmieren/c_cpp/github_os/input/src/os_base\os_task_scheduler.c ****    task_t* task = (task_t*) temp_task;
  70              		.loc 1 52 0
  71 0036 8B4508   		movl	8(%ebp), %eax
  72 0039 8945F0   		movl	%eax, -16(%ebp)
  53:E:/NeuOrga/Programmieren/c_cpp/github_os/input/src/os_base\os_task_scheduler.c **** 
  54:E:/NeuOrga/Programmieren/c_cpp/github_os/input/src/os_base\os_task_scheduler.c ****    switch(requested_state)
  73              		.loc 1 54 0
  74 003c 8B450C   		movl	12(%ebp), %eax
  75 003f 83F801   		cmpl	$1, %eax
  76 0042 743E     		je	L5
  77 0044 83F801   		cmpl	$1, %eax
  78 0047 7213     		jb	L6
  79 0049 83F802   		cmpl	$2, %eax
  80 004c 0F848000 		je	L7
  80      0000
  81 0052 83F803   		cmpl	$3, %eax
  82 0055 745D     		je	L8
  55:E:/NeuOrga/Programmieren/c_cpp/github_os/input/src/os_base\os_task_scheduler.c ****    {
  56:E:/NeuOrga/Programmieren/c_cpp/github_os/input/src/os_base\os_task_scheduler.c ****    case Task_unspecified:/* 1. create new task */
  57:E:/NeuOrga/Programmieren/c_cpp/github_os/input/src/os_base\os_task_scheduler.c ****    {
  58:E:/NeuOrga/Programmieren/c_cpp/github_os/input/src/os_base\os_task_scheduler.c ****       switch(task->task_state)
  59:E:/NeuOrga/Programmieren/c_cpp/github_os/input/src/os_base\os_task_scheduler.c ****       {
  60:E:/NeuOrga/Programmieren/c_cpp/github_os/input/src/os_base\os_task_scheduler.c ****       case Task_ready:
  61:E:/NeuOrga/Programmieren/c_cpp/github_os/input/src/os_base\os_task_scheduler.c ****       case Task_running:
  62:E:/NeuOrga/Programmieren/c_cpp/github_os/input/src/os_base\os_task_scheduler.c ****       case Task_suspended:
  63:E:/NeuOrga/Programmieren/c_cpp/github_os/input/src/os_base\os_task_scheduler.c ****       {
  64:E:/NeuOrga/Programmieren/c_cpp/github_os/input/src/os_base\os_task_scheduler.c ****          RequestState = Rejected;
  65:E:/NeuOrga/Programmieren/c_cpp/github_os/input/src/os_base\os_task_scheduler.c ****          break;
  66:E:/NeuOrga/Programmieren/c_cpp/github_os/input/src/os_base\os_task_scheduler.c ****       }
  67:E:/NeuOrga/Programmieren/c_cpp/github_os/input/src/os_base\os_task_scheduler.c ****       default:
  68:E:/NeuOrga/Programmieren/c_cpp/github_os/input/src/os_base\os_task_scheduler.c ****       {
  69:E:/NeuOrga/Programmieren/c_cpp/github_os/input/src/os_base\os_task_scheduler.c ****          task->task_state = Task_unspecified;
  70:E:/NeuOrga/Programmieren/c_cpp/github_os/input/src/os_base\os_task_scheduler.c ****          RequestState = Accepted;
  71:E:/NeuOrga/Programmieren/c_cpp/github_os/input/src/os_base\os_task_scheduler.c ****          break;
  72:E:/NeuOrga/Programmieren/c_cpp/github_os/input/src/os_base\os_task_scheduler.c ****       }
  73:E:/NeuOrga/Programmieren/c_cpp/github_os/input/src/os_base\os_task_scheduler.c ****       }
  74:E:/NeuOrga/Programmieren/c_cpp/github_os/input/src/os_base\os_task_scheduler.c ****       break;
  75:E:/NeuOrga/Programmieren/c_cpp/github_os/input/src/os_base\os_task_scheduler.c ****    }
  76:E:/NeuOrga/Programmieren/c_cpp/github_os/input/src/os_base\os_task_scheduler.c ****    case Task_suspended:
  77:E:/NeuOrga/Programmieren/c_cpp/github_os/input/src/os_base\os_task_scheduler.c ****    {
  78:E:/NeuOrga/Programmieren/c_cpp/github_os/input/src/os_base\os_task_scheduler.c ****       switch(task->task_state)
  79:E:/NeuOrga/Programmieren/c_cpp/github_os/input/src/os_base\os_task_scheduler.c ****       {
  80:E:/NeuOrga/Programmieren/c_cpp/github_os/input/src/os_base\os_task_scheduler.c ****       case Task_unspecified: /* 2. create task transition */
  81:E:/NeuOrga/Programmieren/c_cpp/github_os/input/src/os_base\os_task_scheduler.c ****       {
  82:E:/NeuOrga/Programmieren/c_cpp/github_os/input/src/os_base\os_task_scheduler.c ****          /* no checks */
  83:E:/NeuOrga/Programmieren/c_cpp/github_os/input/src/os_base\os_task_scheduler.c ****          task->task_state = Task_suspended;
  84:E:/NeuOrga/Programmieren/c_cpp/github_os/input/src/os_base\os_task_scheduler.c ****          RequestState = Accepted;
  85:E:/NeuOrga/Programmieren/c_cpp/github_os/input/src/os_base\os_task_scheduler.c ****          break;
  86:E:/NeuOrga/Programmieren/c_cpp/github_os/input/src/os_base\os_task_scheduler.c ****       }
  87:E:/NeuOrga/Programmieren/c_cpp/github_os/input/src/os_base\os_task_scheduler.c ****       case Task_running: /* 3. terminate task */
  88:E:/NeuOrga/Programmieren/c_cpp/github_os/input/src/os_base\os_task_scheduler.c ****       {
GAS LISTING C:\Users\PRESID~1\AppData\Local\Temp\ccLfwevT.s 			page 4


  89:E:/NeuOrga/Programmieren/c_cpp/github_os/input/src/os_base\os_task_scheduler.c ****          task->task_state = Task_suspended;
  90:E:/NeuOrga/Programmieren/c_cpp/github_os/input/src/os_base\os_task_scheduler.c ****          RequestState = Accepted;
  91:E:/NeuOrga/Programmieren/c_cpp/github_os/input/src/os_base\os_task_scheduler.c ****          break;
  92:E:/NeuOrga/Programmieren/c_cpp/github_os/input/src/os_base\os_task_scheduler.c ****       }
  93:E:/NeuOrga/Programmieren/c_cpp/github_os/input/src/os_base\os_task_scheduler.c ****       default:
  94:E:/NeuOrga/Programmieren/c_cpp/github_os/input/src/os_base\os_task_scheduler.c ****       {
  95:E:/NeuOrga/Programmieren/c_cpp/github_os/input/src/os_base\os_task_scheduler.c ****          /* no change in states allowed */
  96:E:/NeuOrga/Programmieren/c_cpp/github_os/input/src/os_base\os_task_scheduler.c ****          break;
  97:E:/NeuOrga/Programmieren/c_cpp/github_os/input/src/os_base\os_task_scheduler.c ****       }
  98:E:/NeuOrga/Programmieren/c_cpp/github_os/input/src/os_base\os_task_scheduler.c ****       }
  99:E:/NeuOrga/Programmieren/c_cpp/github_os/input/src/os_base\os_task_scheduler.c ****       break;
 100:E:/NeuOrga/Programmieren/c_cpp/github_os/input/src/os_base\os_task_scheduler.c ****    }
 101:E:/NeuOrga/Programmieren/c_cpp/github_os/input/src/os_base\os_task_scheduler.c ****    case Task_running:
 102:E:/NeuOrga/Programmieren/c_cpp/github_os/input/src/os_base\os_task_scheduler.c ****    {
 103:E:/NeuOrga/Programmieren/c_cpp/github_os/input/src/os_base\os_task_scheduler.c ****       switch(task->task_state)
 104:E:/NeuOrga/Programmieren/c_cpp/github_os/input/src/os_base\os_task_scheduler.c ****       {
 105:E:/NeuOrga/Programmieren/c_cpp/github_os/input/src/os_base\os_task_scheduler.c ****       case Task_ready: /* 4. start task transition */
 106:E:/NeuOrga/Programmieren/c_cpp/github_os/input/src/os_base\os_task_scheduler.c ****       {
 107:E:/NeuOrga/Programmieren/c_cpp/github_os/input/src/os_base\os_task_scheduler.c ****          task->task_state = Task_running;
 108:E:/NeuOrga/Programmieren/c_cpp/github_os/input/src/os_base\os_task_scheduler.c ****          RequestState   = Accepted;
 109:E:/NeuOrga/Programmieren/c_cpp/github_os/input/src/os_base\os_task_scheduler.c ****          break;
 110:E:/NeuOrga/Programmieren/c_cpp/github_os/input/src/os_base\os_task_scheduler.c ****       }
 111:E:/NeuOrga/Programmieren/c_cpp/github_os/input/src/os_base\os_task_scheduler.c ****       default:
 112:E:/NeuOrga/Programmieren/c_cpp/github_os/input/src/os_base\os_task_scheduler.c ****       {
 113:E:/NeuOrga/Programmieren/c_cpp/github_os/input/src/os_base\os_task_scheduler.c ****          /* no change in states allowed */
 114:E:/NeuOrga/Programmieren/c_cpp/github_os/input/src/os_base\os_task_scheduler.c ****          break;
 115:E:/NeuOrga/Programmieren/c_cpp/github_os/input/src/os_base\os_task_scheduler.c ****       }
 116:E:/NeuOrga/Programmieren/c_cpp/github_os/input/src/os_base\os_task_scheduler.c ****       }
 117:E:/NeuOrga/Programmieren/c_cpp/github_os/input/src/os_base\os_task_scheduler.c ****       break;
 118:E:/NeuOrga/Programmieren/c_cpp/github_os/input/src/os_base\os_task_scheduler.c **** 
 119:E:/NeuOrga/Programmieren/c_cpp/github_os/input/src/os_base\os_task_scheduler.c ****    }
 120:E:/NeuOrga/Programmieren/c_cpp/github_os/input/src/os_base\os_task_scheduler.c ****    case Task_ready:
 121:E:/NeuOrga/Programmieren/c_cpp/github_os/input/src/os_base\os_task_scheduler.c ****    {
 122:E:/NeuOrga/Programmieren/c_cpp/github_os/input/src/os_base\os_task_scheduler.c ****       switch(task->task_state)
 123:E:/NeuOrga/Programmieren/c_cpp/github_os/input/src/os_base\os_task_scheduler.c ****       {
 124:E:/NeuOrga/Programmieren/c_cpp/github_os/input/src/os_base\os_task_scheduler.c ****       case Task_suspended: /* activate task transition */
 125:E:/NeuOrga/Programmieren/c_cpp/github_os/input/src/os_base\os_task_scheduler.c ****       {
 126:E:/NeuOrga/Programmieren/c_cpp/github_os/input/src/os_base\os_task_scheduler.c ****          task->task_state = Task_ready;
 127:E:/NeuOrga/Programmieren/c_cpp/github_os/input/src/os_base\os_task_scheduler.c ****          RequestState   = Accepted;
 128:E:/NeuOrga/Programmieren/c_cpp/github_os/input/src/os_base\os_task_scheduler.c ****          break;
 129:E:/NeuOrga/Programmieren/c_cpp/github_os/input/src/os_base\os_task_scheduler.c ****       }
 130:E:/NeuOrga/Programmieren/c_cpp/github_os/input/src/os_base\os_task_scheduler.c ****       case Task_running: /* preempt task transition */
 131:E:/NeuOrga/Programmieren/c_cpp/github_os/input/src/os_base\os_task_scheduler.c ****       {
 132:E:/NeuOrga/Programmieren/c_cpp/github_os/input/src/os_base\os_task_scheduler.c ****          task->task_state = Task_ready;
 133:E:/NeuOrga/Programmieren/c_cpp/github_os/input/src/os_base\os_task_scheduler.c ****          RequestState   = Accepted;
 134:E:/NeuOrga/Programmieren/c_cpp/github_os/input/src/os_base\os_task_scheduler.c ****          break;
 135:E:/NeuOrga/Programmieren/c_cpp/github_os/input/src/os_base\os_task_scheduler.c ****       }
 136:E:/NeuOrga/Programmieren/c_cpp/github_os/input/src/os_base\os_task_scheduler.c ****       default:
 137:E:/NeuOrga/Programmieren/c_cpp/github_os/input/src/os_base\os_task_scheduler.c ****       {
 138:E:/NeuOrga/Programmieren/c_cpp/github_os/input/src/os_base\os_task_scheduler.c ****          /* no change in states allowed */
 139:E:/NeuOrga/Programmieren/c_cpp/github_os/input/src/os_base\os_task_scheduler.c ****          break;
 140:E:/NeuOrga/Programmieren/c_cpp/github_os/input/src/os_base\os_task_scheduler.c ****       }
 141:E:/NeuOrga/Programmieren/c_cpp/github_os/input/src/os_base\os_task_scheduler.c ****       }
 142:E:/NeuOrga/Programmieren/c_cpp/github_os/input/src/os_base\os_task_scheduler.c ****       break;
 143:E:/NeuOrga/Programmieren/c_cpp/github_os/input/src/os_base\os_task_scheduler.c ****    }
 144:E:/NeuOrga/Programmieren/c_cpp/github_os/input/src/os_base\os_task_scheduler.c ****    default:
 145:E:/NeuOrga/Programmieren/c_cpp/github_os/input/src/os_base\os_task_scheduler.c ****    {
GAS LISTING C:\Users\PRESID~1\AppData\Local\Temp\ccLfwevT.s 			page 5


 146:E:/NeuOrga/Programmieren/c_cpp/github_os/input/src/os_base\os_task_scheduler.c ****       break;
  83              		.loc 1 146 0
  84 0057 E9A80000 		jmp	L12
  84      00
  85              	L6:
  58:E:/NeuOrga/Programmieren/c_cpp/github_os/input/src/os_base\os_task_scheduler.c ****       {
  86              		.loc 1 58 0
  87 005c 8B45F0   		movl	-16(%ebp), %eax
  88 005f 8B4030   		movl	48(%eax), %eax
  89 0062 48       		decl	%eax
  90 0063 83F802   		cmpl	$2, %eax
  91 0066 7706     		ja	L9
  64:E:/NeuOrga/Programmieren/c_cpp/github_os/input/src/os_base\os_task_scheduler.c ****          break;
  92              		.loc 1 64 0
  93 0068 C645F700 		movb	$0, -9(%ebp)
  65:E:/NeuOrga/Programmieren/c_cpp/github_os/input/src/os_base\os_task_scheduler.c ****       }
  94              		.loc 1 65 0
  95 006c EB0F     		jmp	L11
  96              	L9:
  69:E:/NeuOrga/Programmieren/c_cpp/github_os/input/src/os_base\os_task_scheduler.c ****          RequestState = Accepted;
  97              		.loc 1 69 0
  98 006e 8B45F0   		movl	-16(%ebp), %eax
  99 0071 C7403000 		movl	$0, 48(%eax)
  99      000000
  70:E:/NeuOrga/Programmieren/c_cpp/github_os/input/src/os_base\os_task_scheduler.c ****          break;
 100              		.loc 1 70 0
 101 0078 C645F701 		movb	$1, -9(%ebp)
  71:E:/NeuOrga/Programmieren/c_cpp/github_os/input/src/os_base\os_task_scheduler.c ****       }
 102              		.loc 1 71 0
 103 007c 90       		nop
 104              	L11:
  74:E:/NeuOrga/Programmieren/c_cpp/github_os/input/src/os_base\os_task_scheduler.c ****    }
 105              		.loc 1 74 0
 106 007d E9820000 		jmp	L12
 106      00
 107              	L5:
  78:E:/NeuOrga/Programmieren/c_cpp/github_os/input/src/os_base\os_task_scheduler.c ****       {
 108              		.loc 1 78 0
 109 0082 8B45F0   		movl	-16(%ebp), %eax
 110 0085 8B4030   		movl	48(%eax), %eax
 111 0088 85C0     		testl	%eax, %eax
 112 008a 7407     		je	L14
 113 008c 83F803   		cmpl	$3, %eax
 114 008f 7412     		je	L15
  96:E:/NeuOrga/Programmieren/c_cpp/github_os/input/src/os_base\os_task_scheduler.c ****       }
 115              		.loc 1 96 0
 116 0091 EB1F     		jmp	L16
 117              	L14:
  83:E:/NeuOrga/Programmieren/c_cpp/github_os/input/src/os_base\os_task_scheduler.c ****          RequestState = Accepted;
 118              		.loc 1 83 0
 119 0093 8B45F0   		movl	-16(%ebp), %eax
 120 0096 C7403001 		movl	$1, 48(%eax)
 120      000000
  84:E:/NeuOrga/Programmieren/c_cpp/github_os/input/src/os_base\os_task_scheduler.c ****          break;
 121              		.loc 1 84 0
 122 009d C645F701 		movb	$1, -9(%ebp)
  85:E:/NeuOrga/Programmieren/c_cpp/github_os/input/src/os_base\os_task_scheduler.c ****       }
GAS LISTING C:\Users\PRESID~1\AppData\Local\Temp\ccLfwevT.s 			page 6


 123              		.loc 1 85 0
 124 00a1 EB0F     		jmp	L16
 125              	L15:
  89:E:/NeuOrga/Programmieren/c_cpp/github_os/input/src/os_base\os_task_scheduler.c ****          RequestState = Accepted;
 126              		.loc 1 89 0
 127 00a3 8B45F0   		movl	-16(%ebp), %eax
 128 00a6 C7403001 		movl	$1, 48(%eax)
 128      000000
  90:E:/NeuOrga/Programmieren/c_cpp/github_os/input/src/os_base\os_task_scheduler.c ****          break;
 129              		.loc 1 90 0
 130 00ad C645F701 		movb	$1, -9(%ebp)
  91:E:/NeuOrga/Programmieren/c_cpp/github_os/input/src/os_base\os_task_scheduler.c ****       }
 131              		.loc 1 91 0
 132 00b1 90       		nop
 133              	L16:
  99:E:/NeuOrga/Programmieren/c_cpp/github_os/input/src/os_base\os_task_scheduler.c ****    }
 134              		.loc 1 99 0 discriminator 1
 135 00b2 EB50     		jmp	L12
 136              	L8:
 103:E:/NeuOrga/Programmieren/c_cpp/github_os/input/src/os_base\os_task_scheduler.c ****       {
 137              		.loc 1 103 0
 138 00b4 8B45F0   		movl	-16(%ebp), %eax
 139 00b7 8B4030   		movl	48(%eax), %eax
 140 00ba 83F802   		cmpl	$2, %eax
 141 00bd 7402     		je	L18
 114:E:/NeuOrga/Programmieren/c_cpp/github_os/input/src/os_base\os_task_scheduler.c ****       }
 142              		.loc 1 114 0
 143 00bf EB0F     		jmp	L19
 144              	L18:
 107:E:/NeuOrga/Programmieren/c_cpp/github_os/input/src/os_base\os_task_scheduler.c ****          RequestState   = Accepted;
 145              		.loc 1 107 0
 146 00c1 8B45F0   		movl	-16(%ebp), %eax
 147 00c4 C7403003 		movl	$3, 48(%eax)
 147      000000
 108:E:/NeuOrga/Programmieren/c_cpp/github_os/input/src/os_base\os_task_scheduler.c ****          break;
 148              		.loc 1 108 0
 149 00cb C645F701 		movb	$1, -9(%ebp)
 109:E:/NeuOrga/Programmieren/c_cpp/github_os/input/src/os_base\os_task_scheduler.c ****       }
 150              		.loc 1 109 0
 151 00cf 90       		nop
 152              	L19:
 117:E:/NeuOrga/Programmieren/c_cpp/github_os/input/src/os_base\os_task_scheduler.c **** 
 153              		.loc 1 117 0 discriminator 2
 154 00d0 EB32     		jmp	L12
 155              	L7:
 122:E:/NeuOrga/Programmieren/c_cpp/github_os/input/src/os_base\os_task_scheduler.c ****       {
 156              		.loc 1 122 0
 157 00d2 8B45F0   		movl	-16(%ebp), %eax
 158 00d5 8B4030   		movl	48(%eax), %eax
 159 00d8 83F801   		cmpl	$1, %eax
 160 00db 7407     		je	L21
 161 00dd 83F803   		cmpl	$3, %eax
 162 00e0 7412     		je	L22
 139:E:/NeuOrga/Programmieren/c_cpp/github_os/input/src/os_base\os_task_scheduler.c ****       }
 163              		.loc 1 139 0
 164 00e2 EB1F     		jmp	L23
 165              	L21:
GAS LISTING C:\Users\PRESID~1\AppData\Local\Temp\ccLfwevT.s 			page 7


 126:E:/NeuOrga/Programmieren/c_cpp/github_os/input/src/os_base\os_task_scheduler.c ****          RequestState   = Accepted;
 166              		.loc 1 126 0
 167 00e4 8B45F0   		movl	-16(%ebp), %eax
 168 00e7 C7403002 		movl	$2, 48(%eax)
 168      000000
 127:E:/NeuOrga/Programmieren/c_cpp/github_os/input/src/os_base\os_task_scheduler.c ****          break;
 169              		.loc 1 127 0
 170 00ee C645F701 		movb	$1, -9(%ebp)
 128:E:/NeuOrga/Programmieren/c_cpp/github_os/input/src/os_base\os_task_scheduler.c ****       }
 171              		.loc 1 128 0
 172 00f2 EB0F     		jmp	L23
 173              	L22:
 132:E:/NeuOrga/Programmieren/c_cpp/github_os/input/src/os_base\os_task_scheduler.c ****          RequestState   = Accepted;
 174              		.loc 1 132 0
 175 00f4 8B45F0   		movl	-16(%ebp), %eax
 176 00f7 C7403002 		movl	$2, 48(%eax)
 176      000000
 133:E:/NeuOrga/Programmieren/c_cpp/github_os/input/src/os_base\os_task_scheduler.c ****          break;
 177              		.loc 1 133 0
 178 00fe C645F701 		movb	$1, -9(%ebp)
 134:E:/NeuOrga/Programmieren/c_cpp/github_os/input/src/os_base\os_task_scheduler.c ****       }
 179              		.loc 1 134 0
 180 0102 90       		nop
 181              	L23:
 142:E:/NeuOrga/Programmieren/c_cpp/github_os/input/src/os_base\os_task_scheduler.c ****    }
 182              		.loc 1 142 0 discriminator 3
 183 0103 90       		nop
 184              	L12:
 147:E:/NeuOrga/Programmieren/c_cpp/github_os/input/src/os_base\os_task_scheduler.c ****    }
 148:E:/NeuOrga/Programmieren/c_cpp/github_os/input/src/os_base\os_task_scheduler.c ****    }
 149:E:/NeuOrga/Programmieren/c_cpp/github_os/input/src/os_base\os_task_scheduler.c ****    if(RequestState == Rejected)
 185              		.loc 1 149 0
 186 0104 807DF700 		cmpb	$0, -9(%ebp)
 187 0108 7514     		jne	L24
 150:E:/NeuOrga/Programmieren/c_cpp/github_os/input/src/os_base\os_task_scheduler.c ****    {
 151:E:/NeuOrga/Programmieren/c_cpp/github_os/input/src/os_base\os_task_scheduler.c ****       OS_SET_SW_BUG(os_bug_taskstate_request_denied, Func_TaskStateRequest);
 188              		.loc 1 151 0
 189 010a C7442404 		movl	$11, 4(%esp)
 189      0B000000 
 190 0112 C7042401 		movl	$1, (%esp)
 190      000000
 191 0119 E8000000 		call	_OS_SET_SW_BUG
 191      00
 192              	L24:
 152:E:/NeuOrga/Programmieren/c_cpp/github_os/input/src/os_base\os_task_scheduler.c ****    }
 153:E:/NeuOrga/Programmieren/c_cpp/github_os/input/src/os_base\os_task_scheduler.c ****    return RequestState;
 193              		.loc 1 153 0
 194 011e 8A45F7   		movb	-9(%ebp), %al
 154:E:/NeuOrga/Programmieren/c_cpp/github_os/input/src/os_base\os_task_scheduler.c **** }
 195              		.loc 1 154 0
 196 0121 C9       		leave
 197              		.cfi_restore 5
 198              		.cfi_def_cfa 4, 4
 199 0122 C3       		ret
 200              		.cfi_endproc
 201              	LFE2:
 202              		.globl	_OS_ActivateTask
GAS LISTING C:\Users\PRESID~1\AppData\Local\Temp\ccLfwevT.s 			page 8


 204              	_OS_ActivateTask:
 205              	LFB3:
 155:E:/NeuOrga/Programmieren/c_cpp/github_os/input/src/os_base\os_task_scheduler.c **** void OS_ActivateTask(task_t* task)
 156:E:/NeuOrga/Programmieren/c_cpp/github_os/input/src/os_base\os_task_scheduler.c **** {
 206              		.loc 1 156 0
 207              		.cfi_startproc
 208 0123 55       		pushl	%ebp
 209              		.cfi_def_cfa_offset 8
 210              		.cfi_offset 5, -8
 211 0124 89E5     		movl	%esp, %ebp
 212              		.cfi_def_cfa_register 5
 213 0126 83EC18   		subl	$24, %esp
 157:E:/NeuOrga/Programmieren/c_cpp/github_os/input/src/os_base\os_task_scheduler.c ****    /*
 158:E:/NeuOrga/Programmieren/c_cpp/github_os/input/src/os_base\os_task_scheduler.c ****    Activate Task:
 159:E:/NeuOrga/Programmieren/c_cpp/github_os/input/src/os_base\os_task_scheduler.c ****    - Disable Interrupts
 160:E:/NeuOrga/Programmieren/c_cpp/github_os/input/src/os_base\os_task_scheduler.c ****    - Add to schedule Queue
 161:E:/NeuOrga/Programmieren/c_cpp/github_os/input/src/os_base\os_task_scheduler.c ****    - Enable Interrupts
 162:E:/NeuOrga/Programmieren/c_cpp/github_os/input/src/os_base\os_task_scheduler.c **** 
 163:E:/NeuOrga/Programmieren/c_cpp/github_os/input/src/os_base\os_task_scheduler.c ****    in case of valid request, the content, where the "task_t* task" is point to is stored in TASK_RU
 164:E:/NeuOrga/Programmieren/c_cpp/github_os/input/src/os_base\os_task_scheduler.c ****    */
 165:E:/NeuOrga/Programmieren/c_cpp/github_os/input/src/os_base\os_task_scheduler.c ****    if(task != 0)
 214              		.loc 1 165 0
 215 0129 837D0800 		cmpl	$0, 8(%ebp)
 216 012d 0F84AC00 		je	L26
 216      0000
 166:E:/NeuOrga/Programmieren/c_cpp/github_os/input/src/os_base\os_task_scheduler.c ****    {
 167:E:/NeuOrga/Programmieren/c_cpp/github_os/input/src/os_base\os_task_scheduler.c ****       if((task->IdleTask != False)||(task->state_request(task, Task_ready)==Accepted))
 217              		.loc 1 167 0
 218 0133 8B4508   		movl	8(%ebp), %eax
 219 0136 8A00     		movb	(%eax), %al
 220 0138 83E004   		andl	$4, %eax
 221 013b 84C0     		testb	%al, %al
 222 013d 751A     		jne	L28
 223              		.loc 1 167 0 is_stmt 0 discriminator 1
 224 013f 8B4508   		movl	8(%ebp), %eax
 225 0142 8B402C   		movl	44(%eax), %eax
 226 0145 C7442404 		movl	$2, 4(%esp)
 226      02000000 
 227 014d 8B5508   		movl	8(%ebp), %edx
 228 0150 891424   		movl	%edx, (%esp)
 229 0153 FFD0     		call	*%eax
 230 0155 3C01     		cmpb	$1, %al
 231 0157 7572     		jne	L29
 232              	L28:
 168:E:/NeuOrga/Programmieren/c_cpp/github_os/input/src/os_base\os_task_scheduler.c ****       {
 169:E:/NeuOrga/Programmieren/c_cpp/github_os/input/src/os_base\os_task_scheduler.c ****          DisableInterrupts();
 170:E:/NeuOrga/Programmieren/c_cpp/github_os/input/src/os_base\os_task_scheduler.c ****          /* 3. suspended to ready (add to runqueue) */
 171:E:/NeuOrga/Programmieren/c_cpp/github_os/input/src/os_base\os_task_scheduler.c ****          if(task->IdleTask == False)
 233              		.loc 1 171 0 is_stmt 1
 234 0159 8B4508   		movl	8(%ebp), %eax
 235 015c 8A00     		movb	(%eax), %al
 236 015e 83E004   		andl	$4, %eax
 237 0161 84C0     		testb	%al, %al
 238 0163 7557     		jne	L30
 172:E:/NeuOrga/Programmieren/c_cpp/github_os/input/src/os_base\os_task_scheduler.c ****          {
 173:E:/NeuOrga/Programmieren/c_cpp/github_os/input/src/os_base\os_task_scheduler.c ****             if( (task->active == False)
 239              		.loc 1 173 0
GAS LISTING C:\Users\PRESID~1\AppData\Local\Temp\ccLfwevT.s 			page 9


 240 0165 8B4508   		movl	8(%ebp), %eax
 241 0168 8A00     		movb	(%eax), %al
 242 016a 83E001   		andl	$1, %eax
 243 016d 84C0     		testb	%al, %al
 244 016f 741C     		je	L31
 174:E:/NeuOrga/Programmieren/c_cpp/github_os/input/src/os_base\os_task_scheduler.c ****                   || ( (task->active == True) && (task->NrOfInsAllowed > task->NrOfInsActivated) )
 245              		.loc 1 174 0
 246 0171 8B4508   		movl	8(%ebp), %eax
 247 0174 8A00     		movb	(%eax), %al
 248 0176 83E001   		andl	$1, %eax
 249 0179 84C0     		testb	%al, %al
 250 017b 744C     		je	L33
 251              		.loc 1 174 0 is_stmt 0 discriminator 1
 252 017d 8B4508   		movl	8(%ebp), %eax
 253 0180 8A5004   		movb	4(%eax), %dl
 254 0183 8B4508   		movl	8(%ebp), %eax
 255 0186 8A4005   		movb	5(%eax), %al
 256 0189 38C2     		cmpb	%al, %dl
 257 018b 763C     		jbe	L33
 258              	L31:
 175:E:/NeuOrga/Programmieren/c_cpp/github_os/input/src/os_base\os_task_scheduler.c ****               )
 176:E:/NeuOrga/Programmieren/c_cpp/github_os/input/src/os_base\os_task_scheduler.c ****             {
 177:E:/NeuOrga/Programmieren/c_cpp/github_os/input/src/os_base\os_task_scheduler.c ****                /* only activate if allowed by rule */
 178:E:/NeuOrga/Programmieren/c_cpp/github_os/input/src/os_base\os_task_scheduler.c ****                task = AddToTaskQueue(task);
 259              		.loc 1 178 0 is_stmt 1
 260 018d 8B4508   		movl	8(%ebp), %eax
 261 0190 890424   		movl	%eax, (%esp)
 262 0193 E8000000 		call	_AddToTaskQueue
 262      00
 263 0198 894508   		movl	%eax, 8(%ebp)
 179:E:/NeuOrga/Programmieren/c_cpp/github_os/input/src/os_base\os_task_scheduler.c **** 
 180:E:/NeuOrga/Programmieren/c_cpp/github_os/input/src/os_base\os_task_scheduler.c ****                AddToLinkList(task);
 264              		.loc 1 180 0
 265 019b 8B4508   		movl	8(%ebp), %eax
 266 019e 890424   		movl	%eax, (%esp)
 267 01a1 E8000000 		call	_AddToLinkList
 267      00
 181:E:/NeuOrga/Programmieren/c_cpp/github_os/input/src/os_base\os_task_scheduler.c ****                UpdateLinkList();
 268              		.loc 1 181 0
 269 01a6 E8000000 		call	_UpdateLinkList
 269      00
 182:E:/NeuOrga/Programmieren/c_cpp/github_os/input/src/os_base\os_task_scheduler.c ****                task->NrOfInsActivated++;
 270              		.loc 1 182 0
 271 01ab 8B4508   		movl	8(%ebp), %eax
 272 01ae 8A4005   		movb	5(%eax), %al
 273 01b1 8D5001   		leal	1(%eax), %edx
 274 01b4 8B4508   		movl	8(%ebp), %eax
 275 01b7 885005   		movb	%dl, 5(%eax)
 171:E:/NeuOrga/Programmieren/c_cpp/github_os/input/src/os_base\os_task_scheduler.c ****          {
 276              		.loc 1 171 0
 277 01ba EB23     		jmp	L26
 278              	L30:
 183:E:/NeuOrga/Programmieren/c_cpp/github_os/input/src/os_base\os_task_scheduler.c ****             }
 184:E:/NeuOrga/Programmieren/c_cpp/github_os/input/src/os_base\os_task_scheduler.c ****             else
 185:E:/NeuOrga/Programmieren/c_cpp/github_os/input/src/os_base\os_task_scheduler.c ****             {
 186:E:/NeuOrga/Programmieren/c_cpp/github_os/input/src/os_base\os_task_scheduler.c ****                /* multiple activation bug occured */
 187:E:/NeuOrga/Programmieren/c_cpp/github_os/input/src/os_base\os_task_scheduler.c ****             }
GAS LISTING C:\Users\PRESID~1\AppData\Local\Temp\ccLfwevT.s 			page 10


 188:E:/NeuOrga/Programmieren/c_cpp/github_os/input/src/os_base\os_task_scheduler.c ****          }
 189:E:/NeuOrga/Programmieren/c_cpp/github_os/input/src/os_base\os_task_scheduler.c ****          else
 190:E:/NeuOrga/Programmieren/c_cpp/github_os/input/src/os_base\os_task_scheduler.c ****          {
 191:E:/NeuOrga/Programmieren/c_cpp/github_os/input/src/os_base\os_task_scheduler.c ****             AddToIdleTaskQueue(task);
 279              		.loc 1 191 0
 280 01bc 8B4508   		movl	8(%ebp), %eax
 281 01bf 890424   		movl	%eax, (%esp)
 282 01c2 E8000000 		call	_AddToIdleTaskQueue
 282      00
 171:E:/NeuOrga/Programmieren/c_cpp/github_os/input/src/os_base\os_task_scheduler.c ****          {
 283              		.loc 1 171 0
 284 01c7 EB16     		jmp	L26
 285              	L33:
 171:E:/NeuOrga/Programmieren/c_cpp/github_os/input/src/os_base\os_task_scheduler.c ****          {
 286              		.loc 1 171 0 is_stmt 0 discriminator 1
 287 01c9 EB14     		jmp	L26
 288              	L29:
 192:E:/NeuOrga/Programmieren/c_cpp/github_os/input/src/os_base\os_task_scheduler.c ****          }
 193:E:/NeuOrga/Programmieren/c_cpp/github_os/input/src/os_base\os_task_scheduler.c ****          EnableInterrupts();
 194:E:/NeuOrga/Programmieren/c_cpp/github_os/input/src/os_base\os_task_scheduler.c ****       }
 195:E:/NeuOrga/Programmieren/c_cpp/github_os/input/src/os_base\os_task_scheduler.c ****       else
 196:E:/NeuOrga/Programmieren/c_cpp/github_os/input/src/os_base\os_task_scheduler.c ****       {
 197:E:/NeuOrga/Programmieren/c_cpp/github_os/input/src/os_base\os_task_scheduler.c ****          OS_SET_SW_BUG(os_bug_taskstate_request_denied, Func_ActivateTask);
 289              		.loc 1 197 0 is_stmt 1
 290 01cb C7442404 		movl	$10, 4(%esp)
 290      0A000000 
 291 01d3 C7042401 		movl	$1, (%esp)
 291      000000
 292 01da E8000000 		call	_OS_SET_SW_BUG
 292      00
 293              	L26:
 198:E:/NeuOrga/Programmieren/c_cpp/github_os/input/src/os_base\os_task_scheduler.c ****       }
 199:E:/NeuOrga/Programmieren/c_cpp/github_os/input/src/os_base\os_task_scheduler.c ****    }
 200:E:/NeuOrga/Programmieren/c_cpp/github_os/input/src/os_base\os_task_scheduler.c **** }
 294              		.loc 1 200 0
 295 01df C9       		leave
 296              		.cfi_restore 5
 297              		.cfi_def_cfa 4, 4
 298 01e0 C3       		ret
 299              		.cfi_endproc
 300              	LFE3:
 302              	_OS_STARTTASK:
 303              	LFB4:
 201:E:/NeuOrga/Programmieren/c_cpp/github_os/input/src/os_base\os_task_scheduler.c **** Local void OS_STARTTASK(task_t* task)
 202:E:/NeuOrga/Programmieren/c_cpp/github_os/input/src/os_base\os_task_scheduler.c **** {
 304              		.loc 1 202 0
 305              		.cfi_startproc
 306 01e1 55       		pushl	%ebp
 307              		.cfi_def_cfa_offset 8
 308              		.cfi_offset 5, -8
 309 01e2 89E5     		movl	%esp, %ebp
 310              		.cfi_def_cfa_register 5
 311 01e4 83EC28   		subl	$40, %esp
 203:E:/NeuOrga/Programmieren/c_cpp/github_os/input/src/os_base\os_task_scheduler.c ****    /* OS_STARTTASK
 204:E:/NeuOrga/Programmieren/c_cpp/github_os/input/src/os_base\os_task_scheduler.c ****    - Disable interrupts
 205:E:/NeuOrga/Programmieren/c_cpp/github_os/input/src/os_base\os_task_scheduler.c ****    - restore Environment
 206:E:/NeuOrga/Programmieren/c_cpp/github_os/input/src/os_base\os_task_scheduler.c ****    - enable interrupts
GAS LISTING C:\Users\PRESID~1\AppData\Local\Temp\ccLfwevT.s 			page 11


 207:E:/NeuOrga/Programmieren/c_cpp/github_os/input/src/os_base\os_task_scheduler.c **** 
 208:E:/NeuOrga/Programmieren/c_cpp/github_os/input/src/os_base\os_task_scheduler.c ****    - Start Task
 209:E:/NeuOrga/Programmieren/c_cpp/github_os/input/src/os_base\os_task_scheduler.c ****     */
 210:E:/NeuOrga/Programmieren/c_cpp/github_os/input/src/os_base\os_task_scheduler.c ****    scheduler_time_t start_time;
 211:E:/NeuOrga/Programmieren/c_cpp/github_os/input/src/os_base\os_task_scheduler.c ****    if(task != 0 && ((task->task_queued != False)||(task->IdleTask != False)))
 312              		.loc 1 211 0
 313 01e7 837D0800 		cmpl	$0, 8(%ebp)
 314 01eb 0F844A01 		je	L34
 314      0000
 315              		.loc 1 211 0 is_stmt 0 discriminator 1
 316 01f1 8B4508   		movl	8(%ebp), %eax
 317 01f4 8A00     		movb	(%eax), %al
 318 01f6 83E002   		andl	$2, %eax
 319 01f9 84C0     		testb	%al, %al
 320 01fb 7510     		jne	L36
 321              		.loc 1 211 0 discriminator 2
 322 01fd 8B4508   		movl	8(%ebp), %eax
 323 0200 8A00     		movb	(%eax), %al
 324 0202 83E004   		andl	$4, %eax
 325 0205 84C0     		testb	%al, %al
 326 0207 0F842E01 		je	L34
 326      0000
 327              	L36:
 212:E:/NeuOrga/Programmieren/c_cpp/github_os/input/src/os_base\os_task_scheduler.c ****    {
 213:E:/NeuOrga/Programmieren/c_cpp/github_os/input/src/os_base\os_task_scheduler.c ****       if(task->state_request !=0)
 328              		.loc 1 213 0 is_stmt 1
 329 020d 8B4508   		movl	8(%ebp), %eax
 330 0210 8B402C   		movl	44(%eax), %eax
 331 0213 85C0     		testl	%eax, %eax
 332 0215 0F840C01 		je	L37
 332      0000
 214:E:/NeuOrga/Programmieren/c_cpp/github_os/input/src/os_base\os_task_scheduler.c ****       {
 215:E:/NeuOrga/Programmieren/c_cpp/github_os/input/src/os_base\os_task_scheduler.c ****          if(task->state_request(task, Task_running)== Accepted)
 333              		.loc 1 215 0
 334 021b 8B4508   		movl	8(%ebp), %eax
 335 021e 8B402C   		movl	44(%eax), %eax
 336 0221 C7442404 		movl	$3, 4(%esp)
 336      03000000 
 337 0229 8B5508   		movl	8(%ebp), %edx
 338 022c 891424   		movl	%edx, (%esp)
 339 022f FFD0     		call	*%eax
 340 0231 3C01     		cmpb	$1, %al
 341 0233 0F85D800 		jne	L38
 341      0000
 216:E:/NeuOrga/Programmieren/c_cpp/github_os/input/src/os_base\os_task_scheduler.c ****          {
 217:E:/NeuOrga/Programmieren/c_cpp/github_os/input/src/os_base\os_task_scheduler.c ****             DisableInterrupts();
 218:E:/NeuOrga/Programmieren/c_cpp/github_os/input/src/os_base\os_task_scheduler.c ****             task->active =  True;
 342              		.loc 1 218 0
 343 0239 8B4508   		movl	8(%ebp), %eax
 344 023c 8A10     		movb	(%eax), %dl
 345 023e 83CA01   		orl	$1, %edx
 346 0241 8810     		movb	%dl, (%eax)
 219:E:/NeuOrga/Programmieren/c_cpp/github_os/input/src/os_base\os_task_scheduler.c ****             task->wait_time = 0;
 347              		.loc 1 219 0
 348 0243 8B4508   		movl	8(%ebp), %eax
 349 0246 C7400C00 		movl	$0, 12(%eax)
 349      000000
GAS LISTING C:\Users\PRESID~1\AppData\Local\Temp\ccLfwevT.s 			page 12


 220:E:/NeuOrga/Programmieren/c_cpp/github_os/input/src/os_base\os_task_scheduler.c ****             task->current_prio = task->default_prio;
 350              		.loc 1 220 0
 351 024d 8B4508   		movl	8(%ebp), %eax
 352 0250 8A5021   		movb	33(%eax), %dl
 353 0253 8B4508   		movl	8(%ebp), %eax
 354 0256 885020   		movb	%dl, 32(%eax)
 221:E:/NeuOrga/Programmieren/c_cpp/github_os/input/src/os_base\os_task_scheduler.c ****             OS_TASK_SAVE_SYSTEM_STACK(&OS_STACK[Get_core_id()][0]);
 355              		.loc 1 221 0
 356 0259 E8000000 		call	_Get_core_id
 356      00
 357 025e C1E008   		sall	$8, %eax
 358 0261 05000000 		addl	$_OS_STACK, %eax
 358      00
 359 0266 890424   		movl	%eax, (%esp)
 360 0269 E8000000 		call	_OS_TASK_SAVE_SYSTEM_STACK
 360      00
 222:E:/NeuOrga/Programmieren/c_cpp/github_os/input/src/os_base\os_task_scheduler.c ****             OS_TASK_RESTORETASK_ENVIRONMENT(task);
 361              		.loc 1 222 0
 362 026e 8B4508   		movl	8(%ebp), %eax
 363 0271 890424   		movl	%eax, (%esp)
 364 0274 E8000000 		call	_OS_TASK_RESTORETASK_ENVIRONMENT
 364      00
 223:E:/NeuOrga/Programmieren/c_cpp/github_os/input/src/os_base\os_task_scheduler.c ****             start_time = Get_current_time();
 365              		.loc 1 223 0
 366 0279 E8000000 		call	_Get_current_time
 366      00
 367 027e 8945F4   		movl	%eax, -12(%ebp)
 224:E:/NeuOrga/Programmieren/c_cpp/github_os/input/src/os_base\os_task_scheduler.c ****             EnableInterrupts();
 225:E:/NeuOrga/Programmieren/c_cpp/github_os/input/src/os_base\os_task_scheduler.c **** 
 226:E:/NeuOrga/Programmieren/c_cpp/github_os/input/src/os_base\os_task_scheduler.c ****             /* task execution shall not happen with disabled interrupts */
 227:E:/NeuOrga/Programmieren/c_cpp/github_os/input/src/os_base\os_task_scheduler.c ****             SET_RUNNING_TASK(task);
 368              		.loc 1 227 0
 369 0281 8B4508   		movl	8(%ebp), %eax
 370 0284 890424   		movl	%eax, (%esp)
 371 0287 E8000000 		call	_SET_RUNNING_TASK
 371      00
 228:E:/NeuOrga/Programmieren/c_cpp/github_os/input/src/os_base\os_task_scheduler.c ****             /* save and enter privilige levels...*/
 229:E:/NeuOrga/Programmieren/c_cpp/github_os/input/src/os_base\os_task_scheduler.c ****             Privilige_level_save_current();
 230:E:/NeuOrga/Programmieren/c_cpp/github_os/input/src/os_base\os_task_scheduler.c ****             if(task->task_kernel_mode == True)
 231:E:/NeuOrga/Programmieren/c_cpp/github_os/input/src/os_base\os_task_scheduler.c ****             {
 232:E:/NeuOrga/Programmieren/c_cpp/github_os/input/src/os_base\os_task_scheduler.c ****                Privilige_level_enter_kernel_mode();
 233:E:/NeuOrga/Programmieren/c_cpp/github_os/input/src/os_base\os_task_scheduler.c ****             }
 234:E:/NeuOrga/Programmieren/c_cpp/github_os/input/src/os_base\os_task_scheduler.c ****             task->fp(task);
 372              		.loc 1 234 0
 373 028c 8B4508   		movl	8(%ebp), %eax
 374 028f 8B4028   		movl	40(%eax), %eax
 375 0292 8B5508   		movl	8(%ebp), %edx
 376 0295 891424   		movl	%edx, (%esp)
 377 0298 FFD0     		call	*%eax
 235:E:/NeuOrga/Programmieren/c_cpp/github_os/input/src/os_base\os_task_scheduler.c ****             Privilige_level_restore_saved();
 236:E:/NeuOrga/Programmieren/c_cpp/github_os/input/src/os_base\os_task_scheduler.c **** 
 237:E:/NeuOrga/Programmieren/c_cpp/github_os/input/src/os_base\os_task_scheduler.c ****             DisableInterrupts();
 238:E:/NeuOrga/Programmieren/c_cpp/github_os/input/src/os_base\os_task_scheduler.c ****             OS_TASK_SAVETASK_ENVIRONMENT(task);
 378              		.loc 1 238 0
 379 029a 8B4508   		movl	8(%ebp), %eax
 380 029d 890424   		movl	%eax, (%esp)
 381 02a0 E8000000 		call	_OS_TASK_SAVETASK_ENVIRONMENT
GAS LISTING C:\Users\PRESID~1\AppData\Local\Temp\ccLfwevT.s 			page 13


 381      00
 239:E:/NeuOrga/Programmieren/c_cpp/github_os/input/src/os_base\os_task_scheduler.c ****             OS_TASK_RESTORE_SYSTEM_STACK(&OS_STACK[Get_core_id()][0]);
 382              		.loc 1 239 0
 383 02a5 E8000000 		call	_Get_core_id
 383      00
 384 02aa C1E008   		sall	$8, %eax
 385 02ad 05000000 		addl	$_OS_STACK, %eax
 385      00
 386 02b2 890424   		movl	%eax, (%esp)
 387 02b5 E8000000 		call	_OS_TASK_RESTORE_SYSTEM_STACK
 387      00
 240:E:/NeuOrga/Programmieren/c_cpp/github_os/input/src/os_base\os_task_scheduler.c ****             task->active = False;
 388              		.loc 1 240 0
 389 02ba 8B4508   		movl	8(%ebp), %eax
 390 02bd 8A10     		movb	(%eax), %dl
 391 02bf 83E2FE   		andl	$-2, %edx
 392 02c2 8810     		movb	%dl, (%eax)
 241:E:/NeuOrga/Programmieren/c_cpp/github_os/input/src/os_base\os_task_scheduler.c ****             task->exe_time += (Get_current_time() - start_time);
 393              		.loc 1 241 0
 394 02c4 E8000000 		call	_Get_current_time
 394      00
 395 02c9 2B45F4   		subl	-12(%ebp), %eax
 396 02cc 89C2     		movl	%eax, %edx
 397 02ce 8B4508   		movl	8(%ebp), %eax
 398 02d1 8B401C   		movl	28(%eax), %eax
 399 02d4 01C2     		addl	%eax, %edx
 400 02d6 8B4508   		movl	8(%ebp), %eax
 401 02d9 89501C   		movl	%edx, 28(%eax)
 242:E:/NeuOrga/Programmieren/c_cpp/github_os/input/src/os_base\os_task_scheduler.c ****             task->task_group->exe_time += (Get_current_time() - start_time);
 402              		.loc 1 242 0
 403 02dc E8000000 		call	_Get_current_time
 403      00
 404 02e1 2B45F4   		subl	-12(%ebp), %eax
 405 02e4 89C1     		movl	%eax, %ecx
 406 02e6 8B4508   		movl	8(%ebp), %eax
 407 02e9 8B4034   		movl	52(%eax), %eax
 408 02ec 8B5508   		movl	8(%ebp), %edx
 409 02ef 8B5234   		movl	52(%edx), %edx
 410 02f2 8B12     		movl	(%edx), %edx
 411 02f4 01CA     		addl	%ecx, %edx
 412 02f6 8910     		movl	%edx, (%eax)
 243:E:/NeuOrga/Programmieren/c_cpp/github_os/input/src/os_base\os_task_scheduler.c ****             SET_RUNNING_TASK(0);
 413              		.loc 1 243 0
 414 02f8 C7042400 		movl	$0, (%esp)
 414      000000
 415 02ff E8000000 		call	_SET_RUNNING_TASK
 415      00
 244:E:/NeuOrga/Programmieren/c_cpp/github_os/input/src/os_base\os_task_scheduler.c ****             OS_TERMINATE_TASK(task);
 416              		.loc 1 244 0
 417 0304 8B4508   		movl	8(%ebp), %eax
 418 0307 890424   		movl	%eax, (%esp)
 419 030a E82E0000 		call	_OS_TERMINATE_TASK
 419      00
 420 030f EB2A     		jmp	L34
 421              	L38:
 245:E:/NeuOrga/Programmieren/c_cpp/github_os/input/src/os_base\os_task_scheduler.c ****             EnableInterrupts();
 246:E:/NeuOrga/Programmieren/c_cpp/github_os/input/src/os_base\os_task_scheduler.c ****             /* RUNNING_TASK->task_state sollte an dieser stelle (bei beendigung des Tasks durch Ter
GAS LISTING C:\Users\PRESID~1\AppData\Local\Temp\ccLfwevT.s 			page 14


 247:E:/NeuOrga/Programmieren/c_cpp/github_os/input/src/os_base\os_task_scheduler.c ****          }
 248:E:/NeuOrga/Programmieren/c_cpp/github_os/input/src/os_base\os_task_scheduler.c ****          else
 249:E:/NeuOrga/Programmieren/c_cpp/github_os/input/src/os_base\os_task_scheduler.c ****          {
 250:E:/NeuOrga/Programmieren/c_cpp/github_os/input/src/os_base\os_task_scheduler.c ****             OS_SET_SW_BUG(os_bug_taskstate_request_denied, Func_StartTask);
 422              		.loc 1 250 0
 423 0311 C7442404 		movl	$5, 4(%esp)
 423      05000000 
 424 0319 C7042401 		movl	$1, (%esp)
 424      000000
 425 0320 E8000000 		call	_OS_SET_SW_BUG
 425      00
 426 0325 EB14     		jmp	L34
 427              	L37:
 251:E:/NeuOrga/Programmieren/c_cpp/github_os/input/src/os_base\os_task_scheduler.c ****          }
 252:E:/NeuOrga/Programmieren/c_cpp/github_os/input/src/os_base\os_task_scheduler.c **** 
 253:E:/NeuOrga/Programmieren/c_cpp/github_os/input/src/os_base\os_task_scheduler.c ****       }
 254:E:/NeuOrga/Programmieren/c_cpp/github_os/input/src/os_base\os_task_scheduler.c ****       else
 255:E:/NeuOrga/Programmieren/c_cpp/github_os/input/src/os_base\os_task_scheduler.c ****       {
 256:E:/NeuOrga/Programmieren/c_cpp/github_os/input/src/os_base\os_task_scheduler.c ****          OS_SET_SW_BUG(os_bug_null_pointer, Func_StartTask);
 428              		.loc 1 256 0
 429 0327 C7442404 		movl	$5, 4(%esp)
 429      05000000 
 430 032f C7042402 		movl	$2, (%esp)
 430      000000
 431 0336 E8000000 		call	_OS_SET_SW_BUG
 431      00
 432              	L34:
 257:E:/NeuOrga/Programmieren/c_cpp/github_os/input/src/os_base\os_task_scheduler.c ****       }
 258:E:/NeuOrga/Programmieren/c_cpp/github_os/input/src/os_base\os_task_scheduler.c ****    }
 259:E:/NeuOrga/Programmieren/c_cpp/github_os/input/src/os_base\os_task_scheduler.c ****    /* allowed in case of empty QUEUE elements (queue elements which have no activate_task yet recei
 260:E:/NeuOrga/Programmieren/c_cpp/github_os/input/src/os_base\os_task_scheduler.c ****    else
 261:E:/NeuOrga/Programmieren/c_cpp/github_os/input/src/os_base\os_task_scheduler.c ****    {
 262:E:/NeuOrga/Programmieren/c_cpp/github_os/input/src/os_base\os_task_scheduler.c ****        OS_SET_SW_BUG(os_bug_null_pointer, Func_StartTask);
 263:E:/NeuOrga/Programmieren/c_cpp/github_os/input/src/os_base\os_task_scheduler.c ****    }
 264:E:/NeuOrga/Programmieren/c_cpp/github_os/input/src/os_base\os_task_scheduler.c ****    */
 265:E:/NeuOrga/Programmieren/c_cpp/github_os/input/src/os_base\os_task_scheduler.c **** }
 433              		.loc 1 265 0
 434 033b C9       		leave
 435              		.cfi_restore 5
 436              		.cfi_def_cfa 4, 4
 437 033c C3       		ret
 438              		.cfi_endproc
 439              	LFE4:
 441              	_OS_TERMINATE_TASK:
 442              	LFB5:
 266:E:/NeuOrga/Programmieren/c_cpp/github_os/input/src/os_base\os_task_scheduler.c **** Local void OS_TERMINATE_TASK(task_t* task)
 267:E:/NeuOrga/Programmieren/c_cpp/github_os/input/src/os_base\os_task_scheduler.c **** {
 443              		.loc 1 267 0
 444              		.cfi_startproc
 445 033d 55       		pushl	%ebp
 446              		.cfi_def_cfa_offset 8
 447              		.cfi_offset 5, -8
 448 033e 89E5     		movl	%esp, %ebp
 449              		.cfi_def_cfa_register 5
 450 0340 83EC18   		subl	$24, %esp
 268:E:/NeuOrga/Programmieren/c_cpp/github_os/input/src/os_base\os_task_scheduler.c ****    /* Preempt task
 269:E:/NeuOrga/Programmieren/c_cpp/github_os/input/src/os_base\os_task_scheduler.c ****    - Disable Interrupts
GAS LISTING C:\Users\PRESID~1\AppData\Local\Temp\ccLfwevT.s 			page 15


 270:E:/NeuOrga/Programmieren/c_cpp/github_os/input/src/os_base\os_task_scheduler.c ****    - os_TASK_SAVETASK_ENVIRONMENT
 271:E:/NeuOrga/Programmieren/c_cpp/github_os/input/src/os_base\os_task_scheduler.c ****    - add to Schedule Queue / delete from RunQueue
 272:E:/NeuOrga/Programmieren/c_cpp/github_os/input/src/os_base\os_task_scheduler.c ****    - delete active flag
 273:E:/NeuOrga/Programmieren/c_cpp/github_os/input/src/os_base\os_task_scheduler.c ****    - enable Interrupts
 274:E:/NeuOrga/Programmieren/c_cpp/github_os/input/src/os_base\os_task_scheduler.c ****    */
 275:E:/NeuOrga/Programmieren/c_cpp/github_os/input/src/os_base\os_task_scheduler.c ****    if(task != 0)
 451              		.loc 1 275 0
 452 0343 837D0800 		cmpl	$0, 8(%ebp)
 453 0347 0F849400 		je	L41
 453      0000
 276:E:/NeuOrga/Programmieren/c_cpp/github_os/input/src/os_base\os_task_scheduler.c ****    {
 277:E:/NeuOrga/Programmieren/c_cpp/github_os/input/src/os_base\os_task_scheduler.c ****       if(task->state_request != 0)
 454              		.loc 1 277 0
 455 034d 8B4508   		movl	8(%ebp), %eax
 456 0350 8B402C   		movl	44(%eax), %eax
 457 0353 85C0     		testl	%eax, %eax
 458 0355 7474     		je	L42
 278:E:/NeuOrga/Programmieren/c_cpp/github_os/input/src/os_base\os_task_scheduler.c ****       {
 279:E:/NeuOrga/Programmieren/c_cpp/github_os/input/src/os_base\os_task_scheduler.c ****          if((task->IdleTask != False)||(task->state_request(task, Task_ready)== Accepted))
 459              		.loc 1 279 0
 460 0357 8B4508   		movl	8(%ebp), %eax
 461 035a 8A00     		movb	(%eax), %al
 462 035c 83E004   		andl	$4, %eax
 463 035f 84C0     		testb	%al, %al
 464 0361 751A     		jne	L43
 465              		.loc 1 279 0 is_stmt 0 discriminator 1
 466 0363 8B4508   		movl	8(%ebp), %eax
 467 0366 8B402C   		movl	44(%eax), %eax
 468 0369 C7442404 		movl	$2, 4(%esp)
 468      02000000 
 469 0371 8B5508   		movl	8(%ebp), %edx
 470 0374 891424   		movl	%edx, (%esp)
 471 0377 FFD0     		call	*%eax
 472 0379 3C01     		cmpb	$1, %al
 473 037b 7538     		jne	L44
 474              	L43:
 280:E:/NeuOrga/Programmieren/c_cpp/github_os/input/src/os_base\os_task_scheduler.c ****          {
 281:E:/NeuOrga/Programmieren/c_cpp/github_os/input/src/os_base\os_task_scheduler.c ****             DisableInterrupts();
 282:E:/NeuOrga/Programmieren/c_cpp/github_os/input/src/os_base\os_task_scheduler.c ****             OS_TASK_SAVETASK_ENVIRONMENT(task);
 475              		.loc 1 282 0 is_stmt 1
 476 037d 8B4508   		movl	8(%ebp), %eax
 477 0380 890424   		movl	%eax, (%esp)
 478 0383 E8000000 		call	_OS_TASK_SAVETASK_ENVIRONMENT
 478      00
 283:E:/NeuOrga/Programmieren/c_cpp/github_os/input/src/os_base\os_task_scheduler.c ****             OS_TASK_RESTORE_SYSTEM_STACK(&OS_STACK[Get_core_id()][0]);
 479              		.loc 1 283 0
 480 0388 E8000000 		call	_Get_core_id
 480      00
 481 038d C1E008   		sall	$8, %eax
 482 0390 05000000 		addl	$_OS_STACK, %eax
 482      00
 483 0395 890424   		movl	%eax, (%esp)
 484 0398 E8000000 		call	_OS_TASK_RESTORE_SYSTEM_STACK
 484      00
 284:E:/NeuOrga/Programmieren/c_cpp/github_os/input/src/os_base\os_task_scheduler.c **** 
 285:E:/NeuOrga/Programmieren/c_cpp/github_os/input/src/os_base\os_task_scheduler.c ****             task->active = False;
 485              		.loc 1 285 0
GAS LISTING C:\Users\PRESID~1\AppData\Local\Temp\ccLfwevT.s 			page 16


 486 039d 8B4508   		movl	8(%ebp), %eax
 487 03a0 8A10     		movb	(%eax), %dl
 488 03a2 83E2FE   		andl	$-2, %edx
 489 03a5 8810     		movb	%dl, (%eax)
 286:E:/NeuOrga/Programmieren/c_cpp/github_os/input/src/os_base\os_task_scheduler.c ****             /* reset the prio increase for waiting */
 287:E:/NeuOrga/Programmieren/c_cpp/github_os/input/src/os_base\os_task_scheduler.c ****             task->current_prio = task->default_prio;
 490              		.loc 1 287 0
 491 03a7 8B4508   		movl	8(%ebp), %eax
 492 03aa 8A5021   		movb	33(%eax), %dl
 493 03ad 8B4508   		movl	8(%ebp), %eax
 494 03b0 885020   		movb	%dl, 32(%eax)
 495 03b3 EB40     		jmp	L40
 496              	L44:
 288:E:/NeuOrga/Programmieren/c_cpp/github_os/input/src/os_base\os_task_scheduler.c ****             EnableInterrupts();
 289:E:/NeuOrga/Programmieren/c_cpp/github_os/input/src/os_base\os_task_scheduler.c ****          }
 290:E:/NeuOrga/Programmieren/c_cpp/github_os/input/src/os_base\os_task_scheduler.c ****          else
 291:E:/NeuOrga/Programmieren/c_cpp/github_os/input/src/os_base\os_task_scheduler.c ****          {
 292:E:/NeuOrga/Programmieren/c_cpp/github_os/input/src/os_base\os_task_scheduler.c ****             OS_SET_SW_BUG(os_bug_taskstate_request_denied, Func_TerminateTask);
 497              		.loc 1 292 0
 498 03b5 C7442404 		movl	$7, 4(%esp)
 498      07000000 
 499 03bd C7042401 		movl	$1, (%esp)
 499      000000
 500 03c4 E8000000 		call	_OS_SET_SW_BUG
 500      00
 501 03c9 EB2A     		jmp	L40
 502              	L42:
 293:E:/NeuOrga/Programmieren/c_cpp/github_os/input/src/os_base\os_task_scheduler.c ****          }
 294:E:/NeuOrga/Programmieren/c_cpp/github_os/input/src/os_base\os_task_scheduler.c ****       }
 295:E:/NeuOrga/Programmieren/c_cpp/github_os/input/src/os_base\os_task_scheduler.c ****       else
 296:E:/NeuOrga/Programmieren/c_cpp/github_os/input/src/os_base\os_task_scheduler.c ****       {
 297:E:/NeuOrga/Programmieren/c_cpp/github_os/input/src/os_base\os_task_scheduler.c ****          OS_SET_SW_BUG(os_bug_null_pointer, Func_TerminateTask);
 503              		.loc 1 297 0
 504 03cb C7442404 		movl	$7, 4(%esp)
 504      07000000 
 505 03d3 C7042402 		movl	$2, (%esp)
 505      000000
 506 03da E8000000 		call	_OS_SET_SW_BUG
 506      00
 507 03df EB14     		jmp	L40
 508              	L41:
 298:E:/NeuOrga/Programmieren/c_cpp/github_os/input/src/os_base\os_task_scheduler.c ****       }
 299:E:/NeuOrga/Programmieren/c_cpp/github_os/input/src/os_base\os_task_scheduler.c **** 
 300:E:/NeuOrga/Programmieren/c_cpp/github_os/input/src/os_base\os_task_scheduler.c ****    }
 301:E:/NeuOrga/Programmieren/c_cpp/github_os/input/src/os_base\os_task_scheduler.c ****    else
 302:E:/NeuOrga/Programmieren/c_cpp/github_os/input/src/os_base\os_task_scheduler.c ****    {
 303:E:/NeuOrga/Programmieren/c_cpp/github_os/input/src/os_base\os_task_scheduler.c ****       OS_SET_SW_BUG(os_bug_null_pointer, Func_TerminateTask);
 509              		.loc 1 303 0
 510 03e1 C7442404 		movl	$7, 4(%esp)
 510      07000000 
 511 03e9 C7042402 		movl	$2, (%esp)
 511      000000
 512 03f0 E8000000 		call	_OS_SET_SW_BUG
 512      00
 513              	L40:
 304:E:/NeuOrga/Programmieren/c_cpp/github_os/input/src/os_base\os_task_scheduler.c ****    }
 305:E:/NeuOrga/Programmieren/c_cpp/github_os/input/src/os_base\os_task_scheduler.c **** }
GAS LISTING C:\Users\PRESID~1\AppData\Local\Temp\ccLfwevT.s 			page 17


 514              		.loc 1 305 0
 515 03f5 C9       		leave
 516              		.cfi_restore 5
 517              		.cfi_def_cfa 4, 4
 518 03f6 C3       		ret
 519              		.cfi_endproc
 520              	LFE5:
 522              	_OS_TASK_DISPATCHER:
 523              	LFB6:
 306:E:/NeuOrga/Programmieren/c_cpp/github_os/input/src/os_base\os_task_scheduler.c **** void OS_TASK_DISPATCHER(void)
 307:E:/NeuOrga/Programmieren/c_cpp/github_os/input/src/os_base\os_task_scheduler.c **** {
 524              		.loc 1 307 0
 525              		.cfi_startproc
 526 03f7 55       		pushl	%ebp
 527              		.cfi_def_cfa_offset 8
 528              		.cfi_offset 5, -8
 529 03f8 89E5     		movl	%esp, %ebp
 530              		.cfi_def_cfa_register 5
 531 03fa 83EC28   		subl	$40, %esp
 308:E:/NeuOrga/Programmieren/c_cpp/github_os/input/src/os_base\os_task_scheduler.c ****    /* called in an certain core context (Core_0/1/2/3)*/
 309:E:/NeuOrga/Programmieren/c_cpp/github_os/input/src/os_base\os_task_scheduler.c **** 
 310:E:/NeuOrga/Programmieren/c_cpp/github_os/input/src/os_base\os_task_scheduler.c **** 
 311:E:/NeuOrga/Programmieren/c_cpp/github_os/input/src/os_base\os_task_scheduler.c ****    /*
 312:E:/NeuOrga/Programmieren/c_cpp/github_os/input/src/os_base\os_task_scheduler.c ****    1. running     --(terminate)--> suspend
 313:E:/NeuOrga/Programmieren/c_cpp/github_os/input/src/os_base\os_task_scheduler.c ****    2. running     --(preempt  )--> ready
 314:E:/NeuOrga/Programmieren/c_cpp/github_os/input/src/os_base\os_task_scheduler.c ****    3. suspend     --(activate )--> ready
 315:E:/NeuOrga/Programmieren/c_cpp/github_os/input/src/os_base\os_task_scheduler.c ****    4. ready       --(start    )--> running
 316:E:/NeuOrga/Programmieren/c_cpp/github_os/input/src/os_base\os_task_scheduler.c ****    5. unspecified --(create   )--> suspend
 317:E:/NeuOrga/Programmieren/c_cpp/github_os/input/src/os_base\os_task_scheduler.c ****    */
 318:E:/NeuOrga/Programmieren/c_cpp/github_os/input/src/os_base\os_task_scheduler.c ****    task_t* task = 0;
 532              		.loc 1 318 0
 533 03fd C745F400 		movl	$0, -12(%ebp)
 533      000000
 319:E:/NeuOrga/Programmieren/c_cpp/github_os/input/src/os_base\os_task_scheduler.c ****    /* get running task */
 320:E:/NeuOrga/Programmieren/c_cpp/github_os/input/src/os_base\os_task_scheduler.c ****    task = GetRunningTask(); /* bug: at first call of TaskSheduler*//* might reply tasks in state re
 534              		.loc 1 320 0
 535 0404 E8000000 		call	_GetRunningTask
 535      00
 536 0409 8945F4   		movl	%eax, -12(%ebp)
 321:E:/NeuOrga/Programmieren/c_cpp/github_os/input/src/os_base\os_task_scheduler.c **** 
 322:E:/NeuOrga/Programmieren/c_cpp/github_os/input/src/os_base\os_task_scheduler.c ****    /* Preempt Task */
 323:E:/NeuOrga/Programmieren/c_cpp/github_os/input/src/os_base\os_task_scheduler.c ****    OS_TERMINATE_TASK(task);
 537              		.loc 1 323 0
 538 040c 8B45F4   		movl	-12(%ebp), %eax
 539 040f 890424   		movl	%eax, (%esp)
 540 0412 E826FFFF 		call	_OS_TERMINATE_TASK
 540      FF
 324:E:/NeuOrga/Programmieren/c_cpp/github_os/input/src/os_base\os_task_scheduler.c **** 
 325:E:/NeuOrga/Programmieren/c_cpp/github_os/input/src/os_base\os_task_scheduler.c ****    /* ask for the next task to be activated... */
 326:E:/NeuOrga/Programmieren/c_cpp/github_os/input/src/os_base\os_task_scheduler.c ****    task = OS_TaskScheduler();
 541              		.loc 1 326 0
 542 0417 E88B0100 		call	_OS_TaskScheduler
 542      00
 543 041c 8945F4   		movl	%eax, -12(%ebp)
 327:E:/NeuOrga/Programmieren/c_cpp/github_os/input/src/os_base\os_task_scheduler.c **** 
 328:E:/NeuOrga/Programmieren/c_cpp/github_os/input/src/os_base\os_task_scheduler.c ****    OS_STARTTASK(task);
 544              		.loc 1 328 0
GAS LISTING C:\Users\PRESID~1\AppData\Local\Temp\ccLfwevT.s 			page 18


 545 041f 8B45F4   		movl	-12(%ebp), %eax
 546 0422 890424   		movl	%eax, (%esp)
 547 0425 E8B7FDFF 		call	_OS_STARTTASK
 547      FF
 329:E:/NeuOrga/Programmieren/c_cpp/github_os/input/src/os_base\os_task_scheduler.c **** }
 548              		.loc 1 329 0
 549 042a C9       		leave
 550              		.cfi_restore 5
 551              		.cfi_def_cfa 4, 4
 552 042b C3       		ret
 553              		.cfi_endproc
 554              	LFE6:
 556              	_TASK_0:
 557              	LFB7:
 330:E:/NeuOrga/Programmieren/c_cpp/github_os/input/src/os_base\os_task_scheduler.c **** Local void TASK_0(void* task_ptr)
 331:E:/NeuOrga/Programmieren/c_cpp/github_os/input/src/os_base\os_task_scheduler.c **** {
 558              		.loc 1 331 0
 559              		.cfi_startproc
 560 042c 55       		pushl	%ebp
 561              		.cfi_def_cfa_offset 8
 562              		.cfi_offset 5, -8
 563 042d 89E5     		movl	%esp, %ebp
 564              		.cfi_def_cfa_register 5
 332:E:/NeuOrga/Programmieren/c_cpp/github_os/input/src/os_base\os_task_scheduler.c ****    ReferenceUnusedParameter(task_ptr);
 333:E:/NeuOrga/Programmieren/c_cpp/github_os/input/src/os_base\os_task_scheduler.c ****    HaltMcu();/* HLT will be ended by timer interrupt, what shall be done with the rest of the funct
 334:E:/NeuOrga/Programmieren/c_cpp/github_os/input/src/os_base\os_task_scheduler.c **** }
 565              		.loc 1 334 0
 566 042f 5D       		popl	%ebp
 567              		.cfi_restore 5
 568              		.cfi_def_cfa 4, 4
 569 0430 C3       		ret
 570              		.cfi_endproc
 571              	LFE7:
 573              	_TASK_1:
 574              	LFB8:
 335:E:/NeuOrga/Programmieren/c_cpp/github_os/input/src/os_base\os_task_scheduler.c **** Local void TASK_1(void* task_ptr)
 336:E:/NeuOrga/Programmieren/c_cpp/github_os/input/src/os_base\os_task_scheduler.c **** {
 575              		.loc 1 336 0
 576              		.cfi_startproc
 577 0431 55       		pushl	%ebp
 578              		.cfi_def_cfa_offset 8
 579              		.cfi_offset 5, -8
 580 0432 89E5     		movl	%esp, %ebp
 581              		.cfi_def_cfa_register 5
 582 0434 83EC18   		subl	$24, %esp
 337:E:/NeuOrga/Programmieren/c_cpp/github_os/input/src/os_base\os_task_scheduler.c ****    ReferenceUnusedParameter(task_ptr);
 338:E:/NeuOrga/Programmieren/c_cpp/github_os/input/src/os_base\os_task_scheduler.c ****    /* worker task */
 339:E:/NeuOrga/Programmieren/c_cpp/github_os/input/src/os_base\os_task_scheduler.c **** 
 340:E:/NeuOrga/Programmieren/c_cpp/github_os/input/src/os_base\os_task_scheduler.c ****    /* do some things */
 341:E:/NeuOrga/Programmieren/c_cpp/github_os/input/src/os_base\os_task_scheduler.c ****    /*while(1) {}*/
 342:E:/NeuOrga/Programmieren/c_cpp/github_os/input/src/os_base\os_task_scheduler.c ****    OS_SLEEPTASK((task_t*)task_ptr, 100000000);
 583              		.loc 1 342 0
 584 0437 C7442404 		movl	$100000000, 4(%esp)
 584      00E1F505 
 585 043f 8B4508   		movl	8(%ebp), %eax
 586 0442 890424   		movl	%eax, (%esp)
 587 0445 E8C8FBFF 		call	_OS_SLEEPTASK
GAS LISTING C:\Users\PRESID~1\AppData\Local\Temp\ccLfwevT.s 			page 19


 587      FF
 343:E:/NeuOrga/Programmieren/c_cpp/github_os/input/src/os_base\os_task_scheduler.c **** 
 344:E:/NeuOrga/Programmieren/c_cpp/github_os/input/src/os_base\os_task_scheduler.c ****    /* end */
 345:E:/NeuOrga/Programmieren/c_cpp/github_os/input/src/os_base\os_task_scheduler.c **** }
 588              		.loc 1 345 0
 589 044a C9       		leave
 590              		.cfi_restore 5
 591              		.cfi_def_cfa 4, 4
 592 044b C3       		ret
 593              		.cfi_endproc
 594              	LFE8:
 596              	_TASK_2:
 597              	LFB9:
 346:E:/NeuOrga/Programmieren/c_cpp/github_os/input/src/os_base\os_task_scheduler.c **** Local void TASK_2(void* task_ptr)
 347:E:/NeuOrga/Programmieren/c_cpp/github_os/input/src/os_base\os_task_scheduler.c **** {
 598              		.loc 1 347 0
 599              		.cfi_startproc
 600 044c 55       		pushl	%ebp
 601              		.cfi_def_cfa_offset 8
 602              		.cfi_offset 5, -8
 603 044d 89E5     		movl	%esp, %ebp
 604              		.cfi_def_cfa_register 5
 348:E:/NeuOrga/Programmieren/c_cpp/github_os/input/src/os_base\os_task_scheduler.c ****    ReferenceUnusedParameter(task_ptr);
 349:E:/NeuOrga/Programmieren/c_cpp/github_os/input/src/os_base\os_task_scheduler.c ****    /* worker task */
 350:E:/NeuOrga/Programmieren/c_cpp/github_os/input/src/os_base\os_task_scheduler.c **** 
 351:E:/NeuOrga/Programmieren/c_cpp/github_os/input/src/os_base\os_task_scheduler.c ****    /* do some things */
 352:E:/NeuOrga/Programmieren/c_cpp/github_os/input/src/os_base\os_task_scheduler.c ****    /*while(1) {}*/
 353:E:/NeuOrga/Programmieren/c_cpp/github_os/input/src/os_base\os_task_scheduler.c **** 
 354:E:/NeuOrga/Programmieren/c_cpp/github_os/input/src/os_base\os_task_scheduler.c ****    /* end */
 355:E:/NeuOrga/Programmieren/c_cpp/github_os/input/src/os_base\os_task_scheduler.c **** }
 605              		.loc 1 355 0
 606 044f 5D       		popl	%ebp
 607              		.cfi_restore 5
 608              		.cfi_def_cfa 4, 4
 609 0450 C3       		ret
 610              		.cfi_endproc
 611              	LFE9:
 613              	_TASK_3:
 614              	LFB10:
 356:E:/NeuOrga/Programmieren/c_cpp/github_os/input/src/os_base\os_task_scheduler.c **** Local void TASK_3(void* task_ptr)
 357:E:/NeuOrga/Programmieren/c_cpp/github_os/input/src/os_base\os_task_scheduler.c **** {
 615              		.loc 1 357 0
 616              		.cfi_startproc
 617 0451 55       		pushl	%ebp
 618              		.cfi_def_cfa_offset 8
 619              		.cfi_offset 5, -8
 620 0452 89E5     		movl	%esp, %ebp
 621              		.cfi_def_cfa_register 5
 358:E:/NeuOrga/Programmieren/c_cpp/github_os/input/src/os_base\os_task_scheduler.c ****    ReferenceUnusedParameter(task_ptr);
 359:E:/NeuOrga/Programmieren/c_cpp/github_os/input/src/os_base\os_task_scheduler.c ****    /* worker task */
 360:E:/NeuOrga/Programmieren/c_cpp/github_os/input/src/os_base\os_task_scheduler.c **** 
 361:E:/NeuOrga/Programmieren/c_cpp/github_os/input/src/os_base\os_task_scheduler.c ****    /* do some things */
 362:E:/NeuOrga/Programmieren/c_cpp/github_os/input/src/os_base\os_task_scheduler.c ****    /*while(1) {}*/
 363:E:/NeuOrga/Programmieren/c_cpp/github_os/input/src/os_base\os_task_scheduler.c **** 
 364:E:/NeuOrga/Programmieren/c_cpp/github_os/input/src/os_base\os_task_scheduler.c ****    /* end */
 365:E:/NeuOrga/Programmieren/c_cpp/github_os/input/src/os_base\os_task_scheduler.c **** }
 622              		.loc 1 365 0
GAS LISTING C:\Users\PRESID~1\AppData\Local\Temp\ccLfwevT.s 			page 20


 623 0454 5D       		popl	%ebp
 624              		.cfi_restore 5
 625              		.cfi_def_cfa 4, 4
 626 0455 C3       		ret
 627              		.cfi_endproc
 628              	LFE10:
 629              		.globl	_OS_INIT_TASKS
 631              	_OS_INIT_TASKS:
 632              	LFB11:
 366:E:/NeuOrga/Programmieren/c_cpp/github_os/input/src/os_base\os_task_scheduler.c **** void OS_INIT_TASKS(void)
 367:E:/NeuOrga/Programmieren/c_cpp/github_os/input/src/os_base\os_task_scheduler.c **** {
 633              		.loc 1 367 0
 634              		.cfi_startproc
 635 0456 55       		pushl	%ebp
 636              		.cfi_def_cfa_offset 8
 637              		.cfi_offset 5, -8
 638 0457 89E5     		movl	%esp, %ebp
 639              		.cfi_def_cfa_register 5
 640 0459 83EC38   		subl	$56, %esp
 368:E:/NeuOrga/Programmieren/c_cpp/github_os/input/src/os_base\os_task_scheduler.c ****    Local task_t task_0, task_1, task_2, task_3;
 369:E:/NeuOrga/Programmieren/c_cpp/github_os/input/src/os_base\os_task_scheduler.c ****    Local task_group_t TASK_GROUP_1;
 370:E:/NeuOrga/Programmieren/c_cpp/github_os/input/src/os_base\os_task_scheduler.c ****    Local task_group_t TASK_GROUP_2;
 371:E:/NeuOrga/Programmieren/c_cpp/github_os/input/src/os_base\os_task_scheduler.c ****    Local task_group_t TASK_GROUP_3;
 372:E:/NeuOrga/Programmieren/c_cpp/github_os/input/src/os_base\os_task_scheduler.c ****    Local task_group_t TASK_GROUP_4;
 373:E:/NeuOrga/Programmieren/c_cpp/github_os/input/src/os_base\os_task_scheduler.c ****    Local task_group_t TASK_GROUP_5;
 374:E:/NeuOrga/Programmieren/c_cpp/github_os/input/src/os_base\os_task_scheduler.c ****    task_t* task_ptr = 0;
 641              		.loc 1 374 0
 642 045c C745F400 		movl	$0, -12(%ebp)
 642      000000
 375:E:/NeuOrga/Programmieren/c_cpp/github_os/input/src/os_base\os_task_scheduler.c ****    LAST_CURRENT_TIME = Get_current_time();
 643              		.loc 1 375 0
 644 0463 E8000000 		call	_Get_current_time
 644      00
 645 0468 A3E80300 		movl	%eax, _LAST_CURRENT_TIME
 645      00
 376:E:/NeuOrga/Programmieren/c_cpp/github_os/input/src/os_base\os_task_scheduler.c **** 
 377:E:/NeuOrga/Programmieren/c_cpp/github_os/input/src/os_base\os_task_scheduler.c ****    ReferenceUnusedParameter (TASK_GROUP_1);
 378:E:/NeuOrga/Programmieren/c_cpp/github_os/input/src/os_base\os_task_scheduler.c ****    ReferenceUnusedParameter (TASK_GROUP_2);
 379:E:/NeuOrga/Programmieren/c_cpp/github_os/input/src/os_base\os_task_scheduler.c ****    ReferenceUnusedParameter (TASK_GROUP_3);
 380:E:/NeuOrga/Programmieren/c_cpp/github_os/input/src/os_base\os_task_scheduler.c ****    ReferenceUnusedParameter (TASK_GROUP_4);
 381:E:/NeuOrga/Programmieren/c_cpp/github_os/input/src/os_base\os_task_scheduler.c ****    ReferenceUnusedParameter (TASK_GROUP_5);
 382:E:/NeuOrga/Programmieren/c_cpp/github_os/input/src/os_base\os_task_scheduler.c **** 
 383:E:/NeuOrga/Programmieren/c_cpp/github_os/input/src/os_base\os_task_scheduler.c **** 
 384:E:/NeuOrga/Programmieren/c_cpp/github_os/input/src/os_base\os_task_scheduler.c ****    /*#warn "CoreId, Privilige Level (User Mode, System Mode, Abort, Undefined, FiQ, IRQ), MEMORY Re
 385:E:/NeuOrga/Programmieren/c_cpp/github_os/input/src/os_base\os_task_scheduler.c ****    /*
 386:E:/NeuOrga/Programmieren/c_cpp/github_os/input/src/os_base\os_task_scheduler.c ****    set task_state for all tasks to Task_unspecified
 387:E:/NeuOrga/Programmieren/c_cpp/github_os/input/src/os_base\os_task_scheduler.c ****     */
 388:E:/NeuOrga/Programmieren/c_cpp/github_os/input/src/os_base\os_task_scheduler.c ****    OS_INIT_TASK_QUEUE();
 646              		.loc 1 388 0
 647 046d E8000000 		call	_OS_INIT_TASK_QUEUE
 647      00
 389:E:/NeuOrga/Programmieren/c_cpp/github_os/input/src/os_base\os_task_scheduler.c **** 
 390:E:/NeuOrga/Programmieren/c_cpp/github_os/input/src/os_base\os_task_scheduler.c ****    /* setup idle task */
 391:E:/NeuOrga/Programmieren/c_cpp/github_os/input/src/os_base\os_task_scheduler.c ****    task_ptr = &task_0;
 648              		.loc 1 391 0
 649 0472 C745F420 		movl	$_task_0.1350, -12(%ebp)
 649      040000
GAS LISTING C:\Users\PRESID~1\AppData\Local\Temp\ccLfwevT.s 			page 21


 392:E:/NeuOrga/Programmieren/c_cpp/github_os/input/src/os_base\os_task_scheduler.c ****    OS_INIT_TASK(task_ptr,                          /* task */
 650              		.loc 1 392 0
 651 0479 C744241C 		movl	$1, 28(%esp)
 651      01000000 
 652 0481 C7442418 		movl	$200, 24(%esp)
 652      C8000000 
 653 0489 C7442414 		movl	$_TASK_STACK, 20(%esp)
 653      00000000 
 654 0491 C7442410 		movl	$_TASK_GROUP_1.1354, 16(%esp)
 654      EC030000 
 655 0499 C744240C 		movl	$1, 12(%esp)
 655      01000000 
 656 04a1 C7442408 		movl	$1, 8(%esp)
 656      01000000 
 657 04a9 C7442404 		movl	$_TASK_0, 4(%esp)
 657      2C040000 
 658 04b1 8B45F4   		movl	-12(%ebp), %eax
 659 04b4 890424   		movl	%eax, (%esp)
 660 04b7 E8000000 		call	_OS_INIT_TASK
 660      00
 393:E:/NeuOrga/Programmieren/c_cpp/github_os/input/src/os_base\os_task_scheduler.c ****                 &TASK_0,                           /* Task Function*/
 394:E:/NeuOrga/Programmieren/c_cpp/github_os/input/src/os_base\os_task_scheduler.c ****                 1,                                 /* Nr of allowed instances*/
 395:E:/NeuOrga/Programmieren/c_cpp/github_os/input/src/os_base\os_task_scheduler.c ****                 True,                              /* Idle Task */
 396:E:/NeuOrga/Programmieren/c_cpp/github_os/input/src/os_base\os_task_scheduler.c ****                 &TASK_GROUP_1,                     /* Task Group */
 397:E:/NeuOrga/Programmieren/c_cpp/github_os/input/src/os_base\os_task_scheduler.c ****                 (unsigned_char_t*)&TASK_STACK[0],  /* Task_stack */
 398:E:/NeuOrga/Programmieren/c_cpp/github_os/input/src/os_base\os_task_scheduler.c ****                 200,                                /* Stack Size */
 399:E:/NeuOrga/Programmieren/c_cpp/github_os/input/src/os_base\os_task_scheduler.c ****                 True                                /* Kernel Mode */
 400:E:/NeuOrga/Programmieren/c_cpp/github_os/input/src/os_base\os_task_scheduler.c ****                );
 401:E:/NeuOrga/Programmieren/c_cpp/github_os/input/src/os_base\os_task_scheduler.c ****    OS_SaveTaskPtr(task_ptr, Task_0_ptr);
 402:E:/NeuOrga/Programmieren/c_cpp/github_os/input/src/os_base\os_task_scheduler.c **** 
 403:E:/NeuOrga/Programmieren/c_cpp/github_os/input/src/os_base\os_task_scheduler.c ****    /*set the idle-task as first running task, otherwise preempt might fail */
 404:E:/NeuOrga/Programmieren/c_cpp/github_os/input/src/os_base\os_task_scheduler.c ****    SET_RUNNING_TASK(task_ptr);
 661              		.loc 1 404 0
 662 04bc 8B45F4   		movl	-12(%ebp), %eax
 663 04bf 890424   		movl	%eax, (%esp)
 664 04c2 E8000000 		call	_SET_RUNNING_TASK
 664      00
 405:E:/NeuOrga/Programmieren/c_cpp/github_os/input/src/os_base\os_task_scheduler.c **** 
 406:E:/NeuOrga/Programmieren/c_cpp/github_os/input/src/os_base\os_task_scheduler.c ****    /* setup worker task */
 407:E:/NeuOrga/Programmieren/c_cpp/github_os/input/src/os_base\os_task_scheduler.c ****    task_ptr = &task_1;
 665              		.loc 1 407 0
 666 04c7 C745F480 		movl	$_task_1.1351, -12(%ebp)
 666      040000
 408:E:/NeuOrga/Programmieren/c_cpp/github_os/input/src/os_base\os_task_scheduler.c ****    OS_INIT_TASK(task_ptr,      /* task */
 667              		.loc 1 408 0
 668 04ce C744241C 		movl	$0, 28(%esp)
 668      00000000 
 669 04d6 C7442418 		movl	$200, 24(%esp)
 669      C8000000 
 670 04de C7442414 		movl	$_TASK_STACK+200, 20(%esp)
 670      C8000000 
 671 04e6 C7442410 		movl	$_TASK_GROUP_1.1354, 16(%esp)
 671      EC030000 
 672 04ee C744240C 		movl	$0, 12(%esp)
 672      00000000 
 673 04f6 C7442408 		movl	$1, 8(%esp)
 673      01000000 
GAS LISTING C:\Users\PRESID~1\AppData\Local\Temp\ccLfwevT.s 			page 22


 674 04fe C7442404 		movl	$_TASK_1, 4(%esp)
 674      31040000 
 675 0506 8B45F4   		movl	-12(%ebp), %eax
 676 0509 890424   		movl	%eax, (%esp)
 677 050c E8000000 		call	_OS_INIT_TASK
 677      00
 409:E:/NeuOrga/Programmieren/c_cpp/github_os/input/src/os_base\os_task_scheduler.c ****                 &TASK_1,       /* Task Function*/
 410:E:/NeuOrga/Programmieren/c_cpp/github_os/input/src/os_base\os_task_scheduler.c ****                 1,             /* Nr of allowed instances*/
 411:E:/NeuOrga/Programmieren/c_cpp/github_os/input/src/os_base\os_task_scheduler.c ****                 False,          /* Idle Task */
 412:E:/NeuOrga/Programmieren/c_cpp/github_os/input/src/os_base\os_task_scheduler.c ****                 &TASK_GROUP_1, /* Task Group */
 413:E:/NeuOrga/Programmieren/c_cpp/github_os/input/src/os_base\os_task_scheduler.c ****                 (unsigned_char_t*)&TASK_STACK[1],/* Task_stack */
 414:E:/NeuOrga/Programmieren/c_cpp/github_os/input/src/os_base\os_task_scheduler.c ****                 200,            /* Stack Size */
 415:E:/NeuOrga/Programmieren/c_cpp/github_os/input/src/os_base\os_task_scheduler.c ****                 False           /* Kernel Mode */
 416:E:/NeuOrga/Programmieren/c_cpp/github_os/input/src/os_base\os_task_scheduler.c ****                );
 417:E:/NeuOrga/Programmieren/c_cpp/github_os/input/src/os_base\os_task_scheduler.c ****    OS_SaveTaskPtr(task_ptr, Task_1_ptr);
 418:E:/NeuOrga/Programmieren/c_cpp/github_os/input/src/os_base\os_task_scheduler.c **** 
 419:E:/NeuOrga/Programmieren/c_cpp/github_os/input/src/os_base\os_task_scheduler.c ****    /* setup worker task */
 420:E:/NeuOrga/Programmieren/c_cpp/github_os/input/src/os_base\os_task_scheduler.c ****    task_ptr = &task_2;
 678              		.loc 1 420 0
 679 0511 C745F4E0 		movl	$_task_2.1352, -12(%ebp)
 679      040000
 421:E:/NeuOrga/Programmieren/c_cpp/github_os/input/src/os_base\os_task_scheduler.c ****    OS_INIT_TASK(task_ptr,      /* task */
 680              		.loc 1 421 0
 681 0518 C744241C 		movl	$0, 28(%esp)
 681      00000000 
 682 0520 C7442418 		movl	$200, 24(%esp)
 682      C8000000 
 683 0528 C7442414 		movl	$_TASK_STACK+400, 20(%esp)
 683      90010000 
 684 0530 C7442410 		movl	$_TASK_GROUP_2.1355, 16(%esp)
 684      F4030000 
 685 0538 C744240C 		movl	$0, 12(%esp)
 685      00000000 
 686 0540 C7442408 		movl	$1, 8(%esp)
 686      01000000 
 687 0548 C7442404 		movl	$_TASK_2, 4(%esp)
 687      4C040000 
 688 0550 8B45F4   		movl	-12(%ebp), %eax
 689 0553 890424   		movl	%eax, (%esp)
 690 0556 E8000000 		call	_OS_INIT_TASK
 690      00
 422:E:/NeuOrga/Programmieren/c_cpp/github_os/input/src/os_base\os_task_scheduler.c ****                 &TASK_2,       /* Task Function*/
 423:E:/NeuOrga/Programmieren/c_cpp/github_os/input/src/os_base\os_task_scheduler.c ****                 1,             /* Nr of allowed instances*/
 424:E:/NeuOrga/Programmieren/c_cpp/github_os/input/src/os_base\os_task_scheduler.c ****                 False,          /* Idle Task */
 425:E:/NeuOrga/Programmieren/c_cpp/github_os/input/src/os_base\os_task_scheduler.c ****                 &TASK_GROUP_2, /* Task Group */
 426:E:/NeuOrga/Programmieren/c_cpp/github_os/input/src/os_base\os_task_scheduler.c ****                 (unsigned_char_t*)&TASK_STACK[2],/* Task_stack */
 427:E:/NeuOrga/Programmieren/c_cpp/github_os/input/src/os_base\os_task_scheduler.c ****                 200,            /* Stack Size */
 428:E:/NeuOrga/Programmieren/c_cpp/github_os/input/src/os_base\os_task_scheduler.c ****                 False           /* Kernel Mode */
 429:E:/NeuOrga/Programmieren/c_cpp/github_os/input/src/os_base\os_task_scheduler.c ****                );
 430:E:/NeuOrga/Programmieren/c_cpp/github_os/input/src/os_base\os_task_scheduler.c ****    OS_SaveTaskPtr(task_ptr, Task_2_ptr);
 431:E:/NeuOrga/Programmieren/c_cpp/github_os/input/src/os_base\os_task_scheduler.c **** 
 432:E:/NeuOrga/Programmieren/c_cpp/github_os/input/src/os_base\os_task_scheduler.c ****    /* setup worker task */
 433:E:/NeuOrga/Programmieren/c_cpp/github_os/input/src/os_base\os_task_scheduler.c ****    task_ptr = &task_3;
 691              		.loc 1 433 0
 692 055b C745F440 		movl	$_task_3.1353, -12(%ebp)
 692      050000
 434:E:/NeuOrga/Programmieren/c_cpp/github_os/input/src/os_base\os_task_scheduler.c ****    OS_INIT_TASK(task_ptr,      /* task */
GAS LISTING C:\Users\PRESID~1\AppData\Local\Temp\ccLfwevT.s 			page 23


 693              		.loc 1 434 0
 694 0562 C744241C 		movl	$1, 28(%esp)
 694      01000000 
 695 056a C7442418 		movl	$200, 24(%esp)
 695      C8000000 
 696 0572 C7442414 		movl	$_TASK_STACK+600, 20(%esp)
 696      58020000 
 697 057a C7442410 		movl	$_TASK_GROUP_3.1356, 16(%esp)
 697      FC030000 
 698 0582 C744240C 		movl	$0, 12(%esp)
 698      00000000 
 699 058a C7442408 		movl	$1, 8(%esp)
 699      01000000 
 700 0592 C7442404 		movl	$_TASK_3, 4(%esp)
 700      51040000 
 701 059a 8B45F4   		movl	-12(%ebp), %eax
 702 059d 890424   		movl	%eax, (%esp)
 703 05a0 E8000000 		call	_OS_INIT_TASK
 703      00
 435:E:/NeuOrga/Programmieren/c_cpp/github_os/input/src/os_base\os_task_scheduler.c ****                 &TASK_3,       /* Task Function*/
 436:E:/NeuOrga/Programmieren/c_cpp/github_os/input/src/os_base\os_task_scheduler.c ****                 1,             /* Nr of allowed instances*/
 437:E:/NeuOrga/Programmieren/c_cpp/github_os/input/src/os_base\os_task_scheduler.c ****                 False,          /* Idle Task */
 438:E:/NeuOrga/Programmieren/c_cpp/github_os/input/src/os_base\os_task_scheduler.c ****                 &TASK_GROUP_3, /* Task Group */
 439:E:/NeuOrga/Programmieren/c_cpp/github_os/input/src/os_base\os_task_scheduler.c ****                 (unsigned_char_t*)&TASK_STACK[3],/* Task_stack */
 440:E:/NeuOrga/Programmieren/c_cpp/github_os/input/src/os_base\os_task_scheduler.c ****                 200,           /* Stack Size */
 441:E:/NeuOrga/Programmieren/c_cpp/github_os/input/src/os_base\os_task_scheduler.c ****                 True                                /* Kernel Mode */
 442:E:/NeuOrga/Programmieren/c_cpp/github_os/input/src/os_base\os_task_scheduler.c ****                );
 443:E:/NeuOrga/Programmieren/c_cpp/github_os/input/src/os_base\os_task_scheduler.c ****    OS_SaveTaskPtr(task_ptr, Task_3_ptr);
 444:E:/NeuOrga/Programmieren/c_cpp/github_os/input/src/os_base\os_task_scheduler.c **** }
 704              		.loc 1 444 0
 705 05a5 C9       		leave
 706              		.cfi_restore 5
 707              		.cfi_def_cfa 4, 4
 708 05a6 C3       		ret
 709              		.cfi_endproc
 710              	LFE11:
 712              	_OS_TaskScheduler:
 713              	LFB12:
 445:E:/NeuOrga/Programmieren/c_cpp/github_os/input/src/os_base\os_task_scheduler.c **** 
 446:E:/NeuOrga/Programmieren/c_cpp/github_os/input/src/os_base\os_task_scheduler.c **** 
 447:E:/NeuOrga/Programmieren/c_cpp/github_os/input/src/os_base\os_task_scheduler.c **** Local task_t* OS_TaskScheduler(void)
 448:E:/NeuOrga/Programmieren/c_cpp/github_os/input/src/os_base\os_task_scheduler.c **** {
 714              		.loc 1 448 0
 715              		.cfi_startproc
 716 05a7 55       		pushl	%ebp
 717              		.cfi_def_cfa_offset 8
 718              		.cfi_offset 5, -8
 719 05a8 89E5     		movl	%esp, %ebp
 720              		.cfi_def_cfa_register 5
 721 05aa 53       		pushl	%ebx
 722 05ab 83EC34   		subl	$52, %esp
 723              		.cfi_offset 3, -12
 449:E:/NeuOrga/Programmieren/c_cpp/github_os/input/src/os_base\os_task_scheduler.c ****    Local task_t* task = 0;
 450:E:/NeuOrga/Programmieren/c_cpp/github_os/input/src/os_base\os_task_scheduler.c ****    Local unsigned_char_t Winner_prio = 0;
 451:E:/NeuOrga/Programmieren/c_cpp/github_os/input/src/os_base\os_task_scheduler.c ****    task_t*         Winner_task = 0;
 724              		.loc 1 451 0
 725 05ae C745F400 		movl	$0, -12(%ebp)
GAS LISTING C:\Users\PRESID~1\AppData\Local\Temp\ccLfwevT.s 			page 24


 725      000000
 452:E:/NeuOrga/Programmieren/c_cpp/github_os/input/src/os_base\os_task_scheduler.c ****    Local link_list_t*    link_list_member;
 453:E:/NeuOrga/Programmieren/c_cpp/github_os/input/src/os_base\os_task_scheduler.c ****    unsigned_char_t       element_nr;
 454:E:/NeuOrga/Programmieren/c_cpp/github_os/input/src/os_base\os_task_scheduler.c **** 
 455:E:/NeuOrga/Programmieren/c_cpp/github_os/input/src/os_base\os_task_scheduler.c ****    scheduler_time_t delta_time = Get_current_time() - LAST_CURRENT_TIME;
 726              		.loc 1 455 0
 727 05b5 E8000000 		call	_Get_current_time
 727      00
 728 05ba 89C2     		movl	%eax, %edx
 729 05bc A1E80300 		movl	_LAST_CURRENT_TIME, %eax
 729      00
 730 05c1 29C2     		subl	%eax, %edx
 731 05c3 89D0     		movl	%edx, %eax
 732 05c5 8945EC   		movl	%eax, -20(%ebp)
 456:E:/NeuOrga/Programmieren/c_cpp/github_os/input/src/os_base\os_task_scheduler.c ****    LAST_CURRENT_TIME = Get_current_time();
 733              		.loc 1 456 0
 734 05c8 E8000000 		call	_Get_current_time
 734      00
 735 05cd A3E80300 		movl	%eax, _LAST_CURRENT_TIME
 735      00
 457:E:/NeuOrga/Programmieren/c_cpp/github_os/input/src/os_base\os_task_scheduler.c **** 
 458:E:/NeuOrga/Programmieren/c_cpp/github_os/input/src/os_base\os_task_scheduler.c ****    /*
 459:E:/NeuOrga/Programmieren/c_cpp/github_os/input/src/os_base\os_task_scheduler.c ****    x const for single task: task->default_prio // low = 0,.....high=100
 460:E:/NeuOrga/Programmieren/c_cpp/github_os/input/src/os_base\os_task_scheduler.c ****    x var   for single task: task->current_prio // see prio_std
 461:E:/NeuOrga/Programmieren/c_cpp/github_os/input/src/os_base\os_task_scheduler.c ****    x var   for single task: task->wait_time    //
 462:E:/NeuOrga/Programmieren/c_cpp/github_os/input/src/os_base\os_task_scheduler.c ****    x var   for single task: task->exe_time
 463:E:/NeuOrga/Programmieren/c_cpp/github_os/input/src/os_base\os_task_scheduler.c ****    x const for single task: task->TimeToPrioInc
 464:E:/NeuOrga/Programmieren/c_cpp/github_os/input/src/os_base\os_task_scheduler.c ****    x const for single task: task->max_allowed_wait_time
 465:E:/NeuOrga/Programmieren/c_cpp/github_os/input/src/os_base\os_task_scheduler.c ****    x const for single task: task->min_allowed_wait_time
 466:E:/NeuOrga/Programmieren/c_cpp/github_os/input/src/os_base\os_task_scheduler.c ****    x const for single task: task->overwaittime_per_prio_inc_step //e.g. 100*MinTimeSlice_us
 467:E:/NeuOrga/Programmieren/c_cpp/github_os/input/src/os_base\os_task_scheduler.c ****    x const for single task: task->task_group  //to allow processor access control by groups (e.g. u
 468:E:/NeuOrga/Programmieren/c_cpp/github_os/input/src/os_base\os_task_scheduler.c ****    x const for single task: task->WaitActUntil
 469:E:/NeuOrga/Programmieren/c_cpp/github_os/input/src/os_base\os_task_scheduler.c ****    (task_group is designed to allow proccessor access control between e.g. Customer Software Task a
 470:E:/NeuOrga/Programmieren/c_cpp/github_os/input/src/os_base\os_task_scheduler.c ****    */
 471:E:/NeuOrga/Programmieren/c_cpp/github_os/input/src/os_base\os_task_scheduler.c ****    For_all_tasks_in_queue(element_nr)
 736              		.loc 1 471 0
 737 05d2 C645F300 		movb	$0, -13(%ebp)
 738 05d6 E9230100 		jmp	L55
 738      00
 739              	L63:
 472:E:/NeuOrga/Programmieren/c_cpp/github_os/input/src/os_base\os_task_scheduler.c ****    {
 473:E:/NeuOrga/Programmieren/c_cpp/github_os/input/src/os_base\os_task_scheduler.c ****       link_list_member = GetFromLinkList(element_nr);
 740              		.loc 1 473 0
 741 05db 0FB645F3 		movzbl	-13(%ebp), %eax
 742 05df 890424   		movl	%eax, (%esp)
 743 05e2 E8000000 		call	_GetFromLinkList
 743      00
 744 05e7 A3A00500 		movl	%eax, _link_list_member.1366
 744      00
 474:E:/NeuOrga/Programmieren/c_cpp/github_os/input/src/os_base\os_task_scheduler.c ****       /*task will have a pointer on the task_obj, and might be equal to "(task_t*) 0" */
 475:E:/NeuOrga/Programmieren/c_cpp/github_os/input/src/os_base\os_task_scheduler.c ****       task             = GetFromTaskQueue(link_list_member);
 745              		.loc 1 475 0
 746 05ec A1A00500 		movl	_link_list_member.1366, %eax
 746      00
 747 05f1 890424   		movl	%eax, (%esp)
 748 05f4 E8000000 		call	_GetFromTaskQueue
 748      00
GAS LISTING C:\Users\PRESID~1\AppData\Local\Temp\ccLfwevT.s 			page 25


 749 05f9 A3A40500 		movl	%eax, _task.1363
 749      00
 476:E:/NeuOrga/Programmieren/c_cpp/github_os/input/src/os_base\os_task_scheduler.c ****       /* increase prio: high numbers->high prio */
 477:E:/NeuOrga/Programmieren/c_cpp/github_os/input/src/os_base\os_task_scheduler.c ****       if((task != 0)&&(task->task_queued != False))
 750              		.loc 1 477 0
 751 05fe A1A40500 		movl	_task.1363, %eax
 751      00
 752 0603 85C0     		testl	%eax, %eax
 753 0605 0F84EC00 		je	L56
 753      0000
 754              		.loc 1 477 0 is_stmt 0 discriminator 1
 755 060b A1A40500 		movl	_task.1363, %eax
 755      00
 756 0610 8A00     		movb	(%eax), %al
 757 0612 83E002   		andl	$2, %eax
 758 0615 84C0     		testb	%al, %al
 759 0617 0F84DA00 		je	L56
 759      0000
 478:E:/NeuOrga/Programmieren/c_cpp/github_os/input/src/os_base\os_task_scheduler.c ****       {
 479:E:/NeuOrga/Programmieren/c_cpp/github_os/input/src/os_base\os_task_scheduler.c ****          if(task->wait_time >= task->TimeToPrioInc)
 760              		.loc 1 479 0 is_stmt 1
 761 061d A1A40500 		movl	_task.1363, %eax
 761      00
 762 0622 8B500C   		movl	12(%eax), %edx
 763 0625 A1A40500 		movl	_task.1363, %eax
 763      00
 764 062a 8B4010   		movl	16(%eax), %eax
 765 062d 39C2     		cmpl	%eax, %edx
 766 062f 721C     		jb	L57
 480:E:/NeuOrga/Programmieren/c_cpp/github_os/input/src/os_base\os_task_scheduler.c ****          {
 481:E:/NeuOrga/Programmieren/c_cpp/github_os/input/src/os_base\os_task_scheduler.c ****             task->current_prio = task->current_prio + task->overwaittime_per_prio_inc_step;
 767              		.loc 1 481 0
 768 0631 A1A40500 		movl	_task.1363, %eax
 768      00
 769 0636 8B15A405 		movl	_task.1363, %edx
 769      0000
 770 063c 8A4A20   		movb	32(%edx), %cl
 771 063f 8B15A405 		movl	_task.1363, %edx
 771      0000
 772 0645 8B5214   		movl	20(%edx), %edx
 773 0648 01CA     		addl	%ecx, %edx
 774 064a 885020   		movb	%dl, 32(%eax)
 775              	L57:
 482:E:/NeuOrga/Programmieren/c_cpp/github_os/input/src/os_base\os_task_scheduler.c ****          }
 483:E:/NeuOrga/Programmieren/c_cpp/github_os/input/src/os_base\os_task_scheduler.c ****          /* in case wait condition not yet fulfilled, set prio to 0 */
 484:E:/NeuOrga/Programmieren/c_cpp/github_os/input/src/os_base\os_task_scheduler.c ****          if(task->WaitActUntil > Get_current_time())
 776              		.loc 1 484 0
 777 064d A1A40500 		movl	_task.1363, %eax
 777      00
 778 0652 8B5808   		movl	8(%eax), %ebx
 779 0655 E8000000 		call	_Get_current_time
 779      00
 780 065a 39C3     		cmpl	%eax, %ebx
 781 065c 7609     		jbe	L58
 485:E:/NeuOrga/Programmieren/c_cpp/github_os/input/src/os_base\os_task_scheduler.c ****          {
 486:E:/NeuOrga/Programmieren/c_cpp/github_os/input/src/os_base\os_task_scheduler.c ****             task->current_prio = 0;
 782              		.loc 1 486 0
GAS LISTING C:\Users\PRESID~1\AppData\Local\Temp\ccLfwevT.s 			page 26


 783 065e A1A40500 		movl	_task.1363, %eax
 783      00
 784 0663 C6402000 		movb	$0, 32(%eax)
 785              	L58:
 487:E:/NeuOrga/Programmieren/c_cpp/github_os/input/src/os_base\os_task_scheduler.c ****          }
 488:E:/NeuOrga/Programmieren/c_cpp/github_os/input/src/os_base\os_task_scheduler.c ****          if(task->wait_time > task->max_allowed_wait_time)
 786              		.loc 1 488 0
 787 0667 A1A40500 		movl	_task.1363, %eax
 787      00
 788 066c 8B500C   		movl	12(%eax), %edx
 789 066f A1A40500 		movl	_task.1363, %eax
 789      00
 790 0674 8B4018   		movl	24(%eax), %eax
 791 0677 39C2     		cmpl	%eax, %edx
 792 0679 7614     		jbe	L59
 489:E:/NeuOrga/Programmieren/c_cpp/github_os/input/src/os_base\os_task_scheduler.c ****          {
 490:E:/NeuOrga/Programmieren/c_cpp/github_os/input/src/os_base\os_task_scheduler.c ****             /* set bug */
 491:E:/NeuOrga/Programmieren/c_cpp/github_os/input/src/os_base\os_task_scheduler.c ****             OS_SET_SW_BUG(os_bug_task_max_wait_time_reached, Func_TaskScheduler);
 793              		.loc 1 491 0
 794 067b C7442404 		movl	$8, 4(%esp)
 794      08000000 
 795 0683 C7042403 		movl	$3, (%esp)
 795      000000
 796 068a E8000000 		call	_OS_SET_SW_BUG
 796      00
 797              	L59:
 492:E:/NeuOrga/Programmieren/c_cpp/github_os/input/src/os_base\os_task_scheduler.c ****          }
 493:E:/NeuOrga/Programmieren/c_cpp/github_os/input/src/os_base\os_task_scheduler.c ****          /* not active TASK_RUN_QUEUE elements have no valid task_group!!*/
 494:E:/NeuOrga/Programmieren/c_cpp/github_os/input/src/os_base\os_task_scheduler.c ****          if(task->task_group!=0)
 798              		.loc 1 494 0
 799 068f A1A40500 		movl	_task.1363, %eax
 799      00
 800 0694 8B4034   		movl	52(%eax), %eax
 801 0697 85C0     		testl	%eax, %eax
 802 0699 7448     		je	L60
 495:E:/NeuOrga/Programmieren/c_cpp/github_os/input/src/os_base\os_task_scheduler.c ****          {
 496:E:/NeuOrga/Programmieren/c_cpp/github_os/input/src/os_base\os_task_scheduler.c ****             /* usage the exe time for scheduling strategy */
 497:E:/NeuOrga/Programmieren/c_cpp/github_os/input/src/os_base\os_task_scheduler.c ****             if(task->task_group->exe_time > task->task_group->fair_exe_time)
 803              		.loc 1 497 0
 804 069b A1A40500 		movl	_task.1363, %eax
 804      00
 805 06a0 8B4034   		movl	52(%eax), %eax
 806 06a3 8B10     		movl	(%eax), %edx
 807 06a5 A1A40500 		movl	_task.1363, %eax
 807      00
 808 06aa 8B4034   		movl	52(%eax), %eax
 809 06ad 8B4004   		movl	4(%eax), %eax
 810 06b0 39C2     		cmpl	%eax, %edx
 811 06b2 7643     		jbe	L56
 498:E:/NeuOrga/Programmieren/c_cpp/github_os/input/src/os_base\os_task_scheduler.c ****             {
 499:E:/NeuOrga/Programmieren/c_cpp/github_os/input/src/os_base\os_task_scheduler.c ****                if(task->exe_time > Task_min_time)/* guarantee min time */
 812              		.loc 1 499 0
 813 06b4 A1A40500 		movl	_task.1363, %eax
 813      00
 814 06b9 8B401C   		movl	28(%eax), %eax
 815 06bc 8945E0   		movl	%eax, -32(%ebp)
 816 06bf C745E400 		movl	$0, -28(%ebp)
GAS LISTING C:\Users\PRESID~1\AppData\Local\Temp\ccLfwevT.s 			page 27


 816      000000
 817 06c6 DF6DE0   		fildq	-32(%ebp)
 818 06c9 D9E8     		fld1
 819 06cb D9C9     		fxch	%st(1)
 820 06cd DAE9     		fucompp
 821 06cf DFE0     		fnstsw	%ax
 822 06d1 F6C445   		testb	$69, %ah
 823 06d4 7402     		je	L71
 824 06d6 EB1F     		jmp	L56
 825              	L71:
 500:E:/NeuOrga/Programmieren/c_cpp/github_os/input/src/os_base\os_task_scheduler.c ****                {
 501:E:/NeuOrga/Programmieren/c_cpp/github_os/input/src/os_base\os_task_scheduler.c ****                   task->current_prio = 0;
 826              		.loc 1 501 0
 827 06d8 A1A40500 		movl	_task.1363, %eax
 827      00
 828 06dd C6402000 		movb	$0, 32(%eax)
 829 06e1 EB14     		jmp	L56
 830              	L60:
 502:E:/NeuOrga/Programmieren/c_cpp/github_os/input/src/os_base\os_task_scheduler.c **** 
 503:E:/NeuOrga/Programmieren/c_cpp/github_os/input/src/os_base\os_task_scheduler.c ****                }
 504:E:/NeuOrga/Programmieren/c_cpp/github_os/input/src/os_base\os_task_scheduler.c ****             }
 505:E:/NeuOrga/Programmieren/c_cpp/github_os/input/src/os_base\os_task_scheduler.c ****          }
 506:E:/NeuOrga/Programmieren/c_cpp/github_os/input/src/os_base\os_task_scheduler.c ****          else
 507:E:/NeuOrga/Programmieren/c_cpp/github_os/input/src/os_base\os_task_scheduler.c ****          {
 508:E:/NeuOrga/Programmieren/c_cpp/github_os/input/src/os_base\os_task_scheduler.c ****             OS_SET_SW_BUG(os_bug_null_pointer, Func_TaskScheduler);
 831              		.loc 1 508 0
 832 06e3 C7442404 		movl	$8, 4(%esp)
 832      08000000 
 833 06eb C7042402 		movl	$2, (%esp)
 833      000000
 834 06f2 E8000000 		call	_OS_SET_SW_BUG
 834      00
 835              	L56:
 471:E:/NeuOrga/Programmieren/c_cpp/github_os/input/src/os_base\os_task_scheduler.c ****    {
 836              		.loc 1 471 0 discriminator 2
 837 06f7 8A45F3   		movb	-13(%ebp), %al
 838 06fa 40       		incl	%eax
 839 06fb 8845F3   		movb	%al, -13(%ebp)
 840              	L55:
 471:E:/NeuOrga/Programmieren/c_cpp/github_os/input/src/os_base\os_task_scheduler.c ****    {
 841              		.loc 1 471 0 is_stmt 0 discriminator 1
 842 06fe 807DF304 		cmpb	$4, -13(%ebp)
 843 0702 0F86D3FE 		jbe	L63
 843      FFFF
 509:E:/NeuOrga/Programmieren/c_cpp/github_os/input/src/os_base\os_task_scheduler.c ****          }
 510:E:/NeuOrga/Programmieren/c_cpp/github_os/input/src/os_base\os_task_scheduler.c ****       }
 511:E:/NeuOrga/Programmieren/c_cpp/github_os/input/src/os_base\os_task_scheduler.c ****       /* do not set bug, because task =0 is used for empty queue elements
 512:E:/NeuOrga/Programmieren/c_cpp/github_os/input/src/os_base\os_task_scheduler.c ****       else
 513:E:/NeuOrga/Programmieren/c_cpp/github_os/input/src/os_base\os_task_scheduler.c ****       {
 514:E:/NeuOrga/Programmieren/c_cpp/github_os/input/src/os_base\os_task_scheduler.c ****           OS_SET_SW_BUG(os_bug_null_pointer, Func_TaskScheduler);
 515:E:/NeuOrga/Programmieren/c_cpp/github_os/input/src/os_base\os_task_scheduler.c ****       }
 516:E:/NeuOrga/Programmieren/c_cpp/github_os/input/src/os_base\os_task_scheduler.c ****       */
 517:E:/NeuOrga/Programmieren/c_cpp/github_os/input/src/os_base\os_task_scheduler.c ****    }
 518:E:/NeuOrga/Programmieren/c_cpp/github_os/input/src/os_base\os_task_scheduler.c ****    For_all_tasks_in_queue(element_nr)
 844              		.loc 1 518 0 is_stmt 1
 845 0708 C645F300 		movb	$0, -13(%ebp)
 846 070c EB7D     		jmp	L64
GAS LISTING C:\Users\PRESID~1\AppData\Local\Temp\ccLfwevT.s 			page 28


 847              	L67:
 519:E:/NeuOrga/Programmieren/c_cpp/github_os/input/src/os_base\os_task_scheduler.c ****    {
 520:E:/NeuOrga/Programmieren/c_cpp/github_os/input/src/os_base\os_task_scheduler.c ****       link_list_member = GetFromLinkList(element_nr);
 848              		.loc 1 520 0
 849 070e 0FB645F3 		movzbl	-13(%ebp), %eax
 850 0712 890424   		movl	%eax, (%esp)
 851 0715 E8000000 		call	_GetFromLinkList
 851      00
 852 071a A3A00500 		movl	%eax, _link_list_member.1366
 852      00
 521:E:/NeuOrga/Programmieren/c_cpp/github_os/input/src/os_base\os_task_scheduler.c ****       task             = GetFromTaskQueue(link_list_member);
 853              		.loc 1 521 0
 854 071f A1A00500 		movl	_link_list_member.1366, %eax
 854      00
 855 0724 890424   		movl	%eax, (%esp)
 856 0727 E8000000 		call	_GetFromTaskQueue
 856      00
 857 072c A3A40500 		movl	%eax, _task.1363
 857      00
 522:E:/NeuOrga/Programmieren/c_cpp/github_os/input/src/os_base\os_task_scheduler.c ****       if(task != 0)
 858              		.loc 1 522 0
 859 0731 A1A40500 		movl	_task.1363, %eax
 859      00
 860 0736 85C0     		testl	%eax, %eax
 861 0738 744A     		je	L65
 523:E:/NeuOrga/Programmieren/c_cpp/github_os/input/src/os_base\os_task_scheduler.c ****       {
 524:E:/NeuOrga/Programmieren/c_cpp/github_os/input/src/os_base\os_task_scheduler.c ****          /*update wait time */
 525:E:/NeuOrga/Programmieren/c_cpp/github_os/input/src/os_base\os_task_scheduler.c ****          if(task->IdleTask != True)
 862              		.loc 1 525 0
 863 073a A1A40500 		movl	_task.1363, %eax
 863      00
 864 073f 8A00     		movb	(%eax), %al
 865 0741 83E004   		andl	$4, %eax
 866 0744 84C0     		testb	%al, %al
 867 0746 7516     		jne	L66
 526:E:/NeuOrga/Programmieren/c_cpp/github_os/input/src/os_base\os_task_scheduler.c ****          {
 527:E:/NeuOrga/Programmieren/c_cpp/github_os/input/src/os_base\os_task_scheduler.c ****             task->wait_time += delta_time;
 868              		.loc 1 527 0
 869 0748 A1A40500 		movl	_task.1363, %eax
 869      00
 870 074d 8B15A405 		movl	_task.1363, %edx
 870      0000
 871 0753 8B4A0C   		movl	12(%edx), %ecx
 872 0756 8B55EC   		movl	-20(%ebp), %edx
 873 0759 01CA     		addl	%ecx, %edx
 874 075b 89500C   		movl	%edx, 12(%eax)
 875              	L66:
 528:E:/NeuOrga/Programmieren/c_cpp/github_os/input/src/os_base\os_task_scheduler.c ****          }
 529:E:/NeuOrga/Programmieren/c_cpp/github_os/input/src/os_base\os_task_scheduler.c ****          /* search for task with highest prio and assign it to Winner_task */
 530:E:/NeuOrga/Programmieren/c_cpp/github_os/input/src/os_base\os_task_scheduler.c ****          if(task->current_prio > Winner_prio)
 876              		.loc 1 530 0
 877 075e A1A40500 		movl	_task.1363, %eax
 877      00
 878 0763 8A5020   		movb	32(%eax), %dl
 879 0766 A0A80500 		movb	_Winner_prio.1364, %al
 879      00
 880 076b 38C2     		cmpb	%al, %dl
GAS LISTING C:\Users\PRESID~1\AppData\Local\Temp\ccLfwevT.s 			page 29


 881 076d 7615     		jbe	L65
 531:E:/NeuOrga/Programmieren/c_cpp/github_os/input/src/os_base\os_task_scheduler.c ****          {
 532:E:/NeuOrga/Programmieren/c_cpp/github_os/input/src/os_base\os_task_scheduler.c ****             Winner_prio = task->current_prio;
 882              		.loc 1 532 0
 883 076f A1A40500 		movl	_task.1363, %eax
 883      00
 884 0774 8A4020   		movb	32(%eax), %al
 885 0777 A2A80500 		movb	%al, _Winner_prio.1364
 885      00
 533:E:/NeuOrga/Programmieren/c_cpp/github_os/input/src/os_base\os_task_scheduler.c ****             Winner_task = task;
 886              		.loc 1 533 0
 887 077c A1A40500 		movl	_task.1363, %eax
 887      00
 888 0781 8945F4   		movl	%eax, -12(%ebp)
 889              	L65:
 518:E:/NeuOrga/Programmieren/c_cpp/github_os/input/src/os_base\os_task_scheduler.c ****    {
 890              		.loc 1 518 0 discriminator 2
 891 0784 8A45F3   		movb	-13(%ebp), %al
 892 0787 40       		incl	%eax
 893 0788 8845F3   		movb	%al, -13(%ebp)
 894              	L64:
 518:E:/NeuOrga/Programmieren/c_cpp/github_os/input/src/os_base\os_task_scheduler.c ****    {
 895              		.loc 1 518 0 is_stmt 0 discriminator 1
 896 078b 807DF304 		cmpb	$4, -13(%ebp)
 897 078f 0F8679FF 		jbe	L67
 897      FFFF
 534:E:/NeuOrga/Programmieren/c_cpp/github_os/input/src/os_base\os_task_scheduler.c ****          }
 535:E:/NeuOrga/Programmieren/c_cpp/github_os/input/src/os_base\os_task_scheduler.c **** 
 536:E:/NeuOrga/Programmieren/c_cpp/github_os/input/src/os_base\os_task_scheduler.c ****       }
 537:E:/NeuOrga/Programmieren/c_cpp/github_os/input/src/os_base\os_task_scheduler.c ****       /* do not set bug, because task =0 is used for empty queue elements
 538:E:/NeuOrga/Programmieren/c_cpp/github_os/input/src/os_base\os_task_scheduler.c ****       else
 539:E:/NeuOrga/Programmieren/c_cpp/github_os/input/src/os_base\os_task_scheduler.c ****       {
 540:E:/NeuOrga/Programmieren/c_cpp/github_os/input/src/os_base\os_task_scheduler.c ****           OS_SET_SW_BUG(os_bug_null_pointer, Func_TaskScheduler);
 541:E:/NeuOrga/Programmieren/c_cpp/github_os/input/src/os_base\os_task_scheduler.c ****       }
 542:E:/NeuOrga/Programmieren/c_cpp/github_os/input/src/os_base\os_task_scheduler.c ****       */
 543:E:/NeuOrga/Programmieren/c_cpp/github_os/input/src/os_base\os_task_scheduler.c ****    }
 544:E:/NeuOrga/Programmieren/c_cpp/github_os/input/src/os_base\os_task_scheduler.c ****    /* prevent deathlook by permanently winning same task */
 545:E:/NeuOrga/Programmieren/c_cpp/github_os/input/src/os_base\os_task_scheduler.c ****    if(Winner_task != 0)
 898              		.loc 1 545 0 is_stmt 1
 899 0795 837DF400 		cmpl	$0, -12(%ebp)
 900 0799 7409     		je	L68
 546:E:/NeuOrga/Programmieren/c_cpp/github_os/input/src/os_base\os_task_scheduler.c ****    {
 547:E:/NeuOrga/Programmieren/c_cpp/github_os/input/src/os_base\os_task_scheduler.c ****       Winner_task->current_prio = 0;
 901              		.loc 1 547 0
 902 079b 8B45F4   		movl	-12(%ebp), %eax
 903 079e C6402000 		movb	$0, 32(%eax)
 904 07a2 EB08     		jmp	L69
 905              	L68:
 548:E:/NeuOrga/Programmieren/c_cpp/github_os/input/src/os_base\os_task_scheduler.c ****    }
 549:E:/NeuOrga/Programmieren/c_cpp/github_os/input/src/os_base\os_task_scheduler.c ****    else
 550:E:/NeuOrga/Programmieren/c_cpp/github_os/input/src/os_base\os_task_scheduler.c ****    {
 551:E:/NeuOrga/Programmieren/c_cpp/github_os/input/src/os_base\os_task_scheduler.c ****       Winner_task = GetIdleTask();
 906              		.loc 1 551 0
 907 07a4 E8000000 		call	_GetIdleTask
 907      00
 908 07a9 8945F4   		movl	%eax, -12(%ebp)
 909              	L69:
GAS LISTING C:\Users\PRESID~1\AppData\Local\Temp\ccLfwevT.s 			page 30


 552:E:/NeuOrga/Programmieren/c_cpp/github_os/input/src/os_base\os_task_scheduler.c ****    }
 553:E:/NeuOrga/Programmieren/c_cpp/github_os/input/src/os_base\os_task_scheduler.c ****    return Winner_task;
 910              		.loc 1 553 0
 911 07ac 8B45F4   		movl	-12(%ebp), %eax
 554:E:/NeuOrga/Programmieren/c_cpp/github_os/input/src/os_base\os_task_scheduler.c **** }
 912              		.loc 1 554 0
 913 07af 83C434   		addl	$52, %esp
 914 07b2 5B       		popl	%ebx
 915              		.cfi_restore 3
 916 07b3 5D       		popl	%ebp
 917              		.cfi_restore 5
 918              		.cfi_def_cfa 4, 4
 919 07b4 C3       		ret
 920              		.cfi_endproc
 921              	LFE12:
 922              		.globl	_ISR_TASK_DISPATCH_C0
 924              	_ISR_TASK_DISPATCH_C0:
 925              	LFB13:
 555:E:/NeuOrga/Programmieren/c_cpp/github_os/input/src/os_base\os_task_scheduler.c **** 
 556:E:/NeuOrga/Programmieren/c_cpp/github_os/input/src/os_base\os_task_scheduler.c **** void ISR_TASK_DISPATCH_C0(void)
 557:E:/NeuOrga/Programmieren/c_cpp/github_os/input/src/os_base\os_task_scheduler.c **** {
 926              		.loc 1 557 0
 927              		.cfi_startproc
 928 07b5 55       		pushl	%ebp
 929              		.cfi_def_cfa_offset 8
 930              		.cfi_offset 5, -8
 931 07b6 89E5     		movl	%esp, %ebp
 932              		.cfi_def_cfa_register 5
 933 07b8 83EC18   		subl	$24, %esp
 558:E:/NeuOrga/Programmieren/c_cpp/github_os/input/src/os_base\os_task_scheduler.c ****    /* after time MinTimeSlice_us is elapsed, the OS_TASK_DISPATCHER will be called again, interrupt
 559:E:/NeuOrga/Programmieren/c_cpp/github_os/input/src/os_base\os_task_scheduler.c ****    LLF_ADD_2_TCMP(MinTimeSlice_us);
 934              		.loc 1 559 0
 935 07bb C70424E7 		movl	$999, (%esp)
 935      030000
 936 07c2 E8000000 		call	_LLF_ADD_2_TCMP
 936      00
 560:E:/NeuOrga/Programmieren/c_cpp/github_os/input/src/os_base\os_task_scheduler.c **** 
 561:E:/NeuOrga/Programmieren/c_cpp/github_os/input/src/os_base\os_task_scheduler.c ****    /*#warn "task scheduler should know which core it is running, to select the correct task to term
 562:E:/NeuOrga/Programmieren/c_cpp/github_os/input/src/os_base\os_task_scheduler.c ****    OS_TASK_DISPATCHER();
 937              		.loc 1 562 0
 938 07c7 E82BFCFF 		call	_OS_TASK_DISPATCHER
 938      FF
 563:E:/NeuOrga/Programmieren/c_cpp/github_os/input/src/os_base\os_task_scheduler.c **** 
 564:E:/NeuOrga/Programmieren/c_cpp/github_os/input/src/os_base\os_task_scheduler.c **** }
 939              		.loc 1 564 0
 940 07cc C9       		leave
 941              		.cfi_restore 5
 942              		.cfi_def_cfa 4, 4
 943 07cd C3       		ret
 944              		.cfi_endproc
 945              	LFE13:
 946              		.globl	_ISR_TASK_DISPATCH_C1
 948              	_ISR_TASK_DISPATCH_C1:
 949              	LFB14:
 565:E:/NeuOrga/Programmieren/c_cpp/github_os/input/src/os_base\os_task_scheduler.c **** 
 566:E:/NeuOrga/Programmieren/c_cpp/github_os/input/src/os_base\os_task_scheduler.c **** void ISR_TASK_DISPATCH_C1(void)
 567:E:/NeuOrga/Programmieren/c_cpp/github_os/input/src/os_base\os_task_scheduler.c **** {
GAS LISTING C:\Users\PRESID~1\AppData\Local\Temp\ccLfwevT.s 			page 31


 950              		.loc 1 567 0
 951              		.cfi_startproc
 952 07ce 55       		pushl	%ebp
 953              		.cfi_def_cfa_offset 8
 954              		.cfi_offset 5, -8
 955 07cf 89E5     		movl	%esp, %ebp
 956              		.cfi_def_cfa_register 5
 957 07d1 83EC18   		subl	$24, %esp
 568:E:/NeuOrga/Programmieren/c_cpp/github_os/input/src/os_base\os_task_scheduler.c ****    /* after time MinTimeSlice_us is elapsed, the OS_TASK_DISPATCHER will be called again, interrupt
 569:E:/NeuOrga/Programmieren/c_cpp/github_os/input/src/os_base\os_task_scheduler.c ****    LLF_ADD_2_TCMP(MinTimeSlice_us);
 958              		.loc 1 569 0
 959 07d4 C70424E7 		movl	$999, (%esp)
 959      030000
 960 07db E8000000 		call	_LLF_ADD_2_TCMP
 960      00
 570:E:/NeuOrga/Programmieren/c_cpp/github_os/input/src/os_base\os_task_scheduler.c **** 
 571:E:/NeuOrga/Programmieren/c_cpp/github_os/input/src/os_base\os_task_scheduler.c ****    /*#warn "task scheduler should know which core it is running, to select the correct task to term
 572:E:/NeuOrga/Programmieren/c_cpp/github_os/input/src/os_base\os_task_scheduler.c ****    OS_TASK_DISPATCHER();
 961              		.loc 1 572 0
 962 07e0 E812FCFF 		call	_OS_TASK_DISPATCHER
 962      FF
 573:E:/NeuOrga/Programmieren/c_cpp/github_os/input/src/os_base\os_task_scheduler.c **** 
 574:E:/NeuOrga/Programmieren/c_cpp/github_os/input/src/os_base\os_task_scheduler.c **** }
 963              		.loc 1 574 0
 964 07e5 C9       		leave
 965              		.cfi_restore 5
 966              		.cfi_def_cfa 4, 4
 967 07e6 C3       		ret
 968              		.cfi_endproc
 969              	LFE14:
 970              		.globl	_ISR_TASK_DISPATCH_C2
 972              	_ISR_TASK_DISPATCH_C2:
 973              	LFB15:
 575:E:/NeuOrga/Programmieren/c_cpp/github_os/input/src/os_base\os_task_scheduler.c **** 
 576:E:/NeuOrga/Programmieren/c_cpp/github_os/input/src/os_base\os_task_scheduler.c **** void ISR_TASK_DISPATCH_C2(void)
 577:E:/NeuOrga/Programmieren/c_cpp/github_os/input/src/os_base\os_task_scheduler.c **** {
 974              		.loc 1 577 0
 975              		.cfi_startproc
 976 07e7 55       		pushl	%ebp
 977              		.cfi_def_cfa_offset 8
 978              		.cfi_offset 5, -8
 979 07e8 89E5     		movl	%esp, %ebp
 980              		.cfi_def_cfa_register 5
 981 07ea 83EC18   		subl	$24, %esp
 578:E:/NeuOrga/Programmieren/c_cpp/github_os/input/src/os_base\os_task_scheduler.c ****    /* after time MinTimeSlice_us is elapsed, the OS_TASK_DISPATCHER will be called again, interrupt
 579:E:/NeuOrga/Programmieren/c_cpp/github_os/input/src/os_base\os_task_scheduler.c ****    LLF_ADD_2_TCMP(MinTimeSlice_us);
 982              		.loc 1 579 0
 983 07ed C70424E7 		movl	$999, (%esp)
 983      030000
 984 07f4 E8000000 		call	_LLF_ADD_2_TCMP
 984      00
 580:E:/NeuOrga/Programmieren/c_cpp/github_os/input/src/os_base\os_task_scheduler.c **** 
 581:E:/NeuOrga/Programmieren/c_cpp/github_os/input/src/os_base\os_task_scheduler.c ****    /*#warn "task scheduler should know which core it is running, to select the correct task to term
 582:E:/NeuOrga/Programmieren/c_cpp/github_os/input/src/os_base\os_task_scheduler.c ****    OS_TASK_DISPATCHER();
 985              		.loc 1 582 0
 986 07f9 E8F9FBFF 		call	_OS_TASK_DISPATCHER
 986      FF
GAS LISTING C:\Users\PRESID~1\AppData\Local\Temp\ccLfwevT.s 			page 32


 583:E:/NeuOrga/Programmieren/c_cpp/github_os/input/src/os_base\os_task_scheduler.c **** 
 584:E:/NeuOrga/Programmieren/c_cpp/github_os/input/src/os_base\os_task_scheduler.c **** }
 987              		.loc 1 584 0
 988 07fe C9       		leave
 989              		.cfi_restore 5
 990              		.cfi_def_cfa 4, 4
 991 07ff C3       		ret
 992              		.cfi_endproc
 993              	LFE15:
 994              		.globl	_ISR_TASK_DISPATCH_C3
 996              	_ISR_TASK_DISPATCH_C3:
 997              	LFB16:
 585:E:/NeuOrga/Programmieren/c_cpp/github_os/input/src/os_base\os_task_scheduler.c **** void ISR_TASK_DISPATCH_C3(void)
 586:E:/NeuOrga/Programmieren/c_cpp/github_os/input/src/os_base\os_task_scheduler.c **** {
 998              		.loc 1 586 0
 999              		.cfi_startproc
 1000 0800 55       		pushl	%ebp
 1001              		.cfi_def_cfa_offset 8
 1002              		.cfi_offset 5, -8
 1003 0801 89E5     		movl	%esp, %ebp
 1004              		.cfi_def_cfa_register 5
 1005 0803 83EC18   		subl	$24, %esp
 587:E:/NeuOrga/Programmieren/c_cpp/github_os/input/src/os_base\os_task_scheduler.c ****    /* after time MinTimeSlice_us is elapsed, the OS_TASK_DISPATCHER will be called again, interrupt
 588:E:/NeuOrga/Programmieren/c_cpp/github_os/input/src/os_base\os_task_scheduler.c ****    LLF_ADD_2_TCMP(MinTimeSlice_us);
 1006              		.loc 1 588 0
 1007 0806 C70424E7 		movl	$999, (%esp)
 1007      030000
 1008 080d E8000000 		call	_LLF_ADD_2_TCMP
 1008      00
 589:E:/NeuOrga/Programmieren/c_cpp/github_os/input/src/os_base\os_task_scheduler.c **** 
 590:E:/NeuOrga/Programmieren/c_cpp/github_os/input/src/os_base\os_task_scheduler.c ****    /*#warn "task scheduler should know which core it is running, to select the correct task to term
 591:E:/NeuOrga/Programmieren/c_cpp/github_os/input/src/os_base\os_task_scheduler.c ****    OS_TASK_DISPATCHER();
 1009              		.loc 1 591 0
 1010 0812 E8E0FBFF 		call	_OS_TASK_DISPATCHER
 1010      FF
 592:E:/NeuOrga/Programmieren/c_cpp/github_os/input/src/os_base\os_task_scheduler.c **** 
 593:E:/NeuOrga/Programmieren/c_cpp/github_os/input/src/os_base\os_task_scheduler.c **** }
 1011              		.loc 1 593 0
 1012 0817 C9       		leave
 1013              		.cfi_restore 5
 1014              		.cfi_def_cfa 4, 4
 1015 0818 C3       		ret
 1016              		.cfi_endproc
 1017              	LFE16:
 1018              	.lcomm _TASK_GROUP_1.1354,8,4
 1019              	.lcomm _TASK_GROUP_2.1355,8,4
 1020              	.lcomm _TASK_GROUP_3.1356,8,4
 1021              	.lcomm _TASK_GROUP_4.1357,8,4
 1022              	.lcomm _TASK_GROUP_5.1358,8,4
 1023              	.lcomm _task_0.1350,96,32
 1024              	.lcomm _task_1.1351,96,32
 1025              	.lcomm _task_2.1352,96,32
 1026              	.lcomm _task_3.1353,96,32
 1027              	.lcomm _link_list_member.1366,4,4
 1028              	.lcomm _task.1363,4,4
 1029              	.lcomm _Winner_prio.1364,1,1
 1030              	Letext0:
GAS LISTING C:\Users\PRESID~1\AppData\Local\Temp\ccLfwevT.s 			page 33


 1031              		.file 2 "E:/NeuOrga/Programmieren/c_cpp/github_os/input/src/os_base/../os_base/os_base_types.h"
 1032              		.file 3 "E:/NeuOrga/Programmieren/c_cpp/github_os/input/src/os_base/../os_base/os_common.h"
 1033              		.file 4 "E:/NeuOrga/Programmieren/c_cpp/github_os/input/src/os_base/../os_sim/../os_base/os_task_c
 1034              		.file 5 "E:/NeuOrga/Programmieren/c_cpp/github_os/input/src/os_base/os_task_scheduler.h"
 1035              		.file 6 "E:/NeuOrga/Programmieren/c_cpp/github_os/input/src/os_base/os_task_queue.h"
 1036              		.file 7 "E:/NeuOrga/Programmieren/c_cpp/github_os/input/src/os_base/../os_base/os_ram.h"
 1037 0819 909090   		.section	.debug_info,"dr"
 1038              	Ldebug_info0:
 1039 0000 4F0C0000 		.long	0xc4f
 1040 0004 0400     		.word	0x4
 1041 0006 00000000 		.secrel32	Ldebug_abbrev0
 1042 000a 04       		.byte	0x4
 1043 000b 01       		.uleb128 0x1
 1044 000c 474E5520 		.ascii "GNU C 4.9.3 -march=i386 -g3 -O0 -std=c90\0"
 1044      4320342E 
 1044      392E3320 
 1044      2D6D6172 
 1044      63683D69 
 1045 0035 01       		.byte	0x1
 1046 0036 453A5C4E 		.ascii "E:\\NeuOrga\\Programmieren\\c_cpp\\github_os\\input\\src\\os_base\\os_task_scheduler.c\0"
 1046      65754F72 
 1046      67615C50 
 1046      726F6772 
 1046      616D6D69 
 1047 0085 00000000 		.long	Ltext0
 1048 0089 19080000 		.long	Letext0-Ltext0
 1049 008d 00000000 		.secrel32	Ldebug_line0
 1050 0091 00000000 		.secrel32	Ldebug_macro0
 1051 0095 02       		.uleb128 0x2
 1052 0096 756E7369 		.ascii "unsigned_char_t\0"
 1052      676E6564 
 1052      5F636861 
 1052      725F7400 
 1053 00a6 02       		.byte	0x2
 1054 00a7 1D       		.byte	0x1d
 1055 00a8 AC000000 		.long	0xac
 1056 00ac 03       		.uleb128 0x3
 1057 00ad 01       		.byte	0x1
 1058 00ae 08       		.byte	0x8
 1059 00af 756E7369 		.ascii "unsigned char\0"
 1059      676E6564 
 1059      20636861 
 1059      7200
 1060 00bd 03       		.uleb128 0x3
 1061 00be 02       		.byte	0x2
 1062 00bf 07       		.byte	0x7
 1063 00c0 73686F72 		.ascii "short unsigned int\0"
 1063      7420756E 
 1063      7369676E 
 1063      65642069 
 1063      6E7400
 1064 00d3 02       		.uleb128 0x2
 1065 00d4 756E7369 		.ascii "unsigned_int32_t\0"
 1065      676E6564 
 1065      5F696E74 
 1065      33325F74 
 1065      00
GAS LISTING C:\Users\PRESID~1\AppData\Local\Temp\ccLfwevT.s 			page 34


 1066 00e5 02       		.byte	0x2
 1067 00e6 22       		.byte	0x22
 1068 00e7 EB000000 		.long	0xeb
 1069 00eb 03       		.uleb128 0x3
 1070 00ec 04       		.byte	0x4
 1071 00ed 07       		.byte	0x7
 1072 00ee 6C6F6E67 		.ascii "long unsigned int\0"
 1072      20756E73 
 1072      69676E65 
 1072      6420696E 
 1072      7400
 1073 0100 04       		.uleb128 0x4
 1074 0101 6F735F73 		.ascii "os_sw_bugs_e\0"
 1074      775F6275 
 1074      67735F65 
 1074      00
 1075 010e 04       		.byte	0x4
 1076 010f 03       		.byte	0x3
 1077 0110 33       		.byte	0x33
 1078 0111 FE010000 		.long	0x1fe
 1079 0115 05       		.uleb128 0x5
 1080 0116 6F735F62 		.ascii "os_bug_no_bug\0"
 1080      75675F6E 
 1080      6F5F6275 
 1080      6700
 1081 0124 00       		.sleb128 0
 1082 0125 05       		.uleb128 0x5
 1083 0126 6F735F62 		.ascii "os_bug_taskstate_request_denied\0"
 1083      75675F74 
 1083      61736B73 
 1083      74617465 
 1083      5F726571 
 1084 0146 01       		.sleb128 1
 1085 0147 05       		.uleb128 0x5
 1086 0148 6F735F62 		.ascii "os_bug_null_pointer\0"
 1086      75675F6E 
 1086      756C6C5F 
 1086      706F696E 
 1086      74657200 
 1087 015c 02       		.sleb128 2
 1088 015d 05       		.uleb128 0x5
 1089 015e 6F735F62 		.ascii "os_bug_task_max_wait_time_reached\0"
 1089      75675F74 
 1089      61736B5F 
 1089      6D61785F 
 1089      77616974 
 1090 0180 03       		.sleb128 3
 1091 0181 05       		.uleb128 0x5
 1092 0182 6F735F62 		.ascii "os_bug_Task_unspecified\0"
 1092      75675F54 
 1092      61736B5F 
 1092      756E7370 
 1092      65636966 
 1093 019a 04       		.sleb128 4
 1094 019b 05       		.uleb128 0x5
 1095 019c 6F735F62 		.ascii "os_bug_exception_UndefInstruction\0"
 1095      75675F65 
GAS LISTING C:\Users\PRESID~1\AppData\Local\Temp\ccLfwevT.s 			page 35


 1095      78636570 
 1095      74696F6E 
 1095      5F556E64 
 1096 01be 05       		.sleb128 5
 1097 01bf 05       		.uleb128 0x5
 1098 01c0 6F735F62 		.ascii "os_bug_exception_AbortPrefetch\0"
 1098      75675F65 
 1098      78636570 
 1098      74696F6E 
 1098      5F41626F 
 1099 01df 06       		.sleb128 6
 1100 01e0 05       		.uleb128 0x5
 1101 01e1 6F735F62 		.ascii "os_bug_exception_AbortData\0"
 1101      75675F65 
 1101      78636570 
 1101      74696F6E 
 1101      5F41626F 
 1102 01fc 07       		.sleb128 7
 1103 01fd 00       		.byte	0
 1104 01fe 04       		.uleb128 0x4
 1105 01ff 6F735F73 		.ascii "os_sw_bugs_function_e\0"
 1105      775F6275 
 1105      67735F66 
 1105      756E6374 
 1105      696F6E5F 
 1106 0215 04       		.byte	0x4
 1107 0216 03       		.byte	0x3
 1108 0217 3F       		.byte	0x3f
 1109 0218 40030000 		.long	0x340
 1110 021c 05       		.uleb128 0x5
 1111 021d 46756E63 		.ascii "Func_NoFunction\0"
 1111      5F4E6F46 
 1111      756E6374 
 1111      696F6E00 
 1112 022d 00       		.sleb128 0
 1113 022e 05       		.uleb128 0x5
 1114 022f 46756E63 		.ascii "Func_SaveTaskEnvironment\0"
 1114      5F536176 
 1114      65546173 
 1114      6B456E76 
 1114      69726F6E 
 1115 0248 01       		.sleb128 1
 1116 0249 05       		.uleb128 0x5
 1117 024a 46756E63 		.ascii "Func_RestoreTaskEnvironment\0"
 1117      5F526573 
 1117      746F7265 
 1117      5461736B 
 1117      456E7669 
 1118 0266 02       		.sleb128 2
 1119 0267 05       		.uleb128 0x5
 1120 0268 46756E63 		.ascii "Func_CreateTaskEnvironment\0"
 1120      5F437265 
 1120      61746554 
 1120      61736B45 
 1120      6E766972 
 1121 0283 03       		.sleb128 3
 1122 0284 05       		.uleb128 0x5
GAS LISTING C:\Users\PRESID~1\AppData\Local\Temp\ccLfwevT.s 			page 36


 1123 0285 46756E63 		.ascii "Func_DeleteTaskEnvironment\0"
 1123      5F44656C 
 1123      65746554 
 1123      61736B45 
 1123      6E766972 
 1124 02a0 04       		.sleb128 4
 1125 02a1 05       		.uleb128 0x5
 1126 02a2 46756E63 		.ascii "Func_StartTask\0"
 1126      5F537461 
 1126      72745461 
 1126      736B00
 1127 02b1 05       		.sleb128 5
 1128 02b2 05       		.uleb128 0x5
 1129 02b3 46756E63 		.ascii "Func_PreemptTask\0"
 1129      5F507265 
 1129      656D7074 
 1129      5461736B 
 1129      00
 1130 02c4 06       		.sleb128 6
 1131 02c5 05       		.uleb128 0x5
 1132 02c6 46756E63 		.ascii "Func_TerminateTask\0"
 1132      5F546572 
 1132      6D696E61 
 1132      74655461 
 1132      736B00
 1133 02d9 07       		.sleb128 7
 1134 02da 05       		.uleb128 0x5
 1135 02db 46756E63 		.ascii "Func_TaskScheduler\0"
 1135      5F546173 
 1135      6B536368 
 1135      6564756C 
 1135      657200
 1136 02ee 08       		.sleb128 8
 1137 02ef 05       		.uleb128 0x5
 1138 02f0 46756E63 		.ascii "Func_InitTask\0"
 1138      5F496E69 
 1138      74546173 
 1138      6B00
 1139 02fe 09       		.sleb128 9
 1140 02ff 05       		.uleb128 0x5
 1141 0300 46756E63 		.ascii "Func_ActivateTask\0"
 1141      5F416374 
 1141      69766174 
 1141      65546173 
 1141      6B00
 1142 0312 0A       		.sleb128 10
 1143 0313 05       		.uleb128 0x5
 1144 0314 46756E63 		.ascii "Func_TaskStateRequest\0"
 1144      5F546173 
 1144      6B537461 
 1144      74655265 
 1144      71756573 
 1145 032a 0B       		.sleb128 11
 1146 032b 05       		.uleb128 0x5
 1147 032c 46756E63 		.ascii "Func_os_exception\0"
 1147      5F6F735F 
 1147      65786365 
GAS LISTING C:\Users\PRESID~1\AppData\Local\Temp\ccLfwevT.s 			page 37


 1147      7074696F 
 1147      6E00
 1148 033e 0C       		.sleb128 12
 1149 033f 00       		.byte	0
 1150 0340 04       		.uleb128 0x4
 1151 0341 7461736B 		.ascii "task_state_e\0"
 1151      5F737461 
 1151      74655F65 
 1151      00
 1152 034e 04       		.byte	0x4
 1153 034f 04       		.byte	0x4
 1154 0350 07       		.byte	0x7
 1155 0351 96030000 		.long	0x396
 1156 0355 05       		.uleb128 0x5
 1157 0356 5461736B 		.ascii "Task_unspecified\0"
 1157      5F756E73 
 1157      70656369 
 1157      66696564 
 1157      00
 1158 0367 00       		.sleb128 0
 1159 0368 05       		.uleb128 0x5
 1160 0369 5461736B 		.ascii "Task_suspended\0"
 1160      5F737573 
 1160      70656E64 
 1160      656400
 1161 0378 01       		.sleb128 1
 1162 0379 05       		.uleb128 0x5
 1163 037a 5461736B 		.ascii "Task_ready\0"
 1163      5F726561 
 1163      647900
 1164 0385 02       		.sleb128 2
 1165 0386 05       		.uleb128 0x5
 1166 0387 5461736B 		.ascii "Task_running\0"
 1166      5F72756E 
 1166      6E696E67 
 1166      00
 1167 0394 03       		.sleb128 3
 1168 0395 00       		.byte	0
 1169 0396 02       		.uleb128 0x2
 1170 0397 7461736B 		.ascii "task_state_t\0"
 1170      5F737461 
 1170      74655F74 
 1170      00
 1171 03a4 04       		.byte	0x4
 1172 03a5 0E       		.byte	0xe
 1173 03a6 40030000 		.long	0x340
 1174 03aa 02       		.uleb128 0x2
 1175 03ab 66756E63 		.ascii "func_p_t\0"
 1175      5F705F74 
 1175      00
 1176 03b4 04       		.byte	0x4
 1177 03b5 13       		.byte	0x13
 1178 03b6 BA030000 		.long	0x3ba
 1179 03ba 06       		.uleb128 0x6
 1180 03bb 04       		.byte	0x4
 1181 03bc C0030000 		.long	0x3c0
 1182 03c0 07       		.uleb128 0x7
GAS LISTING C:\Users\PRESID~1\AppData\Local\Temp\ccLfwevT.s 			page 38


 1183 03c1 CB030000 		.long	0x3cb
 1184 03c5 08       		.uleb128 0x8
 1185 03c6 CB030000 		.long	0x3cb
 1186 03ca 00       		.byte	0
 1187 03cb 09       		.uleb128 0x9
 1188 03cc 04       		.byte	0x4
 1189 03cd 02       		.uleb128 0x2
 1190 03ce 66756E63 		.ascii "func_p_state_change_t\0"
 1190      5F705F73 
 1190      74617465 
 1190      5F636861 
 1190      6E67655F 
 1191 03e4 04       		.byte	0x4
 1192 03e5 15       		.byte	0x15
 1193 03e6 EA030000 		.long	0x3ea
 1194 03ea 06       		.uleb128 0x6
 1195 03eb 04       		.byte	0x4
 1196 03ec F0030000 		.long	0x3f0
 1197 03f0 0A       		.uleb128 0xa
 1198 03f1 95000000 		.long	0x95
 1199 03f5 04040000 		.long	0x404
 1200 03f9 08       		.uleb128 0x8
 1201 03fa CB030000 		.long	0x3cb
 1202 03fe 08       		.uleb128 0x8
 1203 03ff 96030000 		.long	0x396
 1204 0403 00       		.byte	0
 1205 0404 0B       		.uleb128 0xb
 1206 0405 7461736B 		.ascii "task_group_s\0"
 1206      5F67726F 
 1206      75705F73 
 1206      00
 1207 0412 08       		.byte	0x8
 1208 0413 04       		.byte	0x4
 1209 0414 16       		.byte	0x16
 1210 0415 3C040000 		.long	0x43c
 1211 0419 0C       		.uleb128 0xc
 1212 041a 0E000000 		.secrel32	LASF0
 1213 041e 04       		.byte	0x4
 1214 041f 18       		.byte	0x18
 1215 0420 D3000000 		.long	0xd3
 1216 0424 00       		.byte	0
 1217 0425 0D       		.uleb128 0xd
 1218 0426 66616972 		.ascii "fair_exe_time\0"
 1218      5F657865 
 1218      5F74696D 
 1218      6500
 1219 0434 04       		.byte	0x4
 1220 0435 19       		.byte	0x19
 1221 0436 D3000000 		.long	0xd3
 1222 043a 04       		.byte	0x4
 1223 043b 00       		.byte	0
 1224 043c 02       		.uleb128 0x2
 1225 043d 7461736B 		.ascii "task_group_t\0"
 1225      5F67726F 
 1225      75705F74 
 1225      00
 1226 044a 04       		.byte	0x4
GAS LISTING C:\Users\PRESID~1\AppData\Local\Temp\ccLfwevT.s 			page 39


 1227 044b 1B       		.byte	0x1b
 1228 044c 04040000 		.long	0x404
 1229 0450 0B       		.uleb128 0xb
 1230 0451 7461736B 		.ascii "task_s\0"
 1230      5F7300
 1231 0458 60       		.byte	0x60
 1232 0459 04       		.byte	0x4
 1233 045a 1D       		.byte	0x1d
 1234 045b B3060000 		.long	0x6b3
 1235 045f 0E       		.uleb128 0xe
 1236 0460 61637469 		.ascii "active\0"
 1236      766500
 1237 0467 04       		.byte	0x4
 1238 0468 1F       		.byte	0x1f
 1239 0469 B3060000 		.long	0x6b3
 1240 046d 04       		.byte	0x4
 1241 046e 01       		.byte	0x1
 1242 046f 1F       		.byte	0x1f
 1243 0470 00       		.byte	0
 1244 0471 0E       		.uleb128 0xe
 1245 0472 7461736B 		.ascii "task_queued\0"
 1245      5F717565 
 1245      75656400 
 1246 047e 04       		.byte	0x4
 1247 047f 20       		.byte	0x20
 1248 0480 B3060000 		.long	0x6b3
 1249 0484 04       		.byte	0x4
 1250 0485 01       		.byte	0x1
 1251 0486 1E       		.byte	0x1e
 1252 0487 00       		.byte	0
 1253 0488 0E       		.uleb128 0xe
 1254 0489 49646C65 		.ascii "IdleTask\0"
 1254      5461736B 
 1254      00
 1255 0492 04       		.byte	0x4
 1256 0493 21       		.byte	0x21
 1257 0494 B3060000 		.long	0x6b3
 1258 0498 04       		.byte	0x4
 1259 0499 01       		.byte	0x1
 1260 049a 1D       		.byte	0x1d
 1261 049b 00       		.byte	0
 1262 049c 0E       		.uleb128 0xe
 1263 049d 46524545 		.ascii "FREE\0"
 1263      00
 1264 04a2 04       		.byte	0x4
 1265 04a3 22       		.byte	0x22
 1266 04a4 B3060000 		.long	0x6b3
 1267 04a8 04       		.byte	0x4
 1268 04a9 1D       		.byte	0x1d
 1269 04aa 00       		.byte	0
 1270 04ab 00       		.byte	0
 1271 04ac 0D       		.uleb128 0xd
 1272 04ad 4E724F66 		.ascii "NrOfInsAllowed\0"
 1272      496E7341 
 1272      6C6C6F77 
 1272      656400
 1273 04bc 04       		.byte	0x4
GAS LISTING C:\Users\PRESID~1\AppData\Local\Temp\ccLfwevT.s 			page 40


 1274 04bd 23       		.byte	0x23
 1275 04be 95000000 		.long	0x95
 1276 04c2 04       		.byte	0x4
 1277 04c3 0D       		.uleb128 0xd
 1278 04c4 4E724F66 		.ascii "NrOfInsActivated\0"
 1278      496E7341 
 1278      63746976 
 1278      61746564 
 1278      00
 1279 04d5 04       		.byte	0x4
 1280 04d6 24       		.byte	0x24
 1281 04d7 95000000 		.long	0x95
 1282 04db 05       		.byte	0x5
 1283 04dc 0D       		.uleb128 0xd
 1284 04dd 57616974 		.ascii "WaitActUntil\0"
 1284      41637455 
 1284      6E74696C 
 1284      00
 1285 04ea 04       		.byte	0x4
 1286 04eb 25       		.byte	0x25
 1287 04ec D3000000 		.long	0xd3
 1288 04f0 08       		.byte	0x8
 1289 04f1 0D       		.uleb128 0xd
 1290 04f2 77616974 		.ascii "wait_time\0"
 1290      5F74696D 
 1290      6500
 1291 04fc 04       		.byte	0x4
 1292 04fd 26       		.byte	0x26
 1293 04fe D3000000 		.long	0xd3
 1294 0502 0C       		.byte	0xc
 1295 0503 0D       		.uleb128 0xd
 1296 0504 54696D65 		.ascii "TimeToPrioInc\0"
 1296      546F5072 
 1296      696F496E 
 1296      6300
 1297 0512 04       		.byte	0x4
 1298 0513 27       		.byte	0x27
 1299 0514 D3000000 		.long	0xd3
 1300 0518 10       		.byte	0x10
 1301 0519 0D       		.uleb128 0xd
 1302 051a 6F766572 		.ascii "overwaittime_per_prio_inc_step\0"
 1302      77616974 
 1302      74696D65 
 1302      5F706572 
 1302      5F707269 
 1303 0539 04       		.byte	0x4
 1304 053a 28       		.byte	0x28
 1305 053b D3000000 		.long	0xd3
 1306 053f 14       		.byte	0x14
 1307 0540 0D       		.uleb128 0xd
 1308 0541 6D61785F 		.ascii "max_allowed_wait_time\0"
 1308      616C6C6F 
 1308      7765645F 
 1308      77616974 
 1308      5F74696D 
 1309 0557 04       		.byte	0x4
 1310 0558 29       		.byte	0x29
GAS LISTING C:\Users\PRESID~1\AppData\Local\Temp\ccLfwevT.s 			page 41


 1311 0559 D3000000 		.long	0xd3
 1312 055d 18       		.byte	0x18
 1313 055e 0C       		.uleb128 0xc
 1314 055f 0E000000 		.secrel32	LASF0
 1315 0563 04       		.byte	0x4
 1316 0564 2A       		.byte	0x2a
 1317 0565 D3000000 		.long	0xd3
 1318 0569 1C       		.byte	0x1c
 1319 056a 0D       		.uleb128 0xd
 1320 056b 63757272 		.ascii "current_prio\0"
 1320      656E745F 
 1320      7072696F 
 1320      00
 1321 0578 04       		.byte	0x4
 1322 0579 2B       		.byte	0x2b
 1323 057a 95000000 		.long	0x95
 1324 057e 20       		.byte	0x20
 1325 057f 0D       		.uleb128 0xd
 1326 0580 64656661 		.ascii "default_prio\0"
 1326      756C745F 
 1326      7072696F 
 1326      00
 1327 058d 04       		.byte	0x4
 1328 058e 2C       		.byte	0x2c
 1329 058f 95000000 		.long	0x95
 1330 0593 21       		.byte	0x21
 1331 0594 0D       		.uleb128 0xd
 1332 0595 7461736B 		.ascii "task_number\0"
 1332      5F6E756D 
 1332      62657200 
 1333 05a1 04       		.byte	0x4
 1334 05a2 2D       		.byte	0x2d
 1335 05a3 D3000000 		.long	0xd3
 1336 05a7 24       		.byte	0x24
 1337 05a8 0D       		.uleb128 0xd
 1338 05a9 667000   		.ascii "fp\0"
 1339 05ac 04       		.byte	0x4
 1340 05ad 2E       		.byte	0x2e
 1341 05ae AA030000 		.long	0x3aa
 1342 05b2 28       		.byte	0x28
 1343 05b3 0D       		.uleb128 0xd
 1344 05b4 73746174 		.ascii "state_request\0"
 1344      655F7265 
 1344      71756573 
 1344      7400
 1345 05c2 04       		.byte	0x4
 1346 05c3 2F       		.byte	0x2f
 1347 05c4 CD030000 		.long	0x3cd
 1348 05c8 2C       		.byte	0x2c
 1349 05c9 0D       		.uleb128 0xd
 1350 05ca 7461736B 		.ascii "task_state\0"
 1350      5F737461 
 1350      746500
 1351 05d5 04       		.byte	0x4
 1352 05d6 30       		.byte	0x30
 1353 05d7 96030000 		.long	0x396
 1354 05db 30       		.byte	0x30
GAS LISTING C:\Users\PRESID~1\AppData\Local\Temp\ccLfwevT.s 			page 42


 1355 05dc 0D       		.uleb128 0xd
 1356 05dd 7461736B 		.ascii "task_group\0"
 1356      5F67726F 
 1356      757000
 1357 05e8 04       		.byte	0x4
 1358 05e9 31       		.byte	0x31
 1359 05ea C3060000 		.long	0x6c3
 1360 05ee 34       		.byte	0x34
 1361 05ef 0D       		.uleb128 0xd
 1362 05f0 45415800 		.ascii "EAX\0"
 1363 05f4 04       		.byte	0x4
 1364 05f5 33       		.byte	0x33
 1365 05f6 D3000000 		.long	0xd3
 1366 05fa 38       		.byte	0x38
 1367 05fb 0D       		.uleb128 0xd
 1368 05fc 45425800 		.ascii "EBX\0"
 1369 0600 04       		.byte	0x4
 1370 0601 34       		.byte	0x34
 1371 0602 D3000000 		.long	0xd3
 1372 0606 3C       		.byte	0x3c
 1373 0607 0D       		.uleb128 0xd
 1374 0608 45435800 		.ascii "ECX\0"
 1375 060c 04       		.byte	0x4
 1376 060d 35       		.byte	0x35
 1377 060e D3000000 		.long	0xd3
 1378 0612 40       		.byte	0x40
 1379 0613 0D       		.uleb128 0xd
 1380 0614 45445800 		.ascii "EDX\0"
 1381 0618 04       		.byte	0x4
 1382 0619 36       		.byte	0x36
 1383 061a D3000000 		.long	0xd3
 1384 061e 44       		.byte	0x44
 1385 061f 0D       		.uleb128 0xd
 1386 0620 70537461 		.ascii "pStackPointer\0"
 1386      636B506F 
 1386      696E7465 
 1386      7200
 1387 062e 04       		.byte	0x4
 1388 062f 46       		.byte	0x46
 1389 0630 C9060000 		.long	0x6c9
 1390 0634 48       		.byte	0x48
 1391 0635 0D       		.uleb128 0xd
 1392 0636 70537461 		.ascii "pStackPointerByMalloc\0"
 1392      636B506F 
 1392      696E7465 
 1392      7242794D 
 1392      616C6C6F 
 1393 064c 04       		.byte	0x4
 1394 064d 47       		.byte	0x47
 1395 064e C9060000 		.long	0x6c9
 1396 0652 4C       		.byte	0x4c
 1397 0653 0D       		.uleb128 0xd
 1398 0654 70537461 		.ascii "pStackPointerStart\0"
 1398      636B506F 
 1398      696E7465 
 1398      72537461 
 1398      727400
GAS LISTING C:\Users\PRESID~1\AppData\Local\Temp\ccLfwevT.s 			page 43


 1399 0667 04       		.byte	0x4
 1400 0668 48       		.byte	0x48
 1401 0669 C9060000 		.long	0x6c9
 1402 066d 50       		.byte	0x50
 1403 066e 0D       		.uleb128 0xd
 1404 066f 53746163 		.ascii "StackSize\0"
 1404      6B53697A 
 1404      6500
 1405 0679 04       		.byte	0x4
 1406 067a 49       		.byte	0x49
 1407 067b D3000000 		.long	0xd3
 1408 067f 54       		.byte	0x54
 1409 0680 0D       		.uleb128 0xd
 1410 0681 70537461 		.ascii "pStackPointerEnd\0"
 1410      636B506F 
 1410      696E7465 
 1410      72456E64 
 1410      00
 1411 0692 04       		.byte	0x4
 1412 0693 4A       		.byte	0x4a
 1413 0694 C9060000 		.long	0x6c9
 1414 0698 58       		.byte	0x58
 1415 0699 0D       		.uleb128 0xd
 1416 069a 7461736B 		.ascii "task_kernel_mode\0"
 1416      5F6B6572 
 1416      6E656C5F 
 1416      6D6F6465 
 1416      00
 1417 06ab 04       		.byte	0x4
 1418 06ac 4B       		.byte	0x4b
 1419 06ad 95000000 		.long	0x95
 1420 06b1 5C       		.byte	0x5c
 1421 06b2 00       		.byte	0
 1422 06b3 03       		.uleb128 0x3
 1423 06b4 04       		.byte	0x4
 1424 06b5 07       		.byte	0x7
 1425 06b6 756E7369 		.ascii "unsigned int\0"
 1425      676E6564 
 1425      20696E74 
 1425      00
 1426 06c3 06       		.uleb128 0x6
 1427 06c4 04       		.byte	0x4
 1428 06c5 3C040000 		.long	0x43c
 1429 06c9 06       		.uleb128 0x6
 1430 06ca 04       		.byte	0x4
 1431 06cb 95000000 		.long	0x95
 1432 06cf 02       		.uleb128 0x2
 1433 06d0 7461736B 		.ascii "task_t\0"
 1433      5F7400
 1434 06d7 04       		.byte	0x4
 1435 06d8 4D       		.byte	0x4d
 1436 06d9 50040000 		.long	0x450
 1437 06dd 02       		.uleb128 0x2
 1438 06de 73636865 		.ascii "scheduler_time_t\0"
 1438      64756C65 
 1438      725F7469 
 1438      6D655F74 
GAS LISTING C:\Users\PRESID~1\AppData\Local\Temp\ccLfwevT.s 			page 44


 1438      00
 1439 06ef 04       		.byte	0x4
 1440 06f0 5A       		.byte	0x5a
 1441 06f1 B3060000 		.long	0x6b3
 1442 06f5 02       		.uleb128 0x2
 1443 06f6 7461736B 		.ascii "task_time_t\0"
 1443      5F74696D 
 1443      655F7400 
 1444 0702 05       		.byte	0x5
 1445 0703 0F       		.byte	0xf
 1446 0704 B3060000 		.long	0x6b3
 1447 0708 02       		.uleb128 0x2
 1448 0709 6C696E6B 		.ascii "link_list_t\0"
 1448      5F6C6973 
 1448      745F7400 
 1449 0715 06       		.byte	0x6
 1450 0716 0B       		.byte	0xb
 1451 0717 CB030000 		.long	0x3cb
 1452 071b 0F       		.uleb128 0xf
 1453 071c 4F535F41 		.ascii "OS_ACTIVATE_DISPATCHER\0"
 1453      43544956 
 1453      4154455F 
 1453      44495350 
 1453      41544348 
 1454 0733 01       		.byte	0x1
 1455 0734 1B       		.byte	0x1b
 1456 0735 00000000 		.long	LFB0
 1457 0739 12000000 		.long	LFE0-LFB0
 1458 073d 01       		.uleb128 0x1
 1459 073e 9C       		.byte	0x9c
 1460 073f 10       		.uleb128 0x10
 1461 0740 4F535F53 		.ascii "OS_SLEEPTASK\0"
 1461      4C454550 
 1461      5441534B 
 1461      00
 1462 074d 01       		.byte	0x1
 1463 074e 2B       		.byte	0x2b
 1464 074f 12000000 		.long	LFB1
 1465 0753 1A000000 		.long	LFE1-LFB1
 1466 0757 01       		.uleb128 0x1
 1467 0758 9C       		.byte	0x9c
 1468 0759 7F070000 		.long	0x77f
 1469 075d 11       		.uleb128 0x11
 1470 075e 00000000 		.secrel32	LASF1
 1471 0762 01       		.byte	0x1
 1472 0763 2B       		.byte	0x2b
 1473 0764 7F070000 		.long	0x77f
 1474 0768 02       		.uleb128 0x2
 1475 0769 91       		.byte	0x91
 1476 076a 00       		.sleb128 0
 1477 076b 12       		.uleb128 0x12
 1478 076c 6D696C6C 		.ascii "millisec\0"
 1478      69736563 
 1478      00
 1479 0775 01       		.byte	0x1
 1480 0776 2B       		.byte	0x2b
 1481 0777 F5060000 		.long	0x6f5
GAS LISTING C:\Users\PRESID~1\AppData\Local\Temp\ccLfwevT.s 			page 45


 1482 077b 02       		.uleb128 0x2
 1483 077c 91       		.byte	0x91
 1484 077d 04       		.sleb128 4
 1485 077e 00       		.byte	0
 1486 077f 06       		.uleb128 0x6
 1487 0780 04       		.byte	0x4
 1488 0781 CF060000 		.long	0x6cf
 1489 0785 13       		.uleb128 0x13
 1490 0786 7461736B 		.ascii "task_state_request\0"
 1490      5F737461 
 1490      74655F72 
 1490      65717565 
 1490      737400
 1491 0799 01       		.byte	0x1
 1492 079a 30       		.byte	0x30
 1493 079b 95000000 		.long	0x95
 1494 079f 2C000000 		.long	LFB2
 1495 07a3 F7000000 		.long	LFE2-LFB2
 1496 07a7 01       		.uleb128 0x1
 1497 07a8 9C       		.byte	0x9c
 1498 07a9 01080000 		.long	0x801
 1499 07ad 12       		.uleb128 0x12
 1500 07ae 74656D70 		.ascii "temp_task\0"
 1500      5F746173 
 1500      6B00
 1501 07b8 01       		.byte	0x1
 1502 07b9 30       		.byte	0x30
 1503 07ba CB030000 		.long	0x3cb
 1504 07be 02       		.uleb128 0x2
 1505 07bf 91       		.byte	0x91
 1506 07c0 00       		.sleb128 0
 1507 07c1 12       		.uleb128 0x12
 1508 07c2 72657175 		.ascii "requested_state\0"
 1508      65737465 
 1508      645F7374 
 1508      61746500 
 1509 07d2 01       		.byte	0x1
 1510 07d3 30       		.byte	0x30
 1511 07d4 96030000 		.long	0x396
 1512 07d8 02       		.uleb128 0x2
 1513 07d9 91       		.byte	0x91
 1514 07da 04       		.sleb128 4
 1515 07db 14       		.uleb128 0x14
 1516 07dc 52657175 		.ascii "RequestState\0"
 1516      65737453 
 1516      74617465 
 1516      00
 1517 07e9 01       		.byte	0x1
 1518 07ea 32       		.byte	0x32
 1519 07eb 95000000 		.long	0x95
 1520 07ef 02       		.uleb128 0x2
 1521 07f0 91       		.byte	0x91
 1522 07f1 6F       		.sleb128 -17
 1523 07f2 15       		.uleb128 0x15
 1524 07f3 00000000 		.secrel32	LASF1
 1525 07f7 01       		.byte	0x1
 1526 07f8 34       		.byte	0x34
GAS LISTING C:\Users\PRESID~1\AppData\Local\Temp\ccLfwevT.s 			page 46


 1527 07f9 7F070000 		.long	0x77f
 1528 07fd 02       		.uleb128 0x2
 1529 07fe 91       		.byte	0x91
 1530 07ff 68       		.sleb128 -24
 1531 0800 00       		.byte	0
 1532 0801 10       		.uleb128 0x10
 1533 0802 4F535F41 		.ascii "OS_ActivateTask\0"
 1533      63746976 
 1533      61746554 
 1533      61736B00 
 1534 0812 01       		.byte	0x1
 1535 0813 9B       		.byte	0x9b
 1536 0814 23010000 		.long	LFB3
 1537 0818 BE000000 		.long	LFE3-LFB3
 1538 081c 01       		.uleb128 0x1
 1539 081d 9C       		.byte	0x9c
 1540 081e 31080000 		.long	0x831
 1541 0822 11       		.uleb128 0x11
 1542 0823 00000000 		.secrel32	LASF1
 1543 0827 01       		.byte	0x1
 1544 0828 9B       		.byte	0x9b
 1545 0829 7F070000 		.long	0x77f
 1546 082d 02       		.uleb128 0x2
 1547 082e 91       		.byte	0x91
 1548 082f 00       		.sleb128 0
 1549 0830 00       		.byte	0
 1550 0831 16       		.uleb128 0x16
 1551 0832 4F535F53 		.ascii "OS_STARTTASK\0"
 1551      54415254 
 1551      5441534B 
 1551      00
 1552 083f 01       		.byte	0x1
 1553 0840 C9       		.byte	0xc9
 1554 0841 E1010000 		.long	LFB4
 1555 0845 5C010000 		.long	LFE4-LFB4
 1556 0849 01       		.uleb128 0x1
 1557 084a 9C       		.byte	0x9c
 1558 084b 73080000 		.long	0x873
 1559 084f 11       		.uleb128 0x11
 1560 0850 00000000 		.secrel32	LASF1
 1561 0854 01       		.byte	0x1
 1562 0855 C9       		.byte	0xc9
 1563 0856 7F070000 		.long	0x77f
 1564 085a 02       		.uleb128 0x2
 1565 085b 91       		.byte	0x91
 1566 085c 00       		.sleb128 0
 1567 085d 14       		.uleb128 0x14
 1568 085e 73746172 		.ascii "start_time\0"
 1568      745F7469 
 1568      6D6500
 1569 0869 01       		.byte	0x1
 1570 086a D2       		.byte	0xd2
 1571 086b DD060000 		.long	0x6dd
 1572 086f 02       		.uleb128 0x2
 1573 0870 91       		.byte	0x91
 1574 0871 6C       		.sleb128 -20
 1575 0872 00       		.byte	0
GAS LISTING C:\Users\PRESID~1\AppData\Local\Temp\ccLfwevT.s 			page 47


 1576 0873 17       		.uleb128 0x17
 1577 0874 4F535F54 		.ascii "OS_TERMINATE_TASK\0"
 1577      45524D49 
 1577      4E415445 
 1577      5F544153 
 1577      4B00
 1578 0886 01       		.byte	0x1
 1579 0887 0A01     		.word	0x10a
 1580 0889 3D030000 		.long	LFB5
 1581 088d BA000000 		.long	LFE5-LFB5
 1582 0891 01       		.uleb128 0x1
 1583 0892 9C       		.byte	0x9c
 1584 0893 A7080000 		.long	0x8a7
 1585 0897 18       		.uleb128 0x18
 1586 0898 00000000 		.secrel32	LASF1
 1587 089c 01       		.byte	0x1
 1588 089d 0A01     		.word	0x10a
 1589 089f 7F070000 		.long	0x77f
 1590 08a3 02       		.uleb128 0x2
 1591 08a4 91       		.byte	0x91
 1592 08a5 00       		.sleb128 0
 1593 08a6 00       		.byte	0
 1594 08a7 17       		.uleb128 0x17
 1595 08a8 4F535F54 		.ascii "OS_TASK_DISPATCHER\0"
 1595      41534B5F 
 1595      44495350 
 1595      41544348 
 1595      455200
 1596 08bb 01       		.byte	0x1
 1597 08bc 3201     		.word	0x132
 1598 08be F7030000 		.long	LFB6
 1599 08c2 35000000 		.long	LFE6-LFB6
 1600 08c6 01       		.uleb128 0x1
 1601 08c7 9C       		.byte	0x9c
 1602 08c8 DC080000 		.long	0x8dc
 1603 08cc 19       		.uleb128 0x19
 1604 08cd 00000000 		.secrel32	LASF1
 1605 08d1 01       		.byte	0x1
 1606 08d2 3E01     		.word	0x13e
 1607 08d4 7F070000 		.long	0x77f
 1608 08d8 02       		.uleb128 0x2
 1609 08d9 91       		.byte	0x91
 1610 08da 6C       		.sleb128 -20
 1611 08db 00       		.byte	0
 1612 08dc 1A       		.uleb128 0x1a
 1613 08dd 5441534B 		.ascii "TASK_0\0"
 1613      5F3000
 1614 08e4 01       		.byte	0x1
 1615 08e5 4A01     		.word	0x14a
 1616 08e7 2C040000 		.long	LFB7
 1617 08eb 05000000 		.long	LFE7-LFB7
 1618 08ef 01       		.uleb128 0x1
 1619 08f0 9C       		.byte	0x9c
 1620 08f1 05090000 		.long	0x905
 1621 08f5 18       		.uleb128 0x18
 1622 08f6 05000000 		.secrel32	LASF2
 1623 08fa 01       		.byte	0x1
GAS LISTING C:\Users\PRESID~1\AppData\Local\Temp\ccLfwevT.s 			page 48


 1624 08fb 4A01     		.word	0x14a
 1625 08fd CB030000 		.long	0x3cb
 1626 0901 02       		.uleb128 0x2
 1627 0902 91       		.byte	0x91
 1628 0903 00       		.sleb128 0
 1629 0904 00       		.byte	0
 1630 0905 17       		.uleb128 0x17
 1631 0906 5441534B 		.ascii "TASK_1\0"
 1631      5F3100
 1632 090d 01       		.byte	0x1
 1633 090e 4F01     		.word	0x14f
 1634 0910 31040000 		.long	LFB8
 1635 0914 1B000000 		.long	LFE8-LFB8
 1636 0918 01       		.uleb128 0x1
 1637 0919 9C       		.byte	0x9c
 1638 091a 2E090000 		.long	0x92e
 1639 091e 18       		.uleb128 0x18
 1640 091f 05000000 		.secrel32	LASF2
 1641 0923 01       		.byte	0x1
 1642 0924 4F01     		.word	0x14f
 1643 0926 CB030000 		.long	0x3cb
 1644 092a 02       		.uleb128 0x2
 1645 092b 91       		.byte	0x91
 1646 092c 00       		.sleb128 0
 1647 092d 00       		.byte	0
 1648 092e 1A       		.uleb128 0x1a
 1649 092f 5441534B 		.ascii "TASK_2\0"
 1649      5F3200
 1650 0936 01       		.byte	0x1
 1651 0937 5A01     		.word	0x15a
 1652 0939 4C040000 		.long	LFB9
 1653 093d 05000000 		.long	LFE9-LFB9
 1654 0941 01       		.uleb128 0x1
 1655 0942 9C       		.byte	0x9c
 1656 0943 57090000 		.long	0x957
 1657 0947 18       		.uleb128 0x18
 1658 0948 05000000 		.secrel32	LASF2
 1659 094c 01       		.byte	0x1
 1660 094d 5A01     		.word	0x15a
 1661 094f CB030000 		.long	0x3cb
 1662 0953 02       		.uleb128 0x2
 1663 0954 91       		.byte	0x91
 1664 0955 00       		.sleb128 0
 1665 0956 00       		.byte	0
 1666 0957 1A       		.uleb128 0x1a
 1667 0958 5441534B 		.ascii "TASK_3\0"
 1667      5F3300
 1668 095f 01       		.byte	0x1
 1669 0960 6401     		.word	0x164
 1670 0962 51040000 		.long	LFB10
 1671 0966 05000000 		.long	LFE10-LFB10
 1672 096a 01       		.uleb128 0x1
 1673 096b 9C       		.byte	0x9c
 1674 096c 80090000 		.long	0x980
 1675 0970 18       		.uleb128 0x18
 1676 0971 05000000 		.secrel32	LASF2
 1677 0975 01       		.byte	0x1
GAS LISTING C:\Users\PRESID~1\AppData\Local\Temp\ccLfwevT.s 			page 49


 1678 0976 6401     		.word	0x164
 1679 0978 CB030000 		.long	0x3cb
 1680 097c 02       		.uleb128 0x2
 1681 097d 91       		.byte	0x91
 1682 097e 00       		.sleb128 0
 1683 097f 00       		.byte	0
 1684 0980 1B       		.uleb128 0x1b
 1685 0981 4F535F49 		.ascii "OS_INIT_TASKS\0"
 1685      4E49545F 
 1685      5441534B 
 1685      5300
 1686 098f 01       		.byte	0x1
 1687 0990 6E01     		.word	0x16e
 1688 0992 56040000 		.long	LFB11
 1689 0996 51010000 		.long	LFE11-LFB11
 1690 099a 01       		.uleb128 0x1
 1691 099b 9C       		.byte	0x9c
 1692 099c 8B0A0000 		.long	0xa8b
 1693 09a0 1C       		.uleb128 0x1c
 1694 09a1 7461736B 		.ascii "task_0\0"
 1694      5F3000
 1695 09a8 01       		.byte	0x1
 1696 09a9 7001     		.word	0x170
 1697 09ab CF060000 		.long	0x6cf
 1698 09af 05       		.uleb128 0x5
 1699 09b0 03       		.byte	0x3
 1700 09b1 20040000 		.long	_task_0.1350
 1701 09b5 1C       		.uleb128 0x1c
 1702 09b6 7461736B 		.ascii "task_1\0"
 1702      5F3100
 1703 09bd 01       		.byte	0x1
 1704 09be 7001     		.word	0x170
 1705 09c0 CF060000 		.long	0x6cf
 1706 09c4 05       		.uleb128 0x5
 1707 09c5 03       		.byte	0x3
 1708 09c6 80040000 		.long	_task_1.1351
 1709 09ca 1C       		.uleb128 0x1c
 1710 09cb 7461736B 		.ascii "task_2\0"
 1710      5F3200
 1711 09d2 01       		.byte	0x1
 1712 09d3 7001     		.word	0x170
 1713 09d5 CF060000 		.long	0x6cf
 1714 09d9 05       		.uleb128 0x5
 1715 09da 03       		.byte	0x3
 1716 09db E0040000 		.long	_task_2.1352
 1717 09df 1C       		.uleb128 0x1c
 1718 09e0 7461736B 		.ascii "task_3\0"
 1718      5F3300
 1719 09e7 01       		.byte	0x1
 1720 09e8 7001     		.word	0x170
 1721 09ea CF060000 		.long	0x6cf
 1722 09ee 05       		.uleb128 0x5
 1723 09ef 03       		.byte	0x3
 1724 09f0 40050000 		.long	_task_3.1353
 1725 09f4 1C       		.uleb128 0x1c
 1726 09f5 5441534B 		.ascii "TASK_GROUP_1\0"
 1726      5F47524F 
GAS LISTING C:\Users\PRESID~1\AppData\Local\Temp\ccLfwevT.s 			page 50


 1726      55505F31 
 1726      00
 1727 0a02 01       		.byte	0x1
 1728 0a03 7101     		.word	0x171
 1729 0a05 3C040000 		.long	0x43c
 1730 0a09 05       		.uleb128 0x5
 1731 0a0a 03       		.byte	0x3
 1732 0a0b EC030000 		.long	_TASK_GROUP_1.1354
 1733 0a0f 1C       		.uleb128 0x1c
 1734 0a10 5441534B 		.ascii "TASK_GROUP_2\0"
 1734      5F47524F 
 1734      55505F32 
 1734      00
 1735 0a1d 01       		.byte	0x1
 1736 0a1e 7201     		.word	0x172
 1737 0a20 3C040000 		.long	0x43c
 1738 0a24 05       		.uleb128 0x5
 1739 0a25 03       		.byte	0x3
 1740 0a26 F4030000 		.long	_TASK_GROUP_2.1355
 1741 0a2a 1C       		.uleb128 0x1c
 1742 0a2b 5441534B 		.ascii "TASK_GROUP_3\0"
 1742      5F47524F 
 1742      55505F33 
 1742      00
 1743 0a38 01       		.byte	0x1
 1744 0a39 7301     		.word	0x173
 1745 0a3b 3C040000 		.long	0x43c
 1746 0a3f 05       		.uleb128 0x5
 1747 0a40 03       		.byte	0x3
 1748 0a41 FC030000 		.long	_TASK_GROUP_3.1356
 1749 0a45 1C       		.uleb128 0x1c
 1750 0a46 5441534B 		.ascii "TASK_GROUP_4\0"
 1750      5F47524F 
 1750      55505F34 
 1750      00
 1751 0a53 01       		.byte	0x1
 1752 0a54 7401     		.word	0x174
 1753 0a56 3C040000 		.long	0x43c
 1754 0a5a 05       		.uleb128 0x5
 1755 0a5b 03       		.byte	0x3
 1756 0a5c 04040000 		.long	_TASK_GROUP_4.1357
 1757 0a60 1C       		.uleb128 0x1c
 1758 0a61 5441534B 		.ascii "TASK_GROUP_5\0"
 1758      5F47524F 
 1758      55505F35 
 1758      00
 1759 0a6e 01       		.byte	0x1
 1760 0a6f 7501     		.word	0x175
 1761 0a71 3C040000 		.long	0x43c
 1762 0a75 05       		.uleb128 0x5
 1763 0a76 03       		.byte	0x3
 1764 0a77 0C040000 		.long	_TASK_GROUP_5.1358
 1765 0a7b 19       		.uleb128 0x19
 1766 0a7c 05000000 		.secrel32	LASF2
 1767 0a80 01       		.byte	0x1
 1768 0a81 7601     		.word	0x176
 1769 0a83 7F070000 		.long	0x77f
GAS LISTING C:\Users\PRESID~1\AppData\Local\Temp\ccLfwevT.s 			page 51


 1770 0a87 02       		.uleb128 0x2
 1771 0a88 91       		.byte	0x91
 1772 0a89 6C       		.sleb128 -20
 1773 0a8a 00       		.byte	0
 1774 0a8b 1D       		.uleb128 0x1d
 1775 0a8c 4F535F54 		.ascii "OS_TaskScheduler\0"
 1775      61736B53 
 1775      63686564 
 1775      756C6572 
 1775      00
 1776 0a9d 01       		.byte	0x1
 1777 0a9e BF01     		.word	0x1bf
 1778 0aa0 7F070000 		.long	0x77f
 1779 0aa4 A7050000 		.long	LFB12
 1780 0aa8 0E020000 		.long	LFE12-LFB12
 1781 0aac 01       		.uleb128 0x1
 1782 0aad 9C       		.byte	0x9c
 1783 0aae 410B0000 		.long	0xb41
 1784 0ab2 19       		.uleb128 0x19
 1785 0ab3 00000000 		.secrel32	LASF1
 1786 0ab7 01       		.byte	0x1
 1787 0ab8 C101     		.word	0x1c1
 1788 0aba 7F070000 		.long	0x77f
 1789 0abe 05       		.uleb128 0x5
 1790 0abf 03       		.byte	0x3
 1791 0ac0 A4050000 		.long	_task.1363
 1792 0ac4 1C       		.uleb128 0x1c
 1793 0ac5 57696E6E 		.ascii "Winner_prio\0"
 1793      65725F70 
 1793      72696F00 
 1794 0ad1 01       		.byte	0x1
 1795 0ad2 C201     		.word	0x1c2
 1796 0ad4 95000000 		.long	0x95
 1797 0ad8 05       		.uleb128 0x5
 1798 0ad9 03       		.byte	0x3
 1799 0ada A8050000 		.long	_Winner_prio.1364
 1800 0ade 1C       		.uleb128 0x1c
 1801 0adf 57696E6E 		.ascii "Winner_task\0"
 1801      65725F74 
 1801      61736B00 
 1802 0aeb 01       		.byte	0x1
 1803 0aec C301     		.word	0x1c3
 1804 0aee 7F070000 		.long	0x77f
 1805 0af2 02       		.uleb128 0x2
 1806 0af3 91       		.byte	0x91
 1807 0af4 6C       		.sleb128 -20
 1808 0af5 1C       		.uleb128 0x1c
 1809 0af6 6C696E6B 		.ascii "link_list_member\0"
 1809      5F6C6973 
 1809      745F6D65 
 1809      6D626572 
 1809      00
 1810 0b07 01       		.byte	0x1
 1811 0b08 C401     		.word	0x1c4
 1812 0b0a 410B0000 		.long	0xb41
 1813 0b0e 05       		.uleb128 0x5
 1814 0b0f 03       		.byte	0x3
GAS LISTING C:\Users\PRESID~1\AppData\Local\Temp\ccLfwevT.s 			page 52


 1815 0b10 A0050000 		.long	_link_list_member.1366
 1816 0b14 1C       		.uleb128 0x1c
 1817 0b15 656C656D 		.ascii "element_nr\0"
 1817      656E745F 
 1817      6E7200
 1818 0b20 01       		.byte	0x1
 1819 0b21 C501     		.word	0x1c5
 1820 0b23 95000000 		.long	0x95
 1821 0b27 02       		.uleb128 0x2
 1822 0b28 91       		.byte	0x91
 1823 0b29 6B       		.sleb128 -21
 1824 0b2a 1C       		.uleb128 0x1c
 1825 0b2b 64656C74 		.ascii "delta_time\0"
 1825      615F7469 
 1825      6D6500
 1826 0b36 01       		.byte	0x1
 1827 0b37 C701     		.word	0x1c7
 1828 0b39 DD060000 		.long	0x6dd
 1829 0b3d 02       		.uleb128 0x2
 1830 0b3e 91       		.byte	0x91
 1831 0b3f 64       		.sleb128 -28
 1832 0b40 00       		.byte	0
 1833 0b41 06       		.uleb128 0x6
 1834 0b42 04       		.byte	0x4
 1835 0b43 08070000 		.long	0x708
 1836 0b47 1E       		.uleb128 0x1e
 1837 0b48 4953525F 		.ascii "ISR_TASK_DISPATCH_C0\0"
 1837      5441534B 
 1837      5F444953 
 1837      50415443 
 1837      485F4330 
 1838 0b5d 01       		.byte	0x1
 1839 0b5e 2C02     		.word	0x22c
 1840 0b60 B5070000 		.long	LFB13
 1841 0b64 19000000 		.long	LFE13-LFB13
 1842 0b68 01       		.uleb128 0x1
 1843 0b69 9C       		.byte	0x9c
 1844 0b6a 1E       		.uleb128 0x1e
 1845 0b6b 4953525F 		.ascii "ISR_TASK_DISPATCH_C1\0"
 1845      5441534B 
 1845      5F444953 
 1845      50415443 
 1845      485F4331 
 1846 0b80 01       		.byte	0x1
 1847 0b81 3602     		.word	0x236
 1848 0b83 CE070000 		.long	LFB14
 1849 0b87 19000000 		.long	LFE14-LFB14
 1850 0b8b 01       		.uleb128 0x1
 1851 0b8c 9C       		.byte	0x9c
 1852 0b8d 1E       		.uleb128 0x1e
 1853 0b8e 4953525F 		.ascii "ISR_TASK_DISPATCH_C2\0"
 1853      5441534B 
 1853      5F444953 
 1853      50415443 
 1853      485F4332 
 1854 0ba3 01       		.byte	0x1
 1855 0ba4 4002     		.word	0x240
GAS LISTING C:\Users\PRESID~1\AppData\Local\Temp\ccLfwevT.s 			page 53


 1856 0ba6 E7070000 		.long	LFB15
 1857 0baa 19000000 		.long	LFE15-LFB15
 1858 0bae 01       		.uleb128 0x1
 1859 0baf 9C       		.byte	0x9c
 1860 0bb0 1E       		.uleb128 0x1e
 1861 0bb1 4953525F 		.ascii "ISR_TASK_DISPATCH_C3\0"
 1861      5441534B 
 1861      5F444953 
 1861      50415443 
 1861      485F4333 
 1862 0bc6 01       		.byte	0x1
 1863 0bc7 4902     		.word	0x249
 1864 0bc9 00080000 		.long	LFB16
 1865 0bcd 19000000 		.long	LFE16-LFB16
 1866 0bd1 01       		.uleb128 0x1
 1867 0bd2 9C       		.byte	0x9c
 1868 0bd3 1F       		.uleb128 0x1f
 1869 0bd4 95000000 		.long	0x95
 1870 0bd8 E90B0000 		.long	0xbe9
 1871 0bdc 20       		.uleb128 0x20
 1872 0bdd E90B0000 		.long	0xbe9
 1873 0be1 04       		.byte	0x4
 1874 0be2 20       		.uleb128 0x20
 1875 0be3 E90B0000 		.long	0xbe9
 1876 0be7 C7       		.byte	0xc7
 1877 0be8 00       		.byte	0
 1878 0be9 03       		.uleb128 0x3
 1879 0bea 04       		.byte	0x4
 1880 0beb 07       		.byte	0x7
 1881 0bec 73697A65 		.ascii "sizetype\0"
 1881      74797065 
 1881      00
 1882 0bf5 14       		.uleb128 0x14
 1883 0bf6 5441534B 		.ascii "TASK_STACK\0"
 1883      5F535441 
 1883      434B00
 1884 0c01 01       		.byte	0x1
 1885 0c02 18       		.byte	0x18
 1886 0c03 D30B0000 		.long	0xbd3
 1887 0c07 05       		.uleb128 0x5
 1888 0c08 03       		.byte	0x3
 1889 0c09 00000000 		.long	_TASK_STACK
 1890 0c0d 14       		.uleb128 0x14
 1891 0c0e 4C415354 		.ascii "LAST_CURRENT_TIME\0"
 1891      5F435552 
 1891      52454E54 
 1891      5F54494D 
 1891      4500
 1892 0c20 01       		.byte	0x1
 1893 0c21 19       		.byte	0x19
 1894 0c22 DD060000 		.long	0x6dd
 1895 0c26 05       		.uleb128 0x5
 1896 0c27 03       		.byte	0x3
 1897 0c28 E8030000 		.long	_LAST_CURRENT_TIME
 1898 0c2c 1F       		.uleb128 0x1f
 1899 0c2d 95000000 		.long	0x95
 1900 0c31 420C0000 		.long	0xc42
GAS LISTING C:\Users\PRESID~1\AppData\Local\Temp\ccLfwevT.s 			page 54


 1901 0c35 20       		.uleb128 0x20
 1902 0c36 E90B0000 		.long	0xbe9
 1903 0c3a 00       		.byte	0
 1904 0c3b 20       		.uleb128 0x20
 1905 0c3c E90B0000 		.long	0xbe9
 1906 0c40 FF       		.byte	0xff
 1907 0c41 00       		.byte	0
 1908 0c42 21       		.uleb128 0x21
 1909 0c43 4F535F53 		.ascii "OS_STACK\0"
 1909      5441434B 
 1909      00
 1910 0c4c 07       		.byte	0x7
 1911 0c4d 0C       		.byte	0xc
 1912 0c4e 2C0C0000 		.long	0xc2c
 1913 0c52 00       		.byte	0
 1914              		.section	.debug_abbrev,"dr"
 1915              	Ldebug_abbrev0:
 1916 0000 01       		.uleb128 0x1
 1917 0001 11       		.uleb128 0x11
 1918 0002 01       		.byte	0x1
 1919 0003 25       		.uleb128 0x25
 1920 0004 08       		.uleb128 0x8
 1921 0005 13       		.uleb128 0x13
 1922 0006 0B       		.uleb128 0xb
 1923 0007 03       		.uleb128 0x3
 1924 0008 08       		.uleb128 0x8
 1925 0009 11       		.uleb128 0x11
 1926 000a 01       		.uleb128 0x1
 1927 000b 12       		.uleb128 0x12
 1928 000c 06       		.uleb128 0x6
 1929 000d 10       		.uleb128 0x10
 1930 000e 17       		.uleb128 0x17
 1931 000f 9942     		.uleb128 0x2119
 1932 0011 17       		.uleb128 0x17
 1933 0012 00       		.byte	0
 1934 0013 00       		.byte	0
 1935 0014 02       		.uleb128 0x2
 1936 0015 16       		.uleb128 0x16
 1937 0016 00       		.byte	0
 1938 0017 03       		.uleb128 0x3
 1939 0018 08       		.uleb128 0x8
 1940 0019 3A       		.uleb128 0x3a
 1941 001a 0B       		.uleb128 0xb
 1942 001b 3B       		.uleb128 0x3b
 1943 001c 0B       		.uleb128 0xb
 1944 001d 49       		.uleb128 0x49
 1945 001e 13       		.uleb128 0x13
 1946 001f 00       		.byte	0
 1947 0020 00       		.byte	0
 1948 0021 03       		.uleb128 0x3
 1949 0022 24       		.uleb128 0x24
 1950 0023 00       		.byte	0
 1951 0024 0B       		.uleb128 0xb
 1952 0025 0B       		.uleb128 0xb
 1953 0026 3E       		.uleb128 0x3e
 1954 0027 0B       		.uleb128 0xb
 1955 0028 03       		.uleb128 0x3
GAS LISTING C:\Users\PRESID~1\AppData\Local\Temp\ccLfwevT.s 			page 55


 1956 0029 08       		.uleb128 0x8
 1957 002a 00       		.byte	0
 1958 002b 00       		.byte	0
 1959 002c 04       		.uleb128 0x4
 1960 002d 04       		.uleb128 0x4
 1961 002e 01       		.byte	0x1
 1962 002f 03       		.uleb128 0x3
 1963 0030 08       		.uleb128 0x8
 1964 0031 0B       		.uleb128 0xb
 1965 0032 0B       		.uleb128 0xb
 1966 0033 3A       		.uleb128 0x3a
 1967 0034 0B       		.uleb128 0xb
 1968 0035 3B       		.uleb128 0x3b
 1969 0036 0B       		.uleb128 0xb
 1970 0037 01       		.uleb128 0x1
 1971 0038 13       		.uleb128 0x13
 1972 0039 00       		.byte	0
 1973 003a 00       		.byte	0
 1974 003b 05       		.uleb128 0x5
 1975 003c 28       		.uleb128 0x28
 1976 003d 00       		.byte	0
 1977 003e 03       		.uleb128 0x3
 1978 003f 08       		.uleb128 0x8
 1979 0040 1C       		.uleb128 0x1c
 1980 0041 0D       		.uleb128 0xd
 1981 0042 00       		.byte	0
 1982 0043 00       		.byte	0
 1983 0044 06       		.uleb128 0x6
 1984 0045 0F       		.uleb128 0xf
 1985 0046 00       		.byte	0
 1986 0047 0B       		.uleb128 0xb
 1987 0048 0B       		.uleb128 0xb
 1988 0049 49       		.uleb128 0x49
 1989 004a 13       		.uleb128 0x13
 1990 004b 00       		.byte	0
 1991 004c 00       		.byte	0
 1992 004d 07       		.uleb128 0x7
 1993 004e 15       		.uleb128 0x15
 1994 004f 01       		.byte	0x1
 1995 0050 27       		.uleb128 0x27
 1996 0051 19       		.uleb128 0x19
 1997 0052 01       		.uleb128 0x1
 1998 0053 13       		.uleb128 0x13
 1999 0054 00       		.byte	0
 2000 0055 00       		.byte	0
 2001 0056 08       		.uleb128 0x8
 2002 0057 05       		.uleb128 0x5
 2003 0058 00       		.byte	0
 2004 0059 49       		.uleb128 0x49
 2005 005a 13       		.uleb128 0x13
 2006 005b 00       		.byte	0
 2007 005c 00       		.byte	0
 2008 005d 09       		.uleb128 0x9
 2009 005e 0F       		.uleb128 0xf
 2010 005f 00       		.byte	0
 2011 0060 0B       		.uleb128 0xb
 2012 0061 0B       		.uleb128 0xb
GAS LISTING C:\Users\PRESID~1\AppData\Local\Temp\ccLfwevT.s 			page 56


 2013 0062 00       		.byte	0
 2014 0063 00       		.byte	0
 2015 0064 0A       		.uleb128 0xa
 2016 0065 15       		.uleb128 0x15
 2017 0066 01       		.byte	0x1
 2018 0067 27       		.uleb128 0x27
 2019 0068 19       		.uleb128 0x19
 2020 0069 49       		.uleb128 0x49
 2021 006a 13       		.uleb128 0x13
 2022 006b 01       		.uleb128 0x1
 2023 006c 13       		.uleb128 0x13
 2024 006d 00       		.byte	0
 2025 006e 00       		.byte	0
 2026 006f 0B       		.uleb128 0xb
 2027 0070 13       		.uleb128 0x13
 2028 0071 01       		.byte	0x1
 2029 0072 03       		.uleb128 0x3
 2030 0073 08       		.uleb128 0x8
 2031 0074 0B       		.uleb128 0xb
 2032 0075 0B       		.uleb128 0xb
 2033 0076 3A       		.uleb128 0x3a
 2034 0077 0B       		.uleb128 0xb
 2035 0078 3B       		.uleb128 0x3b
 2036 0079 0B       		.uleb128 0xb
 2037 007a 01       		.uleb128 0x1
 2038 007b 13       		.uleb128 0x13
 2039 007c 00       		.byte	0
 2040 007d 00       		.byte	0
 2041 007e 0C       		.uleb128 0xc
 2042 007f 0D       		.uleb128 0xd
 2043 0080 00       		.byte	0
 2044 0081 03       		.uleb128 0x3
 2045 0082 0E       		.uleb128 0xe
 2046 0083 3A       		.uleb128 0x3a
 2047 0084 0B       		.uleb128 0xb
 2048 0085 3B       		.uleb128 0x3b
 2049 0086 0B       		.uleb128 0xb
 2050 0087 49       		.uleb128 0x49
 2051 0088 13       		.uleb128 0x13
 2052 0089 38       		.uleb128 0x38
 2053 008a 0B       		.uleb128 0xb
 2054 008b 00       		.byte	0
 2055 008c 00       		.byte	0
 2056 008d 0D       		.uleb128 0xd
 2057 008e 0D       		.uleb128 0xd
 2058 008f 00       		.byte	0
 2059 0090 03       		.uleb128 0x3
 2060 0091 08       		.uleb128 0x8
 2061 0092 3A       		.uleb128 0x3a
 2062 0093 0B       		.uleb128 0xb
 2063 0094 3B       		.uleb128 0x3b
 2064 0095 0B       		.uleb128 0xb
 2065 0096 49       		.uleb128 0x49
 2066 0097 13       		.uleb128 0x13
 2067 0098 38       		.uleb128 0x38
 2068 0099 0B       		.uleb128 0xb
 2069 009a 00       		.byte	0
GAS LISTING C:\Users\PRESID~1\AppData\Local\Temp\ccLfwevT.s 			page 57


 2070 009b 00       		.byte	0
 2071 009c 0E       		.uleb128 0xe
 2072 009d 0D       		.uleb128 0xd
 2073 009e 00       		.byte	0
 2074 009f 03       		.uleb128 0x3
 2075 00a0 08       		.uleb128 0x8
 2076 00a1 3A       		.uleb128 0x3a
 2077 00a2 0B       		.uleb128 0xb
 2078 00a3 3B       		.uleb128 0x3b
 2079 00a4 0B       		.uleb128 0xb
 2080 00a5 49       		.uleb128 0x49
 2081 00a6 13       		.uleb128 0x13
 2082 00a7 0B       		.uleb128 0xb
 2083 00a8 0B       		.uleb128 0xb
 2084 00a9 0D       		.uleb128 0xd
 2085 00aa 0B       		.uleb128 0xb
 2086 00ab 0C       		.uleb128 0xc
 2087 00ac 0B       		.uleb128 0xb
 2088 00ad 38       		.uleb128 0x38
 2089 00ae 0B       		.uleb128 0xb
 2090 00af 00       		.byte	0
 2091 00b0 00       		.byte	0
 2092 00b1 0F       		.uleb128 0xf
 2093 00b2 2E       		.uleb128 0x2e
 2094 00b3 00       		.byte	0
 2095 00b4 3F       		.uleb128 0x3f
 2096 00b5 19       		.uleb128 0x19
 2097 00b6 03       		.uleb128 0x3
 2098 00b7 08       		.uleb128 0x8
 2099 00b8 3A       		.uleb128 0x3a
 2100 00b9 0B       		.uleb128 0xb
 2101 00ba 3B       		.uleb128 0x3b
 2102 00bb 0B       		.uleb128 0xb
 2103 00bc 27       		.uleb128 0x27
 2104 00bd 19       		.uleb128 0x19
 2105 00be 11       		.uleb128 0x11
 2106 00bf 01       		.uleb128 0x1
 2107 00c0 12       		.uleb128 0x12
 2108 00c1 06       		.uleb128 0x6
 2109 00c2 40       		.uleb128 0x40
 2110 00c3 18       		.uleb128 0x18
 2111 00c4 9642     		.uleb128 0x2116
 2112 00c6 19       		.uleb128 0x19
 2113 00c7 00       		.byte	0
 2114 00c8 00       		.byte	0
 2115 00c9 10       		.uleb128 0x10
 2116 00ca 2E       		.uleb128 0x2e
 2117 00cb 01       		.byte	0x1
 2118 00cc 3F       		.uleb128 0x3f
 2119 00cd 19       		.uleb128 0x19
 2120 00ce 03       		.uleb128 0x3
 2121 00cf 08       		.uleb128 0x8
 2122 00d0 3A       		.uleb128 0x3a
 2123 00d1 0B       		.uleb128 0xb
 2124 00d2 3B       		.uleb128 0x3b
 2125 00d3 0B       		.uleb128 0xb
 2126 00d4 27       		.uleb128 0x27
GAS LISTING C:\Users\PRESID~1\AppData\Local\Temp\ccLfwevT.s 			page 58


 2127 00d5 19       		.uleb128 0x19
 2128 00d6 11       		.uleb128 0x11
 2129 00d7 01       		.uleb128 0x1
 2130 00d8 12       		.uleb128 0x12
 2131 00d9 06       		.uleb128 0x6
 2132 00da 40       		.uleb128 0x40
 2133 00db 18       		.uleb128 0x18
 2134 00dc 9642     		.uleb128 0x2116
 2135 00de 19       		.uleb128 0x19
 2136 00df 01       		.uleb128 0x1
 2137 00e0 13       		.uleb128 0x13
 2138 00e1 00       		.byte	0
 2139 00e2 00       		.byte	0
 2140 00e3 11       		.uleb128 0x11
 2141 00e4 05       		.uleb128 0x5
 2142 00e5 00       		.byte	0
 2143 00e6 03       		.uleb128 0x3
 2144 00e7 0E       		.uleb128 0xe
 2145 00e8 3A       		.uleb128 0x3a
 2146 00e9 0B       		.uleb128 0xb
 2147 00ea 3B       		.uleb128 0x3b
 2148 00eb 0B       		.uleb128 0xb
 2149 00ec 49       		.uleb128 0x49
 2150 00ed 13       		.uleb128 0x13
 2151 00ee 02       		.uleb128 0x2
 2152 00ef 18       		.uleb128 0x18
 2153 00f0 00       		.byte	0
 2154 00f1 00       		.byte	0
 2155 00f2 12       		.uleb128 0x12
 2156 00f3 05       		.uleb128 0x5
 2157 00f4 00       		.byte	0
 2158 00f5 03       		.uleb128 0x3
 2159 00f6 08       		.uleb128 0x8
 2160 00f7 3A       		.uleb128 0x3a
 2161 00f8 0B       		.uleb128 0xb
 2162 00f9 3B       		.uleb128 0x3b
 2163 00fa 0B       		.uleb128 0xb
 2164 00fb 49       		.uleb128 0x49
 2165 00fc 13       		.uleb128 0x13
 2166 00fd 02       		.uleb128 0x2
 2167 00fe 18       		.uleb128 0x18
 2168 00ff 00       		.byte	0
 2169 0100 00       		.byte	0
 2170 0101 13       		.uleb128 0x13
 2171 0102 2E       		.uleb128 0x2e
 2172 0103 01       		.byte	0x1
 2173 0104 3F       		.uleb128 0x3f
 2174 0105 19       		.uleb128 0x19
 2175 0106 03       		.uleb128 0x3
 2176 0107 08       		.uleb128 0x8
 2177 0108 3A       		.uleb128 0x3a
 2178 0109 0B       		.uleb128 0xb
 2179 010a 3B       		.uleb128 0x3b
 2180 010b 0B       		.uleb128 0xb
 2181 010c 27       		.uleb128 0x27
 2182 010d 19       		.uleb128 0x19
 2183 010e 49       		.uleb128 0x49
GAS LISTING C:\Users\PRESID~1\AppData\Local\Temp\ccLfwevT.s 			page 59


 2184 010f 13       		.uleb128 0x13
 2185 0110 11       		.uleb128 0x11
 2186 0111 01       		.uleb128 0x1
 2187 0112 12       		.uleb128 0x12
 2188 0113 06       		.uleb128 0x6
 2189 0114 40       		.uleb128 0x40
 2190 0115 18       		.uleb128 0x18
 2191 0116 9642     		.uleb128 0x2116
 2192 0118 19       		.uleb128 0x19
 2193 0119 01       		.uleb128 0x1
 2194 011a 13       		.uleb128 0x13
 2195 011b 00       		.byte	0
 2196 011c 00       		.byte	0
 2197 011d 14       		.uleb128 0x14
 2198 011e 34       		.uleb128 0x34
 2199 011f 00       		.byte	0
 2200 0120 03       		.uleb128 0x3
 2201 0121 08       		.uleb128 0x8
 2202 0122 3A       		.uleb128 0x3a
 2203 0123 0B       		.uleb128 0xb
 2204 0124 3B       		.uleb128 0x3b
 2205 0125 0B       		.uleb128 0xb
 2206 0126 49       		.uleb128 0x49
 2207 0127 13       		.uleb128 0x13
 2208 0128 02       		.uleb128 0x2
 2209 0129 18       		.uleb128 0x18
 2210 012a 00       		.byte	0
 2211 012b 00       		.byte	0
 2212 012c 15       		.uleb128 0x15
 2213 012d 34       		.uleb128 0x34
 2214 012e 00       		.byte	0
 2215 012f 03       		.uleb128 0x3
 2216 0130 0E       		.uleb128 0xe
 2217 0131 3A       		.uleb128 0x3a
 2218 0132 0B       		.uleb128 0xb
 2219 0133 3B       		.uleb128 0x3b
 2220 0134 0B       		.uleb128 0xb
 2221 0135 49       		.uleb128 0x49
 2222 0136 13       		.uleb128 0x13
 2223 0137 02       		.uleb128 0x2
 2224 0138 18       		.uleb128 0x18
 2225 0139 00       		.byte	0
 2226 013a 00       		.byte	0
 2227 013b 16       		.uleb128 0x16
 2228 013c 2E       		.uleb128 0x2e
 2229 013d 01       		.byte	0x1
 2230 013e 03       		.uleb128 0x3
 2231 013f 08       		.uleb128 0x8
 2232 0140 3A       		.uleb128 0x3a
 2233 0141 0B       		.uleb128 0xb
 2234 0142 3B       		.uleb128 0x3b
 2235 0143 0B       		.uleb128 0xb
 2236 0144 27       		.uleb128 0x27
 2237 0145 19       		.uleb128 0x19
 2238 0146 11       		.uleb128 0x11
 2239 0147 01       		.uleb128 0x1
 2240 0148 12       		.uleb128 0x12
GAS LISTING C:\Users\PRESID~1\AppData\Local\Temp\ccLfwevT.s 			page 60


 2241 0149 06       		.uleb128 0x6
 2242 014a 40       		.uleb128 0x40
 2243 014b 18       		.uleb128 0x18
 2244 014c 9642     		.uleb128 0x2116
 2245 014e 19       		.uleb128 0x19
 2246 014f 01       		.uleb128 0x1
 2247 0150 13       		.uleb128 0x13
 2248 0151 00       		.byte	0
 2249 0152 00       		.byte	0
 2250 0153 17       		.uleb128 0x17
 2251 0154 2E       		.uleb128 0x2e
 2252 0155 01       		.byte	0x1
 2253 0156 03       		.uleb128 0x3
 2254 0157 08       		.uleb128 0x8
 2255 0158 3A       		.uleb128 0x3a
 2256 0159 0B       		.uleb128 0xb
 2257 015a 3B       		.uleb128 0x3b
 2258 015b 05       		.uleb128 0x5
 2259 015c 27       		.uleb128 0x27
 2260 015d 19       		.uleb128 0x19
 2261 015e 11       		.uleb128 0x11
 2262 015f 01       		.uleb128 0x1
 2263 0160 12       		.uleb128 0x12
 2264 0161 06       		.uleb128 0x6
 2265 0162 40       		.uleb128 0x40
 2266 0163 18       		.uleb128 0x18
 2267 0164 9642     		.uleb128 0x2116
 2268 0166 19       		.uleb128 0x19
 2269 0167 01       		.uleb128 0x1
 2270 0168 13       		.uleb128 0x13
 2271 0169 00       		.byte	0
 2272 016a 00       		.byte	0
 2273 016b 18       		.uleb128 0x18
 2274 016c 05       		.uleb128 0x5
 2275 016d 00       		.byte	0
 2276 016e 03       		.uleb128 0x3
 2277 016f 0E       		.uleb128 0xe
 2278 0170 3A       		.uleb128 0x3a
 2279 0171 0B       		.uleb128 0xb
 2280 0172 3B       		.uleb128 0x3b
 2281 0173 05       		.uleb128 0x5
 2282 0174 49       		.uleb128 0x49
 2283 0175 13       		.uleb128 0x13
 2284 0176 02       		.uleb128 0x2
 2285 0177 18       		.uleb128 0x18
 2286 0178 00       		.byte	0
 2287 0179 00       		.byte	0
 2288 017a 19       		.uleb128 0x19
 2289 017b 34       		.uleb128 0x34
 2290 017c 00       		.byte	0
 2291 017d 03       		.uleb128 0x3
 2292 017e 0E       		.uleb128 0xe
 2293 017f 3A       		.uleb128 0x3a
 2294 0180 0B       		.uleb128 0xb
 2295 0181 3B       		.uleb128 0x3b
 2296 0182 05       		.uleb128 0x5
 2297 0183 49       		.uleb128 0x49
GAS LISTING C:\Users\PRESID~1\AppData\Local\Temp\ccLfwevT.s 			page 61


 2298 0184 13       		.uleb128 0x13
 2299 0185 02       		.uleb128 0x2
 2300 0186 18       		.uleb128 0x18
 2301 0187 00       		.byte	0
 2302 0188 00       		.byte	0
 2303 0189 1A       		.uleb128 0x1a
 2304 018a 2E       		.uleb128 0x2e
 2305 018b 01       		.byte	0x1
 2306 018c 03       		.uleb128 0x3
 2307 018d 08       		.uleb128 0x8
 2308 018e 3A       		.uleb128 0x3a
 2309 018f 0B       		.uleb128 0xb
 2310 0190 3B       		.uleb128 0x3b
 2311 0191 05       		.uleb128 0x5
 2312 0192 27       		.uleb128 0x27
 2313 0193 19       		.uleb128 0x19
 2314 0194 11       		.uleb128 0x11
 2315 0195 01       		.uleb128 0x1
 2316 0196 12       		.uleb128 0x12
 2317 0197 06       		.uleb128 0x6
 2318 0198 40       		.uleb128 0x40
 2319 0199 18       		.uleb128 0x18
 2320 019a 9742     		.uleb128 0x2117
 2321 019c 19       		.uleb128 0x19
 2322 019d 01       		.uleb128 0x1
 2323 019e 13       		.uleb128 0x13
 2324 019f 00       		.byte	0
 2325 01a0 00       		.byte	0
 2326 01a1 1B       		.uleb128 0x1b
 2327 01a2 2E       		.uleb128 0x2e
 2328 01a3 01       		.byte	0x1
 2329 01a4 3F       		.uleb128 0x3f
 2330 01a5 19       		.uleb128 0x19
 2331 01a6 03       		.uleb128 0x3
 2332 01a7 08       		.uleb128 0x8
 2333 01a8 3A       		.uleb128 0x3a
 2334 01a9 0B       		.uleb128 0xb
 2335 01aa 3B       		.uleb128 0x3b
 2336 01ab 05       		.uleb128 0x5
 2337 01ac 27       		.uleb128 0x27
 2338 01ad 19       		.uleb128 0x19
 2339 01ae 11       		.uleb128 0x11
 2340 01af 01       		.uleb128 0x1
 2341 01b0 12       		.uleb128 0x12
 2342 01b1 06       		.uleb128 0x6
 2343 01b2 40       		.uleb128 0x40
 2344 01b3 18       		.uleb128 0x18
 2345 01b4 9642     		.uleb128 0x2116
 2346 01b6 19       		.uleb128 0x19
 2347 01b7 01       		.uleb128 0x1
 2348 01b8 13       		.uleb128 0x13
 2349 01b9 00       		.byte	0
 2350 01ba 00       		.byte	0
 2351 01bb 1C       		.uleb128 0x1c
 2352 01bc 34       		.uleb128 0x34
 2353 01bd 00       		.byte	0
 2354 01be 03       		.uleb128 0x3
GAS LISTING C:\Users\PRESID~1\AppData\Local\Temp\ccLfwevT.s 			page 62


 2355 01bf 08       		.uleb128 0x8
 2356 01c0 3A       		.uleb128 0x3a
 2357 01c1 0B       		.uleb128 0xb
 2358 01c2 3B       		.uleb128 0x3b
 2359 01c3 05       		.uleb128 0x5
 2360 01c4 49       		.uleb128 0x49
 2361 01c5 13       		.uleb128 0x13
 2362 01c6 02       		.uleb128 0x2
 2363 01c7 18       		.uleb128 0x18
 2364 01c8 00       		.byte	0
 2365 01c9 00       		.byte	0
 2366 01ca 1D       		.uleb128 0x1d
 2367 01cb 2E       		.uleb128 0x2e
 2368 01cc 01       		.byte	0x1
 2369 01cd 03       		.uleb128 0x3
 2370 01ce 08       		.uleb128 0x8
 2371 01cf 3A       		.uleb128 0x3a
 2372 01d0 0B       		.uleb128 0xb
 2373 01d1 3B       		.uleb128 0x3b
 2374 01d2 05       		.uleb128 0x5
 2375 01d3 27       		.uleb128 0x27
 2376 01d4 19       		.uleb128 0x19
 2377 01d5 49       		.uleb128 0x49
 2378 01d6 13       		.uleb128 0x13
 2379 01d7 11       		.uleb128 0x11
 2380 01d8 01       		.uleb128 0x1
 2381 01d9 12       		.uleb128 0x12
 2382 01da 06       		.uleb128 0x6
 2383 01db 40       		.uleb128 0x40
 2384 01dc 18       		.uleb128 0x18
 2385 01dd 9642     		.uleb128 0x2116
 2386 01df 19       		.uleb128 0x19
 2387 01e0 01       		.uleb128 0x1
 2388 01e1 13       		.uleb128 0x13
 2389 01e2 00       		.byte	0
 2390 01e3 00       		.byte	0
 2391 01e4 1E       		.uleb128 0x1e
 2392 01e5 2E       		.uleb128 0x2e
 2393 01e6 00       		.byte	0
 2394 01e7 3F       		.uleb128 0x3f
 2395 01e8 19       		.uleb128 0x19
 2396 01e9 03       		.uleb128 0x3
 2397 01ea 08       		.uleb128 0x8
 2398 01eb 3A       		.uleb128 0x3a
 2399 01ec 0B       		.uleb128 0xb
 2400 01ed 3B       		.uleb128 0x3b
 2401 01ee 05       		.uleb128 0x5
 2402 01ef 27       		.uleb128 0x27
 2403 01f0 19       		.uleb128 0x19
 2404 01f1 11       		.uleb128 0x11
 2405 01f2 01       		.uleb128 0x1
 2406 01f3 12       		.uleb128 0x12
 2407 01f4 06       		.uleb128 0x6
 2408 01f5 40       		.uleb128 0x40
 2409 01f6 18       		.uleb128 0x18
 2410 01f7 9642     		.uleb128 0x2116
 2411 01f9 19       		.uleb128 0x19
GAS LISTING C:\Users\PRESID~1\AppData\Local\Temp\ccLfwevT.s 			page 63


 2412 01fa 00       		.byte	0
 2413 01fb 00       		.byte	0
 2414 01fc 1F       		.uleb128 0x1f
 2415 01fd 01       		.uleb128 0x1
 2416 01fe 01       		.byte	0x1
 2417 01ff 49       		.uleb128 0x49
 2418 0200 13       		.uleb128 0x13
 2419 0201 01       		.uleb128 0x1
 2420 0202 13       		.uleb128 0x13
 2421 0203 00       		.byte	0
 2422 0204 00       		.byte	0
 2423 0205 20       		.uleb128 0x20
 2424 0206 21       		.uleb128 0x21
 2425 0207 00       		.byte	0
 2426 0208 49       		.uleb128 0x49
 2427 0209 13       		.uleb128 0x13
 2428 020a 2F       		.uleb128 0x2f
 2429 020b 0B       		.uleb128 0xb
 2430 020c 00       		.byte	0
 2431 020d 00       		.byte	0
 2432 020e 21       		.uleb128 0x21
 2433 020f 34       		.uleb128 0x34
 2434 0210 00       		.byte	0
 2435 0211 03       		.uleb128 0x3
 2436 0212 08       		.uleb128 0x8
 2437 0213 3A       		.uleb128 0x3a
 2438 0214 0B       		.uleb128 0xb
 2439 0215 3B       		.uleb128 0x3b
 2440 0216 0B       		.uleb128 0xb
 2441 0217 49       		.uleb128 0x49
 2442 0218 13       		.uleb128 0x13
 2443 0219 3F       		.uleb128 0x3f
 2444 021a 19       		.uleb128 0x19
 2445 021b 3C       		.uleb128 0x3c
 2446 021c 19       		.uleb128 0x19
 2447 021d 00       		.byte	0
 2448 021e 00       		.byte	0
 2449 021f 00       		.byte	0
 2450              		.section	.debug_aranges,"dr"
 2451 0000 1C000000 		.long	0x1c
 2452 0004 0200     		.word	0x2
 2453 0006 00000000 		.secrel32	Ldebug_info0
 2454 000a 04       		.byte	0x4
 2455 000b 00       		.byte	0
 2456 000c 0000     		.word	0
 2457 000e 0000     		.word	0
 2458 0010 00000000 		.long	Ltext0
 2459 0014 19080000 		.long	Letext0-Ltext0
 2460 0018 00000000 		.long	0
 2461 001c 00000000 		.long	0
 2462              		.section	.debug_macro,"dr"
 2463              	Ldebug_macro0:
 2464 0000 0400     		.word	0x4
 2465 0002 02       		.byte	0x2
 2466 0003 00000000 		.secrel32	Ldebug_line0
 2467 0007 01       		.byte	0x1
 2468 0008 00       		.uleb128 0
GAS LISTING C:\Users\PRESID~1\AppData\Local\Temp\ccLfwevT.s 			page 64


 2469 0009 5F5F5354 		.ascii "__STDC__ 1\0"
 2469      44435F5F 
 2469      203100
 2470 0014 01       		.byte	0x1
 2471 0015 00       		.uleb128 0
 2472 0016 5F5F5354 		.ascii "__STDC_HOSTED__ 1\0"
 2472      44435F48 
 2472      4F535445 
 2472      445F5F20 
 2472      3100
 2473 0028 01       		.byte	0x1
 2474 0029 00       		.uleb128 0
 2475 002a 5F5F474E 		.ascii "__GNUC__ 4\0"
 2475      55435F5F 
 2475      203400
 2476 0035 01       		.byte	0x1
 2477 0036 00       		.uleb128 0
 2478 0037 5F5F474E 		.ascii "__GNUC_MINOR__ 9\0"
 2478      55435F4D 
 2478      494E4F52 
 2478      5F5F2039 
 2478      00
 2479 0048 01       		.byte	0x1
 2480 0049 00       		.uleb128 0
 2481 004a 5F5F474E 		.ascii "__GNUC_PATCHLEVEL__ 3\0"
 2481      55435F50 
 2481      41544348 
 2481      4C455645 
 2481      4C5F5F20 
 2482 0060 01       		.byte	0x1
 2483 0061 00       		.uleb128 0
 2484 0062 5F5F5645 		.ascii "__VERSION__ \"4.9.3\"\0"
 2484      5253494F 
 2484      4E5F5F20 
 2484      22342E39 
 2484      2E332200 
 2485 0076 01       		.byte	0x1
 2486 0077 00       		.uleb128 0
 2487 0078 5F5F4154 		.ascii "__ATOMIC_RELAXED 0\0"
 2487      4F4D4943 
 2487      5F52454C 
 2487      41584544 
 2487      203000
 2488 008b 01       		.byte	0x1
 2489 008c 00       		.uleb128 0
 2490 008d 5F5F4154 		.ascii "__ATOMIC_SEQ_CST 5\0"
 2490      4F4D4943 
 2490      5F534551 
 2490      5F435354 
 2490      203500
 2491 00a0 01       		.byte	0x1
 2492 00a1 00       		.uleb128 0
 2493 00a2 5F5F4154 		.ascii "__ATOMIC_ACQUIRE 2\0"
 2493      4F4D4943 
 2493      5F414351 
 2493      55495245 
 2493      203200
GAS LISTING C:\Users\PRESID~1\AppData\Local\Temp\ccLfwevT.s 			page 65


 2494 00b5 01       		.byte	0x1
 2495 00b6 00       		.uleb128 0
 2496 00b7 5F5F4154 		.ascii "__ATOMIC_RELEASE 3\0"
 2496      4F4D4943 
 2496      5F52454C 
 2496      45415345 
 2496      203300
 2497 00ca 01       		.byte	0x1
 2498 00cb 00       		.uleb128 0
 2499 00cc 5F5F4154 		.ascii "__ATOMIC_ACQ_REL 4\0"
 2499      4F4D4943 
 2499      5F414351 
 2499      5F52454C 
 2499      203400
 2500 00df 01       		.byte	0x1
 2501 00e0 00       		.uleb128 0
 2502 00e1 5F5F4154 		.ascii "__ATOMIC_CONSUME 1\0"
 2502      4F4D4943 
 2502      5F434F4E 
 2502      53554D45 
 2502      203100
 2503 00f4 01       		.byte	0x1
 2504 00f5 00       		.uleb128 0
 2505 00f6 5F5F4649 		.ascii "__FINITE_MATH_ONLY__ 0\0"
 2505      4E495445 
 2505      5F4D4154 
 2505      485F4F4E 
 2505      4C595F5F 
 2506 010d 01       		.byte	0x1
 2507 010e 00       		.uleb128 0
 2508 010f 5F5F5349 		.ascii "__SIZEOF_INT__ 4\0"
 2508      5A454F46 
 2508      5F494E54 
 2508      5F5F2034 
 2508      00
 2509 0120 01       		.byte	0x1
 2510 0121 00       		.uleb128 0
 2511 0122 5F5F5349 		.ascii "__SIZEOF_LONG__ 4\0"
 2511      5A454F46 
 2511      5F4C4F4E 
 2511      475F5F20 
 2511      3400
 2512 0134 01       		.byte	0x1
 2513 0135 00       		.uleb128 0
 2514 0136 5F5F5349 		.ascii "__SIZEOF_LONG_LONG__ 8\0"
 2514      5A454F46 
 2514      5F4C4F4E 
 2514      475F4C4F 
 2514      4E475F5F 
 2515 014d 01       		.byte	0x1
 2516 014e 00       		.uleb128 0
 2517 014f 5F5F5349 		.ascii "__SIZEOF_SHORT__ 2\0"
 2517      5A454F46 
 2517      5F53484F 
 2517      52545F5F 
 2517      203200
 2518 0162 01       		.byte	0x1
GAS LISTING C:\Users\PRESID~1\AppData\Local\Temp\ccLfwevT.s 			page 66


 2519 0163 00       		.uleb128 0
 2520 0164 5F5F5349 		.ascii "__SIZEOF_FLOAT__ 4\0"
 2520      5A454F46 
 2520      5F464C4F 
 2520      41545F5F 
 2520      203400
 2521 0177 01       		.byte	0x1
 2522 0178 00       		.uleb128 0
 2523 0179 5F5F5349 		.ascii "__SIZEOF_DOUBLE__ 8\0"
 2523      5A454F46 
 2523      5F444F55 
 2523      424C455F 
 2523      5F203800 
 2524 018d 01       		.byte	0x1
 2525 018e 00       		.uleb128 0
 2526 018f 5F5F5349 		.ascii "__SIZEOF_LONG_DOUBLE__ 12\0"
 2526      5A454F46 
 2526      5F4C4F4E 
 2526      475F444F 
 2526      55424C45 
 2527 01a9 01       		.byte	0x1
 2528 01aa 00       		.uleb128 0
 2529 01ab 5F5F5349 		.ascii "__SIZEOF_SIZE_T__ 4\0"
 2529      5A454F46 
 2529      5F53495A 
 2529      455F545F 
 2529      5F203400 
 2530 01bf 01       		.byte	0x1
 2531 01c0 00       		.uleb128 0
 2532 01c1 5F5F4348 		.ascii "__CHAR_BIT__ 8\0"
 2532      41525F42 
 2532      49545F5F 
 2532      203800
 2533 01d0 01       		.byte	0x1
 2534 01d1 00       		.uleb128 0
 2535 01d2 5F5F4249 		.ascii "__BIGGEST_ALIGNMENT__ 16\0"
 2535      47474553 
 2535      545F414C 
 2535      49474E4D 
 2535      454E545F 
 2536 01eb 01       		.byte	0x1
 2537 01ec 00       		.uleb128 0
 2538 01ed 5F5F4F52 		.ascii "__ORDER_LITTLE_ENDIAN__ 1234\0"
 2538      4445525F 
 2538      4C495454 
 2538      4C455F45 
 2538      4E444941 
 2539 020a 01       		.byte	0x1
 2540 020b 00       		.uleb128 0
 2541 020c 5F5F4F52 		.ascii "__ORDER_BIG_ENDIAN__ 4321\0"
 2541      4445525F 
 2541      4249475F 
 2541      454E4449 
 2541      414E5F5F 
 2542 0226 01       		.byte	0x1
 2543 0227 00       		.uleb128 0
 2544 0228 5F5F4F52 		.ascii "__ORDER_PDP_ENDIAN__ 3412\0"
GAS LISTING C:\Users\PRESID~1\AppData\Local\Temp\ccLfwevT.s 			page 67


 2544      4445525F 
 2544      5044505F 
 2544      454E4449 
 2544      414E5F5F 
 2545 0242 01       		.byte	0x1
 2546 0243 00       		.uleb128 0
 2547 0244 5F5F4259 		.ascii "__BYTE_ORDER__ __ORDER_LITTLE_ENDIAN__\0"
 2547      54455F4F 
 2547      52444552 
 2547      5F5F205F 
 2547      5F4F5244 
 2548 026b 01       		.byte	0x1
 2549 026c 00       		.uleb128 0
 2550 026d 5F5F464C 		.ascii "__FLOAT_WORD_ORDER__ __ORDER_LITTLE_ENDIAN__\0"
 2550      4F41545F 
 2550      574F5244 
 2550      5F4F5244 
 2550      45525F5F 
 2551 029a 01       		.byte	0x1
 2552 029b 00       		.uleb128 0
 2553 029c 5F5F5349 		.ascii "__SIZEOF_POINTER__ 4\0"
 2553      5A454F46 
 2553      5F504F49 
 2553      4E544552 
 2553      5F5F2034 
 2554 02b1 01       		.byte	0x1
 2555 02b2 00       		.uleb128 0
 2556 02b3 5F5F5349 		.ascii "__SIZE_TYPE__ unsigned int\0"
 2556      5A455F54 
 2556      5950455F 
 2556      5F20756E 
 2556      7369676E 
 2557 02ce 01       		.byte	0x1
 2558 02cf 00       		.uleb128 0
 2559 02d0 5F5F5054 		.ascii "__PTRDIFF_TYPE__ int\0"
 2559      52444946 
 2559      465F5459 
 2559      50455F5F 
 2559      20696E74 
 2560 02e5 01       		.byte	0x1
 2561 02e6 00       		.uleb128 0
 2562 02e7 5F5F5743 		.ascii "__WCHAR_TYPE__ short unsigned int\0"
 2562      4841525F 
 2562      54595045 
 2562      5F5F2073 
 2562      686F7274 
 2563 0309 01       		.byte	0x1
 2564 030a 00       		.uleb128 0
 2565 030b 5F5F5749 		.ascii "__WINT_TYPE__ short unsigned int\0"
 2565      4E545F54 
 2565      5950455F 
 2565      5F207368 
 2565      6F727420 
 2566 032c 01       		.byte	0x1
 2567 032d 00       		.uleb128 0
 2568 032e 5F5F494E 		.ascii "__INTMAX_TYPE__ long long int\0"
 2568      544D4158 
GAS LISTING C:\Users\PRESID~1\AppData\Local\Temp\ccLfwevT.s 			page 68


 2568      5F545950 
 2568      455F5F20 
 2568      6C6F6E67 
 2569 034c 01       		.byte	0x1
 2570 034d 00       		.uleb128 0
 2571 034e 5F5F5549 		.ascii "__UINTMAX_TYPE__ long long unsigned int\0"
 2571      4E544D41 
 2571      585F5459 
 2571      50455F5F 
 2571      206C6F6E 
 2572 0376 01       		.byte	0x1
 2573 0377 00       		.uleb128 0
 2574 0378 5F5F4348 		.ascii "__CHAR16_TYPE__ short unsigned int\0"
 2574      41523136 
 2574      5F545950 
 2574      455F5F20 
 2574      73686F72 
 2575 039b 01       		.byte	0x1
 2576 039c 00       		.uleb128 0
 2577 039d 5F5F4348 		.ascii "__CHAR32_TYPE__ unsigned int\0"
 2577      41523332 
 2577      5F545950 
 2577      455F5F20 
 2577      756E7369 
 2578 03ba 01       		.byte	0x1
 2579 03bb 00       		.uleb128 0
 2580 03bc 5F5F5349 		.ascii "__SIG_ATOMIC_TYPE__ int\0"
 2580      475F4154 
 2580      4F4D4943 
 2580      5F545950 
 2580      455F5F20 
 2581 03d4 01       		.byte	0x1
 2582 03d5 00       		.uleb128 0
 2583 03d6 5F5F494E 		.ascii "__INT8_TYPE__ signed char\0"
 2583      54385F54 
 2583      5950455F 
 2583      5F207369 
 2583      676E6564 
 2584 03f0 01       		.byte	0x1
 2585 03f1 00       		.uleb128 0
 2586 03f2 5F5F494E 		.ascii "__INT16_TYPE__ short int\0"
 2586      5431365F 
 2586      54595045 
 2586      5F5F2073 
 2586      686F7274 
 2587 040b 01       		.byte	0x1
 2588 040c 00       		.uleb128 0
 2589 040d 5F5F494E 		.ascii "__INT32_TYPE__ int\0"
 2589      5433325F 
 2589      54595045 
 2589      5F5F2069 
 2589      6E7400
 2590 0420 01       		.byte	0x1
 2591 0421 00       		.uleb128 0
 2592 0422 5F5F494E 		.ascii "__INT64_TYPE__ long long int\0"
 2592      5436345F 
 2592      54595045 
GAS LISTING C:\Users\PRESID~1\AppData\Local\Temp\ccLfwevT.s 			page 69


 2592      5F5F206C 
 2592      6F6E6720 
 2593 043f 01       		.byte	0x1
 2594 0440 00       		.uleb128 0
 2595 0441 5F5F5549 		.ascii "__UINT8_TYPE__ unsigned char\0"
 2595      4E54385F 
 2595      54595045 
 2595      5F5F2075 
 2595      6E736967 
 2596 045e 01       		.byte	0x1
 2597 045f 00       		.uleb128 0
 2598 0460 5F5F5549 		.ascii "__UINT16_TYPE__ short unsigned int\0"
 2598      4E543136 
 2598      5F545950 
 2598      455F5F20 
 2598      73686F72 
 2599 0483 01       		.byte	0x1
 2600 0484 00       		.uleb128 0
 2601 0485 5F5F5549 		.ascii "__UINT32_TYPE__ unsigned int\0"
 2601      4E543332 
 2601      5F545950 
 2601      455F5F20 
 2601      756E7369 
 2602 04a2 01       		.byte	0x1
 2603 04a3 00       		.uleb128 0
 2604 04a4 5F5F5549 		.ascii "__UINT64_TYPE__ long long unsigned int\0"
 2604      4E543634 
 2604      5F545950 
 2604      455F5F20 
 2604      6C6F6E67 
 2605 04cb 01       		.byte	0x1
 2606 04cc 00       		.uleb128 0
 2607 04cd 5F5F494E 		.ascii "__INT_LEAST8_TYPE__ signed char\0"
 2607      545F4C45 
 2607      41535438 
 2607      5F545950 
 2607      455F5F20 
 2608 04ed 01       		.byte	0x1
 2609 04ee 00       		.uleb128 0
 2610 04ef 5F5F494E 		.ascii "__INT_LEAST16_TYPE__ short int\0"
 2610      545F4C45 
 2610      41535431 
 2610      365F5459 
 2610      50455F5F 
 2611 050e 01       		.byte	0x1
 2612 050f 00       		.uleb128 0
 2613 0510 5F5F494E 		.ascii "__INT_LEAST32_TYPE__ int\0"
 2613      545F4C45 
 2613      41535433 
 2613      325F5459 
 2613      50455F5F 
 2614 0529 01       		.byte	0x1
 2615 052a 00       		.uleb128 0
 2616 052b 5F5F494E 		.ascii "__INT_LEAST64_TYPE__ long long int\0"
 2616      545F4C45 
 2616      41535436 
 2616      345F5459 
GAS LISTING C:\Users\PRESID~1\AppData\Local\Temp\ccLfwevT.s 			page 70


 2616      50455F5F 
 2617 054e 01       		.byte	0x1
 2618 054f 00       		.uleb128 0
 2619 0550 5F5F5549 		.ascii "__UINT_LEAST8_TYPE__ unsigned char\0"
 2619      4E545F4C 
 2619      45415354 
 2619      385F5459 
 2619      50455F5F 
 2620 0573 01       		.byte	0x1
 2621 0574 00       		.uleb128 0
 2622 0575 5F5F5549 		.ascii "__UINT_LEAST16_TYPE__ short unsigned int\0"
 2622      4E545F4C 
 2622      45415354 
 2622      31365F54 
 2622      5950455F 
 2623 059e 01       		.byte	0x1
 2624 059f 00       		.uleb128 0
 2625 05a0 5F5F5549 		.ascii "__UINT_LEAST32_TYPE__ unsigned int\0"
 2625      4E545F4C 
 2625      45415354 
 2625      33325F54 
 2625      5950455F 
 2626 05c3 01       		.byte	0x1
 2627 05c4 00       		.uleb128 0
 2628 05c5 5F5F5549 		.ascii "__UINT_LEAST64_TYPE__ long long unsigned int\0"
 2628      4E545F4C 
 2628      45415354 
 2628      36345F54 
 2628      5950455F 
 2629 05f2 01       		.byte	0x1
 2630 05f3 00       		.uleb128 0
 2631 05f4 5F5F494E 		.ascii "__INT_FAST8_TYPE__ signed char\0"
 2631      545F4641 
 2631      5354385F 
 2631      54595045 
 2631      5F5F2073 
 2632 0613 01       		.byte	0x1
 2633 0614 00       		.uleb128 0
 2634 0615 5F5F494E 		.ascii "__INT_FAST16_TYPE__ short int\0"
 2634      545F4641 
 2634      53543136 
 2634      5F545950 
 2634      455F5F20 
 2635 0633 01       		.byte	0x1
 2636 0634 00       		.uleb128 0
 2637 0635 5F5F494E 		.ascii "__INT_FAST32_TYPE__ int\0"
 2637      545F4641 
 2637      53543332 
 2637      5F545950 
 2637      455F5F20 
 2638 064d 01       		.byte	0x1
 2639 064e 00       		.uleb128 0
 2640 064f 5F5F494E 		.ascii "__INT_FAST64_TYPE__ long long int\0"
 2640      545F4641 
 2640      53543634 
 2640      5F545950 
 2640      455F5F20 
GAS LISTING C:\Users\PRESID~1\AppData\Local\Temp\ccLfwevT.s 			page 71


 2641 0671 01       		.byte	0x1
 2642 0672 00       		.uleb128 0
 2643 0673 5F5F5549 		.ascii "__UINT_FAST8_TYPE__ unsigned char\0"
 2643      4E545F46 
 2643      41535438 
 2643      5F545950 
 2643      455F5F20 
 2644 0695 01       		.byte	0x1
 2645 0696 00       		.uleb128 0
 2646 0697 5F5F5549 		.ascii "__UINT_FAST16_TYPE__ short unsigned int\0"
 2646      4E545F46 
 2646      41535431 
 2646      365F5459 
 2646      50455F5F 
 2647 06bf 01       		.byte	0x1
 2648 06c0 00       		.uleb128 0
 2649 06c1 5F5F5549 		.ascii "__UINT_FAST32_TYPE__ unsigned int\0"
 2649      4E545F46 
 2649      41535433 
 2649      325F5459 
 2649      50455F5F 
 2650 06e3 01       		.byte	0x1
 2651 06e4 00       		.uleb128 0
 2652 06e5 5F5F5549 		.ascii "__UINT_FAST64_TYPE__ long long unsigned int\0"
 2652      4E545F46 
 2652      41535436 
 2652      345F5459 
 2652      50455F5F 
 2653 0711 01       		.byte	0x1
 2654 0712 00       		.uleb128 0
 2655 0713 5F5F494E 		.ascii "__INTPTR_TYPE__ int\0"
 2655      54505452 
 2655      5F545950 
 2655      455F5F20 
 2655      696E7400 
 2656 0727 01       		.byte	0x1
 2657 0728 00       		.uleb128 0
 2658 0729 5F5F5549 		.ascii "__UINTPTR_TYPE__ unsigned int\0"
 2658      4E545054 
 2658      525F5459 
 2658      50455F5F 
 2658      20756E73 
 2659 0747 01       		.byte	0x1
 2660 0748 00       		.uleb128 0
 2661 0749 5F5F6861 		.ascii "__has_include(STR) __has_include__(STR)\0"
 2661      735F696E 
 2661      636C7564 
 2661      65285354 
 2661      5229205F 
 2662 0771 01       		.byte	0x1
 2663 0772 00       		.uleb128 0
 2664 0773 5F5F6861 		.ascii "__has_include_next(STR) __has_include_next__(STR)\0"
 2664      735F696E 
 2664      636C7564 
 2664      655F6E65 
 2664      78742853 
 2665 07a5 01       		.byte	0x1
GAS LISTING C:\Users\PRESID~1\AppData\Local\Temp\ccLfwevT.s 			page 72


 2666 07a6 00       		.uleb128 0
 2667 07a7 5F5F4758 		.ascii "__GXX_ABI_VERSION 1002\0"
 2667      585F4142 
 2667      495F5645 
 2667      5253494F 
 2667      4E203130 
 2668 07be 01       		.byte	0x1
 2669 07bf 00       		.uleb128 0
 2670 07c0 5F5F5343 		.ascii "__SCHAR_MAX__ 127\0"
 2670      4841525F 
 2670      4D41585F 
 2670      5F203132 
 2670      3700
 2671 07d2 01       		.byte	0x1
 2672 07d3 00       		.uleb128 0
 2673 07d4 5F5F5348 		.ascii "__SHRT_MAX__ 32767\0"
 2673      52545F4D 
 2673      41585F5F 
 2673      20333237 
 2673      363700
 2674 07e7 01       		.byte	0x1
 2675 07e8 00       		.uleb128 0
 2676 07e9 5F5F494E 		.ascii "__INT_MAX__ 2147483647\0"
 2676      545F4D41 
 2676      585F5F20 
 2676      32313437 
 2676      34383336 
 2677 0800 01       		.byte	0x1
 2678 0801 00       		.uleb128 0
 2679 0802 5F5F4C4F 		.ascii "__LONG_MAX__ 2147483647L\0"
 2679      4E475F4D 
 2679      41585F5F 
 2679      20323134 
 2679      37343833 
 2680 081b 01       		.byte	0x1
 2681 081c 00       		.uleb128 0
 2682 081d 5F5F4C4F 		.ascii "__LONG_LONG_MAX__ 9223372036854775807LL\0"
 2682      4E475F4C 
 2682      4F4E475F 
 2682      4D41585F 
 2682      5F203932 
 2683 0845 01       		.byte	0x1
 2684 0846 00       		.uleb128 0
 2685 0847 5F5F5743 		.ascii "__WCHAR_MAX__ 65535\0"
 2685      4841525F 
 2685      4D41585F 
 2685      5F203635 
 2685      35333500 
 2686 085b 01       		.byte	0x1
 2687 085c 00       		.uleb128 0
 2688 085d 5F5F5743 		.ascii "__WCHAR_MIN__ 0\0"
 2688      4841525F 
 2688      4D494E5F 
 2688      5F203000 
 2689 086d 01       		.byte	0x1
 2690 086e 00       		.uleb128 0
 2691 086f 5F5F5749 		.ascii "__WINT_MAX__ 65535\0"
GAS LISTING C:\Users\PRESID~1\AppData\Local\Temp\ccLfwevT.s 			page 73


 2691      4E545F4D 
 2691      41585F5F 
 2691      20363535 
 2691      333500
 2692 0882 01       		.byte	0x1
 2693 0883 00       		.uleb128 0
 2694 0884 5F5F5749 		.ascii "__WINT_MIN__ 0\0"
 2694      4E545F4D 
 2694      494E5F5F 
 2694      203000
 2695 0893 01       		.byte	0x1
 2696 0894 00       		.uleb128 0
 2697 0895 5F5F5054 		.ascii "__PTRDIFF_MAX__ 2147483647\0"
 2697      52444946 
 2697      465F4D41 
 2697      585F5F20 
 2697      32313437 
 2698 08b0 01       		.byte	0x1
 2699 08b1 00       		.uleb128 0
 2700 08b2 5F5F5349 		.ascii "__SIZE_MAX__ 4294967295U\0"
 2700      5A455F4D 
 2700      41585F5F 
 2700      20343239 
 2700      34393637 
 2701 08cb 01       		.byte	0x1
 2702 08cc 00       		.uleb128 0
 2703 08cd 5F5F494E 		.ascii "__INTMAX_MAX__ 9223372036854775807LL\0"
 2703      544D4158 
 2703      5F4D4158 
 2703      5F5F2039 
 2703      32323333 
 2704 08f2 01       		.byte	0x1
 2705 08f3 00       		.uleb128 0
 2706 08f4 5F5F494E 		.ascii "__INTMAX_C(c) c ## LL\0"
 2706      544D4158 
 2706      5F432863 
 2706      29206320 
 2706      2323204C 
 2707 090a 01       		.byte	0x1
 2708 090b 00       		.uleb128 0
 2709 090c 5F5F5549 		.ascii "__UINTMAX_MAX__ 18446744073709551615ULL\0"
 2709      4E544D41 
 2709      585F4D41 
 2709      585F5F20 
 2709      31383434 
 2710 0934 01       		.byte	0x1
 2711 0935 00       		.uleb128 0
 2712 0936 5F5F5549 		.ascii "__UINTMAX_C(c) c ## ULL\0"
 2712      4E544D41 
 2712      585F4328 
 2712      63292063 
 2712      20232320 
 2713 094e 01       		.byte	0x1
 2714 094f 00       		.uleb128 0
 2715 0950 5F5F5349 		.ascii "__SIG_ATOMIC_MAX__ 2147483647\0"
 2715      475F4154 
 2715      4F4D4943 
GAS LISTING C:\Users\PRESID~1\AppData\Local\Temp\ccLfwevT.s 			page 74


 2715      5F4D4158 
 2715      5F5F2032 
 2716 096e 01       		.byte	0x1
 2717 096f 00       		.uleb128 0
 2718 0970 5F5F5349 		.ascii "__SIG_ATOMIC_MIN__ (-__SIG_ATOMIC_MAX__ - 1)\0"
 2718      475F4154 
 2718      4F4D4943 
 2718      5F4D494E 
 2718      5F5F2028 
 2719 099d 01       		.byte	0x1
 2720 099e 00       		.uleb128 0
 2721 099f 5F5F494E 		.ascii "__INT8_MAX__ 127\0"
 2721      54385F4D 
 2721      41585F5F 
 2721      20313237 
 2721      00
 2722 09b0 01       		.byte	0x1
 2723 09b1 00       		.uleb128 0
 2724 09b2 5F5F494E 		.ascii "__INT16_MAX__ 32767\0"
 2724      5431365F 
 2724      4D41585F 
 2724      5F203332 
 2724      37363700 
 2725 09c6 01       		.byte	0x1
 2726 09c7 00       		.uleb128 0
 2727 09c8 5F5F494E 		.ascii "__INT32_MAX__ 2147483647\0"
 2727      5433325F 
 2727      4D41585F 
 2727      5F203231 
 2727      34373438 
 2728 09e1 01       		.byte	0x1
 2729 09e2 00       		.uleb128 0
 2730 09e3 5F5F494E 		.ascii "__INT64_MAX__ 9223372036854775807LL\0"
 2730      5436345F 
 2730      4D41585F 
 2730      5F203932 
 2730      32333337 
 2731 0a07 01       		.byte	0x1
 2732 0a08 00       		.uleb128 0
 2733 0a09 5F5F5549 		.ascii "__UINT8_MAX__ 255\0"
 2733      4E54385F 
 2733      4D41585F 
 2733      5F203235 
 2733      3500
 2734 0a1b 01       		.byte	0x1
 2735 0a1c 00       		.uleb128 0
 2736 0a1d 5F5F5549 		.ascii "__UINT16_MAX__ 65535\0"
 2736      4E543136 
 2736      5F4D4158 
 2736      5F5F2036 
 2736      35353335 
 2737 0a32 01       		.byte	0x1
 2738 0a33 00       		.uleb128 0
 2739 0a34 5F5F5549 		.ascii "__UINT32_MAX__ 4294967295U\0"
 2739      4E543332 
 2739      5F4D4158 
 2739      5F5F2034 
GAS LISTING C:\Users\PRESID~1\AppData\Local\Temp\ccLfwevT.s 			page 75


 2739      32393439 
 2740 0a4f 01       		.byte	0x1
 2741 0a50 00       		.uleb128 0
 2742 0a51 5F5F5549 		.ascii "__UINT64_MAX__ 18446744073709551615ULL\0"
 2742      4E543634 
 2742      5F4D4158 
 2742      5F5F2031 
 2742      38343436 
 2743 0a78 01       		.byte	0x1
 2744 0a79 00       		.uleb128 0
 2745 0a7a 5F5F494E 		.ascii "__INT_LEAST8_MAX__ 127\0"
 2745      545F4C45 
 2745      41535438 
 2745      5F4D4158 
 2745      5F5F2031 
 2746 0a91 01       		.byte	0x1
 2747 0a92 00       		.uleb128 0
 2748 0a93 5F5F494E 		.ascii "__INT8_C(c) c\0"
 2748      54385F43 
 2748      28632920 
 2748      6300
 2749 0aa1 01       		.byte	0x1
 2750 0aa2 00       		.uleb128 0
 2751 0aa3 5F5F494E 		.ascii "__INT_LEAST16_MAX__ 32767\0"
 2751      545F4C45 
 2751      41535431 
 2751      365F4D41 
 2751      585F5F20 
 2752 0abd 01       		.byte	0x1
 2753 0abe 00       		.uleb128 0
 2754 0abf 5F5F494E 		.ascii "__INT16_C(c) c\0"
 2754      5431365F 
 2754      43286329 
 2754      206300
 2755 0ace 01       		.byte	0x1
 2756 0acf 00       		.uleb128 0
 2757 0ad0 5F5F494E 		.ascii "__INT_LEAST32_MAX__ 2147483647\0"
 2757      545F4C45 
 2757      41535433 
 2757      325F4D41 
 2757      585F5F20 
 2758 0aef 01       		.byte	0x1
 2759 0af0 00       		.uleb128 0
 2760 0af1 5F5F494E 		.ascii "__INT32_C(c) c\0"
 2760      5433325F 
 2760      43286329 
 2760      206300
 2761 0b00 01       		.byte	0x1
 2762 0b01 00       		.uleb128 0
 2763 0b02 5F5F494E 		.ascii "__INT_LEAST64_MAX__ 9223372036854775807LL\0"
 2763      545F4C45 
 2763      41535436 
 2763      345F4D41 
 2763      585F5F20 
 2764 0b2c 01       		.byte	0x1
 2765 0b2d 00       		.uleb128 0
 2766 0b2e 5F5F494E 		.ascii "__INT64_C(c) c ## LL\0"
GAS LISTING C:\Users\PRESID~1\AppData\Local\Temp\ccLfwevT.s 			page 76


 2766      5436345F 
 2766      43286329 
 2766      20632023 
 2766      23204C4C 
 2767 0b43 01       		.byte	0x1
 2768 0b44 00       		.uleb128 0
 2769 0b45 5F5F5549 		.ascii "__UINT_LEAST8_MAX__ 255\0"
 2769      4E545F4C 
 2769      45415354 
 2769      385F4D41 
 2769      585F5F20 
 2770 0b5d 01       		.byte	0x1
 2771 0b5e 00       		.uleb128 0
 2772 0b5f 5F5F5549 		.ascii "__UINT8_C(c) c\0"
 2772      4E54385F 
 2772      43286329 
 2772      206300
 2773 0b6e 01       		.byte	0x1
 2774 0b6f 00       		.uleb128 0
 2775 0b70 5F5F5549 		.ascii "__UINT_LEAST16_MAX__ 65535\0"
 2775      4E545F4C 
 2775      45415354 
 2775      31365F4D 
 2775      41585F5F 
 2776 0b8b 01       		.byte	0x1
 2777 0b8c 00       		.uleb128 0
 2778 0b8d 5F5F5549 		.ascii "__UINT16_C(c) c\0"
 2778      4E543136 
 2778      5F432863 
 2778      29206300 
 2779 0b9d 01       		.byte	0x1
 2780 0b9e 00       		.uleb128 0
 2781 0b9f 5F5F5549 		.ascii "__UINT_LEAST32_MAX__ 4294967295U\0"
 2781      4E545F4C 
 2781      45415354 
 2781      33325F4D 
 2781      41585F5F 
 2782 0bc0 01       		.byte	0x1
 2783 0bc1 00       		.uleb128 0
 2784 0bc2 5F5F5549 		.ascii "__UINT32_C(c) c ## U\0"
 2784      4E543332 
 2784      5F432863 
 2784      29206320 
 2784      23232055 
 2785 0bd7 01       		.byte	0x1
 2786 0bd8 00       		.uleb128 0
 2787 0bd9 5F5F5549 		.ascii "__UINT_LEAST64_MAX__ 18446744073709551615ULL\0"
 2787      4E545F4C 
 2787      45415354 
 2787      36345F4D 
 2787      41585F5F 
 2788 0c06 01       		.byte	0x1
 2789 0c07 00       		.uleb128 0
 2790 0c08 5F5F5549 		.ascii "__UINT64_C(c) c ## ULL\0"
 2790      4E543634 
 2790      5F432863 
 2790      29206320 
GAS LISTING C:\Users\PRESID~1\AppData\Local\Temp\ccLfwevT.s 			page 77


 2790      23232055 
 2791 0c1f 01       		.byte	0x1
 2792 0c20 00       		.uleb128 0
 2793 0c21 5F5F494E 		.ascii "__INT_FAST8_MAX__ 127\0"
 2793      545F4641 
 2793      5354385F 
 2793      4D41585F 
 2793      5F203132 
 2794 0c37 01       		.byte	0x1
 2795 0c38 00       		.uleb128 0
 2796 0c39 5F5F494E 		.ascii "__INT_FAST16_MAX__ 32767\0"
 2796      545F4641 
 2796      53543136 
 2796      5F4D4158 
 2796      5F5F2033 
 2797 0c52 01       		.byte	0x1
 2798 0c53 00       		.uleb128 0
 2799 0c54 5F5F494E 		.ascii "__INT_FAST32_MAX__ 2147483647\0"
 2799      545F4641 
 2799      53543332 
 2799      5F4D4158 
 2799      5F5F2032 
 2800 0c72 01       		.byte	0x1
 2801 0c73 00       		.uleb128 0
 2802 0c74 5F5F494E 		.ascii "__INT_FAST64_MAX__ 9223372036854775807LL\0"
 2802      545F4641 
 2802      53543634 
 2802      5F4D4158 
 2802      5F5F2039 
 2803 0c9d 01       		.byte	0x1
 2804 0c9e 00       		.uleb128 0
 2805 0c9f 5F5F5549 		.ascii "__UINT_FAST8_MAX__ 255\0"
 2805      4E545F46 
 2805      41535438 
 2805      5F4D4158 
 2805      5F5F2032 
 2806 0cb6 01       		.byte	0x1
 2807 0cb7 00       		.uleb128 0
 2808 0cb8 5F5F5549 		.ascii "__UINT_FAST16_MAX__ 65535\0"
 2808      4E545F46 
 2808      41535431 
 2808      365F4D41 
 2808      585F5F20 
 2809 0cd2 01       		.byte	0x1
 2810 0cd3 00       		.uleb128 0
 2811 0cd4 5F5F5549 		.ascii "__UINT_FAST32_MAX__ 4294967295U\0"
 2811      4E545F46 
 2811      41535433 
 2811      325F4D41 
 2811      585F5F20 
 2812 0cf4 01       		.byte	0x1
 2813 0cf5 00       		.uleb128 0
 2814 0cf6 5F5F5549 		.ascii "__UINT_FAST64_MAX__ 18446744073709551615ULL\0"
 2814      4E545F46 
 2814      41535436 
 2814      345F4D41 
 2814      585F5F20 
GAS LISTING C:\Users\PRESID~1\AppData\Local\Temp\ccLfwevT.s 			page 78


 2815 0d22 01       		.byte	0x1
 2816 0d23 00       		.uleb128 0
 2817 0d24 5F5F494E 		.ascii "__INTPTR_MAX__ 2147483647\0"
 2817      54505452 
 2817      5F4D4158 
 2817      5F5F2032 
 2817      31343734 
 2818 0d3e 01       		.byte	0x1
 2819 0d3f 00       		.uleb128 0
 2820 0d40 5F5F5549 		.ascii "__UINTPTR_MAX__ 4294967295U\0"
 2820      4E545054 
 2820      525F4D41 
 2820      585F5F20 
 2820      34323934 
 2821 0d5c 01       		.byte	0x1
 2822 0d5d 00       		.uleb128 0
 2823 0d5e 5F5F4743 		.ascii "__GCC_IEC_559 2\0"
 2823      435F4945 
 2823      435F3535 
 2823      39203200 
 2824 0d6e 01       		.byte	0x1
 2825 0d6f 00       		.uleb128 0
 2826 0d70 5F5F4743 		.ascii "__GCC_IEC_559_COMPLEX 2\0"
 2826      435F4945 
 2826      435F3535 
 2826      395F434F 
 2826      4D504C45 
 2827 0d88 01       		.byte	0x1
 2828 0d89 00       		.uleb128 0
 2829 0d8a 5F5F464C 		.ascii "__FLT_EVAL_METHOD__ 2\0"
 2829      545F4556 
 2829      414C5F4D 
 2829      4554484F 
 2829      445F5F20 
 2830 0da0 01       		.byte	0x1
 2831 0da1 00       		.uleb128 0
 2832 0da2 5F5F4445 		.ascii "__DEC_EVAL_METHOD__ 2\0"
 2832      435F4556 
 2832      414C5F4D 
 2832      4554484F 
 2832      445F5F20 
 2833 0db8 01       		.byte	0x1
 2834 0db9 00       		.uleb128 0
 2835 0dba 5F5F464C 		.ascii "__FLT_RADIX__ 2\0"
 2835      545F5241 
 2835      4449585F 
 2835      5F203200 
 2836 0dca 01       		.byte	0x1
 2837 0dcb 00       		.uleb128 0
 2838 0dcc 5F5F464C 		.ascii "__FLT_MANT_DIG__ 24\0"
 2838      545F4D41 
 2838      4E545F44 
 2838      49475F5F 
 2838      20323400 
 2839 0de0 01       		.byte	0x1
 2840 0de1 00       		.uleb128 0
 2841 0de2 5F5F464C 		.ascii "__FLT_DIG__ 6\0"
GAS LISTING C:\Users\PRESID~1\AppData\Local\Temp\ccLfwevT.s 			page 79


 2841      545F4449 
 2841      475F5F20 
 2841      3600
 2842 0df0 01       		.byte	0x1
 2843 0df1 00       		.uleb128 0
 2844 0df2 5F5F464C 		.ascii "__FLT_MIN_EXP__ (-125)\0"
 2844      545F4D49 
 2844      4E5F4558 
 2844      505F5F20 
 2844      282D3132 
 2845 0e09 01       		.byte	0x1
 2846 0e0a 00       		.uleb128 0
 2847 0e0b 5F5F464C 		.ascii "__FLT_MIN_10_EXP__ (-37)\0"
 2847      545F4D49 
 2847      4E5F3130 
 2847      5F455850 
 2847      5F5F2028 
 2848 0e24 01       		.byte	0x1
 2849 0e25 00       		.uleb128 0
 2850 0e26 5F5F464C 		.ascii "__FLT_MAX_EXP__ 128\0"
 2850      545F4D41 
 2850      585F4558 
 2850      505F5F20 
 2850      31323800 
 2851 0e3a 01       		.byte	0x1
 2852 0e3b 00       		.uleb128 0
 2853 0e3c 5F5F464C 		.ascii "__FLT_MAX_10_EXP__ 38\0"
 2853      545F4D41 
 2853      585F3130 
 2853      5F455850 
 2853      5F5F2033 
 2854 0e52 01       		.byte	0x1
 2855 0e53 00       		.uleb128 0
 2856 0e54 5F5F464C 		.ascii "__FLT_DECIMAL_DIG__ 9\0"
 2856      545F4445 
 2856      43494D41 
 2856      4C5F4449 
 2856      475F5F20 
 2857 0e6a 01       		.byte	0x1
 2858 0e6b 00       		.uleb128 0
 2859 0e6c 5F5F464C 		.ascii "__FLT_MAX__ 3.40282346638528859812e+38F\0"
 2859      545F4D41 
 2859      585F5F20 
 2859      332E3430 
 2859      32383233 
 2860 0e94 01       		.byte	0x1
 2861 0e95 00       		.uleb128 0
 2862 0e96 5F5F464C 		.ascii "__FLT_MIN__ 1.17549435082228750797e-38F\0"
 2862      545F4D49 
 2862      4E5F5F20 
 2862      312E3137 
 2862      35343934 
 2863 0ebe 01       		.byte	0x1
 2864 0ebf 00       		.uleb128 0
 2865 0ec0 5F5F464C 		.ascii "__FLT_EPSILON__ 1.19209289550781250000e-7F\0"
 2865      545F4550 
 2865      53494C4F 
GAS LISTING C:\Users\PRESID~1\AppData\Local\Temp\ccLfwevT.s 			page 80


 2865      4E5F5F20 
 2865      312E3139 
 2866 0eeb 01       		.byte	0x1
 2867 0eec 00       		.uleb128 0
 2868 0eed 5F5F464C 		.ascii "__FLT_DENORM_MIN__ 1.40129846432481707092e-45F\0"
 2868      545F4445 
 2868      4E4F524D 
 2868      5F4D494E 
 2868      5F5F2031 
 2869 0f1c 01       		.byte	0x1
 2870 0f1d 00       		.uleb128 0
 2871 0f1e 5F5F464C 		.ascii "__FLT_HAS_DENORM__ 1\0"
 2871      545F4841 
 2871      535F4445 
 2871      4E4F524D 
 2871      5F5F2031 
 2872 0f33 01       		.byte	0x1
 2873 0f34 00       		.uleb128 0
 2874 0f35 5F5F464C 		.ascii "__FLT_HAS_INFINITY__ 1\0"
 2874      545F4841 
 2874      535F494E 
 2874      46494E49 
 2874      54595F5F 
 2875 0f4c 01       		.byte	0x1
 2876 0f4d 00       		.uleb128 0
 2877 0f4e 5F5F464C 		.ascii "__FLT_HAS_QUIET_NAN__ 1\0"
 2877      545F4841 
 2877      535F5155 
 2877      4945545F 
 2877      4E414E5F 
 2878 0f66 01       		.byte	0x1
 2879 0f67 00       		.uleb128 0
 2880 0f68 5F5F4442 		.ascii "__DBL_MANT_DIG__ 53\0"
 2880      4C5F4D41 
 2880      4E545F44 
 2880      49475F5F 
 2880      20353300 
 2881 0f7c 01       		.byte	0x1
 2882 0f7d 00       		.uleb128 0
 2883 0f7e 5F5F4442 		.ascii "__DBL_DIG__ 15\0"
 2883      4C5F4449 
 2883      475F5F20 
 2883      313500
 2884 0f8d 01       		.byte	0x1
 2885 0f8e 00       		.uleb128 0
 2886 0f8f 5F5F4442 		.ascii "__DBL_MIN_EXP__ (-1021)\0"
 2886      4C5F4D49 
 2886      4E5F4558 
 2886      505F5F20 
 2886      282D3130 
 2887 0fa7 01       		.byte	0x1
 2888 0fa8 00       		.uleb128 0
 2889 0fa9 5F5F4442 		.ascii "__DBL_MIN_10_EXP__ (-307)\0"
 2889      4C5F4D49 
 2889      4E5F3130 
 2889      5F455850 
 2889      5F5F2028 
GAS LISTING C:\Users\PRESID~1\AppData\Local\Temp\ccLfwevT.s 			page 81


 2890 0fc3 01       		.byte	0x1
 2891 0fc4 00       		.uleb128 0
 2892 0fc5 5F5F4442 		.ascii "__DBL_MAX_EXP__ 1024\0"
 2892      4C5F4D41 
 2892      585F4558 
 2892      505F5F20 
 2892      31303234 
 2893 0fda 01       		.byte	0x1
 2894 0fdb 00       		.uleb128 0
 2895 0fdc 5F5F4442 		.ascii "__DBL_MAX_10_EXP__ 308\0"
 2895      4C5F4D41 
 2895      585F3130 
 2895      5F455850 
 2895      5F5F2033 
 2896 0ff3 01       		.byte	0x1
 2897 0ff4 00       		.uleb128 0
 2898 0ff5 5F5F4442 		.ascii "__DBL_DECIMAL_DIG__ 17\0"
 2898      4C5F4445 
 2898      43494D41 
 2898      4C5F4449 
 2898      475F5F20 
 2899 100c 01       		.byte	0x1
 2900 100d 00       		.uleb128 0
 2901 100e 5F5F4442 		.ascii "__DBL_MAX__ ((double)1.79769313486231570815e+308L)\0"
 2901      4C5F4D41 
 2901      585F5F20 
 2901      2828646F 
 2901      75626C65 
 2902 1041 01       		.byte	0x1
 2903 1042 00       		.uleb128 0
 2904 1043 5F5F4442 		.ascii "__DBL_MIN__ ((double)2.22507385850720138309e-308L)\0"
 2904      4C5F4D49 
 2904      4E5F5F20 
 2904      2828646F 
 2904      75626C65 
 2905 1076 01       		.byte	0x1
 2906 1077 00       		.uleb128 0
 2907 1078 5F5F4442 		.ascii "__DBL_EPSILON__ ((double)2.22044604925031308085e-16L)\0"
 2907      4C5F4550 
 2907      53494C4F 
 2907      4E5F5F20 
 2907      2828646F 
 2908 10ae 01       		.byte	0x1
 2909 10af 00       		.uleb128 0
 2910 10b0 5F5F4442 		.ascii "__DBL_DENORM_MIN__ ((double)4.94065645841246544177e-324L)\0"
 2910      4C5F4445 
 2910      4E4F524D 
 2910      5F4D494E 
 2910      5F5F2028 
 2911 10ea 01       		.byte	0x1
 2912 10eb 00       		.uleb128 0
 2913 10ec 5F5F4442 		.ascii "__DBL_HAS_DENORM__ 1\0"
 2913      4C5F4841 
 2913      535F4445 
 2913      4E4F524D 
 2913      5F5F2031 
 2914 1101 01       		.byte	0x1
GAS LISTING C:\Users\PRESID~1\AppData\Local\Temp\ccLfwevT.s 			page 82


 2915 1102 00       		.uleb128 0
 2916 1103 5F5F4442 		.ascii "__DBL_HAS_INFINITY__ 1\0"
 2916      4C5F4841 
 2916      535F494E 
 2916      46494E49 
 2916      54595F5F 
 2917 111a 01       		.byte	0x1
 2918 111b 00       		.uleb128 0
 2919 111c 5F5F4442 		.ascii "__DBL_HAS_QUIET_NAN__ 1\0"
 2919      4C5F4841 
 2919      535F5155 
 2919      4945545F 
 2919      4E414E5F 
 2920 1134 01       		.byte	0x1
 2921 1135 00       		.uleb128 0
 2922 1136 5F5F4C44 		.ascii "__LDBL_MANT_DIG__ 64\0"
 2922      424C5F4D 
 2922      414E545F 
 2922      4449475F 
 2922      5F203634 
 2923 114b 01       		.byte	0x1
 2924 114c 00       		.uleb128 0
 2925 114d 5F5F4C44 		.ascii "__LDBL_DIG__ 18\0"
 2925      424C5F44 
 2925      49475F5F 
 2925      20313800 
 2926 115d 01       		.byte	0x1
 2927 115e 00       		.uleb128 0
 2928 115f 5F5F4C44 		.ascii "__LDBL_MIN_EXP__ (-16381)\0"
 2928      424C5F4D 
 2928      494E5F45 
 2928      58505F5F 
 2928      20282D31 
 2929 1179 01       		.byte	0x1
 2930 117a 00       		.uleb128 0
 2931 117b 5F5F4C44 		.ascii "__LDBL_MIN_10_EXP__ (-4931)\0"
 2931      424C5F4D 
 2931      494E5F31 
 2931      305F4558 
 2931      505F5F20 
 2932 1197 01       		.byte	0x1
 2933 1198 00       		.uleb128 0
 2934 1199 5F5F4C44 		.ascii "__LDBL_MAX_EXP__ 16384\0"
 2934      424C5F4D 
 2934      41585F45 
 2934      58505F5F 
 2934      20313633 
 2935 11b0 01       		.byte	0x1
 2936 11b1 00       		.uleb128 0
 2937 11b2 5F5F4C44 		.ascii "__LDBL_MAX_10_EXP__ 4932\0"
 2937      424C5F4D 
 2937      41585F31 
 2937      305F4558 
 2937      505F5F20 
 2938 11cb 01       		.byte	0x1
 2939 11cc 00       		.uleb128 0
 2940 11cd 5F5F4445 		.ascii "__DECIMAL_DIG__ 21\0"
GAS LISTING C:\Users\PRESID~1\AppData\Local\Temp\ccLfwevT.s 			page 83


 2940      43494D41 
 2940      4C5F4449 
 2940      475F5F20 
 2940      323100
 2941 11e0 01       		.byte	0x1
 2942 11e1 00       		.uleb128 0
 2943 11e2 5F5F4C44 		.ascii "__LDBL_MAX__ 1.18973149535723176502e+4932L\0"
 2943      424C5F4D 
 2943      41585F5F 
 2943      20312E31 
 2943      38393733 
 2944 120d 01       		.byte	0x1
 2945 120e 00       		.uleb128 0
 2946 120f 5F5F4C44 		.ascii "__LDBL_MIN__ 3.36210314311209350626e-4932L\0"
 2946      424C5F4D 
 2946      494E5F5F 
 2946      20332E33 
 2946      36323130 
 2947 123a 01       		.byte	0x1
 2948 123b 00       		.uleb128 0
 2949 123c 5F5F4C44 		.ascii "__LDBL_EPSILON__ 1.08420217248550443401e-19L\0"
 2949      424C5F45 
 2949      5053494C 
 2949      4F4E5F5F 
 2949      20312E30 
 2950 1269 01       		.byte	0x1
 2951 126a 00       		.uleb128 0
 2952 126b 5F5F4C44 		.ascii "__LDBL_DENORM_MIN__ 3.64519953188247460253e-4951L\0"
 2952      424C5F44 
 2952      454E4F52 
 2952      4D5F4D49 
 2952      4E5F5F20 
 2953 129d 01       		.byte	0x1
 2954 129e 00       		.uleb128 0
 2955 129f 5F5F4C44 		.ascii "__LDBL_HAS_DENORM__ 1\0"
 2955      424C5F48 
 2955      41535F44 
 2955      454E4F52 
 2955      4D5F5F20 
 2956 12b5 01       		.byte	0x1
 2957 12b6 00       		.uleb128 0
 2958 12b7 5F5F4C44 		.ascii "__LDBL_HAS_INFINITY__ 1\0"
 2958      424C5F48 
 2958      41535F49 
 2958      4E46494E 
 2958      4954595F 
 2959 12cf 01       		.byte	0x1
 2960 12d0 00       		.uleb128 0
 2961 12d1 5F5F4C44 		.ascii "__LDBL_HAS_QUIET_NAN__ 1\0"
 2961      424C5F48 
 2961      41535F51 
 2961      55494554 
 2961      5F4E414E 
 2962 12ea 01       		.byte	0x1
 2963 12eb 00       		.uleb128 0
 2964 12ec 5F5F4445 		.ascii "__DEC32_MANT_DIG__ 7\0"
 2964      4333325F 
GAS LISTING C:\Users\PRESID~1\AppData\Local\Temp\ccLfwevT.s 			page 84


 2964      4D414E54 
 2964      5F444947 
 2964      5F5F2037 
 2965 1301 01       		.byte	0x1
 2966 1302 00       		.uleb128 0
 2967 1303 5F5F4445 		.ascii "__DEC32_MIN_EXP__ (-94)\0"
 2967      4333325F 
 2967      4D494E5F 
 2967      4558505F 
 2967      5F20282D 
 2968 131b 01       		.byte	0x1
 2969 131c 00       		.uleb128 0
 2970 131d 5F5F4445 		.ascii "__DEC32_MAX_EXP__ 97\0"
 2970      4333325F 
 2970      4D41585F 
 2970      4558505F 
 2970      5F203937 
 2971 1332 01       		.byte	0x1
 2972 1333 00       		.uleb128 0
 2973 1334 5F5F4445 		.ascii "__DEC32_MIN__ 1E-95DF\0"
 2973      4333325F 
 2973      4D494E5F 
 2973      5F203145 
 2973      2D393544 
 2974 134a 01       		.byte	0x1
 2975 134b 00       		.uleb128 0
 2976 134c 5F5F4445 		.ascii "__DEC32_MAX__ 9.999999E96DF\0"
 2976      4333325F 
 2976      4D41585F 
 2976      5F20392E 
 2976      39393939 
 2977 1368 01       		.byte	0x1
 2978 1369 00       		.uleb128 0
 2979 136a 5F5F4445 		.ascii "__DEC32_EPSILON__ 1E-6DF\0"
 2979      4333325F 
 2979      45505349 
 2979      4C4F4E5F 
 2979      5F203145 
 2980 1383 01       		.byte	0x1
 2981 1384 00       		.uleb128 0
 2982 1385 5F5F4445 		.ascii "__DEC32_SUBNORMAL_MIN__ 0.000001E-95DF\0"
 2982      4333325F 
 2982      5355424E 
 2982      4F524D41 
 2982      4C5F4D49 
 2983 13ac 01       		.byte	0x1
 2984 13ad 00       		.uleb128 0
 2985 13ae 5F5F4445 		.ascii "__DEC64_MANT_DIG__ 16\0"
 2985      4336345F 
 2985      4D414E54 
 2985      5F444947 
 2985      5F5F2031 
 2986 13c4 01       		.byte	0x1
 2987 13c5 00       		.uleb128 0
 2988 13c6 5F5F4445 		.ascii "__DEC64_MIN_EXP__ (-382)\0"
 2988      4336345F 
 2988      4D494E5F 
GAS LISTING C:\Users\PRESID~1\AppData\Local\Temp\ccLfwevT.s 			page 85


 2988      4558505F 
 2988      5F20282D 
 2989 13df 01       		.byte	0x1
 2990 13e0 00       		.uleb128 0
 2991 13e1 5F5F4445 		.ascii "__DEC64_MAX_EXP__ 385\0"
 2991      4336345F 
 2991      4D41585F 
 2991      4558505F 
 2991      5F203338 
 2992 13f7 01       		.byte	0x1
 2993 13f8 00       		.uleb128 0
 2994 13f9 5F5F4445 		.ascii "__DEC64_MIN__ 1E-383DD\0"
 2994      4336345F 
 2994      4D494E5F 
 2994      5F203145 
 2994      2D333833 
 2995 1410 01       		.byte	0x1
 2996 1411 00       		.uleb128 0
 2997 1412 5F5F4445 		.ascii "__DEC64_MAX__ 9.999999999999999E384DD\0"
 2997      4336345F 
 2997      4D41585F 
 2997      5F20392E 
 2997      39393939 
 2998 1438 01       		.byte	0x1
 2999 1439 00       		.uleb128 0
 3000 143a 5F5F4445 		.ascii "__DEC64_EPSILON__ 1E-15DD\0"
 3000      4336345F 
 3000      45505349 
 3000      4C4F4E5F 
 3000      5F203145 
 3001 1454 01       		.byte	0x1
 3002 1455 00       		.uleb128 0
 3003 1456 5F5F4445 		.ascii "__DEC64_SUBNORMAL_MIN__ 0.000000000000001E-383DD\0"
 3003      4336345F 
 3003      5355424E 
 3003      4F524D41 
 3003      4C5F4D49 
 3004 1487 01       		.byte	0x1
 3005 1488 00       		.uleb128 0
 3006 1489 5F5F4445 		.ascii "__DEC128_MANT_DIG__ 34\0"
 3006      43313238 
 3006      5F4D414E 
 3006      545F4449 
 3006      475F5F20 
 3007 14a0 01       		.byte	0x1
 3008 14a1 00       		.uleb128 0
 3009 14a2 5F5F4445 		.ascii "__DEC128_MIN_EXP__ (-6142)\0"
 3009      43313238 
 3009      5F4D494E 
 3009      5F455850 
 3009      5F5F2028 
 3010 14bd 01       		.byte	0x1
 3011 14be 00       		.uleb128 0
 3012 14bf 5F5F4445 		.ascii "__DEC128_MAX_EXP__ 6145\0"
 3012      43313238 
 3012      5F4D4158 
 3012      5F455850 
GAS LISTING C:\Users\PRESID~1\AppData\Local\Temp\ccLfwevT.s 			page 86


 3012      5F5F2036 
 3013 14d7 01       		.byte	0x1
 3014 14d8 00       		.uleb128 0
 3015 14d9 5F5F4445 		.ascii "__DEC128_MIN__ 1E-6143DL\0"
 3015      43313238 
 3015      5F4D494E 
 3015      5F5F2031 
 3015      452D3631 
 3016 14f2 01       		.byte	0x1
 3017 14f3 00       		.uleb128 0
 3018 14f4 5F5F4445 		.ascii "__DEC128_MAX__ 9.999999999999999999999999999999999E6144DL\0"
 3018      43313238 
 3018      5F4D4158 
 3018      5F5F2039 
 3018      2E393939 
 3019 152e 01       		.byte	0x1
 3020 152f 00       		.uleb128 0
 3021 1530 5F5F4445 		.ascii "__DEC128_EPSILON__ 1E-33DL\0"
 3021      43313238 
 3021      5F455053 
 3021      494C4F4E 
 3021      5F5F2031 
 3022 154b 01       		.byte	0x1
 3023 154c 00       		.uleb128 0
 3024 154d 5F5F4445 		.ascii "__DEC128_SUBNORMAL_MIN__ 0.000000000000000000000000000000001E-6143DL\0"
 3024      43313238 
 3024      5F535542 
 3024      4E4F524D 
 3024      414C5F4D 
 3025 1592 01       		.byte	0x1
 3026 1593 00       		.uleb128 0
 3027 1594 5F5F5245 		.ascii "__REGISTER_PREFIX__ \0"
 3027      47495354 
 3027      45525F50 
 3027      52454649 
 3027      585F5F20 
 3028 15a9 01       		.byte	0x1
 3029 15aa 00       		.uleb128 0
 3030 15ab 5F5F5553 		.ascii "__USER_LABEL_PREFIX__ _\0"
 3030      45525F4C 
 3030      4142454C 
 3030      5F505245 
 3030      4649585F 
 3031 15c3 01       		.byte	0x1
 3032 15c4 00       		.uleb128 0
 3033 15c5 5F5F474E 		.ascii "__GNUC_GNU_INLINE__ 1\0"
 3033      55435F47 
 3033      4E555F49 
 3033      4E4C494E 
 3033      455F5F20 
 3034 15db 01       		.byte	0x1
 3035 15dc 00       		.uleb128 0
 3036 15dd 5F5F4E4F 		.ascii "__NO_INLINE__ 1\0"
 3036      5F494E4C 
 3036      494E455F 
 3036      5F203100 
 3037 15ed 01       		.byte	0x1
GAS LISTING C:\Users\PRESID~1\AppData\Local\Temp\ccLfwevT.s 			page 87


 3038 15ee 00       		.uleb128 0
 3039 15ef 5F5F5354 		.ascii "__STRICT_ANSI__ 1\0"
 3039      52494354 
 3039      5F414E53 
 3039      495F5F20 
 3039      3100
 3040 1601 01       		.byte	0x1
 3041 1602 00       		.uleb128 0
 3042 1603 5F5F4743 		.ascii "__GCC_ATOMIC_BOOL_LOCK_FREE 1\0"
 3042      435F4154 
 3042      4F4D4943 
 3042      5F424F4F 
 3042      4C5F4C4F 
 3043 1621 01       		.byte	0x1
 3044 1622 00       		.uleb128 0
 3045 1623 5F5F4743 		.ascii "__GCC_ATOMIC_CHAR_LOCK_FREE 1\0"
 3045      435F4154 
 3045      4F4D4943 
 3045      5F434841 
 3045      525F4C4F 
 3046 1641 01       		.byte	0x1
 3047 1642 00       		.uleb128 0
 3048 1643 5F5F4743 		.ascii "__GCC_ATOMIC_CHAR16_T_LOCK_FREE 1\0"
 3048      435F4154 
 3048      4F4D4943 
 3048      5F434841 
 3048      5231365F 
 3049 1665 01       		.byte	0x1
 3050 1666 00       		.uleb128 0
 3051 1667 5F5F4743 		.ascii "__GCC_ATOMIC_CHAR32_T_LOCK_FREE 1\0"
 3051      435F4154 
 3051      4F4D4943 
 3051      5F434841 
 3051      5233325F 
 3052 1689 01       		.byte	0x1
 3053 168a 00       		.uleb128 0
 3054 168b 5F5F4743 		.ascii "__GCC_ATOMIC_WCHAR_T_LOCK_FREE 1\0"
 3054      435F4154 
 3054      4F4D4943 
 3054      5F574348 
 3054      41525F54 
 3055 16ac 01       		.byte	0x1
 3056 16ad 00       		.uleb128 0
 3057 16ae 5F5F4743 		.ascii "__GCC_ATOMIC_SHORT_LOCK_FREE 1\0"
 3057      435F4154 
 3057      4F4D4943 
 3057      5F53484F 
 3057      52545F4C 
 3058 16cd 01       		.byte	0x1
 3059 16ce 00       		.uleb128 0
 3060 16cf 5F5F4743 		.ascii "__GCC_ATOMIC_INT_LOCK_FREE 1\0"
 3060      435F4154 
 3060      4F4D4943 
 3060      5F494E54 
 3060      5F4C4F43 
 3061 16ec 01       		.byte	0x1
 3062 16ed 00       		.uleb128 0
GAS LISTING C:\Users\PRESID~1\AppData\Local\Temp\ccLfwevT.s 			page 88


 3063 16ee 5F5F4743 		.ascii "__GCC_ATOMIC_LONG_LOCK_FREE 1\0"
 3063      435F4154 
 3063      4F4D4943 
 3063      5F4C4F4E 
 3063      475F4C4F 
 3064 170c 01       		.byte	0x1
 3065 170d 00       		.uleb128 0
 3066 170e 5F5F4743 		.ascii "__GCC_ATOMIC_LLONG_LOCK_FREE 1\0"
 3066      435F4154 
 3066      4F4D4943 
 3066      5F4C4C4F 
 3066      4E475F4C 
 3067 172d 01       		.byte	0x1
 3068 172e 00       		.uleb128 0
 3069 172f 5F5F4743 		.ascii "__GCC_ATOMIC_TEST_AND_SET_TRUEVAL 1\0"
 3069      435F4154 
 3069      4F4D4943 
 3069      5F544553 
 3069      545F414E 
 3070 1753 01       		.byte	0x1
 3071 1754 00       		.uleb128 0
 3072 1755 5F5F4743 		.ascii "__GCC_ATOMIC_POINTER_LOCK_FREE 1\0"
 3072      435F4154 
 3072      4F4D4943 
 3072      5F504F49 
 3072      4E544552 
 3073 1776 01       		.byte	0x1
 3074 1777 00       		.uleb128 0
 3075 1778 5F5F4743 		.ascii "__GCC_HAVE_DWARF2_CFI_ASM 1\0"
 3075      435F4841 
 3075      56455F44 
 3075      57415246 
 3075      325F4346 
 3076 1794 01       		.byte	0x1
 3077 1795 00       		.uleb128 0
 3078 1796 5F5F5052 		.ascii "__PRAGMA_REDEFINE_EXTNAME 1\0"
 3078      41474D41 
 3078      5F524544 
 3078      4546494E 
 3078      455F4558 
 3079 17b2 01       		.byte	0x1
 3080 17b3 00       		.uleb128 0
 3081 17b4 5F5F5349 		.ascii "__SIZEOF_WCHAR_T__ 2\0"
 3081      5A454F46 
 3081      5F574348 
 3081      41525F54 
 3081      5F5F2032 
 3082 17c9 01       		.byte	0x1
 3083 17ca 00       		.uleb128 0
 3084 17cb 5F5F5349 		.ascii "__SIZEOF_WINT_T__ 2\0"
 3084      5A454F46 
 3084      5F57494E 
 3084      545F545F 
 3084      5F203200 
 3085 17df 01       		.byte	0x1
 3086 17e0 00       		.uleb128 0
 3087 17e1 5F5F5349 		.ascii "__SIZEOF_PTRDIFF_T__ 4\0"
GAS LISTING C:\Users\PRESID~1\AppData\Local\Temp\ccLfwevT.s 			page 89


 3087      5A454F46 
 3087      5F505452 
 3087      44494646 
 3087      5F545F5F 
 3088 17f8 01       		.byte	0x1
 3089 17f9 00       		.uleb128 0
 3090 17fa 5F5F6933 		.ascii "__i386 1\0"
 3090      38362031 
 3090      00
 3091 1803 01       		.byte	0x1
 3092 1804 00       		.uleb128 0
 3093 1805 5F5F6933 		.ascii "__i386__ 1\0"
 3093      38365F5F 
 3093      203100
 3094 1810 01       		.byte	0x1
 3095 1811 00       		.uleb128 0
 3096 1812 5F5F4154 		.ascii "__ATOMIC_HLE_ACQUIRE 65536\0"
 3096      4F4D4943 
 3096      5F484C45 
 3096      5F414351 
 3096      55495245 
 3097 182d 01       		.byte	0x1
 3098 182e 00       		.uleb128 0
 3099 182f 5F5F4154 		.ascii "__ATOMIC_HLE_RELEASE 131072\0"
 3099      4F4D4943 
 3099      5F484C45 
 3099      5F52454C 
 3099      45415345 
 3100 184b 01       		.byte	0x1
 3101 184c 00       		.uleb128 0
 3102 184d 5F5F7475 		.ascii "__tune_i386__ 1\0"
 3102      6E655F69 
 3102      3338365F 
 3102      5F203100 
 3103 185d 01       		.byte	0x1
 3104 185e 00       		.uleb128 0
 3105 185f 5F5F636F 		.ascii "__code_model_32__ 1\0"
 3105      64655F6D 
 3105      6F64656C 
 3105      5F33325F 
 3105      5F203100 
 3106 1873 01       		.byte	0x1
 3107 1874 00       		.uleb128 0
 3108 1875 5F583836 		.ascii "_X86_ 1\0"
 3108      5F203100 
 3109 187d 01       		.byte	0x1
 3110 187e 00       		.uleb128 0
 3111 187f 5F5F7374 		.ascii "__stdcall __attribute__((__stdcall__))\0"
 3111      6463616C 
 3111      6C205F5F 
 3111      61747472 
 3111      69627574 
 3112 18a6 01       		.byte	0x1
 3113 18a7 00       		.uleb128 0
 3114 18a8 5F5F6661 		.ascii "__fastcall __attribute__((__fastcall__))\0"
 3114      73746361 
 3114      6C6C205F 
GAS LISTING C:\Users\PRESID~1\AppData\Local\Temp\ccLfwevT.s 			page 90


 3114      5F617474 
 3114      72696275 
 3115 18d1 01       		.byte	0x1
 3116 18d2 00       		.uleb128 0
 3117 18d3 5F5F7468 		.ascii "__thiscall __attribute__((__thiscall__))\0"
 3117      69736361 
 3117      6C6C205F 
 3117      5F617474 
 3117      72696275 
 3118 18fc 01       		.byte	0x1
 3119 18fd 00       		.uleb128 0
 3120 18fe 5F5F6364 		.ascii "__cdecl __attribute__((__cdecl__))\0"
 3120      65636C20 
 3120      5F5F6174 
 3120      74726962 
 3120      7574655F 
 3121 1921 01       		.byte	0x1
 3122 1922 00       		.uleb128 0
 3123 1923 5F5F4758 		.ascii "__GXX_MERGED_TYPEINFO_NAMES 0\0"
 3123      585F4D45 
 3123      52474544 
 3123      5F545950 
 3123      45494E46 
 3124 1941 01       		.byte	0x1
 3125 1942 00       		.uleb128 0
 3126 1943 5F5F4758 		.ascii "__GXX_TYPEINFO_EQUALITY_INLINE 0\0"
 3126      585F5459 
 3126      5045494E 
 3126      464F5F45 
 3126      5155414C 
 3127 1964 01       		.byte	0x1
 3128 1965 00       		.uleb128 0
 3129 1966 5F5F4D53 		.ascii "__MSVCRT__ 1\0"
 3129      56435254 
 3129      5F5F2031 
 3129      00
 3130 1973 01       		.byte	0x1
 3131 1974 00       		.uleb128 0
 3132 1975 5F5F4D49 		.ascii "__MINGW32__ 1\0"
 3132      4E475733 
 3132      325F5F20 
 3132      3100
 3133 1983 01       		.byte	0x1
 3134 1984 00       		.uleb128 0
 3135 1985 5F57494E 		.ascii "_WIN32 1\0"
 3135      33322031 
 3135      00
 3136 198e 01       		.byte	0x1
 3137 198f 00       		.uleb128 0
 3138 1990 5F5F5749 		.ascii "__WIN32 1\0"
 3138      4E333220 
 3138      3100
 3139 199a 01       		.byte	0x1
 3140 199b 00       		.uleb128 0
 3141 199c 5F5F5749 		.ascii "__WIN32__ 1\0"
 3141      4E33325F 
 3141      5F203100 
GAS LISTING C:\Users\PRESID~1\AppData\Local\Temp\ccLfwevT.s 			page 91


 3142 19a8 01       		.byte	0x1
 3143 19a9 00       		.uleb128 0
 3144 19aa 5F5F5749 		.ascii "__WINNT 1\0"
 3144      4E4E5420 
 3144      3100
 3145 19b4 01       		.byte	0x1
 3146 19b5 00       		.uleb128 0
 3147 19b6 5F5F5749 		.ascii "__WINNT__ 1\0"
 3147      4E4E545F 
 3147      5F203100 
 3148 19c2 01       		.byte	0x1
 3149 19c3 00       		.uleb128 0
 3150 19c4 5F494E54 		.ascii "_INTEGRAL_MAX_BITS 64\0"
 3150      45475241 
 3150      4C5F4D41 
 3150      585F4249 
 3150      54532036 
 3151 19da 01       		.byte	0x1
 3152 19db 00       		.uleb128 0
 3153 19dc 5F5F6465 		.ascii "__declspec(x) __attribute__((x))\0"
 3153      636C7370 
 3153      65632878 
 3153      29205F5F 
 3153      61747472 
 3154 19fd 01       		.byte	0x1
 3155 19fe 00       		.uleb128 0
 3156 19ff 5F5F4445 		.ascii "__DECIMAL_BID_FORMAT__ 1\0"
 3156      43494D41 
 3156      4C5F4249 
 3156      445F464F 
 3156      524D4154 
 3157 1a18 01       		.byte	0x1
 3158 1a19 00       		.uleb128 0
 3159 1a1a 4346475F 		.ascii "CFG_PROCESSOR 3\0"
 3159      50524F43 
 3159      4553534F 
 3159      52203300 
 3160 1a2a 03       		.byte	0x3
 3161 1a2b 00       		.uleb128 0
 3162 1a2c 01       		.uleb128 0x1
 3163              		.file 8 "E:/NeuOrga/Programmieren/c_cpp/github_os/input/src/os_base/os_firstinc.h"
 3164 1a2d 03       		.byte	0x3
 3165 1a2e 01       		.uleb128 0x1
 3166 1a2f 08       		.uleb128 0x8
 3167 1a30 01       		.byte	0x1
 3168 1a31 02       		.uleb128 0x2
 3169 1a32 5F6F735F 		.ascii "_os_firstinc_h_ \0"
 3169      66697273 
 3169      74696E63 
 3169      5F685F20 
 3169      00
 3170 1a43 03       		.byte	0x3
 3171 1a44 04       		.uleb128 0x4
 3172 1a45 02       		.uleb128 0x2
 3173 1a46 01       		.byte	0x1
 3174 1a47 02       		.uleb128 0x2
 3175 1a48 5F424153 		.ascii "_BASE_TYPES_H_ \0"
GAS LISTING C:\Users\PRESID~1\AppData\Local\Temp\ccLfwevT.s 			page 92


 3175      455F5459 
 3175      5045535F 
 3175      485F2000 
 3176 1a58 01       		.byte	0x1
 3177 1a59 04       		.uleb128 0x4
 3178 1a5a 494E5445 		.ascii "INTEGER_LLP64_IL32P64 1\0"
 3178      4745525F 
 3178      4C4C5036 
 3178      345F494C 
 3178      33325036 
 3179 1a72 01       		.byte	0x1
 3180 1a73 05       		.uleb128 0x5
 3181 1a74 494E5445 		.ascii "INTEGER_LP64_I32LP64 2\0"
 3181      4745525F 
 3181      4C503634 
 3181      5F493332 
 3181      4C503634 
 3182 1a8b 01       		.byte	0x1
 3183 1a8c 06       		.uleb128 0x6
 3184 1a8d 494E5445 		.ascii "INTEGER_ILP64 3\0"
 3184      4745525F 
 3184      494C5036 
 3184      34203300 
 3185 1a9d 01       		.byte	0x1
 3186 1a9e 07       		.uleb128 0x7
 3187 1a9f 494E5445 		.ascii "INTEGER_SILP64 4\0"
 3187      4745525F 
 3187      53494C50 
 3187      36342034 
 3187      00
 3188 1ab0 01       		.byte	0x1
 3189 1ab1 09       		.uleb128 0x9
 3190 1ab2 4350505F 		.ascii "CPP_VERSION_NONE 0\0"
 3190      56455253 
 3190      494F4E5F 
 3190      4E4F4E45 
 3190      203000
 3191 1ac5 01       		.byte	0x1
 3192 1ac6 0A       		.uleb128 0xa
 3193 1ac7 4350505F 		.ascii "CPP_VERSION_1998 1\0"
 3193      56455253 
 3193      494F4E5F 
 3193      31393938 
 3193      203100
 3194 1ada 01       		.byte	0x1
 3195 1adb 0B       		.uleb128 0xb
 3196 1adc 4350505F 		.ascii "CPP_VERSION_2003 2\0"
 3196      56455253 
 3196      494F4E5F 
 3196      32303033 
 3196      203200
 3197 1aef 01       		.byte	0x1
 3198 1af0 0C       		.uleb128 0xc
 3199 1af1 4350505F 		.ascii "CPP_VERSION_2007 3\0"
 3199      56455253 
 3199      494F4E5F 
 3199      32303037 
GAS LISTING C:\Users\PRESID~1\AppData\Local\Temp\ccLfwevT.s 			page 93


 3199      203300
 3200 1b04 01       		.byte	0x1
 3201 1b05 0D       		.uleb128 0xd
 3202 1b06 4350505F 		.ascii "CPP_VERSION_2011 4\0"
 3202      56455253 
 3202      494F4E5F 
 3202      32303131 
 3202      203400
 3203 1b19 01       		.byte	0x1
 3204 1b1a 0E       		.uleb128 0xe
 3205 1b1b 49534F5F 		.ascii "ISO_CPP_VERSION CPP_VERSION_1998\0"
 3205      4350505F 
 3205      56455253 
 3205      494F4E20 
 3205      4350505F 
 3206 1b3c 01       		.byte	0x1
 3207 1b3d 10       		.uleb128 0x10
 3208 1b3e 494E5445 		.ascii "INTEGER_MODEL INTEGER_LLP64_IL32P64\0"
 3208      4745525F 
 3208      4D4F4445 
 3208      4C20494E 
 3208      54454745 
 3209 1b62 04       		.byte	0x4
 3210 1b63 03       		.byte	0x3
 3211 1b64 05       		.uleb128 0x5
 3212 1b65 03       		.uleb128 0x3
 3213 1b66 01       		.byte	0x1
 3214 1b67 02       		.uleb128 0x2
 3215 1b68 5F6F735F 		.ascii "_os_common_h_ \0"
 3215      636F6D6D 
 3215      6F6E5F68 
 3215      5F2000
 3216 1b77 01       		.byte	0x1
 3217 1b78 06       		.uleb128 0x6
 3218 1b79 46616C73 		.ascii "False 0\0"
 3218      65203000 
 3219 1b81 01       		.byte	0x1
 3220 1b82 07       		.uleb128 0x7
 3221 1b83 54727565 		.ascii "True 1\0"
 3221      203100
 3222 1b8a 01       		.byte	0x1
 3223 1b8b 08       		.uleb128 0x8
 3224 1b8c 46414C53 		.ascii "FALSE False\0"
 3224      45204661 
 3224      6C736500 
 3225 1b98 01       		.byte	0x1
 3226 1b99 09       		.uleb128 0x9
 3227 1b9a 54525545 		.ascii "TRUE True\0"
 3227      20547275 
 3227      6500
 3228 1ba4 01       		.byte	0x1
 3229 1ba5 0A       		.uleb128 0xa
 3230 1ba6 41636365 		.ascii "Accepted 1\0"
 3230      70746564 
 3230      203100
 3231 1bb1 01       		.byte	0x1
 3232 1bb2 0B       		.uleb128 0xb
GAS LISTING C:\Users\PRESID~1\AppData\Local\Temp\ccLfwevT.s 			page 94


 3233 1bb3 52656A65 		.ascii "Rejected 0\0"
 3233      63746564 
 3233      203000
 3234 1bbe 01       		.byte	0x1
 3235 1bbf 0C       		.uleb128 0xc
 3236 1bc0 4C6F6361 		.ascii "Local static\0"
 3236      6C207374 
 3236      61746963 
 3236      00
 3237 1bcd 01       		.byte	0x1
 3238 1bce 0D       		.uleb128 0xd
 3239 1bcf 4C6F6361 		.ascii "Local_inline static __inline__\0"
 3239      6C5F696E 
 3239      6C696E65 
 3239      20737461 
 3239      74696320 
 3240 1bee 01       		.byte	0x1
 3241 1bef 0E       		.uleb128 0xe
 3242 1bf0 476C6F62 		.ascii "Global_inline __inline__\0"
 3242      616C5F69 
 3242      6E6C696E 
 3242      65205F5F 
 3242      696E6C69 
 3243 1c09 01       		.byte	0x1
 3244 1c0a 0F       		.uleb128 0xf
 3245 1c0b 52656665 		.ascii "ReferenceUnusedParameter(x) ((x) = (x))\0"
 3245      72656E63 
 3245      65556E75 
 3245      73656450 
 3245      6172616D 
 3246 1c33 01       		.byte	0x1
 3247 1c34 12       		.uleb128 0x12
 3248 1c35 634D4355 		.ascii "cMCU_SIMULATION 1\0"
 3248      5F53494D 
 3248      554C4154 
 3248      494F4E20 
 3248      3100
 3249 1c47 01       		.byte	0x1
 3250 1c48 13       		.uleb128 0x13
 3251 1c49 634D4355 		.ascii "cMCU_POWERPC 2\0"
 3251      5F504F57 
 3251      45525043 
 3251      203200
 3252 1c58 01       		.byte	0x1
 3253 1c59 14       		.uleb128 0x14
 3254 1c5a 634D4355 		.ascii "cMCU_X86 3\0"
 3254      5F583836 
 3254      203300
 3255 1c65 01       		.byte	0x1
 3256 1c66 15       		.uleb128 0x15
 3257 1c67 634D4355 		.ascii "cMCU_CORTEX_M4 4\0"
 3257      5F434F52 
 3257      5445585F 
 3257      4D342034 
 3257      00
 3258 1c78 01       		.byte	0x1
 3259 1c79 18       		.uleb128 0x18
GAS LISTING C:\Users\PRESID~1\AppData\Local\Temp\ccLfwevT.s 			page 95


 3260 1c7a 4E525F4F 		.ascii "NR_OF_CORES 1\0"
 3260      465F434F 
 3260      52455320 
 3260      3100
 3261 1c88 01       		.byte	0x1
 3262 1c89 25       		.uleb128 0x25
 3263 1c8a 44697361 		.ascii "DisableInterrupts() \0"
 3263      626C6549 
 3263      6E746572 
 3263      72757074 
 3263      73282920 
 3264 1c9f 01       		.byte	0x1
 3265 1ca0 26       		.uleb128 0x26
 3266 1ca1 456E6162 		.ascii "EnableInterrupts() \0"
 3266      6C65496E 
 3266      74657272 
 3266      75707473 
 3266      28292000 
 3267 1cb5 01       		.byte	0x1
 3268 1cb6 27       		.uleb128 0x27
 3269 1cb7 50726976 		.ascii "Privilige_level_save_current() \0"
 3269      696C6967 
 3269      655F6C65 
 3269      76656C5F 
 3269      73617665 
 3270 1cd7 01       		.byte	0x1
 3271 1cd8 28       		.uleb128 0x28
 3272 1cd9 50726976 		.ascii "Privilige_level_enter_kernel_mode() \0"
 3272      696C6967 
 3272      655F6C65 
 3272      76656C5F 
 3272      656E7465 
 3273 1cfe 01       		.byte	0x1
 3274 1cff 29       		.uleb128 0x29
 3275 1d00 50726976 		.ascii "Privilige_level_restore_saved() \0"
 3275      696C6967 
 3275      655F6C65 
 3275      76656C5F 
 3275      72657374 
 3276 1d21 01       		.byte	0x1
 3277 1d22 2A       		.uleb128 0x2a
 3278 1d23 48616C74 		.ascii "HaltMcu() \0"
 3278      4D637528 
 3278      292000
 3279 1d2e 04       		.byte	0x4
 3280 1d2f 03       		.byte	0x3
 3281 1d30 07       		.uleb128 0x7
 3282 1d31 07       		.uleb128 0x7
 3283 1d32 01       		.byte	0x1
 3284 1d33 02       		.uleb128 0x2
 3285 1d34 5F4F535F 		.ascii "_OS_RAM_H_ \0"
 3285      52414D5F 
 3285      485F2000 
 3286              		.file 9 "E:/NeuOrga/Programmieren/c_cpp/github_os/input/src/os_base/../os_base/os_firstinc.h"
 3287 1d40 03       		.byte	0x3
 3288 1d41 04       		.uleb128 0x4
 3289 1d42 09       		.uleb128 0x9
GAS LISTING C:\Users\PRESID~1\AppData\Local\Temp\ccLfwevT.s 			page 96


 3290 1d43 04       		.byte	0x4
 3291              		.file 10 "E:/NeuOrga/Programmieren/c_cpp/github_os/input/src/os_base/../os_base/os_stack.h"
 3292 1d44 03       		.byte	0x3
 3293 1d45 05       		.uleb128 0x5
 3294 1d46 0A       		.uleb128 0xa
 3295 1d47 01       		.byte	0x1
 3296 1d48 02       		.uleb128 0x2
 3297 1d49 5F6F735F 		.ascii "_os_stack_h_ \0"
 3297      73746163 
 3297      6B5F685F 
 3297      2000
 3298 1d57 01       		.byte	0x1
 3299 1d58 04       		.uleb128 0x4
 3300 1d59 4F535F53 		.ascii "OS_STACK_SIZE 0x100\0"
 3300      5441434B 
 3300      5F53495A 
 3300      45203078 
 3300      31303000 
 3301 1d6d 01       		.byte	0x1
 3302 1d6e 06       		.uleb128 0x6
 3303 1d6f 4F535F53 		.ascii "OS_STACK_SIZE_END 0x01u\0"
 3303      5441434B 
 3303      5F53495A 
 3303      455F454E 
 3303      44203078 
 3304 1d87 04       		.byte	0x4
 3305              		.file 11 "E:/NeuOrga/Programmieren/c_cpp/github_os/input/src/os_base/../os_base/os_heap.h"
 3306 1d88 03       		.byte	0x3
 3307 1d89 06       		.uleb128 0x6
 3308 1d8a 0B       		.uleb128 0xb
 3309 1d8b 01       		.byte	0x1
 3310 1d8c 02       		.uleb128 0x2
 3311 1d8d 5F6F735F 		.ascii "_os_heap_h_ \0"
 3311      68656170 
 3311      5F685F20 
 3311      00
 3312 1d9a 01       		.byte	0x1
 3313 1d9b 05       		.uleb128 0x5
 3314 1d9c 48454150 		.ascii "HEAP_SIZE 10000\0"
 3314      5F53495A 
 3314      45203130 
 3314      30303000 
 3315 1dac 01       		.byte	0x1
 3316 1dad 06       		.uleb128 0x6
 3317 1dae 4D494E5F 		.ascii "MIN_BLOCK_SIZE_HEAP 8\0"
 3317      424C4F43 
 3317      4B5F5349 
 3317      5A455F48 
 3317      45415020 
 3318 1dc4 01       		.byte	0x1
 3319 1dc5 09       		.uleb128 0x9
 3320 1dc6 48454150 		.ascii "HEAP_OFFSET_FOR_SIZE 0\0"
 3320      5F4F4646 
 3320      5345545F 
 3320      464F525F 
 3320      53495A45 
 3321 1ddd 01       		.byte	0x1
GAS LISTING C:\Users\PRESID~1\AppData\Local\Temp\ccLfwevT.s 			page 97


 3322 1dde 0A       		.uleb128 0xa
 3323 1ddf 48454150 		.ascii "HEAP_OFFSET_FOR_USED_SIZE 4\0"
 3323      5F4F4646 
 3323      5345545F 
 3323      464F525F 
 3323      55534544 
 3324 1dfb 01       		.byte	0x1
 3325 1dfc 0B       		.uleb128 0xb
 3326 1dfd 48454150 		.ascii "HEAP_OFFSET_FOR_CHUNK 8\0"
 3326      5F4F4646 
 3326      5345545F 
 3326      464F525F 
 3326      4348554E 
 3327 1e15 04       		.byte	0x4
 3328 1e16 04       		.byte	0x4
 3329              		.file 12 "E:/NeuOrga/Programmieren/c_cpp/github_os/input/src/os_base/../os_sim/lld_global.h"
 3330 1e17 03       		.byte	0x3
 3331 1e18 0A       		.uleb128 0xa
 3332 1e19 0C       		.uleb128 0xc
 3333 1e1a 01       		.byte	0x1
 3334 1e1b 02       		.uleb128 0x2
 3335 1e1c 5F6C6C64 		.ascii "_lld_global_h_ \0"
 3335      5F676C6F 
 3335      62616C5F 
 3335      685F2000 
 3336              		.file 13 "E:/NeuOrga/Programmieren/c_cpp/github_os/input/src/os_base/../os_sim/lld_core.h"
 3337 1e2c 03       		.byte	0x3
 3338 1e2d 04       		.uleb128 0x4
 3339 1e2e 0D       		.uleb128 0xd
 3340 1e2f 01       		.byte	0x1
 3341 1e30 02       		.uleb128 0x2
 3342 1e31 5F6C6C64 		.ascii "_lld_core_h_ \0"
 3342      5F636F72 
 3342      655F685F 
 3342      2000
 3343              		.file 14 "E:/NeuOrga/Programmieren/c_cpp/github_os/input/src/os_base/../os_sim/../os_base/os_first
 3344 1e3f 03       		.byte	0x3
 3345 1e40 03       		.uleb128 0x3
 3346 1e41 0E       		.uleb128 0xe
 3347 1e42 04       		.byte	0x4
 3348 1e43 04       		.byte	0x4
 3349              		.file 15 "E:/NeuOrga/Programmieren/c_cpp/github_os/input/src/os_base/../os_sim/lld_interrupt.h"
 3350 1e44 03       		.byte	0x3
 3351 1e45 05       		.uleb128 0x5
 3352 1e46 0F       		.uleb128 0xf
 3353 1e47 01       		.byte	0x1
 3354 1e48 02       		.uleb128 0x2
 3355 1e49 5F6C6C64 		.ascii "_lld_interrupt_h_ \0"
 3355      5F696E74 
 3355      65727275 
 3355      70745F68 
 3355      5F2000
 3356 1e5c 01       		.byte	0x1
 3357 1e5d 05       		.uleb128 0x5
 3358 1e5e 6F735F69 		.ascii "os_interrupt_swi_1 asm(\"swi 1\")\0"
 3358      6E746572 
 3358      72757074 
GAS LISTING C:\Users\PRESID~1\AppData\Local\Temp\ccLfwevT.s 			page 98


 3358      5F737769 
 3358      5F312061 
 3359 1e7e 01       		.byte	0x1
 3360 1e7f 06       		.uleb128 0x6
 3361 1e80 6F735F69 		.ascii "os_interrupt_swi_2 asm(\"swi 2\")\0"
 3361      6E746572 
 3361      72757074 
 3361      5F737769 
 3361      5F322061 
 3362 1ea0 01       		.byte	0x1
 3363 1ea1 07       		.uleb128 0x7
 3364 1ea2 6F735F69 		.ascii "os_interrupt_swi_3 asm(\"swi 3\")\0"
 3364      6E746572 
 3364      72757074 
 3364      5F737769 
 3364      5F332061 
 3365 1ec2 01       		.byte	0x1
 3366 1ec3 08       		.uleb128 0x8
 3367 1ec4 6F735F69 		.ascii "os_interrupt_swi_4 asm(\"swi 4\")\0"
 3367      6E746572 
 3367      72757074 
 3367      5F737769 
 3367      5F342061 
 3368 1ee4 01       		.byte	0x1
 3369 1ee5 09       		.uleb128 0x9
 3370 1ee6 6F735F69 		.ascii "os_interrupt_swi_5 asm(\"swi 5\")\0"
 3370      6E746572 
 3370      72757074 
 3370      5F737769 
 3370      5F352061 
 3371 1f06 04       		.byte	0x4
 3372              		.file 16 "E:/NeuOrga/Programmieren/c_cpp/github_os/input/src/os_base/../os_sim/lld_mmu.h"
 3373 1f07 03       		.byte	0x3
 3374 1f08 06       		.uleb128 0x6
 3375 1f09 10       		.uleb128 0x10
 3376 1f0a 01       		.byte	0x1
 3377 1f0b 02       		.uleb128 0x2
 3378 1f0c 5F6C6C64 		.ascii "_lld_mmu_h_ \0"
 3378      5F6D6D75 
 3378      5F685F20 
 3378      00
 3379 1f19 04       		.byte	0x4
 3380              		.file 17 "E:/NeuOrga/Programmieren/c_cpp/github_os/input/src/os_base/../os_sim/lld_timer.h"
 3381 1f1a 03       		.byte	0x3
 3382 1f1b 07       		.uleb128 0x7
 3383 1f1c 11       		.uleb128 0x11
 3384 1f1d 01       		.byte	0x1
 3385 1f1e 02       		.uleb128 0x2
 3386 1f1f 5F6C6C64 		.ascii "_lld_timer_h_ \0"
 3386      5F74696D 
 3386      65725F68 
 3386      5F2000
 3387 1f2e 04       		.byte	0x4
 3388              		.file 18 "E:/NeuOrga/Programmieren/c_cpp/github_os/input/src/os_base/../os_sim/lld_power.h"
 3389 1f2f 03       		.byte	0x3
 3390 1f30 08       		.uleb128 0x8
 3391 1f31 12       		.uleb128 0x12
GAS LISTING C:\Users\PRESID~1\AppData\Local\Temp\ccLfwevT.s 			page 99


 3392 1f32 01       		.byte	0x1
 3393 1f33 02       		.uleb128 0x2
 3394 1f34 5F6C6C64 		.ascii "_lld_power_h_ \0"
 3394      5F706F77 
 3394      65725F68 
 3394      5F2000
 3395 1f43 04       		.byte	0x4
 3396              		.file 19 "E:/NeuOrga/Programmieren/c_cpp/github_os/input/src/os_base/../os_sim/lld_ram.h"
 3397 1f44 03       		.byte	0x3
 3398 1f45 09       		.uleb128 0x9
 3399 1f46 13       		.uleb128 0x13
 3400 1f47 01       		.byte	0x1
 3401 1f48 02       		.uleb128 0x2
 3402 1f49 5F6C6C64 		.ascii "_lld_ram_h_ \0"
 3402      5F72616D 
 3402      5F685F20 
 3402      00
 3403 1f56 04       		.byte	0x4
 3404 1f57 03       		.byte	0x3
 3405 1f58 0A       		.uleb128 0xa
 3406 1f59 04       		.uleb128 0x4
 3407 1f5a 01       		.byte	0x1
 3408 1f5b 02       		.uleb128 0x2
 3409 1f5c 5F6F735F 		.ascii "_os_task_common_h_ \0"
 3409      7461736B 
 3409      5F636F6D 
 3409      6D6F6E5F 
 3409      685F2000 
 3410              		.file 20 "E:/NeuOrga/Programmieren/c_cpp/github_os/input/src/os_base/../os_sim/../os_base/os_task_
 3411 1f70 03       		.byte	0x3
 3412 1f71 04       		.uleb128 0x4
 3413 1f72 14       		.uleb128 0x14
 3414 1f73 01       		.byte	0x1
 3415 1f74 02       		.uleb128 0x2
 3416 1f75 5F6F735F 		.ascii "_os_task_config_h_ \0"
 3416      7461736B 
 3416      5F636F6E 
 3416      6669675F 
 3416      685F2000 
 3417 1f89 01       		.byte	0x1
 3418 1f8a 05       		.uleb128 0x5
 3419 1f8b 53636865 		.ascii "SchedulerFrequency (1.0e3)\0"
 3419      64756C65 
 3419      72467265 
 3419      7175656E 
 3419      63792028 
 3420 1fa6 01       		.byte	0x1
 3421 1fa7 06       		.uleb128 0x6
 3422 1fa8 4D696E54 		.ascii "MinTimeSlice_s (1.0/SchedulerFrequency)\0"
 3422      696D6553 
 3422      6C696365 
 3422      5F732028 
 3422      312E302F 
 3423 1fd0 01       		.byte	0x1
 3424 1fd1 07       		.uleb128 0x7
 3425 1fd2 4D696E54 		.ascii "MinTimeSlice_us ((1.0/SchedulerFrequency)*1e6)\0"
 3425      696D6553 
GAS LISTING C:\Users\PRESID~1\AppData\Local\Temp\ccLfwevT.s 			page 100


 3425      6C696365 
 3425      5F757320 
 3425      2828312E 
 3426 2001 01       		.byte	0x1
 3427 2002 08       		.uleb128 0x8
 3428 2003 5461736B 		.ascii "Task_min_time (1e0)\0"
 3428      5F6D696E 
 3428      5F74696D 
 3428      65202831 
 3428      65302900 
 3429 2017 01       		.byte	0x1
 3430 2018 09       		.uleb128 0x9
 3431 2019 4E554D42 		.ascii "NUMBER_OF_TASKS 5\0"
 3431      45525F4F 
 3431      465F5441 
 3431      534B5320 
 3431      3500
 3432 202b 01       		.byte	0x1
 3433 202c 0A       		.uleb128 0xa
 3434 202d 4D41585F 		.ascii "MAX_RUN_QUEUE_SIZE (NUMBER_OF_TASKS)\0"
 3434      52554E5F 
 3434      51554555 
 3434      455F5349 
 3434      5A452028 
 3435 2052 01       		.byte	0x1
 3436 2053 0B       		.uleb128 0xb
 3437 2054 4D41585F 		.ascii "MAX_RUN_PQUEUE_SIZE MAX_RUN_QUEUE_SIZE\0"
 3437      52554E5F 
 3437      50515545 
 3437      55455F53 
 3437      495A4520 
 3438 207b 01       		.byte	0x1
 3439 207c 0D       		.uleb128 0xd
 3440 207d 5441534B 		.ascii "TASK_STACK_SIZE 200\0"
 3440      5F535441 
 3440      434B5F53 
 3440      495A4520 
 3440      32303000 
 3441 2091 01       		.byte	0x1
 3442 2092 10       		.uleb128 0x10
 3443 2093 4D535F50 		.ascii "MS_PER_SEC (1000)\0"
 3443      45525F53 
 3443      45432028 
 3443      31303030 
 3443      2900
 3444 20a5 01       		.byte	0x1
 3445 20a6 11       		.uleb128 0x11
 3446 20a7 5553455F 		.ascii "USE_STATIC_CREATED_TASKS True\0"
 3446      53544154 
 3446      49435F43 
 3446      52454154 
 3446      45445F54 
 3447 20c5 04       		.byte	0x4
 3448              		.file 21 "E:/NeuOrga/Programmieren/c_cpp/github_os/input/src/os_base/../os_sim/../os_base/os_init_
 3449 20c6 03       		.byte	0x3
 3450 20c7 05       		.uleb128 0x5
 3451 20c8 15       		.uleb128 0x15
GAS LISTING C:\Users\PRESID~1\AppData\Local\Temp\ccLfwevT.s 			page 101


 3452 20c9 01       		.byte	0x1
 3453 20ca 02       		.uleb128 0x2
 3454 20cb 5F6F735F 		.ascii "_os_init_task_system_h_ \0"
 3454      696E6974 
 3454      5F746173 
 3454      6B5F7379 
 3454      7374656D 
 3455 20e4 04       		.byte	0x4
 3456 20e5 01       		.byte	0x1
 3457 20e6 5C       		.uleb128 0x5c
 3458 20e7 6F735F53 		.ascii "os_SaveTaskPtr(task_ptr,task_name) (TASK_PTR[(task_name)] = (task_ptr))\0"
 3458      61766554 
 3458      61736B50 
 3458      74722874 
 3458      61736B5F 
 3459 212f 01       		.byte	0x1
 3460 2130 5D       		.uleb128 0x5d
 3461 2131 6F735F47 		.ascii "os_GetTaskPtr(task_name) ((task_t*) TASK_PTR[(task_name)])\0"
 3461      65745461 
 3461      736B5074 
 3461      72287461 
 3461      736B5F6E 
 3462 216c 04       		.byte	0x4
 3463 216d 04       		.byte	0x4
 3464              		.file 22 "E:/NeuOrga/Programmieren/c_cpp/github_os/input/src/os_base/../os_user_code/led.h"
 3465 216e 03       		.byte	0x3
 3466 216f 0E       		.uleb128 0xe
 3467 2170 16       		.uleb128 0x16
 3468 2171 01       		.byte	0x1
 3469 2172 02       		.uleb128 0x2
 3470 2173 5F4C4544 		.ascii "_LED_H_ \0"
 3470      5F485F20 
 3470      00
 3471 217c 04       		.byte	0x4
 3472 217d 04       		.byte	0x4
 3473              		.file 23 "E:/NeuOrga/Programmieren/c_cpp/github_os/input/src/os_base/os_common.h"
 3474 217e 03       		.byte	0x3
 3475 217f 02       		.uleb128 0x2
 3476 2180 17       		.uleb128 0x17
 3477 2181 04       		.byte	0x4
 3478              		.file 24 "E:/NeuOrga/Programmieren/c_cpp/github_os/input/src/os_base/os_task_common.h"
 3479 2182 03       		.byte	0x3
 3480 2183 03       		.uleb128 0x3
 3481 2184 18       		.uleb128 0x18
 3482 2185 04       		.byte	0x4
 3483 2186 03       		.byte	0x3
 3484 2187 04       		.uleb128 0x4
 3485 2188 05       		.uleb128 0x5
 3486 2189 01       		.byte	0x1
 3487 218a 02       		.uleb128 0x2
 3488 218b 5F6F735F 		.ascii "_os_task_scheduler_h_ \0"
 3488      7461736B 
 3488      5F736368 
 3488      6564756C 
 3488      65725F68 
 3489 21a2 01       		.byte	0x1
 3490 21a3 07       		.uleb128 0x7
GAS LISTING C:\Users\PRESID~1\AppData\Local\Temp\ccLfwevT.s 			page 102


 3491 21a4 5461736B 		.ascii "Task_0_ptr 0\0"
 3491      5F305F70 
 3491      74722030 
 3491      00
 3492 21b1 01       		.byte	0x1
 3493 21b2 08       		.uleb128 0x8
 3494 21b3 5461736B 		.ascii "Task_1_ptr 1\0"
 3494      5F315F70 
 3494      74722031 
 3494      00
 3495 21c0 01       		.byte	0x1
 3496 21c1 09       		.uleb128 0x9
 3497 21c2 5461736B 		.ascii "Task_2_ptr 2\0"
 3497      5F325F70 
 3497      74722032 
 3497      00
 3498 21cf 01       		.byte	0x1
 3499 21d0 0A       		.uleb128 0xa
 3500 21d1 5461736B 		.ascii "Task_3_ptr 3\0"
 3500      5F335F70 
 3500      74722033 
 3500      00
 3501 21de 01       		.byte	0x1
 3502 21df 0C       		.uleb128 0xc
 3503 21e0 4F535F53 		.ascii "OS_SaveTaskPtr(task_ptr,Task_n_ptr) \0"
 3503      61766554 
 3503      61736B50 
 3503      74722874 
 3503      61736B5F 
 3504 2205 04       		.byte	0x4
 3505 2206 03       		.byte	0x3
 3506 2207 05       		.uleb128 0x5
 3507 2208 06       		.uleb128 0x6
 3508 2209 01       		.byte	0x1
 3509 220a 02       		.uleb128 0x2
 3510 220b 5F6F735F 		.ascii "_os_task_queue_h_ \0"
 3510      7461736B 
 3510      5F717565 
 3510      75655F68 
 3510      5F2000
 3511 221e 01       		.byte	0x1
 3512 221f 06       		.uleb128 0x6
 3513 2220 46697273 		.ascii "First_task (0)\0"
 3513      745F7461 
 3513      736B2028 
 3513      302900
 3514 222f 01       		.byte	0x1
 3515 2230 07       		.uleb128 0x7
 3516 2231 4C617374 		.ascii "Last_task (MAX_RUN_QUEUE_SIZE-1)\0"
 3516      5F746173 
 3516      6B20284D 
 3516      41585F52 
 3516      554E5F51 
 3517 2252 01       		.byte	0x1
 3518 2253 09       		.uleb128 0x9
 3519 2254 466F725F 		.ascii "For_all_tasks_in_queue(var) for((var) = First_task; (var) <= Last_task; (var)++)\0"
 3519      616C6C5F 
GAS LISTING C:\Users\PRESID~1\AppData\Local\Temp\ccLfwevT.s 			page 103


 3519      7461736B 
 3519      735F696E 
 3519      5F717565 
 3520 22a5 04       		.byte	0x4
 3521              		.file 25 "E:/NeuOrga/Programmieren/c_cpp/github_os/input/src/os_base/os_stack.h"
 3522 22a6 03       		.byte	0x3
 3523 22a7 06       		.uleb128 0x6
 3524 22a8 19       		.uleb128 0x19
 3525 22a9 04       		.byte	0x4
 3526 22aa 04       		.byte	0x4
 3527 22ab 00       		.byte	0
 3528              		.section	.debug_line,"dr"
 3529              	Ldebug_line0:
 3530 0000 8C040000 		.section	.debug_str,"dr"
 3530      02001503 
 3530      00000101 
 3530      FB0E0D00 
 3530      01010101 
 3531              	LASF1:
 3532 0000 7461736B 		.ascii "task\0"
 3532      00
 3533              	LASF2:
 3534 0005 7461736B 		.ascii "task_ptr\0"
 3534      5F707472 
 3534      00
 3535              	LASF0:
 3536 000e 6578655F 		.ascii "exe_time\0"
 3536      74696D65 
 3536      00
 3537              		.ident	"GCC: (GNU) 4.9.3"
GAS LISTING C:\Users\PRESID~1\AppData\Local\Temp\ccLfwevT.s 			page 104


DEFINED SYMBOLS
                            *ABS*:00000000 os_task_scheduler.c
C:\Users\PRESID~1\AppData\Local\Temp\ccLfwevT.s:4      .bss:00000000 _TASK_STACK
C:\Users\PRESID~1\AppData\Local\Temp\ccLfwevT.s:5      .bss:000003e8 _LAST_CURRENT_TIME
C:\Users\PRESID~1\AppData\Local\Temp\ccLfwevT.s:8      .text:00000000 _OS_ACTIVATE_DISPATCHER
C:\Users\PRESID~1\AppData\Local\Temp\ccLfwevT.s:32     .text:00000012 _OS_SLEEPTASK
C:\Users\PRESID~1\AppData\Local\Temp\ccLfwevT.s:58     .text:0000002c _task_state_request
C:\Users\PRESID~1\AppData\Local\Temp\ccLfwevT.s:204    .text:00000123 _OS_ActivateTask
C:\Users\PRESID~1\AppData\Local\Temp\ccLfwevT.s:302    .text:000001e1 _OS_STARTTASK
C:\Users\PRESID~1\AppData\Local\Temp\ccLfwevT.s:441    .text:0000033d _OS_TERMINATE_TASK
C:\Users\PRESID~1\AppData\Local\Temp\ccLfwevT.s:522    .text:000003f7 _OS_TASK_DISPATCHER
C:\Users\PRESID~1\AppData\Local\Temp\ccLfwevT.s:556    .text:0000042c _TASK_0
C:\Users\PRESID~1\AppData\Local\Temp\ccLfwevT.s:573    .text:00000431 _TASK_1
C:\Users\PRESID~1\AppData\Local\Temp\ccLfwevT.s:596    .text:0000044c _TASK_2
C:\Users\PRESID~1\AppData\Local\Temp\ccLfwevT.s:613    .text:00000451 _TASK_3
C:\Users\PRESID~1\AppData\Local\Temp\ccLfwevT.s:631    .text:00000456 _OS_INIT_TASKS
C:\Users\PRESID~1\AppData\Local\Temp\ccLfwevT.s:1023   .bss:00000420 _task_0.1350
C:\Users\PRESID~1\AppData\Local\Temp\ccLfwevT.s:1018   .bss:000003ec _TASK_GROUP_1.1354
C:\Users\PRESID~1\AppData\Local\Temp\ccLfwevT.s:1024   .bss:00000480 _task_1.1351
C:\Users\PRESID~1\AppData\Local\Temp\ccLfwevT.s:1025   .bss:000004e0 _task_2.1352
C:\Users\PRESID~1\AppData\Local\Temp\ccLfwevT.s:1019   .bss:000003f4 _TASK_GROUP_2.1355
C:\Users\PRESID~1\AppData\Local\Temp\ccLfwevT.s:1026   .bss:00000540 _task_3.1353
C:\Users\PRESID~1\AppData\Local\Temp\ccLfwevT.s:1020   .bss:000003fc _TASK_GROUP_3.1356
C:\Users\PRESID~1\AppData\Local\Temp\ccLfwevT.s:712    .text:000005a7 _OS_TaskScheduler
C:\Users\PRESID~1\AppData\Local\Temp\ccLfwevT.s:1027   .bss:000005a0 _link_list_member.1366
C:\Users\PRESID~1\AppData\Local\Temp\ccLfwevT.s:1028   .bss:000005a4 _task.1363
C:\Users\PRESID~1\AppData\Local\Temp\ccLfwevT.s:1028   .bss:000005a8 _Winner_prio.1364
C:\Users\PRESID~1\AppData\Local\Temp\ccLfwevT.s:924    .text:000007b5 _ISR_TASK_DISPATCH_C0
C:\Users\PRESID~1\AppData\Local\Temp\ccLfwevT.s:948    .text:000007ce _ISR_TASK_DISPATCH_C1
C:\Users\PRESID~1\AppData\Local\Temp\ccLfwevT.s:972    .text:000007e7 _ISR_TASK_DISPATCH_C2
C:\Users\PRESID~1\AppData\Local\Temp\ccLfwevT.s:996    .text:00000800 _ISR_TASK_DISPATCH_C3
C:\Users\PRESID~1\AppData\Local\Temp\ccLfwevT.s:1021   .bss:00000404 _TASK_GROUP_4.1357
C:\Users\PRESID~1\AppData\Local\Temp\ccLfwevT.s:1022   .bss:0000040c _TASK_GROUP_5.1358

UNDEFINED SYMBOLS
_OS_STACK
_LLF_TCMP1_CONFIG
_LLF_INT_ENABLE
_Get_current_time
_OS_SET_SW_BUG
_AddToTaskQueue
_AddToLinkList
_UpdateLinkList
_AddToIdleTaskQueue
_Get_core_id
_OS_TASK_SAVE_SYSTEM_STACK
_OS_TASK_RESTORETASK_ENVIRONMENT
_SET_RUNNING_TASK
_OS_TASK_SAVETASK_ENVIRONMENT
_OS_TASK_RESTORE_SYSTEM_STACK
_GetRunningTask
_OS_INIT_TASK_QUEUE
_OS_INIT_TASK
_GetFromLinkList
_GetFromTaskQueue
_GetIdleTask
_LLF_ADD_2_TCMP
GAS LISTING C:\Users\PRESID~1\AppData\Local\Temp\ccLfwevT.s 			page 105


