GAS LISTING C:\Users\PRESID~1\AppData\Local\Temp\ccTAWfEI.s 			page 1


   1              		.file	"os_task_scheduler.c"
   2              		.text
   3              	Ltext0:
   4              		.globl	_OS_ACTIVATE_DISPATCHER
   6              	_OS_ACTIVATE_DISPATCHER:
   7              	LFB0:
   8              		.file 1 "E:/NeuOrga/Programmieren/c_cpp/github_os/input/src/os_base/os_task_scheduler.c"
   1:E:/NeuOrga/Programmieren/c_cpp/github_os/input/src/os_base\os_task_scheduler.c **** #include "os_firstinc.h"
   2:E:/NeuOrga/Programmieren/c_cpp/github_os/input/src/os_base\os_task_scheduler.c **** #include "os_common.h"
   3:E:/NeuOrga/Programmieren/c_cpp/github_os/input/src/os_base\os_task_scheduler.c **** #include "os_task_common.h"
   4:E:/NeuOrga/Programmieren/c_cpp/github_os/input/src/os_base\os_task_scheduler.c **** #include "os_task_scheduler.h"
   5:E:/NeuOrga/Programmieren/c_cpp/github_os/input/src/os_base\os_task_scheduler.c **** #include "os_task_queue.h"
   6:E:/NeuOrga/Programmieren/c_cpp/github_os/input/src/os_base\os_task_scheduler.c **** #include "os_stack.h"
   7:E:/NeuOrga/Programmieren/c_cpp/github_os/input/src/os_base\os_task_scheduler.c **** 
   8:E:/NeuOrga/Programmieren/c_cpp/github_os/input/src/os_base\os_task_scheduler.c **** /*
   9:E:/NeuOrga/Programmieren/c_cpp/github_os/input/src/os_base\os_task_scheduler.c **** 1. running     --(terminate)--> suspend
  10:E:/NeuOrga/Programmieren/c_cpp/github_os/input/src/os_base\os_task_scheduler.c **** 2. running     --(preempt  )--> ready
  11:E:/NeuOrga/Programmieren/c_cpp/github_os/input/src/os_base\os_task_scheduler.c **** 3. suspend     --(activate )--> ready
  12:E:/NeuOrga/Programmieren/c_cpp/github_os/input/src/os_base\os_task_scheduler.c **** 4. ready       --(start    )--> running
  13:E:/NeuOrga/Programmieren/c_cpp/github_os/input/src/os_base\os_task_scheduler.c **** 5. unspecified --(create   )--> suspend
  14:E:/NeuOrga/Programmieren/c_cpp/github_os/input/src/os_base\os_task_scheduler.c **** */
  15:E:/NeuOrga/Programmieren/c_cpp/github_os/input/src/os_base\os_task_scheduler.c **** 
  16:E:/NeuOrga/Programmieren/c_cpp/github_os/input/src/os_base\os_task_scheduler.c **** 
  17:E:/NeuOrga/Programmieren/c_cpp/github_os/input/src/os_base\os_task_scheduler.c **** Local void TASK_0(void* task_ptr);
  18:E:/NeuOrga/Programmieren/c_cpp/github_os/input/src/os_base\os_task_scheduler.c **** Local void TASK_1(void* task_ptr);
  19:E:/NeuOrga/Programmieren/c_cpp/github_os/input/src/os_base\os_task_scheduler.c **** Local void TASK_2(void* task_ptr);
  20:E:/NeuOrga/Programmieren/c_cpp/github_os/input/src/os_base\os_task_scheduler.c **** Local task_t** OS_TaskScheduler();
  21:E:/NeuOrga/Programmieren/c_cpp/github_os/input/src/os_base\os_task_scheduler.c **** 
  22:E:/NeuOrga/Programmieren/c_cpp/github_os/input/src/os_base\os_task_scheduler.c **** void OS_ACTIVATE_DISPATCHER(void)
  23:E:/NeuOrga/Programmieren/c_cpp/github_os/input/src/os_base\os_task_scheduler.c **** {
   9              		.loc 1 23 0
  10              		.cfi_startproc
  11 0000 55       		pushl	%ebp
  12              		.cfi_def_cfa_offset 8
  13              		.cfi_offset 5, -8
  14 0001 89E5     		movl	%esp, %ebp
  15              		.cfi_def_cfa_register 5
  24:E:/NeuOrga/Programmieren/c_cpp/github_os/input/src/os_base\os_task_scheduler.c **** 
  25:E:/NeuOrga/Programmieren/c_cpp/github_os/input/src/os_base\os_task_scheduler.c ****    /* configure the TCMP */
  26:E:/NeuOrga/Programmieren/c_cpp/github_os/input/src/os_base\os_task_scheduler.c ****    /*
  27:E:/NeuOrga/Programmieren/c_cpp/github_os/input/src/os_base\os_task_scheduler.c ****    Dispatcher function for Core 0:
  28:E:/NeuOrga/Programmieren/c_cpp/github_os/input/src/os_base\os_task_scheduler.c ****     -> ISR_TASK_DISPATCH_C0
  29:E:/NeuOrga/Programmieren/c_cpp/github_os/input/src/os_base\os_task_scheduler.c ****    Write Adresse into the config register (interrupts are requested by SWI/SVC???)
  30:E:/NeuOrga/Programmieren/c_cpp/github_os/input/src/os_base\os_task_scheduler.c ****    */
  31:E:/NeuOrga/Programmieren/c_cpp/github_os/input/src/os_base\os_task_scheduler.c ****    #define SYSTICK_CTRL_STAT_REG ((uint32*)0xE000E010)
  32:E:/NeuOrga/Programmieren/c_cpp/github_os/input/src/os_base\os_task_scheduler.c ****    #define SYSTICK_RLD_VAL_REG   ((uint32*)0xE000E014)
  33:E:/NeuOrga/Programmieren/c_cpp/github_os/input/src/os_base\os_task_scheduler.c ****    #define SYSTICK_CURRENT_VAL_REG ((uint32*)0xE000E018)
  34:E:/NeuOrga/Programmieren/c_cpp/github_os/input/src/os_base\os_task_scheduler.c ****    #define SYSTICK_STAT_REG_TICKINT ((uint32)0x00000002)
  35:E:/NeuOrga/Programmieren/c_cpp/github_os/input/src/os_base\os_task_scheduler.c ****    #define SYSTICK_STAT_REG_ENABLE  ((uint32)0x00000001)
  36:E:/NeuOrga/Programmieren/c_cpp/github_os/input/src/os_base\os_task_scheduler.c ****    #define LOOPTIME_IN_USEC ((uint32)10000u)
  37:E:/NeuOrga/Programmieren/c_cpp/github_os/input/src/os_base\os_task_scheduler.c ****    /*
  38:E:/NeuOrga/Programmieren/c_cpp/github_os/input/src/os_base\os_task_scheduler.c ****    CLOCK = HCLK / 8
  39:E:/NeuOrga/Programmieren/c_cpp/github_os/input/src/os_base\os_task_scheduler.c ****    vermutlich: CLOCK = 150Mhz / 8 = 18,75 Mhz
  40:E:/NeuOrga/Programmieren/c_cpp/github_os/input/src/os_base\os_task_scheduler.c ****    */
  41:E:/NeuOrga/Programmieren/c_cpp/github_os/input/src/os_base\os_task_scheduler.c ****    #if(CFG_PROCESSOR == cMCU_CORTEX_M4)
  42:E:/NeuOrga/Programmieren/c_cpp/github_os/input/src/os_base\os_task_scheduler.c ****    *SYSTICK_RLD_VAL_REG = (*SYSTICK_RLD_VAL_REG & 0xFF000000 )| (((uint32)MCU_CLOCK_IN_HZ / ((uint3
  43:E:/NeuOrga/Programmieren/c_cpp/github_os/input/src/os_base\os_task_scheduler.c ****    *SYSTICK_CURRENT_VAL_REG = ((uint32)0x00000000);
GAS LISTING C:\Users\PRESID~1\AppData\Local\Temp\ccTAWfEI.s 			page 2


  44:E:/NeuOrga/Programmieren/c_cpp/github_os/input/src/os_base\os_task_scheduler.c ****    *SYSTICK_CTRL_STAT_REG = *SYSTICK_CTRL_STAT_REG | SYSTICK_STAT_REG_TICKINT | SYSTICK_STAT_REG_EN
  45:E:/NeuOrga/Programmieren/c_cpp/github_os/input/src/os_base\os_task_scheduler.c ****    #endif
  46:E:/NeuOrga/Programmieren/c_cpp/github_os/input/src/os_base\os_task_scheduler.c **** }
  16              		.loc 1 46 0
  17 0003 5D       		popl	%ebp
  18              		.cfi_restore 5
  19              		.cfi_def_cfa 4, 4
  20 0004 C3       		ret
  21              		.cfi_endproc
  22              	LFE0:
  23              		.globl	_OS_SLEEPTASK
  25              	_OS_SLEEPTASK:
  26              	LFB1:
  47:E:/NeuOrga/Programmieren/c_cpp/github_os/input/src/os_base\os_task_scheduler.c **** 
  48:E:/NeuOrga/Programmieren/c_cpp/github_os/input/src/os_base\os_task_scheduler.c **** 
  49:E:/NeuOrga/Programmieren/c_cpp/github_os/input/src/os_base\os_task_scheduler.c **** void OS_SLEEPTASK(task_t* task, task_time_t millisec)
  50:E:/NeuOrga/Programmieren/c_cpp/github_os/input/src/os_base\os_task_scheduler.c **** {
  27              		.loc 1 50 0
  28              		.cfi_startproc
  29 0005 55       		pushl	%ebp
  30              		.cfi_def_cfa_offset 8
  31              		.cfi_offset 5, -8
  32 0006 89E5     		movl	%esp, %ebp
  33              		.cfi_def_cfa_register 5
  34 0008 83EC08   		subl	$8, %esp
  51:E:/NeuOrga/Programmieren/c_cpp/github_os/input/src/os_base\os_task_scheduler.c ****    task->WaitActUntil = Get_current_time() + millisec;
  35              		.loc 1 51 0
  36 000b E8000000 		call	_Get_current_time
  36      00
  37 0010 89C2     		movl	%eax, %edx
  38 0012 8B450C   		movl	12(%ebp), %eax
  39 0015 01C2     		addl	%eax, %edx
  40 0017 8B4508   		movl	8(%ebp), %eax
  41 001a 895008   		movl	%edx, 8(%eax)
  52:E:/NeuOrga/Programmieren/c_cpp/github_os/input/src/os_base\os_task_scheduler.c **** }
  42              		.loc 1 52 0
  43 001d C9       		leave
  44              		.cfi_restore 5
  45              		.cfi_def_cfa 4, 4
  46 001e C3       		ret
  47              		.cfi_endproc
  48              	LFE1:
  49              		.globl	_task_state_request
  51              	_task_state_request:
  52              	LFB2:
  53:E:/NeuOrga/Programmieren/c_cpp/github_os/input/src/os_base\os_task_scheduler.c **** 
  54:E:/NeuOrga/Programmieren/c_cpp/github_os/input/src/os_base\os_task_scheduler.c **** unsigned_char_t task_state_request(void* temp_task, task_state_t requested_state)
  55:E:/NeuOrga/Programmieren/c_cpp/github_os/input/src/os_base\os_task_scheduler.c **** {
  53              		.loc 1 55 0
  54              		.cfi_startproc
  55 001f 55       		pushl	%ebp
  56              		.cfi_def_cfa_offset 8
  57              		.cfi_offset 5, -8
  58 0020 89E5     		movl	%esp, %ebp
  59              		.cfi_def_cfa_register 5
  60 0022 83EC28   		subl	$40, %esp
  56:E:/NeuOrga/Programmieren/c_cpp/github_os/input/src/os_base\os_task_scheduler.c ****    unsigned_char_t RequestState = Rejected;
GAS LISTING C:\Users\PRESID~1\AppData\Local\Temp\ccTAWfEI.s 			page 3


  61              		.loc 1 56 0
  62 0025 C645F700 		movb	$0, -9(%ebp)
  57:E:/NeuOrga/Programmieren/c_cpp/github_os/input/src/os_base\os_task_scheduler.c **** 
  58:E:/NeuOrga/Programmieren/c_cpp/github_os/input/src/os_base\os_task_scheduler.c ****    task_t* task = (task_t*) temp_task;
  63              		.loc 1 58 0
  64 0029 8B4508   		movl	8(%ebp), %eax
  65 002c 8945F0   		movl	%eax, -16(%ebp)
  59:E:/NeuOrga/Programmieren/c_cpp/github_os/input/src/os_base\os_task_scheduler.c **** 
  60:E:/NeuOrga/Programmieren/c_cpp/github_os/input/src/os_base\os_task_scheduler.c ****    switch(requested_state)
  66              		.loc 1 60 0
  67 002f 8B450C   		movl	12(%ebp), %eax
  68 0032 83F801   		cmpl	$1, %eax
  69 0035 743E     		je	L5
  70 0037 83F801   		cmpl	$1, %eax
  71 003a 7213     		jb	L6
  72 003c 83F802   		cmpl	$2, %eax
  73 003f 0F848000 		je	L7
  73      0000
  74 0045 83F803   		cmpl	$3, %eax
  75 0048 745D     		je	L8
  61:E:/NeuOrga/Programmieren/c_cpp/github_os/input/src/os_base\os_task_scheduler.c ****    {
  62:E:/NeuOrga/Programmieren/c_cpp/github_os/input/src/os_base\os_task_scheduler.c ****    case Task_unspecified:/* 1. create new task */
  63:E:/NeuOrga/Programmieren/c_cpp/github_os/input/src/os_base\os_task_scheduler.c ****    {
  64:E:/NeuOrga/Programmieren/c_cpp/github_os/input/src/os_base\os_task_scheduler.c ****       switch(task->task_state)
  65:E:/NeuOrga/Programmieren/c_cpp/github_os/input/src/os_base\os_task_scheduler.c ****       {
  66:E:/NeuOrga/Programmieren/c_cpp/github_os/input/src/os_base\os_task_scheduler.c ****       case Task_ready:
  67:E:/NeuOrga/Programmieren/c_cpp/github_os/input/src/os_base\os_task_scheduler.c ****       case Task_running:
  68:E:/NeuOrga/Programmieren/c_cpp/github_os/input/src/os_base\os_task_scheduler.c ****       case Task_suspended:
  69:E:/NeuOrga/Programmieren/c_cpp/github_os/input/src/os_base\os_task_scheduler.c ****       {
  70:E:/NeuOrga/Programmieren/c_cpp/github_os/input/src/os_base\os_task_scheduler.c ****          RequestState = Rejected;
  71:E:/NeuOrga/Programmieren/c_cpp/github_os/input/src/os_base\os_task_scheduler.c ****          break;
  72:E:/NeuOrga/Programmieren/c_cpp/github_os/input/src/os_base\os_task_scheduler.c ****       }
  73:E:/NeuOrga/Programmieren/c_cpp/github_os/input/src/os_base\os_task_scheduler.c ****       default:
  74:E:/NeuOrga/Programmieren/c_cpp/github_os/input/src/os_base\os_task_scheduler.c ****       {
  75:E:/NeuOrga/Programmieren/c_cpp/github_os/input/src/os_base\os_task_scheduler.c ****          task->task_state = Task_unspecified;
  76:E:/NeuOrga/Programmieren/c_cpp/github_os/input/src/os_base\os_task_scheduler.c ****          RequestState = Accepted;
  77:E:/NeuOrga/Programmieren/c_cpp/github_os/input/src/os_base\os_task_scheduler.c ****          break;
  78:E:/NeuOrga/Programmieren/c_cpp/github_os/input/src/os_base\os_task_scheduler.c ****       }
  79:E:/NeuOrga/Programmieren/c_cpp/github_os/input/src/os_base\os_task_scheduler.c ****       }
  80:E:/NeuOrga/Programmieren/c_cpp/github_os/input/src/os_base\os_task_scheduler.c ****       break;
  81:E:/NeuOrga/Programmieren/c_cpp/github_os/input/src/os_base\os_task_scheduler.c ****    }
  82:E:/NeuOrga/Programmieren/c_cpp/github_os/input/src/os_base\os_task_scheduler.c ****    case Task_suspended:
  83:E:/NeuOrga/Programmieren/c_cpp/github_os/input/src/os_base\os_task_scheduler.c ****    {
  84:E:/NeuOrga/Programmieren/c_cpp/github_os/input/src/os_base\os_task_scheduler.c ****       switch(task->task_state)
  85:E:/NeuOrga/Programmieren/c_cpp/github_os/input/src/os_base\os_task_scheduler.c ****       {
  86:E:/NeuOrga/Programmieren/c_cpp/github_os/input/src/os_base\os_task_scheduler.c ****       case Task_unspecified: /* 2. create task transition */
  87:E:/NeuOrga/Programmieren/c_cpp/github_os/input/src/os_base\os_task_scheduler.c ****       {
  88:E:/NeuOrga/Programmieren/c_cpp/github_os/input/src/os_base\os_task_scheduler.c ****          /* no checks */
  89:E:/NeuOrga/Programmieren/c_cpp/github_os/input/src/os_base\os_task_scheduler.c ****          task->task_state = Task_suspended;
  90:E:/NeuOrga/Programmieren/c_cpp/github_os/input/src/os_base\os_task_scheduler.c ****          RequestState = Accepted;
  91:E:/NeuOrga/Programmieren/c_cpp/github_os/input/src/os_base\os_task_scheduler.c ****          break;
  92:E:/NeuOrga/Programmieren/c_cpp/github_os/input/src/os_base\os_task_scheduler.c ****       }
  93:E:/NeuOrga/Programmieren/c_cpp/github_os/input/src/os_base\os_task_scheduler.c ****       case Task_running: /* 3. terminate task */
  94:E:/NeuOrga/Programmieren/c_cpp/github_os/input/src/os_base\os_task_scheduler.c ****       {
  95:E:/NeuOrga/Programmieren/c_cpp/github_os/input/src/os_base\os_task_scheduler.c ****          task->task_state = Task_suspended;
  96:E:/NeuOrga/Programmieren/c_cpp/github_os/input/src/os_base\os_task_scheduler.c ****          RequestState = Accepted;
  97:E:/NeuOrga/Programmieren/c_cpp/github_os/input/src/os_base\os_task_scheduler.c ****          break;
GAS LISTING C:\Users\PRESID~1\AppData\Local\Temp\ccTAWfEI.s 			page 4


  98:E:/NeuOrga/Programmieren/c_cpp/github_os/input/src/os_base\os_task_scheduler.c ****       }
  99:E:/NeuOrga/Programmieren/c_cpp/github_os/input/src/os_base\os_task_scheduler.c ****       default:
 100:E:/NeuOrga/Programmieren/c_cpp/github_os/input/src/os_base\os_task_scheduler.c ****       {
 101:E:/NeuOrga/Programmieren/c_cpp/github_os/input/src/os_base\os_task_scheduler.c ****          /* no change in states allowed */
 102:E:/NeuOrga/Programmieren/c_cpp/github_os/input/src/os_base\os_task_scheduler.c ****          break;
 103:E:/NeuOrga/Programmieren/c_cpp/github_os/input/src/os_base\os_task_scheduler.c ****       }
 104:E:/NeuOrga/Programmieren/c_cpp/github_os/input/src/os_base\os_task_scheduler.c ****       }
 105:E:/NeuOrga/Programmieren/c_cpp/github_os/input/src/os_base\os_task_scheduler.c ****       break;
 106:E:/NeuOrga/Programmieren/c_cpp/github_os/input/src/os_base\os_task_scheduler.c ****    }
 107:E:/NeuOrga/Programmieren/c_cpp/github_os/input/src/os_base\os_task_scheduler.c ****    case Task_running:
 108:E:/NeuOrga/Programmieren/c_cpp/github_os/input/src/os_base\os_task_scheduler.c ****    {
 109:E:/NeuOrga/Programmieren/c_cpp/github_os/input/src/os_base\os_task_scheduler.c ****       switch(task->task_state)
 110:E:/NeuOrga/Programmieren/c_cpp/github_os/input/src/os_base\os_task_scheduler.c ****       {
 111:E:/NeuOrga/Programmieren/c_cpp/github_os/input/src/os_base\os_task_scheduler.c ****       case Task_ready: /* 4. start task transition */
 112:E:/NeuOrga/Programmieren/c_cpp/github_os/input/src/os_base\os_task_scheduler.c ****       {
 113:E:/NeuOrga/Programmieren/c_cpp/github_os/input/src/os_base\os_task_scheduler.c ****          task->task_state = Task_running;
 114:E:/NeuOrga/Programmieren/c_cpp/github_os/input/src/os_base\os_task_scheduler.c ****          RequestState   = Accepted;
 115:E:/NeuOrga/Programmieren/c_cpp/github_os/input/src/os_base\os_task_scheduler.c ****          break;
 116:E:/NeuOrga/Programmieren/c_cpp/github_os/input/src/os_base\os_task_scheduler.c ****       }
 117:E:/NeuOrga/Programmieren/c_cpp/github_os/input/src/os_base\os_task_scheduler.c ****       default:
 118:E:/NeuOrga/Programmieren/c_cpp/github_os/input/src/os_base\os_task_scheduler.c ****       {
 119:E:/NeuOrga/Programmieren/c_cpp/github_os/input/src/os_base\os_task_scheduler.c ****          /* no change in states allowed */
 120:E:/NeuOrga/Programmieren/c_cpp/github_os/input/src/os_base\os_task_scheduler.c ****          break;
 121:E:/NeuOrga/Programmieren/c_cpp/github_os/input/src/os_base\os_task_scheduler.c ****       }
 122:E:/NeuOrga/Programmieren/c_cpp/github_os/input/src/os_base\os_task_scheduler.c ****       }
 123:E:/NeuOrga/Programmieren/c_cpp/github_os/input/src/os_base\os_task_scheduler.c ****       break;
 124:E:/NeuOrga/Programmieren/c_cpp/github_os/input/src/os_base\os_task_scheduler.c **** 
 125:E:/NeuOrga/Programmieren/c_cpp/github_os/input/src/os_base\os_task_scheduler.c ****    }
 126:E:/NeuOrga/Programmieren/c_cpp/github_os/input/src/os_base\os_task_scheduler.c ****    case Task_ready:
 127:E:/NeuOrga/Programmieren/c_cpp/github_os/input/src/os_base\os_task_scheduler.c ****    {
 128:E:/NeuOrga/Programmieren/c_cpp/github_os/input/src/os_base\os_task_scheduler.c ****       switch(task->task_state)
 129:E:/NeuOrga/Programmieren/c_cpp/github_os/input/src/os_base\os_task_scheduler.c ****       {
 130:E:/NeuOrga/Programmieren/c_cpp/github_os/input/src/os_base\os_task_scheduler.c ****       case Task_suspended: /* activate task transition */
 131:E:/NeuOrga/Programmieren/c_cpp/github_os/input/src/os_base\os_task_scheduler.c ****       {
 132:E:/NeuOrga/Programmieren/c_cpp/github_os/input/src/os_base\os_task_scheduler.c ****          task->task_state = Task_ready;
 133:E:/NeuOrga/Programmieren/c_cpp/github_os/input/src/os_base\os_task_scheduler.c ****          RequestState   = Accepted;
 134:E:/NeuOrga/Programmieren/c_cpp/github_os/input/src/os_base\os_task_scheduler.c ****          break;
 135:E:/NeuOrga/Programmieren/c_cpp/github_os/input/src/os_base\os_task_scheduler.c ****       }
 136:E:/NeuOrga/Programmieren/c_cpp/github_os/input/src/os_base\os_task_scheduler.c ****       case Task_running: /* preempt task transition */
 137:E:/NeuOrga/Programmieren/c_cpp/github_os/input/src/os_base\os_task_scheduler.c ****       {
 138:E:/NeuOrga/Programmieren/c_cpp/github_os/input/src/os_base\os_task_scheduler.c ****          task->task_state = Task_ready;
 139:E:/NeuOrga/Programmieren/c_cpp/github_os/input/src/os_base\os_task_scheduler.c ****          RequestState   = Accepted;
 140:E:/NeuOrga/Programmieren/c_cpp/github_os/input/src/os_base\os_task_scheduler.c ****          break;
 141:E:/NeuOrga/Programmieren/c_cpp/github_os/input/src/os_base\os_task_scheduler.c ****       }
 142:E:/NeuOrga/Programmieren/c_cpp/github_os/input/src/os_base\os_task_scheduler.c ****       case Task_unspecified:
 143:E:/NeuOrga/Programmieren/c_cpp/github_os/input/src/os_base\os_task_scheduler.c ****       {
 144:E:/NeuOrga/Programmieren/c_cpp/github_os/input/src/os_base\os_task_scheduler.c ****           task->task_state = Task_ready;
 145:E:/NeuOrga/Programmieren/c_cpp/github_os/input/src/os_base\os_task_scheduler.c ****           RequestState = Accepted;
 146:E:/NeuOrga/Programmieren/c_cpp/github_os/input/src/os_base\os_task_scheduler.c ****           break;
 147:E:/NeuOrga/Programmieren/c_cpp/github_os/input/src/os_base\os_task_scheduler.c ****       }
 148:E:/NeuOrga/Programmieren/c_cpp/github_os/input/src/os_base\os_task_scheduler.c ****       default:
 149:E:/NeuOrga/Programmieren/c_cpp/github_os/input/src/os_base\os_task_scheduler.c ****       {
 150:E:/NeuOrga/Programmieren/c_cpp/github_os/input/src/os_base\os_task_scheduler.c ****          /* no change in states allowed */
 151:E:/NeuOrga/Programmieren/c_cpp/github_os/input/src/os_base\os_task_scheduler.c ****          break;
 152:E:/NeuOrga/Programmieren/c_cpp/github_os/input/src/os_base\os_task_scheduler.c ****       }
 153:E:/NeuOrga/Programmieren/c_cpp/github_os/input/src/os_base\os_task_scheduler.c ****       }
 154:E:/NeuOrga/Programmieren/c_cpp/github_os/input/src/os_base\os_task_scheduler.c ****       break;
GAS LISTING C:\Users\PRESID~1\AppData\Local\Temp\ccTAWfEI.s 			page 5


 155:E:/NeuOrga/Programmieren/c_cpp/github_os/input/src/os_base\os_task_scheduler.c ****    }
 156:E:/NeuOrga/Programmieren/c_cpp/github_os/input/src/os_base\os_task_scheduler.c ****    default:
 157:E:/NeuOrga/Programmieren/c_cpp/github_os/input/src/os_base\os_task_scheduler.c ****    {
 158:E:/NeuOrga/Programmieren/c_cpp/github_os/input/src/os_base\os_task_scheduler.c ****       break;
  76              		.loc 1 158 0
  77 004a E9BD0000 		jmp	L12
  77      00
  78              	L6:
  64:E:/NeuOrga/Programmieren/c_cpp/github_os/input/src/os_base\os_task_scheduler.c ****       {
  79              		.loc 1 64 0
  80 004f 8B45F0   		movl	-16(%ebp), %eax
  81 0052 8B4034   		movl	52(%eax), %eax
  82 0055 48       		decl	%eax
  83 0056 83F802   		cmpl	$2, %eax
  84 0059 7706     		ja	L9
  70:E:/NeuOrga/Programmieren/c_cpp/github_os/input/src/os_base\os_task_scheduler.c ****          break;
  85              		.loc 1 70 0
  86 005b C645F700 		movb	$0, -9(%ebp)
  71:E:/NeuOrga/Programmieren/c_cpp/github_os/input/src/os_base\os_task_scheduler.c ****       }
  87              		.loc 1 71 0
  88 005f EB0F     		jmp	L11
  89              	L9:
  75:E:/NeuOrga/Programmieren/c_cpp/github_os/input/src/os_base\os_task_scheduler.c ****          RequestState = Accepted;
  90              		.loc 1 75 0
  91 0061 8B45F0   		movl	-16(%ebp), %eax
  92 0064 C7403400 		movl	$0, 52(%eax)
  92      000000
  76:E:/NeuOrga/Programmieren/c_cpp/github_os/input/src/os_base\os_task_scheduler.c ****          break;
  93              		.loc 1 76 0
  94 006b C645F701 		movb	$1, -9(%ebp)
  77:E:/NeuOrga/Programmieren/c_cpp/github_os/input/src/os_base\os_task_scheduler.c ****       }
  95              		.loc 1 77 0
  96 006f 90       		nop
  97              	L11:
  80:E:/NeuOrga/Programmieren/c_cpp/github_os/input/src/os_base\os_task_scheduler.c ****    }
  98              		.loc 1 80 0
  99 0070 E9970000 		jmp	L12
  99      00
 100              	L5:
  84:E:/NeuOrga/Programmieren/c_cpp/github_os/input/src/os_base\os_task_scheduler.c ****       {
 101              		.loc 1 84 0
 102 0075 8B45F0   		movl	-16(%ebp), %eax
 103 0078 8B4034   		movl	52(%eax), %eax
 104 007b 85C0     		testl	%eax, %eax
 105 007d 7407     		je	L14
 106 007f 83F803   		cmpl	$3, %eax
 107 0082 7412     		je	L15
 102:E:/NeuOrga/Programmieren/c_cpp/github_os/input/src/os_base\os_task_scheduler.c ****       }
 108              		.loc 1 102 0
 109 0084 EB1F     		jmp	L16
 110              	L14:
  89:E:/NeuOrga/Programmieren/c_cpp/github_os/input/src/os_base\os_task_scheduler.c ****          RequestState = Accepted;
 111              		.loc 1 89 0
 112 0086 8B45F0   		movl	-16(%ebp), %eax
 113 0089 C7403401 		movl	$1, 52(%eax)
 113      000000
  90:E:/NeuOrga/Programmieren/c_cpp/github_os/input/src/os_base\os_task_scheduler.c ****          break;
GAS LISTING C:\Users\PRESID~1\AppData\Local\Temp\ccTAWfEI.s 			page 6


 114              		.loc 1 90 0
 115 0090 C645F701 		movb	$1, -9(%ebp)
  91:E:/NeuOrga/Programmieren/c_cpp/github_os/input/src/os_base\os_task_scheduler.c ****       }
 116              		.loc 1 91 0
 117 0094 EB0F     		jmp	L16
 118              	L15:
  95:E:/NeuOrga/Programmieren/c_cpp/github_os/input/src/os_base\os_task_scheduler.c ****          RequestState = Accepted;
 119              		.loc 1 95 0
 120 0096 8B45F0   		movl	-16(%ebp), %eax
 121 0099 C7403401 		movl	$1, 52(%eax)
 121      000000
  96:E:/NeuOrga/Programmieren/c_cpp/github_os/input/src/os_base\os_task_scheduler.c ****          break;
 122              		.loc 1 96 0
 123 00a0 C645F701 		movb	$1, -9(%ebp)
  97:E:/NeuOrga/Programmieren/c_cpp/github_os/input/src/os_base\os_task_scheduler.c ****       }
 124              		.loc 1 97 0
 125 00a4 90       		nop
 126              	L16:
 105:E:/NeuOrga/Programmieren/c_cpp/github_os/input/src/os_base\os_task_scheduler.c ****    }
 127              		.loc 1 105 0 discriminator 1
 128 00a5 EB65     		jmp	L12
 129              	L8:
 109:E:/NeuOrga/Programmieren/c_cpp/github_os/input/src/os_base\os_task_scheduler.c ****       {
 130              		.loc 1 109 0
 131 00a7 8B45F0   		movl	-16(%ebp), %eax
 132 00aa 8B4034   		movl	52(%eax), %eax
 133 00ad 83F802   		cmpl	$2, %eax
 134 00b0 7402     		je	L18
 120:E:/NeuOrga/Programmieren/c_cpp/github_os/input/src/os_base\os_task_scheduler.c ****       }
 135              		.loc 1 120 0
 136 00b2 EB0F     		jmp	L19
 137              	L18:
 113:E:/NeuOrga/Programmieren/c_cpp/github_os/input/src/os_base\os_task_scheduler.c ****          RequestState   = Accepted;
 138              		.loc 1 113 0
 139 00b4 8B45F0   		movl	-16(%ebp), %eax
 140 00b7 C7403403 		movl	$3, 52(%eax)
 140      000000
 114:E:/NeuOrga/Programmieren/c_cpp/github_os/input/src/os_base\os_task_scheduler.c ****          break;
 141              		.loc 1 114 0
 142 00be C645F701 		movb	$1, -9(%ebp)
 115:E:/NeuOrga/Programmieren/c_cpp/github_os/input/src/os_base\os_task_scheduler.c ****       }
 143              		.loc 1 115 0
 144 00c2 90       		nop
 145              	L19:
 123:E:/NeuOrga/Programmieren/c_cpp/github_os/input/src/os_base\os_task_scheduler.c **** 
 146              		.loc 1 123 0 discriminator 2
 147 00c3 EB47     		jmp	L12
 148              	L7:
 128:E:/NeuOrga/Programmieren/c_cpp/github_os/input/src/os_base\os_task_scheduler.c ****       {
 149              		.loc 1 128 0
 150 00c5 8B45F0   		movl	-16(%ebp), %eax
 151 00c8 8B4034   		movl	52(%eax), %eax
 152 00cb 83F801   		cmpl	$1, %eax
 153 00ce 740C     		je	L21
 154 00d0 83F801   		cmpl	$1, %eax
 155 00d3 7227     		jb	L22
 156 00d5 83F803   		cmpl	$3, %eax
GAS LISTING C:\Users\PRESID~1\AppData\Local\Temp\ccTAWfEI.s 			page 7


 157 00d8 7412     		je	L23
 151:E:/NeuOrga/Programmieren/c_cpp/github_os/input/src/os_base\os_task_scheduler.c ****       }
 158              		.loc 1 151 0
 159 00da EB2F     		jmp	L24
 160              	L21:
 132:E:/NeuOrga/Programmieren/c_cpp/github_os/input/src/os_base\os_task_scheduler.c ****          RequestState   = Accepted;
 161              		.loc 1 132 0
 162 00dc 8B45F0   		movl	-16(%ebp), %eax
 163 00df C7403402 		movl	$2, 52(%eax)
 163      000000
 133:E:/NeuOrga/Programmieren/c_cpp/github_os/input/src/os_base\os_task_scheduler.c ****          break;
 164              		.loc 1 133 0
 165 00e6 C645F701 		movb	$1, -9(%ebp)
 134:E:/NeuOrga/Programmieren/c_cpp/github_os/input/src/os_base\os_task_scheduler.c ****       }
 166              		.loc 1 134 0
 167 00ea EB1F     		jmp	L24
 168              	L23:
 138:E:/NeuOrga/Programmieren/c_cpp/github_os/input/src/os_base\os_task_scheduler.c ****          RequestState   = Accepted;
 169              		.loc 1 138 0
 170 00ec 8B45F0   		movl	-16(%ebp), %eax
 171 00ef C7403402 		movl	$2, 52(%eax)
 171      000000
 139:E:/NeuOrga/Programmieren/c_cpp/github_os/input/src/os_base\os_task_scheduler.c ****          break;
 172              		.loc 1 139 0
 173 00f6 C645F701 		movb	$1, -9(%ebp)
 140:E:/NeuOrga/Programmieren/c_cpp/github_os/input/src/os_base\os_task_scheduler.c ****       }
 174              		.loc 1 140 0
 175 00fa EB0F     		jmp	L24
 176              	L22:
 144:E:/NeuOrga/Programmieren/c_cpp/github_os/input/src/os_base\os_task_scheduler.c ****           RequestState = Accepted;
 177              		.loc 1 144 0
 178 00fc 8B45F0   		movl	-16(%ebp), %eax
 179 00ff C7403402 		movl	$2, 52(%eax)
 179      000000
 145:E:/NeuOrga/Programmieren/c_cpp/github_os/input/src/os_base\os_task_scheduler.c ****           break;
 180              		.loc 1 145 0
 181 0106 C645F701 		movb	$1, -9(%ebp)
 146:E:/NeuOrga/Programmieren/c_cpp/github_os/input/src/os_base\os_task_scheduler.c ****       }
 182              		.loc 1 146 0
 183 010a 90       		nop
 184              	L24:
 154:E:/NeuOrga/Programmieren/c_cpp/github_os/input/src/os_base\os_task_scheduler.c ****    }
 185              		.loc 1 154 0 discriminator 3
 186 010b 90       		nop
 187              	L12:
 159:E:/NeuOrga/Programmieren/c_cpp/github_os/input/src/os_base\os_task_scheduler.c ****    }
 160:E:/NeuOrga/Programmieren/c_cpp/github_os/input/src/os_base\os_task_scheduler.c ****    }
 161:E:/NeuOrga/Programmieren/c_cpp/github_os/input/src/os_base\os_task_scheduler.c ****    if(RequestState == Rejected)
 188              		.loc 1 161 0
 189 010c 807DF700 		cmpb	$0, -9(%ebp)
 190 0110 7514     		jne	L25
 162:E:/NeuOrga/Programmieren/c_cpp/github_os/input/src/os_base\os_task_scheduler.c ****    {
 163:E:/NeuOrga/Programmieren/c_cpp/github_os/input/src/os_base\os_task_scheduler.c ****       OS_SET_SW_BUG(os_bug_taskstate_request_denied, Func_TaskStateRequest);
 191              		.loc 1 163 0
 192 0112 C7442404 		movl	$13, 4(%esp)
 192      0D000000 
 193 011a C7042401 		movl	$1, (%esp)
GAS LISTING C:\Users\PRESID~1\AppData\Local\Temp\ccTAWfEI.s 			page 8


 193      000000
 194 0121 E8000000 		call	_OS_SET_SW_BUG
 194      00
 195              	L25:
 164:E:/NeuOrga/Programmieren/c_cpp/github_os/input/src/os_base\os_task_scheduler.c ****    }
 165:E:/NeuOrga/Programmieren/c_cpp/github_os/input/src/os_base\os_task_scheduler.c ****    return RequestState;
 196              		.loc 1 165 0
 197 0126 8A45F7   		movb	-9(%ebp), %al
 166:E:/NeuOrga/Programmieren/c_cpp/github_os/input/src/os_base\os_task_scheduler.c **** }
 198              		.loc 1 166 0
 199 0129 C9       		leave
 200              		.cfi_restore 5
 201              		.cfi_def_cfa 4, 4
 202 012a C3       		ret
 203              		.cfi_endproc
 204              	LFE2:
 205              		.globl	_OS_ActivateTask
 207              	_OS_ActivateTask:
 208              	LFB3:
 167:E:/NeuOrga/Programmieren/c_cpp/github_os/input/src/os_base\os_task_scheduler.c **** void OS_ActivateTask(task_t* task)
 168:E:/NeuOrga/Programmieren/c_cpp/github_os/input/src/os_base\os_task_scheduler.c **** {
 209              		.loc 1 168 0
 210              		.cfi_startproc
 211 012b 55       		pushl	%ebp
 212              		.cfi_def_cfa_offset 8
 213              		.cfi_offset 5, -8
 214 012c 89E5     		movl	%esp, %ebp
 215              		.cfi_def_cfa_register 5
 216 012e 83EC18   		subl	$24, %esp
 169:E:/NeuOrga/Programmieren/c_cpp/github_os/input/src/os_base\os_task_scheduler.c ****    /*
 170:E:/NeuOrga/Programmieren/c_cpp/github_os/input/src/os_base\os_task_scheduler.c ****    Activate Task:
 171:E:/NeuOrga/Programmieren/c_cpp/github_os/input/src/os_base\os_task_scheduler.c ****    - Disable Interrupts
 172:E:/NeuOrga/Programmieren/c_cpp/github_os/input/src/os_base\os_task_scheduler.c ****    - Add to schedule Queue
 173:E:/NeuOrga/Programmieren/c_cpp/github_os/input/src/os_base\os_task_scheduler.c ****    - Enable Interrupts
 174:E:/NeuOrga/Programmieren/c_cpp/github_os/input/src/os_base\os_task_scheduler.c **** 
 175:E:/NeuOrga/Programmieren/c_cpp/github_os/input/src/os_base\os_task_scheduler.c ****    in case of valid request, the content, where the "task_t* task" is point to is stored in TASK_RU
 176:E:/NeuOrga/Programmieren/c_cpp/github_os/input/src/os_base\os_task_scheduler.c ****    */
 177:E:/NeuOrga/Programmieren/c_cpp/github_os/input/src/os_base\os_task_scheduler.c ****    if(task != 0)
 217              		.loc 1 177 0
 218 0131 837D0800 		cmpl	$0, 8(%ebp)
 219 0135 0F849900 		je	L27
 219      0000
 178:E:/NeuOrga/Programmieren/c_cpp/github_os/input/src/os_base\os_task_scheduler.c ****    {
 179:E:/NeuOrga/Programmieren/c_cpp/github_os/input/src/os_base\os_task_scheduler.c ****       if(task->state_request(task, Task_ready)==Accepted)
 220              		.loc 1 179 0
 221 013b 8B4508   		movl	8(%ebp), %eax
 222 013e 8B4030   		movl	48(%eax), %eax
 223 0141 C7442404 		movl	$2, 4(%esp)
 223      02000000 
 224 0149 8B5508   		movl	8(%ebp), %edx
 225 014c 891424   		movl	%edx, (%esp)
 226 014f FFD0     		call	*%eax
 227 0151 3C01     		cmpb	$1, %al
 228 0153 756B     		jne	L29
 180:E:/NeuOrga/Programmieren/c_cpp/github_os/input/src/os_base\os_task_scheduler.c ****       {
 181:E:/NeuOrga/Programmieren/c_cpp/github_os/input/src/os_base\os_task_scheduler.c ****          DisableInterrupts();
 182:E:/NeuOrga/Programmieren/c_cpp/github_os/input/src/os_base\os_task_scheduler.c ****          /* 3. suspended to ready (add to runqueue) */
GAS LISTING C:\Users\PRESID~1\AppData\Local\Temp\ccTAWfEI.s 			page 9


 183:E:/NeuOrga/Programmieren/c_cpp/github_os/input/src/os_base\os_task_scheduler.c ****          if(task->IdleTask == False)
 229              		.loc 1 183 0
 230 0155 8B4508   		movl	8(%ebp), %eax
 231 0158 8A00     		movb	(%eax), %al
 232 015a 83E004   		andl	$4, %eax
 233 015d 84C0     		testb	%al, %al
 234 015f 7552     		jne	L30
 184:E:/NeuOrga/Programmieren/c_cpp/github_os/input/src/os_base\os_task_scheduler.c ****          {
 185:E:/NeuOrga/Programmieren/c_cpp/github_os/input/src/os_base\os_task_scheduler.c ****             if( (task->active == False)
 235              		.loc 1 185 0
 236 0161 8B4508   		movl	8(%ebp), %eax
 237 0164 8A00     		movb	(%eax), %al
 238 0166 83E001   		andl	$1, %eax
 239 0169 84C0     		testb	%al, %al
 240 016b 741C     		je	L31
 186:E:/NeuOrga/Programmieren/c_cpp/github_os/input/src/os_base\os_task_scheduler.c ****                   || ( (task->active == True) && (task->NrOfInsAllowed > task->NrOfInsActivated) )/
 241              		.loc 1 186 0
 242 016d 8B4508   		movl	8(%ebp), %eax
 243 0170 8A00     		movb	(%eax), %al
 244 0172 83E001   		andl	$1, %eax
 245 0175 84C0     		testb	%al, %al
 246 0177 745B     		je	L27
 247              		.loc 1 186 0 is_stmt 0 discriminator 1
 248 0179 8B4508   		movl	8(%ebp), %eax
 249 017c 8A5004   		movb	4(%eax), %dl
 250 017f 8B4508   		movl	8(%ebp), %eax
 251 0182 8A4005   		movb	5(%eax), %al
 252 0185 38C2     		cmpb	%al, %dl
 253 0187 764B     		jbe	L27
 254              	L31:
 187:E:/NeuOrga/Programmieren/c_cpp/github_os/input/src/os_base\os_task_scheduler.c ****               )
 188:E:/NeuOrga/Programmieren/c_cpp/github_os/input/src/os_base\os_task_scheduler.c ****             {
 189:E:/NeuOrga/Programmieren/c_cpp/github_os/input/src/os_base\os_task_scheduler.c ****                /* only activate if allowed by rule */
 190:E:/NeuOrga/Programmieren/c_cpp/github_os/input/src/os_base\os_task_scheduler.c ****                task = AddToTaskQueue(task);
 255              		.loc 1 190 0 is_stmt 1
 256 0189 8B4508   		movl	8(%ebp), %eax
 257 018c 890424   		movl	%eax, (%esp)
 258 018f E8000000 		call	_AddToTaskQueue
 258      00
 259 0194 894508   		movl	%eax, 8(%ebp)
 191:E:/NeuOrga/Programmieren/c_cpp/github_os/input/src/os_base\os_task_scheduler.c **** 
 192:E:/NeuOrga/Programmieren/c_cpp/github_os/input/src/os_base\os_task_scheduler.c ****                AddToSchedulingQueue(task);
 260              		.loc 1 192 0
 261 0197 8B4508   		movl	8(%ebp), %eax
 262 019a 890424   		movl	%eax, (%esp)
 263 019d E8000000 		call	_AddToSchedulingQueue
 263      00
 193:E:/NeuOrga/Programmieren/c_cpp/github_os/input/src/os_base\os_task_scheduler.c ****                task->NrOfInsActivated++;
 264              		.loc 1 193 0
 265 01a2 8B4508   		movl	8(%ebp), %eax
 266 01a5 8A4005   		movb	5(%eax), %al
 267 01a8 8D5001   		leal	1(%eax), %edx
 268 01ab 8B4508   		movl	8(%ebp), %eax
 269 01ae 885005   		movb	%dl, 5(%eax)
 270 01b1 EB21     		jmp	L27
 271              	L30:
 194:E:/NeuOrga/Programmieren/c_cpp/github_os/input/src/os_base\os_task_scheduler.c ****             }
GAS LISTING C:\Users\PRESID~1\AppData\Local\Temp\ccTAWfEI.s 			page 10


 195:E:/NeuOrga/Programmieren/c_cpp/github_os/input/src/os_base\os_task_scheduler.c ****             else
 196:E:/NeuOrga/Programmieren/c_cpp/github_os/input/src/os_base\os_task_scheduler.c ****             {
 197:E:/NeuOrga/Programmieren/c_cpp/github_os/input/src/os_base\os_task_scheduler.c ****                /* multiple activation bug occured */
 198:E:/NeuOrga/Programmieren/c_cpp/github_os/input/src/os_base\os_task_scheduler.c ****             }
 199:E:/NeuOrga/Programmieren/c_cpp/github_os/input/src/os_base\os_task_scheduler.c ****          }
 200:E:/NeuOrga/Programmieren/c_cpp/github_os/input/src/os_base\os_task_scheduler.c ****          else
 201:E:/NeuOrga/Programmieren/c_cpp/github_os/input/src/os_base\os_task_scheduler.c ****          {
 202:E:/NeuOrga/Programmieren/c_cpp/github_os/input/src/os_base\os_task_scheduler.c ****             AddToIdleTaskQueue(task);
 272              		.loc 1 202 0
 273 01b3 8B4508   		movl	8(%ebp), %eax
 274 01b6 890424   		movl	%eax, (%esp)
 275 01b9 E8000000 		call	_AddToIdleTaskQueue
 275      00
 276 01be EB14     		jmp	L27
 277              	L29:
 203:E:/NeuOrga/Programmieren/c_cpp/github_os/input/src/os_base\os_task_scheduler.c ****          }
 204:E:/NeuOrga/Programmieren/c_cpp/github_os/input/src/os_base\os_task_scheduler.c ****          EnableInterrupts();
 205:E:/NeuOrga/Programmieren/c_cpp/github_os/input/src/os_base\os_task_scheduler.c ****       }
 206:E:/NeuOrga/Programmieren/c_cpp/github_os/input/src/os_base\os_task_scheduler.c ****       else
 207:E:/NeuOrga/Programmieren/c_cpp/github_os/input/src/os_base\os_task_scheduler.c ****       {
 208:E:/NeuOrga/Programmieren/c_cpp/github_os/input/src/os_base\os_task_scheduler.c ****          OS_SET_SW_BUG(os_bug_taskstate_request_denied, Func_ActivateTask);
 278              		.loc 1 208 0
 279 01c0 C7442404 		movl	$12, 4(%esp)
 279      0C000000 
 280 01c8 C7042401 		movl	$1, (%esp)
 280      000000
 281 01cf E8000000 		call	_OS_SET_SW_BUG
 281      00
 282              	L27:
 209:E:/NeuOrga/Programmieren/c_cpp/github_os/input/src/os_base\os_task_scheduler.c ****       }
 210:E:/NeuOrga/Programmieren/c_cpp/github_os/input/src/os_base\os_task_scheduler.c ****    }
 211:E:/NeuOrga/Programmieren/c_cpp/github_os/input/src/os_base\os_task_scheduler.c **** }
 283              		.loc 1 211 0
 284 01d4 C9       		leave
 285              		.cfi_restore 5
 286              		.cfi_def_cfa 4, 4
 287 01d5 C3       		ret
 288              		.cfi_endproc
 289              	LFE3:
 290              		.globl	_OS_STARTTASK
 292              	_OS_STARTTASK:
 293              	LFB4:
 212:E:/NeuOrga/Programmieren/c_cpp/github_os/input/src/os_base\os_task_scheduler.c **** void OS_STARTTASK(task_t* task, scheduling_t* scheduling_task)
 213:E:/NeuOrga/Programmieren/c_cpp/github_os/input/src/os_base\os_task_scheduler.c **** {
 294              		.loc 1 213 0
 295              		.cfi_startproc
 296 01d6 55       		pushl	%ebp
 297              		.cfi_def_cfa_offset 8
 298              		.cfi_offset 5, -8
 299 01d7 89E5     		movl	%esp, %ebp
 300              		.cfi_def_cfa_register 5
 301 01d9 83EC18   		subl	$24, %esp
 214:E:/NeuOrga/Programmieren/c_cpp/github_os/input/src/os_base\os_task_scheduler.c ****    /* OS_STARTTASK
 215:E:/NeuOrga/Programmieren/c_cpp/github_os/input/src/os_base\os_task_scheduler.c ****    - Disable interrupts
 216:E:/NeuOrga/Programmieren/c_cpp/github_os/input/src/os_base\os_task_scheduler.c ****    - restore Environment
 217:E:/NeuOrga/Programmieren/c_cpp/github_os/input/src/os_base\os_task_scheduler.c ****    - enable interrupts
 218:E:/NeuOrga/Programmieren/c_cpp/github_os/input/src/os_base\os_task_scheduler.c **** 
GAS LISTING C:\Users\PRESID~1\AppData\Local\Temp\ccTAWfEI.s 			page 11


 219:E:/NeuOrga/Programmieren/c_cpp/github_os/input/src/os_base\os_task_scheduler.c ****    - Start Task
 220:E:/NeuOrga/Programmieren/c_cpp/github_os/input/src/os_base\os_task_scheduler.c ****     */
 221:E:/NeuOrga/Programmieren/c_cpp/github_os/input/src/os_base\os_task_scheduler.c ****    if(task != 0 && ((task->task_queued != False)||(task->IdleTask != False)))
 302              		.loc 1 221 0
 303 01dc 837D0800 		cmpl	$0, 8(%ebp)
 304 01e0 0F84EC00 		je	L34
 304      0000
 305              		.loc 1 221 0 is_stmt 0 discriminator 1
 306 01e6 8B4508   		movl	8(%ebp), %eax
 307 01e9 8A00     		movb	(%eax), %al
 308 01eb 83E002   		andl	$2, %eax
 309 01ee 84C0     		testb	%al, %al
 310 01f0 7510     		jne	L36
 311              		.loc 1 221 0 discriminator 2
 312 01f2 8B4508   		movl	8(%ebp), %eax
 313 01f5 8A00     		movb	(%eax), %al
 314 01f7 83E004   		andl	$4, %eax
 315 01fa 84C0     		testb	%al, %al
 316 01fc 0F84D000 		je	L34
 316      0000
 317              	L36:
 222:E:/NeuOrga/Programmieren/c_cpp/github_os/input/src/os_base\os_task_scheduler.c ****    {
 223:E:/NeuOrga/Programmieren/c_cpp/github_os/input/src/os_base\os_task_scheduler.c ****       if(task->state_request !=0)
 318              		.loc 1 223 0 is_stmt 1
 319 0202 8B4508   		movl	8(%ebp), %eax
 320 0205 8B4030   		movl	48(%eax), %eax
 321 0208 85C0     		testl	%eax, %eax
 322 020a 0F84AE00 		je	L37
 322      0000
 224:E:/NeuOrga/Programmieren/c_cpp/github_os/input/src/os_base\os_task_scheduler.c ****       {
 225:E:/NeuOrga/Programmieren/c_cpp/github_os/input/src/os_base\os_task_scheduler.c ****          if(task->state_request(task, Task_running)== Accepted)
 323              		.loc 1 225 0
 324 0210 8B4508   		movl	8(%ebp), %eax
 325 0213 8B4030   		movl	48(%eax), %eax
 326 0216 C7442404 		movl	$3, 4(%esp)
 326      03000000 
 327 021e 8B5508   		movl	8(%ebp), %edx
 328 0221 891424   		movl	%edx, (%esp)
 329 0224 FFD0     		call	*%eax
 330 0226 3C01     		cmpb	$1, %al
 331 0228 757E     		jne	L38
 226:E:/NeuOrga/Programmieren/c_cpp/github_os/input/src/os_base\os_task_scheduler.c ****          {
 227:E:/NeuOrga/Programmieren/c_cpp/github_os/input/src/os_base\os_task_scheduler.c ****             DisableInterrupts();
 228:E:/NeuOrga/Programmieren/c_cpp/github_os/input/src/os_base\os_task_scheduler.c ****             task->active =  True;
 332              		.loc 1 228 0
 333 022a 8B4508   		movl	8(%ebp), %eax
 334 022d 8A10     		movb	(%eax), %dl
 335 022f 83CA01   		orl	$1, %edx
 336 0232 8810     		movb	%dl, (%eax)
 229:E:/NeuOrga/Programmieren/c_cpp/github_os/input/src/os_base\os_task_scheduler.c ****             task->wait_time = 0;
 337              		.loc 1 229 0
 338 0234 8B4508   		movl	8(%ebp), %eax
 339 0237 C7400C00 		movl	$0, 12(%eax)
 339      000000
 230:E:/NeuOrga/Programmieren/c_cpp/github_os/input/src/os_base\os_task_scheduler.c ****             task->current_prio = task->default_prio;
 340              		.loc 1 230 0
 341 023e 8B4508   		movl	8(%ebp), %eax
GAS LISTING C:\Users\PRESID~1\AppData\Local\Temp\ccTAWfEI.s 			page 12


 342 0241 8A5025   		movb	37(%eax), %dl
 343 0244 8B4508   		movl	8(%ebp), %eax
 344 0247 885024   		movb	%dl, 36(%eax)
 231:E:/NeuOrga/Programmieren/c_cpp/github_os/input/src/os_base\os_task_scheduler.c ****             OS_TASK_SAVE_SYSTEM_STACK(&OS_STACK[GET_CORE_ID()][0]);
 345              		.loc 1 231 0
 346 024a E8000000 		call	_GET_CORE_ID
 346      00
 347 024f C1E008   		sall	$8, %eax
 348 0252 05000000 		addl	$_OS_STACK, %eax
 348      00
 349 0257 890424   		movl	%eax, (%esp)
 350 025a E8000000 		call	_OS_TASK_SAVE_SYSTEM_STACK
 350      00
 232:E:/NeuOrga/Programmieren/c_cpp/github_os/input/src/os_base\os_task_scheduler.c ****             OS_TASK_RESTORETASK_ENVIRONMENT(task);
 351              		.loc 1 232 0
 352 025f 8B4508   		movl	8(%ebp), %eax
 353 0262 890424   		movl	%eax, (%esp)
 354 0265 E8000000 		call	_OS_TASK_RESTORETASK_ENVIRONMENT
 354      00
 233:E:/NeuOrga/Programmieren/c_cpp/github_os/input/src/os_base\os_task_scheduler.c ****             task->start_time = Get_current_time();
 355              		.loc 1 233 0
 356 026a E8000000 		call	_Get_current_time
 356      00
 357 026f 89C2     		movl	%eax, %edx
 358 0271 8B4508   		movl	8(%ebp), %eax
 359 0274 895020   		movl	%edx, 32(%eax)
 234:E:/NeuOrga/Programmieren/c_cpp/github_os/input/src/os_base\os_task_scheduler.c ****             EnableInterrupts();
 235:E:/NeuOrga/Programmieren/c_cpp/github_os/input/src/os_base\os_task_scheduler.c **** 
 236:E:/NeuOrga/Programmieren/c_cpp/github_os/input/src/os_base\os_task_scheduler.c ****             /* task execution shall not happen with disabled interrupts */
 237:E:/NeuOrga/Programmieren/c_cpp/github_os/input/src/os_base\os_task_scheduler.c ****             SET_RUNNING_TASK(task, scheduling_task);
 360              		.loc 1 237 0
 361 0277 8B450C   		movl	12(%ebp), %eax
 362 027a 89442404 		movl	%eax, 4(%esp)
 363 027e 8B4508   		movl	8(%ebp), %eax
 364 0281 890424   		movl	%eax, (%esp)
 365 0284 E8000000 		call	_SET_RUNNING_TASK
 365      00
 238:E:/NeuOrga/Programmieren/c_cpp/github_os/input/src/os_base\os_task_scheduler.c ****             /* change to user mode... */
 239:E:/NeuOrga/Programmieren/c_cpp/github_os/input/src/os_base\os_task_scheduler.c ****             if(task->privilige_mode == ePriviligeMode_unpriviliged_thread_mode)
 366              		.loc 1 239 0
 367 0289 8B4508   		movl	8(%ebp), %eax
 368 028c 8B4060   		movl	96(%eax), %eax
 369 028f 85C0     		testl	%eax, %eax
 370 0291 7505     		jne	L39
 240:E:/NeuOrga/Programmieren/c_cpp/github_os/input/src/os_base\os_task_scheduler.c ****             {
 241:E:/NeuOrga/Programmieren/c_cpp/github_os/input/src/os_base\os_task_scheduler.c ****                LLF_CHANGE_TO_UNPRIVILIGED_THREAD_MODE();
 371              		.loc 1 241 0
 372 0293 E8000000 		call	_LLF_CHANGE_TO_UNPRIVILIGED_THREAD_MODE
 372      00
 373              	L39:
 242:E:/NeuOrga/Programmieren/c_cpp/github_os/input/src/os_base\os_task_scheduler.c ****             }
 243:E:/NeuOrga/Programmieren/c_cpp/github_os/input/src/os_base\os_task_scheduler.c **** 
 244:E:/NeuOrga/Programmieren/c_cpp/github_os/input/src/os_base\os_task_scheduler.c ****             /* call the task entry function */
 245:E:/NeuOrga/Programmieren/c_cpp/github_os/input/src/os_base\os_task_scheduler.c ****             task->fp(task);
 374              		.loc 1 245 0
 375 0298 8B4508   		movl	8(%ebp), %eax
 376 029b 8B402C   		movl	44(%eax), %eax
GAS LISTING C:\Users\PRESID~1\AppData\Local\Temp\ccTAWfEI.s 			page 13


 377 029e 8B5508   		movl	8(%ebp), %edx
 378 02a1 891424   		movl	%edx, (%esp)
 379 02a4 FFD0     		call	*%eax
 380 02a6 EB2A     		jmp	L34
 381              	L38:
 246:E:/NeuOrga/Programmieren/c_cpp/github_os/input/src/os_base\os_task_scheduler.c ****          }
 247:E:/NeuOrga/Programmieren/c_cpp/github_os/input/src/os_base\os_task_scheduler.c ****          else
 248:E:/NeuOrga/Programmieren/c_cpp/github_os/input/src/os_base\os_task_scheduler.c ****          {
 249:E:/NeuOrga/Programmieren/c_cpp/github_os/input/src/os_base\os_task_scheduler.c ****             OS_SET_SW_BUG(os_bug_taskstate_request_denied, Func_StartTask);
 382              		.loc 1 249 0
 383 02a8 C7442404 		movl	$5, 4(%esp)
 383      05000000 
 384 02b0 C7042401 		movl	$1, (%esp)
 384      000000
 385 02b7 E8000000 		call	_OS_SET_SW_BUG
 385      00
 386 02bc EB14     		jmp	L34
 387              	L37:
 250:E:/NeuOrga/Programmieren/c_cpp/github_os/input/src/os_base\os_task_scheduler.c ****          }
 251:E:/NeuOrga/Programmieren/c_cpp/github_os/input/src/os_base\os_task_scheduler.c **** 
 252:E:/NeuOrga/Programmieren/c_cpp/github_os/input/src/os_base\os_task_scheduler.c ****       }
 253:E:/NeuOrga/Programmieren/c_cpp/github_os/input/src/os_base\os_task_scheduler.c ****       else
 254:E:/NeuOrga/Programmieren/c_cpp/github_os/input/src/os_base\os_task_scheduler.c ****       {
 255:E:/NeuOrga/Programmieren/c_cpp/github_os/input/src/os_base\os_task_scheduler.c ****          OS_SET_SW_BUG(os_bug_null_pointer, Func_StartTask);
 388              		.loc 1 255 0
 389 02be C7442404 		movl	$5, 4(%esp)
 389      05000000 
 390 02c6 C7042402 		movl	$2, (%esp)
 390      000000
 391 02cd E8000000 		call	_OS_SET_SW_BUG
 391      00
 392              	L34:
 256:E:/NeuOrga/Programmieren/c_cpp/github_os/input/src/os_base\os_task_scheduler.c ****       }
 257:E:/NeuOrga/Programmieren/c_cpp/github_os/input/src/os_base\os_task_scheduler.c ****    }
 258:E:/NeuOrga/Programmieren/c_cpp/github_os/input/src/os_base\os_task_scheduler.c ****    /* allowed in case of empty QUEUE elements (queue elements which have no activate_task yet recei
 259:E:/NeuOrga/Programmieren/c_cpp/github_os/input/src/os_base\os_task_scheduler.c ****    else
 260:E:/NeuOrga/Programmieren/c_cpp/github_os/input/src/os_base\os_task_scheduler.c ****    {
 261:E:/NeuOrga/Programmieren/c_cpp/github_os/input/src/os_base\os_task_scheduler.c ****        OS_SET_SW_BUG(os_bug_null_pointer, Func_StartTask);
 262:E:/NeuOrga/Programmieren/c_cpp/github_os/input/src/os_base\os_task_scheduler.c ****    }
 263:E:/NeuOrga/Programmieren/c_cpp/github_os/input/src/os_base\os_task_scheduler.c ****    */
 264:E:/NeuOrga/Programmieren/c_cpp/github_os/input/src/os_base\os_task_scheduler.c **** }
 393              		.loc 1 264 0
 394 02d2 C9       		leave
 395              		.cfi_restore 5
 396              		.cfi_def_cfa 4, 4
 397 02d3 C3       		ret
 398              		.cfi_endproc
 399              	LFE4:
 400              		.globl	_OS_TERMINATE_TASK
 402              	_OS_TERMINATE_TASK:
 403              	LFB5:
 265:E:/NeuOrga/Programmieren/c_cpp/github_os/input/src/os_base\os_task_scheduler.c **** void OS_TERMINATE_TASK(task_t* task, scheduling_t* scheduling_task)
 266:E:/NeuOrga/Programmieren/c_cpp/github_os/input/src/os_base\os_task_scheduler.c **** {
 404              		.loc 1 266 0
 405              		.cfi_startproc
 406 02d4 55       		pushl	%ebp
 407              		.cfi_def_cfa_offset 8
GAS LISTING C:\Users\PRESID~1\AppData\Local\Temp\ccTAWfEI.s 			page 14


 408              		.cfi_offset 5, -8
 409 02d5 89E5     		movl	%esp, %ebp
 410              		.cfi_def_cfa_register 5
 411 02d7 83EC18   		subl	$24, %esp
 267:E:/NeuOrga/Programmieren/c_cpp/github_os/input/src/os_base\os_task_scheduler.c ****    /* Preempt task
 268:E:/NeuOrga/Programmieren/c_cpp/github_os/input/src/os_base\os_task_scheduler.c ****    - Disable Interrupts
 269:E:/NeuOrga/Programmieren/c_cpp/github_os/input/src/os_base\os_task_scheduler.c ****    - os_TASK_SAVETASK_ENVIRONMENT
 270:E:/NeuOrga/Programmieren/c_cpp/github_os/input/src/os_base\os_task_scheduler.c ****    - add to Schedule Queue / delete from RunQueue
 271:E:/NeuOrga/Programmieren/c_cpp/github_os/input/src/os_base\os_task_scheduler.c ****    - delete active flag
 272:E:/NeuOrga/Programmieren/c_cpp/github_os/input/src/os_base\os_task_scheduler.c ****    - enable Interrupts
 273:E:/NeuOrga/Programmieren/c_cpp/github_os/input/src/os_base\os_task_scheduler.c ****    */
 274:E:/NeuOrga/Programmieren/c_cpp/github_os/input/src/os_base\os_task_scheduler.c ****    if(task != 0)
 412              		.loc 1 274 0
 413 02da 837D0800 		cmpl	$0, 8(%ebp)
 414 02de 0F849E00 		je	L42
 414      0000
 275:E:/NeuOrga/Programmieren/c_cpp/github_os/input/src/os_base\os_task_scheduler.c ****    {
 276:E:/NeuOrga/Programmieren/c_cpp/github_os/input/src/os_base\os_task_scheduler.c ****       if(task->state_request != 0)
 415              		.loc 1 276 0
 416 02e4 8B4508   		movl	8(%ebp), %eax
 417 02e7 8B4030   		movl	48(%eax), %eax
 418 02ea 85C0     		testl	%eax, %eax
 419 02ec 747E     		je	L43
 277:E:/NeuOrga/Programmieren/c_cpp/github_os/input/src/os_base\os_task_scheduler.c ****       {
 278:E:/NeuOrga/Programmieren/c_cpp/github_os/input/src/os_base\os_task_scheduler.c ****          if(task->state_request(task, Task_ready)== Accepted)
 420              		.loc 1 278 0
 421 02ee 8B4508   		movl	8(%ebp), %eax
 422 02f1 8B4030   		movl	48(%eax), %eax
 423 02f4 C7442404 		movl	$2, 4(%esp)
 423      02000000 
 424 02fc 8B5508   		movl	8(%ebp), %edx
 425 02ff 891424   		movl	%edx, (%esp)
 426 0302 FFD0     		call	*%eax
 427 0304 3C01     		cmpb	$1, %al
 428 0306 754E     		jne	L44
 279:E:/NeuOrga/Programmieren/c_cpp/github_os/input/src/os_base\os_task_scheduler.c ****          {
 280:E:/NeuOrga/Programmieren/c_cpp/github_os/input/src/os_base\os_task_scheduler.c ****             DisableInterrupts();
 281:E:/NeuOrga/Programmieren/c_cpp/github_os/input/src/os_base\os_task_scheduler.c ****             OS_TASK_SAVETASK_ENVIRONMENT(task);
 429              		.loc 1 281 0
 430 0308 8B4508   		movl	8(%ebp), %eax
 431 030b 890424   		movl	%eax, (%esp)
 432 030e E8000000 		call	_OS_TASK_SAVETASK_ENVIRONMENT
 432      00
 282:E:/NeuOrga/Programmieren/c_cpp/github_os/input/src/os_base\os_task_scheduler.c ****             OS_TASK_RESTORE_SYSTEM_STACK(&OS_STACK[GET_CORE_ID()][0]);
 433              		.loc 1 282 0
 434 0313 E8000000 		call	_GET_CORE_ID
 434      00
 435 0318 C1E008   		sall	$8, %eax
 436 031b 05000000 		addl	$_OS_STACK, %eax
 436      00
 437 0320 890424   		movl	%eax, (%esp)
 438 0323 E8000000 		call	_OS_TASK_RESTORE_SYSTEM_STACK
 438      00
 283:E:/NeuOrga/Programmieren/c_cpp/github_os/input/src/os_base\os_task_scheduler.c ****             DeleteFromTaskQueue(task);
 439              		.loc 1 283 0
 440 0328 8B4508   		movl	8(%ebp), %eax
 441 032b 890424   		movl	%eax, (%esp)
GAS LISTING C:\Users\PRESID~1\AppData\Local\Temp\ccTAWfEI.s 			page 15


 442 032e E8000000 		call	_DeleteFromTaskQueue
 442      00
 284:E:/NeuOrga/Programmieren/c_cpp/github_os/input/src/os_base\os_task_scheduler.c ****             DeleteFromSchedulingQueue(scheduling_task);
 443              		.loc 1 284 0
 444 0333 8B450C   		movl	12(%ebp), %eax
 445 0336 890424   		movl	%eax, (%esp)
 446 0339 E8000000 		call	_DeleteFromSchedulingQueue
 446      00
 285:E:/NeuOrga/Programmieren/c_cpp/github_os/input/src/os_base\os_task_scheduler.c **** 
 286:E:/NeuOrga/Programmieren/c_cpp/github_os/input/src/os_base\os_task_scheduler.c ****             task->active = False;
 447              		.loc 1 286 0
 448 033e 8B4508   		movl	8(%ebp), %eax
 449 0341 8A10     		movb	(%eax), %dl
 450 0343 83E2FE   		andl	$-2, %edx
 451 0346 8810     		movb	%dl, (%eax)
 287:E:/NeuOrga/Programmieren/c_cpp/github_os/input/src/os_base\os_task_scheduler.c ****             /* reset the prio increase for waiting */
 288:E:/NeuOrga/Programmieren/c_cpp/github_os/input/src/os_base\os_task_scheduler.c ****             task->current_prio = task->default_prio;
 452              		.loc 1 288 0
 453 0348 8B4508   		movl	8(%ebp), %eax
 454 034b 8A5025   		movb	37(%eax), %dl
 455 034e 8B4508   		movl	8(%ebp), %eax
 456 0351 885024   		movb	%dl, 36(%eax)
 457 0354 EB40     		jmp	L41
 458              	L44:
 289:E:/NeuOrga/Programmieren/c_cpp/github_os/input/src/os_base\os_task_scheduler.c ****             EnableInterrupts();
 290:E:/NeuOrga/Programmieren/c_cpp/github_os/input/src/os_base\os_task_scheduler.c ****          }
 291:E:/NeuOrga/Programmieren/c_cpp/github_os/input/src/os_base\os_task_scheduler.c ****          else
 292:E:/NeuOrga/Programmieren/c_cpp/github_os/input/src/os_base\os_task_scheduler.c ****          {
 293:E:/NeuOrga/Programmieren/c_cpp/github_os/input/src/os_base\os_task_scheduler.c ****             OS_SET_SW_BUG(os_bug_taskstate_request_denied, Func_TerminateTask_Part1);
 459              		.loc 1 293 0
 460 0356 C7442404 		movl	$7, 4(%esp)
 460      07000000 
 461 035e C7042401 		movl	$1, (%esp)
 461      000000
 462 0365 E8000000 		call	_OS_SET_SW_BUG
 462      00
 463 036a EB2A     		jmp	L41
 464              	L43:
 294:E:/NeuOrga/Programmieren/c_cpp/github_os/input/src/os_base\os_task_scheduler.c ****          }
 295:E:/NeuOrga/Programmieren/c_cpp/github_os/input/src/os_base\os_task_scheduler.c ****       }
 296:E:/NeuOrga/Programmieren/c_cpp/github_os/input/src/os_base\os_task_scheduler.c ****       else
 297:E:/NeuOrga/Programmieren/c_cpp/github_os/input/src/os_base\os_task_scheduler.c ****       {
 298:E:/NeuOrga/Programmieren/c_cpp/github_os/input/src/os_base\os_task_scheduler.c ****          OS_SET_SW_BUG(os_bug_null_pointer, Func_TerminateTask_Part2);
 465              		.loc 1 298 0
 466 036c C7442404 		movl	$8, 4(%esp)
 466      08000000 
 467 0374 C7042402 		movl	$2, (%esp)
 467      000000
 468 037b E8000000 		call	_OS_SET_SW_BUG
 468      00
 469 0380 EB14     		jmp	L41
 470              	L42:
 299:E:/NeuOrga/Programmieren/c_cpp/github_os/input/src/os_base\os_task_scheduler.c ****       }
 300:E:/NeuOrga/Programmieren/c_cpp/github_os/input/src/os_base\os_task_scheduler.c **** 
 301:E:/NeuOrga/Programmieren/c_cpp/github_os/input/src/os_base\os_task_scheduler.c ****    }
 302:E:/NeuOrga/Programmieren/c_cpp/github_os/input/src/os_base\os_task_scheduler.c ****    else
 303:E:/NeuOrga/Programmieren/c_cpp/github_os/input/src/os_base\os_task_scheduler.c ****    {
GAS LISTING C:\Users\PRESID~1\AppData\Local\Temp\ccTAWfEI.s 			page 16


 304:E:/NeuOrga/Programmieren/c_cpp/github_os/input/src/os_base\os_task_scheduler.c ****       OS_SET_SW_BUG(os_bug_null_pointer, Func_TerminateTask_Part3);
 471              		.loc 1 304 0
 472 0382 C7442404 		movl	$9, 4(%esp)
 472      09000000 
 473 038a C7042402 		movl	$2, (%esp)
 473      000000
 474 0391 E8000000 		call	_OS_SET_SW_BUG
 474      00
 475              	L41:
 305:E:/NeuOrga/Programmieren/c_cpp/github_os/input/src/os_base\os_task_scheduler.c ****    }
 306:E:/NeuOrga/Programmieren/c_cpp/github_os/input/src/os_base\os_task_scheduler.c **** }
 476              		.loc 1 306 0
 477 0396 C9       		leave
 478              		.cfi_restore 5
 479              		.cfi_def_cfa 4, 4
 480 0397 C3       		ret
 481              		.cfi_endproc
 482              	LFE5:
 483              		.globl	_OS_TASK_DISPATCHER
 485              	_OS_TASK_DISPATCHER:
 486              	LFB6:
 307:E:/NeuOrga/Programmieren/c_cpp/github_os/input/src/os_base\os_task_scheduler.c **** void OS_TASK_DISPATCHER(void)
 308:E:/NeuOrga/Programmieren/c_cpp/github_os/input/src/os_base\os_task_scheduler.c **** {
 487              		.loc 1 308 0
 488              		.cfi_startproc
 489 0398 55       		pushl	%ebp
 490              		.cfi_def_cfa_offset 8
 491              		.cfi_offset 5, -8
 492 0399 89E5     		movl	%esp, %ebp
 493              		.cfi_def_cfa_register 5
 494 039b 83EC28   		subl	$40, %esp
 309:E:/NeuOrga/Programmieren/c_cpp/github_os/input/src/os_base\os_task_scheduler.c ****    /* called in an certain core context (Core_0/1/2/3)*/
 310:E:/NeuOrga/Programmieren/c_cpp/github_os/input/src/os_base\os_task_scheduler.c **** 
 311:E:/NeuOrga/Programmieren/c_cpp/github_os/input/src/os_base\os_task_scheduler.c **** 
 312:E:/NeuOrga/Programmieren/c_cpp/github_os/input/src/os_base\os_task_scheduler.c ****    /*
 313:E:/NeuOrga/Programmieren/c_cpp/github_os/input/src/os_base\os_task_scheduler.c ****    1. running     --(terminate)--> suspend
 314:E:/NeuOrga/Programmieren/c_cpp/github_os/input/src/os_base\os_task_scheduler.c ****    2. running     --(preempt  )--> ready
 315:E:/NeuOrga/Programmieren/c_cpp/github_os/input/src/os_base\os_task_scheduler.c ****    3. suspend     --(activate )--> ready
 316:E:/NeuOrga/Programmieren/c_cpp/github_os/input/src/os_base\os_task_scheduler.c ****    4. ready       --(start    )--> running
 317:E:/NeuOrga/Programmieren/c_cpp/github_os/input/src/os_base\os_task_scheduler.c ****    5. unspecified --(create   )--> suspend
 318:E:/NeuOrga/Programmieren/c_cpp/github_os/input/src/os_base\os_task_scheduler.c ****    */
 319:E:/NeuOrga/Programmieren/c_cpp/github_os/input/src/os_base\os_task_scheduler.c ****    scheduling_t* scheduling_task_ptr;
 320:E:/NeuOrga/Programmieren/c_cpp/github_os/input/src/os_base\os_task_scheduler.c ****    task_t* task = 0;
 495              		.loc 1 320 0
 496 039e C745F400 		movl	$0, -12(%ebp)
 496      000000
 321:E:/NeuOrga/Programmieren/c_cpp/github_os/input/src/os_base\os_task_scheduler.c ****    /* get running task */
 322:E:/NeuOrga/Programmieren/c_cpp/github_os/input/src/os_base\os_task_scheduler.c ****    task         = GetRunningTask();
 497              		.loc 1 322 0
 498 03a5 E8000000 		call	_GetRunningTask
 498      00
 499 03aa 8945F4   		movl	%eax, -12(%ebp)
 323:E:/NeuOrga/Programmieren/c_cpp/github_os/input/src/os_base\os_task_scheduler.c ****    scheduling_task_ptr = GetRunningSchedulingQueueElementPtr();
 500              		.loc 1 323 0
 501 03ad E8000000 		call	_GetRunningSchedulingQueueElementPtr
 501      00
 502 03b2 8945F0   		movl	%eax, -16(%ebp)
GAS LISTING C:\Users\PRESID~1\AppData\Local\Temp\ccTAWfEI.s 			page 17


 324:E:/NeuOrga/Programmieren/c_cpp/github_os/input/src/os_base\os_task_scheduler.c ****    /* Preempt Task */
 325:E:/NeuOrga/Programmieren/c_cpp/github_os/input/src/os_base\os_task_scheduler.c ****    if(task!=0 && scheduling_task_ptr != 0)
 503              		.loc 1 325 0
 504 03b5 837DF400 		cmpl	$0, -12(%ebp)
 505 03b9 7418     		je	L49
 506              		.loc 1 325 0 is_stmt 0 discriminator 1
 507 03bb 837DF000 		cmpl	$0, -16(%ebp)
 508 03bf 7412     		je	L49
 326:E:/NeuOrga/Programmieren/c_cpp/github_os/input/src/os_base\os_task_scheduler.c ****    {
 327:E:/NeuOrga/Programmieren/c_cpp/github_os/input/src/os_base\os_task_scheduler.c ****       OS_TERMINATE_TASK(task, scheduling_task_ptr);
 509              		.loc 1 327 0 is_stmt 1
 510 03c1 8B45F0   		movl	-16(%ebp), %eax
 511 03c4 89442404 		movl	%eax, 4(%esp)
 512 03c8 8B45F4   		movl	-12(%ebp), %eax
 513 03cb 890424   		movl	%eax, (%esp)
 514 03ce E801FFFF 		call	_OS_TERMINATE_TASK
 514      FF
 515              	L49:
 328:E:/NeuOrga/Programmieren/c_cpp/github_os/input/src/os_base\os_task_scheduler.c ****    }
 329:E:/NeuOrga/Programmieren/c_cpp/github_os/input/src/os_base\os_task_scheduler.c **** 
 330:E:/NeuOrga/Programmieren/c_cpp/github_os/input/src/os_base\os_task_scheduler.c **** 
 331:E:/NeuOrga/Programmieren/c_cpp/github_os/input/src/os_base\os_task_scheduler.c ****    /* ask for the next task to be activated... */
 332:E:/NeuOrga/Programmieren/c_cpp/github_os/input/src/os_base\os_task_scheduler.c ****    scheduling_task_ptr = OS_TaskScheduler();
 516              		.loc 1 332 0
 517 03d3 E8080200 		call	_OS_TaskScheduler
 517      00
 518 03d8 8945F0   		movl	%eax, -16(%ebp)
 333:E:/NeuOrga/Programmieren/c_cpp/github_os/input/src/os_base\os_task_scheduler.c ****    if(scheduling_task_ptr != 0)
 519              		.loc 1 333 0
 520 03db 837DF000 		cmpl	$0, -16(%ebp)
 521 03df 740E     		je	L50
 334:E:/NeuOrga/Programmieren/c_cpp/github_os/input/src/os_base\os_task_scheduler.c ****    {
 335:E:/NeuOrga/Programmieren/c_cpp/github_os/input/src/os_base\os_task_scheduler.c ****       task = GetFromTaskQueue(scheduling_task_ptr);
 522              		.loc 1 335 0
 523 03e1 8B45F0   		movl	-16(%ebp), %eax
 524 03e4 890424   		movl	%eax, (%esp)
 525 03e7 E8000000 		call	_GetFromTaskQueue
 525      00
 526 03ec 8945F4   		movl	%eax, -12(%ebp)
 527              	L50:
 336:E:/NeuOrga/Programmieren/c_cpp/github_os/input/src/os_base\os_task_scheduler.c ****    }
 337:E:/NeuOrga/Programmieren/c_cpp/github_os/input/src/os_base\os_task_scheduler.c ****    if(task != 0 && scheduling_task_ptr != 0)
 528              		.loc 1 337 0
 529 03ef 837DF400 		cmpl	$0, -12(%ebp)
 530 03f3 7418     		je	L48
 531              		.loc 1 337 0 is_stmt 0 discriminator 1
 532 03f5 837DF000 		cmpl	$0, -16(%ebp)
 533 03f9 7412     		je	L48
 338:E:/NeuOrga/Programmieren/c_cpp/github_os/input/src/os_base\os_task_scheduler.c ****    {
 339:E:/NeuOrga/Programmieren/c_cpp/github_os/input/src/os_base\os_task_scheduler.c ****        OS_STARTTASK(task, scheduling_task_ptr);
 534              		.loc 1 339 0 is_stmt 1
 535 03fb 8B45F0   		movl	-16(%ebp), %eax
 536 03fe 89442404 		movl	%eax, 4(%esp)
 537 0402 8B45F4   		movl	-12(%ebp), %eax
 538 0405 890424   		movl	%eax, (%esp)
 539 0408 E8C9FDFF 		call	_OS_STARTTASK
 539      FF
GAS LISTING C:\Users\PRESID~1\AppData\Local\Temp\ccTAWfEI.s 			page 18


 540              	L48:
 340:E:/NeuOrga/Programmieren/c_cpp/github_os/input/src/os_base\os_task_scheduler.c ****    }
 341:E:/NeuOrga/Programmieren/c_cpp/github_os/input/src/os_base\os_task_scheduler.c **** }
 541              		.loc 1 341 0
 542 040d C9       		leave
 543              		.cfi_restore 5
 544              		.cfi_def_cfa 4, 4
 545 040e C3       		ret
 546              		.cfi_endproc
 547              	LFE6:
 549              	_TASK_0:
 550              	LFB7:
 342:E:/NeuOrga/Programmieren/c_cpp/github_os/input/src/os_base\os_task_scheduler.c **** Local void TASK_0(void* task_ptr)
 343:E:/NeuOrga/Programmieren/c_cpp/github_os/input/src/os_base\os_task_scheduler.c **** {
 551              		.loc 1 343 0
 552              		.cfi_startproc
 553 040f 55       		pushl	%ebp
 554              		.cfi_def_cfa_offset 8
 555              		.cfi_offset 5, -8
 556 0410 89E5     		movl	%esp, %ebp
 557              		.cfi_def_cfa_register 5
 344:E:/NeuOrga/Programmieren/c_cpp/github_os/input/src/os_base\os_task_scheduler.c ****    ReferenceUnusedParameter(task_ptr);
 345:E:/NeuOrga/Programmieren/c_cpp/github_os/input/src/os_base\os_task_scheduler.c ****    HaltMcu();/* HLT will be ended by timer interrupt, what shall be done with the rest of the funct
 346:E:/NeuOrga/Programmieren/c_cpp/github_os/input/src/os_base\os_task_scheduler.c **** }
 558              		.loc 1 346 0
 559 0412 5D       		popl	%ebp
 560              		.cfi_restore 5
 561              		.cfi_def_cfa 4, 4
 562 0413 C3       		ret
 563              		.cfi_endproc
 564              	LFE7:
 566              	_TASK_1:
 567              	LFB8:
 347:E:/NeuOrga/Programmieren/c_cpp/github_os/input/src/os_base\os_task_scheduler.c **** Local void TASK_1(void* task_ptr)
 348:E:/NeuOrga/Programmieren/c_cpp/github_os/input/src/os_base\os_task_scheduler.c **** {
 568              		.loc 1 348 0
 569              		.cfi_startproc
 570 0414 55       		pushl	%ebp
 571              		.cfi_def_cfa_offset 8
 572              		.cfi_offset 5, -8
 573 0415 89E5     		movl	%esp, %ebp
 574              		.cfi_def_cfa_register 5
 575 0417 83EC18   		subl	$24, %esp
 349:E:/NeuOrga/Programmieren/c_cpp/github_os/input/src/os_base\os_task_scheduler.c ****    ReferenceUnusedParameter(task_ptr);
 350:E:/NeuOrga/Programmieren/c_cpp/github_os/input/src/os_base\os_task_scheduler.c ****    /* worker task */
 351:E:/NeuOrga/Programmieren/c_cpp/github_os/input/src/os_base\os_task_scheduler.c **** 
 352:E:/NeuOrga/Programmieren/c_cpp/github_os/input/src/os_base\os_task_scheduler.c ****    /* do some things */
 353:E:/NeuOrga/Programmieren/c_cpp/github_os/input/src/os_base\os_task_scheduler.c ****    /*while(1) {}*/
 354:E:/NeuOrga/Programmieren/c_cpp/github_os/input/src/os_base\os_task_scheduler.c ****    TASK1_CALL_NR++;
 576              		.loc 1 354 0
 577 041a A1000000 		movl	_TASK1_CALL_NR, %eax
 577      00
 578 041f 40       		incl	%eax
 579 0420 A3000000 		movl	%eax, _TASK1_CALL_NR
 579      00
 355:E:/NeuOrga/Programmieren/c_cpp/github_os/input/src/os_base\os_task_scheduler.c ****    OS_SLEEPTASK((task_t*)task_ptr, 10);
 580              		.loc 1 355 0
GAS LISTING C:\Users\PRESID~1\AppData\Local\Temp\ccTAWfEI.s 			page 19


 581 0425 C7442404 		movl	$10, 4(%esp)
 581      0A000000 
 582 042d 8B4508   		movl	8(%ebp), %eax
 583 0430 890424   		movl	%eax, (%esp)
 584 0433 E8CDFBFF 		call	_OS_SLEEPTASK
 584      FF
 356:E:/NeuOrga/Programmieren/c_cpp/github_os/input/src/os_base\os_task_scheduler.c ****    #if (CFG_PROCESSOR != cMCU_X86)
 357:E:/NeuOrga/Programmieren/c_cpp/github_os/input/src/os_base\os_task_scheduler.c ****    while(1) {}
 358:E:/NeuOrga/Programmieren/c_cpp/github_os/input/src/os_base\os_task_scheduler.c ****    #endif
 359:E:/NeuOrga/Programmieren/c_cpp/github_os/input/src/os_base\os_task_scheduler.c ****    /* end */
 360:E:/NeuOrga/Programmieren/c_cpp/github_os/input/src/os_base\os_task_scheduler.c **** }
 585              		.loc 1 360 0
 586 0438 C9       		leave
 587              		.cfi_restore 5
 588              		.cfi_def_cfa 4, 4
 589 0439 C3       		ret
 590              		.cfi_endproc
 591              	LFE8:
 593              	_TASK_2:
 594              	LFB9:
 361:E:/NeuOrga/Programmieren/c_cpp/github_os/input/src/os_base\os_task_scheduler.c **** Local void TASK_2(void* task_ptr)
 362:E:/NeuOrga/Programmieren/c_cpp/github_os/input/src/os_base\os_task_scheduler.c **** {
 595              		.loc 1 362 0
 596              		.cfi_startproc
 597 043a 55       		pushl	%ebp
 598              		.cfi_def_cfa_offset 8
 599              		.cfi_offset 5, -8
 600 043b 89E5     		movl	%esp, %ebp
 601              		.cfi_def_cfa_register 5
 363:E:/NeuOrga/Programmieren/c_cpp/github_os/input/src/os_base\os_task_scheduler.c ****    ReferenceUnusedParameter(task_ptr);
 364:E:/NeuOrga/Programmieren/c_cpp/github_os/input/src/os_base\os_task_scheduler.c ****    /* worker task */
 365:E:/NeuOrga/Programmieren/c_cpp/github_os/input/src/os_base\os_task_scheduler.c **** 
 366:E:/NeuOrga/Programmieren/c_cpp/github_os/input/src/os_base\os_task_scheduler.c ****    /* do some things */
 367:E:/NeuOrga/Programmieren/c_cpp/github_os/input/src/os_base\os_task_scheduler.c ****    TASK2_CALL_NR++;
 602              		.loc 1 367 0
 603 043d A1000000 		movl	_TASK2_CALL_NR, %eax
 603      00
 604 0442 40       		incl	%eax
 605 0443 A3000000 		movl	%eax, _TASK2_CALL_NR
 605      00
 368:E:/NeuOrga/Programmieren/c_cpp/github_os/input/src/os_base\os_task_scheduler.c ****    #if (CFG_PROCESSOR != cMCU_X86)
 369:E:/NeuOrga/Programmieren/c_cpp/github_os/input/src/os_base\os_task_scheduler.c ****    while(1) {}
 370:E:/NeuOrga/Programmieren/c_cpp/github_os/input/src/os_base\os_task_scheduler.c ****    #endif
 371:E:/NeuOrga/Programmieren/c_cpp/github_os/input/src/os_base\os_task_scheduler.c ****    /* end */
 372:E:/NeuOrga/Programmieren/c_cpp/github_os/input/src/os_base\os_task_scheduler.c **** }
 606              		.loc 1 372 0
 607 0448 5D       		popl	%ebp
 608              		.cfi_restore 5
 609              		.cfi_def_cfa 4, 4
 610 0449 C3       		ret
 611              		.cfi_endproc
 612              	LFE9:
 614              	_TASK_3:
 615              	LFB10:
 373:E:/NeuOrga/Programmieren/c_cpp/github_os/input/src/os_base\os_task_scheduler.c **** Local void TASK_3(void* task_ptr)
 374:E:/NeuOrga/Programmieren/c_cpp/github_os/input/src/os_base\os_task_scheduler.c **** {
 616              		.loc 1 374 0
GAS LISTING C:\Users\PRESID~1\AppData\Local\Temp\ccTAWfEI.s 			page 20


 617              		.cfi_startproc
 618 044a 55       		pushl	%ebp
 619              		.cfi_def_cfa_offset 8
 620              		.cfi_offset 5, -8
 621 044b 89E5     		movl	%esp, %ebp
 622              		.cfi_def_cfa_register 5
 375:E:/NeuOrga/Programmieren/c_cpp/github_os/input/src/os_base\os_task_scheduler.c ****    ReferenceUnusedParameter(task_ptr);
 376:E:/NeuOrga/Programmieren/c_cpp/github_os/input/src/os_base\os_task_scheduler.c ****    /* worker task */
 377:E:/NeuOrga/Programmieren/c_cpp/github_os/input/src/os_base\os_task_scheduler.c **** 
 378:E:/NeuOrga/Programmieren/c_cpp/github_os/input/src/os_base\os_task_scheduler.c ****    /* do some things */
 379:E:/NeuOrga/Programmieren/c_cpp/github_os/input/src/os_base\os_task_scheduler.c ****    TASK3_CALL_NR++;
 623              		.loc 1 379 0
 624 044d A1000000 		movl	_TASK3_CALL_NR, %eax
 624      00
 625 0452 40       		incl	%eax
 626 0453 A3000000 		movl	%eax, _TASK3_CALL_NR
 626      00
 380:E:/NeuOrga/Programmieren/c_cpp/github_os/input/src/os_base\os_task_scheduler.c ****    #if (CFG_PROCESSOR != cMCU_X86)
 381:E:/NeuOrga/Programmieren/c_cpp/github_os/input/src/os_base\os_task_scheduler.c ****    while(1) {}
 382:E:/NeuOrga/Programmieren/c_cpp/github_os/input/src/os_base\os_task_scheduler.c ****    #endif
 383:E:/NeuOrga/Programmieren/c_cpp/github_os/input/src/os_base\os_task_scheduler.c ****    /* end */
 384:E:/NeuOrga/Programmieren/c_cpp/github_os/input/src/os_base\os_task_scheduler.c **** }
 627              		.loc 1 384 0
 628 0458 5D       		popl	%ebp
 629              		.cfi_restore 5
 630              		.cfi_def_cfa 4, 4
 631 0459 C3       		ret
 632              		.cfi_endproc
 633              	LFE10:
 634              		.globl	_OS_INIT_TASKS
 636              	_OS_INIT_TASKS:
 637              	LFB11:
 385:E:/NeuOrga/Programmieren/c_cpp/github_os/input/src/os_base\os_task_scheduler.c **** void OS_INIT_TASKS(void)
 386:E:/NeuOrga/Programmieren/c_cpp/github_os/input/src/os_base\os_task_scheduler.c **** {
 638              		.loc 1 386 0
 639              		.cfi_startproc
 640 045a 55       		pushl	%ebp
 641              		.cfi_def_cfa_offset 8
 642              		.cfi_offset 5, -8
 643 045b 89E5     		movl	%esp, %ebp
 644              		.cfi_def_cfa_register 5
 645 045d 83EC48   		subl	$72, %esp
 387:E:/NeuOrga/Programmieren/c_cpp/github_os/input/src/os_base\os_task_scheduler.c ****    task_t* task_ptr = 0;
 646              		.loc 1 387 0
 647 0460 C745F400 		movl	$0, -12(%ebp)
 647      000000
 388:E:/NeuOrga/Programmieren/c_cpp/github_os/input/src/os_base\os_task_scheduler.c ****    LAST_CURRENT_TIME = Get_current_time();
 648              		.loc 1 388 0
 649 0467 E8000000 		call	_Get_current_time
 649      00
 650 046c A3000000 		movl	%eax, _LAST_CURRENT_TIME
 650      00
 389:E:/NeuOrga/Programmieren/c_cpp/github_os/input/src/os_base\os_task_scheduler.c **** 
 390:E:/NeuOrga/Programmieren/c_cpp/github_os/input/src/os_base\os_task_scheduler.c ****    ReferenceUnusedParameter (TASK_GROUP_1);
 391:E:/NeuOrga/Programmieren/c_cpp/github_os/input/src/os_base\os_task_scheduler.c ****    ReferenceUnusedParameter (TASK_GROUP_2);
 392:E:/NeuOrga/Programmieren/c_cpp/github_os/input/src/os_base\os_task_scheduler.c ****    ReferenceUnusedParameter (TASK_GROUP_3);
 393:E:/NeuOrga/Programmieren/c_cpp/github_os/input/src/os_base\os_task_scheduler.c ****    ReferenceUnusedParameter (TASK_GROUP_4);
GAS LISTING C:\Users\PRESID~1\AppData\Local\Temp\ccTAWfEI.s 			page 21


 394:E:/NeuOrga/Programmieren/c_cpp/github_os/input/src/os_base\os_task_scheduler.c ****    ReferenceUnusedParameter (TASK_GROUP_5);
 395:E:/NeuOrga/Programmieren/c_cpp/github_os/input/src/os_base\os_task_scheduler.c **** 
 396:E:/NeuOrga/Programmieren/c_cpp/github_os/input/src/os_base\os_task_scheduler.c ****     /*
 397:E:/NeuOrga/Programmieren/c_cpp/github_os/input/src/os_base\os_task_scheduler.c ****    set task_state for all tasks to Task_unspecified
 398:E:/NeuOrga/Programmieren/c_cpp/github_os/input/src/os_base\os_task_scheduler.c ****     */
 399:E:/NeuOrga/Programmieren/c_cpp/github_os/input/src/os_base\os_task_scheduler.c ****    OS_INIT_TASK_QUEUE();
 651              		.loc 1 399 0
 652 0471 E8000000 		call	_OS_INIT_TASK_QUEUE
 652      00
 400:E:/NeuOrga/Programmieren/c_cpp/github_os/input/src/os_base\os_task_scheduler.c **** 
 401:E:/NeuOrga/Programmieren/c_cpp/github_os/input/src/os_base\os_task_scheduler.c ****    /* setup idle task */
 402:E:/NeuOrga/Programmieren/c_cpp/github_os/input/src/os_base\os_task_scheduler.c ****    task_ptr = &TASK_0_VAR;
 653              		.loc 1 402 0
 654 0476 C745F400 		movl	$_TASK_0_VAR, -12(%ebp)
 654      000000
 403:E:/NeuOrga/Programmieren/c_cpp/github_os/input/src/os_base\os_task_scheduler.c ****    OS_INIT_TASK(task_ptr,                          /* task */
 655              		.loc 1 403 0
 656 047d C7442424 		movl	$0, 36(%esp)
 656      00000000 
 657 0485 C7442420 		movl	$0, 32(%esp)
 657      00000000 
 658 048d C744241C 		movl	$0, 28(%esp)
 658      00000000 
 659 0495 C7442418 		movl	$200, 24(%esp)
 659      C8000000 
 660 049d C7442414 		movl	$_TASK_STACK, 20(%esp)
 660      00000000 
 661 04a5 C7442410 		movl	$_TASK_GROUP_1, 16(%esp)
 661      00000000 
 662 04ad C744240C 		movl	$1, 12(%esp)
 662      01000000 
 663 04b5 C7442408 		movl	$1, 8(%esp)
 663      01000000 
 664 04bd C7442404 		movl	$_TASK_0, 4(%esp)
 664      0F040000 
 665 04c5 8B45F4   		movl	-12(%ebp), %eax
 666 04c8 890424   		movl	%eax, (%esp)
 667 04cb E8000000 		call	_OS_INIT_TASK
 667      00
 404:E:/NeuOrga/Programmieren/c_cpp/github_os/input/src/os_base\os_task_scheduler.c ****                 &TASK_0,                           /* Task Function*/
 405:E:/NeuOrga/Programmieren/c_cpp/github_os/input/src/os_base\os_task_scheduler.c ****                 1,                                 /* Nr of allowed instances*/
 406:E:/NeuOrga/Programmieren/c_cpp/github_os/input/src/os_base\os_task_scheduler.c ****                 True,                              /* Idle Task */
 407:E:/NeuOrga/Programmieren/c_cpp/github_os/input/src/os_base\os_task_scheduler.c ****                 &TASK_GROUP_1,                     /* Task Group */
 408:E:/NeuOrga/Programmieren/c_cpp/github_os/input/src/os_base\os_task_scheduler.c ****                 (unsigned_char_t*)&TASK_STACK[0],  /* Task_stack */
 409:E:/NeuOrga/Programmieren/c_cpp/github_os/input/src/os_base\os_task_scheduler.c ****                 200,                                /* Stack Size */
 410:E:/NeuOrga/Programmieren/c_cpp/github_os/input/src/os_base\os_task_scheduler.c ****                 ePriviligeMode_unpriviliged_thread_mode, /* Unpriviliged Thread Mode */
 411:E:/NeuOrga/Programmieren/c_cpp/github_os/input/src/os_base\os_task_scheduler.c ****                 Core0,                            /* Cortex M4 has only 1 core */
 412:E:/NeuOrga/Programmieren/c_cpp/github_os/input/src/os_base\os_task_scheduler.c ****                 0                                   /* default prio */
 413:E:/NeuOrga/Programmieren/c_cpp/github_os/input/src/os_base\os_task_scheduler.c ****                );
 414:E:/NeuOrga/Programmieren/c_cpp/github_os/input/src/os_base\os_task_scheduler.c ****    OS_SaveTaskPtr(task_ptr, Task_0_ptr);
 415:E:/NeuOrga/Programmieren/c_cpp/github_os/input/src/os_base\os_task_scheduler.c **** 
 416:E:/NeuOrga/Programmieren/c_cpp/github_os/input/src/os_base\os_task_scheduler.c ****    /* setup worker task */
 417:E:/NeuOrga/Programmieren/c_cpp/github_os/input/src/os_base\os_task_scheduler.c ****    task_ptr = &TASK_1_VAR;
 668              		.loc 1 417 0
 669 04d0 C745F400 		movl	$_TASK_1_VAR, -12(%ebp)
 669      000000
 418:E:/NeuOrga/Programmieren/c_cpp/github_os/input/src/os_base\os_task_scheduler.c ****    OS_INIT_TASK(task_ptr,      /* task */
GAS LISTING C:\Users\PRESID~1\AppData\Local\Temp\ccTAWfEI.s 			page 22


 670              		.loc 1 418 0
 671 04d7 C7442424 		movl	$1, 36(%esp)
 671      01000000 
 672 04df C7442420 		movl	$0, 32(%esp)
 672      00000000 
 673 04e7 C744241C 		movl	$0, 28(%esp)
 673      00000000 
 674 04ef C7442418 		movl	$200, 24(%esp)
 674      C8000000 
 675 04f7 C7442414 		movl	$_TASK_STACK+200, 20(%esp)
 675      C8000000 
 676 04ff C7442410 		movl	$_TASK_GROUP_1, 16(%esp)
 676      00000000 
 677 0507 C744240C 		movl	$0, 12(%esp)
 677      00000000 
 678 050f C7442408 		movl	$1, 8(%esp)
 678      01000000 
 679 0517 C7442404 		movl	$_TASK_1, 4(%esp)
 679      14040000 
 680 051f 8B45F4   		movl	-12(%ebp), %eax
 681 0522 890424   		movl	%eax, (%esp)
 682 0525 E8000000 		call	_OS_INIT_TASK
 682      00
 419:E:/NeuOrga/Programmieren/c_cpp/github_os/input/src/os_base\os_task_scheduler.c ****                 &TASK_1,       /* Task Function*/
 420:E:/NeuOrga/Programmieren/c_cpp/github_os/input/src/os_base\os_task_scheduler.c ****                 1,             /* Nr of allowed instances*/
 421:E:/NeuOrga/Programmieren/c_cpp/github_os/input/src/os_base\os_task_scheduler.c ****                 False,          /* Idle Task */
 422:E:/NeuOrga/Programmieren/c_cpp/github_os/input/src/os_base\os_task_scheduler.c ****                 &TASK_GROUP_1, /* Task Group */
 423:E:/NeuOrga/Programmieren/c_cpp/github_os/input/src/os_base\os_task_scheduler.c ****                 (unsigned_char_t*)&TASK_STACK[1],/* Task_stack */
 424:E:/NeuOrga/Programmieren/c_cpp/github_os/input/src/os_base\os_task_scheduler.c ****                 200,            /* Stack Size */
 425:E:/NeuOrga/Programmieren/c_cpp/github_os/input/src/os_base\os_task_scheduler.c ****                 ePriviligeMode_unpriviliged_thread_mode, /* Unpriviliged Thread Mode */
 426:E:/NeuOrga/Programmieren/c_cpp/github_os/input/src/os_base\os_task_scheduler.c ****                 Core0,
 427:E:/NeuOrga/Programmieren/c_cpp/github_os/input/src/os_base\os_task_scheduler.c ****                 1                                   /* default prio */
 428:E:/NeuOrga/Programmieren/c_cpp/github_os/input/src/os_base\os_task_scheduler.c ****                );
 429:E:/NeuOrga/Programmieren/c_cpp/github_os/input/src/os_base\os_task_scheduler.c ****    OS_SaveTaskPtr(task_ptr, Task_1_ptr);
 430:E:/NeuOrga/Programmieren/c_cpp/github_os/input/src/os_base\os_task_scheduler.c **** 
 431:E:/NeuOrga/Programmieren/c_cpp/github_os/input/src/os_base\os_task_scheduler.c ****    /* setup worker task */
 432:E:/NeuOrga/Programmieren/c_cpp/github_os/input/src/os_base\os_task_scheduler.c ****    task_ptr = &TASK_2_VAR;
 683              		.loc 1 432 0
 684 052a C745F400 		movl	$_TASK_2_VAR, -12(%ebp)
 684      000000
 433:E:/NeuOrga/Programmieren/c_cpp/github_os/input/src/os_base\os_task_scheduler.c ****    OS_INIT_TASK(task_ptr,      /* task */
 685              		.loc 1 433 0
 686 0531 C7442424 		movl	$2, 36(%esp)
 686      02000000 
 687 0539 C7442420 		movl	$0, 32(%esp)
 687      00000000 
 688 0541 C744241C 		movl	$0, 28(%esp)
 688      00000000 
 689 0549 C7442418 		movl	$200, 24(%esp)
 689      C8000000 
 690 0551 C7442414 		movl	$_TASK_STACK+400, 20(%esp)
 690      90010000 
 691 0559 C7442410 		movl	$_TASK_GROUP_2, 16(%esp)
 691      00000000 
 692 0561 C744240C 		movl	$0, 12(%esp)
 692      00000000 
 693 0569 C7442408 		movl	$1, 8(%esp)
GAS LISTING C:\Users\PRESID~1\AppData\Local\Temp\ccTAWfEI.s 			page 23


 693      01000000 
 694 0571 C7442404 		movl	$_TASK_2, 4(%esp)
 694      3A040000 
 695 0579 8B45F4   		movl	-12(%ebp), %eax
 696 057c 890424   		movl	%eax, (%esp)
 697 057f E8000000 		call	_OS_INIT_TASK
 697      00
 434:E:/NeuOrga/Programmieren/c_cpp/github_os/input/src/os_base\os_task_scheduler.c ****                 &TASK_2,       /* Task Function*/
 435:E:/NeuOrga/Programmieren/c_cpp/github_os/input/src/os_base\os_task_scheduler.c ****                 1,             /* Nr of allowed instances*/
 436:E:/NeuOrga/Programmieren/c_cpp/github_os/input/src/os_base\os_task_scheduler.c ****                 False,          /* Idle Task */
 437:E:/NeuOrga/Programmieren/c_cpp/github_os/input/src/os_base\os_task_scheduler.c ****                 &TASK_GROUP_2, /* Task Group */
 438:E:/NeuOrga/Programmieren/c_cpp/github_os/input/src/os_base\os_task_scheduler.c ****                 (unsigned_char_t*)&TASK_STACK[2],/* Task_stack */
 439:E:/NeuOrga/Programmieren/c_cpp/github_os/input/src/os_base\os_task_scheduler.c ****                 200,            /* Stack Size */
 440:E:/NeuOrga/Programmieren/c_cpp/github_os/input/src/os_base\os_task_scheduler.c ****                 ePriviligeMode_unpriviliged_thread_mode, /* Unpriviliged Thread Mode */
 441:E:/NeuOrga/Programmieren/c_cpp/github_os/input/src/os_base\os_task_scheduler.c ****                 Core0,
 442:E:/NeuOrga/Programmieren/c_cpp/github_os/input/src/os_base\os_task_scheduler.c ****                 2                                   /* default prio */
 443:E:/NeuOrga/Programmieren/c_cpp/github_os/input/src/os_base\os_task_scheduler.c ****                );
 444:E:/NeuOrga/Programmieren/c_cpp/github_os/input/src/os_base\os_task_scheduler.c ****    OS_SaveTaskPtr(task_ptr, Task_2_ptr);
 445:E:/NeuOrga/Programmieren/c_cpp/github_os/input/src/os_base\os_task_scheduler.c **** 
 446:E:/NeuOrga/Programmieren/c_cpp/github_os/input/src/os_base\os_task_scheduler.c ****    /* setup worker task */
 447:E:/NeuOrga/Programmieren/c_cpp/github_os/input/src/os_base\os_task_scheduler.c ****    task_ptr = &TASK_3_VAR;
 698              		.loc 1 447 0
 699 0584 C745F400 		movl	$_TASK_3_VAR, -12(%ebp)
 699      000000
 448:E:/NeuOrga/Programmieren/c_cpp/github_os/input/src/os_base\os_task_scheduler.c ****    OS_INIT_TASK(task_ptr,      /* task */
 700              		.loc 1 448 0
 701 058b C7442424 		movl	$3, 36(%esp)
 701      03000000 
 702 0593 C7442420 		movl	$0, 32(%esp)
 702      00000000 
 703 059b C744241C 		movl	$0, 28(%esp)
 703      00000000 
 704 05a3 C7442418 		movl	$200, 24(%esp)
 704      C8000000 
 705 05ab C7442414 		movl	$_TASK_STACK+600, 20(%esp)
 705      58020000 
 706 05b3 C7442410 		movl	$_TASK_GROUP_3, 16(%esp)
 706      00000000 
 707 05bb C744240C 		movl	$0, 12(%esp)
 707      00000000 
 708 05c3 C7442408 		movl	$1, 8(%esp)
 708      01000000 
 709 05cb C7442404 		movl	$_TASK_3, 4(%esp)
 709      4A040000 
 710 05d3 8B45F4   		movl	-12(%ebp), %eax
 711 05d6 890424   		movl	%eax, (%esp)
 712 05d9 E8000000 		call	_OS_INIT_TASK
 712      00
 449:E:/NeuOrga/Programmieren/c_cpp/github_os/input/src/os_base\os_task_scheduler.c ****                 &TASK_3,       /* Task Function*/
 450:E:/NeuOrga/Programmieren/c_cpp/github_os/input/src/os_base\os_task_scheduler.c ****                 1,             /* Nr of allowed instances*/
 451:E:/NeuOrga/Programmieren/c_cpp/github_os/input/src/os_base\os_task_scheduler.c ****                 False,          /* Idle Task */
 452:E:/NeuOrga/Programmieren/c_cpp/github_os/input/src/os_base\os_task_scheduler.c ****                 &TASK_GROUP_3, /* Task Group */
 453:E:/NeuOrga/Programmieren/c_cpp/github_os/input/src/os_base\os_task_scheduler.c ****                 (unsigned_char_t*)&TASK_STACK[3],/* Task_stack */
 454:E:/NeuOrga/Programmieren/c_cpp/github_os/input/src/os_base\os_task_scheduler.c ****                 200,           /* Stack Size */
 455:E:/NeuOrga/Programmieren/c_cpp/github_os/input/src/os_base\os_task_scheduler.c ****                 ePriviligeMode_unpriviliged_thread_mode, /* Unpriviliged Thread Mode */
 456:E:/NeuOrga/Programmieren/c_cpp/github_os/input/src/os_base\os_task_scheduler.c ****                 Core0,
 457:E:/NeuOrga/Programmieren/c_cpp/github_os/input/src/os_base\os_task_scheduler.c ****                 3                                   /* default prio */
GAS LISTING C:\Users\PRESID~1\AppData\Local\Temp\ccTAWfEI.s 			page 24


 458:E:/NeuOrga/Programmieren/c_cpp/github_os/input/src/os_base\os_task_scheduler.c ****                );
 459:E:/NeuOrga/Programmieren/c_cpp/github_os/input/src/os_base\os_task_scheduler.c ****    OS_SaveTaskPtr(task_ptr, Task_3_ptr);
 460:E:/NeuOrga/Programmieren/c_cpp/github_os/input/src/os_base\os_task_scheduler.c **** }
 713              		.loc 1 460 0
 714 05de C9       		leave
 715              		.cfi_restore 5
 716              		.cfi_def_cfa 4, 4
 717 05df C3       		ret
 718              		.cfi_endproc
 719              	LFE11:
 721              	_OS_TaskScheduler:
 722              	LFB12:
 461:E:/NeuOrga/Programmieren/c_cpp/github_os/input/src/os_base\os_task_scheduler.c **** 
 462:E:/NeuOrga/Programmieren/c_cpp/github_os/input/src/os_base\os_task_scheduler.c **** 
 463:E:/NeuOrga/Programmieren/c_cpp/github_os/input/src/os_base\os_task_scheduler.c **** Local scheduling_t* OS_TaskScheduler(void)
 464:E:/NeuOrga/Programmieren/c_cpp/github_os/input/src/os_base\os_task_scheduler.c **** {
 723              		.loc 1 464 0
 724              		.cfi_startproc
 725 05e0 55       		pushl	%ebp
 726              		.cfi_def_cfa_offset 8
 727              		.cfi_offset 5, -8
 728 05e1 89E5     		movl	%esp, %ebp
 729              		.cfi_def_cfa_register 5
 730 05e3 53       		pushl	%ebx
 731 05e4 83EC44   		subl	$68, %esp
 732              		.cfi_offset 3, -12
 465:E:/NeuOrga/Programmieren/c_cpp/github_os/input/src/os_base\os_task_scheduler.c **** 
 466:E:/NeuOrga/Programmieren/c_cpp/github_os/input/src/os_base\os_task_scheduler.c ****    scheduling_t*    scheduling_queue_member;
 467:E:/NeuOrga/Programmieren/c_cpp/github_os/input/src/os_base\os_task_scheduler.c ****    unsigned_char_t element_nr;
 468:E:/NeuOrga/Programmieren/c_cpp/github_os/input/src/os_base\os_task_scheduler.c **** 
 469:E:/NeuOrga/Programmieren/c_cpp/github_os/input/src/os_base\os_task_scheduler.c ****    unsigned_char_t Winner_prio = 0;
 733              		.loc 1 469 0
 734 05e7 C645F600 		movb	$0, -10(%ebp)
 470:E:/NeuOrga/Programmieren/c_cpp/github_os/input/src/os_base\os_task_scheduler.c ****    task_t*         task = 0;
 735              		.loc 1 470 0
 736 05eb C745EC00 		movl	$0, -20(%ebp)
 736      000000
 471:E:/NeuOrga/Programmieren/c_cpp/github_os/input/src/os_base\os_task_scheduler.c ****    task_t*         Winner_task = 0;
 737              		.loc 1 471 0
 738 05f2 C745E800 		movl	$0, -24(%ebp)
 738      000000
 472:E:/NeuOrga/Programmieren/c_cpp/github_os/input/src/os_base\os_task_scheduler.c ****    scheduling_t*   Winner_scheduling_queue_member = 0;
 739              		.loc 1 472 0
 740 05f9 C745F000 		movl	$0, -16(%ebp)
 740      000000
 473:E:/NeuOrga/Programmieren/c_cpp/github_os/input/src/os_base\os_task_scheduler.c ****    scheduler_time_t delta_time = Get_current_time() - LAST_CURRENT_TIME;
 741              		.loc 1 473 0
 742 0600 E8000000 		call	_Get_current_time
 742      00
 743 0605 89C2     		movl	%eax, %edx
 744 0607 A1000000 		movl	_LAST_CURRENT_TIME, %eax
 744      00
 745 060c 29C2     		subl	%eax, %edx
 746 060e 89D0     		movl	%edx, %eax
 747 0610 8945E4   		movl	%eax, -28(%ebp)
 474:E:/NeuOrga/Programmieren/c_cpp/github_os/input/src/os_base\os_task_scheduler.c **** 
 475:E:/NeuOrga/Programmieren/c_cpp/github_os/input/src/os_base\os_task_scheduler.c ****    LAST_CURRENT_TIME = Get_current_time();
GAS LISTING C:\Users\PRESID~1\AppData\Local\Temp\ccTAWfEI.s 			page 25


 748              		.loc 1 475 0
 749 0613 E8000000 		call	_Get_current_time
 749      00
 750 0618 A3000000 		movl	%eax, _LAST_CURRENT_TIME
 750      00
 476:E:/NeuOrga/Programmieren/c_cpp/github_os/input/src/os_base\os_task_scheduler.c **** 
 477:E:/NeuOrga/Programmieren/c_cpp/github_os/input/src/os_base\os_task_scheduler.c ****    ReferenceUnusedParameter(Winner_task);
 478:E:/NeuOrga/Programmieren/c_cpp/github_os/input/src/os_base\os_task_scheduler.c ****    /*
 479:E:/NeuOrga/Programmieren/c_cpp/github_os/input/src/os_base\os_task_scheduler.c ****    x const for single task: task->default_prio // low = 0,.....high=100
 480:E:/NeuOrga/Programmieren/c_cpp/github_os/input/src/os_base\os_task_scheduler.c ****    x var   for single task: task->current_prio // see prio_std
 481:E:/NeuOrga/Programmieren/c_cpp/github_os/input/src/os_base\os_task_scheduler.c ****    x var   for single task: task->wait_time    //
 482:E:/NeuOrga/Programmieren/c_cpp/github_os/input/src/os_base\os_task_scheduler.c ****    x var   for single task: task->exe_time
 483:E:/NeuOrga/Programmieren/c_cpp/github_os/input/src/os_base\os_task_scheduler.c ****    x const for single task: task->TimeToPrioInc
 484:E:/NeuOrga/Programmieren/c_cpp/github_os/input/src/os_base\os_task_scheduler.c ****    x const for single task: task->max_allowed_wait_time
 485:E:/NeuOrga/Programmieren/c_cpp/github_os/input/src/os_base\os_task_scheduler.c ****    x const for single task: task->min_allowed_wait_time
 486:E:/NeuOrga/Programmieren/c_cpp/github_os/input/src/os_base\os_task_scheduler.c ****    x const for single task: task->overwaittime_per_prio_inc_step //e.g. 100*MinTimeSlice_us
 487:E:/NeuOrga/Programmieren/c_cpp/github_os/input/src/os_base\os_task_scheduler.c ****    x const for single task: task->task_group  //to allow processor access control by groups (e.g. u
 488:E:/NeuOrga/Programmieren/c_cpp/github_os/input/src/os_base\os_task_scheduler.c ****    x const for single task: task->WaitActUntil
 489:E:/NeuOrga/Programmieren/c_cpp/github_os/input/src/os_base\os_task_scheduler.c ****    (task_group is designed to allow proccessor access control between e.g. Customer Software Task a
 490:E:/NeuOrga/Programmieren/c_cpp/github_os/input/src/os_base\os_task_scheduler.c ****    */
 491:E:/NeuOrga/Programmieren/c_cpp/github_os/input/src/os_base\os_task_scheduler.c ****    For_all_tasks_in_queue(element_nr)
 751              		.loc 1 491 0
 752 061d C645F700 		movb	$0, -9(%ebp)
 753 0621 E9FA0000 		jmp	L58
 753      00
 754              	L66:
 492:E:/NeuOrga/Programmieren/c_cpp/github_os/input/src/os_base\os_task_scheduler.c ****    {
 493:E:/NeuOrga/Programmieren/c_cpp/github_os/input/src/os_base\os_task_scheduler.c ****       scheduling_queue_member = GetFromSchedulingQueue(element_nr);
 755              		.loc 1 493 0
 756 0626 0FB645F7 		movzbl	-9(%ebp), %eax
 757 062a 890424   		movl	%eax, (%esp)
 758 062d E8000000 		call	_GetFromSchedulingQueue
 758      00
 759 0632 8945E0   		movl	%eax, -32(%ebp)
 494:E:/NeuOrga/Programmieren/c_cpp/github_os/input/src/os_base\os_task_scheduler.c ****       /*task will have a pointer on the task_obj, and might be equal to "(task_t*) 0" */
 495:E:/NeuOrga/Programmieren/c_cpp/github_os/input/src/os_base\os_task_scheduler.c ****       task             = GetFromTaskQueue(scheduling_queue_member);
 760              		.loc 1 495 0
 761 0635 8B45E0   		movl	-32(%ebp), %eax
 762 0638 890424   		movl	%eax, (%esp)
 763 063b E8000000 		call	_GetFromTaskQueue
 763      00
 764 0640 8945EC   		movl	%eax, -20(%ebp)
 496:E:/NeuOrga/Programmieren/c_cpp/github_os/input/src/os_base\os_task_scheduler.c ****       /* increase prio: high numbers->high prio */
 497:E:/NeuOrga/Programmieren/c_cpp/github_os/input/src/os_base\os_task_scheduler.c ****       if((task != 0)&&(task->task_queued != False))
 765              		.loc 1 497 0
 766 0643 837DEC00 		cmpl	$0, -20(%ebp)
 767 0647 0F84CC00 		je	L59
 767      0000
 768              		.loc 1 497 0 is_stmt 0 discriminator 1
 769 064d 8B45EC   		movl	-20(%ebp), %eax
 770 0650 8A00     		movb	(%eax), %al
 771 0652 83E002   		andl	$2, %eax
 772 0655 84C0     		testb	%al, %al
 773 0657 0F84BC00 		je	L59
 773      0000
 498:E:/NeuOrga/Programmieren/c_cpp/github_os/input/src/os_base\os_task_scheduler.c ****       {
 499:E:/NeuOrga/Programmieren/c_cpp/github_os/input/src/os_base\os_task_scheduler.c ****          if(task->wait_time >= task->TimeToPrioInc)
GAS LISTING C:\Users\PRESID~1\AppData\Local\Temp\ccTAWfEI.s 			page 26


 774              		.loc 1 499 0 is_stmt 1
 775 065d 8B45EC   		movl	-20(%ebp), %eax
 776 0660 8B500C   		movl	12(%eax), %edx
 777 0663 8B45EC   		movl	-20(%ebp), %eax
 778 0666 8B4010   		movl	16(%eax), %eax
 779 0669 39C2     		cmpl	%eax, %edx
 780 066b 7214     		jb	L60
 500:E:/NeuOrga/Programmieren/c_cpp/github_os/input/src/os_base\os_task_scheduler.c ****          {
 501:E:/NeuOrga/Programmieren/c_cpp/github_os/input/src/os_base\os_task_scheduler.c ****             task->current_prio = task->current_prio + task->overwaittime_per_prio_inc_step;
 781              		.loc 1 501 0
 782 066d 8B45EC   		movl	-20(%ebp), %eax
 783 0670 8A5024   		movb	36(%eax), %dl
 784 0673 8B45EC   		movl	-20(%ebp), %eax
 785 0676 8B4014   		movl	20(%eax), %eax
 786 0679 01C2     		addl	%eax, %edx
 787 067b 8B45EC   		movl	-20(%ebp), %eax
 788 067e 885024   		movb	%dl, 36(%eax)
 789              	L60:
 502:E:/NeuOrga/Programmieren/c_cpp/github_os/input/src/os_base\os_task_scheduler.c ****          }
 503:E:/NeuOrga/Programmieren/c_cpp/github_os/input/src/os_base\os_task_scheduler.c ****          /* in case wait condition not yet fulfilled, set prio to 0 */
 504:E:/NeuOrga/Programmieren/c_cpp/github_os/input/src/os_base\os_task_scheduler.c ****          if(task->WaitActUntil > Get_current_time())
 790              		.loc 1 504 0
 791 0681 8B45EC   		movl	-20(%ebp), %eax
 792 0684 8B5808   		movl	8(%eax), %ebx
 793 0687 E8000000 		call	_Get_current_time
 793      00
 794 068c 39C3     		cmpl	%eax, %ebx
 795 068e 7607     		jbe	L61
 505:E:/NeuOrga/Programmieren/c_cpp/github_os/input/src/os_base\os_task_scheduler.c ****          {
 506:E:/NeuOrga/Programmieren/c_cpp/github_os/input/src/os_base\os_task_scheduler.c ****             task->current_prio = 0;
 796              		.loc 1 506 0
 797 0690 8B45EC   		movl	-20(%ebp), %eax
 798 0693 C6402400 		movb	$0, 36(%eax)
 799              	L61:
 507:E:/NeuOrga/Programmieren/c_cpp/github_os/input/src/os_base\os_task_scheduler.c ****          }
 508:E:/NeuOrga/Programmieren/c_cpp/github_os/input/src/os_base\os_task_scheduler.c ****          if(task->wait_time > task->max_allowed_wait_time)
 800              		.loc 1 508 0
 801 0697 8B45EC   		movl	-20(%ebp), %eax
 802 069a 8B500C   		movl	12(%eax), %edx
 803 069d 8B45EC   		movl	-20(%ebp), %eax
 804 06a0 8B4018   		movl	24(%eax), %eax
 805 06a3 39C2     		cmpl	%eax, %edx
 806 06a5 7614     		jbe	L62
 509:E:/NeuOrga/Programmieren/c_cpp/github_os/input/src/os_base\os_task_scheduler.c ****          {
 510:E:/NeuOrga/Programmieren/c_cpp/github_os/input/src/os_base\os_task_scheduler.c ****             /* set bug */
 511:E:/NeuOrga/Programmieren/c_cpp/github_os/input/src/os_base\os_task_scheduler.c ****             OS_SET_SW_BUG(os_bug_task_max_wait_time_reached, Func_TaskScheduler);
 807              		.loc 1 511 0
 808 06a7 C7442404 		movl	$10, 4(%esp)
 808      0A000000 
 809 06af C7042403 		movl	$3, (%esp)
 809      000000
 810 06b6 E8000000 		call	_OS_SET_SW_BUG
 810      00
 811              	L62:
 512:E:/NeuOrga/Programmieren/c_cpp/github_os/input/src/os_base\os_task_scheduler.c ****          }
 513:E:/NeuOrga/Programmieren/c_cpp/github_os/input/src/os_base\os_task_scheduler.c ****          /* not active TASK_RUN_QUEUE elements have no valid task_group!!*/
 514:E:/NeuOrga/Programmieren/c_cpp/github_os/input/src/os_base\os_task_scheduler.c ****          if(task->task_group!=0)
GAS LISTING C:\Users\PRESID~1\AppData\Local\Temp\ccTAWfEI.s 			page 27


 812              		.loc 1 514 0
 813 06bb 8B45EC   		movl	-20(%ebp), %eax
 814 06be 8B4038   		movl	56(%eax), %eax
 815 06c1 85C0     		testl	%eax, %eax
 816 06c3 7440     		je	L63
 515:E:/NeuOrga/Programmieren/c_cpp/github_os/input/src/os_base\os_task_scheduler.c ****          {
 516:E:/NeuOrga/Programmieren/c_cpp/github_os/input/src/os_base\os_task_scheduler.c ****             /* usage the exe time for scheduling strategy */
 517:E:/NeuOrga/Programmieren/c_cpp/github_os/input/src/os_base\os_task_scheduler.c ****             if(task->task_group->exe_time > task->task_group->fair_exe_time)
 817              		.loc 1 517 0
 818 06c5 8B45EC   		movl	-20(%ebp), %eax
 819 06c8 8B4038   		movl	56(%eax), %eax
 820 06cb 8B10     		movl	(%eax), %edx
 821 06cd 8B45EC   		movl	-20(%ebp), %eax
 822 06d0 8B4038   		movl	56(%eax), %eax
 823 06d3 8B4004   		movl	4(%eax), %eax
 824 06d6 39C2     		cmpl	%eax, %edx
 825 06d8 763F     		jbe	L59
 518:E:/NeuOrga/Programmieren/c_cpp/github_os/input/src/os_base\os_task_scheduler.c ****             {
 519:E:/NeuOrga/Programmieren/c_cpp/github_os/input/src/os_base\os_task_scheduler.c ****                if(task->exe_time > Task_min_time)/* guarantee min time */
 826              		.loc 1 519 0
 827 06da 8B45EC   		movl	-20(%ebp), %eax
 828 06dd 8B401C   		movl	28(%eax), %eax
 829 06e0 8945D0   		movl	%eax, -48(%ebp)
 830 06e3 C745D400 		movl	$0, -44(%ebp)
 830      000000
 831 06ea DF6DD0   		fildq	-48(%ebp)
 832 06ed D9E8     		fld1
 833 06ef D9C9     		fxch	%st(1)
 834 06f1 DAE9     		fucompp
 835 06f3 DFE0     		fnstsw	%ax
 836 06f5 F6C445   		testb	$69, %ah
 837 06f8 7402     		je	L72
 838 06fa EB1D     		jmp	L59
 839              	L72:
 520:E:/NeuOrga/Programmieren/c_cpp/github_os/input/src/os_base\os_task_scheduler.c ****                {
 521:E:/NeuOrga/Programmieren/c_cpp/github_os/input/src/os_base\os_task_scheduler.c ****                   task->current_prio = 0;
 840              		.loc 1 521 0
 841 06fc 8B45EC   		movl	-20(%ebp), %eax
 842 06ff C6402400 		movb	$0, 36(%eax)
 843 0703 EB14     		jmp	L59
 844              	L63:
 522:E:/NeuOrga/Programmieren/c_cpp/github_os/input/src/os_base\os_task_scheduler.c **** 
 523:E:/NeuOrga/Programmieren/c_cpp/github_os/input/src/os_base\os_task_scheduler.c ****                }
 524:E:/NeuOrga/Programmieren/c_cpp/github_os/input/src/os_base\os_task_scheduler.c ****             }
 525:E:/NeuOrga/Programmieren/c_cpp/github_os/input/src/os_base\os_task_scheduler.c ****          }
 526:E:/NeuOrga/Programmieren/c_cpp/github_os/input/src/os_base\os_task_scheduler.c ****          else
 527:E:/NeuOrga/Programmieren/c_cpp/github_os/input/src/os_base\os_task_scheduler.c ****          {
 528:E:/NeuOrga/Programmieren/c_cpp/github_os/input/src/os_base\os_task_scheduler.c ****             OS_SET_SW_BUG(os_bug_null_pointer, Func_TaskScheduler);
 845              		.loc 1 528 0
 846 0705 C7442404 		movl	$10, 4(%esp)
 846      0A000000 
 847 070d C7042402 		movl	$2, (%esp)
 847      000000
 848 0714 E8000000 		call	_OS_SET_SW_BUG
 848      00
 849              	L59:
 491:E:/NeuOrga/Programmieren/c_cpp/github_os/input/src/os_base\os_task_scheduler.c ****    {
GAS LISTING C:\Users\PRESID~1\AppData\Local\Temp\ccTAWfEI.s 			page 28


 850              		.loc 1 491 0 discriminator 2
 851 0719 8A45F7   		movb	-9(%ebp), %al
 852 071c 40       		incl	%eax
 853 071d 8845F7   		movb	%al, -9(%ebp)
 854              	L58:
 491:E:/NeuOrga/Programmieren/c_cpp/github_os/input/src/os_base\os_task_scheduler.c ****    {
 855              		.loc 1 491 0 is_stmt 0 discriminator 1
 856 0720 807DF704 		cmpb	$4, -9(%ebp)
 857 0724 0F86FCFE 		jbe	L66
 857      FFFF
 529:E:/NeuOrga/Programmieren/c_cpp/github_os/input/src/os_base\os_task_scheduler.c ****          }
 530:E:/NeuOrga/Programmieren/c_cpp/github_os/input/src/os_base\os_task_scheduler.c ****       }
 531:E:/NeuOrga/Programmieren/c_cpp/github_os/input/src/os_base\os_task_scheduler.c ****       /* do not set bug, because task =0 is used for empty queue elements
 532:E:/NeuOrga/Programmieren/c_cpp/github_os/input/src/os_base\os_task_scheduler.c ****       else
 533:E:/NeuOrga/Programmieren/c_cpp/github_os/input/src/os_base\os_task_scheduler.c ****       {
 534:E:/NeuOrga/Programmieren/c_cpp/github_os/input/src/os_base\os_task_scheduler.c ****           OS_SET_SW_BUG(os_bug_null_pointer, Func_TaskScheduler);
 535:E:/NeuOrga/Programmieren/c_cpp/github_os/input/src/os_base\os_task_scheduler.c ****       }
 536:E:/NeuOrga/Programmieren/c_cpp/github_os/input/src/os_base\os_task_scheduler.c ****       */
 537:E:/NeuOrga/Programmieren/c_cpp/github_os/input/src/os_base\os_task_scheduler.c ****    }
 538:E:/NeuOrga/Programmieren/c_cpp/github_os/input/src/os_base\os_task_scheduler.c ****    For_all_tasks_in_queue(element_nr)
 858              		.loc 1 538 0 is_stmt 1
 859 072a C645F700 		movb	$0, -9(%ebp)
 860 072e EB67     		jmp	L67
 861              	L70:
 539:E:/NeuOrga/Programmieren/c_cpp/github_os/input/src/os_base\os_task_scheduler.c ****    {
 540:E:/NeuOrga/Programmieren/c_cpp/github_os/input/src/os_base\os_task_scheduler.c ****       scheduling_queue_member = GetFromSchedulingQueue(element_nr);
 862              		.loc 1 540 0
 863 0730 0FB645F7 		movzbl	-9(%ebp), %eax
 864 0734 890424   		movl	%eax, (%esp)
 865 0737 E8000000 		call	_GetFromSchedulingQueue
 865      00
 866 073c 8945E0   		movl	%eax, -32(%ebp)
 541:E:/NeuOrga/Programmieren/c_cpp/github_os/input/src/os_base\os_task_scheduler.c ****       task             = GetFromTaskQueue(scheduling_queue_member);
 867              		.loc 1 541 0
 868 073f 8B45E0   		movl	-32(%ebp), %eax
 869 0742 890424   		movl	%eax, (%esp)
 870 0745 E8000000 		call	_GetFromTaskQueue
 870      00
 871 074a 8945EC   		movl	%eax, -20(%ebp)
 542:E:/NeuOrga/Programmieren/c_cpp/github_os/input/src/os_base\os_task_scheduler.c ****       if(task != 0)
 872              		.loc 1 542 0
 873 074d 837DEC00 		cmpl	$0, -20(%ebp)
 874 0751 743D     		je	L68
 543:E:/NeuOrga/Programmieren/c_cpp/github_os/input/src/os_base\os_task_scheduler.c ****       {
 544:E:/NeuOrga/Programmieren/c_cpp/github_os/input/src/os_base\os_task_scheduler.c ****          /*update wait time */
 545:E:/NeuOrga/Programmieren/c_cpp/github_os/input/src/os_base\os_task_scheduler.c ****          if(task->IdleTask != True)
 875              		.loc 1 545 0
 876 0753 8B45EC   		movl	-20(%ebp), %eax
 877 0756 8A00     		movb	(%eax), %al
 878 0758 83E004   		andl	$4, %eax
 879 075b 84C0     		testb	%al, %al
 880 075d 7511     		jne	L69
 546:E:/NeuOrga/Programmieren/c_cpp/github_os/input/src/os_base\os_task_scheduler.c ****          {
 547:E:/NeuOrga/Programmieren/c_cpp/github_os/input/src/os_base\os_task_scheduler.c ****             task->wait_time += delta_time;
 881              		.loc 1 547 0
 882 075f 8B45EC   		movl	-20(%ebp), %eax
 883 0762 8B500C   		movl	12(%eax), %edx
GAS LISTING C:\Users\PRESID~1\AppData\Local\Temp\ccTAWfEI.s 			page 29


 884 0765 8B45E4   		movl	-28(%ebp), %eax
 885 0768 01C2     		addl	%eax, %edx
 886 076a 8B45EC   		movl	-20(%ebp), %eax
 887 076d 89500C   		movl	%edx, 12(%eax)
 888              	L69:
 548:E:/NeuOrga/Programmieren/c_cpp/github_os/input/src/os_base\os_task_scheduler.c ****          }
 549:E:/NeuOrga/Programmieren/c_cpp/github_os/input/src/os_base\os_task_scheduler.c ****          /* search for task with highest prio and assign it to Winner_task */
 550:E:/NeuOrga/Programmieren/c_cpp/github_os/input/src/os_base\os_task_scheduler.c ****          if(task->current_prio > Winner_prio)
 889              		.loc 1 550 0
 890 0770 8B45EC   		movl	-20(%ebp), %eax
 891 0773 8A4024   		movb	36(%eax), %al
 892 0776 3A45F6   		cmpb	-10(%ebp), %al
 893 0779 7615     		jbe	L68
 551:E:/NeuOrga/Programmieren/c_cpp/github_os/input/src/os_base\os_task_scheduler.c ****          {
 552:E:/NeuOrga/Programmieren/c_cpp/github_os/input/src/os_base\os_task_scheduler.c ****             Winner_prio = task->current_prio;
 894              		.loc 1 552 0
 895 077b 8B45EC   		movl	-20(%ebp), %eax
 896 077e 8A4024   		movb	36(%eax), %al
 897 0781 8845F6   		movb	%al, -10(%ebp)
 553:E:/NeuOrga/Programmieren/c_cpp/github_os/input/src/os_base\os_task_scheduler.c ****             Winner_task = task;
 898              		.loc 1 553 0
 899 0784 8B45EC   		movl	-20(%ebp), %eax
 900 0787 8945E8   		movl	%eax, -24(%ebp)
 554:E:/NeuOrga/Programmieren/c_cpp/github_os/input/src/os_base\os_task_scheduler.c ****             Winner_scheduling_queue_member = scheduling_queue_member;
 901              		.loc 1 554 0
 902 078a 8B45E0   		movl	-32(%ebp), %eax
 903 078d 8945F0   		movl	%eax, -16(%ebp)
 904              	L68:
 538:E:/NeuOrga/Programmieren/c_cpp/github_os/input/src/os_base\os_task_scheduler.c ****    {
 905              		.loc 1 538 0 discriminator 2
 906 0790 8A45F7   		movb	-9(%ebp), %al
 907 0793 40       		incl	%eax
 908 0794 8845F7   		movb	%al, -9(%ebp)
 909              	L67:
 538:E:/NeuOrga/Programmieren/c_cpp/github_os/input/src/os_base\os_task_scheduler.c ****    {
 910              		.loc 1 538 0 is_stmt 0 discriminator 1
 911 0797 807DF704 		cmpb	$4, -9(%ebp)
 912 079b 7693     		jbe	L70
 555:E:/NeuOrga/Programmieren/c_cpp/github_os/input/src/os_base\os_task_scheduler.c ****          }
 556:E:/NeuOrga/Programmieren/c_cpp/github_os/input/src/os_base\os_task_scheduler.c **** 
 557:E:/NeuOrga/Programmieren/c_cpp/github_os/input/src/os_base\os_task_scheduler.c ****       }
 558:E:/NeuOrga/Programmieren/c_cpp/github_os/input/src/os_base\os_task_scheduler.c ****       /* do not set bug, because task =0 is used for empty queue elements
 559:E:/NeuOrga/Programmieren/c_cpp/github_os/input/src/os_base\os_task_scheduler.c ****       else
 560:E:/NeuOrga/Programmieren/c_cpp/github_os/input/src/os_base\os_task_scheduler.c ****       {
 561:E:/NeuOrga/Programmieren/c_cpp/github_os/input/src/os_base\os_task_scheduler.c ****           OS_SET_SW_BUG(os_bug_null_pointer, Func_TaskScheduler);
 562:E:/NeuOrga/Programmieren/c_cpp/github_os/input/src/os_base\os_task_scheduler.c ****       }
 563:E:/NeuOrga/Programmieren/c_cpp/github_os/input/src/os_base\os_task_scheduler.c ****       */
 564:E:/NeuOrga/Programmieren/c_cpp/github_os/input/src/os_base\os_task_scheduler.c ****    }
 565:E:/NeuOrga/Programmieren/c_cpp/github_os/input/src/os_base\os_task_scheduler.c ****    return Winner_scheduling_queue_member;
 913              		.loc 1 565 0 is_stmt 1
 914 079d 8B45F0   		movl	-16(%ebp), %eax
 566:E:/NeuOrga/Programmieren/c_cpp/github_os/input/src/os_base\os_task_scheduler.c **** }
 915              		.loc 1 566 0
 916 07a0 83C444   		addl	$68, %esp
 917 07a3 5B       		popl	%ebx
 918              		.cfi_restore 3
 919 07a4 5D       		popl	%ebp
GAS LISTING C:\Users\PRESID~1\AppData\Local\Temp\ccTAWfEI.s 			page 30


 920              		.cfi_restore 5
 921              		.cfi_def_cfa 4, 4
 922 07a5 C3       		ret
 923              		.cfi_endproc
 924              	LFE12:
 925              		.globl	_ISR_TASK_DISPATCH_C0
 927              	_ISR_TASK_DISPATCH_C0:
 928              	LFB13:
 567:E:/NeuOrga/Programmieren/c_cpp/github_os/input/src/os_base\os_task_scheduler.c **** 
 568:E:/NeuOrga/Programmieren/c_cpp/github_os/input/src/os_base\os_task_scheduler.c **** void ISR_TASK_DISPATCH_C0(void)
 569:E:/NeuOrga/Programmieren/c_cpp/github_os/input/src/os_base\os_task_scheduler.c **** {
 929              		.loc 1 569 0
 930              		.cfi_startproc
 931 07a6 55       		pushl	%ebp
 932              		.cfi_def_cfa_offset 8
 933              		.cfi_offset 5, -8
 934 07a7 89E5     		movl	%esp, %ebp
 935              		.cfi_def_cfa_register 5
 936 07a9 83EC08   		subl	$8, %esp
 570:E:/NeuOrga/Programmieren/c_cpp/github_os/input/src/os_base\os_task_scheduler.c ****    #if(NR_OF_CORES != 1u)
 571:E:/NeuOrga/Programmieren/c_cpp/github_os/input/src/os_base\os_task_scheduler.c ****    #warn "task scheduler should know which core it is running, to select the correct task to termin
 572:E:/NeuOrga/Programmieren/c_cpp/github_os/input/src/os_base\os_task_scheduler.c ****    #endif
 573:E:/NeuOrga/Programmieren/c_cpp/github_os/input/src/os_base\os_task_scheduler.c ****    OS_TASK_DISPATCHER();
 937              		.loc 1 573 0
 938 07ac E8E7FBFF 		call	_OS_TASK_DISPATCHER
 938      FF
 574:E:/NeuOrga/Programmieren/c_cpp/github_os/input/src/os_base\os_task_scheduler.c **** 
 575:E:/NeuOrga/Programmieren/c_cpp/github_os/input/src/os_base\os_task_scheduler.c **** }
 939              		.loc 1 575 0
 940 07b1 C9       		leave
 941              		.cfi_restore 5
 942              		.cfi_def_cfa 4, 4
 943 07b2 C3       		ret
 944              		.cfi_endproc
 945              	LFE13:
 946              	Letext0:
 947              		.file 2 "E:/NeuOrga/Programmieren/c_cpp/github_os/input/src/os_base/../os_base/os_base_types.h"
 948              		.file 3 "E:/NeuOrga/Programmieren/c_cpp/github_os/input/src/os_base/../os_base/os_common.h"
 949              		.file 4 "E:/NeuOrga/Programmieren/c_cpp/github_os/input/src/os_base/../os_sim/lld_core.h"
 950              		.file 5 "E:/NeuOrga/Programmieren/c_cpp/github_os/input/src/os_base/../os_sim/../os_base/os_task_c
 951              		.file 6 "E:/NeuOrga/Programmieren/c_cpp/github_os/input/src/os_base/os_task_scheduler.h"
 952              		.file 7 "E:/NeuOrga/Programmieren/c_cpp/github_os/input/src/os_base/../os_base/os_ram.h"
 953 07b3 90       		.section	.debug_info,"dr"
 954              	Ldebug_info0:
 955 0000 7F0D0000 		.long	0xd7f
 956 0004 0400     		.word	0x4
 957 0006 00000000 		.secrel32	Ldebug_abbrev0
 958 000a 04       		.byte	0x4
 959 000b 01       		.uleb128 0x1
 960 000c 474E5520 		.ascii "GNU C 4.9.3 -march=i386 -g3 -O0 -std=c90\0"
 960      4320342E 
 960      392E3320 
 960      2D6D6172 
 960      63683D69 
 961 0035 01       		.byte	0x1
 962 0036 453A5C4E 		.ascii "E:\\NeuOrga\\Programmieren\\c_cpp\\github_os\\input\\src\\os_base\\os_task_scheduler.c\0"
 962      65754F72 
GAS LISTING C:\Users\PRESID~1\AppData\Local\Temp\ccTAWfEI.s 			page 31


 962      67615C50 
 962      726F6772 
 962      616D6D69 
 963 0085 00000000 		.long	Ltext0
 964 0089 B3070000 		.long	Letext0-Ltext0
 965 008d 00000000 		.secrel32	Ldebug_line0
 966 0091 00000000 		.secrel32	Ldebug_macro0
 967 0095 02       		.uleb128 0x2
 968 0096 756E7369 		.ascii "unsigned_char_t\0"
 968      676E6564 
 968      5F636861 
 968      725F7400 
 969 00a6 02       		.byte	0x2
 970 00a7 1D       		.byte	0x1d
 971 00a8 AC000000 		.long	0xac
 972 00ac 03       		.uleb128 0x3
 973 00ad 01       		.byte	0x1
 974 00ae 08       		.byte	0x8
 975 00af 756E7369 		.ascii "unsigned char\0"
 975      676E6564 
 975      20636861 
 975      7200
 976 00bd 03       		.uleb128 0x3
 977 00be 02       		.byte	0x2
 978 00bf 07       		.byte	0x7
 979 00c0 73686F72 		.ascii "short unsigned int\0"
 979      7420756E 
 979      7369676E 
 979      65642069 
 979      6E7400
 980 00d3 02       		.uleb128 0x2
 981 00d4 756E7369 		.ascii "unsigned_int32_t\0"
 981      676E6564 
 981      5F696E74 
 981      33325F74 
 981      00
 982 00e5 02       		.byte	0x2
 983 00e6 22       		.byte	0x22
 984 00e7 EB000000 		.long	0xeb
 985 00eb 03       		.uleb128 0x3
 986 00ec 04       		.byte	0x4
 987 00ed 07       		.byte	0x7
 988 00ee 6C6F6E67 		.ascii "long unsigned int\0"
 988      20756E73 
 988      69676E65 
 988      6420696E 
 988      7400
 989 0100 02       		.uleb128 0x2
 990 0101 75696E74 		.ascii "uint32\0"
 990      333200
 991 0108 02       		.byte	0x2
 992 0109 23       		.byte	0x23
 993 010a EB000000 		.long	0xeb
 994 010e 04       		.uleb128 0x4
 995 010f 6F735F73 		.ascii "os_sw_bugs_e\0"
 995      775F6275 
 995      67735F65 
GAS LISTING C:\Users\PRESID~1\AppData\Local\Temp\ccTAWfEI.s 			page 32


 995      00
 996 011c 04       		.byte	0x4
 997 011d 03       		.byte	0x3
 998 011e 2A       		.byte	0x2a
 999 011f 0C020000 		.long	0x20c
 1000 0123 05       		.uleb128 0x5
 1001 0124 6F735F62 		.ascii "os_bug_no_bug\0"
 1001      75675F6E 
 1001      6F5F6275 
 1001      6700
 1002 0132 00       		.sleb128 0
 1003 0133 05       		.uleb128 0x5
 1004 0134 6F735F62 		.ascii "os_bug_taskstate_request_denied\0"
 1004      75675F74 
 1004      61736B73 
 1004      74617465 
 1004      5F726571 
 1005 0154 01       		.sleb128 1
 1006 0155 05       		.uleb128 0x5
 1007 0156 6F735F62 		.ascii "os_bug_null_pointer\0"
 1007      75675F6E 
 1007      756C6C5F 
 1007      706F696E 
 1007      74657200 
 1008 016a 02       		.sleb128 2
 1009 016b 05       		.uleb128 0x5
 1010 016c 6F735F62 		.ascii "os_bug_task_max_wait_time_reached\0"
 1010      75675F74 
 1010      61736B5F 
 1010      6D61785F 
 1010      77616974 
 1011 018e 03       		.sleb128 3
 1012 018f 05       		.uleb128 0x5
 1013 0190 6F735F62 		.ascii "os_bug_Task_unspecified\0"
 1013      75675F54 
 1013      61736B5F 
 1013      756E7370 
 1013      65636966 
 1014 01a8 04       		.sleb128 4
 1015 01a9 05       		.uleb128 0x5
 1016 01aa 6F735F62 		.ascii "os_bug_exception_UndefInstruction\0"
 1016      75675F65 
 1016      78636570 
 1016      74696F6E 
 1016      5F556E64 
 1017 01cc 05       		.sleb128 5
 1018 01cd 05       		.uleb128 0x5
 1019 01ce 6F735F62 		.ascii "os_bug_exception_AbortPrefetch\0"
 1019      75675F65 
 1019      78636570 
 1019      74696F6E 
 1019      5F41626F 
 1020 01ed 06       		.sleb128 6
 1021 01ee 05       		.uleb128 0x5
 1022 01ef 6F735F62 		.ascii "os_bug_exception_AbortData\0"
 1022      75675F65 
 1022      78636570 
GAS LISTING C:\Users\PRESID~1\AppData\Local\Temp\ccTAWfEI.s 			page 33


 1022      74696F6E 
 1022      5F41626F 
 1023 020a 07       		.sleb128 7
 1024 020b 00       		.byte	0
 1025 020c 04       		.uleb128 0x4
 1026 020d 6F735F73 		.ascii "os_sw_bugs_function_e\0"
 1026      775F6275 
 1026      67735F66 
 1026      756E6374 
 1026      696F6E5F 
 1027 0223 04       		.byte	0x4
 1028 0224 03       		.byte	0x3
 1029 0225 36       		.byte	0x36
 1030 0226 8A030000 		.long	0x38a
 1031 022a 05       		.uleb128 0x5
 1032 022b 46756E63 		.ascii "Func_NoFunction\0"
 1032      5F4E6F46 
 1032      756E6374 
 1032      696F6E00 
 1033 023b 00       		.sleb128 0
 1034 023c 05       		.uleb128 0x5
 1035 023d 46756E63 		.ascii "Func_SaveTaskEnvironment\0"
 1035      5F536176 
 1035      65546173 
 1035      6B456E76 
 1035      69726F6E 
 1036 0256 01       		.sleb128 1
 1037 0257 05       		.uleb128 0x5
 1038 0258 46756E63 		.ascii "Func_RestoreTaskEnvironment\0"
 1038      5F526573 
 1038      746F7265 
 1038      5461736B 
 1038      456E7669 
 1039 0274 02       		.sleb128 2
 1040 0275 05       		.uleb128 0x5
 1041 0276 46756E63 		.ascii "Func_CreateTaskEnvironment\0"
 1041      5F437265 
 1041      61746554 
 1041      61736B45 
 1041      6E766972 
 1042 0291 03       		.sleb128 3
 1043 0292 05       		.uleb128 0x5
 1044 0293 46756E63 		.ascii "Func_DeleteTaskEnvironment\0"
 1044      5F44656C 
 1044      65746554 
 1044      61736B45 
 1044      6E766972 
 1045 02ae 04       		.sleb128 4
 1046 02af 05       		.uleb128 0x5
 1047 02b0 46756E63 		.ascii "Func_StartTask\0"
 1047      5F537461 
 1047      72745461 
 1047      736B00
 1048 02bf 05       		.sleb128 5
 1049 02c0 05       		.uleb128 0x5
 1050 02c1 46756E63 		.ascii "Func_PreemptTask\0"
 1050      5F507265 
GAS LISTING C:\Users\PRESID~1\AppData\Local\Temp\ccTAWfEI.s 			page 34


 1050      656D7074 
 1050      5461736B 
 1050      00
 1051 02d2 06       		.sleb128 6
 1052 02d3 05       		.uleb128 0x5
 1053 02d4 46756E63 		.ascii "Func_TerminateTask_Part1\0"
 1053      5F546572 
 1053      6D696E61 
 1053      74655461 
 1053      736B5F50 
 1054 02ed 07       		.sleb128 7
 1055 02ee 05       		.uleb128 0x5
 1056 02ef 46756E63 		.ascii "Func_TerminateTask_Part2\0"
 1056      5F546572 
 1056      6D696E61 
 1056      74655461 
 1056      736B5F50 
 1057 0308 08       		.sleb128 8
 1058 0309 05       		.uleb128 0x5
 1059 030a 46756E63 		.ascii "Func_TerminateTask_Part3\0"
 1059      5F546572 
 1059      6D696E61 
 1059      74655461 
 1059      736B5F50 
 1060 0323 09       		.sleb128 9
 1061 0324 05       		.uleb128 0x5
 1062 0325 46756E63 		.ascii "Func_TaskScheduler\0"
 1062      5F546173 
 1062      6B536368 
 1062      6564756C 
 1062      657200
 1063 0338 0A       		.sleb128 10
 1064 0339 05       		.uleb128 0x5
 1065 033a 46756E63 		.ascii "Func_InitTask\0"
 1065      5F496E69 
 1065      74546173 
 1065      6B00
 1066 0348 0B       		.sleb128 11
 1067 0349 05       		.uleb128 0x5
 1068 034a 46756E63 		.ascii "Func_ActivateTask\0"
 1068      5F416374 
 1068      69766174 
 1068      65546173 
 1068      6B00
 1069 035c 0C       		.sleb128 12
 1070 035d 05       		.uleb128 0x5
 1071 035e 46756E63 		.ascii "Func_TaskStateRequest\0"
 1071      5F546173 
 1071      6B537461 
 1071      74655265 
 1071      71756573 
 1072 0374 0D       		.sleb128 13
 1073 0375 05       		.uleb128 0x5
 1074 0376 46756E63 		.ascii "Func_os_exception\0"
 1074      5F6F735F 
 1074      65786365 
 1074      7074696F 
GAS LISTING C:\Users\PRESID~1\AppData\Local\Temp\ccTAWfEI.s 			page 35


 1074      6E00
 1075 0388 0E       		.sleb128 14
 1076 0389 00       		.byte	0
 1077 038a 04       		.uleb128 0x4
 1078 038b 436F7265 		.ascii "CoreID_e\0"
 1078      49445F65 
 1078      00
 1079 0394 04       		.byte	0x4
 1080 0395 04       		.byte	0x4
 1081 0396 04       		.byte	0x4
 1082 0397 BC030000 		.long	0x3bc
 1083 039b 05       		.uleb128 0x5
 1084 039c 436F7265 		.ascii "Core0\0"
 1084      3000
 1085 03a2 00       		.sleb128 0
 1086 03a3 05       		.uleb128 0x5
 1087 03a4 436F7265 		.ascii "Core1\0"
 1087      3100
 1088 03aa 01       		.sleb128 1
 1089 03ab 05       		.uleb128 0x5
 1090 03ac 436F7265 		.ascii "Core2\0"
 1090      3200
 1091 03b2 02       		.sleb128 2
 1092 03b3 05       		.uleb128 0x5
 1093 03b4 436F7265 		.ascii "Core3\0"
 1093      3300
 1094 03ba 03       		.sleb128 3
 1095 03bb 00       		.byte	0
 1096 03bc 04       		.uleb128 0x4
 1097 03bd 70726976 		.ascii "privilige_mode_e\0"
 1097      696C6967 
 1097      655F6D6F 
 1097      64655F65 
 1097      00
 1098 03ce 04       		.byte	0x4
 1099 03cf 04       		.byte	0x4
 1100 03d0 10       		.byte	0x10
 1101 03d1 51040000 		.long	0x451
 1102 03d5 05       		.uleb128 0x5
 1103 03d6 65507269 		.ascii "ePriviligeMode_unpriviliged_thread_mode\0"
 1103      76696C69 
 1103      67654D6F 
 1103      64655F75 
 1103      6E707269 
 1104 03fe 00       		.sleb128 0
 1105 03ff 05       		.uleb128 0x5
 1106 0400 65507269 		.ascii "ePriviligeMode_priviliged_thread_mode\0"
 1106      76696C69 
 1106      67654D6F 
 1106      64655F70 
 1106      72697669 
 1107 0426 01       		.sleb128 1
 1108 0427 05       		.uleb128 0x5
 1109 0428 65507269 		.ascii "ePriviligeMode_priviliged_handler_mode\0"
 1109      76696C69 
 1109      67654D6F 
 1109      64655F70 
GAS LISTING C:\Users\PRESID~1\AppData\Local\Temp\ccTAWfEI.s 			page 36


 1109      72697669 
 1110 044f 02       		.sleb128 2
 1111 0450 00       		.byte	0
 1112 0451 02       		.uleb128 0x2
 1113 0452 70726976 		.ascii "privilige_mode_t\0"
 1113      696C6967 
 1113      655F6D6F 
 1113      64655F74 
 1113      00
 1114 0463 04       		.byte	0x4
 1115 0464 16       		.byte	0x16
 1116 0465 BC030000 		.long	0x3bc
 1117 0469 04       		.uleb128 0x4
 1118 046a 7461736B 		.ascii "task_state_e\0"
 1118      5F737461 
 1118      74655F65 
 1118      00
 1119 0477 04       		.byte	0x4
 1120 0478 05       		.byte	0x5
 1121 0479 07       		.byte	0x7
 1122 047a BF040000 		.long	0x4bf
 1123 047e 05       		.uleb128 0x5
 1124 047f 5461736B 		.ascii "Task_unspecified\0"
 1124      5F756E73 
 1124      70656369 
 1124      66696564 
 1124      00
 1125 0490 00       		.sleb128 0
 1126 0491 05       		.uleb128 0x5
 1127 0492 5461736B 		.ascii "Task_suspended\0"
 1127      5F737573 
 1127      70656E64 
 1127      656400
 1128 04a1 01       		.sleb128 1
 1129 04a2 05       		.uleb128 0x5
 1130 04a3 5461736B 		.ascii "Task_ready\0"
 1130      5F726561 
 1130      647900
 1131 04ae 02       		.sleb128 2
 1132 04af 05       		.uleb128 0x5
 1133 04b0 5461736B 		.ascii "Task_running\0"
 1133      5F72756E 
 1133      6E696E67 
 1133      00
 1134 04bd 03       		.sleb128 3
 1135 04be 00       		.byte	0
 1136 04bf 02       		.uleb128 0x2
 1137 04c0 7461736B 		.ascii "task_state_t\0"
 1137      5F737461 
 1137      74655F74 
 1137      00
 1138 04cd 05       		.byte	0x5
 1139 04ce 0E       		.byte	0xe
 1140 04cf 69040000 		.long	0x469
 1141 04d3 02       		.uleb128 0x2
 1142 04d4 66756E63 		.ascii "func_p_t\0"
 1142      5F705F74 
GAS LISTING C:\Users\PRESID~1\AppData\Local\Temp\ccTAWfEI.s 			page 37


 1142      00
 1143 04dd 05       		.byte	0x5
 1144 04de 13       		.byte	0x13
 1145 04df E3040000 		.long	0x4e3
 1146 04e3 06       		.uleb128 0x6
 1147 04e4 04       		.byte	0x4
 1148 04e5 E9040000 		.long	0x4e9
 1149 04e9 07       		.uleb128 0x7
 1150 04ea F4040000 		.long	0x4f4
 1151 04ee 08       		.uleb128 0x8
 1152 04ef F4040000 		.long	0x4f4
 1153 04f3 00       		.byte	0
 1154 04f4 09       		.uleb128 0x9
 1155 04f5 04       		.byte	0x4
 1156 04f6 02       		.uleb128 0x2
 1157 04f7 66756E63 		.ascii "func_p_state_change_t\0"
 1157      5F705F73 
 1157      74617465 
 1157      5F636861 
 1157      6E67655F 
 1158 050d 05       		.byte	0x5
 1159 050e 15       		.byte	0x15
 1160 050f 13050000 		.long	0x513
 1161 0513 06       		.uleb128 0x6
 1162 0514 04       		.byte	0x4
 1163 0515 19050000 		.long	0x519
 1164 0519 0A       		.uleb128 0xa
 1165 051a 95000000 		.long	0x95
 1166 051e 2D050000 		.long	0x52d
 1167 0522 08       		.uleb128 0x8
 1168 0523 F4040000 		.long	0x4f4
 1169 0527 08       		.uleb128 0x8
 1170 0528 BF040000 		.long	0x4bf
 1171 052c 00       		.byte	0
 1172 052d 0B       		.uleb128 0xb
 1173 052e 7461736B 		.ascii "task_group_s\0"
 1173      5F67726F 
 1173      75705F73 
 1173      00
 1174 053b 08       		.byte	0x8
 1175 053c 05       		.byte	0x5
 1176 053d 17       		.byte	0x17
 1177 053e 65050000 		.long	0x565
 1178 0542 0C       		.uleb128 0xc
 1179 0543 09000000 		.secrel32	LASF0
 1180 0547 05       		.byte	0x5
 1181 0548 19       		.byte	0x19
 1182 0549 D3000000 		.long	0xd3
 1183 054d 00       		.byte	0
 1184 054e 0D       		.uleb128 0xd
 1185 054f 66616972 		.ascii "fair_exe_time\0"
 1185      5F657865 
 1185      5F74696D 
 1185      6500
 1186 055d 05       		.byte	0x5
 1187 055e 1A       		.byte	0x1a
 1188 055f D3000000 		.long	0xd3
GAS LISTING C:\Users\PRESID~1\AppData\Local\Temp\ccTAWfEI.s 			page 38


 1189 0563 04       		.byte	0x4
 1190 0564 00       		.byte	0
 1191 0565 02       		.uleb128 0x2
 1192 0566 7461736B 		.ascii "task_group_t\0"
 1192      5F67726F 
 1192      75705F74 
 1192      00
 1193 0573 05       		.byte	0x5
 1194 0574 1C       		.byte	0x1c
 1195 0575 2D050000 		.long	0x52d
 1196 0579 0B       		.uleb128 0xb
 1197 057a 7461736B 		.ascii "task_s\0"
 1197      5F7300
 1198 0581 64       		.byte	0x64
 1199 0582 05       		.byte	0x5
 1200 0583 1E       		.byte	0x1e
 1201 0584 ED070000 		.long	0x7ed
 1202 0588 0E       		.uleb128 0xe
 1203 0589 61637469 		.ascii "active\0"
 1203      766500
 1204 0590 05       		.byte	0x5
 1205 0591 20       		.byte	0x20
 1206 0592 ED070000 		.long	0x7ed
 1207 0596 04       		.byte	0x4
 1208 0597 01       		.byte	0x1
 1209 0598 1F       		.byte	0x1f
 1210 0599 00       		.byte	0
 1211 059a 0E       		.uleb128 0xe
 1212 059b 7461736B 		.ascii "task_queued\0"
 1212      5F717565 
 1212      75656400 
 1213 05a7 05       		.byte	0x5
 1214 05a8 21       		.byte	0x21
 1215 05a9 ED070000 		.long	0x7ed
 1216 05ad 04       		.byte	0x4
 1217 05ae 01       		.byte	0x1
 1218 05af 1E       		.byte	0x1e
 1219 05b0 00       		.byte	0
 1220 05b1 0E       		.uleb128 0xe
 1221 05b2 49646C65 		.ascii "IdleTask\0"
 1221      5461736B 
 1221      00
 1222 05bb 05       		.byte	0x5
 1223 05bc 22       		.byte	0x22
 1224 05bd ED070000 		.long	0x7ed
 1225 05c1 04       		.byte	0x4
 1226 05c2 01       		.byte	0x1
 1227 05c3 1D       		.byte	0x1d
 1228 05c4 00       		.byte	0
 1229 05c5 0E       		.uleb128 0xe
 1230 05c6 46524545 		.ascii "FREE\0"
 1230      00
 1231 05cb 05       		.byte	0x5
 1232 05cc 23       		.byte	0x23
 1233 05cd ED070000 		.long	0x7ed
 1234 05d1 04       		.byte	0x4
 1235 05d2 1D       		.byte	0x1d
GAS LISTING C:\Users\PRESID~1\AppData\Local\Temp\ccTAWfEI.s 			page 39


 1236 05d3 00       		.byte	0
 1237 05d4 00       		.byte	0
 1238 05d5 0D       		.uleb128 0xd
 1239 05d6 4E724F66 		.ascii "NrOfInsAllowed\0"
 1239      496E7341 
 1239      6C6C6F77 
 1239      656400
 1240 05e5 05       		.byte	0x5
 1241 05e6 24       		.byte	0x24
 1242 05e7 95000000 		.long	0x95
 1243 05eb 04       		.byte	0x4
 1244 05ec 0D       		.uleb128 0xd
 1245 05ed 4E724F66 		.ascii "NrOfInsActivated\0"
 1245      496E7341 
 1245      63746976 
 1245      61746564 
 1245      00
 1246 05fe 05       		.byte	0x5
 1247 05ff 25       		.byte	0x25
 1248 0600 95000000 		.long	0x95
 1249 0604 05       		.byte	0x5
 1250 0605 0D       		.uleb128 0xd
 1251 0606 57616974 		.ascii "WaitActUntil\0"
 1251      41637455 
 1251      6E74696C 
 1251      00
 1252 0613 05       		.byte	0x5
 1253 0614 26       		.byte	0x26
 1254 0615 D3000000 		.long	0xd3
 1255 0619 08       		.byte	0x8
 1256 061a 0D       		.uleb128 0xd
 1257 061b 77616974 		.ascii "wait_time\0"
 1257      5F74696D 
 1257      6500
 1258 0625 05       		.byte	0x5
 1259 0626 27       		.byte	0x27
 1260 0627 D3000000 		.long	0xd3
 1261 062b 0C       		.byte	0xc
 1262 062c 0D       		.uleb128 0xd
 1263 062d 54696D65 		.ascii "TimeToPrioInc\0"
 1263      546F5072 
 1263      696F496E 
 1263      6300
 1264 063b 05       		.byte	0x5
 1265 063c 28       		.byte	0x28
 1266 063d D3000000 		.long	0xd3
 1267 0641 10       		.byte	0x10
 1268 0642 0D       		.uleb128 0xd
 1269 0643 6F766572 		.ascii "overwaittime_per_prio_inc_step\0"
 1269      77616974 
 1269      74696D65 
 1269      5F706572 
 1269      5F707269 
 1270 0662 05       		.byte	0x5
 1271 0663 29       		.byte	0x29
 1272 0664 D3000000 		.long	0xd3
 1273 0668 14       		.byte	0x14
GAS LISTING C:\Users\PRESID~1\AppData\Local\Temp\ccTAWfEI.s 			page 40


 1274 0669 0D       		.uleb128 0xd
 1275 066a 6D61785F 		.ascii "max_allowed_wait_time\0"
 1275      616C6C6F 
 1275      7765645F 
 1275      77616974 
 1275      5F74696D 
 1276 0680 05       		.byte	0x5
 1277 0681 2A       		.byte	0x2a
 1278 0682 D3000000 		.long	0xd3
 1279 0686 18       		.byte	0x18
 1280 0687 0C       		.uleb128 0xc
 1281 0688 09000000 		.secrel32	LASF0
 1282 068c 05       		.byte	0x5
 1283 068d 2B       		.byte	0x2b
 1284 068e D3000000 		.long	0xd3
 1285 0692 1C       		.byte	0x1c
 1286 0693 0D       		.uleb128 0xd
 1287 0694 73746172 		.ascii "start_time\0"
 1287      745F7469 
 1287      6D6500
 1288 069f 05       		.byte	0x5
 1289 06a0 2C       		.byte	0x2c
 1290 06a1 D3000000 		.long	0xd3
 1291 06a5 20       		.byte	0x20
 1292 06a6 0D       		.uleb128 0xd
 1293 06a7 63757272 		.ascii "current_prio\0"
 1293      656E745F 
 1293      7072696F 
 1293      00
 1294 06b4 05       		.byte	0x5
 1295 06b5 2D       		.byte	0x2d
 1296 06b6 95000000 		.long	0x95
 1297 06ba 24       		.byte	0x24
 1298 06bb 0D       		.uleb128 0xd
 1299 06bc 64656661 		.ascii "default_prio\0"
 1299      756C745F 
 1299      7072696F 
 1299      00
 1300 06c9 05       		.byte	0x5
 1301 06ca 2E       		.byte	0x2e
 1302 06cb 95000000 		.long	0x95
 1303 06cf 25       		.byte	0x25
 1304 06d0 0D       		.uleb128 0xd
 1305 06d1 7461736B 		.ascii "task_number\0"
 1305      5F6E756D 
 1305      62657200 
 1306 06dd 05       		.byte	0x5
 1307 06de 2F       		.byte	0x2f
 1308 06df D3000000 		.long	0xd3
 1309 06e3 28       		.byte	0x28
 1310 06e4 0D       		.uleb128 0xd
 1311 06e5 667000   		.ascii "fp\0"
 1312 06e8 05       		.byte	0x5
 1313 06e9 30       		.byte	0x30
 1314 06ea D3040000 		.long	0x4d3
 1315 06ee 2C       		.byte	0x2c
 1316 06ef 0D       		.uleb128 0xd
GAS LISTING C:\Users\PRESID~1\AppData\Local\Temp\ccTAWfEI.s 			page 41


 1317 06f0 73746174 		.ascii "state_request\0"
 1317      655F7265 
 1317      71756573 
 1317      7400
 1318 06fe 05       		.byte	0x5
 1319 06ff 31       		.byte	0x31
 1320 0700 F6040000 		.long	0x4f6
 1321 0704 30       		.byte	0x30
 1322 0705 0D       		.uleb128 0xd
 1323 0706 7461736B 		.ascii "task_state\0"
 1323      5F737461 
 1323      746500
 1324 0711 05       		.byte	0x5
 1325 0712 32       		.byte	0x32
 1326 0713 BF040000 		.long	0x4bf
 1327 0717 34       		.byte	0x34
 1328 0718 0D       		.uleb128 0xd
 1329 0719 7461736B 		.ascii "task_group\0"
 1329      5F67726F 
 1329      757000
 1330 0724 05       		.byte	0x5
 1331 0725 33       		.byte	0x33
 1332 0726 FD070000 		.long	0x7fd
 1333 072a 38       		.byte	0x38
 1334 072b 0D       		.uleb128 0xd
 1335 072c 45415800 		.ascii "EAX\0"
 1336 0730 05       		.byte	0x5
 1337 0731 35       		.byte	0x35
 1338 0732 D3000000 		.long	0xd3
 1339 0736 3C       		.byte	0x3c
 1340 0737 0D       		.uleb128 0xd
 1341 0738 45425800 		.ascii "EBX\0"
 1342 073c 05       		.byte	0x5
 1343 073d 36       		.byte	0x36
 1344 073e D3000000 		.long	0xd3
 1345 0742 40       		.byte	0x40
 1346 0743 0D       		.uleb128 0xd
 1347 0744 45435800 		.ascii "ECX\0"
 1348 0748 05       		.byte	0x5
 1349 0749 37       		.byte	0x37
 1350 074a D3000000 		.long	0xd3
 1351 074e 44       		.byte	0x44
 1352 074f 0D       		.uleb128 0xd
 1353 0750 45445800 		.ascii "EDX\0"
 1354 0754 05       		.byte	0x5
 1355 0755 38       		.byte	0x38
 1356 0756 D3000000 		.long	0xd3
 1357 075a 48       		.byte	0x48
 1358 075b 0D       		.uleb128 0xd
 1359 075c 70537461 		.ascii "pStackPointer\0"
 1359      636B506F 
 1359      696E7465 
 1359      7200
 1360 076a 05       		.byte	0x5
 1361 076b 48       		.byte	0x48
 1362 076c 03080000 		.long	0x803
 1363 0770 4C       		.byte	0x4c
GAS LISTING C:\Users\PRESID~1\AppData\Local\Temp\ccTAWfEI.s 			page 42


 1364 0771 0D       		.uleb128 0xd
 1365 0772 70537461 		.ascii "pStackPointerByMalloc\0"
 1365      636B506F 
 1365      696E7465 
 1365      7242794D 
 1365      616C6C6F 
 1366 0788 05       		.byte	0x5
 1367 0789 49       		.byte	0x49
 1368 078a 03080000 		.long	0x803
 1369 078e 50       		.byte	0x50
 1370 078f 0D       		.uleb128 0xd
 1371 0790 70537461 		.ascii "pStackPointerStart\0"
 1371      636B506F 
 1371      696E7465 
 1371      72537461 
 1371      727400
 1372 07a3 05       		.byte	0x5
 1373 07a4 4A       		.byte	0x4a
 1374 07a5 03080000 		.long	0x803
 1375 07a9 54       		.byte	0x54
 1376 07aa 0D       		.uleb128 0xd
 1377 07ab 53746163 		.ascii "StackSize\0"
 1377      6B53697A 
 1377      6500
 1378 07b5 05       		.byte	0x5
 1379 07b6 4B       		.byte	0x4b
 1380 07b7 D3000000 		.long	0xd3
 1381 07bb 58       		.byte	0x58
 1382 07bc 0D       		.uleb128 0xd
 1383 07bd 70537461 		.ascii "pStackPointerEnd\0"
 1383      636B506F 
 1383      696E7465 
 1383      72456E64 
 1383      00
 1384 07ce 05       		.byte	0x5
 1385 07cf 4C       		.byte	0x4c
 1386 07d0 03080000 		.long	0x803
 1387 07d4 5C       		.byte	0x5c
 1388 07d5 0D       		.uleb128 0xd
 1389 07d6 70726976 		.ascii "privilige_mode\0"
 1389      696C6967 
 1389      655F6D6F 
 1389      646500
 1390 07e5 05       		.byte	0x5
 1391 07e6 4D       		.byte	0x4d
 1392 07e7 51040000 		.long	0x451
 1393 07eb 60       		.byte	0x60
 1394 07ec 00       		.byte	0
 1395 07ed 03       		.uleb128 0x3
 1396 07ee 04       		.byte	0x4
 1397 07ef 07       		.byte	0x7
 1398 07f0 756E7369 		.ascii "unsigned int\0"
 1398      676E6564 
 1398      20696E74 
 1398      00
 1399 07fd 06       		.uleb128 0x6
 1400 07fe 04       		.byte	0x4
GAS LISTING C:\Users\PRESID~1\AppData\Local\Temp\ccTAWfEI.s 			page 43


 1401 07ff 65050000 		.long	0x565
 1402 0803 06       		.uleb128 0x6
 1403 0804 04       		.byte	0x4
 1404 0805 95000000 		.long	0x95
 1405 0809 02       		.uleb128 0x2
 1406 080a 7461736B 		.ascii "task_t\0"
 1406      5F7400
 1407 0811 05       		.byte	0x5
 1408 0812 4F       		.byte	0x4f
 1409 0813 79050000 		.long	0x579
 1410 0817 02       		.uleb128 0x2
 1411 0818 73636865 		.ascii "scheduling_t\0"
 1411      64756C69 
 1411      6E675F74 
 1411      00
 1412 0825 05       		.byte	0x5
 1413 0826 50       		.byte	0x50
 1414 0827 2B080000 		.long	0x82b
 1415 082b 06       		.uleb128 0x6
 1416 082c 04       		.byte	0x4
 1417 082d 09080000 		.long	0x809
 1418 0831 02       		.uleb128 0x2
 1419 0832 73636865 		.ascii "scheduler_time_t\0"
 1419      64756C65 
 1419      725F7469 
 1419      6D655F74 
 1419      00
 1420 0843 05       		.byte	0x5
 1421 0844 5D       		.byte	0x5d
 1422 0845 ED070000 		.long	0x7ed
 1423 0849 02       		.uleb128 0x2
 1424 084a 7461736B 		.ascii "task_time_t\0"
 1424      5F74696D 
 1424      655F7400 
 1425 0856 06       		.byte	0x6
 1426 0857 0F       		.byte	0xf
 1427 0858 ED070000 		.long	0x7ed
 1428 085c 0F       		.uleb128 0xf
 1429 085d 4F535F41 		.ascii "OS_ACTIVATE_DISPATCHER\0"
 1429      43544956 
 1429      4154455F 
 1429      44495350 
 1429      41544348 
 1430 0874 01       		.byte	0x1
 1431 0875 16       		.byte	0x16
 1432 0876 00000000 		.long	LFB0
 1433 087a 05000000 		.long	LFE0-LFB0
 1434 087e 01       		.uleb128 0x1
 1435 087f 9C       		.byte	0x9c
 1436 0880 10       		.uleb128 0x10
 1437 0881 4F535F53 		.ascii "OS_SLEEPTASK\0"
 1437      4C454550 
 1437      5441534B 
 1437      00
 1438 088e 01       		.byte	0x1
 1439 088f 31       		.byte	0x31
 1440 0890 05000000 		.long	LFB1
GAS LISTING C:\Users\PRESID~1\AppData\Local\Temp\ccTAWfEI.s 			page 44


 1441 0894 1A000000 		.long	LFE1-LFB1
 1442 0898 01       		.uleb128 0x1
 1443 0899 9C       		.byte	0x9c
 1444 089a C0080000 		.long	0x8c0
 1445 089e 11       		.uleb128 0x11
 1446 089f 22000000 		.secrel32	LASF1
 1447 08a3 01       		.byte	0x1
 1448 08a4 31       		.byte	0x31
 1449 08a5 2B080000 		.long	0x82b
 1450 08a9 02       		.uleb128 0x2
 1451 08aa 91       		.byte	0x91
 1452 08ab 00       		.sleb128 0
 1453 08ac 12       		.uleb128 0x12
 1454 08ad 6D696C6C 		.ascii "millisec\0"
 1454      69736563 
 1454      00
 1455 08b6 01       		.byte	0x1
 1456 08b7 31       		.byte	0x31
 1457 08b8 49080000 		.long	0x849
 1458 08bc 02       		.uleb128 0x2
 1459 08bd 91       		.byte	0x91
 1460 08be 04       		.sleb128 4
 1461 08bf 00       		.byte	0
 1462 08c0 13       		.uleb128 0x13
 1463 08c1 7461736B 		.ascii "task_state_request\0"
 1463      5F737461 
 1463      74655F72 
 1463      65717565 
 1463      737400
 1464 08d4 01       		.byte	0x1
 1465 08d5 36       		.byte	0x36
 1466 08d6 95000000 		.long	0x95
 1467 08da 1F000000 		.long	LFB2
 1468 08de 0C010000 		.long	LFE2-LFB2
 1469 08e2 01       		.uleb128 0x1
 1470 08e3 9C       		.byte	0x9c
 1471 08e4 3C090000 		.long	0x93c
 1472 08e8 12       		.uleb128 0x12
 1473 08e9 74656D70 		.ascii "temp_task\0"
 1473      5F746173 
 1473      6B00
 1474 08f3 01       		.byte	0x1
 1475 08f4 36       		.byte	0x36
 1476 08f5 F4040000 		.long	0x4f4
 1477 08f9 02       		.uleb128 0x2
 1478 08fa 91       		.byte	0x91
 1479 08fb 00       		.sleb128 0
 1480 08fc 12       		.uleb128 0x12
 1481 08fd 72657175 		.ascii "requested_state\0"
 1481      65737465 
 1481      645F7374 
 1481      61746500 
 1482 090d 01       		.byte	0x1
 1483 090e 36       		.byte	0x36
 1484 090f BF040000 		.long	0x4bf
 1485 0913 02       		.uleb128 0x2
 1486 0914 91       		.byte	0x91
GAS LISTING C:\Users\PRESID~1\AppData\Local\Temp\ccTAWfEI.s 			page 45


 1487 0915 04       		.sleb128 4
 1488 0916 14       		.uleb128 0x14
 1489 0917 52657175 		.ascii "RequestState\0"
 1489      65737453 
 1489      74617465 
 1489      00
 1490 0924 01       		.byte	0x1
 1491 0925 38       		.byte	0x38
 1492 0926 95000000 		.long	0x95
 1493 092a 02       		.uleb128 0x2
 1494 092b 91       		.byte	0x91
 1495 092c 6F       		.sleb128 -17
 1496 092d 15       		.uleb128 0x15
 1497 092e 22000000 		.secrel32	LASF1
 1498 0932 01       		.byte	0x1
 1499 0933 3A       		.byte	0x3a
 1500 0934 2B080000 		.long	0x82b
 1501 0938 02       		.uleb128 0x2
 1502 0939 91       		.byte	0x91
 1503 093a 68       		.sleb128 -24
 1504 093b 00       		.byte	0
 1505 093c 10       		.uleb128 0x10
 1506 093d 4F535F41 		.ascii "OS_ActivateTask\0"
 1506      63746976 
 1506      61746554 
 1506      61736B00 
 1507 094d 01       		.byte	0x1
 1508 094e A7       		.byte	0xa7
 1509 094f 2B010000 		.long	LFB3
 1510 0953 AB000000 		.long	LFE3-LFB3
 1511 0957 01       		.uleb128 0x1
 1512 0958 9C       		.byte	0x9c
 1513 0959 6C090000 		.long	0x96c
 1514 095d 11       		.uleb128 0x11
 1515 095e 22000000 		.secrel32	LASF1
 1516 0962 01       		.byte	0x1
 1517 0963 A7       		.byte	0xa7
 1518 0964 2B080000 		.long	0x82b
 1519 0968 02       		.uleb128 0x2
 1520 0969 91       		.byte	0x91
 1521 096a 00       		.sleb128 0
 1522 096b 00       		.byte	0
 1523 096c 10       		.uleb128 0x10
 1524 096d 4F535F53 		.ascii "OS_STARTTASK\0"
 1524      54415254 
 1524      5441534B 
 1524      00
 1525 097a 01       		.byte	0x1
 1526 097b D4       		.byte	0xd4
 1527 097c D6010000 		.long	LFB4
 1528 0980 FE000000 		.long	LFE4-LFB4
 1529 0984 01       		.uleb128 0x1
 1530 0985 9C       		.byte	0x9c
 1531 0986 A7090000 		.long	0x9a7
 1532 098a 11       		.uleb128 0x11
 1533 098b 22000000 		.secrel32	LASF1
 1534 098f 01       		.byte	0x1
GAS LISTING C:\Users\PRESID~1\AppData\Local\Temp\ccTAWfEI.s 			page 46


 1535 0990 D4       		.byte	0xd4
 1536 0991 2B080000 		.long	0x82b
 1537 0995 02       		.uleb128 0x2
 1538 0996 91       		.byte	0x91
 1539 0997 00       		.sleb128 0
 1540 0998 11       		.uleb128 0x11
 1541 0999 12000000 		.secrel32	LASF2
 1542 099d 01       		.byte	0x1
 1543 099e D4       		.byte	0xd4
 1544 099f A7090000 		.long	0x9a7
 1545 09a3 02       		.uleb128 0x2
 1546 09a4 91       		.byte	0x91
 1547 09a5 04       		.sleb128 4
 1548 09a6 00       		.byte	0
 1549 09a7 06       		.uleb128 0x6
 1550 09a8 04       		.byte	0x4
 1551 09a9 17080000 		.long	0x817
 1552 09ad 16       		.uleb128 0x16
 1553 09ae 4F535F54 		.ascii "OS_TERMINATE_TASK\0"
 1553      45524D49 
 1553      4E415445 
 1553      5F544153 
 1553      4B00
 1554 09c0 01       		.byte	0x1
 1555 09c1 0901     		.word	0x109
 1556 09c3 D4020000 		.long	LFB5
 1557 09c7 C4000000 		.long	LFE5-LFB5
 1558 09cb 01       		.uleb128 0x1
 1559 09cc 9C       		.byte	0x9c
 1560 09cd F0090000 		.long	0x9f0
 1561 09d1 17       		.uleb128 0x17
 1562 09d2 22000000 		.secrel32	LASF1
 1563 09d6 01       		.byte	0x1
 1564 09d7 0901     		.word	0x109
 1565 09d9 2B080000 		.long	0x82b
 1566 09dd 02       		.uleb128 0x2
 1567 09de 91       		.byte	0x91
 1568 09df 00       		.sleb128 0
 1569 09e0 17       		.uleb128 0x17
 1570 09e1 12000000 		.secrel32	LASF2
 1571 09e5 01       		.byte	0x1
 1572 09e6 0901     		.word	0x109
 1573 09e8 A7090000 		.long	0x9a7
 1574 09ec 02       		.uleb128 0x2
 1575 09ed 91       		.byte	0x91
 1576 09ee 04       		.sleb128 4
 1577 09ef 00       		.byte	0
 1578 09f0 16       		.uleb128 0x16
 1579 09f1 4F535F54 		.ascii "OS_TASK_DISPATCHER\0"
 1579      41534B5F 
 1579      44495350 
 1579      41544348 
 1579      455200
 1580 0a04 01       		.byte	0x1
 1581 0a05 3301     		.word	0x133
 1582 0a07 98030000 		.long	LFB6
 1583 0a0b 77000000 		.long	LFE6-LFB6
GAS LISTING C:\Users\PRESID~1\AppData\Local\Temp\ccTAWfEI.s 			page 47


 1584 0a0f 01       		.uleb128 0x1
 1585 0a10 9C       		.byte	0x9c
 1586 0a11 440A0000 		.long	0xa44
 1587 0a15 18       		.uleb128 0x18
 1588 0a16 73636865 		.ascii "scheduling_task_ptr\0"
 1588      64756C69 
 1588      6E675F74 
 1588      61736B5F 
 1588      70747200 
 1589 0a2a 01       		.byte	0x1
 1590 0a2b 3F01     		.word	0x13f
 1591 0a2d A7090000 		.long	0x9a7
 1592 0a31 02       		.uleb128 0x2
 1593 0a32 91       		.byte	0x91
 1594 0a33 68       		.sleb128 -24
 1595 0a34 19       		.uleb128 0x19
 1596 0a35 22000000 		.secrel32	LASF1
 1597 0a39 01       		.byte	0x1
 1598 0a3a 4001     		.word	0x140
 1599 0a3c 2B080000 		.long	0x82b
 1600 0a40 02       		.uleb128 0x2
 1601 0a41 91       		.byte	0x91
 1602 0a42 6C       		.sleb128 -20
 1603 0a43 00       		.byte	0
 1604 0a44 1A       		.uleb128 0x1a
 1605 0a45 5441534B 		.ascii "TASK_0\0"
 1605      5F3000
 1606 0a4c 01       		.byte	0x1
 1607 0a4d 5601     		.word	0x156
 1608 0a4f 0F040000 		.long	LFB7
 1609 0a53 05000000 		.long	LFE7-LFB7
 1610 0a57 01       		.uleb128 0x1
 1611 0a58 9C       		.byte	0x9c
 1612 0a59 6D0A0000 		.long	0xa6d
 1613 0a5d 17       		.uleb128 0x17
 1614 0a5e 00000000 		.secrel32	LASF3
 1615 0a62 01       		.byte	0x1
 1616 0a63 5601     		.word	0x156
 1617 0a65 F4040000 		.long	0x4f4
 1618 0a69 02       		.uleb128 0x2
 1619 0a6a 91       		.byte	0x91
 1620 0a6b 00       		.sleb128 0
 1621 0a6c 00       		.byte	0
 1622 0a6d 1B       		.uleb128 0x1b
 1623 0a6e 5441534B 		.ascii "TASK_1\0"
 1623      5F3100
 1624 0a75 01       		.byte	0x1
 1625 0a76 5B01     		.word	0x15b
 1626 0a78 14040000 		.long	LFB8
 1627 0a7c 26000000 		.long	LFE8-LFB8
 1628 0a80 01       		.uleb128 0x1
 1629 0a81 9C       		.byte	0x9c
 1630 0a82 960A0000 		.long	0xa96
 1631 0a86 17       		.uleb128 0x17
 1632 0a87 00000000 		.secrel32	LASF3
 1633 0a8b 01       		.byte	0x1
 1634 0a8c 5B01     		.word	0x15b
GAS LISTING C:\Users\PRESID~1\AppData\Local\Temp\ccTAWfEI.s 			page 48


 1635 0a8e F4040000 		.long	0x4f4
 1636 0a92 02       		.uleb128 0x2
 1637 0a93 91       		.byte	0x91
 1638 0a94 00       		.sleb128 0
 1639 0a95 00       		.byte	0
 1640 0a96 1A       		.uleb128 0x1a
 1641 0a97 5441534B 		.ascii "TASK_2\0"
 1641      5F3200
 1642 0a9e 01       		.byte	0x1
 1643 0a9f 6901     		.word	0x169
 1644 0aa1 3A040000 		.long	LFB9
 1645 0aa5 10000000 		.long	LFE9-LFB9
 1646 0aa9 01       		.uleb128 0x1
 1647 0aaa 9C       		.byte	0x9c
 1648 0aab BF0A0000 		.long	0xabf
 1649 0aaf 17       		.uleb128 0x17
 1650 0ab0 00000000 		.secrel32	LASF3
 1651 0ab4 01       		.byte	0x1
 1652 0ab5 6901     		.word	0x169
 1653 0ab7 F4040000 		.long	0x4f4
 1654 0abb 02       		.uleb128 0x2
 1655 0abc 91       		.byte	0x91
 1656 0abd 00       		.sleb128 0
 1657 0abe 00       		.byte	0
 1658 0abf 1A       		.uleb128 0x1a
 1659 0ac0 5441534B 		.ascii "TASK_3\0"
 1659      5F3300
 1660 0ac7 01       		.byte	0x1
 1661 0ac8 7501     		.word	0x175
 1662 0aca 4A040000 		.long	LFB10
 1663 0ace 10000000 		.long	LFE10-LFB10
 1664 0ad2 01       		.uleb128 0x1
 1665 0ad3 9C       		.byte	0x9c
 1666 0ad4 E80A0000 		.long	0xae8
 1667 0ad8 17       		.uleb128 0x17
 1668 0ad9 00000000 		.secrel32	LASF3
 1669 0add 01       		.byte	0x1
 1670 0ade 7501     		.word	0x175
 1671 0ae0 F4040000 		.long	0x4f4
 1672 0ae4 02       		.uleb128 0x2
 1673 0ae5 91       		.byte	0x91
 1674 0ae6 00       		.sleb128 0
 1675 0ae7 00       		.byte	0
 1676 0ae8 16       		.uleb128 0x16
 1677 0ae9 4F535F49 		.ascii "OS_INIT_TASKS\0"
 1677      4E49545F 
 1677      5441534B 
 1677      5300
 1678 0af7 01       		.byte	0x1
 1679 0af8 8101     		.word	0x181
 1680 0afa 5A040000 		.long	LFB11
 1681 0afe 86010000 		.long	LFE11-LFB11
 1682 0b02 01       		.uleb128 0x1
 1683 0b03 9C       		.byte	0x9c
 1684 0b04 180B0000 		.long	0xb18
 1685 0b08 19       		.uleb128 0x19
 1686 0b09 00000000 		.secrel32	LASF3
GAS LISTING C:\Users\PRESID~1\AppData\Local\Temp\ccTAWfEI.s 			page 49


 1687 0b0d 01       		.byte	0x1
 1688 0b0e 8301     		.word	0x183
 1689 0b10 2B080000 		.long	0x82b
 1690 0b14 02       		.uleb128 0x2
 1691 0b15 91       		.byte	0x91
 1692 0b16 6C       		.sleb128 -20
 1693 0b17 00       		.byte	0
 1694 0b18 1C       		.uleb128 0x1c
 1695 0b19 4F535F54 		.ascii "OS_TaskScheduler\0"
 1695      61736B53 
 1695      63686564 
 1695      756C6572 
 1695      00
 1696 0b2a 01       		.byte	0x1
 1697 0b2b CF01     		.word	0x1cf
 1698 0b2d F60B0000 		.long	0xbf6
 1699 0b31 E0050000 		.long	LFB12
 1700 0b35 C6010000 		.long	LFE12-LFB12
 1701 0b39 01       		.uleb128 0x1
 1702 0b3a 9C       		.byte	0x9c
 1703 0b3b F60B0000 		.long	0xbf6
 1704 0b3f 18       		.uleb128 0x18
 1705 0b40 73636865 		.ascii "scheduling_queue_member\0"
 1705      64756C69 
 1705      6E675F71 
 1705      75657565 
 1705      5F6D656D 
 1706 0b58 01       		.byte	0x1
 1707 0b59 D201     		.word	0x1d2
 1708 0b5b A7090000 		.long	0x9a7
 1709 0b5f 02       		.uleb128 0x2
 1710 0b60 91       		.byte	0x91
 1711 0b61 58       		.sleb128 -40
 1712 0b62 18       		.uleb128 0x18
 1713 0b63 656C656D 		.ascii "element_nr\0"
 1713      656E745F 
 1713      6E7200
 1714 0b6e 01       		.byte	0x1
 1715 0b6f D301     		.word	0x1d3
 1716 0b71 95000000 		.long	0x95
 1717 0b75 02       		.uleb128 0x2
 1718 0b76 91       		.byte	0x91
 1719 0b77 6F       		.sleb128 -17
 1720 0b78 18       		.uleb128 0x18
 1721 0b79 57696E6E 		.ascii "Winner_prio\0"
 1721      65725F70 
 1721      72696F00 
 1722 0b85 01       		.byte	0x1
 1723 0b86 D501     		.word	0x1d5
 1724 0b88 95000000 		.long	0x95
 1725 0b8c 02       		.uleb128 0x2
 1726 0b8d 91       		.byte	0x91
 1727 0b8e 6E       		.sleb128 -18
 1728 0b8f 19       		.uleb128 0x19
 1729 0b90 22000000 		.secrel32	LASF1
 1730 0b94 01       		.byte	0x1
 1731 0b95 D601     		.word	0x1d6
GAS LISTING C:\Users\PRESID~1\AppData\Local\Temp\ccTAWfEI.s 			page 50


 1732 0b97 2B080000 		.long	0x82b
 1733 0b9b 02       		.uleb128 0x2
 1734 0b9c 91       		.byte	0x91
 1735 0b9d 64       		.sleb128 -28
 1736 0b9e 18       		.uleb128 0x18
 1737 0b9f 57696E6E 		.ascii "Winner_task\0"
 1737      65725F74 
 1737      61736B00 
 1738 0bab 01       		.byte	0x1
 1739 0bac D701     		.word	0x1d7
 1740 0bae 2B080000 		.long	0x82b
 1741 0bb2 02       		.uleb128 0x2
 1742 0bb3 91       		.byte	0x91
 1743 0bb4 60       		.sleb128 -32
 1744 0bb5 18       		.uleb128 0x18
 1745 0bb6 57696E6E 		.ascii "Winner_scheduling_queue_member\0"
 1745      65725F73 
 1745      63686564 
 1745      756C696E 
 1745      675F7175 
 1746 0bd5 01       		.byte	0x1
 1747 0bd6 D801     		.word	0x1d8
 1748 0bd8 A7090000 		.long	0x9a7
 1749 0bdc 02       		.uleb128 0x2
 1750 0bdd 91       		.byte	0x91
 1751 0bde 68       		.sleb128 -24
 1752 0bdf 18       		.uleb128 0x18
 1753 0be0 64656C74 		.ascii "delta_time\0"
 1753      615F7469 
 1753      6D6500
 1754 0beb 01       		.byte	0x1
 1755 0bec D901     		.word	0x1d9
 1756 0bee 31080000 		.long	0x831
 1757 0bf2 02       		.uleb128 0x2
 1758 0bf3 91       		.byte	0x91
 1759 0bf4 5C       		.sleb128 -36
 1760 0bf5 00       		.byte	0
 1761 0bf6 06       		.uleb128 0x6
 1762 0bf7 04       		.byte	0x4
 1763 0bf8 2B080000 		.long	0x82b
 1764 0bfc 1D       		.uleb128 0x1d
 1765 0bfd 4953525F 		.ascii "ISR_TASK_DISPATCH_C0\0"
 1765      5441534B 
 1765      5F444953 
 1765      50415443 
 1765      485F4330 
 1766 0c12 01       		.byte	0x1
 1767 0c13 3802     		.word	0x238
 1768 0c15 A6070000 		.long	LFB13
 1769 0c19 0D000000 		.long	LFE13-LFB13
 1770 0c1d 01       		.uleb128 0x1
 1771 0c1e 9C       		.byte	0x9c
 1772 0c1f 1E       		.uleb128 0x1e
 1773 0c20 95000000 		.long	0x95
 1774 0c24 350C0000 		.long	0xc35
 1775 0c28 1F       		.uleb128 0x1f
 1776 0c29 350C0000 		.long	0xc35
GAS LISTING C:\Users\PRESID~1\AppData\Local\Temp\ccTAWfEI.s 			page 51


 1777 0c2d 00       		.byte	0
 1778 0c2e 1F       		.uleb128 0x1f
 1779 0c2f 350C0000 		.long	0xc35
 1780 0c33 FF       		.byte	0xff
 1781 0c34 00       		.byte	0
 1782 0c35 03       		.uleb128 0x3
 1783 0c36 04       		.byte	0x4
 1784 0c37 07       		.byte	0x7
 1785 0c38 73697A65 		.ascii "sizetype\0"
 1785      74797065 
 1785      00
 1786 0c41 20       		.uleb128 0x20
 1787 0c42 4F535F53 		.ascii "OS_STACK\0"
 1787      5441434B 
 1787      00
 1788 0c4b 07       		.byte	0x7
 1789 0c4c 0E       		.byte	0xe
 1790 0c4d 1F0C0000 		.long	0xc1f
 1791 0c51 20       		.uleb128 0x20
 1792 0c52 5441534B 		.ascii "TASK1_CALL_NR\0"
 1792      315F4341 
 1792      4C4C5F4E 
 1792      5200
 1793 0c60 07       		.byte	0x7
 1794 0c61 20       		.byte	0x20
 1795 0c62 660C0000 		.long	0xc66
 1796 0c66 21       		.uleb128 0x21
 1797 0c67 00010000 		.long	0x100
 1798 0c6b 20       		.uleb128 0x20
 1799 0c6c 5441534B 		.ascii "TASK2_CALL_NR\0"
 1799      325F4341 
 1799      4C4C5F4E 
 1799      5200
 1800 0c7a 07       		.byte	0x7
 1801 0c7b 21       		.byte	0x21
 1802 0c7c 660C0000 		.long	0xc66
 1803 0c80 20       		.uleb128 0x20
 1804 0c81 5441534B 		.ascii "TASK3_CALL_NR\0"
 1804      335F4341 
 1804      4C4C5F4E 
 1804      5200
 1805 0c8f 07       		.byte	0x7
 1806 0c90 22       		.byte	0x22
 1807 0c91 660C0000 		.long	0xc66
 1808 0c95 1E       		.uleb128 0x1e
 1809 0c96 95000000 		.long	0x95
 1810 0c9a AB0C0000 		.long	0xcab
 1811 0c9e 1F       		.uleb128 0x1f
 1812 0c9f 350C0000 		.long	0xc35
 1813 0ca3 04       		.byte	0x4
 1814 0ca4 1F       		.uleb128 0x1f
 1815 0ca5 350C0000 		.long	0xc35
 1816 0ca9 C7       		.byte	0xc7
 1817 0caa 00       		.byte	0
 1818 0cab 20       		.uleb128 0x20
 1819 0cac 5441534B 		.ascii "TASK_STACK\0"
 1819      5F535441 
GAS LISTING C:\Users\PRESID~1\AppData\Local\Temp\ccTAWfEI.s 			page 52


 1819      434B00
 1820 0cb7 07       		.byte	0x7
 1821 0cb8 25       		.byte	0x25
 1822 0cb9 950C0000 		.long	0xc95
 1823 0cbd 20       		.uleb128 0x20
 1824 0cbe 4C415354 		.ascii "LAST_CURRENT_TIME\0"
 1824      5F435552 
 1824      52454E54 
 1824      5F54494D 
 1824      4500
 1825 0cd0 07       		.byte	0x7
 1826 0cd1 26       		.byte	0x26
 1827 0cd2 31080000 		.long	0x831
 1828 0cd6 20       		.uleb128 0x20
 1829 0cd7 5441534B 		.ascii "TASK_0_VAR\0"
 1829      5F305F56 
 1829      415200
 1830 0ce2 07       		.byte	0x7
 1831 0ce3 2D       		.byte	0x2d
 1832 0ce4 09080000 		.long	0x809
 1833 0ce8 20       		.uleb128 0x20
 1834 0ce9 5441534B 		.ascii "TASK_1_VAR\0"
 1834      5F315F56 
 1834      415200
 1835 0cf4 07       		.byte	0x7
 1836 0cf5 2D       		.byte	0x2d
 1837 0cf6 09080000 		.long	0x809
 1838 0cfa 20       		.uleb128 0x20
 1839 0cfb 5441534B 		.ascii "TASK_2_VAR\0"
 1839      5F325F56 
 1839      415200
 1840 0d06 07       		.byte	0x7
 1841 0d07 2D       		.byte	0x2d
 1842 0d08 09080000 		.long	0x809
 1843 0d0c 20       		.uleb128 0x20
 1844 0d0d 5441534B 		.ascii "TASK_3_VAR\0"
 1844      5F335F56 
 1844      415200
 1845 0d18 07       		.byte	0x7
 1846 0d19 2D       		.byte	0x2d
 1847 0d1a 09080000 		.long	0x809
 1848 0d1e 20       		.uleb128 0x20
 1849 0d1f 5441534B 		.ascii "TASK_GROUP_1\0"
 1849      5F47524F 
 1849      55505F31 
 1849      00
 1850 0d2c 07       		.byte	0x7
 1851 0d2d 2E       		.byte	0x2e
 1852 0d2e 65050000 		.long	0x565
 1853 0d32 20       		.uleb128 0x20
 1854 0d33 5441534B 		.ascii "TASK_GROUP_2\0"
 1854      5F47524F 
 1854      55505F32 
 1854      00
 1855 0d40 07       		.byte	0x7
 1856 0d41 2E       		.byte	0x2e
 1857 0d42 65050000 		.long	0x565
GAS LISTING C:\Users\PRESID~1\AppData\Local\Temp\ccTAWfEI.s 			page 53


 1858 0d46 20       		.uleb128 0x20
 1859 0d47 5441534B 		.ascii "TASK_GROUP_3\0"
 1859      5F47524F 
 1859      55505F33 
 1859      00
 1860 0d54 07       		.byte	0x7
 1861 0d55 2E       		.byte	0x2e
 1862 0d56 65050000 		.long	0x565
 1863 0d5a 20       		.uleb128 0x20
 1864 0d5b 5441534B 		.ascii "TASK_GROUP_4\0"
 1864      5F47524F 
 1864      55505F34 
 1864      00
 1865 0d68 07       		.byte	0x7
 1866 0d69 2E       		.byte	0x2e
 1867 0d6a 65050000 		.long	0x565
 1868 0d6e 20       		.uleb128 0x20
 1869 0d6f 5441534B 		.ascii "TASK_GROUP_5\0"
 1869      5F47524F 
 1869      55505F35 
 1869      00
 1870 0d7c 07       		.byte	0x7
 1871 0d7d 2E       		.byte	0x2e
 1872 0d7e 65050000 		.long	0x565
 1873 0d82 00       		.byte	0
 1874              		.section	.debug_abbrev,"dr"
 1875              	Ldebug_abbrev0:
 1876 0000 01       		.uleb128 0x1
 1877 0001 11       		.uleb128 0x11
 1878 0002 01       		.byte	0x1
 1879 0003 25       		.uleb128 0x25
 1880 0004 08       		.uleb128 0x8
 1881 0005 13       		.uleb128 0x13
 1882 0006 0B       		.uleb128 0xb
 1883 0007 03       		.uleb128 0x3
 1884 0008 08       		.uleb128 0x8
 1885 0009 11       		.uleb128 0x11
 1886 000a 01       		.uleb128 0x1
 1887 000b 12       		.uleb128 0x12
 1888 000c 06       		.uleb128 0x6
 1889 000d 10       		.uleb128 0x10
 1890 000e 17       		.uleb128 0x17
 1891 000f 9942     		.uleb128 0x2119
 1892 0011 17       		.uleb128 0x17
 1893 0012 00       		.byte	0
 1894 0013 00       		.byte	0
 1895 0014 02       		.uleb128 0x2
 1896 0015 16       		.uleb128 0x16
 1897 0016 00       		.byte	0
 1898 0017 03       		.uleb128 0x3
 1899 0018 08       		.uleb128 0x8
 1900 0019 3A       		.uleb128 0x3a
 1901 001a 0B       		.uleb128 0xb
 1902 001b 3B       		.uleb128 0x3b
 1903 001c 0B       		.uleb128 0xb
 1904 001d 49       		.uleb128 0x49
 1905 001e 13       		.uleb128 0x13
GAS LISTING C:\Users\PRESID~1\AppData\Local\Temp\ccTAWfEI.s 			page 54


 1906 001f 00       		.byte	0
 1907 0020 00       		.byte	0
 1908 0021 03       		.uleb128 0x3
 1909 0022 24       		.uleb128 0x24
 1910 0023 00       		.byte	0
 1911 0024 0B       		.uleb128 0xb
 1912 0025 0B       		.uleb128 0xb
 1913 0026 3E       		.uleb128 0x3e
 1914 0027 0B       		.uleb128 0xb
 1915 0028 03       		.uleb128 0x3
 1916 0029 08       		.uleb128 0x8
 1917 002a 00       		.byte	0
 1918 002b 00       		.byte	0
 1919 002c 04       		.uleb128 0x4
 1920 002d 04       		.uleb128 0x4
 1921 002e 01       		.byte	0x1
 1922 002f 03       		.uleb128 0x3
 1923 0030 08       		.uleb128 0x8
 1924 0031 0B       		.uleb128 0xb
 1925 0032 0B       		.uleb128 0xb
 1926 0033 3A       		.uleb128 0x3a
 1927 0034 0B       		.uleb128 0xb
 1928 0035 3B       		.uleb128 0x3b
 1929 0036 0B       		.uleb128 0xb
 1930 0037 01       		.uleb128 0x1
 1931 0038 13       		.uleb128 0x13
 1932 0039 00       		.byte	0
 1933 003a 00       		.byte	0
 1934 003b 05       		.uleb128 0x5
 1935 003c 28       		.uleb128 0x28
 1936 003d 00       		.byte	0
 1937 003e 03       		.uleb128 0x3
 1938 003f 08       		.uleb128 0x8
 1939 0040 1C       		.uleb128 0x1c
 1940 0041 0D       		.uleb128 0xd
 1941 0042 00       		.byte	0
 1942 0043 00       		.byte	0
 1943 0044 06       		.uleb128 0x6
 1944 0045 0F       		.uleb128 0xf
 1945 0046 00       		.byte	0
 1946 0047 0B       		.uleb128 0xb
 1947 0048 0B       		.uleb128 0xb
 1948 0049 49       		.uleb128 0x49
 1949 004a 13       		.uleb128 0x13
 1950 004b 00       		.byte	0
 1951 004c 00       		.byte	0
 1952 004d 07       		.uleb128 0x7
 1953 004e 15       		.uleb128 0x15
 1954 004f 01       		.byte	0x1
 1955 0050 27       		.uleb128 0x27
 1956 0051 19       		.uleb128 0x19
 1957 0052 01       		.uleb128 0x1
 1958 0053 13       		.uleb128 0x13
 1959 0054 00       		.byte	0
 1960 0055 00       		.byte	0
 1961 0056 08       		.uleb128 0x8
 1962 0057 05       		.uleb128 0x5
GAS LISTING C:\Users\PRESID~1\AppData\Local\Temp\ccTAWfEI.s 			page 55


 1963 0058 00       		.byte	0
 1964 0059 49       		.uleb128 0x49
 1965 005a 13       		.uleb128 0x13
 1966 005b 00       		.byte	0
 1967 005c 00       		.byte	0
 1968 005d 09       		.uleb128 0x9
 1969 005e 0F       		.uleb128 0xf
 1970 005f 00       		.byte	0
 1971 0060 0B       		.uleb128 0xb
 1972 0061 0B       		.uleb128 0xb
 1973 0062 00       		.byte	0
 1974 0063 00       		.byte	0
 1975 0064 0A       		.uleb128 0xa
 1976 0065 15       		.uleb128 0x15
 1977 0066 01       		.byte	0x1
 1978 0067 27       		.uleb128 0x27
 1979 0068 19       		.uleb128 0x19
 1980 0069 49       		.uleb128 0x49
 1981 006a 13       		.uleb128 0x13
 1982 006b 01       		.uleb128 0x1
 1983 006c 13       		.uleb128 0x13
 1984 006d 00       		.byte	0
 1985 006e 00       		.byte	0
 1986 006f 0B       		.uleb128 0xb
 1987 0070 13       		.uleb128 0x13
 1988 0071 01       		.byte	0x1
 1989 0072 03       		.uleb128 0x3
 1990 0073 08       		.uleb128 0x8
 1991 0074 0B       		.uleb128 0xb
 1992 0075 0B       		.uleb128 0xb
 1993 0076 3A       		.uleb128 0x3a
 1994 0077 0B       		.uleb128 0xb
 1995 0078 3B       		.uleb128 0x3b
 1996 0079 0B       		.uleb128 0xb
 1997 007a 01       		.uleb128 0x1
 1998 007b 13       		.uleb128 0x13
 1999 007c 00       		.byte	0
 2000 007d 00       		.byte	0
 2001 007e 0C       		.uleb128 0xc
 2002 007f 0D       		.uleb128 0xd
 2003 0080 00       		.byte	0
 2004 0081 03       		.uleb128 0x3
 2005 0082 0E       		.uleb128 0xe
 2006 0083 3A       		.uleb128 0x3a
 2007 0084 0B       		.uleb128 0xb
 2008 0085 3B       		.uleb128 0x3b
 2009 0086 0B       		.uleb128 0xb
 2010 0087 49       		.uleb128 0x49
 2011 0088 13       		.uleb128 0x13
 2012 0089 38       		.uleb128 0x38
 2013 008a 0B       		.uleb128 0xb
 2014 008b 00       		.byte	0
 2015 008c 00       		.byte	0
 2016 008d 0D       		.uleb128 0xd
 2017 008e 0D       		.uleb128 0xd
 2018 008f 00       		.byte	0
 2019 0090 03       		.uleb128 0x3
GAS LISTING C:\Users\PRESID~1\AppData\Local\Temp\ccTAWfEI.s 			page 56


 2020 0091 08       		.uleb128 0x8
 2021 0092 3A       		.uleb128 0x3a
 2022 0093 0B       		.uleb128 0xb
 2023 0094 3B       		.uleb128 0x3b
 2024 0095 0B       		.uleb128 0xb
 2025 0096 49       		.uleb128 0x49
 2026 0097 13       		.uleb128 0x13
 2027 0098 38       		.uleb128 0x38
 2028 0099 0B       		.uleb128 0xb
 2029 009a 00       		.byte	0
 2030 009b 00       		.byte	0
 2031 009c 0E       		.uleb128 0xe
 2032 009d 0D       		.uleb128 0xd
 2033 009e 00       		.byte	0
 2034 009f 03       		.uleb128 0x3
 2035 00a0 08       		.uleb128 0x8
 2036 00a1 3A       		.uleb128 0x3a
 2037 00a2 0B       		.uleb128 0xb
 2038 00a3 3B       		.uleb128 0x3b
 2039 00a4 0B       		.uleb128 0xb
 2040 00a5 49       		.uleb128 0x49
 2041 00a6 13       		.uleb128 0x13
 2042 00a7 0B       		.uleb128 0xb
 2043 00a8 0B       		.uleb128 0xb
 2044 00a9 0D       		.uleb128 0xd
 2045 00aa 0B       		.uleb128 0xb
 2046 00ab 0C       		.uleb128 0xc
 2047 00ac 0B       		.uleb128 0xb
 2048 00ad 38       		.uleb128 0x38
 2049 00ae 0B       		.uleb128 0xb
 2050 00af 00       		.byte	0
 2051 00b0 00       		.byte	0
 2052 00b1 0F       		.uleb128 0xf
 2053 00b2 2E       		.uleb128 0x2e
 2054 00b3 00       		.byte	0
 2055 00b4 3F       		.uleb128 0x3f
 2056 00b5 19       		.uleb128 0x19
 2057 00b6 03       		.uleb128 0x3
 2058 00b7 08       		.uleb128 0x8
 2059 00b8 3A       		.uleb128 0x3a
 2060 00b9 0B       		.uleb128 0xb
 2061 00ba 3B       		.uleb128 0x3b
 2062 00bb 0B       		.uleb128 0xb
 2063 00bc 27       		.uleb128 0x27
 2064 00bd 19       		.uleb128 0x19
 2065 00be 11       		.uleb128 0x11
 2066 00bf 01       		.uleb128 0x1
 2067 00c0 12       		.uleb128 0x12
 2068 00c1 06       		.uleb128 0x6
 2069 00c2 40       		.uleb128 0x40
 2070 00c3 18       		.uleb128 0x18
 2071 00c4 9742     		.uleb128 0x2117
 2072 00c6 19       		.uleb128 0x19
 2073 00c7 00       		.byte	0
 2074 00c8 00       		.byte	0
 2075 00c9 10       		.uleb128 0x10
 2076 00ca 2E       		.uleb128 0x2e
GAS LISTING C:\Users\PRESID~1\AppData\Local\Temp\ccTAWfEI.s 			page 57


 2077 00cb 01       		.byte	0x1
 2078 00cc 3F       		.uleb128 0x3f
 2079 00cd 19       		.uleb128 0x19
 2080 00ce 03       		.uleb128 0x3
 2081 00cf 08       		.uleb128 0x8
 2082 00d0 3A       		.uleb128 0x3a
 2083 00d1 0B       		.uleb128 0xb
 2084 00d2 3B       		.uleb128 0x3b
 2085 00d3 0B       		.uleb128 0xb
 2086 00d4 27       		.uleb128 0x27
 2087 00d5 19       		.uleb128 0x19
 2088 00d6 11       		.uleb128 0x11
 2089 00d7 01       		.uleb128 0x1
 2090 00d8 12       		.uleb128 0x12
 2091 00d9 06       		.uleb128 0x6
 2092 00da 40       		.uleb128 0x40
 2093 00db 18       		.uleb128 0x18
 2094 00dc 9642     		.uleb128 0x2116
 2095 00de 19       		.uleb128 0x19
 2096 00df 01       		.uleb128 0x1
 2097 00e0 13       		.uleb128 0x13
 2098 00e1 00       		.byte	0
 2099 00e2 00       		.byte	0
 2100 00e3 11       		.uleb128 0x11
 2101 00e4 05       		.uleb128 0x5
 2102 00e5 00       		.byte	0
 2103 00e6 03       		.uleb128 0x3
 2104 00e7 0E       		.uleb128 0xe
 2105 00e8 3A       		.uleb128 0x3a
 2106 00e9 0B       		.uleb128 0xb
 2107 00ea 3B       		.uleb128 0x3b
 2108 00eb 0B       		.uleb128 0xb
 2109 00ec 49       		.uleb128 0x49
 2110 00ed 13       		.uleb128 0x13
 2111 00ee 02       		.uleb128 0x2
 2112 00ef 18       		.uleb128 0x18
 2113 00f0 00       		.byte	0
 2114 00f1 00       		.byte	0
 2115 00f2 12       		.uleb128 0x12
 2116 00f3 05       		.uleb128 0x5
 2117 00f4 00       		.byte	0
 2118 00f5 03       		.uleb128 0x3
 2119 00f6 08       		.uleb128 0x8
 2120 00f7 3A       		.uleb128 0x3a
 2121 00f8 0B       		.uleb128 0xb
 2122 00f9 3B       		.uleb128 0x3b
 2123 00fa 0B       		.uleb128 0xb
 2124 00fb 49       		.uleb128 0x49
 2125 00fc 13       		.uleb128 0x13
 2126 00fd 02       		.uleb128 0x2
 2127 00fe 18       		.uleb128 0x18
 2128 00ff 00       		.byte	0
 2129 0100 00       		.byte	0
 2130 0101 13       		.uleb128 0x13
 2131 0102 2E       		.uleb128 0x2e
 2132 0103 01       		.byte	0x1
 2133 0104 3F       		.uleb128 0x3f
GAS LISTING C:\Users\PRESID~1\AppData\Local\Temp\ccTAWfEI.s 			page 58


 2134 0105 19       		.uleb128 0x19
 2135 0106 03       		.uleb128 0x3
 2136 0107 08       		.uleb128 0x8
 2137 0108 3A       		.uleb128 0x3a
 2138 0109 0B       		.uleb128 0xb
 2139 010a 3B       		.uleb128 0x3b
 2140 010b 0B       		.uleb128 0xb
 2141 010c 27       		.uleb128 0x27
 2142 010d 19       		.uleb128 0x19
 2143 010e 49       		.uleb128 0x49
 2144 010f 13       		.uleb128 0x13
 2145 0110 11       		.uleb128 0x11
 2146 0111 01       		.uleb128 0x1
 2147 0112 12       		.uleb128 0x12
 2148 0113 06       		.uleb128 0x6
 2149 0114 40       		.uleb128 0x40
 2150 0115 18       		.uleb128 0x18
 2151 0116 9642     		.uleb128 0x2116
 2152 0118 19       		.uleb128 0x19
 2153 0119 01       		.uleb128 0x1
 2154 011a 13       		.uleb128 0x13
 2155 011b 00       		.byte	0
 2156 011c 00       		.byte	0
 2157 011d 14       		.uleb128 0x14
 2158 011e 34       		.uleb128 0x34
 2159 011f 00       		.byte	0
 2160 0120 03       		.uleb128 0x3
 2161 0121 08       		.uleb128 0x8
 2162 0122 3A       		.uleb128 0x3a
 2163 0123 0B       		.uleb128 0xb
 2164 0124 3B       		.uleb128 0x3b
 2165 0125 0B       		.uleb128 0xb
 2166 0126 49       		.uleb128 0x49
 2167 0127 13       		.uleb128 0x13
 2168 0128 02       		.uleb128 0x2
 2169 0129 18       		.uleb128 0x18
 2170 012a 00       		.byte	0
 2171 012b 00       		.byte	0
 2172 012c 15       		.uleb128 0x15
 2173 012d 34       		.uleb128 0x34
 2174 012e 00       		.byte	0
 2175 012f 03       		.uleb128 0x3
 2176 0130 0E       		.uleb128 0xe
 2177 0131 3A       		.uleb128 0x3a
 2178 0132 0B       		.uleb128 0xb
 2179 0133 3B       		.uleb128 0x3b
 2180 0134 0B       		.uleb128 0xb
 2181 0135 49       		.uleb128 0x49
 2182 0136 13       		.uleb128 0x13
 2183 0137 02       		.uleb128 0x2
 2184 0138 18       		.uleb128 0x18
 2185 0139 00       		.byte	0
 2186 013a 00       		.byte	0
 2187 013b 16       		.uleb128 0x16
 2188 013c 2E       		.uleb128 0x2e
 2189 013d 01       		.byte	0x1
 2190 013e 3F       		.uleb128 0x3f
GAS LISTING C:\Users\PRESID~1\AppData\Local\Temp\ccTAWfEI.s 			page 59


 2191 013f 19       		.uleb128 0x19
 2192 0140 03       		.uleb128 0x3
 2193 0141 08       		.uleb128 0x8
 2194 0142 3A       		.uleb128 0x3a
 2195 0143 0B       		.uleb128 0xb
 2196 0144 3B       		.uleb128 0x3b
 2197 0145 05       		.uleb128 0x5
 2198 0146 27       		.uleb128 0x27
 2199 0147 19       		.uleb128 0x19
 2200 0148 11       		.uleb128 0x11
 2201 0149 01       		.uleb128 0x1
 2202 014a 12       		.uleb128 0x12
 2203 014b 06       		.uleb128 0x6
 2204 014c 40       		.uleb128 0x40
 2205 014d 18       		.uleb128 0x18
 2206 014e 9642     		.uleb128 0x2116
 2207 0150 19       		.uleb128 0x19
 2208 0151 01       		.uleb128 0x1
 2209 0152 13       		.uleb128 0x13
 2210 0153 00       		.byte	0
 2211 0154 00       		.byte	0
 2212 0155 17       		.uleb128 0x17
 2213 0156 05       		.uleb128 0x5
 2214 0157 00       		.byte	0
 2215 0158 03       		.uleb128 0x3
 2216 0159 0E       		.uleb128 0xe
 2217 015a 3A       		.uleb128 0x3a
 2218 015b 0B       		.uleb128 0xb
 2219 015c 3B       		.uleb128 0x3b
 2220 015d 05       		.uleb128 0x5
 2221 015e 49       		.uleb128 0x49
 2222 015f 13       		.uleb128 0x13
 2223 0160 02       		.uleb128 0x2
 2224 0161 18       		.uleb128 0x18
 2225 0162 00       		.byte	0
 2226 0163 00       		.byte	0
 2227 0164 18       		.uleb128 0x18
 2228 0165 34       		.uleb128 0x34
 2229 0166 00       		.byte	0
 2230 0167 03       		.uleb128 0x3
 2231 0168 08       		.uleb128 0x8
 2232 0169 3A       		.uleb128 0x3a
 2233 016a 0B       		.uleb128 0xb
 2234 016b 3B       		.uleb128 0x3b
 2235 016c 05       		.uleb128 0x5
 2236 016d 49       		.uleb128 0x49
 2237 016e 13       		.uleb128 0x13
 2238 016f 02       		.uleb128 0x2
 2239 0170 18       		.uleb128 0x18
 2240 0171 00       		.byte	0
 2241 0172 00       		.byte	0
 2242 0173 19       		.uleb128 0x19
 2243 0174 34       		.uleb128 0x34
 2244 0175 00       		.byte	0
 2245 0176 03       		.uleb128 0x3
 2246 0177 0E       		.uleb128 0xe
 2247 0178 3A       		.uleb128 0x3a
GAS LISTING C:\Users\PRESID~1\AppData\Local\Temp\ccTAWfEI.s 			page 60


 2248 0179 0B       		.uleb128 0xb
 2249 017a 3B       		.uleb128 0x3b
 2250 017b 05       		.uleb128 0x5
 2251 017c 49       		.uleb128 0x49
 2252 017d 13       		.uleb128 0x13
 2253 017e 02       		.uleb128 0x2
 2254 017f 18       		.uleb128 0x18
 2255 0180 00       		.byte	0
 2256 0181 00       		.byte	0
 2257 0182 1A       		.uleb128 0x1a
 2258 0183 2E       		.uleb128 0x2e
 2259 0184 01       		.byte	0x1
 2260 0185 03       		.uleb128 0x3
 2261 0186 08       		.uleb128 0x8
 2262 0187 3A       		.uleb128 0x3a
 2263 0188 0B       		.uleb128 0xb
 2264 0189 3B       		.uleb128 0x3b
 2265 018a 05       		.uleb128 0x5
 2266 018b 27       		.uleb128 0x27
 2267 018c 19       		.uleb128 0x19
 2268 018d 11       		.uleb128 0x11
 2269 018e 01       		.uleb128 0x1
 2270 018f 12       		.uleb128 0x12
 2271 0190 06       		.uleb128 0x6
 2272 0191 40       		.uleb128 0x40
 2273 0192 18       		.uleb128 0x18
 2274 0193 9742     		.uleb128 0x2117
 2275 0195 19       		.uleb128 0x19
 2276 0196 01       		.uleb128 0x1
 2277 0197 13       		.uleb128 0x13
 2278 0198 00       		.byte	0
 2279 0199 00       		.byte	0
 2280 019a 1B       		.uleb128 0x1b
 2281 019b 2E       		.uleb128 0x2e
 2282 019c 01       		.byte	0x1
 2283 019d 03       		.uleb128 0x3
 2284 019e 08       		.uleb128 0x8
 2285 019f 3A       		.uleb128 0x3a
 2286 01a0 0B       		.uleb128 0xb
 2287 01a1 3B       		.uleb128 0x3b
 2288 01a2 05       		.uleb128 0x5
 2289 01a3 27       		.uleb128 0x27
 2290 01a4 19       		.uleb128 0x19
 2291 01a5 11       		.uleb128 0x11
 2292 01a6 01       		.uleb128 0x1
 2293 01a7 12       		.uleb128 0x12
 2294 01a8 06       		.uleb128 0x6
 2295 01a9 40       		.uleb128 0x40
 2296 01aa 18       		.uleb128 0x18
 2297 01ab 9642     		.uleb128 0x2116
 2298 01ad 19       		.uleb128 0x19
 2299 01ae 01       		.uleb128 0x1
 2300 01af 13       		.uleb128 0x13
 2301 01b0 00       		.byte	0
 2302 01b1 00       		.byte	0
 2303 01b2 1C       		.uleb128 0x1c
 2304 01b3 2E       		.uleb128 0x2e
GAS LISTING C:\Users\PRESID~1\AppData\Local\Temp\ccTAWfEI.s 			page 61


 2305 01b4 01       		.byte	0x1
 2306 01b5 03       		.uleb128 0x3
 2307 01b6 08       		.uleb128 0x8
 2308 01b7 3A       		.uleb128 0x3a
 2309 01b8 0B       		.uleb128 0xb
 2310 01b9 3B       		.uleb128 0x3b
 2311 01ba 05       		.uleb128 0x5
 2312 01bb 27       		.uleb128 0x27
 2313 01bc 19       		.uleb128 0x19
 2314 01bd 49       		.uleb128 0x49
 2315 01be 13       		.uleb128 0x13
 2316 01bf 11       		.uleb128 0x11
 2317 01c0 01       		.uleb128 0x1
 2318 01c1 12       		.uleb128 0x12
 2319 01c2 06       		.uleb128 0x6
 2320 01c3 40       		.uleb128 0x40
 2321 01c4 18       		.uleb128 0x18
 2322 01c5 9642     		.uleb128 0x2116
 2323 01c7 19       		.uleb128 0x19
 2324 01c8 01       		.uleb128 0x1
 2325 01c9 13       		.uleb128 0x13
 2326 01ca 00       		.byte	0
 2327 01cb 00       		.byte	0
 2328 01cc 1D       		.uleb128 0x1d
 2329 01cd 2E       		.uleb128 0x2e
 2330 01ce 00       		.byte	0
 2331 01cf 3F       		.uleb128 0x3f
 2332 01d0 19       		.uleb128 0x19
 2333 01d1 03       		.uleb128 0x3
 2334 01d2 08       		.uleb128 0x8
 2335 01d3 3A       		.uleb128 0x3a
 2336 01d4 0B       		.uleb128 0xb
 2337 01d5 3B       		.uleb128 0x3b
 2338 01d6 05       		.uleb128 0x5
 2339 01d7 27       		.uleb128 0x27
 2340 01d8 19       		.uleb128 0x19
 2341 01d9 11       		.uleb128 0x11
 2342 01da 01       		.uleb128 0x1
 2343 01db 12       		.uleb128 0x12
 2344 01dc 06       		.uleb128 0x6
 2345 01dd 40       		.uleb128 0x40
 2346 01de 18       		.uleb128 0x18
 2347 01df 9642     		.uleb128 0x2116
 2348 01e1 19       		.uleb128 0x19
 2349 01e2 00       		.byte	0
 2350 01e3 00       		.byte	0
 2351 01e4 1E       		.uleb128 0x1e
 2352 01e5 01       		.uleb128 0x1
 2353 01e6 01       		.byte	0x1
 2354 01e7 49       		.uleb128 0x49
 2355 01e8 13       		.uleb128 0x13
 2356 01e9 01       		.uleb128 0x1
 2357 01ea 13       		.uleb128 0x13
 2358 01eb 00       		.byte	0
 2359 01ec 00       		.byte	0
 2360 01ed 1F       		.uleb128 0x1f
 2361 01ee 21       		.uleb128 0x21
GAS LISTING C:\Users\PRESID~1\AppData\Local\Temp\ccTAWfEI.s 			page 62


 2362 01ef 00       		.byte	0
 2363 01f0 49       		.uleb128 0x49
 2364 01f1 13       		.uleb128 0x13
 2365 01f2 2F       		.uleb128 0x2f
 2366 01f3 0B       		.uleb128 0xb
 2367 01f4 00       		.byte	0
 2368 01f5 00       		.byte	0
 2369 01f6 20       		.uleb128 0x20
 2370 01f7 34       		.uleb128 0x34
 2371 01f8 00       		.byte	0
 2372 01f9 03       		.uleb128 0x3
 2373 01fa 08       		.uleb128 0x8
 2374 01fb 3A       		.uleb128 0x3a
 2375 01fc 0B       		.uleb128 0xb
 2376 01fd 3B       		.uleb128 0x3b
 2377 01fe 0B       		.uleb128 0xb
 2378 01ff 49       		.uleb128 0x49
 2379 0200 13       		.uleb128 0x13
 2380 0201 3F       		.uleb128 0x3f
 2381 0202 19       		.uleb128 0x19
 2382 0203 3C       		.uleb128 0x3c
 2383 0204 19       		.uleb128 0x19
 2384 0205 00       		.byte	0
 2385 0206 00       		.byte	0
 2386 0207 21       		.uleb128 0x21
 2387 0208 35       		.uleb128 0x35
 2388 0209 00       		.byte	0
 2389 020a 49       		.uleb128 0x49
 2390 020b 13       		.uleb128 0x13
 2391 020c 00       		.byte	0
 2392 020d 00       		.byte	0
 2393 020e 00       		.byte	0
 2394              		.section	.debug_aranges,"dr"
 2395 0000 1C000000 		.long	0x1c
 2396 0004 0200     		.word	0x2
 2397 0006 00000000 		.secrel32	Ldebug_info0
 2398 000a 04       		.byte	0x4
 2399 000b 00       		.byte	0
 2400 000c 0000     		.word	0
 2401 000e 0000     		.word	0
 2402 0010 00000000 		.long	Ltext0
 2403 0014 B3070000 		.long	Letext0-Ltext0
 2404 0018 00000000 		.long	0
 2405 001c 00000000 		.long	0
 2406              		.section	.debug_macro,"dr"
 2407              	Ldebug_macro0:
 2408 0000 0400     		.word	0x4
 2409 0002 02       		.byte	0x2
 2410 0003 00000000 		.secrel32	Ldebug_line0
 2411 0007 01       		.byte	0x1
 2412 0008 00       		.uleb128 0
 2413 0009 5F5F5354 		.ascii "__STDC__ 1\0"
 2413      44435F5F 
 2413      203100
 2414 0014 01       		.byte	0x1
 2415 0015 00       		.uleb128 0
 2416 0016 5F5F5354 		.ascii "__STDC_HOSTED__ 1\0"
GAS LISTING C:\Users\PRESID~1\AppData\Local\Temp\ccTAWfEI.s 			page 63


 2416      44435F48 
 2416      4F535445 
 2416      445F5F20 
 2416      3100
 2417 0028 01       		.byte	0x1
 2418 0029 00       		.uleb128 0
 2419 002a 5F5F474E 		.ascii "__GNUC__ 4\0"
 2419      55435F5F 
 2419      203400
 2420 0035 01       		.byte	0x1
 2421 0036 00       		.uleb128 0
 2422 0037 5F5F474E 		.ascii "__GNUC_MINOR__ 9\0"
 2422      55435F4D 
 2422      494E4F52 
 2422      5F5F2039 
 2422      00
 2423 0048 01       		.byte	0x1
 2424 0049 00       		.uleb128 0
 2425 004a 5F5F474E 		.ascii "__GNUC_PATCHLEVEL__ 3\0"
 2425      55435F50 
 2425      41544348 
 2425      4C455645 
 2425      4C5F5F20 
 2426 0060 01       		.byte	0x1
 2427 0061 00       		.uleb128 0
 2428 0062 5F5F5645 		.ascii "__VERSION__ \"4.9.3\"\0"
 2428      5253494F 
 2428      4E5F5F20 
 2428      22342E39 
 2428      2E332200 
 2429 0076 01       		.byte	0x1
 2430 0077 00       		.uleb128 0
 2431 0078 5F5F4154 		.ascii "__ATOMIC_RELAXED 0\0"
 2431      4F4D4943 
 2431      5F52454C 
 2431      41584544 
 2431      203000
 2432 008b 01       		.byte	0x1
 2433 008c 00       		.uleb128 0
 2434 008d 5F5F4154 		.ascii "__ATOMIC_SEQ_CST 5\0"
 2434      4F4D4943 
 2434      5F534551 
 2434      5F435354 
 2434      203500
 2435 00a0 01       		.byte	0x1
 2436 00a1 00       		.uleb128 0
 2437 00a2 5F5F4154 		.ascii "__ATOMIC_ACQUIRE 2\0"
 2437      4F4D4943 
 2437      5F414351 
 2437      55495245 
 2437      203200
 2438 00b5 01       		.byte	0x1
 2439 00b6 00       		.uleb128 0
 2440 00b7 5F5F4154 		.ascii "__ATOMIC_RELEASE 3\0"
 2440      4F4D4943 
 2440      5F52454C 
 2440      45415345 
GAS LISTING C:\Users\PRESID~1\AppData\Local\Temp\ccTAWfEI.s 			page 64


 2440      203300
 2441 00ca 01       		.byte	0x1
 2442 00cb 00       		.uleb128 0
 2443 00cc 5F5F4154 		.ascii "__ATOMIC_ACQ_REL 4\0"
 2443      4F4D4943 
 2443      5F414351 
 2443      5F52454C 
 2443      203400
 2444 00df 01       		.byte	0x1
 2445 00e0 00       		.uleb128 0
 2446 00e1 5F5F4154 		.ascii "__ATOMIC_CONSUME 1\0"
 2446      4F4D4943 
 2446      5F434F4E 
 2446      53554D45 
 2446      203100
 2447 00f4 01       		.byte	0x1
 2448 00f5 00       		.uleb128 0
 2449 00f6 5F5F4649 		.ascii "__FINITE_MATH_ONLY__ 0\0"
 2449      4E495445 
 2449      5F4D4154 
 2449      485F4F4E 
 2449      4C595F5F 
 2450 010d 01       		.byte	0x1
 2451 010e 00       		.uleb128 0
 2452 010f 5F5F5349 		.ascii "__SIZEOF_INT__ 4\0"
 2452      5A454F46 
 2452      5F494E54 
 2452      5F5F2034 
 2452      00
 2453 0120 01       		.byte	0x1
 2454 0121 00       		.uleb128 0
 2455 0122 5F5F5349 		.ascii "__SIZEOF_LONG__ 4\0"
 2455      5A454F46 
 2455      5F4C4F4E 
 2455      475F5F20 
 2455      3400
 2456 0134 01       		.byte	0x1
 2457 0135 00       		.uleb128 0
 2458 0136 5F5F5349 		.ascii "__SIZEOF_LONG_LONG__ 8\0"
 2458      5A454F46 
 2458      5F4C4F4E 
 2458      475F4C4F 
 2458      4E475F5F 
 2459 014d 01       		.byte	0x1
 2460 014e 00       		.uleb128 0
 2461 014f 5F5F5349 		.ascii "__SIZEOF_SHORT__ 2\0"
 2461      5A454F46 
 2461      5F53484F 
 2461      52545F5F 
 2461      203200
 2462 0162 01       		.byte	0x1
 2463 0163 00       		.uleb128 0
 2464 0164 5F5F5349 		.ascii "__SIZEOF_FLOAT__ 4\0"
 2464      5A454F46 
 2464      5F464C4F 
 2464      41545F5F 
 2464      203400
GAS LISTING C:\Users\PRESID~1\AppData\Local\Temp\ccTAWfEI.s 			page 65


 2465 0177 01       		.byte	0x1
 2466 0178 00       		.uleb128 0
 2467 0179 5F5F5349 		.ascii "__SIZEOF_DOUBLE__ 8\0"
 2467      5A454F46 
 2467      5F444F55 
 2467      424C455F 
 2467      5F203800 
 2468 018d 01       		.byte	0x1
 2469 018e 00       		.uleb128 0
 2470 018f 5F5F5349 		.ascii "__SIZEOF_LONG_DOUBLE__ 12\0"
 2470      5A454F46 
 2470      5F4C4F4E 
 2470      475F444F 
 2470      55424C45 
 2471 01a9 01       		.byte	0x1
 2472 01aa 00       		.uleb128 0
 2473 01ab 5F5F5349 		.ascii "__SIZEOF_SIZE_T__ 4\0"
 2473      5A454F46 
 2473      5F53495A 
 2473      455F545F 
 2473      5F203400 
 2474 01bf 01       		.byte	0x1
 2475 01c0 00       		.uleb128 0
 2476 01c1 5F5F4348 		.ascii "__CHAR_BIT__ 8\0"
 2476      41525F42 
 2476      49545F5F 
 2476      203800
 2477 01d0 01       		.byte	0x1
 2478 01d1 00       		.uleb128 0
 2479 01d2 5F5F4249 		.ascii "__BIGGEST_ALIGNMENT__ 16\0"
 2479      47474553 
 2479      545F414C 
 2479      49474E4D 
 2479      454E545F 
 2480 01eb 01       		.byte	0x1
 2481 01ec 00       		.uleb128 0
 2482 01ed 5F5F4F52 		.ascii "__ORDER_LITTLE_ENDIAN__ 1234\0"
 2482      4445525F 
 2482      4C495454 
 2482      4C455F45 
 2482      4E444941 
 2483 020a 01       		.byte	0x1
 2484 020b 00       		.uleb128 0
 2485 020c 5F5F4F52 		.ascii "__ORDER_BIG_ENDIAN__ 4321\0"
 2485      4445525F 
 2485      4249475F 
 2485      454E4449 
 2485      414E5F5F 
 2486 0226 01       		.byte	0x1
 2487 0227 00       		.uleb128 0
 2488 0228 5F5F4F52 		.ascii "__ORDER_PDP_ENDIAN__ 3412\0"
 2488      4445525F 
 2488      5044505F 
 2488      454E4449 
 2488      414E5F5F 
 2489 0242 01       		.byte	0x1
 2490 0243 00       		.uleb128 0
GAS LISTING C:\Users\PRESID~1\AppData\Local\Temp\ccTAWfEI.s 			page 66


 2491 0244 5F5F4259 		.ascii "__BYTE_ORDER__ __ORDER_LITTLE_ENDIAN__\0"
 2491      54455F4F 
 2491      52444552 
 2491      5F5F205F 
 2491      5F4F5244 
 2492 026b 01       		.byte	0x1
 2493 026c 00       		.uleb128 0
 2494 026d 5F5F464C 		.ascii "__FLOAT_WORD_ORDER__ __ORDER_LITTLE_ENDIAN__\0"
 2494      4F41545F 
 2494      574F5244 
 2494      5F4F5244 
 2494      45525F5F 
 2495 029a 01       		.byte	0x1
 2496 029b 00       		.uleb128 0
 2497 029c 5F5F5349 		.ascii "__SIZEOF_POINTER__ 4\0"
 2497      5A454F46 
 2497      5F504F49 
 2497      4E544552 
 2497      5F5F2034 
 2498 02b1 01       		.byte	0x1
 2499 02b2 00       		.uleb128 0
 2500 02b3 5F5F5349 		.ascii "__SIZE_TYPE__ unsigned int\0"
 2500      5A455F54 
 2500      5950455F 
 2500      5F20756E 
 2500      7369676E 
 2501 02ce 01       		.byte	0x1
 2502 02cf 00       		.uleb128 0
 2503 02d0 5F5F5054 		.ascii "__PTRDIFF_TYPE__ int\0"
 2503      52444946 
 2503      465F5459 
 2503      50455F5F 
 2503      20696E74 
 2504 02e5 01       		.byte	0x1
 2505 02e6 00       		.uleb128 0
 2506 02e7 5F5F5743 		.ascii "__WCHAR_TYPE__ short unsigned int\0"
 2506      4841525F 
 2506      54595045 
 2506      5F5F2073 
 2506      686F7274 
 2507 0309 01       		.byte	0x1
 2508 030a 00       		.uleb128 0
 2509 030b 5F5F5749 		.ascii "__WINT_TYPE__ short unsigned int\0"
 2509      4E545F54 
 2509      5950455F 
 2509      5F207368 
 2509      6F727420 
 2510 032c 01       		.byte	0x1
 2511 032d 00       		.uleb128 0
 2512 032e 5F5F494E 		.ascii "__INTMAX_TYPE__ long long int\0"
 2512      544D4158 
 2512      5F545950 
 2512      455F5F20 
 2512      6C6F6E67 
 2513 034c 01       		.byte	0x1
 2514 034d 00       		.uleb128 0
 2515 034e 5F5F5549 		.ascii "__UINTMAX_TYPE__ long long unsigned int\0"
GAS LISTING C:\Users\PRESID~1\AppData\Local\Temp\ccTAWfEI.s 			page 67


 2515      4E544D41 
 2515      585F5459 
 2515      50455F5F 
 2515      206C6F6E 
 2516 0376 01       		.byte	0x1
 2517 0377 00       		.uleb128 0
 2518 0378 5F5F4348 		.ascii "__CHAR16_TYPE__ short unsigned int\0"
 2518      41523136 
 2518      5F545950 
 2518      455F5F20 
 2518      73686F72 
 2519 039b 01       		.byte	0x1
 2520 039c 00       		.uleb128 0
 2521 039d 5F5F4348 		.ascii "__CHAR32_TYPE__ unsigned int\0"
 2521      41523332 
 2521      5F545950 
 2521      455F5F20 
 2521      756E7369 
 2522 03ba 01       		.byte	0x1
 2523 03bb 00       		.uleb128 0
 2524 03bc 5F5F5349 		.ascii "__SIG_ATOMIC_TYPE__ int\0"
 2524      475F4154 
 2524      4F4D4943 
 2524      5F545950 
 2524      455F5F20 
 2525 03d4 01       		.byte	0x1
 2526 03d5 00       		.uleb128 0
 2527 03d6 5F5F494E 		.ascii "__INT8_TYPE__ signed char\0"
 2527      54385F54 
 2527      5950455F 
 2527      5F207369 
 2527      676E6564 
 2528 03f0 01       		.byte	0x1
 2529 03f1 00       		.uleb128 0
 2530 03f2 5F5F494E 		.ascii "__INT16_TYPE__ short int\0"
 2530      5431365F 
 2530      54595045 
 2530      5F5F2073 
 2530      686F7274 
 2531 040b 01       		.byte	0x1
 2532 040c 00       		.uleb128 0
 2533 040d 5F5F494E 		.ascii "__INT32_TYPE__ int\0"
 2533      5433325F 
 2533      54595045 
 2533      5F5F2069 
 2533      6E7400
 2534 0420 01       		.byte	0x1
 2535 0421 00       		.uleb128 0
 2536 0422 5F5F494E 		.ascii "__INT64_TYPE__ long long int\0"
 2536      5436345F 
 2536      54595045 
 2536      5F5F206C 
 2536      6F6E6720 
 2537 043f 01       		.byte	0x1
 2538 0440 00       		.uleb128 0
 2539 0441 5F5F5549 		.ascii "__UINT8_TYPE__ unsigned char\0"
 2539      4E54385F 
GAS LISTING C:\Users\PRESID~1\AppData\Local\Temp\ccTAWfEI.s 			page 68


 2539      54595045 
 2539      5F5F2075 
 2539      6E736967 
 2540 045e 01       		.byte	0x1
 2541 045f 00       		.uleb128 0
 2542 0460 5F5F5549 		.ascii "__UINT16_TYPE__ short unsigned int\0"
 2542      4E543136 
 2542      5F545950 
 2542      455F5F20 
 2542      73686F72 
 2543 0483 01       		.byte	0x1
 2544 0484 00       		.uleb128 0
 2545 0485 5F5F5549 		.ascii "__UINT32_TYPE__ unsigned int\0"
 2545      4E543332 
 2545      5F545950 
 2545      455F5F20 
 2545      756E7369 
 2546 04a2 01       		.byte	0x1
 2547 04a3 00       		.uleb128 0
 2548 04a4 5F5F5549 		.ascii "__UINT64_TYPE__ long long unsigned int\0"
 2548      4E543634 
 2548      5F545950 
 2548      455F5F20 
 2548      6C6F6E67 
 2549 04cb 01       		.byte	0x1
 2550 04cc 00       		.uleb128 0
 2551 04cd 5F5F494E 		.ascii "__INT_LEAST8_TYPE__ signed char\0"
 2551      545F4C45 
 2551      41535438 
 2551      5F545950 
 2551      455F5F20 
 2552 04ed 01       		.byte	0x1
 2553 04ee 00       		.uleb128 0
 2554 04ef 5F5F494E 		.ascii "__INT_LEAST16_TYPE__ short int\0"
 2554      545F4C45 
 2554      41535431 
 2554      365F5459 
 2554      50455F5F 
 2555 050e 01       		.byte	0x1
 2556 050f 00       		.uleb128 0
 2557 0510 5F5F494E 		.ascii "__INT_LEAST32_TYPE__ int\0"
 2557      545F4C45 
 2557      41535433 
 2557      325F5459 
 2557      50455F5F 
 2558 0529 01       		.byte	0x1
 2559 052a 00       		.uleb128 0
 2560 052b 5F5F494E 		.ascii "__INT_LEAST64_TYPE__ long long int\0"
 2560      545F4C45 
 2560      41535436 
 2560      345F5459 
 2560      50455F5F 
 2561 054e 01       		.byte	0x1
 2562 054f 00       		.uleb128 0
 2563 0550 5F5F5549 		.ascii "__UINT_LEAST8_TYPE__ unsigned char\0"
 2563      4E545F4C 
 2563      45415354 
GAS LISTING C:\Users\PRESID~1\AppData\Local\Temp\ccTAWfEI.s 			page 69


 2563      385F5459 
 2563      50455F5F 
 2564 0573 01       		.byte	0x1
 2565 0574 00       		.uleb128 0
 2566 0575 5F5F5549 		.ascii "__UINT_LEAST16_TYPE__ short unsigned int\0"
 2566      4E545F4C 
 2566      45415354 
 2566      31365F54 
 2566      5950455F 
 2567 059e 01       		.byte	0x1
 2568 059f 00       		.uleb128 0
 2569 05a0 5F5F5549 		.ascii "__UINT_LEAST32_TYPE__ unsigned int\0"
 2569      4E545F4C 
 2569      45415354 
 2569      33325F54 
 2569      5950455F 
 2570 05c3 01       		.byte	0x1
 2571 05c4 00       		.uleb128 0
 2572 05c5 5F5F5549 		.ascii "__UINT_LEAST64_TYPE__ long long unsigned int\0"
 2572      4E545F4C 
 2572      45415354 
 2572      36345F54 
 2572      5950455F 
 2573 05f2 01       		.byte	0x1
 2574 05f3 00       		.uleb128 0
 2575 05f4 5F5F494E 		.ascii "__INT_FAST8_TYPE__ signed char\0"
 2575      545F4641 
 2575      5354385F 
 2575      54595045 
 2575      5F5F2073 
 2576 0613 01       		.byte	0x1
 2577 0614 00       		.uleb128 0
 2578 0615 5F5F494E 		.ascii "__INT_FAST16_TYPE__ short int\0"
 2578      545F4641 
 2578      53543136 
 2578      5F545950 
 2578      455F5F20 
 2579 0633 01       		.byte	0x1
 2580 0634 00       		.uleb128 0
 2581 0635 5F5F494E 		.ascii "__INT_FAST32_TYPE__ int\0"
 2581      545F4641 
 2581      53543332 
 2581      5F545950 
 2581      455F5F20 
 2582 064d 01       		.byte	0x1
 2583 064e 00       		.uleb128 0
 2584 064f 5F5F494E 		.ascii "__INT_FAST64_TYPE__ long long int\0"
 2584      545F4641 
 2584      53543634 
 2584      5F545950 
 2584      455F5F20 
 2585 0671 01       		.byte	0x1
 2586 0672 00       		.uleb128 0
 2587 0673 5F5F5549 		.ascii "__UINT_FAST8_TYPE__ unsigned char\0"
 2587      4E545F46 
 2587      41535438 
 2587      5F545950 
GAS LISTING C:\Users\PRESID~1\AppData\Local\Temp\ccTAWfEI.s 			page 70


 2587      455F5F20 
 2588 0695 01       		.byte	0x1
 2589 0696 00       		.uleb128 0
 2590 0697 5F5F5549 		.ascii "__UINT_FAST16_TYPE__ short unsigned int\0"
 2590      4E545F46 
 2590      41535431 
 2590      365F5459 
 2590      50455F5F 
 2591 06bf 01       		.byte	0x1
 2592 06c0 00       		.uleb128 0
 2593 06c1 5F5F5549 		.ascii "__UINT_FAST32_TYPE__ unsigned int\0"
 2593      4E545F46 
 2593      41535433 
 2593      325F5459 
 2593      50455F5F 
 2594 06e3 01       		.byte	0x1
 2595 06e4 00       		.uleb128 0
 2596 06e5 5F5F5549 		.ascii "__UINT_FAST64_TYPE__ long long unsigned int\0"
 2596      4E545F46 
 2596      41535436 
 2596      345F5459 
 2596      50455F5F 
 2597 0711 01       		.byte	0x1
 2598 0712 00       		.uleb128 0
 2599 0713 5F5F494E 		.ascii "__INTPTR_TYPE__ int\0"
 2599      54505452 
 2599      5F545950 
 2599      455F5F20 
 2599      696E7400 
 2600 0727 01       		.byte	0x1
 2601 0728 00       		.uleb128 0
 2602 0729 5F5F5549 		.ascii "__UINTPTR_TYPE__ unsigned int\0"
 2602      4E545054 
 2602      525F5459 
 2602      50455F5F 
 2602      20756E73 
 2603 0747 01       		.byte	0x1
 2604 0748 00       		.uleb128 0
 2605 0749 5F5F6861 		.ascii "__has_include(STR) __has_include__(STR)\0"
 2605      735F696E 
 2605      636C7564 
 2605      65285354 
 2605      5229205F 
 2606 0771 01       		.byte	0x1
 2607 0772 00       		.uleb128 0
 2608 0773 5F5F6861 		.ascii "__has_include_next(STR) __has_include_next__(STR)\0"
 2608      735F696E 
 2608      636C7564 
 2608      655F6E65 
 2608      78742853 
 2609 07a5 01       		.byte	0x1
 2610 07a6 00       		.uleb128 0
 2611 07a7 5F5F4758 		.ascii "__GXX_ABI_VERSION 1002\0"
 2611      585F4142 
 2611      495F5645 
 2611      5253494F 
 2611      4E203130 
GAS LISTING C:\Users\PRESID~1\AppData\Local\Temp\ccTAWfEI.s 			page 71


 2612 07be 01       		.byte	0x1
 2613 07bf 00       		.uleb128 0
 2614 07c0 5F5F5343 		.ascii "__SCHAR_MAX__ 127\0"
 2614      4841525F 
 2614      4D41585F 
 2614      5F203132 
 2614      3700
 2615 07d2 01       		.byte	0x1
 2616 07d3 00       		.uleb128 0
 2617 07d4 5F5F5348 		.ascii "__SHRT_MAX__ 32767\0"
 2617      52545F4D 
 2617      41585F5F 
 2617      20333237 
 2617      363700
 2618 07e7 01       		.byte	0x1
 2619 07e8 00       		.uleb128 0
 2620 07e9 5F5F494E 		.ascii "__INT_MAX__ 2147483647\0"
 2620      545F4D41 
 2620      585F5F20 
 2620      32313437 
 2620      34383336 
 2621 0800 01       		.byte	0x1
 2622 0801 00       		.uleb128 0
 2623 0802 5F5F4C4F 		.ascii "__LONG_MAX__ 2147483647L\0"
 2623      4E475F4D 
 2623      41585F5F 
 2623      20323134 
 2623      37343833 
 2624 081b 01       		.byte	0x1
 2625 081c 00       		.uleb128 0
 2626 081d 5F5F4C4F 		.ascii "__LONG_LONG_MAX__ 9223372036854775807LL\0"
 2626      4E475F4C 
 2626      4F4E475F 
 2626      4D41585F 
 2626      5F203932 
 2627 0845 01       		.byte	0x1
 2628 0846 00       		.uleb128 0
 2629 0847 5F5F5743 		.ascii "__WCHAR_MAX__ 65535\0"
 2629      4841525F 
 2629      4D41585F 
 2629      5F203635 
 2629      35333500 
 2630 085b 01       		.byte	0x1
 2631 085c 00       		.uleb128 0
 2632 085d 5F5F5743 		.ascii "__WCHAR_MIN__ 0\0"
 2632      4841525F 
 2632      4D494E5F 
 2632      5F203000 
 2633 086d 01       		.byte	0x1
 2634 086e 00       		.uleb128 0
 2635 086f 5F5F5749 		.ascii "__WINT_MAX__ 65535\0"
 2635      4E545F4D 
 2635      41585F5F 
 2635      20363535 
 2635      333500
 2636 0882 01       		.byte	0x1
 2637 0883 00       		.uleb128 0
GAS LISTING C:\Users\PRESID~1\AppData\Local\Temp\ccTAWfEI.s 			page 72


 2638 0884 5F5F5749 		.ascii "__WINT_MIN__ 0\0"
 2638      4E545F4D 
 2638      494E5F5F 
 2638      203000
 2639 0893 01       		.byte	0x1
 2640 0894 00       		.uleb128 0
 2641 0895 5F5F5054 		.ascii "__PTRDIFF_MAX__ 2147483647\0"
 2641      52444946 
 2641      465F4D41 
 2641      585F5F20 
 2641      32313437 
 2642 08b0 01       		.byte	0x1
 2643 08b1 00       		.uleb128 0
 2644 08b2 5F5F5349 		.ascii "__SIZE_MAX__ 4294967295U\0"
 2644      5A455F4D 
 2644      41585F5F 
 2644      20343239 
 2644      34393637 
 2645 08cb 01       		.byte	0x1
 2646 08cc 00       		.uleb128 0
 2647 08cd 5F5F494E 		.ascii "__INTMAX_MAX__ 9223372036854775807LL\0"
 2647      544D4158 
 2647      5F4D4158 
 2647      5F5F2039 
 2647      32323333 
 2648 08f2 01       		.byte	0x1
 2649 08f3 00       		.uleb128 0
 2650 08f4 5F5F494E 		.ascii "__INTMAX_C(c) c ## LL\0"
 2650      544D4158 
 2650      5F432863 
 2650      29206320 
 2650      2323204C 
 2651 090a 01       		.byte	0x1
 2652 090b 00       		.uleb128 0
 2653 090c 5F5F5549 		.ascii "__UINTMAX_MAX__ 18446744073709551615ULL\0"
 2653      4E544D41 
 2653      585F4D41 
 2653      585F5F20 
 2653      31383434 
 2654 0934 01       		.byte	0x1
 2655 0935 00       		.uleb128 0
 2656 0936 5F5F5549 		.ascii "__UINTMAX_C(c) c ## ULL\0"
 2656      4E544D41 
 2656      585F4328 
 2656      63292063 
 2656      20232320 
 2657 094e 01       		.byte	0x1
 2658 094f 00       		.uleb128 0
 2659 0950 5F5F5349 		.ascii "__SIG_ATOMIC_MAX__ 2147483647\0"
 2659      475F4154 
 2659      4F4D4943 
 2659      5F4D4158 
 2659      5F5F2032 
 2660 096e 01       		.byte	0x1
 2661 096f 00       		.uleb128 0
 2662 0970 5F5F5349 		.ascii "__SIG_ATOMIC_MIN__ (-__SIG_ATOMIC_MAX__ - 1)\0"
 2662      475F4154 
GAS LISTING C:\Users\PRESID~1\AppData\Local\Temp\ccTAWfEI.s 			page 73


 2662      4F4D4943 
 2662      5F4D494E 
 2662      5F5F2028 
 2663 099d 01       		.byte	0x1
 2664 099e 00       		.uleb128 0
 2665 099f 5F5F494E 		.ascii "__INT8_MAX__ 127\0"
 2665      54385F4D 
 2665      41585F5F 
 2665      20313237 
 2665      00
 2666 09b0 01       		.byte	0x1
 2667 09b1 00       		.uleb128 0
 2668 09b2 5F5F494E 		.ascii "__INT16_MAX__ 32767\0"
 2668      5431365F 
 2668      4D41585F 
 2668      5F203332 
 2668      37363700 
 2669 09c6 01       		.byte	0x1
 2670 09c7 00       		.uleb128 0
 2671 09c8 5F5F494E 		.ascii "__INT32_MAX__ 2147483647\0"
 2671      5433325F 
 2671      4D41585F 
 2671      5F203231 
 2671      34373438 
 2672 09e1 01       		.byte	0x1
 2673 09e2 00       		.uleb128 0
 2674 09e3 5F5F494E 		.ascii "__INT64_MAX__ 9223372036854775807LL\0"
 2674      5436345F 
 2674      4D41585F 
 2674      5F203932 
 2674      32333337 
 2675 0a07 01       		.byte	0x1
 2676 0a08 00       		.uleb128 0
 2677 0a09 5F5F5549 		.ascii "__UINT8_MAX__ 255\0"
 2677      4E54385F 
 2677      4D41585F 
 2677      5F203235 
 2677      3500
 2678 0a1b 01       		.byte	0x1
 2679 0a1c 00       		.uleb128 0
 2680 0a1d 5F5F5549 		.ascii "__UINT16_MAX__ 65535\0"
 2680      4E543136 
 2680      5F4D4158 
 2680      5F5F2036 
 2680      35353335 
 2681 0a32 01       		.byte	0x1
 2682 0a33 00       		.uleb128 0
 2683 0a34 5F5F5549 		.ascii "__UINT32_MAX__ 4294967295U\0"
 2683      4E543332 
 2683      5F4D4158 
 2683      5F5F2034 
 2683      32393439 
 2684 0a4f 01       		.byte	0x1
 2685 0a50 00       		.uleb128 0
 2686 0a51 5F5F5549 		.ascii "__UINT64_MAX__ 18446744073709551615ULL\0"
 2686      4E543634 
 2686      5F4D4158 
GAS LISTING C:\Users\PRESID~1\AppData\Local\Temp\ccTAWfEI.s 			page 74


 2686      5F5F2031 
 2686      38343436 
 2687 0a78 01       		.byte	0x1
 2688 0a79 00       		.uleb128 0
 2689 0a7a 5F5F494E 		.ascii "__INT_LEAST8_MAX__ 127\0"
 2689      545F4C45 
 2689      41535438 
 2689      5F4D4158 
 2689      5F5F2031 
 2690 0a91 01       		.byte	0x1
 2691 0a92 00       		.uleb128 0
 2692 0a93 5F5F494E 		.ascii "__INT8_C(c) c\0"
 2692      54385F43 
 2692      28632920 
 2692      6300
 2693 0aa1 01       		.byte	0x1
 2694 0aa2 00       		.uleb128 0
 2695 0aa3 5F5F494E 		.ascii "__INT_LEAST16_MAX__ 32767\0"
 2695      545F4C45 
 2695      41535431 
 2695      365F4D41 
 2695      585F5F20 
 2696 0abd 01       		.byte	0x1
 2697 0abe 00       		.uleb128 0
 2698 0abf 5F5F494E 		.ascii "__INT16_C(c) c\0"
 2698      5431365F 
 2698      43286329 
 2698      206300
 2699 0ace 01       		.byte	0x1
 2700 0acf 00       		.uleb128 0
 2701 0ad0 5F5F494E 		.ascii "__INT_LEAST32_MAX__ 2147483647\0"
 2701      545F4C45 
 2701      41535433 
 2701      325F4D41 
 2701      585F5F20 
 2702 0aef 01       		.byte	0x1
 2703 0af0 00       		.uleb128 0
 2704 0af1 5F5F494E 		.ascii "__INT32_C(c) c\0"
 2704      5433325F 
 2704      43286329 
 2704      206300
 2705 0b00 01       		.byte	0x1
 2706 0b01 00       		.uleb128 0
 2707 0b02 5F5F494E 		.ascii "__INT_LEAST64_MAX__ 9223372036854775807LL\0"
 2707      545F4C45 
 2707      41535436 
 2707      345F4D41 
 2707      585F5F20 
 2708 0b2c 01       		.byte	0x1
 2709 0b2d 00       		.uleb128 0
 2710 0b2e 5F5F494E 		.ascii "__INT64_C(c) c ## LL\0"
 2710      5436345F 
 2710      43286329 
 2710      20632023 
 2710      23204C4C 
 2711 0b43 01       		.byte	0x1
 2712 0b44 00       		.uleb128 0
GAS LISTING C:\Users\PRESID~1\AppData\Local\Temp\ccTAWfEI.s 			page 75


 2713 0b45 5F5F5549 		.ascii "__UINT_LEAST8_MAX__ 255\0"
 2713      4E545F4C 
 2713      45415354 
 2713      385F4D41 
 2713      585F5F20 
 2714 0b5d 01       		.byte	0x1
 2715 0b5e 00       		.uleb128 0
 2716 0b5f 5F5F5549 		.ascii "__UINT8_C(c) c\0"
 2716      4E54385F 
 2716      43286329 
 2716      206300
 2717 0b6e 01       		.byte	0x1
 2718 0b6f 00       		.uleb128 0
 2719 0b70 5F5F5549 		.ascii "__UINT_LEAST16_MAX__ 65535\0"
 2719      4E545F4C 
 2719      45415354 
 2719      31365F4D 
 2719      41585F5F 
 2720 0b8b 01       		.byte	0x1
 2721 0b8c 00       		.uleb128 0
 2722 0b8d 5F5F5549 		.ascii "__UINT16_C(c) c\0"
 2722      4E543136 
 2722      5F432863 
 2722      29206300 
 2723 0b9d 01       		.byte	0x1
 2724 0b9e 00       		.uleb128 0
 2725 0b9f 5F5F5549 		.ascii "__UINT_LEAST32_MAX__ 4294967295U\0"
 2725      4E545F4C 
 2725      45415354 
 2725      33325F4D 
 2725      41585F5F 
 2726 0bc0 01       		.byte	0x1
 2727 0bc1 00       		.uleb128 0
 2728 0bc2 5F5F5549 		.ascii "__UINT32_C(c) c ## U\0"
 2728      4E543332 
 2728      5F432863 
 2728      29206320 
 2728      23232055 
 2729 0bd7 01       		.byte	0x1
 2730 0bd8 00       		.uleb128 0
 2731 0bd9 5F5F5549 		.ascii "__UINT_LEAST64_MAX__ 18446744073709551615ULL\0"
 2731      4E545F4C 
 2731      45415354 
 2731      36345F4D 
 2731      41585F5F 
 2732 0c06 01       		.byte	0x1
 2733 0c07 00       		.uleb128 0
 2734 0c08 5F5F5549 		.ascii "__UINT64_C(c) c ## ULL\0"
 2734      4E543634 
 2734      5F432863 
 2734      29206320 
 2734      23232055 
 2735 0c1f 01       		.byte	0x1
 2736 0c20 00       		.uleb128 0
 2737 0c21 5F5F494E 		.ascii "__INT_FAST8_MAX__ 127\0"
 2737      545F4641 
 2737      5354385F 
GAS LISTING C:\Users\PRESID~1\AppData\Local\Temp\ccTAWfEI.s 			page 76


 2737      4D41585F 
 2737      5F203132 
 2738 0c37 01       		.byte	0x1
 2739 0c38 00       		.uleb128 0
 2740 0c39 5F5F494E 		.ascii "__INT_FAST16_MAX__ 32767\0"
 2740      545F4641 
 2740      53543136 
 2740      5F4D4158 
 2740      5F5F2033 
 2741 0c52 01       		.byte	0x1
 2742 0c53 00       		.uleb128 0
 2743 0c54 5F5F494E 		.ascii "__INT_FAST32_MAX__ 2147483647\0"
 2743      545F4641 
 2743      53543332 
 2743      5F4D4158 
 2743      5F5F2032 
 2744 0c72 01       		.byte	0x1
 2745 0c73 00       		.uleb128 0
 2746 0c74 5F5F494E 		.ascii "__INT_FAST64_MAX__ 9223372036854775807LL\0"
 2746      545F4641 
 2746      53543634 
 2746      5F4D4158 
 2746      5F5F2039 
 2747 0c9d 01       		.byte	0x1
 2748 0c9e 00       		.uleb128 0
 2749 0c9f 5F5F5549 		.ascii "__UINT_FAST8_MAX__ 255\0"
 2749      4E545F46 
 2749      41535438 
 2749      5F4D4158 
 2749      5F5F2032 
 2750 0cb6 01       		.byte	0x1
 2751 0cb7 00       		.uleb128 0
 2752 0cb8 5F5F5549 		.ascii "__UINT_FAST16_MAX__ 65535\0"
 2752      4E545F46 
 2752      41535431 
 2752      365F4D41 
 2752      585F5F20 
 2753 0cd2 01       		.byte	0x1
 2754 0cd3 00       		.uleb128 0
 2755 0cd4 5F5F5549 		.ascii "__UINT_FAST32_MAX__ 4294967295U\0"
 2755      4E545F46 
 2755      41535433 
 2755      325F4D41 
 2755      585F5F20 
 2756 0cf4 01       		.byte	0x1
 2757 0cf5 00       		.uleb128 0
 2758 0cf6 5F5F5549 		.ascii "__UINT_FAST64_MAX__ 18446744073709551615ULL\0"
 2758      4E545F46 
 2758      41535436 
 2758      345F4D41 
 2758      585F5F20 
 2759 0d22 01       		.byte	0x1
 2760 0d23 00       		.uleb128 0
 2761 0d24 5F5F494E 		.ascii "__INTPTR_MAX__ 2147483647\0"
 2761      54505452 
 2761      5F4D4158 
 2761      5F5F2032 
GAS LISTING C:\Users\PRESID~1\AppData\Local\Temp\ccTAWfEI.s 			page 77


 2761      31343734 
 2762 0d3e 01       		.byte	0x1
 2763 0d3f 00       		.uleb128 0
 2764 0d40 5F5F5549 		.ascii "__UINTPTR_MAX__ 4294967295U\0"
 2764      4E545054 
 2764      525F4D41 
 2764      585F5F20 
 2764      34323934 
 2765 0d5c 01       		.byte	0x1
 2766 0d5d 00       		.uleb128 0
 2767 0d5e 5F5F4743 		.ascii "__GCC_IEC_559 2\0"
 2767      435F4945 
 2767      435F3535 
 2767      39203200 
 2768 0d6e 01       		.byte	0x1
 2769 0d6f 00       		.uleb128 0
 2770 0d70 5F5F4743 		.ascii "__GCC_IEC_559_COMPLEX 2\0"
 2770      435F4945 
 2770      435F3535 
 2770      395F434F 
 2770      4D504C45 
 2771 0d88 01       		.byte	0x1
 2772 0d89 00       		.uleb128 0
 2773 0d8a 5F5F464C 		.ascii "__FLT_EVAL_METHOD__ 2\0"
 2773      545F4556 
 2773      414C5F4D 
 2773      4554484F 
 2773      445F5F20 
 2774 0da0 01       		.byte	0x1
 2775 0da1 00       		.uleb128 0
 2776 0da2 5F5F4445 		.ascii "__DEC_EVAL_METHOD__ 2\0"
 2776      435F4556 
 2776      414C5F4D 
 2776      4554484F 
 2776      445F5F20 
 2777 0db8 01       		.byte	0x1
 2778 0db9 00       		.uleb128 0
 2779 0dba 5F5F464C 		.ascii "__FLT_RADIX__ 2\0"
 2779      545F5241 
 2779      4449585F 
 2779      5F203200 
 2780 0dca 01       		.byte	0x1
 2781 0dcb 00       		.uleb128 0
 2782 0dcc 5F5F464C 		.ascii "__FLT_MANT_DIG__ 24\0"
 2782      545F4D41 
 2782      4E545F44 
 2782      49475F5F 
 2782      20323400 
 2783 0de0 01       		.byte	0x1
 2784 0de1 00       		.uleb128 0
 2785 0de2 5F5F464C 		.ascii "__FLT_DIG__ 6\0"
 2785      545F4449 
 2785      475F5F20 
 2785      3600
 2786 0df0 01       		.byte	0x1
 2787 0df1 00       		.uleb128 0
 2788 0df2 5F5F464C 		.ascii "__FLT_MIN_EXP__ (-125)\0"
GAS LISTING C:\Users\PRESID~1\AppData\Local\Temp\ccTAWfEI.s 			page 78


 2788      545F4D49 
 2788      4E5F4558 
 2788      505F5F20 
 2788      282D3132 
 2789 0e09 01       		.byte	0x1
 2790 0e0a 00       		.uleb128 0
 2791 0e0b 5F5F464C 		.ascii "__FLT_MIN_10_EXP__ (-37)\0"
 2791      545F4D49 
 2791      4E5F3130 
 2791      5F455850 
 2791      5F5F2028 
 2792 0e24 01       		.byte	0x1
 2793 0e25 00       		.uleb128 0
 2794 0e26 5F5F464C 		.ascii "__FLT_MAX_EXP__ 128\0"
 2794      545F4D41 
 2794      585F4558 
 2794      505F5F20 
 2794      31323800 
 2795 0e3a 01       		.byte	0x1
 2796 0e3b 00       		.uleb128 0
 2797 0e3c 5F5F464C 		.ascii "__FLT_MAX_10_EXP__ 38\0"
 2797      545F4D41 
 2797      585F3130 
 2797      5F455850 
 2797      5F5F2033 
 2798 0e52 01       		.byte	0x1
 2799 0e53 00       		.uleb128 0
 2800 0e54 5F5F464C 		.ascii "__FLT_DECIMAL_DIG__ 9\0"
 2800      545F4445 
 2800      43494D41 
 2800      4C5F4449 
 2800      475F5F20 
 2801 0e6a 01       		.byte	0x1
 2802 0e6b 00       		.uleb128 0
 2803 0e6c 5F5F464C 		.ascii "__FLT_MAX__ 3.40282346638528859812e+38F\0"
 2803      545F4D41 
 2803      585F5F20 
 2803      332E3430 
 2803      32383233 
 2804 0e94 01       		.byte	0x1
 2805 0e95 00       		.uleb128 0
 2806 0e96 5F5F464C 		.ascii "__FLT_MIN__ 1.17549435082228750797e-38F\0"
 2806      545F4D49 
 2806      4E5F5F20 
 2806      312E3137 
 2806      35343934 
 2807 0ebe 01       		.byte	0x1
 2808 0ebf 00       		.uleb128 0
 2809 0ec0 5F5F464C 		.ascii "__FLT_EPSILON__ 1.19209289550781250000e-7F\0"
 2809      545F4550 
 2809      53494C4F 
 2809      4E5F5F20 
 2809      312E3139 
 2810 0eeb 01       		.byte	0x1
 2811 0eec 00       		.uleb128 0
 2812 0eed 5F5F464C 		.ascii "__FLT_DENORM_MIN__ 1.40129846432481707092e-45F\0"
 2812      545F4445 
GAS LISTING C:\Users\PRESID~1\AppData\Local\Temp\ccTAWfEI.s 			page 79


 2812      4E4F524D 
 2812      5F4D494E 
 2812      5F5F2031 
 2813 0f1c 01       		.byte	0x1
 2814 0f1d 00       		.uleb128 0
 2815 0f1e 5F5F464C 		.ascii "__FLT_HAS_DENORM__ 1\0"
 2815      545F4841 
 2815      535F4445 
 2815      4E4F524D 
 2815      5F5F2031 
 2816 0f33 01       		.byte	0x1
 2817 0f34 00       		.uleb128 0
 2818 0f35 5F5F464C 		.ascii "__FLT_HAS_INFINITY__ 1\0"
 2818      545F4841 
 2818      535F494E 
 2818      46494E49 
 2818      54595F5F 
 2819 0f4c 01       		.byte	0x1
 2820 0f4d 00       		.uleb128 0
 2821 0f4e 5F5F464C 		.ascii "__FLT_HAS_QUIET_NAN__ 1\0"
 2821      545F4841 
 2821      535F5155 
 2821      4945545F 
 2821      4E414E5F 
 2822 0f66 01       		.byte	0x1
 2823 0f67 00       		.uleb128 0
 2824 0f68 5F5F4442 		.ascii "__DBL_MANT_DIG__ 53\0"
 2824      4C5F4D41 
 2824      4E545F44 
 2824      49475F5F 
 2824      20353300 
 2825 0f7c 01       		.byte	0x1
 2826 0f7d 00       		.uleb128 0
 2827 0f7e 5F5F4442 		.ascii "__DBL_DIG__ 15\0"
 2827      4C5F4449 
 2827      475F5F20 
 2827      313500
 2828 0f8d 01       		.byte	0x1
 2829 0f8e 00       		.uleb128 0
 2830 0f8f 5F5F4442 		.ascii "__DBL_MIN_EXP__ (-1021)\0"
 2830      4C5F4D49 
 2830      4E5F4558 
 2830      505F5F20 
 2830      282D3130 
 2831 0fa7 01       		.byte	0x1
 2832 0fa8 00       		.uleb128 0
 2833 0fa9 5F5F4442 		.ascii "__DBL_MIN_10_EXP__ (-307)\0"
 2833      4C5F4D49 
 2833      4E5F3130 
 2833      5F455850 
 2833      5F5F2028 
 2834 0fc3 01       		.byte	0x1
 2835 0fc4 00       		.uleb128 0
 2836 0fc5 5F5F4442 		.ascii "__DBL_MAX_EXP__ 1024\0"
 2836      4C5F4D41 
 2836      585F4558 
 2836      505F5F20 
GAS LISTING C:\Users\PRESID~1\AppData\Local\Temp\ccTAWfEI.s 			page 80


 2836      31303234 
 2837 0fda 01       		.byte	0x1
 2838 0fdb 00       		.uleb128 0
 2839 0fdc 5F5F4442 		.ascii "__DBL_MAX_10_EXP__ 308\0"
 2839      4C5F4D41 
 2839      585F3130 
 2839      5F455850 
 2839      5F5F2033 
 2840 0ff3 01       		.byte	0x1
 2841 0ff4 00       		.uleb128 0
 2842 0ff5 5F5F4442 		.ascii "__DBL_DECIMAL_DIG__ 17\0"
 2842      4C5F4445 
 2842      43494D41 
 2842      4C5F4449 
 2842      475F5F20 
 2843 100c 01       		.byte	0x1
 2844 100d 00       		.uleb128 0
 2845 100e 5F5F4442 		.ascii "__DBL_MAX__ ((double)1.79769313486231570815e+308L)\0"
 2845      4C5F4D41 
 2845      585F5F20 
 2845      2828646F 
 2845      75626C65 
 2846 1041 01       		.byte	0x1
 2847 1042 00       		.uleb128 0
 2848 1043 5F5F4442 		.ascii "__DBL_MIN__ ((double)2.22507385850720138309e-308L)\0"
 2848      4C5F4D49 
 2848      4E5F5F20 
 2848      2828646F 
 2848      75626C65 
 2849 1076 01       		.byte	0x1
 2850 1077 00       		.uleb128 0
 2851 1078 5F5F4442 		.ascii "__DBL_EPSILON__ ((double)2.22044604925031308085e-16L)\0"
 2851      4C5F4550 
 2851      53494C4F 
 2851      4E5F5F20 
 2851      2828646F 
 2852 10ae 01       		.byte	0x1
 2853 10af 00       		.uleb128 0
 2854 10b0 5F5F4442 		.ascii "__DBL_DENORM_MIN__ ((double)4.94065645841246544177e-324L)\0"
 2854      4C5F4445 
 2854      4E4F524D 
 2854      5F4D494E 
 2854      5F5F2028 
 2855 10ea 01       		.byte	0x1
 2856 10eb 00       		.uleb128 0
 2857 10ec 5F5F4442 		.ascii "__DBL_HAS_DENORM__ 1\0"
 2857      4C5F4841 
 2857      535F4445 
 2857      4E4F524D 
 2857      5F5F2031 
 2858 1101 01       		.byte	0x1
 2859 1102 00       		.uleb128 0
 2860 1103 5F5F4442 		.ascii "__DBL_HAS_INFINITY__ 1\0"
 2860      4C5F4841 
 2860      535F494E 
 2860      46494E49 
 2860      54595F5F 
GAS LISTING C:\Users\PRESID~1\AppData\Local\Temp\ccTAWfEI.s 			page 81


 2861 111a 01       		.byte	0x1
 2862 111b 00       		.uleb128 0
 2863 111c 5F5F4442 		.ascii "__DBL_HAS_QUIET_NAN__ 1\0"
 2863      4C5F4841 
 2863      535F5155 
 2863      4945545F 
 2863      4E414E5F 
 2864 1134 01       		.byte	0x1
 2865 1135 00       		.uleb128 0
 2866 1136 5F5F4C44 		.ascii "__LDBL_MANT_DIG__ 64\0"
 2866      424C5F4D 
 2866      414E545F 
 2866      4449475F 
 2866      5F203634 
 2867 114b 01       		.byte	0x1
 2868 114c 00       		.uleb128 0
 2869 114d 5F5F4C44 		.ascii "__LDBL_DIG__ 18\0"
 2869      424C5F44 
 2869      49475F5F 
 2869      20313800 
 2870 115d 01       		.byte	0x1
 2871 115e 00       		.uleb128 0
 2872 115f 5F5F4C44 		.ascii "__LDBL_MIN_EXP__ (-16381)\0"
 2872      424C5F4D 
 2872      494E5F45 
 2872      58505F5F 
 2872      20282D31 
 2873 1179 01       		.byte	0x1
 2874 117a 00       		.uleb128 0
 2875 117b 5F5F4C44 		.ascii "__LDBL_MIN_10_EXP__ (-4931)\0"
 2875      424C5F4D 
 2875      494E5F31 
 2875      305F4558 
 2875      505F5F20 
 2876 1197 01       		.byte	0x1
 2877 1198 00       		.uleb128 0
 2878 1199 5F5F4C44 		.ascii "__LDBL_MAX_EXP__ 16384\0"
 2878      424C5F4D 
 2878      41585F45 
 2878      58505F5F 
 2878      20313633 
 2879 11b0 01       		.byte	0x1
 2880 11b1 00       		.uleb128 0
 2881 11b2 5F5F4C44 		.ascii "__LDBL_MAX_10_EXP__ 4932\0"
 2881      424C5F4D 
 2881      41585F31 
 2881      305F4558 
 2881      505F5F20 
 2882 11cb 01       		.byte	0x1
 2883 11cc 00       		.uleb128 0
 2884 11cd 5F5F4445 		.ascii "__DECIMAL_DIG__ 21\0"
 2884      43494D41 
 2884      4C5F4449 
 2884      475F5F20 
 2884      323100
 2885 11e0 01       		.byte	0x1
 2886 11e1 00       		.uleb128 0
GAS LISTING C:\Users\PRESID~1\AppData\Local\Temp\ccTAWfEI.s 			page 82


 2887 11e2 5F5F4C44 		.ascii "__LDBL_MAX__ 1.18973149535723176502e+4932L\0"
 2887      424C5F4D 
 2887      41585F5F 
 2887      20312E31 
 2887      38393733 
 2888 120d 01       		.byte	0x1
 2889 120e 00       		.uleb128 0
 2890 120f 5F5F4C44 		.ascii "__LDBL_MIN__ 3.36210314311209350626e-4932L\0"
 2890      424C5F4D 
 2890      494E5F5F 
 2890      20332E33 
 2890      36323130 
 2891 123a 01       		.byte	0x1
 2892 123b 00       		.uleb128 0
 2893 123c 5F5F4C44 		.ascii "__LDBL_EPSILON__ 1.08420217248550443401e-19L\0"
 2893      424C5F45 
 2893      5053494C 
 2893      4F4E5F5F 
 2893      20312E30 
 2894 1269 01       		.byte	0x1
 2895 126a 00       		.uleb128 0
 2896 126b 5F5F4C44 		.ascii "__LDBL_DENORM_MIN__ 3.64519953188247460253e-4951L\0"
 2896      424C5F44 
 2896      454E4F52 
 2896      4D5F4D49 
 2896      4E5F5F20 
 2897 129d 01       		.byte	0x1
 2898 129e 00       		.uleb128 0
 2899 129f 5F5F4C44 		.ascii "__LDBL_HAS_DENORM__ 1\0"
 2899      424C5F48 
 2899      41535F44 
 2899      454E4F52 
 2899      4D5F5F20 
 2900 12b5 01       		.byte	0x1
 2901 12b6 00       		.uleb128 0
 2902 12b7 5F5F4C44 		.ascii "__LDBL_HAS_INFINITY__ 1\0"
 2902      424C5F48 
 2902      41535F49 
 2902      4E46494E 
 2902      4954595F 
 2903 12cf 01       		.byte	0x1
 2904 12d0 00       		.uleb128 0
 2905 12d1 5F5F4C44 		.ascii "__LDBL_HAS_QUIET_NAN__ 1\0"
 2905      424C5F48 
 2905      41535F51 
 2905      55494554 
 2905      5F4E414E 
 2906 12ea 01       		.byte	0x1
 2907 12eb 00       		.uleb128 0
 2908 12ec 5F5F4445 		.ascii "__DEC32_MANT_DIG__ 7\0"
 2908      4333325F 
 2908      4D414E54 
 2908      5F444947 
 2908      5F5F2037 
 2909 1301 01       		.byte	0x1
 2910 1302 00       		.uleb128 0
 2911 1303 5F5F4445 		.ascii "__DEC32_MIN_EXP__ (-94)\0"
GAS LISTING C:\Users\PRESID~1\AppData\Local\Temp\ccTAWfEI.s 			page 83


 2911      4333325F 
 2911      4D494E5F 
 2911      4558505F 
 2911      5F20282D 
 2912 131b 01       		.byte	0x1
 2913 131c 00       		.uleb128 0
 2914 131d 5F5F4445 		.ascii "__DEC32_MAX_EXP__ 97\0"
 2914      4333325F 
 2914      4D41585F 
 2914      4558505F 
 2914      5F203937 
 2915 1332 01       		.byte	0x1
 2916 1333 00       		.uleb128 0
 2917 1334 5F5F4445 		.ascii "__DEC32_MIN__ 1E-95DF\0"
 2917      4333325F 
 2917      4D494E5F 
 2917      5F203145 
 2917      2D393544 
 2918 134a 01       		.byte	0x1
 2919 134b 00       		.uleb128 0
 2920 134c 5F5F4445 		.ascii "__DEC32_MAX__ 9.999999E96DF\0"
 2920      4333325F 
 2920      4D41585F 
 2920      5F20392E 
 2920      39393939 
 2921 1368 01       		.byte	0x1
 2922 1369 00       		.uleb128 0
 2923 136a 5F5F4445 		.ascii "__DEC32_EPSILON__ 1E-6DF\0"
 2923      4333325F 
 2923      45505349 
 2923      4C4F4E5F 
 2923      5F203145 
 2924 1383 01       		.byte	0x1
 2925 1384 00       		.uleb128 0
 2926 1385 5F5F4445 		.ascii "__DEC32_SUBNORMAL_MIN__ 0.000001E-95DF\0"
 2926      4333325F 
 2926      5355424E 
 2926      4F524D41 
 2926      4C5F4D49 
 2927 13ac 01       		.byte	0x1
 2928 13ad 00       		.uleb128 0
 2929 13ae 5F5F4445 		.ascii "__DEC64_MANT_DIG__ 16\0"
 2929      4336345F 
 2929      4D414E54 
 2929      5F444947 
 2929      5F5F2031 
 2930 13c4 01       		.byte	0x1
 2931 13c5 00       		.uleb128 0
 2932 13c6 5F5F4445 		.ascii "__DEC64_MIN_EXP__ (-382)\0"
 2932      4336345F 
 2932      4D494E5F 
 2932      4558505F 
 2932      5F20282D 
 2933 13df 01       		.byte	0x1
 2934 13e0 00       		.uleb128 0
 2935 13e1 5F5F4445 		.ascii "__DEC64_MAX_EXP__ 385\0"
 2935      4336345F 
GAS LISTING C:\Users\PRESID~1\AppData\Local\Temp\ccTAWfEI.s 			page 84


 2935      4D41585F 
 2935      4558505F 
 2935      5F203338 
 2936 13f7 01       		.byte	0x1
 2937 13f8 00       		.uleb128 0
 2938 13f9 5F5F4445 		.ascii "__DEC64_MIN__ 1E-383DD\0"
 2938      4336345F 
 2938      4D494E5F 
 2938      5F203145 
 2938      2D333833 
 2939 1410 01       		.byte	0x1
 2940 1411 00       		.uleb128 0
 2941 1412 5F5F4445 		.ascii "__DEC64_MAX__ 9.999999999999999E384DD\0"
 2941      4336345F 
 2941      4D41585F 
 2941      5F20392E 
 2941      39393939 
 2942 1438 01       		.byte	0x1
 2943 1439 00       		.uleb128 0
 2944 143a 5F5F4445 		.ascii "__DEC64_EPSILON__ 1E-15DD\0"
 2944      4336345F 
 2944      45505349 
 2944      4C4F4E5F 
 2944      5F203145 
 2945 1454 01       		.byte	0x1
 2946 1455 00       		.uleb128 0
 2947 1456 5F5F4445 		.ascii "__DEC64_SUBNORMAL_MIN__ 0.000000000000001E-383DD\0"
 2947      4336345F 
 2947      5355424E 
 2947      4F524D41 
 2947      4C5F4D49 
 2948 1487 01       		.byte	0x1
 2949 1488 00       		.uleb128 0
 2950 1489 5F5F4445 		.ascii "__DEC128_MANT_DIG__ 34\0"
 2950      43313238 
 2950      5F4D414E 
 2950      545F4449 
 2950      475F5F20 
 2951 14a0 01       		.byte	0x1
 2952 14a1 00       		.uleb128 0
 2953 14a2 5F5F4445 		.ascii "__DEC128_MIN_EXP__ (-6142)\0"
 2953      43313238 
 2953      5F4D494E 
 2953      5F455850 
 2953      5F5F2028 
 2954 14bd 01       		.byte	0x1
 2955 14be 00       		.uleb128 0
 2956 14bf 5F5F4445 		.ascii "__DEC128_MAX_EXP__ 6145\0"
 2956      43313238 
 2956      5F4D4158 
 2956      5F455850 
 2956      5F5F2036 
 2957 14d7 01       		.byte	0x1
 2958 14d8 00       		.uleb128 0
 2959 14d9 5F5F4445 		.ascii "__DEC128_MIN__ 1E-6143DL\0"
 2959      43313238 
 2959      5F4D494E 
GAS LISTING C:\Users\PRESID~1\AppData\Local\Temp\ccTAWfEI.s 			page 85


 2959      5F5F2031 
 2959      452D3631 
 2960 14f2 01       		.byte	0x1
 2961 14f3 00       		.uleb128 0
 2962 14f4 5F5F4445 		.ascii "__DEC128_MAX__ 9.999999999999999999999999999999999E6144DL\0"
 2962      43313238 
 2962      5F4D4158 
 2962      5F5F2039 
 2962      2E393939 
 2963 152e 01       		.byte	0x1
 2964 152f 00       		.uleb128 0
 2965 1530 5F5F4445 		.ascii "__DEC128_EPSILON__ 1E-33DL\0"
 2965      43313238 
 2965      5F455053 
 2965      494C4F4E 
 2965      5F5F2031 
 2966 154b 01       		.byte	0x1
 2967 154c 00       		.uleb128 0
 2968 154d 5F5F4445 		.ascii "__DEC128_SUBNORMAL_MIN__ 0.000000000000000000000000000000001E-6143DL\0"
 2968      43313238 
 2968      5F535542 
 2968      4E4F524D 
 2968      414C5F4D 
 2969 1592 01       		.byte	0x1
 2970 1593 00       		.uleb128 0
 2971 1594 5F5F5245 		.ascii "__REGISTER_PREFIX__ \0"
 2971      47495354 
 2971      45525F50 
 2971      52454649 
 2971      585F5F20 
 2972 15a9 01       		.byte	0x1
 2973 15aa 00       		.uleb128 0
 2974 15ab 5F5F5553 		.ascii "__USER_LABEL_PREFIX__ _\0"
 2974      45525F4C 
 2974      4142454C 
 2974      5F505245 
 2974      4649585F 
 2975 15c3 01       		.byte	0x1
 2976 15c4 00       		.uleb128 0
 2977 15c5 5F5F474E 		.ascii "__GNUC_GNU_INLINE__ 1\0"
 2977      55435F47 
 2977      4E555F49 
 2977      4E4C494E 
 2977      455F5F20 
 2978 15db 01       		.byte	0x1
 2979 15dc 00       		.uleb128 0
 2980 15dd 5F5F4E4F 		.ascii "__NO_INLINE__ 1\0"
 2980      5F494E4C 
 2980      494E455F 
 2980      5F203100 
 2981 15ed 01       		.byte	0x1
 2982 15ee 00       		.uleb128 0
 2983 15ef 5F5F5354 		.ascii "__STRICT_ANSI__ 1\0"
 2983      52494354 
 2983      5F414E53 
 2983      495F5F20 
 2983      3100
GAS LISTING C:\Users\PRESID~1\AppData\Local\Temp\ccTAWfEI.s 			page 86


 2984 1601 01       		.byte	0x1
 2985 1602 00       		.uleb128 0
 2986 1603 5F5F4743 		.ascii "__GCC_ATOMIC_BOOL_LOCK_FREE 1\0"
 2986      435F4154 
 2986      4F4D4943 
 2986      5F424F4F 
 2986      4C5F4C4F 
 2987 1621 01       		.byte	0x1
 2988 1622 00       		.uleb128 0
 2989 1623 5F5F4743 		.ascii "__GCC_ATOMIC_CHAR_LOCK_FREE 1\0"
 2989      435F4154 
 2989      4F4D4943 
 2989      5F434841 
 2989      525F4C4F 
 2990 1641 01       		.byte	0x1
 2991 1642 00       		.uleb128 0
 2992 1643 5F5F4743 		.ascii "__GCC_ATOMIC_CHAR16_T_LOCK_FREE 1\0"
 2992      435F4154 
 2992      4F4D4943 
 2992      5F434841 
 2992      5231365F 
 2993 1665 01       		.byte	0x1
 2994 1666 00       		.uleb128 0
 2995 1667 5F5F4743 		.ascii "__GCC_ATOMIC_CHAR32_T_LOCK_FREE 1\0"
 2995      435F4154 
 2995      4F4D4943 
 2995      5F434841 
 2995      5233325F 
 2996 1689 01       		.byte	0x1
 2997 168a 00       		.uleb128 0
 2998 168b 5F5F4743 		.ascii "__GCC_ATOMIC_WCHAR_T_LOCK_FREE 1\0"
 2998      435F4154 
 2998      4F4D4943 
 2998      5F574348 
 2998      41525F54 
 2999 16ac 01       		.byte	0x1
 3000 16ad 00       		.uleb128 0
 3001 16ae 5F5F4743 		.ascii "__GCC_ATOMIC_SHORT_LOCK_FREE 1\0"
 3001      435F4154 
 3001      4F4D4943 
 3001      5F53484F 
 3001      52545F4C 
 3002 16cd 01       		.byte	0x1
 3003 16ce 00       		.uleb128 0
 3004 16cf 5F5F4743 		.ascii "__GCC_ATOMIC_INT_LOCK_FREE 1\0"
 3004      435F4154 
 3004      4F4D4943 
 3004      5F494E54 
 3004      5F4C4F43 
 3005 16ec 01       		.byte	0x1
 3006 16ed 00       		.uleb128 0
 3007 16ee 5F5F4743 		.ascii "__GCC_ATOMIC_LONG_LOCK_FREE 1\0"
 3007      435F4154 
 3007      4F4D4943 
 3007      5F4C4F4E 
 3007      475F4C4F 
 3008 170c 01       		.byte	0x1
GAS LISTING C:\Users\PRESID~1\AppData\Local\Temp\ccTAWfEI.s 			page 87


 3009 170d 00       		.uleb128 0
 3010 170e 5F5F4743 		.ascii "__GCC_ATOMIC_LLONG_LOCK_FREE 1\0"
 3010      435F4154 
 3010      4F4D4943 
 3010      5F4C4C4F 
 3010      4E475F4C 
 3011 172d 01       		.byte	0x1
 3012 172e 00       		.uleb128 0
 3013 172f 5F5F4743 		.ascii "__GCC_ATOMIC_TEST_AND_SET_TRUEVAL 1\0"
 3013      435F4154 
 3013      4F4D4943 
 3013      5F544553 
 3013      545F414E 
 3014 1753 01       		.byte	0x1
 3015 1754 00       		.uleb128 0
 3016 1755 5F5F4743 		.ascii "__GCC_ATOMIC_POINTER_LOCK_FREE 1\0"
 3016      435F4154 
 3016      4F4D4943 
 3016      5F504F49 
 3016      4E544552 
 3017 1776 01       		.byte	0x1
 3018 1777 00       		.uleb128 0
 3019 1778 5F5F4743 		.ascii "__GCC_HAVE_DWARF2_CFI_ASM 1\0"
 3019      435F4841 
 3019      56455F44 
 3019      57415246 
 3019      325F4346 
 3020 1794 01       		.byte	0x1
 3021 1795 00       		.uleb128 0
 3022 1796 5F5F5052 		.ascii "__PRAGMA_REDEFINE_EXTNAME 1\0"
 3022      41474D41 
 3022      5F524544 
 3022      4546494E 
 3022      455F4558 
 3023 17b2 01       		.byte	0x1
 3024 17b3 00       		.uleb128 0
 3025 17b4 5F5F5349 		.ascii "__SIZEOF_WCHAR_T__ 2\0"
 3025      5A454F46 
 3025      5F574348 
 3025      41525F54 
 3025      5F5F2032 
 3026 17c9 01       		.byte	0x1
 3027 17ca 00       		.uleb128 0
 3028 17cb 5F5F5349 		.ascii "__SIZEOF_WINT_T__ 2\0"
 3028      5A454F46 
 3028      5F57494E 
 3028      545F545F 
 3028      5F203200 
 3029 17df 01       		.byte	0x1
 3030 17e0 00       		.uleb128 0
 3031 17e1 5F5F5349 		.ascii "__SIZEOF_PTRDIFF_T__ 4\0"
 3031      5A454F46 
 3031      5F505452 
 3031      44494646 
 3031      5F545F5F 
 3032 17f8 01       		.byte	0x1
 3033 17f9 00       		.uleb128 0
GAS LISTING C:\Users\PRESID~1\AppData\Local\Temp\ccTAWfEI.s 			page 88


 3034 17fa 5F5F6933 		.ascii "__i386 1\0"
 3034      38362031 
 3034      00
 3035 1803 01       		.byte	0x1
 3036 1804 00       		.uleb128 0
 3037 1805 5F5F6933 		.ascii "__i386__ 1\0"
 3037      38365F5F 
 3037      203100
 3038 1810 01       		.byte	0x1
 3039 1811 00       		.uleb128 0
 3040 1812 5F5F4154 		.ascii "__ATOMIC_HLE_ACQUIRE 65536\0"
 3040      4F4D4943 
 3040      5F484C45 
 3040      5F414351 
 3040      55495245 
 3041 182d 01       		.byte	0x1
 3042 182e 00       		.uleb128 0
 3043 182f 5F5F4154 		.ascii "__ATOMIC_HLE_RELEASE 131072\0"
 3043      4F4D4943 
 3043      5F484C45 
 3043      5F52454C 
 3043      45415345 
 3044 184b 01       		.byte	0x1
 3045 184c 00       		.uleb128 0
 3046 184d 5F5F7475 		.ascii "__tune_i386__ 1\0"
 3046      6E655F69 
 3046      3338365F 
 3046      5F203100 
 3047 185d 01       		.byte	0x1
 3048 185e 00       		.uleb128 0
 3049 185f 5F5F636F 		.ascii "__code_model_32__ 1\0"
 3049      64655F6D 
 3049      6F64656C 
 3049      5F33325F 
 3049      5F203100 
 3050 1873 01       		.byte	0x1
 3051 1874 00       		.uleb128 0
 3052 1875 5F583836 		.ascii "_X86_ 1\0"
 3052      5F203100 
 3053 187d 01       		.byte	0x1
 3054 187e 00       		.uleb128 0
 3055 187f 5F5F7374 		.ascii "__stdcall __attribute__((__stdcall__))\0"
 3055      6463616C 
 3055      6C205F5F 
 3055      61747472 
 3055      69627574 
 3056 18a6 01       		.byte	0x1
 3057 18a7 00       		.uleb128 0
 3058 18a8 5F5F6661 		.ascii "__fastcall __attribute__((__fastcall__))\0"
 3058      73746361 
 3058      6C6C205F 
 3058      5F617474 
 3058      72696275 
 3059 18d1 01       		.byte	0x1
 3060 18d2 00       		.uleb128 0
 3061 18d3 5F5F7468 		.ascii "__thiscall __attribute__((__thiscall__))\0"
 3061      69736361 
GAS LISTING C:\Users\PRESID~1\AppData\Local\Temp\ccTAWfEI.s 			page 89


 3061      6C6C205F 
 3061      5F617474 
 3061      72696275 
 3062 18fc 01       		.byte	0x1
 3063 18fd 00       		.uleb128 0
 3064 18fe 5F5F6364 		.ascii "__cdecl __attribute__((__cdecl__))\0"
 3064      65636C20 
 3064      5F5F6174 
 3064      74726962 
 3064      7574655F 
 3065 1921 01       		.byte	0x1
 3066 1922 00       		.uleb128 0
 3067 1923 5F5F4758 		.ascii "__GXX_MERGED_TYPEINFO_NAMES 0\0"
 3067      585F4D45 
 3067      52474544 
 3067      5F545950 
 3067      45494E46 
 3068 1941 01       		.byte	0x1
 3069 1942 00       		.uleb128 0
 3070 1943 5F5F4758 		.ascii "__GXX_TYPEINFO_EQUALITY_INLINE 0\0"
 3070      585F5459 
 3070      5045494E 
 3070      464F5F45 
 3070      5155414C 
 3071 1964 01       		.byte	0x1
 3072 1965 00       		.uleb128 0
 3073 1966 5F5F4D53 		.ascii "__MSVCRT__ 1\0"
 3073      56435254 
 3073      5F5F2031 
 3073      00
 3074 1973 01       		.byte	0x1
 3075 1974 00       		.uleb128 0
 3076 1975 5F5F4D49 		.ascii "__MINGW32__ 1\0"
 3076      4E475733 
 3076      325F5F20 
 3076      3100
 3077 1983 01       		.byte	0x1
 3078 1984 00       		.uleb128 0
 3079 1985 5F57494E 		.ascii "_WIN32 1\0"
 3079      33322031 
 3079      00
 3080 198e 01       		.byte	0x1
 3081 198f 00       		.uleb128 0
 3082 1990 5F5F5749 		.ascii "__WIN32 1\0"
 3082      4E333220 
 3082      3100
 3083 199a 01       		.byte	0x1
 3084 199b 00       		.uleb128 0
 3085 199c 5F5F5749 		.ascii "__WIN32__ 1\0"
 3085      4E33325F 
 3085      5F203100 
 3086 19a8 01       		.byte	0x1
 3087 19a9 00       		.uleb128 0
 3088 19aa 5F5F5749 		.ascii "__WINNT 1\0"
 3088      4E4E5420 
 3088      3100
 3089 19b4 01       		.byte	0x1
GAS LISTING C:\Users\PRESID~1\AppData\Local\Temp\ccTAWfEI.s 			page 90


 3090 19b5 00       		.uleb128 0
 3091 19b6 5F5F5749 		.ascii "__WINNT__ 1\0"
 3091      4E4E545F 
 3091      5F203100 
 3092 19c2 01       		.byte	0x1
 3093 19c3 00       		.uleb128 0
 3094 19c4 5F494E54 		.ascii "_INTEGRAL_MAX_BITS 64\0"
 3094      45475241 
 3094      4C5F4D41 
 3094      585F4249 
 3094      54532036 
 3095 19da 01       		.byte	0x1
 3096 19db 00       		.uleb128 0
 3097 19dc 5F5F6465 		.ascii "__declspec(x) __attribute__((x))\0"
 3097      636C7370 
 3097      65632878 
 3097      29205F5F 
 3097      61747472 
 3098 19fd 01       		.byte	0x1
 3099 19fe 00       		.uleb128 0
 3100 19ff 5F5F4445 		.ascii "__DECIMAL_BID_FORMAT__ 1\0"
 3100      43494D41 
 3100      4C5F4249 
 3100      445F464F 
 3100      524D4154 
 3101 1a18 01       		.byte	0x1
 3102 1a19 00       		.uleb128 0
 3103 1a1a 4346475F 		.ascii "CFG_PROCESSOR 3\0"
 3103      50524F43 
 3103      4553534F 
 3103      52203300 
 3104 1a2a 03       		.byte	0x3
 3105 1a2b 00       		.uleb128 0
 3106 1a2c 01       		.uleb128 0x1
 3107              		.file 8 "E:/NeuOrga/Programmieren/c_cpp/github_os/input/src/os_base/os_firstinc.h"
 3108 1a2d 03       		.byte	0x3
 3109 1a2e 01       		.uleb128 0x1
 3110 1a2f 08       		.uleb128 0x8
 3111 1a30 01       		.byte	0x1
 3112 1a31 02       		.uleb128 0x2
 3113 1a32 5F6F735F 		.ascii "_os_firstinc_h_ \0"
 3113      66697273 
 3113      74696E63 
 3113      5F685F20 
 3113      00
 3114 1a43 03       		.byte	0x3
 3115 1a44 04       		.uleb128 0x4
 3116 1a45 02       		.uleb128 0x2
 3117 1a46 01       		.byte	0x1
 3118 1a47 02       		.uleb128 0x2
 3119 1a48 5F424153 		.ascii "_BASE_TYPES_H_ \0"
 3119      455F5459 
 3119      5045535F 
 3119      485F2000 
 3120 1a58 01       		.byte	0x1
 3121 1a59 04       		.uleb128 0x4
 3122 1a5a 494E5445 		.ascii "INTEGER_LLP64_IL32P64 1\0"
GAS LISTING C:\Users\PRESID~1\AppData\Local\Temp\ccTAWfEI.s 			page 91


 3122      4745525F 
 3122      4C4C5036 
 3122      345F494C 
 3122      33325036 
 3123 1a72 01       		.byte	0x1
 3124 1a73 05       		.uleb128 0x5
 3125 1a74 494E5445 		.ascii "INTEGER_LP64_I32LP64 2\0"
 3125      4745525F 
 3125      4C503634 
 3125      5F493332 
 3125      4C503634 
 3126 1a8b 01       		.byte	0x1
 3127 1a8c 06       		.uleb128 0x6
 3128 1a8d 494E5445 		.ascii "INTEGER_ILP64 3\0"
 3128      4745525F 
 3128      494C5036 
 3128      34203300 
 3129 1a9d 01       		.byte	0x1
 3130 1a9e 07       		.uleb128 0x7
 3131 1a9f 494E5445 		.ascii "INTEGER_SILP64 4\0"
 3131      4745525F 
 3131      53494C50 
 3131      36342034 
 3131      00
 3132 1ab0 01       		.byte	0x1
 3133 1ab1 09       		.uleb128 0x9
 3134 1ab2 4350505F 		.ascii "CPP_VERSION_NONE 0\0"
 3134      56455253 
 3134      494F4E5F 
 3134      4E4F4E45 
 3134      203000
 3135 1ac5 01       		.byte	0x1
 3136 1ac6 0A       		.uleb128 0xa
 3137 1ac7 4350505F 		.ascii "CPP_VERSION_1998 1\0"
 3137      56455253 
 3137      494F4E5F 
 3137      31393938 
 3137      203100
 3138 1ada 01       		.byte	0x1
 3139 1adb 0B       		.uleb128 0xb
 3140 1adc 4350505F 		.ascii "CPP_VERSION_2003 2\0"
 3140      56455253 
 3140      494F4E5F 
 3140      32303033 
 3140      203200
 3141 1aef 01       		.byte	0x1
 3142 1af0 0C       		.uleb128 0xc
 3143 1af1 4350505F 		.ascii "CPP_VERSION_2007 3\0"
 3143      56455253 
 3143      494F4E5F 
 3143      32303037 
 3143      203300
 3144 1b04 01       		.byte	0x1
 3145 1b05 0D       		.uleb128 0xd
 3146 1b06 4350505F 		.ascii "CPP_VERSION_2011 4\0"
 3146      56455253 
 3146      494F4E5F 
GAS LISTING C:\Users\PRESID~1\AppData\Local\Temp\ccTAWfEI.s 			page 92


 3146      32303131 
 3146      203400
 3147 1b19 01       		.byte	0x1
 3148 1b1a 0E       		.uleb128 0xe
 3149 1b1b 49534F5F 		.ascii "ISO_CPP_VERSION CPP_VERSION_1998\0"
 3149      4350505F 
 3149      56455253 
 3149      494F4E20 
 3149      4350505F 
 3150 1b3c 01       		.byte	0x1
 3151 1b3d 10       		.uleb128 0x10
 3152 1b3e 494E5445 		.ascii "INTEGER_MODEL INTEGER_LLP64_IL32P64\0"
 3152      4745525F 
 3152      4D4F4445 
 3152      4C20494E 
 3152      54454745 
 3153 1b62 04       		.byte	0x4
 3154 1b63 03       		.byte	0x3
 3155 1b64 05       		.uleb128 0x5
 3156 1b65 03       		.uleb128 0x3
 3157 1b66 01       		.byte	0x1
 3158 1b67 02       		.uleb128 0x2
 3159 1b68 5F6F735F 		.ascii "_os_common_h_ \0"
 3159      636F6D6D 
 3159      6F6E5F68 
 3159      5F2000
 3160 1b77 01       		.byte	0x1
 3161 1b78 06       		.uleb128 0x6
 3162 1b79 46616C73 		.ascii "False 0\0"
 3162      65203000 
 3163 1b81 01       		.byte	0x1
 3164 1b82 07       		.uleb128 0x7
 3165 1b83 54727565 		.ascii "True 1\0"
 3165      203100
 3166 1b8a 01       		.byte	0x1
 3167 1b8b 08       		.uleb128 0x8
 3168 1b8c 46414C53 		.ascii "FALSE False\0"
 3168      45204661 
 3168      6C736500 
 3169 1b98 01       		.byte	0x1
 3170 1b99 09       		.uleb128 0x9
 3171 1b9a 54525545 		.ascii "TRUE True\0"
 3171      20547275 
 3171      6500
 3172 1ba4 01       		.byte	0x1
 3173 1ba5 0A       		.uleb128 0xa
 3174 1ba6 41636365 		.ascii "Accepted 1\0"
 3174      70746564 
 3174      203100
 3175 1bb1 01       		.byte	0x1
 3176 1bb2 0B       		.uleb128 0xb
 3177 1bb3 52656A65 		.ascii "Rejected 0\0"
 3177      63746564 
 3177      203000
 3178 1bbe 01       		.byte	0x1
 3179 1bbf 0C       		.uleb128 0xc
 3180 1bc0 4C6F6361 		.ascii "Local static\0"
GAS LISTING C:\Users\PRESID~1\AppData\Local\Temp\ccTAWfEI.s 			page 93


 3180      6C207374 
 3180      61746963 
 3180      00
 3181 1bcd 01       		.byte	0x1
 3182 1bce 0D       		.uleb128 0xd
 3183 1bcf 4C6F6361 		.ascii "Local_inline static __inline__\0"
 3183      6C5F696E 
 3183      6C696E65 
 3183      20737461 
 3183      74696320 
 3184 1bee 01       		.byte	0x1
 3185 1bef 0E       		.uleb128 0xe
 3186 1bf0 476C6F62 		.ascii "Global_inline __inline__\0"
 3186      616C5F69 
 3186      6E6C696E 
 3186      65205F5F 
 3186      696E6C69 
 3187 1c09 01       		.byte	0x1
 3188 1c0a 0F       		.uleb128 0xf
 3189 1c0b 52656665 		.ascii "ReferenceUnusedParameter(x) ((x) = (x))\0"
 3189      72656E63 
 3189      65556E75 
 3189      73656450 
 3189      6172616D 
 3190 1c33 01       		.byte	0x1
 3191 1c34 12       		.uleb128 0x12
 3192 1c35 634D4355 		.ascii "cMCU_X86 3\0"
 3192      5F583836 
 3192      203300
 3193 1c40 01       		.byte	0x1
 3194 1c41 13       		.uleb128 0x13
 3195 1c42 634D4355 		.ascii "cMCU_CORTEX_M4 4\0"
 3195      5F434F52 
 3195      5445585F 
 3195      4D342034 
 3195      00
 3196 1c53 01       		.byte	0x1
 3197 1c54 16       		.uleb128 0x16
 3198 1c55 4E525F4F 		.ascii "NR_OF_CORES 1\0"
 3198      465F434F 
 3198      52455320 
 3198      3100
 3199 1c63 01       		.byte	0x1
 3200 1c64 18       		.uleb128 0x18
 3201 1c65 4D43555F 		.ascii "MCU_CLOCK_IN_HZ ((uint32)168000000u)\0"
 3201      434C4F43 
 3201      4B5F494E 
 3201      5F485A20 
 3201      28287569 
 3202 1c8a 01       		.byte	0x1
 3203 1c8b 1C       		.uleb128 0x1c
 3204 1c8c 44697361 		.ascii "DisableInterrupts() \0"
 3204      626C6549 
 3204      6E746572 
 3204      72757074 
 3204      73282920 
 3205 1ca1 01       		.byte	0x1
GAS LISTING C:\Users\PRESID~1\AppData\Local\Temp\ccTAWfEI.s 			page 94


 3206 1ca2 1D       		.uleb128 0x1d
 3207 1ca3 456E6162 		.ascii "EnableInterrupts() \0"
 3207      6C65496E 
 3207      74657272 
 3207      75707473 
 3207      28292000 
 3208 1cb7 01       		.byte	0x1
 3209 1cb8 1E       		.uleb128 0x1e
 3210 1cb9 50726976 		.ascii "Privilige_level_save_current() \0"
 3210      696C6967 
 3210      655F6C65 
 3210      76656C5F 
 3210      73617665 
 3211 1cd9 01       		.byte	0x1
 3212 1cda 1F       		.uleb128 0x1f
 3213 1cdb 50726976 		.ascii "Privilige_level_enter_kernel_mode() \0"
 3213      696C6967 
 3213      655F6C65 
 3213      76656C5F 
 3213      656E7465 
 3214 1d00 01       		.byte	0x1
 3215 1d01 20       		.uleb128 0x20
 3216 1d02 50726976 		.ascii "Privilige_level_restore_saved() \0"
 3216      696C6967 
 3216      655F6C65 
 3216      76656C5F 
 3216      72657374 
 3217 1d23 01       		.byte	0x1
 3218 1d24 21       		.uleb128 0x21
 3219 1d25 48616C74 		.ascii "HaltMcu() \0"
 3219      4D637528 
 3219      292000
 3220 1d30 04       		.byte	0x4
 3221              		.file 9 "E:/NeuOrga/Programmieren/c_cpp/github_os/input/src/os_base/../os_sim/lld_global.h"
 3222 1d31 03       		.byte	0x3
 3223 1d32 08       		.uleb128 0x8
 3224 1d33 09       		.uleb128 0x9
 3225 1d34 01       		.byte	0x1
 3226 1d35 02       		.uleb128 0x2
 3227 1d36 5F6C6C64 		.ascii "_lld_global_h_ \0"
 3227      5F676C6F 
 3227      62616C5F 
 3227      685F2000 
 3228 1d46 03       		.byte	0x3
 3229 1d47 04       		.uleb128 0x4
 3230 1d48 04       		.uleb128 0x4
 3231 1d49 01       		.byte	0x1
 3232 1d4a 02       		.uleb128 0x2
 3233 1d4b 5F6C6C64 		.ascii "_lld_core_h_ \0"
 3233      5F636F72 
 3233      655F685F 
 3233      2000
 3234              		.file 10 "E:/NeuOrga/Programmieren/c_cpp/github_os/input/src/os_base/../os_sim/../os_base/os_first
 3235 1d59 03       		.byte	0x3
 3236 1d5a 03       		.uleb128 0x3
 3237 1d5b 0A       		.uleb128 0xa
 3238 1d5c 04       		.byte	0x4
GAS LISTING C:\Users\PRESID~1\AppData\Local\Temp\ccTAWfEI.s 			page 95


 3239 1d5d 04       		.byte	0x4
 3240              		.file 11 "E:/NeuOrga/Programmieren/c_cpp/github_os/input/src/os_base/../os_sim/lld_interrupt.h"
 3241 1d5e 03       		.byte	0x3
 3242 1d5f 05       		.uleb128 0x5
 3243 1d60 0B       		.uleb128 0xb
 3244 1d61 01       		.byte	0x1
 3245 1d62 02       		.uleb128 0x2
 3246 1d63 5F6C6C64 		.ascii "_lld_interrupt_h_ \0"
 3246      5F696E74 
 3246      65727275 
 3246      70745F68 
 3246      5F2000
 3247 1d76 01       		.byte	0x1
 3248 1d77 05       		.uleb128 0x5
 3249 1d78 6F735F69 		.ascii "os_interrupt_swi_1 asm(\"swi 1\")\0"
 3249      6E746572 
 3249      72757074 
 3249      5F737769 
 3249      5F312061 
 3250 1d98 01       		.byte	0x1
 3251 1d99 06       		.uleb128 0x6
 3252 1d9a 6F735F69 		.ascii "os_interrupt_swi_2 asm(\"swi 2\")\0"
 3252      6E746572 
 3252      72757074 
 3252      5F737769 
 3252      5F322061 
 3253 1dba 01       		.byte	0x1
 3254 1dbb 07       		.uleb128 0x7
 3255 1dbc 6F735F69 		.ascii "os_interrupt_swi_3 asm(\"swi 3\")\0"
 3255      6E746572 
 3255      72757074 
 3255      5F737769 
 3255      5F332061 
 3256 1ddc 01       		.byte	0x1
 3257 1ddd 08       		.uleb128 0x8
 3258 1dde 6F735F69 		.ascii "os_interrupt_swi_4 asm(\"swi 4\")\0"
 3258      6E746572 
 3258      72757074 
 3258      5F737769 
 3258      5F342061 
 3259 1dfe 01       		.byte	0x1
 3260 1dff 09       		.uleb128 0x9
 3261 1e00 6F735F69 		.ascii "os_interrupt_swi_5 asm(\"swi 5\")\0"
 3261      6E746572 
 3261      72757074 
 3261      5F737769 
 3261      5F352061 
 3262 1e20 04       		.byte	0x4
 3263              		.file 12 "E:/NeuOrga/Programmieren/c_cpp/github_os/input/src/os_base/../os_sim/lld_mmu.h"
 3264 1e21 03       		.byte	0x3
 3265 1e22 06       		.uleb128 0x6
 3266 1e23 0C       		.uleb128 0xc
 3267 1e24 01       		.byte	0x1
 3268 1e25 02       		.uleb128 0x2
 3269 1e26 5F6C6C64 		.ascii "_lld_mmu_h_ \0"
 3269      5F6D6D75 
 3269      5F685F20 
GAS LISTING C:\Users\PRESID~1\AppData\Local\Temp\ccTAWfEI.s 			page 96


 3269      00
 3270 1e33 04       		.byte	0x4
 3271              		.file 13 "E:/NeuOrga/Programmieren/c_cpp/github_os/input/src/os_base/../os_sim/lld_timer.h"
 3272 1e34 03       		.byte	0x3
 3273 1e35 07       		.uleb128 0x7
 3274 1e36 0D       		.uleb128 0xd
 3275 1e37 01       		.byte	0x1
 3276 1e38 02       		.uleb128 0x2
 3277 1e39 5F6C6C64 		.ascii "_lld_timer_h_ \0"
 3277      5F74696D 
 3277      65725F68 
 3277      5F2000
 3278 1e48 04       		.byte	0x4
 3279              		.file 14 "E:/NeuOrga/Programmieren/c_cpp/github_os/input/src/os_base/../os_sim/lld_power.h"
 3280 1e49 03       		.byte	0x3
 3281 1e4a 08       		.uleb128 0x8
 3282 1e4b 0E       		.uleb128 0xe
 3283 1e4c 01       		.byte	0x1
 3284 1e4d 02       		.uleb128 0x2
 3285 1e4e 5F6C6C64 		.ascii "_lld_power_h_ \0"
 3285      5F706F77 
 3285      65725F68 
 3285      5F2000
 3286 1e5d 04       		.byte	0x4
 3287              		.file 15 "E:/NeuOrga/Programmieren/c_cpp/github_os/input/src/os_base/../os_sim/lld_ram.h"
 3288 1e5e 03       		.byte	0x3
 3289 1e5f 09       		.uleb128 0x9
 3290 1e60 0F       		.uleb128 0xf
 3291 1e61 01       		.byte	0x1
 3292 1e62 02       		.uleb128 0x2
 3293 1e63 5F6C6C64 		.ascii "_lld_ram_h_ \0"
 3293      5F72616D 
 3293      5F685F20 
 3293      00
 3294 1e70 04       		.byte	0x4
 3295 1e71 03       		.byte	0x3
 3296 1e72 0A       		.uleb128 0xa
 3297 1e73 05       		.uleb128 0x5
 3298 1e74 01       		.byte	0x1
 3299 1e75 02       		.uleb128 0x2
 3300 1e76 5F6F735F 		.ascii "_os_task_common_h_ \0"
 3300      7461736B 
 3300      5F636F6D 
 3300      6D6F6E5F 
 3300      685F2000 
 3301 1e8a 03       		.byte	0x3
 3302 1e8b 03       		.uleb128 0x3
 3303 1e8c 0A       		.uleb128 0xa
 3304 1e8d 04       		.byte	0x4
 3305              		.file 16 "E:/NeuOrga/Programmieren/c_cpp/github_os/input/src/os_base/../os_sim/../os_base/os_task_
 3306 1e8e 03       		.byte	0x3
 3307 1e8f 04       		.uleb128 0x4
 3308 1e90 10       		.uleb128 0x10
 3309 1e91 01       		.byte	0x1
 3310 1e92 02       		.uleb128 0x2
 3311 1e93 5F6F735F 		.ascii "_os_task_config_h_ \0"
 3311      7461736B 
GAS LISTING C:\Users\PRESID~1\AppData\Local\Temp\ccTAWfEI.s 			page 97


 3311      5F636F6E 
 3311      6669675F 
 3311      685F2000 
 3312 1ea7 01       		.byte	0x1
 3313 1ea8 05       		.uleb128 0x5
 3314 1ea9 53636865 		.ascii "SchedulerFrequency (1.0e3)\0"
 3314      64756C65 
 3314      72467265 
 3314      7175656E 
 3314      63792028 
 3315 1ec4 01       		.byte	0x1
 3316 1ec5 06       		.uleb128 0x6
 3317 1ec6 4D696E54 		.ascii "MinTimeSlice_s (1.0/SchedulerFrequency)\0"
 3317      696D6553 
 3317      6C696365 
 3317      5F732028 
 3317      312E302F 
 3318 1eee 01       		.byte	0x1
 3319 1eef 07       		.uleb128 0x7
 3320 1ef0 4D696E54 		.ascii "MinTimeSlice_us ((1.0/SchedulerFrequency)*1e6)\0"
 3320      696D6553 
 3320      6C696365 
 3320      5F757320 
 3320      2828312E 
 3321 1f1f 01       		.byte	0x1
 3322 1f20 08       		.uleb128 0x8
 3323 1f21 5461736B 		.ascii "Task_min_time (1e0)\0"
 3323      5F6D696E 
 3323      5F74696D 
 3323      65202831 
 3323      65302900 
 3324 1f35 01       		.byte	0x1
 3325 1f36 09       		.uleb128 0x9
 3326 1f37 4E554D42 		.ascii "NUMBER_OF_TASKS 5\0"
 3326      45525F4F 
 3326      465F5441 
 3326      534B5320 
 3326      3500
 3327 1f49 01       		.byte	0x1
 3328 1f4a 0A       		.uleb128 0xa
 3329 1f4b 4D41585F 		.ascii "MAX_RUN_QUEUE_SIZE (NUMBER_OF_TASKS)\0"
 3329      52554E5F 
 3329      51554555 
 3329      455F5349 
 3329      5A452028 
 3330 1f70 01       		.byte	0x1
 3331 1f71 0B       		.uleb128 0xb
 3332 1f72 4D41585F 		.ascii "MAX_RUN_PQUEUE_SIZE MAX_RUN_QUEUE_SIZE\0"
 3332      52554E5F 
 3332      50515545 
 3332      55455F53 
 3332      495A4520 
 3333 1f99 01       		.byte	0x1
 3334 1f9a 0D       		.uleb128 0xd
 3335 1f9b 5441534B 		.ascii "TASK_STACK_SIZE 200\0"
 3335      5F535441 
 3335      434B5F53 
GAS LISTING C:\Users\PRESID~1\AppData\Local\Temp\ccTAWfEI.s 			page 98


 3335      495A4520 
 3335      32303000 
 3336 1faf 01       		.byte	0x1
 3337 1fb0 10       		.uleb128 0x10
 3338 1fb1 4D535F50 		.ascii "MS_PER_SEC (1000)\0"
 3338      45525F53 
 3338      45432028 
 3338      31303030 
 3338      2900
 3339 1fc3 01       		.byte	0x1
 3340 1fc4 11       		.uleb128 0x11
 3341 1fc5 5553455F 		.ascii "USE_STATIC_CREATED_TASKS True\0"
 3341      53544154 
 3341      49435F43 
 3341      52454154 
 3341      45445F54 
 3342 1fe3 04       		.byte	0x4
 3343              		.file 17 "E:/NeuOrga/Programmieren/c_cpp/github_os/input/src/os_base/../os_sim/../os_base/os_init_
 3344 1fe4 03       		.byte	0x3
 3345 1fe5 05       		.uleb128 0x5
 3346 1fe6 11       		.uleb128 0x11
 3347 1fe7 01       		.byte	0x1
 3348 1fe8 02       		.uleb128 0x2
 3349 1fe9 5F6F735F 		.ascii "_os_init_task_system_h_ \0"
 3349      696E6974 
 3349      5F746173 
 3349      6B5F7379 
 3349      7374656D 
 3350 2002 04       		.byte	0x4
 3351 2003 01       		.byte	0x1
 3352 2004 5F       		.uleb128 0x5f
 3353 2005 6F735F53 		.ascii "os_SaveTaskPtr(task_ptr,task_name) (TASK_PTR[(task_name)] = (task_ptr))\0"
 3353      61766554 
 3353      61736B50 
 3353      74722874 
 3353      61736B5F 
 3354 204d 01       		.byte	0x1
 3355 204e 60       		.uleb128 0x60
 3356 204f 6F735F47 		.ascii "os_GetTaskPtr(task_name) ((task_t*) TASK_PTR[(task_name)])\0"
 3356      65745461 
 3356      736B5074 
 3356      72287461 
 3356      736B5F6E 
 3357 208a 04       		.byte	0x4
 3358 208b 04       		.byte	0x4
 3359              		.file 18 "E:/NeuOrga/Programmieren/c_cpp/github_os/input/src/os_base/../os_user_code/led.h"
 3360 208c 03       		.byte	0x3
 3361 208d 0C       		.uleb128 0xc
 3362 208e 12       		.uleb128 0x12
 3363 208f 01       		.byte	0x1
 3364 2090 02       		.uleb128 0x2
 3365 2091 5F4C4544 		.ascii "_LED_H_ \0"
 3365      5F485F20 
 3365      00
 3366 209a 04       		.byte	0x4
 3367 209b 03       		.byte	0x3
 3368 209c 0E       		.uleb128 0xe
GAS LISTING C:\Users\PRESID~1\AppData\Local\Temp\ccTAWfEI.s 			page 99


 3369 209d 07       		.uleb128 0x7
 3370 209e 01       		.byte	0x1
 3371 209f 02       		.uleb128 0x2
 3372 20a0 5F4F535F 		.ascii "_OS_RAM_H_ \0"
 3372      52414D5F 
 3372      485F2000 
 3373              		.file 19 "E:/NeuOrga/Programmieren/c_cpp/github_os/input/src/os_base/../os_base/os_firstinc.h"
 3374 20ac 03       		.byte	0x3
 3375 20ad 04       		.uleb128 0x4
 3376 20ae 13       		.uleb128 0x13
 3377 20af 04       		.byte	0x4
 3378              		.file 20 "E:/NeuOrga/Programmieren/c_cpp/github_os/input/src/os_base/../os_base/os_stack.h"
 3379 20b0 03       		.byte	0x3
 3380 20b1 05       		.uleb128 0x5
 3381 20b2 14       		.uleb128 0x14
 3382 20b3 01       		.byte	0x1
 3383 20b4 02       		.uleb128 0x2
 3384 20b5 5F6F735F 		.ascii "_os_stack_h_ \0"
 3384      73746163 
 3384      6B5F685F 
 3384      2000
 3385 20c3 01       		.byte	0x1
 3386 20c4 04       		.uleb128 0x4
 3387 20c5 4F535F53 		.ascii "OS_STACK_SIZE 0x100\0"
 3387      5441434B 
 3387      5F53495A 
 3387      45203078 
 3387      31303000 
 3388 20d9 01       		.byte	0x1
 3389 20da 06       		.uleb128 0x6
 3390 20db 4F535F53 		.ascii "OS_STACK_SIZE_END 0x01u\0"
 3390      5441434B 
 3390      5F53495A 
 3390      455F454E 
 3390      44203078 
 3391 20f3 04       		.byte	0x4
 3392              		.file 21 "E:/NeuOrga/Programmieren/c_cpp/github_os/input/src/os_base/../os_base/os_heap.h"
 3393 20f4 03       		.byte	0x3
 3394 20f5 06       		.uleb128 0x6
 3395 20f6 15       		.uleb128 0x15
 3396 20f7 01       		.byte	0x1
 3397 20f8 02       		.uleb128 0x2
 3398 20f9 5F6F735F 		.ascii "_os_heap_h_ \0"
 3398      68656170 
 3398      5F685F20 
 3398      00
 3399 2106 01       		.byte	0x1
 3400 2107 05       		.uleb128 0x5
 3401 2108 48454150 		.ascii "HEAP_SIZE 10000\0"
 3401      5F53495A 
 3401      45203130 
 3401      30303000 
 3402 2118 01       		.byte	0x1
 3403 2119 06       		.uleb128 0x6
 3404 211a 4D494E5F 		.ascii "MIN_BLOCK_SIZE_HEAP 8\0"
 3404      424C4F43 
 3404      4B5F5349 
GAS LISTING C:\Users\PRESID~1\AppData\Local\Temp\ccTAWfEI.s 			page 100


 3404      5A455F48 
 3404      45415020 
 3405 2130 01       		.byte	0x1
 3406 2131 09       		.uleb128 0x9
 3407 2132 48454150 		.ascii "HEAP_OFFSET_FOR_SIZE 0\0"
 3407      5F4F4646 
 3407      5345545F 
 3407      464F525F 
 3407      53495A45 
 3408 2149 01       		.byte	0x1
 3409 214a 0A       		.uleb128 0xa
 3410 214b 48454150 		.ascii "HEAP_OFFSET_FOR_USED_SIZE 4\0"
 3410      5F4F4646 
 3410      5345545F 
 3410      464F525F 
 3410      55534544 
 3411 2167 01       		.byte	0x1
 3412 2168 0B       		.uleb128 0xb
 3413 2169 48454150 		.ascii "HEAP_OFFSET_FOR_CHUNK 8\0"
 3413      5F4F4646 
 3413      5345545F 
 3413      464F525F 
 3413      4348554E 
 3414 2181 04       		.byte	0x4
 3415              		.file 22 "E:/NeuOrga/Programmieren/c_cpp/github_os/input/src/os_base/../os_base/os_main.h"
 3416 2182 03       		.byte	0x3
 3417 2183 07       		.uleb128 0x7
 3418 2184 16       		.uleb128 0x16
 3419 2185 01       		.byte	0x1
 3420 2186 02       		.uleb128 0x2
 3421 2187 5F6F735F 		.ascii "_os_main_h_ \0"
 3421      6D61696E 
 3421      5F685F20 
 3421      00
 3422 2194 01       		.byte	0x1
 3423 2195 03       		.uleb128 0x3
 3424 2196 6F735F69 		.ascii "os_init 0\0"
 3424      6E697420 
 3424      3000
 3425 21a0 01       		.byte	0x1
 3426 21a1 04       		.uleb128 0x4
 3427 21a2 6F735F72 		.ascii "os_running 1\0"
 3427      756E6E69 
 3427      6E672031 
 3427      00
 3428 21af 01       		.byte	0x1
 3429 21b0 05       		.uleb128 0x5
 3430 21b1 6F735F73 		.ascii "os_shutdown 2\0"
 3430      68757464 
 3430      6F776E20 
 3430      3200
 3431 21bf 04       		.byte	0x4
 3432              		.file 23 "E:/NeuOrga/Programmieren/c_cpp/github_os/input/src/os_base/../os_base/os_task_config.h"
 3433 21c0 03       		.byte	0x3
 3434 21c1 08       		.uleb128 0x8
 3435 21c2 17       		.uleb128 0x17
 3436 21c3 04       		.byte	0x4
GAS LISTING C:\Users\PRESID~1\AppData\Local\Temp\ccTAWfEI.s 			page 101


 3437              		.file 24 "E:/NeuOrga/Programmieren/c_cpp/github_os/input/src/os_base/../os_base/os_task_common.h"
 3438 21c4 03       		.byte	0x3
 3439 21c5 09       		.uleb128 0x9
 3440 21c6 18       		.uleb128 0x18
 3441 21c7 04       		.byte	0x4
 3442 21c8 04       		.byte	0x4
 3443 21c9 04       		.byte	0x4
 3444              		.file 25 "E:/NeuOrga/Programmieren/c_cpp/github_os/input/src/os_base/os_common.h"
 3445 21ca 03       		.byte	0x3
 3446 21cb 02       		.uleb128 0x2
 3447 21cc 19       		.uleb128 0x19
 3448 21cd 04       		.byte	0x4
 3449              		.file 26 "E:/NeuOrga/Programmieren/c_cpp/github_os/input/src/os_base/os_task_common.h"
 3450 21ce 03       		.byte	0x3
 3451 21cf 03       		.uleb128 0x3
 3452 21d0 1A       		.uleb128 0x1a
 3453 21d1 04       		.byte	0x4
 3454 21d2 03       		.byte	0x3
 3455 21d3 04       		.uleb128 0x4
 3456 21d4 06       		.uleb128 0x6
 3457 21d5 01       		.byte	0x1
 3458 21d6 02       		.uleb128 0x2
 3459 21d7 5F6F735F 		.ascii "_os_task_scheduler_h_ \0"
 3459      7461736B 
 3459      5F736368 
 3459      6564756C 
 3459      65725F68 
 3460 21ee 01       		.byte	0x1
 3461 21ef 07       		.uleb128 0x7
 3462 21f0 5461736B 		.ascii "Task_0_ptr 0\0"
 3462      5F305F70 
 3462      74722030 
 3462      00
 3463 21fd 01       		.byte	0x1
 3464 21fe 08       		.uleb128 0x8
 3465 21ff 5461736B 		.ascii "Task_1_ptr 1\0"
 3465      5F315F70 
 3465      74722031 
 3465      00
 3466 220c 01       		.byte	0x1
 3467 220d 09       		.uleb128 0x9
 3468 220e 5461736B 		.ascii "Task_2_ptr 2\0"
 3468      5F325F70 
 3468      74722032 
 3468      00
 3469 221b 01       		.byte	0x1
 3470 221c 0A       		.uleb128 0xa
 3471 221d 5461736B 		.ascii "Task_3_ptr 3\0"
 3471      5F335F70 
 3471      74722033 
 3471      00
 3472 222a 01       		.byte	0x1
 3473 222b 0C       		.uleb128 0xc
 3474 222c 4F535F53 		.ascii "OS_SaveTaskPtr(task_ptr,Task_n_ptr) \0"
 3474      61766554 
 3474      61736B50 
 3474      74722874 
GAS LISTING C:\Users\PRESID~1\AppData\Local\Temp\ccTAWfEI.s 			page 102


 3474      61736B5F 
 3475 2251 04       		.byte	0x4
 3476              		.file 27 "E:/NeuOrga/Programmieren/c_cpp/github_os/input/src/os_base/os_task_queue.h"
 3477 2252 03       		.byte	0x3
 3478 2253 05       		.uleb128 0x5
 3479 2254 1B       		.uleb128 0x1b
 3480 2255 01       		.byte	0x1
 3481 2256 02       		.uleb128 0x2
 3482 2257 5F6F735F 		.ascii "_os_task_queue_h_ \0"
 3482      7461736B 
 3482      5F717565 
 3482      75655F68 
 3482      5F2000
 3483 226a 01       		.byte	0x1
 3484 226b 06       		.uleb128 0x6
 3485 226c 46697273 		.ascii "First_task (0)\0"
 3485      745F7461 
 3485      736B2028 
 3485      302900
 3486 227b 01       		.byte	0x1
 3487 227c 07       		.uleb128 0x7
 3488 227d 4C617374 		.ascii "Last_task (MAX_RUN_QUEUE_SIZE-1)\0"
 3488      5F746173 
 3488      6B20284D 
 3488      41585F52 
 3488      554E5F51 
 3489 229e 01       		.byte	0x1
 3490 229f 09       		.uleb128 0x9
 3491 22a0 466F725F 		.ascii "For_all_tasks_in_queue(var) for((var) = First_task; (var) <= Last_task; (var)++)\0"
 3491      616C6C5F 
 3491      7461736B 
 3491      735F696E 
 3491      5F717565 
 3492 22f1 04       		.byte	0x4
 3493              		.file 28 "E:/NeuOrga/Programmieren/c_cpp/github_os/input/src/os_base/os_stack.h"
 3494 22f2 03       		.byte	0x3
 3495 22f3 06       		.uleb128 0x6
 3496 22f4 1C       		.uleb128 0x1c
 3497 22f5 04       		.byte	0x4
 3498 22f6 01       		.byte	0x1
 3499 22f7 1F       		.uleb128 0x1f
 3500 22f8 53595354 		.ascii "SYSTICK_CTRL_STAT_REG ((uint32*)0xE000E010)\0"
 3500      49434B5F 
 3500      4354524C 
 3500      5F535441 
 3500      545F5245 
 3501 2324 01       		.byte	0x1
 3502 2325 20       		.uleb128 0x20
 3503 2326 53595354 		.ascii "SYSTICK_RLD_VAL_REG ((uint32*)0xE000E014)\0"
 3503      49434B5F 
 3503      524C445F 
 3503      56414C5F 
 3503      52454720 
 3504 2350 01       		.byte	0x1
 3505 2351 21       		.uleb128 0x21
 3506 2352 53595354 		.ascii "SYSTICK_CURRENT_VAL_REG ((uint32*)0xE000E018)\0"
 3506      49434B5F 
GAS LISTING C:\Users\PRESID~1\AppData\Local\Temp\ccTAWfEI.s 			page 103


 3506      43555252 
 3506      454E545F 
 3506      56414C5F 
 3507 2380 01       		.byte	0x1
 3508 2381 22       		.uleb128 0x22
 3509 2382 53595354 		.ascii "SYSTICK_STAT_REG_TICKINT ((uint32)0x00000002)\0"
 3509      49434B5F 
 3509      53544154 
 3509      5F524547 
 3509      5F544943 
 3510 23b0 01       		.byte	0x1
 3511 23b1 23       		.uleb128 0x23
 3512 23b2 53595354 		.ascii "SYSTICK_STAT_REG_ENABLE ((uint32)0x00000001)\0"
 3512      49434B5F 
 3512      53544154 
 3512      5F524547 
 3512      5F454E41 
 3513 23df 01       		.byte	0x1
 3514 23e0 24       		.uleb128 0x24
 3515 23e1 4C4F4F50 		.ascii "LOOPTIME_IN_USEC ((uint32)10000u)\0"
 3515      54494D45 
 3515      5F494E5F 
 3515      55534543 
 3515      20282875 
 3516 2403 04       		.byte	0x4
 3517 2404 00       		.byte	0
 3518              		.section	.debug_line,"dr"
 3519              	Ldebug_line0:
 3520 0000 A3040000 		.section	.debug_str,"dr"
 3520      02004A03 
 3520      00000101 
 3520      FB0E0D00 
 3520      01010101 
 3521              	LASF3:
 3522 0000 7461736B 		.ascii "task_ptr\0"
 3522      5F707472 
 3522      00
 3523              	LASF0:
 3524 0009 6578655F 		.ascii "exe_time\0"
 3524      74696D65 
 3524      00
 3525              	LASF2:
 3526 0012 73636865 		.ascii "scheduling_task\0"
 3526      64756C69 
 3526      6E675F74 
 3526      61736B00 
 3527              	LASF1:
 3528 0022 7461736B 		.ascii "task\0"
 3528      00
 3529              		.ident	"GCC: (GNU) 4.9.3"
GAS LISTING C:\Users\PRESID~1\AppData\Local\Temp\ccTAWfEI.s 			page 104


DEFINED SYMBOLS
                            *ABS*:00000000 os_task_scheduler.c
C:\Users\PRESID~1\AppData\Local\Temp\ccTAWfEI.s:6      .text:00000000 _OS_ACTIVATE_DISPATCHER
C:\Users\PRESID~1\AppData\Local\Temp\ccTAWfEI.s:25     .text:00000005 _OS_SLEEPTASK
C:\Users\PRESID~1\AppData\Local\Temp\ccTAWfEI.s:51     .text:0000001f _task_state_request
C:\Users\PRESID~1\AppData\Local\Temp\ccTAWfEI.s:207    .text:0000012b _OS_ActivateTask
C:\Users\PRESID~1\AppData\Local\Temp\ccTAWfEI.s:292    .text:000001d6 _OS_STARTTASK
C:\Users\PRESID~1\AppData\Local\Temp\ccTAWfEI.s:402    .text:000002d4 _OS_TERMINATE_TASK
C:\Users\PRESID~1\AppData\Local\Temp\ccTAWfEI.s:485    .text:00000398 _OS_TASK_DISPATCHER
C:\Users\PRESID~1\AppData\Local\Temp\ccTAWfEI.s:549    .text:0000040f _TASK_0
C:\Users\PRESID~1\AppData\Local\Temp\ccTAWfEI.s:566    .text:00000414 _TASK_1
C:\Users\PRESID~1\AppData\Local\Temp\ccTAWfEI.s:593    .text:0000043a _TASK_2
C:\Users\PRESID~1\AppData\Local\Temp\ccTAWfEI.s:614    .text:0000044a _TASK_3
C:\Users\PRESID~1\AppData\Local\Temp\ccTAWfEI.s:636    .text:0000045a _OS_INIT_TASKS
C:\Users\PRESID~1\AppData\Local\Temp\ccTAWfEI.s:721    .text:000005e0 _OS_TaskScheduler
C:\Users\PRESID~1\AppData\Local\Temp\ccTAWfEI.s:927    .text:000007a6 _ISR_TASK_DISPATCH_C0

UNDEFINED SYMBOLS
_OS_STACK
_TASK1_CALL_NR
_TASK2_CALL_NR
_TASK3_CALL_NR
_LAST_CURRENT_TIME
_TASK_0_VAR
_TASK_STACK
_TASK_GROUP_1
_TASK_1_VAR
_TASK_2_VAR
_TASK_GROUP_2
_TASK_3_VAR
_TASK_GROUP_3
_Get_current_time
_OS_SET_SW_BUG
_AddToTaskQueue
_AddToSchedulingQueue
_AddToIdleTaskQueue
_GET_CORE_ID
_OS_TASK_SAVE_SYSTEM_STACK
_OS_TASK_RESTORETASK_ENVIRONMENT
_SET_RUNNING_TASK
_LLF_CHANGE_TO_UNPRIVILIGED_THREAD_MODE
_OS_TASK_SAVETASK_ENVIRONMENT
_OS_TASK_RESTORE_SYSTEM_STACK
_DeleteFromTaskQueue
_DeleteFromSchedulingQueue
_GetRunningTask
_GetRunningSchedulingQueueElementPtr
_GetFromTaskQueue
_OS_INIT_TASK_QUEUE
_OS_INIT_TASK
_GetFromSchedulingQueue
