GAS LISTING C:\Users\PRESID~1\AppData\Local\Temp\ccrvaYae.s 			page 1


   1              		.file	"os_task_queue.c"
   2              		.text
   3              	Ltext0:
   4              	.lcomm _pTASK_RUN_QUEUE,20,4
   5              	.lcomm _TASK_RUN_QUEUE,480,32
   6              	.lcomm _RUNNING_TASK,96,32
   7              	.lcomm _TASK_IDLE_QUEUE,96,32
   8              	.lcomm _bTASK_QUEUE_INITIALIZED,1,1
   9              		.globl	_SET_RUNNING_TASK
  11              	_SET_RUNNING_TASK:
  12              	LFB0:
  13              		.file 1 "E:/NeuOrga/Programmieren/c_cpp/github_os/input/src/os_base/os_task_queue.c"
   1:E:/NeuOrga/Programmieren/c_cpp/github_os/input/src/os_base\os_task_queue.c **** #include "os_firstinc.h"
   2:E:/NeuOrga/Programmieren/c_cpp/github_os/input/src/os_base\os_task_queue.c **** #include "os_task_common.h"
   3:E:/NeuOrga/Programmieren/c_cpp/github_os/input/src/os_base\os_task_queue.c **** #include "os_task_queue.h"
   4:E:/NeuOrga/Programmieren/c_cpp/github_os/input/src/os_base\os_task_queue.c **** #include "os_task_scheduler.h"
   5:E:/NeuOrga/Programmieren/c_cpp/github_os/input/src/os_base\os_task_queue.c **** 
   6:E:/NeuOrga/Programmieren/c_cpp/github_os/input/src/os_base\os_task_queue.c **** Local task_t*           pTASK_RUN_QUEUE[MAX_RUN_PQUEUE_SIZE];
   7:E:/NeuOrga/Programmieren/c_cpp/github_os/input/src/os_base\os_task_queue.c **** Local task_t            TASK_RUN_QUEUE[MAX_RUN_QUEUE_SIZE];
   8:E:/NeuOrga/Programmieren/c_cpp/github_os/input/src/os_base\os_task_queue.c **** Local task_t            RUNNING_TASK[1];/* stores the running task */
   9:E:/NeuOrga/Programmieren/c_cpp/github_os/input/src/os_base\os_task_queue.c **** Local task_t            TASK_IDLE_QUEUE[1];
  10:E:/NeuOrga/Programmieren/c_cpp/github_os/input/src/os_base\os_task_queue.c **** Local unsigned_char_t   bTASK_QUEUE_INITIALIZED = False;
  11:E:/NeuOrga/Programmieren/c_cpp/github_os/input/src/os_base\os_task_queue.c **** 
  12:E:/NeuOrga/Programmieren/c_cpp/github_os/input/src/os_base\os_task_queue.c **** 
  13:E:/NeuOrga/Programmieren/c_cpp/github_os/input/src/os_base\os_task_queue.c **** 
  14:E:/NeuOrga/Programmieren/c_cpp/github_os/input/src/os_base\os_task_queue.c **** /* index 0: current task, 1,2,3,4: next tasks to be executed */
  15:E:/NeuOrga/Programmieren/c_cpp/github_os/input/src/os_base\os_task_queue.c **** /*
  16:E:/NeuOrga/Programmieren/c_cpp/github_os/input/src/os_base\os_task_queue.c **** 1. after execution of task finished(OS_TERMINATE_TASK):
  17:E:/NeuOrga/Programmieren/c_cpp/github_os/input/src/os_base\os_task_queue.c ****  - delete run_queue_element         (DeleteFromTaskQueue)
  18:E:/NeuOrga/Programmieren/c_cpp/github_os/input/src/os_base\os_task_queue.c ****  - delete link in link_list         (DeleteFromPointerQueue)
  19:E:/NeuOrga/Programmieren/c_cpp/github_os/input/src/os_base\os_task_queue.c ****  - shift pointers towards index 0   (UpdatePointerQueue)
  20:E:/NeuOrga/Programmieren/c_cpp/github_os/input/src/os_base\os_task_queue.c **** 
  21:E:/NeuOrga/Programmieren/c_cpp/github_os/input/src/os_base\os_task_queue.c **** 
  22:E:/NeuOrga/Programmieren/c_cpp/github_os/input/src/os_base\os_task_queue.c ****  2. to add new task (ActivateTask):
  23:E:/NeuOrga/Programmieren/c_cpp/github_os/input/src/os_base\os_task_queue.c ****  - add element to run_queue at first free element (AddToTaskQueue)
  24:E:/NeuOrga/Programmieren/c_cpp/github_os/input/src/os_base\os_task_queue.c ****  - add a link in the link_list at the end         (AddToPointerQueue)
  25:E:/NeuOrga/Programmieren/c_cpp/github_os/input/src/os_base\os_task_queue.c **** 
  26:E:/NeuOrga/Programmieren/c_cpp/github_os/input/src/os_base\os_task_queue.c ****  3. to start task:
  27:E:/NeuOrga/Programmieren/c_cpp/github_os/input/src/os_base\os_task_queue.c **** - start the task at index = 0                     (GetFromTaskQueue)
  28:E:/NeuOrga/Programmieren/c_cpp/github_os/input/src/os_base\os_task_queue.c **** 
  29:E:/NeuOrga/Programmieren/c_cpp/github_os/input/src/os_base\os_task_queue.c ****  4. to preempt task:
  30:E:/NeuOrga/Programmieren/c_cpp/github_os/input/src/os_base\os_task_queue.c **** - take element of index = 0 of linklist and save it somewhere else  (UpdatePointerQueue)
  31:E:/NeuOrga/Programmieren/c_cpp/github_os/input/src/os_base\os_task_queue.c **** - shift all entries in linklist to 0 by 1                           (UpdatePointerQueue)
  32:E:/NeuOrga/Programmieren/c_cpp/github_os/input/src/os_base\os_task_queue.c **** - add saved element at first free entry in linklist                 (UpdatePointerQueue)
  33:E:/NeuOrga/Programmieren/c_cpp/github_os/input/src/os_base\os_task_queue.c **** - eliminate empty link entries                                      (UpdatePointerQueue)
  34:E:/NeuOrga/Programmieren/c_cpp/github_os/input/src/os_base\os_task_queue.c ****  */
  35:E:/NeuOrga/Programmieren/c_cpp/github_os/input/src/os_base\os_task_queue.c **** 
  36:E:/NeuOrga/Programmieren/c_cpp/github_os/input/src/os_base\os_task_queue.c **** 
  37:E:/NeuOrga/Programmieren/c_cpp/github_os/input/src/os_base\os_task_queue.c **** void SET_RUNNING_TASK(task_t* task)
  38:E:/NeuOrga/Programmieren/c_cpp/github_os/input/src/os_base\os_task_queue.c **** {
  14              		.loc 1 38 0
  15              		.cfi_startproc
  16 0000 55       		pushl	%ebp
  17              		.cfi_def_cfa_offset 8
  18              		.cfi_offset 5, -8
  19 0001 89E5     		movl	%esp, %ebp
  20              		.cfi_def_cfa_register 5
GAS LISTING C:\Users\PRESID~1\AppData\Local\Temp\ccrvaYae.s 			page 2


  39:E:/NeuOrga/Programmieren/c_cpp/github_os/input/src/os_base\os_task_queue.c ****    if(task != 0)
  21              		.loc 1 39 0
  22 0003 837D0800 		cmpl	$0, 8(%ebp)
  23 0007 0F847A01 		je	L1
  23      0000
  40:E:/NeuOrga/Programmieren/c_cpp/github_os/input/src/os_base\os_task_queue.c ****    {
  41:E:/NeuOrga/Programmieren/c_cpp/github_os/input/src/os_base\os_task_queue.c ****       (&RUNNING_TASK[0])->active                          = task->active;
  24              		.loc 1 41 0
  25 000d 8B4508   		movl	8(%ebp), %eax
  26 0010 8A00     		movb	(%eax), %al
  27 0012 83E001   		andl	$1, %eax
  28 0015 83E001   		andl	$1, %eax
  29 0018 88C2     		movb	%al, %dl
  30 001a A0000200 		movb	_RUNNING_TASK, %al
  30      00
  31 001f 83E0FE   		andl	$-2, %eax
  32 0022 09D0     		orl	%edx, %eax
  33 0024 A2000200 		movb	%al, _RUNNING_TASK
  33      00
  42:E:/NeuOrga/Programmieren/c_cpp/github_os/input/src/os_base\os_task_queue.c ****       (&RUNNING_TASK[0])->task_queued                     = task->task_queued;
  34              		.loc 1 42 0
  35 0029 8B4508   		movl	8(%ebp), %eax
  36 002c 8A00     		movb	(%eax), %al
  37 002e D0E8     		shrb	%al
  38 0030 83E001   		andl	$1, %eax
  39 0033 83E001   		andl	$1, %eax
  40 0036 8D1400   		leal	(%eax,%eax), %edx
  41 0039 A0000200 		movb	_RUNNING_TASK, %al
  41      00
  42 003e 83E0FD   		andl	$-3, %eax
  43 0041 09D0     		orl	%edx, %eax
  44 0043 A2000200 		movb	%al, _RUNNING_TASK
  44      00
  43:E:/NeuOrga/Programmieren/c_cpp/github_os/input/src/os_base\os_task_queue.c ****       (&RUNNING_TASK[0])->IdleTask                        = task->IdleTask;
  45              		.loc 1 43 0
  46 0048 8B4508   		movl	8(%ebp), %eax
  47 004b 8A00     		movb	(%eax), %al
  48 004d C0E802   		shrb	$2, %al
  49 0050 83E001   		andl	$1, %eax
  50 0053 83E001   		andl	$1, %eax
  51 0056 8D148500 		leal	0(,%eax,4), %edx
  51      000000
  52 005d A0000200 		movb	_RUNNING_TASK, %al
  52      00
  53 0062 83E0FB   		andl	$-5, %eax
  54 0065 09D0     		orl	%edx, %eax
  55 0067 A2000200 		movb	%al, _RUNNING_TASK
  55      00
  44:E:/NeuOrga/Programmieren/c_cpp/github_os/input/src/os_base\os_task_queue.c ****       (&RUNNING_TASK[0])->FREE                            = task->FREE;
  56              		.loc 1 44 0
  57 006c 8B4508   		movl	8(%ebp), %eax
  58 006f 8B00     		movl	(%eax), %eax
  59 0071 C1E803   		shrl	$3, %eax
  60 0074 8D14C500 		leal	0(,%eax,8), %edx
  60      000000
  61 007b A1000200 		movl	_RUNNING_TASK, %eax
  61      00
GAS LISTING C:\Users\PRESID~1\AppData\Local\Temp\ccrvaYae.s 			page 3


  62 0080 83E007   		andl	$7, %eax
  63 0083 09D0     		orl	%edx, %eax
  64 0085 A3000200 		movl	%eax, _RUNNING_TASK
  64      00
  45:E:/NeuOrga/Programmieren/c_cpp/github_os/input/src/os_base\os_task_queue.c ****       (&RUNNING_TASK[0])->NrOfInsAllowed                  = task->NrOfInsAllowed;
  65              		.loc 1 45 0
  66 008a 8B4508   		movl	8(%ebp), %eax
  67 008d 8A4004   		movb	4(%eax), %al
  68 0090 A2040200 		movb	%al, _RUNNING_TASK+4
  68      00
  46:E:/NeuOrga/Programmieren/c_cpp/github_os/input/src/os_base\os_task_queue.c ****       (&RUNNING_TASK[0])->NrOfInsActivated                = task->NrOfInsActivated;
  69              		.loc 1 46 0
  70 0095 8B4508   		movl	8(%ebp), %eax
  71 0098 8A4005   		movb	5(%eax), %al
  72 009b A2050200 		movb	%al, _RUNNING_TASK+5
  72      00
  47:E:/NeuOrga/Programmieren/c_cpp/github_os/input/src/os_base\os_task_queue.c ****       (&RUNNING_TASK[0])->WaitActUntil                    = task->WaitActUntil;
  73              		.loc 1 47 0
  74 00a0 8B4508   		movl	8(%ebp), %eax
  75 00a3 8B4008   		movl	8(%eax), %eax
  76 00a6 A3080200 		movl	%eax, _RUNNING_TASK+8
  76      00
  48:E:/NeuOrga/Programmieren/c_cpp/github_os/input/src/os_base\os_task_queue.c ****       (&RUNNING_TASK[0])->wait_time                       = task->wait_time;
  77              		.loc 1 48 0
  78 00ab 8B4508   		movl	8(%ebp), %eax
  79 00ae 8B400C   		movl	12(%eax), %eax
  80 00b1 A30C0200 		movl	%eax, _RUNNING_TASK+12
  80      00
  49:E:/NeuOrga/Programmieren/c_cpp/github_os/input/src/os_base\os_task_queue.c ****       (&RUNNING_TASK[0])->TimeToPrioInc                   = task->TimeToPrioInc;
  81              		.loc 1 49 0
  82 00b6 8B4508   		movl	8(%ebp), %eax
  83 00b9 8B4010   		movl	16(%eax), %eax
  84 00bc A3100200 		movl	%eax, _RUNNING_TASK+16
  84      00
  50:E:/NeuOrga/Programmieren/c_cpp/github_os/input/src/os_base\os_task_queue.c ****       (&RUNNING_TASK[0])->overwaittime_per_prio_inc_step  = task->overwaittime_per_prio_inc_step;
  85              		.loc 1 50 0
  86 00c1 8B4508   		movl	8(%ebp), %eax
  87 00c4 8B4014   		movl	20(%eax), %eax
  88 00c7 A3140200 		movl	%eax, _RUNNING_TASK+20
  88      00
  51:E:/NeuOrga/Programmieren/c_cpp/github_os/input/src/os_base\os_task_queue.c ****       (&RUNNING_TASK[0])->max_allowed_wait_time           = task->max_allowed_wait_time;
  89              		.loc 1 51 0
  90 00cc 8B4508   		movl	8(%ebp), %eax
  91 00cf 8B4018   		movl	24(%eax), %eax
  92 00d2 A3180200 		movl	%eax, _RUNNING_TASK+24
  92      00
  52:E:/NeuOrga/Programmieren/c_cpp/github_os/input/src/os_base\os_task_queue.c ****       (&RUNNING_TASK[0])->exe_time                        = task->exe_time;
  93              		.loc 1 52 0
  94 00d7 8B4508   		movl	8(%ebp), %eax
  95 00da 8B401C   		movl	28(%eax), %eax
  96 00dd A31C0200 		movl	%eax, _RUNNING_TASK+28
  96      00
  53:E:/NeuOrga/Programmieren/c_cpp/github_os/input/src/os_base\os_task_queue.c ****       (&RUNNING_TASK[0])->current_prio                    = task->current_prio;
  97              		.loc 1 53 0
  98 00e2 8B4508   		movl	8(%ebp), %eax
  99 00e5 8A4020   		movb	32(%eax), %al
 100 00e8 A2200200 		movb	%al, _RUNNING_TASK+32
GAS LISTING C:\Users\PRESID~1\AppData\Local\Temp\ccrvaYae.s 			page 4


 100      00
  54:E:/NeuOrga/Programmieren/c_cpp/github_os/input/src/os_base\os_task_queue.c ****       (&RUNNING_TASK[0])->default_prio                    = task->default_prio;
 101              		.loc 1 54 0
 102 00ed 8B4508   		movl	8(%ebp), %eax
 103 00f0 8A4021   		movb	33(%eax), %al
 104 00f3 A2210200 		movb	%al, _RUNNING_TASK+33
 104      00
  55:E:/NeuOrga/Programmieren/c_cpp/github_os/input/src/os_base\os_task_queue.c ****       (&RUNNING_TASK[0])->fp                              = task->fp;
 105              		.loc 1 55 0
 106 00f8 8B4508   		movl	8(%ebp), %eax
 107 00fb 8B4028   		movl	40(%eax), %eax
 108 00fe A3280200 		movl	%eax, _RUNNING_TASK+40
 108      00
  56:E:/NeuOrga/Programmieren/c_cpp/github_os/input/src/os_base\os_task_queue.c ****       (&RUNNING_TASK[0])->state_request                   = task->state_request;
 109              		.loc 1 56 0
 110 0103 8B4508   		movl	8(%ebp), %eax
 111 0106 8B402C   		movl	44(%eax), %eax
 112 0109 A32C0200 		movl	%eax, _RUNNING_TASK+44
 112      00
  57:E:/NeuOrga/Programmieren/c_cpp/github_os/input/src/os_base\os_task_queue.c ****       (&RUNNING_TASK[0])->task_state                      = task->task_state;
 113              		.loc 1 57 0
 114 010e 8B4508   		movl	8(%ebp), %eax
 115 0111 8B4030   		movl	48(%eax), %eax
 116 0114 A3300200 		movl	%eax, _RUNNING_TASK+48
 116      00
  58:E:/NeuOrga/Programmieren/c_cpp/github_os/input/src/os_base\os_task_queue.c ****       (&RUNNING_TASK[0])->task_group                      = task->task_group;
 117              		.loc 1 58 0
 118 0119 8B4508   		movl	8(%ebp), %eax
 119 011c 8B4034   		movl	52(%eax), %eax
 120 011f A3340200 		movl	%eax, _RUNNING_TASK+52
 120      00
  59:E:/NeuOrga/Programmieren/c_cpp/github_os/input/src/os_base\os_task_queue.c ****    #if(CFG_PROCESSOR == cMCU_X86)
  60:E:/NeuOrga/Programmieren/c_cpp/github_os/input/src/os_base\os_task_queue.c ****       (&RUNNING_TASK[0])->EAX                             = task->EAX;
 121              		.loc 1 60 0
 122 0124 8B4508   		movl	8(%ebp), %eax
 123 0127 8B4038   		movl	56(%eax), %eax
 124 012a A3380200 		movl	%eax, _RUNNING_TASK+56
 124      00
  61:E:/NeuOrga/Programmieren/c_cpp/github_os/input/src/os_base\os_task_queue.c ****       (&RUNNING_TASK[0])->EBX                             = task->EBX;
 125              		.loc 1 61 0
 126 012f 8B4508   		movl	8(%ebp), %eax
 127 0132 8B403C   		movl	60(%eax), %eax
 128 0135 A33C0200 		movl	%eax, _RUNNING_TASK+60
 128      00
  62:E:/NeuOrga/Programmieren/c_cpp/github_os/input/src/os_base\os_task_queue.c ****       (&RUNNING_TASK[0])->ECX                             = task->ECX;
 129              		.loc 1 62 0
 130 013a 8B4508   		movl	8(%ebp), %eax
 131 013d 8B4040   		movl	64(%eax), %eax
 132 0140 A3400200 		movl	%eax, _RUNNING_TASK+64
 132      00
  63:E:/NeuOrga/Programmieren/c_cpp/github_os/input/src/os_base\os_task_queue.c ****       (&RUNNING_TASK[0])->EDX                             = task->EDX;
 133              		.loc 1 63 0
 134 0145 8B4508   		movl	8(%ebp), %eax
 135 0148 8B4044   		movl	68(%eax), %eax
 136 014b A3440200 		movl	%eax, _RUNNING_TASK+68
 136      00
  64:E:/NeuOrga/Programmieren/c_cpp/github_os/input/src/os_base\os_task_queue.c ****    #else
GAS LISTING C:\Users\PRESID~1\AppData\Local\Temp\ccrvaYae.s 			page 5


  65:E:/NeuOrga/Programmieren/c_cpp/github_os/input/src/os_base\os_task_queue.c ****       (&RUNNING_TASK[0])->r0                             = task->r0;
  66:E:/NeuOrga/Programmieren/c_cpp/github_os/input/src/os_base\os_task_queue.c ****       (&RUNNING_TASK[0])->r1                             = task->r1;
  67:E:/NeuOrga/Programmieren/c_cpp/github_os/input/src/os_base\os_task_queue.c ****       (&RUNNING_TASK[0])->r2                             = task->r2;
  68:E:/NeuOrga/Programmieren/c_cpp/github_os/input/src/os_base\os_task_queue.c ****       (&RUNNING_TASK[0])->r3                             = task->r3;
  69:E:/NeuOrga/Programmieren/c_cpp/github_os/input/src/os_base\os_task_queue.c ****       (&RUNNING_TASK[0])->r4                             = task->r4;
  70:E:/NeuOrga/Programmieren/c_cpp/github_os/input/src/os_base\os_task_queue.c ****       (&RUNNING_TASK[0])->r5                             = task->r5;
  71:E:/NeuOrga/Programmieren/c_cpp/github_os/input/src/os_base\os_task_queue.c ****       (&RUNNING_TASK[0])->r6                             = task->r6;   
  72:E:/NeuOrga/Programmieren/c_cpp/github_os/input/src/os_base\os_task_queue.c ****       (&RUNNING_TASK[0])->r7                             = task->r7;
  73:E:/NeuOrga/Programmieren/c_cpp/github_os/input/src/os_base\os_task_queue.c ****       (&RUNNING_TASK[0])->r8                             = task->r8;
  74:E:/NeuOrga/Programmieren/c_cpp/github_os/input/src/os_base\os_task_queue.c ****       (&RUNNING_TASK[0])->r9                             = task->r9;
  75:E:/NeuOrga/Programmieren/c_cpp/github_os/input/src/os_base\os_task_queue.c ****       (&RUNNING_TASK[0])->r10                            = task->r10;
  76:E:/NeuOrga/Programmieren/c_cpp/github_os/input/src/os_base\os_task_queue.c ****       (&RUNNING_TASK[0])->r11                            = task->r11;
  77:E:/NeuOrga/Programmieren/c_cpp/github_os/input/src/os_base\os_task_queue.c ****       (&RUNNING_TASK[0])->r12                            = task->r12;  
  78:E:/NeuOrga/Programmieren/c_cpp/github_os/input/src/os_base\os_task_queue.c ****    #endif      
  79:E:/NeuOrga/Programmieren/c_cpp/github_os/input/src/os_base\os_task_queue.c **** 
  80:E:/NeuOrga/Programmieren/c_cpp/github_os/input/src/os_base\os_task_queue.c ****       (&RUNNING_TASK[0])->pStackPointer                   = task->pStackPointer;
 137              		.loc 1 80 0
 138 0150 8B4508   		movl	8(%ebp), %eax
 139 0153 8B4048   		movl	72(%eax), %eax
 140 0156 A3480200 		movl	%eax, _RUNNING_TASK+72
 140      00
  81:E:/NeuOrga/Programmieren/c_cpp/github_os/input/src/os_base\os_task_queue.c ****       (&RUNNING_TASK[0])->pStackPointerByMalloc           = task->pStackPointerByMalloc;
 141              		.loc 1 81 0
 142 015b 8B4508   		movl	8(%ebp), %eax
 143 015e 8B404C   		movl	76(%eax), %eax
 144 0161 A34C0200 		movl	%eax, _RUNNING_TASK+76
 144      00
  82:E:/NeuOrga/Programmieren/c_cpp/github_os/input/src/os_base\os_task_queue.c ****       (&RUNNING_TASK[0])->pStackPointerStart              = task->pStackPointerStart;
 145              		.loc 1 82 0
 146 0166 8B4508   		movl	8(%ebp), %eax
 147 0169 8B4050   		movl	80(%eax), %eax
 148 016c A3500200 		movl	%eax, _RUNNING_TASK+80
 148      00
  83:E:/NeuOrga/Programmieren/c_cpp/github_os/input/src/os_base\os_task_queue.c ****       (&RUNNING_TASK[0])->StackSize                       = task->StackSize;
 149              		.loc 1 83 0
 150 0171 8B4508   		movl	8(%ebp), %eax
 151 0174 8B4054   		movl	84(%eax), %eax
 152 0177 A3540200 		movl	%eax, _RUNNING_TASK+84
 152      00
  84:E:/NeuOrga/Programmieren/c_cpp/github_os/input/src/os_base\os_task_queue.c ****       (&RUNNING_TASK[0])->pStackPointerEnd                = task->pStackPointerEnd;
 153              		.loc 1 84 0
 154 017c 8B4508   		movl	8(%ebp), %eax
 155 017f 8B4058   		movl	88(%eax), %eax
 156 0182 A3580200 		movl	%eax, _RUNNING_TASK+88
 156      00
 157              	L1:
  85:E:/NeuOrga/Programmieren/c_cpp/github_os/input/src/os_base\os_task_queue.c ****    }
  86:E:/NeuOrga/Programmieren/c_cpp/github_os/input/src/os_base\os_task_queue.c **** }
 158              		.loc 1 86 0
 159 0187 5D       		popl	%ebp
 160              		.cfi_restore 5
 161              		.cfi_def_cfa 4, 4
 162 0188 C3       		ret
 163              		.cfi_endproc
 164              	LFE0:
 165              		.globl	_OS_INIT_TASK_QUEUE
 167              	_OS_INIT_TASK_QUEUE:
GAS LISTING C:\Users\PRESID~1\AppData\Local\Temp\ccrvaYae.s 			page 6


 168              	LFB1:
  87:E:/NeuOrga/Programmieren/c_cpp/github_os/input/src/os_base\os_task_queue.c **** 
  88:E:/NeuOrga/Programmieren/c_cpp/github_os/input/src/os_base\os_task_queue.c **** /* task queue handling */
  89:E:/NeuOrga/Programmieren/c_cpp/github_os/input/src/os_base\os_task_queue.c **** void OS_INIT_TASK_QUEUE(void)
  90:E:/NeuOrga/Programmieren/c_cpp/github_os/input/src/os_base\os_task_queue.c **** {
 169              		.loc 1 90 0
 170              		.cfi_startproc
 171 0189 55       		pushl	%ebp
 172              		.cfi_def_cfa_offset 8
 173              		.cfi_offset 5, -8
 174 018a 89E5     		movl	%esp, %ebp
 175              		.cfi_def_cfa_register 5
 176 018c 83EC28   		subl	$40, %esp
  91:E:/NeuOrga/Programmieren/c_cpp/github_os/input/src/os_base\os_task_queue.c ****    if(bTASK_QUEUE_INITIALIZED == False)
 177              		.loc 1 91 0
 178 018f A0C00200 		movb	_bTASK_QUEUE_INITIALIZED, %al
 178      00
 179 0194 84C0     		testb	%al, %al
 180 0196 7543     		jne	L3
 181              	LBB2:
  92:E:/NeuOrga/Programmieren/c_cpp/github_os/input/src/os_base\os_task_queue.c ****    {
  93:E:/NeuOrga/Programmieren/c_cpp/github_os/input/src/os_base\os_task_queue.c ****       unsigned_char_t element_nr = 0;
 182              		.loc 1 93 0
 183 0198 C645F700 		movb	$0, -9(%ebp)
  94:E:/NeuOrga/Programmieren/c_cpp/github_os/input/src/os_base\os_task_queue.c ****       while(element_nr < MAX_RUN_QUEUE_SIZE)
 184              		.loc 1 94 0
 185 019c EB30     		jmp	L5
 186              	L6:
  95:E:/NeuOrga/Programmieren/c_cpp/github_os/input/src/os_base\os_task_queue.c ****       {
  96:E:/NeuOrga/Programmieren/c_cpp/github_os/input/src/os_base\os_task_queue.c **** 
  97:E:/NeuOrga/Programmieren/c_cpp/github_os/input/src/os_base\os_task_queue.c **** 
  98:E:/NeuOrga/Programmieren/c_cpp/github_os/input/src/os_base\os_task_queue.c ****          (pTASK_RUN_QUEUE[element_nr]) = (task_t*)0;
 187              		.loc 1 98 0
 188 019e 0FB645F7 		movzbl	-9(%ebp), %eax
 189 01a2 C7048500 		movl	$0, _pTASK_RUN_QUEUE(,%eax,4)
 189      00000000 
 189      000000
  99:E:/NeuOrga/Programmieren/c_cpp/github_os/input/src/os_base\os_task_queue.c ****          OS_Task_InitTaskEnvironment(&TASK_RUN_QUEUE[element_nr]);
 190              		.loc 1 99 0
 191 01ad 0FB655F7 		movzbl	-9(%ebp), %edx
 192 01b1 89D0     		movl	%edx, %eax
 193 01b3 01C0     		addl	%eax, %eax
 194 01b5 01D0     		addl	%edx, %eax
 195 01b7 C1E005   		sall	$5, %eax
 196 01ba 05200000 		addl	$_TASK_RUN_QUEUE, %eax
 196      00
 197 01bf 890424   		movl	%eax, (%esp)
 198 01c2 E8000000 		call	_OS_Task_InitTaskEnvironment
 198      00
 100:E:/NeuOrga/Programmieren/c_cpp/github_os/input/src/os_base\os_task_queue.c ****          element_nr++;
 199              		.loc 1 100 0
 200 01c7 8A45F7   		movb	-9(%ebp), %al
 201 01ca 40       		incl	%eax
 202 01cb 8845F7   		movb	%al, -9(%ebp)
 203              	L5:
  94:E:/NeuOrga/Programmieren/c_cpp/github_os/input/src/os_base\os_task_queue.c ****       {
 204              		.loc 1 94 0
GAS LISTING C:\Users\PRESID~1\AppData\Local\Temp\ccrvaYae.s 			page 7


 205 01ce 807DF704 		cmpb	$4, -9(%ebp)
 206 01d2 76CA     		jbe	L6
 101:E:/NeuOrga/Programmieren/c_cpp/github_os/input/src/os_base\os_task_queue.c ****       }
 102:E:/NeuOrga/Programmieren/c_cpp/github_os/input/src/os_base\os_task_queue.c ****       bTASK_QUEUE_INITIALIZED = True;
 207              		.loc 1 102 0
 208 01d4 C605C002 		movb	$1, _bTASK_QUEUE_INITIALIZED
 208      000001
 209              	L3:
 210              	LBE2:
 103:E:/NeuOrga/Programmieren/c_cpp/github_os/input/src/os_base\os_task_queue.c ****    }
 104:E:/NeuOrga/Programmieren/c_cpp/github_os/input/src/os_base\os_task_queue.c **** }
 211              		.loc 1 104 0
 212 01db C9       		leave
 213              		.cfi_restore 5
 214              		.cfi_def_cfa 4, 4
 215 01dc C3       		ret
 216              		.cfi_endproc
 217              	LFE1:
 218              		.globl	_AddToTaskQueue
 220              	_AddToTaskQueue:
 221              	LFB2:
 105:E:/NeuOrga/Programmieren/c_cpp/github_os/input/src/os_base\os_task_queue.c **** void* AddToTaskQueue(task_t* task)
 106:E:/NeuOrga/Programmieren/c_cpp/github_os/input/src/os_base\os_task_queue.c **** {
 222              		.loc 1 106 0
 223              		.cfi_startproc
 224 01dd 55       		pushl	%ebp
 225              		.cfi_def_cfa_offset 8
 226              		.cfi_offset 5, -8
 227 01de 89E5     		movl	%esp, %ebp
 228              		.cfi_def_cfa_register 5
 229 01e0 83EC10   		subl	$16, %esp
 107:E:/NeuOrga/Programmieren/c_cpp/github_os/input/src/os_base\os_task_queue.c ****    unsigned_char_t element_nr = 0;
 230              		.loc 1 107 0
 231 01e3 C645FF00 		movb	$0, -1(%ebp)
 108:E:/NeuOrga/Programmieren/c_cpp/github_os/input/src/os_base\os_task_queue.c ****    while( (element_nr < MAX_RUN_QUEUE_SIZE)
 232              		.loc 1 108 0
 233 01e7 EB07     		jmp	L8
 234              	L10:
 109:E:/NeuOrga/Programmieren/c_cpp/github_os/input/src/os_base\os_task_queue.c ****           &&((&TASK_RUN_QUEUE[element_nr])->task_queued == True)
 110:E:/NeuOrga/Programmieren/c_cpp/github_os/input/src/os_base\os_task_queue.c ****         )
 111:E:/NeuOrga/Programmieren/c_cpp/github_os/input/src/os_base\os_task_queue.c ****    {
 112:E:/NeuOrga/Programmieren/c_cpp/github_os/input/src/os_base\os_task_queue.c ****       element_nr++;
 235              		.loc 1 112 0
 236 01e9 8A45FF   		movb	-1(%ebp), %al
 237 01ec 40       		incl	%eax
 238 01ed 8845FF   		movb	%al, -1(%ebp)
 239              	L8:
 108:E:/NeuOrga/Programmieren/c_cpp/github_os/input/src/os_base\os_task_queue.c ****    while( (element_nr < MAX_RUN_QUEUE_SIZE)
 240              		.loc 1 108 0
 241 01f0 807DFF04 		cmpb	$4, -1(%ebp)
 242 01f4 771D     		ja	L9
 109:E:/NeuOrga/Programmieren/c_cpp/github_os/input/src/os_base\os_task_queue.c ****           &&((&TASK_RUN_QUEUE[element_nr])->task_queued == True)
 243              		.loc 1 109 0
 244 01f6 0FB655FF 		movzbl	-1(%ebp), %edx
 245 01fa 89D0     		movl	%edx, %eax
 246 01fc 01C0     		addl	%eax, %eax
 247 01fe 01D0     		addl	%edx, %eax
GAS LISTING C:\Users\PRESID~1\AppData\Local\Temp\ccrvaYae.s 			page 8


 248 0200 C1E005   		sall	$5, %eax
 249 0203 05200000 		addl	$_TASK_RUN_QUEUE, %eax
 249      00
 250 0208 8A00     		movb	(%eax), %al
 251 020a D0E8     		shrb	%al
 252 020c 83E001   		andl	$1, %eax
 253 020f 3C01     		cmpb	$1, %al
 254 0211 74D6     		je	L10
 255              	L9:
 113:E:/NeuOrga/Programmieren/c_cpp/github_os/input/src/os_base\os_task_queue.c ****    }
 114:E:/NeuOrga/Programmieren/c_cpp/github_os/input/src/os_base\os_task_queue.c ****    /* while loop ended due to free task_array slot ...*/
 115:E:/NeuOrga/Programmieren/c_cpp/github_os/input/src/os_base\os_task_queue.c ****    if( (element_nr < MAX_RUN_QUEUE_SIZE) && ((&TASK_RUN_QUEUE[element_nr])->task_queued == False) )
 256              		.loc 1 115 0
 257 0213 807DFF04 		cmpb	$4, -1(%ebp)
 258 0217 0F872403 		ja	L11
 258      0000
 259              		.loc 1 115 0 is_stmt 0 discriminator 1
 260 021d 0FB655FF 		movzbl	-1(%ebp), %edx
 261 0221 89D0     		movl	%edx, %eax
 262 0223 01C0     		addl	%eax, %eax
 263 0225 01D0     		addl	%edx, %eax
 264 0227 C1E005   		sall	$5, %eax
 265 022a 05200000 		addl	$_TASK_RUN_QUEUE, %eax
 265      00
 266 022f 8A00     		movb	(%eax), %al
 267 0231 D0E8     		shrb	%al
 268 0233 83E001   		andl	$1, %eax
 269 0236 84C0     		testb	%al, %al
 270 0238 0F850303 		jne	L11
 270      0000
 116:E:/NeuOrga/Programmieren/c_cpp/github_os/input/src/os_base\os_task_queue.c ****    {
 117:E:/NeuOrga/Programmieren/c_cpp/github_os/input/src/os_base\os_task_queue.c ****       (&TASK_RUN_QUEUE[element_nr])->active                          = task->active;
 271              		.loc 1 117 0 is_stmt 1
 272 023e 0FB655FF 		movzbl	-1(%ebp), %edx
 273 0242 8B4508   		movl	8(%ebp), %eax
 274 0245 8A00     		movb	(%eax), %al
 275 0247 83E001   		andl	$1, %eax
 276 024a 88C1     		movb	%al, %cl
 277 024c 89D0     		movl	%edx, %eax
 278 024e 01C0     		addl	%eax, %eax
 279 0250 01D0     		addl	%edx, %eax
 280 0252 C1E005   		sall	$5, %eax
 281 0255 05200000 		addl	$_TASK_RUN_QUEUE, %eax
 281      00
 282 025a 83E101   		andl	$1, %ecx
 283 025d 8A10     		movb	(%eax), %dl
 284 025f 83E2FE   		andl	$-2, %edx
 285 0262 09CA     		orl	%ecx, %edx
 286 0264 8810     		movb	%dl, (%eax)
 118:E:/NeuOrga/Programmieren/c_cpp/github_os/input/src/os_base\os_task_queue.c ****       (&TASK_RUN_QUEUE[element_nr])->task_queued                     = True;
 287              		.loc 1 118 0
 288 0266 0FB655FF 		movzbl	-1(%ebp), %edx
 289 026a 89D0     		movl	%edx, %eax
 290 026c 01C0     		addl	%eax, %eax
 291 026e 01D0     		addl	%edx, %eax
 292 0270 C1E005   		sall	$5, %eax
 293 0273 05200000 		addl	$_TASK_RUN_QUEUE, %eax
GAS LISTING C:\Users\PRESID~1\AppData\Local\Temp\ccrvaYae.s 			page 9


 293      00
 294 0278 8A10     		movb	(%eax), %dl
 295 027a 83CA02   		orl	$2, %edx
 296 027d 8810     		movb	%dl, (%eax)
 119:E:/NeuOrga/Programmieren/c_cpp/github_os/input/src/os_base\os_task_queue.c ****       (&TASK_RUN_QUEUE[element_nr])->IdleTask                        = task->IdleTask;
 297              		.loc 1 119 0
 298 027f 0FB64DFF 		movzbl	-1(%ebp), %ecx
 299 0283 8B4508   		movl	8(%ebp), %eax
 300 0286 8A00     		movb	(%eax), %al
 301 0288 C0E802   		shrb	$2, %al
 302 028b 88C2     		movb	%al, %dl
 303 028d 83E201   		andl	$1, %edx
 304 0290 89C8     		movl	%ecx, %eax
 305 0292 01C0     		addl	%eax, %eax
 306 0294 01C8     		addl	%ecx, %eax
 307 0296 C1E005   		sall	$5, %eax
 308 0299 05200000 		addl	$_TASK_RUN_QUEUE, %eax
 308      00
 309 029e 83E201   		andl	$1, %edx
 310 02a1 8D0C9500 		leal	0(,%edx,4), %ecx
 310      000000
 311 02a8 8A10     		movb	(%eax), %dl
 312 02aa 83E2FB   		andl	$-5, %edx
 313 02ad 09CA     		orl	%ecx, %edx
 314 02af 8810     		movb	%dl, (%eax)
 120:E:/NeuOrga/Programmieren/c_cpp/github_os/input/src/os_base\os_task_queue.c ****       (&TASK_RUN_QUEUE[element_nr])->FREE                            = task->FREE;
 315              		.loc 1 120 0
 316 02b1 0FB655FF 		movzbl	-1(%ebp), %edx
 317 02b5 8B4508   		movl	8(%ebp), %eax
 318 02b8 8B00     		movl	(%eax), %eax
 319 02ba C1E803   		shrl	$3, %eax
 320 02bd 89C1     		movl	%eax, %ecx
 321 02bf 89D0     		movl	%edx, %eax
 322 02c1 01C0     		addl	%eax, %eax
 323 02c3 01D0     		addl	%edx, %eax
 324 02c5 C1E005   		sall	$5, %eax
 325 02c8 05200000 		addl	$_TASK_RUN_QUEUE, %eax
 325      00
 326 02cd C1E103   		sall	$3, %ecx
 327 02d0 8B10     		movl	(%eax), %edx
 328 02d2 83E207   		andl	$7, %edx
 329 02d5 09CA     		orl	%ecx, %edx
 330 02d7 8910     		movl	%edx, (%eax)
 121:E:/NeuOrga/Programmieren/c_cpp/github_os/input/src/os_base\os_task_queue.c ****       (&TASK_RUN_QUEUE[element_nr])->NrOfInsAllowed                  = task->NrOfInsAllowed;
 331              		.loc 1 121 0
 332 02d9 0FB64DFF 		movzbl	-1(%ebp), %ecx
 333 02dd 8B4508   		movl	8(%ebp), %eax
 334 02e0 8A5004   		movb	4(%eax), %dl
 335 02e3 89C8     		movl	%ecx, %eax
 336 02e5 01C0     		addl	%eax, %eax
 337 02e7 01C8     		addl	%ecx, %eax
 338 02e9 C1E005   		sall	$5, %eax
 339 02ec 05200000 		addl	$_TASK_RUN_QUEUE, %eax
 339      00
 340 02f1 885004   		movb	%dl, 4(%eax)
 122:E:/NeuOrga/Programmieren/c_cpp/github_os/input/src/os_base\os_task_queue.c ****       (&TASK_RUN_QUEUE[element_nr])->NrOfInsActivated                = task->NrOfInsActivated;
 341              		.loc 1 122 0
GAS LISTING C:\Users\PRESID~1\AppData\Local\Temp\ccrvaYae.s 			page 10


 342 02f4 0FB64DFF 		movzbl	-1(%ebp), %ecx
 343 02f8 8B4508   		movl	8(%ebp), %eax
 344 02fb 8A5005   		movb	5(%eax), %dl
 345 02fe 89C8     		movl	%ecx, %eax
 346 0300 01C0     		addl	%eax, %eax
 347 0302 01C8     		addl	%ecx, %eax
 348 0304 C1E005   		sall	$5, %eax
 349 0307 05200000 		addl	$_TASK_RUN_QUEUE, %eax
 349      00
 350 030c 885005   		movb	%dl, 5(%eax)
 123:E:/NeuOrga/Programmieren/c_cpp/github_os/input/src/os_base\os_task_queue.c ****       (&TASK_RUN_QUEUE[element_nr])->WaitActUntil                    = task->WaitActUntil;
 351              		.loc 1 123 0
 352 030f 0FB64DFF 		movzbl	-1(%ebp), %ecx
 353 0313 8B4508   		movl	8(%ebp), %eax
 354 0316 8B5008   		movl	8(%eax), %edx
 355 0319 89C8     		movl	%ecx, %eax
 356 031b 01C0     		addl	%eax, %eax
 357 031d 01C8     		addl	%ecx, %eax
 358 031f C1E005   		sall	$5, %eax
 359 0322 05200000 		addl	$_TASK_RUN_QUEUE, %eax
 359      00
 360 0327 895008   		movl	%edx, 8(%eax)
 124:E:/NeuOrga/Programmieren/c_cpp/github_os/input/src/os_base\os_task_queue.c ****       (&TASK_RUN_QUEUE[element_nr])->wait_time                       = task->wait_time;
 361              		.loc 1 124 0
 362 032a 0FB64DFF 		movzbl	-1(%ebp), %ecx
 363 032e 8B4508   		movl	8(%ebp), %eax
 364 0331 8B500C   		movl	12(%eax), %edx
 365 0334 89C8     		movl	%ecx, %eax
 366 0336 01C0     		addl	%eax, %eax
 367 0338 01C8     		addl	%ecx, %eax
 368 033a C1E005   		sall	$5, %eax
 369 033d 05200000 		addl	$_TASK_RUN_QUEUE, %eax
 369      00
 370 0342 89500C   		movl	%edx, 12(%eax)
 125:E:/NeuOrga/Programmieren/c_cpp/github_os/input/src/os_base\os_task_queue.c ****       (&TASK_RUN_QUEUE[element_nr])->TimeToPrioInc                   = task->TimeToPrioInc;
 371              		.loc 1 125 0
 372 0345 0FB64DFF 		movzbl	-1(%ebp), %ecx
 373 0349 8B4508   		movl	8(%ebp), %eax
 374 034c 8B5010   		movl	16(%eax), %edx
 375 034f 89C8     		movl	%ecx, %eax
 376 0351 01C0     		addl	%eax, %eax
 377 0353 01C8     		addl	%ecx, %eax
 378 0355 C1E005   		sall	$5, %eax
 379 0358 05300000 		addl	$_TASK_RUN_QUEUE+16, %eax
 379      00
 380 035d 8910     		movl	%edx, (%eax)
 126:E:/NeuOrga/Programmieren/c_cpp/github_os/input/src/os_base\os_task_queue.c ****       (&TASK_RUN_QUEUE[element_nr])->overwaittime_per_prio_inc_step  = task->overwaittime_per_prio_
 381              		.loc 1 126 0
 382 035f 0FB64DFF 		movzbl	-1(%ebp), %ecx
 383 0363 8B4508   		movl	8(%ebp), %eax
 384 0366 8B5014   		movl	20(%eax), %edx
 385 0369 89C8     		movl	%ecx, %eax
 386 036b 01C0     		addl	%eax, %eax
 387 036d 01C8     		addl	%ecx, %eax
 388 036f C1E005   		sall	$5, %eax
 389 0372 05300000 		addl	$_TASK_RUN_QUEUE+16, %eax
 389      00
GAS LISTING C:\Users\PRESID~1\AppData\Local\Temp\ccrvaYae.s 			page 11


 390 0377 895004   		movl	%edx, 4(%eax)
 127:E:/NeuOrga/Programmieren/c_cpp/github_os/input/src/os_base\os_task_queue.c ****       (&TASK_RUN_QUEUE[element_nr])->max_allowed_wait_time           = task->max_allowed_wait_time;
 391              		.loc 1 127 0
 392 037a 0FB64DFF 		movzbl	-1(%ebp), %ecx
 393 037e 8B4508   		movl	8(%ebp), %eax
 394 0381 8B5018   		movl	24(%eax), %edx
 395 0384 89C8     		movl	%ecx, %eax
 396 0386 01C0     		addl	%eax, %eax
 397 0388 01C8     		addl	%ecx, %eax
 398 038a C1E005   		sall	$5, %eax
 399 038d 05300000 		addl	$_TASK_RUN_QUEUE+16, %eax
 399      00
 400 0392 895008   		movl	%edx, 8(%eax)
 128:E:/NeuOrga/Programmieren/c_cpp/github_os/input/src/os_base\os_task_queue.c ****       (&TASK_RUN_QUEUE[element_nr])->exe_time                        = task->exe_time;
 401              		.loc 1 128 0
 402 0395 0FB64DFF 		movzbl	-1(%ebp), %ecx
 403 0399 8B4508   		movl	8(%ebp), %eax
 404 039c 8B501C   		movl	28(%eax), %edx
 405 039f 89C8     		movl	%ecx, %eax
 406 03a1 01C0     		addl	%eax, %eax
 407 03a3 01C8     		addl	%ecx, %eax
 408 03a5 C1E005   		sall	$5, %eax
 409 03a8 05300000 		addl	$_TASK_RUN_QUEUE+16, %eax
 409      00
 410 03ad 89500C   		movl	%edx, 12(%eax)
 129:E:/NeuOrga/Programmieren/c_cpp/github_os/input/src/os_base\os_task_queue.c ****       (&TASK_RUN_QUEUE[element_nr])->current_prio                    = task->current_prio;
 411              		.loc 1 129 0
 412 03b0 0FB64DFF 		movzbl	-1(%ebp), %ecx
 413 03b4 8B4508   		movl	8(%ebp), %eax
 414 03b7 8A5020   		movb	32(%eax), %dl
 415 03ba 89C8     		movl	%ecx, %eax
 416 03bc 01C0     		addl	%eax, %eax
 417 03be 01C8     		addl	%ecx, %eax
 418 03c0 C1E005   		sall	$5, %eax
 419 03c3 05400000 		addl	$_TASK_RUN_QUEUE+32, %eax
 419      00
 420 03c8 8810     		movb	%dl, (%eax)
 130:E:/NeuOrga/Programmieren/c_cpp/github_os/input/src/os_base\os_task_queue.c ****       (&TASK_RUN_QUEUE[element_nr])->default_prio                    = task->default_prio;
 421              		.loc 1 130 0
 422 03ca 0FB64DFF 		movzbl	-1(%ebp), %ecx
 423 03ce 8B4508   		movl	8(%ebp), %eax
 424 03d1 8A5021   		movb	33(%eax), %dl
 425 03d4 89C8     		movl	%ecx, %eax
 426 03d6 01C0     		addl	%eax, %eax
 427 03d8 01C8     		addl	%ecx, %eax
 428 03da C1E005   		sall	$5, %eax
 429 03dd 05400000 		addl	$_TASK_RUN_QUEUE+32, %eax
 429      00
 430 03e2 885001   		movb	%dl, 1(%eax)
 131:E:/NeuOrga/Programmieren/c_cpp/github_os/input/src/os_base\os_task_queue.c ****       (&TASK_RUN_QUEUE[element_nr])->fp                              = task->fp;
 431              		.loc 1 131 0
 432 03e5 0FB64DFF 		movzbl	-1(%ebp), %ecx
 433 03e9 8B4508   		movl	8(%ebp), %eax
 434 03ec 8B5028   		movl	40(%eax), %edx
 435 03ef 89C8     		movl	%ecx, %eax
 436 03f1 01C0     		addl	%eax, %eax
 437 03f3 01C8     		addl	%ecx, %eax
GAS LISTING C:\Users\PRESID~1\AppData\Local\Temp\ccrvaYae.s 			page 12


 438 03f5 C1E005   		sall	$5, %eax
 439 03f8 05400000 		addl	$_TASK_RUN_QUEUE+32, %eax
 439      00
 440 03fd 895008   		movl	%edx, 8(%eax)
 132:E:/NeuOrga/Programmieren/c_cpp/github_os/input/src/os_base\os_task_queue.c ****       (&TASK_RUN_QUEUE[element_nr])->state_request                   = task->state_request;
 441              		.loc 1 132 0
 442 0400 0FB64DFF 		movzbl	-1(%ebp), %ecx
 443 0404 8B4508   		movl	8(%ebp), %eax
 444 0407 8B502C   		movl	44(%eax), %edx
 445 040a 89C8     		movl	%ecx, %eax
 446 040c 01C0     		addl	%eax, %eax
 447 040e 01C8     		addl	%ecx, %eax
 448 0410 C1E005   		sall	$5, %eax
 449 0413 05400000 		addl	$_TASK_RUN_QUEUE+32, %eax
 449      00
 450 0418 89500C   		movl	%edx, 12(%eax)
 133:E:/NeuOrga/Programmieren/c_cpp/github_os/input/src/os_base\os_task_queue.c ****       (&TASK_RUN_QUEUE[element_nr])->task_state                      = task->task_state;
 451              		.loc 1 133 0
 452 041b 0FB64DFF 		movzbl	-1(%ebp), %ecx
 453 041f 8B4508   		movl	8(%ebp), %eax
 454 0422 8B5030   		movl	48(%eax), %edx
 455 0425 89C8     		movl	%ecx, %eax
 456 0427 01C0     		addl	%eax, %eax
 457 0429 01C8     		addl	%ecx, %eax
 458 042b C1E005   		sall	$5, %eax
 459 042e 05500000 		addl	$_TASK_RUN_QUEUE+48, %eax
 459      00
 460 0433 8910     		movl	%edx, (%eax)
 134:E:/NeuOrga/Programmieren/c_cpp/github_os/input/src/os_base\os_task_queue.c ****       (&TASK_RUN_QUEUE[element_nr])->task_group                      = task->task_group;
 461              		.loc 1 134 0
 462 0435 0FB64DFF 		movzbl	-1(%ebp), %ecx
 463 0439 8B4508   		movl	8(%ebp), %eax
 464 043c 8B5034   		movl	52(%eax), %edx
 465 043f 89C8     		movl	%ecx, %eax
 466 0441 01C0     		addl	%eax, %eax
 467 0443 01C8     		addl	%ecx, %eax
 468 0445 C1E005   		sall	$5, %eax
 469 0448 05500000 		addl	$_TASK_RUN_QUEUE+48, %eax
 469      00
 470 044d 895004   		movl	%edx, 4(%eax)
 135:E:/NeuOrga/Programmieren/c_cpp/github_os/input/src/os_base\os_task_queue.c ****    #if(CFG_PROCESSOR == cMCU_X86)
 136:E:/NeuOrga/Programmieren/c_cpp/github_os/input/src/os_base\os_task_queue.c ****       (&TASK_RUN_QUEUE[element_nr])->EAX                             = task->EAX;
 471              		.loc 1 136 0
 472 0450 0FB64DFF 		movzbl	-1(%ebp), %ecx
 473 0454 8B4508   		movl	8(%ebp), %eax
 474 0457 8B5038   		movl	56(%eax), %edx
 475 045a 89C8     		movl	%ecx, %eax
 476 045c 01C0     		addl	%eax, %eax
 477 045e 01C8     		addl	%ecx, %eax
 478 0460 C1E005   		sall	$5, %eax
 479 0463 05500000 		addl	$_TASK_RUN_QUEUE+48, %eax
 479      00
 480 0468 895008   		movl	%edx, 8(%eax)
 137:E:/NeuOrga/Programmieren/c_cpp/github_os/input/src/os_base\os_task_queue.c ****       (&TASK_RUN_QUEUE[element_nr])->EBX                             = task->EBX;
 481              		.loc 1 137 0
 482 046b 0FB64DFF 		movzbl	-1(%ebp), %ecx
 483 046f 8B4508   		movl	8(%ebp), %eax
GAS LISTING C:\Users\PRESID~1\AppData\Local\Temp\ccrvaYae.s 			page 13


 484 0472 8B503C   		movl	60(%eax), %edx
 485 0475 89C8     		movl	%ecx, %eax
 486 0477 01C0     		addl	%eax, %eax
 487 0479 01C8     		addl	%ecx, %eax
 488 047b C1E005   		sall	$5, %eax
 489 047e 05500000 		addl	$_TASK_RUN_QUEUE+48, %eax
 489      00
 490 0483 89500C   		movl	%edx, 12(%eax)
 138:E:/NeuOrga/Programmieren/c_cpp/github_os/input/src/os_base\os_task_queue.c ****       (&TASK_RUN_QUEUE[element_nr])->ECX                             = task->ECX;
 491              		.loc 1 138 0
 492 0486 0FB64DFF 		movzbl	-1(%ebp), %ecx
 493 048a 8B4508   		movl	8(%ebp), %eax
 494 048d 8B5040   		movl	64(%eax), %edx
 495 0490 89C8     		movl	%ecx, %eax
 496 0492 01C0     		addl	%eax, %eax
 497 0494 01C8     		addl	%ecx, %eax
 498 0496 C1E005   		sall	$5, %eax
 499 0499 05600000 		addl	$_TASK_RUN_QUEUE+64, %eax
 499      00
 500 049e 8910     		movl	%edx, (%eax)
 139:E:/NeuOrga/Programmieren/c_cpp/github_os/input/src/os_base\os_task_queue.c ****       (&TASK_RUN_QUEUE[element_nr])->EDX                             = task->EDX;
 501              		.loc 1 139 0
 502 04a0 0FB64DFF 		movzbl	-1(%ebp), %ecx
 503 04a4 8B4508   		movl	8(%ebp), %eax
 504 04a7 8B5044   		movl	68(%eax), %edx
 505 04aa 89C8     		movl	%ecx, %eax
 506 04ac 01C0     		addl	%eax, %eax
 507 04ae 01C8     		addl	%ecx, %eax
 508 04b0 C1E005   		sall	$5, %eax
 509 04b3 05600000 		addl	$_TASK_RUN_QUEUE+64, %eax
 509      00
 510 04b8 895004   		movl	%edx, 4(%eax)
 140:E:/NeuOrga/Programmieren/c_cpp/github_os/input/src/os_base\os_task_queue.c ****    #else
 141:E:/NeuOrga/Programmieren/c_cpp/github_os/input/src/os_base\os_task_queue.c ****       (&TASK_RUN_QUEUE[element_nr])->r0                             = task->r0;
 142:E:/NeuOrga/Programmieren/c_cpp/github_os/input/src/os_base\os_task_queue.c ****       (&TASK_RUN_QUEUE[element_nr])->r1                             = task->r1;
 143:E:/NeuOrga/Programmieren/c_cpp/github_os/input/src/os_base\os_task_queue.c ****       (&TASK_RUN_QUEUE[element_nr])->r2                             = task->r2;
 144:E:/NeuOrga/Programmieren/c_cpp/github_os/input/src/os_base\os_task_queue.c ****       (&TASK_RUN_QUEUE[element_nr])->r3                             = task->r3;
 145:E:/NeuOrga/Programmieren/c_cpp/github_os/input/src/os_base\os_task_queue.c ****       (&TASK_RUN_QUEUE[element_nr])->r4                             = task->r4;
 146:E:/NeuOrga/Programmieren/c_cpp/github_os/input/src/os_base\os_task_queue.c ****       (&TASK_RUN_QUEUE[element_nr])->r5                             = task->r5;
 147:E:/NeuOrga/Programmieren/c_cpp/github_os/input/src/os_base\os_task_queue.c ****       (&TASK_RUN_QUEUE[element_nr])->r6                             = task->r6;   
 148:E:/NeuOrga/Programmieren/c_cpp/github_os/input/src/os_base\os_task_queue.c ****       (&TASK_RUN_QUEUE[element_nr])->r7                             = task->r7;
 149:E:/NeuOrga/Programmieren/c_cpp/github_os/input/src/os_base\os_task_queue.c ****       (&TASK_RUN_QUEUE[element_nr])->r8                             = task->r8;
 150:E:/NeuOrga/Programmieren/c_cpp/github_os/input/src/os_base\os_task_queue.c ****       (&TASK_RUN_QUEUE[element_nr])->r9                             = task->r9;
 151:E:/NeuOrga/Programmieren/c_cpp/github_os/input/src/os_base\os_task_queue.c ****       (&TASK_RUN_QUEUE[element_nr])->r10                            = task->r10;
 152:E:/NeuOrga/Programmieren/c_cpp/github_os/input/src/os_base\os_task_queue.c ****       (&TASK_RUN_QUEUE[element_nr])->r11                            = task->r11;
 153:E:/NeuOrga/Programmieren/c_cpp/github_os/input/src/os_base\os_task_queue.c ****       (&TASK_RUN_QUEUE[element_nr])->r12                            = task->r12;  
 154:E:/NeuOrga/Programmieren/c_cpp/github_os/input/src/os_base\os_task_queue.c ****    #endif       
 155:E:/NeuOrga/Programmieren/c_cpp/github_os/input/src/os_base\os_task_queue.c ****       (&TASK_RUN_QUEUE[element_nr])->pStackPointer                   = task->pStackPointer;
 511              		.loc 1 155 0
 512 04bb 0FB64DFF 		movzbl	-1(%ebp), %ecx
 513 04bf 8B4508   		movl	8(%ebp), %eax
 514 04c2 8B5048   		movl	72(%eax), %edx
 515 04c5 89C8     		movl	%ecx, %eax
 516 04c7 01C0     		addl	%eax, %eax
 517 04c9 01C8     		addl	%ecx, %eax
 518 04cb C1E005   		sall	$5, %eax
 519 04ce 05600000 		addl	$_TASK_RUN_QUEUE+64, %eax
GAS LISTING C:\Users\PRESID~1\AppData\Local\Temp\ccrvaYae.s 			page 14


 519      00
 520 04d3 895008   		movl	%edx, 8(%eax)
 156:E:/NeuOrga/Programmieren/c_cpp/github_os/input/src/os_base\os_task_queue.c ****       (&TASK_RUN_QUEUE[element_nr])->pStackPointerByMalloc           = task->pStackPointerByMalloc;
 521              		.loc 1 156 0
 522 04d6 0FB64DFF 		movzbl	-1(%ebp), %ecx
 523 04da 8B4508   		movl	8(%ebp), %eax
 524 04dd 8B504C   		movl	76(%eax), %edx
 525 04e0 89C8     		movl	%ecx, %eax
 526 04e2 01C0     		addl	%eax, %eax
 527 04e4 01C8     		addl	%ecx, %eax
 528 04e6 C1E005   		sall	$5, %eax
 529 04e9 05600000 		addl	$_TASK_RUN_QUEUE+64, %eax
 529      00
 530 04ee 89500C   		movl	%edx, 12(%eax)
 157:E:/NeuOrga/Programmieren/c_cpp/github_os/input/src/os_base\os_task_queue.c ****       (&TASK_RUN_QUEUE[element_nr])->pStackPointerStart              = task->pStackPointerStart;
 531              		.loc 1 157 0
 532 04f1 0FB64DFF 		movzbl	-1(%ebp), %ecx
 533 04f5 8B4508   		movl	8(%ebp), %eax
 534 04f8 8B5050   		movl	80(%eax), %edx
 535 04fb 89C8     		movl	%ecx, %eax
 536 04fd 01C0     		addl	%eax, %eax
 537 04ff 01C8     		addl	%ecx, %eax
 538 0501 C1E005   		sall	$5, %eax
 539 0504 05700000 		addl	$_TASK_RUN_QUEUE+80, %eax
 539      00
 540 0509 8910     		movl	%edx, (%eax)
 158:E:/NeuOrga/Programmieren/c_cpp/github_os/input/src/os_base\os_task_queue.c ****       (&TASK_RUN_QUEUE[element_nr])->StackSize                       = task->StackSize;
 541              		.loc 1 158 0
 542 050b 0FB64DFF 		movzbl	-1(%ebp), %ecx
 543 050f 8B4508   		movl	8(%ebp), %eax
 544 0512 8B5054   		movl	84(%eax), %edx
 545 0515 89C8     		movl	%ecx, %eax
 546 0517 01C0     		addl	%eax, %eax
 547 0519 01C8     		addl	%ecx, %eax
 548 051b C1E005   		sall	$5, %eax
 549 051e 05700000 		addl	$_TASK_RUN_QUEUE+80, %eax
 549      00
 550 0523 895004   		movl	%edx, 4(%eax)
 159:E:/NeuOrga/Programmieren/c_cpp/github_os/input/src/os_base\os_task_queue.c ****       (&TASK_RUN_QUEUE[element_nr])->pStackPointerEnd                = task->pStackPointerEnd;
 551              		.loc 1 159 0
 552 0526 0FB64DFF 		movzbl	-1(%ebp), %ecx
 553 052a 8B4508   		movl	8(%ebp), %eax
 554 052d 8B5058   		movl	88(%eax), %edx
 555 0530 89C8     		movl	%ecx, %eax
 556 0532 01C0     		addl	%eax, %eax
 557 0534 01C8     		addl	%ecx, %eax
 558 0536 C1E005   		sall	$5, %eax
 559 0539 05700000 		addl	$_TASK_RUN_QUEUE+80, %eax
 559      00
 560 053e 895008   		movl	%edx, 8(%eax)
 561              	L11:
 160:E:/NeuOrga/Programmieren/c_cpp/github_os/input/src/os_base\os_task_queue.c ****    }
 161:E:/NeuOrga/Programmieren/c_cpp/github_os/input/src/os_base\os_task_queue.c ****    return ((void*)&TASK_RUN_QUEUE[element_nr]);
 562              		.loc 1 161 0
 563 0541 0FB655FF 		movzbl	-1(%ebp), %edx
 564 0545 89D0     		movl	%edx, %eax
 565 0547 01C0     		addl	%eax, %eax
GAS LISTING C:\Users\PRESID~1\AppData\Local\Temp\ccrvaYae.s 			page 15


 566 0549 01D0     		addl	%edx, %eax
 567 054b C1E005   		sall	$5, %eax
 568 054e 05200000 		addl	$_TASK_RUN_QUEUE, %eax
 568      00
 162:E:/NeuOrga/Programmieren/c_cpp/github_os/input/src/os_base\os_task_queue.c **** }
 569              		.loc 1 162 0
 570 0553 C9       		leave
 571              		.cfi_restore 5
 572              		.cfi_def_cfa 4, 4
 573 0554 C3       		ret
 574              		.cfi_endproc
 575              	LFE2:
 576              		.globl	_DeleteFromTaskQueue
 578              	_DeleteFromTaskQueue:
 579              	LFB3:
 163:E:/NeuOrga/Programmieren/c_cpp/github_os/input/src/os_base\os_task_queue.c **** void DeleteFromTaskQueue(task_t* task)
 164:E:/NeuOrga/Programmieren/c_cpp/github_os/input/src/os_base\os_task_queue.c **** {
 580              		.loc 1 164 0
 581              		.cfi_startproc
 582 0555 55       		pushl	%ebp
 583              		.cfi_def_cfa_offset 8
 584              		.cfi_offset 5, -8
 585 0556 89E5     		movl	%esp, %ebp
 586              		.cfi_def_cfa_register 5
 165:E:/NeuOrga/Programmieren/c_cpp/github_os/input/src/os_base\os_task_queue.c ****    task->active                                =   False   ;
 587              		.loc 1 165 0
 588 0558 8B4508   		movl	8(%ebp), %eax
 589 055b 8A10     		movb	(%eax), %dl
 590 055d 83E2FE   		andl	$-2, %edx
 591 0560 8810     		movb	%dl, (%eax)
 166:E:/NeuOrga/Programmieren/c_cpp/github_os/input/src/os_base\os_task_queue.c ****    task->task_queued                           =   False   ;
 592              		.loc 1 166 0
 593 0562 8B4508   		movl	8(%ebp), %eax
 594 0565 8A10     		movb	(%eax), %dl
 595 0567 83E2FD   		andl	$-3, %edx
 596 056a 8810     		movb	%dl, (%eax)
 167:E:/NeuOrga/Programmieren/c_cpp/github_os/input/src/os_base\os_task_queue.c ****    task->IdleTask                              =   False   ;
 597              		.loc 1 167 0
 598 056c 8B4508   		movl	8(%ebp), %eax
 599 056f 8A10     		movb	(%eax), %dl
 600 0571 83E2FB   		andl	$-5, %edx
 601 0574 8810     		movb	%dl, (%eax)
 168:E:/NeuOrga/Programmieren/c_cpp/github_os/input/src/os_base\os_task_queue.c ****    task->FREE                                  =   0       ;
 602              		.loc 1 168 0
 603 0576 8B4508   		movl	8(%ebp), %eax
 604 0579 8B10     		movl	(%eax), %edx
 605 057b 83E207   		andl	$7, %edx
 606 057e 8910     		movl	%edx, (%eax)
 169:E:/NeuOrga/Programmieren/c_cpp/github_os/input/src/os_base\os_task_queue.c ****    task->NrOfInsAllowed                        =   0       ;
 607              		.loc 1 169 0
 608 0580 8B4508   		movl	8(%ebp), %eax
 609 0583 C6400400 		movb	$0, 4(%eax)
 170:E:/NeuOrga/Programmieren/c_cpp/github_os/input/src/os_base\os_task_queue.c ****    task->NrOfInsActivated                      =   0       ;
 610              		.loc 1 170 0
 611 0587 8B4508   		movl	8(%ebp), %eax
 612 058a C6400500 		movb	$0, 5(%eax)
 171:E:/NeuOrga/Programmieren/c_cpp/github_os/input/src/os_base\os_task_queue.c ****    task->WaitActUntil                          =   0       ;
GAS LISTING C:\Users\PRESID~1\AppData\Local\Temp\ccrvaYae.s 			page 16


 613              		.loc 1 171 0
 614 058e 8B4508   		movl	8(%ebp), %eax
 615 0591 C7400800 		movl	$0, 8(%eax)
 615      000000
 172:E:/NeuOrga/Programmieren/c_cpp/github_os/input/src/os_base\os_task_queue.c ****    task->wait_time                             =   0       ;
 616              		.loc 1 172 0
 617 0598 8B4508   		movl	8(%ebp), %eax
 618 059b C7400C00 		movl	$0, 12(%eax)
 618      000000
 173:E:/NeuOrga/Programmieren/c_cpp/github_os/input/src/os_base\os_task_queue.c ****    task->TimeToPrioInc                         =   0       ;
 619              		.loc 1 173 0
 620 05a2 8B4508   		movl	8(%ebp), %eax
 621 05a5 C7401000 		movl	$0, 16(%eax)
 621      000000
 174:E:/NeuOrga/Programmieren/c_cpp/github_os/input/src/os_base\os_task_queue.c ****    task->overwaittime_per_prio_inc_step        =   0       ;
 622              		.loc 1 174 0
 623 05ac 8B4508   		movl	8(%ebp), %eax
 624 05af C7401400 		movl	$0, 20(%eax)
 624      000000
 175:E:/NeuOrga/Programmieren/c_cpp/github_os/input/src/os_base\os_task_queue.c ****    task->max_allowed_wait_time                 =   0       ;
 625              		.loc 1 175 0
 626 05b6 8B4508   		movl	8(%ebp), %eax
 627 05b9 C7401800 		movl	$0, 24(%eax)
 627      000000
 176:E:/NeuOrga/Programmieren/c_cpp/github_os/input/src/os_base\os_task_queue.c ****    task->exe_time                              =   0       ;
 628              		.loc 1 176 0
 629 05c0 8B4508   		movl	8(%ebp), %eax
 630 05c3 C7401C00 		movl	$0, 28(%eax)
 630      000000
 177:E:/NeuOrga/Programmieren/c_cpp/github_os/input/src/os_base\os_task_queue.c ****    task->current_prio                          =   0       ;
 631              		.loc 1 177 0
 632 05ca 8B4508   		movl	8(%ebp), %eax
 633 05cd C6402000 		movb	$0, 32(%eax)
 178:E:/NeuOrga/Programmieren/c_cpp/github_os/input/src/os_base\os_task_queue.c ****    task->default_prio                          =   0       ;
 634              		.loc 1 178 0
 635 05d1 8B4508   		movl	8(%ebp), %eax
 636 05d4 C6402100 		movb	$0, 33(%eax)
 179:E:/NeuOrga/Programmieren/c_cpp/github_os/input/src/os_base\os_task_queue.c ****    task->fp                                    =   0       ;
 637              		.loc 1 179 0
 638 05d8 8B4508   		movl	8(%ebp), %eax
 639 05db C7402800 		movl	$0, 40(%eax)
 639      000000
 180:E:/NeuOrga/Programmieren/c_cpp/github_os/input/src/os_base\os_task_queue.c ****    task->state_request                         =   0       ;
 640              		.loc 1 180 0
 641 05e2 8B4508   		movl	8(%ebp), %eax
 642 05e5 C7402C00 		movl	$0, 44(%eax)
 642      000000
 181:E:/NeuOrga/Programmieren/c_cpp/github_os/input/src/os_base\os_task_queue.c ****    task->task_state                            =   Task_unspecified;
 643              		.loc 1 181 0
 644 05ec 8B4508   		movl	8(%ebp), %eax
 645 05ef C7403000 		movl	$0, 48(%eax)
 645      000000
 182:E:/NeuOrga/Programmieren/c_cpp/github_os/input/src/os_base\os_task_queue.c ****    task->task_group                            =   0       ;
 646              		.loc 1 182 0
 647 05f6 8B4508   		movl	8(%ebp), %eax
 648 05f9 C7403400 		movl	$0, 52(%eax)
 648      000000
GAS LISTING C:\Users\PRESID~1\AppData\Local\Temp\ccrvaYae.s 			page 17


 183:E:/NeuOrga/Programmieren/c_cpp/github_os/input/src/os_base\os_task_queue.c ****       #if(CFG_PROCESSOR == cMCU_X86)
 184:E:/NeuOrga/Programmieren/c_cpp/github_os/input/src/os_base\os_task_queue.c ****       task->EAX                                   =   0              ;
 649              		.loc 1 184 0
 650 0600 8B4508   		movl	8(%ebp), %eax
 651 0603 C7403800 		movl	$0, 56(%eax)
 651      000000
 185:E:/NeuOrga/Programmieren/c_cpp/github_os/input/src/os_base\os_task_queue.c ****       task->EBX                                   =   0             ;
 652              		.loc 1 185 0
 653 060a 8B4508   		movl	8(%ebp), %eax
 654 060d C7403C00 		movl	$0, 60(%eax)
 654      000000
 186:E:/NeuOrga/Programmieren/c_cpp/github_os/input/src/os_base\os_task_queue.c ****       task->ECX                                   =   0              ;
 655              		.loc 1 186 0
 656 0614 8B4508   		movl	8(%ebp), %eax
 657 0617 C7404000 		movl	$0, 64(%eax)
 657      000000
 187:E:/NeuOrga/Programmieren/c_cpp/github_os/input/src/os_base\os_task_queue.c ****       task->EDX                                   =   0              ;
 658              		.loc 1 187 0
 659 061e 8B4508   		movl	8(%ebp), %eax
 660 0621 C7404400 		movl	$0, 68(%eax)
 660      000000
 188:E:/NeuOrga/Programmieren/c_cpp/github_os/input/src/os_base\os_task_queue.c ****       #elif(CFG_PROCESSOR == cMCU_CORTEX_M4)
 189:E:/NeuOrga/Programmieren/c_cpp/github_os/input/src/os_base\os_task_queue.c ****       task->r0                                   =   0              ;
 190:E:/NeuOrga/Programmieren/c_cpp/github_os/input/src/os_base\os_task_queue.c ****       task->r1                                   =   0              ;
 191:E:/NeuOrga/Programmieren/c_cpp/github_os/input/src/os_base\os_task_queue.c ****       task->r2                                   =   0              ;
 192:E:/NeuOrga/Programmieren/c_cpp/github_os/input/src/os_base\os_task_queue.c ****       task->r3                                   =   0              ;     
 193:E:/NeuOrga/Programmieren/c_cpp/github_os/input/src/os_base\os_task_queue.c ****       task->r4                                   =   0              ;     
 194:E:/NeuOrga/Programmieren/c_cpp/github_os/input/src/os_base\os_task_queue.c ****       task->r5                                   =   0              ;     
 195:E:/NeuOrga/Programmieren/c_cpp/github_os/input/src/os_base\os_task_queue.c ****       task->r6                                   =   0              ;     
 196:E:/NeuOrga/Programmieren/c_cpp/github_os/input/src/os_base\os_task_queue.c ****       task->r7                                   =   0              ;     
 197:E:/NeuOrga/Programmieren/c_cpp/github_os/input/src/os_base\os_task_queue.c ****       task->r8                                   =   0              ;     
 198:E:/NeuOrga/Programmieren/c_cpp/github_os/input/src/os_base\os_task_queue.c ****       task->r9                                   =   0              ;     
 199:E:/NeuOrga/Programmieren/c_cpp/github_os/input/src/os_base\os_task_queue.c ****       task->r10                                  =   0             ;     
 200:E:/NeuOrga/Programmieren/c_cpp/github_os/input/src/os_base\os_task_queue.c ****       task->r11                                  =   0             ;     
 201:E:/NeuOrga/Programmieren/c_cpp/github_os/input/src/os_base\os_task_queue.c ****       task->r12                                  =   0             ;     
 202:E:/NeuOrga/Programmieren/c_cpp/github_os/input/src/os_base\os_task_queue.c ****       #else
 203:E:/NeuOrga/Programmieren/c_cpp/github_os/input/src/os_base\os_task_queue.c ****       #error "os_task_queue.c"
 204:E:/NeuOrga/Programmieren/c_cpp/github_os/input/src/os_base\os_task_queue.c ****       #endif
 205:E:/NeuOrga/Programmieren/c_cpp/github_os/input/src/os_base\os_task_queue.c ****    task->pStackPointer                         =   0       ;
 661              		.loc 1 205 0
 662 0628 8B4508   		movl	8(%ebp), %eax
 663 062b C7404800 		movl	$0, 72(%eax)
 663      000000
 206:E:/NeuOrga/Programmieren/c_cpp/github_os/input/src/os_base\os_task_queue.c ****    task->pStackPointerByMalloc                 =   0       ;
 664              		.loc 1 206 0
 665 0632 8B4508   		movl	8(%ebp), %eax
 666 0635 C7404C00 		movl	$0, 76(%eax)
 666      000000
 207:E:/NeuOrga/Programmieren/c_cpp/github_os/input/src/os_base\os_task_queue.c ****    task->pStackPointerStart                    =   0       ;
 667              		.loc 1 207 0
 668 063c 8B4508   		movl	8(%ebp), %eax
 669 063f C7405000 		movl	$0, 80(%eax)
 669      000000
 208:E:/NeuOrga/Programmieren/c_cpp/github_os/input/src/os_base\os_task_queue.c ****    task->StackSize                             =   0       ;
 670              		.loc 1 208 0
 671 0646 8B4508   		movl	8(%ebp), %eax
 672 0649 C7405400 		movl	$0, 84(%eax)
GAS LISTING C:\Users\PRESID~1\AppData\Local\Temp\ccrvaYae.s 			page 18


 672      000000
 209:E:/NeuOrga/Programmieren/c_cpp/github_os/input/src/os_base\os_task_queue.c ****    task->pStackPointerEnd                      =   0       ;
 673              		.loc 1 209 0
 674 0650 8B4508   		movl	8(%ebp), %eax
 675 0653 C7405800 		movl	$0, 88(%eax)
 675      000000
 210:E:/NeuOrga/Programmieren/c_cpp/github_os/input/src/os_base\os_task_queue.c **** }
 676              		.loc 1 210 0
 677 065a 5D       		popl	%ebp
 678              		.cfi_restore 5
 679              		.cfi_def_cfa 4, 4
 680 065b C3       		ret
 681              		.cfi_endproc
 682              	LFE3:
 683              		.globl	_GetFromTaskQueue
 685              	_GetFromTaskQueue:
 686              	LFB4:
 211:E:/NeuOrga/Programmieren/c_cpp/github_os/input/src/os_base\os_task_queue.c **** task_t* GetFromTaskQueue(link_list_t* link)
 212:E:/NeuOrga/Programmieren/c_cpp/github_os/input/src/os_base\os_task_queue.c **** {
 687              		.loc 1 212 0
 688              		.cfi_startproc
 689 065c 55       		pushl	%ebp
 690              		.cfi_def_cfa_offset 8
 691              		.cfi_offset 5, -8
 692 065d 89E5     		movl	%esp, %ebp
 693              		.cfi_def_cfa_register 5
 213:E:/NeuOrga/Programmieren/c_cpp/github_os/input/src/os_base\os_task_queue.c ****    return ((task_t*)link);/*((task_t*)*link);*/
 694              		.loc 1 213 0
 695 065f 8B4508   		movl	8(%ebp), %eax
 214:E:/NeuOrga/Programmieren/c_cpp/github_os/input/src/os_base\os_task_queue.c **** }
 696              		.loc 1 214 0
 697 0662 5D       		popl	%ebp
 698              		.cfi_restore 5
 699              		.cfi_def_cfa 4, 4
 700 0663 C3       		ret
 701              		.cfi_endproc
 702              	LFE4:
 703              		.globl	_GetFromLinkList
 705              	_GetFromLinkList:
 706              	LFB5:
 215:E:/NeuOrga/Programmieren/c_cpp/github_os/input/src/os_base\os_task_queue.c **** link_list_t* GetFromLinkList(unsigned_char_t element_nr)
 216:E:/NeuOrga/Programmieren/c_cpp/github_os/input/src/os_base\os_task_queue.c **** {
 707              		.loc 1 216 0
 708              		.cfi_startproc
 709 0664 55       		pushl	%ebp
 710              		.cfi_def_cfa_offset 8
 711              		.cfi_offset 5, -8
 712 0665 89E5     		movl	%esp, %ebp
 713              		.cfi_def_cfa_register 5
 714 0667 83EC04   		subl	$4, %esp
 715 066a 8B4508   		movl	8(%ebp), %eax
 716 066d 8845FC   		movb	%al, -4(%ebp)
 217:E:/NeuOrga/Programmieren/c_cpp/github_os/input/src/os_base\os_task_queue.c ****    return ((link_list_t*)pTASK_RUN_QUEUE[element_nr]);
 717              		.loc 1 217 0
 718 0670 0FB645FC 		movzbl	-4(%ebp), %eax
 719 0674 8B048500 		movl	_pTASK_RUN_QUEUE(,%eax,4), %eax
 719      000000
GAS LISTING C:\Users\PRESID~1\AppData\Local\Temp\ccrvaYae.s 			page 19


 218:E:/NeuOrga/Programmieren/c_cpp/github_os/input/src/os_base\os_task_queue.c **** }
 720              		.loc 1 218 0
 721 067b C9       		leave
 722              		.cfi_restore 5
 723              		.cfi_def_cfa 4, 4
 724 067c C3       		ret
 725              		.cfi_endproc
 726              	LFE5:
 727              		.globl	_DeleteFromLinkList
 729              	_DeleteFromLinkList:
 730              	LFB6:
 219:E:/NeuOrga/Programmieren/c_cpp/github_os/input/src/os_base\os_task_queue.c **** /* Pointer Queue Handling*/
 220:E:/NeuOrga/Programmieren/c_cpp/github_os/input/src/os_base\os_task_queue.c **** void DeleteFromLinkList(unsigned_char_t element_nr)
 221:E:/NeuOrga/Programmieren/c_cpp/github_os/input/src/os_base\os_task_queue.c **** {
 731              		.loc 1 221 0
 732              		.cfi_startproc
 733 067d 55       		pushl	%ebp
 734              		.cfi_def_cfa_offset 8
 735              		.cfi_offset 5, -8
 736 067e 89E5     		movl	%esp, %ebp
 737              		.cfi_def_cfa_register 5
 738 0680 83EC04   		subl	$4, %esp
 739 0683 8B4508   		movl	8(%ebp), %eax
 740 0686 8845FC   		movb	%al, -4(%ebp)
 222:E:/NeuOrga/Programmieren/c_cpp/github_os/input/src/os_base\os_task_queue.c ****    pTASK_RUN_QUEUE[element_nr] = 0;
 741              		.loc 1 222 0
 742 0689 0FB645FC 		movzbl	-4(%ebp), %eax
 743 068d C7048500 		movl	$0, _pTASK_RUN_QUEUE(,%eax,4)
 743      00000000 
 743      000000
 223:E:/NeuOrga/Programmieren/c_cpp/github_os/input/src/os_base\os_task_queue.c **** }
 744              		.loc 1 223 0
 745 0698 C9       		leave
 746              		.cfi_restore 5
 747              		.cfi_def_cfa 4, 4
 748 0699 C3       		ret
 749              		.cfi_endproc
 750              	LFE6:
 751              		.globl	_AddToLinkList
 753              	_AddToLinkList:
 754              	LFB7:
 224:E:/NeuOrga/Programmieren/c_cpp/github_os/input/src/os_base\os_task_queue.c **** void* AddToLinkList(task_t* task)
 225:E:/NeuOrga/Programmieren/c_cpp/github_os/input/src/os_base\os_task_queue.c **** {
 755              		.loc 1 225 0
 756              		.cfi_startproc
 757 069a 55       		pushl	%ebp
 758              		.cfi_def_cfa_offset 8
 759              		.cfi_offset 5, -8
 760 069b 89E5     		movl	%esp, %ebp
 761              		.cfi_def_cfa_register 5
 762 069d 83EC10   		subl	$16, %esp
 226:E:/NeuOrga/Programmieren/c_cpp/github_os/input/src/os_base\os_task_queue.c ****    /*
 227:E:/NeuOrga/Programmieren/c_cpp/github_os/input/src/os_base\os_task_queue.c ****    Description:
 228:E:/NeuOrga/Programmieren/c_cpp/github_os/input/src/os_base\os_task_queue.c ****    add "task" into next free slot of pTASK_RUN_QUEUE
 229:E:/NeuOrga/Programmieren/c_cpp/github_os/input/src/os_base\os_task_queue.c **** 
 230:E:/NeuOrga/Programmieren/c_cpp/github_os/input/src/os_base\os_task_queue.c ****    in:     task_t* task (task to be added)
 231:E:/NeuOrga/Programmieren/c_cpp/github_os/input/src/os_base\os_task_queue.c ****    out     addresse of linklist_element, in which task was added
GAS LISTING C:\Users\PRESID~1\AppData\Local\Temp\ccrvaYae.s 			page 20


 232:E:/NeuOrga/Programmieren/c_cpp/github_os/input/src/os_base\os_task_queue.c ****    */
 233:E:/NeuOrga/Programmieren/c_cpp/github_os/input/src/os_base\os_task_queue.c ****    unsigned_char_t Add_successful = False;
 763              		.loc 1 233 0
 764 06a0 C645FF00 		movb	$0, -1(%ebp)
 234:E:/NeuOrga/Programmieren/c_cpp/github_os/input/src/os_base\os_task_queue.c ****    unsigned_char_t index = 0;
 765              		.loc 1 234 0
 766 06a4 C645FE00 		movb	$0, -2(%ebp)
 235:E:/NeuOrga/Programmieren/c_cpp/github_os/input/src/os_base\os_task_queue.c ****    void*        ret_val = 0;
 767              		.loc 1 235 0
 768 06a8 C745F800 		movl	$0, -8(%ebp)
 768      000000
 236:E:/NeuOrga/Programmieren/c_cpp/github_os/input/src/os_base\os_task_queue.c **** 
 237:E:/NeuOrga/Programmieren/c_cpp/github_os/input/src/os_base\os_task_queue.c ****    while(  (index < MAX_RUN_QUEUE_SIZE)
 769              		.loc 1 237 0
 770 06af EB37     		jmp	L20
 771              	L23:
 238:E:/NeuOrga/Programmieren/c_cpp/github_os/input/src/os_base\os_task_queue.c ****            &&(Add_successful == False))
 239:E:/NeuOrga/Programmieren/c_cpp/github_os/input/src/os_base\os_task_queue.c ****    {
 240:E:/NeuOrga/Programmieren/c_cpp/github_os/input/src/os_base\os_task_queue.c ****       if(pTASK_RUN_QUEUE[index] == 0)
 772              		.loc 1 240 0
 773 06b1 0FB645FE 		movzbl	-2(%ebp), %eax
 774 06b5 8B048500 		movl	_pTASK_RUN_QUEUE(,%eax,4), %eax
 774      000000
 775 06bc 85C0     		testl	%eax, %eax
 776 06be 7521     		jne	L21
 241:E:/NeuOrga/Programmieren/c_cpp/github_os/input/src/os_base\os_task_queue.c ****       {
 242:E:/NeuOrga/Programmieren/c_cpp/github_os/input/src/os_base\os_task_queue.c ****          pTASK_RUN_QUEUE[index] = task;
 777              		.loc 1 242 0
 778 06c0 0FB645FE 		movzbl	-2(%ebp), %eax
 779 06c4 8B5508   		movl	8(%ebp), %edx
 780 06c7 89148500 		movl	%edx, _pTASK_RUN_QUEUE(,%eax,4)
 780      000000
 243:E:/NeuOrga/Programmieren/c_cpp/github_os/input/src/os_base\os_task_queue.c ****          Add_successful         = True;
 781              		.loc 1 243 0
 782 06ce C645FF01 		movb	$1, -1(%ebp)
 244:E:/NeuOrga/Programmieren/c_cpp/github_os/input/src/os_base\os_task_queue.c ****          ret_val                = &pTASK_RUN_QUEUE[index];
 783              		.loc 1 244 0
 784 06d2 0FB645FE 		movzbl	-2(%ebp), %eax
 785 06d6 C1E002   		sall	$2, %eax
 786 06d9 05000000 		addl	$_pTASK_RUN_QUEUE, %eax
 786      00
 787 06de 8945F8   		movl	%eax, -8(%ebp)
 788              	L21:
 245:E:/NeuOrga/Programmieren/c_cpp/github_os/input/src/os_base\os_task_queue.c ****       }
 246:E:/NeuOrga/Programmieren/c_cpp/github_os/input/src/os_base\os_task_queue.c ****       index++;
 789              		.loc 1 246 0
 790 06e1 8A45FE   		movb	-2(%ebp), %al
 791 06e4 40       		incl	%eax
 792 06e5 8845FE   		movb	%al, -2(%ebp)
 793              	L20:
 237:E:/NeuOrga/Programmieren/c_cpp/github_os/input/src/os_base\os_task_queue.c ****            &&(Add_successful == False))
 794              		.loc 1 237 0
 795 06e8 807DFE04 		cmpb	$4, -2(%ebp)
 796 06ec 7706     		ja	L22
 238:E:/NeuOrga/Programmieren/c_cpp/github_os/input/src/os_base\os_task_queue.c ****    {
 797              		.loc 1 238 0
 798 06ee 807DFF00 		cmpb	$0, -1(%ebp)
GAS LISTING C:\Users\PRESID~1\AppData\Local\Temp\ccrvaYae.s 			page 21


 799 06f2 74BD     		je	L23
 800              	L22:
 247:E:/NeuOrga/Programmieren/c_cpp/github_os/input/src/os_base\os_task_queue.c ****    }
 248:E:/NeuOrga/Programmieren/c_cpp/github_os/input/src/os_base\os_task_queue.c ****    return ret_val;
 801              		.loc 1 248 0
 802 06f4 8B45F8   		movl	-8(%ebp), %eax
 249:E:/NeuOrga/Programmieren/c_cpp/github_os/input/src/os_base\os_task_queue.c **** }
 803              		.loc 1 249 0
 804 06f7 C9       		leave
 805              		.cfi_restore 5
 806              		.cfi_def_cfa 4, 4
 807 06f8 C3       		ret
 808              		.cfi_endproc
 809              	LFE7:
 810              		.globl	_UpdateLinkList
 812              	_UpdateLinkList:
 813              	LFB8:
 250:E:/NeuOrga/Programmieren/c_cpp/github_os/input/src/os_base\os_task_queue.c **** void UpdateLinkList(void)
 251:E:/NeuOrga/Programmieren/c_cpp/github_os/input/src/os_base\os_task_queue.c **** {
 814              		.loc 1 251 0
 815              		.cfi_startproc
 816 06f9 55       		pushl	%ebp
 817              		.cfi_def_cfa_offset 8
 818              		.cfi_offset 5, -8
 819 06fa 89E5     		movl	%esp, %ebp
 820              		.cfi_def_cfa_register 5
 821 06fc 83EC10   		subl	$16, %esp
 252:E:/NeuOrga/Programmieren/c_cpp/github_os/input/src/os_base\os_task_queue.c ****    /* eliminate emptry link list entries (should be colleted at the high numbers) */
 253:E:/NeuOrga/Programmieren/c_cpp/github_os/input/src/os_base\os_task_queue.c ****    unsigned_char_t dest = 0, src = 0;
 822              		.loc 1 253 0
 823 06ff C645FF00 		movb	$0, -1(%ebp)
 824 0703 C645FE00 		movb	$0, -2(%ebp)
 254:E:/NeuOrga/Programmieren/c_cpp/github_os/input/src/os_base\os_task_queue.c **** 
 255:E:/NeuOrga/Programmieren/c_cpp/github_os/input/src/os_base\os_task_queue.c ****    while (dest < MAX_RUN_PQUEUE_SIZE)
 825              		.loc 1 255 0
 826 0707 EB74     		jmp	L26
 827              	L31:
 256:E:/NeuOrga/Programmieren/c_cpp/github_os/input/src/os_base\os_task_queue.c ****    {
 257:E:/NeuOrga/Programmieren/c_cpp/github_os/input/src/os_base\os_task_queue.c ****       if(pTASK_RUN_QUEUE[dest] == 0)
 828              		.loc 1 257 0
 829 0709 0FB645FF 		movzbl	-1(%ebp), %eax
 830 070d 8B048500 		movl	_pTASK_RUN_QUEUE(,%eax,4), %eax
 830      000000
 831 0714 85C0     		testl	%eax, %eax
 832 0716 755E     		jne	L27
 258:E:/NeuOrga/Programmieren/c_cpp/github_os/input/src/os_base\os_task_queue.c ****       {
 259:E:/NeuOrga/Programmieren/c_cpp/github_os/input/src/os_base\os_task_queue.c ****          /* found empty entry ->shift following elements left in array */
 260:E:/NeuOrga/Programmieren/c_cpp/github_os/input/src/os_base\os_task_queue.c **** 
 261:E:/NeuOrga/Programmieren/c_cpp/github_os/input/src/os_base\os_task_queue.c ****          src = dest; /* start from empty entry point */
 833              		.loc 1 261 0
 834 0718 8A45FF   		movb	-1(%ebp), %al
 835 071b 8845FE   		movb	%al, -2(%ebp)
 262:E:/NeuOrga/Programmieren/c_cpp/github_os/input/src/os_base\os_task_queue.c ****          while((src < MAX_RUN_PQUEUE_SIZE)&&(pTASK_RUN_QUEUE[src]==0))
 836              		.loc 1 262 0
 837 071e EB07     		jmp	L28
 838              	L30:
 263:E:/NeuOrga/Programmieren/c_cpp/github_os/input/src/os_base\os_task_queue.c ****          {
GAS LISTING C:\Users\PRESID~1\AppData\Local\Temp\ccrvaYae.s 			page 22


 264:E:/NeuOrga/Programmieren/c_cpp/github_os/input/src/os_base\os_task_queue.c ****             src++;
 839              		.loc 1 264 0
 840 0720 8A45FE   		movb	-2(%ebp), %al
 841 0723 40       		incl	%eax
 842 0724 8845FE   		movb	%al, -2(%ebp)
 843              	L28:
 262:E:/NeuOrga/Programmieren/c_cpp/github_os/input/src/os_base\os_task_queue.c ****          while((src < MAX_RUN_PQUEUE_SIZE)&&(pTASK_RUN_QUEUE[src]==0))
 844              		.loc 1 262 0
 845 0727 807DFE04 		cmpb	$4, -2(%ebp)
 846 072b 770F     		ja	L29
 262:E:/NeuOrga/Programmieren/c_cpp/github_os/input/src/os_base\os_task_queue.c ****          while((src < MAX_RUN_PQUEUE_SIZE)&&(pTASK_RUN_QUEUE[src]==0))
 847              		.loc 1 262 0 is_stmt 0 discriminator 1
 848 072d 0FB645FE 		movzbl	-2(%ebp), %eax
 849 0731 8B048500 		movl	_pTASK_RUN_QUEUE(,%eax,4), %eax
 849      000000
 850 0738 85C0     		testl	%eax, %eax
 851 073a 74E4     		je	L30
 852              	L29:
 265:E:/NeuOrga/Programmieren/c_cpp/github_os/input/src/os_base\os_task_queue.c ****          }
 266:E:/NeuOrga/Programmieren/c_cpp/github_os/input/src/os_base\os_task_queue.c ****          if((src < MAX_RUN_PQUEUE_SIZE)&&(pTASK_RUN_QUEUE[src]!=0))
 853              		.loc 1 266 0 is_stmt 1
 854 073c 807DFE04 		cmpb	$4, -2(%ebp)
 855 0740 7734     		ja	L27
 856              		.loc 1 266 0 is_stmt 0 discriminator 1
 857 0742 0FB645FE 		movzbl	-2(%ebp), %eax
 858 0746 8B048500 		movl	_pTASK_RUN_QUEUE(,%eax,4), %eax
 858      000000
 859 074d 85C0     		testl	%eax, %eax
 860 074f 7425     		je	L27
 267:E:/NeuOrga/Programmieren/c_cpp/github_os/input/src/os_base\os_task_queue.c ****          {
 268:E:/NeuOrga/Programmieren/c_cpp/github_os/input/src/os_base\os_task_queue.c ****             pTASK_RUN_QUEUE[dest] = pTASK_RUN_QUEUE[src];
 861              		.loc 1 268 0 is_stmt 1
 862 0751 0FB645FF 		movzbl	-1(%ebp), %eax
 863 0755 0FB655FE 		movzbl	-2(%ebp), %edx
 864 0759 8B149500 		movl	_pTASK_RUN_QUEUE(,%edx,4), %edx
 864      000000
 865 0760 89148500 		movl	%edx, _pTASK_RUN_QUEUE(,%eax,4)
 865      000000
 269:E:/NeuOrga/Programmieren/c_cpp/github_os/input/src/os_base\os_task_queue.c ****             pTASK_RUN_QUEUE[src]  = 0;
 866              		.loc 1 269 0
 867 0767 0FB645FE 		movzbl	-2(%ebp), %eax
 868 076b C7048500 		movl	$0, _pTASK_RUN_QUEUE(,%eax,4)
 868      00000000 
 868      000000
 869              	L27:
 270:E:/NeuOrga/Programmieren/c_cpp/github_os/input/src/os_base\os_task_queue.c ****          }
 271:E:/NeuOrga/Programmieren/c_cpp/github_os/input/src/os_base\os_task_queue.c ****       }
 272:E:/NeuOrga/Programmieren/c_cpp/github_os/input/src/os_base\os_task_queue.c ****       dest++;
 870              		.loc 1 272 0
 871 0776 8A45FF   		movb	-1(%ebp), %al
 872 0779 40       		incl	%eax
 873 077a 8845FF   		movb	%al, -1(%ebp)
 874              	L26:
 255:E:/NeuOrga/Programmieren/c_cpp/github_os/input/src/os_base\os_task_queue.c ****    {
 875              		.loc 1 255 0
 876 077d 807DFF04 		cmpb	$4, -1(%ebp)
 877 0781 7686     		jbe	L31
GAS LISTING C:\Users\PRESID~1\AppData\Local\Temp\ccrvaYae.s 			page 23


 273:E:/NeuOrga/Programmieren/c_cpp/github_os/input/src/os_base\os_task_queue.c ****    }
 274:E:/NeuOrga/Programmieren/c_cpp/github_os/input/src/os_base\os_task_queue.c **** }
 878              		.loc 1 274 0
 879 0783 C9       		leave
 880              		.cfi_restore 5
 881              		.cfi_def_cfa 4, 4
 882 0784 C3       		ret
 883              		.cfi_endproc
 884              	LFE8:
 885              		.globl	_GetIdleTask
 887              	_GetIdleTask:
 888              	LFB9:
 275:E:/NeuOrga/Programmieren/c_cpp/github_os/input/src/os_base\os_task_queue.c **** 
 276:E:/NeuOrga/Programmieren/c_cpp/github_os/input/src/os_base\os_task_queue.c **** /* Idle task queue handling */
 277:E:/NeuOrga/Programmieren/c_cpp/github_os/input/src/os_base\os_task_queue.c **** task_t* GetIdleTask(void)
 278:E:/NeuOrga/Programmieren/c_cpp/github_os/input/src/os_base\os_task_queue.c **** {
 889              		.loc 1 278 0
 890              		.cfi_startproc
 891 0785 55       		pushl	%ebp
 892              		.cfi_def_cfa_offset 8
 893              		.cfi_offset 5, -8
 894 0786 89E5     		movl	%esp, %ebp
 895              		.cfi_def_cfa_register 5
 279:E:/NeuOrga/Programmieren/c_cpp/github_os/input/src/os_base\os_task_queue.c ****    return (&TASK_IDLE_QUEUE[0]);
 896              		.loc 1 279 0
 897 0788 B8600200 		movl	$_TASK_IDLE_QUEUE, %eax
 897      00
 280:E:/NeuOrga/Programmieren/c_cpp/github_os/input/src/os_base\os_task_queue.c **** }
 898              		.loc 1 280 0
 899 078d 5D       		popl	%ebp
 900              		.cfi_restore 5
 901              		.cfi_def_cfa 4, 4
 902 078e C3       		ret
 903              		.cfi_endproc
 904              	LFE9:
 905              		.globl	_AddToIdleTaskQueue
 907              	_AddToIdleTaskQueue:
 908              	LFB10:
 281:E:/NeuOrga/Programmieren/c_cpp/github_os/input/src/os_base\os_task_queue.c **** void AddToIdleTaskQueue(task_t* task)
 282:E:/NeuOrga/Programmieren/c_cpp/github_os/input/src/os_base\os_task_queue.c **** {
 909              		.loc 1 282 0
 910              		.cfi_startproc
 911 078f 55       		pushl	%ebp
 912              		.cfi_def_cfa_offset 8
 913              		.cfi_offset 5, -8
 914 0790 89E5     		movl	%esp, %ebp
 915              		.cfi_def_cfa_register 5
 283:E:/NeuOrga/Programmieren/c_cpp/github_os/input/src/os_base\os_task_queue.c ****    /* only 1 element for TASK_IDLE_QUEUE allowed */
 284:E:/NeuOrga/Programmieren/c_cpp/github_os/input/src/os_base\os_task_queue.c ****    if((&TASK_IDLE_QUEUE[0])->IdleTask == False)
 916              		.loc 1 284 0
 917 0792 A0600200 		movb	_TASK_IDLE_QUEUE, %al
 917      00
 918 0797 83E004   		andl	$4, %eax
 919 079a 84C0     		testb	%al, %al
 920 079c 0F857901 		jne	L34
 920      0000
 285:E:/NeuOrga/Programmieren/c_cpp/github_os/input/src/os_base\os_task_queue.c ****    {
GAS LISTING C:\Users\PRESID~1\AppData\Local\Temp\ccrvaYae.s 			page 24


 286:E:/NeuOrga/Programmieren/c_cpp/github_os/input/src/os_base\os_task_queue.c ****       (&TASK_IDLE_QUEUE[0])->active                                =   task->active           ;
 921              		.loc 1 286 0
 922 07a2 8B4508   		movl	8(%ebp), %eax
 923 07a5 8A00     		movb	(%eax), %al
 924 07a7 83E001   		andl	$1, %eax
 925 07aa 83E001   		andl	$1, %eax
 926 07ad 88C2     		movb	%al, %dl
 927 07af A0600200 		movb	_TASK_IDLE_QUEUE, %al
 927      00
 928 07b4 83E0FE   		andl	$-2, %eax
 929 07b7 09D0     		orl	%edx, %eax
 930 07b9 A2600200 		movb	%al, _TASK_IDLE_QUEUE
 930      00
 287:E:/NeuOrga/Programmieren/c_cpp/github_os/input/src/os_base\os_task_queue.c ****       (&TASK_IDLE_QUEUE[0])->task_queued                           =   task->task_queued      ;
 931              		.loc 1 287 0
 932 07be 8B4508   		movl	8(%ebp), %eax
 933 07c1 8A00     		movb	(%eax), %al
 934 07c3 D0E8     		shrb	%al
 935 07c5 83E001   		andl	$1, %eax
 936 07c8 83E001   		andl	$1, %eax
 937 07cb 8D1400   		leal	(%eax,%eax), %edx
 938 07ce A0600200 		movb	_TASK_IDLE_QUEUE, %al
 938      00
 939 07d3 83E0FD   		andl	$-3, %eax
 940 07d6 09D0     		orl	%edx, %eax
 941 07d8 A2600200 		movb	%al, _TASK_IDLE_QUEUE
 941      00
 288:E:/NeuOrga/Programmieren/c_cpp/github_os/input/src/os_base\os_task_queue.c ****       (&TASK_IDLE_QUEUE[0])->IdleTask                              =   task->IdleTask         ;
 942              		.loc 1 288 0
 943 07dd 8B4508   		movl	8(%ebp), %eax
 944 07e0 8A00     		movb	(%eax), %al
 945 07e2 C0E802   		shrb	$2, %al
 946 07e5 83E001   		andl	$1, %eax
 947 07e8 83E001   		andl	$1, %eax
 948 07eb 8D148500 		leal	0(,%eax,4), %edx
 948      000000
 949 07f2 A0600200 		movb	_TASK_IDLE_QUEUE, %al
 949      00
 950 07f7 83E0FB   		andl	$-5, %eax
 951 07fa 09D0     		orl	%edx, %eax
 952 07fc A2600200 		movb	%al, _TASK_IDLE_QUEUE
 952      00
 289:E:/NeuOrga/Programmieren/c_cpp/github_os/input/src/os_base\os_task_queue.c ****       (&TASK_IDLE_QUEUE[0])->FREE                                  =   task->FREE             ;
 953              		.loc 1 289 0
 954 0801 8B4508   		movl	8(%ebp), %eax
 955 0804 8B00     		movl	(%eax), %eax
 956 0806 C1E803   		shrl	$3, %eax
 957 0809 8D14C500 		leal	0(,%eax,8), %edx
 957      000000
 958 0810 A1600200 		movl	_TASK_IDLE_QUEUE, %eax
 958      00
 959 0815 83E007   		andl	$7, %eax
 960 0818 09D0     		orl	%edx, %eax
 961 081a A3600200 		movl	%eax, _TASK_IDLE_QUEUE
 961      00
 290:E:/NeuOrga/Programmieren/c_cpp/github_os/input/src/os_base\os_task_queue.c ****       (&TASK_IDLE_QUEUE[0])->NrOfInsAllowed                        =   task->NrOfInsAllowed   ;
 962              		.loc 1 290 0
GAS LISTING C:\Users\PRESID~1\AppData\Local\Temp\ccrvaYae.s 			page 25


 963 081f 8B4508   		movl	8(%ebp), %eax
 964 0822 8A4004   		movb	4(%eax), %al
 965 0825 A2640200 		movb	%al, _TASK_IDLE_QUEUE+4
 965      00
 291:E:/NeuOrga/Programmieren/c_cpp/github_os/input/src/os_base\os_task_queue.c ****       (&TASK_IDLE_QUEUE[0])->NrOfInsActivated                      =   task->NrOfInsActivated ;
 966              		.loc 1 291 0
 967 082a 8B4508   		movl	8(%ebp), %eax
 968 082d 8A4005   		movb	5(%eax), %al
 969 0830 A2650200 		movb	%al, _TASK_IDLE_QUEUE+5
 969      00
 292:E:/NeuOrga/Programmieren/c_cpp/github_os/input/src/os_base\os_task_queue.c ****       (&TASK_IDLE_QUEUE[0])->WaitActUntil                          =   task->WaitActUntil     ;
 970              		.loc 1 292 0
 971 0835 8B4508   		movl	8(%ebp), %eax
 972 0838 8B4008   		movl	8(%eax), %eax
 973 083b A3680200 		movl	%eax, _TASK_IDLE_QUEUE+8
 973      00
 293:E:/NeuOrga/Programmieren/c_cpp/github_os/input/src/os_base\os_task_queue.c ****       (&TASK_IDLE_QUEUE[0])->wait_time                             =   task->wait_time        ;
 974              		.loc 1 293 0
 975 0840 8B4508   		movl	8(%ebp), %eax
 976 0843 8B400C   		movl	12(%eax), %eax
 977 0846 A36C0200 		movl	%eax, _TASK_IDLE_QUEUE+12
 977      00
 294:E:/NeuOrga/Programmieren/c_cpp/github_os/input/src/os_base\os_task_queue.c ****       (&TASK_IDLE_QUEUE[0])->TimeToPrioInc                         =   task->TimeToPrioInc    ;
 978              		.loc 1 294 0
 979 084b 8B4508   		movl	8(%ebp), %eax
 980 084e 8B4010   		movl	16(%eax), %eax
 981 0851 A3700200 		movl	%eax, _TASK_IDLE_QUEUE+16
 981      00
 295:E:/NeuOrga/Programmieren/c_cpp/github_os/input/src/os_base\os_task_queue.c ****       (&TASK_IDLE_QUEUE[0])->overwaittime_per_prio_inc_step        =   task->overwaittime_per_prio_
 982              		.loc 1 295 0
 983 0856 8B4508   		movl	8(%ebp), %eax
 984 0859 8B4014   		movl	20(%eax), %eax
 985 085c A3740200 		movl	%eax, _TASK_IDLE_QUEUE+20
 985      00
 296:E:/NeuOrga/Programmieren/c_cpp/github_os/input/src/os_base\os_task_queue.c ****       (&TASK_IDLE_QUEUE[0])->max_allowed_wait_time                 =   task->max_allowed_wait_time;
 986              		.loc 1 296 0
 987 0861 8B4508   		movl	8(%ebp), %eax
 988 0864 8B4018   		movl	24(%eax), %eax
 989 0867 A3780200 		movl	%eax, _TASK_IDLE_QUEUE+24
 989      00
 297:E:/NeuOrga/Programmieren/c_cpp/github_os/input/src/os_base\os_task_queue.c ****       (&TASK_IDLE_QUEUE[0])->exe_time                              =   task->exe_time;
 990              		.loc 1 297 0
 991 086c 8B4508   		movl	8(%ebp), %eax
 992 086f 8B401C   		movl	28(%eax), %eax
 993 0872 A37C0200 		movl	%eax, _TASK_IDLE_QUEUE+28
 993      00
 298:E:/NeuOrga/Programmieren/c_cpp/github_os/input/src/os_base\os_task_queue.c ****       (&TASK_IDLE_QUEUE[0])->current_prio                          =   task->current_prio     ;
 994              		.loc 1 298 0
 995 0877 8B4508   		movl	8(%ebp), %eax
 996 087a 8A4020   		movb	32(%eax), %al
 997 087d A2800200 		movb	%al, _TASK_IDLE_QUEUE+32
 997      00
 299:E:/NeuOrga/Programmieren/c_cpp/github_os/input/src/os_base\os_task_queue.c ****       (&TASK_IDLE_QUEUE[0])->default_prio                          =   task->default_prio     ;
 998              		.loc 1 299 0
 999 0882 8B4508   		movl	8(%ebp), %eax
 1000 0885 8A4021   		movb	33(%eax), %al
 1001 0888 A2810200 		movb	%al, _TASK_IDLE_QUEUE+33
GAS LISTING C:\Users\PRESID~1\AppData\Local\Temp\ccrvaYae.s 			page 26


 1001      00
 300:E:/NeuOrga/Programmieren/c_cpp/github_os/input/src/os_base\os_task_queue.c ****       (&TASK_IDLE_QUEUE[0])->fp                                    =   task->fp               ;
 1002              		.loc 1 300 0
 1003 088d 8B4508   		movl	8(%ebp), %eax
 1004 0890 8B4028   		movl	40(%eax), %eax
 1005 0893 A3880200 		movl	%eax, _TASK_IDLE_QUEUE+40
 1005      00
 301:E:/NeuOrga/Programmieren/c_cpp/github_os/input/src/os_base\os_task_queue.c ****       (&TASK_IDLE_QUEUE[0])->state_request                         =   task->state_request    ;
 1006              		.loc 1 301 0
 1007 0898 8B4508   		movl	8(%ebp), %eax
 1008 089b 8B402C   		movl	44(%eax), %eax
 1009 089e A38C0200 		movl	%eax, _TASK_IDLE_QUEUE+44
 1009      00
 302:E:/NeuOrga/Programmieren/c_cpp/github_os/input/src/os_base\os_task_queue.c ****       (&TASK_IDLE_QUEUE[0])->task_state                            =   Task_ready             ;
 1010              		.loc 1 302 0
 1011 08a3 C7059002 		movl	$2, _TASK_IDLE_QUEUE+48
 1011      00000200 
 1011      0000
 303:E:/NeuOrga/Programmieren/c_cpp/github_os/input/src/os_base\os_task_queue.c ****       (&TASK_IDLE_QUEUE[0])->task_group                            =   task->task_group       ;
 1012              		.loc 1 303 0
 1013 08ad 8B4508   		movl	8(%ebp), %eax
 1014 08b0 8B4034   		movl	52(%eax), %eax
 1015 08b3 A3940200 		movl	%eax, _TASK_IDLE_QUEUE+52
 1015      00
 304:E:/NeuOrga/Programmieren/c_cpp/github_os/input/src/os_base\os_task_queue.c ****       #if(CFG_PROCESSOR == cMCU_X86)
 305:E:/NeuOrga/Programmieren/c_cpp/github_os/input/src/os_base\os_task_queue.c ****       (&TASK_IDLE_QUEUE[0])->EAX                                   =   task->EAX              ;
 1016              		.loc 1 305 0
 1017 08b8 8B4508   		movl	8(%ebp), %eax
 1018 08bb 8B4038   		movl	56(%eax), %eax
 1019 08be A3980200 		movl	%eax, _TASK_IDLE_QUEUE+56
 1019      00
 306:E:/NeuOrga/Programmieren/c_cpp/github_os/input/src/os_base\os_task_queue.c ****       (&TASK_IDLE_QUEUE[0])->EBX                                   =   task->EBX              ;
 1020              		.loc 1 306 0
 1021 08c3 8B4508   		movl	8(%ebp), %eax
 1022 08c6 8B403C   		movl	60(%eax), %eax
 1023 08c9 A39C0200 		movl	%eax, _TASK_IDLE_QUEUE+60
 1023      00
 307:E:/NeuOrga/Programmieren/c_cpp/github_os/input/src/os_base\os_task_queue.c ****       (&TASK_IDLE_QUEUE[0])->ECX                                   =   task->ECX              ;
 1024              		.loc 1 307 0
 1025 08ce 8B4508   		movl	8(%ebp), %eax
 1026 08d1 8B4040   		movl	64(%eax), %eax
 1027 08d4 A3A00200 		movl	%eax, _TASK_IDLE_QUEUE+64
 1027      00
 308:E:/NeuOrga/Programmieren/c_cpp/github_os/input/src/os_base\os_task_queue.c ****       (&TASK_IDLE_QUEUE[0])->EDX                                   =   task->EDX              ;
 1028              		.loc 1 308 0
 1029 08d9 8B4508   		movl	8(%ebp), %eax
 1030 08dc 8B4044   		movl	68(%eax), %eax
 1031 08df A3A40200 		movl	%eax, _TASK_IDLE_QUEUE+68
 1031      00
 309:E:/NeuOrga/Programmieren/c_cpp/github_os/input/src/os_base\os_task_queue.c ****       #elif(CFG_PROCESSOR == cMCU_CORTEX_M4)
 310:E:/NeuOrga/Programmieren/c_cpp/github_os/input/src/os_base\os_task_queue.c ****       (&TASK_IDLE_QUEUE[0])->r0                                   =   task->r0              ;
 311:E:/NeuOrga/Programmieren/c_cpp/github_os/input/src/os_base\os_task_queue.c ****       (&TASK_IDLE_QUEUE[0])->r1                                   =   task->r1              ;
 312:E:/NeuOrga/Programmieren/c_cpp/github_os/input/src/os_base\os_task_queue.c ****       (&TASK_IDLE_QUEUE[0])->r2                                   =   task->r2              ;
 313:E:/NeuOrga/Programmieren/c_cpp/github_os/input/src/os_base\os_task_queue.c ****       (&TASK_IDLE_QUEUE[0])->r3                                   =   task->r3              ;     
 314:E:/NeuOrga/Programmieren/c_cpp/github_os/input/src/os_base\os_task_queue.c ****       (&TASK_IDLE_QUEUE[0])->r4                                   =   task->r4              ;     
 315:E:/NeuOrga/Programmieren/c_cpp/github_os/input/src/os_base\os_task_queue.c ****       (&TASK_IDLE_QUEUE[0])->r5                                   =   task->r5              ;     
 316:E:/NeuOrga/Programmieren/c_cpp/github_os/input/src/os_base\os_task_queue.c ****       (&TASK_IDLE_QUEUE[0])->r6                                   =   task->r6              ;     
GAS LISTING C:\Users\PRESID~1\AppData\Local\Temp\ccrvaYae.s 			page 27


 317:E:/NeuOrga/Programmieren/c_cpp/github_os/input/src/os_base\os_task_queue.c ****       (&TASK_IDLE_QUEUE[0])->r7                                   =   task->r7              ;     
 318:E:/NeuOrga/Programmieren/c_cpp/github_os/input/src/os_base\os_task_queue.c ****       (&TASK_IDLE_QUEUE[0])->r8                                   =   task->r8              ;     
 319:E:/NeuOrga/Programmieren/c_cpp/github_os/input/src/os_base\os_task_queue.c ****       (&TASK_IDLE_QUEUE[0])->r9                                   =   task->r9              ;     
 320:E:/NeuOrga/Programmieren/c_cpp/github_os/input/src/os_base\os_task_queue.c ****       (&TASK_IDLE_QUEUE[0])->r10                                  =   task->r10             ;     
 321:E:/NeuOrga/Programmieren/c_cpp/github_os/input/src/os_base\os_task_queue.c ****       (&TASK_IDLE_QUEUE[0])->r11                                  =   task->r11             ;     
 322:E:/NeuOrga/Programmieren/c_cpp/github_os/input/src/os_base\os_task_queue.c ****       (&TASK_IDLE_QUEUE[0])->r12                                  =   task->r12             ;     
 323:E:/NeuOrga/Programmieren/c_cpp/github_os/input/src/os_base\os_task_queue.c ****       #else
 324:E:/NeuOrga/Programmieren/c_cpp/github_os/input/src/os_base\os_task_queue.c ****       #error "os_task_queue.c"
 325:E:/NeuOrga/Programmieren/c_cpp/github_os/input/src/os_base\os_task_queue.c ****       #endif
 326:E:/NeuOrga/Programmieren/c_cpp/github_os/input/src/os_base\os_task_queue.c ****       (&TASK_IDLE_QUEUE[0])->pStackPointer                         =   task->pStackPointer    ;
 1032              		.loc 1 326 0
 1033 08e4 8B4508   		movl	8(%ebp), %eax
 1034 08e7 8B4048   		movl	72(%eax), %eax
 1035 08ea A3A80200 		movl	%eax, _TASK_IDLE_QUEUE+72
 1035      00
 327:E:/NeuOrga/Programmieren/c_cpp/github_os/input/src/os_base\os_task_queue.c ****       (&TASK_IDLE_QUEUE[0])->pStackPointerByMalloc                 =   task->pStackPointerByMalloc;
 1036              		.loc 1 327 0
 1037 08ef 8B4508   		movl	8(%ebp), %eax
 1038 08f2 8B404C   		movl	76(%eax), %eax
 1039 08f5 A3AC0200 		movl	%eax, _TASK_IDLE_QUEUE+76
 1039      00
 328:E:/NeuOrga/Programmieren/c_cpp/github_os/input/src/os_base\os_task_queue.c ****       (&TASK_IDLE_QUEUE[0])->pStackPointerStart                    =   task->pStackPointerStart;
 1040              		.loc 1 328 0
 1041 08fa 8B4508   		movl	8(%ebp), %eax
 1042 08fd 8B4050   		movl	80(%eax), %eax
 1043 0900 A3B00200 		movl	%eax, _TASK_IDLE_QUEUE+80
 1043      00
 329:E:/NeuOrga/Programmieren/c_cpp/github_os/input/src/os_base\os_task_queue.c ****       (&TASK_IDLE_QUEUE[0])->StackSize                             =   task->StackSize        ;
 1044              		.loc 1 329 0
 1045 0905 8B4508   		movl	8(%ebp), %eax
 1046 0908 8B4054   		movl	84(%eax), %eax
 1047 090b A3B40200 		movl	%eax, _TASK_IDLE_QUEUE+84
 1047      00
 330:E:/NeuOrga/Programmieren/c_cpp/github_os/input/src/os_base\os_task_queue.c ****       (&TASK_IDLE_QUEUE[0])->pStackPointerEnd                      =   task->pStackPointerEnd ;
 1048              		.loc 1 330 0
 1049 0910 8B4508   		movl	8(%ebp), %eax
 1050 0913 8B4058   		movl	88(%eax), %eax
 1051 0916 A3B80200 		movl	%eax, _TASK_IDLE_QUEUE+88
 1051      00
 1052              	L34:
 331:E:/NeuOrga/Programmieren/c_cpp/github_os/input/src/os_base\os_task_queue.c ****    }
 332:E:/NeuOrga/Programmieren/c_cpp/github_os/input/src/os_base\os_task_queue.c **** }
 1053              		.loc 1 332 0
 1054 091b 5D       		popl	%ebp
 1055              		.cfi_restore 5
 1056              		.cfi_def_cfa 4, 4
 1057 091c C3       		ret
 1058              		.cfi_endproc
 1059              	LFE10:
 1060              		.globl	_GetRunningTask
 1062              	_GetRunningTask:
 1063              	LFB11:
 333:E:/NeuOrga/Programmieren/c_cpp/github_os/input/src/os_base\os_task_queue.c **** task_t* GetRunningTask(void)
 334:E:/NeuOrga/Programmieren/c_cpp/github_os/input/src/os_base\os_task_queue.c **** {
 1064              		.loc 1 334 0
 1065              		.cfi_startproc
 1066 091d 55       		pushl	%ebp
GAS LISTING C:\Users\PRESID~1\AppData\Local\Temp\ccrvaYae.s 			page 28


 1067              		.cfi_def_cfa_offset 8
 1068              		.cfi_offset 5, -8
 1069 091e 89E5     		movl	%esp, %ebp
 1070              		.cfi_def_cfa_register 5
 335:E:/NeuOrga/Programmieren/c_cpp/github_os/input/src/os_base\os_task_queue.c ****    return (&RUNNING_TASK[0]);
 1071              		.loc 1 335 0
 1072 0920 B8000200 		movl	$_RUNNING_TASK, %eax
 1072      00
 336:E:/NeuOrga/Programmieren/c_cpp/github_os/input/src/os_base\os_task_queue.c **** }
 1073              		.loc 1 336 0
 1074 0925 5D       		popl	%ebp
 1075              		.cfi_restore 5
 1076              		.cfi_def_cfa 4, 4
 1077 0926 C3       		ret
 1078              		.cfi_endproc
 1079              	LFE11:
 1080              		.globl	_OS_INIT_TASK
 1082              	_OS_INIT_TASK:
 1083              	LFB12:
 337:E:/NeuOrga/Programmieren/c_cpp/github_os/input/src/os_base\os_task_queue.c **** 
 338:E:/NeuOrga/Programmieren/c_cpp/github_os/input/src/os_base\os_task_queue.c **** void OS_INIT_TASK(
 339:E:/NeuOrga/Programmieren/c_cpp/github_os/input/src/os_base\os_task_queue.c ****    task_t*          task,
 340:E:/NeuOrga/Programmieren/c_cpp/github_os/input/src/os_base\os_task_queue.c ****    func_p_t         TaskFunction,
 341:E:/NeuOrga/Programmieren/c_cpp/github_os/input/src/os_base\os_task_queue.c ****    unsigned_char_t  AllowedInstances,
 342:E:/NeuOrga/Programmieren/c_cpp/github_os/input/src/os_base\os_task_queue.c ****    unsigned_char_t  IdleTask,
 343:E:/NeuOrga/Programmieren/c_cpp/github_os/input/src/os_base\os_task_queue.c ****    task_group_t*    p_task_group,
 344:E:/NeuOrga/Programmieren/c_cpp/github_os/input/src/os_base\os_task_queue.c ****    unsigned_char_t* pStackAddr,
 345:E:/NeuOrga/Programmieren/c_cpp/github_os/input/src/os_base\os_task_queue.c ****    unsigned_int32_t uStackSize,
 346:E:/NeuOrga/Programmieren/c_cpp/github_os/input/src/os_base\os_task_queue.c ****    unsigned_char_t  KernelMode
 347:E:/NeuOrga/Programmieren/c_cpp/github_os/input/src/os_base\os_task_queue.c **** )
 348:E:/NeuOrga/Programmieren/c_cpp/github_os/input/src/os_base\os_task_queue.c **** {
 1084              		.loc 1 348 0
 1085              		.cfi_startproc
 1086 0927 55       		pushl	%ebp
 1087              		.cfi_def_cfa_offset 8
 1088              		.cfi_offset 5, -8
 1089 0928 89E5     		movl	%esp, %ebp
 1090              		.cfi_def_cfa_register 5
 1091 092a 83EC28   		subl	$40, %esp
 1092 092d 8B4D10   		movl	16(%ebp), %ecx
 1093 0930 8B5514   		movl	20(%ebp), %edx
 1094 0933 8B4524   		movl	36(%ebp), %eax
 1095 0936 884DF4   		movb	%cl, -12(%ebp)
 1096 0939 8855F0   		movb	%dl, -16(%ebp)
 1097 093c 8845EC   		movb	%al, -20(%ebp)
 349:E:/NeuOrga/Programmieren/c_cpp/github_os/input/src/os_base\os_task_queue.c ****    if(task!=0)
 1098              		.loc 1 349 0
 1099 093f 837D0800 		cmpl	$0, 8(%ebp)
 1100 0943 0F840301 		je	L39
 1100      0000
 350:E:/NeuOrga/Programmieren/c_cpp/github_os/input/src/os_base\os_task_queue.c ****    {
 351:E:/NeuOrga/Programmieren/c_cpp/github_os/input/src/os_base\os_task_queue.c ****       task->active           = False;
 1101              		.loc 1 351 0
 1102 0949 8B4508   		movl	8(%ebp), %eax
 1103 094c 8A10     		movb	(%eax), %dl
 1104 094e 83E2FE   		andl	$-2, %edx
 1105 0951 8810     		movb	%dl, (%eax)
GAS LISTING C:\Users\PRESID~1\AppData\Local\Temp\ccrvaYae.s 			page 29


 352:E:/NeuOrga/Programmieren/c_cpp/github_os/input/src/os_base\os_task_queue.c ****       task->fp               = TaskFunction;
 1106              		.loc 1 352 0
 1107 0953 8B4508   		movl	8(%ebp), %eax
 1108 0956 8B550C   		movl	12(%ebp), %edx
 1109 0959 895028   		movl	%edx, 40(%eax)
 353:E:/NeuOrga/Programmieren/c_cpp/github_os/input/src/os_base\os_task_queue.c ****       task->NrOfInsAllowed   = AllowedInstances;
 1110              		.loc 1 353 0
 1111 095c 8B4508   		movl	8(%ebp), %eax
 1112 095f 8A55F4   		movb	-12(%ebp), %dl
 1113 0962 885004   		movb	%dl, 4(%eax)
 354:E:/NeuOrga/Programmieren/c_cpp/github_os/input/src/os_base\os_task_queue.c ****       task->task_group       = p_task_group;
 1114              		.loc 1 354 0
 1115 0965 8B4508   		movl	8(%ebp), %eax
 1116 0968 8B5518   		movl	24(%ebp), %edx
 1117 096b 895034   		movl	%edx, 52(%eax)
 355:E:/NeuOrga/Programmieren/c_cpp/github_os/input/src/os_base\os_task_queue.c ****       task->NrOfInsActivated = 0;
 1118              		.loc 1 355 0
 1119 096e 8B4508   		movl	8(%ebp), %eax
 1120 0971 C6400500 		movb	$0, 5(%eax)
 356:E:/NeuOrga/Programmieren/c_cpp/github_os/input/src/os_base\os_task_queue.c ****       task->WaitActUntil     = 0;
 1121              		.loc 1 356 0
 1122 0975 8B4508   		movl	8(%ebp), %eax
 1123 0978 C7400800 		movl	$0, 8(%eax)
 1123      000000
 357:E:/NeuOrga/Programmieren/c_cpp/github_os/input/src/os_base\os_task_queue.c ****       task->task_kernel_mode = KernelMode;
 1124              		.loc 1 357 0
 1125 097f 8B4508   		movl	8(%ebp), %eax
 1126 0982 8A55EC   		movb	-20(%ebp), %dl
 1127 0985 88505C   		movb	%dl, 92(%eax)
 358:E:/NeuOrga/Programmieren/c_cpp/github_os/input/src/os_base\os_task_queue.c **** 
 359:E:/NeuOrga/Programmieren/c_cpp/github_os/input/src/os_base\os_task_queue.c ****       task->overwaittime_per_prio_inc_step = 1;
 1128              		.loc 1 359 0
 1129 0988 8B4508   		movl	8(%ebp), %eax
 1130 098b C7401401 		movl	$1, 20(%eax)
 1130      000000
 360:E:/NeuOrga/Programmieren/c_cpp/github_os/input/src/os_base\os_task_queue.c ****       task->max_allowed_wait_time          = 100000;
 1131              		.loc 1 360 0
 1132 0992 8B4508   		movl	8(%ebp), %eax
 1133 0995 C74018A0 		movl	$100000, 24(%eax)
 1133      860100
 361:E:/NeuOrga/Programmieren/c_cpp/github_os/input/src/os_base\os_task_queue.c **** 
 362:E:/NeuOrga/Programmieren/c_cpp/github_os/input/src/os_base\os_task_queue.c ****       task->IdleTask      = IdleTask;
 1134              		.loc 1 362 0
 1135 099c 8A45F0   		movb	-16(%ebp), %al
 1136 099f 83E001   		andl	$1, %eax
 1137 09a2 88C2     		movb	%al, %dl
 1138 09a4 8B4508   		movl	8(%ebp), %eax
 1139 09a7 83E201   		andl	$1, %edx
 1140 09aa 8D0C9500 		leal	0(,%edx,4), %ecx
 1140      000000
 1141 09b1 8A10     		movb	(%eax), %dl
 1142 09b3 83E2FB   		andl	$-5, %edx
 1143 09b6 09CA     		orl	%ecx, %edx
 1144 09b8 8810     		movb	%dl, (%eax)
 363:E:/NeuOrga/Programmieren/c_cpp/github_os/input/src/os_base\os_task_queue.c ****       task->state_request = &task_state_request;
 1145              		.loc 1 363 0
 1146 09ba 8B4508   		movl	8(%ebp), %eax
GAS LISTING C:\Users\PRESID~1\AppData\Local\Temp\ccrvaYae.s 			page 30


 1147 09bd C7402C00 		movl	$_task_state_request, 44(%eax)
 1147      000000
 364:E:/NeuOrga/Programmieren/c_cpp/github_os/input/src/os_base\os_task_queue.c **** 
 365:E:/NeuOrga/Programmieren/c_cpp/github_os/input/src/os_base\os_task_queue.c ****       /* Idle Task needs to be running at the start .... (violation of transition rule!) */
 366:E:/NeuOrga/Programmieren/c_cpp/github_os/input/src/os_base\os_task_queue.c ****       if(IdleTask != False)
 1148              		.loc 1 366 0
 1149 09c4 807DF000 		cmpb	$0, -16(%ebp)
 1150 09c8 740C     		je	L40
 367:E:/NeuOrga/Programmieren/c_cpp/github_os/input/src/os_base\os_task_queue.c ****       {
 368:E:/NeuOrga/Programmieren/c_cpp/github_os/input/src/os_base\os_task_queue.c ****          task->task_state       = Task_running;
 1151              		.loc 1 368 0
 1152 09ca 8B4508   		movl	8(%ebp), %eax
 1153 09cd C7403003 		movl	$3, 48(%eax)
 1153      000000
 1154 09d4 EB2C     		jmp	L41
 1155              	L40:
 369:E:/NeuOrga/Programmieren/c_cpp/github_os/input/src/os_base\os_task_queue.c ****       }
 370:E:/NeuOrga/Programmieren/c_cpp/github_os/input/src/os_base\os_task_queue.c ****       else
 371:E:/NeuOrga/Programmieren/c_cpp/github_os/input/src/os_base\os_task_queue.c ****       {
 372:E:/NeuOrga/Programmieren/c_cpp/github_os/input/src/os_base\os_task_queue.c ****          task->state_request(task, Task_unspecified);
 1156              		.loc 1 372 0
 1157 09d6 8B4508   		movl	8(%ebp), %eax
 1158 09d9 8B402C   		movl	44(%eax), %eax
 1159 09dc C7442404 		movl	$0, 4(%esp)
 1159      00000000 
 1160 09e4 8B5508   		movl	8(%ebp), %edx
 1161 09e7 891424   		movl	%edx, (%esp)
 1162 09ea FFD0     		call	*%eax
 373:E:/NeuOrga/Programmieren/c_cpp/github_os/input/src/os_base\os_task_queue.c ****          task->state_request(task, Task_suspended);
 1163              		.loc 1 373 0
 1164 09ec 8B4508   		movl	8(%ebp), %eax
 1165 09ef 8B402C   		movl	44(%eax), %eax
 1166 09f2 C7442404 		movl	$1, 4(%esp)
 1166      01000000 
 1167 09fa 8B5508   		movl	8(%ebp), %edx
 1168 09fd 891424   		movl	%edx, (%esp)
 1169 0a00 FFD0     		call	*%eax
 1170              	L41:
 374:E:/NeuOrga/Programmieren/c_cpp/github_os/input/src/os_base\os_task_queue.c ****       }
 375:E:/NeuOrga/Programmieren/c_cpp/github_os/input/src/os_base\os_task_queue.c ****       if(uStackSize > TASK_STACK_SIZE)
 1171              		.loc 1 375 0
 1172 0a02 817D20C8 		cmpl	$200, 32(%ebp)
 1172      000000
 1173 0a09 7607     		jbe	L42
 376:E:/NeuOrga/Programmieren/c_cpp/github_os/input/src/os_base\os_task_queue.c ****       {
 377:E:/NeuOrga/Programmieren/c_cpp/github_os/input/src/os_base\os_task_queue.c ****          uStackSize = TASK_STACK_SIZE;
 1174              		.loc 1 377 0
 1175 0a0b C74520C8 		movl	$200, 32(%ebp)
 1175      000000
 1176              	L42:
 378:E:/NeuOrga/Programmieren/c_cpp/github_os/input/src/os_base\os_task_queue.c ****       }
 379:E:/NeuOrga/Programmieren/c_cpp/github_os/input/src/os_base\os_task_queue.c **** 
 380:E:/NeuOrga/Programmieren/c_cpp/github_os/input/src/os_base\os_task_queue.c ****       /* just create stack */
 381:E:/NeuOrga/Programmieren/c_cpp/github_os/input/src/os_base\os_task_queue.c ****       task->pStackPointerByMalloc = pStackAddr;
 1177              		.loc 1 381 0
 1178 0a12 8B4508   		movl	8(%ebp), %eax
 1179 0a15 8B551C   		movl	28(%ebp), %edx
GAS LISTING C:\Users\PRESID~1\AppData\Local\Temp\ccrvaYae.s 			page 31


 1180 0a18 89504C   		movl	%edx, 76(%eax)
 382:E:/NeuOrga/Programmieren/c_cpp/github_os/input/src/os_base\os_task_queue.c ****       task->pStackPointerStart    = pStackAddr;/*low addresse */
 1181              		.loc 1 382 0
 1182 0a1b 8B4508   		movl	8(%ebp), %eax
 1183 0a1e 8B551C   		movl	28(%ebp), %edx
 1184 0a21 895050   		movl	%edx, 80(%eax)
 383:E:/NeuOrga/Programmieren/c_cpp/github_os/input/src/os_base\os_task_queue.c ****       task->pStackPointerEnd      = (unsigned_char_t*)pStackAddr + uStackSize - 1;/* end addresse *
 1185              		.loc 1 383 0
 1186 0a24 8B4520   		movl	32(%ebp), %eax
 1187 0a27 8D50FF   		leal	-1(%eax), %edx
 1188 0a2a 8B451C   		movl	28(%ebp), %eax
 1189 0a2d 01C2     		addl	%eax, %edx
 1190 0a2f 8B4508   		movl	8(%ebp), %eax
 1191 0a32 895058   		movl	%edx, 88(%eax)
 384:E:/NeuOrga/Programmieren/c_cpp/github_os/input/src/os_base\os_task_queue.c ****       task->StackSize             = uStackSize;
 1192              		.loc 1 384 0
 1193 0a35 8B4508   		movl	8(%ebp), %eax
 1194 0a38 8B5520   		movl	32(%ebp), %edx
 1195 0a3b 895054   		movl	%edx, 84(%eax)
 385:E:/NeuOrga/Programmieren/c_cpp/github_os/input/src/os_base\os_task_queue.c ****       /* stack register */
 386:E:/NeuOrga/Programmieren/c_cpp/github_os/input/src/os_base\os_task_queue.c ****       task->pStackPointer                    = task->pStackPointerEnd;/* stack wchst von groen zu
 1196              		.loc 1 386 0
 1197 0a3e 8B4508   		movl	8(%ebp), %eax
 1198 0a41 8B5058   		movl	88(%eax), %edx
 1199 0a44 8B4508   		movl	8(%ebp), %eax
 1200 0a47 895048   		movl	%edx, 72(%eax)
 1201 0a4a EB14     		jmp	L38
 1202              	L39:
 387:E:/NeuOrga/Programmieren/c_cpp/github_os/input/src/os_base\os_task_queue.c ****    }
 388:E:/NeuOrga/Programmieren/c_cpp/github_os/input/src/os_base\os_task_queue.c ****    else
 389:E:/NeuOrga/Programmieren/c_cpp/github_os/input/src/os_base\os_task_queue.c ****    {
 390:E:/NeuOrga/Programmieren/c_cpp/github_os/input/src/os_base\os_task_queue.c ****       OS_SET_SW_BUG(os_bug_null_pointer, Func_InitTask);
 1203              		.loc 1 390 0
 1204 0a4c C7442404 		movl	$9, 4(%esp)
 1204      09000000 
 1205 0a54 C7042402 		movl	$2, (%esp)
 1205      000000
 1206 0a5b E8000000 		call	_OS_SET_SW_BUG
 1206      00
 1207              	L38:
 391:E:/NeuOrga/Programmieren/c_cpp/github_os/input/src/os_base\os_task_queue.c ****    }
 392:E:/NeuOrga/Programmieren/c_cpp/github_os/input/src/os_base\os_task_queue.c **** }
 1208              		.loc 1 392 0
 1209 0a60 C9       		leave
 1210              		.cfi_restore 5
 1211              		.cfi_def_cfa 4, 4
 1212 0a61 C3       		ret
 1213              		.cfi_endproc
 1214              	LFE12:
 1215              	Letext0:
 1216              		.file 2 "E:/NeuOrga/Programmieren/c_cpp/github_os/input/src/os_base/../os_base/os_base_types.h"
 1217              		.file 3 "E:/NeuOrga/Programmieren/c_cpp/github_os/input/src/os_base/../os_base/os_common.h"
 1218              		.file 4 "E:/NeuOrga/Programmieren/c_cpp/github_os/input/src/os_base/../os_sim/../os_base/os_task_c
 1219              		.file 5 "E:/NeuOrga/Programmieren/c_cpp/github_os/input/src/os_base/os_task_queue.h"
 1220 0a62 9090     		.section	.debug_info,"dr"
 1221              	Ldebug_info0:
 1222 0000 2C0B0000 		.long	0xb2c
GAS LISTING C:\Users\PRESID~1\AppData\Local\Temp\ccrvaYae.s 			page 32


 1223 0004 0400     		.word	0x4
 1224 0006 00000000 		.secrel32	Ldebug_abbrev0
 1225 000a 04       		.byte	0x4
 1226 000b 01       		.uleb128 0x1
 1227 000c 474E5520 		.ascii "GNU C 4.9.3 -march=i386 -g3 -O0 -std=c90\0"
 1227      4320342E 
 1227      392E3320 
 1227      2D6D6172 
 1227      63683D69 
 1228 0035 01       		.byte	0x1
 1229 0036 453A5C4E 		.ascii "E:\\NeuOrga\\Programmieren\\c_cpp\\github_os\\input\\src\\os_base\\os_task_queue.c\0"
 1229      65754F72 
 1229      67615C50 
 1229      726F6772 
 1229      616D6D69 
 1230 0081 00000000 		.long	Ltext0
 1231 0085 620A0000 		.long	Letext0-Ltext0
 1232 0089 00000000 		.secrel32	Ldebug_line0
 1233 008d 00000000 		.secrel32	Ldebug_macro0
 1234 0091 02       		.uleb128 0x2
 1235 0092 756E7369 		.ascii "unsigned_char_t\0"
 1235      676E6564 
 1235      5F636861 
 1235      725F7400 
 1236 00a2 02       		.byte	0x2
 1237 00a3 1D       		.byte	0x1d
 1238 00a4 A8000000 		.long	0xa8
 1239 00a8 03       		.uleb128 0x3
 1240 00a9 01       		.byte	0x1
 1241 00aa 08       		.byte	0x8
 1242 00ab 756E7369 		.ascii "unsigned char\0"
 1242      676E6564 
 1242      20636861 
 1242      7200
 1243 00b9 03       		.uleb128 0x3
 1244 00ba 02       		.byte	0x2
 1245 00bb 07       		.byte	0x7
 1246 00bc 73686F72 		.ascii "short unsigned int\0"
 1246      7420756E 
 1246      7369676E 
 1246      65642069 
 1246      6E7400
 1247 00cf 02       		.uleb128 0x2
 1248 00d0 756E7369 		.ascii "unsigned_int32_t\0"
 1248      676E6564 
 1248      5F696E74 
 1248      33325F74 
 1248      00
 1249 00e1 02       		.byte	0x2
 1250 00e2 22       		.byte	0x22
 1251 00e3 E7000000 		.long	0xe7
 1252 00e7 03       		.uleb128 0x3
 1253 00e8 04       		.byte	0x4
 1254 00e9 07       		.byte	0x7
 1255 00ea 6C6F6E67 		.ascii "long unsigned int\0"
 1255      20756E73 
 1255      69676E65 
GAS LISTING C:\Users\PRESID~1\AppData\Local\Temp\ccrvaYae.s 			page 33


 1255      6420696E 
 1255      7400
 1256 00fc 04       		.uleb128 0x4
 1257 00fd 6F735F73 		.ascii "os_sw_bugs_e\0"
 1257      775F6275 
 1257      67735F65 
 1257      00
 1258 010a 04       		.byte	0x4
 1259 010b 03       		.byte	0x3
 1260 010c 33       		.byte	0x33
 1261 010d FA010000 		.long	0x1fa
 1262 0111 05       		.uleb128 0x5
 1263 0112 6F735F62 		.ascii "os_bug_no_bug\0"
 1263      75675F6E 
 1263      6F5F6275 
 1263      6700
 1264 0120 00       		.sleb128 0
 1265 0121 05       		.uleb128 0x5
 1266 0122 6F735F62 		.ascii "os_bug_taskstate_request_denied\0"
 1266      75675F74 
 1266      61736B73 
 1266      74617465 
 1266      5F726571 
 1267 0142 01       		.sleb128 1
 1268 0143 05       		.uleb128 0x5
 1269 0144 6F735F62 		.ascii "os_bug_null_pointer\0"
 1269      75675F6E 
 1269      756C6C5F 
 1269      706F696E 
 1269      74657200 
 1270 0158 02       		.sleb128 2
 1271 0159 05       		.uleb128 0x5
 1272 015a 6F735F62 		.ascii "os_bug_task_max_wait_time_reached\0"
 1272      75675F74 
 1272      61736B5F 
 1272      6D61785F 
 1272      77616974 
 1273 017c 03       		.sleb128 3
 1274 017d 05       		.uleb128 0x5
 1275 017e 6F735F62 		.ascii "os_bug_Task_unspecified\0"
 1275      75675F54 
 1275      61736B5F 
 1275      756E7370 
 1275      65636966 
 1276 0196 04       		.sleb128 4
 1277 0197 05       		.uleb128 0x5
 1278 0198 6F735F62 		.ascii "os_bug_exception_UndefInstruction\0"
 1278      75675F65 
 1278      78636570 
 1278      74696F6E 
 1278      5F556E64 
 1279 01ba 05       		.sleb128 5
 1280 01bb 05       		.uleb128 0x5
 1281 01bc 6F735F62 		.ascii "os_bug_exception_AbortPrefetch\0"
 1281      75675F65 
 1281      78636570 
 1281      74696F6E 
GAS LISTING C:\Users\PRESID~1\AppData\Local\Temp\ccrvaYae.s 			page 34


 1281      5F41626F 
 1282 01db 06       		.sleb128 6
 1283 01dc 05       		.uleb128 0x5
 1284 01dd 6F735F62 		.ascii "os_bug_exception_AbortData\0"
 1284      75675F65 
 1284      78636570 
 1284      74696F6E 
 1284      5F41626F 
 1285 01f8 07       		.sleb128 7
 1286 01f9 00       		.byte	0
 1287 01fa 04       		.uleb128 0x4
 1288 01fb 6F735F73 		.ascii "os_sw_bugs_function_e\0"
 1288      775F6275 
 1288      67735F66 
 1288      756E6374 
 1288      696F6E5F 
 1289 0211 04       		.byte	0x4
 1290 0212 03       		.byte	0x3
 1291 0213 3F       		.byte	0x3f
 1292 0214 3C030000 		.long	0x33c
 1293 0218 05       		.uleb128 0x5
 1294 0219 46756E63 		.ascii "Func_NoFunction\0"
 1294      5F4E6F46 
 1294      756E6374 
 1294      696F6E00 
 1295 0229 00       		.sleb128 0
 1296 022a 05       		.uleb128 0x5
 1297 022b 46756E63 		.ascii "Func_SaveTaskEnvironment\0"
 1297      5F536176 
 1297      65546173 
 1297      6B456E76 
 1297      69726F6E 
 1298 0244 01       		.sleb128 1
 1299 0245 05       		.uleb128 0x5
 1300 0246 46756E63 		.ascii "Func_RestoreTaskEnvironment\0"
 1300      5F526573 
 1300      746F7265 
 1300      5461736B 
 1300      456E7669 
 1301 0262 02       		.sleb128 2
 1302 0263 05       		.uleb128 0x5
 1303 0264 46756E63 		.ascii "Func_CreateTaskEnvironment\0"
 1303      5F437265 
 1303      61746554 
 1303      61736B45 
 1303      6E766972 
 1304 027f 03       		.sleb128 3
 1305 0280 05       		.uleb128 0x5
 1306 0281 46756E63 		.ascii "Func_DeleteTaskEnvironment\0"
 1306      5F44656C 
 1306      65746554 
 1306      61736B45 
 1306      6E766972 
 1307 029c 04       		.sleb128 4
 1308 029d 05       		.uleb128 0x5
 1309 029e 46756E63 		.ascii "Func_StartTask\0"
 1309      5F537461 
GAS LISTING C:\Users\PRESID~1\AppData\Local\Temp\ccrvaYae.s 			page 35


 1309      72745461 
 1309      736B00
 1310 02ad 05       		.sleb128 5
 1311 02ae 05       		.uleb128 0x5
 1312 02af 46756E63 		.ascii "Func_PreemptTask\0"
 1312      5F507265 
 1312      656D7074 
 1312      5461736B 
 1312      00
 1313 02c0 06       		.sleb128 6
 1314 02c1 05       		.uleb128 0x5
 1315 02c2 46756E63 		.ascii "Func_TerminateTask\0"
 1315      5F546572 
 1315      6D696E61 
 1315      74655461 
 1315      736B00
 1316 02d5 07       		.sleb128 7
 1317 02d6 05       		.uleb128 0x5
 1318 02d7 46756E63 		.ascii "Func_TaskScheduler\0"
 1318      5F546173 
 1318      6B536368 
 1318      6564756C 
 1318      657200
 1319 02ea 08       		.sleb128 8
 1320 02eb 05       		.uleb128 0x5
 1321 02ec 46756E63 		.ascii "Func_InitTask\0"
 1321      5F496E69 
 1321      74546173 
 1321      6B00
 1322 02fa 09       		.sleb128 9
 1323 02fb 05       		.uleb128 0x5
 1324 02fc 46756E63 		.ascii "Func_ActivateTask\0"
 1324      5F416374 
 1324      69766174 
 1324      65546173 
 1324      6B00
 1325 030e 0A       		.sleb128 10
 1326 030f 05       		.uleb128 0x5
 1327 0310 46756E63 		.ascii "Func_TaskStateRequest\0"
 1327      5F546173 
 1327      6B537461 
 1327      74655265 
 1327      71756573 
 1328 0326 0B       		.sleb128 11
 1329 0327 05       		.uleb128 0x5
 1330 0328 46756E63 		.ascii "Func_os_exception\0"
 1330      5F6F735F 
 1330      65786365 
 1330      7074696F 
 1330      6E00
 1331 033a 0C       		.sleb128 12
 1332 033b 00       		.byte	0
 1333 033c 04       		.uleb128 0x4
 1334 033d 7461736B 		.ascii "task_state_e\0"
 1334      5F737461 
 1334      74655F65 
 1334      00
GAS LISTING C:\Users\PRESID~1\AppData\Local\Temp\ccrvaYae.s 			page 36


 1335 034a 04       		.byte	0x4
 1336 034b 04       		.byte	0x4
 1337 034c 07       		.byte	0x7
 1338 034d 92030000 		.long	0x392
 1339 0351 05       		.uleb128 0x5
 1340 0352 5461736B 		.ascii "Task_unspecified\0"
 1340      5F756E73 
 1340      70656369 
 1340      66696564 
 1340      00
 1341 0363 00       		.sleb128 0
 1342 0364 05       		.uleb128 0x5
 1343 0365 5461736B 		.ascii "Task_suspended\0"
 1343      5F737573 
 1343      70656E64 
 1343      656400
 1344 0374 01       		.sleb128 1
 1345 0375 05       		.uleb128 0x5
 1346 0376 5461736B 		.ascii "Task_ready\0"
 1346      5F726561 
 1346      647900
 1347 0381 02       		.sleb128 2
 1348 0382 05       		.uleb128 0x5
 1349 0383 5461736B 		.ascii "Task_running\0"
 1349      5F72756E 
 1349      6E696E67 
 1349      00
 1350 0390 03       		.sleb128 3
 1351 0391 00       		.byte	0
 1352 0392 02       		.uleb128 0x2
 1353 0393 7461736B 		.ascii "task_state_t\0"
 1353      5F737461 
 1353      74655F74 
 1353      00
 1354 03a0 04       		.byte	0x4
 1355 03a1 0E       		.byte	0xe
 1356 03a2 3C030000 		.long	0x33c
 1357 03a6 02       		.uleb128 0x2
 1358 03a7 66756E63 		.ascii "func_p_t\0"
 1358      5F705F74 
 1358      00
 1359 03b0 04       		.byte	0x4
 1360 03b1 13       		.byte	0x13
 1361 03b2 B6030000 		.long	0x3b6
 1362 03b6 06       		.uleb128 0x6
 1363 03b7 04       		.byte	0x4
 1364 03b8 BC030000 		.long	0x3bc
 1365 03bc 07       		.uleb128 0x7
 1366 03bd C7030000 		.long	0x3c7
 1367 03c1 08       		.uleb128 0x8
 1368 03c2 C7030000 		.long	0x3c7
 1369 03c6 00       		.byte	0
 1370 03c7 09       		.uleb128 0x9
 1371 03c8 04       		.byte	0x4
 1372 03c9 02       		.uleb128 0x2
 1373 03ca 66756E63 		.ascii "func_p_state_change_t\0"
 1373      5F705F73 
GAS LISTING C:\Users\PRESID~1\AppData\Local\Temp\ccrvaYae.s 			page 37


 1373      74617465 
 1373      5F636861 
 1373      6E67655F 
 1374 03e0 04       		.byte	0x4
 1375 03e1 15       		.byte	0x15
 1376 03e2 E6030000 		.long	0x3e6
 1377 03e6 06       		.uleb128 0x6
 1378 03e7 04       		.byte	0x4
 1379 03e8 EC030000 		.long	0x3ec
 1380 03ec 0A       		.uleb128 0xa
 1381 03ed 91000000 		.long	0x91
 1382 03f1 00040000 		.long	0x400
 1383 03f5 08       		.uleb128 0x8
 1384 03f6 C7030000 		.long	0x3c7
 1385 03fa 08       		.uleb128 0x8
 1386 03fb 92030000 		.long	0x392
 1387 03ff 00       		.byte	0
 1388 0400 0B       		.uleb128 0xb
 1389 0401 7461736B 		.ascii "task_group_s\0"
 1389      5F67726F 
 1389      75705F73 
 1389      00
 1390 040e 08       		.byte	0x8
 1391 040f 04       		.byte	0x4
 1392 0410 16       		.byte	0x16
 1393 0411 38040000 		.long	0x438
 1394 0415 0C       		.uleb128 0xc
 1395 0416 0B000000 		.secrel32	LASF0
 1396 041a 04       		.byte	0x4
 1397 041b 18       		.byte	0x18
 1398 041c CF000000 		.long	0xcf
 1399 0420 00       		.byte	0
 1400 0421 0D       		.uleb128 0xd
 1401 0422 66616972 		.ascii "fair_exe_time\0"
 1401      5F657865 
 1401      5F74696D 
 1401      6500
 1402 0430 04       		.byte	0x4
 1403 0431 19       		.byte	0x19
 1404 0432 CF000000 		.long	0xcf
 1405 0436 04       		.byte	0x4
 1406 0437 00       		.byte	0
 1407 0438 02       		.uleb128 0x2
 1408 0439 7461736B 		.ascii "task_group_t\0"
 1408      5F67726F 
 1408      75705F74 
 1408      00
 1409 0446 04       		.byte	0x4
 1410 0447 1B       		.byte	0x1b
 1411 0448 00040000 		.long	0x400
 1412 044c 0B       		.uleb128 0xb
 1413 044d 7461736B 		.ascii "task_s\0"
 1413      5F7300
 1414 0454 60       		.byte	0x60
 1415 0455 04       		.byte	0x4
 1416 0456 1D       		.byte	0x1d
 1417 0457 AA060000 		.long	0x6aa
GAS LISTING C:\Users\PRESID~1\AppData\Local\Temp\ccrvaYae.s 			page 38


 1418 045b 0E       		.uleb128 0xe
 1419 045c 61637469 		.ascii "active\0"
 1419      766500
 1420 0463 04       		.byte	0x4
 1421 0464 1F       		.byte	0x1f
 1422 0465 AA060000 		.long	0x6aa
 1423 0469 04       		.byte	0x4
 1424 046a 01       		.byte	0x1
 1425 046b 1F       		.byte	0x1f
 1426 046c 00       		.byte	0
 1427 046d 0E       		.uleb128 0xe
 1428 046e 7461736B 		.ascii "task_queued\0"
 1428      5F717565 
 1428      75656400 
 1429 047a 04       		.byte	0x4
 1430 047b 20       		.byte	0x20
 1431 047c AA060000 		.long	0x6aa
 1432 0480 04       		.byte	0x4
 1433 0481 01       		.byte	0x1
 1434 0482 1E       		.byte	0x1e
 1435 0483 00       		.byte	0
 1436 0484 0F       		.uleb128 0xf
 1437 0485 14000000 		.secrel32	LASF1
 1438 0489 04       		.byte	0x4
 1439 048a 21       		.byte	0x21
 1440 048b AA060000 		.long	0x6aa
 1441 048f 04       		.byte	0x4
 1442 0490 01       		.byte	0x1
 1443 0491 1D       		.byte	0x1d
 1444 0492 00       		.byte	0
 1445 0493 0E       		.uleb128 0xe
 1446 0494 46524545 		.ascii "FREE\0"
 1446      00
 1447 0499 04       		.byte	0x4
 1448 049a 22       		.byte	0x22
 1449 049b AA060000 		.long	0x6aa
 1450 049f 04       		.byte	0x4
 1451 04a0 1D       		.byte	0x1d
 1452 04a1 00       		.byte	0
 1453 04a2 00       		.byte	0
 1454 04a3 0D       		.uleb128 0xd
 1455 04a4 4E724F66 		.ascii "NrOfInsAllowed\0"
 1455      496E7341 
 1455      6C6C6F77 
 1455      656400
 1456 04b3 04       		.byte	0x4
 1457 04b4 23       		.byte	0x23
 1458 04b5 91000000 		.long	0x91
 1459 04b9 04       		.byte	0x4
 1460 04ba 0D       		.uleb128 0xd
 1461 04bb 4E724F66 		.ascii "NrOfInsActivated\0"
 1461      496E7341 
 1461      63746976 
 1461      61746564 
 1461      00
 1462 04cc 04       		.byte	0x4
 1463 04cd 24       		.byte	0x24
GAS LISTING C:\Users\PRESID~1\AppData\Local\Temp\ccrvaYae.s 			page 39


 1464 04ce 91000000 		.long	0x91
 1465 04d2 05       		.byte	0x5
 1466 04d3 0D       		.uleb128 0xd
 1467 04d4 57616974 		.ascii "WaitActUntil\0"
 1467      41637455 
 1467      6E74696C 
 1467      00
 1468 04e1 04       		.byte	0x4
 1469 04e2 25       		.byte	0x25
 1470 04e3 CF000000 		.long	0xcf
 1471 04e7 08       		.byte	0x8
 1472 04e8 0D       		.uleb128 0xd
 1473 04e9 77616974 		.ascii "wait_time\0"
 1473      5F74696D 
 1473      6500
 1474 04f3 04       		.byte	0x4
 1475 04f4 26       		.byte	0x26
 1476 04f5 CF000000 		.long	0xcf
 1477 04f9 0C       		.byte	0xc
 1478 04fa 0D       		.uleb128 0xd
 1479 04fb 54696D65 		.ascii "TimeToPrioInc\0"
 1479      546F5072 
 1479      696F496E 
 1479      6300
 1480 0509 04       		.byte	0x4
 1481 050a 27       		.byte	0x27
 1482 050b CF000000 		.long	0xcf
 1483 050f 10       		.byte	0x10
 1484 0510 0D       		.uleb128 0xd
 1485 0511 6F766572 		.ascii "overwaittime_per_prio_inc_step\0"
 1485      77616974 
 1485      74696D65 
 1485      5F706572 
 1485      5F707269 
 1486 0530 04       		.byte	0x4
 1487 0531 28       		.byte	0x28
 1488 0532 CF000000 		.long	0xcf
 1489 0536 14       		.byte	0x14
 1490 0537 0D       		.uleb128 0xd
 1491 0538 6D61785F 		.ascii "max_allowed_wait_time\0"
 1491      616C6C6F 
 1491      7765645F 
 1491      77616974 
 1491      5F74696D 
 1492 054e 04       		.byte	0x4
 1493 054f 29       		.byte	0x29
 1494 0550 CF000000 		.long	0xcf
 1495 0554 18       		.byte	0x18
 1496 0555 0C       		.uleb128 0xc
 1497 0556 0B000000 		.secrel32	LASF0
 1498 055a 04       		.byte	0x4
 1499 055b 2A       		.byte	0x2a
 1500 055c CF000000 		.long	0xcf
 1501 0560 1C       		.byte	0x1c
 1502 0561 0D       		.uleb128 0xd
 1503 0562 63757272 		.ascii "current_prio\0"
 1503      656E745F 
GAS LISTING C:\Users\PRESID~1\AppData\Local\Temp\ccrvaYae.s 			page 40


 1503      7072696F 
 1503      00
 1504 056f 04       		.byte	0x4
 1505 0570 2B       		.byte	0x2b
 1506 0571 91000000 		.long	0x91
 1507 0575 20       		.byte	0x20
 1508 0576 0D       		.uleb128 0xd
 1509 0577 64656661 		.ascii "default_prio\0"
 1509      756C745F 
 1509      7072696F 
 1509      00
 1510 0584 04       		.byte	0x4
 1511 0585 2C       		.byte	0x2c
 1512 0586 91000000 		.long	0x91
 1513 058a 21       		.byte	0x21
 1514 058b 0D       		.uleb128 0xd
 1515 058c 7461736B 		.ascii "task_number\0"
 1515      5F6E756D 
 1515      62657200 
 1516 0598 04       		.byte	0x4
 1517 0599 2D       		.byte	0x2d
 1518 059a CF000000 		.long	0xcf
 1519 059e 24       		.byte	0x24
 1520 059f 0D       		.uleb128 0xd
 1521 05a0 667000   		.ascii "fp\0"
 1522 05a3 04       		.byte	0x4
 1523 05a4 2E       		.byte	0x2e
 1524 05a5 A6030000 		.long	0x3a6
 1525 05a9 28       		.byte	0x28
 1526 05aa 0D       		.uleb128 0xd
 1527 05ab 73746174 		.ascii "state_request\0"
 1527      655F7265 
 1527      71756573 
 1527      7400
 1528 05b9 04       		.byte	0x4
 1529 05ba 2F       		.byte	0x2f
 1530 05bb C9030000 		.long	0x3c9
 1531 05bf 2C       		.byte	0x2c
 1532 05c0 0D       		.uleb128 0xd
 1533 05c1 7461736B 		.ascii "task_state\0"
 1533      5F737461 
 1533      746500
 1534 05cc 04       		.byte	0x4
 1535 05cd 30       		.byte	0x30
 1536 05ce 92030000 		.long	0x392
 1537 05d2 30       		.byte	0x30
 1538 05d3 0D       		.uleb128 0xd
 1539 05d4 7461736B 		.ascii "task_group\0"
 1539      5F67726F 
 1539      757000
 1540 05df 04       		.byte	0x4
 1541 05e0 31       		.byte	0x31
 1542 05e1 BA060000 		.long	0x6ba
 1543 05e5 34       		.byte	0x34
 1544 05e6 0D       		.uleb128 0xd
 1545 05e7 45415800 		.ascii "EAX\0"
 1546 05eb 04       		.byte	0x4
GAS LISTING C:\Users\PRESID~1\AppData\Local\Temp\ccrvaYae.s 			page 41


 1547 05ec 33       		.byte	0x33
 1548 05ed CF000000 		.long	0xcf
 1549 05f1 38       		.byte	0x38
 1550 05f2 0D       		.uleb128 0xd
 1551 05f3 45425800 		.ascii "EBX\0"
 1552 05f7 04       		.byte	0x4
 1553 05f8 34       		.byte	0x34
 1554 05f9 CF000000 		.long	0xcf
 1555 05fd 3C       		.byte	0x3c
 1556 05fe 0D       		.uleb128 0xd
 1557 05ff 45435800 		.ascii "ECX\0"
 1558 0603 04       		.byte	0x4
 1559 0604 35       		.byte	0x35
 1560 0605 CF000000 		.long	0xcf
 1561 0609 40       		.byte	0x40
 1562 060a 0D       		.uleb128 0xd
 1563 060b 45445800 		.ascii "EDX\0"
 1564 060f 04       		.byte	0x4
 1565 0610 36       		.byte	0x36
 1566 0611 CF000000 		.long	0xcf
 1567 0615 44       		.byte	0x44
 1568 0616 0D       		.uleb128 0xd
 1569 0617 70537461 		.ascii "pStackPointer\0"
 1569      636B506F 
 1569      696E7465 
 1569      7200
 1570 0625 04       		.byte	0x4
 1571 0626 46       		.byte	0x46
 1572 0627 C0060000 		.long	0x6c0
 1573 062b 48       		.byte	0x48
 1574 062c 0D       		.uleb128 0xd
 1575 062d 70537461 		.ascii "pStackPointerByMalloc\0"
 1575      636B506F 
 1575      696E7465 
 1575      7242794D 
 1575      616C6C6F 
 1576 0643 04       		.byte	0x4
 1577 0644 47       		.byte	0x47
 1578 0645 C0060000 		.long	0x6c0
 1579 0649 4C       		.byte	0x4c
 1580 064a 0D       		.uleb128 0xd
 1581 064b 70537461 		.ascii "pStackPointerStart\0"
 1581      636B506F 
 1581      696E7465 
 1581      72537461 
 1581      727400
 1582 065e 04       		.byte	0x4
 1583 065f 48       		.byte	0x48
 1584 0660 C0060000 		.long	0x6c0
 1585 0664 50       		.byte	0x50
 1586 0665 0D       		.uleb128 0xd
 1587 0666 53746163 		.ascii "StackSize\0"
 1587      6B53697A 
 1587      6500
 1588 0670 04       		.byte	0x4
 1589 0671 49       		.byte	0x49
 1590 0672 CF000000 		.long	0xcf
GAS LISTING C:\Users\PRESID~1\AppData\Local\Temp\ccrvaYae.s 			page 42


 1591 0676 54       		.byte	0x54
 1592 0677 0D       		.uleb128 0xd
 1593 0678 70537461 		.ascii "pStackPointerEnd\0"
 1593      636B506F 
 1593      696E7465 
 1593      72456E64 
 1593      00
 1594 0689 04       		.byte	0x4
 1595 068a 4A       		.byte	0x4a
 1596 068b C0060000 		.long	0x6c0
 1597 068f 58       		.byte	0x58
 1598 0690 0D       		.uleb128 0xd
 1599 0691 7461736B 		.ascii "task_kernel_mode\0"
 1599      5F6B6572 
 1599      6E656C5F 
 1599      6D6F6465 
 1599      00
 1600 06a2 04       		.byte	0x4
 1601 06a3 4B       		.byte	0x4b
 1602 06a4 91000000 		.long	0x91
 1603 06a8 5C       		.byte	0x5c
 1604 06a9 00       		.byte	0
 1605 06aa 03       		.uleb128 0x3
 1606 06ab 04       		.byte	0x4
 1607 06ac 07       		.byte	0x7
 1608 06ad 756E7369 		.ascii "unsigned int\0"
 1608      676E6564 
 1608      20696E74 
 1608      00
 1609 06ba 06       		.uleb128 0x6
 1610 06bb 04       		.byte	0x4
 1611 06bc 38040000 		.long	0x438
 1612 06c0 06       		.uleb128 0x6
 1613 06c1 04       		.byte	0x4
 1614 06c2 91000000 		.long	0x91
 1615 06c6 02       		.uleb128 0x2
 1616 06c7 7461736B 		.ascii "task_t\0"
 1616      5F7400
 1617 06ce 04       		.byte	0x4
 1618 06cf 4D       		.byte	0x4d
 1619 06d0 4C040000 		.long	0x44c
 1620 06d4 02       		.uleb128 0x2
 1621 06d5 6C696E6B 		.ascii "link_list_t\0"
 1621      5F6C6973 
 1621      745F7400 
 1622 06e1 05       		.byte	0x5
 1623 06e2 0B       		.byte	0xb
 1624 06e3 C7030000 		.long	0x3c7
 1625 06e7 10       		.uleb128 0x10
 1626 06e8 5345545F 		.ascii "SET_RUNNING_TASK\0"
 1626      52554E4E 
 1626      494E475F 
 1626      5441534B 
 1626      00
 1627 06f9 01       		.byte	0x1
 1628 06fa 25       		.byte	0x25
 1629 06fb 00000000 		.long	LFB0
GAS LISTING C:\Users\PRESID~1\AppData\Local\Temp\ccrvaYae.s 			page 43


 1630 06ff 89010000 		.long	LFE0-LFB0
 1631 0703 01       		.uleb128 0x1
 1632 0704 9C       		.byte	0x9c
 1633 0705 18070000 		.long	0x718
 1634 0709 11       		.uleb128 0x11
 1635 070a 1D000000 		.secrel32	LASF2
 1636 070e 01       		.byte	0x1
 1637 070f 25       		.byte	0x25
 1638 0710 18070000 		.long	0x718
 1639 0714 02       		.uleb128 0x2
 1640 0715 91       		.byte	0x91
 1641 0716 00       		.sleb128 0
 1642 0717 00       		.byte	0
 1643 0718 06       		.uleb128 0x6
 1644 0719 04       		.byte	0x4
 1645 071a C6060000 		.long	0x6c6
 1646 071e 12       		.uleb128 0x12
 1647 071f 4F535F49 		.ascii "OS_INIT_TASK_QUEUE\0"
 1647      4E49545F 
 1647      5441534B 
 1647      5F515545 
 1647      554500
 1648 0732 01       		.byte	0x1
 1649 0733 59       		.byte	0x59
 1650 0734 89010000 		.long	LFB1
 1651 0738 54000000 		.long	LFE1-LFB1
 1652 073c 01       		.uleb128 0x1
 1653 073d 9C       		.byte	0x9c
 1654 073e 5B070000 		.long	0x75b
 1655 0742 13       		.uleb128 0x13
 1656 0743 98010000 		.long	LBB2
 1657 0747 43000000 		.long	LBE2-LBB2
 1658 074b 14       		.uleb128 0x14
 1659 074c 00000000 		.secrel32	LASF3
 1660 0750 01       		.byte	0x1
 1661 0751 5D       		.byte	0x5d
 1662 0752 91000000 		.long	0x91
 1663 0756 02       		.uleb128 0x2
 1664 0757 91       		.byte	0x91
 1665 0758 6F       		.sleb128 -17
 1666 0759 00       		.byte	0
 1667 075a 00       		.byte	0
 1668 075b 15       		.uleb128 0x15
 1669 075c 41646454 		.ascii "AddToTaskQueue\0"
 1669      6F546173 
 1669      6B517565 
 1669      756500
 1670 076b 01       		.byte	0x1
 1671 076c 69       		.byte	0x69
 1672 076d C7030000 		.long	0x3c7
 1673 0771 DD010000 		.long	LFB2
 1674 0775 78030000 		.long	LFE2-LFB2
 1675 0779 01       		.uleb128 0x1
 1676 077a 9C       		.byte	0x9c
 1677 077b 9C070000 		.long	0x79c
 1678 077f 11       		.uleb128 0x11
 1679 0780 1D000000 		.secrel32	LASF2
GAS LISTING C:\Users\PRESID~1\AppData\Local\Temp\ccrvaYae.s 			page 44


 1680 0784 01       		.byte	0x1
 1681 0785 69       		.byte	0x69
 1682 0786 18070000 		.long	0x718
 1683 078a 02       		.uleb128 0x2
 1684 078b 91       		.byte	0x91
 1685 078c 00       		.sleb128 0
 1686 078d 14       		.uleb128 0x14
 1687 078e 00000000 		.secrel32	LASF3
 1688 0792 01       		.byte	0x1
 1689 0793 6B       		.byte	0x6b
 1690 0794 91000000 		.long	0x91
 1691 0798 02       		.uleb128 0x2
 1692 0799 91       		.byte	0x91
 1693 079a 77       		.sleb128 -9
 1694 079b 00       		.byte	0
 1695 079c 10       		.uleb128 0x10
 1696 079d 44656C65 		.ascii "DeleteFromTaskQueue\0"
 1696      74654672 
 1696      6F6D5461 
 1696      736B5175 
 1696      65756500 
 1697 07b1 01       		.byte	0x1
 1698 07b2 A3       		.byte	0xa3
 1699 07b3 55050000 		.long	LFB3
 1700 07b7 07010000 		.long	LFE3-LFB3
 1701 07bb 01       		.uleb128 0x1
 1702 07bc 9C       		.byte	0x9c
 1703 07bd D0070000 		.long	0x7d0
 1704 07c1 11       		.uleb128 0x11
 1705 07c2 1D000000 		.secrel32	LASF2
 1706 07c6 01       		.byte	0x1
 1707 07c7 A3       		.byte	0xa3
 1708 07c8 18070000 		.long	0x718
 1709 07cc 02       		.uleb128 0x2
 1710 07cd 91       		.byte	0x91
 1711 07ce 00       		.sleb128 0
 1712 07cf 00       		.byte	0
 1713 07d0 15       		.uleb128 0x15
 1714 07d1 47657446 		.ascii "GetFromTaskQueue\0"
 1714      726F6D54 
 1714      61736B51 
 1714      75657565 
 1714      00
 1715 07e2 01       		.byte	0x1
 1716 07e3 D3       		.byte	0xd3
 1717 07e4 18070000 		.long	0x718
 1718 07e8 5C060000 		.long	LFB4
 1719 07ec 08000000 		.long	LFE4-LFB4
 1720 07f0 01       		.uleb128 0x1
 1721 07f1 9C       		.byte	0x9c
 1722 07f2 06080000 		.long	0x806
 1723 07f6 16       		.uleb128 0x16
 1724 07f7 6C696E6B 		.ascii "link\0"
 1724      00
 1725 07fc 01       		.byte	0x1
 1726 07fd D3       		.byte	0xd3
 1727 07fe 06080000 		.long	0x806
GAS LISTING C:\Users\PRESID~1\AppData\Local\Temp\ccrvaYae.s 			page 45


 1728 0802 02       		.uleb128 0x2
 1729 0803 91       		.byte	0x91
 1730 0804 00       		.sleb128 0
 1731 0805 00       		.byte	0
 1732 0806 06       		.uleb128 0x6
 1733 0807 04       		.byte	0x4
 1734 0808 D4060000 		.long	0x6d4
 1735 080c 15       		.uleb128 0x15
 1736 080d 47657446 		.ascii "GetFromLinkList\0"
 1736      726F6D4C 
 1736      696E6B4C 
 1736      69737400 
 1737 081d 01       		.byte	0x1
 1738 081e D7       		.byte	0xd7
 1739 081f 06080000 		.long	0x806
 1740 0823 64060000 		.long	LFB5
 1741 0827 19000000 		.long	LFE5-LFB5
 1742 082b 01       		.uleb128 0x1
 1743 082c 9C       		.byte	0x9c
 1744 082d 40080000 		.long	0x840
 1745 0831 11       		.uleb128 0x11
 1746 0832 00000000 		.secrel32	LASF3
 1747 0836 01       		.byte	0x1
 1748 0837 D7       		.byte	0xd7
 1749 0838 91000000 		.long	0x91
 1750 083c 02       		.uleb128 0x2
 1751 083d 91       		.byte	0x91
 1752 083e 74       		.sleb128 -12
 1753 083f 00       		.byte	0
 1754 0840 10       		.uleb128 0x10
 1755 0841 44656C65 		.ascii "DeleteFromLinkList\0"
 1755      74654672 
 1755      6F6D4C69 
 1755      6E6B4C69 
 1755      737400
 1756 0854 01       		.byte	0x1
 1757 0855 DC       		.byte	0xdc
 1758 0856 7D060000 		.long	LFB6
 1759 085a 1D000000 		.long	LFE6-LFB6
 1760 085e 01       		.uleb128 0x1
 1761 085f 9C       		.byte	0x9c
 1762 0860 73080000 		.long	0x873
 1763 0864 11       		.uleb128 0x11
 1764 0865 00000000 		.secrel32	LASF3
 1765 0869 01       		.byte	0x1
 1766 086a DC       		.byte	0xdc
 1767 086b 91000000 		.long	0x91
 1768 086f 02       		.uleb128 0x2
 1769 0870 91       		.byte	0x91
 1770 0871 74       		.sleb128 -12
 1771 0872 00       		.byte	0
 1772 0873 15       		.uleb128 0x15
 1773 0874 41646454 		.ascii "AddToLinkList\0"
 1773      6F4C696E 
 1773      6B4C6973 
 1773      7400
 1774 0882 01       		.byte	0x1
GAS LISTING C:\Users\PRESID~1\AppData\Local\Temp\ccrvaYae.s 			page 46


 1775 0883 E0       		.byte	0xe0
 1776 0884 C7030000 		.long	0x3c7
 1777 0888 9A060000 		.long	LFB7
 1778 088c 5F000000 		.long	LFE7-LFB7
 1779 0890 01       		.uleb128 0x1
 1780 0891 9C       		.byte	0x9c
 1781 0892 E0080000 		.long	0x8e0
 1782 0896 11       		.uleb128 0x11
 1783 0897 1D000000 		.secrel32	LASF2
 1784 089b 01       		.byte	0x1
 1785 089c E0       		.byte	0xe0
 1786 089d 18070000 		.long	0x718
 1787 08a1 02       		.uleb128 0x2
 1788 08a2 91       		.byte	0x91
 1789 08a3 00       		.sleb128 0
 1790 08a4 17       		.uleb128 0x17
 1791 08a5 4164645F 		.ascii "Add_successful\0"
 1791      73756363 
 1791      65737366 
 1791      756C00
 1792 08b4 01       		.byte	0x1
 1793 08b5 E9       		.byte	0xe9
 1794 08b6 91000000 		.long	0x91
 1795 08ba 02       		.uleb128 0x2
 1796 08bb 91       		.byte	0x91
 1797 08bc 77       		.sleb128 -9
 1798 08bd 17       		.uleb128 0x17
 1799 08be 696E6465 		.ascii "index\0"
 1799      7800
 1800 08c4 01       		.byte	0x1
 1801 08c5 EA       		.byte	0xea
 1802 08c6 91000000 		.long	0x91
 1803 08ca 02       		.uleb128 0x2
 1804 08cb 91       		.byte	0x91
 1805 08cc 76       		.sleb128 -10
 1806 08cd 17       		.uleb128 0x17
 1807 08ce 7265745F 		.ascii "ret_val\0"
 1807      76616C00 
 1808 08d6 01       		.byte	0x1
 1809 08d7 EB       		.byte	0xeb
 1810 08d8 C7030000 		.long	0x3c7
 1811 08dc 02       		.uleb128 0x2
 1812 08dd 91       		.byte	0x91
 1813 08de 70       		.sleb128 -16
 1814 08df 00       		.byte	0
 1815 08e0 10       		.uleb128 0x10
 1816 08e1 55706461 		.ascii "UpdateLinkList\0"
 1816      74654C69 
 1816      6E6B4C69 
 1816      737400
 1817 08f0 01       		.byte	0x1
 1818 08f1 FA       		.byte	0xfa
 1819 08f2 F9060000 		.long	LFB8
 1820 08f6 8C000000 		.long	LFE8-LFB8
 1821 08fa 01       		.uleb128 0x1
 1822 08fb 9C       		.byte	0x9c
 1823 08fc 1E090000 		.long	0x91e
GAS LISTING C:\Users\PRESID~1\AppData\Local\Temp\ccrvaYae.s 			page 47


 1824 0900 17       		.uleb128 0x17
 1825 0901 64657374 		.ascii "dest\0"
 1825      00
 1826 0906 01       		.byte	0x1
 1827 0907 FD       		.byte	0xfd
 1828 0908 91000000 		.long	0x91
 1829 090c 02       		.uleb128 0x2
 1830 090d 91       		.byte	0x91
 1831 090e 77       		.sleb128 -9
 1832 090f 17       		.uleb128 0x17
 1833 0910 73726300 		.ascii "src\0"
 1834 0914 01       		.byte	0x1
 1835 0915 FD       		.byte	0xfd
 1836 0916 91000000 		.long	0x91
 1837 091a 02       		.uleb128 0x2
 1838 091b 91       		.byte	0x91
 1839 091c 76       		.sleb128 -10
 1840 091d 00       		.byte	0
 1841 091e 18       		.uleb128 0x18
 1842 091f 47657449 		.ascii "GetIdleTask\0"
 1842      646C6554 
 1842      61736B00 
 1843 092b 01       		.byte	0x1
 1844 092c 1501     		.word	0x115
 1845 092e 18070000 		.long	0x718
 1846 0932 85070000 		.long	LFB9
 1847 0936 0A000000 		.long	LFE9-LFB9
 1848 093a 01       		.uleb128 0x1
 1849 093b 9C       		.byte	0x9c
 1850 093c 19       		.uleb128 0x19
 1851 093d 41646454 		.ascii "AddToIdleTaskQueue\0"
 1851      6F49646C 
 1851      65546173 
 1851      6B517565 
 1851      756500
 1852 0950 01       		.byte	0x1
 1853 0951 1901     		.word	0x119
 1854 0953 8F070000 		.long	LFB10
 1855 0957 8E010000 		.long	LFE10-LFB10
 1856 095b 01       		.uleb128 0x1
 1857 095c 9C       		.byte	0x9c
 1858 095d 71090000 		.long	0x971
 1859 0961 1A       		.uleb128 0x1a
 1860 0962 1D000000 		.secrel32	LASF2
 1861 0966 01       		.byte	0x1
 1862 0967 1901     		.word	0x119
 1863 0969 18070000 		.long	0x718
 1864 096d 02       		.uleb128 0x2
 1865 096e 91       		.byte	0x91
 1866 096f 00       		.sleb128 0
 1867 0970 00       		.byte	0
 1868 0971 18       		.uleb128 0x18
 1869 0972 47657452 		.ascii "GetRunningTask\0"
 1869      756E6E69 
 1869      6E675461 
 1869      736B00
 1870 0981 01       		.byte	0x1
GAS LISTING C:\Users\PRESID~1\AppData\Local\Temp\ccrvaYae.s 			page 48


 1871 0982 4D01     		.word	0x14d
 1872 0984 18070000 		.long	0x718
 1873 0988 1D090000 		.long	LFB11
 1874 098c 0A000000 		.long	LFE11-LFB11
 1875 0990 01       		.uleb128 0x1
 1876 0991 9C       		.byte	0x9c
 1877 0992 1B       		.uleb128 0x1b
 1878 0993 4F535F49 		.ascii "OS_INIT_TASK\0"
 1878      4E49545F 
 1878      5441534B 
 1878      00
 1879 09a0 01       		.byte	0x1
 1880 09a1 5201     		.word	0x152
 1881 09a3 27090000 		.long	LFB12
 1882 09a7 3B010000 		.long	LFE12-LFB12
 1883 09ab 01       		.uleb128 0x1
 1884 09ac 9C       		.byte	0x9c
 1885 09ad 5E0A0000 		.long	0xa5e
 1886 09b1 1A       		.uleb128 0x1a
 1887 09b2 1D000000 		.secrel32	LASF2
 1888 09b6 01       		.byte	0x1
 1889 09b7 5301     		.word	0x153
 1890 09b9 18070000 		.long	0x718
 1891 09bd 02       		.uleb128 0x2
 1892 09be 91       		.byte	0x91
 1893 09bf 00       		.sleb128 0
 1894 09c0 1C       		.uleb128 0x1c
 1895 09c1 5461736B 		.ascii "TaskFunction\0"
 1895      46756E63 
 1895      74696F6E 
 1895      00
 1896 09ce 01       		.byte	0x1
 1897 09cf 5401     		.word	0x154
 1898 09d1 A6030000 		.long	0x3a6
 1899 09d5 02       		.uleb128 0x2
 1900 09d6 91       		.byte	0x91
 1901 09d7 04       		.sleb128 4
 1902 09d8 1C       		.uleb128 0x1c
 1903 09d9 416C6C6F 		.ascii "AllowedInstances\0"
 1903      77656449 
 1903      6E737461 
 1903      6E636573 
 1903      00
 1904 09ea 01       		.byte	0x1
 1905 09eb 5501     		.word	0x155
 1906 09ed 91000000 		.long	0x91
 1907 09f1 02       		.uleb128 0x2
 1908 09f2 91       		.byte	0x91
 1909 09f3 6C       		.sleb128 -20
 1910 09f4 1A       		.uleb128 0x1a
 1911 09f5 14000000 		.secrel32	LASF1
 1912 09f9 01       		.byte	0x1
 1913 09fa 5601     		.word	0x156
 1914 09fc 91000000 		.long	0x91
 1915 0a00 02       		.uleb128 0x2
 1916 0a01 91       		.byte	0x91
 1917 0a02 68       		.sleb128 -24
GAS LISTING C:\Users\PRESID~1\AppData\Local\Temp\ccrvaYae.s 			page 49


 1918 0a03 1C       		.uleb128 0x1c
 1919 0a04 705F7461 		.ascii "p_task_group\0"
 1919      736B5F67 
 1919      726F7570 
 1919      00
 1920 0a11 01       		.byte	0x1
 1921 0a12 5701     		.word	0x157
 1922 0a14 BA060000 		.long	0x6ba
 1923 0a18 02       		.uleb128 0x2
 1924 0a19 91       		.byte	0x91
 1925 0a1a 10       		.sleb128 16
 1926 0a1b 1C       		.uleb128 0x1c
 1927 0a1c 70537461 		.ascii "pStackAddr\0"
 1927      636B4164 
 1927      647200
 1928 0a27 01       		.byte	0x1
 1929 0a28 5801     		.word	0x158
 1930 0a2a C0060000 		.long	0x6c0
 1931 0a2e 02       		.uleb128 0x2
 1932 0a2f 91       		.byte	0x91
 1933 0a30 14       		.sleb128 20
 1934 0a31 1C       		.uleb128 0x1c
 1935 0a32 75537461 		.ascii "uStackSize\0"
 1935      636B5369 
 1935      7A6500
 1936 0a3d 01       		.byte	0x1
 1937 0a3e 5901     		.word	0x159
 1938 0a40 CF000000 		.long	0xcf
 1939 0a44 02       		.uleb128 0x2
 1940 0a45 91       		.byte	0x91
 1941 0a46 18       		.sleb128 24
 1942 0a47 1C       		.uleb128 0x1c
 1943 0a48 4B65726E 		.ascii "KernelMode\0"
 1943      656C4D6F 
 1943      646500
 1944 0a53 01       		.byte	0x1
 1945 0a54 5A01     		.word	0x15a
 1946 0a56 91000000 		.long	0x91
 1947 0a5a 02       		.uleb128 0x2
 1948 0a5b 91       		.byte	0x91
 1949 0a5c 64       		.sleb128 -28
 1950 0a5d 00       		.byte	0
 1951 0a5e 1D       		.uleb128 0x1d
 1952 0a5f 18070000 		.long	0x718
 1953 0a63 6E0A0000 		.long	0xa6e
 1954 0a67 1E       		.uleb128 0x1e
 1955 0a68 6E0A0000 		.long	0xa6e
 1956 0a6c 04       		.byte	0x4
 1957 0a6d 00       		.byte	0
 1958 0a6e 03       		.uleb128 0x3
 1959 0a6f 04       		.byte	0x4
 1960 0a70 07       		.byte	0x7
 1961 0a71 73697A65 		.ascii "sizetype\0"
 1961      74797065 
 1961      00
 1962 0a7a 17       		.uleb128 0x17
 1963 0a7b 70544153 		.ascii "pTASK_RUN_QUEUE\0"
GAS LISTING C:\Users\PRESID~1\AppData\Local\Temp\ccrvaYae.s 			page 50


 1963      4B5F5255 
 1963      4E5F5155 
 1963      45554500 
 1964 0a8b 01       		.byte	0x1
 1965 0a8c 06       		.byte	0x6
 1966 0a8d 5E0A0000 		.long	0xa5e
 1967 0a91 05       		.uleb128 0x5
 1968 0a92 03       		.byte	0x3
 1969 0a93 00000000 		.long	_pTASK_RUN_QUEUE
 1970 0a97 1D       		.uleb128 0x1d
 1971 0a98 C6060000 		.long	0x6c6
 1972 0a9c A70A0000 		.long	0xaa7
 1973 0aa0 1E       		.uleb128 0x1e
 1974 0aa1 6E0A0000 		.long	0xa6e
 1975 0aa5 04       		.byte	0x4
 1976 0aa6 00       		.byte	0
 1977 0aa7 17       		.uleb128 0x17
 1978 0aa8 5441534B 		.ascii "TASK_RUN_QUEUE\0"
 1978      5F52554E 
 1978      5F515545 
 1978      554500
 1979 0ab7 01       		.byte	0x1
 1980 0ab8 07       		.byte	0x7
 1981 0ab9 970A0000 		.long	0xa97
 1982 0abd 05       		.uleb128 0x5
 1983 0abe 03       		.byte	0x3
 1984 0abf 20000000 		.long	_TASK_RUN_QUEUE
 1985 0ac3 1D       		.uleb128 0x1d
 1986 0ac4 C6060000 		.long	0x6c6
 1987 0ac8 D30A0000 		.long	0xad3
 1988 0acc 1E       		.uleb128 0x1e
 1989 0acd 6E0A0000 		.long	0xa6e
 1990 0ad1 00       		.byte	0
 1991 0ad2 00       		.byte	0
 1992 0ad3 17       		.uleb128 0x17
 1993 0ad4 52554E4E 		.ascii "RUNNING_TASK\0"
 1993      494E475F 
 1993      5441534B 
 1993      00
 1994 0ae1 01       		.byte	0x1
 1995 0ae2 08       		.byte	0x8
 1996 0ae3 C30A0000 		.long	0xac3
 1997 0ae7 05       		.uleb128 0x5
 1998 0ae8 03       		.byte	0x3
 1999 0ae9 00020000 		.long	_RUNNING_TASK
 2000 0aed 17       		.uleb128 0x17
 2001 0aee 5441534B 		.ascii "TASK_IDLE_QUEUE\0"
 2001      5F49444C 
 2001      455F5155 
 2001      45554500 
 2002 0afe 01       		.byte	0x1
 2003 0aff 09       		.byte	0x9
 2004 0b00 C30A0000 		.long	0xac3
 2005 0b04 05       		.uleb128 0x5
 2006 0b05 03       		.byte	0x3
 2007 0b06 60020000 		.long	_TASK_IDLE_QUEUE
 2008 0b0a 17       		.uleb128 0x17
GAS LISTING C:\Users\PRESID~1\AppData\Local\Temp\ccrvaYae.s 			page 51


 2009 0b0b 62544153 		.ascii "bTASK_QUEUE_INITIALIZED\0"
 2009      4B5F5155 
 2009      4555455F 
 2009      494E4954 
 2009      49414C49 
 2010 0b23 01       		.byte	0x1
 2011 0b24 0A       		.byte	0xa
 2012 0b25 91000000 		.long	0x91
 2013 0b29 05       		.uleb128 0x5
 2014 0b2a 03       		.byte	0x3
 2015 0b2b C0020000 		.long	_bTASK_QUEUE_INITIALIZED
 2016 0b2f 00       		.byte	0
 2017              		.section	.debug_abbrev,"dr"
 2018              	Ldebug_abbrev0:
 2019 0000 01       		.uleb128 0x1
 2020 0001 11       		.uleb128 0x11
 2021 0002 01       		.byte	0x1
 2022 0003 25       		.uleb128 0x25
 2023 0004 08       		.uleb128 0x8
 2024 0005 13       		.uleb128 0x13
 2025 0006 0B       		.uleb128 0xb
 2026 0007 03       		.uleb128 0x3
 2027 0008 08       		.uleb128 0x8
 2028 0009 11       		.uleb128 0x11
 2029 000a 01       		.uleb128 0x1
 2030 000b 12       		.uleb128 0x12
 2031 000c 06       		.uleb128 0x6
 2032 000d 10       		.uleb128 0x10
 2033 000e 17       		.uleb128 0x17
 2034 000f 9942     		.uleb128 0x2119
 2035 0011 17       		.uleb128 0x17
 2036 0012 00       		.byte	0
 2037 0013 00       		.byte	0
 2038 0014 02       		.uleb128 0x2
 2039 0015 16       		.uleb128 0x16
 2040 0016 00       		.byte	0
 2041 0017 03       		.uleb128 0x3
 2042 0018 08       		.uleb128 0x8
 2043 0019 3A       		.uleb128 0x3a
 2044 001a 0B       		.uleb128 0xb
 2045 001b 3B       		.uleb128 0x3b
 2046 001c 0B       		.uleb128 0xb
 2047 001d 49       		.uleb128 0x49
 2048 001e 13       		.uleb128 0x13
 2049 001f 00       		.byte	0
 2050 0020 00       		.byte	0
 2051 0021 03       		.uleb128 0x3
 2052 0022 24       		.uleb128 0x24
 2053 0023 00       		.byte	0
 2054 0024 0B       		.uleb128 0xb
 2055 0025 0B       		.uleb128 0xb
 2056 0026 3E       		.uleb128 0x3e
 2057 0027 0B       		.uleb128 0xb
 2058 0028 03       		.uleb128 0x3
 2059 0029 08       		.uleb128 0x8
 2060 002a 00       		.byte	0
 2061 002b 00       		.byte	0
GAS LISTING C:\Users\PRESID~1\AppData\Local\Temp\ccrvaYae.s 			page 52


 2062 002c 04       		.uleb128 0x4
 2063 002d 04       		.uleb128 0x4
 2064 002e 01       		.byte	0x1
 2065 002f 03       		.uleb128 0x3
 2066 0030 08       		.uleb128 0x8
 2067 0031 0B       		.uleb128 0xb
 2068 0032 0B       		.uleb128 0xb
 2069 0033 3A       		.uleb128 0x3a
 2070 0034 0B       		.uleb128 0xb
 2071 0035 3B       		.uleb128 0x3b
 2072 0036 0B       		.uleb128 0xb
 2073 0037 01       		.uleb128 0x1
 2074 0038 13       		.uleb128 0x13
 2075 0039 00       		.byte	0
 2076 003a 00       		.byte	0
 2077 003b 05       		.uleb128 0x5
 2078 003c 28       		.uleb128 0x28
 2079 003d 00       		.byte	0
 2080 003e 03       		.uleb128 0x3
 2081 003f 08       		.uleb128 0x8
 2082 0040 1C       		.uleb128 0x1c
 2083 0041 0D       		.uleb128 0xd
 2084 0042 00       		.byte	0
 2085 0043 00       		.byte	0
 2086 0044 06       		.uleb128 0x6
 2087 0045 0F       		.uleb128 0xf
 2088 0046 00       		.byte	0
 2089 0047 0B       		.uleb128 0xb
 2090 0048 0B       		.uleb128 0xb
 2091 0049 49       		.uleb128 0x49
 2092 004a 13       		.uleb128 0x13
 2093 004b 00       		.byte	0
 2094 004c 00       		.byte	0
 2095 004d 07       		.uleb128 0x7
 2096 004e 15       		.uleb128 0x15
 2097 004f 01       		.byte	0x1
 2098 0050 27       		.uleb128 0x27
 2099 0051 19       		.uleb128 0x19
 2100 0052 01       		.uleb128 0x1
 2101 0053 13       		.uleb128 0x13
 2102 0054 00       		.byte	0
 2103 0055 00       		.byte	0
 2104 0056 08       		.uleb128 0x8
 2105 0057 05       		.uleb128 0x5
 2106 0058 00       		.byte	0
 2107 0059 49       		.uleb128 0x49
 2108 005a 13       		.uleb128 0x13
 2109 005b 00       		.byte	0
 2110 005c 00       		.byte	0
 2111 005d 09       		.uleb128 0x9
 2112 005e 0F       		.uleb128 0xf
 2113 005f 00       		.byte	0
 2114 0060 0B       		.uleb128 0xb
 2115 0061 0B       		.uleb128 0xb
 2116 0062 00       		.byte	0
 2117 0063 00       		.byte	0
 2118 0064 0A       		.uleb128 0xa
GAS LISTING C:\Users\PRESID~1\AppData\Local\Temp\ccrvaYae.s 			page 53


 2119 0065 15       		.uleb128 0x15
 2120 0066 01       		.byte	0x1
 2121 0067 27       		.uleb128 0x27
 2122 0068 19       		.uleb128 0x19
 2123 0069 49       		.uleb128 0x49
 2124 006a 13       		.uleb128 0x13
 2125 006b 01       		.uleb128 0x1
 2126 006c 13       		.uleb128 0x13
 2127 006d 00       		.byte	0
 2128 006e 00       		.byte	0
 2129 006f 0B       		.uleb128 0xb
 2130 0070 13       		.uleb128 0x13
 2131 0071 01       		.byte	0x1
 2132 0072 03       		.uleb128 0x3
 2133 0073 08       		.uleb128 0x8
 2134 0074 0B       		.uleb128 0xb
 2135 0075 0B       		.uleb128 0xb
 2136 0076 3A       		.uleb128 0x3a
 2137 0077 0B       		.uleb128 0xb
 2138 0078 3B       		.uleb128 0x3b
 2139 0079 0B       		.uleb128 0xb
 2140 007a 01       		.uleb128 0x1
 2141 007b 13       		.uleb128 0x13
 2142 007c 00       		.byte	0
 2143 007d 00       		.byte	0
 2144 007e 0C       		.uleb128 0xc
 2145 007f 0D       		.uleb128 0xd
 2146 0080 00       		.byte	0
 2147 0081 03       		.uleb128 0x3
 2148 0082 0E       		.uleb128 0xe
 2149 0083 3A       		.uleb128 0x3a
 2150 0084 0B       		.uleb128 0xb
 2151 0085 3B       		.uleb128 0x3b
 2152 0086 0B       		.uleb128 0xb
 2153 0087 49       		.uleb128 0x49
 2154 0088 13       		.uleb128 0x13
 2155 0089 38       		.uleb128 0x38
 2156 008a 0B       		.uleb128 0xb
 2157 008b 00       		.byte	0
 2158 008c 00       		.byte	0
 2159 008d 0D       		.uleb128 0xd
 2160 008e 0D       		.uleb128 0xd
 2161 008f 00       		.byte	0
 2162 0090 03       		.uleb128 0x3
 2163 0091 08       		.uleb128 0x8
 2164 0092 3A       		.uleb128 0x3a
 2165 0093 0B       		.uleb128 0xb
 2166 0094 3B       		.uleb128 0x3b
 2167 0095 0B       		.uleb128 0xb
 2168 0096 49       		.uleb128 0x49
 2169 0097 13       		.uleb128 0x13
 2170 0098 38       		.uleb128 0x38
 2171 0099 0B       		.uleb128 0xb
 2172 009a 00       		.byte	0
 2173 009b 00       		.byte	0
 2174 009c 0E       		.uleb128 0xe
 2175 009d 0D       		.uleb128 0xd
GAS LISTING C:\Users\PRESID~1\AppData\Local\Temp\ccrvaYae.s 			page 54


 2176 009e 00       		.byte	0
 2177 009f 03       		.uleb128 0x3
 2178 00a0 08       		.uleb128 0x8
 2179 00a1 3A       		.uleb128 0x3a
 2180 00a2 0B       		.uleb128 0xb
 2181 00a3 3B       		.uleb128 0x3b
 2182 00a4 0B       		.uleb128 0xb
 2183 00a5 49       		.uleb128 0x49
 2184 00a6 13       		.uleb128 0x13
 2185 00a7 0B       		.uleb128 0xb
 2186 00a8 0B       		.uleb128 0xb
 2187 00a9 0D       		.uleb128 0xd
 2188 00aa 0B       		.uleb128 0xb
 2189 00ab 0C       		.uleb128 0xc
 2190 00ac 0B       		.uleb128 0xb
 2191 00ad 38       		.uleb128 0x38
 2192 00ae 0B       		.uleb128 0xb
 2193 00af 00       		.byte	0
 2194 00b0 00       		.byte	0
 2195 00b1 0F       		.uleb128 0xf
 2196 00b2 0D       		.uleb128 0xd
 2197 00b3 00       		.byte	0
 2198 00b4 03       		.uleb128 0x3
 2199 00b5 0E       		.uleb128 0xe
 2200 00b6 3A       		.uleb128 0x3a
 2201 00b7 0B       		.uleb128 0xb
 2202 00b8 3B       		.uleb128 0x3b
 2203 00b9 0B       		.uleb128 0xb
 2204 00ba 49       		.uleb128 0x49
 2205 00bb 13       		.uleb128 0x13
 2206 00bc 0B       		.uleb128 0xb
 2207 00bd 0B       		.uleb128 0xb
 2208 00be 0D       		.uleb128 0xd
 2209 00bf 0B       		.uleb128 0xb
 2210 00c0 0C       		.uleb128 0xc
 2211 00c1 0B       		.uleb128 0xb
 2212 00c2 38       		.uleb128 0x38
 2213 00c3 0B       		.uleb128 0xb
 2214 00c4 00       		.byte	0
 2215 00c5 00       		.byte	0
 2216 00c6 10       		.uleb128 0x10
 2217 00c7 2E       		.uleb128 0x2e
 2218 00c8 01       		.byte	0x1
 2219 00c9 3F       		.uleb128 0x3f
 2220 00ca 19       		.uleb128 0x19
 2221 00cb 03       		.uleb128 0x3
 2222 00cc 08       		.uleb128 0x8
 2223 00cd 3A       		.uleb128 0x3a
 2224 00ce 0B       		.uleb128 0xb
 2225 00cf 3B       		.uleb128 0x3b
 2226 00d0 0B       		.uleb128 0xb
 2227 00d1 27       		.uleb128 0x27
 2228 00d2 19       		.uleb128 0x19
 2229 00d3 11       		.uleb128 0x11
 2230 00d4 01       		.uleb128 0x1
 2231 00d5 12       		.uleb128 0x12
 2232 00d6 06       		.uleb128 0x6
GAS LISTING C:\Users\PRESID~1\AppData\Local\Temp\ccrvaYae.s 			page 55


 2233 00d7 40       		.uleb128 0x40
 2234 00d8 18       		.uleb128 0x18
 2235 00d9 9742     		.uleb128 0x2117
 2236 00db 19       		.uleb128 0x19
 2237 00dc 01       		.uleb128 0x1
 2238 00dd 13       		.uleb128 0x13
 2239 00de 00       		.byte	0
 2240 00df 00       		.byte	0
 2241 00e0 11       		.uleb128 0x11
 2242 00e1 05       		.uleb128 0x5
 2243 00e2 00       		.byte	0
 2244 00e3 03       		.uleb128 0x3
 2245 00e4 0E       		.uleb128 0xe
 2246 00e5 3A       		.uleb128 0x3a
 2247 00e6 0B       		.uleb128 0xb
 2248 00e7 3B       		.uleb128 0x3b
 2249 00e8 0B       		.uleb128 0xb
 2250 00e9 49       		.uleb128 0x49
 2251 00ea 13       		.uleb128 0x13
 2252 00eb 02       		.uleb128 0x2
 2253 00ec 18       		.uleb128 0x18
 2254 00ed 00       		.byte	0
 2255 00ee 00       		.byte	0
 2256 00ef 12       		.uleb128 0x12
 2257 00f0 2E       		.uleb128 0x2e
 2258 00f1 01       		.byte	0x1
 2259 00f2 3F       		.uleb128 0x3f
 2260 00f3 19       		.uleb128 0x19
 2261 00f4 03       		.uleb128 0x3
 2262 00f5 08       		.uleb128 0x8
 2263 00f6 3A       		.uleb128 0x3a
 2264 00f7 0B       		.uleb128 0xb
 2265 00f8 3B       		.uleb128 0x3b
 2266 00f9 0B       		.uleb128 0xb
 2267 00fa 27       		.uleb128 0x27
 2268 00fb 19       		.uleb128 0x19
 2269 00fc 11       		.uleb128 0x11
 2270 00fd 01       		.uleb128 0x1
 2271 00fe 12       		.uleb128 0x12
 2272 00ff 06       		.uleb128 0x6
 2273 0100 40       		.uleb128 0x40
 2274 0101 18       		.uleb128 0x18
 2275 0102 9642     		.uleb128 0x2116
 2276 0104 19       		.uleb128 0x19
 2277 0105 01       		.uleb128 0x1
 2278 0106 13       		.uleb128 0x13
 2279 0107 00       		.byte	0
 2280 0108 00       		.byte	0
 2281 0109 13       		.uleb128 0x13
 2282 010a 0B       		.uleb128 0xb
 2283 010b 01       		.byte	0x1
 2284 010c 11       		.uleb128 0x11
 2285 010d 01       		.uleb128 0x1
 2286 010e 12       		.uleb128 0x12
 2287 010f 06       		.uleb128 0x6
 2288 0110 00       		.byte	0
 2289 0111 00       		.byte	0
GAS LISTING C:\Users\PRESID~1\AppData\Local\Temp\ccrvaYae.s 			page 56


 2290 0112 14       		.uleb128 0x14
 2291 0113 34       		.uleb128 0x34
 2292 0114 00       		.byte	0
 2293 0115 03       		.uleb128 0x3
 2294 0116 0E       		.uleb128 0xe
 2295 0117 3A       		.uleb128 0x3a
 2296 0118 0B       		.uleb128 0xb
 2297 0119 3B       		.uleb128 0x3b
 2298 011a 0B       		.uleb128 0xb
 2299 011b 49       		.uleb128 0x49
 2300 011c 13       		.uleb128 0x13
 2301 011d 02       		.uleb128 0x2
 2302 011e 18       		.uleb128 0x18
 2303 011f 00       		.byte	0
 2304 0120 00       		.byte	0
 2305 0121 15       		.uleb128 0x15
 2306 0122 2E       		.uleb128 0x2e
 2307 0123 01       		.byte	0x1
 2308 0124 3F       		.uleb128 0x3f
 2309 0125 19       		.uleb128 0x19
 2310 0126 03       		.uleb128 0x3
 2311 0127 08       		.uleb128 0x8
 2312 0128 3A       		.uleb128 0x3a
 2313 0129 0B       		.uleb128 0xb
 2314 012a 3B       		.uleb128 0x3b
 2315 012b 0B       		.uleb128 0xb
 2316 012c 27       		.uleb128 0x27
 2317 012d 19       		.uleb128 0x19
 2318 012e 49       		.uleb128 0x49
 2319 012f 13       		.uleb128 0x13
 2320 0130 11       		.uleb128 0x11
 2321 0131 01       		.uleb128 0x1
 2322 0132 12       		.uleb128 0x12
 2323 0133 06       		.uleb128 0x6
 2324 0134 40       		.uleb128 0x40
 2325 0135 18       		.uleb128 0x18
 2326 0136 9742     		.uleb128 0x2117
 2327 0138 19       		.uleb128 0x19
 2328 0139 01       		.uleb128 0x1
 2329 013a 13       		.uleb128 0x13
 2330 013b 00       		.byte	0
 2331 013c 00       		.byte	0
 2332 013d 16       		.uleb128 0x16
 2333 013e 05       		.uleb128 0x5
 2334 013f 00       		.byte	0
 2335 0140 03       		.uleb128 0x3
 2336 0141 08       		.uleb128 0x8
 2337 0142 3A       		.uleb128 0x3a
 2338 0143 0B       		.uleb128 0xb
 2339 0144 3B       		.uleb128 0x3b
 2340 0145 0B       		.uleb128 0xb
 2341 0146 49       		.uleb128 0x49
 2342 0147 13       		.uleb128 0x13
 2343 0148 02       		.uleb128 0x2
 2344 0149 18       		.uleb128 0x18
 2345 014a 00       		.byte	0
 2346 014b 00       		.byte	0
GAS LISTING C:\Users\PRESID~1\AppData\Local\Temp\ccrvaYae.s 			page 57


 2347 014c 17       		.uleb128 0x17
 2348 014d 34       		.uleb128 0x34
 2349 014e 00       		.byte	0
 2350 014f 03       		.uleb128 0x3
 2351 0150 08       		.uleb128 0x8
 2352 0151 3A       		.uleb128 0x3a
 2353 0152 0B       		.uleb128 0xb
 2354 0153 3B       		.uleb128 0x3b
 2355 0154 0B       		.uleb128 0xb
 2356 0155 49       		.uleb128 0x49
 2357 0156 13       		.uleb128 0x13
 2358 0157 02       		.uleb128 0x2
 2359 0158 18       		.uleb128 0x18
 2360 0159 00       		.byte	0
 2361 015a 00       		.byte	0
 2362 015b 18       		.uleb128 0x18
 2363 015c 2E       		.uleb128 0x2e
 2364 015d 00       		.byte	0
 2365 015e 3F       		.uleb128 0x3f
 2366 015f 19       		.uleb128 0x19
 2367 0160 03       		.uleb128 0x3
 2368 0161 08       		.uleb128 0x8
 2369 0162 3A       		.uleb128 0x3a
 2370 0163 0B       		.uleb128 0xb
 2371 0164 3B       		.uleb128 0x3b
 2372 0165 05       		.uleb128 0x5
 2373 0166 27       		.uleb128 0x27
 2374 0167 19       		.uleb128 0x19
 2375 0168 49       		.uleb128 0x49
 2376 0169 13       		.uleb128 0x13
 2377 016a 11       		.uleb128 0x11
 2378 016b 01       		.uleb128 0x1
 2379 016c 12       		.uleb128 0x12
 2380 016d 06       		.uleb128 0x6
 2381 016e 40       		.uleb128 0x40
 2382 016f 18       		.uleb128 0x18
 2383 0170 9742     		.uleb128 0x2117
 2384 0172 19       		.uleb128 0x19
 2385 0173 00       		.byte	0
 2386 0174 00       		.byte	0
 2387 0175 19       		.uleb128 0x19
 2388 0176 2E       		.uleb128 0x2e
 2389 0177 01       		.byte	0x1
 2390 0178 3F       		.uleb128 0x3f
 2391 0179 19       		.uleb128 0x19
 2392 017a 03       		.uleb128 0x3
 2393 017b 08       		.uleb128 0x8
 2394 017c 3A       		.uleb128 0x3a
 2395 017d 0B       		.uleb128 0xb
 2396 017e 3B       		.uleb128 0x3b
 2397 017f 05       		.uleb128 0x5
 2398 0180 27       		.uleb128 0x27
 2399 0181 19       		.uleb128 0x19
 2400 0182 11       		.uleb128 0x11
 2401 0183 01       		.uleb128 0x1
 2402 0184 12       		.uleb128 0x12
 2403 0185 06       		.uleb128 0x6
GAS LISTING C:\Users\PRESID~1\AppData\Local\Temp\ccrvaYae.s 			page 58


 2404 0186 40       		.uleb128 0x40
 2405 0187 18       		.uleb128 0x18
 2406 0188 9742     		.uleb128 0x2117
 2407 018a 19       		.uleb128 0x19
 2408 018b 01       		.uleb128 0x1
 2409 018c 13       		.uleb128 0x13
 2410 018d 00       		.byte	0
 2411 018e 00       		.byte	0
 2412 018f 1A       		.uleb128 0x1a
 2413 0190 05       		.uleb128 0x5
 2414 0191 00       		.byte	0
 2415 0192 03       		.uleb128 0x3
 2416 0193 0E       		.uleb128 0xe
 2417 0194 3A       		.uleb128 0x3a
 2418 0195 0B       		.uleb128 0xb
 2419 0196 3B       		.uleb128 0x3b
 2420 0197 05       		.uleb128 0x5
 2421 0198 49       		.uleb128 0x49
 2422 0199 13       		.uleb128 0x13
 2423 019a 02       		.uleb128 0x2
 2424 019b 18       		.uleb128 0x18
 2425 019c 00       		.byte	0
 2426 019d 00       		.byte	0
 2427 019e 1B       		.uleb128 0x1b
 2428 019f 2E       		.uleb128 0x2e
 2429 01a0 01       		.byte	0x1
 2430 01a1 3F       		.uleb128 0x3f
 2431 01a2 19       		.uleb128 0x19
 2432 01a3 03       		.uleb128 0x3
 2433 01a4 08       		.uleb128 0x8
 2434 01a5 3A       		.uleb128 0x3a
 2435 01a6 0B       		.uleb128 0xb
 2436 01a7 3B       		.uleb128 0x3b
 2437 01a8 05       		.uleb128 0x5
 2438 01a9 27       		.uleb128 0x27
 2439 01aa 19       		.uleb128 0x19
 2440 01ab 11       		.uleb128 0x11
 2441 01ac 01       		.uleb128 0x1
 2442 01ad 12       		.uleb128 0x12
 2443 01ae 06       		.uleb128 0x6
 2444 01af 40       		.uleb128 0x40
 2445 01b0 18       		.uleb128 0x18
 2446 01b1 9642     		.uleb128 0x2116
 2447 01b3 19       		.uleb128 0x19
 2448 01b4 01       		.uleb128 0x1
 2449 01b5 13       		.uleb128 0x13
 2450 01b6 00       		.byte	0
 2451 01b7 00       		.byte	0
 2452 01b8 1C       		.uleb128 0x1c
 2453 01b9 05       		.uleb128 0x5
 2454 01ba 00       		.byte	0
 2455 01bb 03       		.uleb128 0x3
 2456 01bc 08       		.uleb128 0x8
 2457 01bd 3A       		.uleb128 0x3a
 2458 01be 0B       		.uleb128 0xb
 2459 01bf 3B       		.uleb128 0x3b
 2460 01c0 05       		.uleb128 0x5
GAS LISTING C:\Users\PRESID~1\AppData\Local\Temp\ccrvaYae.s 			page 59


 2461 01c1 49       		.uleb128 0x49
 2462 01c2 13       		.uleb128 0x13
 2463 01c3 02       		.uleb128 0x2
 2464 01c4 18       		.uleb128 0x18
 2465 01c5 00       		.byte	0
 2466 01c6 00       		.byte	0
 2467 01c7 1D       		.uleb128 0x1d
 2468 01c8 01       		.uleb128 0x1
 2469 01c9 01       		.byte	0x1
 2470 01ca 49       		.uleb128 0x49
 2471 01cb 13       		.uleb128 0x13
 2472 01cc 01       		.uleb128 0x1
 2473 01cd 13       		.uleb128 0x13
 2474 01ce 00       		.byte	0
 2475 01cf 00       		.byte	0
 2476 01d0 1E       		.uleb128 0x1e
 2477 01d1 21       		.uleb128 0x21
 2478 01d2 00       		.byte	0
 2479 01d3 49       		.uleb128 0x49
 2480 01d4 13       		.uleb128 0x13
 2481 01d5 2F       		.uleb128 0x2f
 2482 01d6 0B       		.uleb128 0xb
 2483 01d7 00       		.byte	0
 2484 01d8 00       		.byte	0
 2485 01d9 00       		.byte	0
 2486              		.section	.debug_aranges,"dr"
 2487 0000 1C000000 		.long	0x1c
 2488 0004 0200     		.word	0x2
 2489 0006 00000000 		.secrel32	Ldebug_info0
 2490 000a 04       		.byte	0x4
 2491 000b 00       		.byte	0
 2492 000c 0000     		.word	0
 2493 000e 0000     		.word	0
 2494 0010 00000000 		.long	Ltext0
 2495 0014 620A0000 		.long	Letext0-Ltext0
 2496 0018 00000000 		.long	0
 2497 001c 00000000 		.long	0
 2498              		.section	.debug_macro,"dr"
 2499              	Ldebug_macro0:
 2500 0000 0400     		.word	0x4
 2501 0002 02       		.byte	0x2
 2502 0003 00000000 		.secrel32	Ldebug_line0
 2503 0007 01       		.byte	0x1
 2504 0008 00       		.uleb128 0
 2505 0009 5F5F5354 		.ascii "__STDC__ 1\0"
 2505      44435F5F 
 2505      203100
 2506 0014 01       		.byte	0x1
 2507 0015 00       		.uleb128 0
 2508 0016 5F5F5354 		.ascii "__STDC_HOSTED__ 1\0"
 2508      44435F48 
 2508      4F535445 
 2508      445F5F20 
 2508      3100
 2509 0028 01       		.byte	0x1
 2510 0029 00       		.uleb128 0
 2511 002a 5F5F474E 		.ascii "__GNUC__ 4\0"
GAS LISTING C:\Users\PRESID~1\AppData\Local\Temp\ccrvaYae.s 			page 60


 2511      55435F5F 
 2511      203400
 2512 0035 01       		.byte	0x1
 2513 0036 00       		.uleb128 0
 2514 0037 5F5F474E 		.ascii "__GNUC_MINOR__ 9\0"
 2514      55435F4D 
 2514      494E4F52 
 2514      5F5F2039 
 2514      00
 2515 0048 01       		.byte	0x1
 2516 0049 00       		.uleb128 0
 2517 004a 5F5F474E 		.ascii "__GNUC_PATCHLEVEL__ 3\0"
 2517      55435F50 
 2517      41544348 
 2517      4C455645 
 2517      4C5F5F20 
 2518 0060 01       		.byte	0x1
 2519 0061 00       		.uleb128 0
 2520 0062 5F5F5645 		.ascii "__VERSION__ \"4.9.3\"\0"
 2520      5253494F 
 2520      4E5F5F20 
 2520      22342E39 
 2520      2E332200 
 2521 0076 01       		.byte	0x1
 2522 0077 00       		.uleb128 0
 2523 0078 5F5F4154 		.ascii "__ATOMIC_RELAXED 0\0"
 2523      4F4D4943 
 2523      5F52454C 
 2523      41584544 
 2523      203000
 2524 008b 01       		.byte	0x1
 2525 008c 00       		.uleb128 0
 2526 008d 5F5F4154 		.ascii "__ATOMIC_SEQ_CST 5\0"
 2526      4F4D4943 
 2526      5F534551 
 2526      5F435354 
 2526      203500
 2527 00a0 01       		.byte	0x1
 2528 00a1 00       		.uleb128 0
 2529 00a2 5F5F4154 		.ascii "__ATOMIC_ACQUIRE 2\0"
 2529      4F4D4943 
 2529      5F414351 
 2529      55495245 
 2529      203200
 2530 00b5 01       		.byte	0x1
 2531 00b6 00       		.uleb128 0
 2532 00b7 5F5F4154 		.ascii "__ATOMIC_RELEASE 3\0"
 2532      4F4D4943 
 2532      5F52454C 
 2532      45415345 
 2532      203300
 2533 00ca 01       		.byte	0x1
 2534 00cb 00       		.uleb128 0
 2535 00cc 5F5F4154 		.ascii "__ATOMIC_ACQ_REL 4\0"
 2535      4F4D4943 
 2535      5F414351 
 2535      5F52454C 
GAS LISTING C:\Users\PRESID~1\AppData\Local\Temp\ccrvaYae.s 			page 61


 2535      203400
 2536 00df 01       		.byte	0x1
 2537 00e0 00       		.uleb128 0
 2538 00e1 5F5F4154 		.ascii "__ATOMIC_CONSUME 1\0"
 2538      4F4D4943 
 2538      5F434F4E 
 2538      53554D45 
 2538      203100
 2539 00f4 01       		.byte	0x1
 2540 00f5 00       		.uleb128 0
 2541 00f6 5F5F4649 		.ascii "__FINITE_MATH_ONLY__ 0\0"
 2541      4E495445 
 2541      5F4D4154 
 2541      485F4F4E 
 2541      4C595F5F 
 2542 010d 01       		.byte	0x1
 2543 010e 00       		.uleb128 0
 2544 010f 5F5F5349 		.ascii "__SIZEOF_INT__ 4\0"
 2544      5A454F46 
 2544      5F494E54 
 2544      5F5F2034 
 2544      00
 2545 0120 01       		.byte	0x1
 2546 0121 00       		.uleb128 0
 2547 0122 5F5F5349 		.ascii "__SIZEOF_LONG__ 4\0"
 2547      5A454F46 
 2547      5F4C4F4E 
 2547      475F5F20 
 2547      3400
 2548 0134 01       		.byte	0x1
 2549 0135 00       		.uleb128 0
 2550 0136 5F5F5349 		.ascii "__SIZEOF_LONG_LONG__ 8\0"
 2550      5A454F46 
 2550      5F4C4F4E 
 2550      475F4C4F 
 2550      4E475F5F 
 2551 014d 01       		.byte	0x1
 2552 014e 00       		.uleb128 0
 2553 014f 5F5F5349 		.ascii "__SIZEOF_SHORT__ 2\0"
 2553      5A454F46 
 2553      5F53484F 
 2553      52545F5F 
 2553      203200
 2554 0162 01       		.byte	0x1
 2555 0163 00       		.uleb128 0
 2556 0164 5F5F5349 		.ascii "__SIZEOF_FLOAT__ 4\0"
 2556      5A454F46 
 2556      5F464C4F 
 2556      41545F5F 
 2556      203400
 2557 0177 01       		.byte	0x1
 2558 0178 00       		.uleb128 0
 2559 0179 5F5F5349 		.ascii "__SIZEOF_DOUBLE__ 8\0"
 2559      5A454F46 
 2559      5F444F55 
 2559      424C455F 
 2559      5F203800 
GAS LISTING C:\Users\PRESID~1\AppData\Local\Temp\ccrvaYae.s 			page 62


 2560 018d 01       		.byte	0x1
 2561 018e 00       		.uleb128 0
 2562 018f 5F5F5349 		.ascii "__SIZEOF_LONG_DOUBLE__ 12\0"
 2562      5A454F46 
 2562      5F4C4F4E 
 2562      475F444F 
 2562      55424C45 
 2563 01a9 01       		.byte	0x1
 2564 01aa 00       		.uleb128 0
 2565 01ab 5F5F5349 		.ascii "__SIZEOF_SIZE_T__ 4\0"
 2565      5A454F46 
 2565      5F53495A 
 2565      455F545F 
 2565      5F203400 
 2566 01bf 01       		.byte	0x1
 2567 01c0 00       		.uleb128 0
 2568 01c1 5F5F4348 		.ascii "__CHAR_BIT__ 8\0"
 2568      41525F42 
 2568      49545F5F 
 2568      203800
 2569 01d0 01       		.byte	0x1
 2570 01d1 00       		.uleb128 0
 2571 01d2 5F5F4249 		.ascii "__BIGGEST_ALIGNMENT__ 16\0"
 2571      47474553 
 2571      545F414C 
 2571      49474E4D 
 2571      454E545F 
 2572 01eb 01       		.byte	0x1
 2573 01ec 00       		.uleb128 0
 2574 01ed 5F5F4F52 		.ascii "__ORDER_LITTLE_ENDIAN__ 1234\0"
 2574      4445525F 
 2574      4C495454 
 2574      4C455F45 
 2574      4E444941 
 2575 020a 01       		.byte	0x1
 2576 020b 00       		.uleb128 0
 2577 020c 5F5F4F52 		.ascii "__ORDER_BIG_ENDIAN__ 4321\0"
 2577      4445525F 
 2577      4249475F 
 2577      454E4449 
 2577      414E5F5F 
 2578 0226 01       		.byte	0x1
 2579 0227 00       		.uleb128 0
 2580 0228 5F5F4F52 		.ascii "__ORDER_PDP_ENDIAN__ 3412\0"
 2580      4445525F 
 2580      5044505F 
 2580      454E4449 
 2580      414E5F5F 
 2581 0242 01       		.byte	0x1
 2582 0243 00       		.uleb128 0
 2583 0244 5F5F4259 		.ascii "__BYTE_ORDER__ __ORDER_LITTLE_ENDIAN__\0"
 2583      54455F4F 
 2583      52444552 
 2583      5F5F205F 
 2583      5F4F5244 
 2584 026b 01       		.byte	0x1
 2585 026c 00       		.uleb128 0
GAS LISTING C:\Users\PRESID~1\AppData\Local\Temp\ccrvaYae.s 			page 63


 2586 026d 5F5F464C 		.ascii "__FLOAT_WORD_ORDER__ __ORDER_LITTLE_ENDIAN__\0"
 2586      4F41545F 
 2586      574F5244 
 2586      5F4F5244 
 2586      45525F5F 
 2587 029a 01       		.byte	0x1
 2588 029b 00       		.uleb128 0
 2589 029c 5F5F5349 		.ascii "__SIZEOF_POINTER__ 4\0"
 2589      5A454F46 
 2589      5F504F49 
 2589      4E544552 
 2589      5F5F2034 
 2590 02b1 01       		.byte	0x1
 2591 02b2 00       		.uleb128 0
 2592 02b3 5F5F5349 		.ascii "__SIZE_TYPE__ unsigned int\0"
 2592      5A455F54 
 2592      5950455F 
 2592      5F20756E 
 2592      7369676E 
 2593 02ce 01       		.byte	0x1
 2594 02cf 00       		.uleb128 0
 2595 02d0 5F5F5054 		.ascii "__PTRDIFF_TYPE__ int\0"
 2595      52444946 
 2595      465F5459 
 2595      50455F5F 
 2595      20696E74 
 2596 02e5 01       		.byte	0x1
 2597 02e6 00       		.uleb128 0
 2598 02e7 5F5F5743 		.ascii "__WCHAR_TYPE__ short unsigned int\0"
 2598      4841525F 
 2598      54595045 
 2598      5F5F2073 
 2598      686F7274 
 2599 0309 01       		.byte	0x1
 2600 030a 00       		.uleb128 0
 2601 030b 5F5F5749 		.ascii "__WINT_TYPE__ short unsigned int\0"
 2601      4E545F54 
 2601      5950455F 
 2601      5F207368 
 2601      6F727420 
 2602 032c 01       		.byte	0x1
 2603 032d 00       		.uleb128 0
 2604 032e 5F5F494E 		.ascii "__INTMAX_TYPE__ long long int\0"
 2604      544D4158 
 2604      5F545950 
 2604      455F5F20 
 2604      6C6F6E67 
 2605 034c 01       		.byte	0x1
 2606 034d 00       		.uleb128 0
 2607 034e 5F5F5549 		.ascii "__UINTMAX_TYPE__ long long unsigned int\0"
 2607      4E544D41 
 2607      585F5459 
 2607      50455F5F 
 2607      206C6F6E 
 2608 0376 01       		.byte	0x1
 2609 0377 00       		.uleb128 0
 2610 0378 5F5F4348 		.ascii "__CHAR16_TYPE__ short unsigned int\0"
GAS LISTING C:\Users\PRESID~1\AppData\Local\Temp\ccrvaYae.s 			page 64


 2610      41523136 
 2610      5F545950 
 2610      455F5F20 
 2610      73686F72 
 2611 039b 01       		.byte	0x1
 2612 039c 00       		.uleb128 0
 2613 039d 5F5F4348 		.ascii "__CHAR32_TYPE__ unsigned int\0"
 2613      41523332 
 2613      5F545950 
 2613      455F5F20 
 2613      756E7369 
 2614 03ba 01       		.byte	0x1
 2615 03bb 00       		.uleb128 0
 2616 03bc 5F5F5349 		.ascii "__SIG_ATOMIC_TYPE__ int\0"
 2616      475F4154 
 2616      4F4D4943 
 2616      5F545950 
 2616      455F5F20 
 2617 03d4 01       		.byte	0x1
 2618 03d5 00       		.uleb128 0
 2619 03d6 5F5F494E 		.ascii "__INT8_TYPE__ signed char\0"
 2619      54385F54 
 2619      5950455F 
 2619      5F207369 
 2619      676E6564 
 2620 03f0 01       		.byte	0x1
 2621 03f1 00       		.uleb128 0
 2622 03f2 5F5F494E 		.ascii "__INT16_TYPE__ short int\0"
 2622      5431365F 
 2622      54595045 
 2622      5F5F2073 
 2622      686F7274 
 2623 040b 01       		.byte	0x1
 2624 040c 00       		.uleb128 0
 2625 040d 5F5F494E 		.ascii "__INT32_TYPE__ int\0"
 2625      5433325F 
 2625      54595045 
 2625      5F5F2069 
 2625      6E7400
 2626 0420 01       		.byte	0x1
 2627 0421 00       		.uleb128 0
 2628 0422 5F5F494E 		.ascii "__INT64_TYPE__ long long int\0"
 2628      5436345F 
 2628      54595045 
 2628      5F5F206C 
 2628      6F6E6720 
 2629 043f 01       		.byte	0x1
 2630 0440 00       		.uleb128 0
 2631 0441 5F5F5549 		.ascii "__UINT8_TYPE__ unsigned char\0"
 2631      4E54385F 
 2631      54595045 
 2631      5F5F2075 
 2631      6E736967 
 2632 045e 01       		.byte	0x1
 2633 045f 00       		.uleb128 0
 2634 0460 5F5F5549 		.ascii "__UINT16_TYPE__ short unsigned int\0"
 2634      4E543136 
GAS LISTING C:\Users\PRESID~1\AppData\Local\Temp\ccrvaYae.s 			page 65


 2634      5F545950 
 2634      455F5F20 
 2634      73686F72 
 2635 0483 01       		.byte	0x1
 2636 0484 00       		.uleb128 0
 2637 0485 5F5F5549 		.ascii "__UINT32_TYPE__ unsigned int\0"
 2637      4E543332 
 2637      5F545950 
 2637      455F5F20 
 2637      756E7369 
 2638 04a2 01       		.byte	0x1
 2639 04a3 00       		.uleb128 0
 2640 04a4 5F5F5549 		.ascii "__UINT64_TYPE__ long long unsigned int\0"
 2640      4E543634 
 2640      5F545950 
 2640      455F5F20 
 2640      6C6F6E67 
 2641 04cb 01       		.byte	0x1
 2642 04cc 00       		.uleb128 0
 2643 04cd 5F5F494E 		.ascii "__INT_LEAST8_TYPE__ signed char\0"
 2643      545F4C45 
 2643      41535438 
 2643      5F545950 
 2643      455F5F20 
 2644 04ed 01       		.byte	0x1
 2645 04ee 00       		.uleb128 0
 2646 04ef 5F5F494E 		.ascii "__INT_LEAST16_TYPE__ short int\0"
 2646      545F4C45 
 2646      41535431 
 2646      365F5459 
 2646      50455F5F 
 2647 050e 01       		.byte	0x1
 2648 050f 00       		.uleb128 0
 2649 0510 5F5F494E 		.ascii "__INT_LEAST32_TYPE__ int\0"
 2649      545F4C45 
 2649      41535433 
 2649      325F5459 
 2649      50455F5F 
 2650 0529 01       		.byte	0x1
 2651 052a 00       		.uleb128 0
 2652 052b 5F5F494E 		.ascii "__INT_LEAST64_TYPE__ long long int\0"
 2652      545F4C45 
 2652      41535436 
 2652      345F5459 
 2652      50455F5F 
 2653 054e 01       		.byte	0x1
 2654 054f 00       		.uleb128 0
 2655 0550 5F5F5549 		.ascii "__UINT_LEAST8_TYPE__ unsigned char\0"
 2655      4E545F4C 
 2655      45415354 
 2655      385F5459 
 2655      50455F5F 
 2656 0573 01       		.byte	0x1
 2657 0574 00       		.uleb128 0
 2658 0575 5F5F5549 		.ascii "__UINT_LEAST16_TYPE__ short unsigned int\0"
 2658      4E545F4C 
 2658      45415354 
GAS LISTING C:\Users\PRESID~1\AppData\Local\Temp\ccrvaYae.s 			page 66


 2658      31365F54 
 2658      5950455F 
 2659 059e 01       		.byte	0x1
 2660 059f 00       		.uleb128 0
 2661 05a0 5F5F5549 		.ascii "__UINT_LEAST32_TYPE__ unsigned int\0"
 2661      4E545F4C 
 2661      45415354 
 2661      33325F54 
 2661      5950455F 
 2662 05c3 01       		.byte	0x1
 2663 05c4 00       		.uleb128 0
 2664 05c5 5F5F5549 		.ascii "__UINT_LEAST64_TYPE__ long long unsigned int\0"
 2664      4E545F4C 
 2664      45415354 
 2664      36345F54 
 2664      5950455F 
 2665 05f2 01       		.byte	0x1
 2666 05f3 00       		.uleb128 0
 2667 05f4 5F5F494E 		.ascii "__INT_FAST8_TYPE__ signed char\0"
 2667      545F4641 
 2667      5354385F 
 2667      54595045 
 2667      5F5F2073 
 2668 0613 01       		.byte	0x1
 2669 0614 00       		.uleb128 0
 2670 0615 5F5F494E 		.ascii "__INT_FAST16_TYPE__ short int\0"
 2670      545F4641 
 2670      53543136 
 2670      5F545950 
 2670      455F5F20 
 2671 0633 01       		.byte	0x1
 2672 0634 00       		.uleb128 0
 2673 0635 5F5F494E 		.ascii "__INT_FAST32_TYPE__ int\0"
 2673      545F4641 
 2673      53543332 
 2673      5F545950 
 2673      455F5F20 
 2674 064d 01       		.byte	0x1
 2675 064e 00       		.uleb128 0
 2676 064f 5F5F494E 		.ascii "__INT_FAST64_TYPE__ long long int\0"
 2676      545F4641 
 2676      53543634 
 2676      5F545950 
 2676      455F5F20 
 2677 0671 01       		.byte	0x1
 2678 0672 00       		.uleb128 0
 2679 0673 5F5F5549 		.ascii "__UINT_FAST8_TYPE__ unsigned char\0"
 2679      4E545F46 
 2679      41535438 
 2679      5F545950 
 2679      455F5F20 
 2680 0695 01       		.byte	0x1
 2681 0696 00       		.uleb128 0
 2682 0697 5F5F5549 		.ascii "__UINT_FAST16_TYPE__ short unsigned int\0"
 2682      4E545F46 
 2682      41535431 
 2682      365F5459 
GAS LISTING C:\Users\PRESID~1\AppData\Local\Temp\ccrvaYae.s 			page 67


 2682      50455F5F 
 2683 06bf 01       		.byte	0x1
 2684 06c0 00       		.uleb128 0
 2685 06c1 5F5F5549 		.ascii "__UINT_FAST32_TYPE__ unsigned int\0"
 2685      4E545F46 
 2685      41535433 
 2685      325F5459 
 2685      50455F5F 
 2686 06e3 01       		.byte	0x1
 2687 06e4 00       		.uleb128 0
 2688 06e5 5F5F5549 		.ascii "__UINT_FAST64_TYPE__ long long unsigned int\0"
 2688      4E545F46 
 2688      41535436 
 2688      345F5459 
 2688      50455F5F 
 2689 0711 01       		.byte	0x1
 2690 0712 00       		.uleb128 0
 2691 0713 5F5F494E 		.ascii "__INTPTR_TYPE__ int\0"
 2691      54505452 
 2691      5F545950 
 2691      455F5F20 
 2691      696E7400 
 2692 0727 01       		.byte	0x1
 2693 0728 00       		.uleb128 0
 2694 0729 5F5F5549 		.ascii "__UINTPTR_TYPE__ unsigned int\0"
 2694      4E545054 
 2694      525F5459 
 2694      50455F5F 
 2694      20756E73 
 2695 0747 01       		.byte	0x1
 2696 0748 00       		.uleb128 0
 2697 0749 5F5F6861 		.ascii "__has_include(STR) __has_include__(STR)\0"
 2697      735F696E 
 2697      636C7564 
 2697      65285354 
 2697      5229205F 
 2698 0771 01       		.byte	0x1
 2699 0772 00       		.uleb128 0
 2700 0773 5F5F6861 		.ascii "__has_include_next(STR) __has_include_next__(STR)\0"
 2700      735F696E 
 2700      636C7564 
 2700      655F6E65 
 2700      78742853 
 2701 07a5 01       		.byte	0x1
 2702 07a6 00       		.uleb128 0
 2703 07a7 5F5F4758 		.ascii "__GXX_ABI_VERSION 1002\0"
 2703      585F4142 
 2703      495F5645 
 2703      5253494F 
 2703      4E203130 
 2704 07be 01       		.byte	0x1
 2705 07bf 00       		.uleb128 0
 2706 07c0 5F5F5343 		.ascii "__SCHAR_MAX__ 127\0"
 2706      4841525F 
 2706      4D41585F 
 2706      5F203132 
 2706      3700
GAS LISTING C:\Users\PRESID~1\AppData\Local\Temp\ccrvaYae.s 			page 68


 2707 07d2 01       		.byte	0x1
 2708 07d3 00       		.uleb128 0
 2709 07d4 5F5F5348 		.ascii "__SHRT_MAX__ 32767\0"
 2709      52545F4D 
 2709      41585F5F 
 2709      20333237 
 2709      363700
 2710 07e7 01       		.byte	0x1
 2711 07e8 00       		.uleb128 0
 2712 07e9 5F5F494E 		.ascii "__INT_MAX__ 2147483647\0"
 2712      545F4D41 
 2712      585F5F20 
 2712      32313437 
 2712      34383336 
 2713 0800 01       		.byte	0x1
 2714 0801 00       		.uleb128 0
 2715 0802 5F5F4C4F 		.ascii "__LONG_MAX__ 2147483647L\0"
 2715      4E475F4D 
 2715      41585F5F 
 2715      20323134 
 2715      37343833 
 2716 081b 01       		.byte	0x1
 2717 081c 00       		.uleb128 0
 2718 081d 5F5F4C4F 		.ascii "__LONG_LONG_MAX__ 9223372036854775807LL\0"
 2718      4E475F4C 
 2718      4F4E475F 
 2718      4D41585F 
 2718      5F203932 
 2719 0845 01       		.byte	0x1
 2720 0846 00       		.uleb128 0
 2721 0847 5F5F5743 		.ascii "__WCHAR_MAX__ 65535\0"
 2721      4841525F 
 2721      4D41585F 
 2721      5F203635 
 2721      35333500 
 2722 085b 01       		.byte	0x1
 2723 085c 00       		.uleb128 0
 2724 085d 5F5F5743 		.ascii "__WCHAR_MIN__ 0\0"
 2724      4841525F 
 2724      4D494E5F 
 2724      5F203000 
 2725 086d 01       		.byte	0x1
 2726 086e 00       		.uleb128 0
 2727 086f 5F5F5749 		.ascii "__WINT_MAX__ 65535\0"
 2727      4E545F4D 
 2727      41585F5F 
 2727      20363535 
 2727      333500
 2728 0882 01       		.byte	0x1
 2729 0883 00       		.uleb128 0
 2730 0884 5F5F5749 		.ascii "__WINT_MIN__ 0\0"
 2730      4E545F4D 
 2730      494E5F5F 
 2730      203000
 2731 0893 01       		.byte	0x1
 2732 0894 00       		.uleb128 0
 2733 0895 5F5F5054 		.ascii "__PTRDIFF_MAX__ 2147483647\0"
GAS LISTING C:\Users\PRESID~1\AppData\Local\Temp\ccrvaYae.s 			page 69


 2733      52444946 
 2733      465F4D41 
 2733      585F5F20 
 2733      32313437 
 2734 08b0 01       		.byte	0x1
 2735 08b1 00       		.uleb128 0
 2736 08b2 5F5F5349 		.ascii "__SIZE_MAX__ 4294967295U\0"
 2736      5A455F4D 
 2736      41585F5F 
 2736      20343239 
 2736      34393637 
 2737 08cb 01       		.byte	0x1
 2738 08cc 00       		.uleb128 0
 2739 08cd 5F5F494E 		.ascii "__INTMAX_MAX__ 9223372036854775807LL\0"
 2739      544D4158 
 2739      5F4D4158 
 2739      5F5F2039 
 2739      32323333 
 2740 08f2 01       		.byte	0x1
 2741 08f3 00       		.uleb128 0
 2742 08f4 5F5F494E 		.ascii "__INTMAX_C(c) c ## LL\0"
 2742      544D4158 
 2742      5F432863 
 2742      29206320 
 2742      2323204C 
 2743 090a 01       		.byte	0x1
 2744 090b 00       		.uleb128 0
 2745 090c 5F5F5549 		.ascii "__UINTMAX_MAX__ 18446744073709551615ULL\0"
 2745      4E544D41 
 2745      585F4D41 
 2745      585F5F20 
 2745      31383434 
 2746 0934 01       		.byte	0x1
 2747 0935 00       		.uleb128 0
 2748 0936 5F5F5549 		.ascii "__UINTMAX_C(c) c ## ULL\0"
 2748      4E544D41 
 2748      585F4328 
 2748      63292063 
 2748      20232320 
 2749 094e 01       		.byte	0x1
 2750 094f 00       		.uleb128 0
 2751 0950 5F5F5349 		.ascii "__SIG_ATOMIC_MAX__ 2147483647\0"
 2751      475F4154 
 2751      4F4D4943 
 2751      5F4D4158 
 2751      5F5F2032 
 2752 096e 01       		.byte	0x1
 2753 096f 00       		.uleb128 0
 2754 0970 5F5F5349 		.ascii "__SIG_ATOMIC_MIN__ (-__SIG_ATOMIC_MAX__ - 1)\0"
 2754      475F4154 
 2754      4F4D4943 
 2754      5F4D494E 
 2754      5F5F2028 
 2755 099d 01       		.byte	0x1
 2756 099e 00       		.uleb128 0
 2757 099f 5F5F494E 		.ascii "__INT8_MAX__ 127\0"
 2757      54385F4D 
GAS LISTING C:\Users\PRESID~1\AppData\Local\Temp\ccrvaYae.s 			page 70


 2757      41585F5F 
 2757      20313237 
 2757      00
 2758 09b0 01       		.byte	0x1
 2759 09b1 00       		.uleb128 0
 2760 09b2 5F5F494E 		.ascii "__INT16_MAX__ 32767\0"
 2760      5431365F 
 2760      4D41585F 
 2760      5F203332 
 2760      37363700 
 2761 09c6 01       		.byte	0x1
 2762 09c7 00       		.uleb128 0
 2763 09c8 5F5F494E 		.ascii "__INT32_MAX__ 2147483647\0"
 2763      5433325F 
 2763      4D41585F 
 2763      5F203231 
 2763      34373438 
 2764 09e1 01       		.byte	0x1
 2765 09e2 00       		.uleb128 0
 2766 09e3 5F5F494E 		.ascii "__INT64_MAX__ 9223372036854775807LL\0"
 2766      5436345F 
 2766      4D41585F 
 2766      5F203932 
 2766      32333337 
 2767 0a07 01       		.byte	0x1
 2768 0a08 00       		.uleb128 0
 2769 0a09 5F5F5549 		.ascii "__UINT8_MAX__ 255\0"
 2769      4E54385F 
 2769      4D41585F 
 2769      5F203235 
 2769      3500
 2770 0a1b 01       		.byte	0x1
 2771 0a1c 00       		.uleb128 0
 2772 0a1d 5F5F5549 		.ascii "__UINT16_MAX__ 65535\0"
 2772      4E543136 
 2772      5F4D4158 
 2772      5F5F2036 
 2772      35353335 
 2773 0a32 01       		.byte	0x1
 2774 0a33 00       		.uleb128 0
 2775 0a34 5F5F5549 		.ascii "__UINT32_MAX__ 4294967295U\0"
 2775      4E543332 
 2775      5F4D4158 
 2775      5F5F2034 
 2775      32393439 
 2776 0a4f 01       		.byte	0x1
 2777 0a50 00       		.uleb128 0
 2778 0a51 5F5F5549 		.ascii "__UINT64_MAX__ 18446744073709551615ULL\0"
 2778      4E543634 
 2778      5F4D4158 
 2778      5F5F2031 
 2778      38343436 
 2779 0a78 01       		.byte	0x1
 2780 0a79 00       		.uleb128 0
 2781 0a7a 5F5F494E 		.ascii "__INT_LEAST8_MAX__ 127\0"
 2781      545F4C45 
 2781      41535438 
GAS LISTING C:\Users\PRESID~1\AppData\Local\Temp\ccrvaYae.s 			page 71


 2781      5F4D4158 
 2781      5F5F2031 
 2782 0a91 01       		.byte	0x1
 2783 0a92 00       		.uleb128 0
 2784 0a93 5F5F494E 		.ascii "__INT8_C(c) c\0"
 2784      54385F43 
 2784      28632920 
 2784      6300
 2785 0aa1 01       		.byte	0x1
 2786 0aa2 00       		.uleb128 0
 2787 0aa3 5F5F494E 		.ascii "__INT_LEAST16_MAX__ 32767\0"
 2787      545F4C45 
 2787      41535431 
 2787      365F4D41 
 2787      585F5F20 
 2788 0abd 01       		.byte	0x1
 2789 0abe 00       		.uleb128 0
 2790 0abf 5F5F494E 		.ascii "__INT16_C(c) c\0"
 2790      5431365F 
 2790      43286329 
 2790      206300
 2791 0ace 01       		.byte	0x1
 2792 0acf 00       		.uleb128 0
 2793 0ad0 5F5F494E 		.ascii "__INT_LEAST32_MAX__ 2147483647\0"
 2793      545F4C45 
 2793      41535433 
 2793      325F4D41 
 2793      585F5F20 
 2794 0aef 01       		.byte	0x1
 2795 0af0 00       		.uleb128 0
 2796 0af1 5F5F494E 		.ascii "__INT32_C(c) c\0"
 2796      5433325F 
 2796      43286329 
 2796      206300
 2797 0b00 01       		.byte	0x1
 2798 0b01 00       		.uleb128 0
 2799 0b02 5F5F494E 		.ascii "__INT_LEAST64_MAX__ 9223372036854775807LL\0"
 2799      545F4C45 
 2799      41535436 
 2799      345F4D41 
 2799      585F5F20 
 2800 0b2c 01       		.byte	0x1
 2801 0b2d 00       		.uleb128 0
 2802 0b2e 5F5F494E 		.ascii "__INT64_C(c) c ## LL\0"
 2802      5436345F 
 2802      43286329 
 2802      20632023 
 2802      23204C4C 
 2803 0b43 01       		.byte	0x1
 2804 0b44 00       		.uleb128 0
 2805 0b45 5F5F5549 		.ascii "__UINT_LEAST8_MAX__ 255\0"
 2805      4E545F4C 
 2805      45415354 
 2805      385F4D41 
 2805      585F5F20 
 2806 0b5d 01       		.byte	0x1
 2807 0b5e 00       		.uleb128 0
GAS LISTING C:\Users\PRESID~1\AppData\Local\Temp\ccrvaYae.s 			page 72


 2808 0b5f 5F5F5549 		.ascii "__UINT8_C(c) c\0"
 2808      4E54385F 
 2808      43286329 
 2808      206300
 2809 0b6e 01       		.byte	0x1
 2810 0b6f 00       		.uleb128 0
 2811 0b70 5F5F5549 		.ascii "__UINT_LEAST16_MAX__ 65535\0"
 2811      4E545F4C 
 2811      45415354 
 2811      31365F4D 
 2811      41585F5F 
 2812 0b8b 01       		.byte	0x1
 2813 0b8c 00       		.uleb128 0
 2814 0b8d 5F5F5549 		.ascii "__UINT16_C(c) c\0"
 2814      4E543136 
 2814      5F432863 
 2814      29206300 
 2815 0b9d 01       		.byte	0x1
 2816 0b9e 00       		.uleb128 0
 2817 0b9f 5F5F5549 		.ascii "__UINT_LEAST32_MAX__ 4294967295U\0"
 2817      4E545F4C 
 2817      45415354 
 2817      33325F4D 
 2817      41585F5F 
 2818 0bc0 01       		.byte	0x1
 2819 0bc1 00       		.uleb128 0
 2820 0bc2 5F5F5549 		.ascii "__UINT32_C(c) c ## U\0"
 2820      4E543332 
 2820      5F432863 
 2820      29206320 
 2820      23232055 
 2821 0bd7 01       		.byte	0x1
 2822 0bd8 00       		.uleb128 0
 2823 0bd9 5F5F5549 		.ascii "__UINT_LEAST64_MAX__ 18446744073709551615ULL\0"
 2823      4E545F4C 
 2823      45415354 
 2823      36345F4D 
 2823      41585F5F 
 2824 0c06 01       		.byte	0x1
 2825 0c07 00       		.uleb128 0
 2826 0c08 5F5F5549 		.ascii "__UINT64_C(c) c ## ULL\0"
 2826      4E543634 
 2826      5F432863 
 2826      29206320 
 2826      23232055 
 2827 0c1f 01       		.byte	0x1
 2828 0c20 00       		.uleb128 0
 2829 0c21 5F5F494E 		.ascii "__INT_FAST8_MAX__ 127\0"
 2829      545F4641 
 2829      5354385F 
 2829      4D41585F 
 2829      5F203132 
 2830 0c37 01       		.byte	0x1
 2831 0c38 00       		.uleb128 0
 2832 0c39 5F5F494E 		.ascii "__INT_FAST16_MAX__ 32767\0"
 2832      545F4641 
 2832      53543136 
GAS LISTING C:\Users\PRESID~1\AppData\Local\Temp\ccrvaYae.s 			page 73


 2832      5F4D4158 
 2832      5F5F2033 
 2833 0c52 01       		.byte	0x1
 2834 0c53 00       		.uleb128 0
 2835 0c54 5F5F494E 		.ascii "__INT_FAST32_MAX__ 2147483647\0"
 2835      545F4641 
 2835      53543332 
 2835      5F4D4158 
 2835      5F5F2032 
 2836 0c72 01       		.byte	0x1
 2837 0c73 00       		.uleb128 0
 2838 0c74 5F5F494E 		.ascii "__INT_FAST64_MAX__ 9223372036854775807LL\0"
 2838      545F4641 
 2838      53543634 
 2838      5F4D4158 
 2838      5F5F2039 
 2839 0c9d 01       		.byte	0x1
 2840 0c9e 00       		.uleb128 0
 2841 0c9f 5F5F5549 		.ascii "__UINT_FAST8_MAX__ 255\0"
 2841      4E545F46 
 2841      41535438 
 2841      5F4D4158 
 2841      5F5F2032 
 2842 0cb6 01       		.byte	0x1
 2843 0cb7 00       		.uleb128 0
 2844 0cb8 5F5F5549 		.ascii "__UINT_FAST16_MAX__ 65535\0"
 2844      4E545F46 
 2844      41535431 
 2844      365F4D41 
 2844      585F5F20 
 2845 0cd2 01       		.byte	0x1
 2846 0cd3 00       		.uleb128 0
 2847 0cd4 5F5F5549 		.ascii "__UINT_FAST32_MAX__ 4294967295U\0"
 2847      4E545F46 
 2847      41535433 
 2847      325F4D41 
 2847      585F5F20 
 2848 0cf4 01       		.byte	0x1
 2849 0cf5 00       		.uleb128 0
 2850 0cf6 5F5F5549 		.ascii "__UINT_FAST64_MAX__ 18446744073709551615ULL\0"
 2850      4E545F46 
 2850      41535436 
 2850      345F4D41 
 2850      585F5F20 
 2851 0d22 01       		.byte	0x1
 2852 0d23 00       		.uleb128 0
 2853 0d24 5F5F494E 		.ascii "__INTPTR_MAX__ 2147483647\0"
 2853      54505452 
 2853      5F4D4158 
 2853      5F5F2032 
 2853      31343734 
 2854 0d3e 01       		.byte	0x1
 2855 0d3f 00       		.uleb128 0
 2856 0d40 5F5F5549 		.ascii "__UINTPTR_MAX__ 4294967295U\0"
 2856      4E545054 
 2856      525F4D41 
 2856      585F5F20 
GAS LISTING C:\Users\PRESID~1\AppData\Local\Temp\ccrvaYae.s 			page 74


 2856      34323934 
 2857 0d5c 01       		.byte	0x1
 2858 0d5d 00       		.uleb128 0
 2859 0d5e 5F5F4743 		.ascii "__GCC_IEC_559 2\0"
 2859      435F4945 
 2859      435F3535 
 2859      39203200 
 2860 0d6e 01       		.byte	0x1
 2861 0d6f 00       		.uleb128 0
 2862 0d70 5F5F4743 		.ascii "__GCC_IEC_559_COMPLEX 2\0"
 2862      435F4945 
 2862      435F3535 
 2862      395F434F 
 2862      4D504C45 
 2863 0d88 01       		.byte	0x1
 2864 0d89 00       		.uleb128 0
 2865 0d8a 5F5F464C 		.ascii "__FLT_EVAL_METHOD__ 2\0"
 2865      545F4556 
 2865      414C5F4D 
 2865      4554484F 
 2865      445F5F20 
 2866 0da0 01       		.byte	0x1
 2867 0da1 00       		.uleb128 0
 2868 0da2 5F5F4445 		.ascii "__DEC_EVAL_METHOD__ 2\0"
 2868      435F4556 
 2868      414C5F4D 
 2868      4554484F 
 2868      445F5F20 
 2869 0db8 01       		.byte	0x1
 2870 0db9 00       		.uleb128 0
 2871 0dba 5F5F464C 		.ascii "__FLT_RADIX__ 2\0"
 2871      545F5241 
 2871      4449585F 
 2871      5F203200 
 2872 0dca 01       		.byte	0x1
 2873 0dcb 00       		.uleb128 0
 2874 0dcc 5F5F464C 		.ascii "__FLT_MANT_DIG__ 24\0"
 2874      545F4D41 
 2874      4E545F44 
 2874      49475F5F 
 2874      20323400 
 2875 0de0 01       		.byte	0x1
 2876 0de1 00       		.uleb128 0
 2877 0de2 5F5F464C 		.ascii "__FLT_DIG__ 6\0"
 2877      545F4449 
 2877      475F5F20 
 2877      3600
 2878 0df0 01       		.byte	0x1
 2879 0df1 00       		.uleb128 0
 2880 0df2 5F5F464C 		.ascii "__FLT_MIN_EXP__ (-125)\0"
 2880      545F4D49 
 2880      4E5F4558 
 2880      505F5F20 
 2880      282D3132 
 2881 0e09 01       		.byte	0x1
 2882 0e0a 00       		.uleb128 0
 2883 0e0b 5F5F464C 		.ascii "__FLT_MIN_10_EXP__ (-37)\0"
GAS LISTING C:\Users\PRESID~1\AppData\Local\Temp\ccrvaYae.s 			page 75


 2883      545F4D49 
 2883      4E5F3130 
 2883      5F455850 
 2883      5F5F2028 
 2884 0e24 01       		.byte	0x1
 2885 0e25 00       		.uleb128 0
 2886 0e26 5F5F464C 		.ascii "__FLT_MAX_EXP__ 128\0"
 2886      545F4D41 
 2886      585F4558 
 2886      505F5F20 
 2886      31323800 
 2887 0e3a 01       		.byte	0x1
 2888 0e3b 00       		.uleb128 0
 2889 0e3c 5F5F464C 		.ascii "__FLT_MAX_10_EXP__ 38\0"
 2889      545F4D41 
 2889      585F3130 
 2889      5F455850 
 2889      5F5F2033 
 2890 0e52 01       		.byte	0x1
 2891 0e53 00       		.uleb128 0
 2892 0e54 5F5F464C 		.ascii "__FLT_DECIMAL_DIG__ 9\0"
 2892      545F4445 
 2892      43494D41 
 2892      4C5F4449 
 2892      475F5F20 
 2893 0e6a 01       		.byte	0x1
 2894 0e6b 00       		.uleb128 0
 2895 0e6c 5F5F464C 		.ascii "__FLT_MAX__ 3.40282346638528859812e+38F\0"
 2895      545F4D41 
 2895      585F5F20 
 2895      332E3430 
 2895      32383233 
 2896 0e94 01       		.byte	0x1
 2897 0e95 00       		.uleb128 0
 2898 0e96 5F5F464C 		.ascii "__FLT_MIN__ 1.17549435082228750797e-38F\0"
 2898      545F4D49 
 2898      4E5F5F20 
 2898      312E3137 
 2898      35343934 
 2899 0ebe 01       		.byte	0x1
 2900 0ebf 00       		.uleb128 0
 2901 0ec0 5F5F464C 		.ascii "__FLT_EPSILON__ 1.19209289550781250000e-7F\0"
 2901      545F4550 
 2901      53494C4F 
 2901      4E5F5F20 
 2901      312E3139 
 2902 0eeb 01       		.byte	0x1
 2903 0eec 00       		.uleb128 0
 2904 0eed 5F5F464C 		.ascii "__FLT_DENORM_MIN__ 1.40129846432481707092e-45F\0"
 2904      545F4445 
 2904      4E4F524D 
 2904      5F4D494E 
 2904      5F5F2031 
 2905 0f1c 01       		.byte	0x1
 2906 0f1d 00       		.uleb128 0
 2907 0f1e 5F5F464C 		.ascii "__FLT_HAS_DENORM__ 1\0"
 2907      545F4841 
GAS LISTING C:\Users\PRESID~1\AppData\Local\Temp\ccrvaYae.s 			page 76


 2907      535F4445 
 2907      4E4F524D 
 2907      5F5F2031 
 2908 0f33 01       		.byte	0x1
 2909 0f34 00       		.uleb128 0
 2910 0f35 5F5F464C 		.ascii "__FLT_HAS_INFINITY__ 1\0"
 2910      545F4841 
 2910      535F494E 
 2910      46494E49 
 2910      54595F5F 
 2911 0f4c 01       		.byte	0x1
 2912 0f4d 00       		.uleb128 0
 2913 0f4e 5F5F464C 		.ascii "__FLT_HAS_QUIET_NAN__ 1\0"
 2913      545F4841 
 2913      535F5155 
 2913      4945545F 
 2913      4E414E5F 
 2914 0f66 01       		.byte	0x1
 2915 0f67 00       		.uleb128 0
 2916 0f68 5F5F4442 		.ascii "__DBL_MANT_DIG__ 53\0"
 2916      4C5F4D41 
 2916      4E545F44 
 2916      49475F5F 
 2916      20353300 
 2917 0f7c 01       		.byte	0x1
 2918 0f7d 00       		.uleb128 0
 2919 0f7e 5F5F4442 		.ascii "__DBL_DIG__ 15\0"
 2919      4C5F4449 
 2919      475F5F20 
 2919      313500
 2920 0f8d 01       		.byte	0x1
 2921 0f8e 00       		.uleb128 0
 2922 0f8f 5F5F4442 		.ascii "__DBL_MIN_EXP__ (-1021)\0"
 2922      4C5F4D49 
 2922      4E5F4558 
 2922      505F5F20 
 2922      282D3130 
 2923 0fa7 01       		.byte	0x1
 2924 0fa8 00       		.uleb128 0
 2925 0fa9 5F5F4442 		.ascii "__DBL_MIN_10_EXP__ (-307)\0"
 2925      4C5F4D49 
 2925      4E5F3130 
 2925      5F455850 
 2925      5F5F2028 
 2926 0fc3 01       		.byte	0x1
 2927 0fc4 00       		.uleb128 0
 2928 0fc5 5F5F4442 		.ascii "__DBL_MAX_EXP__ 1024\0"
 2928      4C5F4D41 
 2928      585F4558 
 2928      505F5F20 
 2928      31303234 
 2929 0fda 01       		.byte	0x1
 2930 0fdb 00       		.uleb128 0
 2931 0fdc 5F5F4442 		.ascii "__DBL_MAX_10_EXP__ 308\0"
 2931      4C5F4D41 
 2931      585F3130 
 2931      5F455850 
GAS LISTING C:\Users\PRESID~1\AppData\Local\Temp\ccrvaYae.s 			page 77


 2931      5F5F2033 
 2932 0ff3 01       		.byte	0x1
 2933 0ff4 00       		.uleb128 0
 2934 0ff5 5F5F4442 		.ascii "__DBL_DECIMAL_DIG__ 17\0"
 2934      4C5F4445 
 2934      43494D41 
 2934      4C5F4449 
 2934      475F5F20 
 2935 100c 01       		.byte	0x1
 2936 100d 00       		.uleb128 0
 2937 100e 5F5F4442 		.ascii "__DBL_MAX__ ((double)1.79769313486231570815e+308L)\0"
 2937      4C5F4D41 
 2937      585F5F20 
 2937      2828646F 
 2937      75626C65 
 2938 1041 01       		.byte	0x1
 2939 1042 00       		.uleb128 0
 2940 1043 5F5F4442 		.ascii "__DBL_MIN__ ((double)2.22507385850720138309e-308L)\0"
 2940      4C5F4D49 
 2940      4E5F5F20 
 2940      2828646F 
 2940      75626C65 
 2941 1076 01       		.byte	0x1
 2942 1077 00       		.uleb128 0
 2943 1078 5F5F4442 		.ascii "__DBL_EPSILON__ ((double)2.22044604925031308085e-16L)\0"
 2943      4C5F4550 
 2943      53494C4F 
 2943      4E5F5F20 
 2943      2828646F 
 2944 10ae 01       		.byte	0x1
 2945 10af 00       		.uleb128 0
 2946 10b0 5F5F4442 		.ascii "__DBL_DENORM_MIN__ ((double)4.94065645841246544177e-324L)\0"
 2946      4C5F4445 
 2946      4E4F524D 
 2946      5F4D494E 
 2946      5F5F2028 
 2947 10ea 01       		.byte	0x1
 2948 10eb 00       		.uleb128 0
 2949 10ec 5F5F4442 		.ascii "__DBL_HAS_DENORM__ 1\0"
 2949      4C5F4841 
 2949      535F4445 
 2949      4E4F524D 
 2949      5F5F2031 
 2950 1101 01       		.byte	0x1
 2951 1102 00       		.uleb128 0
 2952 1103 5F5F4442 		.ascii "__DBL_HAS_INFINITY__ 1\0"
 2952      4C5F4841 
 2952      535F494E 
 2952      46494E49 
 2952      54595F5F 
 2953 111a 01       		.byte	0x1
 2954 111b 00       		.uleb128 0
 2955 111c 5F5F4442 		.ascii "__DBL_HAS_QUIET_NAN__ 1\0"
 2955      4C5F4841 
 2955      535F5155 
 2955      4945545F 
 2955      4E414E5F 
GAS LISTING C:\Users\PRESID~1\AppData\Local\Temp\ccrvaYae.s 			page 78


 2956 1134 01       		.byte	0x1
 2957 1135 00       		.uleb128 0
 2958 1136 5F5F4C44 		.ascii "__LDBL_MANT_DIG__ 64\0"
 2958      424C5F4D 
 2958      414E545F 
 2958      4449475F 
 2958      5F203634 
 2959 114b 01       		.byte	0x1
 2960 114c 00       		.uleb128 0
 2961 114d 5F5F4C44 		.ascii "__LDBL_DIG__ 18\0"
 2961      424C5F44 
 2961      49475F5F 
 2961      20313800 
 2962 115d 01       		.byte	0x1
 2963 115e 00       		.uleb128 0
 2964 115f 5F5F4C44 		.ascii "__LDBL_MIN_EXP__ (-16381)\0"
 2964      424C5F4D 
 2964      494E5F45 
 2964      58505F5F 
 2964      20282D31 
 2965 1179 01       		.byte	0x1
 2966 117a 00       		.uleb128 0
 2967 117b 5F5F4C44 		.ascii "__LDBL_MIN_10_EXP__ (-4931)\0"
 2967      424C5F4D 
 2967      494E5F31 
 2967      305F4558 
 2967      505F5F20 
 2968 1197 01       		.byte	0x1
 2969 1198 00       		.uleb128 0
 2970 1199 5F5F4C44 		.ascii "__LDBL_MAX_EXP__ 16384\0"
 2970      424C5F4D 
 2970      41585F45 
 2970      58505F5F 
 2970      20313633 
 2971 11b0 01       		.byte	0x1
 2972 11b1 00       		.uleb128 0
 2973 11b2 5F5F4C44 		.ascii "__LDBL_MAX_10_EXP__ 4932\0"
 2973      424C5F4D 
 2973      41585F31 
 2973      305F4558 
 2973      505F5F20 
 2974 11cb 01       		.byte	0x1
 2975 11cc 00       		.uleb128 0
 2976 11cd 5F5F4445 		.ascii "__DECIMAL_DIG__ 21\0"
 2976      43494D41 
 2976      4C5F4449 
 2976      475F5F20 
 2976      323100
 2977 11e0 01       		.byte	0x1
 2978 11e1 00       		.uleb128 0
 2979 11e2 5F5F4C44 		.ascii "__LDBL_MAX__ 1.18973149535723176502e+4932L\0"
 2979      424C5F4D 
 2979      41585F5F 
 2979      20312E31 
 2979      38393733 
 2980 120d 01       		.byte	0x1
 2981 120e 00       		.uleb128 0
GAS LISTING C:\Users\PRESID~1\AppData\Local\Temp\ccrvaYae.s 			page 79


 2982 120f 5F5F4C44 		.ascii "__LDBL_MIN__ 3.36210314311209350626e-4932L\0"
 2982      424C5F4D 
 2982      494E5F5F 
 2982      20332E33 
 2982      36323130 
 2983 123a 01       		.byte	0x1
 2984 123b 00       		.uleb128 0
 2985 123c 5F5F4C44 		.ascii "__LDBL_EPSILON__ 1.08420217248550443401e-19L\0"
 2985      424C5F45 
 2985      5053494C 
 2985      4F4E5F5F 
 2985      20312E30 
 2986 1269 01       		.byte	0x1
 2987 126a 00       		.uleb128 0
 2988 126b 5F5F4C44 		.ascii "__LDBL_DENORM_MIN__ 3.64519953188247460253e-4951L\0"
 2988      424C5F44 
 2988      454E4F52 
 2988      4D5F4D49 
 2988      4E5F5F20 
 2989 129d 01       		.byte	0x1
 2990 129e 00       		.uleb128 0
 2991 129f 5F5F4C44 		.ascii "__LDBL_HAS_DENORM__ 1\0"
 2991      424C5F48 
 2991      41535F44 
 2991      454E4F52 
 2991      4D5F5F20 
 2992 12b5 01       		.byte	0x1
 2993 12b6 00       		.uleb128 0
 2994 12b7 5F5F4C44 		.ascii "__LDBL_HAS_INFINITY__ 1\0"
 2994      424C5F48 
 2994      41535F49 
 2994      4E46494E 
 2994      4954595F 
 2995 12cf 01       		.byte	0x1
 2996 12d0 00       		.uleb128 0
 2997 12d1 5F5F4C44 		.ascii "__LDBL_HAS_QUIET_NAN__ 1\0"
 2997      424C5F48 
 2997      41535F51 
 2997      55494554 
 2997      5F4E414E 
 2998 12ea 01       		.byte	0x1
 2999 12eb 00       		.uleb128 0
 3000 12ec 5F5F4445 		.ascii "__DEC32_MANT_DIG__ 7\0"
 3000      4333325F 
 3000      4D414E54 
 3000      5F444947 
 3000      5F5F2037 
 3001 1301 01       		.byte	0x1
 3002 1302 00       		.uleb128 0
 3003 1303 5F5F4445 		.ascii "__DEC32_MIN_EXP__ (-94)\0"
 3003      4333325F 
 3003      4D494E5F 
 3003      4558505F 
 3003      5F20282D 
 3004 131b 01       		.byte	0x1
 3005 131c 00       		.uleb128 0
 3006 131d 5F5F4445 		.ascii "__DEC32_MAX_EXP__ 97\0"
GAS LISTING C:\Users\PRESID~1\AppData\Local\Temp\ccrvaYae.s 			page 80


 3006      4333325F 
 3006      4D41585F 
 3006      4558505F 
 3006      5F203937 
 3007 1332 01       		.byte	0x1
 3008 1333 00       		.uleb128 0
 3009 1334 5F5F4445 		.ascii "__DEC32_MIN__ 1E-95DF\0"
 3009      4333325F 
 3009      4D494E5F 
 3009      5F203145 
 3009      2D393544 
 3010 134a 01       		.byte	0x1
 3011 134b 00       		.uleb128 0
 3012 134c 5F5F4445 		.ascii "__DEC32_MAX__ 9.999999E96DF\0"
 3012      4333325F 
 3012      4D41585F 
 3012      5F20392E 
 3012      39393939 
 3013 1368 01       		.byte	0x1
 3014 1369 00       		.uleb128 0
 3015 136a 5F5F4445 		.ascii "__DEC32_EPSILON__ 1E-6DF\0"
 3015      4333325F 
 3015      45505349 
 3015      4C4F4E5F 
 3015      5F203145 
 3016 1383 01       		.byte	0x1
 3017 1384 00       		.uleb128 0
 3018 1385 5F5F4445 		.ascii "__DEC32_SUBNORMAL_MIN__ 0.000001E-95DF\0"
 3018      4333325F 
 3018      5355424E 
 3018      4F524D41 
 3018      4C5F4D49 
 3019 13ac 01       		.byte	0x1
 3020 13ad 00       		.uleb128 0
 3021 13ae 5F5F4445 		.ascii "__DEC64_MANT_DIG__ 16\0"
 3021      4336345F 
 3021      4D414E54 
 3021      5F444947 
 3021      5F5F2031 
 3022 13c4 01       		.byte	0x1
 3023 13c5 00       		.uleb128 0
 3024 13c6 5F5F4445 		.ascii "__DEC64_MIN_EXP__ (-382)\0"
 3024      4336345F 
 3024      4D494E5F 
 3024      4558505F 
 3024      5F20282D 
 3025 13df 01       		.byte	0x1
 3026 13e0 00       		.uleb128 0
 3027 13e1 5F5F4445 		.ascii "__DEC64_MAX_EXP__ 385\0"
 3027      4336345F 
 3027      4D41585F 
 3027      4558505F 
 3027      5F203338 
 3028 13f7 01       		.byte	0x1
 3029 13f8 00       		.uleb128 0
 3030 13f9 5F5F4445 		.ascii "__DEC64_MIN__ 1E-383DD\0"
 3030      4336345F 
GAS LISTING C:\Users\PRESID~1\AppData\Local\Temp\ccrvaYae.s 			page 81


 3030      4D494E5F 
 3030      5F203145 
 3030      2D333833 
 3031 1410 01       		.byte	0x1
 3032 1411 00       		.uleb128 0
 3033 1412 5F5F4445 		.ascii "__DEC64_MAX__ 9.999999999999999E384DD\0"
 3033      4336345F 
 3033      4D41585F 
 3033      5F20392E 
 3033      39393939 
 3034 1438 01       		.byte	0x1
 3035 1439 00       		.uleb128 0
 3036 143a 5F5F4445 		.ascii "__DEC64_EPSILON__ 1E-15DD\0"
 3036      4336345F 
 3036      45505349 
 3036      4C4F4E5F 
 3036      5F203145 
 3037 1454 01       		.byte	0x1
 3038 1455 00       		.uleb128 0
 3039 1456 5F5F4445 		.ascii "__DEC64_SUBNORMAL_MIN__ 0.000000000000001E-383DD\0"
 3039      4336345F 
 3039      5355424E 
 3039      4F524D41 
 3039      4C5F4D49 
 3040 1487 01       		.byte	0x1
 3041 1488 00       		.uleb128 0
 3042 1489 5F5F4445 		.ascii "__DEC128_MANT_DIG__ 34\0"
 3042      43313238 
 3042      5F4D414E 
 3042      545F4449 
 3042      475F5F20 
 3043 14a0 01       		.byte	0x1
 3044 14a1 00       		.uleb128 0
 3045 14a2 5F5F4445 		.ascii "__DEC128_MIN_EXP__ (-6142)\0"
 3045      43313238 
 3045      5F4D494E 
 3045      5F455850 
 3045      5F5F2028 
 3046 14bd 01       		.byte	0x1
 3047 14be 00       		.uleb128 0
 3048 14bf 5F5F4445 		.ascii "__DEC128_MAX_EXP__ 6145\0"
 3048      43313238 
 3048      5F4D4158 
 3048      5F455850 
 3048      5F5F2036 
 3049 14d7 01       		.byte	0x1
 3050 14d8 00       		.uleb128 0
 3051 14d9 5F5F4445 		.ascii "__DEC128_MIN__ 1E-6143DL\0"
 3051      43313238 
 3051      5F4D494E 
 3051      5F5F2031 
 3051      452D3631 
 3052 14f2 01       		.byte	0x1
 3053 14f3 00       		.uleb128 0
 3054 14f4 5F5F4445 		.ascii "__DEC128_MAX__ 9.999999999999999999999999999999999E6144DL\0"
 3054      43313238 
 3054      5F4D4158 
GAS LISTING C:\Users\PRESID~1\AppData\Local\Temp\ccrvaYae.s 			page 82


 3054      5F5F2039 
 3054      2E393939 
 3055 152e 01       		.byte	0x1
 3056 152f 00       		.uleb128 0
 3057 1530 5F5F4445 		.ascii "__DEC128_EPSILON__ 1E-33DL\0"
 3057      43313238 
 3057      5F455053 
 3057      494C4F4E 
 3057      5F5F2031 
 3058 154b 01       		.byte	0x1
 3059 154c 00       		.uleb128 0
 3060 154d 5F5F4445 		.ascii "__DEC128_SUBNORMAL_MIN__ 0.000000000000000000000000000000001E-6143DL\0"
 3060      43313238 
 3060      5F535542 
 3060      4E4F524D 
 3060      414C5F4D 
 3061 1592 01       		.byte	0x1
 3062 1593 00       		.uleb128 0
 3063 1594 5F5F5245 		.ascii "__REGISTER_PREFIX__ \0"
 3063      47495354 
 3063      45525F50 
 3063      52454649 
 3063      585F5F20 
 3064 15a9 01       		.byte	0x1
 3065 15aa 00       		.uleb128 0
 3066 15ab 5F5F5553 		.ascii "__USER_LABEL_PREFIX__ _\0"
 3066      45525F4C 
 3066      4142454C 
 3066      5F505245 
 3066      4649585F 
 3067 15c3 01       		.byte	0x1
 3068 15c4 00       		.uleb128 0
 3069 15c5 5F5F474E 		.ascii "__GNUC_GNU_INLINE__ 1\0"
 3069      55435F47 
 3069      4E555F49 
 3069      4E4C494E 
 3069      455F5F20 
 3070 15db 01       		.byte	0x1
 3071 15dc 00       		.uleb128 0
 3072 15dd 5F5F4E4F 		.ascii "__NO_INLINE__ 1\0"
 3072      5F494E4C 
 3072      494E455F 
 3072      5F203100 
 3073 15ed 01       		.byte	0x1
 3074 15ee 00       		.uleb128 0
 3075 15ef 5F5F5354 		.ascii "__STRICT_ANSI__ 1\0"
 3075      52494354 
 3075      5F414E53 
 3075      495F5F20 
 3075      3100
 3076 1601 01       		.byte	0x1
 3077 1602 00       		.uleb128 0
 3078 1603 5F5F4743 		.ascii "__GCC_ATOMIC_BOOL_LOCK_FREE 1\0"
 3078      435F4154 
 3078      4F4D4943 
 3078      5F424F4F 
 3078      4C5F4C4F 
GAS LISTING C:\Users\PRESID~1\AppData\Local\Temp\ccrvaYae.s 			page 83


 3079 1621 01       		.byte	0x1
 3080 1622 00       		.uleb128 0
 3081 1623 5F5F4743 		.ascii "__GCC_ATOMIC_CHAR_LOCK_FREE 1\0"
 3081      435F4154 
 3081      4F4D4943 
 3081      5F434841 
 3081      525F4C4F 
 3082 1641 01       		.byte	0x1
 3083 1642 00       		.uleb128 0
 3084 1643 5F5F4743 		.ascii "__GCC_ATOMIC_CHAR16_T_LOCK_FREE 1\0"
 3084      435F4154 
 3084      4F4D4943 
 3084      5F434841 
 3084      5231365F 
 3085 1665 01       		.byte	0x1
 3086 1666 00       		.uleb128 0
 3087 1667 5F5F4743 		.ascii "__GCC_ATOMIC_CHAR32_T_LOCK_FREE 1\0"
 3087      435F4154 
 3087      4F4D4943 
 3087      5F434841 
 3087      5233325F 
 3088 1689 01       		.byte	0x1
 3089 168a 00       		.uleb128 0
 3090 168b 5F5F4743 		.ascii "__GCC_ATOMIC_WCHAR_T_LOCK_FREE 1\0"
 3090      435F4154 
 3090      4F4D4943 
 3090      5F574348 
 3090      41525F54 
 3091 16ac 01       		.byte	0x1
 3092 16ad 00       		.uleb128 0
 3093 16ae 5F5F4743 		.ascii "__GCC_ATOMIC_SHORT_LOCK_FREE 1\0"
 3093      435F4154 
 3093      4F4D4943 
 3093      5F53484F 
 3093      52545F4C 
 3094 16cd 01       		.byte	0x1
 3095 16ce 00       		.uleb128 0
 3096 16cf 5F5F4743 		.ascii "__GCC_ATOMIC_INT_LOCK_FREE 1\0"
 3096      435F4154 
 3096      4F4D4943 
 3096      5F494E54 
 3096      5F4C4F43 
 3097 16ec 01       		.byte	0x1
 3098 16ed 00       		.uleb128 0
 3099 16ee 5F5F4743 		.ascii "__GCC_ATOMIC_LONG_LOCK_FREE 1\0"
 3099      435F4154 
 3099      4F4D4943 
 3099      5F4C4F4E 
 3099      475F4C4F 
 3100 170c 01       		.byte	0x1
 3101 170d 00       		.uleb128 0
 3102 170e 5F5F4743 		.ascii "__GCC_ATOMIC_LLONG_LOCK_FREE 1\0"
 3102      435F4154 
 3102      4F4D4943 
 3102      5F4C4C4F 
 3102      4E475F4C 
 3103 172d 01       		.byte	0x1
GAS LISTING C:\Users\PRESID~1\AppData\Local\Temp\ccrvaYae.s 			page 84


 3104 172e 00       		.uleb128 0
 3105 172f 5F5F4743 		.ascii "__GCC_ATOMIC_TEST_AND_SET_TRUEVAL 1\0"
 3105      435F4154 
 3105      4F4D4943 
 3105      5F544553 
 3105      545F414E 
 3106 1753 01       		.byte	0x1
 3107 1754 00       		.uleb128 0
 3108 1755 5F5F4743 		.ascii "__GCC_ATOMIC_POINTER_LOCK_FREE 1\0"
 3108      435F4154 
 3108      4F4D4943 
 3108      5F504F49 
 3108      4E544552 
 3109 1776 01       		.byte	0x1
 3110 1777 00       		.uleb128 0
 3111 1778 5F5F4743 		.ascii "__GCC_HAVE_DWARF2_CFI_ASM 1\0"
 3111      435F4841 
 3111      56455F44 
 3111      57415246 
 3111      325F4346 
 3112 1794 01       		.byte	0x1
 3113 1795 00       		.uleb128 0
 3114 1796 5F5F5052 		.ascii "__PRAGMA_REDEFINE_EXTNAME 1\0"
 3114      41474D41 
 3114      5F524544 
 3114      4546494E 
 3114      455F4558 
 3115 17b2 01       		.byte	0x1
 3116 17b3 00       		.uleb128 0
 3117 17b4 5F5F5349 		.ascii "__SIZEOF_WCHAR_T__ 2\0"
 3117      5A454F46 
 3117      5F574348 
 3117      41525F54 
 3117      5F5F2032 
 3118 17c9 01       		.byte	0x1
 3119 17ca 00       		.uleb128 0
 3120 17cb 5F5F5349 		.ascii "__SIZEOF_WINT_T__ 2\0"
 3120      5A454F46 
 3120      5F57494E 
 3120      545F545F 
 3120      5F203200 
 3121 17df 01       		.byte	0x1
 3122 17e0 00       		.uleb128 0
 3123 17e1 5F5F5349 		.ascii "__SIZEOF_PTRDIFF_T__ 4\0"
 3123      5A454F46 
 3123      5F505452 
 3123      44494646 
 3123      5F545F5F 
 3124 17f8 01       		.byte	0x1
 3125 17f9 00       		.uleb128 0
 3126 17fa 5F5F6933 		.ascii "__i386 1\0"
 3126      38362031 
 3126      00
 3127 1803 01       		.byte	0x1
 3128 1804 00       		.uleb128 0
 3129 1805 5F5F6933 		.ascii "__i386__ 1\0"
 3129      38365F5F 
GAS LISTING C:\Users\PRESID~1\AppData\Local\Temp\ccrvaYae.s 			page 85


 3129      203100
 3130 1810 01       		.byte	0x1
 3131 1811 00       		.uleb128 0
 3132 1812 5F5F4154 		.ascii "__ATOMIC_HLE_ACQUIRE 65536\0"
 3132      4F4D4943 
 3132      5F484C45 
 3132      5F414351 
 3132      55495245 
 3133 182d 01       		.byte	0x1
 3134 182e 00       		.uleb128 0
 3135 182f 5F5F4154 		.ascii "__ATOMIC_HLE_RELEASE 131072\0"
 3135      4F4D4943 
 3135      5F484C45 
 3135      5F52454C 
 3135      45415345 
 3136 184b 01       		.byte	0x1
 3137 184c 00       		.uleb128 0
 3138 184d 5F5F7475 		.ascii "__tune_i386__ 1\0"
 3138      6E655F69 
 3138      3338365F 
 3138      5F203100 
 3139 185d 01       		.byte	0x1
 3140 185e 00       		.uleb128 0
 3141 185f 5F5F636F 		.ascii "__code_model_32__ 1\0"
 3141      64655F6D 
 3141      6F64656C 
 3141      5F33325F 
 3141      5F203100 
 3142 1873 01       		.byte	0x1
 3143 1874 00       		.uleb128 0
 3144 1875 5F583836 		.ascii "_X86_ 1\0"
 3144      5F203100 
 3145 187d 01       		.byte	0x1
 3146 187e 00       		.uleb128 0
 3147 187f 5F5F7374 		.ascii "__stdcall __attribute__((__stdcall__))\0"
 3147      6463616C 
 3147      6C205F5F 
 3147      61747472 
 3147      69627574 
 3148 18a6 01       		.byte	0x1
 3149 18a7 00       		.uleb128 0
 3150 18a8 5F5F6661 		.ascii "__fastcall __attribute__((__fastcall__))\0"
 3150      73746361 
 3150      6C6C205F 
 3150      5F617474 
 3150      72696275 
 3151 18d1 01       		.byte	0x1
 3152 18d2 00       		.uleb128 0
 3153 18d3 5F5F7468 		.ascii "__thiscall __attribute__((__thiscall__))\0"
 3153      69736361 
 3153      6C6C205F 
 3153      5F617474 
 3153      72696275 
 3154 18fc 01       		.byte	0x1
 3155 18fd 00       		.uleb128 0
 3156 18fe 5F5F6364 		.ascii "__cdecl __attribute__((__cdecl__))\0"
 3156      65636C20 
GAS LISTING C:\Users\PRESID~1\AppData\Local\Temp\ccrvaYae.s 			page 86


 3156      5F5F6174 
 3156      74726962 
 3156      7574655F 
 3157 1921 01       		.byte	0x1
 3158 1922 00       		.uleb128 0
 3159 1923 5F5F4758 		.ascii "__GXX_MERGED_TYPEINFO_NAMES 0\0"
 3159      585F4D45 
 3159      52474544 
 3159      5F545950 
 3159      45494E46 
 3160 1941 01       		.byte	0x1
 3161 1942 00       		.uleb128 0
 3162 1943 5F5F4758 		.ascii "__GXX_TYPEINFO_EQUALITY_INLINE 0\0"
 3162      585F5459 
 3162      5045494E 
 3162      464F5F45 
 3162      5155414C 
 3163 1964 01       		.byte	0x1
 3164 1965 00       		.uleb128 0
 3165 1966 5F5F4D53 		.ascii "__MSVCRT__ 1\0"
 3165      56435254 
 3165      5F5F2031 
 3165      00
 3166 1973 01       		.byte	0x1
 3167 1974 00       		.uleb128 0
 3168 1975 5F5F4D49 		.ascii "__MINGW32__ 1\0"
 3168      4E475733 
 3168      325F5F20 
 3168      3100
 3169 1983 01       		.byte	0x1
 3170 1984 00       		.uleb128 0
 3171 1985 5F57494E 		.ascii "_WIN32 1\0"
 3171      33322031 
 3171      00
 3172 198e 01       		.byte	0x1
 3173 198f 00       		.uleb128 0
 3174 1990 5F5F5749 		.ascii "__WIN32 1\0"
 3174      4E333220 
 3174      3100
 3175 199a 01       		.byte	0x1
 3176 199b 00       		.uleb128 0
 3177 199c 5F5F5749 		.ascii "__WIN32__ 1\0"
 3177      4E33325F 
 3177      5F203100 
 3178 19a8 01       		.byte	0x1
 3179 19a9 00       		.uleb128 0
 3180 19aa 5F5F5749 		.ascii "__WINNT 1\0"
 3180      4E4E5420 
 3180      3100
 3181 19b4 01       		.byte	0x1
 3182 19b5 00       		.uleb128 0
 3183 19b6 5F5F5749 		.ascii "__WINNT__ 1\0"
 3183      4E4E545F 
 3183      5F203100 
 3184 19c2 01       		.byte	0x1
 3185 19c3 00       		.uleb128 0
 3186 19c4 5F494E54 		.ascii "_INTEGRAL_MAX_BITS 64\0"
GAS LISTING C:\Users\PRESID~1\AppData\Local\Temp\ccrvaYae.s 			page 87


 3186      45475241 
 3186      4C5F4D41 
 3186      585F4249 
 3186      54532036 
 3187 19da 01       		.byte	0x1
 3188 19db 00       		.uleb128 0
 3189 19dc 5F5F6465 		.ascii "__declspec(x) __attribute__((x))\0"
 3189      636C7370 
 3189      65632878 
 3189      29205F5F 
 3189      61747472 
 3190 19fd 01       		.byte	0x1
 3191 19fe 00       		.uleb128 0
 3192 19ff 5F5F4445 		.ascii "__DECIMAL_BID_FORMAT__ 1\0"
 3192      43494D41 
 3192      4C5F4249 
 3192      445F464F 
 3192      524D4154 
 3193 1a18 01       		.byte	0x1
 3194 1a19 00       		.uleb128 0
 3195 1a1a 4346475F 		.ascii "CFG_PROCESSOR 3\0"
 3195      50524F43 
 3195      4553534F 
 3195      52203300 
 3196 1a2a 03       		.byte	0x3
 3197 1a2b 00       		.uleb128 0
 3198 1a2c 01       		.uleb128 0x1
 3199              		.file 6 "E:/NeuOrga/Programmieren/c_cpp/github_os/input/src/os_base/os_firstinc.h"
 3200 1a2d 03       		.byte	0x3
 3201 1a2e 01       		.uleb128 0x1
 3202 1a2f 06       		.uleb128 0x6
 3203 1a30 01       		.byte	0x1
 3204 1a31 02       		.uleb128 0x2
 3205 1a32 5F6F735F 		.ascii "_os_firstinc_h_ \0"
 3205      66697273 
 3205      74696E63 
 3205      5F685F20 
 3205      00
 3206 1a43 03       		.byte	0x3
 3207 1a44 04       		.uleb128 0x4
 3208 1a45 02       		.uleb128 0x2
 3209 1a46 01       		.byte	0x1
 3210 1a47 02       		.uleb128 0x2
 3211 1a48 5F424153 		.ascii "_BASE_TYPES_H_ \0"
 3211      455F5459 
 3211      5045535F 
 3211      485F2000 
 3212 1a58 01       		.byte	0x1
 3213 1a59 04       		.uleb128 0x4
 3214 1a5a 494E5445 		.ascii "INTEGER_LLP64_IL32P64 1\0"
 3214      4745525F 
 3214      4C4C5036 
 3214      345F494C 
 3214      33325036 
 3215 1a72 01       		.byte	0x1
 3216 1a73 05       		.uleb128 0x5
 3217 1a74 494E5445 		.ascii "INTEGER_LP64_I32LP64 2\0"
GAS LISTING C:\Users\PRESID~1\AppData\Local\Temp\ccrvaYae.s 			page 88


 3217      4745525F 
 3217      4C503634 
 3217      5F493332 
 3217      4C503634 
 3218 1a8b 01       		.byte	0x1
 3219 1a8c 06       		.uleb128 0x6
 3220 1a8d 494E5445 		.ascii "INTEGER_ILP64 3\0"
 3220      4745525F 
 3220      494C5036 
 3220      34203300 
 3221 1a9d 01       		.byte	0x1
 3222 1a9e 07       		.uleb128 0x7
 3223 1a9f 494E5445 		.ascii "INTEGER_SILP64 4\0"
 3223      4745525F 
 3223      53494C50 
 3223      36342034 
 3223      00
 3224 1ab0 01       		.byte	0x1
 3225 1ab1 09       		.uleb128 0x9
 3226 1ab2 4350505F 		.ascii "CPP_VERSION_NONE 0\0"
 3226      56455253 
 3226      494F4E5F 
 3226      4E4F4E45 
 3226      203000
 3227 1ac5 01       		.byte	0x1
 3228 1ac6 0A       		.uleb128 0xa
 3229 1ac7 4350505F 		.ascii "CPP_VERSION_1998 1\0"
 3229      56455253 
 3229      494F4E5F 
 3229      31393938 
 3229      203100
 3230 1ada 01       		.byte	0x1
 3231 1adb 0B       		.uleb128 0xb
 3232 1adc 4350505F 		.ascii "CPP_VERSION_2003 2\0"
 3232      56455253 
 3232      494F4E5F 
 3232      32303033 
 3232      203200
 3233 1aef 01       		.byte	0x1
 3234 1af0 0C       		.uleb128 0xc
 3235 1af1 4350505F 		.ascii "CPP_VERSION_2007 3\0"
 3235      56455253 
 3235      494F4E5F 
 3235      32303037 
 3235      203300
 3236 1b04 01       		.byte	0x1
 3237 1b05 0D       		.uleb128 0xd
 3238 1b06 4350505F 		.ascii "CPP_VERSION_2011 4\0"
 3238      56455253 
 3238      494F4E5F 
 3238      32303131 
 3238      203400
 3239 1b19 01       		.byte	0x1
 3240 1b1a 0E       		.uleb128 0xe
 3241 1b1b 49534F5F 		.ascii "ISO_CPP_VERSION CPP_VERSION_1998\0"
 3241      4350505F 
 3241      56455253 
GAS LISTING C:\Users\PRESID~1\AppData\Local\Temp\ccrvaYae.s 			page 89


 3241      494F4E20 
 3241      4350505F 
 3242 1b3c 01       		.byte	0x1
 3243 1b3d 10       		.uleb128 0x10
 3244 1b3e 494E5445 		.ascii "INTEGER_MODEL INTEGER_LLP64_IL32P64\0"
 3244      4745525F 
 3244      4D4F4445 
 3244      4C20494E 
 3244      54454745 
 3245 1b62 04       		.byte	0x4
 3246 1b63 03       		.byte	0x3
 3247 1b64 05       		.uleb128 0x5
 3248 1b65 03       		.uleb128 0x3
 3249 1b66 01       		.byte	0x1
 3250 1b67 02       		.uleb128 0x2
 3251 1b68 5F6F735F 		.ascii "_os_common_h_ \0"
 3251      636F6D6D 
 3251      6F6E5F68 
 3251      5F2000
 3252 1b77 01       		.byte	0x1
 3253 1b78 06       		.uleb128 0x6
 3254 1b79 46616C73 		.ascii "False 0\0"
 3254      65203000 
 3255 1b81 01       		.byte	0x1
 3256 1b82 07       		.uleb128 0x7
 3257 1b83 54727565 		.ascii "True 1\0"
 3257      203100
 3258 1b8a 01       		.byte	0x1
 3259 1b8b 08       		.uleb128 0x8
 3260 1b8c 46414C53 		.ascii "FALSE False\0"
 3260      45204661 
 3260      6C736500 
 3261 1b98 01       		.byte	0x1
 3262 1b99 09       		.uleb128 0x9
 3263 1b9a 54525545 		.ascii "TRUE True\0"
 3263      20547275 
 3263      6500
 3264 1ba4 01       		.byte	0x1
 3265 1ba5 0A       		.uleb128 0xa
 3266 1ba6 41636365 		.ascii "Accepted 1\0"
 3266      70746564 
 3266      203100
 3267 1bb1 01       		.byte	0x1
 3268 1bb2 0B       		.uleb128 0xb
 3269 1bb3 52656A65 		.ascii "Rejected 0\0"
 3269      63746564 
 3269      203000
 3270 1bbe 01       		.byte	0x1
 3271 1bbf 0C       		.uleb128 0xc
 3272 1bc0 4C6F6361 		.ascii "Local static\0"
 3272      6C207374 
 3272      61746963 
 3272      00
 3273 1bcd 01       		.byte	0x1
 3274 1bce 0D       		.uleb128 0xd
 3275 1bcf 4C6F6361 		.ascii "Local_inline static __inline__\0"
 3275      6C5F696E 
GAS LISTING C:\Users\PRESID~1\AppData\Local\Temp\ccrvaYae.s 			page 90


 3275      6C696E65 
 3275      20737461 
 3275      74696320 
 3276 1bee 01       		.byte	0x1
 3277 1bef 0E       		.uleb128 0xe
 3278 1bf0 476C6F62 		.ascii "Global_inline __inline__\0"
 3278      616C5F69 
 3278      6E6C696E 
 3278      65205F5F 
 3278      696E6C69 
 3279 1c09 01       		.byte	0x1
 3280 1c0a 0F       		.uleb128 0xf
 3281 1c0b 52656665 		.ascii "ReferenceUnusedParameter(x) ((x) = (x))\0"
 3281      72656E63 
 3281      65556E75 
 3281      73656450 
 3281      6172616D 
 3282 1c33 01       		.byte	0x1
 3283 1c34 12       		.uleb128 0x12
 3284 1c35 634D4355 		.ascii "cMCU_SIMULATION 1\0"
 3284      5F53494D 
 3284      554C4154 
 3284      494F4E20 
 3284      3100
 3285 1c47 01       		.byte	0x1
 3286 1c48 13       		.uleb128 0x13
 3287 1c49 634D4355 		.ascii "cMCU_POWERPC 2\0"
 3287      5F504F57 
 3287      45525043 
 3287      203200
 3288 1c58 01       		.byte	0x1
 3289 1c59 14       		.uleb128 0x14
 3290 1c5a 634D4355 		.ascii "cMCU_X86 3\0"
 3290      5F583836 
 3290      203300
 3291 1c65 01       		.byte	0x1
 3292 1c66 15       		.uleb128 0x15
 3293 1c67 634D4355 		.ascii "cMCU_CORTEX_M4 4\0"
 3293      5F434F52 
 3293      5445585F 
 3293      4D342034 
 3293      00
 3294 1c78 01       		.byte	0x1
 3295 1c79 18       		.uleb128 0x18
 3296 1c7a 4E525F4F 		.ascii "NR_OF_CORES 1\0"
 3296      465F434F 
 3296      52455320 
 3296      3100
 3297 1c88 01       		.byte	0x1
 3298 1c89 25       		.uleb128 0x25
 3299 1c8a 44697361 		.ascii "DisableInterrupts() \0"
 3299      626C6549 
 3299      6E746572 
 3299      72757074 
 3299      73282920 
 3300 1c9f 01       		.byte	0x1
 3301 1ca0 26       		.uleb128 0x26
GAS LISTING C:\Users\PRESID~1\AppData\Local\Temp\ccrvaYae.s 			page 91


 3302 1ca1 456E6162 		.ascii "EnableInterrupts() \0"
 3302      6C65496E 
 3302      74657272 
 3302      75707473 
 3302      28292000 
 3303 1cb5 01       		.byte	0x1
 3304 1cb6 27       		.uleb128 0x27
 3305 1cb7 50726976 		.ascii "Privilige_level_save_current() \0"
 3305      696C6967 
 3305      655F6C65 
 3305      76656C5F 
 3305      73617665 
 3306 1cd7 01       		.byte	0x1
 3307 1cd8 28       		.uleb128 0x28
 3308 1cd9 50726976 		.ascii "Privilige_level_enter_kernel_mode() \0"
 3308      696C6967 
 3308      655F6C65 
 3308      76656C5F 
 3308      656E7465 
 3309 1cfe 01       		.byte	0x1
 3310 1cff 29       		.uleb128 0x29
 3311 1d00 50726976 		.ascii "Privilige_level_restore_saved() \0"
 3311      696C6967 
 3311      655F6C65 
 3311      76656C5F 
 3311      72657374 
 3312 1d21 01       		.byte	0x1
 3313 1d22 2A       		.uleb128 0x2a
 3314 1d23 48616C74 		.ascii "HaltMcu() \0"
 3314      4D637528 
 3314      292000
 3315 1d2e 04       		.byte	0x4
 3316              		.file 7 "E:/NeuOrga/Programmieren/c_cpp/github_os/input/src/os_base/../os_base/os_ram.h"
 3317 1d2f 03       		.byte	0x3
 3318 1d30 07       		.uleb128 0x7
 3319 1d31 07       		.uleb128 0x7
 3320 1d32 01       		.byte	0x1
 3321 1d33 02       		.uleb128 0x2
 3322 1d34 5F4F535F 		.ascii "_OS_RAM_H_ \0"
 3322      52414D5F 
 3322      485F2000 
 3323              		.file 8 "E:/NeuOrga/Programmieren/c_cpp/github_os/input/src/os_base/../os_base/os_firstinc.h"
 3324 1d40 03       		.byte	0x3
 3325 1d41 04       		.uleb128 0x4
 3326 1d42 08       		.uleb128 0x8
 3327 1d43 04       		.byte	0x4
 3328              		.file 9 "E:/NeuOrga/Programmieren/c_cpp/github_os/input/src/os_base/../os_base/os_stack.h"
 3329 1d44 03       		.byte	0x3
 3330 1d45 05       		.uleb128 0x5
 3331 1d46 09       		.uleb128 0x9
 3332 1d47 01       		.byte	0x1
 3333 1d48 02       		.uleb128 0x2
 3334 1d49 5F6F735F 		.ascii "_os_stack_h_ \0"
 3334      73746163 
 3334      6B5F685F 
 3334      2000
 3335 1d57 01       		.byte	0x1
GAS LISTING C:\Users\PRESID~1\AppData\Local\Temp\ccrvaYae.s 			page 92


 3336 1d58 04       		.uleb128 0x4
 3337 1d59 4F535F53 		.ascii "OS_STACK_SIZE 0x100\0"
 3337      5441434B 
 3337      5F53495A 
 3337      45203078 
 3337      31303000 
 3338 1d6d 01       		.byte	0x1
 3339 1d6e 06       		.uleb128 0x6
 3340 1d6f 4F535F53 		.ascii "OS_STACK_SIZE_END 0x01u\0"
 3340      5441434B 
 3340      5F53495A 
 3340      455F454E 
 3340      44203078 
 3341 1d87 04       		.byte	0x4
 3342              		.file 10 "E:/NeuOrga/Programmieren/c_cpp/github_os/input/src/os_base/../os_base/os_heap.h"
 3343 1d88 03       		.byte	0x3
 3344 1d89 06       		.uleb128 0x6
 3345 1d8a 0A       		.uleb128 0xa
 3346 1d8b 01       		.byte	0x1
 3347 1d8c 02       		.uleb128 0x2
 3348 1d8d 5F6F735F 		.ascii "_os_heap_h_ \0"
 3348      68656170 
 3348      5F685F20 
 3348      00
 3349 1d9a 01       		.byte	0x1
 3350 1d9b 05       		.uleb128 0x5
 3351 1d9c 48454150 		.ascii "HEAP_SIZE 10000\0"
 3351      5F53495A 
 3351      45203130 
 3351      30303000 
 3352 1dac 01       		.byte	0x1
 3353 1dad 06       		.uleb128 0x6
 3354 1dae 4D494E5F 		.ascii "MIN_BLOCK_SIZE_HEAP 8\0"
 3354      424C4F43 
 3354      4B5F5349 
 3354      5A455F48 
 3354      45415020 
 3355 1dc4 01       		.byte	0x1
 3356 1dc5 09       		.uleb128 0x9
 3357 1dc6 48454150 		.ascii "HEAP_OFFSET_FOR_SIZE 0\0"
 3357      5F4F4646 
 3357      5345545F 
 3357      464F525F 
 3357      53495A45 
 3358 1ddd 01       		.byte	0x1
 3359 1dde 0A       		.uleb128 0xa
 3360 1ddf 48454150 		.ascii "HEAP_OFFSET_FOR_USED_SIZE 4\0"
 3360      5F4F4646 
 3360      5345545F 
 3360      464F525F 
 3360      55534544 
 3361 1dfb 01       		.byte	0x1
 3362 1dfc 0B       		.uleb128 0xb
 3363 1dfd 48454150 		.ascii "HEAP_OFFSET_FOR_CHUNK 8\0"
 3363      5F4F4646 
 3363      5345545F 
 3363      464F525F 
GAS LISTING C:\Users\PRESID~1\AppData\Local\Temp\ccrvaYae.s 			page 93


 3363      4348554E 
 3364 1e15 04       		.byte	0x4
 3365 1e16 04       		.byte	0x4
 3366              		.file 11 "E:/NeuOrga/Programmieren/c_cpp/github_os/input/src/os_base/../os_sim/lld_global.h"
 3367 1e17 03       		.byte	0x3
 3368 1e18 0A       		.uleb128 0xa
 3369 1e19 0B       		.uleb128 0xb
 3370 1e1a 01       		.byte	0x1
 3371 1e1b 02       		.uleb128 0x2
 3372 1e1c 5F6C6C64 		.ascii "_lld_global_h_ \0"
 3372      5F676C6F 
 3372      62616C5F 
 3372      685F2000 
 3373              		.file 12 "E:/NeuOrga/Programmieren/c_cpp/github_os/input/src/os_base/../os_sim/lld_core.h"
 3374 1e2c 03       		.byte	0x3
 3375 1e2d 04       		.uleb128 0x4
 3376 1e2e 0C       		.uleb128 0xc
 3377 1e2f 01       		.byte	0x1
 3378 1e30 02       		.uleb128 0x2
 3379 1e31 5F6C6C64 		.ascii "_lld_core_h_ \0"
 3379      5F636F72 
 3379      655F685F 
 3379      2000
 3380              		.file 13 "E:/NeuOrga/Programmieren/c_cpp/github_os/input/src/os_base/../os_sim/../os_base/os_first
 3381 1e3f 03       		.byte	0x3
 3382 1e40 03       		.uleb128 0x3
 3383 1e41 0D       		.uleb128 0xd
 3384 1e42 04       		.byte	0x4
 3385 1e43 04       		.byte	0x4
 3386              		.file 14 "E:/NeuOrga/Programmieren/c_cpp/github_os/input/src/os_base/../os_sim/lld_interrupt.h"
 3387 1e44 03       		.byte	0x3
 3388 1e45 05       		.uleb128 0x5
 3389 1e46 0E       		.uleb128 0xe
 3390 1e47 01       		.byte	0x1
 3391 1e48 02       		.uleb128 0x2
 3392 1e49 5F6C6C64 		.ascii "_lld_interrupt_h_ \0"
 3392      5F696E74 
 3392      65727275 
 3392      70745F68 
 3392      5F2000
 3393 1e5c 01       		.byte	0x1
 3394 1e5d 05       		.uleb128 0x5
 3395 1e5e 6F735F69 		.ascii "os_interrupt_swi_1 asm(\"swi 1\")\0"
 3395      6E746572 
 3395      72757074 
 3395      5F737769 
 3395      5F312061 
 3396 1e7e 01       		.byte	0x1
 3397 1e7f 06       		.uleb128 0x6
 3398 1e80 6F735F69 		.ascii "os_interrupt_swi_2 asm(\"swi 2\")\0"
 3398      6E746572 
 3398      72757074 
 3398      5F737769 
 3398      5F322061 
 3399 1ea0 01       		.byte	0x1
 3400 1ea1 07       		.uleb128 0x7
 3401 1ea2 6F735F69 		.ascii "os_interrupt_swi_3 asm(\"swi 3\")\0"
GAS LISTING C:\Users\PRESID~1\AppData\Local\Temp\ccrvaYae.s 			page 94


 3401      6E746572 
 3401      72757074 
 3401      5F737769 
 3401      5F332061 
 3402 1ec2 01       		.byte	0x1
 3403 1ec3 08       		.uleb128 0x8
 3404 1ec4 6F735F69 		.ascii "os_interrupt_swi_4 asm(\"swi 4\")\0"
 3404      6E746572 
 3404      72757074 
 3404      5F737769 
 3404      5F342061 
 3405 1ee4 01       		.byte	0x1
 3406 1ee5 09       		.uleb128 0x9
 3407 1ee6 6F735F69 		.ascii "os_interrupt_swi_5 asm(\"swi 5\")\0"
 3407      6E746572 
 3407      72757074 
 3407      5F737769 
 3407      5F352061 
 3408 1f06 04       		.byte	0x4
 3409              		.file 15 "E:/NeuOrga/Programmieren/c_cpp/github_os/input/src/os_base/../os_sim/lld_mmu.h"
 3410 1f07 03       		.byte	0x3
 3411 1f08 06       		.uleb128 0x6
 3412 1f09 0F       		.uleb128 0xf
 3413 1f0a 01       		.byte	0x1
 3414 1f0b 02       		.uleb128 0x2
 3415 1f0c 5F6C6C64 		.ascii "_lld_mmu_h_ \0"
 3415      5F6D6D75 
 3415      5F685F20 
 3415      00
 3416 1f19 04       		.byte	0x4
 3417              		.file 16 "E:/NeuOrga/Programmieren/c_cpp/github_os/input/src/os_base/../os_sim/lld_timer.h"
 3418 1f1a 03       		.byte	0x3
 3419 1f1b 07       		.uleb128 0x7
 3420 1f1c 10       		.uleb128 0x10
 3421 1f1d 01       		.byte	0x1
 3422 1f1e 02       		.uleb128 0x2
 3423 1f1f 5F6C6C64 		.ascii "_lld_timer_h_ \0"
 3423      5F74696D 
 3423      65725F68 
 3423      5F2000
 3424 1f2e 04       		.byte	0x4
 3425              		.file 17 "E:/NeuOrga/Programmieren/c_cpp/github_os/input/src/os_base/../os_sim/lld_power.h"
 3426 1f2f 03       		.byte	0x3
 3427 1f30 08       		.uleb128 0x8
 3428 1f31 11       		.uleb128 0x11
 3429 1f32 01       		.byte	0x1
 3430 1f33 02       		.uleb128 0x2
 3431 1f34 5F6C6C64 		.ascii "_lld_power_h_ \0"
 3431      5F706F77 
 3431      65725F68 
 3431      5F2000
 3432 1f43 04       		.byte	0x4
 3433              		.file 18 "E:/NeuOrga/Programmieren/c_cpp/github_os/input/src/os_base/../os_sim/lld_ram.h"
 3434 1f44 03       		.byte	0x3
 3435 1f45 09       		.uleb128 0x9
 3436 1f46 12       		.uleb128 0x12
 3437 1f47 01       		.byte	0x1
GAS LISTING C:\Users\PRESID~1\AppData\Local\Temp\ccrvaYae.s 			page 95


 3438 1f48 02       		.uleb128 0x2
 3439 1f49 5F6C6C64 		.ascii "_lld_ram_h_ \0"
 3439      5F72616D 
 3439      5F685F20 
 3439      00
 3440 1f56 04       		.byte	0x4
 3441 1f57 03       		.byte	0x3
 3442 1f58 0A       		.uleb128 0xa
 3443 1f59 04       		.uleb128 0x4
 3444 1f5a 01       		.byte	0x1
 3445 1f5b 02       		.uleb128 0x2
 3446 1f5c 5F6F735F 		.ascii "_os_task_common_h_ \0"
 3446      7461736B 
 3446      5F636F6D 
 3446      6D6F6E5F 
 3446      685F2000 
 3447              		.file 19 "E:/NeuOrga/Programmieren/c_cpp/github_os/input/src/os_base/../os_sim/../os_base/os_task_
 3448 1f70 03       		.byte	0x3
 3449 1f71 04       		.uleb128 0x4
 3450 1f72 13       		.uleb128 0x13
 3451 1f73 01       		.byte	0x1
 3452 1f74 02       		.uleb128 0x2
 3453 1f75 5F6F735F 		.ascii "_os_task_config_h_ \0"
 3453      7461736B 
 3453      5F636F6E 
 3453      6669675F 
 3453      685F2000 
 3454 1f89 01       		.byte	0x1
 3455 1f8a 05       		.uleb128 0x5
 3456 1f8b 53636865 		.ascii "SchedulerFrequency (1.0e3)\0"
 3456      64756C65 
 3456      72467265 
 3456      7175656E 
 3456      63792028 
 3457 1fa6 01       		.byte	0x1
 3458 1fa7 06       		.uleb128 0x6
 3459 1fa8 4D696E54 		.ascii "MinTimeSlice_s (1.0/SchedulerFrequency)\0"
 3459      696D6553 
 3459      6C696365 
 3459      5F732028 
 3459      312E302F 
 3460 1fd0 01       		.byte	0x1
 3461 1fd1 07       		.uleb128 0x7
 3462 1fd2 4D696E54 		.ascii "MinTimeSlice_us ((1.0/SchedulerFrequency)*1e6)\0"
 3462      696D6553 
 3462      6C696365 
 3462      5F757320 
 3462      2828312E 
 3463 2001 01       		.byte	0x1
 3464 2002 08       		.uleb128 0x8
 3465 2003 5461736B 		.ascii "Task_min_time (1e0)\0"
 3465      5F6D696E 
 3465      5F74696D 
 3465      65202831 
 3465      65302900 
 3466 2017 01       		.byte	0x1
 3467 2018 09       		.uleb128 0x9
GAS LISTING C:\Users\PRESID~1\AppData\Local\Temp\ccrvaYae.s 			page 96


 3468 2019 4E554D42 		.ascii "NUMBER_OF_TASKS 5\0"
 3468      45525F4F 
 3468      465F5441 
 3468      534B5320 
 3468      3500
 3469 202b 01       		.byte	0x1
 3470 202c 0A       		.uleb128 0xa
 3471 202d 4D41585F 		.ascii "MAX_RUN_QUEUE_SIZE (NUMBER_OF_TASKS)\0"
 3471      52554E5F 
 3471      51554555 
 3471      455F5349 
 3471      5A452028 
 3472 2052 01       		.byte	0x1
 3473 2053 0B       		.uleb128 0xb
 3474 2054 4D41585F 		.ascii "MAX_RUN_PQUEUE_SIZE MAX_RUN_QUEUE_SIZE\0"
 3474      52554E5F 
 3474      50515545 
 3474      55455F53 
 3474      495A4520 
 3475 207b 01       		.byte	0x1
 3476 207c 0D       		.uleb128 0xd
 3477 207d 5441534B 		.ascii "TASK_STACK_SIZE 200\0"
 3477      5F535441 
 3477      434B5F53 
 3477      495A4520 
 3477      32303000 
 3478 2091 01       		.byte	0x1
 3479 2092 10       		.uleb128 0x10
 3480 2093 4D535F50 		.ascii "MS_PER_SEC (1000)\0"
 3480      45525F53 
 3480      45432028 
 3480      31303030 
 3480      2900
 3481 20a5 01       		.byte	0x1
 3482 20a6 11       		.uleb128 0x11
 3483 20a7 5553455F 		.ascii "USE_STATIC_CREATED_TASKS True\0"
 3483      53544154 
 3483      49435F43 
 3483      52454154 
 3483      45445F54 
 3484 20c5 04       		.byte	0x4
 3485              		.file 20 "E:/NeuOrga/Programmieren/c_cpp/github_os/input/src/os_base/../os_sim/../os_base/os_init_
 3486 20c6 03       		.byte	0x3
 3487 20c7 05       		.uleb128 0x5
 3488 20c8 14       		.uleb128 0x14
 3489 20c9 01       		.byte	0x1
 3490 20ca 02       		.uleb128 0x2
 3491 20cb 5F6F735F 		.ascii "_os_init_task_system_h_ \0"
 3491      696E6974 
 3491      5F746173 
 3491      6B5F7379 
 3491      7374656D 
 3492 20e4 04       		.byte	0x4
 3493 20e5 01       		.byte	0x1
 3494 20e6 5C       		.uleb128 0x5c
 3495 20e7 6F735F53 		.ascii "os_SaveTaskPtr(task_ptr,task_name) (TASK_PTR[(task_name)] = (task_ptr))\0"
 3495      61766554 
GAS LISTING C:\Users\PRESID~1\AppData\Local\Temp\ccrvaYae.s 			page 97


 3495      61736B50 
 3495      74722874 
 3495      61736B5F 
 3496 212f 01       		.byte	0x1
 3497 2130 5D       		.uleb128 0x5d
 3498 2131 6F735F47 		.ascii "os_GetTaskPtr(task_name) ((task_t*) TASK_PTR[(task_name)])\0"
 3498      65745461 
 3498      736B5074 
 3498      72287461 
 3498      736B5F6E 
 3499 216c 04       		.byte	0x4
 3500 216d 04       		.byte	0x4
 3501              		.file 21 "E:/NeuOrga/Programmieren/c_cpp/github_os/input/src/os_base/../os_user_code/led.h"
 3502 216e 03       		.byte	0x3
 3503 216f 0E       		.uleb128 0xe
 3504 2170 15       		.uleb128 0x15
 3505 2171 01       		.byte	0x1
 3506 2172 02       		.uleb128 0x2
 3507 2173 5F4C4544 		.ascii "_LED_H_ \0"
 3507      5F485F20 
 3507      00
 3508 217c 04       		.byte	0x4
 3509 217d 04       		.byte	0x4
 3510              		.file 22 "E:/NeuOrga/Programmieren/c_cpp/github_os/input/src/os_base/os_task_common.h"
 3511 217e 03       		.byte	0x3
 3512 217f 02       		.uleb128 0x2
 3513 2180 16       		.uleb128 0x16
 3514 2181 04       		.byte	0x4
 3515 2182 03       		.byte	0x3
 3516 2183 03       		.uleb128 0x3
 3517 2184 05       		.uleb128 0x5
 3518 2185 01       		.byte	0x1
 3519 2186 02       		.uleb128 0x2
 3520 2187 5F6F735F 		.ascii "_os_task_queue_h_ \0"
 3520      7461736B 
 3520      5F717565 
 3520      75655F68 
 3520      5F2000
 3521 219a 01       		.byte	0x1
 3522 219b 06       		.uleb128 0x6
 3523 219c 46697273 		.ascii "First_task (0)\0"
 3523      745F7461 
 3523      736B2028 
 3523      302900
 3524 21ab 01       		.byte	0x1
 3525 21ac 07       		.uleb128 0x7
 3526 21ad 4C617374 		.ascii "Last_task (MAX_RUN_QUEUE_SIZE-1)\0"
 3526      5F746173 
 3526      6B20284D 
 3526      41585F52 
 3526      554E5F51 
 3527 21ce 01       		.byte	0x1
 3528 21cf 09       		.uleb128 0x9
 3529 21d0 466F725F 		.ascii "For_all_tasks_in_queue(var) for((var) = First_task; (var) <= Last_task; (var)++)\0"
 3529      616C6C5F 
 3529      7461736B 
 3529      735F696E 
GAS LISTING C:\Users\PRESID~1\AppData\Local\Temp\ccrvaYae.s 			page 98


 3529      5F717565 
 3530 2221 04       		.byte	0x4
 3531              		.file 23 "E:/NeuOrga/Programmieren/c_cpp/github_os/input/src/os_base/os_task_scheduler.h"
 3532 2222 03       		.byte	0x3
 3533 2223 04       		.uleb128 0x4
 3534 2224 17       		.uleb128 0x17
 3535 2225 01       		.byte	0x1
 3536 2226 02       		.uleb128 0x2
 3537 2227 5F6F735F 		.ascii "_os_task_scheduler_h_ \0"
 3537      7461736B 
 3537      5F736368 
 3537      6564756C 
 3537      65725F68 
 3538 223e 01       		.byte	0x1
 3539 223f 07       		.uleb128 0x7
 3540 2240 5461736B 		.ascii "Task_0_ptr 0\0"
 3540      5F305F70 
 3540      74722030 
 3540      00
 3541 224d 01       		.byte	0x1
 3542 224e 08       		.uleb128 0x8
 3543 224f 5461736B 		.ascii "Task_1_ptr 1\0"
 3543      5F315F70 
 3543      74722031 
 3543      00
 3544 225c 01       		.byte	0x1
 3545 225d 09       		.uleb128 0x9
 3546 225e 5461736B 		.ascii "Task_2_ptr 2\0"
 3546      5F325F70 
 3546      74722032 
 3546      00
 3547 226b 01       		.byte	0x1
 3548 226c 0A       		.uleb128 0xa
 3549 226d 5461736B 		.ascii "Task_3_ptr 3\0"
 3549      5F335F70 
 3549      74722033 
 3549      00
 3550 227a 01       		.byte	0x1
 3551 227b 0C       		.uleb128 0xc
 3552 227c 4F535F53 		.ascii "OS_SaveTaskPtr(task_ptr,Task_n_ptr) \0"
 3552      61766554 
 3552      61736B50 
 3552      74722874 
 3552      61736B5F 
 3553 22a1 04       		.byte	0x4
 3554 22a2 04       		.byte	0x4
 3555 22a3 00       		.byte	0
 3556              		.section	.debug_line,"dr"
 3557              	Ldebug_line0:
 3558 0000 30040000 		.section	.debug_str,"dr"
 3558      0200F402 
 3558      00000101 
 3558      FB0E0D00 
 3558      01010101 
 3559              	LASF3:
 3560 0000 656C656D 		.ascii "element_nr\0"
 3560      656E745F 
GAS LISTING C:\Users\PRESID~1\AppData\Local\Temp\ccrvaYae.s 			page 99


 3560      6E7200
 3561              	LASF0:
 3562 000b 6578655F 		.ascii "exe_time\0"
 3562      74696D65 
 3562      00
 3563              	LASF1:
 3564 0014 49646C65 		.ascii "IdleTask\0"
 3564      5461736B 
 3564      00
 3565              	LASF2:
 3566 001d 7461736B 		.ascii "task\0"
 3566      00
 3567              		.ident	"GCC: (GNU) 4.9.3"
GAS LISTING C:\Users\PRESID~1\AppData\Local\Temp\ccrvaYae.s 			page 100


DEFINED SYMBOLS
                            *ABS*:00000000 os_task_queue.c
C:\Users\PRESID~1\AppData\Local\Temp\ccrvaYae.s:4      .bss:00000000 _pTASK_RUN_QUEUE
C:\Users\PRESID~1\AppData\Local\Temp\ccrvaYae.s:5      .bss:00000020 _TASK_RUN_QUEUE
C:\Users\PRESID~1\AppData\Local\Temp\ccrvaYae.s:6      .bss:00000200 _RUNNING_TASK
C:\Users\PRESID~1\AppData\Local\Temp\ccrvaYae.s:7      .bss:00000260 _TASK_IDLE_QUEUE
C:\Users\PRESID~1\AppData\Local\Temp\ccrvaYae.s:7      .bss:000002c0 _bTASK_QUEUE_INITIALIZED
C:\Users\PRESID~1\AppData\Local\Temp\ccrvaYae.s:11     .text:00000000 _SET_RUNNING_TASK
C:\Users\PRESID~1\AppData\Local\Temp\ccrvaYae.s:167    .text:00000189 _OS_INIT_TASK_QUEUE
C:\Users\PRESID~1\AppData\Local\Temp\ccrvaYae.s:220    .text:000001dd _AddToTaskQueue
C:\Users\PRESID~1\AppData\Local\Temp\ccrvaYae.s:578    .text:00000555 _DeleteFromTaskQueue
C:\Users\PRESID~1\AppData\Local\Temp\ccrvaYae.s:685    .text:0000065c _GetFromTaskQueue
C:\Users\PRESID~1\AppData\Local\Temp\ccrvaYae.s:705    .text:00000664 _GetFromLinkList
C:\Users\PRESID~1\AppData\Local\Temp\ccrvaYae.s:729    .text:0000067d _DeleteFromLinkList
C:\Users\PRESID~1\AppData\Local\Temp\ccrvaYae.s:753    .text:0000069a _AddToLinkList
C:\Users\PRESID~1\AppData\Local\Temp\ccrvaYae.s:812    .text:000006f9 _UpdateLinkList
C:\Users\PRESID~1\AppData\Local\Temp\ccrvaYae.s:887    .text:00000785 _GetIdleTask
C:\Users\PRESID~1\AppData\Local\Temp\ccrvaYae.s:907    .text:0000078f _AddToIdleTaskQueue
C:\Users\PRESID~1\AppData\Local\Temp\ccrvaYae.s:1062   .text:0000091d _GetRunningTask
C:\Users\PRESID~1\AppData\Local\Temp\ccrvaYae.s:1082   .text:00000927 _OS_INIT_TASK

UNDEFINED SYMBOLS
_OS_Task_InitTaskEnvironment
_task_state_request
_OS_SET_SW_BUG
