GAS LISTING C:\Users\PRESID~1\AppData\Local\Temp\ccPltnJh.s 			page 1


   1              		.file	"os_task_queue.c"
   2              		.text
   3              	Ltext0:
   4              		.globl	_SET_RUNNING_TASK
   6              	_SET_RUNNING_TASK:
   7              	LFB0:
   8              		.file 1 "E:/NeuOrga/Programmieren/c_cpp/github_os/input/src/os_base/os_task_queue.c"
   1:E:/NeuOrga/Programmieren/c_cpp/github_os/input/src/os_base\os_task_queue.c **** #include "os_firstinc.h"
   2:E:/NeuOrga/Programmieren/c_cpp/github_os/input/src/os_base\os_task_queue.c **** #include "os_task_common.h"
   3:E:/NeuOrga/Programmieren/c_cpp/github_os/input/src/os_base\os_task_queue.c **** #include "os_task_queue.h"
   4:E:/NeuOrga/Programmieren/c_cpp/github_os/input/src/os_base\os_task_queue.c **** #include "os_task_scheduler.h"
   5:E:/NeuOrga/Programmieren/c_cpp/github_os/input/src/os_base\os_task_queue.c **** 
   6:E:/NeuOrga/Programmieren/c_cpp/github_os/input/src/os_base\os_task_queue.c **** 
   7:E:/NeuOrga/Programmieren/c_cpp/github_os/input/src/os_base\os_task_queue.c **** 
   8:E:/NeuOrga/Programmieren/c_cpp/github_os/input/src/os_base\os_task_queue.c **** 
   9:E:/NeuOrga/Programmieren/c_cpp/github_os/input/src/os_base\os_task_queue.c **** 
  10:E:/NeuOrga/Programmieren/c_cpp/github_os/input/src/os_base\os_task_queue.c **** /* index 0: current task, 1,2,3,4: next tasks to be executed */
  11:E:/NeuOrga/Programmieren/c_cpp/github_os/input/src/os_base\os_task_queue.c **** /*
  12:E:/NeuOrga/Programmieren/c_cpp/github_os/input/src/os_base\os_task_queue.c **** 1. after execution of task finished(OS_TerminateTask):
  13:E:/NeuOrga/Programmieren/c_cpp/github_os/input/src/os_base\os_task_queue.c ****  - delete run_queue_element         (DeleteFromTaskQueue)
  14:E:/NeuOrga/Programmieren/c_cpp/github_os/input/src/os_base\os_task_queue.c ****  - delete Scheduling queue entry    (DeleteFromSchedulingQueue)
  15:E:/NeuOrga/Programmieren/c_cpp/github_os/input/src/os_base\os_task_queue.c ****  - shift pointers towards index 0   (UpdateSchedulingQueue)
  16:E:/NeuOrga/Programmieren/c_cpp/github_os/input/src/os_base\os_task_queue.c **** 
  17:E:/NeuOrga/Programmieren/c_cpp/github_os/input/src/os_base\os_task_queue.c **** 
  18:E:/NeuOrga/Programmieren/c_cpp/github_os/input/src/os_base\os_task_queue.c ****  2. to add new task (ActivateTask):
  19:E:/NeuOrga/Programmieren/c_cpp/github_os/input/src/os_base\os_task_queue.c ****  - add element to run_queue at first free element (AddToTaskQueue)
  20:E:/NeuOrga/Programmieren/c_cpp/github_os/input/src/os_base\os_task_queue.c ****  - add a reference to the scheduling Queue         (AddToSchedulingQueue)
  21:E:/NeuOrga/Programmieren/c_cpp/github_os/input/src/os_base\os_task_queue.c **** 
  22:E:/NeuOrga/Programmieren/c_cpp/github_os/input/src/os_base\os_task_queue.c ****  3. to start task:
  23:E:/NeuOrga/Programmieren/c_cpp/github_os/input/src/os_base\os_task_queue.c **** - start the task at index = 0                     (GetFromTaskQueue)
  24:E:/NeuOrga/Programmieren/c_cpp/github_os/input/src/os_base\os_task_queue.c **** 
  25:E:/NeuOrga/Programmieren/c_cpp/github_os/input/src/os_base\os_task_queue.c ****  4. to preempt task:
  26:E:/NeuOrga/Programmieren/c_cpp/github_os/input/src/os_base\os_task_queue.c **** - take element of index = 0 of SchedulingQueue and save it somewhere else  (UpdateSchedulingQueue)
  27:E:/NeuOrga/Programmieren/c_cpp/github_os/input/src/os_base\os_task_queue.c **** - shift all entries in SchedulingQueue to 0 by 1                           (UpdateSchedulingQueue)
  28:E:/NeuOrga/Programmieren/c_cpp/github_os/input/src/os_base\os_task_queue.c **** - add saved element at first free entry in SchedulingQueue                 (UpdateSchedulingQueue)
  29:E:/NeuOrga/Programmieren/c_cpp/github_os/input/src/os_base\os_task_queue.c **** - eliminate empty SchedulingQueue entries                                  (UpdateSchedulingQueue)
  30:E:/NeuOrga/Programmieren/c_cpp/github_os/input/src/os_base\os_task_queue.c ****  */
  31:E:/NeuOrga/Programmieren/c_cpp/github_os/input/src/os_base\os_task_queue.c **** 
  32:E:/NeuOrga/Programmieren/c_cpp/github_os/input/src/os_base\os_task_queue.c **** 
  33:E:/NeuOrga/Programmieren/c_cpp/github_os/input/src/os_base\os_task_queue.c **** void SET_RUNNING_TASK(task_t* task, scheduling_t* scheduling_task)
  34:E:/NeuOrga/Programmieren/c_cpp/github_os/input/src/os_base\os_task_queue.c **** {
   9              		.loc 1 34 0
  10              		.cfi_startproc
  11 0000 55       		pushl	%ebp
  12              		.cfi_def_cfa_offset 8
  13              		.cfi_offset 5, -8
  14 0001 89E5     		movl	%esp, %ebp
  15              		.cfi_def_cfa_register 5
  16 0003 83EC18   		subl	$24, %esp
  35:E:/NeuOrga/Programmieren/c_cpp/github_os/input/src/os_base\os_task_queue.c ****    RUNNING_SCHEDULING_QUEUE_ENTRY = scheduling_task;
  17              		.loc 1 35 0
  18 0006 8B450C   		movl	12(%ebp), %eax
  19 0009 A3000000 		movl	%eax, _RUNNING_SCHEDULING_QUEUE_ENTRY
  19      00
  36:E:/NeuOrga/Programmieren/c_cpp/github_os/input/src/os_base\os_task_queue.c ****    if(task != 0)
  20              		.loc 1 36 0
  21 000e 837D0800 		cmpl	$0, 8(%ebp)
GAS LISTING C:\Users\PRESID~1\AppData\Local\Temp\ccPltnJh.s 			page 2


  22 0012 0F84E501 		je	L1
  22      0000
  37:E:/NeuOrga/Programmieren/c_cpp/github_os/input/src/os_base\os_task_queue.c ****    {
  38:E:/NeuOrga/Programmieren/c_cpp/github_os/input/src/os_base\os_task_queue.c ****       (&RUNNING_TASK[0])->active                          = task->active;
  23              		.loc 1 38 0
  24 0018 8B4508   		movl	8(%ebp), %eax
  25 001b 8A00     		movb	(%eax), %al
  26 001d 83E001   		andl	$1, %eax
  27 0020 83E001   		andl	$1, %eax
  28 0023 88C2     		movb	%al, %dl
  29 0025 A0000000 		movb	_RUNNING_TASK, %al
  29      00
  30 002a 83E0FE   		andl	$-2, %eax
  31 002d 09D0     		orl	%edx, %eax
  32 002f A2000000 		movb	%al, _RUNNING_TASK
  32      00
  39:E:/NeuOrga/Programmieren/c_cpp/github_os/input/src/os_base\os_task_queue.c ****       (&RUNNING_TASK[0])->task_queued                     = task->task_queued;
  33              		.loc 1 39 0
  34 0034 8B4508   		movl	8(%ebp), %eax
  35 0037 8A00     		movb	(%eax), %al
  36 0039 D0E8     		shrb	%al
  37 003b 83E001   		andl	$1, %eax
  38 003e 83E001   		andl	$1, %eax
  39 0041 8D1400   		leal	(%eax,%eax), %edx
  40 0044 A0000000 		movb	_RUNNING_TASK, %al
  40      00
  41 0049 83E0FD   		andl	$-3, %eax
  42 004c 09D0     		orl	%edx, %eax
  43 004e A2000000 		movb	%al, _RUNNING_TASK
  43      00
  40:E:/NeuOrga/Programmieren/c_cpp/github_os/input/src/os_base\os_task_queue.c ****       (&RUNNING_TASK[0])->IdleTask                        = task->IdleTask;
  44              		.loc 1 40 0
  45 0053 8B4508   		movl	8(%ebp), %eax
  46 0056 8A00     		movb	(%eax), %al
  47 0058 C0E802   		shrb	$2, %al
  48 005b 83E001   		andl	$1, %eax
  49 005e 83E001   		andl	$1, %eax
  50 0061 8D148500 		leal	0(,%eax,4), %edx
  50      000000
  51 0068 A0000000 		movb	_RUNNING_TASK, %al
  51      00
  52 006d 83E0FB   		andl	$-5, %eax
  53 0070 09D0     		orl	%edx, %eax
  54 0072 A2000000 		movb	%al, _RUNNING_TASK
  54      00
  41:E:/NeuOrga/Programmieren/c_cpp/github_os/input/src/os_base\os_task_queue.c ****       (&RUNNING_TASK[0])->FREE                            = task->FREE;
  55              		.loc 1 41 0
  56 0077 8B4508   		movl	8(%ebp), %eax
  57 007a 8B00     		movl	(%eax), %eax
  58 007c C1E803   		shrl	$3, %eax
  59 007f 8D14C500 		leal	0(,%eax,8), %edx
  59      000000
  60 0086 A1000000 		movl	_RUNNING_TASK, %eax
  60      00
  61 008b 83E007   		andl	$7, %eax
  62 008e 09D0     		orl	%edx, %eax
  63 0090 A3000000 		movl	%eax, _RUNNING_TASK
GAS LISTING C:\Users\PRESID~1\AppData\Local\Temp\ccPltnJh.s 			page 3


  63      00
  42:E:/NeuOrga/Programmieren/c_cpp/github_os/input/src/os_base\os_task_queue.c ****       (&RUNNING_TASK[0])->NrOfInsAllowed                  = task->NrOfInsAllowed;
  64              		.loc 1 42 0
  65 0095 8B4508   		movl	8(%ebp), %eax
  66 0098 8A4004   		movb	4(%eax), %al
  67 009b A2040000 		movb	%al, _RUNNING_TASK+4
  67      00
  43:E:/NeuOrga/Programmieren/c_cpp/github_os/input/src/os_base\os_task_queue.c ****       (&RUNNING_TASK[0])->NrOfInsActivated                = task->NrOfInsActivated;
  68              		.loc 1 43 0
  69 00a0 8B4508   		movl	8(%ebp), %eax
  70 00a3 8A4005   		movb	5(%eax), %al
  71 00a6 A2050000 		movb	%al, _RUNNING_TASK+5
  71      00
  44:E:/NeuOrga/Programmieren/c_cpp/github_os/input/src/os_base\os_task_queue.c ****       Assign(&(&RUNNING_TASK[0])->WaitActUntil          , &task->WaitActUntil);
  72              		.loc 1 44 0
  73 00ab 8B4508   		movl	8(%ebp), %eax
  74 00ae 83C006   		addl	$6, %eax
  75 00b1 89442404 		movl	%eax, 4(%esp)
  76 00b5 C7042406 		movl	$_RUNNING_TASK+6, (%esp)
  76      000000
  77 00bc E8000000 		call	_Assign
  77      00
  45:E:/NeuOrga/Programmieren/c_cpp/github_os/input/src/os_base\os_task_queue.c ****       Assign(&(&RUNNING_TASK[0])->wait_time             , &task->wait_time);
  78              		.loc 1 45 0
  79 00c1 8B4508   		movl	8(%ebp), %eax
  80 00c4 83C016   		addl	$22, %eax
  81 00c7 89442404 		movl	%eax, 4(%esp)
  82 00cb C7042416 		movl	$_RUNNING_TASK+22, (%esp)
  82      000000
  83 00d2 E8000000 		call	_Assign
  83      00
  46:E:/NeuOrga/Programmieren/c_cpp/github_os/input/src/os_base\os_task_queue.c ****       Assign(&(&RUNNING_TASK[0])->TimeToPrioInc         , &task->TimeToPrioInc);
  84              		.loc 1 46 0
  85 00d7 8B4508   		movl	8(%ebp), %eax
  86 00da 83C026   		addl	$38, %eax
  87 00dd 89442404 		movl	%eax, 4(%esp)
  88 00e1 C7042426 		movl	$_RUNNING_TASK+38, (%esp)
  88      000000
  89 00e8 E8000000 		call	_Assign
  89      00
  47:E:/NeuOrga/Programmieren/c_cpp/github_os/input/src/os_base\os_task_queue.c ****       (&RUNNING_TASK[0])->overwaittime_per_prio_inc_step  = task->overwaittime_per_prio_inc_step;
  90              		.loc 1 47 0
  91 00ed 8B4508   		movl	8(%ebp), %eax
  92 00f0 8B4038   		movl	56(%eax), %eax
  93 00f3 A3380000 		movl	%eax, _RUNNING_TASK+56
  93      00
  48:E:/NeuOrga/Programmieren/c_cpp/github_os/input/src/os_base\os_task_queue.c ****       Assign(&(&RUNNING_TASK[0])->max_allowed_wait_time , &task->max_allowed_wait_time);
  94              		.loc 1 48 0
  95 00f8 8B4508   		movl	8(%ebp), %eax
  96 00fb 83C03C   		addl	$60, %eax
  97 00fe 89442404 		movl	%eax, 4(%esp)
  98 0102 C704243C 		movl	$_RUNNING_TASK+60, (%esp)
  98      000000
  99 0109 E8000000 		call	_Assign
  99      00
  49:E:/NeuOrga/Programmieren/c_cpp/github_os/input/src/os_base\os_task_queue.c ****       Assign(&(&RUNNING_TASK[0])->exe_time              , &task->exe_time  );
 100              		.loc 1 49 0
GAS LISTING C:\Users\PRESID~1\AppData\Local\Temp\ccPltnJh.s 			page 4


 101 010e 8B4508   		movl	8(%ebp), %eax
 102 0111 83C04C   		addl	$76, %eax
 103 0114 89442404 		movl	%eax, 4(%esp)
 104 0118 C704244C 		movl	$_RUNNING_TASK+76, (%esp)
 104      000000
 105 011f E8000000 		call	_Assign
 105      00
  50:E:/NeuOrga/Programmieren/c_cpp/github_os/input/src/os_base\os_task_queue.c ****       Assign(&(&RUNNING_TASK[0])->start_time            , &task->start_time);
 106              		.loc 1 50 0
 107 0124 8B4508   		movl	8(%ebp), %eax
 108 0127 83C05C   		addl	$92, %eax
 109 012a 89442404 		movl	%eax, 4(%esp)
 110 012e C704245C 		movl	$_RUNNING_TASK+92, (%esp)
 110      000000
 111 0135 E8000000 		call	_Assign
 111      00
  51:E:/NeuOrga/Programmieren/c_cpp/github_os/input/src/os_base\os_task_queue.c ****       (&RUNNING_TASK[0])->current_prio                    = task->current_prio;
 112              		.loc 1 51 0
 113 013a 8B4508   		movl	8(%ebp), %eax
 114 013d 8A406C   		movb	108(%eax), %al
 115 0140 A26C0000 		movb	%al, _RUNNING_TASK+108
 115      00
  52:E:/NeuOrga/Programmieren/c_cpp/github_os/input/src/os_base\os_task_queue.c ****       (&RUNNING_TASK[0])->default_prio                    = task->default_prio;
 116              		.loc 1 52 0
 117 0145 8B4508   		movl	8(%ebp), %eax
 118 0148 8A406D   		movb	109(%eax), %al
 119 014b A26D0000 		movb	%al, _RUNNING_TASK+109
 119      00
  53:E:/NeuOrga/Programmieren/c_cpp/github_os/input/src/os_base\os_task_queue.c ****       (&RUNNING_TASK[0])->fp                              = task->fp;
 120              		.loc 1 53 0
 121 0150 8B4508   		movl	8(%ebp), %eax
 122 0153 8B4074   		movl	116(%eax), %eax
 123 0156 A3740000 		movl	%eax, _RUNNING_TASK+116
 123      00
  54:E:/NeuOrga/Programmieren/c_cpp/github_os/input/src/os_base\os_task_queue.c ****       (&RUNNING_TASK[0])->state_request                   = task->state_request;
 124              		.loc 1 54 0
 125 015b 8B4508   		movl	8(%ebp), %eax
 126 015e 8B4078   		movl	120(%eax), %eax
 127 0161 A3780000 		movl	%eax, _RUNNING_TASK+120
 127      00
  55:E:/NeuOrga/Programmieren/c_cpp/github_os/input/src/os_base\os_task_queue.c ****       (&RUNNING_TASK[0])->task_state                      = task->task_state;
 128              		.loc 1 55 0
 129 0166 8B4508   		movl	8(%ebp), %eax
 130 0169 8B407C   		movl	124(%eax), %eax
 131 016c A37C0000 		movl	%eax, _RUNNING_TASK+124
 131      00
  56:E:/NeuOrga/Programmieren/c_cpp/github_os/input/src/os_base\os_task_queue.c ****       (&RUNNING_TASK[0])->task_group                      = task->task_group;
 132              		.loc 1 56 0
 133 0171 8B4508   		movl	8(%ebp), %eax
 134 0174 8B808000 		movl	128(%eax), %eax
 134      0000
 135 017a A3800000 		movl	%eax, _RUNNING_TASK+128
 135      00
  57:E:/NeuOrga/Programmieren/c_cpp/github_os/input/src/os_base\os_task_queue.c ****    #if(CFG_PROCESSOR == cMCU_X86)
  58:E:/NeuOrga/Programmieren/c_cpp/github_os/input/src/os_base\os_task_queue.c ****       (&RUNNING_TASK[0])->EAX                             = task->EAX;
 136              		.loc 1 58 0
 137 017f 8B4508   		movl	8(%ebp), %eax
GAS LISTING C:\Users\PRESID~1\AppData\Local\Temp\ccPltnJh.s 			page 5


 138 0182 8B808400 		movl	132(%eax), %eax
 138      0000
 139 0188 A3840000 		movl	%eax, _RUNNING_TASK+132
 139      00
  59:E:/NeuOrga/Programmieren/c_cpp/github_os/input/src/os_base\os_task_queue.c ****       (&RUNNING_TASK[0])->EBX                             = task->EBX;
 140              		.loc 1 59 0
 141 018d 8B4508   		movl	8(%ebp), %eax
 142 0190 8B808800 		movl	136(%eax), %eax
 142      0000
 143 0196 A3880000 		movl	%eax, _RUNNING_TASK+136
 143      00
  60:E:/NeuOrga/Programmieren/c_cpp/github_os/input/src/os_base\os_task_queue.c ****       (&RUNNING_TASK[0])->ECX                             = task->ECX;
 144              		.loc 1 60 0
 145 019b 8B4508   		movl	8(%ebp), %eax
 146 019e 8B808C00 		movl	140(%eax), %eax
 146      0000
 147 01a4 A38C0000 		movl	%eax, _RUNNING_TASK+140
 147      00
  61:E:/NeuOrga/Programmieren/c_cpp/github_os/input/src/os_base\os_task_queue.c ****       (&RUNNING_TASK[0])->EDX                             = task->EDX;
 148              		.loc 1 61 0
 149 01a9 8B4508   		movl	8(%ebp), %eax
 150 01ac 8B809000 		movl	144(%eax), %eax
 150      0000
 151 01b2 A3900000 		movl	%eax, _RUNNING_TASK+144
 151      00
  62:E:/NeuOrga/Programmieren/c_cpp/github_os/input/src/os_base\os_task_queue.c ****    #else
  63:E:/NeuOrga/Programmieren/c_cpp/github_os/input/src/os_base\os_task_queue.c ****       (&RUNNING_TASK[0])->r0                             = task->r0;
  64:E:/NeuOrga/Programmieren/c_cpp/github_os/input/src/os_base\os_task_queue.c ****       (&RUNNING_TASK[0])->r1                             = task->r1;
  65:E:/NeuOrga/Programmieren/c_cpp/github_os/input/src/os_base\os_task_queue.c ****       (&RUNNING_TASK[0])->r2                             = task->r2;
  66:E:/NeuOrga/Programmieren/c_cpp/github_os/input/src/os_base\os_task_queue.c ****       (&RUNNING_TASK[0])->r3                             = task->r3;
  67:E:/NeuOrga/Programmieren/c_cpp/github_os/input/src/os_base\os_task_queue.c ****       (&RUNNING_TASK[0])->r4                             = task->r4;
  68:E:/NeuOrga/Programmieren/c_cpp/github_os/input/src/os_base\os_task_queue.c ****       (&RUNNING_TASK[0])->r5                             = task->r5;
  69:E:/NeuOrga/Programmieren/c_cpp/github_os/input/src/os_base\os_task_queue.c ****       (&RUNNING_TASK[0])->r6                             = task->r6;
  70:E:/NeuOrga/Programmieren/c_cpp/github_os/input/src/os_base\os_task_queue.c ****       (&RUNNING_TASK[0])->r7                             = task->r7;
  71:E:/NeuOrga/Programmieren/c_cpp/github_os/input/src/os_base\os_task_queue.c ****       (&RUNNING_TASK[0])->r8                             = task->r8;
  72:E:/NeuOrga/Programmieren/c_cpp/github_os/input/src/os_base\os_task_queue.c ****       (&RUNNING_TASK[0])->r9                             = task->r9;
  73:E:/NeuOrga/Programmieren/c_cpp/github_os/input/src/os_base\os_task_queue.c ****       (&RUNNING_TASK[0])->r10                            = task->r10;
  74:E:/NeuOrga/Programmieren/c_cpp/github_os/input/src/os_base\os_task_queue.c ****       (&RUNNING_TASK[0])->r11                            = task->r11;
  75:E:/NeuOrga/Programmieren/c_cpp/github_os/input/src/os_base\os_task_queue.c ****       (&RUNNING_TASK[0])->r12                            = task->r12;
  76:E:/NeuOrga/Programmieren/c_cpp/github_os/input/src/os_base\os_task_queue.c ****    #endif
  77:E:/NeuOrga/Programmieren/c_cpp/github_os/input/src/os_base\os_task_queue.c **** 
  78:E:/NeuOrga/Programmieren/c_cpp/github_os/input/src/os_base\os_task_queue.c ****       (&RUNNING_TASK[0])->pStackPointer                   = task->pStackPointer;
 152              		.loc 1 78 0
 153 01b7 8B4508   		movl	8(%ebp), %eax
 154 01ba 8B809400 		movl	148(%eax), %eax
 154      0000
 155 01c0 A3940000 		movl	%eax, _RUNNING_TASK+148
 155      00
  79:E:/NeuOrga/Programmieren/c_cpp/github_os/input/src/os_base\os_task_queue.c ****       (&RUNNING_TASK[0])->pStackPointerByMalloc           = task->pStackPointerByMalloc;
 156              		.loc 1 79 0
 157 01c5 8B4508   		movl	8(%ebp), %eax
 158 01c8 8B809800 		movl	152(%eax), %eax
 158      0000
 159 01ce A3980000 		movl	%eax, _RUNNING_TASK+152
 159      00
  80:E:/NeuOrga/Programmieren/c_cpp/github_os/input/src/os_base\os_task_queue.c ****       (&RUNNING_TASK[0])->pStackPointerStart              = task->pStackPointerStart;
 160              		.loc 1 80 0
GAS LISTING C:\Users\PRESID~1\AppData\Local\Temp\ccPltnJh.s 			page 6


 161 01d3 8B4508   		movl	8(%ebp), %eax
 162 01d6 8B809C00 		movl	156(%eax), %eax
 162      0000
 163 01dc A39C0000 		movl	%eax, _RUNNING_TASK+156
 163      00
  81:E:/NeuOrga/Programmieren/c_cpp/github_os/input/src/os_base\os_task_queue.c ****       (&RUNNING_TASK[0])->StackSize                       = task->StackSize;
 164              		.loc 1 81 0
 165 01e1 8B4508   		movl	8(%ebp), %eax
 166 01e4 8B80A000 		movl	160(%eax), %eax
 166      0000
 167 01ea A3A00000 		movl	%eax, _RUNNING_TASK+160
 167      00
  82:E:/NeuOrga/Programmieren/c_cpp/github_os/input/src/os_base\os_task_queue.c ****       (&RUNNING_TASK[0])->pStackPointerEnd                = task->pStackPointerEnd;
 168              		.loc 1 82 0
 169 01ef 8B4508   		movl	8(%ebp), %eax
 170 01f2 8B80A400 		movl	164(%eax), %eax
 170      0000
 171 01f8 A3A40000 		movl	%eax, _RUNNING_TASK+164
 171      00
 172              	L1:
  83:E:/NeuOrga/Programmieren/c_cpp/github_os/input/src/os_base\os_task_queue.c ****    }
  84:E:/NeuOrga/Programmieren/c_cpp/github_os/input/src/os_base\os_task_queue.c **** }
 173              		.loc 1 84 0
 174 01fd C9       		leave
 175              		.cfi_restore 5
 176              		.cfi_def_cfa 4, 4
 177 01fe C3       		ret
 178              		.cfi_endproc
 179              	LFE0:
 180              		.globl	_OS_InitTaskQueue
 182              	_OS_InitTaskQueue:
 183              	LFB1:
  85:E:/NeuOrga/Programmieren/c_cpp/github_os/input/src/os_base\os_task_queue.c **** 
  86:E:/NeuOrga/Programmieren/c_cpp/github_os/input/src/os_base\os_task_queue.c **** /* task queue handling */
  87:E:/NeuOrga/Programmieren/c_cpp/github_os/input/src/os_base\os_task_queue.c **** void OS_InitTaskQueue(void)
  88:E:/NeuOrga/Programmieren/c_cpp/github_os/input/src/os_base\os_task_queue.c **** {
 184              		.loc 1 88 0
 185              		.cfi_startproc
 186 01ff 55       		pushl	%ebp
 187              		.cfi_def_cfa_offset 8
 188              		.cfi_offset 5, -8
 189 0200 89E5     		movl	%esp, %ebp
 190              		.cfi_def_cfa_register 5
 191 0202 83EC28   		subl	$40, %esp
  89:E:/NeuOrga/Programmieren/c_cpp/github_os/input/src/os_base\os_task_queue.c ****    if(bTASK_QUEUE_INITIALIZED == False)
 192              		.loc 1 89 0
 193 0205 A0000000 		movb	_bTASK_QUEUE_INITIALIZED, %al
 193      00
 194 020a 84C0     		testb	%al, %al
 195 020c 7550     		jne	L3
 196              	LBB2:
  90:E:/NeuOrga/Programmieren/c_cpp/github_os/input/src/os_base\os_task_queue.c ****    {
  91:E:/NeuOrga/Programmieren/c_cpp/github_os/input/src/os_base\os_task_queue.c ****       unsigned_char_t element_nr = 0;
 197              		.loc 1 91 0
 198 020e C645F700 		movb	$0, -9(%ebp)
  92:E:/NeuOrga/Programmieren/c_cpp/github_os/input/src/os_base\os_task_queue.c ****       while(element_nr < MAX_RUN_QUEUE_SIZE)
 199              		.loc 1 92 0
GAS LISTING C:\Users\PRESID~1\AppData\Local\Temp\ccPltnJh.s 			page 7


 200 0212 EB3D     		jmp	L5
 201              	L6:
  93:E:/NeuOrga/Programmieren/c_cpp/github_os/input/src/os_base\os_task_queue.c ****       {
  94:E:/NeuOrga/Programmieren/c_cpp/github_os/input/src/os_base\os_task_queue.c ****          TASK_SCHEDULING_QUEUE[element_nr] = (scheduling_t)0;
 202              		.loc 1 94 0
 203 0214 0FB645F7 		movzbl	-9(%ebp), %eax
 204 0218 C7048500 		movl	$0, _TASK_SCHEDULING_QUEUE(,%eax,4)
 204      00000000 
 204      000000
  95:E:/NeuOrga/Programmieren/c_cpp/github_os/input/src/os_base\os_task_queue.c ****          OS_Task_InitTaskEnvironment(&TASK_RUN_QUEUE[element_nr]);
 205              		.loc 1 95 0
 206 0223 0FB655F7 		movzbl	-9(%ebp), %edx
 207 0227 89D0     		movl	%edx, %eax
 208 0229 C1E003   		sall	$3, %eax
 209 022c 01D0     		addl	%edx, %eax
 210 022e 01C0     		addl	%eax, %eax
 211 0230 01D0     		addl	%edx, %eax
 212 0232 8D0CC500 		leal	0(,%eax,8), %ecx
 212      000000
 213 0239 01C8     		addl	%ecx, %eax
 214 023b 01D0     		addl	%edx, %eax
 215 023d 05000000 		addl	$_TASK_RUN_QUEUE, %eax
 215      00
 216 0242 890424   		movl	%eax, (%esp)
 217 0245 E8000000 		call	_OS_Task_InitTaskEnvironment
 217      00
  96:E:/NeuOrga/Programmieren/c_cpp/github_os/input/src/os_base\os_task_queue.c ****          element_nr++;
 218              		.loc 1 96 0
 219 024a 8A45F7   		movb	-9(%ebp), %al
 220 024d 40       		incl	%eax
 221 024e 8845F7   		movb	%al, -9(%ebp)
 222              	L5:
  92:E:/NeuOrga/Programmieren/c_cpp/github_os/input/src/os_base\os_task_queue.c ****       {
 223              		.loc 1 92 0
 224 0251 807DF709 		cmpb	$9, -9(%ebp)
 225 0255 76BD     		jbe	L6
  97:E:/NeuOrga/Programmieren/c_cpp/github_os/input/src/os_base\os_task_queue.c ****       }
  98:E:/NeuOrga/Programmieren/c_cpp/github_os/input/src/os_base\os_task_queue.c ****       bTASK_QUEUE_INITIALIZED = True;
 226              		.loc 1 98 0
 227 0257 C6050000 		movb	$1, _bTASK_QUEUE_INITIALIZED
 227      000001
 228              	L3:
 229              	LBE2:
  99:E:/NeuOrga/Programmieren/c_cpp/github_os/input/src/os_base\os_task_queue.c ****    }
 100:E:/NeuOrga/Programmieren/c_cpp/github_os/input/src/os_base\os_task_queue.c **** }
 230              		.loc 1 100 0
 231 025e C9       		leave
 232              		.cfi_restore 5
 233              		.cfi_def_cfa 4, 4
 234 025f C3       		ret
 235              		.cfi_endproc
 236              	LFE1:
 237              		.globl	_AddToTaskQueue
 239              	_AddToTaskQueue:
 240              	LFB2:
 101:E:/NeuOrga/Programmieren/c_cpp/github_os/input/src/os_base\os_task_queue.c **** task_t* AddToTaskQueue(task_t* task)
 102:E:/NeuOrga/Programmieren/c_cpp/github_os/input/src/os_base\os_task_queue.c **** {
GAS LISTING C:\Users\PRESID~1\AppData\Local\Temp\ccPltnJh.s 			page 8


 241              		.loc 1 102 0
 242              		.cfi_startproc
 243 0260 55       		pushl	%ebp
 244              		.cfi_def_cfa_offset 8
 245              		.cfi_offset 5, -8
 246 0261 89E5     		movl	%esp, %ebp
 247              		.cfi_def_cfa_register 5
 248 0263 53       		pushl	%ebx
 249 0264 83EC24   		subl	$36, %esp
 250              		.cfi_offset 3, -12
 103:E:/NeuOrga/Programmieren/c_cpp/github_os/input/src/os_base\os_task_queue.c ****    unsigned_char_t element_nr = 0;
 251              		.loc 1 103 0
 252 0267 C645F700 		movb	$0, -9(%ebp)
 104:E:/NeuOrga/Programmieren/c_cpp/github_os/input/src/os_base\os_task_queue.c ****    task_t* ret_task = 0;
 253              		.loc 1 104 0
 254 026b C745F000 		movl	$0, -16(%ebp)
 254      000000
 105:E:/NeuOrga/Programmieren/c_cpp/github_os/input/src/os_base\os_task_queue.c ****    
 106:E:/NeuOrga/Programmieren/c_cpp/github_os/input/src/os_base\os_task_queue.c ****    while( (element_nr < MAX_RUN_QUEUE_SIZE)
 255              		.loc 1 106 0
 256 0272 EB07     		jmp	L8
 257              	L10:
 107:E:/NeuOrga/Programmieren/c_cpp/github_os/input/src/os_base\os_task_queue.c ****           &&((&TASK_RUN_QUEUE[element_nr])->task_queued == True)
 108:E:/NeuOrga/Programmieren/c_cpp/github_os/input/src/os_base\os_task_queue.c ****         )
 109:E:/NeuOrga/Programmieren/c_cpp/github_os/input/src/os_base\os_task_queue.c ****    {
 110:E:/NeuOrga/Programmieren/c_cpp/github_os/input/src/os_base\os_task_queue.c ****       element_nr++;
 258              		.loc 1 110 0
 259 0274 8A45F7   		movb	-9(%ebp), %al
 260 0277 40       		incl	%eax
 261 0278 8845F7   		movb	%al, -9(%ebp)
 262              	L8:
 106:E:/NeuOrga/Programmieren/c_cpp/github_os/input/src/os_base\os_task_queue.c ****           &&((&TASK_RUN_QUEUE[element_nr])->task_queued == True)
 263              		.loc 1 106 0
 264 027b 807DF709 		cmpb	$9, -9(%ebp)
 265 027f 772A     		ja	L9
 107:E:/NeuOrga/Programmieren/c_cpp/github_os/input/src/os_base\os_task_queue.c ****           &&((&TASK_RUN_QUEUE[element_nr])->task_queued == True)
 266              		.loc 1 107 0
 267 0281 0FB655F7 		movzbl	-9(%ebp), %edx
 268 0285 89D0     		movl	%edx, %eax
 269 0287 C1E003   		sall	$3, %eax
 270 028a 01D0     		addl	%edx, %eax
 271 028c 01C0     		addl	%eax, %eax
 272 028e 01D0     		addl	%edx, %eax
 273 0290 8D0CC500 		leal	0(,%eax,8), %ecx
 273      000000
 274 0297 01C8     		addl	%ecx, %eax
 275 0299 01D0     		addl	%edx, %eax
 276 029b 05000000 		addl	$_TASK_RUN_QUEUE, %eax
 276      00
 277 02a0 8A00     		movb	(%eax), %al
 278 02a2 D0E8     		shrb	%al
 279 02a4 83E001   		andl	$1, %eax
 280 02a7 3C01     		cmpb	$1, %al
 281 02a9 74C9     		je	L10
 282              	L9:
 111:E:/NeuOrga/Programmieren/c_cpp/github_os/input/src/os_base\os_task_queue.c ****    }
 112:E:/NeuOrga/Programmieren/c_cpp/github_os/input/src/os_base\os_task_queue.c ****    /* while loop ended due to free task_array slot ...*/
GAS LISTING C:\Users\PRESID~1\AppData\Local\Temp\ccPltnJh.s 			page 9


 113:E:/NeuOrga/Programmieren/c_cpp/github_os/input/src/os_base\os_task_queue.c ****    if( (element_nr < MAX_RUN_QUEUE_SIZE) && ((&TASK_RUN_QUEUE[element_nr])->task_queued == False) )
 283              		.loc 1 113 0
 284 02ab 807DF709 		cmpb	$9, -9(%ebp)
 285 02af 0F875905 		ja	L11
 285      0000
 286              		.loc 1 113 0 is_stmt 0 discriminator 1
 287 02b5 0FB655F7 		movzbl	-9(%ebp), %edx
 288 02b9 89D0     		movl	%edx, %eax
 289 02bb C1E003   		sall	$3, %eax
 290 02be 01D0     		addl	%edx, %eax
 291 02c0 01C0     		addl	%eax, %eax
 292 02c2 01D0     		addl	%edx, %eax
 293 02c4 8D0CC500 		leal	0(,%eax,8), %ecx
 293      000000
 294 02cb 01C8     		addl	%ecx, %eax
 295 02cd 01D0     		addl	%edx, %eax
 296 02cf 05000000 		addl	$_TASK_RUN_QUEUE, %eax
 296      00
 297 02d4 8A00     		movb	(%eax), %al
 298 02d6 D0E8     		shrb	%al
 299 02d8 83E001   		andl	$1, %eax
 300 02db 84C0     		testb	%al, %al
 301 02dd 0F852B05 		jne	L11
 301      0000
 114:E:/NeuOrga/Programmieren/c_cpp/github_os/input/src/os_base\os_task_queue.c ****    {
 115:E:/NeuOrga/Programmieren/c_cpp/github_os/input/src/os_base\os_task_queue.c ****       (&TASK_RUN_QUEUE[element_nr])->active                          = task->active;
 302              		.loc 1 115 0 is_stmt 1
 303 02e3 0FB655F7 		movzbl	-9(%ebp), %edx
 304 02e7 8B4508   		movl	8(%ebp), %eax
 305 02ea 8A00     		movb	(%eax), %al
 306 02ec 83E001   		andl	$1, %eax
 307 02ef 88C3     		movb	%al, %bl
 308 02f1 89D0     		movl	%edx, %eax
 309 02f3 C1E003   		sall	$3, %eax
 310 02f6 01D0     		addl	%edx, %eax
 311 02f8 01C0     		addl	%eax, %eax
 312 02fa 01D0     		addl	%edx, %eax
 313 02fc 8D0CC500 		leal	0(,%eax,8), %ecx
 313      000000
 314 0303 01C8     		addl	%ecx, %eax
 315 0305 01D0     		addl	%edx, %eax
 316 0307 05000000 		addl	$_TASK_RUN_QUEUE, %eax
 316      00
 317 030c 83E301   		andl	$1, %ebx
 318 030f 88D9     		movb	%bl, %cl
 319 0311 8A10     		movb	(%eax), %dl
 320 0313 83E2FE   		andl	$-2, %edx
 321 0316 09CA     		orl	%ecx, %edx
 322 0318 8810     		movb	%dl, (%eax)
 116:E:/NeuOrga/Programmieren/c_cpp/github_os/input/src/os_base\os_task_queue.c ****       (&TASK_RUN_QUEUE[element_nr])->task_queued                     = True;
 323              		.loc 1 116 0
 324 031a 0FB655F7 		movzbl	-9(%ebp), %edx
 325 031e 89D0     		movl	%edx, %eax
 326 0320 C1E003   		sall	$3, %eax
 327 0323 01D0     		addl	%edx, %eax
 328 0325 01C0     		addl	%eax, %eax
 329 0327 01D0     		addl	%edx, %eax
GAS LISTING C:\Users\PRESID~1\AppData\Local\Temp\ccPltnJh.s 			page 10


 330 0329 8D0CC500 		leal	0(,%eax,8), %ecx
 330      000000
 331 0330 01C8     		addl	%ecx, %eax
 332 0332 01D0     		addl	%edx, %eax
 333 0334 05000000 		addl	$_TASK_RUN_QUEUE, %eax
 333      00
 334 0339 8A10     		movb	(%eax), %dl
 335 033b 83CA02   		orl	$2, %edx
 336 033e 8810     		movb	%dl, (%eax)
 117:E:/NeuOrga/Programmieren/c_cpp/github_os/input/src/os_base\os_task_queue.c ****       (&TASK_RUN_QUEUE[element_nr])->IdleTask                        = task->IdleTask;
 337              		.loc 1 117 0
 338 0340 0FB655F7 		movzbl	-9(%ebp), %edx
 339 0344 8B4508   		movl	8(%ebp), %eax
 340 0347 8A00     		movb	(%eax), %al
 341 0349 C0E802   		shrb	$2, %al
 342 034c 88C1     		movb	%al, %cl
 343 034e 83E101   		andl	$1, %ecx
 344 0351 89D0     		movl	%edx, %eax
 345 0353 C1E003   		sall	$3, %eax
 346 0356 01D0     		addl	%edx, %eax
 347 0358 01C0     		addl	%eax, %eax
 348 035a 01D0     		addl	%edx, %eax
 349 035c 8D1CC500 		leal	0(,%eax,8), %ebx
 349      000000
 350 0363 01D8     		addl	%ebx, %eax
 351 0365 01D0     		addl	%edx, %eax
 352 0367 05000000 		addl	$_TASK_RUN_QUEUE, %eax
 352      00
 353 036c 83E101   		andl	$1, %ecx
 354 036f 88CA     		movb	%cl, %dl
 355 0371 8D0C9500 		leal	0(,%edx,4), %ecx
 355      000000
 356 0378 8A10     		movb	(%eax), %dl
 357 037a 83E2FB   		andl	$-5, %edx
 358 037d 09CA     		orl	%ecx, %edx
 359 037f 8810     		movb	%dl, (%eax)
 118:E:/NeuOrga/Programmieren/c_cpp/github_os/input/src/os_base\os_task_queue.c ****       (&TASK_RUN_QUEUE[element_nr])->FREE                            = task->FREE;
 360              		.loc 1 118 0
 361 0381 0FB655F7 		movzbl	-9(%ebp), %edx
 362 0385 8B4508   		movl	8(%ebp), %eax
 363 0388 8B00     		movl	(%eax), %eax
 364 038a C1E803   		shrl	$3, %eax
 365 038d 89C3     		movl	%eax, %ebx
 366 038f 89D0     		movl	%edx, %eax
 367 0391 C1E003   		sall	$3, %eax
 368 0394 01D0     		addl	%edx, %eax
 369 0396 01C0     		addl	%eax, %eax
 370 0398 01D0     		addl	%edx, %eax
 371 039a 8D0CC500 		leal	0(,%eax,8), %ecx
 371      000000
 372 03a1 01C8     		addl	%ecx, %eax
 373 03a3 01D0     		addl	%edx, %eax
 374 03a5 05000000 		addl	$_TASK_RUN_QUEUE, %eax
 374      00
 375 03aa 8D0CDD00 		leal	0(,%ebx,8), %ecx
 375      000000
 376 03b1 8B10     		movl	(%eax), %edx
GAS LISTING C:\Users\PRESID~1\AppData\Local\Temp\ccPltnJh.s 			page 11


 377 03b3 83E207   		andl	$7, %edx
 378 03b6 09CA     		orl	%ecx, %edx
 379 03b8 8910     		movl	%edx, (%eax)
 119:E:/NeuOrga/Programmieren/c_cpp/github_os/input/src/os_base\os_task_queue.c ****       (&TASK_RUN_QUEUE[element_nr])->NrOfInsAllowed                  = task->NrOfInsAllowed;
 380              		.loc 1 119 0
 381 03ba 0FB655F7 		movzbl	-9(%ebp), %edx
 382 03be 8B4508   		movl	8(%ebp), %eax
 383 03c1 8A4804   		movb	4(%eax), %cl
 384 03c4 89D0     		movl	%edx, %eax
 385 03c6 C1E003   		sall	$3, %eax
 386 03c9 01D0     		addl	%edx, %eax
 387 03cb 01C0     		addl	%eax, %eax
 388 03cd 01D0     		addl	%edx, %eax
 389 03cf 8D1CC500 		leal	0(,%eax,8), %ebx
 389      000000
 390 03d6 01D8     		addl	%ebx, %eax
 391 03d8 01D0     		addl	%edx, %eax
 392 03da 05000000 		addl	$_TASK_RUN_QUEUE, %eax
 392      00
 393 03df 884804   		movb	%cl, 4(%eax)
 120:E:/NeuOrga/Programmieren/c_cpp/github_os/input/src/os_base\os_task_queue.c ****       (&TASK_RUN_QUEUE[element_nr])->NrOfInsActivated                = task->NrOfInsActivated;
 394              		.loc 1 120 0
 395 03e2 0FB655F7 		movzbl	-9(%ebp), %edx
 396 03e6 8B4508   		movl	8(%ebp), %eax
 397 03e9 8A4805   		movb	5(%eax), %cl
 398 03ec 89D0     		movl	%edx, %eax
 399 03ee C1E003   		sall	$3, %eax
 400 03f1 01D0     		addl	%edx, %eax
 401 03f3 01C0     		addl	%eax, %eax
 402 03f5 01D0     		addl	%edx, %eax
 403 03f7 8D1CC500 		leal	0(,%eax,8), %ebx
 403      000000
 404 03fe 01D8     		addl	%ebx, %eax
 405 0400 01D0     		addl	%edx, %eax
 406 0402 05000000 		addl	$_TASK_RUN_QUEUE, %eax
 406      00
 407 0407 884805   		movb	%cl, 5(%eax)
 121:E:/NeuOrga/Programmieren/c_cpp/github_os/input/src/os_base\os_task_queue.c ****       Assign(&(&TASK_RUN_QUEUE[element_nr])->WaitActUntil                  , &task->WaitActUntil);
 408              		.loc 1 121 0
 409 040a 8B4508   		movl	8(%ebp), %eax
 410 040d 8D4806   		leal	6(%eax), %ecx
 411 0410 0FB655F7 		movzbl	-9(%ebp), %edx
 412 0414 89D0     		movl	%edx, %eax
 413 0416 C1E003   		sall	$3, %eax
 414 0419 01D0     		addl	%edx, %eax
 415 041b 01C0     		addl	%eax, %eax
 416 041d 01D0     		addl	%edx, %eax
 417 041f 8D1CC500 		leal	0(,%eax,8), %ebx
 417      000000
 418 0426 01D8     		addl	%ebx, %eax
 419 0428 01D0     		addl	%edx, %eax
 420 042a 05000000 		addl	$_TASK_RUN_QUEUE, %eax
 420      00
 421 042f 83C006   		addl	$6, %eax
 422 0432 894C2404 		movl	%ecx, 4(%esp)
 423 0436 890424   		movl	%eax, (%esp)
 424 0439 E8000000 		call	_Assign
GAS LISTING C:\Users\PRESID~1\AppData\Local\Temp\ccPltnJh.s 			page 12


 424      00
 122:E:/NeuOrga/Programmieren/c_cpp/github_os/input/src/os_base\os_task_queue.c ****       Assign(&(&TASK_RUN_QUEUE[element_nr])->wait_time                     , &task->wait_time);
 425              		.loc 1 122 0
 426 043e 8B4508   		movl	8(%ebp), %eax
 427 0441 8D4816   		leal	22(%eax), %ecx
 428 0444 0FB655F7 		movzbl	-9(%ebp), %edx
 429 0448 89D0     		movl	%edx, %eax
 430 044a C1E003   		sall	$3, %eax
 431 044d 01D0     		addl	%edx, %eax
 432 044f 01C0     		addl	%eax, %eax
 433 0451 01D0     		addl	%edx, %eax
 434 0453 8D1CC500 		leal	0(,%eax,8), %ebx
 434      000000
 435 045a 01D8     		addl	%ebx, %eax
 436 045c 01D0     		addl	%edx, %eax
 437 045e 83C010   		addl	$16, %eax
 438 0461 05000000 		addl	$_TASK_RUN_QUEUE, %eax
 438      00
 439 0466 83C006   		addl	$6, %eax
 440 0469 894C2404 		movl	%ecx, 4(%esp)
 441 046d 890424   		movl	%eax, (%esp)
 442 0470 E8000000 		call	_Assign
 442      00
 123:E:/NeuOrga/Programmieren/c_cpp/github_os/input/src/os_base\os_task_queue.c ****       Assign(&(&TASK_RUN_QUEUE[element_nr])->TimeToPrioInc                 , &task->TimeToPrioInc);
 443              		.loc 1 123 0
 444 0475 8B4508   		movl	8(%ebp), %eax
 445 0478 8D4826   		leal	38(%eax), %ecx
 446 047b 0FB655F7 		movzbl	-9(%ebp), %edx
 447 047f 89D0     		movl	%edx, %eax
 448 0481 C1E003   		sall	$3, %eax
 449 0484 01D0     		addl	%edx, %eax
 450 0486 01C0     		addl	%eax, %eax
 451 0488 01D0     		addl	%edx, %eax
 452 048a 8D1CC500 		leal	0(,%eax,8), %ebx
 452      000000
 453 0491 01D8     		addl	%ebx, %eax
 454 0493 01D0     		addl	%edx, %eax
 455 0495 83C020   		addl	$32, %eax
 456 0498 05000000 		addl	$_TASK_RUN_QUEUE, %eax
 456      00
 457 049d 83C006   		addl	$6, %eax
 458 04a0 894C2404 		movl	%ecx, 4(%esp)
 459 04a4 890424   		movl	%eax, (%esp)
 460 04a7 E8000000 		call	_Assign
 460      00
 124:E:/NeuOrga/Programmieren/c_cpp/github_os/input/src/os_base\os_task_queue.c ****       (&TASK_RUN_QUEUE[element_nr])->overwaittime_per_prio_inc_step  = task->overwaittime_per_prio_
 461              		.loc 1 124 0
 462 04ac 0FB655F7 		movzbl	-9(%ebp), %edx
 463 04b0 8B4508   		movl	8(%ebp), %eax
 464 04b3 8B4838   		movl	56(%eax), %ecx
 465 04b6 89D0     		movl	%edx, %eax
 466 04b8 C1E003   		sall	$3, %eax
 467 04bb 01D0     		addl	%edx, %eax
 468 04bd 01C0     		addl	%eax, %eax
 469 04bf 01D0     		addl	%edx, %eax
 470 04c1 8D1CC500 		leal	0(,%eax,8), %ebx
 470      000000
GAS LISTING C:\Users\PRESID~1\AppData\Local\Temp\ccPltnJh.s 			page 13


 471 04c8 01D8     		addl	%ebx, %eax
 472 04ca 01D0     		addl	%edx, %eax
 473 04cc 05300000 		addl	$_TASK_RUN_QUEUE+48, %eax
 473      00
 474 04d1 894808   		movl	%ecx, 8(%eax)
 125:E:/NeuOrga/Programmieren/c_cpp/github_os/input/src/os_base\os_task_queue.c ****       Assign(&(&TASK_RUN_QUEUE[element_nr])->max_allowed_wait_time         , &task->max_allowed_wai
 475              		.loc 1 125 0
 476 04d4 8B4508   		movl	8(%ebp), %eax
 477 04d7 8D483C   		leal	60(%eax), %ecx
 478 04da 0FB655F7 		movzbl	-9(%ebp), %edx
 479 04de 89D0     		movl	%edx, %eax
 480 04e0 C1E003   		sall	$3, %eax
 481 04e3 01D0     		addl	%edx, %eax
 482 04e5 01C0     		addl	%eax, %eax
 483 04e7 01D0     		addl	%edx, %eax
 484 04e9 8D1CC500 		leal	0(,%eax,8), %ebx
 484      000000
 485 04f0 01D8     		addl	%ebx, %eax
 486 04f2 01D0     		addl	%edx, %eax
 487 04f4 83C030   		addl	$48, %eax
 488 04f7 05000000 		addl	$_TASK_RUN_QUEUE, %eax
 488      00
 489 04fc 83C00C   		addl	$12, %eax
 490 04ff 894C2404 		movl	%ecx, 4(%esp)
 491 0503 890424   		movl	%eax, (%esp)
 492 0506 E8000000 		call	_Assign
 492      00
 126:E:/NeuOrga/Programmieren/c_cpp/github_os/input/src/os_base\os_task_queue.c ****       Assign(&(&TASK_RUN_QUEUE[element_nr])->exe_time                      , &task->exe_time   );
 493              		.loc 1 126 0
 494 050b 8B4508   		movl	8(%ebp), %eax
 495 050e 8D484C   		leal	76(%eax), %ecx
 496 0511 0FB655F7 		movzbl	-9(%ebp), %edx
 497 0515 89D0     		movl	%edx, %eax
 498 0517 C1E003   		sall	$3, %eax
 499 051a 01D0     		addl	%edx, %eax
 500 051c 01C0     		addl	%eax, %eax
 501 051e 01D0     		addl	%edx, %eax
 502 0520 8D1CC500 		leal	0(,%eax,8), %ebx
 502      000000
 503 0527 01D8     		addl	%ebx, %eax
 504 0529 01D0     		addl	%edx, %eax
 505 052b 83C040   		addl	$64, %eax
 506 052e 05000000 		addl	$_TASK_RUN_QUEUE, %eax
 506      00
 507 0533 83C00C   		addl	$12, %eax
 508 0536 894C2404 		movl	%ecx, 4(%esp)
 509 053a 890424   		movl	%eax, (%esp)
 510 053d E8000000 		call	_Assign
 510      00
 127:E:/NeuOrga/Programmieren/c_cpp/github_os/input/src/os_base\os_task_queue.c ****       Assign(&(&TASK_RUN_QUEUE[element_nr])->start_time                    , &task->start_time );
 511              		.loc 1 127 0
 512 0542 8B4508   		movl	8(%ebp), %eax
 513 0545 8D485C   		leal	92(%eax), %ecx
 514 0548 0FB655F7 		movzbl	-9(%ebp), %edx
 515 054c 89D0     		movl	%edx, %eax
 516 054e C1E003   		sall	$3, %eax
 517 0551 01D0     		addl	%edx, %eax
GAS LISTING C:\Users\PRESID~1\AppData\Local\Temp\ccPltnJh.s 			page 14


 518 0553 01C0     		addl	%eax, %eax
 519 0555 01D0     		addl	%edx, %eax
 520 0557 8D1CC500 		leal	0(,%eax,8), %ebx
 520      000000
 521 055e 01D8     		addl	%ebx, %eax
 522 0560 01D0     		addl	%edx, %eax
 523 0562 83C050   		addl	$80, %eax
 524 0565 05000000 		addl	$_TASK_RUN_QUEUE, %eax
 524      00
 525 056a 83C00C   		addl	$12, %eax
 526 056d 894C2404 		movl	%ecx, 4(%esp)
 527 0571 890424   		movl	%eax, (%esp)
 528 0574 E8000000 		call	_Assign
 528      00
 128:E:/NeuOrga/Programmieren/c_cpp/github_os/input/src/os_base\os_task_queue.c ****       (&TASK_RUN_QUEUE[element_nr])->current_prio                    = task->current_prio;
 529              		.loc 1 128 0
 530 0579 0FB655F7 		movzbl	-9(%ebp), %edx
 531 057d 8B4508   		movl	8(%ebp), %eax
 532 0580 8A486C   		movb	108(%eax), %cl
 533 0583 89D0     		movl	%edx, %eax
 534 0585 C1E003   		sall	$3, %eax
 535 0588 01D0     		addl	%edx, %eax
 536 058a 01C0     		addl	%eax, %eax
 537 058c 01D0     		addl	%edx, %eax
 538 058e 8D1CC500 		leal	0(,%eax,8), %ebx
 538      000000
 539 0595 01D8     		addl	%ebx, %eax
 540 0597 01D0     		addl	%edx, %eax
 541 0599 05600000 		addl	$_TASK_RUN_QUEUE+96, %eax
 541      00
 542 059e 88480C   		movb	%cl, 12(%eax)
 129:E:/NeuOrga/Programmieren/c_cpp/github_os/input/src/os_base\os_task_queue.c ****       (&TASK_RUN_QUEUE[element_nr])->default_prio                    = task->default_prio;
 543              		.loc 1 129 0
 544 05a1 0FB655F7 		movzbl	-9(%ebp), %edx
 545 05a5 8B4508   		movl	8(%ebp), %eax
 546 05a8 8A486D   		movb	109(%eax), %cl
 547 05ab 89D0     		movl	%edx, %eax
 548 05ad C1E003   		sall	$3, %eax
 549 05b0 01D0     		addl	%edx, %eax
 550 05b2 01C0     		addl	%eax, %eax
 551 05b4 01D0     		addl	%edx, %eax
 552 05b6 8D1CC500 		leal	0(,%eax,8), %ebx
 552      000000
 553 05bd 01D8     		addl	%ebx, %eax
 554 05bf 01D0     		addl	%edx, %eax
 555 05c1 05600000 		addl	$_TASK_RUN_QUEUE+96, %eax
 555      00
 556 05c6 88480D   		movb	%cl, 13(%eax)
 130:E:/NeuOrga/Programmieren/c_cpp/github_os/input/src/os_base\os_task_queue.c ****       (&TASK_RUN_QUEUE[element_nr])->fp                              = task->fp;
 557              		.loc 1 130 0
 558 05c9 0FB655F7 		movzbl	-9(%ebp), %edx
 559 05cd 8B4508   		movl	8(%ebp), %eax
 560 05d0 8B4874   		movl	116(%eax), %ecx
 561 05d3 89D0     		movl	%edx, %eax
 562 05d5 C1E003   		sall	$3, %eax
 563 05d8 01D0     		addl	%edx, %eax
 564 05da 01C0     		addl	%eax, %eax
GAS LISTING C:\Users\PRESID~1\AppData\Local\Temp\ccPltnJh.s 			page 15


 565 05dc 01D0     		addl	%edx, %eax
 566 05de 8D1CC500 		leal	0(,%eax,8), %ebx
 566      000000
 567 05e5 01D8     		addl	%ebx, %eax
 568 05e7 01D0     		addl	%edx, %eax
 569 05e9 05700000 		addl	$_TASK_RUN_QUEUE+112, %eax
 569      00
 570 05ee 894804   		movl	%ecx, 4(%eax)
 131:E:/NeuOrga/Programmieren/c_cpp/github_os/input/src/os_base\os_task_queue.c ****       (&TASK_RUN_QUEUE[element_nr])->state_request                   = task->state_request;
 571              		.loc 1 131 0
 572 05f1 0FB655F7 		movzbl	-9(%ebp), %edx
 573 05f5 8B4508   		movl	8(%ebp), %eax
 574 05f8 8B4878   		movl	120(%eax), %ecx
 575 05fb 89D0     		movl	%edx, %eax
 576 05fd C1E003   		sall	$3, %eax
 577 0600 01D0     		addl	%edx, %eax
 578 0602 01C0     		addl	%eax, %eax
 579 0604 01D0     		addl	%edx, %eax
 580 0606 8D1CC500 		leal	0(,%eax,8), %ebx
 580      000000
 581 060d 01D8     		addl	%ebx, %eax
 582 060f 01D0     		addl	%edx, %eax
 583 0611 05700000 		addl	$_TASK_RUN_QUEUE+112, %eax
 583      00
 584 0616 894808   		movl	%ecx, 8(%eax)
 132:E:/NeuOrga/Programmieren/c_cpp/github_os/input/src/os_base\os_task_queue.c ****       (&TASK_RUN_QUEUE[element_nr])->task_state                      = task->task_state;
 585              		.loc 1 132 0
 586 0619 0FB655F7 		movzbl	-9(%ebp), %edx
 587 061d 8B4508   		movl	8(%ebp), %eax
 588 0620 8B487C   		movl	124(%eax), %ecx
 589 0623 89D0     		movl	%edx, %eax
 590 0625 C1E003   		sall	$3, %eax
 591 0628 01D0     		addl	%edx, %eax
 592 062a 01C0     		addl	%eax, %eax
 593 062c 01D0     		addl	%edx, %eax
 594 062e 8D1CC500 		leal	0(,%eax,8), %ebx
 594      000000
 595 0635 01D8     		addl	%ebx, %eax
 596 0637 01D0     		addl	%edx, %eax
 597 0639 05700000 		addl	$_TASK_RUN_QUEUE+112, %eax
 597      00
 598 063e 89480C   		movl	%ecx, 12(%eax)
 133:E:/NeuOrga/Programmieren/c_cpp/github_os/input/src/os_base\os_task_queue.c ****       (&TASK_RUN_QUEUE[element_nr])->task_group                      = task->task_group;
 599              		.loc 1 133 0
 600 0641 0FB655F7 		movzbl	-9(%ebp), %edx
 601 0645 8B4508   		movl	8(%ebp), %eax
 602 0648 8B888000 		movl	128(%eax), %ecx
 602      0000
 603 064e 89D0     		movl	%edx, %eax
 604 0650 C1E003   		sall	$3, %eax
 605 0653 01D0     		addl	%edx, %eax
 606 0655 01C0     		addl	%eax, %eax
 607 0657 01D0     		addl	%edx, %eax
 608 0659 8D1CC500 		leal	0(,%eax,8), %ebx
 608      000000
 609 0660 01D8     		addl	%ebx, %eax
 610 0662 01D0     		addl	%edx, %eax
GAS LISTING C:\Users\PRESID~1\AppData\Local\Temp\ccPltnJh.s 			page 16


 611 0664 05800000 		addl	$_TASK_RUN_QUEUE+128, %eax
 611      00
 612 0669 8908     		movl	%ecx, (%eax)
 134:E:/NeuOrga/Programmieren/c_cpp/github_os/input/src/os_base\os_task_queue.c ****    #if(CFG_PROCESSOR == cMCU_X86)
 135:E:/NeuOrga/Programmieren/c_cpp/github_os/input/src/os_base\os_task_queue.c ****       (&TASK_RUN_QUEUE[element_nr])->EAX                             = task->EAX;
 613              		.loc 1 135 0
 614 066b 0FB655F7 		movzbl	-9(%ebp), %edx
 615 066f 8B4508   		movl	8(%ebp), %eax
 616 0672 8B888400 		movl	132(%eax), %ecx
 616      0000
 617 0678 89D0     		movl	%edx, %eax
 618 067a C1E003   		sall	$3, %eax
 619 067d 01D0     		addl	%edx, %eax
 620 067f 01C0     		addl	%eax, %eax
 621 0681 01D0     		addl	%edx, %eax
 622 0683 8D1CC500 		leal	0(,%eax,8), %ebx
 622      000000
 623 068a 01D8     		addl	%ebx, %eax
 624 068c 01D0     		addl	%edx, %eax
 625 068e 05800000 		addl	$_TASK_RUN_QUEUE+128, %eax
 625      00
 626 0693 894804   		movl	%ecx, 4(%eax)
 136:E:/NeuOrga/Programmieren/c_cpp/github_os/input/src/os_base\os_task_queue.c ****       (&TASK_RUN_QUEUE[element_nr])->EBX                             = task->EBX;
 627              		.loc 1 136 0
 628 0696 0FB655F7 		movzbl	-9(%ebp), %edx
 629 069a 8B4508   		movl	8(%ebp), %eax
 630 069d 8B888800 		movl	136(%eax), %ecx
 630      0000
 631 06a3 89D0     		movl	%edx, %eax
 632 06a5 C1E003   		sall	$3, %eax
 633 06a8 01D0     		addl	%edx, %eax
 634 06aa 01C0     		addl	%eax, %eax
 635 06ac 01D0     		addl	%edx, %eax
 636 06ae 8D1CC500 		leal	0(,%eax,8), %ebx
 636      000000
 637 06b5 01D8     		addl	%ebx, %eax
 638 06b7 01D0     		addl	%edx, %eax
 639 06b9 05800000 		addl	$_TASK_RUN_QUEUE+128, %eax
 639      00
 640 06be 894808   		movl	%ecx, 8(%eax)
 137:E:/NeuOrga/Programmieren/c_cpp/github_os/input/src/os_base\os_task_queue.c ****       (&TASK_RUN_QUEUE[element_nr])->ECX                             = task->ECX;
 641              		.loc 1 137 0
 642 06c1 0FB655F7 		movzbl	-9(%ebp), %edx
 643 06c5 8B4508   		movl	8(%ebp), %eax
 644 06c8 8B888C00 		movl	140(%eax), %ecx
 644      0000
 645 06ce 89D0     		movl	%edx, %eax
 646 06d0 C1E003   		sall	$3, %eax
 647 06d3 01D0     		addl	%edx, %eax
 648 06d5 01C0     		addl	%eax, %eax
 649 06d7 01D0     		addl	%edx, %eax
 650 06d9 8D1CC500 		leal	0(,%eax,8), %ebx
 650      000000
 651 06e0 01D8     		addl	%ebx, %eax
 652 06e2 01D0     		addl	%edx, %eax
 653 06e4 05800000 		addl	$_TASK_RUN_QUEUE+128, %eax
 653      00
GAS LISTING C:\Users\PRESID~1\AppData\Local\Temp\ccPltnJh.s 			page 17


 654 06e9 89480C   		movl	%ecx, 12(%eax)
 138:E:/NeuOrga/Programmieren/c_cpp/github_os/input/src/os_base\os_task_queue.c ****       (&TASK_RUN_QUEUE[element_nr])->EDX                             = task->EDX;
 655              		.loc 1 138 0
 656 06ec 0FB655F7 		movzbl	-9(%ebp), %edx
 657 06f0 8B4508   		movl	8(%ebp), %eax
 658 06f3 8B889000 		movl	144(%eax), %ecx
 658      0000
 659 06f9 89D0     		movl	%edx, %eax
 660 06fb C1E003   		sall	$3, %eax
 661 06fe 01D0     		addl	%edx, %eax
 662 0700 01C0     		addl	%eax, %eax
 663 0702 01D0     		addl	%edx, %eax
 664 0704 8D1CC500 		leal	0(,%eax,8), %ebx
 664      000000
 665 070b 01D8     		addl	%ebx, %eax
 666 070d 01D0     		addl	%edx, %eax
 667 070f 05900000 		addl	$_TASK_RUN_QUEUE+144, %eax
 667      00
 668 0714 8908     		movl	%ecx, (%eax)
 139:E:/NeuOrga/Programmieren/c_cpp/github_os/input/src/os_base\os_task_queue.c ****    #else
 140:E:/NeuOrga/Programmieren/c_cpp/github_os/input/src/os_base\os_task_queue.c ****       (&TASK_RUN_QUEUE[element_nr])->r0                             = task->r0;
 141:E:/NeuOrga/Programmieren/c_cpp/github_os/input/src/os_base\os_task_queue.c ****       (&TASK_RUN_QUEUE[element_nr])->r1                             = task->r1;
 142:E:/NeuOrga/Programmieren/c_cpp/github_os/input/src/os_base\os_task_queue.c ****       (&TASK_RUN_QUEUE[element_nr])->r2                             = task->r2;
 143:E:/NeuOrga/Programmieren/c_cpp/github_os/input/src/os_base\os_task_queue.c ****       (&TASK_RUN_QUEUE[element_nr])->r3                             = task->r3;
 144:E:/NeuOrga/Programmieren/c_cpp/github_os/input/src/os_base\os_task_queue.c ****       (&TASK_RUN_QUEUE[element_nr])->r4                             = task->r4;
 145:E:/NeuOrga/Programmieren/c_cpp/github_os/input/src/os_base\os_task_queue.c ****       (&TASK_RUN_QUEUE[element_nr])->r5                             = task->r5;
 146:E:/NeuOrga/Programmieren/c_cpp/github_os/input/src/os_base\os_task_queue.c ****       (&TASK_RUN_QUEUE[element_nr])->r6                             = task->r6;
 147:E:/NeuOrga/Programmieren/c_cpp/github_os/input/src/os_base\os_task_queue.c ****       (&TASK_RUN_QUEUE[element_nr])->r7                             = task->r7;
 148:E:/NeuOrga/Programmieren/c_cpp/github_os/input/src/os_base\os_task_queue.c ****       (&TASK_RUN_QUEUE[element_nr])->r8                             = task->r8;
 149:E:/NeuOrga/Programmieren/c_cpp/github_os/input/src/os_base\os_task_queue.c ****       (&TASK_RUN_QUEUE[element_nr])->r9                             = task->r9;
 150:E:/NeuOrga/Programmieren/c_cpp/github_os/input/src/os_base\os_task_queue.c ****       (&TASK_RUN_QUEUE[element_nr])->r10                            = task->r10;
 151:E:/NeuOrga/Programmieren/c_cpp/github_os/input/src/os_base\os_task_queue.c ****       (&TASK_RUN_QUEUE[element_nr])->r11                            = task->r11;
 152:E:/NeuOrga/Programmieren/c_cpp/github_os/input/src/os_base\os_task_queue.c ****       (&TASK_RUN_QUEUE[element_nr])->r12                            = task->r12;
 153:E:/NeuOrga/Programmieren/c_cpp/github_os/input/src/os_base\os_task_queue.c ****    #endif
 154:E:/NeuOrga/Programmieren/c_cpp/github_os/input/src/os_base\os_task_queue.c ****       (&TASK_RUN_QUEUE[element_nr])->pStackPointer                   = task->pStackPointer;
 669              		.loc 1 154 0
 670 0716 0FB655F7 		movzbl	-9(%ebp), %edx
 671 071a 8B4508   		movl	8(%ebp), %eax
 672 071d 8B889400 		movl	148(%eax), %ecx
 672      0000
 673 0723 89D0     		movl	%edx, %eax
 674 0725 C1E003   		sall	$3, %eax
 675 0728 01D0     		addl	%edx, %eax
 676 072a 01C0     		addl	%eax, %eax
 677 072c 01D0     		addl	%edx, %eax
 678 072e 8D1CC500 		leal	0(,%eax,8), %ebx
 678      000000
 679 0735 01D8     		addl	%ebx, %eax
 680 0737 01D0     		addl	%edx, %eax
 681 0739 05900000 		addl	$_TASK_RUN_QUEUE+144, %eax
 681      00
 682 073e 894804   		movl	%ecx, 4(%eax)
 155:E:/NeuOrga/Programmieren/c_cpp/github_os/input/src/os_base\os_task_queue.c ****       (&TASK_RUN_QUEUE[element_nr])->pStackPointerByMalloc           = task->pStackPointerByMalloc;
 683              		.loc 1 155 0
 684 0741 0FB655F7 		movzbl	-9(%ebp), %edx
 685 0745 8B4508   		movl	8(%ebp), %eax
 686 0748 8B889800 		movl	152(%eax), %ecx
GAS LISTING C:\Users\PRESID~1\AppData\Local\Temp\ccPltnJh.s 			page 18


 686      0000
 687 074e 89D0     		movl	%edx, %eax
 688 0750 C1E003   		sall	$3, %eax
 689 0753 01D0     		addl	%edx, %eax
 690 0755 01C0     		addl	%eax, %eax
 691 0757 01D0     		addl	%edx, %eax
 692 0759 8D1CC500 		leal	0(,%eax,8), %ebx
 692      000000
 693 0760 01D8     		addl	%ebx, %eax
 694 0762 01D0     		addl	%edx, %eax
 695 0764 05900000 		addl	$_TASK_RUN_QUEUE+144, %eax
 695      00
 696 0769 894808   		movl	%ecx, 8(%eax)
 156:E:/NeuOrga/Programmieren/c_cpp/github_os/input/src/os_base\os_task_queue.c ****       (&TASK_RUN_QUEUE[element_nr])->pStackPointerStart              = task->pStackPointerStart;
 697              		.loc 1 156 0
 698 076c 0FB655F7 		movzbl	-9(%ebp), %edx
 699 0770 8B4508   		movl	8(%ebp), %eax
 700 0773 8B889C00 		movl	156(%eax), %ecx
 700      0000
 701 0779 89D0     		movl	%edx, %eax
 702 077b C1E003   		sall	$3, %eax
 703 077e 01D0     		addl	%edx, %eax
 704 0780 01C0     		addl	%eax, %eax
 705 0782 01D0     		addl	%edx, %eax
 706 0784 8D1CC500 		leal	0(,%eax,8), %ebx
 706      000000
 707 078b 01D8     		addl	%ebx, %eax
 708 078d 01D0     		addl	%edx, %eax
 709 078f 05900000 		addl	$_TASK_RUN_QUEUE+144, %eax
 709      00
 710 0794 89480C   		movl	%ecx, 12(%eax)
 157:E:/NeuOrga/Programmieren/c_cpp/github_os/input/src/os_base\os_task_queue.c ****       (&TASK_RUN_QUEUE[element_nr])->StackSize                       = task->StackSize;
 711              		.loc 1 157 0
 712 0797 0FB655F7 		movzbl	-9(%ebp), %edx
 713 079b 8B4508   		movl	8(%ebp), %eax
 714 079e 8B88A000 		movl	160(%eax), %ecx
 714      0000
 715 07a4 89D0     		movl	%edx, %eax
 716 07a6 C1E003   		sall	$3, %eax
 717 07a9 01D0     		addl	%edx, %eax
 718 07ab 01C0     		addl	%eax, %eax
 719 07ad 01D0     		addl	%edx, %eax
 720 07af 8D1CC500 		leal	0(,%eax,8), %ebx
 720      000000
 721 07b6 01D8     		addl	%ebx, %eax
 722 07b8 01D0     		addl	%edx, %eax
 723 07ba 05A00000 		addl	$_TASK_RUN_QUEUE+160, %eax
 723      00
 724 07bf 8908     		movl	%ecx, (%eax)
 158:E:/NeuOrga/Programmieren/c_cpp/github_os/input/src/os_base\os_task_queue.c ****       (&TASK_RUN_QUEUE[element_nr])->pStackPointerEnd                = task->pStackPointerEnd;
 725              		.loc 1 158 0
 726 07c1 0FB655F7 		movzbl	-9(%ebp), %edx
 727 07c5 8B4508   		movl	8(%ebp), %eax
 728 07c8 8B88A400 		movl	164(%eax), %ecx
 728      0000
 729 07ce 89D0     		movl	%edx, %eax
 730 07d0 C1E003   		sall	$3, %eax
GAS LISTING C:\Users\PRESID~1\AppData\Local\Temp\ccPltnJh.s 			page 19


 731 07d3 01D0     		addl	%edx, %eax
 732 07d5 01C0     		addl	%eax, %eax
 733 07d7 01D0     		addl	%edx, %eax
 734 07d9 8D1CC500 		leal	0(,%eax,8), %ebx
 734      000000
 735 07e0 01D8     		addl	%ebx, %eax
 736 07e2 01D0     		addl	%edx, %eax
 737 07e4 05A00000 		addl	$_TASK_RUN_QUEUE+160, %eax
 737      00
 738 07e9 894804   		movl	%ecx, 4(%eax)
 159:E:/NeuOrga/Programmieren/c_cpp/github_os/input/src/os_base\os_task_queue.c ****       ret_task = &TASK_RUN_QUEUE[element_nr];
 739              		.loc 1 159 0
 740 07ec 0FB655F7 		movzbl	-9(%ebp), %edx
 741 07f0 89D0     		movl	%edx, %eax
 742 07f2 C1E003   		sall	$3, %eax
 743 07f5 01D0     		addl	%edx, %eax
 744 07f7 01C0     		addl	%eax, %eax
 745 07f9 01D0     		addl	%edx, %eax
 746 07fb 8D0CC500 		leal	0(,%eax,8), %ecx
 746      000000
 747 0802 01C8     		addl	%ecx, %eax
 748 0804 01D0     		addl	%edx, %eax
 749 0806 05000000 		addl	$_TASK_RUN_QUEUE, %eax
 749      00
 750 080b 8945F0   		movl	%eax, -16(%ebp)
 751              	L11:
 160:E:/NeuOrga/Programmieren/c_cpp/github_os/input/src/os_base\os_task_queue.c ****    }
 161:E:/NeuOrga/Programmieren/c_cpp/github_os/input/src/os_base\os_task_queue.c ****    return ret_task;
 752              		.loc 1 161 0
 753 080e 8B45F0   		movl	-16(%ebp), %eax
 162:E:/NeuOrga/Programmieren/c_cpp/github_os/input/src/os_base\os_task_queue.c **** }
 754              		.loc 1 162 0
 755 0811 83C424   		addl	$36, %esp
 756 0814 5B       		popl	%ebx
 757              		.cfi_restore 3
 758 0815 5D       		popl	%ebp
 759              		.cfi_restore 5
 760              		.cfi_def_cfa 4, 4
 761 0816 C3       		ret
 762              		.cfi_endproc
 763              	LFE2:
 764              		.globl	_DeleteFromTaskQueue
 766              	_DeleteFromTaskQueue:
 767              	LFB3:
 163:E:/NeuOrga/Programmieren/c_cpp/github_os/input/src/os_base\os_task_queue.c **** void DeleteFromTaskQueue(task_t* task)
 164:E:/NeuOrga/Programmieren/c_cpp/github_os/input/src/os_base\os_task_queue.c **** {
 768              		.loc 1 164 0
 769              		.cfi_startproc
 770 0817 55       		pushl	%ebp
 771              		.cfi_def_cfa_offset 8
 772              		.cfi_offset 5, -8
 773 0818 89E5     		movl	%esp, %ebp
 774              		.cfi_def_cfa_register 5
 775 081a 83EC18   		subl	$24, %esp
 165:E:/NeuOrga/Programmieren/c_cpp/github_os/input/src/os_base\os_task_queue.c ****    task->active                                =   False   ;
 776              		.loc 1 165 0
 777 081d 8B4508   		movl	8(%ebp), %eax
GAS LISTING C:\Users\PRESID~1\AppData\Local\Temp\ccPltnJh.s 			page 20


 778 0820 8A10     		movb	(%eax), %dl
 779 0822 83E2FE   		andl	$-2, %edx
 780 0825 8810     		movb	%dl, (%eax)
 166:E:/NeuOrga/Programmieren/c_cpp/github_os/input/src/os_base\os_task_queue.c ****    task->task_queued                           =   False   ;
 781              		.loc 1 166 0
 782 0827 8B4508   		movl	8(%ebp), %eax
 783 082a 8A10     		movb	(%eax), %dl
 784 082c 83E2FD   		andl	$-3, %edx
 785 082f 8810     		movb	%dl, (%eax)
 167:E:/NeuOrga/Programmieren/c_cpp/github_os/input/src/os_base\os_task_queue.c ****    task->IdleTask                              =   False   ;
 786              		.loc 1 167 0
 787 0831 8B4508   		movl	8(%ebp), %eax
 788 0834 8A10     		movb	(%eax), %dl
 789 0836 83E2FB   		andl	$-5, %edx
 790 0839 8810     		movb	%dl, (%eax)
 168:E:/NeuOrga/Programmieren/c_cpp/github_os/input/src/os_base\os_task_queue.c ****    task->FREE                                  =   0       ;
 791              		.loc 1 168 0
 792 083b 8B4508   		movl	8(%ebp), %eax
 793 083e 8B10     		movl	(%eax), %edx
 794 0840 83E207   		andl	$7, %edx
 795 0843 8910     		movl	%edx, (%eax)
 169:E:/NeuOrga/Programmieren/c_cpp/github_os/input/src/os_base\os_task_queue.c ****    task->NrOfInsAllowed                        =   0       ;
 796              		.loc 1 169 0
 797 0845 8B4508   		movl	8(%ebp), %eax
 798 0848 C6400400 		movb	$0, 4(%eax)
 170:E:/NeuOrga/Programmieren/c_cpp/github_os/input/src/os_base\os_task_queue.c ****    task->NrOfInsActivated                      =   0       ;
 799              		.loc 1 170 0
 800 084c 8B4508   		movl	8(%ebp), %eax
 801 084f C6400500 		movb	$0, 5(%eax)
 171:E:/NeuOrga/Programmieren/c_cpp/github_os/input/src/os_base\os_task_queue.c ****    AssignNull(&task->WaitActUntil);
 802              		.loc 1 171 0
 803 0853 8B4508   		movl	8(%ebp), %eax
 804 0856 83C006   		addl	$6, %eax
 805 0859 890424   		movl	%eax, (%esp)
 806 085c E8000000 		call	_AssignNull
 806      00
 172:E:/NeuOrga/Programmieren/c_cpp/github_os/input/src/os_base\os_task_queue.c ****    AssignNull(&task->wait_time);
 807              		.loc 1 172 0
 808 0861 8B4508   		movl	8(%ebp), %eax
 809 0864 83C016   		addl	$22, %eax
 810 0867 890424   		movl	%eax, (%esp)
 811 086a E8000000 		call	_AssignNull
 811      00
 173:E:/NeuOrga/Programmieren/c_cpp/github_os/input/src/os_base\os_task_queue.c ****    AssignNull(&task->TimeToPrioInc);
 812              		.loc 1 173 0
 813 086f 8B4508   		movl	8(%ebp), %eax
 814 0872 83C026   		addl	$38, %eax
 815 0875 890424   		movl	%eax, (%esp)
 816 0878 E8000000 		call	_AssignNull
 816      00
 174:E:/NeuOrga/Programmieren/c_cpp/github_os/input/src/os_base\os_task_queue.c ****    task->overwaittime_per_prio_inc_step        =   0       ;
 817              		.loc 1 174 0
 818 087d 8B4508   		movl	8(%ebp), %eax
 819 0880 C7403800 		movl	$0, 56(%eax)
 819      000000
 175:E:/NeuOrga/Programmieren/c_cpp/github_os/input/src/os_base\os_task_queue.c ****    AssignNull(&task->max_allowed_wait_time);
 820              		.loc 1 175 0
GAS LISTING C:\Users\PRESID~1\AppData\Local\Temp\ccPltnJh.s 			page 21


 821 0887 8B4508   		movl	8(%ebp), %eax
 822 088a 83C03C   		addl	$60, %eax
 823 088d 890424   		movl	%eax, (%esp)
 824 0890 E8000000 		call	_AssignNull
 824      00
 176:E:/NeuOrga/Programmieren/c_cpp/github_os/input/src/os_base\os_task_queue.c ****    AssignNull(&task->exe_time);
 825              		.loc 1 176 0
 826 0895 8B4508   		movl	8(%ebp), %eax
 827 0898 83C04C   		addl	$76, %eax
 828 089b 890424   		movl	%eax, (%esp)
 829 089e E8000000 		call	_AssignNull
 829      00
 177:E:/NeuOrga/Programmieren/c_cpp/github_os/input/src/os_base\os_task_queue.c ****    AssignNull(&task->start_time);
 830              		.loc 1 177 0
 831 08a3 8B4508   		movl	8(%ebp), %eax
 832 08a6 83C05C   		addl	$92, %eax
 833 08a9 890424   		movl	%eax, (%esp)
 834 08ac E8000000 		call	_AssignNull
 834      00
 178:E:/NeuOrga/Programmieren/c_cpp/github_os/input/src/os_base\os_task_queue.c ****    task->current_prio                          =   0       ;
 835              		.loc 1 178 0
 836 08b1 8B4508   		movl	8(%ebp), %eax
 837 08b4 C6406C00 		movb	$0, 108(%eax)
 179:E:/NeuOrga/Programmieren/c_cpp/github_os/input/src/os_base\os_task_queue.c ****    task->default_prio                          =   0       ;
 838              		.loc 1 179 0
 839 08b8 8B4508   		movl	8(%ebp), %eax
 840 08bb C6406D00 		movb	$0, 109(%eax)
 180:E:/NeuOrga/Programmieren/c_cpp/github_os/input/src/os_base\os_task_queue.c ****    task->fp                                    =   0       ;
 841              		.loc 1 180 0
 842 08bf 8B4508   		movl	8(%ebp), %eax
 843 08c2 C7407400 		movl	$0, 116(%eax)
 843      000000
 181:E:/NeuOrga/Programmieren/c_cpp/github_os/input/src/os_base\os_task_queue.c ****    task->state_request                         =   &task_state_request       ;
 844              		.loc 1 181 0
 845 08c9 8B4508   		movl	8(%ebp), %eax
 846 08cc C7407800 		movl	$_task_state_request, 120(%eax)
 846      000000
 182:E:/NeuOrga/Programmieren/c_cpp/github_os/input/src/os_base\os_task_queue.c ****    task->task_state                            =   Task_unspecified;
 847              		.loc 1 182 0
 848 08d3 8B4508   		movl	8(%ebp), %eax
 849 08d6 C7407C00 		movl	$0, 124(%eax)
 849      000000
 183:E:/NeuOrga/Programmieren/c_cpp/github_os/input/src/os_base\os_task_queue.c ****    task->task_group                            =   0       ;
 850              		.loc 1 183 0
 851 08dd 8B4508   		movl	8(%ebp), %eax
 852 08e0 C7808000 		movl	$0, 128(%eax)
 852      00000000 
 852      0000
 184:E:/NeuOrga/Programmieren/c_cpp/github_os/input/src/os_base\os_task_queue.c ****    #if(CFG_PROCESSOR == cMCU_X86)
 185:E:/NeuOrga/Programmieren/c_cpp/github_os/input/src/os_base\os_task_queue.c ****    task->EAX                                   =   0              ;
 853              		.loc 1 185 0
 854 08ea 8B4508   		movl	8(%ebp), %eax
 855 08ed C7808400 		movl	$0, 132(%eax)
 855      00000000 
 855      0000
 186:E:/NeuOrga/Programmieren/c_cpp/github_os/input/src/os_base\os_task_queue.c ****    task->EBX                                   =   0             ;
 856              		.loc 1 186 0
GAS LISTING C:\Users\PRESID~1\AppData\Local\Temp\ccPltnJh.s 			page 22


 857 08f7 8B4508   		movl	8(%ebp), %eax
 858 08fa C7808800 		movl	$0, 136(%eax)
 858      00000000 
 858      0000
 187:E:/NeuOrga/Programmieren/c_cpp/github_os/input/src/os_base\os_task_queue.c ****    task->ECX                                   =   0              ;
 859              		.loc 1 187 0
 860 0904 8B4508   		movl	8(%ebp), %eax
 861 0907 C7808C00 		movl	$0, 140(%eax)
 861      00000000 
 861      0000
 188:E:/NeuOrga/Programmieren/c_cpp/github_os/input/src/os_base\os_task_queue.c ****    task->EDX                                   =   0              ;
 862              		.loc 1 188 0
 863 0911 8B4508   		movl	8(%ebp), %eax
 864 0914 C7809000 		movl	$0, 144(%eax)
 864      00000000 
 864      0000
 189:E:/NeuOrga/Programmieren/c_cpp/github_os/input/src/os_base\os_task_queue.c ****    #elif(CFG_PROCESSOR == cMCU_CORTEX_M4)
 190:E:/NeuOrga/Programmieren/c_cpp/github_os/input/src/os_base\os_task_queue.c ****    task->r0                                   =   0              ;
 191:E:/NeuOrga/Programmieren/c_cpp/github_os/input/src/os_base\os_task_queue.c ****    task->r1                                   =   0              ;
 192:E:/NeuOrga/Programmieren/c_cpp/github_os/input/src/os_base\os_task_queue.c ****    task->r2                                   =   0              ;
 193:E:/NeuOrga/Programmieren/c_cpp/github_os/input/src/os_base\os_task_queue.c ****    task->r3                                   =   0              ;
 194:E:/NeuOrga/Programmieren/c_cpp/github_os/input/src/os_base\os_task_queue.c ****    task->r4                                   =   0              ;
 195:E:/NeuOrga/Programmieren/c_cpp/github_os/input/src/os_base\os_task_queue.c ****    task->r5                                   =   0              ;
 196:E:/NeuOrga/Programmieren/c_cpp/github_os/input/src/os_base\os_task_queue.c ****    task->r6                                   =   0              ;
 197:E:/NeuOrga/Programmieren/c_cpp/github_os/input/src/os_base\os_task_queue.c ****    task->r7                                   =   0              ;
 198:E:/NeuOrga/Programmieren/c_cpp/github_os/input/src/os_base\os_task_queue.c ****    task->r8                                   =   0              ;
 199:E:/NeuOrga/Programmieren/c_cpp/github_os/input/src/os_base\os_task_queue.c ****    task->r9                                   =   0              ;
 200:E:/NeuOrga/Programmieren/c_cpp/github_os/input/src/os_base\os_task_queue.c ****    task->r10                                  =   0             ;
 201:E:/NeuOrga/Programmieren/c_cpp/github_os/input/src/os_base\os_task_queue.c ****    task->r11                                  =   0             ;
 202:E:/NeuOrga/Programmieren/c_cpp/github_os/input/src/os_base\os_task_queue.c ****    task->r12                                  =   0             ;
 203:E:/NeuOrga/Programmieren/c_cpp/github_os/input/src/os_base\os_task_queue.c ****    #else
 204:E:/NeuOrga/Programmieren/c_cpp/github_os/input/src/os_base\os_task_queue.c ****    #error "os_task_queue.c"
 205:E:/NeuOrga/Programmieren/c_cpp/github_os/input/src/os_base\os_task_queue.c ****    #endif
 206:E:/NeuOrga/Programmieren/c_cpp/github_os/input/src/os_base\os_task_queue.c ****    task->pStackPointer                         =   0       ;
 865              		.loc 1 206 0
 866 091e 8B4508   		movl	8(%ebp), %eax
 867 0921 C7809400 		movl	$0, 148(%eax)
 867      00000000 
 867      0000
 207:E:/NeuOrga/Programmieren/c_cpp/github_os/input/src/os_base\os_task_queue.c ****    task->pStackPointerByMalloc                 =   0       ;
 868              		.loc 1 207 0
 869 092b 8B4508   		movl	8(%ebp), %eax
 870 092e C7809800 		movl	$0, 152(%eax)
 870      00000000 
 870      0000
 208:E:/NeuOrga/Programmieren/c_cpp/github_os/input/src/os_base\os_task_queue.c ****    task->pStackPointerStart                    =   0       ;
 871              		.loc 1 208 0
 872 0938 8B4508   		movl	8(%ebp), %eax
 873 093b C7809C00 		movl	$0, 156(%eax)
 873      00000000 
 873      0000
 209:E:/NeuOrga/Programmieren/c_cpp/github_os/input/src/os_base\os_task_queue.c ****    task->StackSize                             =   0       ;
 874              		.loc 1 209 0
 875 0945 8B4508   		movl	8(%ebp), %eax
 876 0948 C780A000 		movl	$0, 160(%eax)
 876      00000000 
 876      0000
GAS LISTING C:\Users\PRESID~1\AppData\Local\Temp\ccPltnJh.s 			page 23


 210:E:/NeuOrga/Programmieren/c_cpp/github_os/input/src/os_base\os_task_queue.c ****    task->pStackPointerEnd                      =   0       ;
 877              		.loc 1 210 0
 878 0952 8B4508   		movl	8(%ebp), %eax
 879 0955 C780A400 		movl	$0, 164(%eax)
 879      00000000 
 879      0000
 211:E:/NeuOrga/Programmieren/c_cpp/github_os/input/src/os_base\os_task_queue.c **** }
 880              		.loc 1 211 0
 881 095f C9       		leave
 882              		.cfi_restore 5
 883              		.cfi_def_cfa 4, 4
 884 0960 C3       		ret
 885              		.cfi_endproc
 886              	LFE3:
 887              		.globl	_GetFromTaskQueue
 889              	_GetFromTaskQueue:
 890              	LFB4:
 212:E:/NeuOrga/Programmieren/c_cpp/github_os/input/src/os_base\os_task_queue.c **** task_t* GetFromTaskQueue(scheduling_t* scheduling_queue_element)
 213:E:/NeuOrga/Programmieren/c_cpp/github_os/input/src/os_base\os_task_queue.c **** {
 891              		.loc 1 213 0
 892              		.cfi_startproc
 893 0961 55       		pushl	%ebp
 894              		.cfi_def_cfa_offset 8
 895              		.cfi_offset 5, -8
 896 0962 89E5     		movl	%esp, %ebp
 897              		.cfi_def_cfa_register 5
 214:E:/NeuOrga/Programmieren/c_cpp/github_os/input/src/os_base\os_task_queue.c ****    return ((task_t*)*scheduling_queue_element);
 898              		.loc 1 214 0
 899 0964 8B4508   		movl	8(%ebp), %eax
 900 0967 8B00     		movl	(%eax), %eax
 215:E:/NeuOrga/Programmieren/c_cpp/github_os/input/src/os_base\os_task_queue.c **** }
 901              		.loc 1 215 0
 902 0969 5D       		popl	%ebp
 903              		.cfi_restore 5
 904              		.cfi_def_cfa 4, 4
 905 096a C3       		ret
 906              		.cfi_endproc
 907              	LFE4:
 908              		.globl	_GetFromSchedulingQueue
 910              	_GetFromSchedulingQueue:
 911              	LFB5:
 216:E:/NeuOrga/Programmieren/c_cpp/github_os/input/src/os_base\os_task_queue.c **** scheduling_t* GetFromSchedulingQueue(unsigned_char_t element_nr)
 217:E:/NeuOrga/Programmieren/c_cpp/github_os/input/src/os_base\os_task_queue.c **** {
 912              		.loc 1 217 0
 913              		.cfi_startproc
 914 096b 55       		pushl	%ebp
 915              		.cfi_def_cfa_offset 8
 916              		.cfi_offset 5, -8
 917 096c 89E5     		movl	%esp, %ebp
 918              		.cfi_def_cfa_register 5
 919 096e 83EC04   		subl	$4, %esp
 920 0971 8B4508   		movl	8(%ebp), %eax
 921 0974 8845FC   		movb	%al, -4(%ebp)
 218:E:/NeuOrga/Programmieren/c_cpp/github_os/input/src/os_base\os_task_queue.c ****    return ((scheduling_t*)&TASK_SCHEDULING_QUEUE[element_nr]);
 922              		.loc 1 218 0
 923 0977 0FB645FC 		movzbl	-4(%ebp), %eax
 924 097b C1E002   		sall	$2, %eax
GAS LISTING C:\Users\PRESID~1\AppData\Local\Temp\ccPltnJh.s 			page 24


 925 097e 05000000 		addl	$_TASK_SCHEDULING_QUEUE, %eax
 925      00
 219:E:/NeuOrga/Programmieren/c_cpp/github_os/input/src/os_base\os_task_queue.c **** }
 926              		.loc 1 219 0
 927 0983 C9       		leave
 928              		.cfi_restore 5
 929              		.cfi_def_cfa 4, 4
 930 0984 C3       		ret
 931              		.cfi_endproc
 932              	LFE5:
 933              		.globl	_DeleteFromSchedulingQueue
 935              	_DeleteFromSchedulingQueue:
 936              	LFB6:
 220:E:/NeuOrga/Programmieren/c_cpp/github_os/input/src/os_base\os_task_queue.c **** /* Pointer Queue Handling*/
 221:E:/NeuOrga/Programmieren/c_cpp/github_os/input/src/os_base\os_task_queue.c **** void DeleteFromSchedulingQueue(scheduling_t* scheduling_queue_element)
 222:E:/NeuOrga/Programmieren/c_cpp/github_os/input/src/os_base\os_task_queue.c **** {
 937              		.loc 1 222 0
 938              		.cfi_startproc
 939 0985 55       		pushl	%ebp
 940              		.cfi_def_cfa_offset 8
 941              		.cfi_offset 5, -8
 942 0986 89E5     		movl	%esp, %ebp
 943              		.cfi_def_cfa_register 5
 223:E:/NeuOrga/Programmieren/c_cpp/github_os/input/src/os_base\os_task_queue.c ****    *scheduling_queue_element = 0;
 944              		.loc 1 223 0
 945 0988 8B4508   		movl	8(%ebp), %eax
 946 098b C7000000 		movl	$0, (%eax)
 946      0000
 224:E:/NeuOrga/Programmieren/c_cpp/github_os/input/src/os_base\os_task_queue.c **** }
 947              		.loc 1 224 0
 948 0991 5D       		popl	%ebp
 949              		.cfi_restore 5
 950              		.cfi_def_cfa 4, 4
 951 0992 C3       		ret
 952              		.cfi_endproc
 953              	LFE6:
 954              		.globl	_AddToSchedulingQueue
 956              	_AddToSchedulingQueue:
 957              	LFB7:
 225:E:/NeuOrga/Programmieren/c_cpp/github_os/input/src/os_base\os_task_queue.c **** void AddToSchedulingQueue(task_t* task)
 226:E:/NeuOrga/Programmieren/c_cpp/github_os/input/src/os_base\os_task_queue.c **** {
 958              		.loc 1 226 0
 959              		.cfi_startproc
 960 0993 55       		pushl	%ebp
 961              		.cfi_def_cfa_offset 8
 962              		.cfi_offset 5, -8
 963 0994 89E5     		movl	%esp, %ebp
 964              		.cfi_def_cfa_register 5
 965 0996 83EC10   		subl	$16, %esp
 227:E:/NeuOrga/Programmieren/c_cpp/github_os/input/src/os_base\os_task_queue.c ****    /*
 228:E:/NeuOrga/Programmieren/c_cpp/github_os/input/src/os_base\os_task_queue.c ****    Description:
 229:E:/NeuOrga/Programmieren/c_cpp/github_os/input/src/os_base\os_task_queue.c ****    add "task" into next free slot of TASK_SCHEDULING_QUEUE
 230:E:/NeuOrga/Programmieren/c_cpp/github_os/input/src/os_base\os_task_queue.c **** 
 231:E:/NeuOrga/Programmieren/c_cpp/github_os/input/src/os_base\os_task_queue.c ****    in:     task_t* task (task to be added)
 232:E:/NeuOrga/Programmieren/c_cpp/github_os/input/src/os_base\os_task_queue.c ****    out:
 233:E:/NeuOrga/Programmieren/c_cpp/github_os/input/src/os_base\os_task_queue.c ****    */
 234:E:/NeuOrga/Programmieren/c_cpp/github_os/input/src/os_base\os_task_queue.c ****    unsigned_char_t Add_successful = False;
GAS LISTING C:\Users\PRESID~1\AppData\Local\Temp\ccPltnJh.s 			page 25


 966              		.loc 1 234 0
 967 0999 C645FF00 		movb	$0, -1(%ebp)
 235:E:/NeuOrga/Programmieren/c_cpp/github_os/input/src/os_base\os_task_queue.c ****    unsigned_char_t index = 0;
 968              		.loc 1 235 0
 969 099d C645FE00 		movb	$0, -2(%ebp)
 236:E:/NeuOrga/Programmieren/c_cpp/github_os/input/src/os_base\os_task_queue.c **** 
 237:E:/NeuOrga/Programmieren/c_cpp/github_os/input/src/os_base\os_task_queue.c ****    while(  (index < MAX_RUN_QUEUE_SIZE)
 970              		.loc 1 237 0
 971 09a1 EB28     		jmp	L20
 972              	L23:
 238:E:/NeuOrga/Programmieren/c_cpp/github_os/input/src/os_base\os_task_queue.c ****            &&(Add_successful == False))
 239:E:/NeuOrga/Programmieren/c_cpp/github_os/input/src/os_base\os_task_queue.c ****    {
 240:E:/NeuOrga/Programmieren/c_cpp/github_os/input/src/os_base\os_task_queue.c ****       if(TASK_SCHEDULING_QUEUE[index] == 0)
 973              		.loc 1 240 0
 974 09a3 0FB645FE 		movzbl	-2(%ebp), %eax
 975 09a7 8B048500 		movl	_TASK_SCHEDULING_QUEUE(,%eax,4), %eax
 975      000000
 976 09ae 85C0     		testl	%eax, %eax
 977 09b0 7512     		jne	L21
 241:E:/NeuOrga/Programmieren/c_cpp/github_os/input/src/os_base\os_task_queue.c ****       {
 242:E:/NeuOrga/Programmieren/c_cpp/github_os/input/src/os_base\os_task_queue.c ****          TASK_SCHEDULING_QUEUE[index] = task;
 978              		.loc 1 242 0
 979 09b2 0FB645FE 		movzbl	-2(%ebp), %eax
 980 09b6 8B5508   		movl	8(%ebp), %edx
 981 09b9 89148500 		movl	%edx, _TASK_SCHEDULING_QUEUE(,%eax,4)
 981      000000
 243:E:/NeuOrga/Programmieren/c_cpp/github_os/input/src/os_base\os_task_queue.c ****          Add_successful         = True;
 982              		.loc 1 243 0
 983 09c0 C645FF01 		movb	$1, -1(%ebp)
 984              	L21:
 244:E:/NeuOrga/Programmieren/c_cpp/github_os/input/src/os_base\os_task_queue.c ****       }
 245:E:/NeuOrga/Programmieren/c_cpp/github_os/input/src/os_base\os_task_queue.c ****       index++;
 985              		.loc 1 245 0
 986 09c4 8A45FE   		movb	-2(%ebp), %al
 987 09c7 40       		incl	%eax
 988 09c8 8845FE   		movb	%al, -2(%ebp)
 989              	L20:
 237:E:/NeuOrga/Programmieren/c_cpp/github_os/input/src/os_base\os_task_queue.c ****            &&(Add_successful == False))
 990              		.loc 1 237 0
 991 09cb 807DFE09 		cmpb	$9, -2(%ebp)
 992 09cf 7706     		ja	L22
 238:E:/NeuOrga/Programmieren/c_cpp/github_os/input/src/os_base\os_task_queue.c ****    {
 993              		.loc 1 238 0
 994 09d1 807DFF00 		cmpb	$0, -1(%ebp)
 995 09d5 74CC     		je	L23
 996              	L22:
 246:E:/NeuOrga/Programmieren/c_cpp/github_os/input/src/os_base\os_task_queue.c ****    }
 247:E:/NeuOrga/Programmieren/c_cpp/github_os/input/src/os_base\os_task_queue.c ****    return;
 997              		.loc 1 247 0
 998 09d7 90       		nop
 248:E:/NeuOrga/Programmieren/c_cpp/github_os/input/src/os_base\os_task_queue.c **** }
 999              		.loc 1 248 0
 1000 09d8 C9       		leave
 1001              		.cfi_restore 5
 1002              		.cfi_def_cfa 4, 4
 1003 09d9 C3       		ret
 1004              		.cfi_endproc
GAS LISTING C:\Users\PRESID~1\AppData\Local\Temp\ccPltnJh.s 			page 26


 1005              	LFE7:
 1006              		.globl	_UpdateSchedulingQueue
 1008              	_UpdateSchedulingQueue:
 1009              	LFB8:
 249:E:/NeuOrga/Programmieren/c_cpp/github_os/input/src/os_base\os_task_queue.c **** void UpdateSchedulingQueue(void)
 250:E:/NeuOrga/Programmieren/c_cpp/github_os/input/src/os_base\os_task_queue.c **** {
 1010              		.loc 1 250 0
 1011              		.cfi_startproc
 1012 09da 55       		pushl	%ebp
 1013              		.cfi_def_cfa_offset 8
 1014              		.cfi_offset 5, -8
 1015 09db 89E5     		movl	%esp, %ebp
 1016              		.cfi_def_cfa_register 5
 1017 09dd 83EC10   		subl	$16, %esp
 251:E:/NeuOrga/Programmieren/c_cpp/github_os/input/src/os_base\os_task_queue.c ****    /* eliminate emptry link list entries (should be colleted at the high numbers) */
 252:E:/NeuOrga/Programmieren/c_cpp/github_os/input/src/os_base\os_task_queue.c ****    unsigned_char_t dest = 0, src = 0;
 1018              		.loc 1 252 0
 1019 09e0 C645FF00 		movb	$0, -1(%ebp)
 1020 09e4 C645FE00 		movb	$0, -2(%ebp)
 253:E:/NeuOrga/Programmieren/c_cpp/github_os/input/src/os_base\os_task_queue.c **** 
 254:E:/NeuOrga/Programmieren/c_cpp/github_os/input/src/os_base\os_task_queue.c ****    while (dest < MAX_RUN_PQUEUE_SIZE)
 1021              		.loc 1 254 0
 1022 09e8 EB74     		jmp	L26
 1023              	L31:
 255:E:/NeuOrga/Programmieren/c_cpp/github_os/input/src/os_base\os_task_queue.c ****    {
 256:E:/NeuOrga/Programmieren/c_cpp/github_os/input/src/os_base\os_task_queue.c ****       if(TASK_SCHEDULING_QUEUE[dest] == 0)
 1024              		.loc 1 256 0
 1025 09ea 0FB645FF 		movzbl	-1(%ebp), %eax
 1026 09ee 8B048500 		movl	_TASK_SCHEDULING_QUEUE(,%eax,4), %eax
 1026      000000
 1027 09f5 85C0     		testl	%eax, %eax
 1028 09f7 755E     		jne	L27
 257:E:/NeuOrga/Programmieren/c_cpp/github_os/input/src/os_base\os_task_queue.c ****       {
 258:E:/NeuOrga/Programmieren/c_cpp/github_os/input/src/os_base\os_task_queue.c ****          /* found empty entry ->shift following elements left in array */
 259:E:/NeuOrga/Programmieren/c_cpp/github_os/input/src/os_base\os_task_queue.c **** 
 260:E:/NeuOrga/Programmieren/c_cpp/github_os/input/src/os_base\os_task_queue.c ****          src = dest; /* start from empty entry point */
 1029              		.loc 1 260 0
 1030 09f9 8A45FF   		movb	-1(%ebp), %al
 1031 09fc 8845FE   		movb	%al, -2(%ebp)
 261:E:/NeuOrga/Programmieren/c_cpp/github_os/input/src/os_base\os_task_queue.c ****          while((src < MAX_RUN_PQUEUE_SIZE)&&(TASK_SCHEDULING_QUEUE[src]==0))
 1032              		.loc 1 261 0
 1033 09ff EB07     		jmp	L28
 1034              	L30:
 262:E:/NeuOrga/Programmieren/c_cpp/github_os/input/src/os_base\os_task_queue.c ****          {
 263:E:/NeuOrga/Programmieren/c_cpp/github_os/input/src/os_base\os_task_queue.c ****             src++;
 1035              		.loc 1 263 0
 1036 0a01 8A45FE   		movb	-2(%ebp), %al
 1037 0a04 40       		incl	%eax
 1038 0a05 8845FE   		movb	%al, -2(%ebp)
 1039              	L28:
 261:E:/NeuOrga/Programmieren/c_cpp/github_os/input/src/os_base\os_task_queue.c ****          while((src < MAX_RUN_PQUEUE_SIZE)&&(TASK_SCHEDULING_QUEUE[src]==0))
 1040              		.loc 1 261 0
 1041 0a08 807DFE09 		cmpb	$9, -2(%ebp)
 1042 0a0c 770F     		ja	L29
 261:E:/NeuOrga/Programmieren/c_cpp/github_os/input/src/os_base\os_task_queue.c ****          while((src < MAX_RUN_PQUEUE_SIZE)&&(TASK_SCHEDULING_QUEUE[src]==0))
 1043              		.loc 1 261 0 is_stmt 0 discriminator 1
 1044 0a0e 0FB645FE 		movzbl	-2(%ebp), %eax
GAS LISTING C:\Users\PRESID~1\AppData\Local\Temp\ccPltnJh.s 			page 27


 1045 0a12 8B048500 		movl	_TASK_SCHEDULING_QUEUE(,%eax,4), %eax
 1045      000000
 1046 0a19 85C0     		testl	%eax, %eax
 1047 0a1b 74E4     		je	L30
 1048              	L29:
 264:E:/NeuOrga/Programmieren/c_cpp/github_os/input/src/os_base\os_task_queue.c ****          }
 265:E:/NeuOrga/Programmieren/c_cpp/github_os/input/src/os_base\os_task_queue.c ****          if((src < MAX_RUN_PQUEUE_SIZE)&&(TASK_SCHEDULING_QUEUE[src]!=0))
 1049              		.loc 1 265 0 is_stmt 1
 1050 0a1d 807DFE09 		cmpb	$9, -2(%ebp)
 1051 0a21 7734     		ja	L27
 1052              		.loc 1 265 0 is_stmt 0 discriminator 1
 1053 0a23 0FB645FE 		movzbl	-2(%ebp), %eax
 1054 0a27 8B048500 		movl	_TASK_SCHEDULING_QUEUE(,%eax,4), %eax
 1054      000000
 1055 0a2e 85C0     		testl	%eax, %eax
 1056 0a30 7425     		je	L27
 266:E:/NeuOrga/Programmieren/c_cpp/github_os/input/src/os_base\os_task_queue.c ****          {
 267:E:/NeuOrga/Programmieren/c_cpp/github_os/input/src/os_base\os_task_queue.c ****             TASK_SCHEDULING_QUEUE[dest] = TASK_SCHEDULING_QUEUE[src];
 1057              		.loc 1 267 0 is_stmt 1
 1058 0a32 0FB645FF 		movzbl	-1(%ebp), %eax
 1059 0a36 0FB655FE 		movzbl	-2(%ebp), %edx
 1060 0a3a 8B149500 		movl	_TASK_SCHEDULING_QUEUE(,%edx,4), %edx
 1060      000000
 1061 0a41 89148500 		movl	%edx, _TASK_SCHEDULING_QUEUE(,%eax,4)
 1061      000000
 268:E:/NeuOrga/Programmieren/c_cpp/github_os/input/src/os_base\os_task_queue.c ****             TASK_SCHEDULING_QUEUE[src]  = 0;
 1062              		.loc 1 268 0
 1063 0a48 0FB645FE 		movzbl	-2(%ebp), %eax
 1064 0a4c C7048500 		movl	$0, _TASK_SCHEDULING_QUEUE(,%eax,4)
 1064      00000000 
 1064      000000
 1065              	L27:
 269:E:/NeuOrga/Programmieren/c_cpp/github_os/input/src/os_base\os_task_queue.c ****          }
 270:E:/NeuOrga/Programmieren/c_cpp/github_os/input/src/os_base\os_task_queue.c ****       }
 271:E:/NeuOrga/Programmieren/c_cpp/github_os/input/src/os_base\os_task_queue.c ****       dest++;
 1066              		.loc 1 271 0
 1067 0a57 8A45FF   		movb	-1(%ebp), %al
 1068 0a5a 40       		incl	%eax
 1069 0a5b 8845FF   		movb	%al, -1(%ebp)
 1070              	L26:
 254:E:/NeuOrga/Programmieren/c_cpp/github_os/input/src/os_base\os_task_queue.c ****    {
 1071              		.loc 1 254 0
 1072 0a5e 807DFF09 		cmpb	$9, -1(%ebp)
 1073 0a62 7686     		jbe	L31
 272:E:/NeuOrga/Programmieren/c_cpp/github_os/input/src/os_base\os_task_queue.c ****    }
 273:E:/NeuOrga/Programmieren/c_cpp/github_os/input/src/os_base\os_task_queue.c **** }
 1074              		.loc 1 273 0
 1075 0a64 C9       		leave
 1076              		.cfi_restore 5
 1077              		.cfi_def_cfa 4, 4
 1078 0a65 C3       		ret
 1079              		.cfi_endproc
 1080              	LFE8:
 1081              		.globl	_GetIdleTask
 1083              	_GetIdleTask:
 1084              	LFB9:
 274:E:/NeuOrga/Programmieren/c_cpp/github_os/input/src/os_base\os_task_queue.c **** 
GAS LISTING C:\Users\PRESID~1\AppData\Local\Temp\ccPltnJh.s 			page 28


 275:E:/NeuOrga/Programmieren/c_cpp/github_os/input/src/os_base\os_task_queue.c **** /* Idle task queue handling */
 276:E:/NeuOrga/Programmieren/c_cpp/github_os/input/src/os_base\os_task_queue.c **** task_t* GetIdleTask(void)
 277:E:/NeuOrga/Programmieren/c_cpp/github_os/input/src/os_base\os_task_queue.c **** {
 1085              		.loc 1 277 0
 1086              		.cfi_startproc
 1087 0a66 55       		pushl	%ebp
 1088              		.cfi_def_cfa_offset 8
 1089              		.cfi_offset 5, -8
 1090 0a67 89E5     		movl	%esp, %ebp
 1091              		.cfi_def_cfa_register 5
 278:E:/NeuOrga/Programmieren/c_cpp/github_os/input/src/os_base\os_task_queue.c ****    return (&TASK_IDLE_QUEUE[0]);
 1092              		.loc 1 278 0
 1093 0a69 B8000000 		movl	$_TASK_IDLE_QUEUE, %eax
 1093      00
 279:E:/NeuOrga/Programmieren/c_cpp/github_os/input/src/os_base\os_task_queue.c **** }
 1094              		.loc 1 279 0
 1095 0a6e 5D       		popl	%ebp
 1096              		.cfi_restore 5
 1097              		.cfi_def_cfa 4, 4
 1098 0a6f C3       		ret
 1099              		.cfi_endproc
 1100              	LFE9:
 1101              		.globl	_AddToIdleTaskQueue
 1103              	_AddToIdleTaskQueue:
 1104              	LFB10:
 280:E:/NeuOrga/Programmieren/c_cpp/github_os/input/src/os_base\os_task_queue.c **** void AddToIdleTaskQueue(task_t* task)
 281:E:/NeuOrga/Programmieren/c_cpp/github_os/input/src/os_base\os_task_queue.c **** {
 1105              		.loc 1 281 0
 1106              		.cfi_startproc
 1107 0a70 55       		pushl	%ebp
 1108              		.cfi_def_cfa_offset 8
 1109              		.cfi_offset 5, -8
 1110 0a71 89E5     		movl	%esp, %ebp
 1111              		.cfi_def_cfa_register 5
 1112 0a73 83EC18   		subl	$24, %esp
 282:E:/NeuOrga/Programmieren/c_cpp/github_os/input/src/os_base\os_task_queue.c ****    /* only 1 element for TASK_IDLE_QUEUE allowed */
 283:E:/NeuOrga/Programmieren/c_cpp/github_os/input/src/os_base\os_task_queue.c ****    if((&TASK_IDLE_QUEUE[0])->IdleTask == False)
 1113              		.loc 1 283 0
 1114 0a76 A0000000 		movb	_TASK_IDLE_QUEUE, %al
 1114      00
 1115 0a7b 83E004   		andl	$4, %eax
 1116 0a7e 84C0     		testb	%al, %al
 1117 0a80 0F85CE01 		jne	L34
 1117      0000
 284:E:/NeuOrga/Programmieren/c_cpp/github_os/input/src/os_base\os_task_queue.c ****    {
 285:E:/NeuOrga/Programmieren/c_cpp/github_os/input/src/os_base\os_task_queue.c ****       (&TASK_IDLE_QUEUE[0])->active                                =   task->active           ;
 1118              		.loc 1 285 0
 1119 0a86 8B4508   		movl	8(%ebp), %eax
 1120 0a89 8A00     		movb	(%eax), %al
 1121 0a8b 83E001   		andl	$1, %eax
 1122 0a8e 83E001   		andl	$1, %eax
 1123 0a91 88C2     		movb	%al, %dl
 1124 0a93 A0000000 		movb	_TASK_IDLE_QUEUE, %al
 1124      00
 1125 0a98 83E0FE   		andl	$-2, %eax
 1126 0a9b 09D0     		orl	%edx, %eax
 1127 0a9d A2000000 		movb	%al, _TASK_IDLE_QUEUE
GAS LISTING C:\Users\PRESID~1\AppData\Local\Temp\ccPltnJh.s 			page 29


 1127      00
 286:E:/NeuOrga/Programmieren/c_cpp/github_os/input/src/os_base\os_task_queue.c ****       (&TASK_IDLE_QUEUE[0])->task_queued                           =   task->task_queued      ;
 1128              		.loc 1 286 0
 1129 0aa2 8B4508   		movl	8(%ebp), %eax
 1130 0aa5 8A00     		movb	(%eax), %al
 1131 0aa7 D0E8     		shrb	%al
 1132 0aa9 83E001   		andl	$1, %eax
 1133 0aac 83E001   		andl	$1, %eax
 1134 0aaf 8D1400   		leal	(%eax,%eax), %edx
 1135 0ab2 A0000000 		movb	_TASK_IDLE_QUEUE, %al
 1135      00
 1136 0ab7 83E0FD   		andl	$-3, %eax
 1137 0aba 09D0     		orl	%edx, %eax
 1138 0abc A2000000 		movb	%al, _TASK_IDLE_QUEUE
 1138      00
 287:E:/NeuOrga/Programmieren/c_cpp/github_os/input/src/os_base\os_task_queue.c ****       (&TASK_IDLE_QUEUE[0])->IdleTask                              =   task->IdleTask         ;
 1139              		.loc 1 287 0
 1140 0ac1 8B4508   		movl	8(%ebp), %eax
 1141 0ac4 8A00     		movb	(%eax), %al
 1142 0ac6 C0E802   		shrb	$2, %al
 1143 0ac9 83E001   		andl	$1, %eax
 1144 0acc 83E001   		andl	$1, %eax
 1145 0acf 8D148500 		leal	0(,%eax,4), %edx
 1145      000000
 1146 0ad6 A0000000 		movb	_TASK_IDLE_QUEUE, %al
 1146      00
 1147 0adb 83E0FB   		andl	$-5, %eax
 1148 0ade 09D0     		orl	%edx, %eax
 1149 0ae0 A2000000 		movb	%al, _TASK_IDLE_QUEUE
 1149      00
 288:E:/NeuOrga/Programmieren/c_cpp/github_os/input/src/os_base\os_task_queue.c ****       (&TASK_IDLE_QUEUE[0])->FREE                                  =   task->FREE             ;
 1150              		.loc 1 288 0
 1151 0ae5 8B4508   		movl	8(%ebp), %eax
 1152 0ae8 8B00     		movl	(%eax), %eax
 1153 0aea C1E803   		shrl	$3, %eax
 1154 0aed 8D14C500 		leal	0(,%eax,8), %edx
 1154      000000
 1155 0af4 A1000000 		movl	_TASK_IDLE_QUEUE, %eax
 1155      00
 1156 0af9 83E007   		andl	$7, %eax
 1157 0afc 09D0     		orl	%edx, %eax
 1158 0afe A3000000 		movl	%eax, _TASK_IDLE_QUEUE
 1158      00
 289:E:/NeuOrga/Programmieren/c_cpp/github_os/input/src/os_base\os_task_queue.c ****       (&TASK_IDLE_QUEUE[0])->NrOfInsAllowed                        =   task->NrOfInsAllowed   ;
 1159              		.loc 1 289 0
 1160 0b03 8B4508   		movl	8(%ebp), %eax
 1161 0b06 8A4004   		movb	4(%eax), %al
 1162 0b09 A2040000 		movb	%al, _TASK_IDLE_QUEUE+4
 1162      00
 290:E:/NeuOrga/Programmieren/c_cpp/github_os/input/src/os_base\os_task_queue.c ****       (&TASK_IDLE_QUEUE[0])->NrOfInsActivated                      =   task->NrOfInsActivated ;
 1163              		.loc 1 290 0
 1164 0b0e 8B4508   		movl	8(%ebp), %eax
 1165 0b11 8A4005   		movb	5(%eax), %al
 1166 0b14 A2050000 		movb	%al, _TASK_IDLE_QUEUE+5
 1166      00
 291:E:/NeuOrga/Programmieren/c_cpp/github_os/input/src/os_base\os_task_queue.c ****       Assign(&(&TASK_IDLE_QUEUE[0])->WaitActUntil                   , &task->WaitActUntil);
 1167              		.loc 1 291 0
GAS LISTING C:\Users\PRESID~1\AppData\Local\Temp\ccPltnJh.s 			page 30


 1168 0b19 8B4508   		movl	8(%ebp), %eax
 1169 0b1c 83C006   		addl	$6, %eax
 1170 0b1f 89442404 		movl	%eax, 4(%esp)
 1171 0b23 C7042406 		movl	$_TASK_IDLE_QUEUE+6, (%esp)
 1171      000000
 1172 0b2a E8000000 		call	_Assign
 1172      00
 292:E:/NeuOrga/Programmieren/c_cpp/github_os/input/src/os_base\os_task_queue.c ****       Assign(&(&TASK_IDLE_QUEUE[0])->wait_time                      , &task->wait_time);
 1173              		.loc 1 292 0
 1174 0b2f 8B4508   		movl	8(%ebp), %eax
 1175 0b32 83C016   		addl	$22, %eax
 1176 0b35 89442404 		movl	%eax, 4(%esp)
 1177 0b39 C7042416 		movl	$_TASK_IDLE_QUEUE+22, (%esp)
 1177      000000
 1178 0b40 E8000000 		call	_Assign
 1178      00
 293:E:/NeuOrga/Programmieren/c_cpp/github_os/input/src/os_base\os_task_queue.c ****       Assign(&(&TASK_IDLE_QUEUE[0])->TimeToPrioInc                  , &task->TimeToPrioInc);
 1179              		.loc 1 293 0
 1180 0b45 8B4508   		movl	8(%ebp), %eax
 1181 0b48 83C026   		addl	$38, %eax
 1182 0b4b 89442404 		movl	%eax, 4(%esp)
 1183 0b4f C7042426 		movl	$_TASK_IDLE_QUEUE+38, (%esp)
 1183      000000
 1184 0b56 E8000000 		call	_Assign
 1184      00
 294:E:/NeuOrga/Programmieren/c_cpp/github_os/input/src/os_base\os_task_queue.c ****       (&TASK_IDLE_QUEUE[0])->overwaittime_per_prio_inc_step       =    task->overwaittime_per_prio_
 1185              		.loc 1 294 0
 1186 0b5b 8B4508   		movl	8(%ebp), %eax
 1187 0b5e 8B4038   		movl	56(%eax), %eax
 1188 0b61 A3380000 		movl	%eax, _TASK_IDLE_QUEUE+56
 1188      00
 295:E:/NeuOrga/Programmieren/c_cpp/github_os/input/src/os_base\os_task_queue.c ****       Assign(&(&TASK_IDLE_QUEUE[0])->max_allowed_wait_time          , &task->max_allowed_wait_time)
 1189              		.loc 1 295 0
 1190 0b66 8B4508   		movl	8(%ebp), %eax
 1191 0b69 83C03C   		addl	$60, %eax
 1192 0b6c 89442404 		movl	%eax, 4(%esp)
 1193 0b70 C704243C 		movl	$_TASK_IDLE_QUEUE+60, (%esp)
 1193      000000
 1194 0b77 E8000000 		call	_Assign
 1194      00
 296:E:/NeuOrga/Programmieren/c_cpp/github_os/input/src/os_base\os_task_queue.c ****       Assign(&(&TASK_IDLE_QUEUE[0])->exe_time                       , &task->exe_time);
 1195              		.loc 1 296 0
 1196 0b7c 8B4508   		movl	8(%ebp), %eax
 1197 0b7f 83C04C   		addl	$76, %eax
 1198 0b82 89442404 		movl	%eax, 4(%esp)
 1199 0b86 C704244C 		movl	$_TASK_IDLE_QUEUE+76, (%esp)
 1199      000000
 1200 0b8d E8000000 		call	_Assign
 1200      00
 297:E:/NeuOrga/Programmieren/c_cpp/github_os/input/src/os_base\os_task_queue.c ****       (&TASK_IDLE_QUEUE[0])->current_prio                          =   task->current_prio     ;
 1201              		.loc 1 297 0
 1202 0b92 8B4508   		movl	8(%ebp), %eax
 1203 0b95 8A406C   		movb	108(%eax), %al
 1204 0b98 A26C0000 		movb	%al, _TASK_IDLE_QUEUE+108
 1204      00
 298:E:/NeuOrga/Programmieren/c_cpp/github_os/input/src/os_base\os_task_queue.c ****       (&TASK_IDLE_QUEUE[0])->default_prio                          =   task->default_prio     ;
 1205              		.loc 1 298 0
GAS LISTING C:\Users\PRESID~1\AppData\Local\Temp\ccPltnJh.s 			page 31


 1206 0b9d 8B4508   		movl	8(%ebp), %eax
 1207 0ba0 8A406D   		movb	109(%eax), %al
 1208 0ba3 A26D0000 		movb	%al, _TASK_IDLE_QUEUE+109
 1208      00
 299:E:/NeuOrga/Programmieren/c_cpp/github_os/input/src/os_base\os_task_queue.c ****       (&TASK_IDLE_QUEUE[0])->fp                                    =   task->fp               ;
 1209              		.loc 1 299 0
 1210 0ba8 8B4508   		movl	8(%ebp), %eax
 1211 0bab 8B4074   		movl	116(%eax), %eax
 1212 0bae A3740000 		movl	%eax, _TASK_IDLE_QUEUE+116
 1212      00
 300:E:/NeuOrga/Programmieren/c_cpp/github_os/input/src/os_base\os_task_queue.c ****       (&TASK_IDLE_QUEUE[0])->state_request                         =   task->state_request    ;
 1213              		.loc 1 300 0
 1214 0bb3 8B4508   		movl	8(%ebp), %eax
 1215 0bb6 8B4078   		movl	120(%eax), %eax
 1216 0bb9 A3780000 		movl	%eax, _TASK_IDLE_QUEUE+120
 1216      00
 301:E:/NeuOrga/Programmieren/c_cpp/github_os/input/src/os_base\os_task_queue.c ****       (&TASK_IDLE_QUEUE[0])->task_state                            =   Task_ready             ;
 1217              		.loc 1 301 0
 1218 0bbe C7057C00 		movl	$2, _TASK_IDLE_QUEUE+124
 1218      00000200 
 1218      0000
 302:E:/NeuOrga/Programmieren/c_cpp/github_os/input/src/os_base\os_task_queue.c ****       (&TASK_IDLE_QUEUE[0])->task_group                            =   task->task_group       ;
 1219              		.loc 1 302 0
 1220 0bc8 8B4508   		movl	8(%ebp), %eax
 1221 0bcb 8B808000 		movl	128(%eax), %eax
 1221      0000
 1222 0bd1 A3800000 		movl	%eax, _TASK_IDLE_QUEUE+128
 1222      00
 303:E:/NeuOrga/Programmieren/c_cpp/github_os/input/src/os_base\os_task_queue.c ****       #if(CFG_PROCESSOR == cMCU_X86)
 304:E:/NeuOrga/Programmieren/c_cpp/github_os/input/src/os_base\os_task_queue.c ****       (&TASK_IDLE_QUEUE[0])->EAX                                   =   task->EAX              ;
 1223              		.loc 1 304 0
 1224 0bd6 8B4508   		movl	8(%ebp), %eax
 1225 0bd9 8B808400 		movl	132(%eax), %eax
 1225      0000
 1226 0bdf A3840000 		movl	%eax, _TASK_IDLE_QUEUE+132
 1226      00
 305:E:/NeuOrga/Programmieren/c_cpp/github_os/input/src/os_base\os_task_queue.c ****       (&TASK_IDLE_QUEUE[0])->EBX                                   =   task->EBX              ;
 1227              		.loc 1 305 0
 1228 0be4 8B4508   		movl	8(%ebp), %eax
 1229 0be7 8B808800 		movl	136(%eax), %eax
 1229      0000
 1230 0bed A3880000 		movl	%eax, _TASK_IDLE_QUEUE+136
 1230      00
 306:E:/NeuOrga/Programmieren/c_cpp/github_os/input/src/os_base\os_task_queue.c ****       (&TASK_IDLE_QUEUE[0])->ECX                                   =   task->ECX              ;
 1231              		.loc 1 306 0
 1232 0bf2 8B4508   		movl	8(%ebp), %eax
 1233 0bf5 8B808C00 		movl	140(%eax), %eax
 1233      0000
 1234 0bfb A38C0000 		movl	%eax, _TASK_IDLE_QUEUE+140
 1234      00
 307:E:/NeuOrga/Programmieren/c_cpp/github_os/input/src/os_base\os_task_queue.c ****       (&TASK_IDLE_QUEUE[0])->EDX                                   =   task->EDX              ;
 1235              		.loc 1 307 0
 1236 0c00 8B4508   		movl	8(%ebp), %eax
 1237 0c03 8B809000 		movl	144(%eax), %eax
 1237      0000
 1238 0c09 A3900000 		movl	%eax, _TASK_IDLE_QUEUE+144
 1238      00
GAS LISTING C:\Users\PRESID~1\AppData\Local\Temp\ccPltnJh.s 			page 32


 308:E:/NeuOrga/Programmieren/c_cpp/github_os/input/src/os_base\os_task_queue.c ****       #elif(CFG_PROCESSOR == cMCU_CORTEX_M4)
 309:E:/NeuOrga/Programmieren/c_cpp/github_os/input/src/os_base\os_task_queue.c ****       (&TASK_IDLE_QUEUE[0])->r0                                   =   task->r0              ;
 310:E:/NeuOrga/Programmieren/c_cpp/github_os/input/src/os_base\os_task_queue.c ****       (&TASK_IDLE_QUEUE[0])->r1                                   =   task->r1              ;
 311:E:/NeuOrga/Programmieren/c_cpp/github_os/input/src/os_base\os_task_queue.c ****       (&TASK_IDLE_QUEUE[0])->r2                                   =   task->r2              ;
 312:E:/NeuOrga/Programmieren/c_cpp/github_os/input/src/os_base\os_task_queue.c ****       (&TASK_IDLE_QUEUE[0])->r3                                   =   task->r3              ;
 313:E:/NeuOrga/Programmieren/c_cpp/github_os/input/src/os_base\os_task_queue.c ****       (&TASK_IDLE_QUEUE[0])->r4                                   =   task->r4              ;
 314:E:/NeuOrga/Programmieren/c_cpp/github_os/input/src/os_base\os_task_queue.c ****       (&TASK_IDLE_QUEUE[0])->r5                                   =   task->r5              ;
 315:E:/NeuOrga/Programmieren/c_cpp/github_os/input/src/os_base\os_task_queue.c ****       (&TASK_IDLE_QUEUE[0])->r6                                   =   task->r6              ;
 316:E:/NeuOrga/Programmieren/c_cpp/github_os/input/src/os_base\os_task_queue.c ****       (&TASK_IDLE_QUEUE[0])->r7                                   =   task->r7              ;
 317:E:/NeuOrga/Programmieren/c_cpp/github_os/input/src/os_base\os_task_queue.c ****       (&TASK_IDLE_QUEUE[0])->r8                                   =   task->r8              ;
 318:E:/NeuOrga/Programmieren/c_cpp/github_os/input/src/os_base\os_task_queue.c ****       (&TASK_IDLE_QUEUE[0])->r9                                   =   task->r9              ;
 319:E:/NeuOrga/Programmieren/c_cpp/github_os/input/src/os_base\os_task_queue.c ****       (&TASK_IDLE_QUEUE[0])->r10                                  =   task->r10             ;
 320:E:/NeuOrga/Programmieren/c_cpp/github_os/input/src/os_base\os_task_queue.c ****       (&TASK_IDLE_QUEUE[0])->r11                                  =   task->r11             ;
 321:E:/NeuOrga/Programmieren/c_cpp/github_os/input/src/os_base\os_task_queue.c ****       (&TASK_IDLE_QUEUE[0])->r12                                  =   task->r12             ;
 322:E:/NeuOrga/Programmieren/c_cpp/github_os/input/src/os_base\os_task_queue.c ****       #else
 323:E:/NeuOrga/Programmieren/c_cpp/github_os/input/src/os_base\os_task_queue.c ****       #error "os_task_queue.c"
 324:E:/NeuOrga/Programmieren/c_cpp/github_os/input/src/os_base\os_task_queue.c ****       #endif
 325:E:/NeuOrga/Programmieren/c_cpp/github_os/input/src/os_base\os_task_queue.c ****       (&TASK_IDLE_QUEUE[0])->pStackPointer                         =   task->pStackPointer    ;
 1239              		.loc 1 325 0
 1240 0c0e 8B4508   		movl	8(%ebp), %eax
 1241 0c11 8B809400 		movl	148(%eax), %eax
 1241      0000
 1242 0c17 A3940000 		movl	%eax, _TASK_IDLE_QUEUE+148
 1242      00
 326:E:/NeuOrga/Programmieren/c_cpp/github_os/input/src/os_base\os_task_queue.c ****       (&TASK_IDLE_QUEUE[0])->pStackPointerByMalloc                 =   task->pStackPointerByMalloc;
 1243              		.loc 1 326 0
 1244 0c1c 8B4508   		movl	8(%ebp), %eax
 1245 0c1f 8B809800 		movl	152(%eax), %eax
 1245      0000
 1246 0c25 A3980000 		movl	%eax, _TASK_IDLE_QUEUE+152
 1246      00
 327:E:/NeuOrga/Programmieren/c_cpp/github_os/input/src/os_base\os_task_queue.c ****       (&TASK_IDLE_QUEUE[0])->pStackPointerStart                    =   task->pStackPointerStart;
 1247              		.loc 1 327 0
 1248 0c2a 8B4508   		movl	8(%ebp), %eax
 1249 0c2d 8B809C00 		movl	156(%eax), %eax
 1249      0000
 1250 0c33 A39C0000 		movl	%eax, _TASK_IDLE_QUEUE+156
 1250      00
 328:E:/NeuOrga/Programmieren/c_cpp/github_os/input/src/os_base\os_task_queue.c ****       (&TASK_IDLE_QUEUE[0])->StackSize                             =   task->StackSize        ;
 1251              		.loc 1 328 0
 1252 0c38 8B4508   		movl	8(%ebp), %eax
 1253 0c3b 8B80A000 		movl	160(%eax), %eax
 1253      0000
 1254 0c41 A3A00000 		movl	%eax, _TASK_IDLE_QUEUE+160
 1254      00
 329:E:/NeuOrga/Programmieren/c_cpp/github_os/input/src/os_base\os_task_queue.c ****       (&TASK_IDLE_QUEUE[0])->pStackPointerEnd                      =   task->pStackPointerEnd ;
 1255              		.loc 1 329 0
 1256 0c46 8B4508   		movl	8(%ebp), %eax
 1257 0c49 8B80A400 		movl	164(%eax), %eax
 1257      0000
 1258 0c4f A3A40000 		movl	%eax, _TASK_IDLE_QUEUE+164
 1258      00
 1259              	L34:
 330:E:/NeuOrga/Programmieren/c_cpp/github_os/input/src/os_base\os_task_queue.c ****    }
 331:E:/NeuOrga/Programmieren/c_cpp/github_os/input/src/os_base\os_task_queue.c **** }
 1260              		.loc 1 331 0
 1261 0c54 C9       		leave
GAS LISTING C:\Users\PRESID~1\AppData\Local\Temp\ccPltnJh.s 			page 33


 1262              		.cfi_restore 5
 1263              		.cfi_def_cfa 4, 4
 1264 0c55 C3       		ret
 1265              		.cfi_endproc
 1266              	LFE10:
 1267              		.globl	_GetRunningTask
 1269              	_GetRunningTask:
 1270              	LFB11:
 332:E:/NeuOrga/Programmieren/c_cpp/github_os/input/src/os_base\os_task_queue.c **** task_t* GetRunningTask(void)
 333:E:/NeuOrga/Programmieren/c_cpp/github_os/input/src/os_base\os_task_queue.c **** {
 1271              		.loc 1 333 0
 1272              		.cfi_startproc
 1273 0c56 55       		pushl	%ebp
 1274              		.cfi_def_cfa_offset 8
 1275              		.cfi_offset 5, -8
 1276 0c57 89E5     		movl	%esp, %ebp
 1277              		.cfi_def_cfa_register 5
 334:E:/NeuOrga/Programmieren/c_cpp/github_os/input/src/os_base\os_task_queue.c ****    return (&RUNNING_TASK[0]);
 1278              		.loc 1 334 0
 1279 0c59 B8000000 		movl	$_RUNNING_TASK, %eax
 1279      00
 335:E:/NeuOrga/Programmieren/c_cpp/github_os/input/src/os_base\os_task_queue.c **** }
 1280              		.loc 1 335 0
 1281 0c5e 5D       		popl	%ebp
 1282              		.cfi_restore 5
 1283              		.cfi_def_cfa 4, 4
 1284 0c5f C3       		ret
 1285              		.cfi_endproc
 1286              	LFE11:
 1287              		.globl	_GetRunningSchedulingQueueElementPtr
 1289              	_GetRunningSchedulingQueueElementPtr:
 1290              	LFB12:
 336:E:/NeuOrga/Programmieren/c_cpp/github_os/input/src/os_base\os_task_queue.c **** scheduling_t* GetRunningSchedulingQueueElementPtr(void)
 337:E:/NeuOrga/Programmieren/c_cpp/github_os/input/src/os_base\os_task_queue.c **** {
 1291              		.loc 1 337 0
 1292              		.cfi_startproc
 1293 0c60 55       		pushl	%ebp
 1294              		.cfi_def_cfa_offset 8
 1295              		.cfi_offset 5, -8
 1296 0c61 89E5     		movl	%esp, %ebp
 1297              		.cfi_def_cfa_register 5
 338:E:/NeuOrga/Programmieren/c_cpp/github_os/input/src/os_base\os_task_queue.c ****     return RUNNING_SCHEDULING_QUEUE_ENTRY;
 1298              		.loc 1 338 0
 1299 0c63 A1000000 		movl	_RUNNING_SCHEDULING_QUEUE_ENTRY, %eax
 1299      00
 339:E:/NeuOrga/Programmieren/c_cpp/github_os/input/src/os_base\os_task_queue.c **** }
 1300              		.loc 1 339 0
 1301 0c68 5D       		popl	%ebp
 1302              		.cfi_restore 5
 1303              		.cfi_def_cfa 4, 4
 1304 0c69 C3       		ret
 1305              		.cfi_endproc
 1306              	LFE12:
 1307              		.globl	_OS_InitTask
 1309              	_OS_InitTask:
 1310              	LFB13:
 340:E:/NeuOrga/Programmieren/c_cpp/github_os/input/src/os_base\os_task_queue.c **** void OS_InitTask(
GAS LISTING C:\Users\PRESID~1\AppData\Local\Temp\ccPltnJh.s 			page 34


 341:E:/NeuOrga/Programmieren/c_cpp/github_os/input/src/os_base\os_task_queue.c ****    task_t*          task,
 342:E:/NeuOrga/Programmieren/c_cpp/github_os/input/src/os_base\os_task_queue.c ****    func_p_t         TaskFunction,
 343:E:/NeuOrga/Programmieren/c_cpp/github_os/input/src/os_base\os_task_queue.c ****    unsigned_char_t  AllowedInstances,
 344:E:/NeuOrga/Programmieren/c_cpp/github_os/input/src/os_base\os_task_queue.c ****    unsigned_char_t  IdleTask,
 345:E:/NeuOrga/Programmieren/c_cpp/github_os/input/src/os_base\os_task_queue.c ****    task_group_t*    p_task_group,
 346:E:/NeuOrga/Programmieren/c_cpp/github_os/input/src/os_base\os_task_queue.c ****    unsigned_char_t* pStackAddr,
 347:E:/NeuOrga/Programmieren/c_cpp/github_os/input/src/os_base\os_task_queue.c ****    unsigned_int32_t uStackSize,
 348:E:/NeuOrga/Programmieren/c_cpp/github_os/input/src/os_base\os_task_queue.c ****    privilige_mode_t privilige_mode,
 349:E:/NeuOrga/Programmieren/c_cpp/github_os/input/src/os_base\os_task_queue.c ****    CoreID_t         core,
 350:E:/NeuOrga/Programmieren/c_cpp/github_os/input/src/os_base\os_task_queue.c ****    unsigned_char_t  default_prio
 351:E:/NeuOrga/Programmieren/c_cpp/github_os/input/src/os_base\os_task_queue.c **** )
 352:E:/NeuOrga/Programmieren/c_cpp/github_os/input/src/os_base\os_task_queue.c **** {
 1311              		.loc 1 352 0
 1312              		.cfi_startproc
 1313 0c6a 55       		pushl	%ebp
 1314              		.cfi_def_cfa_offset 8
 1315              		.cfi_offset 5, -8
 1316 0c6b 89E5     		movl	%esp, %ebp
 1317              		.cfi_def_cfa_register 5
 1318 0c6d 83EC28   		subl	$40, %esp
 1319 0c70 8B4D10   		movl	16(%ebp), %ecx
 1320 0c73 8B5514   		movl	20(%ebp), %edx
 1321 0c76 8B452C   		movl	44(%ebp), %eax
 1322 0c79 884DF4   		movb	%cl, -12(%ebp)
 1323 0c7c 8855F0   		movb	%dl, -16(%ebp)
 1324 0c7f 8845EC   		movb	%al, -20(%ebp)
 353:E:/NeuOrga/Programmieren/c_cpp/github_os/input/src/os_base\os_task_queue.c ****    ReferenceUnusedParameter(core);
 354:E:/NeuOrga/Programmieren/c_cpp/github_os/input/src/os_base\os_task_queue.c ****    if(task!=0)
 1325              		.loc 1 354 0
 1326 0c82 837D0800 		cmpl	$0, 8(%ebp)
 1327 0c86 0F841401 		je	L41
 1327      0000
 355:E:/NeuOrga/Programmieren/c_cpp/github_os/input/src/os_base\os_task_queue.c ****    {
 356:E:/NeuOrga/Programmieren/c_cpp/github_os/input/src/os_base\os_task_queue.c ****       task->active           = False;
 1328              		.loc 1 356 0
 1329 0c8c 8B4508   		movl	8(%ebp), %eax
 1330 0c8f 8A10     		movb	(%eax), %dl
 1331 0c91 83E2FE   		andl	$-2, %edx
 1332 0c94 8810     		movb	%dl, (%eax)
 357:E:/NeuOrga/Programmieren/c_cpp/github_os/input/src/os_base\os_task_queue.c ****       task->fp               = TaskFunction;
 1333              		.loc 1 357 0
 1334 0c96 8B4508   		movl	8(%ebp), %eax
 1335 0c99 8B550C   		movl	12(%ebp), %edx
 1336 0c9c 895074   		movl	%edx, 116(%eax)
 358:E:/NeuOrga/Programmieren/c_cpp/github_os/input/src/os_base\os_task_queue.c ****       task->NrOfInsAllowed   = AllowedInstances;
 1337              		.loc 1 358 0
 1338 0c9f 8B4508   		movl	8(%ebp), %eax
 1339 0ca2 8A55F4   		movb	-12(%ebp), %dl
 1340 0ca5 885004   		movb	%dl, 4(%eax)
 359:E:/NeuOrga/Programmieren/c_cpp/github_os/input/src/os_base\os_task_queue.c ****       task->task_group       = p_task_group;
 1341              		.loc 1 359 0
 1342 0ca8 8B4508   		movl	8(%ebp), %eax
 1343 0cab 8B5518   		movl	24(%ebp), %edx
 1344 0cae 89908000 		movl	%edx, 128(%eax)
 1344      0000
 360:E:/NeuOrga/Programmieren/c_cpp/github_os/input/src/os_base\os_task_queue.c ****       task->NrOfInsActivated = 0;
 1345              		.loc 1 360 0
GAS LISTING C:\Users\PRESID~1\AppData\Local\Temp\ccPltnJh.s 			page 35


 1346 0cb4 8B4508   		movl	8(%ebp), %eax
 1347 0cb7 C6400500 		movb	$0, 5(%eax)
 361:E:/NeuOrga/Programmieren/c_cpp/github_os/input/src/os_base\os_task_queue.c ****       AssignNull(&task->WaitActUntil);
 1348              		.loc 1 361 0
 1349 0cbb 8B4508   		movl	8(%ebp), %eax
 1350 0cbe 83C006   		addl	$6, %eax
 1351 0cc1 890424   		movl	%eax, (%esp)
 1352 0cc4 E8000000 		call	_AssignNull
 1352      00
 362:E:/NeuOrga/Programmieren/c_cpp/github_os/input/src/os_base\os_task_queue.c ****       task->privilige_mode   = privilige_mode;
 1353              		.loc 1 362 0
 1354 0cc9 8B4508   		movl	8(%ebp), %eax
 1355 0ccc 8B5524   		movl	36(%ebp), %edx
 1356 0ccf 8990A800 		movl	%edx, 168(%eax)
 1356      0000
 363:E:/NeuOrga/Programmieren/c_cpp/github_os/input/src/os_base\os_task_queue.c ****       task->default_prio     = default_prio;
 1357              		.loc 1 363 0
 1358 0cd5 8B4508   		movl	8(%ebp), %eax
 1359 0cd8 8A55EC   		movb	-20(%ebp), %dl
 1360 0cdb 88506D   		movb	%dl, 109(%eax)
 364:E:/NeuOrga/Programmieren/c_cpp/github_os/input/src/os_base\os_task_queue.c **** 
 365:E:/NeuOrga/Programmieren/c_cpp/github_os/input/src/os_base\os_task_queue.c ****       task->overwaittime_per_prio_inc_step = 1u;
 1361              		.loc 1 365 0
 1362 0cde 8B4508   		movl	8(%ebp), %eax
 1363 0ce1 C7403801 		movl	$1, 56(%eax)
 1363      000000
 366:E:/NeuOrga/Programmieren/c_cpp/github_os/input/src/os_base\os_task_queue.c ****       AssignUint32(&task->max_allowed_wait_time, 100000u);
 1364              		.loc 1 366 0
 1365 0ce8 8B4508   		movl	8(%ebp), %eax
 1366 0ceb 83C03C   		addl	$60, %eax
 1367 0cee C7442404 		movl	$100000, 4(%esp)
 1367      A0860100 
 1368 0cf6 890424   		movl	%eax, (%esp)
 1369 0cf9 E8000000 		call	_AssignUint32
 1369      00
 367:E:/NeuOrga/Programmieren/c_cpp/github_os/input/src/os_base\os_task_queue.c **** 
 368:E:/NeuOrga/Programmieren/c_cpp/github_os/input/src/os_base\os_task_queue.c ****       task->IdleTask      = IdleTask;
 1370              		.loc 1 368 0
 1371 0cfe 8A45F0   		movb	-16(%ebp), %al
 1372 0d01 83E001   		andl	$1, %eax
 1373 0d04 88C2     		movb	%al, %dl
 1374 0d06 8B4508   		movl	8(%ebp), %eax
 1375 0d09 83E201   		andl	$1, %edx
 1376 0d0c 8D0C9500 		leal	0(,%edx,4), %ecx
 1376      000000
 1377 0d13 8A10     		movb	(%eax), %dl
 1378 0d15 83E2FB   		andl	$-5, %edx
 1379 0d18 09CA     		orl	%ecx, %edx
 1380 0d1a 8810     		movb	%dl, (%eax)
 369:E:/NeuOrga/Programmieren/c_cpp/github_os/input/src/os_base\os_task_queue.c ****       task->state_request = &task_state_request;
 1381              		.loc 1 369 0
 1382 0d1c 8B4508   		movl	8(%ebp), %eax
 1383 0d1f C7407800 		movl	$_task_state_request, 120(%eax)
 1383      000000
 370:E:/NeuOrga/Programmieren/c_cpp/github_os/input/src/os_base\os_task_queue.c ****       task_state_request(task, Task_unspecified);
 1384              		.loc 1 370 0
 1385 0d26 C7442404 		movl	$0, 4(%esp)
GAS LISTING C:\Users\PRESID~1\AppData\Local\Temp\ccPltnJh.s 			page 36


 1385      00000000 
 1386 0d2e 8B4508   		movl	8(%ebp), %eax
 1387 0d31 890424   		movl	%eax, (%esp)
 1388 0d34 E8000000 		call	_task_state_request
 1388      00
 371:E:/NeuOrga/Programmieren/c_cpp/github_os/input/src/os_base\os_task_queue.c ****       OS_CreateTask(task);
 1389              		.loc 1 371 0
 1390 0d39 8B4508   		movl	8(%ebp), %eax
 1391 0d3c 890424   		movl	%eax, (%esp)
 1392 0d3f E8000000 		call	_OS_CreateTask
 1392      00
 372:E:/NeuOrga/Programmieren/c_cpp/github_os/input/src/os_base\os_task_queue.c ****       if(uStackSize > TASK_STACK_SIZE)
 1393              		.loc 1 372 0
 1394 0d44 817D20D0 		cmpl	$2000, 32(%ebp)
 1394      070000
 1395 0d4b 7607     		jbe	L42
 373:E:/NeuOrga/Programmieren/c_cpp/github_os/input/src/os_base\os_task_queue.c ****       {
 374:E:/NeuOrga/Programmieren/c_cpp/github_os/input/src/os_base\os_task_queue.c ****          uStackSize = TASK_STACK_SIZE;
 1396              		.loc 1 374 0
 1397 0d4d C74520D0 		movl	$2000, 32(%ebp)
 1397      070000
 1398              	L42:
 375:E:/NeuOrga/Programmieren/c_cpp/github_os/input/src/os_base\os_task_queue.c ****       }
 376:E:/NeuOrga/Programmieren/c_cpp/github_os/input/src/os_base\os_task_queue.c **** 
 377:E:/NeuOrga/Programmieren/c_cpp/github_os/input/src/os_base\os_task_queue.c ****       /* just create stack */
 378:E:/NeuOrga/Programmieren/c_cpp/github_os/input/src/os_base\os_task_queue.c ****       task->pStackPointerByMalloc = pStackAddr;
 1399              		.loc 1 378 0
 1400 0d54 8B4508   		movl	8(%ebp), %eax
 1401 0d57 8B551C   		movl	28(%ebp), %edx
 1402 0d5a 89909800 		movl	%edx, 152(%eax)
 1402      0000
 379:E:/NeuOrga/Programmieren/c_cpp/github_os/input/src/os_base\os_task_queue.c ****       task->pStackPointerStart    = pStackAddr;/*low addresse */
 1403              		.loc 1 379 0
 1404 0d60 8B4508   		movl	8(%ebp), %eax
 1405 0d63 8B551C   		movl	28(%ebp), %edx
 1406 0d66 89909C00 		movl	%edx, 156(%eax)
 1406      0000
 380:E:/NeuOrga/Programmieren/c_cpp/github_os/input/src/os_base\os_task_queue.c ****       task->pStackPointerEnd      = (unsigned_char_t*)pStackAddr + uStackSize - 1;/* end addresse *
 1407              		.loc 1 380 0
 1408 0d6c 8B4520   		movl	32(%ebp), %eax
 1409 0d6f 8D50FF   		leal	-1(%eax), %edx
 1410 0d72 8B451C   		movl	28(%ebp), %eax
 1411 0d75 01C2     		addl	%eax, %edx
 1412 0d77 8B4508   		movl	8(%ebp), %eax
 1413 0d7a 8990A400 		movl	%edx, 164(%eax)
 1413      0000
 381:E:/NeuOrga/Programmieren/c_cpp/github_os/input/src/os_base\os_task_queue.c ****       task->StackSize             = uStackSize;
 1414              		.loc 1 381 0
 1415 0d80 8B4508   		movl	8(%ebp), %eax
 1416 0d83 8B5520   		movl	32(%ebp), %edx
 1417 0d86 8990A000 		movl	%edx, 160(%eax)
 1417      0000
 382:E:/NeuOrga/Programmieren/c_cpp/github_os/input/src/os_base\os_task_queue.c ****       /* stack register */
 383:E:/NeuOrga/Programmieren/c_cpp/github_os/input/src/os_base\os_task_queue.c ****       task->pStackPointer                    = task->pStackPointerEnd;/* stack wchst von groen zu
 1418              		.loc 1 383 0
 1419 0d8c 8B4508   		movl	8(%ebp), %eax
 1420 0d8f 8B90A400 		movl	164(%eax), %edx
GAS LISTING C:\Users\PRESID~1\AppData\Local\Temp\ccPltnJh.s 			page 37


 1420      0000
 1421 0d95 8B4508   		movl	8(%ebp), %eax
 1422 0d98 89909400 		movl	%edx, 148(%eax)
 1422      0000
 1423 0d9e EB14     		jmp	L40
 1424              	L41:
 384:E:/NeuOrga/Programmieren/c_cpp/github_os/input/src/os_base\os_task_queue.c ****    }
 385:E:/NeuOrga/Programmieren/c_cpp/github_os/input/src/os_base\os_task_queue.c ****    else
 386:E:/NeuOrga/Programmieren/c_cpp/github_os/input/src/os_base\os_task_queue.c ****    {
 387:E:/NeuOrga/Programmieren/c_cpp/github_os/input/src/os_base\os_task_queue.c ****       OS_SetSwBug(os_bug_null_pointer, Func_InitTask);
 1425              		.loc 1 387 0
 1426 0da0 C7442404 		movl	$10, 4(%esp)
 1426      0A000000 
 1427 0da8 C7042402 		movl	$2, (%esp)
 1427      000000
 1428 0daf E8000000 		call	_OS_SetSwBug
 1428      00
 1429              	L40:
 388:E:/NeuOrga/Programmieren/c_cpp/github_os/input/src/os_base\os_task_queue.c ****    }
 389:E:/NeuOrga/Programmieren/c_cpp/github_os/input/src/os_base\os_task_queue.c **** }
 1430              		.loc 1 389 0
 1431 0db4 C9       		leave
 1432              		.cfi_restore 5
 1433              		.cfi_def_cfa 4, 4
 1434 0db5 C3       		ret
 1435              		.cfi_endproc
 1436              	LFE13:
 1437              	Letext0:
 1438              		.file 2 "E:/NeuOrga/Programmieren/c_cpp/github_os/input/src/os_base/../os_base/os_base_types.h"
 1439              		.file 3 "E:/NeuOrga/Programmieren/c_cpp/github_os/input/src/os_base/../os_base/os_common.h"
 1440              		.file 4 "E:/NeuOrga/Programmieren/c_cpp/github_os/input/src/os_base/../os_sim/lld_core.h"
 1441              		.file 5 "E:/NeuOrga/Programmieren/c_cpp/github_os/input/src/os_base/../os_sim/../os_base/os_task_c
 1442              		.file 6 "E:/NeuOrga/Programmieren/c_cpp/github_os/input/src/os_base/../os_base/os_ram.h"
 1443 0db6 9090     		.section	.debug_info,"dr"
 1444              	Ldebug_info0:
 1445 0000 E50D0000 		.long	0xde5
 1446 0004 0400     		.word	0x4
 1447 0006 00000000 		.secrel32	Ldebug_abbrev0
 1448 000a 04       		.byte	0x4
 1449 000b 01       		.uleb128 0x1
 1450 000c 474E5520 		.ascii "GNU C 4.9.3 -march=i386 -g3 -O0 -std=c90\0"
 1450      4320342E 
 1450      392E3320 
 1450      2D6D6172 
 1450      63683D69 
 1451 0035 01       		.byte	0x1
 1452 0036 453A5C4E 		.ascii "E:\\NeuOrga\\Programmieren\\c_cpp\\github_os\\input\\src\\os_base\\os_task_queue.c\0"
 1452      65754F72 
 1452      67615C50 
 1452      726F6772 
 1452      616D6D69 
 1453 0081 00000000 		.long	Ltext0
 1454 0085 B60D0000 		.long	Letext0-Ltext0
 1455 0089 00000000 		.secrel32	Ldebug_line0
 1456 008d 00000000 		.secrel32	Ldebug_macro0
 1457 0091 02       		.uleb128 0x2
 1458 0092 756E7369 		.ascii "unsigned_char_t\0"
GAS LISTING C:\Users\PRESID~1\AppData\Local\Temp\ccPltnJh.s 			page 38


 1458      676E6564 
 1458      5F636861 
 1458      725F7400 
 1459 00a2 02       		.byte	0x2
 1460 00a3 1D       		.byte	0x1d
 1461 00a4 A8000000 		.long	0xa8
 1462 00a8 03       		.uleb128 0x3
 1463 00a9 01       		.byte	0x1
 1464 00aa 08       		.byte	0x8
 1465 00ab 756E7369 		.ascii "unsigned char\0"
 1465      676E6564 
 1465      20636861 
 1465      7200
 1466 00b9 03       		.uleb128 0x3
 1467 00ba 01       		.byte	0x1
 1468 00bb 06       		.byte	0x6
 1469 00bc 7369676E 		.ascii "signed char\0"
 1469      65642063 
 1469      68617200 
 1470 00c8 02       		.uleb128 0x2
 1471 00c9 75696E74 		.ascii "uint8\0"
 1471      3800
 1472 00cf 02       		.byte	0x2
 1473 00d0 21       		.byte	0x21
 1474 00d1 A8000000 		.long	0xa8
 1475 00d5 03       		.uleb128 0x3
 1476 00d6 02       		.byte	0x2
 1477 00d7 07       		.byte	0x7
 1478 00d8 73686F72 		.ascii "short unsigned int\0"
 1478      7420756E 
 1478      7369676E 
 1478      65642069 
 1478      6E7400
 1479 00eb 03       		.uleb128 0x3
 1480 00ec 02       		.byte	0x2
 1481 00ed 05       		.byte	0x5
 1482 00ee 73686F72 		.ascii "short int\0"
 1482      7420696E 
 1482      7400
 1483 00f8 02       		.uleb128 0x2
 1484 00f9 756E7369 		.ascii "unsigned_int32_t\0"
 1484      676E6564 
 1484      5F696E74 
 1484      33325F74 
 1484      00
 1485 010a 02       		.byte	0x2
 1486 010b 27       		.byte	0x27
 1487 010c 10010000 		.long	0x110
 1488 0110 03       		.uleb128 0x3
 1489 0111 04       		.byte	0x4
 1490 0112 07       		.byte	0x7
 1491 0113 6C6F6E67 		.ascii "long unsigned int\0"
 1491      20756E73 
 1491      69676E65 
 1491      6420696E 
 1491      7400
 1492 0125 03       		.uleb128 0x3
GAS LISTING C:\Users\PRESID~1\AppData\Local\Temp\ccPltnJh.s 			page 39


 1493 0126 04       		.byte	0x4
 1494 0127 05       		.byte	0x5
 1495 0128 6C6F6E67 		.ascii "long int\0"
 1495      20696E74 
 1495      00
 1496 0131 02       		.uleb128 0x2
 1497 0132 75696E74 		.ascii "uint32\0"
 1497      333200
 1498 0139 02       		.byte	0x2
 1499 013a 29       		.byte	0x29
 1500 013b 10010000 		.long	0x110
 1501 013f 04       		.uleb128 0x4
 1502 0140 6F735F73 		.ascii "os_sw_bugs_e\0"
 1502      775F6275 
 1502      67735F65 
 1502      00
 1503 014d 04       		.byte	0x4
 1504 014e 03       		.byte	0x3
 1505 014f 2B       		.byte	0x2b
 1506 0150 82020000 		.long	0x282
 1507 0154 05       		.uleb128 0x5
 1508 0155 6F735F62 		.ascii "os_bug_no_bug\0"
 1508      75675F6E 
 1508      6F5F6275 
 1508      6700
 1509 0163 00       		.sleb128 0
 1510 0164 05       		.uleb128 0x5
 1511 0165 6F735F62 		.ascii "os_bug_taskstate_request_denied\0"
 1511      75675F74 
 1511      61736B73 
 1511      74617465 
 1511      5F726571 
 1512 0185 01       		.sleb128 1
 1513 0186 05       		.uleb128 0x5
 1514 0187 6F735F62 		.ascii "os_bug_null_pointer\0"
 1514      75675F6E 
 1514      756C6C5F 
 1514      706F696E 
 1514      74657200 
 1515 019b 02       		.sleb128 2
 1516 019c 05       		.uleb128 0x5
 1517 019d 6F735F62 		.ascii "os_bug_task_max_wait_time_reached\0"
 1517      75675F74 
 1517      61736B5F 
 1517      6D61785F 
 1517      77616974 
 1518 01bf 03       		.sleb128 3
 1519 01c0 05       		.uleb128 0x5
 1520 01c1 6F735F62 		.ascii "os_bug_Task_unspecified\0"
 1520      75675F54 
 1520      61736B5F 
 1520      756E7370 
 1520      65636966 
 1521 01d9 04       		.sleb128 4
 1522 01da 05       		.uleb128 0x5
 1523 01db 6F735F62 		.ascii "os_bug_exception_UndefInstruction\0"
 1523      75675F65 
GAS LISTING C:\Users\PRESID~1\AppData\Local\Temp\ccPltnJh.s 			page 40


 1523      78636570 
 1523      74696F6E 
 1523      5F556E64 
 1524 01fd 05       		.sleb128 5
 1525 01fe 05       		.uleb128 0x5
 1526 01ff 6F735F62 		.ascii "os_bug_exception_AbortPrefetch\0"
 1526      75675F65 
 1526      78636570 
 1526      74696F6E 
 1526      5F41626F 
 1527 021e 06       		.sleb128 6
 1528 021f 05       		.uleb128 0x5
 1529 0220 6F735F62 		.ascii "os_bug_exception_AbortData\0"
 1529      75675F65 
 1529      78636570 
 1529      74696F6E 
 1529      5F41626F 
 1530 023b 07       		.sleb128 7
 1531 023c 05       		.uleb128 0x5
 1532 023d 6F735F62 		.ascii "os_bug_reset_exit_or_shutdown_failed\0"
 1532      75675F72 
 1532      65736574 
 1532      5F657869 
 1532      745F6F72 
 1533 0262 08       		.sleb128 8
 1534 0263 05       		.uleb128 0x5
 1535 0264 6F735F62 		.ascii "os_bug_critical_stack_usage\0"
 1535      75675F63 
 1535      72697469 
 1535      63616C5F 
 1535      73746163 
 1536 0280 09       		.sleb128 9
 1537 0281 00       		.byte	0
 1538 0282 04       		.uleb128 0x4
 1539 0283 6F735F73 		.ascii "os_sw_bugs_function_e\0"
 1539      775F6275 
 1539      67735F66 
 1539      756E6374 
 1539      696F6E5F 
 1540 0299 04       		.byte	0x4
 1541 029a 03       		.byte	0x3
 1542 029b 3A       		.byte	0x3a
 1543 029c 27040000 		.long	0x427
 1544 02a0 05       		.uleb128 0x5
 1545 02a1 46756E63 		.ascii "Func_NoFunction\0"
 1545      5F4E6F46 
 1545      756E6374 
 1545      696F6E00 
 1546 02b1 00       		.sleb128 0
 1547 02b2 05       		.uleb128 0x5
 1548 02b3 46756E63 		.ascii "Func_SaveTaskEnvironment\0"
 1548      5F536176 
 1548      65546173 
 1548      6B456E76 
 1548      69726F6E 
 1549 02cc 01       		.sleb128 1
 1550 02cd 05       		.uleb128 0x5
GAS LISTING C:\Users\PRESID~1\AppData\Local\Temp\ccPltnJh.s 			page 41


 1551 02ce 46756E63 		.ascii "Func_RestoreTaskEnvironment\0"
 1551      5F526573 
 1551      746F7265 
 1551      5461736B 
 1551      456E7669 
 1552 02ea 02       		.sleb128 2
 1553 02eb 05       		.uleb128 0x5
 1554 02ec 46756E63 		.ascii "Func_CreateTaskEnvironment\0"
 1554      5F437265 
 1554      61746554 
 1554      61736B45 
 1554      6E766972 
 1555 0307 03       		.sleb128 3
 1556 0308 05       		.uleb128 0x5
 1557 0309 46756E63 		.ascii "Func_DeleteTaskEnvironment\0"
 1557      5F44656C 
 1557      65746554 
 1557      61736B45 
 1557      6E766972 
 1558 0324 04       		.sleb128 4
 1559 0325 05       		.uleb128 0x5
 1560 0326 46756E63 		.ascii "Func_InitTaskEnvironment\0"
 1560      5F496E69 
 1560      74546173 
 1560      6B456E76 
 1560      69726F6E 
 1561 033f 05       		.sleb128 5
 1562 0340 05       		.uleb128 0x5
 1563 0341 46756E63 		.ascii "Func_StartTask\0"
 1563      5F537461 
 1563      72745461 
 1563      736B00
 1564 0350 06       		.sleb128 6
 1565 0351 05       		.uleb128 0x5
 1566 0352 46756E63 		.ascii "Func_PreemptTask\0"
 1566      5F507265 
 1566      656D7074 
 1566      5461736B 
 1566      00
 1567 0363 07       		.sleb128 7
 1568 0364 05       		.uleb128 0x5
 1569 0365 46756E63 		.ascii "Func_TerminateTask\0"
 1569      5F546572 
 1569      6D696E61 
 1569      74655461 
 1569      736B00
 1570 0378 08       		.sleb128 8
 1571 0379 05       		.uleb128 0x5
 1572 037a 46756E63 		.ascii "Func_TaskScheduler\0"
 1572      5F546173 
 1572      6B536368 
 1572      6564756C 
 1572      657200
 1573 038d 09       		.sleb128 9
 1574 038e 05       		.uleb128 0x5
 1575 038f 46756E63 		.ascii "Func_InitTask\0"
 1575      5F496E69 
GAS LISTING C:\Users\PRESID~1\AppData\Local\Temp\ccPltnJh.s 			page 42


 1575      74546173 
 1575      6B00
 1576 039d 0A       		.sleb128 10
 1577 039e 05       		.uleb128 0x5
 1578 039f 46756E63 		.ascii "Func_ActivateTask\0"
 1578      5F416374 
 1578      69766174 
 1578      65546173 
 1578      6B00
 1579 03b1 0B       		.sleb128 11
 1580 03b2 05       		.uleb128 0x5
 1581 03b3 46756E63 		.ascii "Func_TaskStateRequest\0"
 1581      5F546173 
 1581      6B537461 
 1581      74655265 
 1581      71756573 
 1582 03c9 0C       		.sleb128 12
 1583 03ca 05       		.uleb128 0x5
 1584 03cb 46756E63 		.ascii "Func_Preempt_Task\0"
 1584      5F507265 
 1584      656D7074 
 1584      5F546173 
 1584      6B00
 1585 03dd 0D       		.sleb128 13
 1586 03de 05       		.uleb128 0x5
 1587 03df 46756E63 		.ascii "Func_os_exception\0"
 1587      5F6F735F 
 1587      65786365 
 1587      7074696F 
 1587      6E00
 1588 03f1 0E       		.sleb128 14
 1589 03f2 05       		.uleb128 0x5
 1590 03f3 46756E63 		.ascii "Func_CreateTask\0"
 1590      5F437265 
 1590      61746554 
 1590      61736B00 
 1591 0403 0F       		.sleb128 15
 1592 0404 05       		.uleb128 0x5
 1593 0405 46756E63 		.ascii "Func_Shutdown\0"
 1593      5F536875 
 1593      74646F77 
 1593      6E00
 1594 0413 10       		.sleb128 16
 1595 0414 05       		.uleb128 0x5
 1596 0415 46756E63 		.ascii "Func_StackCheck\0"
 1596      5F537461 
 1596      636B4368 
 1596      65636B00 
 1597 0425 11       		.sleb128 17
 1598 0426 00       		.byte	0
 1599 0427 06       		.uleb128 0x6
 1600 0428 42696749 		.ascii "BigInt_s\0"
 1600      6E745F73 
 1600      00
 1601 0431 10       		.byte	0x10
 1602 0432 03       		.byte	0x3
 1603 0433 59       		.byte	0x59
GAS LISTING C:\Users\PRESID~1\AppData\Local\Temp\ccPltnJh.s 			page 43


 1604 0434 48040000 		.long	0x448
 1605 0438 07       		.uleb128 0x7
 1606 0439 4E756D62 		.ascii "Number\0"
 1606      657200
 1607 0440 03       		.byte	0x3
 1608 0441 62       		.byte	0x62
 1609 0442 48040000 		.long	0x448
 1610 0446 00       		.byte	0
 1611 0447 00       		.byte	0
 1612 0448 08       		.uleb128 0x8
 1613 0449 C8000000 		.long	0xc8
 1614 044d 58040000 		.long	0x458
 1615 0451 09       		.uleb128 0x9
 1616 0452 58040000 		.long	0x458
 1617 0456 0F       		.byte	0xf
 1618 0457 00       		.byte	0
 1619 0458 03       		.uleb128 0x3
 1620 0459 04       		.byte	0x4
 1621 045a 07       		.byte	0x7
 1622 045b 73697A65 		.ascii "sizetype\0"
 1622      74797065 
 1622      00
 1623 0464 02       		.uleb128 0x2
 1624 0465 42696749 		.ascii "BigInt\0"
 1624      6E7400
 1625 046c 03       		.byte	0x3
 1626 046d 63       		.byte	0x63
 1627 046e 27040000 		.long	0x427
 1628 0472 04       		.uleb128 0x4
 1629 0473 436F7265 		.ascii "CoreID_e\0"
 1629      49445F65 
 1629      00
 1630 047c 04       		.byte	0x4
 1631 047d 04       		.byte	0x4
 1632 047e 04       		.byte	0x4
 1633 047f A4040000 		.long	0x4a4
 1634 0483 05       		.uleb128 0x5
 1635 0484 436F7265 		.ascii "Core0\0"
 1635      3000
 1636 048a 00       		.sleb128 0
 1637 048b 05       		.uleb128 0x5
 1638 048c 436F7265 		.ascii "Core1\0"
 1638      3100
 1639 0492 01       		.sleb128 1
 1640 0493 05       		.uleb128 0x5
 1641 0494 436F7265 		.ascii "Core2\0"
 1641      3200
 1642 049a 02       		.sleb128 2
 1643 049b 05       		.uleb128 0x5
 1644 049c 436F7265 		.ascii "Core3\0"
 1644      3300
 1645 04a2 03       		.sleb128 3
 1646 04a3 00       		.byte	0
 1647 04a4 02       		.uleb128 0x2
 1648 04a5 436F7265 		.ascii "CoreID_t\0"
 1648      49445F74 
 1648      00
GAS LISTING C:\Users\PRESID~1\AppData\Local\Temp\ccPltnJh.s 			page 44


 1649 04ae 04       		.byte	0x4
 1650 04af 0B       		.byte	0xb
 1651 04b0 72040000 		.long	0x472
 1652 04b4 04       		.uleb128 0x4
 1653 04b5 70726976 		.ascii "privilige_mode_e\0"
 1653      696C6967 
 1653      655F6D6F 
 1653      64655F65 
 1653      00
 1654 04c6 04       		.byte	0x4
 1655 04c7 04       		.byte	0x4
 1656 04c8 10       		.byte	0x10
 1657 04c9 49050000 		.long	0x549
 1658 04cd 05       		.uleb128 0x5
 1659 04ce 65507269 		.ascii "ePriviligeMode_unpriviliged_thread_mode\0"
 1659      76696C69 
 1659      67654D6F 
 1659      64655F75 
 1659      6E707269 
 1660 04f6 00       		.sleb128 0
 1661 04f7 05       		.uleb128 0x5
 1662 04f8 65507269 		.ascii "ePriviligeMode_priviliged_thread_mode\0"
 1662      76696C69 
 1662      67654D6F 
 1662      64655F70 
 1662      72697669 
 1663 051e 01       		.sleb128 1
 1664 051f 05       		.uleb128 0x5
 1665 0520 65507269 		.ascii "ePriviligeMode_priviliged_handler_mode\0"
 1665      76696C69 
 1665      67654D6F 
 1665      64655F70 
 1665      72697669 
 1666 0547 02       		.sleb128 2
 1667 0548 00       		.byte	0
 1668 0549 02       		.uleb128 0x2
 1669 054a 70726976 		.ascii "privilige_mode_t\0"
 1669      696C6967 
 1669      655F6D6F 
 1669      64655F74 
 1669      00
 1670 055b 04       		.byte	0x4
 1671 055c 16       		.byte	0x16
 1672 055d B4040000 		.long	0x4b4
 1673 0561 04       		.uleb128 0x4
 1674 0562 7461736B 		.ascii "task_state_e\0"
 1674      5F737461 
 1674      74655F65 
 1674      00
 1675 056f 04       		.byte	0x4
 1676 0570 05       		.byte	0x5
 1677 0571 07       		.byte	0x7
 1678 0572 B7050000 		.long	0x5b7
 1679 0576 05       		.uleb128 0x5
 1680 0577 5461736B 		.ascii "Task_unspecified\0"
 1680      5F756E73 
 1680      70656369 
GAS LISTING C:\Users\PRESID~1\AppData\Local\Temp\ccPltnJh.s 			page 45


 1680      66696564 
 1680      00
 1681 0588 00       		.sleb128 0
 1682 0589 05       		.uleb128 0x5
 1683 058a 5461736B 		.ascii "Task_suspended\0"
 1683      5F737573 
 1683      70656E64 
 1683      656400
 1684 0599 01       		.sleb128 1
 1685 059a 05       		.uleb128 0x5
 1686 059b 5461736B 		.ascii "Task_ready\0"
 1686      5F726561 
 1686      647900
 1687 05a6 02       		.sleb128 2
 1688 05a7 05       		.uleb128 0x5
 1689 05a8 5461736B 		.ascii "Task_running\0"
 1689      5F72756E 
 1689      6E696E67 
 1689      00
 1690 05b5 03       		.sleb128 3
 1691 05b6 00       		.byte	0
 1692 05b7 02       		.uleb128 0x2
 1693 05b8 7461736B 		.ascii "task_state_t\0"
 1693      5F737461 
 1693      74655F74 
 1693      00
 1694 05c5 05       		.byte	0x5
 1695 05c6 0E       		.byte	0xe
 1696 05c7 61050000 		.long	0x561
 1697 05cb 02       		.uleb128 0x2
 1698 05cc 66756E63 		.ascii "func_p_t\0"
 1698      5F705F74 
 1698      00
 1699 05d5 05       		.byte	0x5
 1700 05d6 13       		.byte	0x13
 1701 05d7 DB050000 		.long	0x5db
 1702 05db 0A       		.uleb128 0xa
 1703 05dc 04       		.byte	0x4
 1704 05dd E1050000 		.long	0x5e1
 1705 05e1 0B       		.uleb128 0xb
 1706 05e2 EC050000 		.long	0x5ec
 1707 05e6 0C       		.uleb128 0xc
 1708 05e7 EC050000 		.long	0x5ec
 1709 05eb 00       		.byte	0
 1710 05ec 0D       		.uleb128 0xd
 1711 05ed 04       		.byte	0x4
 1712 05ee 02       		.uleb128 0x2
 1713 05ef 66756E63 		.ascii "func_p_state_change_t\0"
 1713      5F705F73 
 1713      74617465 
 1713      5F636861 
 1713      6E67655F 
 1714 0605 05       		.byte	0x5
 1715 0606 15       		.byte	0x15
 1716 0607 0B060000 		.long	0x60b
 1717 060b 0A       		.uleb128 0xa
 1718 060c 04       		.byte	0x4
GAS LISTING C:\Users\PRESID~1\AppData\Local\Temp\ccPltnJh.s 			page 46


 1719 060d 11060000 		.long	0x611
 1720 0611 0E       		.uleb128 0xe
 1721 0612 91000000 		.long	0x91
 1722 0616 25060000 		.long	0x625
 1723 061a 0C       		.uleb128 0xc
 1724 061b EC050000 		.long	0x5ec
 1725 061f 0C       		.uleb128 0xc
 1726 0620 B7050000 		.long	0x5b7
 1727 0624 00       		.byte	0
 1728 0625 02       		.uleb128 0x2
 1729 0626 74696D65 		.ascii "timebig_t\0"
 1729      6269675F 
 1729      7400
 1730 0630 05       		.byte	0x5
 1731 0631 16       		.byte	0x16
 1732 0632 64040000 		.long	0x464
 1733 0636 06       		.uleb128 0x6
 1734 0637 7461736B 		.ascii "task_group_s\0"
 1734      5F67726F 
 1734      75705F73 
 1734      00
 1735 0644 20       		.byte	0x20
 1736 0645 05       		.byte	0x5
 1737 0646 18       		.byte	0x18
 1738 0647 6E060000 		.long	0x66e
 1739 064b 0F       		.uleb128 0xf
 1740 064c 36000000 		.secrel32	LASF0
 1741 0650 05       		.byte	0x5
 1742 0651 1A       		.byte	0x1a
 1743 0652 25060000 		.long	0x625
 1744 0656 00       		.byte	0
 1745 0657 07       		.uleb128 0x7
 1746 0658 66616972 		.ascii "fair_exe_time\0"
 1746      5F657865 
 1746      5F74696D 
 1746      6500
 1747 0666 05       		.byte	0x5
 1748 0667 1B       		.byte	0x1b
 1749 0668 25060000 		.long	0x625
 1750 066c 10       		.byte	0x10
 1751 066d 00       		.byte	0
 1752 066e 02       		.uleb128 0x2
 1753 066f 7461736B 		.ascii "task_group_t\0"
 1753      5F67726F 
 1753      75705F74 
 1753      00
 1754 067c 05       		.byte	0x5
 1755 067d 1D       		.byte	0x1d
 1756 067e 36060000 		.long	0x636
 1757 0682 06       		.uleb128 0x6
 1758 0683 7461736B 		.ascii "task_s\0"
 1758      5F7300
 1759 068a AC       		.byte	0xac
 1760 068b 05       		.byte	0x5
 1761 068c 1F       		.byte	0x1f
 1762 068d DD080000 		.long	0x8dd
 1763 0691 10       		.uleb128 0x10
GAS LISTING C:\Users\PRESID~1\AppData\Local\Temp\ccPltnJh.s 			page 47


 1764 0692 61637469 		.ascii "active\0"
 1764      766500
 1765 0699 05       		.byte	0x5
 1766 069a 21       		.byte	0x21
 1767 069b DD080000 		.long	0x8dd
 1768 069f 04       		.byte	0x4
 1769 06a0 01       		.byte	0x1
 1770 06a1 1F       		.byte	0x1f
 1771 06a2 00       		.byte	0
 1772 06a3 10       		.uleb128 0x10
 1773 06a4 7461736B 		.ascii "task_queued\0"
 1773      5F717565 
 1773      75656400 
 1774 06b0 05       		.byte	0x5
 1775 06b1 22       		.byte	0x22
 1776 06b2 DD080000 		.long	0x8dd
 1777 06b6 04       		.byte	0x4
 1778 06b7 01       		.byte	0x1
 1779 06b8 1E       		.byte	0x1e
 1780 06b9 00       		.byte	0
 1781 06ba 11       		.uleb128 0x11
 1782 06bb 28000000 		.secrel32	LASF1
 1783 06bf 05       		.byte	0x5
 1784 06c0 23       		.byte	0x23
 1785 06c1 DD080000 		.long	0x8dd
 1786 06c5 04       		.byte	0x4
 1787 06c6 01       		.byte	0x1
 1788 06c7 1D       		.byte	0x1d
 1789 06c8 00       		.byte	0
 1790 06c9 10       		.uleb128 0x10
 1791 06ca 46524545 		.ascii "FREE\0"
 1791      00
 1792 06cf 05       		.byte	0x5
 1793 06d0 24       		.byte	0x24
 1794 06d1 DD080000 		.long	0x8dd
 1795 06d5 04       		.byte	0x4
 1796 06d6 1D       		.byte	0x1d
 1797 06d7 00       		.byte	0
 1798 06d8 00       		.byte	0
 1799 06d9 07       		.uleb128 0x7
 1800 06da 4E724F66 		.ascii "NrOfInsAllowed\0"
 1800      496E7341 
 1800      6C6C6F77 
 1800      656400
 1801 06e9 05       		.byte	0x5
 1802 06ea 25       		.byte	0x25
 1803 06eb 91000000 		.long	0x91
 1804 06ef 04       		.byte	0x4
 1805 06f0 07       		.uleb128 0x7
 1806 06f1 4E724F66 		.ascii "NrOfInsActivated\0"
 1806      496E7341 
 1806      63746976 
 1806      61746564 
 1806      00
 1807 0702 05       		.byte	0x5
 1808 0703 26       		.byte	0x26
 1809 0704 91000000 		.long	0x91
GAS LISTING C:\Users\PRESID~1\AppData\Local\Temp\ccPltnJh.s 			page 48


 1810 0708 05       		.byte	0x5
 1811 0709 07       		.uleb128 0x7
 1812 070a 57616974 		.ascii "WaitActUntil\0"
 1812      41637455 
 1812      6E74696C 
 1812      00
 1813 0717 05       		.byte	0x5
 1814 0718 27       		.byte	0x27
 1815 0719 25060000 		.long	0x625
 1816 071d 06       		.byte	0x6
 1817 071e 07       		.uleb128 0x7
 1818 071f 77616974 		.ascii "wait_time\0"
 1818      5F74696D 
 1818      6500
 1819 0729 05       		.byte	0x5
 1820 072a 28       		.byte	0x28
 1821 072b 25060000 		.long	0x625
 1822 072f 16       		.byte	0x16
 1823 0730 07       		.uleb128 0x7
 1824 0731 54696D65 		.ascii "TimeToPrioInc\0"
 1824      546F5072 
 1824      696F496E 
 1824      6300
 1825 073f 05       		.byte	0x5
 1826 0740 29       		.byte	0x29
 1827 0741 25060000 		.long	0x625
 1828 0745 26       		.byte	0x26
 1829 0746 07       		.uleb128 0x7
 1830 0747 6F766572 		.ascii "overwaittime_per_prio_inc_step\0"
 1830      77616974 
 1830      74696D65 
 1830      5F706572 
 1830      5F707269 
 1831 0766 05       		.byte	0x5
 1832 0767 2A       		.byte	0x2a
 1833 0768 31010000 		.long	0x131
 1834 076c 38       		.byte	0x38
 1835 076d 07       		.uleb128 0x7
 1836 076e 6D61785F 		.ascii "max_allowed_wait_time\0"
 1836      616C6C6F 
 1836      7765645F 
 1836      77616974 
 1836      5F74696D 
 1837 0784 05       		.byte	0x5
 1838 0785 2B       		.byte	0x2b
 1839 0786 25060000 		.long	0x625
 1840 078a 3C       		.byte	0x3c
 1841 078b 0F       		.uleb128 0xf
 1842 078c 36000000 		.secrel32	LASF0
 1843 0790 05       		.byte	0x5
 1844 0791 2C       		.byte	0x2c
 1845 0792 25060000 		.long	0x625
 1846 0796 4C       		.byte	0x4c
 1847 0797 07       		.uleb128 0x7
 1848 0798 73746172 		.ascii "start_time\0"
 1848      745F7469 
 1848      6D6500
GAS LISTING C:\Users\PRESID~1\AppData\Local\Temp\ccPltnJh.s 			page 49


 1849 07a3 05       		.byte	0x5
 1850 07a4 2D       		.byte	0x2d
 1851 07a5 25060000 		.long	0x625
 1852 07a9 5C       		.byte	0x5c
 1853 07aa 07       		.uleb128 0x7
 1854 07ab 63757272 		.ascii "current_prio\0"
 1854      656E745F 
 1854      7072696F 
 1854      00
 1855 07b8 05       		.byte	0x5
 1856 07b9 2E       		.byte	0x2e
 1857 07ba 91000000 		.long	0x91
 1858 07be 6C       		.byte	0x6c
 1859 07bf 0F       		.uleb128 0xf
 1860 07c0 4A000000 		.secrel32	LASF2
 1861 07c4 05       		.byte	0x5
 1862 07c5 2F       		.byte	0x2f
 1863 07c6 91000000 		.long	0x91
 1864 07ca 6D       		.byte	0x6d
 1865 07cb 07       		.uleb128 0x7
 1866 07cc 7461736B 		.ascii "task_number\0"
 1866      5F6E756D 
 1866      62657200 
 1867 07d8 05       		.byte	0x5
 1868 07d9 30       		.byte	0x30
 1869 07da F8000000 		.long	0xf8
 1870 07de 70       		.byte	0x70
 1871 07df 07       		.uleb128 0x7
 1872 07e0 667000   		.ascii "fp\0"
 1873 07e3 05       		.byte	0x5
 1874 07e4 31       		.byte	0x31
 1875 07e5 CB050000 		.long	0x5cb
 1876 07e9 74       		.byte	0x74
 1877 07ea 07       		.uleb128 0x7
 1878 07eb 73746174 		.ascii "state_request\0"
 1878      655F7265 
 1878      71756573 
 1878      7400
 1879 07f9 05       		.byte	0x5
 1880 07fa 32       		.byte	0x32
 1881 07fb EE050000 		.long	0x5ee
 1882 07ff 78       		.byte	0x78
 1883 0800 07       		.uleb128 0x7
 1884 0801 7461736B 		.ascii "task_state\0"
 1884      5F737461 
 1884      746500
 1885 080c 05       		.byte	0x5
 1886 080d 33       		.byte	0x33
 1887 080e B7050000 		.long	0x5b7
 1888 0812 7C       		.byte	0x7c
 1889 0813 07       		.uleb128 0x7
 1890 0814 7461736B 		.ascii "task_group\0"
 1890      5F67726F 
 1890      757000
 1891 081f 05       		.byte	0x5
 1892 0820 34       		.byte	0x34
 1893 0821 ED080000 		.long	0x8ed
GAS LISTING C:\Users\PRESID~1\AppData\Local\Temp\ccPltnJh.s 			page 50


 1894 0825 80       		.byte	0x80
 1895 0826 07       		.uleb128 0x7
 1896 0827 45415800 		.ascii "EAX\0"
 1897 082b 05       		.byte	0x5
 1898 082c 36       		.byte	0x36
 1899 082d F8000000 		.long	0xf8
 1900 0831 84       		.byte	0x84
 1901 0832 07       		.uleb128 0x7
 1902 0833 45425800 		.ascii "EBX\0"
 1903 0837 05       		.byte	0x5
 1904 0838 37       		.byte	0x37
 1905 0839 F8000000 		.long	0xf8
 1906 083d 88       		.byte	0x88
 1907 083e 07       		.uleb128 0x7
 1908 083f 45435800 		.ascii "ECX\0"
 1909 0843 05       		.byte	0x5
 1910 0844 38       		.byte	0x38
 1911 0845 F8000000 		.long	0xf8
 1912 0849 8C       		.byte	0x8c
 1913 084a 07       		.uleb128 0x7
 1914 084b 45445800 		.ascii "EDX\0"
 1915 084f 05       		.byte	0x5
 1916 0850 39       		.byte	0x39
 1917 0851 F8000000 		.long	0xf8
 1918 0855 90       		.byte	0x90
 1919 0856 07       		.uleb128 0x7
 1920 0857 70537461 		.ascii "pStackPointer\0"
 1920      636B506F 
 1920      696E7465 
 1920      7200
 1921 0865 05       		.byte	0x5
 1922 0866 49       		.byte	0x49
 1923 0867 F3080000 		.long	0x8f3
 1924 086b 94       		.byte	0x94
 1925 086c 07       		.uleb128 0x7
 1926 086d 70537461 		.ascii "pStackPointerByMalloc\0"
 1926      636B506F 
 1926      696E7465 
 1926      7242794D 
 1926      616C6C6F 
 1927 0883 05       		.byte	0x5
 1928 0884 4A       		.byte	0x4a
 1929 0885 F3080000 		.long	0x8f3
 1930 0889 98       		.byte	0x98
 1931 088a 07       		.uleb128 0x7
 1932 088b 70537461 		.ascii "pStackPointerStart\0"
 1932      636B506F 
 1932      696E7465 
 1932      72537461 
 1932      727400
 1933 089e 05       		.byte	0x5
 1934 089f 4B       		.byte	0x4b
 1935 08a0 F3080000 		.long	0x8f3
 1936 08a4 9C       		.byte	0x9c
 1937 08a5 07       		.uleb128 0x7
 1938 08a6 53746163 		.ascii "StackSize\0"
 1938      6B53697A 
GAS LISTING C:\Users\PRESID~1\AppData\Local\Temp\ccPltnJh.s 			page 51


 1938      6500
 1939 08b0 05       		.byte	0x5
 1940 08b1 4C       		.byte	0x4c
 1941 08b2 F8000000 		.long	0xf8
 1942 08b6 A0       		.byte	0xa0
 1943 08b7 07       		.uleb128 0x7
 1944 08b8 70537461 		.ascii "pStackPointerEnd\0"
 1944      636B506F 
 1944      696E7465 
 1944      72456E64 
 1944      00
 1945 08c9 05       		.byte	0x5
 1946 08ca 4D       		.byte	0x4d
 1947 08cb F3080000 		.long	0x8f3
 1948 08cf A4       		.byte	0xa4
 1949 08d0 0F       		.uleb128 0xf
 1950 08d1 19000000 		.secrel32	LASF3
 1951 08d5 05       		.byte	0x5
 1952 08d6 4E       		.byte	0x4e
 1953 08d7 49050000 		.long	0x549
 1954 08db A8       		.byte	0xa8
 1955 08dc 00       		.byte	0
 1956 08dd 03       		.uleb128 0x3
 1957 08de 04       		.byte	0x4
 1958 08df 07       		.byte	0x7
 1959 08e0 756E7369 		.ascii "unsigned int\0"
 1959      676E6564 
 1959      20696E74 
 1959      00
 1960 08ed 0A       		.uleb128 0xa
 1961 08ee 04       		.byte	0x4
 1962 08ef 6E060000 		.long	0x66e
 1963 08f3 0A       		.uleb128 0xa
 1964 08f4 04       		.byte	0x4
 1965 08f5 91000000 		.long	0x91
 1966 08f9 02       		.uleb128 0x2
 1967 08fa 7461736B 		.ascii "task_t\0"
 1967      5F7400
 1968 0901 05       		.byte	0x5
 1969 0902 50       		.byte	0x50
 1970 0903 82060000 		.long	0x682
 1971 0907 02       		.uleb128 0x2
 1972 0908 73636865 		.ascii "scheduling_t\0"
 1972      64756C69 
 1972      6E675F74 
 1972      00
 1973 0915 05       		.byte	0x5
 1974 0916 51       		.byte	0x51
 1975 0917 1B090000 		.long	0x91b
 1976 091b 0A       		.uleb128 0xa
 1977 091c 04       		.byte	0x4
 1978 091d F9080000 		.long	0x8f9
 1979 0921 12       		.uleb128 0x12
 1980 0922 5345545F 		.ascii "SET_RUNNING_TASK\0"
 1980      52554E4E 
 1980      494E475F 
 1980      5441534B 
GAS LISTING C:\Users\PRESID~1\AppData\Local\Temp\ccPltnJh.s 			page 52


 1980      00
 1981 0933 01       		.byte	0x1
 1982 0934 21       		.byte	0x21
 1983 0935 00000000 		.long	LFB0
 1984 0939 FF010000 		.long	LFE0-LFB0
 1985 093d 01       		.uleb128 0x1
 1986 093e 9C       		.byte	0x9c
 1987 093f 6C090000 		.long	0x96c
 1988 0943 13       		.uleb128 0x13
 1989 0944 31000000 		.secrel32	LASF4
 1990 0948 01       		.byte	0x1
 1991 0949 21       		.byte	0x21
 1992 094a 1B090000 		.long	0x91b
 1993 094e 02       		.uleb128 0x2
 1994 094f 91       		.byte	0x91
 1995 0950 00       		.sleb128 0
 1996 0951 14       		.uleb128 0x14
 1997 0952 73636865 		.ascii "scheduling_task\0"
 1997      64756C69 
 1997      6E675F74 
 1997      61736B00 
 1998 0962 01       		.byte	0x1
 1999 0963 21       		.byte	0x21
 2000 0964 6C090000 		.long	0x96c
 2001 0968 02       		.uleb128 0x2
 2002 0969 91       		.byte	0x91
 2003 096a 04       		.sleb128 4
 2004 096b 00       		.byte	0
 2005 096c 0A       		.uleb128 0xa
 2006 096d 04       		.byte	0x4
 2007 096e 07090000 		.long	0x907
 2008 0972 12       		.uleb128 0x12
 2009 0973 4F535F49 		.ascii "OS_InitTaskQueue\0"
 2009      6E697454 
 2009      61736B51 
 2009      75657565 
 2009      00
 2010 0984 01       		.byte	0x1
 2011 0985 57       		.byte	0x57
 2012 0986 FF010000 		.long	LFB1
 2013 098a 61000000 		.long	LFE1-LFB1
 2014 098e 01       		.uleb128 0x1
 2015 098f 9C       		.byte	0x9c
 2016 0990 AD090000 		.long	0x9ad
 2017 0994 15       		.uleb128 0x15
 2018 0995 0E020000 		.long	LBB2
 2019 0999 50000000 		.long	LBE2-LBB2
 2020 099d 16       		.uleb128 0x16
 2021 099e 3F000000 		.secrel32	LASF5
 2022 09a2 01       		.byte	0x1
 2023 09a3 5B       		.byte	0x5b
 2024 09a4 91000000 		.long	0x91
 2025 09a8 02       		.uleb128 0x2
 2026 09a9 91       		.byte	0x91
 2027 09aa 6F       		.sleb128 -17
 2028 09ab 00       		.byte	0
 2029 09ac 00       		.byte	0
GAS LISTING C:\Users\PRESID~1\AppData\Local\Temp\ccPltnJh.s 			page 53


 2030 09ad 17       		.uleb128 0x17
 2031 09ae 41646454 		.ascii "AddToTaskQueue\0"
 2031      6F546173 
 2031      6B517565 
 2031      756500
 2032 09bd 01       		.byte	0x1
 2033 09be 65       		.byte	0x65
 2034 09bf 1B090000 		.long	0x91b
 2035 09c3 60020000 		.long	LFB2
 2036 09c7 B7050000 		.long	LFE2-LFB2
 2037 09cb 01       		.uleb128 0x1
 2038 09cc 9C       		.byte	0x9c
 2039 09cd 010A0000 		.long	0xa01
 2040 09d1 13       		.uleb128 0x13
 2041 09d2 31000000 		.secrel32	LASF4
 2042 09d6 01       		.byte	0x1
 2043 09d7 65       		.byte	0x65
 2044 09d8 1B090000 		.long	0x91b
 2045 09dc 02       		.uleb128 0x2
 2046 09dd 91       		.byte	0x91
 2047 09de 00       		.sleb128 0
 2048 09df 16       		.uleb128 0x16
 2049 09e0 3F000000 		.secrel32	LASF5
 2050 09e4 01       		.byte	0x1
 2051 09e5 67       		.byte	0x67
 2052 09e6 91000000 		.long	0x91
 2053 09ea 02       		.uleb128 0x2
 2054 09eb 91       		.byte	0x91
 2055 09ec 6F       		.sleb128 -17
 2056 09ed 18       		.uleb128 0x18
 2057 09ee 7265745F 		.ascii "ret_task\0"
 2057      7461736B 
 2057      00
 2058 09f7 01       		.byte	0x1
 2059 09f8 68       		.byte	0x68
 2060 09f9 1B090000 		.long	0x91b
 2061 09fd 02       		.uleb128 0x2
 2062 09fe 91       		.byte	0x91
 2063 09ff 68       		.sleb128 -24
 2064 0a00 00       		.byte	0
 2065 0a01 12       		.uleb128 0x12
 2066 0a02 44656C65 		.ascii "DeleteFromTaskQueue\0"
 2066      74654672 
 2066      6F6D5461 
 2066      736B5175 
 2066      65756500 
 2067 0a16 01       		.byte	0x1
 2068 0a17 A3       		.byte	0xa3
 2069 0a18 17080000 		.long	LFB3
 2070 0a1c 4A010000 		.long	LFE3-LFB3
 2071 0a20 01       		.uleb128 0x1
 2072 0a21 9C       		.byte	0x9c
 2073 0a22 350A0000 		.long	0xa35
 2074 0a26 13       		.uleb128 0x13
 2075 0a27 31000000 		.secrel32	LASF4
 2076 0a2b 01       		.byte	0x1
 2077 0a2c A3       		.byte	0xa3
GAS LISTING C:\Users\PRESID~1\AppData\Local\Temp\ccPltnJh.s 			page 54


 2078 0a2d 1B090000 		.long	0x91b
 2079 0a31 02       		.uleb128 0x2
 2080 0a32 91       		.byte	0x91
 2081 0a33 00       		.sleb128 0
 2082 0a34 00       		.byte	0
 2083 0a35 19       		.uleb128 0x19
 2084 0a36 47657446 		.ascii "GetFromTaskQueue\0"
 2084      726F6D54 
 2084      61736B51 
 2084      75657565 
 2084      00
 2085 0a47 01       		.byte	0x1
 2086 0a48 D4       		.byte	0xd4
 2087 0a49 1B090000 		.long	0x91b
 2088 0a4d 61090000 		.long	LFB4
 2089 0a51 0A000000 		.long	LFE4-LFB4
 2090 0a55 01       		.uleb128 0x1
 2091 0a56 9C       		.byte	0x9c
 2092 0a57 6A0A0000 		.long	0xa6a
 2093 0a5b 13       		.uleb128 0x13
 2094 0a5c 00000000 		.secrel32	LASF6
 2095 0a60 01       		.byte	0x1
 2096 0a61 D4       		.byte	0xd4
 2097 0a62 6C090000 		.long	0x96c
 2098 0a66 02       		.uleb128 0x2
 2099 0a67 91       		.byte	0x91
 2100 0a68 00       		.sleb128 0
 2101 0a69 00       		.byte	0
 2102 0a6a 19       		.uleb128 0x19
 2103 0a6b 47657446 		.ascii "GetFromSchedulingQueue\0"
 2103      726F6D53 
 2103      63686564 
 2103      756C696E 
 2103      67517565 
 2104 0a82 01       		.byte	0x1
 2105 0a83 D8       		.byte	0xd8
 2106 0a84 6C090000 		.long	0x96c
 2107 0a88 6B090000 		.long	LFB5
 2108 0a8c 1A000000 		.long	LFE5-LFB5
 2109 0a90 01       		.uleb128 0x1
 2110 0a91 9C       		.byte	0x9c
 2111 0a92 A50A0000 		.long	0xaa5
 2112 0a96 13       		.uleb128 0x13
 2113 0a97 3F000000 		.secrel32	LASF5
 2114 0a9b 01       		.byte	0x1
 2115 0a9c D8       		.byte	0xd8
 2116 0a9d 91000000 		.long	0x91
 2117 0aa1 02       		.uleb128 0x2
 2118 0aa2 91       		.byte	0x91
 2119 0aa3 74       		.sleb128 -12
 2120 0aa4 00       		.byte	0
 2121 0aa5 1A       		.uleb128 0x1a
 2122 0aa6 44656C65 		.ascii "DeleteFromSchedulingQueue\0"
 2122      74654672 
 2122      6F6D5363 
 2122      68656475 
 2122      6C696E67 
GAS LISTING C:\Users\PRESID~1\AppData\Local\Temp\ccPltnJh.s 			page 55


 2123 0ac0 01       		.byte	0x1
 2124 0ac1 DD       		.byte	0xdd
 2125 0ac2 85090000 		.long	LFB6
 2126 0ac6 0E000000 		.long	LFE6-LFB6
 2127 0aca 01       		.uleb128 0x1
 2128 0acb 9C       		.byte	0x9c
 2129 0acc DF0A0000 		.long	0xadf
 2130 0ad0 13       		.uleb128 0x13
 2131 0ad1 00000000 		.secrel32	LASF6
 2132 0ad5 01       		.byte	0x1
 2133 0ad6 DD       		.byte	0xdd
 2134 0ad7 6C090000 		.long	0x96c
 2135 0adb 02       		.uleb128 0x2
 2136 0adc 91       		.byte	0x91
 2137 0add 00       		.sleb128 0
 2138 0ade 00       		.byte	0
 2139 0adf 1A       		.uleb128 0x1a
 2140 0ae0 41646454 		.ascii "AddToSchedulingQueue\0"
 2140      6F536368 
 2140      6564756C 
 2140      696E6751 
 2140      75657565 
 2141 0af5 01       		.byte	0x1
 2142 0af6 E1       		.byte	0xe1
 2143 0af7 93090000 		.long	LFB7
 2144 0afb 47000000 		.long	LFE7-LFB7
 2145 0aff 01       		.uleb128 0x1
 2146 0b00 9C       		.byte	0x9c
 2147 0b01 3D0B0000 		.long	0xb3d
 2148 0b05 13       		.uleb128 0x13
 2149 0b06 31000000 		.secrel32	LASF4
 2150 0b0a 01       		.byte	0x1
 2151 0b0b E1       		.byte	0xe1
 2152 0b0c 1B090000 		.long	0x91b
 2153 0b10 02       		.uleb128 0x2
 2154 0b11 91       		.byte	0x91
 2155 0b12 00       		.sleb128 0
 2156 0b13 18       		.uleb128 0x18
 2157 0b14 4164645F 		.ascii "Add_successful\0"
 2157      73756363 
 2157      65737366 
 2157      756C00
 2158 0b23 01       		.byte	0x1
 2159 0b24 EA       		.byte	0xea
 2160 0b25 91000000 		.long	0x91
 2161 0b29 02       		.uleb128 0x2
 2162 0b2a 91       		.byte	0x91
 2163 0b2b 77       		.sleb128 -9
 2164 0b2c 18       		.uleb128 0x18
 2165 0b2d 696E6465 		.ascii "index\0"
 2165      7800
 2166 0b33 01       		.byte	0x1
 2167 0b34 EB       		.byte	0xeb
 2168 0b35 91000000 		.long	0x91
 2169 0b39 02       		.uleb128 0x2
 2170 0b3a 91       		.byte	0x91
 2171 0b3b 76       		.sleb128 -10
GAS LISTING C:\Users\PRESID~1\AppData\Local\Temp\ccPltnJh.s 			page 56


 2172 0b3c 00       		.byte	0
 2173 0b3d 1A       		.uleb128 0x1a
 2174 0b3e 55706461 		.ascii "UpdateSchedulingQueue\0"
 2174      74655363 
 2174      68656475 
 2174      6C696E67 
 2174      51756575 
 2175 0b54 01       		.byte	0x1
 2176 0b55 F9       		.byte	0xf9
 2177 0b56 DA090000 		.long	LFB8
 2178 0b5a 8C000000 		.long	LFE8-LFB8
 2179 0b5e 01       		.uleb128 0x1
 2180 0b5f 9C       		.byte	0x9c
 2181 0b60 820B0000 		.long	0xb82
 2182 0b64 18       		.uleb128 0x18
 2183 0b65 64657374 		.ascii "dest\0"
 2183      00
 2184 0b6a 01       		.byte	0x1
 2185 0b6b FC       		.byte	0xfc
 2186 0b6c 91000000 		.long	0x91
 2187 0b70 02       		.uleb128 0x2
 2188 0b71 91       		.byte	0x91
 2189 0b72 77       		.sleb128 -9
 2190 0b73 18       		.uleb128 0x18
 2191 0b74 73726300 		.ascii "src\0"
 2192 0b78 01       		.byte	0x1
 2193 0b79 FC       		.byte	0xfc
 2194 0b7a 91000000 		.long	0x91
 2195 0b7e 02       		.uleb128 0x2
 2196 0b7f 91       		.byte	0x91
 2197 0b80 76       		.sleb128 -10
 2198 0b81 00       		.byte	0
 2199 0b82 1B       		.uleb128 0x1b
 2200 0b83 47657449 		.ascii "GetIdleTask\0"
 2200      646C6554 
 2200      61736B00 
 2201 0b8f 01       		.byte	0x1
 2202 0b90 1401     		.word	0x114
 2203 0b92 1B090000 		.long	0x91b
 2204 0b96 660A0000 		.long	LFB9
 2205 0b9a 0A000000 		.long	LFE9-LFB9
 2206 0b9e 01       		.uleb128 0x1
 2207 0b9f 9C       		.byte	0x9c
 2208 0ba0 1C       		.uleb128 0x1c
 2209 0ba1 41646454 		.ascii "AddToIdleTaskQueue\0"
 2209      6F49646C 
 2209      65546173 
 2209      6B517565 
 2209      756500
 2210 0bb4 01       		.byte	0x1
 2211 0bb5 1801     		.word	0x118
 2212 0bb7 700A0000 		.long	LFB10
 2213 0bbb E6010000 		.long	LFE10-LFB10
 2214 0bbf 01       		.uleb128 0x1
 2215 0bc0 9C       		.byte	0x9c
 2216 0bc1 D50B0000 		.long	0xbd5
 2217 0bc5 1D       		.uleb128 0x1d
GAS LISTING C:\Users\PRESID~1\AppData\Local\Temp\ccPltnJh.s 			page 57


 2218 0bc6 31000000 		.secrel32	LASF4
 2219 0bca 01       		.byte	0x1
 2220 0bcb 1801     		.word	0x118
 2221 0bcd 1B090000 		.long	0x91b
 2222 0bd1 02       		.uleb128 0x2
 2223 0bd2 91       		.byte	0x91
 2224 0bd3 00       		.sleb128 0
 2225 0bd4 00       		.byte	0
 2226 0bd5 1B       		.uleb128 0x1b
 2227 0bd6 47657452 		.ascii "GetRunningTask\0"
 2227      756E6E69 
 2227      6E675461 
 2227      736B00
 2228 0be5 01       		.byte	0x1
 2229 0be6 4C01     		.word	0x14c
 2230 0be8 1B090000 		.long	0x91b
 2231 0bec 560C0000 		.long	LFB11
 2232 0bf0 0A000000 		.long	LFE11-LFB11
 2233 0bf4 01       		.uleb128 0x1
 2234 0bf5 9C       		.byte	0x9c
 2235 0bf6 1B       		.uleb128 0x1b
 2236 0bf7 47657452 		.ascii "GetRunningSchedulingQueueElementPtr\0"
 2236      756E6E69 
 2236      6E675363 
 2236      68656475 
 2236      6C696E67 
 2237 0c1b 01       		.byte	0x1
 2238 0c1c 5001     		.word	0x150
 2239 0c1e 2C0C0000 		.long	0xc2c
 2240 0c22 600C0000 		.long	LFB12
 2241 0c26 0A000000 		.long	LFE12-LFB12
 2242 0c2a 01       		.uleb128 0x1
 2243 0c2b 9C       		.byte	0x9c
 2244 0c2c 0A       		.uleb128 0xa
 2245 0c2d 04       		.byte	0x4
 2246 0c2e 1B090000 		.long	0x91b
 2247 0c32 1C       		.uleb128 0x1c
 2248 0c33 4F535F49 		.ascii "OS_InitTask\0"
 2248      6E697454 
 2248      61736B00 
 2249 0c3f 01       		.byte	0x1
 2250 0c40 5401     		.word	0x154
 2251 0c42 6A0C0000 		.long	LFB13
 2252 0c46 4C010000 		.long	LFE13-LFB13
 2253 0c4a 01       		.uleb128 0x1
 2254 0c4b 9C       		.byte	0x9c
 2255 0c4c 150D0000 		.long	0xd15
 2256 0c50 1D       		.uleb128 0x1d
 2257 0c51 31000000 		.secrel32	LASF4
 2258 0c55 01       		.byte	0x1
 2259 0c56 5501     		.word	0x155
 2260 0c58 1B090000 		.long	0x91b
 2261 0c5c 02       		.uleb128 0x2
 2262 0c5d 91       		.byte	0x91
 2263 0c5e 00       		.sleb128 0
 2264 0c5f 1E       		.uleb128 0x1e
 2265 0c60 5461736B 		.ascii "TaskFunction\0"
GAS LISTING C:\Users\PRESID~1\AppData\Local\Temp\ccPltnJh.s 			page 58


 2265      46756E63 
 2265      74696F6E 
 2265      00
 2266 0c6d 01       		.byte	0x1
 2267 0c6e 5601     		.word	0x156
 2268 0c70 CB050000 		.long	0x5cb
 2269 0c74 02       		.uleb128 0x2
 2270 0c75 91       		.byte	0x91
 2271 0c76 04       		.sleb128 4
 2272 0c77 1E       		.uleb128 0x1e
 2273 0c78 416C6C6F 		.ascii "AllowedInstances\0"
 2273      77656449 
 2273      6E737461 
 2273      6E636573 
 2273      00
 2274 0c89 01       		.byte	0x1
 2275 0c8a 5701     		.word	0x157
 2276 0c8c 91000000 		.long	0x91
 2277 0c90 02       		.uleb128 0x2
 2278 0c91 91       		.byte	0x91
 2279 0c92 6C       		.sleb128 -20
 2280 0c93 1D       		.uleb128 0x1d
 2281 0c94 28000000 		.secrel32	LASF1
 2282 0c98 01       		.byte	0x1
 2283 0c99 5801     		.word	0x158
 2284 0c9b 91000000 		.long	0x91
 2285 0c9f 02       		.uleb128 0x2
 2286 0ca0 91       		.byte	0x91
 2287 0ca1 68       		.sleb128 -24
 2288 0ca2 1E       		.uleb128 0x1e
 2289 0ca3 705F7461 		.ascii "p_task_group\0"
 2289      736B5F67 
 2289      726F7570 
 2289      00
 2290 0cb0 01       		.byte	0x1
 2291 0cb1 5901     		.word	0x159
 2292 0cb3 ED080000 		.long	0x8ed
 2293 0cb7 02       		.uleb128 0x2
 2294 0cb8 91       		.byte	0x91
 2295 0cb9 10       		.sleb128 16
 2296 0cba 1E       		.uleb128 0x1e
 2297 0cbb 70537461 		.ascii "pStackAddr\0"
 2297      636B4164 
 2297      647200
 2298 0cc6 01       		.byte	0x1
 2299 0cc7 5A01     		.word	0x15a
 2300 0cc9 F3080000 		.long	0x8f3
 2301 0ccd 02       		.uleb128 0x2
 2302 0cce 91       		.byte	0x91
 2303 0ccf 14       		.sleb128 20
 2304 0cd0 1E       		.uleb128 0x1e
 2305 0cd1 75537461 		.ascii "uStackSize\0"
 2305      636B5369 
 2305      7A6500
 2306 0cdc 01       		.byte	0x1
 2307 0cdd 5B01     		.word	0x15b
 2308 0cdf F8000000 		.long	0xf8
GAS LISTING C:\Users\PRESID~1\AppData\Local\Temp\ccPltnJh.s 			page 59


 2309 0ce3 02       		.uleb128 0x2
 2310 0ce4 91       		.byte	0x91
 2311 0ce5 18       		.sleb128 24
 2312 0ce6 1D       		.uleb128 0x1d
 2313 0ce7 19000000 		.secrel32	LASF3
 2314 0ceb 01       		.byte	0x1
 2315 0cec 5C01     		.word	0x15c
 2316 0cee 49050000 		.long	0x549
 2317 0cf2 02       		.uleb128 0x2
 2318 0cf3 91       		.byte	0x91
 2319 0cf4 1C       		.sleb128 28
 2320 0cf5 1E       		.uleb128 0x1e
 2321 0cf6 636F7265 		.ascii "core\0"
 2321      00
 2322 0cfb 01       		.byte	0x1
 2323 0cfc 5D01     		.word	0x15d
 2324 0cfe A4040000 		.long	0x4a4
 2325 0d02 02       		.uleb128 0x2
 2326 0d03 91       		.byte	0x91
 2327 0d04 20       		.sleb128 32
 2328 0d05 1D       		.uleb128 0x1d
 2329 0d06 4A000000 		.secrel32	LASF2
 2330 0d0a 01       		.byte	0x1
 2331 0d0b 5E01     		.word	0x15e
 2332 0d0d 91000000 		.long	0x91
 2333 0d11 02       		.uleb128 0x2
 2334 0d12 91       		.byte	0x91
 2335 0d13 64       		.sleb128 -28
 2336 0d14 00       		.byte	0
 2337 0d15 08       		.uleb128 0x8
 2338 0d16 07090000 		.long	0x907
 2339 0d1a 250D0000 		.long	0xd25
 2340 0d1e 09       		.uleb128 0x9
 2341 0d1f 58040000 		.long	0x458
 2342 0d23 09       		.byte	0x9
 2343 0d24 00       		.byte	0
 2344 0d25 1F       		.uleb128 0x1f
 2345 0d26 5441534B 		.ascii "TASK_SCHEDULING_QUEUE\0"
 2345      5F534348 
 2345      4544554C 
 2345      494E475F 
 2345      51554555 
 2346 0d3c 06       		.byte	0x6
 2347 0d3d 27       		.byte	0x27
 2348 0d3e 150D0000 		.long	0xd15
 2349 0d42 1F       		.uleb128 0x1f
 2350 0d43 52554E4E 		.ascii "RUNNING_SCHEDULING_QUEUE_ENTRY\0"
 2350      494E475F 
 2350      53434845 
 2350      44554C49 
 2350      4E475F51 
 2351 0d62 06       		.byte	0x6
 2352 0d63 28       		.byte	0x28
 2353 0d64 6C090000 		.long	0x96c
 2354 0d68 08       		.uleb128 0x8
 2355 0d69 F9080000 		.long	0x8f9
 2356 0d6d 780D0000 		.long	0xd78
GAS LISTING C:\Users\PRESID~1\AppData\Local\Temp\ccPltnJh.s 			page 60


 2357 0d71 09       		.uleb128 0x9
 2358 0d72 58040000 		.long	0x458
 2359 0d76 09       		.byte	0x9
 2360 0d77 00       		.byte	0
 2361 0d78 1F       		.uleb128 0x1f
 2362 0d79 5441534B 		.ascii "TASK_RUN_QUEUE\0"
 2362      5F52554E 
 2362      5F515545 
 2362      554500
 2363 0d88 06       		.byte	0x6
 2364 0d89 29       		.byte	0x29
 2365 0d8a 680D0000 		.long	0xd68
 2366 0d8e 08       		.uleb128 0x8
 2367 0d8f F9080000 		.long	0x8f9
 2368 0d93 9E0D0000 		.long	0xd9e
 2369 0d97 09       		.uleb128 0x9
 2370 0d98 58040000 		.long	0x458
 2371 0d9c 00       		.byte	0
 2372 0d9d 00       		.byte	0
 2373 0d9e 1F       		.uleb128 0x1f
 2374 0d9f 52554E4E 		.ascii "RUNNING_TASK\0"
 2374      494E475F 
 2374      5441534B 
 2374      00
 2375 0dac 06       		.byte	0x6
 2376 0dad 2A       		.byte	0x2a
 2377 0dae 8E0D0000 		.long	0xd8e
 2378 0db2 1F       		.uleb128 0x1f
 2379 0db3 5441534B 		.ascii "TASK_IDLE_QUEUE\0"
 2379      5F49444C 
 2379      455F5155 
 2379      45554500 
 2380 0dc3 06       		.byte	0x6
 2381 0dc4 2B       		.byte	0x2b
 2382 0dc5 8E0D0000 		.long	0xd8e
 2383 0dc9 1F       		.uleb128 0x1f
 2384 0dca 62544153 		.ascii "bTASK_QUEUE_INITIALIZED\0"
 2384      4B5F5155 
 2384      4555455F 
 2384      494E4954 
 2384      49414C49 
 2385 0de2 06       		.byte	0x6
 2386 0de3 2C       		.byte	0x2c
 2387 0de4 91000000 		.long	0x91
 2388 0de8 00       		.byte	0
 2389              		.section	.debug_abbrev,"dr"
 2390              	Ldebug_abbrev0:
 2391 0000 01       		.uleb128 0x1
 2392 0001 11       		.uleb128 0x11
 2393 0002 01       		.byte	0x1
 2394 0003 25       		.uleb128 0x25
 2395 0004 08       		.uleb128 0x8
 2396 0005 13       		.uleb128 0x13
 2397 0006 0B       		.uleb128 0xb
 2398 0007 03       		.uleb128 0x3
 2399 0008 08       		.uleb128 0x8
 2400 0009 11       		.uleb128 0x11
GAS LISTING C:\Users\PRESID~1\AppData\Local\Temp\ccPltnJh.s 			page 61


 2401 000a 01       		.uleb128 0x1
 2402 000b 12       		.uleb128 0x12
 2403 000c 06       		.uleb128 0x6
 2404 000d 10       		.uleb128 0x10
 2405 000e 17       		.uleb128 0x17
 2406 000f 9942     		.uleb128 0x2119
 2407 0011 17       		.uleb128 0x17
 2408 0012 00       		.byte	0
 2409 0013 00       		.byte	0
 2410 0014 02       		.uleb128 0x2
 2411 0015 16       		.uleb128 0x16
 2412 0016 00       		.byte	0
 2413 0017 03       		.uleb128 0x3
 2414 0018 08       		.uleb128 0x8
 2415 0019 3A       		.uleb128 0x3a
 2416 001a 0B       		.uleb128 0xb
 2417 001b 3B       		.uleb128 0x3b
 2418 001c 0B       		.uleb128 0xb
 2419 001d 49       		.uleb128 0x49
 2420 001e 13       		.uleb128 0x13
 2421 001f 00       		.byte	0
 2422 0020 00       		.byte	0
 2423 0021 03       		.uleb128 0x3
 2424 0022 24       		.uleb128 0x24
 2425 0023 00       		.byte	0
 2426 0024 0B       		.uleb128 0xb
 2427 0025 0B       		.uleb128 0xb
 2428 0026 3E       		.uleb128 0x3e
 2429 0027 0B       		.uleb128 0xb
 2430 0028 03       		.uleb128 0x3
 2431 0029 08       		.uleb128 0x8
 2432 002a 00       		.byte	0
 2433 002b 00       		.byte	0
 2434 002c 04       		.uleb128 0x4
 2435 002d 04       		.uleb128 0x4
 2436 002e 01       		.byte	0x1
 2437 002f 03       		.uleb128 0x3
 2438 0030 08       		.uleb128 0x8
 2439 0031 0B       		.uleb128 0xb
 2440 0032 0B       		.uleb128 0xb
 2441 0033 3A       		.uleb128 0x3a
 2442 0034 0B       		.uleb128 0xb
 2443 0035 3B       		.uleb128 0x3b
 2444 0036 0B       		.uleb128 0xb
 2445 0037 01       		.uleb128 0x1
 2446 0038 13       		.uleb128 0x13
 2447 0039 00       		.byte	0
 2448 003a 00       		.byte	0
 2449 003b 05       		.uleb128 0x5
 2450 003c 28       		.uleb128 0x28
 2451 003d 00       		.byte	0
 2452 003e 03       		.uleb128 0x3
 2453 003f 08       		.uleb128 0x8
 2454 0040 1C       		.uleb128 0x1c
 2455 0041 0D       		.uleb128 0xd
 2456 0042 00       		.byte	0
 2457 0043 00       		.byte	0
GAS LISTING C:\Users\PRESID~1\AppData\Local\Temp\ccPltnJh.s 			page 62


 2458 0044 06       		.uleb128 0x6
 2459 0045 13       		.uleb128 0x13
 2460 0046 01       		.byte	0x1
 2461 0047 03       		.uleb128 0x3
 2462 0048 08       		.uleb128 0x8
 2463 0049 0B       		.uleb128 0xb
 2464 004a 0B       		.uleb128 0xb
 2465 004b 3A       		.uleb128 0x3a
 2466 004c 0B       		.uleb128 0xb
 2467 004d 3B       		.uleb128 0x3b
 2468 004e 0B       		.uleb128 0xb
 2469 004f 01       		.uleb128 0x1
 2470 0050 13       		.uleb128 0x13
 2471 0051 00       		.byte	0
 2472 0052 00       		.byte	0
 2473 0053 07       		.uleb128 0x7
 2474 0054 0D       		.uleb128 0xd
 2475 0055 00       		.byte	0
 2476 0056 03       		.uleb128 0x3
 2477 0057 08       		.uleb128 0x8
 2478 0058 3A       		.uleb128 0x3a
 2479 0059 0B       		.uleb128 0xb
 2480 005a 3B       		.uleb128 0x3b
 2481 005b 0B       		.uleb128 0xb
 2482 005c 49       		.uleb128 0x49
 2483 005d 13       		.uleb128 0x13
 2484 005e 38       		.uleb128 0x38
 2485 005f 0B       		.uleb128 0xb
 2486 0060 00       		.byte	0
 2487 0061 00       		.byte	0
 2488 0062 08       		.uleb128 0x8
 2489 0063 01       		.uleb128 0x1
 2490 0064 01       		.byte	0x1
 2491 0065 49       		.uleb128 0x49
 2492 0066 13       		.uleb128 0x13
 2493 0067 01       		.uleb128 0x1
 2494 0068 13       		.uleb128 0x13
 2495 0069 00       		.byte	0
 2496 006a 00       		.byte	0
 2497 006b 09       		.uleb128 0x9
 2498 006c 21       		.uleb128 0x21
 2499 006d 00       		.byte	0
 2500 006e 49       		.uleb128 0x49
 2501 006f 13       		.uleb128 0x13
 2502 0070 2F       		.uleb128 0x2f
 2503 0071 0B       		.uleb128 0xb
 2504 0072 00       		.byte	0
 2505 0073 00       		.byte	0
 2506 0074 0A       		.uleb128 0xa
 2507 0075 0F       		.uleb128 0xf
 2508 0076 00       		.byte	0
 2509 0077 0B       		.uleb128 0xb
 2510 0078 0B       		.uleb128 0xb
 2511 0079 49       		.uleb128 0x49
 2512 007a 13       		.uleb128 0x13
 2513 007b 00       		.byte	0
 2514 007c 00       		.byte	0
GAS LISTING C:\Users\PRESID~1\AppData\Local\Temp\ccPltnJh.s 			page 63


 2515 007d 0B       		.uleb128 0xb
 2516 007e 15       		.uleb128 0x15
 2517 007f 01       		.byte	0x1
 2518 0080 27       		.uleb128 0x27
 2519 0081 19       		.uleb128 0x19
 2520 0082 01       		.uleb128 0x1
 2521 0083 13       		.uleb128 0x13
 2522 0084 00       		.byte	0
 2523 0085 00       		.byte	0
 2524 0086 0C       		.uleb128 0xc
 2525 0087 05       		.uleb128 0x5
 2526 0088 00       		.byte	0
 2527 0089 49       		.uleb128 0x49
 2528 008a 13       		.uleb128 0x13
 2529 008b 00       		.byte	0
 2530 008c 00       		.byte	0
 2531 008d 0D       		.uleb128 0xd
 2532 008e 0F       		.uleb128 0xf
 2533 008f 00       		.byte	0
 2534 0090 0B       		.uleb128 0xb
 2535 0091 0B       		.uleb128 0xb
 2536 0092 00       		.byte	0
 2537 0093 00       		.byte	0
 2538 0094 0E       		.uleb128 0xe
 2539 0095 15       		.uleb128 0x15
 2540 0096 01       		.byte	0x1
 2541 0097 27       		.uleb128 0x27
 2542 0098 19       		.uleb128 0x19
 2543 0099 49       		.uleb128 0x49
 2544 009a 13       		.uleb128 0x13
 2545 009b 01       		.uleb128 0x1
 2546 009c 13       		.uleb128 0x13
 2547 009d 00       		.byte	0
 2548 009e 00       		.byte	0
 2549 009f 0F       		.uleb128 0xf
 2550 00a0 0D       		.uleb128 0xd
 2551 00a1 00       		.byte	0
 2552 00a2 03       		.uleb128 0x3
 2553 00a3 0E       		.uleb128 0xe
 2554 00a4 3A       		.uleb128 0x3a
 2555 00a5 0B       		.uleb128 0xb
 2556 00a6 3B       		.uleb128 0x3b
 2557 00a7 0B       		.uleb128 0xb
 2558 00a8 49       		.uleb128 0x49
 2559 00a9 13       		.uleb128 0x13
 2560 00aa 38       		.uleb128 0x38
 2561 00ab 0B       		.uleb128 0xb
 2562 00ac 00       		.byte	0
 2563 00ad 00       		.byte	0
 2564 00ae 10       		.uleb128 0x10
 2565 00af 0D       		.uleb128 0xd
 2566 00b0 00       		.byte	0
 2567 00b1 03       		.uleb128 0x3
 2568 00b2 08       		.uleb128 0x8
 2569 00b3 3A       		.uleb128 0x3a
 2570 00b4 0B       		.uleb128 0xb
 2571 00b5 3B       		.uleb128 0x3b
GAS LISTING C:\Users\PRESID~1\AppData\Local\Temp\ccPltnJh.s 			page 64


 2572 00b6 0B       		.uleb128 0xb
 2573 00b7 49       		.uleb128 0x49
 2574 00b8 13       		.uleb128 0x13
 2575 00b9 0B       		.uleb128 0xb
 2576 00ba 0B       		.uleb128 0xb
 2577 00bb 0D       		.uleb128 0xd
 2578 00bc 0B       		.uleb128 0xb
 2579 00bd 0C       		.uleb128 0xc
 2580 00be 0B       		.uleb128 0xb
 2581 00bf 38       		.uleb128 0x38
 2582 00c0 0B       		.uleb128 0xb
 2583 00c1 00       		.byte	0
 2584 00c2 00       		.byte	0
 2585 00c3 11       		.uleb128 0x11
 2586 00c4 0D       		.uleb128 0xd
 2587 00c5 00       		.byte	0
 2588 00c6 03       		.uleb128 0x3
 2589 00c7 0E       		.uleb128 0xe
 2590 00c8 3A       		.uleb128 0x3a
 2591 00c9 0B       		.uleb128 0xb
 2592 00ca 3B       		.uleb128 0x3b
 2593 00cb 0B       		.uleb128 0xb
 2594 00cc 49       		.uleb128 0x49
 2595 00cd 13       		.uleb128 0x13
 2596 00ce 0B       		.uleb128 0xb
 2597 00cf 0B       		.uleb128 0xb
 2598 00d0 0D       		.uleb128 0xd
 2599 00d1 0B       		.uleb128 0xb
 2600 00d2 0C       		.uleb128 0xc
 2601 00d3 0B       		.uleb128 0xb
 2602 00d4 38       		.uleb128 0x38
 2603 00d5 0B       		.uleb128 0xb
 2604 00d6 00       		.byte	0
 2605 00d7 00       		.byte	0
 2606 00d8 12       		.uleb128 0x12
 2607 00d9 2E       		.uleb128 0x2e
 2608 00da 01       		.byte	0x1
 2609 00db 3F       		.uleb128 0x3f
 2610 00dc 19       		.uleb128 0x19
 2611 00dd 03       		.uleb128 0x3
 2612 00de 08       		.uleb128 0x8
 2613 00df 3A       		.uleb128 0x3a
 2614 00e0 0B       		.uleb128 0xb
 2615 00e1 3B       		.uleb128 0x3b
 2616 00e2 0B       		.uleb128 0xb
 2617 00e3 27       		.uleb128 0x27
 2618 00e4 19       		.uleb128 0x19
 2619 00e5 11       		.uleb128 0x11
 2620 00e6 01       		.uleb128 0x1
 2621 00e7 12       		.uleb128 0x12
 2622 00e8 06       		.uleb128 0x6
 2623 00e9 40       		.uleb128 0x40
 2624 00ea 18       		.uleb128 0x18
 2625 00eb 9642     		.uleb128 0x2116
 2626 00ed 19       		.uleb128 0x19
 2627 00ee 01       		.uleb128 0x1
 2628 00ef 13       		.uleb128 0x13
GAS LISTING C:\Users\PRESID~1\AppData\Local\Temp\ccPltnJh.s 			page 65


 2629 00f0 00       		.byte	0
 2630 00f1 00       		.byte	0
 2631 00f2 13       		.uleb128 0x13
 2632 00f3 05       		.uleb128 0x5
 2633 00f4 00       		.byte	0
 2634 00f5 03       		.uleb128 0x3
 2635 00f6 0E       		.uleb128 0xe
 2636 00f7 3A       		.uleb128 0x3a
 2637 00f8 0B       		.uleb128 0xb
 2638 00f9 3B       		.uleb128 0x3b
 2639 00fa 0B       		.uleb128 0xb
 2640 00fb 49       		.uleb128 0x49
 2641 00fc 13       		.uleb128 0x13
 2642 00fd 02       		.uleb128 0x2
 2643 00fe 18       		.uleb128 0x18
 2644 00ff 00       		.byte	0
 2645 0100 00       		.byte	0
 2646 0101 14       		.uleb128 0x14
 2647 0102 05       		.uleb128 0x5
 2648 0103 00       		.byte	0
 2649 0104 03       		.uleb128 0x3
 2650 0105 08       		.uleb128 0x8
 2651 0106 3A       		.uleb128 0x3a
 2652 0107 0B       		.uleb128 0xb
 2653 0108 3B       		.uleb128 0x3b
 2654 0109 0B       		.uleb128 0xb
 2655 010a 49       		.uleb128 0x49
 2656 010b 13       		.uleb128 0x13
 2657 010c 02       		.uleb128 0x2
 2658 010d 18       		.uleb128 0x18
 2659 010e 00       		.byte	0
 2660 010f 00       		.byte	0
 2661 0110 15       		.uleb128 0x15
 2662 0111 0B       		.uleb128 0xb
 2663 0112 01       		.byte	0x1
 2664 0113 11       		.uleb128 0x11
 2665 0114 01       		.uleb128 0x1
 2666 0115 12       		.uleb128 0x12
 2667 0116 06       		.uleb128 0x6
 2668 0117 00       		.byte	0
 2669 0118 00       		.byte	0
 2670 0119 16       		.uleb128 0x16
 2671 011a 34       		.uleb128 0x34
 2672 011b 00       		.byte	0
 2673 011c 03       		.uleb128 0x3
 2674 011d 0E       		.uleb128 0xe
 2675 011e 3A       		.uleb128 0x3a
 2676 011f 0B       		.uleb128 0xb
 2677 0120 3B       		.uleb128 0x3b
 2678 0121 0B       		.uleb128 0xb
 2679 0122 49       		.uleb128 0x49
 2680 0123 13       		.uleb128 0x13
 2681 0124 02       		.uleb128 0x2
 2682 0125 18       		.uleb128 0x18
 2683 0126 00       		.byte	0
 2684 0127 00       		.byte	0
 2685 0128 17       		.uleb128 0x17
GAS LISTING C:\Users\PRESID~1\AppData\Local\Temp\ccPltnJh.s 			page 66


 2686 0129 2E       		.uleb128 0x2e
 2687 012a 01       		.byte	0x1
 2688 012b 3F       		.uleb128 0x3f
 2689 012c 19       		.uleb128 0x19
 2690 012d 03       		.uleb128 0x3
 2691 012e 08       		.uleb128 0x8
 2692 012f 3A       		.uleb128 0x3a
 2693 0130 0B       		.uleb128 0xb
 2694 0131 3B       		.uleb128 0x3b
 2695 0132 0B       		.uleb128 0xb
 2696 0133 27       		.uleb128 0x27
 2697 0134 19       		.uleb128 0x19
 2698 0135 49       		.uleb128 0x49
 2699 0136 13       		.uleb128 0x13
 2700 0137 11       		.uleb128 0x11
 2701 0138 01       		.uleb128 0x1
 2702 0139 12       		.uleb128 0x12
 2703 013a 06       		.uleb128 0x6
 2704 013b 40       		.uleb128 0x40
 2705 013c 18       		.uleb128 0x18
 2706 013d 9642     		.uleb128 0x2116
 2707 013f 19       		.uleb128 0x19
 2708 0140 01       		.uleb128 0x1
 2709 0141 13       		.uleb128 0x13
 2710 0142 00       		.byte	0
 2711 0143 00       		.byte	0
 2712 0144 18       		.uleb128 0x18
 2713 0145 34       		.uleb128 0x34
 2714 0146 00       		.byte	0
 2715 0147 03       		.uleb128 0x3
 2716 0148 08       		.uleb128 0x8
 2717 0149 3A       		.uleb128 0x3a
 2718 014a 0B       		.uleb128 0xb
 2719 014b 3B       		.uleb128 0x3b
 2720 014c 0B       		.uleb128 0xb
 2721 014d 49       		.uleb128 0x49
 2722 014e 13       		.uleb128 0x13
 2723 014f 02       		.uleb128 0x2
 2724 0150 18       		.uleb128 0x18
 2725 0151 00       		.byte	0
 2726 0152 00       		.byte	0
 2727 0153 19       		.uleb128 0x19
 2728 0154 2E       		.uleb128 0x2e
 2729 0155 01       		.byte	0x1
 2730 0156 3F       		.uleb128 0x3f
 2731 0157 19       		.uleb128 0x19
 2732 0158 03       		.uleb128 0x3
 2733 0159 08       		.uleb128 0x8
 2734 015a 3A       		.uleb128 0x3a
 2735 015b 0B       		.uleb128 0xb
 2736 015c 3B       		.uleb128 0x3b
 2737 015d 0B       		.uleb128 0xb
 2738 015e 27       		.uleb128 0x27
 2739 015f 19       		.uleb128 0x19
 2740 0160 49       		.uleb128 0x49
 2741 0161 13       		.uleb128 0x13
 2742 0162 11       		.uleb128 0x11
GAS LISTING C:\Users\PRESID~1\AppData\Local\Temp\ccPltnJh.s 			page 67


 2743 0163 01       		.uleb128 0x1
 2744 0164 12       		.uleb128 0x12
 2745 0165 06       		.uleb128 0x6
 2746 0166 40       		.uleb128 0x40
 2747 0167 18       		.uleb128 0x18
 2748 0168 9742     		.uleb128 0x2117
 2749 016a 19       		.uleb128 0x19
 2750 016b 01       		.uleb128 0x1
 2751 016c 13       		.uleb128 0x13
 2752 016d 00       		.byte	0
 2753 016e 00       		.byte	0
 2754 016f 1A       		.uleb128 0x1a
 2755 0170 2E       		.uleb128 0x2e
 2756 0171 01       		.byte	0x1
 2757 0172 3F       		.uleb128 0x3f
 2758 0173 19       		.uleb128 0x19
 2759 0174 03       		.uleb128 0x3
 2760 0175 08       		.uleb128 0x8
 2761 0176 3A       		.uleb128 0x3a
 2762 0177 0B       		.uleb128 0xb
 2763 0178 3B       		.uleb128 0x3b
 2764 0179 0B       		.uleb128 0xb
 2765 017a 27       		.uleb128 0x27
 2766 017b 19       		.uleb128 0x19
 2767 017c 11       		.uleb128 0x11
 2768 017d 01       		.uleb128 0x1
 2769 017e 12       		.uleb128 0x12
 2770 017f 06       		.uleb128 0x6
 2771 0180 40       		.uleb128 0x40
 2772 0181 18       		.uleb128 0x18
 2773 0182 9742     		.uleb128 0x2117
 2774 0184 19       		.uleb128 0x19
 2775 0185 01       		.uleb128 0x1
 2776 0186 13       		.uleb128 0x13
 2777 0187 00       		.byte	0
 2778 0188 00       		.byte	0
 2779 0189 1B       		.uleb128 0x1b
 2780 018a 2E       		.uleb128 0x2e
 2781 018b 00       		.byte	0
 2782 018c 3F       		.uleb128 0x3f
 2783 018d 19       		.uleb128 0x19
 2784 018e 03       		.uleb128 0x3
 2785 018f 08       		.uleb128 0x8
 2786 0190 3A       		.uleb128 0x3a
 2787 0191 0B       		.uleb128 0xb
 2788 0192 3B       		.uleb128 0x3b
 2789 0193 05       		.uleb128 0x5
 2790 0194 27       		.uleb128 0x27
 2791 0195 19       		.uleb128 0x19
 2792 0196 49       		.uleb128 0x49
 2793 0197 13       		.uleb128 0x13
 2794 0198 11       		.uleb128 0x11
 2795 0199 01       		.uleb128 0x1
 2796 019a 12       		.uleb128 0x12
 2797 019b 06       		.uleb128 0x6
 2798 019c 40       		.uleb128 0x40
 2799 019d 18       		.uleb128 0x18
GAS LISTING C:\Users\PRESID~1\AppData\Local\Temp\ccPltnJh.s 			page 68


 2800 019e 9742     		.uleb128 0x2117
 2801 01a0 19       		.uleb128 0x19
 2802 01a1 00       		.byte	0
 2803 01a2 00       		.byte	0
 2804 01a3 1C       		.uleb128 0x1c
 2805 01a4 2E       		.uleb128 0x2e
 2806 01a5 01       		.byte	0x1
 2807 01a6 3F       		.uleb128 0x3f
 2808 01a7 19       		.uleb128 0x19
 2809 01a8 03       		.uleb128 0x3
 2810 01a9 08       		.uleb128 0x8
 2811 01aa 3A       		.uleb128 0x3a
 2812 01ab 0B       		.uleb128 0xb
 2813 01ac 3B       		.uleb128 0x3b
 2814 01ad 05       		.uleb128 0x5
 2815 01ae 27       		.uleb128 0x27
 2816 01af 19       		.uleb128 0x19
 2817 01b0 11       		.uleb128 0x11
 2818 01b1 01       		.uleb128 0x1
 2819 01b2 12       		.uleb128 0x12
 2820 01b3 06       		.uleb128 0x6
 2821 01b4 40       		.uleb128 0x40
 2822 01b5 18       		.uleb128 0x18
 2823 01b6 9642     		.uleb128 0x2116
 2824 01b8 19       		.uleb128 0x19
 2825 01b9 01       		.uleb128 0x1
 2826 01ba 13       		.uleb128 0x13
 2827 01bb 00       		.byte	0
 2828 01bc 00       		.byte	0
 2829 01bd 1D       		.uleb128 0x1d
 2830 01be 05       		.uleb128 0x5
 2831 01bf 00       		.byte	0
 2832 01c0 03       		.uleb128 0x3
 2833 01c1 0E       		.uleb128 0xe
 2834 01c2 3A       		.uleb128 0x3a
 2835 01c3 0B       		.uleb128 0xb
 2836 01c4 3B       		.uleb128 0x3b
 2837 01c5 05       		.uleb128 0x5
 2838 01c6 49       		.uleb128 0x49
 2839 01c7 13       		.uleb128 0x13
 2840 01c8 02       		.uleb128 0x2
 2841 01c9 18       		.uleb128 0x18
 2842 01ca 00       		.byte	0
 2843 01cb 00       		.byte	0
 2844 01cc 1E       		.uleb128 0x1e
 2845 01cd 05       		.uleb128 0x5
 2846 01ce 00       		.byte	0
 2847 01cf 03       		.uleb128 0x3
 2848 01d0 08       		.uleb128 0x8
 2849 01d1 3A       		.uleb128 0x3a
 2850 01d2 0B       		.uleb128 0xb
 2851 01d3 3B       		.uleb128 0x3b
 2852 01d4 05       		.uleb128 0x5
 2853 01d5 49       		.uleb128 0x49
 2854 01d6 13       		.uleb128 0x13
 2855 01d7 02       		.uleb128 0x2
 2856 01d8 18       		.uleb128 0x18
GAS LISTING C:\Users\PRESID~1\AppData\Local\Temp\ccPltnJh.s 			page 69


 2857 01d9 00       		.byte	0
 2858 01da 00       		.byte	0
 2859 01db 1F       		.uleb128 0x1f
 2860 01dc 34       		.uleb128 0x34
 2861 01dd 00       		.byte	0
 2862 01de 03       		.uleb128 0x3
 2863 01df 08       		.uleb128 0x8
 2864 01e0 3A       		.uleb128 0x3a
 2865 01e1 0B       		.uleb128 0xb
 2866 01e2 3B       		.uleb128 0x3b
 2867 01e3 0B       		.uleb128 0xb
 2868 01e4 49       		.uleb128 0x49
 2869 01e5 13       		.uleb128 0x13
 2870 01e6 3F       		.uleb128 0x3f
 2871 01e7 19       		.uleb128 0x19
 2872 01e8 3C       		.uleb128 0x3c
 2873 01e9 19       		.uleb128 0x19
 2874 01ea 00       		.byte	0
 2875 01eb 00       		.byte	0
 2876 01ec 00       		.byte	0
 2877              		.section	.debug_aranges,"dr"
 2878 0000 1C000000 		.long	0x1c
 2879 0004 0200     		.word	0x2
 2880 0006 00000000 		.secrel32	Ldebug_info0
 2881 000a 04       		.byte	0x4
 2882 000b 00       		.byte	0
 2883 000c 0000     		.word	0
 2884 000e 0000     		.word	0
 2885 0010 00000000 		.long	Ltext0
 2886 0014 B60D0000 		.long	Letext0-Ltext0
 2887 0018 00000000 		.long	0
 2888 001c 00000000 		.long	0
 2889              		.section	.debug_macro,"dr"
 2890              	Ldebug_macro0:
 2891 0000 0400     		.word	0x4
 2892 0002 02       		.byte	0x2
 2893 0003 00000000 		.secrel32	Ldebug_line0
 2894 0007 01       		.byte	0x1
 2895 0008 00       		.uleb128 0
 2896 0009 5F5F5354 		.ascii "__STDC__ 1\0"
 2896      44435F5F 
 2896      203100
 2897 0014 01       		.byte	0x1
 2898 0015 00       		.uleb128 0
 2899 0016 5F5F5354 		.ascii "__STDC_HOSTED__ 1\0"
 2899      44435F48 
 2899      4F535445 
 2899      445F5F20 
 2899      3100
 2900 0028 01       		.byte	0x1
 2901 0029 00       		.uleb128 0
 2902 002a 5F5F474E 		.ascii "__GNUC__ 4\0"
 2902      55435F5F 
 2902      203400
 2903 0035 01       		.byte	0x1
 2904 0036 00       		.uleb128 0
 2905 0037 5F5F474E 		.ascii "__GNUC_MINOR__ 9\0"
GAS LISTING C:\Users\PRESID~1\AppData\Local\Temp\ccPltnJh.s 			page 70


 2905      55435F4D 
 2905      494E4F52 
 2905      5F5F2039 
 2905      00
 2906 0048 01       		.byte	0x1
 2907 0049 00       		.uleb128 0
 2908 004a 5F5F474E 		.ascii "__GNUC_PATCHLEVEL__ 3\0"
 2908      55435F50 
 2908      41544348 
 2908      4C455645 
 2908      4C5F5F20 
 2909 0060 01       		.byte	0x1
 2910 0061 00       		.uleb128 0
 2911 0062 5F5F5645 		.ascii "__VERSION__ \"4.9.3\"\0"
 2911      5253494F 
 2911      4E5F5F20 
 2911      22342E39 
 2911      2E332200 
 2912 0076 01       		.byte	0x1
 2913 0077 00       		.uleb128 0
 2914 0078 5F5F4154 		.ascii "__ATOMIC_RELAXED 0\0"
 2914      4F4D4943 
 2914      5F52454C 
 2914      41584544 
 2914      203000
 2915 008b 01       		.byte	0x1
 2916 008c 00       		.uleb128 0
 2917 008d 5F5F4154 		.ascii "__ATOMIC_SEQ_CST 5\0"
 2917      4F4D4943 
 2917      5F534551 
 2917      5F435354 
 2917      203500
 2918 00a0 01       		.byte	0x1
 2919 00a1 00       		.uleb128 0
 2920 00a2 5F5F4154 		.ascii "__ATOMIC_ACQUIRE 2\0"
 2920      4F4D4943 
 2920      5F414351 
 2920      55495245 
 2920      203200
 2921 00b5 01       		.byte	0x1
 2922 00b6 00       		.uleb128 0
 2923 00b7 5F5F4154 		.ascii "__ATOMIC_RELEASE 3\0"
 2923      4F4D4943 
 2923      5F52454C 
 2923      45415345 
 2923      203300
 2924 00ca 01       		.byte	0x1
 2925 00cb 00       		.uleb128 0
 2926 00cc 5F5F4154 		.ascii "__ATOMIC_ACQ_REL 4\0"
 2926      4F4D4943 
 2926      5F414351 
 2926      5F52454C 
 2926      203400
 2927 00df 01       		.byte	0x1
 2928 00e0 00       		.uleb128 0
 2929 00e1 5F5F4154 		.ascii "__ATOMIC_CONSUME 1\0"
 2929      4F4D4943 
GAS LISTING C:\Users\PRESID~1\AppData\Local\Temp\ccPltnJh.s 			page 71


 2929      5F434F4E 
 2929      53554D45 
 2929      203100
 2930 00f4 01       		.byte	0x1
 2931 00f5 00       		.uleb128 0
 2932 00f6 5F5F4649 		.ascii "__FINITE_MATH_ONLY__ 0\0"
 2932      4E495445 
 2932      5F4D4154 
 2932      485F4F4E 
 2932      4C595F5F 
 2933 010d 01       		.byte	0x1
 2934 010e 00       		.uleb128 0
 2935 010f 5F5F5349 		.ascii "__SIZEOF_INT__ 4\0"
 2935      5A454F46 
 2935      5F494E54 
 2935      5F5F2034 
 2935      00
 2936 0120 01       		.byte	0x1
 2937 0121 00       		.uleb128 0
 2938 0122 5F5F5349 		.ascii "__SIZEOF_LONG__ 4\0"
 2938      5A454F46 
 2938      5F4C4F4E 
 2938      475F5F20 
 2938      3400
 2939 0134 01       		.byte	0x1
 2940 0135 00       		.uleb128 0
 2941 0136 5F5F5349 		.ascii "__SIZEOF_LONG_LONG__ 8\0"
 2941      5A454F46 
 2941      5F4C4F4E 
 2941      475F4C4F 
 2941      4E475F5F 
 2942 014d 01       		.byte	0x1
 2943 014e 00       		.uleb128 0
 2944 014f 5F5F5349 		.ascii "__SIZEOF_SHORT__ 2\0"
 2944      5A454F46 
 2944      5F53484F 
 2944      52545F5F 
 2944      203200
 2945 0162 01       		.byte	0x1
 2946 0163 00       		.uleb128 0
 2947 0164 5F5F5349 		.ascii "__SIZEOF_FLOAT__ 4\0"
 2947      5A454F46 
 2947      5F464C4F 
 2947      41545F5F 
 2947      203400
 2948 0177 01       		.byte	0x1
 2949 0178 00       		.uleb128 0
 2950 0179 5F5F5349 		.ascii "__SIZEOF_DOUBLE__ 8\0"
 2950      5A454F46 
 2950      5F444F55 
 2950      424C455F 
 2950      5F203800 
 2951 018d 01       		.byte	0x1
 2952 018e 00       		.uleb128 0
 2953 018f 5F5F5349 		.ascii "__SIZEOF_LONG_DOUBLE__ 12\0"
 2953      5A454F46 
 2953      5F4C4F4E 
GAS LISTING C:\Users\PRESID~1\AppData\Local\Temp\ccPltnJh.s 			page 72


 2953      475F444F 
 2953      55424C45 
 2954 01a9 01       		.byte	0x1
 2955 01aa 00       		.uleb128 0
 2956 01ab 5F5F5349 		.ascii "__SIZEOF_SIZE_T__ 4\0"
 2956      5A454F46 
 2956      5F53495A 
 2956      455F545F 
 2956      5F203400 
 2957 01bf 01       		.byte	0x1
 2958 01c0 00       		.uleb128 0
 2959 01c1 5F5F4348 		.ascii "__CHAR_BIT__ 8\0"
 2959      41525F42 
 2959      49545F5F 
 2959      203800
 2960 01d0 01       		.byte	0x1
 2961 01d1 00       		.uleb128 0
 2962 01d2 5F5F4249 		.ascii "__BIGGEST_ALIGNMENT__ 16\0"
 2962      47474553 
 2962      545F414C 
 2962      49474E4D 
 2962      454E545F 
 2963 01eb 01       		.byte	0x1
 2964 01ec 00       		.uleb128 0
 2965 01ed 5F5F4F52 		.ascii "__ORDER_LITTLE_ENDIAN__ 1234\0"
 2965      4445525F 
 2965      4C495454 
 2965      4C455F45 
 2965      4E444941 
 2966 020a 01       		.byte	0x1
 2967 020b 00       		.uleb128 0
 2968 020c 5F5F4F52 		.ascii "__ORDER_BIG_ENDIAN__ 4321\0"
 2968      4445525F 
 2968      4249475F 
 2968      454E4449 
 2968      414E5F5F 
 2969 0226 01       		.byte	0x1
 2970 0227 00       		.uleb128 0
 2971 0228 5F5F4F52 		.ascii "__ORDER_PDP_ENDIAN__ 3412\0"
 2971      4445525F 
 2971      5044505F 
 2971      454E4449 
 2971      414E5F5F 
 2972 0242 01       		.byte	0x1
 2973 0243 00       		.uleb128 0
 2974 0244 5F5F4259 		.ascii "__BYTE_ORDER__ __ORDER_LITTLE_ENDIAN__\0"
 2974      54455F4F 
 2974      52444552 
 2974      5F5F205F 
 2974      5F4F5244 
 2975 026b 01       		.byte	0x1
 2976 026c 00       		.uleb128 0
 2977 026d 5F5F464C 		.ascii "__FLOAT_WORD_ORDER__ __ORDER_LITTLE_ENDIAN__\0"
 2977      4F41545F 
 2977      574F5244 
 2977      5F4F5244 
 2977      45525F5F 
GAS LISTING C:\Users\PRESID~1\AppData\Local\Temp\ccPltnJh.s 			page 73


 2978 029a 01       		.byte	0x1
 2979 029b 00       		.uleb128 0
 2980 029c 5F5F5349 		.ascii "__SIZEOF_POINTER__ 4\0"
 2980      5A454F46 
 2980      5F504F49 
 2980      4E544552 
 2980      5F5F2034 
 2981 02b1 01       		.byte	0x1
 2982 02b2 00       		.uleb128 0
 2983 02b3 5F5F5349 		.ascii "__SIZE_TYPE__ unsigned int\0"
 2983      5A455F54 
 2983      5950455F 
 2983      5F20756E 
 2983      7369676E 
 2984 02ce 01       		.byte	0x1
 2985 02cf 00       		.uleb128 0
 2986 02d0 5F5F5054 		.ascii "__PTRDIFF_TYPE__ int\0"
 2986      52444946 
 2986      465F5459 
 2986      50455F5F 
 2986      20696E74 
 2987 02e5 01       		.byte	0x1
 2988 02e6 00       		.uleb128 0
 2989 02e7 5F5F5743 		.ascii "__WCHAR_TYPE__ short unsigned int\0"
 2989      4841525F 
 2989      54595045 
 2989      5F5F2073 
 2989      686F7274 
 2990 0309 01       		.byte	0x1
 2991 030a 00       		.uleb128 0
 2992 030b 5F5F5749 		.ascii "__WINT_TYPE__ short unsigned int\0"
 2992      4E545F54 
 2992      5950455F 
 2992      5F207368 
 2992      6F727420 
 2993 032c 01       		.byte	0x1
 2994 032d 00       		.uleb128 0
 2995 032e 5F5F494E 		.ascii "__INTMAX_TYPE__ long long int\0"
 2995      544D4158 
 2995      5F545950 
 2995      455F5F20 
 2995      6C6F6E67 
 2996 034c 01       		.byte	0x1
 2997 034d 00       		.uleb128 0
 2998 034e 5F5F5549 		.ascii "__UINTMAX_TYPE__ long long unsigned int\0"
 2998      4E544D41 
 2998      585F5459 
 2998      50455F5F 
 2998      206C6F6E 
 2999 0376 01       		.byte	0x1
 3000 0377 00       		.uleb128 0
 3001 0378 5F5F4348 		.ascii "__CHAR16_TYPE__ short unsigned int\0"
 3001      41523136 
 3001      5F545950 
 3001      455F5F20 
 3001      73686F72 
 3002 039b 01       		.byte	0x1
GAS LISTING C:\Users\PRESID~1\AppData\Local\Temp\ccPltnJh.s 			page 74


 3003 039c 00       		.uleb128 0
 3004 039d 5F5F4348 		.ascii "__CHAR32_TYPE__ unsigned int\0"
 3004      41523332 
 3004      5F545950 
 3004      455F5F20 
 3004      756E7369 
 3005 03ba 01       		.byte	0x1
 3006 03bb 00       		.uleb128 0
 3007 03bc 5F5F5349 		.ascii "__SIG_ATOMIC_TYPE__ int\0"
 3007      475F4154 
 3007      4F4D4943 
 3007      5F545950 
 3007      455F5F20 
 3008 03d4 01       		.byte	0x1
 3009 03d5 00       		.uleb128 0
 3010 03d6 5F5F494E 		.ascii "__INT8_TYPE__ signed char\0"
 3010      54385F54 
 3010      5950455F 
 3010      5F207369 
 3010      676E6564 
 3011 03f0 01       		.byte	0x1
 3012 03f1 00       		.uleb128 0
 3013 03f2 5F5F494E 		.ascii "__INT16_TYPE__ short int\0"
 3013      5431365F 
 3013      54595045 
 3013      5F5F2073 
 3013      686F7274 
 3014 040b 01       		.byte	0x1
 3015 040c 00       		.uleb128 0
 3016 040d 5F5F494E 		.ascii "__INT32_TYPE__ int\0"
 3016      5433325F 
 3016      54595045 
 3016      5F5F2069 
 3016      6E7400
 3017 0420 01       		.byte	0x1
 3018 0421 00       		.uleb128 0
 3019 0422 5F5F494E 		.ascii "__INT64_TYPE__ long long int\0"
 3019      5436345F 
 3019      54595045 
 3019      5F5F206C 
 3019      6F6E6720 
 3020 043f 01       		.byte	0x1
 3021 0440 00       		.uleb128 0
 3022 0441 5F5F5549 		.ascii "__UINT8_TYPE__ unsigned char\0"
 3022      4E54385F 
 3022      54595045 
 3022      5F5F2075 
 3022      6E736967 
 3023 045e 01       		.byte	0x1
 3024 045f 00       		.uleb128 0
 3025 0460 5F5F5549 		.ascii "__UINT16_TYPE__ short unsigned int\0"
 3025      4E543136 
 3025      5F545950 
 3025      455F5F20 
 3025      73686F72 
 3026 0483 01       		.byte	0x1
 3027 0484 00       		.uleb128 0
GAS LISTING C:\Users\PRESID~1\AppData\Local\Temp\ccPltnJh.s 			page 75


 3028 0485 5F5F5549 		.ascii "__UINT32_TYPE__ unsigned int\0"
 3028      4E543332 
 3028      5F545950 
 3028      455F5F20 
 3028      756E7369 
 3029 04a2 01       		.byte	0x1
 3030 04a3 00       		.uleb128 0
 3031 04a4 5F5F5549 		.ascii "__UINT64_TYPE__ long long unsigned int\0"
 3031      4E543634 
 3031      5F545950 
 3031      455F5F20 
 3031      6C6F6E67 
 3032 04cb 01       		.byte	0x1
 3033 04cc 00       		.uleb128 0
 3034 04cd 5F5F494E 		.ascii "__INT_LEAST8_TYPE__ signed char\0"
 3034      545F4C45 
 3034      41535438 
 3034      5F545950 
 3034      455F5F20 
 3035 04ed 01       		.byte	0x1
 3036 04ee 00       		.uleb128 0
 3037 04ef 5F5F494E 		.ascii "__INT_LEAST16_TYPE__ short int\0"
 3037      545F4C45 
 3037      41535431 
 3037      365F5459 
 3037      50455F5F 
 3038 050e 01       		.byte	0x1
 3039 050f 00       		.uleb128 0
 3040 0510 5F5F494E 		.ascii "__INT_LEAST32_TYPE__ int\0"
 3040      545F4C45 
 3040      41535433 
 3040      325F5459 
 3040      50455F5F 
 3041 0529 01       		.byte	0x1
 3042 052a 00       		.uleb128 0
 3043 052b 5F5F494E 		.ascii "__INT_LEAST64_TYPE__ long long int\0"
 3043      545F4C45 
 3043      41535436 
 3043      345F5459 
 3043      50455F5F 
 3044 054e 01       		.byte	0x1
 3045 054f 00       		.uleb128 0
 3046 0550 5F5F5549 		.ascii "__UINT_LEAST8_TYPE__ unsigned char\0"
 3046      4E545F4C 
 3046      45415354 
 3046      385F5459 
 3046      50455F5F 
 3047 0573 01       		.byte	0x1
 3048 0574 00       		.uleb128 0
 3049 0575 5F5F5549 		.ascii "__UINT_LEAST16_TYPE__ short unsigned int\0"
 3049      4E545F4C 
 3049      45415354 
 3049      31365F54 
 3049      5950455F 
 3050 059e 01       		.byte	0x1
 3051 059f 00       		.uleb128 0
 3052 05a0 5F5F5549 		.ascii "__UINT_LEAST32_TYPE__ unsigned int\0"
GAS LISTING C:\Users\PRESID~1\AppData\Local\Temp\ccPltnJh.s 			page 76


 3052      4E545F4C 
 3052      45415354 
 3052      33325F54 
 3052      5950455F 
 3053 05c3 01       		.byte	0x1
 3054 05c4 00       		.uleb128 0
 3055 05c5 5F5F5549 		.ascii "__UINT_LEAST64_TYPE__ long long unsigned int\0"
 3055      4E545F4C 
 3055      45415354 
 3055      36345F54 
 3055      5950455F 
 3056 05f2 01       		.byte	0x1
 3057 05f3 00       		.uleb128 0
 3058 05f4 5F5F494E 		.ascii "__INT_FAST8_TYPE__ signed char\0"
 3058      545F4641 
 3058      5354385F 
 3058      54595045 
 3058      5F5F2073 
 3059 0613 01       		.byte	0x1
 3060 0614 00       		.uleb128 0
 3061 0615 5F5F494E 		.ascii "__INT_FAST16_TYPE__ short int\0"
 3061      545F4641 
 3061      53543136 
 3061      5F545950 
 3061      455F5F20 
 3062 0633 01       		.byte	0x1
 3063 0634 00       		.uleb128 0
 3064 0635 5F5F494E 		.ascii "__INT_FAST32_TYPE__ int\0"
 3064      545F4641 
 3064      53543332 
 3064      5F545950 
 3064      455F5F20 
 3065 064d 01       		.byte	0x1
 3066 064e 00       		.uleb128 0
 3067 064f 5F5F494E 		.ascii "__INT_FAST64_TYPE__ long long int\0"
 3067      545F4641 
 3067      53543634 
 3067      5F545950 
 3067      455F5F20 
 3068 0671 01       		.byte	0x1
 3069 0672 00       		.uleb128 0
 3070 0673 5F5F5549 		.ascii "__UINT_FAST8_TYPE__ unsigned char\0"
 3070      4E545F46 
 3070      41535438 
 3070      5F545950 
 3070      455F5F20 
 3071 0695 01       		.byte	0x1
 3072 0696 00       		.uleb128 0
 3073 0697 5F5F5549 		.ascii "__UINT_FAST16_TYPE__ short unsigned int\0"
 3073      4E545F46 
 3073      41535431 
 3073      365F5459 
 3073      50455F5F 
 3074 06bf 01       		.byte	0x1
 3075 06c0 00       		.uleb128 0
 3076 06c1 5F5F5549 		.ascii "__UINT_FAST32_TYPE__ unsigned int\0"
 3076      4E545F46 
GAS LISTING C:\Users\PRESID~1\AppData\Local\Temp\ccPltnJh.s 			page 77


 3076      41535433 
 3076      325F5459 
 3076      50455F5F 
 3077 06e3 01       		.byte	0x1
 3078 06e4 00       		.uleb128 0
 3079 06e5 5F5F5549 		.ascii "__UINT_FAST64_TYPE__ long long unsigned int\0"
 3079      4E545F46 
 3079      41535436 
 3079      345F5459 
 3079      50455F5F 
 3080 0711 01       		.byte	0x1
 3081 0712 00       		.uleb128 0
 3082 0713 5F5F494E 		.ascii "__INTPTR_TYPE__ int\0"
 3082      54505452 
 3082      5F545950 
 3082      455F5F20 
 3082      696E7400 
 3083 0727 01       		.byte	0x1
 3084 0728 00       		.uleb128 0
 3085 0729 5F5F5549 		.ascii "__UINTPTR_TYPE__ unsigned int\0"
 3085      4E545054 
 3085      525F5459 
 3085      50455F5F 
 3085      20756E73 
 3086 0747 01       		.byte	0x1
 3087 0748 00       		.uleb128 0
 3088 0749 5F5F6861 		.ascii "__has_include(STR) __has_include__(STR)\0"
 3088      735F696E 
 3088      636C7564 
 3088      65285354 
 3088      5229205F 
 3089 0771 01       		.byte	0x1
 3090 0772 00       		.uleb128 0
 3091 0773 5F5F6861 		.ascii "__has_include_next(STR) __has_include_next__(STR)\0"
 3091      735F696E 
 3091      636C7564 
 3091      655F6E65 
 3091      78742853 
 3092 07a5 01       		.byte	0x1
 3093 07a6 00       		.uleb128 0
 3094 07a7 5F5F4758 		.ascii "__GXX_ABI_VERSION 1002\0"
 3094      585F4142 
 3094      495F5645 
 3094      5253494F 
 3094      4E203130 
 3095 07be 01       		.byte	0x1
 3096 07bf 00       		.uleb128 0
 3097 07c0 5F5F5343 		.ascii "__SCHAR_MAX__ 127\0"
 3097      4841525F 
 3097      4D41585F 
 3097      5F203132 
 3097      3700
 3098 07d2 01       		.byte	0x1
 3099 07d3 00       		.uleb128 0
 3100 07d4 5F5F5348 		.ascii "__SHRT_MAX__ 32767\0"
 3100      52545F4D 
 3100      41585F5F 
GAS LISTING C:\Users\PRESID~1\AppData\Local\Temp\ccPltnJh.s 			page 78


 3100      20333237 
 3100      363700
 3101 07e7 01       		.byte	0x1
 3102 07e8 00       		.uleb128 0
 3103 07e9 5F5F494E 		.ascii "__INT_MAX__ 2147483647\0"
 3103      545F4D41 
 3103      585F5F20 
 3103      32313437 
 3103      34383336 
 3104 0800 01       		.byte	0x1
 3105 0801 00       		.uleb128 0
 3106 0802 5F5F4C4F 		.ascii "__LONG_MAX__ 2147483647L\0"
 3106      4E475F4D 
 3106      41585F5F 
 3106      20323134 
 3106      37343833 
 3107 081b 01       		.byte	0x1
 3108 081c 00       		.uleb128 0
 3109 081d 5F5F4C4F 		.ascii "__LONG_LONG_MAX__ 9223372036854775807LL\0"
 3109      4E475F4C 
 3109      4F4E475F 
 3109      4D41585F 
 3109      5F203932 
 3110 0845 01       		.byte	0x1
 3111 0846 00       		.uleb128 0
 3112 0847 5F5F5743 		.ascii "__WCHAR_MAX__ 65535\0"
 3112      4841525F 
 3112      4D41585F 
 3112      5F203635 
 3112      35333500 
 3113 085b 01       		.byte	0x1
 3114 085c 00       		.uleb128 0
 3115 085d 5F5F5743 		.ascii "__WCHAR_MIN__ 0\0"
 3115      4841525F 
 3115      4D494E5F 
 3115      5F203000 
 3116 086d 01       		.byte	0x1
 3117 086e 00       		.uleb128 0
 3118 086f 5F5F5749 		.ascii "__WINT_MAX__ 65535\0"
 3118      4E545F4D 
 3118      41585F5F 
 3118      20363535 
 3118      333500
 3119 0882 01       		.byte	0x1
 3120 0883 00       		.uleb128 0
 3121 0884 5F5F5749 		.ascii "__WINT_MIN__ 0\0"
 3121      4E545F4D 
 3121      494E5F5F 
 3121      203000
 3122 0893 01       		.byte	0x1
 3123 0894 00       		.uleb128 0
 3124 0895 5F5F5054 		.ascii "__PTRDIFF_MAX__ 2147483647\0"
 3124      52444946 
 3124      465F4D41 
 3124      585F5F20 
 3124      32313437 
 3125 08b0 01       		.byte	0x1
GAS LISTING C:\Users\PRESID~1\AppData\Local\Temp\ccPltnJh.s 			page 79


 3126 08b1 00       		.uleb128 0
 3127 08b2 5F5F5349 		.ascii "__SIZE_MAX__ 4294967295U\0"
 3127      5A455F4D 
 3127      41585F5F 
 3127      20343239 
 3127      34393637 
 3128 08cb 01       		.byte	0x1
 3129 08cc 00       		.uleb128 0
 3130 08cd 5F5F494E 		.ascii "__INTMAX_MAX__ 9223372036854775807LL\0"
 3130      544D4158 
 3130      5F4D4158 
 3130      5F5F2039 
 3130      32323333 
 3131 08f2 01       		.byte	0x1
 3132 08f3 00       		.uleb128 0
 3133 08f4 5F5F494E 		.ascii "__INTMAX_C(c) c ## LL\0"
 3133      544D4158 
 3133      5F432863 
 3133      29206320 
 3133      2323204C 
 3134 090a 01       		.byte	0x1
 3135 090b 00       		.uleb128 0
 3136 090c 5F5F5549 		.ascii "__UINTMAX_MAX__ 18446744073709551615ULL\0"
 3136      4E544D41 
 3136      585F4D41 
 3136      585F5F20 
 3136      31383434 
 3137 0934 01       		.byte	0x1
 3138 0935 00       		.uleb128 0
 3139 0936 5F5F5549 		.ascii "__UINTMAX_C(c) c ## ULL\0"
 3139      4E544D41 
 3139      585F4328 
 3139      63292063 
 3139      20232320 
 3140 094e 01       		.byte	0x1
 3141 094f 00       		.uleb128 0
 3142 0950 5F5F5349 		.ascii "__SIG_ATOMIC_MAX__ 2147483647\0"
 3142      475F4154 
 3142      4F4D4943 
 3142      5F4D4158 
 3142      5F5F2032 
 3143 096e 01       		.byte	0x1
 3144 096f 00       		.uleb128 0
 3145 0970 5F5F5349 		.ascii "__SIG_ATOMIC_MIN__ (-__SIG_ATOMIC_MAX__ - 1)\0"
 3145      475F4154 
 3145      4F4D4943 
 3145      5F4D494E 
 3145      5F5F2028 
 3146 099d 01       		.byte	0x1
 3147 099e 00       		.uleb128 0
 3148 099f 5F5F494E 		.ascii "__INT8_MAX__ 127\0"
 3148      54385F4D 
 3148      41585F5F 
 3148      20313237 
 3148      00
 3149 09b0 01       		.byte	0x1
 3150 09b1 00       		.uleb128 0
GAS LISTING C:\Users\PRESID~1\AppData\Local\Temp\ccPltnJh.s 			page 80


 3151 09b2 5F5F494E 		.ascii "__INT16_MAX__ 32767\0"
 3151      5431365F 
 3151      4D41585F 
 3151      5F203332 
 3151      37363700 
 3152 09c6 01       		.byte	0x1
 3153 09c7 00       		.uleb128 0
 3154 09c8 5F5F494E 		.ascii "__INT32_MAX__ 2147483647\0"
 3154      5433325F 
 3154      4D41585F 
 3154      5F203231 
 3154      34373438 
 3155 09e1 01       		.byte	0x1
 3156 09e2 00       		.uleb128 0
 3157 09e3 5F5F494E 		.ascii "__INT64_MAX__ 9223372036854775807LL\0"
 3157      5436345F 
 3157      4D41585F 
 3157      5F203932 
 3157      32333337 
 3158 0a07 01       		.byte	0x1
 3159 0a08 00       		.uleb128 0
 3160 0a09 5F5F5549 		.ascii "__UINT8_MAX__ 255\0"
 3160      4E54385F 
 3160      4D41585F 
 3160      5F203235 
 3160      3500
 3161 0a1b 01       		.byte	0x1
 3162 0a1c 00       		.uleb128 0
 3163 0a1d 5F5F5549 		.ascii "__UINT16_MAX__ 65535\0"
 3163      4E543136 
 3163      5F4D4158 
 3163      5F5F2036 
 3163      35353335 
 3164 0a32 01       		.byte	0x1
 3165 0a33 00       		.uleb128 0
 3166 0a34 5F5F5549 		.ascii "__UINT32_MAX__ 4294967295U\0"
 3166      4E543332 
 3166      5F4D4158 
 3166      5F5F2034 
 3166      32393439 
 3167 0a4f 01       		.byte	0x1
 3168 0a50 00       		.uleb128 0
 3169 0a51 5F5F5549 		.ascii "__UINT64_MAX__ 18446744073709551615ULL\0"
 3169      4E543634 
 3169      5F4D4158 
 3169      5F5F2031 
 3169      38343436 
 3170 0a78 01       		.byte	0x1
 3171 0a79 00       		.uleb128 0
 3172 0a7a 5F5F494E 		.ascii "__INT_LEAST8_MAX__ 127\0"
 3172      545F4C45 
 3172      41535438 
 3172      5F4D4158 
 3172      5F5F2031 
 3173 0a91 01       		.byte	0x1
 3174 0a92 00       		.uleb128 0
 3175 0a93 5F5F494E 		.ascii "__INT8_C(c) c\0"
GAS LISTING C:\Users\PRESID~1\AppData\Local\Temp\ccPltnJh.s 			page 81


 3175      54385F43 
 3175      28632920 
 3175      6300
 3176 0aa1 01       		.byte	0x1
 3177 0aa2 00       		.uleb128 0
 3178 0aa3 5F5F494E 		.ascii "__INT_LEAST16_MAX__ 32767\0"
 3178      545F4C45 
 3178      41535431 
 3178      365F4D41 
 3178      585F5F20 
 3179 0abd 01       		.byte	0x1
 3180 0abe 00       		.uleb128 0
 3181 0abf 5F5F494E 		.ascii "__INT16_C(c) c\0"
 3181      5431365F 
 3181      43286329 
 3181      206300
 3182 0ace 01       		.byte	0x1
 3183 0acf 00       		.uleb128 0
 3184 0ad0 5F5F494E 		.ascii "__INT_LEAST32_MAX__ 2147483647\0"
 3184      545F4C45 
 3184      41535433 
 3184      325F4D41 
 3184      585F5F20 
 3185 0aef 01       		.byte	0x1
 3186 0af0 00       		.uleb128 0
 3187 0af1 5F5F494E 		.ascii "__INT32_C(c) c\0"
 3187      5433325F 
 3187      43286329 
 3187      206300
 3188 0b00 01       		.byte	0x1
 3189 0b01 00       		.uleb128 0
 3190 0b02 5F5F494E 		.ascii "__INT_LEAST64_MAX__ 9223372036854775807LL\0"
 3190      545F4C45 
 3190      41535436 
 3190      345F4D41 
 3190      585F5F20 
 3191 0b2c 01       		.byte	0x1
 3192 0b2d 00       		.uleb128 0
 3193 0b2e 5F5F494E 		.ascii "__INT64_C(c) c ## LL\0"
 3193      5436345F 
 3193      43286329 
 3193      20632023 
 3193      23204C4C 
 3194 0b43 01       		.byte	0x1
 3195 0b44 00       		.uleb128 0
 3196 0b45 5F5F5549 		.ascii "__UINT_LEAST8_MAX__ 255\0"
 3196      4E545F4C 
 3196      45415354 
 3196      385F4D41 
 3196      585F5F20 
 3197 0b5d 01       		.byte	0x1
 3198 0b5e 00       		.uleb128 0
 3199 0b5f 5F5F5549 		.ascii "__UINT8_C(c) c\0"
 3199      4E54385F 
 3199      43286329 
 3199      206300
 3200 0b6e 01       		.byte	0x1
GAS LISTING C:\Users\PRESID~1\AppData\Local\Temp\ccPltnJh.s 			page 82


 3201 0b6f 00       		.uleb128 0
 3202 0b70 5F5F5549 		.ascii "__UINT_LEAST16_MAX__ 65535\0"
 3202      4E545F4C 
 3202      45415354 
 3202      31365F4D 
 3202      41585F5F 
 3203 0b8b 01       		.byte	0x1
 3204 0b8c 00       		.uleb128 0
 3205 0b8d 5F5F5549 		.ascii "__UINT16_C(c) c\0"
 3205      4E543136 
 3205      5F432863 
 3205      29206300 
 3206 0b9d 01       		.byte	0x1
 3207 0b9e 00       		.uleb128 0
 3208 0b9f 5F5F5549 		.ascii "__UINT_LEAST32_MAX__ 4294967295U\0"
 3208      4E545F4C 
 3208      45415354 
 3208      33325F4D 
 3208      41585F5F 
 3209 0bc0 01       		.byte	0x1
 3210 0bc1 00       		.uleb128 0
 3211 0bc2 5F5F5549 		.ascii "__UINT32_C(c) c ## U\0"
 3211      4E543332 
 3211      5F432863 
 3211      29206320 
 3211      23232055 
 3212 0bd7 01       		.byte	0x1
 3213 0bd8 00       		.uleb128 0
 3214 0bd9 5F5F5549 		.ascii "__UINT_LEAST64_MAX__ 18446744073709551615ULL\0"
 3214      4E545F4C 
 3214      45415354 
 3214      36345F4D 
 3214      41585F5F 
 3215 0c06 01       		.byte	0x1
 3216 0c07 00       		.uleb128 0
 3217 0c08 5F5F5549 		.ascii "__UINT64_C(c) c ## ULL\0"
 3217      4E543634 
 3217      5F432863 
 3217      29206320 
 3217      23232055 
 3218 0c1f 01       		.byte	0x1
 3219 0c20 00       		.uleb128 0
 3220 0c21 5F5F494E 		.ascii "__INT_FAST8_MAX__ 127\0"
 3220      545F4641 
 3220      5354385F 
 3220      4D41585F 
 3220      5F203132 
 3221 0c37 01       		.byte	0x1
 3222 0c38 00       		.uleb128 0
 3223 0c39 5F5F494E 		.ascii "__INT_FAST16_MAX__ 32767\0"
 3223      545F4641 
 3223      53543136 
 3223      5F4D4158 
 3223      5F5F2033 
 3224 0c52 01       		.byte	0x1
 3225 0c53 00       		.uleb128 0
 3226 0c54 5F5F494E 		.ascii "__INT_FAST32_MAX__ 2147483647\0"
GAS LISTING C:\Users\PRESID~1\AppData\Local\Temp\ccPltnJh.s 			page 83


 3226      545F4641 
 3226      53543332 
 3226      5F4D4158 
 3226      5F5F2032 
 3227 0c72 01       		.byte	0x1
 3228 0c73 00       		.uleb128 0
 3229 0c74 5F5F494E 		.ascii "__INT_FAST64_MAX__ 9223372036854775807LL\0"
 3229      545F4641 
 3229      53543634 
 3229      5F4D4158 
 3229      5F5F2039 
 3230 0c9d 01       		.byte	0x1
 3231 0c9e 00       		.uleb128 0
 3232 0c9f 5F5F5549 		.ascii "__UINT_FAST8_MAX__ 255\0"
 3232      4E545F46 
 3232      41535438 
 3232      5F4D4158 
 3232      5F5F2032 
 3233 0cb6 01       		.byte	0x1
 3234 0cb7 00       		.uleb128 0
 3235 0cb8 5F5F5549 		.ascii "__UINT_FAST16_MAX__ 65535\0"
 3235      4E545F46 
 3235      41535431 
 3235      365F4D41 
 3235      585F5F20 
 3236 0cd2 01       		.byte	0x1
 3237 0cd3 00       		.uleb128 0
 3238 0cd4 5F5F5549 		.ascii "__UINT_FAST32_MAX__ 4294967295U\0"
 3238      4E545F46 
 3238      41535433 
 3238      325F4D41 
 3238      585F5F20 
 3239 0cf4 01       		.byte	0x1
 3240 0cf5 00       		.uleb128 0
 3241 0cf6 5F5F5549 		.ascii "__UINT_FAST64_MAX__ 18446744073709551615ULL\0"
 3241      4E545F46 
 3241      41535436 
 3241      345F4D41 
 3241      585F5F20 
 3242 0d22 01       		.byte	0x1
 3243 0d23 00       		.uleb128 0
 3244 0d24 5F5F494E 		.ascii "__INTPTR_MAX__ 2147483647\0"
 3244      54505452 
 3244      5F4D4158 
 3244      5F5F2032 
 3244      31343734 
 3245 0d3e 01       		.byte	0x1
 3246 0d3f 00       		.uleb128 0
 3247 0d40 5F5F5549 		.ascii "__UINTPTR_MAX__ 4294967295U\0"
 3247      4E545054 
 3247      525F4D41 
 3247      585F5F20 
 3247      34323934 
 3248 0d5c 01       		.byte	0x1
 3249 0d5d 00       		.uleb128 0
 3250 0d5e 5F5F4743 		.ascii "__GCC_IEC_559 2\0"
 3250      435F4945 
GAS LISTING C:\Users\PRESID~1\AppData\Local\Temp\ccPltnJh.s 			page 84


 3250      435F3535 
 3250      39203200 
 3251 0d6e 01       		.byte	0x1
 3252 0d6f 00       		.uleb128 0
 3253 0d70 5F5F4743 		.ascii "__GCC_IEC_559_COMPLEX 2\0"
 3253      435F4945 
 3253      435F3535 
 3253      395F434F 
 3253      4D504C45 
 3254 0d88 01       		.byte	0x1
 3255 0d89 00       		.uleb128 0
 3256 0d8a 5F5F464C 		.ascii "__FLT_EVAL_METHOD__ 2\0"
 3256      545F4556 
 3256      414C5F4D 
 3256      4554484F 
 3256      445F5F20 
 3257 0da0 01       		.byte	0x1
 3258 0da1 00       		.uleb128 0
 3259 0da2 5F5F4445 		.ascii "__DEC_EVAL_METHOD__ 2\0"
 3259      435F4556 
 3259      414C5F4D 
 3259      4554484F 
 3259      445F5F20 
 3260 0db8 01       		.byte	0x1
 3261 0db9 00       		.uleb128 0
 3262 0dba 5F5F464C 		.ascii "__FLT_RADIX__ 2\0"
 3262      545F5241 
 3262      4449585F 
 3262      5F203200 
 3263 0dca 01       		.byte	0x1
 3264 0dcb 00       		.uleb128 0
 3265 0dcc 5F5F464C 		.ascii "__FLT_MANT_DIG__ 24\0"
 3265      545F4D41 
 3265      4E545F44 
 3265      49475F5F 
 3265      20323400 
 3266 0de0 01       		.byte	0x1
 3267 0de1 00       		.uleb128 0
 3268 0de2 5F5F464C 		.ascii "__FLT_DIG__ 6\0"
 3268      545F4449 
 3268      475F5F20 
 3268      3600
 3269 0df0 01       		.byte	0x1
 3270 0df1 00       		.uleb128 0
 3271 0df2 5F5F464C 		.ascii "__FLT_MIN_EXP__ (-125)\0"
 3271      545F4D49 
 3271      4E5F4558 
 3271      505F5F20 
 3271      282D3132 
 3272 0e09 01       		.byte	0x1
 3273 0e0a 00       		.uleb128 0
 3274 0e0b 5F5F464C 		.ascii "__FLT_MIN_10_EXP__ (-37)\0"
 3274      545F4D49 
 3274      4E5F3130 
 3274      5F455850 
 3274      5F5F2028 
 3275 0e24 01       		.byte	0x1
GAS LISTING C:\Users\PRESID~1\AppData\Local\Temp\ccPltnJh.s 			page 85


 3276 0e25 00       		.uleb128 0
 3277 0e26 5F5F464C 		.ascii "__FLT_MAX_EXP__ 128\0"
 3277      545F4D41 
 3277      585F4558 
 3277      505F5F20 
 3277      31323800 
 3278 0e3a 01       		.byte	0x1
 3279 0e3b 00       		.uleb128 0
 3280 0e3c 5F5F464C 		.ascii "__FLT_MAX_10_EXP__ 38\0"
 3280      545F4D41 
 3280      585F3130 
 3280      5F455850 
 3280      5F5F2033 
 3281 0e52 01       		.byte	0x1
 3282 0e53 00       		.uleb128 0
 3283 0e54 5F5F464C 		.ascii "__FLT_DECIMAL_DIG__ 9\0"
 3283      545F4445 
 3283      43494D41 
 3283      4C5F4449 
 3283      475F5F20 
 3284 0e6a 01       		.byte	0x1
 3285 0e6b 00       		.uleb128 0
 3286 0e6c 5F5F464C 		.ascii "__FLT_MAX__ 3.40282346638528859812e+38F\0"
 3286      545F4D41 
 3286      585F5F20 
 3286      332E3430 
 3286      32383233 
 3287 0e94 01       		.byte	0x1
 3288 0e95 00       		.uleb128 0
 3289 0e96 5F5F464C 		.ascii "__FLT_MIN__ 1.17549435082228750797e-38F\0"
 3289      545F4D49 
 3289      4E5F5F20 
 3289      312E3137 
 3289      35343934 
 3290 0ebe 01       		.byte	0x1
 3291 0ebf 00       		.uleb128 0
 3292 0ec0 5F5F464C 		.ascii "__FLT_EPSILON__ 1.19209289550781250000e-7F\0"
 3292      545F4550 
 3292      53494C4F 
 3292      4E5F5F20 
 3292      312E3139 
 3293 0eeb 01       		.byte	0x1
 3294 0eec 00       		.uleb128 0
 3295 0eed 5F5F464C 		.ascii "__FLT_DENORM_MIN__ 1.40129846432481707092e-45F\0"
 3295      545F4445 
 3295      4E4F524D 
 3295      5F4D494E 
 3295      5F5F2031 
 3296 0f1c 01       		.byte	0x1
 3297 0f1d 00       		.uleb128 0
 3298 0f1e 5F5F464C 		.ascii "__FLT_HAS_DENORM__ 1\0"
 3298      545F4841 
 3298      535F4445 
 3298      4E4F524D 
 3298      5F5F2031 
 3299 0f33 01       		.byte	0x1
 3300 0f34 00       		.uleb128 0
GAS LISTING C:\Users\PRESID~1\AppData\Local\Temp\ccPltnJh.s 			page 86


 3301 0f35 5F5F464C 		.ascii "__FLT_HAS_INFINITY__ 1\0"
 3301      545F4841 
 3301      535F494E 
 3301      46494E49 
 3301      54595F5F 
 3302 0f4c 01       		.byte	0x1
 3303 0f4d 00       		.uleb128 0
 3304 0f4e 5F5F464C 		.ascii "__FLT_HAS_QUIET_NAN__ 1\0"
 3304      545F4841 
 3304      535F5155 
 3304      4945545F 
 3304      4E414E5F 
 3305 0f66 01       		.byte	0x1
 3306 0f67 00       		.uleb128 0
 3307 0f68 5F5F4442 		.ascii "__DBL_MANT_DIG__ 53\0"
 3307      4C5F4D41 
 3307      4E545F44 
 3307      49475F5F 
 3307      20353300 
 3308 0f7c 01       		.byte	0x1
 3309 0f7d 00       		.uleb128 0
 3310 0f7e 5F5F4442 		.ascii "__DBL_DIG__ 15\0"
 3310      4C5F4449 
 3310      475F5F20 
 3310      313500
 3311 0f8d 01       		.byte	0x1
 3312 0f8e 00       		.uleb128 0
 3313 0f8f 5F5F4442 		.ascii "__DBL_MIN_EXP__ (-1021)\0"
 3313      4C5F4D49 
 3313      4E5F4558 
 3313      505F5F20 
 3313      282D3130 
 3314 0fa7 01       		.byte	0x1
 3315 0fa8 00       		.uleb128 0
 3316 0fa9 5F5F4442 		.ascii "__DBL_MIN_10_EXP__ (-307)\0"
 3316      4C5F4D49 
 3316      4E5F3130 
 3316      5F455850 
 3316      5F5F2028 
 3317 0fc3 01       		.byte	0x1
 3318 0fc4 00       		.uleb128 0
 3319 0fc5 5F5F4442 		.ascii "__DBL_MAX_EXP__ 1024\0"
 3319      4C5F4D41 
 3319      585F4558 
 3319      505F5F20 
 3319      31303234 
 3320 0fda 01       		.byte	0x1
 3321 0fdb 00       		.uleb128 0
 3322 0fdc 5F5F4442 		.ascii "__DBL_MAX_10_EXP__ 308\0"
 3322      4C5F4D41 
 3322      585F3130 
 3322      5F455850 
 3322      5F5F2033 
 3323 0ff3 01       		.byte	0x1
 3324 0ff4 00       		.uleb128 0
 3325 0ff5 5F5F4442 		.ascii "__DBL_DECIMAL_DIG__ 17\0"
 3325      4C5F4445 
GAS LISTING C:\Users\PRESID~1\AppData\Local\Temp\ccPltnJh.s 			page 87


 3325      43494D41 
 3325      4C5F4449 
 3325      475F5F20 
 3326 100c 01       		.byte	0x1
 3327 100d 00       		.uleb128 0
 3328 100e 5F5F4442 		.ascii "__DBL_MAX__ ((double)1.79769313486231570815e+308L)\0"
 3328      4C5F4D41 
 3328      585F5F20 
 3328      2828646F 
 3328      75626C65 
 3329 1041 01       		.byte	0x1
 3330 1042 00       		.uleb128 0
 3331 1043 5F5F4442 		.ascii "__DBL_MIN__ ((double)2.22507385850720138309e-308L)\0"
 3331      4C5F4D49 
 3331      4E5F5F20 
 3331      2828646F 
 3331      75626C65 
 3332 1076 01       		.byte	0x1
 3333 1077 00       		.uleb128 0
 3334 1078 5F5F4442 		.ascii "__DBL_EPSILON__ ((double)2.22044604925031308085e-16L)\0"
 3334      4C5F4550 
 3334      53494C4F 
 3334      4E5F5F20 
 3334      2828646F 
 3335 10ae 01       		.byte	0x1
 3336 10af 00       		.uleb128 0
 3337 10b0 5F5F4442 		.ascii "__DBL_DENORM_MIN__ ((double)4.94065645841246544177e-324L)\0"
 3337      4C5F4445 
 3337      4E4F524D 
 3337      5F4D494E 
 3337      5F5F2028 
 3338 10ea 01       		.byte	0x1
 3339 10eb 00       		.uleb128 0
 3340 10ec 5F5F4442 		.ascii "__DBL_HAS_DENORM__ 1\0"
 3340      4C5F4841 
 3340      535F4445 
 3340      4E4F524D 
 3340      5F5F2031 
 3341 1101 01       		.byte	0x1
 3342 1102 00       		.uleb128 0
 3343 1103 5F5F4442 		.ascii "__DBL_HAS_INFINITY__ 1\0"
 3343      4C5F4841 
 3343      535F494E 
 3343      46494E49 
 3343      54595F5F 
 3344 111a 01       		.byte	0x1
 3345 111b 00       		.uleb128 0
 3346 111c 5F5F4442 		.ascii "__DBL_HAS_QUIET_NAN__ 1\0"
 3346      4C5F4841 
 3346      535F5155 
 3346      4945545F 
 3346      4E414E5F 
 3347 1134 01       		.byte	0x1
 3348 1135 00       		.uleb128 0
 3349 1136 5F5F4C44 		.ascii "__LDBL_MANT_DIG__ 64\0"
 3349      424C5F4D 
 3349      414E545F 
GAS LISTING C:\Users\PRESID~1\AppData\Local\Temp\ccPltnJh.s 			page 88


 3349      4449475F 
 3349      5F203634 
 3350 114b 01       		.byte	0x1
 3351 114c 00       		.uleb128 0
 3352 114d 5F5F4C44 		.ascii "__LDBL_DIG__ 18\0"
 3352      424C5F44 
 3352      49475F5F 
 3352      20313800 
 3353 115d 01       		.byte	0x1
 3354 115e 00       		.uleb128 0
 3355 115f 5F5F4C44 		.ascii "__LDBL_MIN_EXP__ (-16381)\0"
 3355      424C5F4D 
 3355      494E5F45 
 3355      58505F5F 
 3355      20282D31 
 3356 1179 01       		.byte	0x1
 3357 117a 00       		.uleb128 0
 3358 117b 5F5F4C44 		.ascii "__LDBL_MIN_10_EXP__ (-4931)\0"
 3358      424C5F4D 
 3358      494E5F31 
 3358      305F4558 
 3358      505F5F20 
 3359 1197 01       		.byte	0x1
 3360 1198 00       		.uleb128 0
 3361 1199 5F5F4C44 		.ascii "__LDBL_MAX_EXP__ 16384\0"
 3361      424C5F4D 
 3361      41585F45 
 3361      58505F5F 
 3361      20313633 
 3362 11b0 01       		.byte	0x1
 3363 11b1 00       		.uleb128 0
 3364 11b2 5F5F4C44 		.ascii "__LDBL_MAX_10_EXP__ 4932\0"
 3364      424C5F4D 
 3364      41585F31 
 3364      305F4558 
 3364      505F5F20 
 3365 11cb 01       		.byte	0x1
 3366 11cc 00       		.uleb128 0
 3367 11cd 5F5F4445 		.ascii "__DECIMAL_DIG__ 21\0"
 3367      43494D41 
 3367      4C5F4449 
 3367      475F5F20 
 3367      323100
 3368 11e0 01       		.byte	0x1
 3369 11e1 00       		.uleb128 0
 3370 11e2 5F5F4C44 		.ascii "__LDBL_MAX__ 1.18973149535723176502e+4932L\0"
 3370      424C5F4D 
 3370      41585F5F 
 3370      20312E31 
 3370      38393733 
 3371 120d 01       		.byte	0x1
 3372 120e 00       		.uleb128 0
 3373 120f 5F5F4C44 		.ascii "__LDBL_MIN__ 3.36210314311209350626e-4932L\0"
 3373      424C5F4D 
 3373      494E5F5F 
 3373      20332E33 
 3373      36323130 
GAS LISTING C:\Users\PRESID~1\AppData\Local\Temp\ccPltnJh.s 			page 89


 3374 123a 01       		.byte	0x1
 3375 123b 00       		.uleb128 0
 3376 123c 5F5F4C44 		.ascii "__LDBL_EPSILON__ 1.08420217248550443401e-19L\0"
 3376      424C5F45 
 3376      5053494C 
 3376      4F4E5F5F 
 3376      20312E30 
 3377 1269 01       		.byte	0x1
 3378 126a 00       		.uleb128 0
 3379 126b 5F5F4C44 		.ascii "__LDBL_DENORM_MIN__ 3.64519953188247460253e-4951L\0"
 3379      424C5F44 
 3379      454E4F52 
 3379      4D5F4D49 
 3379      4E5F5F20 
 3380 129d 01       		.byte	0x1
 3381 129e 00       		.uleb128 0
 3382 129f 5F5F4C44 		.ascii "__LDBL_HAS_DENORM__ 1\0"
 3382      424C5F48 
 3382      41535F44 
 3382      454E4F52 
 3382      4D5F5F20 
 3383 12b5 01       		.byte	0x1
 3384 12b6 00       		.uleb128 0
 3385 12b7 5F5F4C44 		.ascii "__LDBL_HAS_INFINITY__ 1\0"
 3385      424C5F48 
 3385      41535F49 
 3385      4E46494E 
 3385      4954595F 
 3386 12cf 01       		.byte	0x1
 3387 12d0 00       		.uleb128 0
 3388 12d1 5F5F4C44 		.ascii "__LDBL_HAS_QUIET_NAN__ 1\0"
 3388      424C5F48 
 3388      41535F51 
 3388      55494554 
 3388      5F4E414E 
 3389 12ea 01       		.byte	0x1
 3390 12eb 00       		.uleb128 0
 3391 12ec 5F5F4445 		.ascii "__DEC32_MANT_DIG__ 7\0"
 3391      4333325F 
 3391      4D414E54 
 3391      5F444947 
 3391      5F5F2037 
 3392 1301 01       		.byte	0x1
 3393 1302 00       		.uleb128 0
 3394 1303 5F5F4445 		.ascii "__DEC32_MIN_EXP__ (-94)\0"
 3394      4333325F 
 3394      4D494E5F 
 3394      4558505F 
 3394      5F20282D 
 3395 131b 01       		.byte	0x1
 3396 131c 00       		.uleb128 0
 3397 131d 5F5F4445 		.ascii "__DEC32_MAX_EXP__ 97\0"
 3397      4333325F 
 3397      4D41585F 
 3397      4558505F 
 3397      5F203937 
 3398 1332 01       		.byte	0x1
GAS LISTING C:\Users\PRESID~1\AppData\Local\Temp\ccPltnJh.s 			page 90


 3399 1333 00       		.uleb128 0
 3400 1334 5F5F4445 		.ascii "__DEC32_MIN__ 1E-95DF\0"
 3400      4333325F 
 3400      4D494E5F 
 3400      5F203145 
 3400      2D393544 
 3401 134a 01       		.byte	0x1
 3402 134b 00       		.uleb128 0
 3403 134c 5F5F4445 		.ascii "__DEC32_MAX__ 9.999999E96DF\0"
 3403      4333325F 
 3403      4D41585F 
 3403      5F20392E 
 3403      39393939 
 3404 1368 01       		.byte	0x1
 3405 1369 00       		.uleb128 0
 3406 136a 5F5F4445 		.ascii "__DEC32_EPSILON__ 1E-6DF\0"
 3406      4333325F 
 3406      45505349 
 3406      4C4F4E5F 
 3406      5F203145 
 3407 1383 01       		.byte	0x1
 3408 1384 00       		.uleb128 0
 3409 1385 5F5F4445 		.ascii "__DEC32_SUBNORMAL_MIN__ 0.000001E-95DF\0"
 3409      4333325F 
 3409      5355424E 
 3409      4F524D41 
 3409      4C5F4D49 
 3410 13ac 01       		.byte	0x1
 3411 13ad 00       		.uleb128 0
 3412 13ae 5F5F4445 		.ascii "__DEC64_MANT_DIG__ 16\0"
 3412      4336345F 
 3412      4D414E54 
 3412      5F444947 
 3412      5F5F2031 
 3413 13c4 01       		.byte	0x1
 3414 13c5 00       		.uleb128 0
 3415 13c6 5F5F4445 		.ascii "__DEC64_MIN_EXP__ (-382)\0"
 3415      4336345F 
 3415      4D494E5F 
 3415      4558505F 
 3415      5F20282D 
 3416 13df 01       		.byte	0x1
 3417 13e0 00       		.uleb128 0
 3418 13e1 5F5F4445 		.ascii "__DEC64_MAX_EXP__ 385\0"
 3418      4336345F 
 3418      4D41585F 
 3418      4558505F 
 3418      5F203338 
 3419 13f7 01       		.byte	0x1
 3420 13f8 00       		.uleb128 0
 3421 13f9 5F5F4445 		.ascii "__DEC64_MIN__ 1E-383DD\0"
 3421      4336345F 
 3421      4D494E5F 
 3421      5F203145 
 3421      2D333833 
 3422 1410 01       		.byte	0x1
 3423 1411 00       		.uleb128 0
GAS LISTING C:\Users\PRESID~1\AppData\Local\Temp\ccPltnJh.s 			page 91


 3424 1412 5F5F4445 		.ascii "__DEC64_MAX__ 9.999999999999999E384DD\0"
 3424      4336345F 
 3424      4D41585F 
 3424      5F20392E 
 3424      39393939 
 3425 1438 01       		.byte	0x1
 3426 1439 00       		.uleb128 0
 3427 143a 5F5F4445 		.ascii "__DEC64_EPSILON__ 1E-15DD\0"
 3427      4336345F 
 3427      45505349 
 3427      4C4F4E5F 
 3427      5F203145 
 3428 1454 01       		.byte	0x1
 3429 1455 00       		.uleb128 0
 3430 1456 5F5F4445 		.ascii "__DEC64_SUBNORMAL_MIN__ 0.000000000000001E-383DD\0"
 3430      4336345F 
 3430      5355424E 
 3430      4F524D41 
 3430      4C5F4D49 
 3431 1487 01       		.byte	0x1
 3432 1488 00       		.uleb128 0
 3433 1489 5F5F4445 		.ascii "__DEC128_MANT_DIG__ 34\0"
 3433      43313238 
 3433      5F4D414E 
 3433      545F4449 
 3433      475F5F20 
 3434 14a0 01       		.byte	0x1
 3435 14a1 00       		.uleb128 0
 3436 14a2 5F5F4445 		.ascii "__DEC128_MIN_EXP__ (-6142)\0"
 3436      43313238 
 3436      5F4D494E 
 3436      5F455850 
 3436      5F5F2028 
 3437 14bd 01       		.byte	0x1
 3438 14be 00       		.uleb128 0
 3439 14bf 5F5F4445 		.ascii "__DEC128_MAX_EXP__ 6145\0"
 3439      43313238 
 3439      5F4D4158 
 3439      5F455850 
 3439      5F5F2036 
 3440 14d7 01       		.byte	0x1
 3441 14d8 00       		.uleb128 0
 3442 14d9 5F5F4445 		.ascii "__DEC128_MIN__ 1E-6143DL\0"
 3442      43313238 
 3442      5F4D494E 
 3442      5F5F2031 
 3442      452D3631 
 3443 14f2 01       		.byte	0x1
 3444 14f3 00       		.uleb128 0
 3445 14f4 5F5F4445 		.ascii "__DEC128_MAX__ 9.999999999999999999999999999999999E6144DL\0"
 3445      43313238 
 3445      5F4D4158 
 3445      5F5F2039 
 3445      2E393939 
 3446 152e 01       		.byte	0x1
 3447 152f 00       		.uleb128 0
 3448 1530 5F5F4445 		.ascii "__DEC128_EPSILON__ 1E-33DL\0"
GAS LISTING C:\Users\PRESID~1\AppData\Local\Temp\ccPltnJh.s 			page 92


 3448      43313238 
 3448      5F455053 
 3448      494C4F4E 
 3448      5F5F2031 
 3449 154b 01       		.byte	0x1
 3450 154c 00       		.uleb128 0
 3451 154d 5F5F4445 		.ascii "__DEC128_SUBNORMAL_MIN__ 0.000000000000000000000000000000001E-6143DL\0"
 3451      43313238 
 3451      5F535542 
 3451      4E4F524D 
 3451      414C5F4D 
 3452 1592 01       		.byte	0x1
 3453 1593 00       		.uleb128 0
 3454 1594 5F5F5245 		.ascii "__REGISTER_PREFIX__ \0"
 3454      47495354 
 3454      45525F50 
 3454      52454649 
 3454      585F5F20 
 3455 15a9 01       		.byte	0x1
 3456 15aa 00       		.uleb128 0
 3457 15ab 5F5F5553 		.ascii "__USER_LABEL_PREFIX__ _\0"
 3457      45525F4C 
 3457      4142454C 
 3457      5F505245 
 3457      4649585F 
 3458 15c3 01       		.byte	0x1
 3459 15c4 00       		.uleb128 0
 3460 15c5 5F5F474E 		.ascii "__GNUC_GNU_INLINE__ 1\0"
 3460      55435F47 
 3460      4E555F49 
 3460      4E4C494E 
 3460      455F5F20 
 3461 15db 01       		.byte	0x1
 3462 15dc 00       		.uleb128 0
 3463 15dd 5F5F4E4F 		.ascii "__NO_INLINE__ 1\0"
 3463      5F494E4C 
 3463      494E455F 
 3463      5F203100 
 3464 15ed 01       		.byte	0x1
 3465 15ee 00       		.uleb128 0
 3466 15ef 5F5F5354 		.ascii "__STRICT_ANSI__ 1\0"
 3466      52494354 
 3466      5F414E53 
 3466      495F5F20 
 3466      3100
 3467 1601 01       		.byte	0x1
 3468 1602 00       		.uleb128 0
 3469 1603 5F5F4743 		.ascii "__GCC_ATOMIC_BOOL_LOCK_FREE 1\0"
 3469      435F4154 
 3469      4F4D4943 
 3469      5F424F4F 
 3469      4C5F4C4F 
 3470 1621 01       		.byte	0x1
 3471 1622 00       		.uleb128 0
 3472 1623 5F5F4743 		.ascii "__GCC_ATOMIC_CHAR_LOCK_FREE 1\0"
 3472      435F4154 
 3472      4F4D4943 
GAS LISTING C:\Users\PRESID~1\AppData\Local\Temp\ccPltnJh.s 			page 93


 3472      5F434841 
 3472      525F4C4F 
 3473 1641 01       		.byte	0x1
 3474 1642 00       		.uleb128 0
 3475 1643 5F5F4743 		.ascii "__GCC_ATOMIC_CHAR16_T_LOCK_FREE 1\0"
 3475      435F4154 
 3475      4F4D4943 
 3475      5F434841 
 3475      5231365F 
 3476 1665 01       		.byte	0x1
 3477 1666 00       		.uleb128 0
 3478 1667 5F5F4743 		.ascii "__GCC_ATOMIC_CHAR32_T_LOCK_FREE 1\0"
 3478      435F4154 
 3478      4F4D4943 
 3478      5F434841 
 3478      5233325F 
 3479 1689 01       		.byte	0x1
 3480 168a 00       		.uleb128 0
 3481 168b 5F5F4743 		.ascii "__GCC_ATOMIC_WCHAR_T_LOCK_FREE 1\0"
 3481      435F4154 
 3481      4F4D4943 
 3481      5F574348 
 3481      41525F54 
 3482 16ac 01       		.byte	0x1
 3483 16ad 00       		.uleb128 0
 3484 16ae 5F5F4743 		.ascii "__GCC_ATOMIC_SHORT_LOCK_FREE 1\0"
 3484      435F4154 
 3484      4F4D4943 
 3484      5F53484F 
 3484      52545F4C 
 3485 16cd 01       		.byte	0x1
 3486 16ce 00       		.uleb128 0
 3487 16cf 5F5F4743 		.ascii "__GCC_ATOMIC_INT_LOCK_FREE 1\0"
 3487      435F4154 
 3487      4F4D4943 
 3487      5F494E54 
 3487      5F4C4F43 
 3488 16ec 01       		.byte	0x1
 3489 16ed 00       		.uleb128 0
 3490 16ee 5F5F4743 		.ascii "__GCC_ATOMIC_LONG_LOCK_FREE 1\0"
 3490      435F4154 
 3490      4F4D4943 
 3490      5F4C4F4E 
 3490      475F4C4F 
 3491 170c 01       		.byte	0x1
 3492 170d 00       		.uleb128 0
 3493 170e 5F5F4743 		.ascii "__GCC_ATOMIC_LLONG_LOCK_FREE 1\0"
 3493      435F4154 
 3493      4F4D4943 
 3493      5F4C4C4F 
 3493      4E475F4C 
 3494 172d 01       		.byte	0x1
 3495 172e 00       		.uleb128 0
 3496 172f 5F5F4743 		.ascii "__GCC_ATOMIC_TEST_AND_SET_TRUEVAL 1\0"
 3496      435F4154 
 3496      4F4D4943 
 3496      5F544553 
GAS LISTING C:\Users\PRESID~1\AppData\Local\Temp\ccPltnJh.s 			page 94


 3496      545F414E 
 3497 1753 01       		.byte	0x1
 3498 1754 00       		.uleb128 0
 3499 1755 5F5F4743 		.ascii "__GCC_ATOMIC_POINTER_LOCK_FREE 1\0"
 3499      435F4154 
 3499      4F4D4943 
 3499      5F504F49 
 3499      4E544552 
 3500 1776 01       		.byte	0x1
 3501 1777 00       		.uleb128 0
 3502 1778 5F5F4743 		.ascii "__GCC_HAVE_DWARF2_CFI_ASM 1\0"
 3502      435F4841 
 3502      56455F44 
 3502      57415246 
 3502      325F4346 
 3503 1794 01       		.byte	0x1
 3504 1795 00       		.uleb128 0
 3505 1796 5F5F5052 		.ascii "__PRAGMA_REDEFINE_EXTNAME 1\0"
 3505      41474D41 
 3505      5F524544 
 3505      4546494E 
 3505      455F4558 
 3506 17b2 01       		.byte	0x1
 3507 17b3 00       		.uleb128 0
 3508 17b4 5F5F5349 		.ascii "__SIZEOF_WCHAR_T__ 2\0"
 3508      5A454F46 
 3508      5F574348 
 3508      41525F54 
 3508      5F5F2032 
 3509 17c9 01       		.byte	0x1
 3510 17ca 00       		.uleb128 0
 3511 17cb 5F5F5349 		.ascii "__SIZEOF_WINT_T__ 2\0"
 3511      5A454F46 
 3511      5F57494E 
 3511      545F545F 
 3511      5F203200 
 3512 17df 01       		.byte	0x1
 3513 17e0 00       		.uleb128 0
 3514 17e1 5F5F5349 		.ascii "__SIZEOF_PTRDIFF_T__ 4\0"
 3514      5A454F46 
 3514      5F505452 
 3514      44494646 
 3514      5F545F5F 
 3515 17f8 01       		.byte	0x1
 3516 17f9 00       		.uleb128 0
 3517 17fa 5F5F6933 		.ascii "__i386 1\0"
 3517      38362031 
 3517      00
 3518 1803 01       		.byte	0x1
 3519 1804 00       		.uleb128 0
 3520 1805 5F5F6933 		.ascii "__i386__ 1\0"
 3520      38365F5F 
 3520      203100
 3521 1810 01       		.byte	0x1
 3522 1811 00       		.uleb128 0
 3523 1812 5F5F4154 		.ascii "__ATOMIC_HLE_ACQUIRE 65536\0"
 3523      4F4D4943 
GAS LISTING C:\Users\PRESID~1\AppData\Local\Temp\ccPltnJh.s 			page 95


 3523      5F484C45 
 3523      5F414351 
 3523      55495245 
 3524 182d 01       		.byte	0x1
 3525 182e 00       		.uleb128 0
 3526 182f 5F5F4154 		.ascii "__ATOMIC_HLE_RELEASE 131072\0"
 3526      4F4D4943 
 3526      5F484C45 
 3526      5F52454C 
 3526      45415345 
 3527 184b 01       		.byte	0x1
 3528 184c 00       		.uleb128 0
 3529 184d 5F5F7475 		.ascii "__tune_i386__ 1\0"
 3529      6E655F69 
 3529      3338365F 
 3529      5F203100 
 3530 185d 01       		.byte	0x1
 3531 185e 00       		.uleb128 0
 3532 185f 5F5F636F 		.ascii "__code_model_32__ 1\0"
 3532      64655F6D 
 3532      6F64656C 
 3532      5F33325F 
 3532      5F203100 
 3533 1873 01       		.byte	0x1
 3534 1874 00       		.uleb128 0
 3535 1875 5F583836 		.ascii "_X86_ 1\0"
 3535      5F203100 
 3536 187d 01       		.byte	0x1
 3537 187e 00       		.uleb128 0
 3538 187f 5F5F7374 		.ascii "__stdcall __attribute__((__stdcall__))\0"
 3538      6463616C 
 3538      6C205F5F 
 3538      61747472 
 3538      69627574 
 3539 18a6 01       		.byte	0x1
 3540 18a7 00       		.uleb128 0
 3541 18a8 5F5F6661 		.ascii "__fastcall __attribute__((__fastcall__))\0"
 3541      73746361 
 3541      6C6C205F 
 3541      5F617474 
 3541      72696275 
 3542 18d1 01       		.byte	0x1
 3543 18d2 00       		.uleb128 0
 3544 18d3 5F5F7468 		.ascii "__thiscall __attribute__((__thiscall__))\0"
 3544      69736361 
 3544      6C6C205F 
 3544      5F617474 
 3544      72696275 
 3545 18fc 01       		.byte	0x1
 3546 18fd 00       		.uleb128 0
 3547 18fe 5F5F6364 		.ascii "__cdecl __attribute__((__cdecl__))\0"
 3547      65636C20 
 3547      5F5F6174 
 3547      74726962 
 3547      7574655F 
 3548 1921 01       		.byte	0x1
 3549 1922 00       		.uleb128 0
GAS LISTING C:\Users\PRESID~1\AppData\Local\Temp\ccPltnJh.s 			page 96


 3550 1923 5F5F4758 		.ascii "__GXX_MERGED_TYPEINFO_NAMES 0\0"
 3550      585F4D45 
 3550      52474544 
 3550      5F545950 
 3550      45494E46 
 3551 1941 01       		.byte	0x1
 3552 1942 00       		.uleb128 0
 3553 1943 5F5F4758 		.ascii "__GXX_TYPEINFO_EQUALITY_INLINE 0\0"
 3553      585F5459 
 3553      5045494E 
 3553      464F5F45 
 3553      5155414C 
 3554 1964 01       		.byte	0x1
 3555 1965 00       		.uleb128 0
 3556 1966 5F5F4D53 		.ascii "__MSVCRT__ 1\0"
 3556      56435254 
 3556      5F5F2031 
 3556      00
 3557 1973 01       		.byte	0x1
 3558 1974 00       		.uleb128 0
 3559 1975 5F5F4D49 		.ascii "__MINGW32__ 1\0"
 3559      4E475733 
 3559      325F5F20 
 3559      3100
 3560 1983 01       		.byte	0x1
 3561 1984 00       		.uleb128 0
 3562 1985 5F57494E 		.ascii "_WIN32 1\0"
 3562      33322031 
 3562      00
 3563 198e 01       		.byte	0x1
 3564 198f 00       		.uleb128 0
 3565 1990 5F5F5749 		.ascii "__WIN32 1\0"
 3565      4E333220 
 3565      3100
 3566 199a 01       		.byte	0x1
 3567 199b 00       		.uleb128 0
 3568 199c 5F5F5749 		.ascii "__WIN32__ 1\0"
 3568      4E33325F 
 3568      5F203100 
 3569 19a8 01       		.byte	0x1
 3570 19a9 00       		.uleb128 0
 3571 19aa 5F5F5749 		.ascii "__WINNT 1\0"
 3571      4E4E5420 
 3571      3100
 3572 19b4 01       		.byte	0x1
 3573 19b5 00       		.uleb128 0
 3574 19b6 5F5F5749 		.ascii "__WINNT__ 1\0"
 3574      4E4E545F 
 3574      5F203100 
 3575 19c2 01       		.byte	0x1
 3576 19c3 00       		.uleb128 0
 3577 19c4 5F494E54 		.ascii "_INTEGRAL_MAX_BITS 64\0"
 3577      45475241 
 3577      4C5F4D41 
 3577      585F4249 
 3577      54532036 
 3578 19da 01       		.byte	0x1
GAS LISTING C:\Users\PRESID~1\AppData\Local\Temp\ccPltnJh.s 			page 97


 3579 19db 00       		.uleb128 0
 3580 19dc 5F5F6465 		.ascii "__declspec(x) __attribute__((x))\0"
 3580      636C7370 
 3580      65632878 
 3580      29205F5F 
 3580      61747472 
 3581 19fd 01       		.byte	0x1
 3582 19fe 00       		.uleb128 0
 3583 19ff 5F5F4445 		.ascii "__DECIMAL_BID_FORMAT__ 1\0"
 3583      43494D41 
 3583      4C5F4249 
 3583      445F464F 
 3583      524D4154 
 3584 1a18 01       		.byte	0x1
 3585 1a19 00       		.uleb128 0
 3586 1a1a 4346475F 		.ascii "CFG_PROCESSOR 3\0"
 3586      50524F43 
 3586      4553534F 
 3586      52203300 
 3587 1a2a 03       		.byte	0x3
 3588 1a2b 00       		.uleb128 0
 3589 1a2c 01       		.uleb128 0x1
 3590              		.file 7 "E:/NeuOrga/Programmieren/c_cpp/github_os/input/src/os_base/os_firstinc.h"
 3591 1a2d 03       		.byte	0x3
 3592 1a2e 01       		.uleb128 0x1
 3593 1a2f 07       		.uleb128 0x7
 3594 1a30 01       		.byte	0x1
 3595 1a31 02       		.uleb128 0x2
 3596 1a32 5F6F735F 		.ascii "_os_firstinc_h_ \0"
 3596      66697273 
 3596      74696E63 
 3596      5F685F20 
 3596      00
 3597 1a43 03       		.byte	0x3
 3598 1a44 04       		.uleb128 0x4
 3599 1a45 02       		.uleb128 0x2
 3600 1a46 01       		.byte	0x1
 3601 1a47 02       		.uleb128 0x2
 3602 1a48 5F424153 		.ascii "_BASE_TYPES_H_ \0"
 3602      455F5459 
 3602      5045535F 
 3602      485F2000 
 3603 1a58 01       		.byte	0x1
 3604 1a59 04       		.uleb128 0x4
 3605 1a5a 494E5445 		.ascii "INTEGER_LLP64_IL32P64 1\0"
 3605      4745525F 
 3605      4C4C5036 
 3605      345F494C 
 3605      33325036 
 3606 1a72 01       		.byte	0x1
 3607 1a73 05       		.uleb128 0x5
 3608 1a74 494E5445 		.ascii "INTEGER_LP64_I32LP64 2\0"
 3608      4745525F 
 3608      4C503634 
 3608      5F493332 
 3608      4C503634 
 3609 1a8b 01       		.byte	0x1
GAS LISTING C:\Users\PRESID~1\AppData\Local\Temp\ccPltnJh.s 			page 98


 3610 1a8c 06       		.uleb128 0x6
 3611 1a8d 494E5445 		.ascii "INTEGER_ILP64 3\0"
 3611      4745525F 
 3611      494C5036 
 3611      34203300 
 3612 1a9d 01       		.byte	0x1
 3613 1a9e 07       		.uleb128 0x7
 3614 1a9f 494E5445 		.ascii "INTEGER_SILP64 4\0"
 3614      4745525F 
 3614      53494C50 
 3614      36342034 
 3614      00
 3615 1ab0 01       		.byte	0x1
 3616 1ab1 09       		.uleb128 0x9
 3617 1ab2 4350505F 		.ascii "CPP_VERSION_NONE 0\0"
 3617      56455253 
 3617      494F4E5F 
 3617      4E4F4E45 
 3617      203000
 3618 1ac5 01       		.byte	0x1
 3619 1ac6 0A       		.uleb128 0xa
 3620 1ac7 4350505F 		.ascii "CPP_VERSION_1998 1\0"
 3620      56455253 
 3620      494F4E5F 
 3620      31393938 
 3620      203100
 3621 1ada 01       		.byte	0x1
 3622 1adb 0B       		.uleb128 0xb
 3623 1adc 4350505F 		.ascii "CPP_VERSION_2003 2\0"
 3623      56455253 
 3623      494F4E5F 
 3623      32303033 
 3623      203200
 3624 1aef 01       		.byte	0x1
 3625 1af0 0C       		.uleb128 0xc
 3626 1af1 4350505F 		.ascii "CPP_VERSION_2007 3\0"
 3626      56455253 
 3626      494F4E5F 
 3626      32303037 
 3626      203300
 3627 1b04 01       		.byte	0x1
 3628 1b05 0D       		.uleb128 0xd
 3629 1b06 4350505F 		.ascii "CPP_VERSION_2011 4\0"
 3629      56455253 
 3629      494F4E5F 
 3629      32303131 
 3629      203400
 3630 1b19 01       		.byte	0x1
 3631 1b1a 0E       		.uleb128 0xe
 3632 1b1b 49534F5F 		.ascii "ISO_CPP_VERSION CPP_VERSION_1998\0"
 3632      4350505F 
 3632      56455253 
 3632      494F4E20 
 3632      4350505F 
 3633 1b3c 01       		.byte	0x1
 3634 1b3d 10       		.uleb128 0x10
 3635 1b3e 494E5445 		.ascii "INTEGER_MODEL INTEGER_LLP64_IL32P64\0"
GAS LISTING C:\Users\PRESID~1\AppData\Local\Temp\ccPltnJh.s 			page 99


 3635      4745525F 
 3635      4D4F4445 
 3635      4C20494E 
 3635      54454745 
 3636 1b62 04       		.byte	0x4
 3637 1b63 03       		.byte	0x3
 3638 1b64 05       		.uleb128 0x5
 3639 1b65 03       		.uleb128 0x3
 3640 1b66 01       		.byte	0x1
 3641 1b67 02       		.uleb128 0x2
 3642 1b68 5F6F735F 		.ascii "_os_common_h_ \0"
 3642      636F6D6D 
 3642      6F6E5F68 
 3642      5F2000
 3643 1b77 01       		.byte	0x1
 3644 1b78 06       		.uleb128 0x6
 3645 1b79 46616C73 		.ascii "False 0\0"
 3645      65203000 
 3646 1b81 01       		.byte	0x1
 3647 1b82 07       		.uleb128 0x7
 3648 1b83 54727565 		.ascii "True 1\0"
 3648      203100
 3649 1b8a 01       		.byte	0x1
 3650 1b8b 08       		.uleb128 0x8
 3651 1b8c 46414C53 		.ascii "FALSE False\0"
 3651      45204661 
 3651      6C736500 
 3652 1b98 01       		.byte	0x1
 3653 1b99 09       		.uleb128 0x9
 3654 1b9a 54525545 		.ascii "TRUE True\0"
 3654      20547275 
 3654      6500
 3655 1ba4 01       		.byte	0x1
 3656 1ba5 0A       		.uleb128 0xa
 3657 1ba6 41636365 		.ascii "Accepted 1\0"
 3657      70746564 
 3657      203100
 3658 1bb1 01       		.byte	0x1
 3659 1bb2 0B       		.uleb128 0xb
 3660 1bb3 52656A65 		.ascii "Rejected 0\0"
 3660      63746564 
 3660      203000
 3661 1bbe 01       		.byte	0x1
 3662 1bbf 0C       		.uleb128 0xc
 3663 1bc0 4C6F6361 		.ascii "Local static\0"
 3663      6C207374 
 3663      61746963 
 3663      00
 3664 1bcd 01       		.byte	0x1
 3665 1bce 0D       		.uleb128 0xd
 3666 1bcf 4C6F6361 		.ascii "Local_inline static __inline__\0"
 3666      6C5F696E 
 3666      6C696E65 
 3666      20737461 
 3666      74696320 
 3667 1bee 01       		.byte	0x1
 3668 1bef 0E       		.uleb128 0xe
GAS LISTING C:\Users\PRESID~1\AppData\Local\Temp\ccPltnJh.s 			page 100


 3669 1bf0 476C6F62 		.ascii "Global_inline __inline__\0"
 3669      616C5F69 
 3669      6E6C696E 
 3669      65205F5F 
 3669      696E6C69 
 3670 1c09 01       		.byte	0x1
 3671 1c0a 0F       		.uleb128 0xf
 3672 1c0b 52656665 		.ascii "ReferenceUnusedParameter(x) ((x) = (x))\0"
 3672      72656E63 
 3672      65556E75 
 3672      73656450 
 3672      6172616D 
 3673 1c33 01       		.byte	0x1
 3674 1c34 10       		.uleb128 0x10
 3675 1c35 44796E61 		.ascii "DynamicMemoryUsed False\0"
 3675      6D69634D 
 3675      656D6F72 
 3675      79557365 
 3675      64204661 
 3676 1c4d 01       		.byte	0x1
 3677 1c4e 13       		.uleb128 0x13
 3678 1c4f 634D4355 		.ascii "cMCU_X86 3\0"
 3678      5F583836 
 3678      203300
 3679 1c5a 01       		.byte	0x1
 3680 1c5b 14       		.uleb128 0x14
 3681 1c5c 634D4355 		.ascii "cMCU_CORTEX_M4 4\0"
 3681      5F434F52 
 3681      5445585F 
 3681      4D342034 
 3681      00
 3682 1c6d 01       		.byte	0x1
 3683 1c6e 17       		.uleb128 0x17
 3684 1c6f 4E525F4F 		.ascii "NR_OF_CORES 1\0"
 3684      465F434F 
 3684      52455320 
 3684      3100
 3685 1c7d 01       		.byte	0x1
 3686 1c7e 19       		.uleb128 0x19
 3687 1c7f 4D43555F 		.ascii "MCU_CLOCK_IN_HZ ((uint32)168000000u)\0"
 3687      434C4F43 
 3687      4B5F494E 
 3687      5F485A20 
 3687      28287569 
 3688 1ca4 01       		.byte	0x1
 3689 1ca5 1D       		.uleb128 0x1d
 3690 1ca6 44697361 		.ascii "DisableInterrupts() \0"
 3690      626C6549 
 3690      6E746572 
 3690      72757074 
 3690      73282920 
 3691 1cbb 01       		.byte	0x1
 3692 1cbc 1E       		.uleb128 0x1e
 3693 1cbd 456E6162 		.ascii "EnableInterrupts() \0"
 3693      6C65496E 
 3693      74657272 
 3693      75707473 
GAS LISTING C:\Users\PRESID~1\AppData\Local\Temp\ccPltnJh.s 			page 101


 3693      28292000 
 3694 1cd1 01       		.byte	0x1
 3695 1cd2 1F       		.uleb128 0x1f
 3696 1cd3 50726976 		.ascii "Privilige_level_save_current() \0"
 3696      696C6967 
 3696      655F6C65 
 3696      76656C5F 
 3696      73617665 
 3697 1cf3 01       		.byte	0x1
 3698 1cf4 20       		.uleb128 0x20
 3699 1cf5 50726976 		.ascii "Privilige_level_enter_kernel_mode() \0"
 3699      696C6967 
 3699      655F6C65 
 3699      76656C5F 
 3699      656E7465 
 3700 1d1a 01       		.byte	0x1
 3701 1d1b 21       		.uleb128 0x21
 3702 1d1c 50726976 		.ascii "Privilige_level_restore_saved() \0"
 3702      696C6967 
 3702      655F6C65 
 3702      76656C5F 
 3702      72657374 
 3703 1d3d 01       		.byte	0x1
 3704 1d3e 22       		.uleb128 0x22
 3705 1d3f 48616C74 		.ascii "HaltMcu() \0"
 3705      4D637528 
 3705      292000
 3706 1d4a 01       		.byte	0x1
 3707 1d4b 58       		.uleb128 0x58
 3708 1d4c 42696749 		.ascii "BigIntSize 16\0"
 3708      6E745369 
 3708      7A652031 
 3708      3600
 3709 1d5a 04       		.byte	0x4
 3710              		.file 8 "E:/NeuOrga/Programmieren/c_cpp/github_os/input/src/os_base/../os_sim/lld_global.h"
 3711 1d5b 03       		.byte	0x3
 3712 1d5c 08       		.uleb128 0x8
 3713 1d5d 08       		.uleb128 0x8
 3714 1d5e 01       		.byte	0x1
 3715 1d5f 02       		.uleb128 0x2
 3716 1d60 5F6C6C64 		.ascii "_lld_global_h_ \0"
 3716      5F676C6F 
 3716      62616C5F 
 3716      685F2000 
 3717 1d70 03       		.byte	0x3
 3718 1d71 04       		.uleb128 0x4
 3719 1d72 04       		.uleb128 0x4
 3720 1d73 01       		.byte	0x1
 3721 1d74 02       		.uleb128 0x2
 3722 1d75 5F6C6C64 		.ascii "_lld_core_h_ \0"
 3722      5F636F72 
 3722      655F685F 
 3722      2000
 3723              		.file 9 "E:/NeuOrga/Programmieren/c_cpp/github_os/input/src/os_base/../os_sim/../os_base/os_firsti
 3724 1d83 03       		.byte	0x3
 3725 1d84 03       		.uleb128 0x3
 3726 1d85 09       		.uleb128 0x9
GAS LISTING C:\Users\PRESID~1\AppData\Local\Temp\ccPltnJh.s 			page 102


 3727 1d86 04       		.byte	0x4
 3728 1d87 04       		.byte	0x4
 3729              		.file 10 "E:/NeuOrga/Programmieren/c_cpp/github_os/input/src/os_base/../os_sim/lld_interrupt.h"
 3730 1d88 03       		.byte	0x3
 3731 1d89 05       		.uleb128 0x5
 3732 1d8a 0A       		.uleb128 0xa
 3733 1d8b 01       		.byte	0x1
 3734 1d8c 02       		.uleb128 0x2
 3735 1d8d 5F6C6C64 		.ascii "_lld_interrupt_h_ \0"
 3735      5F696E74 
 3735      65727275 
 3735      70745F68 
 3735      5F2000
 3736 1da0 01       		.byte	0x1
 3737 1da1 05       		.uleb128 0x5
 3738 1da2 6F735F69 		.ascii "os_interrupt_swi_1 asm(\"swi 1\")\0"
 3738      6E746572 
 3738      72757074 
 3738      5F737769 
 3738      5F312061 
 3739 1dc2 01       		.byte	0x1
 3740 1dc3 06       		.uleb128 0x6
 3741 1dc4 6F735F69 		.ascii "os_interrupt_swi_2 asm(\"swi 2\")\0"
 3741      6E746572 
 3741      72757074 
 3741      5F737769 
 3741      5F322061 
 3742 1de4 01       		.byte	0x1
 3743 1de5 07       		.uleb128 0x7
 3744 1de6 6F735F69 		.ascii "os_interrupt_swi_3 asm(\"swi 3\")\0"
 3744      6E746572 
 3744      72757074 
 3744      5F737769 
 3744      5F332061 
 3745 1e06 01       		.byte	0x1
 3746 1e07 08       		.uleb128 0x8
 3747 1e08 6F735F69 		.ascii "os_interrupt_swi_4 asm(\"swi 4\")\0"
 3747      6E746572 
 3747      72757074 
 3747      5F737769 
 3747      5F342061 
 3748 1e28 01       		.byte	0x1
 3749 1e29 09       		.uleb128 0x9
 3750 1e2a 6F735F69 		.ascii "os_interrupt_swi_5 asm(\"swi 5\")\0"
 3750      6E746572 
 3750      72757074 
 3750      5F737769 
 3750      5F352061 
 3751 1e4a 04       		.byte	0x4
 3752              		.file 11 "E:/NeuOrga/Programmieren/c_cpp/github_os/input/src/os_base/../os_sim/lld_mmu.h"
 3753 1e4b 03       		.byte	0x3
 3754 1e4c 06       		.uleb128 0x6
 3755 1e4d 0B       		.uleb128 0xb
 3756 1e4e 01       		.byte	0x1
 3757 1e4f 02       		.uleb128 0x2
 3758 1e50 5F6C6C64 		.ascii "_lld_mmu_h_ \0"
 3758      5F6D6D75 
GAS LISTING C:\Users\PRESID~1\AppData\Local\Temp\ccPltnJh.s 			page 103


 3758      5F685F20 
 3758      00
 3759 1e5d 04       		.byte	0x4
 3760              		.file 12 "E:/NeuOrga/Programmieren/c_cpp/github_os/input/src/os_base/../os_sim/lld_timer.h"
 3761 1e5e 03       		.byte	0x3
 3762 1e5f 07       		.uleb128 0x7
 3763 1e60 0C       		.uleb128 0xc
 3764 1e61 01       		.byte	0x1
 3765 1e62 02       		.uleb128 0x2
 3766 1e63 5F6C6C64 		.ascii "_lld_timer_h_ \0"
 3766      5F74696D 
 3766      65725F68 
 3766      5F2000
 3767 1e72 04       		.byte	0x4
 3768              		.file 13 "E:/NeuOrga/Programmieren/c_cpp/github_os/input/src/os_base/../os_sim/lld_power.h"
 3769 1e73 03       		.byte	0x3
 3770 1e74 08       		.uleb128 0x8
 3771 1e75 0D       		.uleb128 0xd
 3772 1e76 01       		.byte	0x1
 3773 1e77 02       		.uleb128 0x2
 3774 1e78 5F6C6C64 		.ascii "_lld_power_h_ \0"
 3774      5F706F77 
 3774      65725F68 
 3774      5F2000
 3775 1e87 04       		.byte	0x4
 3776              		.file 14 "E:/NeuOrga/Programmieren/c_cpp/github_os/input/src/os_base/../os_sim/lld_ram.h"
 3777 1e88 03       		.byte	0x3
 3778 1e89 09       		.uleb128 0x9
 3779 1e8a 0E       		.uleb128 0xe
 3780 1e8b 01       		.byte	0x1
 3781 1e8c 02       		.uleb128 0x2
 3782 1e8d 5F6C6C64 		.ascii "_lld_ram_h_ \0"
 3782      5F72616D 
 3782      5F685F20 
 3782      00
 3783 1e9a 04       		.byte	0x4
 3784 1e9b 03       		.byte	0x3
 3785 1e9c 0A       		.uleb128 0xa
 3786 1e9d 05       		.uleb128 0x5
 3787 1e9e 01       		.byte	0x1
 3788 1e9f 02       		.uleb128 0x2
 3789 1ea0 5F6F735F 		.ascii "_os_task_common_h_ \0"
 3789      7461736B 
 3789      5F636F6D 
 3789      6D6F6E5F 
 3789      685F2000 
 3790 1eb4 03       		.byte	0x3
 3791 1eb5 03       		.uleb128 0x3
 3792 1eb6 09       		.uleb128 0x9
 3793 1eb7 04       		.byte	0x4
 3794              		.file 15 "E:/NeuOrga/Programmieren/c_cpp/github_os/input/src/os_base/../os_sim/../os_base/os_task_
 3795 1eb8 03       		.byte	0x3
 3796 1eb9 04       		.uleb128 0x4
 3797 1eba 0F       		.uleb128 0xf
 3798 1ebb 01       		.byte	0x1
 3799 1ebc 02       		.uleb128 0x2
 3800 1ebd 5F6F735F 		.ascii "_os_task_config_h_ \0"
GAS LISTING C:\Users\PRESID~1\AppData\Local\Temp\ccPltnJh.s 			page 104


 3800      7461736B 
 3800      5F636F6E 
 3800      6669675F 
 3800      685F2000 
 3801 1ed1 01       		.byte	0x1
 3802 1ed2 05       		.uleb128 0x5
 3803 1ed3 53636865 		.ascii "SchedulerFrequency (1.0e3)\0"
 3803      64756C65 
 3803      72467265 
 3803      7175656E 
 3803      63792028 
 3804 1eee 01       		.byte	0x1
 3805 1eef 06       		.uleb128 0x6
 3806 1ef0 4D696E54 		.ascii "MinTimeSlice_s (1.0/SchedulerFrequency)\0"
 3806      696D6553 
 3806      6C696365 
 3806      5F732028 
 3806      312E302F 
 3807 1f18 01       		.byte	0x1
 3808 1f19 07       		.uleb128 0x7
 3809 1f1a 4D696E54 		.ascii "MinTimeSlice_us ((1.0/SchedulerFrequency)*1e6)\0"
 3809      696D6553 
 3809      6C696365 
 3809      5F757320 
 3809      2828312E 
 3810 1f49 01       		.byte	0x1
 3811 1f4a 08       		.uleb128 0x8
 3812 1f4b 5461736B 		.ascii "Task_min_time (1e0)\0"
 3812      5F6D696E 
 3812      5F74696D 
 3812      65202831 
 3812      65302900 
 3813 1f5f 01       		.byte	0x1
 3814 1f60 09       		.uleb128 0x9
 3815 1f61 4E554D42 		.ascii "NUMBER_OF_TASKS 10\0"
 3815      45525F4F 
 3815      465F5441 
 3815      534B5320 
 3815      313000
 3816 1f74 01       		.byte	0x1
 3817 1f75 0A       		.uleb128 0xa
 3818 1f76 4D41585F 		.ascii "MAX_RUN_QUEUE_SIZE (NUMBER_OF_TASKS)\0"
 3818      52554E5F 
 3818      51554555 
 3818      455F5349 
 3818      5A452028 
 3819 1f9b 01       		.byte	0x1
 3820 1f9c 0B       		.uleb128 0xb
 3821 1f9d 4D41585F 		.ascii "MAX_RUN_PQUEUE_SIZE MAX_RUN_QUEUE_SIZE\0"
 3821      52554E5F 
 3821      50515545 
 3821      55455F53 
 3821      495A4520 
 3822 1fc4 01       		.byte	0x1
 3823 1fc5 0D       		.uleb128 0xd
 3824 1fc6 5441534B 		.ascii "TASK_STACK_SIZE 2000\0"
 3824      5F535441 
GAS LISTING C:\Users\PRESID~1\AppData\Local\Temp\ccPltnJh.s 			page 105


 3824      434B5F53 
 3824      495A4520 
 3824      32303030 
 3825 1fdb 01       		.byte	0x1
 3826 1fdc 10       		.uleb128 0x10
 3827 1fdd 4D535F50 		.ascii "MS_PER_SEC (1000)\0"
 3827      45525F53 
 3827      45432028 
 3827      31303030 
 3827      2900
 3828 1fef 01       		.byte	0x1
 3829 1ff0 11       		.uleb128 0x11
 3830 1ff1 5553455F 		.ascii "USE_STATIC_CREATED_TASKS True\0"
 3830      53544154 
 3830      49435F43 
 3830      52454154 
 3830      45445F54 
 3831 200f 04       		.byte	0x4
 3832              		.file 16 "E:/NeuOrga/Programmieren/c_cpp/github_os/input/src/os_base/../os_sim/../os_base/os_init_
 3833 2010 03       		.byte	0x3
 3834 2011 05       		.uleb128 0x5
 3835 2012 10       		.uleb128 0x10
 3836 2013 01       		.byte	0x1
 3837 2014 02       		.uleb128 0x2
 3838 2015 5F6F735F 		.ascii "_os_init_task_system_h_ \0"
 3838      696E6974 
 3838      5F746173 
 3838      6B5F7379 
 3838      7374656D 
 3839 202e 04       		.byte	0x4
 3840 202f 01       		.byte	0x1
 3841 2030 60       		.uleb128 0x60
 3842 2031 6F735F53 		.ascii "os_SaveTaskPtr(task_ptr,task_name) (TASK_PTR[(task_name)] = (task_ptr))\0"
 3842      61766554 
 3842      61736B50 
 3842      74722874 
 3842      61736B5F 
 3843 2079 01       		.byte	0x1
 3844 207a 61       		.uleb128 0x61
 3845 207b 6F735F47 		.ascii "os_GetTaskPtr(task_name) ((task_t*) TASK_PTR[(task_name)])\0"
 3845      65745461 
 3845      736B5074 
 3845      72287461 
 3845      736B5F6E 
 3846 20b6 04       		.byte	0x4
 3847 20b7 04       		.byte	0x4
 3848              		.file 17 "E:/NeuOrga/Programmieren/c_cpp/github_os/input/src/os_base/../os_user_code/led.h"
 3849 20b8 03       		.byte	0x3
 3850 20b9 0C       		.uleb128 0xc
 3851 20ba 11       		.uleb128 0x11
 3852 20bb 01       		.byte	0x1
 3853 20bc 02       		.uleb128 0x2
 3854 20bd 5F4C4544 		.ascii "_LED_H_ \0"
 3854      5F485F20 
 3854      00
 3855 20c6 04       		.byte	0x4
 3856 20c7 03       		.byte	0x3
GAS LISTING C:\Users\PRESID~1\AppData\Local\Temp\ccPltnJh.s 			page 106


 3857 20c8 0E       		.uleb128 0xe
 3858 20c9 06       		.uleb128 0x6
 3859 20ca 01       		.byte	0x1
 3860 20cb 02       		.uleb128 0x2
 3861 20cc 5F4F535F 		.ascii "_OS_RAM_H_ \0"
 3861      52414D5F 
 3861      485F2000 
 3862              		.file 18 "E:/NeuOrga/Programmieren/c_cpp/github_os/input/src/os_base/../os_base/os_firstinc.h"
 3863 20d8 03       		.byte	0x3
 3864 20d9 04       		.uleb128 0x4
 3865 20da 12       		.uleb128 0x12
 3866 20db 04       		.byte	0x4
 3867              		.file 19 "E:/NeuOrga/Programmieren/c_cpp/github_os/input/src/os_base/../os_base/os_stack.h"
 3868 20dc 03       		.byte	0x3
 3869 20dd 05       		.uleb128 0x5
 3870 20de 13       		.uleb128 0x13
 3871 20df 01       		.byte	0x1
 3872 20e0 02       		.uleb128 0x2
 3873 20e1 5F6F735F 		.ascii "_os_stack_h_ \0"
 3873      73746163 
 3873      6B5F685F 
 3873      2000
 3874 20ef 01       		.byte	0x1
 3875 20f0 04       		.uleb128 0x4
 3876 20f1 4F535F53 		.ascii "OS_STACK_SIZE 0x5000u\0"
 3876      5441434B 
 3876      5F53495A 
 3876      45203078 
 3876      35303030 
 3877 2107 04       		.byte	0x4
 3878              		.file 20 "E:/NeuOrga/Programmieren/c_cpp/github_os/input/src/os_base/../os_base/os_heap.h"
 3879 2108 03       		.byte	0x3
 3880 2109 06       		.uleb128 0x6
 3881 210a 14       		.uleb128 0x14
 3882 210b 01       		.byte	0x1
 3883 210c 02       		.uleb128 0x2
 3884 210d 5F6F735F 		.ascii "_os_heap_h_ \0"
 3884      68656170 
 3884      5F685F20 
 3884      00
 3885 211a 01       		.byte	0x1
 3886 211b 05       		.uleb128 0x5
 3887 211c 48454150 		.ascii "HEAP_SIZE 10000\0"
 3887      5F53495A 
 3887      45203130 
 3887      30303000 
 3888 212c 01       		.byte	0x1
 3889 212d 06       		.uleb128 0x6
 3890 212e 4D494E5F 		.ascii "MIN_BLOCK_SIZE_HEAP 8\0"
 3890      424C4F43 
 3890      4B5F5349 
 3890      5A455F48 
 3890      45415020 
 3891 2144 01       		.byte	0x1
 3892 2145 09       		.uleb128 0x9
 3893 2146 48454150 		.ascii "HEAP_OFFSET_FOR_SIZE 0\0"
 3893      5F4F4646 
GAS LISTING C:\Users\PRESID~1\AppData\Local\Temp\ccPltnJh.s 			page 107


 3893      5345545F 
 3893      464F525F 
 3893      53495A45 
 3894 215d 01       		.byte	0x1
 3895 215e 0A       		.uleb128 0xa
 3896 215f 48454150 		.ascii "HEAP_OFFSET_FOR_USED_SIZE 4\0"
 3896      5F4F4646 
 3896      5345545F 
 3896      464F525F 
 3896      55534544 
 3897 217b 01       		.byte	0x1
 3898 217c 0B       		.uleb128 0xb
 3899 217d 48454150 		.ascii "HEAP_OFFSET_FOR_CHUNK 8\0"
 3899      5F4F4646 
 3899      5345545F 
 3899      464F525F 
 3899      4348554E 
 3900 2195 04       		.byte	0x4
 3901              		.file 21 "E:/NeuOrga/Programmieren/c_cpp/github_os/input/src/os_base/../os_base/os_main.h"
 3902 2196 03       		.byte	0x3
 3903 2197 07       		.uleb128 0x7
 3904 2198 15       		.uleb128 0x15
 3905 2199 01       		.byte	0x1
 3906 219a 02       		.uleb128 0x2
 3907 219b 5F6F735F 		.ascii "_os_main_h_ \0"
 3907      6D61696E 
 3907      5F685F20 
 3907      00
 3908 21a8 01       		.byte	0x1
 3909 21a9 03       		.uleb128 0x3
 3910 21aa 6F735F69 		.ascii "os_init 0\0"
 3910      6E697420 
 3910      3000
 3911 21b4 01       		.byte	0x1
 3912 21b5 04       		.uleb128 0x4
 3913 21b6 6F735F72 		.ascii "os_running 1\0"
 3913      756E6E69 
 3913      6E672031 
 3913      00
 3914 21c3 01       		.byte	0x1
 3915 21c4 05       		.uleb128 0x5
 3916 21c5 6F735F73 		.ascii "os_shutdown 2\0"
 3916      68757464 
 3916      6F776E20 
 3916      3200
 3917 21d3 04       		.byte	0x4
 3918              		.file 22 "E:/NeuOrga/Programmieren/c_cpp/github_os/input/src/os_base/../os_base/os_task_config.h"
 3919 21d4 03       		.byte	0x3
 3920 21d5 08       		.uleb128 0x8
 3921 21d6 16       		.uleb128 0x16
 3922 21d7 04       		.byte	0x4
 3923              		.file 23 "E:/NeuOrga/Programmieren/c_cpp/github_os/input/src/os_base/../os_base/os_task_common.h"
 3924 21d8 03       		.byte	0x3
 3925 21d9 09       		.uleb128 0x9
 3926 21da 17       		.uleb128 0x17
 3927 21db 04       		.byte	0x4
 3928 21dc 04       		.byte	0x4
GAS LISTING C:\Users\PRESID~1\AppData\Local\Temp\ccPltnJh.s 			page 108


 3929 21dd 04       		.byte	0x4
 3930              		.file 24 "E:/NeuOrga/Programmieren/c_cpp/github_os/input/src/os_base/os_task_common.h"
 3931 21de 03       		.byte	0x3
 3932 21df 02       		.uleb128 0x2
 3933 21e0 18       		.uleb128 0x18
 3934 21e1 04       		.byte	0x4
 3935              		.file 25 "E:/NeuOrga/Programmieren/c_cpp/github_os/input/src/os_base/os_task_queue.h"
 3936 21e2 03       		.byte	0x3
 3937 21e3 03       		.uleb128 0x3
 3938 21e4 19       		.uleb128 0x19
 3939 21e5 01       		.byte	0x1
 3940 21e6 02       		.uleb128 0x2
 3941 21e7 5F6F735F 		.ascii "_os_task_queue_h_ \0"
 3941      7461736B 
 3941      5F717565 
 3941      75655F68 
 3941      5F2000
 3942 21fa 01       		.byte	0x1
 3943 21fb 06       		.uleb128 0x6
 3944 21fc 46697273 		.ascii "First_task (0)\0"
 3944      745F7461 
 3944      736B2028 
 3944      302900
 3945 220b 01       		.byte	0x1
 3946 220c 07       		.uleb128 0x7
 3947 220d 4C617374 		.ascii "Last_task (MAX_RUN_QUEUE_SIZE-1)\0"
 3947      5F746173 
 3947      6B20284D 
 3947      41585F52 
 3947      554E5F51 
 3948 222e 01       		.byte	0x1
 3949 222f 09       		.uleb128 0x9
 3950 2230 466F725F 		.ascii "For_all_tasks_in_queue(var) for((var) = First_task; (var) <= Last_task; (var)++)\0"
 3950      616C6C5F 
 3950      7461736B 
 3950      735F696E 
 3950      5F717565 
 3951 2281 04       		.byte	0x4
 3952              		.file 26 "E:/NeuOrga/Programmieren/c_cpp/github_os/input/src/os_base/os_task_scheduler.h"
 3953 2282 03       		.byte	0x3
 3954 2283 04       		.uleb128 0x4
 3955 2284 1A       		.uleb128 0x1a
 3956 2285 01       		.byte	0x1
 3957 2286 02       		.uleb128 0x2
 3958 2287 5F6F735F 		.ascii "_os_task_scheduler_h_ \0"
 3958      7461736B 
 3958      5F736368 
 3958      6564756C 
 3958      65725F68 
 3959 229e 01       		.byte	0x1
 3960 229f 07       		.uleb128 0x7
 3961 22a0 5461736B 		.ascii "Task_0_ptr 0\0"
 3961      5F305F70 
 3961      74722030 
 3961      00
 3962 22ad 01       		.byte	0x1
 3963 22ae 08       		.uleb128 0x8
GAS LISTING C:\Users\PRESID~1\AppData\Local\Temp\ccPltnJh.s 			page 109


 3964 22af 5461736B 		.ascii "Task_1_ptr 1\0"
 3964      5F315F70 
 3964      74722031 
 3964      00
 3965 22bc 01       		.byte	0x1
 3966 22bd 09       		.uleb128 0x9
 3967 22be 5461736B 		.ascii "Task_2_ptr 2\0"
 3967      5F325F70 
 3967      74722032 
 3967      00
 3968 22cb 01       		.byte	0x1
 3969 22cc 0A       		.uleb128 0xa
 3970 22cd 5461736B 		.ascii "Task_3_ptr 3\0"
 3970      5F335F70 
 3970      74722033 
 3970      00
 3971 22da 01       		.byte	0x1
 3972 22db 0C       		.uleb128 0xc
 3973 22dc 4F535F53 		.ascii "OS_SaveTaskPtr(task_ptr,Task_n_ptr) \0"
 3973      61766554 
 3973      61736B50 
 3973      74722874 
 3973      61736B5F 
 3974 2301 04       		.byte	0x4
 3975 2302 04       		.byte	0x4
 3976 2303 00       		.byte	0
 3977              		.section	.debug_line,"dr"
 3978              	Ldebug_line0:
 3979 0000 93040000 		.section	.debug_str,"dr"
 3979      02002903 
 3979      00000101 
 3979      FB0E0D00 
 3979      01010101 
 3980              	LASF6:
 3981 0000 73636865 		.ascii "scheduling_queue_element\0"
 3981      64756C69 
 3981      6E675F71 
 3981      75657565 
 3981      5F656C65 
 3982              	LASF3:
 3983 0019 70726976 		.ascii "privilige_mode\0"
 3983      696C6967 
 3983      655F6D6F 
 3983      646500
 3984              	LASF1:
 3985 0028 49646C65 		.ascii "IdleTask\0"
 3985      5461736B 
 3985      00
 3986              	LASF4:
 3987 0031 7461736B 		.ascii "task\0"
 3987      00
 3988              	LASF0:
 3989 0036 6578655F 		.ascii "exe_time\0"
 3989      74696D65 
 3989      00
 3990              	LASF5:
 3991 003f 656C656D 		.ascii "element_nr\0"
GAS LISTING C:\Users\PRESID~1\AppData\Local\Temp\ccPltnJh.s 			page 110


 3991      656E745F 
 3991      6E7200
 3992              	LASF2:
 3993 004a 64656661 		.ascii "default_prio\0"
 3993      756C745F 
 3993      7072696F 
 3993      00
 3994              		.ident	"GCC: (GNU) 4.9.3"
GAS LISTING C:\Users\PRESID~1\AppData\Local\Temp\ccPltnJh.s 			page 111


DEFINED SYMBOLS
                            *ABS*:00000000 os_task_queue.c
C:\Users\PRESID~1\AppData\Local\Temp\ccPltnJh.s:6      .text:00000000 _SET_RUNNING_TASK
C:\Users\PRESID~1\AppData\Local\Temp\ccPltnJh.s:182    .text:000001ff _OS_InitTaskQueue
C:\Users\PRESID~1\AppData\Local\Temp\ccPltnJh.s:239    .text:00000260 _AddToTaskQueue
C:\Users\PRESID~1\AppData\Local\Temp\ccPltnJh.s:766    .text:00000817 _DeleteFromTaskQueue
C:\Users\PRESID~1\AppData\Local\Temp\ccPltnJh.s:889    .text:00000961 _GetFromTaskQueue
C:\Users\PRESID~1\AppData\Local\Temp\ccPltnJh.s:910    .text:0000096b _GetFromSchedulingQueue
C:\Users\PRESID~1\AppData\Local\Temp\ccPltnJh.s:935    .text:00000985 _DeleteFromSchedulingQueue
C:\Users\PRESID~1\AppData\Local\Temp\ccPltnJh.s:956    .text:00000993 _AddToSchedulingQueue
C:\Users\PRESID~1\AppData\Local\Temp\ccPltnJh.s:1008   .text:000009da _UpdateSchedulingQueue
C:\Users\PRESID~1\AppData\Local\Temp\ccPltnJh.s:1083   .text:00000a66 _GetIdleTask
C:\Users\PRESID~1\AppData\Local\Temp\ccPltnJh.s:1103   .text:00000a70 _AddToIdleTaskQueue
C:\Users\PRESID~1\AppData\Local\Temp\ccPltnJh.s:1269   .text:00000c56 _GetRunningTask
C:\Users\PRESID~1\AppData\Local\Temp\ccPltnJh.s:1289   .text:00000c60 _GetRunningSchedulingQueueElementPtr
C:\Users\PRESID~1\AppData\Local\Temp\ccPltnJh.s:1309   .text:00000c6a _OS_InitTask

UNDEFINED SYMBOLS
_RUNNING_SCHEDULING_QUEUE_ENTRY
_RUNNING_TASK
_bTASK_QUEUE_INITIALIZED
_TASK_SCHEDULING_QUEUE
_TASK_RUN_QUEUE
_TASK_IDLE_QUEUE
_Assign
_OS_Task_InitTaskEnvironment
_AssignNull
_task_state_request
_AssignUint32
_OS_CreateTask
_OS_SetSwBug
