Archive member included to satisfy reference by file (symbol)

d:/programm/gnu tools arm embedded/7 2018-q2-update/bin/../lib/gcc/arm-none-eabi/7.3.1/thumb/v7e-m\libgcc.a(_arm_addsubdf3.o)
                              os_task_scheduler.o (__aeabi_ui2d)
d:/programm/gnu tools arm embedded/7 2018-q2-update/bin/../lib/gcc/arm-none-eabi/7.3.1/thumb/v7e-m\libgcc.a(_arm_cmpdf2.o)
                              os_task_scheduler.o (__aeabi_dcmpgt)

Allocating common symbols
Common symbol       size              file

TASK_STACK          0x4e20            os_ram.o
RAM_BLOCK_C01_C01   0x100             os_shared_ram.o
VAR_MEM_MANAG_FAULT_STATUS_REG
                    0x4               os_ram.o
REGISTER_R2         0x4               os_ram.o
TASK_GROUP_3        0x8               os_ram.o
RAM_CHECK_FAILURE_ADDR
                    0x4               os_ram.o
REGISTER_R0         0x4               os_ram.o
OS_STACK            0x5000            os_ram.o
RAM_BLOCK_C01_C00   0x100             os_shared_ram.o
REGISTER_R6         0x4               os_ram.o
REGISTER_R7         0x4               os_ram.o
DBG_CALIB_VALUE     0x4               os_ram.o
RAM_BLOCK_C00_C00   0x100             os_shared_ram.o
OS_STATE            0x4               os_ram.o
TASK_IDLE_QUEUE     0x88              os_ram.o
REGISTER_R9         0x4               os_ram.o
TASK1_CALL_NR       0x4               os_ram.o
bTASK_QUEUE_INITIALIZED
                    0x1               os_ram.o
BACKUP_SYSTICK_CURRENT_VAL_REG
                    0x4               os_ram.o
RAM_BLOCK_C01_C03   0x100             os_shared_ram.o
TASK2_CALL_NR       0x4               os_ram.o
LAST_CURRENT_TIME   0x4               os_ram.o
LINK_REGISTER_HANDLER
                    0x4               os_ram.o
VAR_AUX_FAULT_STATUS_REG
                    0x4               os_ram.o
REGISTER_R8         0x4               os_ram.o
TASK_3_VAR          0x88              os_ram.o
RAM_BLOCK_C03_C01   0x100             os_shared_ram.o
TASK_0_VAR          0x88              os_ram.o
RAM_BLOCK_C00_C01   0x100             os_shared_ram.o
TASK4_CALL_NR       0x4               os_ram.o
TASK_GROUP_2        0x8               os_ram.o
TASK_PTR            0x28              os_task_common.o
REGISTER_R5         0x4               os_ram.o
OS_MAIN_STACK       0x5000            os_ram.o
SAVED_STACK_POINTER
                    0x4               os_ram.o
RAM_BLOCK_C02_C01   0x100             os_shared_ram.o
DBG_RLD_VALUE       0x4               os_ram.o
REGISTER_R4         0x4               os_ram.o
RAM_BLOCK_C01_C02   0x100             os_shared_ram.o
RUNNING_TASK        0x88              os_ram.o
TASK_RUN_QUEUE      0x550             os_ram.o
VAR_HARDFAULT_STATUS_REG
                    0x4               os_ram.o
RAM_BLOCK_C03_C00   0x100             os_shared_ram.o
RUNNING_SCHEDULING_QUEUE_ENTRY
                    0x4               os_ram.o
TASK_GROUP_5        0x8               os_ram.o
REGISTER_R1         0x4               os_ram.o
RAM_BLOCK_C02_C00   0x100             os_shared_ram.o
DBG_CTRL_VALUE      0x4               os_ram.o
TASK_2_VAR          0x88              os_ram.o
VAR_BUS_FAULT_STATUS_REG
                    0x4               os_ram.o
RAM_BLOCK_C02_C02   0x100             os_shared_ram.o
RAM_CHECK_FAILURE_DETECTED
                    0x4               os_ram.o
REGISTER_R10        0x4               os_ram.o
RAM_BLOCK_C03_C03   0x100             os_shared_ram.o
RAM_BLOCK_C03_C02   0x100             os_shared_ram.o
RAM_BLOCK_C00_C03   0x100             os_shared_ram.o
HEAP                0x2710            os_ram.o
DBG_CURR_VAL        0x4               os_ram.o
TASK_GROUP_1        0x8               os_ram.o
VAR_FAULT_STATUS_REG
                    0x4               os_ram.o
TASK_GROUP_4        0x8               os_ram.o
REGISTER_R11        0x4               os_ram.o
TASK_TRANSITION_REJECTED_STATE
                    0x1               os_ram.o
TASK_TRANSITION_CURRENT_STATE
                    0x1               os_ram.o
REGISTER_R3         0x4               os_ram.o
TASK_SCHEDULING_QUEUE
                    0x28              os_ram.o
TASK3_CALL_NR       0x4               os_ram.o
VAR_MEM_FAULT_ADDR_REG
                    0x4               os_ram.o
VAR_USAGE_FAULT_STATUS_REG
                    0x4               os_ram.o
VAR_BUS_FAULT_ADDR_REG
                    0x4               os_ram.o
RAM_BLOCK_C00_C02   0x100             os_shared_ram.o
TASK_TRANSITION_REJECTED_TASK_ADDR
                    0x4               os_ram.o
OS_SW_BUG           0xf               os_ram.o
RAM_BLOCK_C02_C03   0x100             os_shared_ram.o
TASK_1_VAR          0x88              os_ram.o

Discarded input sections

 .group         0x00000000        0xc os_exception_table.o
 .group         0x00000000        0xc os_exception_table.o
 .group         0x00000000        0xc os_exception_table.o
 .group         0x00000000        0xc os_exception_table.o
 .group         0x00000000        0xc os_exception_table.o
 .group         0x00000000        0xc os_exception_table.o
 .group         0x00000000        0xc os_exception_table.o
 .group         0x00000000        0xc os_exception_table.o
 .group         0x00000000        0xc os_const.o
 .group         0x00000000        0xc os_const.o
 .group         0x00000000        0xc os_const.o
 .group         0x00000000        0xc os_const.o
 .group         0x00000000        0xc os_const.o
 .group         0x00000000        0xc os_const.o
 .group         0x00000000        0xc os_const.o
 .group         0x00000000        0xc os_const.o
 .debug_macro   0x00000000      0xa42 os_const.o
 .debug_macro   0x00000000       0x4c os_const.o
 .debug_macro   0x00000000       0x82 os_const.o
 .debug_macro   0x00000000       0x46 os_const.o
 .debug_macro   0x00000000       0x10 os_const.o
 .debug_macro   0x00000000       0x16 os_const.o
 .debug_macro   0x00000000       0x28 os_const.o
 .debug_macro   0x00000000       0x1c os_const.o
 .group         0x00000000        0xc os_common.o
 .group         0x00000000        0xc os_common.o
 .group         0x00000000        0xc os_common.o
 .group         0x00000000        0xc os_common.o
 .group         0x00000000        0xc os_common.o
 .group         0x00000000        0xc os_common.o
 .group         0x00000000        0xc os_common.o
 .group         0x00000000        0xc os_common.o
 .debug_macro   0x00000000      0xa42 os_common.o
 .debug_macro   0x00000000       0x4c os_common.o
 .debug_macro   0x00000000       0x82 os_common.o
 .debug_macro   0x00000000       0x46 os_common.o
 .debug_macro   0x00000000       0x10 os_common.o
 .debug_macro   0x00000000       0x16 os_common.o
 .debug_macro   0x00000000       0x28 os_common.o
 .debug_macro   0x00000000       0x1c os_common.o
 .group         0x00000000        0xc os_exception.o
 .group         0x00000000        0xc os_exception.o
 .group         0x00000000        0xc os_exception.o
 .group         0x00000000        0xc os_exception.o
 .group         0x00000000        0xc os_exception.o
 .group         0x00000000        0xc os_exception.o
 .group         0x00000000        0xc os_exception.o
 .group         0x00000000        0xc os_exception.o
 .group         0x00000000        0xc os_exception.o
 .group         0x00000000        0xc os_exception.o
 .debug_macro   0x00000000       0x4c os_exception.o
 .debug_macro   0x00000000       0x82 os_exception.o
 .debug_macro   0x00000000       0x46 os_exception.o
 .debug_macro   0x00000000       0x10 os_exception.o
 .debug_macro   0x00000000       0x16 os_exception.o
 .debug_macro   0x00000000       0x28 os_exception.o
 .debug_macro   0x00000000       0x1c os_exception.o
 .group         0x00000000        0xc os_exception_isr_handler.o
 .group         0x00000000        0xc os_exception_isr_handler.o
 .group         0x00000000        0xc os_exception_isr_handler.o
 .group         0x00000000        0xc os_exception_isr_handler.o
 .group         0x00000000        0xc os_exception_isr_handler.o
 .group         0x00000000        0xc os_exception_isr_handler.o
 .group         0x00000000        0xc os_exception_isr_handler.o
 .group         0x00000000        0xc os_exception_isr_handler.o
 .group         0x00000000        0xc os_exception_isr_handler.o
 .debug_macro   0x00000000      0xa42 os_exception_isr_handler.o
 .debug_macro   0x00000000       0x4c os_exception_isr_handler.o
 .debug_macro   0x00000000       0x82 os_exception_isr_handler.o
 .debug_macro   0x00000000       0x46 os_exception_isr_handler.o
 .debug_macro   0x00000000       0x10 os_exception_isr_handler.o
 .debug_macro   0x00000000       0x16 os_exception_isr_handler.o
 .debug_macro   0x00000000       0x28 os_exception_isr_handler.o
 .debug_macro   0x00000000       0x1c os_exception_isr_handler.o
 .debug_macro   0x00000000       0x28 os_exception_isr_handler.o
 .group         0x00000000        0xc os_init_task_system.o
 .group         0x00000000        0xc os_init_task_system.o
 .group         0x00000000        0xc os_init_task_system.o
 .group         0x00000000        0xc os_init_task_system.o
 .group         0x00000000        0xc os_init_task_system.o
 .group         0x00000000        0xc os_init_task_system.o
 .group         0x00000000        0xc os_init_task_system.o
 .group         0x00000000        0xc os_init_task_system.o
 .group         0x00000000        0xc os_init_task_system.o
 .debug_macro   0x00000000      0xa42 os_init_task_system.o
 .debug_macro   0x00000000       0x4c os_init_task_system.o
 .debug_macro   0x00000000       0x82 os_init_task_system.o
 .debug_macro   0x00000000       0x46 os_init_task_system.o
 .debug_macro   0x00000000       0x10 os_init_task_system.o
 .debug_macro   0x00000000       0x16 os_init_task_system.o
 .debug_macro   0x00000000       0x28 os_init_task_system.o
 .debug_macro   0x00000000       0x1c os_init_task_system.o
 .group         0x00000000        0xc os_main.o
 .group         0x00000000        0xc os_main.o
 .group         0x00000000        0xc os_main.o
 .group         0x00000000        0xc os_main.o
 .group         0x00000000        0xc os_main.o
 .group         0x00000000        0xc os_main.o
 .group         0x00000000        0xc os_main.o
 .group         0x00000000        0xc os_main.o
 .group         0x00000000        0xc os_main.o
 .group         0x00000000        0xc os_main.o
 .debug_macro   0x00000000      0xa42 os_main.o
 .debug_macro   0x00000000       0x4c os_main.o
 .debug_macro   0x00000000       0x82 os_main.o
 .debug_macro   0x00000000       0x46 os_main.o
 .debug_macro   0x00000000       0x10 os_main.o
 .debug_macro   0x00000000       0x16 os_main.o
 .debug_macro   0x00000000       0x28 os_main.o
 .debug_macro   0x00000000       0x1c os_main.o
 .debug_macro   0x00000000       0x28 os_main.o
 .debug_macro   0x00000000       0x1c os_main.o
 .group         0x00000000        0xc os_memory_mmu_setup.o
 .group         0x00000000        0xc os_memory_mmu_setup.o
 .group         0x00000000        0xc os_memory_mmu_setup.o
 .group         0x00000000        0xc os_memory_mmu_setup.o
 .group         0x00000000        0xc os_memory_mmu_setup.o
 .group         0x00000000        0xc os_memory_mmu_setup.o
 .group         0x00000000        0xc os_memory_mmu_setup.o
 .group         0x00000000        0xc os_memory_mmu_setup.o
 .debug_macro   0x00000000      0xa42 os_memory_mmu_setup.o
 .debug_macro   0x00000000       0x4c os_memory_mmu_setup.o
 .debug_macro   0x00000000       0x82 os_memory_mmu_setup.o
 .debug_macro   0x00000000       0x46 os_memory_mmu_setup.o
 .debug_macro   0x00000000       0x10 os_memory_mmu_setup.o
 .debug_macro   0x00000000       0x16 os_memory_mmu_setup.o
 .debug_macro   0x00000000       0x28 os_memory_mmu_setup.o
 .debug_macro   0x00000000       0x1c os_memory_mmu_setup.o
 .group         0x00000000        0xc os_shutdown.o
 .group         0x00000000        0xc os_shutdown.o
 .group         0x00000000        0xc os_shutdown.o
 .group         0x00000000        0xc os_shutdown.o
 .group         0x00000000        0xc os_shutdown.o
 .group         0x00000000        0xc os_shutdown.o
 .group         0x00000000        0xc os_shutdown.o
 .group         0x00000000        0xc os_shutdown.o
 .debug_macro   0x00000000      0xa42 os_shutdown.o
 .debug_macro   0x00000000       0x4c os_shutdown.o
 .debug_macro   0x00000000       0x82 os_shutdown.o
 .debug_macro   0x00000000       0x46 os_shutdown.o
 .debug_macro   0x00000000       0x10 os_shutdown.o
 .debug_macro   0x00000000       0x16 os_shutdown.o
 .debug_macro   0x00000000       0x28 os_shutdown.o
 .debug_macro   0x00000000       0x1c os_shutdown.o
 .group         0x00000000        0xc os_start_ext_prg.o
 .group         0x00000000        0xc os_start_ext_prg.o
 .group         0x00000000        0xc os_start_ext_prg.o
 .group         0x00000000        0xc os_start_ext_prg.o
 .group         0x00000000        0xc os_start_ext_prg.o
 .group         0x00000000        0xc os_start_ext_prg.o
 .group         0x00000000        0xc os_start_ext_prg.o
 .group         0x00000000        0xc os_start_ext_prg.o
 .debug_macro   0x00000000      0xa42 os_start_ext_prg.o
 .debug_macro   0x00000000       0x4c os_start_ext_prg.o
 .debug_macro   0x00000000       0x82 os_start_ext_prg.o
 .debug_macro   0x00000000       0x46 os_start_ext_prg.o
 .debug_macro   0x00000000       0x10 os_start_ext_prg.o
 .debug_macro   0x00000000       0x16 os_start_ext_prg.o
 .debug_macro   0x00000000       0x28 os_start_ext_prg.o
 .debug_macro   0x00000000       0x1c os_start_ext_prg.o
 .group         0x00000000        0xc os_start_init_hw.o
 .group         0x00000000        0xc os_start_init_hw.o
 .group         0x00000000        0xc os_start_init_hw.o
 .group         0x00000000        0xc os_start_init_hw.o
 .group         0x00000000        0xc os_start_init_hw.o
 .group         0x00000000        0xc os_start_init_hw.o
 .group         0x00000000        0xc os_start_init_hw.o
 .group         0x00000000        0xc os_start_init_hw.o
 .debug_macro   0x00000000      0xa42 os_start_init_hw.o
 .debug_macro   0x00000000       0x4c os_start_init_hw.o
 .debug_macro   0x00000000       0x82 os_start_init_hw.o
 .debug_macro   0x00000000       0x46 os_start_init_hw.o
 .debug_macro   0x00000000       0x10 os_start_init_hw.o
 .debug_macro   0x00000000       0x16 os_start_init_hw.o
 .debug_macro   0x00000000       0x28 os_start_init_hw.o
 .debug_macro   0x00000000       0x1c os_start_init_hw.o
 .group         0x00000000        0xc os_start_init_mc.o
 .group         0x00000000        0xc os_start_init_mc.o
 .group         0x00000000        0xc os_start_init_mc.o
 .group         0x00000000        0xc os_start_init_mc.o
 .group         0x00000000        0xc os_start_init_mc.o
 .group         0x00000000        0xc os_start_init_mc.o
 .group         0x00000000        0xc os_start_init_mc.o
 .group         0x00000000        0xc os_start_init_mc.o
 .debug_macro   0x00000000      0xa42 os_start_init_mc.o
 .debug_macro   0x00000000       0x4c os_start_init_mc.o
 .debug_macro   0x00000000       0x82 os_start_init_mc.o
 .debug_macro   0x00000000       0x46 os_start_init_mc.o
 .debug_macro   0x00000000       0x10 os_start_init_mc.o
 .debug_macro   0x00000000       0x16 os_start_init_mc.o
 .debug_macro   0x00000000       0x28 os_start_init_mc.o
 .debug_macro   0x00000000       0x1c os_start_init_mc.o
 .group         0x00000000        0xc os_start_init_sw.o
 .group         0x00000000        0xc os_start_init_sw.o
 .group         0x00000000        0xc os_start_init_sw.o
 .group         0x00000000        0xc os_start_init_sw.o
 .group         0x00000000        0xc os_start_init_sw.o
 .group         0x00000000        0xc os_start_init_sw.o
 .group         0x00000000        0xc os_start_init_sw.o
 .group         0x00000000        0xc os_start_init_sw.o
 .debug_macro   0x00000000      0xa42 os_start_init_sw.o
 .debug_macro   0x00000000       0x4c os_start_init_sw.o
 .debug_macro   0x00000000       0x82 os_start_init_sw.o
 .debug_macro   0x00000000       0x46 os_start_init_sw.o
 .debug_macro   0x00000000       0x10 os_start_init_sw.o
 .debug_macro   0x00000000       0x16 os_start_init_sw.o
 .debug_macro   0x00000000       0x28 os_start_init_sw.o
 .debug_macro   0x00000000       0x1c os_start_init_sw.o
 .group         0x00000000        0xc os_start_os.o
 .group         0x00000000        0xc os_start_os.o
 .group         0x00000000        0xc os_start_os.o
 .group         0x00000000        0xc os_start_os.o
 .group         0x00000000        0xc os_start_os.o
 .group         0x00000000        0xc os_start_os.o
 .group         0x00000000        0xc os_start_os.o
 .group         0x00000000        0xc os_start_os.o
 .debug_macro   0x00000000      0xa42 os_start_os.o
 .debug_macro   0x00000000       0x4c os_start_os.o
 .debug_macro   0x00000000       0x82 os_start_os.o
 .debug_macro   0x00000000       0x46 os_start_os.o
 .debug_macro   0x00000000       0x10 os_start_os.o
 .debug_macro   0x00000000       0x16 os_start_os.o
 .debug_macro   0x00000000       0x28 os_start_os.o
 .debug_macro   0x00000000       0x1c os_start_os.o
 .group         0x00000000        0xc os_task_common.o
 .group         0x00000000        0xc os_task_common.o
 .group         0x00000000        0xc os_task_common.o
 .group         0x00000000        0xc os_task_common.o
 .group         0x00000000        0xc os_task_common.o
 .group         0x00000000        0xc os_task_common.o
 .group         0x00000000        0xc os_task_common.o
 .group         0x00000000        0xc os_task_common.o
 .group         0x00000000        0xc os_task_common.o
 .debug_macro   0x00000000      0xa42 os_task_common.o
 .debug_macro   0x00000000       0x4c os_task_common.o
 .debug_macro   0x00000000       0x82 os_task_common.o
 .debug_macro   0x00000000       0x46 os_task_common.o
 .debug_macro   0x00000000       0x10 os_task_common.o
 .debug_macro   0x00000000       0x16 os_task_common.o
 .debug_macro   0x00000000       0x28 os_task_common.o
 .debug_macro   0x00000000       0x1c os_task_common.o
 .debug_macro   0x00000000       0x28 os_task_common.o
 .group         0x00000000        0xc os_task_queue.o
 .group         0x00000000        0xc os_task_queue.o
 .group         0x00000000        0xc os_task_queue.o
 .group         0x00000000        0xc os_task_queue.o
 .group         0x00000000        0xc os_task_queue.o
 .group         0x00000000        0xc os_task_queue.o
 .group         0x00000000        0xc os_task_queue.o
 .group         0x00000000        0xc os_task_queue.o
 .group         0x00000000        0xc os_task_queue.o
 .group         0x00000000        0xc os_task_queue.o
 .debug_macro   0x00000000      0xa42 os_task_queue.o
 .debug_macro   0x00000000       0x4c os_task_queue.o
 .debug_macro   0x00000000       0x82 os_task_queue.o
 .debug_macro   0x00000000       0x46 os_task_queue.o
 .debug_macro   0x00000000       0x10 os_task_queue.o
 .debug_macro   0x00000000       0x16 os_task_queue.o
 .debug_macro   0x00000000       0x28 os_task_queue.o
 .debug_macro   0x00000000       0x1c os_task_queue.o
 .debug_macro   0x00000000       0x1c os_task_queue.o
 .debug_macro   0x00000000       0x28 os_task_queue.o
 .group         0x00000000        0xc os_task_scheduler.o
 .group         0x00000000        0xc os_task_scheduler.o
 .group         0x00000000        0xc os_task_scheduler.o
 .group         0x00000000        0xc os_task_scheduler.o
 .group         0x00000000        0xc os_task_scheduler.o
 .group         0x00000000        0xc os_task_scheduler.o
 .group         0x00000000        0xc os_task_scheduler.o
 .group         0x00000000        0xc os_task_scheduler.o
 .group         0x00000000        0xc os_task_scheduler.o
 .group         0x00000000        0xc os_task_scheduler.o
 .debug_macro   0x00000000      0xa42 os_task_scheduler.o
 .debug_macro   0x00000000       0x4c os_task_scheduler.o
 .debug_macro   0x00000000       0x82 os_task_scheduler.o
 .debug_macro   0x00000000       0x46 os_task_scheduler.o
 .debug_macro   0x00000000       0x10 os_task_scheduler.o
 .debug_macro   0x00000000       0x16 os_task_scheduler.o
 .debug_macro   0x00000000       0x28 os_task_scheduler.o
 .debug_macro   0x00000000       0x1c os_task_scheduler.o
 .debug_macro   0x00000000       0x28 os_task_scheduler.o
 .debug_macro   0x00000000       0x1c os_task_scheduler.o
 .group         0x00000000        0xc os_stack.o
 .group         0x00000000        0xc os_stack.o
 .group         0x00000000        0xc os_stack.o
 .group         0x00000000        0xc os_stack.o
 .group         0x00000000        0xc os_stack.o
 .group         0x00000000        0xc os_stack.o
 .group         0x00000000        0xc os_stack.o
 .group         0x00000000        0xc os_stack.o
 .debug_macro   0x00000000      0xa42 os_stack.o
 .debug_macro   0x00000000       0x4c os_stack.o
 .debug_macro   0x00000000       0x82 os_stack.o
 .debug_macro   0x00000000       0x46 os_stack.o
 .debug_macro   0x00000000       0x10 os_stack.o
 .debug_macro   0x00000000       0x16 os_stack.o
 .debug_macro   0x00000000       0x28 os_stack.o
 .debug_macro   0x00000000       0x1c os_stack.o
 .group         0x00000000        0xc os_heap.o
 .group         0x00000000        0xc os_heap.o
 .group         0x00000000        0xc os_heap.o
 .group         0x00000000        0xc os_heap.o
 .group         0x00000000        0xc os_heap.o
 .group         0x00000000        0xc os_heap.o
 .group         0x00000000        0xc os_heap.o
 .group         0x00000000        0xc os_heap.o
 .debug_macro   0x00000000      0xa42 os_heap.o
 .debug_macro   0x00000000       0x4c os_heap.o
 .debug_macro   0x00000000       0x82 os_heap.o
 .debug_macro   0x00000000       0x46 os_heap.o
 .debug_macro   0x00000000       0x10 os_heap.o
 .debug_macro   0x00000000       0x16 os_heap.o
 .debug_macro   0x00000000       0x28 os_heap.o
 .debug_macro   0x00000000       0x1c os_heap.o
 .group         0x00000000        0xc led.o
 .group         0x00000000        0xc led.o
 .group         0x00000000        0xc led.o
 .group         0x00000000        0xc led.o
 .group         0x00000000        0xc led.o
 .group         0x00000000        0xc led.o
 .group         0x00000000        0xc led.o
 .group         0x00000000        0xc led.o
 .debug_macro   0x00000000      0xa42 led.o
 .debug_macro   0x00000000       0x4c led.o
 .debug_macro   0x00000000       0x82 led.o
 .debug_macro   0x00000000       0x46 led.o
 .debug_macro   0x00000000       0x10 led.o
 .debug_macro   0x00000000       0x16 led.o
 .debug_macro   0x00000000       0x28 led.o
 .debug_macro   0x00000000       0x1c led.o
 .group         0x00000000        0xc os_ram.o
 .group         0x00000000        0xc os_ram.o
 .group         0x00000000        0xc os_ram.o
 .group         0x00000000        0xc os_ram.o
 .group         0x00000000        0xc os_ram.o
 .group         0x00000000        0xc os_ram.o
 .group         0x00000000        0xc os_ram.o
 .group         0x00000000        0xc os_ram.o
 .debug_macro   0x00000000      0xa42 os_ram.o
 .debug_macro   0x00000000       0x4c os_ram.o
 .debug_macro   0x00000000       0x82 os_ram.o
 .debug_macro   0x00000000       0x46 os_ram.o
 .debug_macro   0x00000000       0x10 os_ram.o
 .debug_macro   0x00000000       0x16 os_ram.o
 .debug_macro   0x00000000       0x28 os_ram.o
 .debug_macro   0x00000000       0x1c os_ram.o
 .group         0x00000000        0xc os_shared_ram.o
 .group         0x00000000        0xc os_shared_ram.o
 .group         0x00000000        0xc os_shared_ram.o
 .group         0x00000000        0xc os_shared_ram.o
 .group         0x00000000        0xc os_shared_ram.o
 .group         0x00000000        0xc os_shared_ram.o
 .group         0x00000000        0xc os_shared_ram.o
 .group         0x00000000        0xc os_shared_ram.o
 .debug_macro   0x00000000      0xa42 os_shared_ram.o
 .debug_macro   0x00000000       0x4c os_shared_ram.o
 .debug_macro   0x00000000       0x82 os_shared_ram.o
 .debug_macro   0x00000000       0x46 os_shared_ram.o
 .debug_macro   0x00000000       0x10 os_shared_ram.o
 .debug_macro   0x00000000       0x16 os_shared_ram.o
 .debug_macro   0x00000000       0x28 os_shared_ram.o
 .debug_macro   0x00000000       0x1c os_shared_ram.o

Memory Configuration

Name             Origin             Length             Attributes
rom              0x08000000         0x00100000
ram              0x20000000         0x00030000
*default*        0x00000000         0xffffffff

Linker script and memory map


.text           0x08000000    0x18a24
                0x08000000                _ivec_start = .
 os_exception_table.o()
 .text          0x08000000        0x0 os_exception_table.o
 .data          0x08000000      0x400 os_exception_table.o
                0x08000000                isr_vec_table
 .bss           0x08000400        0x0 os_exception_table.o
 .debug_info    0x08000400      0x681 os_exception_table.o
 .debug_abbrev  0x08000a81      0x104 os_exception_table.o
 .debug_aranges
                0x08000b85       0x18 os_exception_table.o
 .debug_macro   0x08000b9d       0xa8 os_exception_table.o
 .debug_macro   0x08000c45      0xa42 os_exception_table.o
 .debug_macro   0x08001687       0x4c os_exception_table.o
 .debug_macro   0x080016d3       0x82 os_exception_table.o
 .debug_macro   0x08001755       0x46 os_exception_table.o
 .debug_macro   0x0800179b       0x10 os_exception_table.o
 .debug_macro   0x080017ab       0x16 os_exception_table.o
 .debug_macro   0x080017c1       0x28 os_exception_table.o
 .debug_macro   0x080017e9       0x1c os_exception_table.o
 .debug_line    0x08001805      0x1ec os_exception_table.o
 .debug_str     0x080019f1     0x394f os_exception_table.o
                               0x39ec (size before relaxing)
 .comment       0x08005340       0x7f os_exception_table.o
                                 0x80 (size before relaxing)
 .ARM.attributes
                0x080053bf       0x33 os_exception_table.o
 .iplt          0x080053f2        0x0 os_exception_table.o
 .rel.iplt      0x080053f2        0x0 os_exception_table.o
 .igot.plt      0x080053f2        0x0 os_exception_table.o
                0x080053f2                _ivec_end = .
                [!provide]                PROVIDE (ivec_start = .)
                [!provide]                PROVIDE (ivec_end = .)
                0x080053f2                _const_start = .
 os_const.o()
 .text          0x080053f2        0x0 os_const.o
 .data          0x080053f2        0x0 os_const.o
 .bss           0x080053f2        0x0 os_const.o
 .debug_info    0x080053f2      0x643 os_const.o
 .debug_abbrev  0x08005a35       0xec os_const.o
 .debug_aranges
                0x08005b21       0x18 os_const.o
 .debug_macro   0x08005b39       0x9e os_const.o
 .debug_line    0x08005bd7      0x1c4 os_const.o
 .debug_str     0x08005d9b       0x46 os_const.o
                               0x39a5 (size before relaxing)
 .comment       0x08005de1       0x80 os_const.o
 .ARM.attributes
                0x08005de1       0x33 os_const.o
                0x08005e61                _const_end = .
                [!provide]                PROVIDE (const_start = .)
                [!provide]                PROVIDE (const_end = .)
                0x08005e61                _code_start = .
 lld_global.o()
 .text          0x08005e14      0x14c E:\NeuOrga\Programmieren\c_cpp\github_os\output\os_drivers\obj_arm\lld_global.o
                0x08005e14                OS_GetCoreId
                0x08005e1a                LLF_SAVE_TASK_STACK
                0x08005e20                LLF_SAVE_REGISTERS
                0x08005e5a                LLF_RESTORE_TASK_STACK
                0x08005e60                LLF_RESTORE_REGISTERS
                0x08005e82                LLF_RESTORE_SYSTEM_STACK
                0x08005e88                LLF_SAVE_SYSTEM_STACK
                0x08005e8e                LLF_CLEAR_ALL_GP_REGISTERS
                0x08005ec0                LLF_PERFORM_RAM_CHECK
                0x08005f0c                LLF_CHANGE_TO_UNPRIVILIGED_THREAD_MODE
 .data          0x08005f60        0x0 E:\NeuOrga\Programmieren\c_cpp\github_os\output\os_drivers\obj_arm\lld_global.o
 .bss           0x08005f60        0x0 E:\NeuOrga\Programmieren\c_cpp\github_os\output\os_drivers\obj_arm\lld_global.o
 .debug_line    0x08005f60       0xf6 E:\NeuOrga\Programmieren\c_cpp\github_os\output\os_drivers\obj_arm\lld_global.o
 .debug_info    0x08006056       0x26 E:\NeuOrga\Programmieren\c_cpp\github_os\output\os_drivers\obj_arm\lld_global.o
 .debug_abbrev  0x0800607c       0x14 E:\NeuOrga\Programmieren\c_cpp\github_os\output\os_drivers\obj_arm\lld_global.o
 .debug_aranges
                0x08006090       0x20 E:\NeuOrga\Programmieren\c_cpp\github_os\output\os_drivers\obj_arm\lld_global.o
 .debug_str     0x080060b0       0x59 E:\NeuOrga\Programmieren\c_cpp\github_os\output\os_drivers\obj_arm\lld_global.o
                                 0x91 (size before relaxing)
 .ARM.attributes
                0x08006109       0x21 E:\NeuOrga\Programmieren\c_cpp\github_os\output\os_drivers\obj_arm\lld_global.o
 lld_interrupt.o()
 .text          0x0800612a       0x14 E:\NeuOrga\Programmieren\c_cpp\github_os\output\os_drivers\obj_arm\lld_interrupt.o
                0x0800612a                LLF_INT_DISABLE
                0x08006130                LLF_INT_ENABLE
                0x08006136                LLF_DISABLE_INTERRUPTS_ALL_CORES
                0x0800613c                LLF_WAIT_FOR_INTERRUPT
 .data          0x0800613e        0x0 E:\NeuOrga\Programmieren\c_cpp\github_os\output\os_drivers\obj_arm\lld_interrupt.o
 .bss           0x0800613e        0x0 E:\NeuOrga\Programmieren\c_cpp\github_os\output\os_drivers\obj_arm\lld_interrupt.o
 .debug_line    0x0800613e       0x85 E:\NeuOrga\Programmieren\c_cpp\github_os\output\os_drivers\obj_arm\lld_interrupt.o
 .debug_info    0x080061c3       0x26 E:\NeuOrga\Programmieren\c_cpp\github_os\output\os_drivers\obj_arm\lld_interrupt.o
 .debug_abbrev  0x080061e9       0x14 E:\NeuOrga\Programmieren\c_cpp\github_os\output\os_drivers\obj_arm\lld_interrupt.o
 *fill*         0x080061fd        0x3 
 .debug_aranges
                0x08006200       0x20 E:\NeuOrga\Programmieren\c_cpp\github_os\output\os_drivers\obj_arm\lld_interrupt.o
 .debug_str     0x08006220       0x4e E:\NeuOrga\Programmieren\c_cpp\github_os\output\os_drivers\obj_arm\lld_interrupt.o
                                 0x94 (size before relaxing)
 .ARM.attributes
                0x0800626e       0x21 E:\NeuOrga\Programmieren\c_cpp\github_os\output\os_drivers\obj_arm\lld_interrupt.o
 lld_mmu.o()
 *fill*         0x0800628f        0x1 
 .text          0x08006290        0xc E:\NeuOrga\Programmieren\c_cpp\github_os\output\os_drivers\obj_arm\lld_mmu.o
                0x08006290                LLF_MPU_DISABLE
                0x08006294                LLF_MPU_SWITCH_OFF_ALL_REGIONS
                0x08006296                LLF_GET_MPU_PRESENT
 .data          0x0800629c        0x0 E:\NeuOrga\Programmieren\c_cpp\github_os\output\os_drivers\obj_arm\lld_mmu.o
 .bss           0x0800629c        0x0 E:\NeuOrga\Programmieren\c_cpp\github_os\output\os_drivers\obj_arm\lld_mmu.o
 .debug_line    0x0800629c       0x7d E:\NeuOrga\Programmieren\c_cpp\github_os\output\os_drivers\obj_arm\lld_mmu.o
 .debug_info    0x08006319       0x26 E:\NeuOrga\Programmieren\c_cpp\github_os\output\os_drivers\obj_arm\lld_mmu.o
 .debug_abbrev  0x0800633f       0x14 E:\NeuOrga\Programmieren\c_cpp\github_os\output\os_drivers\obj_arm\lld_mmu.o
 *fill*         0x08006353        0x5 
 .debug_aranges
                0x08006358       0x20 E:\NeuOrga\Programmieren\c_cpp\github_os\output\os_drivers\obj_arm\lld_mmu.o
 .debug_str     0x08006378       0x48 E:\NeuOrga\Programmieren\c_cpp\github_os\output\os_drivers\obj_arm\lld_mmu.o
                                 0x8e (size before relaxing)
 .ARM.attributes
                0x080063c0       0x21 E:\NeuOrga\Programmieren\c_cpp\github_os\output\os_drivers\obj_arm\lld_mmu.o
 lld_ram.o()
 *fill*         0x080063e1        0x3 
 .text          0x080063e4       0xa0 E:\NeuOrga\Programmieren\c_cpp\github_os\output\os_drivers\obj_arm\lld_ram.o
                0x080063e4                INIT_OS_STACK
                0x080063fe                LLF_CLEAR_ALL_RAM
 .data          0x08006484        0x0 E:\NeuOrga\Programmieren\c_cpp\github_os\output\os_drivers\obj_arm\lld_ram.o
 .bss           0x08006484        0x0 E:\NeuOrga\Programmieren\c_cpp\github_os\output\os_drivers\obj_arm\lld_ram.o
 .debug_line    0x08006484       0xad E:\NeuOrga\Programmieren\c_cpp\github_os\output\os_drivers\obj_arm\lld_ram.o
 .debug_info    0x08006531       0x26 E:\NeuOrga\Programmieren\c_cpp\github_os\output\os_drivers\obj_arm\lld_ram.o
 .debug_abbrev  0x08006557       0x14 E:\NeuOrga\Programmieren\c_cpp\github_os\output\os_drivers\obj_arm\lld_ram.o
 *fill*         0x0800656b        0x5 
 .debug_aranges
                0x08006570       0x20 E:\NeuOrga\Programmieren\c_cpp\github_os\output\os_drivers\obj_arm\lld_ram.o
 .debug_str     0x08006590       0x48 E:\NeuOrga\Programmieren\c_cpp\github_os\output\os_drivers\obj_arm\lld_ram.o
                                 0x8e (size before relaxing)
 .ARM.attributes
                0x080065d8       0x21 E:\NeuOrga\Programmieren\c_cpp\github_os\output\os_drivers\obj_arm\lld_ram.o
 lld_timer.o()
 .text          0x080065f9        0x0 E:\NeuOrga\Programmieren\c_cpp\github_os\output\os_drivers\obj_arm\lld_timer.o
 .data          0x080065f9        0x0 E:\NeuOrga\Programmieren\c_cpp\github_os\output\os_drivers\obj_arm\lld_timer.o
 .bss           0x080065f9        0x0 E:\NeuOrga\Programmieren\c_cpp\github_os\output\os_drivers\obj_arm\lld_timer.o
 .ARM.attributes
                0x080065f9       0x21 E:\NeuOrga\Programmieren\c_cpp\github_os\output\os_drivers\obj_arm\lld_timer.o
 lld_power.o()
 *fill*         0x0800661a        0x2 
 .text          0x0800661c       0x20 E:\NeuOrga\Programmieren\c_cpp\github_os\output\os_drivers\obj_arm\lld_power.o
                0x0800661c                LLF_MCU_SWITCH_OFF_POWER
                0x08006622                LLF_MCU_RESET_POWER
 .data          0x0800663c        0x0 E:\NeuOrga\Programmieren\c_cpp\github_os\output\os_drivers\obj_arm\lld_power.o
 .bss           0x0800663c        0x0 E:\NeuOrga\Programmieren\c_cpp\github_os\output\os_drivers\obj_arm\lld_power.o
 .debug_line    0x0800663c       0x87 E:\NeuOrga\Programmieren\c_cpp\github_os\output\os_drivers\obj_arm\lld_power.o
 .debug_info    0x080066c3       0x26 E:\NeuOrga\Programmieren\c_cpp\github_os\output\os_drivers\obj_arm\lld_power.o
 .debug_abbrev  0x080066e9       0x14 E:\NeuOrga\Programmieren\c_cpp\github_os\output\os_drivers\obj_arm\lld_power.o
 *fill*         0x080066fd        0x3 
 .debug_aranges
                0x08006700       0x20 E:\NeuOrga\Programmieren\c_cpp\github_os\output\os_drivers\obj_arm\lld_power.o
 .debug_str     0x08006720       0x4a E:\NeuOrga\Programmieren\c_cpp\github_os\output\os_drivers\obj_arm\lld_power.o
                                 0x90 (size before relaxing)
 .ARM.attributes
                0x0800676a       0x21 E:\NeuOrga\Programmieren\c_cpp\github_os\output\os_drivers\obj_arm\lld_power.o
 os_exception_reset.o()
 *fill*         0x0800678b        0x1 
 .text          0x0800678c       0x2c E:\NeuOrga\Programmieren\c_cpp\github_os\output\os_drivers\obj_arm\os_exception_reset.o
                0x0800678c                OS_Exception_RESET
                0x080067ac                START_OS
 .data          0x080067b8        0x0 E:\NeuOrga\Programmieren\c_cpp\github_os\output\os_drivers\obj_arm\os_exception_reset.o
 .bss           0x080067b8        0x0 E:\NeuOrga\Programmieren\c_cpp\github_os\output\os_drivers\obj_arm\os_exception_reset.o
 .debug_line    0x080067b8       0x8d E:\NeuOrga\Programmieren\c_cpp\github_os\output\os_drivers\obj_arm\os_exception_reset.o
 .debug_info    0x08006845       0x26 E:\NeuOrga\Programmieren\c_cpp\github_os\output\os_drivers\obj_arm\os_exception_reset.o
 .debug_abbrev  0x0800686b       0x14 E:\NeuOrga\Programmieren\c_cpp\github_os\output\os_drivers\obj_arm\os_exception_reset.o
 *fill*         0x0800687f        0x1 
 .debug_aranges
                0x08006880       0x20 E:\NeuOrga\Programmieren\c_cpp\github_os\output\os_drivers\obj_arm\os_exception_reset.o
 .debug_str     0x080068a0       0x50 E:\NeuOrga\Programmieren\c_cpp\github_os\output\os_drivers\obj_arm\os_exception_reset.o
                                 0x96 (size before relaxing)
 .ARM.attributes
                0x080068f0       0x21 E:\NeuOrga\Programmieren\c_cpp\github_os\output\os_drivers\obj_arm\os_exception_reset.o
 os_common.o()
 *fill*         0x08006911        0x3 
 .text          0x08006914       0x38 os_common.o
                0x08006914                OS_SetSwBug
                0x0800693c                OS_GetCurrentTime
 .data          0x0800694c        0x0 os_common.o
 .bss           0x0800694c        0x0 os_common.o
 .debug_info    0x0800694c      0x70b os_common.o
 .debug_abbrev  0x08007057      0x131 os_common.o
 .debug_aranges
                0x08007188       0x20 os_common.o
 .debug_macro   0x080071a8       0xa2 os_common.o
 .debug_line    0x0800724a      0x1eb os_common.o
 .debug_str     0x08007435      0x1e9 os_common.o
                               0x3b48 (size before relaxing)
 .comment       0x0800761e       0x80 os_common.o
 *fill*         0x0800761e        0x2 
 .debug_frame   0x08007620       0x5c os_common.o
 .ARM.attributes
                0x0800767c       0x33 os_common.o
 os_exception.o()
 *fill*         0x080076af        0x1 
 .text          0x080076b0      0x274 os_exception.o
                0x08007738                OS_Exception_HARDFAULT
                0x08007750                OS_Exception_NMI
                0x08007768                OS_Exception_SWI
                0x08007780                OS_Exception_BUS_FAULT
                0x08007798                OS_Exception_DEBUG
                0x080077a2                OS_Exception_MEM_MANAG_FAULT
                0x080077b8                OS_Exception_USAGE_FAULT
                0x080077d0                OS_Exception_PendSV
                0x080077d6                OS_Exception_Systick
                0x0800790c                OS_Exception_IRQ
                0x08007918                OS_Exception_FIQ
 .data          0x08007924        0x0 os_exception.o
 .bss           0x08007924        0x0 os_exception.o
 .debug_info    0x08007924      0x772 os_exception.o
 .debug_abbrev  0x08008096      0x15f os_exception.o
 .debug_aranges
                0x080081f5       0x20 os_exception.o
 .debug_macro   0x08008215      0x13b os_exception.o
 .debug_macro   0x08008350      0xa3c os_exception.o
 .debug_macro   0x08008d8c       0x1c os_exception.o
 .debug_macro   0x08008da8       0x28 os_exception.o
 .debug_line    0x08008dd0      0x2b5 os_exception.o
 .debug_str     0x08009085      0x64f os_exception.o
                               0x3f53 (size before relaxing)
 .comment       0x080096d4       0x80 os_exception.o
 .debug_frame   0x080096d4      0x174 os_exception.o
 .ARM.attributes
                0x08009848       0x33 os_exception.o
 os_exception_isr_handler.o()
 *fill*         0x0800987b        0x1 
 .text          0x0800987c        0xc os_exception_isr_handler.o
                0x0800987c                OS_ISRHANDLERC0
 .data          0x08009888        0x0 os_exception_isr_handler.o
 .bss           0x08009888        0x0 os_exception_isr_handler.o
 .debug_info    0x08009888      0x65c os_exception_isr_handler.o
 .debug_abbrev  0x08009ee4      0x108 os_exception_isr_handler.o
 .debug_aranges
                0x08009fec       0x20 os_exception_isr_handler.o
 .debug_macro   0x0800a00c       0xab os_exception_isr_handler.o
 .debug_line    0x0800a0b7      0x20d os_exception_isr_handler.o
 .debug_str     0x0800a2c4       0x66 os_exception_isr_handler.o
                               0x3a35 (size before relaxing)
 .comment       0x0800a32a       0x80 os_exception_isr_handler.o
 *fill*         0x0800a32a        0x2 
 .debug_frame   0x0800a32c       0x34 os_exception_isr_handler.o
 .ARM.attributes
                0x0800a360       0x33 os_exception_isr_handler.o
 os_exception_table.o()
 os_init_task_system.o()
 *fill*         0x0800a393        0x1 
 .text          0x0800a394        0xc os_init_task_system.o
                0x0800a394                OS_InitTaskSystem
 .data          0x0800a3a0        0x0 os_init_task_system.o
 .bss           0x0800a3a0        0x0 os_init_task_system.o
 .debug_info    0x0800a3a0      0x65c os_init_task_system.o
 .debug_abbrev  0x0800a9fc      0x108 os_init_task_system.o
 .debug_aranges
                0x0800ab04       0x20 os_init_task_system.o
 .debug_macro   0x0800ab24       0xb1 os_init_task_system.o
 .debug_macro   0x0800abd5       0x22 os_init_task_system.o
 .debug_line    0x0800abf7      0x209 os_init_task_system.o
 .debug_str     0x0800ae00       0x63 os_init_task_system.o
                               0x3a32 (size before relaxing)
 .comment       0x0800ae63       0x80 os_init_task_system.o
 *fill*         0x0800ae63        0x1 
 .debug_frame   0x0800ae64       0x2c os_init_task_system.o
 .ARM.attributes
                0x0800ae90       0x33 os_init_task_system.o
 os_main.o()
 *fill*         0x0800aec3        0x1 
 .text          0x0800aec4      0x148 os_main.o
                0x0800af4c                OS_StateHandler
 .data          0x0800b00c        0x0 os_main.o
 .bss           0x0800b00c        0x9 os_main.o
 .debug_info    0x0800b015      0x6f9 os_main.o
 .debug_abbrev  0x0800b70e      0x12f os_main.o
 .debug_aranges
                0x0800b83d       0x20 os_main.o
 .debug_macro   0x0800b85d       0xdc os_main.o
 .debug_line    0x0800b939      0x29d os_main.o
 .debug_str     0x0800bbd6      0x125 os_main.o
                               0x3bdd (size before relaxing)
 .comment       0x0800bcfb       0x80 os_main.o
 *fill*         0x0800bcfb        0x1 
 .debug_frame   0x0800bcfc       0x48 os_main.o
 .ARM.attributes
                0x0800bd44       0x33 os_main.o
 os_memory_mmu_setup.o()
 *fill*         0x0800bd77        0x1 
 .text          0x0800bd78        0xc os_memory_mmu_setup.o
                0x0800bd78                OS_MmuSetup
 .data          0x0800bd84        0x0 os_memory_mmu_setup.o
 .bss           0x0800bd84        0x0 os_memory_mmu_setup.o
 .debug_info    0x0800bd84      0x65c os_memory_mmu_setup.o
 .debug_abbrev  0x0800c3e0      0x108 os_memory_mmu_setup.o
 .debug_aranges
                0x0800c4e8       0x20 os_memory_mmu_setup.o
 .debug_macro   0x0800c508       0xda os_memory_mmu_setup.o
 .debug_line    0x0800c5e2      0x1df os_memory_mmu_setup.o
 .debug_str     0x0800c7c1      0x1cb os_memory_mmu_setup.o
                               0x3b2a (size before relaxing)
 .comment       0x0800c98c       0x80 os_memory_mmu_setup.o
 .debug_frame   0x0800c98c       0x34 os_memory_mmu_setup.o
 .ARM.attributes
                0x0800c9c0       0x33 os_memory_mmu_setup.o
 os_shutdown.o()
 *fill*         0x0800c9f3        0x1 
 .text          0x0800c9f4       0x6c os_shutdown.o
                0x0800ca0c                OS_DeinitMc
                0x0800ca18                OS_Shutdown
 .data          0x0800ca60        0x0 os_shutdown.o
 .bss           0x0800ca60        0x0 os_shutdown.o
 .debug_info    0x0800ca60      0x6e3 os_shutdown.o
 .debug_abbrev  0x0800d143      0x14e os_shutdown.o
 .debug_aranges
                0x0800d291       0x20 os_shutdown.o
 .debug_macro   0x0800d2b1       0xb2 os_shutdown.o
 .debug_line    0x0800d363      0x211 os_shutdown.o
 .debug_str     0x0800d574       0xa9 os_shutdown.o
                               0x3a68 (size before relaxing)
 .comment       0x0800d61d       0x80 os_shutdown.o
 *fill*         0x0800d61d        0x3 
 .debug_frame   0x0800d620       0x9c os_shutdown.o
 .ARM.attributes
                0x0800d6bc       0x33 os_shutdown.o
 os_start_ext_prg.o()
 *fill*         0x0800d6ef        0x1 
 .text          0x0800d6f0       0x4a os_start_ext_prg.o
                0x0800d708                OS_StartExtPrg
 .data          0x0800d73a        0x0 os_start_ext_prg.o
 .bss           0x0800d73a        0x0 os_start_ext_prg.o
 .debug_info    0x0800d73a      0x6dd os_start_ext_prg.o
 .debug_abbrev  0x0800de17      0x138 os_start_ext_prg.o
 .debug_aranges
                0x0800df4f       0x20 os_start_ext_prg.o
 .debug_macro   0x0800df6f       0x9e os_start_ext_prg.o
 .debug_line    0x0800e00d      0x1ea os_start_ext_prg.o
 .debug_str     0x0800e1f7       0x90 os_start_ext_prg.o
                               0x39fa (size before relaxing)
 .comment       0x0800e287       0x80 os_start_ext_prg.o
 *fill*         0x0800e287        0x1 
 .debug_frame   0x0800e288       0x60 os_start_ext_prg.o
 .ARM.attributes
                0x0800e2e8       0x33 os_start_ext_prg.o
 os_start_init_hw.o()
 *fill*         0x0800e31b        0x1 
 .text          0x0800e31c        0xc os_start_init_hw.o
                0x0800e31c                OS_InitHw
 .data          0x0800e328        0x0 os_start_init_hw.o
 .bss           0x0800e328        0x0 os_start_init_hw.o
 .debug_info    0x0800e328      0x65c os_start_init_hw.o
 .debug_abbrev  0x0800e984      0x108 os_start_init_hw.o
 .debug_aranges
                0x0800ea8c       0x20 os_start_init_hw.o
 .debug_macro   0x0800eaac       0x9e os_start_init_hw.o
 .debug_line    0x0800eb4a      0x1da os_start_init_hw.o
 .debug_str     0x0800ed24       0x58 os_start_init_hw.o
                               0x39b7 (size before relaxing)
 .comment       0x0800ed7c       0x80 os_start_init_hw.o
 .debug_frame   0x0800ed7c       0x34 os_start_init_hw.o
 .ARM.attributes
                0x0800edb0       0x33 os_start_init_hw.o
 os_start_init_mc.o()
 *fill*         0x0800ede3        0x1 
 .text          0x0800ede4        0xc os_start_init_mc.o
                0x0800ede4                OS_InitMc
 .data          0x0800edf0        0x0 os_start_init_mc.o
 .bss           0x0800edf0        0x0 os_start_init_mc.o
 .debug_info    0x0800edf0      0x65c os_start_init_mc.o
 .debug_abbrev  0x0800f44c      0x108 os_start_init_mc.o
 .debug_aranges
                0x0800f554       0x20 os_start_init_mc.o
 .debug_macro   0x0800f574       0xa8 os_start_init_mc.o
 .debug_line    0x0800f61c      0x1f0 os_start_init_mc.o
 .debug_str     0x0800f80c       0x58 os_start_init_mc.o
                               0x39cd (size before relaxing)
 .comment       0x0800f864       0x80 os_start_init_mc.o
 .debug_frame   0x0800f864       0x34 os_start_init_mc.o
 .ARM.attributes
                0x0800f898       0x33 os_start_init_mc.o
 os_start_init_sw.o()
 *fill*         0x0800f8cb        0x1 
 .text          0x0800f8cc       0x70 os_start_init_sw.o
                0x0800f8cc                OS_InitSw
 .data          0x0800f93c        0x0 os_start_init_sw.o
 .bss           0x0800f93c        0x0 os_start_init_sw.o
 .debug_info    0x0800f93c      0x669 os_start_init_sw.o
 .debug_abbrev  0x0800ffa5      0x117 os_start_init_sw.o
 .debug_aranges
                0x080100bc       0x20 os_start_init_sw.o
 .debug_macro   0x080100dc       0x9e os_start_init_sw.o
 .debug_line    0x0801017a      0x1f3 os_start_init_sw.o
 .debug_str     0x0801036d       0x58 os_start_init_sw.o
                               0x39b7 (size before relaxing)
 .comment       0x080103c5       0x80 os_start_init_sw.o
 *fill*         0x080103c5        0x3 
 .debug_frame   0x080103c8       0x38 os_start_init_sw.o
 .ARM.attributes
                0x08010400       0x33 os_start_init_sw.o
 os_start_os.o()
 *fill*         0x08010433        0x1 
 .text          0x08010434       0x8c os_start_os.o
                0x08010434                OS_StartOs
 .data          0x080104c0        0x0 os_start_os.o
 .bss           0x080104c0        0x0 os_start_os.o
 .debug_info    0x080104c0      0x65c os_start_os.o
 .debug_abbrev  0x08010b1c      0x108 os_start_os.o
 .debug_aranges
                0x08010c24       0x20 os_start_os.o
 .debug_macro   0x08010c44       0xc0 os_start_os.o
 .debug_line    0x08010d04      0x1f1 os_start_os.o
 .debug_str     0x08010ef5      0x233 os_start_os.o
                               0x3b92 (size before relaxing)
 .comment       0x08011128       0x80 os_start_os.o
 .debug_frame   0x08011128       0x2c os_start_os.o
 .ARM.attributes
                0x08011154       0x33 os_start_os.o
 os_task_common.o()
 *fill*         0x08011187        0x1 
 .text          0x08011188      0x1e0 os_task_common.o
                0x08011188                OS_TaskSaveTaskEnvironment
                0x080111c6                OS_TASK_RESTORETASK_ENVIRONMENT
                0x080111f6                OS_TASK_RESTORE_SYSTEM_STACK
                0x0801120c                OS_TASK_SAVE_SYSTEM_STACK
                0x08011222                OS_Task_InitTaskEnvironment
                0x0801130c                OS_Task_DeleteTaskEnvironment
                0x0801133e                OS_Task_CreateTaskEnvironment
 .data          0x08011368        0x0 os_task_common.o
 .bss           0x08011368        0x0 os_task_common.o
 .debug_info    0x08011368      0x7d7 os_task_common.o
 .debug_abbrev  0x08011b3f      0x169 os_task_common.o
 .debug_aranges
                0x08011ca8       0x20 os_task_common.o
 .debug_macro   0x08011cc8       0xaf os_task_common.o
 .debug_line    0x08011d77      0x25a os_task_common.o
 .debug_str     0x08011fd1      0x127 os_task_common.o
                               0x3c5b (size before relaxing)
 .comment       0x080120f8       0x80 os_task_common.o
 .debug_frame   0x080120f8      0x128 os_task_common.o
 .ARM.attributes
                0x08012220       0x33 os_task_common.o
 *fill*         0x08012253        0x1 
 COMMON         0x08012254       0x28 os_task_common.o
                0x08012254                TASK_PTR
 os_task_queue.o()
 .text          0x0801227c      0xa84 os_task_queue.o
                0x0801227c                SET_RUNNING_TASK
                0x0801240c                OS_InitTaskQueue
                0x08012464                AddToTaskQueue
                0x0801283c                DeleteFromTaskQueue
                0x08012948                GetFromTaskQueue
                0x0801295e                GetFromSchedulingQueue
                0x08012980                DeleteFromSchedulingQueue
                0x08012998                AddToSchedulingQueue
                0x080129e8                UpdateSchedulingQueue
                0x08012a68                GetIdleTask
                0x08012a7c                AddToIdleTaskQueue
                0x08012bfc                GetRunningTask
                0x08012c10                GetRunningSchedulingQueueElementPtr
                0x08012c24                OS_InitTask
 .data          0x08012d00        0x0 os_task_queue.o
 .bss           0x08012d00        0x0 os_task_queue.o
 .debug_info    0x08012d00      0x9a9 os_task_queue.o
 .debug_abbrev  0x080136a9      0x1eb os_task_queue.o
 .debug_aranges
                0x08013894       0x20 os_task_queue.o
 .debug_macro   0x080138b4       0xb4 os_task_queue.o
 .debug_line    0x08013968      0x329 os_task_queue.o
 .debug_str     0x08013c91      0x219 os_task_queue.o
                               0x3ddb (size before relaxing)
 .comment       0x08013eaa       0x80 os_task_queue.o
 *fill*         0x08013eaa        0x2 
 .debug_frame   0x08013eac      0x238 os_task_queue.o
 .ARM.attributes
                0x080140e4       0x33 os_task_queue.o
 os_task_scheduler.o()
 *fill*         0x08014117        0x1 
 .text          0x08014118      0x7bc os_task_scheduler.o
                0x08014118                OS_ActivateDispatcher
                0x08014158                OS_SleepTask
                0x08014182                task_state_request
                0x0801429c                OS_CreateTask
                0x0801437c                OS_ActivateTask
                0x0801440c                OS_StartTask
                0x080144e4                OS_TerminateTask
                0x08014588                OS_TaskDispatcher
                0x08014654                OS_InitTasks
 .data          0x080148d4        0x0 os_task_scheduler.o
 .bss           0x080148d4        0x0 os_task_scheduler.o
 .debug_info    0x080148d4      0xa05 os_task_scheduler.o
 .debug_abbrev  0x080152d9      0x1f6 os_task_scheduler.o
 .debug_aranges
                0x080154cf       0x20 os_task_scheduler.o
 .debug_macro   0x080154ef       0xe0 os_task_scheduler.o
 .debug_line    0x080155cf      0x3c2 os_task_scheduler.o
 .debug_str     0x08015991      0x19a os_task_scheduler.o
                               0x3ece (size before relaxing)
 .comment       0x08015b2b       0x80 os_task_scheduler.o
 *fill*         0x08015b2b        0x1 
 .debug_frame   0x08015b2c      0x248 os_task_scheduler.o
 .ARM.attributes
                0x08015d74       0x33 os_task_scheduler.o
 os_stack.o()
 *fill*         0x08015da7        0x1 
 .text          0x08015da8        0x0 os_stack.o
 .data          0x08015da8        0x0 os_stack.o
 .bss           0x08015da8        0x0 os_stack.o
 .debug_info    0x08015da8      0x643 os_stack.o
 .debug_abbrev  0x080163eb       0xec os_stack.o
 .debug_aranges
                0x080164d7       0x18 os_stack.o
 .debug_macro   0x080164ef       0x9e os_stack.o
 .debug_line    0x0801658d      0x1c4 os_stack.o
 .debug_str     0x08016751       0x46 os_stack.o
                               0x39a5 (size before relaxing)
 .comment       0x08016797       0x80 os_stack.o
 .ARM.attributes
                0x08016797       0x33 os_stack.o
 os_heap.o()
 *fill*         0x080167ca        0x2 
 .text          0x080167cc      0x22c os_heap.o
                0x080167cc                OS_Calloc
                0x08016814                OS_Realloc
                0x08016886                OS_Malloc
                0x080168f0                OS_Free
 .data          0x080169f8        0x0 os_heap.o
 .bss           0x080169f8        0x0 os_heap.o
 .debug_info    0x080169f8      0x818 os_heap.o
 .debug_abbrev  0x08017210      0x1b7 os_heap.o
 .debug_aranges
                0x080173c7       0x20 os_heap.o
 .debug_macro   0x080173e7       0xa2 os_heap.o
 .debug_line    0x08017489      0x252 os_heap.o
 .debug_str     0x080176db       0xe6 os_heap.o
                               0x3a4b (size before relaxing)
 .comment       0x080177c1       0x80 os_heap.o
 *fill*         0x080177c1        0x3 
 .debug_frame   0x080177c4      0x100 os_heap.o
 .ARM.attributes
                0x080178c4       0x33 os_heap.o
 led.o()
 *fill*         0x080178f7        0x1 
 .text          0x080178f8       0x50 led.o
                0x080178f8                USER_LED_INIT
                0x0801790c                USER_LED_ON
                0x08017920                USER_LED_OFF
                0x08017934                USER_LED_TOGGLE
 .data          0x08017948        0x0 led.o
 .bss           0x08017948        0x0 led.o
 .debug_info    0x08017948      0x708 led.o
 .debug_abbrev  0x08018050      0x142 led.o
 .debug_aranges
                0x08018192       0x20 led.o
 .debug_macro   0x080181b2       0xa2 led.o
 .debug_line    0x08018254      0x1cb led.o
 .debug_str     0x0801841f       0x97 led.o
                               0x39f6 (size before relaxing)
 .comment       0x080184b6       0x80 led.o
 *fill*         0x080184b6        0x2 
 .debug_frame   0x080184b8       0xb0 led.o
 .ARM.attributes
                0x08018568       0x33 led.o
                0x0801859b                _code_end = .
                [!provide]                PROVIDE (code_start = .)
                [!provide]                PROVIDE (code_end = .)
 *fill*         0x0801859b        0x1 
 .text          0x0801859c      0x378 d:/programm/gnu tools arm embedded/7 2018-q2-update/bin/../lib/gcc/arm-none-eabi/7.3.1/thumb/v7e-m\libgcc.a(_arm_addsubdf3.o)
                0x0801859c                __aeabi_drsub
                0x080185a4                __aeabi_dsub
                0x080185a4                __subdf3
                0x080185a8                __aeabi_dadd
                0x080185a8                __adddf3
                0x08018820                __floatunsidf
                0x08018820                __aeabi_ui2d
                0x08018840                __floatsidf
                0x08018840                __aeabi_i2d
                0x08018864                __aeabi_f2d
                0x08018864                __extendsfdf2
                0x080188a8                __floatundidf
                0x080188a8                __aeabi_ul2d
                0x080188b8                __floatdidf
                0x080188b8                __aeabi_l2d
 .text          0x08018914      0x110 d:/programm/gnu tools arm embedded/7 2018-q2-update/bin/../lib/gcc/arm-none-eabi/7.3.1/thumb/v7e-m\libgcc.a(_arm_cmpdf2.o)
                0x08018914                __gtdf2
                0x08018914                __gedf2
                0x0801891c                __ltdf2
                0x0801891c                __ledf2
                0x08018924                __nedf2
                0x08018924                __eqdf2
                0x08018924                __cmpdf2
                0x080189a0                __aeabi_cdrcmple
                0x080189b0                __aeabi_cdcmpeq
                0x080189b0                __aeabi_cdcmple
                0x080189c0                __aeabi_dcmpeq
                0x080189d4                __aeabi_dcmplt
                0x080189e8                __aeabi_dcmple
                0x080189fc                __aeabi_dcmpge
                0x08018a10                __aeabi_dcmpgt

.glue_7         0x08018a24        0x0
 .glue_7        0x08018a24        0x0 linker stubs

.glue_7t        0x08018a24        0x0
 .glue_7t       0x08018a24        0x0 linker stubs

.vfp11_veneer   0x08018a24        0x0
 .vfp11_veneer  0x08018a24        0x0 linker stubs

.v4_bx          0x08018a24        0x0
 .v4_bx         0x08018a24        0x0 linker stubs

.data           0x20000000    0x184f4
                0x20000000                _ram_start = .
 os_ram.o()
 .text          0x20000000        0x0 os_ram.o
 .data          0x20000000        0x0 os_ram.o
 .bss           0x20000000        0x0 os_ram.o
 .debug_info    0x20000000      0x96d os_ram.o
 .debug_abbrev  0x2000096d      0x10a os_ram.o
 .debug_aranges
                0x20000a77       0x18 os_ram.o
 .debug_macro   0x20000a8f       0xa6 os_ram.o
 .debug_line    0x20000b35      0x1dd os_ram.o
 .debug_str     0x20000d12     0x3a03 os_ram.o
                               0x3a67 (size before relaxing)
 .comment       0x20004715       0x7f os_ram.o
                                 0x80 (size before relaxing)
 .ARM.attributes
                0x20004794       0x33 os_ram.o
 *fill*         0x200047c7        0x1 
 COMMON         0x200047c8    0x11eac os_ram.o
                0x200047c8                TASK_STACK
                0x200095e8                VAR_MEM_MANAG_FAULT_STATUS_REG
                0x200095ec                REGISTER_R2
                0x200095f0                TASK_GROUP_3
                0x200095f8                RAM_CHECK_FAILURE_ADDR
                0x200095fc                REGISTER_R0
                0x20009600                OS_STACK
                0x2000e600                REGISTER_R6
                0x2000e604                REGISTER_R7
                0x2000e608                DBG_CALIB_VALUE
                0x2000e60c                OS_STATE
                0x2000e610                TASK_IDLE_QUEUE
                0x2000e698                REGISTER_R9
                0x2000e69c                TASK1_CALL_NR
                0x2000e6a0                bTASK_QUEUE_INITIALIZED
                0x2000e6a4                BACKUP_SYSTICK_CURRENT_VAL_REG
                0x2000e6a8                TASK2_CALL_NR
                0x2000e6ac                LAST_CURRENT_TIME
                0x2000e6b0                LINK_REGISTER_HANDLER
                0x2000e6b4                VAR_AUX_FAULT_STATUS_REG
                0x2000e6b8                REGISTER_R8
                0x2000e6bc                TASK_3_VAR
                0x2000e744                TASK_0_VAR
                0x2000e7cc                TASK4_CALL_NR
                0x2000e7d0                TASK_GROUP_2
                0x2000e7d8                REGISTER_R5
                0x2000e7dc                OS_MAIN_STACK
                0x200137dc                SAVED_STACK_POINTER
                0x200137e0                DBG_RLD_VALUE
                0x200137e4                REGISTER_R4
                0x200137e8                RUNNING_TASK
                0x20013870                TASK_RUN_QUEUE
                0x20013dc0                VAR_HARDFAULT_STATUS_REG
                0x20013dc4                RUNNING_SCHEDULING_QUEUE_ENTRY
                0x20013dc8                TASK_GROUP_5
                0x20013dd0                REGISTER_R1
                0x20013dd4                DBG_CTRL_VALUE
                0x20013dd8                TASK_2_VAR
                0x20013e60                VAR_BUS_FAULT_STATUS_REG
                0x20013e64                RAM_CHECK_FAILURE_DETECTED
                0x20013e68                REGISTER_R10
                0x20013e6c                HEAP
                0x2001657c                DBG_CURR_VAL
                0x20016580                TASK_GROUP_1
                0x20016588                VAR_FAULT_STATUS_REG
                0x2001658c                TASK_GROUP_4
                0x20016594                REGISTER_R11
                0x20016598                TASK_TRANSITION_REJECTED_STATE
                0x20016599                TASK_TRANSITION_CURRENT_STATE
                0x2001659c                REGISTER_R3
                0x200165a0                TASK_SCHEDULING_QUEUE
                0x200165c8                TASK3_CALL_NR
                0x200165cc                VAR_MEM_FAULT_ADDR_REG
                0x200165d0                VAR_USAGE_FAULT_STATUS_REG
                0x200165d4                VAR_BUS_FAULT_ADDR_REG
                0x200165d8                TASK_TRANSITION_REJECTED_TASK_ADDR
                0x200165dc                OS_SW_BUG
                0x200165ec                TASK_1_VAR
 os_shared_ram.o()
 .text          0x20016674        0x0 os_shared_ram.o
 .data          0x20016674        0x0 os_shared_ram.o
 .bss           0x20016674        0x0 os_shared_ram.o
 .debug_info    0x20016674      0x763 os_shared_ram.o
 .debug_abbrev  0x20016dd7       0xfd os_shared_ram.o
 .debug_aranges
                0x20016ed4       0x18 os_shared_ram.o
 .debug_macro   0x20016eec       0xfe os_shared_ram.o
 .debug_line    0x20016fea      0x1c9 os_shared_ram.o
 .debug_str     0x200171b3      0x30b os_shared_ram.o
                               0x3c6a (size before relaxing)
 .comment       0x200174be       0x80 os_shared_ram.o
 .ARM.attributes
                0x200174be       0x33 os_shared_ram.o
 *fill*         0x200174f1        0x3 
 COMMON         0x200174f4     0x1000 os_shared_ram.o
                0x200174f4                RAM_BLOCK_C01_C01
                0x200175f4                RAM_BLOCK_C01_C00
                0x200176f4                RAM_BLOCK_C00_C00
                0x200177f4                RAM_BLOCK_C01_C03
                0x200178f4                RAM_BLOCK_C03_C01
                0x200179f4                RAM_BLOCK_C00_C01
                0x20017af4                RAM_BLOCK_C02_C01
                0x20017bf4                RAM_BLOCK_C01_C02
                0x20017cf4                RAM_BLOCK_C03_C00
                0x20017df4                RAM_BLOCK_C02_C00
                0x20017ef4                RAM_BLOCK_C02_C02
                0x20017ff4                RAM_BLOCK_C03_C03
                0x200180f4                RAM_BLOCK_C03_C02
                0x200181f4                RAM_BLOCK_C00_C03
                0x200182f4                RAM_BLOCK_C00_C02
                0x200183f4                RAM_BLOCK_C02_C03
                0x200184f4                _ram_end = .
                [!provide]                PROVIDE (ram_start = .)
                [!provide]                PROVIDE (ram_end = .)
 .data          0x200184f4        0x0 d:/programm/gnu tools arm embedded/7 2018-q2-update/bin/../lib/gcc/arm-none-eabi/7.3.1/thumb/v7e-m\libgcc.a(_arm_addsubdf3.o)
 .data          0x200184f4        0x0 d:/programm/gnu tools arm embedded/7 2018-q2-update/bin/../lib/gcc/arm-none-eabi/7.3.1/thumb/v7e-m\libgcc.a(_arm_cmpdf2.o)
START GROUP
LOAD d:/programm/gnu tools arm embedded/7 2018-q2-update/bin/../lib/gcc/arm-none-eabi/7.3.1/thumb/v7e-m\libgcc.a
LOAD d:/programm/gnu tools arm embedded/7 2018-q2-update/bin/../lib/gcc/arm-none-eabi/7.3.1/../../../../arm-none-eabi/lib/thumb/v7e-m\libg.a
LOAD d:/programm/gnu tools arm embedded/7 2018-q2-update/bin/../lib/gcc/arm-none-eabi/7.3.1/../../../../arm-none-eabi/lib/thumb/v7e-m\libc.a
END GROUP
OUTPUT(E:\NeuOrga\Programmieren\c_cpp\github_os\output\VERSION_ARM\operating_system.elf elf32-littlearm)

.bss            0x200184f4        0x0
 .bss           0x200184f4        0x0 d:/programm/gnu tools arm embedded/7 2018-q2-update/bin/../lib/gcc/arm-none-eabi/7.3.1/thumb/v7e-m\libgcc.a(_arm_addsubdf3.o)
 .bss           0x200184f4        0x0 d:/programm/gnu tools arm embedded/7 2018-q2-update/bin/../lib/gcc/arm-none-eabi/7.3.1/thumb/v7e-m\libgcc.a(_arm_cmpdf2.o)

.ARM.attributes
                0x00000000       0x31
 .ARM.attributes
                0x00000000       0x1e d:/programm/gnu tools arm embedded/7 2018-q2-update/bin/../lib/gcc/arm-none-eabi/7.3.1/thumb/v7e-m\libgcc.a(_arm_addsubdf3.o)
 .ARM.attributes
                0x0000001e       0x1e d:/programm/gnu tools arm embedded/7 2018-q2-update/bin/../lib/gcc/arm-none-eabi/7.3.1/thumb/v7e-m\libgcc.a(_arm_cmpdf2.o)

.debug_frame    0x00000000      0x170
 .debug_frame   0x00000000       0xac d:/programm/gnu tools arm embedded/7 2018-q2-update/bin/../lib/gcc/arm-none-eabi/7.3.1/thumb/v7e-m\libgcc.a(_arm_addsubdf3.o)
 .debug_frame   0x000000ac       0xc4 d:/programm/gnu tools arm embedded/7 2018-q2-update/bin/../lib/gcc/arm-none-eabi/7.3.1/thumb/v7e-m\libgcc.a(_arm_cmpdf2.o)
