GAS LISTING C:\Users\PRESID~1\AppData\Local\Temp\ccVrqxmm.s 			page 1


   1              		.file	"led.c"
   2              		.text
   3              	Ltext0:
   4              		.globl	_USER_LED_INIT
   6              	_USER_LED_INIT:
   7              	LFB0:
   8              		.file 1 "E:/NeuOrga/Programmieren/c_cpp/github_os/input/src/os_user_code/led.c"
   1:E:/NeuOrga/Programmieren/c_cpp/github_os/input/src/os_user_code\led.c **** #include "..\os_base\os_firstinc.h"
   2:E:/NeuOrga/Programmieren/c_cpp/github_os/input/src/os_user_code\led.c **** #include "led.h"
   3:E:/NeuOrga/Programmieren/c_cpp/github_os/input/src/os_user_code\led.c **** /*#warn "no LED code implemented"*/
   4:E:/NeuOrga/Programmieren/c_cpp/github_os/input/src/os_user_code\led.c **** 
   5:E:/NeuOrga/Programmieren/c_cpp/github_os/input/src/os_user_code\led.c **** void USER_LED_INIT(led_t Led)
   6:E:/NeuOrga/Programmieren/c_cpp/github_os/input/src/os_user_code\led.c **** {
   9              		.loc 1 6 0
  10              		.cfi_startproc
  11 0000 55       		pushl	%ebp
  12              		.cfi_def_cfa_offset 8
  13              		.cfi_offset 5, -8
  14 0001 89E5     		movl	%esp, %ebp
  15              		.cfi_def_cfa_register 5
   7:E:/NeuOrga/Programmieren/c_cpp/github_os/input/src/os_user_code\led.c ****    ReferenceUnusedParameter(Led);
   8:E:/NeuOrga/Programmieren/c_cpp/github_os/input/src/os_user_code\led.c **** }
  16              		.loc 1 8 0
  17 0003 5D       		popl	%ebp
  18              		.cfi_restore 5
  19              		.cfi_def_cfa 4, 4
  20 0004 C3       		ret
  21              		.cfi_endproc
  22              	LFE0:
  23              		.globl	_USER_LED_ON
  25              	_USER_LED_ON:
  26              	LFB1:
   9:E:/NeuOrga/Programmieren/c_cpp/github_os/input/src/os_user_code\led.c **** 
  10:E:/NeuOrga/Programmieren/c_cpp/github_os/input/src/os_user_code\led.c **** void USER_LED_ON(led_t Led)
  11:E:/NeuOrga/Programmieren/c_cpp/github_os/input/src/os_user_code\led.c **** {
  27              		.loc 1 11 0
  28              		.cfi_startproc
  29 0005 55       		pushl	%ebp
  30              		.cfi_def_cfa_offset 8
  31              		.cfi_offset 5, -8
  32 0006 89E5     		movl	%esp, %ebp
  33              		.cfi_def_cfa_register 5
  12:E:/NeuOrga/Programmieren/c_cpp/github_os/input/src/os_user_code\led.c ****    ReferenceUnusedParameter(Led);
  13:E:/NeuOrga/Programmieren/c_cpp/github_os/input/src/os_user_code\led.c **** }
  34              		.loc 1 13 0
  35 0008 5D       		popl	%ebp
  36              		.cfi_restore 5
  37              		.cfi_def_cfa 4, 4
  38 0009 C3       		ret
  39              		.cfi_endproc
  40              	LFE1:
  41              		.globl	_USER_LED_OFF
  43              	_USER_LED_OFF:
  44              	LFB2:
  14:E:/NeuOrga/Programmieren/c_cpp/github_os/input/src/os_user_code\led.c **** 
  15:E:/NeuOrga/Programmieren/c_cpp/github_os/input/src/os_user_code\led.c **** void USER_LED_OFF(led_t Led)
  16:E:/NeuOrga/Programmieren/c_cpp/github_os/input/src/os_user_code\led.c **** {
GAS LISTING C:\Users\PRESID~1\AppData\Local\Temp\ccVrqxmm.s 			page 2


  45              		.loc 1 16 0
  46              		.cfi_startproc
  47 000a 55       		pushl	%ebp
  48              		.cfi_def_cfa_offset 8
  49              		.cfi_offset 5, -8
  50 000b 89E5     		movl	%esp, %ebp
  51              		.cfi_def_cfa_register 5
  17:E:/NeuOrga/Programmieren/c_cpp/github_os/input/src/os_user_code\led.c ****    ReferenceUnusedParameter(Led);
  18:E:/NeuOrga/Programmieren/c_cpp/github_os/input/src/os_user_code\led.c **** }
  52              		.loc 1 18 0
  53 000d 5D       		popl	%ebp
  54              		.cfi_restore 5
  55              		.cfi_def_cfa 4, 4
  56 000e C3       		ret
  57              		.cfi_endproc
  58              	LFE2:
  59              		.globl	_USER_LED_TOGGLE
  61              	_USER_LED_TOGGLE:
  62              	LFB3:
  19:E:/NeuOrga/Programmieren/c_cpp/github_os/input/src/os_user_code\led.c **** 
  20:E:/NeuOrga/Programmieren/c_cpp/github_os/input/src/os_user_code\led.c **** void USER_LED_TOGGLE(led_t Led)
  21:E:/NeuOrga/Programmieren/c_cpp/github_os/input/src/os_user_code\led.c **** {
  63              		.loc 1 21 0
  64              		.cfi_startproc
  65 000f 55       		pushl	%ebp
  66              		.cfi_def_cfa_offset 8
  67              		.cfi_offset 5, -8
  68 0010 89E5     		movl	%esp, %ebp
  69              		.cfi_def_cfa_register 5
  22:E:/NeuOrga/Programmieren/c_cpp/github_os/input/src/os_user_code\led.c ****    ReferenceUnusedParameter(Led);   
  23:E:/NeuOrga/Programmieren/c_cpp/github_os/input/src/os_user_code\led.c **** }...
  70              		.loc 1 23 0
  71 0012 5D       		popl	%ebp
  72              		.cfi_restore 5
  73              		.cfi_def_cfa 4, 4
  74 0013 C3       		ret
  75              		.cfi_endproc
  76              	LFE3:
  77              	Letext0:
  78              		.file 2 "E:/NeuOrga/Programmieren/c_cpp/github_os/input/src/os_user_code/../os_base/../os_user_cod