	.cpu cortex-m4
	.eabi_attribute 20, 1	@ Tag_ABI_FP_denormal
	.eabi_attribute 21, 1	@ Tag_ABI_FP_exceptions
	.eabi_attribute 23, 3	@ Tag_ABI_FP_number_model
	.eabi_attribute 24, 1	@ Tag_ABI_align8_needed
	.eabi_attribute 25, 1	@ Tag_ABI_align8_preserved
	.eabi_attribute 26, 1	@ Tag_ABI_enum_size
	.eabi_attribute 30, 2	@ Tag_ABI_optimization_goals
	.eabi_attribute 34, 1	@ Tag_CPU_unaligned_access
	.eabi_attribute 18, 4	@ Tag_ABI_PCS_wchar_t
	.file	"os_common.c"
@ GNU C89 (GNU Tools for Arm Embedded Processors 7-2018-q2-update) version 7.3.1 20180622 (release) [ARM/embedded-7-branch revision 261907] (arm-none-eabi)
@	compiled by GNU C version 5.3.1 20160211, GMP version 6.1.0, MPFR version 3.1.4, MPC version 1.0.3, isl version isl-0.15-GMP

@ GGC heuristics: --param ggc-min-expand=100 --param ggc-min-heapsize=131072
@ options passed:  -imultilib thumb/v7e-m
@ -iprefix d:\programm\gnu tools arm embedded\7 2018-q2-update\bin\../lib/gcc/arm-none-eabi/7.3.1/
@ -isysroot d:\programm\gnu tools arm embedded\7 2018-q2-update\bin\../arm-none-eabi
@ -D__USES_INITFINI__ -D CFG_PROCESSOR=4 -D STM32F407VG
@ E:\NeuOrga\Programmieren\c_cpp\github_os\input\src\os_base\os_common.c
@ -mcpu=cortex-m4 -mthumb
@ -auxbase-strip E:\NeuOrga\Programmieren\c_cpp\github_os\output\os_base\obj_arm\os_common.s
@ -g3 -O3 -Wall -Wextra -Wpedantic -std=c90 -fverbose-asm
@ options enabled:  -faggressive-loop-optimizations -falign-jumps
@ -falign-labels -falign-loops -fauto-inc-dec -fbranch-count-reg
@ -fcaller-saves -fchkp-check-incomplete-type -fchkp-check-read
@ -fchkp-check-write -fchkp-instrument-calls -fchkp-narrow-bounds
@ -fchkp-optimize -fchkp-store-bounds -fchkp-use-static-bounds
@ -fchkp-use-static-const-bounds -fchkp-use-wrappers -fcode-hoisting
@ -fcombine-stack-adjustments -fcommon -fcompare-elim -fcprop-registers
@ -fcrossjumping -fcse-follow-jumps -fdefer-pop
@ -fdelete-null-pointer-checks -fdevirtualize -fdevirtualize-speculatively
@ -fdwarf2-cfi-asm -fearly-inlining -feliminate-unused-debug-types
@ -fexpensive-optimizations -fforward-propagate -ffp-int-builtin-inexact
@ -ffunction-cse -fgcse -fgcse-after-reload -fgcse-lm -fgnu-runtime
@ -fgnu-unique -fguess-branch-probability -fhoist-adjacent-loads -fident
@ -fif-conversion -fif-conversion2 -findirect-inlining -finline
@ -finline-atomics -finline-functions -finline-functions-called-once
@ -finline-small-functions -fipa-bit-cp -fipa-cp -fipa-cp-clone -fipa-icf
@ -fipa-icf-functions -fipa-icf-variables -fipa-profile -fipa-pure-const
@ -fipa-ra -fipa-reference -fipa-sra -fipa-vrp -fira-hoist-pressure
@ -fira-share-save-slots -fira-share-spill-slots
@ -fisolate-erroneous-paths-dereference -fivopts -fkeep-static-consts
@ -fleading-underscore -flifetime-dse -flra-remat -flto-odr-type-merging
@ -fmath-errno -fmerge-constants -fmerge-debug-strings
@ -fmove-loop-invariants -fomit-frame-pointer -foptimize-sibling-calls
@ -foptimize-strlen -fpartial-inlining -fpeel-loops -fpeephole -fpeephole2
@ -fplt -fpredictive-commoning -fprefetch-loop-arrays -freg-struct-return
@ -freorder-blocks -freorder-functions -frerun-cse-after-loop
@ -fsched-critical-path-heuristic -fsched-dep-count-heuristic
@ -fsched-group-heuristic -fsched-interblock -fsched-last-insn-heuristic
@ -fsched-pressure -fsched-rank-heuristic -fsched-spec
@ -fsched-spec-insn-heuristic -fsched-stalled-insns-dep -fschedule-insns
@ -fschedule-insns2 -fsection-anchors -fsemantic-interposition
@ -fshow-column -fshrink-wrap -fshrink-wrap-separate -fsigned-zeros
@ -fsplit-ivs-in-unroller -fsplit-loops -fsplit-paths -fsplit-wide-types
@ -fssa-backprop -fssa-phiopt -fstdarg-opt -fstore-merging
@ -fstrict-aliasing -fstrict-overflow -fstrict-volatile-bitfields
@ -fsync-libcalls -fthread-jumps -ftoplevel-reorder -ftrapping-math
@ -ftree-bit-ccp -ftree-builtin-call-dce -ftree-ccp -ftree-ch
@ -ftree-coalesce-vars -ftree-copy-prop -ftree-cselim -ftree-dce
@ -ftree-dominator-opts -ftree-dse -ftree-forwprop -ftree-fre
@ -ftree-loop-distribute-patterns -ftree-loop-if-convert -ftree-loop-im
@ -ftree-loop-ivcanon -ftree-loop-optimize -ftree-loop-vectorize
@ -ftree-parallelize-loops= -ftree-partial-pre -ftree-phiprop -ftree-pre
@ -ftree-pta -ftree-reassoc -ftree-scev-cprop -ftree-sink
@ -ftree-slp-vectorize -ftree-slsr -ftree-sra -ftree-switch-conversion
@ -ftree-tail-merge -ftree-ter -ftree-vrp -funit-at-a-time -funswitch-loops
@ -fvar-tracking -fvar-tracking-assignments -fverbose-asm
@ -fzero-initialized-in-bss -masm-syntax-unified -mlittle-endian
@ -mpic-data-is-text-relative -msched-prolog -mthumb -munaligned-access
@ -mvectorize-with-neon-quad

	.text
.Ltext0:
	.cfi_sections	.debug_frame
	.align	1
	.p2align 2,,3
	.global	OS_SET_SW_BUG
	.syntax unified
	.thumb
	.thumb_func
	.fpu softvfp
	.type	OS_SET_SW_BUG, %function
OS_SET_SW_BUG:
.LFB0:
	.file 1 "E:\\NeuOrga\\Programmieren\\c_cpp\\github_os\\input\\src\\os_base\\os_common.c"
	.loc 1 5 0
	.cfi_startproc
	@ args = 0, pretend = 0, frame = 0
	@ frame_needed = 0, uses_anonymous_args = 0
	@ link register save eliminated.
.LVL0:
@ E:\NeuOrga\Programmieren\c_cpp\github_os\input\src\os_base\os_common.c:6:    OS_SW_BUG[task_func_nr] = bug_nr;
	.loc 1 6 0
	ldr	r3, .L3	@ tmp113,
	strb	r0, [r3, r1]	@ bug_nr, OS_SW_BUG
@ E:\NeuOrga\Programmieren\c_cpp\github_os\input\src\os_base\os_common.c:7: }
	.loc 1 7 0
	bx	lr	@
.L4:
	.align	2
.L3:
	.word	OS_SW_BUG
	.cfi_endproc
.LFE0:
	.size	OS_SET_SW_BUG, .-OS_SET_SW_BUG
	.align	1
	.p2align 2,,3
	.global	OS_GET_CURRENT_TIME
	.syntax unified
	.thumb
	.thumb_func
	.fpu softvfp
	.type	OS_GET_CURRENT_TIME, %function
OS_GET_CURRENT_TIME:
.LFB1:
	.loc 1 12 0
	.cfi_startproc
	@ args = 0, pretend = 0, frame = 48
	@ frame_needed = 0, uses_anonymous_args = 0
.LVL1:
	push	{r4, r5, r6, r7, r8, r9, r10, fp, lr}	@
	.cfi_def_cfa_offset 36
	.cfi_offset 4, -36
	.cfi_offset 5, -32
	.cfi_offset 6, -28
	.cfi_offset 7, -24
	.cfi_offset 8, -20
	.cfi_offset 9, -16
	.cfi_offset 10, -12
	.cfi_offset 11, -8
	.cfi_offset 14, -4
.LBB105:
.LBB106:
.LBB107:
.LBB108:
@ E:\NeuOrga\Programmieren\c_cpp\github_os\input\src\os_base\os_common.c:37:    *DWT_LAR = 0xC5ACCE55u;
	.loc 1 37 0
	ldr	r2, .L29	@ tmp280,
@ E:\NeuOrga\Programmieren\c_cpp\github_os\input\src\os_base\os_common.c:40:    *SCB_DEMCR |= 0x01000000u;
	.loc 1 40 0
	ldr	r9, .L29+16	@ tmp282,
@ E:\NeuOrga\Programmieren\c_cpp\github_os\input\src\os_base\os_common.c:37:    *DWT_LAR = 0xC5ACCE55u;
	.loc 1 37 0
	ldr	r1, .L29+4	@ tmp281,
.LBE108:
.LBE107:
.LBB113:
.LBB114:
.LBB115:
@ E:\NeuOrga\Programmieren\c_cpp\github_os\input\src\os_base\os_common.c:191:       uint16 tmp_sum = (uint16)ErsterSummand->number[pos] +(uint16)ZweiterSummand->number[pos] + carry;
	.loc 1 191 0
	ldr	r3, .L29+8	@ tmp522,
.LBE115:
.LBE114:
.LBE113:
.LBB122:
.LBB109:
@ E:\NeuOrga\Programmieren\c_cpp\github_os\input\src\os_base\os_common.c:43:    time = *DWT_CYCCNT;
	.loc 1 43 0
	ldr	lr, .L29+20	@ tmp284,
@ E:\NeuOrga\Programmieren\c_cpp\github_os\input\src\os_base\os_common.c:49:    *DWT_CTRL |= 1u;
	.loc 1 49 0
	ldr	ip, .L29+24	@ tmp287,
.LBE109:
.LBE122:
.LBE106:
.LBE105:
@ E:\NeuOrga\Programmieren\c_cpp\github_os\input\src\os_base\os_common.c:12: {
	.loc 1 12 0
	sub	sp, sp, #52	@,,
	.cfi_def_cfa_offset 88
.LVL2:
.LBB130:
.LBB129:
.LBB123:
.LBB110:
@ E:\NeuOrga\Programmieren\c_cpp\github_os\input\src\os_base\os_common.c:34:    volatile uint32 time = 0u;
	.loc 1 34 0
	mov	r8, #0	@ tmp279,
	str	r8, [sp, #28]	@ tmp279, time
@ E:\NeuOrga\Programmieren\c_cpp\github_os\input\src\os_base\os_common.c:37:    *DWT_LAR = 0xC5ACCE55u;
	.loc 1 37 0
	str	r1, [r2]	@ tmp281, MEM[(volatile uint32 *)3758104496B]
@ E:\NeuOrga\Programmieren\c_cpp\github_os\input\src\os_base\os_common.c:40:    *SCB_DEMCR |= 0x01000000u;
	.loc 1 40 0
	ldr	r7, [r9]	@ _24, MEM[(volatile uint32 *)3758157308B]
.LBE110:
.LBE123:
.LBB124:
.LBB119:
.LBB116:
@ E:\NeuOrga\Programmieren\c_cpp\github_os\input\src\os_base\os_common.c:191:       uint16 tmp_sum = (uint16)ErsterSummand->number[pos] +(uint16)ZweiterSummand->number[pos] + carry;
	.loc 1 191 0
	ldrb	r2, [r3, #11]	@ zero_extendqisi2	@ LOCAL_SYSTEM_TIME.number, LOCAL_SYSTEM_TIME.number
	str	r2, [sp]	@ LOCAL_SYSTEM_TIME.number, %sfp
	ldrb	r1, [r3, #10]	@ zero_extendqisi2	@ LOCAL_SYSTEM_TIME.number, LOCAL_SYSTEM_TIME.number
	ldrb	r4, [r3, #9]	@ zero_extendqisi2	@ LOCAL_SYSTEM_TIME.number, LOCAL_SYSTEM_TIME.number
	ldrb	r2, [r3, #8]	@ zero_extendqisi2	@ LOCAL_SYSTEM_TIME.number, LOCAL_SYSTEM_TIME.number
	str	r1, [sp, #8]	@ LOCAL_SYSTEM_TIME.number, %sfp
.LBE116:
.LBE119:
.LBE124:
.LBB125:
.LBB111:
@ E:\NeuOrga\Programmieren\c_cpp\github_os\input\src\os_base\os_common.c:40:    *SCB_DEMCR |= 0x01000000u;
	.loc 1 40 0
	orr	r7, r7, #16777216	@ _25, _24,
.LBE111:
.LBE125:
.LBB126:
.LBB120:
.LBB117:
@ E:\NeuOrga\Programmieren\c_cpp\github_os\input\src\os_base\os_common.c:191:       uint16 tmp_sum = (uint16)ErsterSummand->number[pos] +(uint16)ZweiterSummand->number[pos] + carry;
	.loc 1 191 0
	str	r4, [sp, #12]	@ LOCAL_SYSTEM_TIME.number, %sfp
	str	r2, [sp, #16]	@ LOCAL_SYSTEM_TIME.number, %sfp
	ldrb	r6, [r3, #15]	@ zero_extendqisi2	@ _293, LOCAL_SYSTEM_TIME.number
	ldrb	fp, [r3, #14]	@ zero_extendqisi2	@ LOCAL_SYSTEM_TIME.number, LOCAL_SYSTEM_TIME.number
	ldrb	r10, [r3, #13]	@ zero_extendqisi2	@ LOCAL_SYSTEM_TIME.number, LOCAL_SYSTEM_TIME.number
	ldrb	r5, [r3, #12]	@ zero_extendqisi2	@ LOCAL_SYSTEM_TIME.number, LOCAL_SYSTEM_TIME.number
	ldrb	r2, [r3, #7]	@ zero_extendqisi2	@ LOCAL_SYSTEM_TIME.number, LOCAL_SYSTEM_TIME.number
	ldrb	r1, [r3, #6]	@ zero_extendqisi2	@ LOCAL_SYSTEM_TIME.number, LOCAL_SYSTEM_TIME.number
	ldrb	r4, [r3, #5]	@ zero_extendqisi2	@ LOCAL_SYSTEM_TIME.number, LOCAL_SYSTEM_TIME.number
.LBE117:
.LBE120:
.LBE126:
.LBB127:
.LBB112:
@ E:\NeuOrga\Programmieren\c_cpp\github_os\input\src\os_base\os_common.c:40:    *SCB_DEMCR |= 0x01000000u;
	.loc 1 40 0
	str	r7, [r9]	@ _25, MEM[(volatile uint32 *)3758157308B]
@ E:\NeuOrga\Programmieren\c_cpp\github_os\input\src\os_base\os_common.c:43:    time = *DWT_CYCCNT;
	.loc 1 43 0
	ldr	r7, [lr]	@ _26, MEM[(volatile uint32 *)3758100484B]
	str	r7, [sp, #28]	@ _26, time
@ E:\NeuOrga\Programmieren\c_cpp\github_os\input\src\os_base\os_common.c:46:    *DWT_CYCCNT = 0u;
	.loc 1 46 0
	str	r8, [lr]	@ tmp279, MEM[(volatile uint32 *)3758100484B]
@ E:\NeuOrga\Programmieren\c_cpp\github_os\input\src\os_base\os_common.c:49:    *DWT_CTRL |= 1u;
	.loc 1 49 0
	ldr	r7, [ip]	@ _27, MEM[(volatile uint32 *)3758100480B]
	orr	r7, r7, #1	@ _28, _27,
	str	r7, [ip]	@ _28, MEM[(volatile uint32 *)3758100480B]
@ E:\NeuOrga\Programmieren\c_cpp\github_os\input\src\os_base\os_common.c:52:    ASSIGN_UINT32(timebig, time);
	.loc 1 52 0
	ldr	r7, [sp, #28]	@ time.0_29, time
.LVL3:
.LBE112:
.LBE127:
.LBB128:
.LBB121:
.LBB118:
@ E:\NeuOrga\Programmieren\c_cpp\github_os\input\src\os_base\os_common.c:192:       Summe->number[pos] = tmp_sum & 0xFFu;
	.loc 1 192 0
	uxtab	r6, r6, r7	@ tmp293, _293, time.0_29
.LVL4:
@ E:\NeuOrga\Programmieren\c_cpp\github_os\input\src\os_base\os_common.c:193:       carry = tmp_sum & 0xFF00u;
	.loc 1 193 0
	bic	ip, r6, #255	@ tmp300, tmp293,
@ E:\NeuOrga\Programmieren\c_cpp\github_os\input\src\os_base\os_common.c:191:       uint16 tmp_sum = (uint16)ErsterSummand->number[pos] +(uint16)ZweiterSummand->number[pos] + carry;
	.loc 1 191 0
	add	fp, fp, ip	@ tmp305, tmp300
	ubfx	ip, r7, #1, #8	@ tmp308, time.0_29,,
	add	fp, fp, ip	@ tmp_sum, tmp308
@ E:\NeuOrga\Programmieren\c_cpp\github_os\input\src\os_base\os_common.c:193:       carry = tmp_sum & 0xFF00u;
	.loc 1 193 0
	bic	ip, fp, #255	@ tmp313, tmp_sum,
	add	r10, r10, ip	@ _194, tmp313
@ E:\NeuOrga\Programmieren\c_cpp\github_os\input\src\os_base\os_common.c:191:       uint16 tmp_sum = (uint16)ErsterSummand->number[pos] +(uint16)ZweiterSummand->number[pos] + carry;
	.loc 1 191 0
	ubfx	ip, r7, #2, #8	@ tmp321, time.0_29,,
	add	r10, r10, ip	@ tmp_sum, tmp321
@ E:\NeuOrga\Programmieren\c_cpp\github_os\input\src\os_base\os_common.c:193:       carry = tmp_sum & 0xFF00u;
	.loc 1 193 0
	bic	ip, r10, #255	@ tmp325, tmp_sum,
@ E:\NeuOrga\Programmieren\c_cpp\github_os\input\src\os_base\os_common.c:191:       uint16 tmp_sum = (uint16)ErsterSummand->number[pos] +(uint16)ZweiterSummand->number[pos] + carry;
	.loc 1 191 0
	ubfx	r7, r7, #3, #8	@ tmp333, time.0_29,,
.LVL5:
	add	r5, r5, ip	@ _195, tmp325
	adds	r5, r7, r5	@ tmp_sum, tmp333, _195
	ldr	r7, [sp]	@ LOCAL_SYSTEM_TIME.number, %sfp
@ E:\NeuOrga\Programmieren\c_cpp\github_os\input\src\os_base\os_common.c:193:       carry = tmp_sum & 0xFF00u;
	.loc 1 193 0
	str	r5, [sp, #4]	@ tmp_sum, %sfp
	bic	r5, r5, #255	@ tmp337, tmp_sum,
@ E:\NeuOrga\Programmieren\c_cpp\github_os\input\src\os_base\os_common.c:191:       uint16 tmp_sum = (uint16)ErsterSummand->number[pos] +(uint16)ZweiterSummand->number[pos] + carry;
	.loc 1 191 0
	add	r5, r5, r7	@ tmp_sum, LOCAL_SYSTEM_TIME.number
	ldr	r7, [sp, #8]	@ LOCAL_SYSTEM_TIME.number, %sfp
@ E:\NeuOrga\Programmieren\c_cpp\github_os\input\src\os_base\os_common.c:193:       carry = tmp_sum & 0xFF00u;
	.loc 1 193 0
	bic	ip, r5, #255	@ tmp348, tmp_sum,
	add	ip, ip, r7	@ tmp353, LOCAL_SYSTEM_TIME.number
@ E:\NeuOrga\Programmieren\c_cpp\github_os\input\src\os_base\os_common.c:191:       uint16 tmp_sum = (uint16)ErsterSummand->number[pos] +(uint16)ZweiterSummand->number[pos] + carry;
	.loc 1 191 0
	uxth	ip, ip	@ tmp_sum, tmp353
	ldr	r7, [sp, #12]	@ LOCAL_SYSTEM_TIME.number, %sfp
@ E:\NeuOrga\Programmieren\c_cpp\github_os\input\src\os_base\os_common.c:193:       carry = tmp_sum & 0xFF00u;
	.loc 1 193 0
	bic	lr, ip, #255	@ tmp359, tmp_sum,
	add	lr, lr, r7	@ tmp364, LOCAL_SYSTEM_TIME.number
@ E:\NeuOrga\Programmieren\c_cpp\github_os\input\src\os_base\os_common.c:191:       uint16 tmp_sum = (uint16)ErsterSummand->number[pos] +(uint16)ZweiterSummand->number[pos] + carry;
	.loc 1 191 0
	uxth	lr, lr	@ tmp_sum, tmp364
	ldr	r7, [sp, #16]	@ LOCAL_SYSTEM_TIME.number, %sfp
@ E:\NeuOrga\Programmieren\c_cpp\github_os\input\src\os_base\os_common.c:193:       carry = tmp_sum & 0xFF00u;
	.loc 1 193 0
	bic	r8, lr, #255	@ tmp370, tmp_sum,
	add	r8, r8, r7	@ tmp375, LOCAL_SYSTEM_TIME.number
@ E:\NeuOrga\Programmieren\c_cpp\github_os\input\src\os_base\os_common.c:191:       uint16 tmp_sum = (uint16)ErsterSummand->number[pos] +(uint16)ZweiterSummand->number[pos] + carry;
	.loc 1 191 0
	uxth	r8, r8	@ tmp_sum, tmp375
@ E:\NeuOrga\Programmieren\c_cpp\github_os\input\src\os_base\os_common.c:193:       carry = tmp_sum & 0xFF00u;
	.loc 1 193 0
	bic	r9, r8, #255	@ tmp381, tmp_sum,
	add	r2, r2, r9	@ tmp386, tmp381
@ E:\NeuOrga\Programmieren\c_cpp\github_os\input\src\os_base\os_common.c:191:       uint16 tmp_sum = (uint16)ErsterSummand->number[pos] +(uint16)ZweiterSummand->number[pos] + carry;
	.loc 1 191 0
	uxth	r2, r2	@ tmp_sum, tmp386
@ E:\NeuOrga\Programmieren\c_cpp\github_os\input\src\os_base\os_common.c:193:       carry = tmp_sum & 0xFF00u;
	.loc 1 193 0
	bic	r9, r2, #255	@ tmp392, tmp_sum,
	add	r1, r1, r9	@ tmp397, tmp392
@ E:\NeuOrga\Programmieren\c_cpp\github_os\input\src\os_base\os_common.c:191:       uint16 tmp_sum = (uint16)ErsterSummand->number[pos] +(uint16)ZweiterSummand->number[pos] + carry;
	.loc 1 191 0
	uxth	r1, r1	@ tmp_sum, tmp397
@ E:\NeuOrga\Programmieren\c_cpp\github_os\input\src\os_base\os_common.c:193:       carry = tmp_sum & 0xFF00u;
	.loc 1 193 0
	bic	r9, r1, #255	@ tmp403, tmp_sum,
@ E:\NeuOrga\Programmieren\c_cpp\github_os\input\src\os_base\os_common.c:192:       Summe->number[pos] = tmp_sum & 0xFFu;
	.loc 1 192 0
	uxtb	r6, r6	@ _299, tmp293
	uxtb	r7, r10	@ _335, tmp_sum
	add	r4, r4, r9	@ tmp408, tmp403
@ E:\NeuOrga\Programmieren\c_cpp\github_os\input\src\os_base\os_common.c:191:       uint16 tmp_sum = (uint16)ErsterSummand->number[pos] +(uint16)ZweiterSummand->number[pos] + carry;
	.loc 1 191 0
	uxth	r4, r4	@ tmp_sum, tmp408
@ E:\NeuOrga\Programmieren\c_cpp\github_os\input\src\os_base\os_common.c:192:       Summe->number[pos] = tmp_sum & 0xFFu;
	.loc 1 192 0
	str	r6, [sp, #8]	@ _299, %sfp
	str	r7, [sp]	@ _335, %sfp
@ E:\NeuOrga\Programmieren\c_cpp\github_os\input\src\os_base\os_common.c:191:       uint16 tmp_sum = (uint16)ErsterSummand->number[pos] +(uint16)ZweiterSummand->number[pos] + carry;
	.loc 1 191 0
	ldrb	r10, [r3, #4]	@ zero_extendqisi2	@ LOCAL_SYSTEM_TIME.number, LOCAL_SYSTEM_TIME.number
@ E:\NeuOrga\Programmieren\c_cpp\github_os\input\src\os_base\os_common.c:192:       Summe->number[pos] = tmp_sum & 0xFFu;
	.loc 1 192 0
	ldrb	r9, [sp, #4]	@ zero_extendqisi2	@ _353, %sfp
	str	r9, [sp, #4]	@ _353, %sfp
	uxtb	r9, r4	@ _479, tmp_sum
@ E:\NeuOrga\Programmieren\c_cpp\github_os\input\src\os_base\os_common.c:193:       carry = tmp_sum & 0xFF00u;
	.loc 1 193 0
	bic	r4, r4, #255	@ tmp414, tmp_sum,
@ E:\NeuOrga\Programmieren\c_cpp\github_os\input\src\os_base\os_common.c:192:       Summe->number[pos] = tmp_sum & 0xFFu;
	.loc 1 192 0
	uxtb	r5, r5	@ _371, tmp_sum
	add	r4, r4, r10	@ tmp419, LOCAL_SYSTEM_TIME.number
@ E:\NeuOrga\Programmieren\c_cpp\github_os\input\src\os_base\os_common.c:191:       uint16 tmp_sum = (uint16)ErsterSummand->number[pos] +(uint16)ZweiterSummand->number[pos] + carry;
	.loc 1 191 0
	uxth	r4, r4	@ tmp_sum, tmp419
@ E:\NeuOrga\Programmieren\c_cpp\github_os\input\src\os_base\os_common.c:192:       Summe->number[pos] = tmp_sum & 0xFFu;
	.loc 1 192 0
	str	r5, [sp, #12]	@ _371, %sfp
	strb	r5, [r3, #11]	@ _371, LOCAL_SYSTEM_TIME.number
@ E:\NeuOrga\Programmieren\c_cpp\github_os\input\src\os_base\os_common.c:191:       uint16 tmp_sum = (uint16)ErsterSummand->number[pos] +(uint16)ZweiterSummand->number[pos] + carry;
	.loc 1 191 0
	ldrb	r5, [r3, #3]	@ zero_extendqisi2	@ LOCAL_SYSTEM_TIME.number, LOCAL_SYSTEM_TIME.number
@ E:\NeuOrga\Programmieren\c_cpp\github_os\input\src\os_base\os_common.c:192:       Summe->number[pos] = tmp_sum & 0xFFu;
	.loc 1 192 0
	strb	r6, [r3, #15]	@ _299, LOCAL_SYSTEM_TIME.number
@ E:\NeuOrga\Programmieren\c_cpp\github_os\input\src\os_base\os_common.c:193:       carry = tmp_sum & 0xFF00u;
	.loc 1 193 0
	bic	r10, r4, #255	@ tmp425, tmp_sum,
@ E:\NeuOrga\Programmieren\c_cpp\github_os\input\src\os_base\os_common.c:192:       Summe->number[pos] = tmp_sum & 0xFFu;
	.loc 1 192 0
	uxtb	r2, r2	@ _443, tmp_sum
	add	r5, r5, r10	@ tmp430, tmp425
@ E:\NeuOrga\Programmieren\c_cpp\github_os\input\src\os_base\os_common.c:191:       uint16 tmp_sum = (uint16)ErsterSummand->number[pos] +(uint16)ZweiterSummand->number[pos] + carry;
	.loc 1 191 0
	uxth	r5, r5	@ tmp_sum, tmp430
@ E:\NeuOrga\Programmieren\c_cpp\github_os\input\src\os_base\os_common.c:192:       Summe->number[pos] = tmp_sum & 0xFFu;
	.loc 1 192 0
	str	r2, [sp, #16]	@ _443, %sfp
	strb	r2, [r3, #7]	@ _443, LOCAL_SYSTEM_TIME.number
@ E:\NeuOrga\Programmieren\c_cpp\github_os\input\src\os_base\os_common.c:191:       uint16 tmp_sum = (uint16)ErsterSummand->number[pos] +(uint16)ZweiterSummand->number[pos] + carry;
	.loc 1 191 0
	ldrb	r2, [r3, #2]	@ zero_extendqisi2	@ LOCAL_SYSTEM_TIME.number, LOCAL_SYSTEM_TIME.number
	ldrb	r6, [r3, #1]	@ zero_extendqisi2	@ LOCAL_SYSTEM_TIME.number, LOCAL_SYSTEM_TIME.number
@ E:\NeuOrga\Programmieren\c_cpp\github_os\input\src\os_base\os_common.c:192:       Summe->number[pos] = tmp_sum & 0xFFu;
	.loc 1 192 0
	ldr	r7, [sp]	@ _335, %sfp
	strb	r7, [r3, #13]	@ _335, LOCAL_SYSTEM_TIME.number
@ E:\NeuOrga\Programmieren\c_cpp\github_os\input\src\os_base\os_common.c:193:       carry = tmp_sum & 0xFF00u;
	.loc 1 193 0
	bic	r10, r5, #255	@ tmp436, tmp_sum,
	add	r2, r2, r10	@ tmp441, tmp436
@ E:\NeuOrga\Programmieren\c_cpp\github_os\input\src\os_base\os_common.c:191:       uint16 tmp_sum = (uint16)ErsterSummand->number[pos] +(uint16)ZweiterSummand->number[pos] + carry;
	.loc 1 191 0
	uxth	r2, r2	@ tmp_sum, tmp441
@ E:\NeuOrga\Programmieren\c_cpp\github_os\input\src\os_base\os_common.c:193:       carry = tmp_sum & 0xFF00u;
	.loc 1 193 0
	bic	r10, r2, #255	@ tmp447, tmp_sum,
	add	r6, r6, r10	@ tmp452, tmp447
@ E:\NeuOrga\Programmieren\c_cpp\github_os\input\src\os_base\os_common.c:192:       Summe->number[pos] = tmp_sum & 0xFFu;
	.loc 1 192 0
	ldr	r7, [sp, #4]	@ _353, %sfp
	strb	r7, [r3, #12]	@ _353, LOCAL_SYSTEM_TIME.number
@ E:\NeuOrga\Programmieren\c_cpp\github_os\input\src\os_base\os_common.c:191:       uint16 tmp_sum = (uint16)ErsterSummand->number[pos] +(uint16)ZweiterSummand->number[pos] + carry;
	.loc 1 191 0
	uxth	r6, r6	@ tmp_sum, tmp452
	add	r10, r0, #4	@ vectp_time.56, time,
@ E:\NeuOrga\Programmieren\c_cpp\github_os\input\src\os_base\os_common.c:192:       Summe->number[pos] = tmp_sum & 0xFFu;
	.loc 1 192 0
	uxtb	r1, r1	@ _461, tmp_sum
	uxtb	fp, fp	@ _317, tmp_sum
	uxtb	ip, ip	@ _389, tmp_sum
	uxtb	lr, lr	@ _407, tmp_sum
	uxtb	r8, r8	@ _425, tmp_sum
.LVL6:
	ldrb	r7, [r3]	@ zero_extendqisi2	@ _19, LOCAL_SYSTEM_TIME.number
	str	r1, [sp, #20]	@ _461, %sfp
	uxtb	r4, r4	@ _497, tmp_sum
	uxtb	r5, r5	@ _515, tmp_sum
	uxtb	r2, r2	@ _533, tmp_sum
	uxtb	r6, r6	@ _551, tmp_sum
	cmp	r10, r3	@ vectp_time.56, tmp522
	strb	fp, [r3, #14]	@ _317, LOCAL_SYSTEM_TIME.number
.LVL7:
	strb	ip, [r3, #10]	@ _389, LOCAL_SYSTEM_TIME.number
.LVL8:
	strb	lr, [r3, #9]	@ _407, LOCAL_SYSTEM_TIME.number
.LVL9:
	strb	r8, [r3, #8]	@ _425, LOCAL_SYSTEM_TIME.number
.LVL10:
	strb	r1, [r3, #6]	@ _461, LOCAL_SYSTEM_TIME.number
.LVL11:
	strb	r9, [r3, #5]	@ _479, LOCAL_SYSTEM_TIME.number
.LVL12:
	strb	r7, [r3]	@ _19, LOCAL_SYSTEM_TIME.number
	strb	r4, [r3, #4]	@ _497, LOCAL_SYSTEM_TIME.number
.LVL13:
	strb	r5, [r3, #3]	@ _515, LOCAL_SYSTEM_TIME.number
.LVL14:
	strb	r2, [r3, #2]	@ _533, LOCAL_SYSTEM_TIME.number
.LVL15:
	strb	r6, [r3, #1]	@ _551, LOCAL_SYSTEM_TIME.number
.LVL16:
	bls	.L17	@,
	adds	r1, r3, #4	@ tmp575,,
	cmp	r0, r1	@ time, tmp575
	bcc	.L6	@,
.L17:
	negs	r1, r3	@ tmp479, tmp522
	ands	r1, r1, #3	@ prolog_loop_niters.46, tmp479,
	beq	.L8	@,
	cmp	r1, #1	@ prolog_loop_niters.46,
.LBE118:
.LBE121:
.LBE128:
.LBE129:
.LBE130:
.LBB131:
.LBB132:
@ E:\NeuOrga\Programmieren\c_cpp\github_os\input\src\os_base\os_common.c:296:       leftOperand->number[pos] = rightOperand->number[pos];
	.loc 1 296 0
	strb	r7, [r0]	@ _19, MEM[(struct big_int *)time_3(D)].number
.LVL17:
	beq	.L15	@,
	cmp	r1, #3	@ prolog_loop_niters.46,
	strb	r6, [r0, #1]	@ _551, MEM[(struct big_int *)time_3(D)].number
.LVL18:
	bne	.L16	@,
	strb	r2, [r0, #2]	@ _533, MEM[(struct big_int *)time_3(D)].number
.LVL19:
	movs	r5, #13	@ ivtmp_43,
@ E:\NeuOrga\Programmieren\c_cpp\github_os\input\src\os_base\os_common.c:294:    for (pos = 0u; pos < BIG_INT_SIZE; pos++)
	.loc 1 294 0
	mov	r2, r1	@ pos, prolog_loop_niters.46
.LVL20:
.L9:
@ E:\NeuOrga\Programmieren\c_cpp\github_os\input\src\os_base\os_common.c:296:       leftOperand->number[pos] = rightOperand->number[pos];
	.loc 1 296 0
	ldr	r4, [r3, r1]	@ vect__6.55, MEM[(uint8[16] *)vectp_LOCAL_SYSTEM_TIME.54_146]
	str	r4, [r0, r1]	@ unaligned	@ vect__6.55, MEM[(uint8[16] *)vectp_time.57_145]
	rsb	r6, r1, #16	@ tmp517, prolog_loop_niters.46,
	adds	r4, r3, r1	@ vectp_LOCAL_SYSTEM_TIME.54, tmp522, prolog_loop_niters.46
	add	r1, r1, r0	@ vectp_time.57, time
	uxtb	r6, r6	@ niters.48, tmp517
	adds	r4, r4, #4	@ vectp_LOCAL_SYSTEM_TIME.53, vectp_LOCAL_SYSTEM_TIME.54,
	add	r10, r1, #4	@ vectp_time.56, vectp_time.57,
	movs	r7, #3	@ bnd.49,
.L12:
	ldr	r1, [r4]	@ vect__6.55, MEM[(uint8[16] *)vectp_LOCAL_SYSTEM_TIME.53_81]
	str	r1, [r10]	@ unaligned	@ vect__6.55, MEM[(uint8[16] *)vectp_time.56_78]
	ldr	r1, [r4, #4]	@ vect__6.55, MEM[(uint8[16] *)vectp_LOCAL_SYSTEM_TIME.53_81 + 4B]
	str	r1, [r10, #4]	@ unaligned	@ vect__6.55, MEM[(uint8[16] *)vectp_time.56_78 + 4B]
	cmp	r7, #4	@ bnd.49,
	bne	.L28	@,
	ldr	r1, [r4, #8]	@ vect__6.55, MEM[(uint8[16] *)vectp_LOCAL_SYSTEM_TIME.53_81 + 8B]
	str	r1, [r10, #8]	@ unaligned	@ vect__6.55, MEM[(uint8[16] *)vectp_time.56_78 + 8B]
	cmp	r6, #16	@ niters.48,
	sub	r1, r5, #16	@ tmp487, ivtmp_43,
	uxtb	r1, r1	@ tmp.52, tmp487
	add	r2, r2, #16	@ tmp.51, pos,
	beq	.L5	@,
.L14:
.LVL21:
	ldrb	r4, [r3, r2]	@ zero_extendqisi2	@ _229, LOCAL_SYSTEM_TIME.number
	strb	r4, [r0, r2]	@ _229, MEM[(struct big_int *)time_3(D)].number
@ E:\NeuOrga\Programmieren\c_cpp\github_os\input\src\os_base\os_common.c:294:    for (pos = 0u; pos < BIG_INT_SIZE; pos++)
	.loc 1 294 0
	cmp	r1, #1	@ tmp.52,
	add	r4, r2, #1	@ tmp490, tmp.51,
	uxtb	r4, r4	@ pos, tmp490
.LVL22:
	beq	.L5	@,
	adds	r2, r2, #2	@ tmp496, tmp.51,
@ E:\NeuOrga\Programmieren\c_cpp\github_os\input\src\os_base\os_common.c:296:       leftOperand->number[pos] = rightOperand->number[pos];
	.loc 1 296 0
	ldrb	r5, [r3, r4]	@ zero_extendqisi2	@ _237, LOCAL_SYSTEM_TIME.number
	strb	r5, [r0, r4]	@ _237, MEM[(struct big_int *)time_3(D)].number
@ E:\NeuOrga\Programmieren\c_cpp\github_os\input\src\os_base\os_common.c:294:    for (pos = 0u; pos < BIG_INT_SIZE; pos++)
	.loc 1 294 0
	cmp	r1, #2	@ tmp.52,
	uxtb	r2, r2	@ pos, tmp496
.LVL23:
	beq	.L5	@,
@ E:\NeuOrga\Programmieren\c_cpp\github_os\input\src\os_base\os_common.c:296:       leftOperand->number[pos] = rightOperand->number[pos];
	.loc 1 296 0
	ldrb	r3, [r3, r2]	@ zero_extendqisi2	@ _95, LOCAL_SYSTEM_TIME.number
	strb	r3, [r0, r2]	@ _95, MEM[(struct big_int *)time_3(D)].number
.LVL24:
.L5:
.LBE132:
.LBE131:
@ E:\NeuOrga\Programmieren\c_cpp\github_os\input\src\os_base\os_common.c:18: }
	.loc 1 18 0
	add	sp, sp, #52	@,,
	.cfi_remember_state
	.cfi_def_cfa_offset 36
	@ sp needed	@
	pop	{r4, r5, r6, r7, r8, r9, r10, fp, pc}	@
.LVL25:
.L6:
	.cfi_restore_state
.LBB135:
.LBB133:
@ E:\NeuOrga\Programmieren\c_cpp\github_os\input\src\os_base\os_common.c:296:       leftOperand->number[pos] = rightOperand->number[pos];
	.loc 1 296 0
	ldr	r3, [sp, #20]	@ _461, %sfp
	strb	r3, [r0, #6]	@ _461, MEM[(struct big_int *)time_3(D)].number
	ldr	r3, [sp, #16]	@ _443, %sfp
	strb	r3, [r0, #7]	@ _443, MEM[(struct big_int *)time_3(D)].number
	ldr	r3, [sp, #12]	@ _371, %sfp
	strb	r3, [r0, #11]	@ _371, MEM[(struct big_int *)time_3(D)].number
	ldr	r3, [sp, #4]	@ _353, %sfp
	strb	r3, [r0, #12]	@ _353, MEM[(struct big_int *)time_3(D)].number
	ldr	r3, [sp]	@ _335, %sfp
	strb	r3, [r0, #13]	@ _335, MEM[(struct big_int *)time_3(D)].number
	ldr	r3, [sp, #8]	@ _299, %sfp
	strb	r7, [r0]	@ _19, MEM[(struct big_int *)time_3(D)].number
.LVL26:
	strb	r6, [r0, #1]	@ _551, MEM[(struct big_int *)time_3(D)].number
.LVL27:
	strb	r2, [r0, #2]	@ _533, MEM[(struct big_int *)time_3(D)].number
.LVL28:
	strb	r5, [r0, #3]	@ _515, MEM[(struct big_int *)time_3(D)].number
.LVL29:
	strb	r4, [r0, #4]	@ _497, MEM[(struct big_int *)time_3(D)].number
.LVL30:
	strb	r9, [r0, #5]	@ _479, MEM[(struct big_int *)time_3(D)].number
.LVL31:
	strb	r8, [r0, #8]	@ _425, MEM[(struct big_int *)time_3(D)].number
.LVL32:
	strb	lr, [r0, #9]	@ _407, MEM[(struct big_int *)time_3(D)].number
.LVL33:
	strb	ip, [r0, #10]	@ _389, MEM[(struct big_int *)time_3(D)].number
.LVL34:
	strb	fp, [r0, #14]	@ _317, MEM[(struct big_int *)time_3(D)].number
.LVL35:
	strb	r3, [r0, #15]	@ _299, MEM[(struct big_int *)time_3(D)].number
.LVL36:
.LBE133:
.LBE135:
@ E:\NeuOrga\Programmieren\c_cpp\github_os\input\src\os_base\os_common.c:18: }
	.loc 1 18 0
	add	sp, sp, #52	@,,
	.cfi_remember_state
	.cfi_def_cfa_offset 36
	@ sp needed	@
	pop	{r4, r5, r6, r7, r8, r9, r10, fp, pc}	@
.LVL37:
.L15:
	.cfi_restore_state
.LBB136:
.LBB134:
@ E:\NeuOrga\Programmieren\c_cpp\github_os\input\src\os_base\os_common.c:296:       leftOperand->number[pos] = rightOperand->number[pos];
	.loc 1 296 0
	movs	r5, #15	@ ivtmp_43,
@ E:\NeuOrga\Programmieren\c_cpp\github_os\input\src\os_base\os_common.c:294:    for (pos = 0u; pos < BIG_INT_SIZE; pos++)
	.loc 1 294 0
	mov	r2, r1	@ pos, prolog_loop_niters.46
	b	.L9	@
.LVL38:
.L8:
@ E:\NeuOrga\Programmieren\c_cpp\github_os\input\src\os_base\os_common.c:296:       leftOperand->number[pos] = rightOperand->number[pos];
	.loc 1 296 0
	ldr	r2, [r3]	@ unaligned	@ tmp516, MEM[(uint8[16] *)&LOCAL_SYSTEM_TIME]
	str	r2, [r0]	@ unaligned	@ tmp516, MEM[(uint8[16] *)vectp_time.57_441]
	movs	r6, #16	@ niters.48,
@ E:\NeuOrga\Programmieren\c_cpp\github_os\input\src\os_base\os_common.c:294:    for (pos = 0u; pos < BIG_INT_SIZE; pos++)
	.loc 1 294 0
	mov	r2, r1	@ pos, prolog_loop_niters.46
@ E:\NeuOrga\Programmieren\c_cpp\github_os\input\src\os_base\os_common.c:296:       leftOperand->number[pos] = rightOperand->number[pos];
	.loc 1 296 0
	mov	r5, r6	@ ivtmp_43, niters.48
	ldr	r4, .L29+12	@ vectp_LOCAL_SYSTEM_TIME.53,
	movs	r7, #4	@ bnd.49,
	b	.L12	@
.LVL39:
.L16:
	movs	r5, #14	@ ivtmp_43,
@ E:\NeuOrga\Programmieren\c_cpp\github_os\input\src\os_base\os_common.c:294:    for (pos = 0u; pos < BIG_INT_SIZE; pos++)
	.loc 1 294 0
	movs	r2, #2	@ pos,
	b	.L9	@
.LVL40:
.L28:
	sub	r1, r5, #12	@ tmp520, ivtmp_43,
	uxtb	r1, r1	@ tmp.52, tmp520
	adds	r2, r2, #12	@ tmp.51, pos,
	b	.L14	@
.L30:
	.align	2
.L29:
	.word	-536862800
	.word	-978530731
	.word	LOCAL_SYSTEM_TIME
	.word	LOCAL_SYSTEM_TIME+4
	.word	-536809988
	.word	-536866812
	.word	-536866816
.LBE134:
.LBE136:
	.cfi_endproc
.LFE1:
	.size	OS_GET_CURRENT_TIME, .-OS_GET_CURRENT_TIME
	.align	1
	.p2align 2,,3
	.global	OS_UpdateCurrentTime
	.syntax unified
	.thumb
	.thumb_func
	.fpu softvfp
	.type	OS_UpdateCurrentTime, %function
OS_UpdateCurrentTime:
.LFB2:
	.loc 1 20 0
	.cfi_startproc
	@ args = 0, pretend = 0, frame = 24
	@ frame_needed = 0, uses_anonymous_args = 0
	push	{r4, r5, r6, r7, r8, lr}	@
	.cfi_def_cfa_offset 24
	.cfi_offset 4, -24
	.cfi_offset 5, -20
	.cfi_offset 6, -16
	.cfi_offset 7, -12
	.cfi_offset 8, -8
	.cfi_offset 14, -4
.LBB144:
.LBB145:
@ E:\NeuOrga\Programmieren\c_cpp\github_os\input\src\os_base\os_common.c:37:    *DWT_LAR = 0xC5ACCE55u;
	.loc 1 37 0
	ldr	r3, .L33	@ tmp246,
@ E:\NeuOrga\Programmieren\c_cpp\github_os\input\src\os_base\os_common.c:40:    *SCB_DEMCR |= 0x01000000u;
	.loc 1 40 0
	ldr	r5, .L33+4	@ tmp248,
@ E:\NeuOrga\Programmieren\c_cpp\github_os\input\src\os_base\os_common.c:37:    *DWT_LAR = 0xC5ACCE55u;
	.loc 1 37 0
	ldr	r2, .L33+8	@ tmp247,
@ E:\NeuOrga\Programmieren\c_cpp\github_os\input\src\os_base\os_common.c:43:    time = *DWT_CYCCNT;
	.loc 1 43 0
	ldr	r0, .L33+12	@ tmp250,
@ E:\NeuOrga\Programmieren\c_cpp\github_os\input\src\os_base\os_common.c:49:    *DWT_CTRL |= 1u;
	.loc 1 49 0
	ldr	r1, .L33+16	@ tmp253,
.LBE145:
.LBE144:
@ E:\NeuOrga\Programmieren\c_cpp\github_os\input\src\os_base\os_common.c:20: {
	.loc 1 20 0
	sub	sp, sp, #24	@,,
	.cfi_def_cfa_offset 48
.LVL41:
.LBB149:
.LBB146:
@ E:\NeuOrga\Programmieren\c_cpp\github_os\input\src\os_base\os_common.c:34:    volatile uint32 time = 0u;
	.loc 1 34 0
	movs	r4, #0	@ tmp245,
	str	r4, [sp, #4]	@ tmp245, time
@ E:\NeuOrga\Programmieren\c_cpp\github_os\input\src\os_base\os_common.c:37:    *DWT_LAR = 0xC5ACCE55u;
	.loc 1 37 0
	str	r2, [r3]	@ tmp247, MEM[(volatile uint32 *)3758104496B]
@ E:\NeuOrga\Programmieren\c_cpp\github_os\input\src\os_base\os_common.c:40:    *SCB_DEMCR |= 0x01000000u;
	.loc 1 40 0
	ldr	r2, [r5]	@ _20, MEM[(volatile uint32 *)3758157308B]
.LBE146:
.LBE149:
.LBB150:
.LBB151:
.LBB152:
@ E:\NeuOrga\Programmieren\c_cpp\github_os\input\src\os_base\os_common.c:191:       uint16 tmp_sum = (uint16)ErsterSummand->number[pos] +(uint16)ZweiterSummand->number[pos] + carry;
	.loc 1 191 0
	ldr	r3, .L33+20	@ tmp258,
.LBE152:
.LBE151:
.LBE150:
.LBB157:
.LBB147:
@ E:\NeuOrga\Programmieren\c_cpp\github_os\input\src\os_base\os_common.c:40:    *SCB_DEMCR |= 0x01000000u;
	.loc 1 40 0
	orr	r2, r2, #16777216	@ _21, _20,
	str	r2, [r5]	@ _21, MEM[(volatile uint32 *)3758157308B]
@ E:\NeuOrga\Programmieren\c_cpp\github_os\input\src\os_base\os_common.c:43:    time = *DWT_CYCCNT;
	.loc 1 43 0
	ldr	r2, [r0]	@ _22, MEM[(volatile uint32 *)3758100484B]
	str	r2, [sp, #4]	@ _22, time
@ E:\NeuOrga\Programmieren\c_cpp\github_os\input\src\os_base\os_common.c:46:    *DWT_CYCCNT = 0u;
	.loc 1 46 0
	str	r4, [r0]	@ tmp245, MEM[(volatile uint32 *)3758100484B]
@ E:\NeuOrga\Programmieren\c_cpp\github_os\input\src\os_base\os_common.c:49:    *DWT_CTRL |= 1u;
	.loc 1 49 0
	ldr	r2, [r1]	@ _23, MEM[(volatile uint32 *)3758100480B]
.LBE147:
.LBE157:
.LBB158:
.LBB155:
.LBB153:
@ E:\NeuOrga\Programmieren\c_cpp\github_os\input\src\os_base\os_common.c:191:       uint16 tmp_sum = (uint16)ErsterSummand->number[pos] +(uint16)ZweiterSummand->number[pos] + carry;
	.loc 1 191 0
	ldrb	lr, [r3, #14]	@ zero_extendqisi2	@ LOCAL_SYSTEM_TIME.number, LOCAL_SYSTEM_TIME.number
	ldrb	r8, [r3, #15]	@ zero_extendqisi2	@ _77, LOCAL_SYSTEM_TIME.number
	ldrb	r7, [r3, #13]	@ zero_extendqisi2	@ LOCAL_SYSTEM_TIME.number, LOCAL_SYSTEM_TIME.number
.LBE153:
.LBE155:
.LBE158:
.LBB159:
.LBB148:
@ E:\NeuOrga\Programmieren\c_cpp\github_os\input\src\os_base\os_common.c:49:    *DWT_CTRL |= 1u;
	.loc 1 49 0
	orr	r2, r2, #1	@ _24, _23,
	str	r2, [r1]	@ _24, MEM[(volatile uint32 *)3758100480B]
@ E:\NeuOrga\Programmieren\c_cpp\github_os\input\src\os_base\os_common.c:52:    ASSIGN_UINT32(timebig, time);
	.loc 1 52 0
	ldr	r2, [sp, #4]	@ time.0_25, time
.LVL42:
.LBE148:
.LBE159:
.LBB160:
.LBB156:
.LBB154:
@ E:\NeuOrga\Programmieren\c_cpp\github_os\input\src\os_base\os_common.c:191:       uint16 tmp_sum = (uint16)ErsterSummand->number[pos] +(uint16)ZweiterSummand->number[pos] + carry;
	.loc 1 191 0
	ldrb	r1, [r3, #12]	@ zero_extendqisi2	@ LOCAL_SYSTEM_TIME.number, LOCAL_SYSTEM_TIME.number
	ldrb	ip, [r3, #11]	@ zero_extendqisi2	@ LOCAL_SYSTEM_TIME.number, LOCAL_SYSTEM_TIME.number
	ldrb	r6, [r3, #10]	@ zero_extendqisi2	@ LOCAL_SYSTEM_TIME.number, LOCAL_SYSTEM_TIME.number
	ldrb	r5, [r3, #9]	@ zero_extendqisi2	@ LOCAL_SYSTEM_TIME.number, LOCAL_SYSTEM_TIME.number
	ldrb	r4, [r3, #8]	@ zero_extendqisi2	@ LOCAL_SYSTEM_TIME.number, LOCAL_SYSTEM_TIME.number
@ E:\NeuOrga\Programmieren\c_cpp\github_os\input\src\os_base\os_common.c:192:       Summe->number[pos] = tmp_sum & 0xFFu;
	.loc 1 192 0
	uxtab	r8, r8, r2	@ tmp260, _77, time.0_25
.LVL43:
@ E:\NeuOrga\Programmieren\c_cpp\github_os\input\src\os_base\os_common.c:193:       carry = tmp_sum & 0xFF00u;
	.loc 1 193 0
	bic	r0, r8, #255	@ tmp266, tmp260,
@ E:\NeuOrga\Programmieren\c_cpp\github_os\input\src\os_base\os_common.c:191:       uint16 tmp_sum = (uint16)ErsterSummand->number[pos] +(uint16)ZweiterSummand->number[pos] + carry;
	.loc 1 191 0
	add	r0, r0, lr	@ tmp271, LOCAL_SYSTEM_TIME.number
	ubfx	lr, r2, #1, #8	@ tmp274, time.0_25,,
	add	lr, lr, r0	@ tmp_sum, tmp271
@ E:\NeuOrga\Programmieren\c_cpp\github_os\input\src\os_base\os_common.c:193:       carry = tmp_sum & 0xFF00u;
	.loc 1 193 0
	bic	r0, lr, #255	@ tmp279, tmp_sum,
	add	r7, r7, r0	@ _263, tmp279
@ E:\NeuOrga\Programmieren\c_cpp\github_os\input\src\os_base\os_common.c:191:       uint16 tmp_sum = (uint16)ErsterSummand->number[pos] +(uint16)ZweiterSummand->number[pos] + carry;
	.loc 1 191 0
	ubfx	r0, r2, #2, #8	@ tmp287, time.0_25,,
	add	r7, r7, r0	@ tmp_sum, tmp287
@ E:\NeuOrga\Programmieren\c_cpp\github_os\input\src\os_base\os_common.c:193:       carry = tmp_sum & 0xFF00u;
	.loc 1 193 0
	bic	r0, r7, #255	@ tmp291, tmp_sum,
	add	r1, r1, r0	@ _264, tmp291
@ E:\NeuOrga\Programmieren\c_cpp\github_os\input\src\os_base\os_common.c:191:       uint16 tmp_sum = (uint16)ErsterSummand->number[pos] +(uint16)ZweiterSummand->number[pos] + carry;
	.loc 1 191 0
	ubfx	r2, r2, #3, #8	@ tmp299, time.0_25,,
.LVL44:
	add	r2, r2, r1	@ tmp_sum, _264
@ E:\NeuOrga\Programmieren\c_cpp\github_os\input\src\os_base\os_common.c:192:       Summe->number[pos] = tmp_sum & 0xFFu;
	.loc 1 192 0
	strb	r8, [r3, #15]	@ tmp260, LOCAL_SYSTEM_TIME.number
.LVL45:
@ E:\NeuOrga\Programmieren\c_cpp\github_os\input\src\os_base\os_common.c:193:       carry = tmp_sum & 0xFF00u;
	.loc 1 193 0
	bic	r8, r2, #255	@ tmp303, tmp_sum,
@ E:\NeuOrga\Programmieren\c_cpp\github_os\input\src\os_base\os_common.c:191:       uint16 tmp_sum = (uint16)ErsterSummand->number[pos] +(uint16)ZweiterSummand->number[pos] + carry;
	.loc 1 191 0
	add	ip, ip, r8	@ tmp_sum, tmp303
@ E:\NeuOrga\Programmieren\c_cpp\github_os\input\src\os_base\os_common.c:193:       carry = tmp_sum & 0xFF00u;
	.loc 1 193 0
	bic	r8, ip, #255	@ tmp314, tmp_sum,
	add	r6, r6, r8	@ tmp319, tmp314
@ E:\NeuOrga\Programmieren\c_cpp\github_os\input\src\os_base\os_common.c:191:       uint16 tmp_sum = (uint16)ErsterSummand->number[pos] +(uint16)ZweiterSummand->number[pos] + carry;
	.loc 1 191 0
	uxth	r6, r6	@ tmp_sum, tmp319
@ E:\NeuOrga\Programmieren\c_cpp\github_os\input\src\os_base\os_common.c:193:       carry = tmp_sum & 0xFF00u;
	.loc 1 193 0
	bic	r8, r6, #255	@ tmp325, tmp_sum,
	add	r5, r5, r8	@ tmp330, tmp325
@ E:\NeuOrga\Programmieren\c_cpp\github_os\input\src\os_base\os_common.c:191:       uint16 tmp_sum = (uint16)ErsterSummand->number[pos] +(uint16)ZweiterSummand->number[pos] + carry;
	.loc 1 191 0
	uxth	r5, r5	@ tmp_sum, tmp330
@ E:\NeuOrga\Programmieren\c_cpp\github_os\input\src\os_base\os_common.c:193:       carry = tmp_sum & 0xFF00u;
	.loc 1 193 0
	bic	r8, r5, #255	@ tmp336, tmp_sum,
	add	r4, r4, r8	@ tmp341, tmp336
@ E:\NeuOrga\Programmieren\c_cpp\github_os\input\src\os_base\os_common.c:191:       uint16 tmp_sum = (uint16)ErsterSummand->number[pos] +(uint16)ZweiterSummand->number[pos] + carry;
	.loc 1 191 0
	ldrb	r0, [r3, #7]	@ zero_extendqisi2	@ LOCAL_SYSTEM_TIME.number, LOCAL_SYSTEM_TIME.number
	ldrb	r1, [r3, #6]	@ zero_extendqisi2	@ LOCAL_SYSTEM_TIME.number, LOCAL_SYSTEM_TIME.number
@ E:\NeuOrga\Programmieren\c_cpp\github_os\input\src\os_base\os_common.c:192:       Summe->number[pos] = tmp_sum & 0xFFu;
	.loc 1 192 0
	strb	lr, [r3, #14]	@ tmp_sum, LOCAL_SYSTEM_TIME.number
@ E:\NeuOrga\Programmieren\c_cpp\github_os\input\src\os_base\os_common.c:191:       uint16 tmp_sum = (uint16)ErsterSummand->number[pos] +(uint16)ZweiterSummand->number[pos] + carry;
	.loc 1 191 0
	uxth	r4, r4	@ tmp_sum, tmp341
@ E:\NeuOrga\Programmieren\c_cpp\github_os\input\src\os_base\os_common.c:193:       carry = tmp_sum & 0xFF00u;
	.loc 1 193 0
	bic	r8, r4, #255	@ tmp347, tmp_sum,
	add	r0, r0, r8	@ tmp352, tmp347
@ E:\NeuOrga\Programmieren\c_cpp\github_os\input\src\os_base\os_common.c:191:       uint16 tmp_sum = (uint16)ErsterSummand->number[pos] +(uint16)ZweiterSummand->number[pos] + carry;
	.loc 1 191 0
	uxth	r0, r0	@ tmp_sum, tmp352
.LVL46:
@ E:\NeuOrga\Programmieren\c_cpp\github_os\input\src\os_base\os_common.c:193:       carry = tmp_sum & 0xFF00u;
	.loc 1 193 0
	bic	lr, r0, #255	@ tmp358, tmp_sum,
.LVL47:
	add	r1, r1, lr	@ tmp363, tmp358
@ E:\NeuOrga\Programmieren\c_cpp\github_os\input\src\os_base\os_common.c:191:       uint16 tmp_sum = (uint16)ErsterSummand->number[pos] +(uint16)ZweiterSummand->number[pos] + carry;
	.loc 1 191 0
	uxth	r1, r1	@ tmp_sum, tmp363
@ E:\NeuOrga\Programmieren\c_cpp\github_os\input\src\os_base\os_common.c:192:       Summe->number[pos] = tmp_sum & 0xFFu;
	.loc 1 192 0
	strb	r2, [r3, #12]	@ tmp_sum, LOCAL_SYSTEM_TIME.number
@ E:\NeuOrga\Programmieren\c_cpp\github_os\input\src\os_base\os_common.c:191:       uint16 tmp_sum = (uint16)ErsterSummand->number[pos] +(uint16)ZweiterSummand->number[pos] + carry;
	.loc 1 191 0
	ldrb	r2, [r3, #5]	@ zero_extendqisi2	@ LOCAL_SYSTEM_TIME.number, LOCAL_SYSTEM_TIME.number
@ E:\NeuOrga\Programmieren\c_cpp\github_os\input\src\os_base\os_common.c:192:       Summe->number[pos] = tmp_sum & 0xFFu;
	.loc 1 192 0
	strb	r6, [r3, #10]	@ tmp_sum, LOCAL_SYSTEM_TIME.number
@ E:\NeuOrga\Programmieren\c_cpp\github_os\input\src\os_base\os_common.c:193:       carry = tmp_sum & 0xFF00u;
	.loc 1 193 0
	bic	r6, r1, #255	@ tmp369, tmp_sum,
	add	r2, r2, r6	@ tmp374, tmp369
@ E:\NeuOrga\Programmieren\c_cpp\github_os\input\src\os_base\os_common.c:191:       uint16 tmp_sum = (uint16)ErsterSummand->number[pos] +(uint16)ZweiterSummand->number[pos] + carry;
	.loc 1 191 0
	uxth	r2, r2	@ tmp_sum, tmp374
@ E:\NeuOrga\Programmieren\c_cpp\github_os\input\src\os_base\os_common.c:192:       Summe->number[pos] = tmp_sum & 0xFFu;
	.loc 1 192 0
	strb	r5, [r3, #9]	@ tmp_sum, LOCAL_SYSTEM_TIME.number
	strb	r4, [r3, #8]	@ tmp_sum, LOCAL_SYSTEM_TIME.number
	strb	r0, [r3, #7]	@ tmp_sum, LOCAL_SYSTEM_TIME.number
	strb	r1, [r3, #6]	@ tmp_sum, LOCAL_SYSTEM_TIME.number
	strb	r7, [r3, #13]	@ tmp_sum, LOCAL_SYSTEM_TIME.number
.LVL48:
	strb	ip, [r3, #11]	@ tmp_sum, LOCAL_SYSTEM_TIME.number
.LVL49:
	strb	r2, [r3, #5]	@ tmp_sum, LOCAL_SYSTEM_TIME.number
.LVL50:
@ E:\NeuOrga\Programmieren\c_cpp\github_os\input\src\os_base\os_common.c:191:       uint16 tmp_sum = (uint16)ErsterSummand->number[pos] +(uint16)ZweiterSummand->number[pos] + carry;
	.loc 1 191 0
	ldrb	r4, [r3, #4]	@ zero_extendqisi2	@ LOCAL_SYSTEM_TIME.number, LOCAL_SYSTEM_TIME.number
	ldrb	r0, [r3, #3]	@ zero_extendqisi2	@ LOCAL_SYSTEM_TIME.number, LOCAL_SYSTEM_TIME.number
	ldrb	r1, [r3, #2]	@ zero_extendqisi2	@ LOCAL_SYSTEM_TIME.number, LOCAL_SYSTEM_TIME.number
	ldrb	r5, [r3, #1]	@ zero_extendqisi2	@ LOCAL_SYSTEM_TIME.number, LOCAL_SYSTEM_TIME.number
@ E:\NeuOrga\Programmieren\c_cpp\github_os\input\src\os_base\os_common.c:193:       carry = tmp_sum & 0xFF00u;
	.loc 1 193 0
	bic	r2, r2, #255	@ tmp380, tmp_sum,
.LVL51:
	add	r2, r2, r4	@ tmp385, LOCAL_SYSTEM_TIME.number
@ E:\NeuOrga\Programmieren\c_cpp\github_os\input\src\os_base\os_common.c:191:       uint16 tmp_sum = (uint16)ErsterSummand->number[pos] +(uint16)ZweiterSummand->number[pos] + carry;
	.loc 1 191 0
	uxth	r2, r2	@ tmp_sum, tmp385
.LVL52:
@ E:\NeuOrga\Programmieren\c_cpp\github_os\input\src\os_base\os_common.c:193:       carry = tmp_sum & 0xFF00u;
	.loc 1 193 0
	bic	r4, r2, #255	@ tmp391, tmp_sum,
	add	r0, r0, r4	@ tmp396, tmp391
@ E:\NeuOrga\Programmieren\c_cpp\github_os\input\src\os_base\os_common.c:191:       uint16 tmp_sum = (uint16)ErsterSummand->number[pos] +(uint16)ZweiterSummand->number[pos] + carry;
	.loc 1 191 0
	uxth	r0, r0	@ tmp_sum, tmp396
@ E:\NeuOrga\Programmieren\c_cpp\github_os\input\src\os_base\os_common.c:193:       carry = tmp_sum & 0xFF00u;
	.loc 1 193 0
	bic	r4, r0, #255	@ tmp402, tmp_sum,
	add	r1, r1, r4	@ tmp407, tmp402
@ E:\NeuOrga\Programmieren\c_cpp\github_os\input\src\os_base\os_common.c:191:       uint16 tmp_sum = (uint16)ErsterSummand->number[pos] +(uint16)ZweiterSummand->number[pos] + carry;
	.loc 1 191 0
	uxth	r1, r1	@ tmp_sum, tmp407
@ E:\NeuOrga\Programmieren\c_cpp\github_os\input\src\os_base\os_common.c:193:       carry = tmp_sum & 0xFF00u;
	.loc 1 193 0
	bic	r4, r1, #255	@ tmp413, tmp_sum,
	add	r4, r4, r5	@ tmp418, LOCAL_SYSTEM_TIME.number
@ E:\NeuOrga\Programmieren\c_cpp\github_os\input\src\os_base\os_common.c:191:       uint16 tmp_sum = (uint16)ErsterSummand->number[pos] +(uint16)ZweiterSummand->number[pos] + carry;
	.loc 1 191 0
	uxth	r4, r4	@ tmp_sum, tmp418
@ E:\NeuOrga\Programmieren\c_cpp\github_os\input\src\os_base\os_common.c:192:       Summe->number[pos] = tmp_sum & 0xFFu;
	.loc 1 192 0
	strb	r2, [r3, #4]	@ tmp_sum, LOCAL_SYSTEM_TIME.number
.LVL53:
	strb	r0, [r3, #3]	@ tmp_sum, LOCAL_SYSTEM_TIME.number
.LVL54:
	strb	r1, [r3, #2]	@ tmp_sum, LOCAL_SYSTEM_TIME.number
.LVL55:
	strb	r4, [r3, #1]	@ tmp_sum, LOCAL_SYSTEM_TIME.number
.LVL56:
.LBE154:
.LBE156:
.LBE160:
@ E:\NeuOrga\Programmieren\c_cpp\github_os\input\src\os_base\os_common.c:29: }
	.loc 1 29 0
	add	sp, sp, #24	@,,
	.cfi_def_cfa_offset 24
	@ sp needed	@
	pop	{r4, r5, r6, r7, r8, pc}	@
.LVL57:
.L34:
	.align	2
.L33:
	.word	-536862800
	.word	-536809988
	.word	-978530731
	.word	-536866812
	.word	-536866816
	.word	LOCAL_SYSTEM_TIME
	.cfi_endproc
.LFE2:
	.size	OS_UpdateCurrentTime, .-OS_UpdateCurrentTime
	.align	1
	.p2align 2,,3
	.global	OS_READ_AND_RESET_CURRENT_TIME
	.syntax unified
	.thumb
	.thumb_func
	.fpu softvfp
	.type	OS_READ_AND_RESET_CURRENT_TIME, %function
OS_READ_AND_RESET_CURRENT_TIME:
.LFB3:
	.loc 1 32 0
	.cfi_startproc
	@ args = 0, pretend = 0, frame = 8
	@ frame_needed = 0, uses_anonymous_args = 0
	@ link register save eliminated.
.LVL58:
	push	{r4, r5}	@
	.cfi_def_cfa_offset 8
	.cfi_offset 4, -8
	.cfi_offset 5, -4
@ E:\NeuOrga\Programmieren\c_cpp\github_os\input\src\os_base\os_common.c:37:    *DWT_LAR = 0xC5ACCE55u;
	.loc 1 37 0
	ldr	r2, .L37	@ tmp125,
@ E:\NeuOrga\Programmieren\c_cpp\github_os\input\src\os_base\os_common.c:40:    *SCB_DEMCR |= 0x01000000u;
	.loc 1 40 0
	ldr	r5, .L37+4	@ tmp127,
@ E:\NeuOrga\Programmieren\c_cpp\github_os\input\src\os_base\os_common.c:37:    *DWT_LAR = 0xC5ACCE55u;
	.loc 1 37 0
	ldr	r1, .L37+8	@ tmp126,
@ E:\NeuOrga\Programmieren\c_cpp\github_os\input\src\os_base\os_common.c:43:    time = *DWT_CYCCNT;
	.loc 1 43 0
	ldr	r4, .L37+12	@ tmp129,
@ E:\NeuOrga\Programmieren\c_cpp\github_os\input\src\os_base\os_common.c:32: {
	.loc 1 32 0
	sub	sp, sp, #8	@,,
	.cfi_def_cfa_offset 16
@ E:\NeuOrga\Programmieren\c_cpp\github_os\input\src\os_base\os_common.c:34:    volatile uint32 time = 0u;
	.loc 1 34 0
	movs	r3, #0	@ tmp124,
	str	r3, [sp, #4]	@ tmp124, time
@ E:\NeuOrga\Programmieren\c_cpp\github_os\input\src\os_base\os_common.c:37:    *DWT_LAR = 0xC5ACCE55u;
	.loc 1 37 0
	str	r1, [r2]	@ tmp126, MEM[(volatile uint32 *)3758104496B]
@ E:\NeuOrga\Programmieren\c_cpp\github_os\input\src\os_base\os_common.c:40:    *SCB_DEMCR |= 0x01000000u;
	.loc 1 40 0
	ldr	r2, [r5]	@ _1, MEM[(volatile uint32 *)3758157308B]
@ E:\NeuOrga\Programmieren\c_cpp\github_os\input\src\os_base\os_common.c:49:    *DWT_CTRL |= 1u;
	.loc 1 49 0
	ldr	r1, .L37+16	@ tmp132,
@ E:\NeuOrga\Programmieren\c_cpp\github_os\input\src\os_base\os_common.c:40:    *SCB_DEMCR |= 0x01000000u;
	.loc 1 40 0
	orr	r2, r2, #16777216	@ _2, _1,
	str	r2, [r5]	@ _2, MEM[(volatile uint32 *)3758157308B]
@ E:\NeuOrga\Programmieren\c_cpp\github_os\input\src\os_base\os_common.c:43:    time = *DWT_CYCCNT;
	.loc 1 43 0
	ldr	r2, [r4]	@ _3, MEM[(volatile uint32 *)3758100484B]
	str	r2, [sp, #4]	@ _3, time
@ E:\NeuOrga\Programmieren\c_cpp\github_os\input\src\os_base\os_common.c:46:    *DWT_CYCCNT = 0u;
	.loc 1 46 0
	str	r3, [r4]	@ tmp124, MEM[(volatile uint32 *)3758100484B]
@ E:\NeuOrga\Programmieren\c_cpp\github_os\input\src\os_base\os_common.c:49:    *DWT_CTRL |= 1u;
	.loc 1 49 0
	ldr	r2, [r1]	@ _4, MEM[(volatile uint32 *)3758100480B]
	orr	r2, r2, #1	@ _5, _4,
	str	r2, [r1]	@ _5, MEM[(volatile uint32 *)3758100480B]
@ E:\NeuOrga\Programmieren\c_cpp\github_os\input\src\os_base\os_common.c:52:    ASSIGN_UINT32(timebig, time);
	.loc 1 52 0
	ldr	r2, [sp, #4]	@ time.0_6, time
.LVL59:
	str	r3, [r0]	@ unaligned	@ tmp124, MEM[(void *)timebig_14(D)]
.LBB161:
.LBB162:
@ E:\NeuOrga\Programmieren\c_cpp\github_os\input\src\os_base\os_common.c:319:       leftOperand->number[pos] = (rightOperand>>i)&0xFFu;
	.loc 1 319 0
	lsrs	r5, r2, #1	@ tmp137, time.0_6,
	lsrs	r4, r2, #2	@ tmp139, time.0_6,
	lsrs	r1, r2, #3	@ tmp141, time.0_6,
	str	r3, [r0, #4]	@ unaligned	@ tmp124, MEM[(void *)timebig_14(D)]
	str	r3, [r0, #8]	@ unaligned	@ tmp124, MEM[(void *)timebig_14(D)]
.LVL60:
	strb	r2, [r0, #15]	@ time.0_6, MEM[(struct big_int *)timebig_14(D)].number
.LVL61:
	strb	r5, [r0, #14]	@ tmp137, MEM[(struct big_int *)timebig_14(D)].number
.LVL62:
	strb	r4, [r0, #13]	@ tmp139, MEM[(struct big_int *)timebig_14(D)].number
.LVL63:
	strb	r1, [r0, #12]	@ tmp141, MEM[(struct big_int *)timebig_14(D)].number
.LVL64:
.LBE162:
.LBE161:
@ E:\NeuOrga\Programmieren\c_cpp\github_os\input\src\os_base\os_common.c:56: }
	.loc 1 56 0
	add	sp, sp, #8	@,,
	.cfi_def_cfa_offset 8
	@ sp needed	@
	pop	{r4, r5}	@
	.cfi_restore 5
	.cfi_restore 4
	.cfi_def_cfa_offset 0
	bx	lr	@
.L38:
	.align	2
.L37:
	.word	-536862800
	.word	-536809988
	.word	-978530731
	.word	-536866812
	.word	-536866816
	.cfi_endproc
.LFE3:
	.size	OS_READ_AND_RESET_CURRENT_TIME, .-OS_READ_AND_RESET_CURRENT_TIME
	.align	1
	.p2align 2,,3
	.global	INT_DIV
	.syntax unified
	.thumb
	.thumb_func
	.fpu softvfp
	.type	INT_DIV, %function
INT_DIV:
.LFB4:
	.loc 1 59 0
	.cfi_startproc
	@ args = 0, pretend = 0, frame = 368
	@ frame_needed = 0, uses_anonymous_args = 0
.LVL65:
	push	{r4, r5, r6, r7, r8, r9, r10, fp, lr}	@
	.cfi_def_cfa_offset 36
	.cfi_offset 4, -36
	.cfi_offset 5, -32
	.cfi_offset 6, -28
	.cfi_offset 7, -24
	.cfi_offset 8, -20
	.cfi_offset 9, -16
	.cfi_offset 10, -12
	.cfi_offset 11, -8
	.cfi_offset 14, -4
	mov	r4, r1	@ Dividend, Dividend
	sub	sp, sp, #372	@,,
	.cfi_def_cfa_offset 408
.LVL66:
@ E:\NeuOrga\Programmieren\c_cpp\github_os\input\src\os_base\os_common.c:59: {
	.loc 1 59 0
	mov	r6, r2	@ Divisor, Divisor
	ldr	r3, [r4, #12]	@ unaligned	@, MEM[(char * {ref-all})Dividend_10(D)]
	ldr	r2, [r4, #8]	@ unaligned	@, MEM[(char * {ref-all})Dividend_10(D)]
.LVL67:
	str	r0, [sp, #232]	@ Quotient, %sfp
	ldr	r0, [r1]	@ unaligned	@, MEM[(char * {ref-all})Dividend_10(D)]
.LVL68:
	ldr	r1, [r1, #4]	@ unaligned	@, MEM[(char * {ref-all})Dividend_10(D)]
.LVL69:
	add	r5, sp, #288	@ tmp562,,
	stmia	r5!, {r0, r1, r2, r3}	@ tmp562,,,,
	ldr	r0, [r6]	@ unaligned	@, MEM[(char * {ref-all})Divisor_11(D)]
	ldr	r1, [r6, #4]	@ unaligned	@, MEM[(char * {ref-all})Divisor_11(D)]
	ldr	r2, [r6, #8]	@ unaligned	@, MEM[(char * {ref-all})Divisor_11(D)]
	ldr	r3, [r6, #12]	@ unaligned	@, MEM[(char * {ref-all})Divisor_11(D)]
	add	r5, sp, #304	@ tmp564,,
	stmia	r5!, {r0, r1, r2, r3}	@ tmp564,,,,
	ldr	r0, [r4]	@ unaligned	@, MEM[(char * {ref-all})Dividend_10(D)]
	ldr	r1, [r4, #4]	@ unaligned	@, MEM[(char * {ref-all})Dividend_10(D)]
	ldr	r2, [r4, #8]	@ unaligned	@, MEM[(char * {ref-all})Dividend_10(D)]
	ldr	r3, [r4, #12]	@ unaligned	@, MEM[(char * {ref-all})Dividend_10(D)]
.LBB218:
.LBB219:
@ E:\NeuOrga\Programmieren\c_cpp\github_os\input\src\os_base\os_common.c:252:       if(Operand1->number[pos] != Operand2->number[pos])
	.loc 1 252 0
	ldrb	r6, [sp, #304]	@ zero_extendqisi2	@ tmp_Divisor.number, tmp_Divisor.number
.LVL70:
	movs	r5, #0	@ tmp561,
	add	r4, sp, #320	@ tmp566,,
.LVL71:
	stmia	r4!, {r0, r1, r2, r3}	@ tmp566,,,,
.LVL72:
	str	r5, [sp, #276]	@ tmp561, MEM[(void *)&local_zero]
	str	r5, [sp, #272]	@ tmp561, MEM[(void *)&local_zero]
	str	r5, [sp, #280]	@ tmp561, MEM[(void *)&local_zero]
	str	r5, [sp, #284]	@ tmp561, MEM[(void *)&local_zero]
	cmp	r6, #0	@ tmp_Divisor.number
	bne	.L40	@
.LVL73:
	ldrb	r2, [sp, #305]	@ zero_extendqisi2	@ tmp_Divisor.number, tmp_Divisor.number
	ldrb	r3, [sp, #273]	@ zero_extendqisi2	@ local_zero.number, local_zero.number
	cmp	r2, r3	@ tmp_Divisor.number, local_zero.number
	bne	.L40	@,
.LVL74:
	ldrb	r2, [sp, #274]	@ zero_extendqisi2	@ local_zero.number, local_zero.number
	ldrb	r3, [sp, #306]	@ zero_extendqisi2	@ tmp_Divisor.number, tmp_Divisor.number
	cmp	r2, r3	@ local_zero.number, tmp_Divisor.number
	bne	.L40	@,
.LVL75:
	ldrb	r2, [sp, #307]	@ zero_extendqisi2	@ tmp_Divisor.number, tmp_Divisor.number
	ldrb	r3, [sp, #275]	@ zero_extendqisi2	@ local_zero.number, local_zero.number
	cmp	r2, r3	@ tmp_Divisor.number, local_zero.number
	bne	.L40	@,
.LVL76:
	ldrb	r2, [sp, #276]	@ zero_extendqisi2	@ local_zero.number, local_zero.number
	ldrb	r3, [sp, #308]	@ zero_extendqisi2	@ tmp_Divisor.number, tmp_Divisor.number
	cmp	r2, r3	@ local_zero.number, tmp_Divisor.number
	bne	.L40	@,
.LVL77:
	ldrb	r2, [sp, #277]	@ zero_extendqisi2	@ local_zero.number, local_zero.number
	ldrb	r3, [sp, #309]	@ zero_extendqisi2	@ tmp_Divisor.number, tmp_Divisor.number
	cmp	r2, r3	@ local_zero.number, tmp_Divisor.number
	bne	.L40	@,
.LVL78:
	ldrb	r2, [sp, #278]	@ zero_extendqisi2	@ local_zero.number, local_zero.number
	ldrb	r3, [sp, #310]	@ zero_extendqisi2	@ tmp_Divisor.number, tmp_Divisor.number
	cmp	r2, r3	@ local_zero.number, tmp_Divisor.number
	bne	.L40	@,
.LVL79:
	ldrb	r2, [sp, #279]	@ zero_extendqisi2	@ local_zero.number, local_zero.number
	ldrb	r3, [sp, #311]	@ zero_extendqisi2	@ tmp_Divisor.number, tmp_Divisor.number
	cmp	r2, r3	@ local_zero.number, tmp_Divisor.number
	bne	.L40	@,
.LVL80:
	ldrb	r2, [sp, #280]	@ zero_extendqisi2	@ local_zero.number, local_zero.number
	ldrb	r3, [sp, #312]	@ zero_extendqisi2	@ tmp_Divisor.number, tmp_Divisor.number
	cmp	r2, r3	@ local_zero.number, tmp_Divisor.number
	bne	.L40	@,
.LVL81:
	ldrb	r2, [sp, #281]	@ zero_extendqisi2	@ local_zero.number, local_zero.number
	ldrb	r3, [sp, #313]	@ zero_extendqisi2	@ tmp_Divisor.number, tmp_Divisor.number
	cmp	r2, r3	@ local_zero.number, tmp_Divisor.number
	bne	.L40	@,
.LVL82:
	ldrb	r2, [sp, #282]	@ zero_extendqisi2	@ local_zero.number, local_zero.number
	ldrb	r3, [sp, #314]	@ zero_extendqisi2	@ tmp_Divisor.number, tmp_Divisor.number
	cmp	r2, r3	@ local_zero.number, tmp_Divisor.number
	bne	.L40	@,
.LVL83:
	ldrb	r2, [sp, #283]	@ zero_extendqisi2	@ local_zero.number, local_zero.number
	ldrb	r3, [sp, #315]	@ zero_extendqisi2	@ tmp_Divisor.number, tmp_Divisor.number
	cmp	r2, r3	@ local_zero.number, tmp_Divisor.number
	bne	.L40	@,
.LVL84:
	ldrb	r2, [sp, #284]	@ zero_extendqisi2	@ local_zero.number, local_zero.number
	ldrb	r3, [sp, #316]	@ zero_extendqisi2	@ tmp_Divisor.number, tmp_Divisor.number
	cmp	r2, r3	@ local_zero.number, tmp_Divisor.number
	bne	.L40	@,
.LVL85:
	ldrb	r2, [sp, #285]	@ zero_extendqisi2	@ local_zero.number, local_zero.number
	ldrb	r3, [sp, #317]	@ zero_extendqisi2	@ tmp_Divisor.number, tmp_Divisor.number
	cmp	r2, r3	@ local_zero.number, tmp_Divisor.number
	bne	.L40	@,
.LVL86:
	ldrb	r2, [sp, #286]	@ zero_extendqisi2	@ local_zero.number, local_zero.number
	ldrb	r3, [sp, #318]	@ zero_extendqisi2	@ tmp_Divisor.number, tmp_Divisor.number
	cmp	r2, r3	@ local_zero.number, tmp_Divisor.number
	bne	.L40	@,
.LVL87:
	ldrb	r2, [sp, #287]	@ zero_extendqisi2	@ local_zero.number, local_zero.number
	ldrb	r3, [sp, #319]	@ zero_extendqisi2	@ tmp_Divisor.number, tmp_Divisor.number
	cmp	r2, r3	@ local_zero.number, tmp_Divisor.number
	bne	.L40	@,
.LVL88:
.LBE219:
.LBE218:
.LBB220:
.LBB221:
@ E:\NeuOrga\Programmieren\c_cpp\github_os\input\src\os_base\os_common.c:6:    OS_SW_BUG[task_func_nr] = bug_nr;
	.loc 1 6 0
	ldr	r3, .L226	@ tmp600,
	movs	r2, #12	@ tmp601,
	strb	r2, [r3, #20]	@ tmp601, OS_SW_BUG
.LVL89:
.LBE221:
.LBE220:
@ E:\NeuOrga\Programmieren\c_cpp\github_os\input\src\os_base\os_common.c:133: }
	.loc 1 133 0
	add	sp, sp, #372	@,,
	.cfi_remember_state
	.cfi_def_cfa_offset 36
	@ sp needed	@
	pop	{r4, r5, r6, r7, r8, r9, r10, fp, pc}	@
.LVL90:
.L227:
	.align	2
.L226:
	.word	OS_SW_BUG
.LVL91:
.L40:
	.cfi_restore_state
.LBB222:
.LBB223:
.LBB224:
@ E:\NeuOrga\Programmieren\c_cpp\github_os\input\src\os_base\os_common.c:270:       if(Operand1->number[pos] < Operand2->number[pos])
	.loc 1 270 0
	ldrb	r3, [sp, #288]	@ zero_extendqisi2	@ _164, tmp_Dividend.number
	ldrb	ip, [sp, #320]	@ zero_extendqisi2	@ rest_number_I_lsm.81, rest.number
	str	r3, [sp, #140]	@ _164, %sfp
	cmp	r3, ip	@ _164, rest_number_I_lsm.81
	bhi	.L82	@,
	ldrb	r2, [sp, #289]	@ zero_extendqisi2	@ pretmp_5080, tmp_Dividend.number
	str	r2, [sp, #220]	@ pretmp_5080, %sfp
.LBE224:
.LBE223:
.LBE222:
.LBB235:
.LBB236:
.LBB237:
@ E:\NeuOrga\Programmieren\c_cpp\github_os\input\src\os_base\os_common.c:210:          tmp_diff = 0x100u+(uint16)Minuend->number[pos] - (uint16)Subtrahend->number[pos] - (uint16)carry;
	.loc 1 210 0
	uxth	r3, r3	@ _861, _164
	uxth	r2, r2	@ _843, pretmp_5080
	str	r3, [sp, #264]	@ _861, %sfp
	add	r3, r3, #256	@ tmp1234, _861,
	ldrb	r1, [sp, #321]	@ zero_extendqisi2	@ rest_number_I_lsm.83, rest.number
	str	r2, [sp, #256]	@ _843, %sfp
.LBE237:
.LBE236:
.LBE235:
@ E:\NeuOrga\Programmieren\c_cpp\github_os\input\src\os_base\os_common.c:75:    uint32 nibble_shift_left_amount = 0u;
	.loc 1 75 0
	movs	r0, #0	@ nibble_shift_left_amount,
.LBB246:
.LBB242:
.LBB238:
@ E:\NeuOrga\Programmieren\c_cpp\github_os\input\src\os_base\os_common.c:210:          tmp_diff = 0x100u+(uint16)Minuend->number[pos] - (uint16)Subtrahend->number[pos] - (uint16)carry;
	.loc 1 210 0
	add	r2, r2, #256	@ tmp1232, _843,
	str	r3, [sp, #268]	@ tmp1234, %sfp
	ldr	r3, [sp, #140]	@ _164, %sfp
	str	r1, [sp, #184]	@ rest_number_I_lsm.83, %sfp
.LBE238:
.LBE242:
.LBE246:
@ E:\NeuOrga\Programmieren\c_cpp\github_os\input\src\os_base\os_common.c:75:    uint32 nibble_shift_left_amount = 0u;
	.loc 1 75 0
	str	r0, [sp, #224]	@ nibble_shift_left_amount, %sfp
.LBB247:
.LBB243:
.LBB239:
@ E:\NeuOrga\Programmieren\c_cpp\github_os\input\src\os_base\os_common.c:210:          tmp_diff = 0x100u+(uint16)Minuend->number[pos] - (uint16)Subtrahend->number[pos] - (uint16)carry;
	.loc 1 210 0
	str	r2, [sp, #260]	@ tmp1232, %sfp
	str	r1, [sp, #100]	@ rest_number_I_lsm.83, %sfp
.LVL92:
.L99:
.LBE239:
.LBE243:
.LBE247:
.LBB248:
.LBB229:
.LBB225:
@ E:\NeuOrga\Programmieren\c_cpp\github_os\input\src\os_base\os_common.c:275:       else if (Operand1->number[pos] > Operand2->number[pos])
	.loc 1 275 0
	cmp	ip, r3	@ rest_number_I_lsm.81, _164
	bhi	.L83	@,
.LVL93:
@ E:\NeuOrga\Programmieren\c_cpp\github_os\input\src\os_base\os_common.c:270:       if(Operand1->number[pos] < Operand2->number[pos])
	.loc 1 270 0
	ldr	r3, [sp, #184]	@ rest_number_I_lsm.83, %sfp
	ldr	r2, [sp, #220]	@ pretmp_5080, %sfp
	cmp	r3, r2	@ rest_number_I_lsm.83, pretmp_5080
	bcc	.L82	@,
	ldrb	r2, [sp, #322]	@ zero_extendqisi2	@ rest.number, rest.number
	ldrb	r3, [sp, #290]	@ zero_extendqisi2	@ pretmp_3631, tmp_Dividend.number
	str	r2, [sp, #188]	@ rest.number, %sfp
	str	r3, [sp, #152]	@ pretmp_3631, %sfp
	str	r2, [sp, #72]	@ rest.number, %sfp
@ E:\NeuOrga\Programmieren\c_cpp\github_os\input\src\os_base\os_common.c:275:       else if (Operand1->number[pos] > Operand2->number[pos])
	.loc 1 275 0
	bhi	.L189	@,
.LVL94:
@ E:\NeuOrga\Programmieren\c_cpp\github_os\input\src\os_base\os_common.c:270:       if(Operand1->number[pos] < Operand2->number[pos])
	.loc 1 270 0
	cmp	r2, r3	@ rest.number, pretmp_3631
	bcc	.L86	@,
	ldrb	r2, [sp, #323]	@ zero_extendqisi2	@ rest.number, rest.number
	ldrb	r1, [sp, #291]	@ zero_extendqisi2	@ pretmp_3633, tmp_Dividend.number
	str	r2, [sp, #164]	@ rest.number, %sfp
	str	r1, [sp, #156]	@ pretmp_3633, %sfp
	str	r2, [sp, #80]	@ rest.number, %sfp
@ E:\NeuOrga\Programmieren\c_cpp\github_os\input\src\os_base\os_common.c:275:       else if (Operand1->number[pos] > Operand2->number[pos])
	.loc 1 275 0
	bhi	.L190	@,
.LVL95:
@ E:\NeuOrga\Programmieren\c_cpp\github_os\input\src\os_base\os_common.c:270:       if(Operand1->number[pos] < Operand2->number[pos])
	.loc 1 270 0
	cmp	r2, r1	@ rest.number, pretmp_3633
	bcc	.L86	@,
	ldrb	r2, [sp, #324]	@ zero_extendqisi2	@ rest.number, rest.number
	ldrb	r1, [sp, #292]	@ zero_extendqisi2	@ pretmp_3635, tmp_Dividend.number
	str	r2, [sp, #148]	@ rest.number, %sfp
	str	r1, [sp, #160]	@ pretmp_3635, %sfp
	str	r2, [sp, #76]	@ rest.number, %sfp
@ E:\NeuOrga\Programmieren\c_cpp\github_os\input\src\os_base\os_common.c:275:       else if (Operand1->number[pos] > Operand2->number[pos])
	.loc 1 275 0
	bhi	.L191	@,
.LVL96:
@ E:\NeuOrga\Programmieren\c_cpp\github_os\input\src\os_base\os_common.c:270:       if(Operand1->number[pos] < Operand2->number[pos])
	.loc 1 270 0
	cmp	r2, r1	@ rest.number, pretmp_3635
	bcc	.L86	@,
	ldrb	r2, [sp, #325]	@ zero_extendqisi2	@ rest.number, rest.number
	ldrb	r1, [sp, #293]	@ zero_extendqisi2	@ pretmp_3637, tmp_Dividend.number
	str	r2, [sp, #144]	@ rest.number, %sfp
	str	r1, [sp, #168]	@ pretmp_3637, %sfp
	str	r2, [sp, #120]	@ rest.number, %sfp
@ E:\NeuOrga\Programmieren\c_cpp\github_os\input\src\os_base\os_common.c:275:       else if (Operand1->number[pos] > Operand2->number[pos])
	.loc 1 275 0
	bhi	.L192	@,
.LVL97:
@ E:\NeuOrga\Programmieren\c_cpp\github_os\input\src\os_base\os_common.c:270:       if(Operand1->number[pos] < Operand2->number[pos])
	.loc 1 270 0
	cmp	r2, r1	@ rest.number, pretmp_3637
	bcc	.L86	@,
	ldrb	r1, [sp, #326]	@ zero_extendqisi2	@ rest.number, rest.number
	ldrb	r4, [sp, #294]	@ zero_extendqisi2	@ pretmp_3639, tmp_Dividend.number
	str	r1, [sp, #136]	@ rest.number, %sfp
	str	r4, [sp, #172]	@ pretmp_3639, %sfp
	str	r1, [sp, #116]	@ rest.number, %sfp
@ E:\NeuOrga\Programmieren\c_cpp\github_os\input\src\os_base\os_common.c:275:       else if (Operand1->number[pos] > Operand2->number[pos])
	.loc 1 275 0
	bhi	.L193	@,
	mov	r2, r1	@ rest.number, rest.number
.LVL98:
@ E:\NeuOrga\Programmieren\c_cpp\github_os\input\src\os_base\os_common.c:270:       if(Operand1->number[pos] < Operand2->number[pos])
	.loc 1 270 0
	ldr	r1, [sp, #172]	@ pretmp_3639, %sfp
	cmp	r2, r1	@ rest.number, pretmp_3639
	bcc	.L86	@,
	ldrb	r2, [sp, #327]	@ zero_extendqisi2	@ rest.number, rest.number
	ldrb	r1, [sp, #295]	@ zero_extendqisi2	@ pretmp_3641, tmp_Dividend.number
	str	r2, [sp, #128]	@ rest.number, %sfp
	str	r1, [sp, #176]	@ pretmp_3641, %sfp
	str	r2, [sp, #68]	@ rest.number, %sfp
@ E:\NeuOrga\Programmieren\c_cpp\github_os\input\src\os_base\os_common.c:275:       else if (Operand1->number[pos] > Operand2->number[pos])
	.loc 1 275 0
	bhi	.L194	@,
.LVL99:
@ E:\NeuOrga\Programmieren\c_cpp\github_os\input\src\os_base\os_common.c:270:       if(Operand1->number[pos] < Operand2->number[pos])
	.loc 1 270 0
	cmp	r2, r1	@ rest.number, pretmp_3641
	bcc	.L86	@,
	ldrb	r2, [sp, #328]	@ zero_extendqisi2	@ rest.number, rest.number
	ldrb	r1, [sp, #296]	@ zero_extendqisi2	@ pretmp_3643, tmp_Dividend.number
	str	r2, [sp, #132]	@ rest.number, %sfp
	str	r1, [sp, #180]	@ pretmp_3643, %sfp
	str	r2, [sp, #60]	@ rest.number, %sfp
@ E:\NeuOrga\Programmieren\c_cpp\github_os\input\src\os_base\os_common.c:275:       else if (Operand1->number[pos] > Operand2->number[pos])
	.loc 1 275 0
	bhi	.L195	@,
.LVL100:
@ E:\NeuOrga\Programmieren\c_cpp\github_os\input\src\os_base\os_common.c:270:       if(Operand1->number[pos] < Operand2->number[pos])
	.loc 1 270 0
	cmp	r2, r1	@ rest.number, pretmp_3643
	bcc	.L86	@,
	ldrb	r2, [sp, #329]	@ zero_extendqisi2	@ rest.number, rest.number
	ldrb	r1, [sp, #297]	@ zero_extendqisi2	@ pretmp_3645, tmp_Dividend.number
	str	r2, [sp, #124]	@ rest.number, %sfp
	str	r1, [sp, #192]	@ pretmp_3645, %sfp
	str	r2, [sp, #64]	@ rest.number, %sfp
@ E:\NeuOrga\Programmieren\c_cpp\github_os\input\src\os_base\os_common.c:275:       else if (Operand1->number[pos] > Operand2->number[pos])
	.loc 1 275 0
	bhi	.L196	@,
.LVL101:
@ E:\NeuOrga\Programmieren\c_cpp\github_os\input\src\os_base\os_common.c:270:       if(Operand1->number[pos] < Operand2->number[pos])
	.loc 1 270 0
	cmp	r2, r1	@ rest.number, pretmp_3645
	bcc	.L86	@,
	ldrb	r2, [sp, #330]	@ zero_extendqisi2	@ rest.number, rest.number
	ldrb	r1, [sp, #298]	@ zero_extendqisi2	@ pretmp_3647, tmp_Dividend.number
	str	r2, [sp, #112]	@ rest.number, %sfp
	str	r1, [sp, #196]	@ pretmp_3647, %sfp
	str	r2, [sp, #56]	@ rest.number, %sfp
@ E:\NeuOrga\Programmieren\c_cpp\github_os\input\src\os_base\os_common.c:275:       else if (Operand1->number[pos] > Operand2->number[pos])
	.loc 1 275 0
	bhi	.L197	@,
.LVL102:
@ E:\NeuOrga\Programmieren\c_cpp\github_os\input\src\os_base\os_common.c:270:       if(Operand1->number[pos] < Operand2->number[pos])
	.loc 1 270 0
	cmp	r2, r1	@ rest.number, pretmp_3647
	bcc	.L86	@,
	ldrb	r1, [sp, #331]	@ zero_extendqisi2	@ rest.number, rest.number
	ldrb	r4, [sp, #299]	@ zero_extendqisi2	@ pretmp_3649, tmp_Dividend.number
	str	r1, [sp, #108]	@ rest.number, %sfp
	str	r4, [sp, #200]	@ pretmp_3649, %sfp
	str	r1, [sp, #52]	@ rest.number, %sfp
@ E:\NeuOrga\Programmieren\c_cpp\github_os\input\src\os_base\os_common.c:275:       else if (Operand1->number[pos] > Operand2->number[pos])
	.loc 1 275 0
	bhi	.L198	@,
	mov	r2, r1	@ rest.number, rest.number
.LVL103:
@ E:\NeuOrga\Programmieren\c_cpp\github_os\input\src\os_base\os_common.c:270:       if(Operand1->number[pos] < Operand2->number[pos])
	.loc 1 270 0
	ldr	r1, [sp, #200]	@ pretmp_3649, %sfp
	cmp	r2, r1	@ rest.number, pretmp_3649
	bcc	.L86	@,
	ldrb	r2, [sp, #332]	@ zero_extendqisi2	@ rest.number, rest.number
	ldrb	r1, [sp, #300]	@ zero_extendqisi2	@ pretmp_3651, tmp_Dividend.number
	str	r2, [sp, #84]	@ rest.number, %sfp
	str	r1, [sp, #204]	@ pretmp_3651, %sfp
	str	r2, [sp, #104]	@ rest.number, %sfp
@ E:\NeuOrga\Programmieren\c_cpp\github_os\input\src\os_base\os_common.c:275:       else if (Operand1->number[pos] > Operand2->number[pos])
	.loc 1 275 0
	bhi	.L199	@,
.LVL104:
@ E:\NeuOrga\Programmieren\c_cpp\github_os\input\src\os_base\os_common.c:270:       if(Operand1->number[pos] < Operand2->number[pos])
	.loc 1 270 0
	cmp	r2, r1	@ rest.number, pretmp_3651
	bcc	.L86	@,
	ldrb	r2, [sp, #333]	@ zero_extendqisi2	@ rest.number, rest.number
	ldrb	r1, [sp, #301]	@ zero_extendqisi2	@ pretmp_3652, tmp_Dividend.number
	str	r2, [sp, #88]	@ rest.number, %sfp
	str	r1, [sp, #208]	@ pretmp_3652, %sfp
	str	r2, [sp, #48]	@ rest.number, %sfp
@ E:\NeuOrga\Programmieren\c_cpp\github_os\input\src\os_base\os_common.c:275:       else if (Operand1->number[pos] > Operand2->number[pos])
	.loc 1 275 0
	bhi	.L200	@,
	mov	r2, r1	@ pretmp_3652, pretmp_3652
.LVL105:
@ E:\NeuOrga\Programmieren\c_cpp\github_os\input\src\os_base\os_common.c:270:       if(Operand1->number[pos] < Operand2->number[pos])
	.loc 1 270 0
	ldr	r1, [sp, #88]	@ rest.number, %sfp
	cmp	r2, r1	@ pretmp_3652, rest.number
	bhi	.L86	@,
	ldrb	r2, [sp, #334]	@ zero_extendqisi2	@ rest.number, rest.number
	ldrb	r1, [sp, #302]	@ zero_extendqisi2	@ pretmp_3655, tmp_Dividend.number
	str	r2, [sp, #92]	@ rest.number, %sfp
	str	r1, [sp, #212]	@ pretmp_3655, %sfp
	str	r2, [sp, #44]	@ rest.number, %sfp
@ E:\NeuOrga\Programmieren\c_cpp\github_os\input\src\os_base\os_common.c:275:       else if (Operand1->number[pos] > Operand2->number[pos])
	.loc 1 275 0
	bcc	.L201	@,
.LVL106:
@ E:\NeuOrga\Programmieren\c_cpp\github_os\input\src\os_base\os_common.c:270:       if(Operand1->number[pos] < Operand2->number[pos])
	.loc 1 270 0
	cmp	r2, r1	@ rest.number, pretmp_3655
	bcc	.L86	@,
	ldrb	r2, [sp, #335]	@ zero_extendqisi2	@ _216, rest.number
	ldrb	r1, [sp, #303]	@ zero_extendqisi2	@ pretmp_3657, tmp_Dividend.number
	str	r2, [sp, #96]	@ _216, %sfp
	str	r1, [sp, #216]	@ pretmp_3657, %sfp
	str	r2, [sp, #40]	@ _216, %sfp
@ E:\NeuOrga\Programmieren\c_cpp\github_os\input\src\os_base\os_common.c:275:       else if (Operand1->number[pos] > Operand2->number[pos])
	.loc 1 275 0
	bhi	.L85	@,
.LVL107:
	cmp	r2, r1	@ _216, pretmp_3657
	bhi	.L85	@,
.LVL108:
.L86:
.LBE225:
.LBE229:
.LBB230:
.LBB231:
@ E:\NeuOrga\Programmieren\c_cpp\github_os\input\src\os_base\os_common.c:252:       if(Operand1->number[pos] != Operand2->number[pos])
	.loc 1 252 0
	ldr	r2, [sp, #140]	@ _164, %sfp
	cmp	ip, r2	@ rest_number_I_lsm.81, _164
	bne	.L82	@,
.LVL109:
	ldr	r2, [sp, #184]	@ rest_number_I_lsm.83, %sfp
	ldr	r1, [sp, #220]	@ pretmp_5080, %sfp
	cmp	r2, r1	@ rest_number_I_lsm.83, pretmp_5080
	bne	.L82	@,
.LVL110:
	ldr	r2, [sp, #188]	@ rest.number, %sfp
	str	r3, [sp, #72]	@ rest_number_I_lsm.85, %sfp
	cmp	r2, r3	@ rest.number, rest_number_I_lsm.85
	str	r2, [sp, #152]	@ rest.number, %sfp
	bne	.L82	@,
.LVL111:
	ldrb	r3, [sp, #323]	@ zero_extendqisi2	@ rest.number, rest.number
	ldrb	r2, [sp, #291]	@ zero_extendqisi2	@ rest_number_I_lsm.87, tmp_Dividend.number
	str	r3, [sp, #164]	@ rest.number, %sfp
	cmp	r3, r2	@ rest.number, rest_number_I_lsm.87
	str	r2, [sp, #80]	@ rest_number_I_lsm.87, %sfp
	str	r3, [sp, #156]	@ rest.number, %sfp
	bne	.L82	@,
.LVL112:
	ldrb	r3, [sp, #324]	@ zero_extendqisi2	@ rest.number, rest.number
	ldrb	r2, [sp, #292]	@ zero_extendqisi2	@ rest_number_I_lsm.89, tmp_Dividend.number
	str	r3, [sp, #148]	@ rest.number, %sfp
	cmp	r3, r2	@ rest.number, rest_number_I_lsm.89
	str	r2, [sp, #76]	@ rest_number_I_lsm.89, %sfp
	str	r3, [sp, #160]	@ rest.number, %sfp
	bne	.L82	@,
.LVL113:
	ldrb	r3, [sp, #325]	@ zero_extendqisi2	@ rest.number, rest.number
	ldrb	r2, [sp, #293]	@ zero_extendqisi2	@ rest_number_I_lsm.91, tmp_Dividend.number
	str	r3, [sp, #144]	@ rest.number, %sfp
	cmp	r3, r2	@ rest.number, rest_number_I_lsm.91
	str	r2, [sp, #120]	@ rest_number_I_lsm.91, %sfp
	str	r3, [sp, #168]	@ rest.number, %sfp
	bne	.L82	@,
.LVL114:
	ldrb	r3, [sp, #326]	@ zero_extendqisi2	@ rest.number, rest.number
	ldrb	r2, [sp, #294]	@ zero_extendqisi2	@ rest_number_I_lsm.93, tmp_Dividend.number
	str	r3, [sp, #136]	@ rest.number, %sfp
	cmp	r3, r2	@ rest.number, rest_number_I_lsm.93
	str	r2, [sp, #116]	@ rest_number_I_lsm.93, %sfp
	str	r3, [sp, #172]	@ rest.number, %sfp
	bne	.L82	@,
.LVL115:
	ldrb	r3, [sp, #327]	@ zero_extendqisi2	@ rest.number, rest.number
	ldrb	r2, [sp, #295]	@ zero_extendqisi2	@ rest_number_I_lsm.95, tmp_Dividend.number
	str	r3, [sp, #128]	@ rest.number, %sfp
	cmp	r3, r2	@ rest.number, rest_number_I_lsm.95
	str	r2, [sp, #68]	@ rest_number_I_lsm.95, %sfp
	str	r3, [sp, #176]	@ rest.number, %sfp
	bne	.L82	@,
.LVL116:
	ldrb	r3, [sp, #328]	@ zero_extendqisi2	@ rest.number, rest.number
	ldrb	r2, [sp, #296]	@ zero_extendqisi2	@ rest_number_I_lsm.97, tmp_Dividend.number
	str	r3, [sp, #132]	@ rest.number, %sfp
	cmp	r3, r2	@ rest.number, rest_number_I_lsm.97
	str	r2, [sp, #60]	@ rest_number_I_lsm.97, %sfp
	str	r3, [sp, #180]	@ rest.number, %sfp
	bne	.L82	@,
.LVL117:
	ldrb	r3, [sp, #329]	@ zero_extendqisi2	@ rest.number, rest.number
	ldrb	r2, [sp, #297]	@ zero_extendqisi2	@ rest_number_I_lsm.99, tmp_Dividend.number
	str	r3, [sp, #124]	@ rest.number, %sfp
	cmp	r3, r2	@ rest.number, rest_number_I_lsm.99
	str	r2, [sp, #64]	@ rest_number_I_lsm.99, %sfp
	str	r3, [sp, #192]	@ rest.number, %sfp
	bne	.L82	@,
.LVL118:
	ldrb	r3, [sp, #330]	@ zero_extendqisi2	@ rest.number, rest.number
	ldrb	r2, [sp, #298]	@ zero_extendqisi2	@ rest_number_I_lsm.79, tmp_Dividend.number
	str	r3, [sp, #112]	@ rest.number, %sfp
	cmp	r3, r2	@ rest.number, rest_number_I_lsm.79
	str	r2, [sp, #56]	@ rest_number_I_lsm.79, %sfp
	str	r3, [sp, #196]	@ rest.number, %sfp
	bne	.L82	@,
.LVL119:
	ldrb	r3, [sp, #331]	@ zero_extendqisi2	@ rest.number, rest.number
	ldrb	r2, [sp, #299]	@ zero_extendqisi2	@ rest_number_I_lsm.101, tmp_Dividend.number
	str	r3, [sp, #108]	@ rest.number, %sfp
	cmp	r3, r2	@ rest.number, rest_number_I_lsm.101
	str	r2, [sp, #52]	@ rest_number_I_lsm.101, %sfp
	str	r3, [sp, #200]	@ rest.number, %sfp
	bne	.L82	@,
.LVL120:
	ldrb	r3, [sp, #332]	@ zero_extendqisi2	@ rest.number, rest.number
	ldrb	r2, [sp, #300]	@ zero_extendqisi2	@ rest_number_I_lsm.103, tmp_Dividend.number
	str	r3, [sp, #84]	@ rest.number, %sfp
	cmp	r3, r2	@ rest.number, rest_number_I_lsm.103
	str	r2, [sp, #104]	@ rest_number_I_lsm.103, %sfp
	str	r3, [sp, #204]	@ rest.number, %sfp
	bne	.L82	@,
.LVL121:
	ldrb	r3, [sp, #333]	@ zero_extendqisi2	@ rest.number, rest.number
	ldrb	r2, [sp, #301]	@ zero_extendqisi2	@ rest_number_I_lsm.105, tmp_Dividend.number
	str	r3, [sp, #88]	@ rest.number, %sfp
	cmp	r3, r2	@ rest.number, rest_number_I_lsm.105
	str	r2, [sp, #48]	@ rest_number_I_lsm.105, %sfp
	str	r3, [sp, #208]	@ rest.number, %sfp
	bne	.L82	@,
.LVL122:
	ldrb	r3, [sp, #334]	@ zero_extendqisi2	@ rest.number, rest.number
	ldrb	r2, [sp, #302]	@ zero_extendqisi2	@ rest_number_I_lsm.107, tmp_Dividend.number
	str	r3, [sp, #92]	@ rest.number, %sfp
	cmp	r3, r2	@ rest.number, rest_number_I_lsm.107
	str	r2, [sp, #44]	@ rest_number_I_lsm.107, %sfp
	str	r3, [sp, #212]	@ rest.number, %sfp
	bne	.L82	@,
.LVL123:
	ldrb	r3, [sp, #303]	@ zero_extendqisi2	@ pretmp_3657, tmp_Dividend.number
	ldrb	r2, [sp, #335]	@ zero_extendqisi2	@ _216, rest.number
	str	r3, [sp, #216]	@ pretmp_3657, %sfp
	cmp	r2, r3	@ _216, pretmp_3657
	str	r2, [sp, #96]	@ _216, %sfp
	bne	.L82	@,
	str	r2, [sp, #40]	@ _216, %sfp
.LVL124:
.L85:
	ldrb	r3, [sp, #304]	@ zero_extendqisi2	@ result$number$0, tmp_Divisor.number
	ldrb	r10, [sp, #319]	@ zero_extendqisi2	@ result$number$15, tmp_Divisor.number
	str	r3, [sp, #4]	@ result$number$0, %sfp
	mov	r2, r3	@ result$number$0, result$number$0
.L43:
.LVL125:
.LBE231:
.LBE230:
.LBE248:
.LBB249:
.LBB250:
.LBB251:
@ E:\NeuOrga\Programmieren\c_cpp\github_os\input\src\os_base\os_common.c:225:       if(Operand1->number[pos] < Operand2->number[pos])
	.loc 1 225 0
	ldr	r3, [sp, #140]	@ _164, %sfp
	cmp	r3, r2	@ _164, result$number$0
	bhi	.L44	@,
	ldrb	ip, [sp, #305]	@ zero_extendqisi2	@ pretmp_3930, tmp_Divisor.number
@ E:\NeuOrga\Programmieren\c_cpp\github_os\input\src\os_base\os_common.c:230:       else if (Operand1->number[pos] > Operand2->number[pos])
	.loc 1 230 0
	bcc	.L202	@,
.LVL126:
@ E:\NeuOrga\Programmieren\c_cpp\github_os\input\src\os_base\os_common.c:225:       if(Operand1->number[pos] < Operand2->number[pos])
	.loc 1 225 0
	ldr	r3, [sp, #220]	@ pretmp_5080, %sfp
	cmp	ip, r3	@ pretmp_3930, pretmp_5080
	bcc	.L44	@,
	ldrb	r3, [sp, #306]	@ zero_extendqisi2	@ prephitmp_4023, tmp_Divisor.number
	str	r3, [sp, #12]	@ prephitmp_4023, %sfp
@ E:\NeuOrga\Programmieren\c_cpp\github_os\input\src\os_base\os_common.c:230:       else if (Operand1->number[pos] > Operand2->number[pos])
	.loc 1 230 0
	bhi	.L203	@,
	mov	r2, r3	@ prephitmp_4023, prephitmp_4023
.LVL127:
@ E:\NeuOrga\Programmieren\c_cpp\github_os\input\src\os_base\os_common.c:225:       if(Operand1->number[pos] < Operand2->number[pos])
	.loc 1 225 0
	ldr	r3, [sp, #152]	@ pretmp_3631, %sfp
	cmp	r3, r2	@ pretmp_3631, prephitmp_4023
	bhi	.L44	@,
	ldrb	r3, [sp, #307]	@ zero_extendqisi2	@ prephitmp_4020, tmp_Divisor.number
	str	r3, [sp]	@ prephitmp_4020, %sfp
@ E:\NeuOrga\Programmieren\c_cpp\github_os\input\src\os_base\os_common.c:230:       else if (Operand1->number[pos] > Operand2->number[pos])
	.loc 1 230 0
	bcc	.L204	@,
	mov	r2, r3	@ prephitmp_4020, prephitmp_4020
.LVL128:
@ E:\NeuOrga\Programmieren\c_cpp\github_os\input\src\os_base\os_common.c:225:       if(Operand1->number[pos] < Operand2->number[pos])
	.loc 1 225 0
	ldr	r3, [sp, #156]	@ pretmp_3633, %sfp
	cmp	r3, r2	@ pretmp_3633, prephitmp_4020
	bhi	.L44	@,
	ldrb	r5, [sp, #308]	@ zero_extendqisi2	@ prephitmp_5049, tmp_Divisor.number
@ E:\NeuOrga\Programmieren\c_cpp\github_os\input\src\os_base\os_common.c:230:       else if (Operand1->number[pos] > Operand2->number[pos])
	.loc 1 230 0
	bcc	.L205	@,
.LVL129:
@ E:\NeuOrga\Programmieren\c_cpp\github_os\input\src\os_base\os_common.c:225:       if(Operand1->number[pos] < Operand2->number[pos])
	.loc 1 225 0
	ldr	r3, [sp, #160]	@ pretmp_3635, %sfp
	cmp	r3, r5	@ pretmp_3635, prephitmp_5049
	bhi	.L44	@,
	ldrb	r3, [sp, #309]	@ zero_extendqisi2	@ prephitmp_5046, tmp_Divisor.number
	str	r3, [sp, #8]	@ prephitmp_5046, %sfp
@ E:\NeuOrga\Programmieren\c_cpp\github_os\input\src\os_base\os_common.c:230:       else if (Operand1->number[pos] > Operand2->number[pos])
	.loc 1 230 0
	bcc	.L206	@,
	mov	r2, r3	@ prephitmp_5046, prephitmp_5046
.LVL130:
@ E:\NeuOrga\Programmieren\c_cpp\github_os\input\src\os_base\os_common.c:225:       if(Operand1->number[pos] < Operand2->number[pos])
	.loc 1 225 0
	ldr	r3, [sp, #168]	@ pretmp_3637, %sfp
	cmp	r3, r2	@ pretmp_3637, prephitmp_5046
	bhi	.L44	@,
	ldrb	r9, [sp, #310]	@ zero_extendqisi2	@ prephitmp_5042, tmp_Divisor.number
@ E:\NeuOrga\Programmieren\c_cpp\github_os\input\src\os_base\os_common.c:230:       else if (Operand1->number[pos] > Operand2->number[pos])
	.loc 1 230 0
	bcc	.L207	@,
.LVL131:
@ E:\NeuOrga\Programmieren\c_cpp\github_os\input\src\os_base\os_common.c:225:       if(Operand1->number[pos] < Operand2->number[pos])
	.loc 1 225 0
	ldr	r3, [sp, #172]	@ pretmp_3639, %sfp
	cmp	r3, r9	@ pretmp_3639, prephitmp_5042
	bhi	.L44	@,
	ldrb	r8, [sp, #311]	@ zero_extendqisi2	@ prephitmp_5037, tmp_Divisor.number
@ E:\NeuOrga\Programmieren\c_cpp\github_os\input\src\os_base\os_common.c:230:       else if (Operand1->number[pos] > Operand2->number[pos])
	.loc 1 230 0
	bcc	.L208	@,
.LVL132:
@ E:\NeuOrga\Programmieren\c_cpp\github_os\input\src\os_base\os_common.c:225:       if(Operand1->number[pos] < Operand2->number[pos])
	.loc 1 225 0
	ldr	r3, [sp, #176]	@ pretmp_3641, %sfp
	cmp	r3, r8	@ pretmp_3641, prephitmp_5037
	bhi	.L44	@,
	ldrb	lr, [sp, #312]	@ zero_extendqisi2	@ prephitmp_5031, tmp_Divisor.number
@ E:\NeuOrga\Programmieren\c_cpp\github_os\input\src\os_base\os_common.c:230:       else if (Operand1->number[pos] > Operand2->number[pos])
	.loc 1 230 0
	bcc	.L209	@,
.LVL133:
@ E:\NeuOrga\Programmieren\c_cpp\github_os\input\src\os_base\os_common.c:225:       if(Operand1->number[pos] < Operand2->number[pos])
	.loc 1 225 0
	ldr	r3, [sp, #180]	@ pretmp_3643, %sfp
	cmp	r3, lr	@ pretmp_3643, prephitmp_5031
	bhi	.L44	@,
	ldrb	r0, [sp, #313]	@ zero_extendqisi2	@ prephitmp_5024, tmp_Divisor.number
@ E:\NeuOrga\Programmieren\c_cpp\github_os\input\src\os_base\os_common.c:230:       else if (Operand1->number[pos] > Operand2->number[pos])
	.loc 1 230 0
	bcc	.L210	@,
.LVL134:
@ E:\NeuOrga\Programmieren\c_cpp\github_os\input\src\os_base\os_common.c:225:       if(Operand1->number[pos] < Operand2->number[pos])
	.loc 1 225 0
	ldr	r3, [sp, #192]	@ pretmp_3645, %sfp
	cmp	r3, r0	@ pretmp_3645, prephitmp_5024
	bhi	.L44	@,
	ldrb	r4, [sp, #314]	@ zero_extendqisi2	@ prephitmp_5016, tmp_Divisor.number
@ E:\NeuOrga\Programmieren\c_cpp\github_os\input\src\os_base\os_common.c:230:       else if (Operand1->number[pos] > Operand2->number[pos])
	.loc 1 230 0
	bcc	.L211	@,
.LVL135:
@ E:\NeuOrga\Programmieren\c_cpp\github_os\input\src\os_base\os_common.c:225:       if(Operand1->number[pos] < Operand2->number[pos])
	.loc 1 225 0
	ldr	r3, [sp, #196]	@ pretmp_3647, %sfp
	cmp	r3, r4	@ pretmp_3647, prephitmp_5016
	bhi	.L44	@,
	ldrb	r1, [sp, #315]	@ zero_extendqisi2	@ prephitmp_5007, tmp_Divisor.number
@ E:\NeuOrga\Programmieren\c_cpp\github_os\input\src\os_base\os_common.c:230:       else if (Operand1->number[pos] > Operand2->number[pos])
	.loc 1 230 0
	bcc	.L212	@,
.LVL136:
@ E:\NeuOrga\Programmieren\c_cpp\github_os\input\src\os_base\os_common.c:225:       if(Operand1->number[pos] < Operand2->number[pos])
	.loc 1 225 0
	ldr	r3, [sp, #200]	@ pretmp_3649, %sfp
	cmp	r3, r1	@ pretmp_3649, prephitmp_5007
	bhi	.L44	@,
	ldrb	r2, [sp, #316]	@ zero_extendqisi2	@ prephitmp_4997, tmp_Divisor.number
@ E:\NeuOrga\Programmieren\c_cpp\github_os\input\src\os_base\os_common.c:230:       else if (Operand1->number[pos] > Operand2->number[pos])
	.loc 1 230 0
	bcc	.L213	@,
.LVL137:
@ E:\NeuOrga\Programmieren\c_cpp\github_os\input\src\os_base\os_common.c:225:       if(Operand1->number[pos] < Operand2->number[pos])
	.loc 1 225 0
	ldr	r3, [sp, #204]	@ pretmp_3651, %sfp
	cmp	r3, r2	@ pretmp_3651, prephitmp_4997
	bhi	.L44	@,
	ldrb	r3, [sp, #317]	@ zero_extendqisi2	@ prephitmp_4986, tmp_Divisor.number
@ E:\NeuOrga\Programmieren\c_cpp\github_os\input\src\os_base\os_common.c:230:       else if (Operand1->number[pos] > Operand2->number[pos])
	.loc 1 230 0
	bcc	.L214	@,
.LVL138:
@ E:\NeuOrga\Programmieren\c_cpp\github_os\input\src\os_base\os_common.c:225:       if(Operand1->number[pos] < Operand2->number[pos])
	.loc 1 225 0
	ldr	r6, [sp, #208]	@ pretmp_3652, %sfp
	cmp	r6, r3	@ pretmp_3652, prephitmp_4986
	bhi	.L44	@,
	ldrb	fp, [sp, #318]	@ zero_extendqisi2	@ prephitmp_4974, tmp_Divisor.number
@ E:\NeuOrga\Programmieren\c_cpp\github_os\input\src\os_base\os_common.c:230:       else if (Operand1->number[pos] > Operand2->number[pos])
	.loc 1 230 0
	bcc	.L49	@,
.LVL139:
@ E:\NeuOrga\Programmieren\c_cpp\github_os\input\src\os_base\os_common.c:225:       if(Operand1->number[pos] < Operand2->number[pos])
	.loc 1 225 0
	ldr	r6, [sp, #212]	@ pretmp_3655, %sfp
	cmp	r6, fp	@ pretmp_3655, prephitmp_4974
	bhi	.L44	@,
@ E:\NeuOrga\Programmieren\c_cpp\github_os\input\src\os_base\os_common.c:230:       else if (Operand1->number[pos] > Operand2->number[pos])
	.loc 1 230 0
	bcc	.L49	@,
.LVL140:
@ E:\NeuOrga\Programmieren\c_cpp\github_os\input\src\os_base\os_common.c:225:       if(Operand1->number[pos] < Operand2->number[pos])
	.loc 1 225 0
	ldr	r6, [sp, #216]	@ pretmp_3657, %sfp
	cmp	r6, r10	@ pretmp_3657, result$number$15
	bhi	.L44	@,
.LVL141:
.L49:
.LBE251:
.LBE250:
.LBB252:
.LBB253:
@ E:\NeuOrga\Programmieren\c_cpp\github_os\input\src\os_base\os_common.c:252:       if(Operand1->number[pos] != Operand2->number[pos])
	.loc 1 252 0
	ldr	r6, [sp, #140]	@ _164, %sfp
	mov	r7, r6	@ _164, _164
	ldr	r6, [sp, #4]	@ result$number$0, %sfp
	cmp	r7, r6	@ _164, result$number$0
	bne	.L169	@,
.L216:
.LVL142:
	ldr	r6, [sp, #220]	@ pretmp_5080, %sfp
	cmp	ip, r6	@ pretmp_3930, pretmp_5080
	bne	.L102	@,
.LVL143:
	ldr	r6, [sp, #152]	@ pretmp_3631, %sfp
	ldr	r7, [sp, #12]	@ prephitmp_4023, %sfp
	cmp	r6, r7	@ pretmp_3631, prephitmp_4023
	bne	.L103	@,
.LVL144:
	ldr	r6, [sp, #156]	@ pretmp_3633, %sfp
	ldr	r7, [sp]	@ prephitmp_4020, %sfp
	cmp	r6, r7	@ pretmp_3633, prephitmp_4020
	bne	.L104	@,
.LVL145:
	ldr	r6, [sp, #160]	@ pretmp_3635, %sfp
	cmp	r6, r5	@ pretmp_3635, prephitmp_5049
	bne	.L105	@,
.LVL146:
	ldr	r5, [sp, #168]	@ pretmp_3637, %sfp
	ldr	r6, [sp, #8]	@ prephitmp_5046, %sfp
	cmp	r5, r6	@ pretmp_3637, prephitmp_5046
	bne	.L106	@,
.LVL147:
	ldr	r5, [sp, #172]	@ pretmp_3639, %sfp
	cmp	r5, r9	@ pretmp_3639, prephitmp_5042
	bne	.L107	@,
.LVL148:
	ldr	r5, [sp, #176]	@ pretmp_3641, %sfp
	cmp	r5, r8	@ pretmp_3641, prephitmp_5037
	bne	.L108	@,
.LVL149:
	ldr	r5, [sp, #180]	@ pretmp_3643, %sfp
	cmp	r5, lr	@ pretmp_3643, prephitmp_5031
	bne	.L109	@,
.LVL150:
	ldr	r5, [sp, #192]	@ pretmp_3645, %sfp
	cmp	r5, r0	@ pretmp_3645, prephitmp_5024
	bne	.L110	@,
.LVL151:
	ldr	r0, [sp, #196]	@ pretmp_3647, %sfp
	cmp	r0, r4	@ pretmp_3647, prephitmp_5016
	bne	.L111	@,
.LVL152:
	ldr	r0, [sp, #200]	@ pretmp_3649, %sfp
	cmp	r0, r1	@ pretmp_3649, prephitmp_5007
	bne	.L112	@,
.LVL153:
	ldr	r1, [sp, #204]	@ pretmp_3651, %sfp
	cmp	r1, r2	@ pretmp_3651, prephitmp_4997
	bne	.L113	@,
.LVL154:
	ldr	r2, [sp, #208]	@ pretmp_3652, %sfp
	cmp	r2, r3	@ pretmp_3652, prephitmp_4986
	bne	.L114	@,
.LVL155:
	ldr	r3, [sp, #212]	@ pretmp_3655, %sfp
	cmp	r3, fp	@ pretmp_3655, prephitmp_4974
	bne	.L115	@,
.LVL156:
	ldr	r3, [sp, #216]	@ pretmp_3657, %sfp
	cmp	r3, r10	@ pretmp_3657, result$number$15
	bne	.L215	@,
.LVL157:
.L44:
.LBE253:
.LBE252:
.LBE249:
@ E:\NeuOrga\Programmieren\c_cpp\github_os\input\src\os_base\os_common.c:59: {
	.loc 1 59 0
	mov	r10, #0	@ result$number$15,
	addw	r3, sp, #319	@ ivtmp.127,,
	str	r3, [sp]	@ ivtmp.127, %sfp
	strd	r10, r10, [sp, #16]	@ result$number$15, result$number$15,,
	strd	r10, r10, [sp, #8]	@ result$number$15, result$number$15,,
	mov	r7, r10	@ result$number$10, result$number$15
	add	r0, sp, #368	@ ivtmp.130,,
	ldr	r4, [sp]	@ ivtmp.127, %sfp
	str	r10, [sp, #4]	@ result$number$15, %sfp
	mov	r9, r10	@ result$number$14, result$number$15
	mov	r8, r10	@ result$number$13, result$number$15
	mov	lr, r10	@ result$number$12, result$number$15
	mov	ip, r10	@ result$number$11, result$number$15
	mov	r6, r10	@ result$number$9, result$number$15
	mov	r1, r10	@ result$number$5, result$number$15
	mov	r2, r7	@ result$number$7, result$number$7
	mov	r3, r7	@ result$number$5, result$number$5
	str	r10, [sp, #24]	@ result$number$12, %sfp
	mov	fp, r0	@ ivtmp.130, ivtmp.130
.L42:
.LVL158:
.LBB258:
.LBB259:
@ E:\NeuOrga\Programmieren\c_cpp\github_os\input\src\os_base\os_common.c:340:       tmp32 = ((uint32)number->number[(uint32)pos]) << amount_bits_shift;
	.loc 1 340 0
	ldrb	r0, [r4], #-1	@ zero_extendqisi2	@ _166, MEM[base: _1074, offset: 0B]
	str	r4, [sp]	@ ivtmp.127, %sfp
.LVL159:
.LBB260:
.LBB261:
@ E:\NeuOrga\Programmieren\c_cpp\github_os\input\src\os_base\os_common.c:304:       leftOperand->number[pos] = 0x00u;
	.loc 1 304 0
	movs	r5, #0	@ tmp1548,
.LBE261:
.LBE260:
@ E:\NeuOrga\Programmieren\c_cpp\github_os\input\src\os_base\os_common.c:340:       tmp32 = ((uint32)number->number[(uint32)pos]) << amount_bits_shift;
	.loc 1 340 0
	lsls	r0, r0, #4	@ tmp32, _166,
.LBB263:
.LBB262:
@ E:\NeuOrga\Programmieren\c_cpp\github_os\input\src\os_base\os_common.c:304:       leftOperand->number[pos] = 0x00u;
	.loc 1 304 0
	str	r5, [sp, #356]	@ tmp1550, MEM[(uint8[16] *)&tmpBigInt + 4B]
	str	r5, [sp, #360]	@ tmp1552, MEM[(uint8[16] *)&tmpBigInt + 8B]
	str	r5, [sp, #364]	@ tmp1554, MEM[(uint8[16] *)&tmpBigInt + 12B]
.LVL160:
	str	r5, [sp, #352]	@ tmp1548, MEM[(uint8[16] *)&tmpBigInt]
.LBE262:
.LBE263:
@ E:\NeuOrga\Programmieren\c_cpp\github_os\input\src\os_base\os_common.c:341:       tmpBigInt.number[(uint32)pos]      = (tmp32 >> 0u) & 0xFF;
	.loc 1 341 0
	strb	r0, [fp, #-1]!	@ tmp32, MEM[base: _1068, offset: 0B]
@ E:\NeuOrga\Programmieren\c_cpp\github_os\input\src\os_base\os_common.c:342:       tmpBigInt.number[(uint32)pos+1u]   = (tmp32 >> 8u) & 0xFF;
	.loc 1 342 0
	lsrs	r0, r0, #8	@ tmp611, tmp32,
.LVL161:
@ E:\NeuOrga\Programmieren\c_cpp\github_os\input\src\os_base\os_common.c:343:       tmpBigInt.number[(uint32)pos+2u]   = (tmp32 >>16u) & 0xFF;
	.loc 1 343 0
	strb	r5, [fp, #2]	@ tmp1556, MEM[base: _1068, offset: 2B]
@ E:\NeuOrga\Programmieren\c_cpp\github_os\input\src\os_base\os_common.c:344:       tmpBigInt.number[(uint32)pos+3u]   = (tmp32 >>24u) & 0xFF;
	.loc 1 344 0
	strb	r5, [fp, #3]	@ tmp1557, MEM[base: _1068, offset: 3B]
.LVL162:
@ E:\NeuOrga\Programmieren\c_cpp\github_os\input\src\os_base\os_common.c:342:       tmpBigInt.number[(uint32)pos+1u]   = (tmp32 >> 8u) & 0xFF;
	.loc 1 342 0
	strb	r0, [fp, #1]	@ tmp611, MEM[base: _1068, offset: 1B]
.LBB264:
.LBB265:
.LBB266:
@ E:\NeuOrga\Programmieren\c_cpp\github_os\input\src\os_base\os_common.c:191:       uint16 tmp_sum = (uint16)ErsterSummand->number[pos] +(uint16)ZweiterSummand->number[pos] + carry;
	.loc 1 191 0
	ldrb	r5, [sp, #367]	@ zero_extendqisi2	@ _1136, tmpBigInt.number
	ldrb	r4, [sp, #366]	@ zero_extendqisi2	@ tmpBigInt.number, tmpBigInt.number
.LVL163:
	ldrb	r0, [sp, #365]	@ zero_extendqisi2	@ tmpBigInt.number, tmpBigInt.number
	add	r10, r10, r5	@ tmp619, _1136
.LVL164:
@ E:\NeuOrga\Programmieren\c_cpp\github_os\input\src\os_base\os_common.c:193:       carry = tmp_sum & 0xFF00u;
	.loc 1 193 0
	and	r5, r10, #65280	@ tmp625, tmp619,
@ E:\NeuOrga\Programmieren\c_cpp\github_os\input\src\os_base\os_common.c:191:       uint16 tmp_sum = (uint16)ErsterSummand->number[pos] +(uint16)ZweiterSummand->number[pos] + carry;
	.loc 1 191 0
	add	r9, r9, r4	@ tmp624, tmpBigInt.number
.LVL165:
	add	r9, r9, r5	@ tmp628, tmp625
	uxth	r9, r9	@ tmp_sum, tmp628
@ E:\NeuOrga\Programmieren\c_cpp\github_os\input\src\os_base\os_common.c:193:       carry = tmp_sum & 0xFF00u;
	.loc 1 193 0
	and	r4, r9, #65280	@ carry, tmp_sum,
@ E:\NeuOrga\Programmieren\c_cpp\github_os\input\src\os_base\os_common.c:191:       uint16 tmp_sum = (uint16)ErsterSummand->number[pos] +(uint16)ZweiterSummand->number[pos] + carry;
	.loc 1 191 0
	add	r8, r8, r0	@ tmp633, tmpBigInt.number
.LVL166:
	add	r8, r8, r4	@ tmp635, carry
	ldrb	r0, [sp, #363]	@ zero_extendqisi2	@ tmpBigInt.number, tmpBigInt.number
	str	r0, [sp, #32]	@ tmpBigInt.number, %sfp
	uxth	r0, r8	@ tmp_sum, tmp635
@ E:\NeuOrga\Programmieren\c_cpp\github_os\input\src\os_base\os_common.c:193:       carry = tmp_sum & 0xFF00u;
	.loc 1 193 0
	and	r4, r0, #65280	@ carry, tmp_sum,
@ E:\NeuOrga\Programmieren\c_cpp\github_os\input\src\os_base\os_common.c:191:       uint16 tmp_sum = (uint16)ErsterSummand->number[pos] +(uint16)ZweiterSummand->number[pos] + carry;
	.loc 1 191 0
	ldrb	r5, [sp, #364]	@ zero_extendqisi2	@ tmpBigInt.number, tmpBigInt.number
@ E:\NeuOrga\Programmieren\c_cpp\github_os\input\src\os_base\os_common.c:193:       carry = tmp_sum & 0xFF00u;
	.loc 1 193 0
	str	r0, [sp, #28]	@ tmp_sum, %sfp
@ E:\NeuOrga\Programmieren\c_cpp\github_os\input\src\os_base\os_common.c:191:       uint16 tmp_sum = (uint16)ErsterSummand->number[pos] +(uint16)ZweiterSummand->number[pos] + carry;
	.loc 1 191 0
	ldr	r0, [sp, #24]	@ result$number$12, %sfp
	add	r5, r5, r0	@ tmp640, result$number$12
	add	r5, r5, r4	@ tmp642, carry
	ldr	r0, [sp, #32]	@ tmpBigInt.number, %sfp
	uxth	r5, r5	@ tmp_sum, tmp642
	add	r0, r0, lr	@ tmpBigInt.number, result$number$11
@ E:\NeuOrga\Programmieren\c_cpp\github_os\input\src\os_base\os_common.c:193:       carry = tmp_sum & 0xFF00u;
	.loc 1 193 0
	and	r4, r5, #65280	@ carry, tmp_sum,
@ E:\NeuOrga\Programmieren\c_cpp\github_os\input\src\os_base\os_common.c:191:       uint16 tmp_sum = (uint16)ErsterSummand->number[pos] +(uint16)ZweiterSummand->number[pos] + carry;
	.loc 1 191 0
	add	r4, r4, r0	@ tmp649, tmp647
@ E:\NeuOrga\Programmieren\c_cpp\github_os\input\src\os_base\os_common.c:193:       carry = tmp_sum & 0xFF00u;
	.loc 1 193 0
	str	r5, [sp, #24]	@ tmp_sum, %sfp
.LVL167:
@ E:\NeuOrga\Programmieren\c_cpp\github_os\input\src\os_base\os_common.c:191:       uint16 tmp_sum = (uint16)ErsterSummand->number[pos] +(uint16)ZweiterSummand->number[pos] + carry;
	.loc 1 191 0
	ldrb	r5, [sp, #362]	@ zero_extendqisi2	@ tmpBigInt.number, tmpBigInt.number
	ldrb	r0, [sp, #361]	@ zero_extendqisi2	@ tmpBigInt.number, tmpBigInt.number
	uxth	lr, r4	@ tmp_sum, tmp649
.LVL168:
@ E:\NeuOrga\Programmieren\c_cpp\github_os\input\src\os_base\os_common.c:193:       carry = tmp_sum & 0xFF00u;
	.loc 1 193 0
	and	r4, lr, #65280	@ carry, tmp_sum,
@ E:\NeuOrga\Programmieren\c_cpp\github_os\input\src\os_base\os_common.c:191:       uint16 tmp_sum = (uint16)ErsterSummand->number[pos] +(uint16)ZweiterSummand->number[pos] + carry;
	.loc 1 191 0
	add	ip, ip, r5	@ tmp654, tmpBigInt.number
.LVL169:
	add	ip, ip, r4	@ tmp656, carry
	uxth	ip, ip	@ tmp_sum, tmp656
@ E:\NeuOrga\Programmieren\c_cpp\github_os\input\src\os_base\os_common.c:193:       carry = tmp_sum & 0xFF00u;
	.loc 1 193 0
	and	r4, ip, #65280	@ carry, tmp_sum,
@ E:\NeuOrga\Programmieren\c_cpp\github_os\input\src\os_base\os_common.c:191:       uint16 tmp_sum = (uint16)ErsterSummand->number[pos] +(uint16)ZweiterSummand->number[pos] + carry;
	.loc 1 191 0
	add	r1, r1, r0	@ tmp661, tmpBigInt.number
.LVL170:
	ldrb	r5, [sp, #360]	@ zero_extendqisi2	@ tmpBigInt.number, tmpBigInt.number
	ldrb	r0, [sp, #359]	@ zero_extendqisi2	@ tmpBigInt.number, tmpBigInt.number
@ E:\NeuOrga\Programmieren\c_cpp\github_os\input\src\os_base\os_common.c:193:       carry = tmp_sum & 0xFF00u;
	.loc 1 193 0
	str	lr, [sp, #32]	@ tmp_sum, %sfp
@ E:\NeuOrga\Programmieren\c_cpp\github_os\input\src\os_base\os_common.c:191:       uint16 tmp_sum = (uint16)ErsterSummand->number[pos] +(uint16)ZweiterSummand->number[pos] + carry;
	.loc 1 191 0
	add	r1, r1, r4	@ tmp663, carry
	uxth	r1, r1	@ tmp_sum, tmp663
@ E:\NeuOrga\Programmieren\c_cpp\github_os\input\src\os_base\os_common.c:193:       carry = tmp_sum & 0xFF00u;
	.loc 1 193 0
	and	r4, r1, #65280	@ carry, tmp_sum,
@ E:\NeuOrga\Programmieren\c_cpp\github_os\input\src\os_base\os_common.c:191:       uint16 tmp_sum = (uint16)ErsterSummand->number[pos] +(uint16)ZweiterSummand->number[pos] + carry;
	.loc 1 191 0
	add	r7, r7, r5	@ tmp668, tmpBigInt.number
.LVL171:
	add	r7, r7, r4	@ tmp670, carry
	uxth	r7, r7	@ tmp_sum, tmp670
@ E:\NeuOrga\Programmieren\c_cpp\github_os\input\src\os_base\os_common.c:193:       carry = tmp_sum & 0xFF00u;
	.loc 1 193 0
	and	r4, r7, #65280	@ carry, tmp_sum,
@ E:\NeuOrga\Programmieren\c_cpp\github_os\input\src\os_base\os_common.c:191:       uint16 tmp_sum = (uint16)ErsterSummand->number[pos] +(uint16)ZweiterSummand->number[pos] + carry;
	.loc 1 191 0
	add	r2, r2, r0	@ tmp675, tmpBigInt.number
.LVL172:
	ldrb	r5, [sp, #358]	@ zero_extendqisi2	@ tmpBigInt.number, tmpBigInt.number
	ldrb	r0, [sp, #357]	@ zero_extendqisi2	@ tmpBigInt.number, tmpBigInt.number
	add	r2, r2, r4	@ tmp677, carry
	uxth	r2, r2	@ tmp_sum, tmp677
@ E:\NeuOrga\Programmieren\c_cpp\github_os\input\src\os_base\os_common.c:193:       carry = tmp_sum & 0xFF00u;
	.loc 1 193 0
	and	r4, r2, #65280	@ carry, tmp_sum,
@ E:\NeuOrga\Programmieren\c_cpp\github_os\input\src\os_base\os_common.c:191:       uint16 tmp_sum = (uint16)ErsterSummand->number[pos] +(uint16)ZweiterSummand->number[pos] + carry;
	.loc 1 191 0
	add	r6, r6, r5	@ tmp682, tmpBigInt.number
.LVL173:
	add	r6, r6, r4	@ tmp684, carry
	uxth	r6, r6	@ tmp_sum, tmp684
@ E:\NeuOrga\Programmieren\c_cpp\github_os\input\src\os_base\os_common.c:193:       carry = tmp_sum & 0xFF00u;
	.loc 1 193 0
	and	r4, r6, #65280	@ carry, tmp_sum,
@ E:\NeuOrga\Programmieren\c_cpp\github_os\input\src\os_base\os_common.c:191:       uint16 tmp_sum = (uint16)ErsterSummand->number[pos] +(uint16)ZweiterSummand->number[pos] + carry;
	.loc 1 191 0
	add	r3, r3, r0	@ tmp689, tmpBigInt.number
.LVL174:
	add	r3, r3, r4	@ tmp691, carry
	uxth	r3, r3	@ tmp_sum, tmp691
	ldrb	r0, [sp, #356]	@ zero_extendqisi2	@ tmpBigInt.number, tmpBigInt.number
@ E:\NeuOrga\Programmieren\c_cpp\github_os\input\src\os_base\os_common.c:193:       carry = tmp_sum & 0xFF00u;
	.loc 1 193 0
	str	r3, [sp, #36]	@ tmp_sum, %sfp
	and	r5, r3, #65280	@ carry, tmp_sum,
@ E:\NeuOrga\Programmieren\c_cpp\github_os\input\src\os_base\os_common.c:191:       uint16 tmp_sum = (uint16)ErsterSummand->number[pos] +(uint16)ZweiterSummand->number[pos] + carry;
	.loc 1 191 0
	ldr	r3, [sp, #20]	@ result$number$4, %sfp
	ldrb	r4, [sp, #355]	@ zero_extendqisi2	@ tmpBigInt.number, tmpBigInt.number
	add	r0, r0, r3	@ tmp696, result$number$4
	add	r5, r5, r0	@ tmp698, tmp696
	ldr	r3, [sp, #16]	@ result$number$3, %sfp
	ldrb	lr, [sp, #354]	@ zero_extendqisi2	@ tmpBigInt.number, tmpBigInt.number
	ldrb	r8, [sp, #353]	@ zero_extendqisi2	@ tmpBigInt.number, tmpBigInt.number
	uxth	r5, r5	@ tmp_sum, tmp698
@ E:\NeuOrga\Programmieren\c_cpp\github_os\input\src\os_base\os_common.c:193:       carry = tmp_sum & 0xFF00u;
	.loc 1 193 0
	and	r0, r5, #65280	@ carry, tmp_sum,
@ E:\NeuOrga\Programmieren\c_cpp\github_os\input\src\os_base\os_common.c:191:       uint16 tmp_sum = (uint16)ErsterSummand->number[pos] +(uint16)ZweiterSummand->number[pos] + carry;
	.loc 1 191 0
	add	r4, r4, r3	@ tmp703, result$number$3
	add	r4, r4, r0	@ tmp705, carry
	ldr	r3, [sp, #12]	@ result$number$2, %sfp
	uxth	r4, r4	@ tmp_sum, tmp705
	add	lr, lr, r3	@ tmp710, result$number$2
@ E:\NeuOrga\Programmieren\c_cpp\github_os\input\src\os_base\os_common.c:193:       carry = tmp_sum & 0xFF00u;
	.loc 1 193 0
	and	r0, r4, #65280	@ carry, tmp_sum,
@ E:\NeuOrga\Programmieren\c_cpp\github_os\input\src\os_base\os_common.c:191:       uint16 tmp_sum = (uint16)ErsterSummand->number[pos] +(uint16)ZweiterSummand->number[pos] + carry;
	.loc 1 191 0
	ldr	r3, [sp, #8]	@ result$number$1, %sfp
	add	r0, r0, lr	@ tmp712, tmp710
	uxth	r0, r0	@ tmp_sum, tmp712
	add	r8, r8, r3	@ tmp717, result$number$1
@ E:\NeuOrga\Programmieren\c_cpp\github_os\input\src\os_base\os_common.c:193:       carry = tmp_sum & 0xFF00u;
	.loc 1 193 0
	and	lr, r0, #65280	@ carry, tmp_sum,
@ E:\NeuOrga\Programmieren\c_cpp\github_os\input\src\os_base\os_common.c:191:       uint16 tmp_sum = (uint16)ErsterSummand->number[pos] +(uint16)ZweiterSummand->number[pos] + carry;
	.loc 1 191 0
	add	lr, lr, r8	@ tmp719, tmp717
	ldrb	r3, [sp, #352]	@ zero_extendqisi2	@ tmpBigInt.number, tmpBigInt.number
	str	r3, [sp, #12]	@ tmpBigInt.number, %sfp
.LVL175:
	uxth	r3, lr	@ tmp_sum, tmp719
	str	r3, [sp, #8]	@ tmp_sum, %sfp
.LVL176:
	ldr	r3, [sp, #4]	@ result$number$0, %sfp
@ E:\NeuOrga\Programmieren\c_cpp\github_os\input\src\os_base\os_common.c:192:       Summe->number[pos] = tmp_sum & 0xFFu;
	.loc 1 192 0
	ldrb	r8, [sp, #28]	@ zero_extendqisi2	@ result$number$13, %sfp
@ E:\NeuOrga\Programmieren\c_cpp\github_os\input\src\os_base\os_common.c:191:       uint16 tmp_sum = (uint16)ErsterSummand->number[pos] +(uint16)ZweiterSummand->number[pos] + carry;
	.loc 1 191 0
	mov	lr, r3	@ result$number$0, result$number$0
	ldr	r3, [sp, #12]	@ tmpBigInt.number, %sfp
@ E:\NeuOrga\Programmieren\c_cpp\github_os\input\src\os_base\os_common.c:192:       Summe->number[pos] = tmp_sum & 0xFFu;
	.loc 1 192 0
	uxtb	r0, r0	@ result$number$2, tmp_sum
@ E:\NeuOrga\Programmieren\c_cpp\github_os\input\src\os_base\os_common.c:191:       uint16 tmp_sum = (uint16)ErsterSummand->number[pos] +(uint16)ZweiterSummand->number[pos] + carry;
	.loc 1 191 0
	add	lr, lr, r3	@ result$number$0, tmpBigInt.number
	str	lr, [sp, #4]	@ result$number$0, %sfp
.LVL177:
@ E:\NeuOrga\Programmieren\c_cpp\github_os\input\src\os_base\os_common.c:192:       Summe->number[pos] = tmp_sum & 0xFFu;
	.loc 1 192 0
	uxtb	r5, r5	@ result$number$4, tmp_sum
	str	r0, [sp, #12]	@ result$number$2, %sfp
	ldrb	r0, [sp, #8]	@ zero_extendqisi2	@ result$number$1, %sfp
	str	r5, [sp, #20]	@ result$number$4, %sfp
.LVL178:
	str	r0, [sp, #8]	@ result$number$1, %sfp
	uxtb	r5, r4	@ result$number$3, tmp_sum
	ldrb	r0, [sp, #4]	@ zero_extendqisi2	@ result$number$0, %sfp
.LBE266:
.LBE265:
.LBE264:
@ E:\NeuOrga\Programmieren\c_cpp\github_os\input\src\os_base\os_common.c:337:    for (pos = BIG_INT_SIZE-1u; pos >= 0; pos--)
	.loc 1 337 0
	ldr	r4, [sp]	@ ivtmp.127, %sfp
.LBB273:
.LBB270:
.LBB267:
@ E:\NeuOrga\Programmieren\c_cpp\github_os\input\src\os_base\os_common.c:192:       Summe->number[pos] = tmp_sum & 0xFFu;
	.loc 1 192 0
	str	r0, [sp, #4]	@ result$number$0, %sfp
.LBE267:
.LBE270:
.LBE273:
@ E:\NeuOrga\Programmieren\c_cpp\github_os\input\src\os_base\os_common.c:337:    for (pos = BIG_INT_SIZE-1u; pos >= 0; pos--)
	.loc 1 337 0
	addw	r0, sp, #303	@ tmp1601,,
.LBB274:
.LBB271:
.LBB268:
@ E:\NeuOrga\Programmieren\c_cpp\github_os\input\src\os_base\os_common.c:192:       Summe->number[pos] = tmp_sum & 0xFFu;
	.loc 1 192 0
	ldrb	lr, [sp, #24]	@ zero_extendqisi2	@ result$number$12, %sfp
	str	lr, [sp, #24]	@ result$number$12, %sfp
.LBE268:
.LBE271:
.LBE274:
@ E:\NeuOrga\Programmieren\c_cpp\github_os\input\src\os_base\os_common.c:337:    for (pos = BIG_INT_SIZE-1u; pos >= 0; pos--)
	.loc 1 337 0
	cmp	r0, r4	@ tmp1601, ivtmp.127
.LBB275:
.LBB272:
.LBB269:
@ E:\NeuOrga\Programmieren\c_cpp\github_os\input\src\os_base\os_common.c:192:       Summe->number[pos] = tmp_sum & 0xFFu;
	.loc 1 192 0
	uxtb	r10, r10	@ result$number$15, tmp619
.LVL179:
	uxtb	r9, r9	@ result$number$14, tmp_sum
.LVL180:
	ldrb	lr, [sp, #32]	@ zero_extendqisi2	@ result$number$11, %sfp
.LVL181:
	ldrb	r3, [sp, #36]	@ zero_extendqisi2	@ result$number$5, %sfp
	str	r5, [sp, #16]	@ result$number$3, %sfp
.LVL182:
	uxtb	ip, ip	@ result$number$10, tmp_sum
.LVL183:
	uxtb	r1, r1	@ result$number$9, tmp_sum
.LVL184:
	uxtb	r7, r7	@ result$number$8, tmp_sum
.LVL185:
	uxtb	r2, r2	@ result$number$7, tmp_sum
.LVL186:
	uxtb	r6, r6	@ result$number$6, tmp_sum
.LVL187:
.LBE269:
.LBE272:
.LBE275:
@ E:\NeuOrga\Programmieren\c_cpp\github_os\input\src\os_base\os_common.c:337:    for (pos = BIG_INT_SIZE-1u; pos >= 0; pos--)
	.loc 1 337 0
	bne	.L42	@,
.LBB276:
.LBB277:
@ E:\NeuOrga\Programmieren\c_cpp\github_os\input\src\os_base\os_common.c:296:       leftOperand->number[pos] = rightOperand->number[pos];
	.loc 1 296 0
	ldr	r0, [sp, #4]	@ result$number$0, %sfp
	str	r3, [sp]	@ result$number$5, %sfp
.LVL188:
	mov	r4, r2	@ result$number$7, result$number$7
.LVL189:
	mov	fp, r6	@ result$number$6, result$number$6
	movs	r2, #0	@ result$number$0,
.LVL190:
	mov	r6, r1	@ result$number$9, result$number$9
.LVL191:
	ldr	r1, [sp, #8]	@ result$number$1, %sfp
.LVL192:
	mov	r3, r2	@ result$number$4, result$number$0
.LVL193:
	bfi	r2, r0, #0, #8	@ result$number$0, result$number$0,,
.LVL194:
	ldr	r0, [sp, #20]	@ result$number$4, %sfp
	bfi	r2, r1, #8, #8	@ result$number$0, result$number$1,,
	ldr	r1, [sp]	@ result$number$5, %sfp
	bfi	r3, r0, #0, #8	@ result$number$4, result$number$4,,
.LVL195:
	bfi	r3, r1, #8, #8	@ result$number$4, result$number$5,,
	ldr	r1, [sp, #12]	@ result$number$2, %sfp
	mov	r5, r7	@ result$number$8, result$number$8
	movs	r0, #0	@ result$number$8,
	mov	r7, ip	@ result$number$10, result$number$10
.LVL196:
	mov	ip, lr	@ result$number$11, result$number$11
.LVL197:
	ldr	lr, [sp, #24]	@ result$number$12, %sfp
.LVL198:
	bfi	r0, r5, #0, #8	@ result$number$8, result$number$8,,
.LVL199:
	bfi	r2, r1, #16, #8	@ result$number$0, result$number$2,,
	movs	r5, #0	@ result$number$12,
	ldr	r1, [sp, #16]	@ result$number$3, %sfp
	bfi	r5, lr, #0, #8	@ result$number$12, result$number$12,,
.LVL200:
	bfi	r2, r1, #24, #8	@ result$number$0, result$number$3,,
	bfi	r0, r6, #8, #8	@ result$number$8, result$number$9,,
.LBE277:
.LBE276:
.LBE259:
.LBE258:
@ E:\NeuOrga\Programmieren\c_cpp\github_os\input\src\os_base\os_common.c:110:          nibble_shift_left_amount++;
	.loc 1 110 0
	ldr	r1, [sp, #224]	@ nibble_shift_left_amount, %sfp
.LBB284:
.LBB282:
.LBB280:
.LBB278:
@ E:\NeuOrga\Programmieren\c_cpp\github_os\input\src\os_base\os_common.c:296:       leftOperand->number[pos] = rightOperand->number[pos];
	.loc 1 296 0
	str	r2, [sp, #304]	@ result$number$0, MEM[(uint8[16] *)&tmp_Divisor]
	bfi	r5, r8, #8, #8	@ result$number$12, result$number$13,,
	bfi	r3, fp, #16, #8	@ result$number$4, result$number$6,,
	bfi	r0, r7, #16, #8	@ result$number$8, result$number$10,,
	bfi	r5, r9, #16, #8	@ result$number$12, result$number$14,,
	bfi	r3, r4, #24, #8	@ result$number$4, result$number$7,,
	bfi	r0, ip, #24, #8	@ result$number$8, result$number$11,,
	bfi	r5, r10, #24, #8	@ result$number$12, result$number$15,,
.LBE278:
.LBE280:
.LBE282:
.LBE284:
@ E:\NeuOrga\Programmieren\c_cpp\github_os\input\src\os_base\os_common.c:110:          nibble_shift_left_amount++;
	.loc 1 110 0
	adds	r1, r1, #1	@ nibble_shift_left_amount, nibble_shift_left_amount,
	str	r1, [sp, #224]	@ nibble_shift_left_amount, %sfp
.LVL201:
.LBB285:
.LBB283:
.LBB281:
.LBB279:
@ E:\NeuOrga\Programmieren\c_cpp\github_os\input\src\os_base\os_common.c:296:       leftOperand->number[pos] = rightOperand->number[pos];
	.loc 1 296 0
	str	r3, [sp, #308]	@ result$number$4, MEM[(uint8[16] *)&tmp_Divisor + 4B]
	str	r0, [sp, #312]	@ result$number$8, MEM[(uint8[16] *)&tmp_Divisor + 8B]
	str	r5, [sp, #316]	@ result$number$12, MEM[(uint8[16] *)&tmp_Divisor + 12B]
.LVL202:
	ldr	r2, [sp, #4]	@ result$number$0, %sfp
	b	.L43	@
.LVL203:
.L205:
	ldrb	r6, [sp, #309]	@ zero_extendqisi2	@ prephitmp_5046, tmp_Divisor.number
	str	r6, [sp, #8]	@ prephitmp_5046, %sfp
.LVL204:
.LBE279:
.LBE281:
.LBE283:
.LBE285:
.LBB286:
.LBB256:
.LBB254:
@ E:\NeuOrga\Programmieren\c_cpp\github_os\input\src\os_base\os_common.c:252:       if(Operand1->number[pos] != Operand2->number[pos])
	.loc 1 252 0
	ldr	r6, [sp, #140]	@ _164, %sfp
	ldrb	fp, [sp, #318]	@ zero_extendqisi2	@ prephitmp_4974, tmp_Divisor.number
	ldrb	r3, [sp, #317]	@ zero_extendqisi2	@ prephitmp_4986, tmp_Divisor.number
	ldrb	r2, [sp, #316]	@ zero_extendqisi2	@ prephitmp_4997, tmp_Divisor.number
	ldrb	r1, [sp, #315]	@ zero_extendqisi2	@ prephitmp_5007, tmp_Divisor.number
	ldrb	r4, [sp, #314]	@ zero_extendqisi2	@ prephitmp_5016, tmp_Divisor.number
	ldrb	r0, [sp, #313]	@ zero_extendqisi2	@ prephitmp_5024, tmp_Divisor.number
	ldrb	lr, [sp, #312]	@ zero_extendqisi2	@ prephitmp_5031, tmp_Divisor.number
	ldrb	r8, [sp, #311]	@ zero_extendqisi2	@ prephitmp_5037, tmp_Divisor.number
	ldrb	r9, [sp, #310]	@ zero_extendqisi2	@ prephitmp_5042, tmp_Divisor.number
	mov	r7, r6	@ _164, _164
	ldr	r6, [sp, #4]	@ result$number$0, %sfp
	cmp	r7, r6	@ _164, result$number$0
	beq	.L216	@,
.LVL205:
.L169:
	ldr	r6, [sp]	@ prephitmp_4020, %sfp
	ldr	r7, [sp, #12]	@ prephitmp_4023, %sfp
	str	ip, [sp]	@ pretmp_3930, %sfp
	str	r4, [sp, #12]	@ prephitmp_5016, %sfp
	strd	r3, r2, [sp, #20]	@ prephitmp_4986, prephitmp_4997,,
	str	r1, [sp, #28]	@ prephitmp_5007, %sfp
	str	r0, [sp, #16]	@ prephitmp_5024, %sfp
	ldrd	ip, r4, [sp, #208]	@ pretmp_3652, pretmp_3655,,
	b	.L46	@
.LVL206:
.L204:
	ldrb	r5, [sp, #309]	@ zero_extendqisi2	@ prephitmp_5046, tmp_Divisor.number
	str	r5, [sp, #8]	@ prephitmp_5046, %sfp
	ldrb	fp, [sp, #318]	@ zero_extendqisi2	@ prephitmp_4974, tmp_Divisor.number
	ldrb	r3, [sp, #317]	@ zero_extendqisi2	@ prephitmp_4986, tmp_Divisor.number
	ldrb	r2, [sp, #316]	@ zero_extendqisi2	@ prephitmp_4997, tmp_Divisor.number
	ldrb	r1, [sp, #315]	@ zero_extendqisi2	@ prephitmp_5007, tmp_Divisor.number
	ldrb	r4, [sp, #314]	@ zero_extendqisi2	@ prephitmp_5016, tmp_Divisor.number
	ldrb	r0, [sp, #313]	@ zero_extendqisi2	@ prephitmp_5024, tmp_Divisor.number
	ldrb	lr, [sp, #312]	@ zero_extendqisi2	@ prephitmp_5031, tmp_Divisor.number
	ldrb	r8, [sp, #311]	@ zero_extendqisi2	@ prephitmp_5037, tmp_Divisor.number
	ldrb	r9, [sp, #310]	@ zero_extendqisi2	@ prephitmp_5042, tmp_Divisor.number
	ldrb	r5, [sp, #308]	@ zero_extendqisi2	@ prephitmp_5049, tmp_Divisor.number
	b	.L49	@
.LVL207:
.L203:
	mov	r7, r3	@ prephitmp_4023, prephitmp_4023
	ldrb	r3, [sp, #315]	@ zero_extendqisi2	@ prephitmp_5007, tmp_Divisor.number
	str	r3, [sp, #28]	@ prephitmp_5007, %sfp
	ldrb	r3, [sp, #314]	@ zero_extendqisi2	@ prephitmp_5016, tmp_Divisor.number
	str	r3, [sp, #12]	@ prephitmp_5016, %sfp
	ldrb	r3, [sp, #313]	@ zero_extendqisi2	@ prephitmp_5024, tmp_Divisor.number
	str	r3, [sp, #16]	@ prephitmp_5024, %sfp
	ldrb	lr, [sp, #312]	@ zero_extendqisi2	@ prephitmp_5031, tmp_Divisor.number
	ldrb	r3, [sp, #309]	@ zero_extendqisi2	@ prephitmp_5046, tmp_Divisor.number
	ldrb	r8, [sp, #311]	@ zero_extendqisi2	@ prephitmp_5037, tmp_Divisor.number
	ldrb	r9, [sp, #310]	@ zero_extendqisi2	@ prephitmp_5042, tmp_Divisor.number
	ldrb	r5, [sp, #308]	@ zero_extendqisi2	@ prephitmp_5049, tmp_Divisor.number
	ldrb	r6, [sp, #307]	@ zero_extendqisi2	@ prephitmp_4020, tmp_Divisor.number
	str	ip, [sp]	@ pretmp_3930, %sfp
	str	r3, [sp, #8]	@ prephitmp_5046, %sfp
.LVL208:
.L174:
	ldrb	r3, [sp, #317]	@ zero_extendqisi2	@ prephitmp_4986, tmp_Divisor.number
	str	r3, [sp, #20]	@ prephitmp_4986, %sfp
	ldrd	ip, r4, [sp, #208]	@ pretmp_3652, pretmp_3655,,
	ldrb	r3, [sp, #316]	@ zero_extendqisi2	@ prephitmp_4997, tmp_Divisor.number
	ldrb	fp, [sp, #318]	@ zero_extendqisi2	@ prephitmp_4974, tmp_Divisor.number
	str	r3, [sp, #24]	@ prephitmp_4997, %sfp
.L46:
.LBE254:
.LBE256:
.LBE286:
.LBB287:
.LBB244:
.LBB240:
@ E:\NeuOrga\Programmieren\c_cpp\github_os\input\src\os_base\os_common.c:210:          tmp_diff = 0x100u+(uint16)Minuend->number[pos] - (uint16)Subtrahend->number[pos] - (uint16)carry;
	.loc 1 210 0
	ldrh	r2, [sp, #216]	@ _591, %sfp
	ldrh	r0, [sp, #204]	@ _645, %sfp
	str	r0, [sp, #36]	@ _645, %sfp
	add	r0, r2, #256	@ tmp732, _591,
	str	r0, [sp, #212]	@ tmp732, %sfp
	ldrh	r0, [sp, #200]	@ _663, %sfp
	str	r0, [sp, #208]	@ _663, %sfp
	uxth	r1, ip	@ _627, pretmp_3652
	ldr	r0, [sp, #212]	@ tmp732, %sfp
	str	r1, [sp, #32]	@ _627, %sfp
	uxth	r1, r10	@ _592, result$number$15
@ E:\NeuOrga\Programmieren\c_cpp\github_os\input\src\os_base\os_common.c:206:          tmp_diff = (uint16)Minuend->number[pos] - (uint16)Subtrahend->number[pos] - carry;
	.loc 1 206 0
	subs	r2, r2, r1	@ tmp736, _591, _592
@ E:\NeuOrga\Programmieren\c_cpp\github_os\input\src\os_base\os_common.c:210:          tmp_diff = 0x100u+(uint16)Minuend->number[pos] - (uint16)Subtrahend->number[pos] - (uint16)carry;
	.loc 1 210 0
	subs	r0, r0, r1	@ tmp734, tmp732, _592
	ldrh	r1, [sp, #196]	@ _681, %sfp
	str	r1, [sp, #212]	@ _681, %sfp
@ E:\NeuOrga\Programmieren\c_cpp\github_os\input\src\os_base\os_common.c:216:       Differenz->number[pos] = tmp_diff;
	.loc 1 216 0
	ldr	r1, [sp, #216]	@ pretmp_3657, %sfp
@ E:\NeuOrga\Programmieren\c_cpp\github_os\input\src\os_base\os_common.c:210:          tmp_diff = 0x100u+(uint16)Minuend->number[pos] - (uint16)Subtrahend->number[pos] - (uint16)carry;
	.loc 1 210 0
	uxth	r3, r4	@ _609, pretmp_3655
@ E:\NeuOrga\Programmieren\c_cpp\github_os\input\src\os_base\os_common.c:216:       Differenz->number[pos] = tmp_diff;
	.loc 1 216 0
	cmp	r1, r10	@ pretmp_3657, result$number$15
	it	cs	@
	movcs	r0, r2	@, tmp734, tmp736
@ E:\NeuOrga\Programmieren\c_cpp\github_os\input\src\os_base\os_common.c:210:          tmp_diff = 0x100u+(uint16)Minuend->number[pos] - (uint16)Subtrahend->number[pos] - (uint16)carry;
	.loc 1 210 0
	uxth	r1, fp	@ _610, prephitmp_4974
	add	r2, r3, #256	@ tmp738, _609,
	subs	r2, r2, r1	@ tmp740, tmp738, _610
@ E:\NeuOrga\Programmieren\c_cpp\github_os\input\src\os_base\os_common.c:206:          tmp_diff = (uint16)Minuend->number[pos] - (uint16)Subtrahend->number[pos] - carry;
	.loc 1 206 0
	subs	r3, r3, r1	@ tmp742, _609, _610
@ E:\NeuOrga\Programmieren\c_cpp\github_os\input\src\os_base\os_common.c:216:       Differenz->number[pos] = tmp_diff;
	.loc 1 216 0
	str	r0, [sp, #216]	@ tmp734, %sfp
	mov	r0, r2	@ tmp740, tmp740
	cmp	r4, fp	@ pretmp_3655, prephitmp_4974
	it	cs	@
	movcs	r0, r3	@, tmp740, tmp742
	str	r0, [sp, #228]	@ tmp740, %sfp
@ E:\NeuOrga\Programmieren\c_cpp\github_os\input\src\os_base\os_common.c:210:          tmp_diff = 0x100u+(uint16)Minuend->number[pos] - (uint16)Subtrahend->number[pos] - (uint16)carry;
	.loc 1 210 0
	ldr	r4, [sp, #20]	@ prephitmp_4986, %sfp
	ldr	r0, [sp, #32]	@ _627, %sfp
	ldrh	r1, [sp, #192]	@ _699, %sfp
	uxth	r3, r4	@ _628, prephitmp_4986
	add	r2, r0, #256	@ tmp744, _627,
	subs	r2, r2, r3	@ tmp746, tmp744, _628
@ E:\NeuOrga\Programmieren\c_cpp\github_os\input\src\os_base\os_common.c:206:          tmp_diff = (uint16)Minuend->number[pos] - (uint16)Subtrahend->number[pos] - carry;
	.loc 1 206 0
	subs	r3, r0, r3	@ tmp748, _627, _628
@ E:\NeuOrga\Programmieren\c_cpp\github_os\input\src\os_base\os_common.c:210:          tmp_diff = 0x100u+(uint16)Minuend->number[pos] - (uint16)Subtrahend->number[pos] - (uint16)carry;
	.loc 1 210 0
	ldrh	r0, [sp, #180]	@ _717, %sfp
	str	r0, [sp, #32]	@ _717, %sfp
@ E:\NeuOrga\Programmieren\c_cpp\github_os\input\src\os_base\os_common.c:216:       Differenz->number[pos] = tmp_diff;
	.loc 1 216 0
	mov	r0, r2	@ tmp746, tmp746
	cmp	ip, r4	@ pretmp_3652, prephitmp_4986
	it	cs	@
	movcs	r0, r3	@, tmp746, tmp748
	str	r0, [sp, #236]	@ tmp746, %sfp
@ E:\NeuOrga\Programmieren\c_cpp\github_os\input\src\os_base\os_common.c:210:          tmp_diff = 0x100u+(uint16)Minuend->number[pos] - (uint16)Subtrahend->number[pos] - (uint16)carry;
	.loc 1 210 0
	ldr	r4, [sp, #24]	@ prephitmp_4997, %sfp
	ldr	r0, [sp, #36]	@ _645, %sfp
	ldrh	ip, [sp, #176]	@ _735, %sfp
	str	ip, [sp, #36]	@ _735, %sfp
	uxth	r3, r4	@ _646, prephitmp_4997
	add	r2, r0, #256	@ tmp750, _645,
	subs	r2, r2, r3	@ tmp752, tmp750, _646
@ E:\NeuOrga\Programmieren\c_cpp\github_os\input\src\os_base\os_common.c:216:       Differenz->number[pos] = tmp_diff;
	.loc 1 216 0
	mov	ip, r2	@ tmp752, tmp752
	ldr	r2, [sp, #204]	@ pretmp_3651, %sfp
@ E:\NeuOrga\Programmieren\c_cpp\github_os\input\src\os_base\os_common.c:206:          tmp_diff = (uint16)Minuend->number[pos] - (uint16)Subtrahend->number[pos] - carry;
	.loc 1 206 0
	subs	r3, r0, r3	@ tmp754, _645, _646
@ E:\NeuOrga\Programmieren\c_cpp\github_os\input\src\os_base\os_common.c:216:       Differenz->number[pos] = tmp_diff;
	.loc 1 216 0
	cmp	r2, r4	@ pretmp_3651, prephitmp_4997
	it	cs	@
	movcs	ip, r3	@, tmp752, tmp754
@ E:\NeuOrga\Programmieren\c_cpp\github_os\input\src\os_base\os_common.c:210:          tmp_diff = 0x100u+(uint16)Minuend->number[pos] - (uint16)Subtrahend->number[pos] - (uint16)carry;
	.loc 1 210 0
	ldr	r0, [sp, #208]	@ _663, %sfp
	ldr	r4, [sp, #28]	@ prephitmp_5007, %sfp
@ E:\NeuOrga\Programmieren\c_cpp\github_os\input\src\os_base\os_common.c:216:       Differenz->number[pos] = tmp_diff;
	.loc 1 216 0
	str	ip, [sp, #240]	@ tmp752, %sfp
@ E:\NeuOrga\Programmieren\c_cpp\github_os\input\src\os_base\os_common.c:210:          tmp_diff = 0x100u+(uint16)Minuend->number[pos] - (uint16)Subtrahend->number[pos] - (uint16)carry;
	.loc 1 210 0
	uxth	r3, r4	@ _664, prephitmp_5007
	add	r2, r0, #256	@ tmp756, _663,
	subs	r2, r2, r3	@ tmp758, tmp756, _664
@ E:\NeuOrga\Programmieren\c_cpp\github_os\input\src\os_base\os_common.c:206:          tmp_diff = (uint16)Minuend->number[pos] - (uint16)Subtrahend->number[pos] - carry;
	.loc 1 206 0
	subs	r3, r0, r3	@ tmp760, _663, _664
@ E:\NeuOrga\Programmieren\c_cpp\github_os\input\src\os_base\os_common.c:210:          tmp_diff = 0x100u+(uint16)Minuend->number[pos] - (uint16)Subtrahend->number[pos] - (uint16)carry;
	.loc 1 210 0
	ldrh	r0, [sp, #172]	@ _753, %sfp
	str	r0, [sp, #204]	@ _753, %sfp
@ E:\NeuOrga\Programmieren\c_cpp\github_os\input\src\os_base\os_common.c:216:       Differenz->number[pos] = tmp_diff;
	.loc 1 216 0
	mov	r0, r2	@ tmp758, tmp758
	ldr	r2, [sp, #200]	@ pretmp_3649, %sfp
	cmp	r2, r4	@ pretmp_3649, prephitmp_5007
	it	cs	@
	movcs	r0, r3	@, tmp758, tmp760
	str	r0, [sp, #200]	@ tmp758, %sfp
@ E:\NeuOrga\Programmieren\c_cpp\github_os\input\src\os_base\os_common.c:210:          tmp_diff = 0x100u+(uint16)Minuend->number[pos] - (uint16)Subtrahend->number[pos] - (uint16)carry;
	.loc 1 210 0
	ldr	r0, [sp, #212]	@ _681, %sfp
	ldrh	r3, [sp, #12]	@ _682, %sfp
	ldrh	r4, [sp, #168]	@ _771, %sfp
	add	r2, r0, #256	@ tmp762, _681,
	subs	r2, r2, r3	@ tmp764, tmp762, _682
@ E:\NeuOrga\Programmieren\c_cpp\github_os\input\src\os_base\os_common.c:206:          tmp_diff = (uint16)Minuend->number[pos] - (uint16)Subtrahend->number[pos] - carry;
	.loc 1 206 0
	subs	r3, r0, r3	@ tmp766, _681, _682
@ E:\NeuOrga\Programmieren\c_cpp\github_os\input\src\os_base\os_common.c:210:          tmp_diff = 0x100u+(uint16)Minuend->number[pos] - (uint16)Subtrahend->number[pos] - (uint16)carry;
	.loc 1 210 0
	mov	r0, r4	@ _771, _771
@ E:\NeuOrga\Programmieren\c_cpp\github_os\input\src\os_base\os_common.c:216:       Differenz->number[pos] = tmp_diff;
	.loc 1 216 0
	mov	r4, r2	@ tmp764, tmp764
	ldr	r2, [sp, #196]	@ pretmp_3647, %sfp
	mov	ip, r2	@ pretmp_3647, pretmp_3647
	ldr	r2, [sp, #12]	@ prephitmp_5016, %sfp
	cmp	ip, r2	@ pretmp_3647, prephitmp_5016
	it	cs	@
	movcs	r4, r3	@, tmp764, tmp766
@ E:\NeuOrga\Programmieren\c_cpp\github_os\input\src\os_base\os_common.c:210:          tmp_diff = 0x100u+(uint16)Minuend->number[pos] - (uint16)Subtrahend->number[pos] - (uint16)carry;
	.loc 1 210 0
	ldrh	r3, [sp, #16]	@ _700, %sfp
@ E:\NeuOrga\Programmieren\c_cpp\github_os\input\src\os_base\os_common.c:216:       Differenz->number[pos] = tmp_diff;
	.loc 1 216 0
	str	r4, [sp, #208]	@ tmp764, %sfp
@ E:\NeuOrga\Programmieren\c_cpp\github_os\input\src\os_base\os_common.c:210:          tmp_diff = 0x100u+(uint16)Minuend->number[pos] - (uint16)Subtrahend->number[pos] - (uint16)carry;
	.loc 1 210 0
	add	r2, r1, #256	@ tmp768, _699,
	subs	r2, r2, r3	@ tmp770, tmp768, _700
	ldrh	r4, [sp, #160]	@ _789, %sfp
	str	r4, [sp, #196]	@ _789, %sfp
@ E:\NeuOrga\Programmieren\c_cpp\github_os\input\src\os_base\os_common.c:216:       Differenz->number[pos] = tmp_diff;
	.loc 1 216 0
	mov	r4, r2	@ tmp770, tmp770
	ldr	r2, [sp, #192]	@ pretmp_3645, %sfp
@ E:\NeuOrga\Programmieren\c_cpp\github_os\input\src\os_base\os_common.c:206:          tmp_diff = (uint16)Minuend->number[pos] - (uint16)Subtrahend->number[pos] - carry;
	.loc 1 206 0
	subs	r3, r1, r3	@ tmp772, _699, _700
@ E:\NeuOrga\Programmieren\c_cpp\github_os\input\src\os_base\os_common.c:216:       Differenz->number[pos] = tmp_diff;
	.loc 1 216 0
	mov	ip, r2	@ pretmp_3645, pretmp_3645
@ E:\NeuOrga\Programmieren\c_cpp\github_os\input\src\os_base\os_common.c:210:          tmp_diff = 0x100u+(uint16)Minuend->number[pos] - (uint16)Subtrahend->number[pos] - (uint16)carry;
	.loc 1 210 0
	ldr	r1, [sp, #32]	@ _717, %sfp
@ E:\NeuOrga\Programmieren\c_cpp\github_os\input\src\os_base\os_common.c:216:       Differenz->number[pos] = tmp_diff;
	.loc 1 216 0
	ldr	r2, [sp, #16]	@ prephitmp_5024, %sfp
	cmp	ip, r2	@ pretmp_3645, prephitmp_5024
	it	cs	@
	movcs	r4, r3	@, tmp770, tmp772
@ E:\NeuOrga\Programmieren\c_cpp\github_os\input\src\os_base\os_common.c:210:          tmp_diff = 0x100u+(uint16)Minuend->number[pos] - (uint16)Subtrahend->number[pos] - (uint16)carry;
	.loc 1 210 0
	add	r2, r1, #256	@ tmp774, _717,
	uxth	r3, lr	@ _718, prephitmp_5031
	subs	r2, r2, r3	@ tmp776, tmp774, _718
@ E:\NeuOrga\Programmieren\c_cpp\github_os\input\src\os_base\os_common.c:216:       Differenz->number[pos] = tmp_diff;
	.loc 1 216 0
	str	r4, [sp, #192]	@ tmp770, %sfp
@ E:\NeuOrga\Programmieren\c_cpp\github_os\input\src\os_base\os_common.c:210:          tmp_diff = 0x100u+(uint16)Minuend->number[pos] - (uint16)Subtrahend->number[pos] - (uint16)carry;
	.loc 1 210 0
	ldrh	r4, [sp, #156]	@ _807, %sfp
	str	r4, [sp, #32]	@ _807, %sfp
@ E:\NeuOrga\Programmieren\c_cpp\github_os\input\src\os_base\os_common.c:206:          tmp_diff = (uint16)Minuend->number[pos] - (uint16)Subtrahend->number[pos] - carry;
	.loc 1 206 0
	subs	r3, r1, r3	@ tmp778, _717, _718
@ E:\NeuOrga\Programmieren\c_cpp\github_os\input\src\os_base\os_common.c:216:       Differenz->number[pos] = tmp_diff;
	.loc 1 216 0
	mov	r4, r2	@ tmp776, tmp776
@ E:\NeuOrga\Programmieren\c_cpp\github_os\input\src\os_base\os_common.c:210:          tmp_diff = 0x100u+(uint16)Minuend->number[pos] - (uint16)Subtrahend->number[pos] - (uint16)carry;
	.loc 1 210 0
	ldr	r1, [sp, #36]	@ _735, %sfp
@ E:\NeuOrga\Programmieren\c_cpp\github_os\input\src\os_base\os_common.c:216:       Differenz->number[pos] = tmp_diff;
	.loc 1 216 0
	ldr	r2, [sp, #180]	@ pretmp_3643, %sfp
	cmp	r2, lr	@ pretmp_3643, prephitmp_5031
	it	cs	@
	movcs	r4, r3	@, tmp776, tmp778
@ E:\NeuOrga\Programmieren\c_cpp\github_os\input\src\os_base\os_common.c:210:          tmp_diff = 0x100u+(uint16)Minuend->number[pos] - (uint16)Subtrahend->number[pos] - (uint16)carry;
	.loc 1 210 0
	add	r2, r1, #256	@ tmp780, _735,
	uxth	r3, r8	@ _736, prephitmp_5037
	subs	r2, r2, r3	@ tmp782, tmp780, _736
@ E:\NeuOrga\Programmieren\c_cpp\github_os\input\src\os_base\os_common.c:216:       Differenz->number[pos] = tmp_diff;
	.loc 1 216 0
	str	r4, [sp, #180]	@ tmp776, %sfp
@ E:\NeuOrga\Programmieren\c_cpp\github_os\input\src\os_base\os_common.c:210:          tmp_diff = 0x100u+(uint16)Minuend->number[pos] - (uint16)Subtrahend->number[pos] - (uint16)carry;
	.loc 1 210 0
	ldrh	r4, [sp, #152]	@ _825, %sfp
	str	r4, [sp, #36]	@ _825, %sfp
@ E:\NeuOrga\Programmieren\c_cpp\github_os\input\src\os_base\os_common.c:206:          tmp_diff = (uint16)Minuend->number[pos] - (uint16)Subtrahend->number[pos] - carry;
	.loc 1 206 0
	subs	r3, r1, r3	@ tmp784, _735, _736
@ E:\NeuOrga\Programmieren\c_cpp\github_os\input\src\os_base\os_common.c:216:       Differenz->number[pos] = tmp_diff;
	.loc 1 216 0
	mov	r4, r2	@ tmp782, tmp782
@ E:\NeuOrga\Programmieren\c_cpp\github_os\input\src\os_base\os_common.c:210:          tmp_diff = 0x100u+(uint16)Minuend->number[pos] - (uint16)Subtrahend->number[pos] - (uint16)carry;
	.loc 1 210 0
	ldr	r1, [sp, #204]	@ _753, %sfp
@ E:\NeuOrga\Programmieren\c_cpp\github_os\input\src\os_base\os_common.c:216:       Differenz->number[pos] = tmp_diff;
	.loc 1 216 0
	ldr	r2, [sp, #176]	@ pretmp_3641, %sfp
	cmp	r2, r8	@ pretmp_3641, prephitmp_5037
	it	cs	@
	movcs	r4, r3	@, tmp782, tmp784
@ E:\NeuOrga\Programmieren\c_cpp\github_os\input\src\os_base\os_common.c:210:          tmp_diff = 0x100u+(uint16)Minuend->number[pos] - (uint16)Subtrahend->number[pos] - (uint16)carry;
	.loc 1 210 0
	add	r2, r1, #256	@ tmp786, _753,
	uxth	r3, r9	@ _754, prephitmp_5042
	subs	r2, r2, r3	@ tmp788, tmp786, _754
@ E:\NeuOrga\Programmieren\c_cpp\github_os\input\src\os_base\os_common.c:216:       Differenz->number[pos] = tmp_diff;
	.loc 1 216 0
	str	r4, [sp, #212]	@ tmp782, %sfp
	mov	r4, r2	@ tmp788, tmp788
	ldr	r2, [sp, #172]	@ pretmp_3639, %sfp
@ E:\NeuOrga\Programmieren\c_cpp\github_os\input\src\os_base\os_common.c:206:          tmp_diff = (uint16)Minuend->number[pos] - (uint16)Subtrahend->number[pos] - carry;
	.loc 1 206 0
	subs	r3, r1, r3	@ tmp790, _753, _754
@ E:\NeuOrga\Programmieren\c_cpp\github_os\input\src\os_base\os_common.c:216:       Differenz->number[pos] = tmp_diff;
	.loc 1 216 0
	cmp	r2, r9	@ pretmp_3639, prephitmp_5042
	it	cs	@
	movcs	r4, r3	@, tmp788, tmp790
@ E:\NeuOrga\Programmieren\c_cpp\github_os\input\src\os_base\os_common.c:210:          tmp_diff = 0x100u+(uint16)Minuend->number[pos] - (uint16)Subtrahend->number[pos] - (uint16)carry;
	.loc 1 210 0
	ldrh	r3, [sp, #8]	@ _772, %sfp
@ E:\NeuOrga\Programmieren\c_cpp\github_os\input\src\os_base\os_common.c:216:       Differenz->number[pos] = tmp_diff;
	.loc 1 216 0
	str	r4, [sp, #204]	@ tmp788, %sfp
@ E:\NeuOrga\Programmieren\c_cpp\github_os\input\src\os_base\os_common.c:210:          tmp_diff = 0x100u+(uint16)Minuend->number[pos] - (uint16)Subtrahend->number[pos] - (uint16)carry;
	.loc 1 210 0
	add	r1, r0, #256	@ tmp792, _771,
	subs	r1, r1, r3	@ tmp794, tmp792, _772
@ E:\NeuOrga\Programmieren\c_cpp\github_os\input\src\os_base\os_common.c:216:       Differenz->number[pos] = tmp_diff;
	.loc 1 216 0
	mov	r4, r1	@ tmp794, tmp794
	ldr	r1, [sp, #168]	@ pretmp_3637, %sfp
	mov	ip, r1	@ pretmp_3637, pretmp_3637
	ldr	r1, [sp, #8]	@ prephitmp_5046, %sfp
@ E:\NeuOrga\Programmieren\c_cpp\github_os\input\src\os_base\os_common.c:206:          tmp_diff = (uint16)Minuend->number[pos] - (uint16)Subtrahend->number[pos] - carry;
	.loc 1 206 0
	subs	r3, r0, r3	@ tmp796, _771, _772
@ E:\NeuOrga\Programmieren\c_cpp\github_os\input\src\os_base\os_common.c:216:       Differenz->number[pos] = tmp_diff;
	.loc 1 216 0
	cmp	ip, r1	@ pretmp_3637, prephitmp_5046
	it	cs	@
	movcs	r4, r3	@, tmp794, tmp796
@ E:\NeuOrga\Programmieren\c_cpp\github_os\input\src\os_base\os_common.c:210:          tmp_diff = 0x100u+(uint16)Minuend->number[pos] - (uint16)Subtrahend->number[pos] - (uint16)carry;
	.loc 1 210 0
	ldr	r1, [sp, #32]	@ _807, %sfp
	ldr	r0, [sp, #196]	@ _789, %sfp
@ E:\NeuOrga\Programmieren\c_cpp\github_os\input\src\os_base\os_common.c:216:       Differenz->number[pos] = tmp_diff;
	.loc 1 216 0
	str	r4, [sp, #196]	@ tmp794, %sfp
@ E:\NeuOrga\Programmieren\c_cpp\github_os\input\src\os_base\os_common.c:210:          tmp_diff = 0x100u+(uint16)Minuend->number[pos] - (uint16)Subtrahend->number[pos] - (uint16)carry;
	.loc 1 210 0
	add	r1, r1, #256	@ tmp804, _807,
	uxth	r4, r6	@ _808, prephitmp_4020
	sub	ip, r1, r4	@ tmp806, tmp804, _808
@ E:\NeuOrga\Programmieren\c_cpp\github_os\input\src\os_base\os_common.c:206:          tmp_diff = (uint16)Minuend->number[pos] - (uint16)Subtrahend->number[pos] - carry;
	.loc 1 206 0
	ldr	r1, [sp, #32]	@ _807, %sfp
@ E:\NeuOrga\Programmieren\c_cpp\github_os\input\src\os_base\os_common.c:210:          tmp_diff = 0x100u+(uint16)Minuend->number[pos] - (uint16)Subtrahend->number[pos] - (uint16)carry;
	.loc 1 210 0
	add	r2, r0, #256	@ tmp798, _789,
	uxth	r3, r5	@ _790, prephitmp_5049
	subs	r2, r2, r3	@ tmp800, tmp798, _790
@ E:\NeuOrga\Programmieren\c_cpp\github_os\input\src\os_base\os_common.c:206:          tmp_diff = (uint16)Minuend->number[pos] - (uint16)Subtrahend->number[pos] - carry;
	.loc 1 206 0
	subs	r1, r1, r4	@ tmp808, _807, _808
	subs	r3, r0, r3	@ tmp802, _789, _790
	str	r3, [sp, #168]	@ tmp802, %sfp
	str	r1, [sp, #172]	@ tmp808, %sfp
@ E:\NeuOrga\Programmieren\c_cpp\github_os\input\src\os_base\os_common.c:210:          tmp_diff = 0x100u+(uint16)Minuend->number[pos] - (uint16)Subtrahend->number[pos] - (uint16)carry;
	.loc 1 210 0
	ldr	r0, [sp, #36]	@ _825, %sfp
@ E:\NeuOrga\Programmieren\c_cpp\github_os\input\src\os_base\os_common.c:216:       Differenz->number[pos] = tmp_diff;
	.loc 1 216 0
	ldr	r1, [sp, #160]	@ pretmp_3635, %sfp
@ E:\NeuOrga\Programmieren\c_cpp\github_os\input\src\os_base\os_common.c:210:          tmp_diff = 0x100u+(uint16)Minuend->number[pos] - (uint16)Subtrahend->number[pos] - (uint16)carry;
	.loc 1 210 0
	add	r4, r0, #256	@ tmp810, _825,
	mov	r3, r4	@ tmp810, tmp810
@ E:\NeuOrga\Programmieren\c_cpp\github_os\input\src\os_base\os_common.c:216:       Differenz->number[pos] = tmp_diff;
	.loc 1 216 0
	mov	r4, r2	@ tmp800, tmp800
	ldr	r2, [sp, #168]	@ tmp802, %sfp
	cmp	r1, r5	@ pretmp_3635, prephitmp_5049
	it	cs	@
	movcs	r4, r2	@, tmp800, tmp802
@ E:\NeuOrga\Programmieren\c_cpp\github_os\input\src\os_base\os_common.c:210:          tmp_diff = 0x100u+(uint16)Minuend->number[pos] - (uint16)Subtrahend->number[pos] - (uint16)carry;
	.loc 1 210 0
	uxth	r1, r7	@ _826, prephitmp_4023
	subs	r3, r3, r1	@ tmp812, tmp810, _826
@ E:\NeuOrga\Programmieren\c_cpp\github_os\input\src\os_base\os_common.c:206:          tmp_diff = (uint16)Minuend->number[pos] - (uint16)Subtrahend->number[pos] - carry;
	.loc 1 206 0
	subs	r1, r0, r1	@ tmp814, _825, _826
@ E:\NeuOrga\Programmieren\c_cpp\github_os\input\src\os_base\os_common.c:216:       Differenz->number[pos] = tmp_diff;
	.loc 1 216 0
	ldr	r0, [sp, #172]	@ tmp808, %sfp
	str	r4, [sp, #32]	@ tmp800, %sfp
	mov	r4, r0	@ tmp808, tmp808
	ldr	r0, [sp, #156]	@ pretmp_3633, %sfp
@ E:\NeuOrga\Programmieren\c_cpp\github_os\input\src\os_base\os_common.c:210:          tmp_diff = 0x100u+(uint16)Minuend->number[pos] - (uint16)Subtrahend->number[pos] - (uint16)carry;
	.loc 1 210 0
	ldrh	r2, [sp]	@ _844, %sfp
	str	r3, [sp, #36]	@ tmp812, %sfp
@ E:\NeuOrga\Programmieren\c_cpp\github_os\input\src\os_base\os_common.c:216:       Differenz->number[pos] = tmp_diff;
	.loc 1 216 0
	cmp	r0, r6	@ pretmp_3633, prephitmp_4020
	it	cc	@
	movcc	r4, ip	@, tmp808, tmp806
@ E:\NeuOrga\Programmieren\c_cpp\github_os\input\src\os_base\os_common.c:210:          tmp_diff = 0x100u+(uint16)Minuend->number[pos] - (uint16)Subtrahend->number[pos] - (uint16)carry;
	.loc 1 210 0
	ldr	r0, [sp, #260]	@ tmp1232, %sfp
	ldrh	r3, [sp, #4]	@ _862, %sfp
@ E:\NeuOrga\Programmieren\c_cpp\github_os\input\src\os_base\os_common.c:216:       Differenz->number[pos] = tmp_diff;
	.loc 1 216 0
	str	r4, [sp, #244]	@ tmp808, %sfp
@ E:\NeuOrga\Programmieren\c_cpp\github_os\input\src\os_base\os_common.c:210:          tmp_diff = 0x100u+(uint16)Minuend->number[pos] - (uint16)Subtrahend->number[pos] - (uint16)carry;
	.loc 1 210 0
	subs	r0, r0, r2	@ tmp818, tmp1232, _844
	str	r0, [sp, #156]	@ tmp818, %sfp
@ E:\NeuOrga\Programmieren\c_cpp\github_os\input\src\os_base\os_common.c:206:          tmp_diff = (uint16)Minuend->number[pos] - (uint16)Subtrahend->number[pos] - carry;
	.loc 1 206 0
	ldr	r0, [sp, #256]	@ _843, %sfp
	subs	r2, r0, r2	@ tmp820, _843, _844
@ E:\NeuOrga\Programmieren\c_cpp\github_os\input\src\os_base\os_common.c:210:          tmp_diff = 0x100u+(uint16)Minuend->number[pos] - (uint16)Subtrahend->number[pos] - (uint16)carry;
	.loc 1 210 0
	ldr	r0, [sp, #268]	@ tmp1234, %sfp
	sub	ip, r0, r3	@ tmp824, tmp1234, _862
@ E:\NeuOrga\Programmieren\c_cpp\github_os\input\src\os_base\os_common.c:206:          tmp_diff = (uint16)Minuend->number[pos] - (uint16)Subtrahend->number[pos] - carry;
	.loc 1 206 0
	ldr	r0, [sp, #264]	@ _861, %sfp
	subs	r3, r0, r3	@ tmp826, _861, _862
@ E:\NeuOrga\Programmieren\c_cpp\github_os\input\src\os_base\os_common.c:216:       Differenz->number[pos] = tmp_diff;
	.loc 1 216 0
	ldr	r0, [sp, #36]	@ tmp812, %sfp
	mov	r4, r0	@ tmp812, tmp812
	ldr	r0, [sp, #152]	@ pretmp_3631, %sfp
	cmp	r0, r7	@ pretmp_3631, prephitmp_4023
	it	cs	@
	movcs	r4, r1	@, tmp812, tmp814
	ldr	r1, [sp, #156]	@ tmp818, %sfp
	ldr	r0, [sp]	@ pretmp_3930, %sfp
	str	r4, [sp, #248]	@ tmp812, %sfp
	mov	r4, r1	@ tmp818, tmp818
	ldr	r1, [sp, #220]	@ pretmp_5080, %sfp
	cmp	r0, r1	@ pretmp_3930, pretmp_5080
	it	hi	@
	movhi	r2, r4	@, tmp819, tmp818
	ldr	r1, [sp, #140]	@ _164, %sfp
	ldr	r0, [sp, #228]	@ tmp741, %sfp
	mov	r4, r1	@ _164, _164
	ldr	r1, [sp, #4]	@ result$number$0, %sfp
	cmp	r4, r1	@ _164, result$number$0
	it	cs	@
	movcs	ip, r3	@, tmp824, tmp826
	and	r4, r0, #255	@ _617, tmp741,
	ldr	r0, [sp, #236]	@ tmp747, %sfp
	str	r4, [sp, #36]	@ _617, %sfp
	and	r4, r0, #255	@ _635, tmp747,
	ldr	r0, [sp, #240]	@ tmp753, %sfp
	str	r4, [sp, #152]	@ _635, %sfp
	and	r4, r0, #255	@ _653, tmp753,
	str	ip, [sp, #252]	@ tmp824, %sfp
	ldr	r1, [sp, #216]	@ tmp735, %sfp
	str	r4, [sp, #156]	@ _653, %sfp
	ldrb	ip, [sp, #320]	@ zero_extendqisi2	@ rest_number_I_lsm.81, rest.number
	ldr	r0, [sp, #200]	@ tmp759, %sfp
	str	r10, [sp, #228]	@ result$number$15, %sfp
	and	r4, r0, #255	@ _671, tmp759,
	ldr	r0, [sp, #208]	@ tmp765, %sfp
	str	r4, [sp, #160]	@ _671, %sfp
	and	r4, r0, #255	@ _689, tmp765,
	ldr	r0, [sp, #192]	@ tmp771, %sfp
	str	r4, [sp, #168]	@ _689, %sfp
	and	r4, r0, #255	@ _707, tmp771,
	ldr	r0, [sp, #180]	@ tmp777, %sfp
	str	r4, [sp, #172]	@ _707, %sfp
	and	r4, r0, #255	@ _725, tmp777,
	ldr	r0, [sp, #212]	@ tmp783, %sfp
	str	r4, [sp, #176]	@ _725, %sfp
	and	r4, r0, #255	@ _743, tmp783,
	ldr	r0, [sp, #204]	@ tmp789, %sfp
	str	r4, [sp, #180]	@ _743, %sfp
	and	r4, r0, #255	@ _761, tmp789,
	ldr	r0, [sp, #196]	@ tmp795, %sfp
	str	r4, [sp, #192]	@ _761, %sfp
	and	r4, r0, #255	@ _779, tmp795,
	ldr	r0, [sp, #32]	@ tmp801, %sfp
	str	r4, [sp, #196]	@ _779, %sfp
	and	r4, r0, #255	@ _797, tmp801,
	ldr	r0, [sp, #244]	@ tmp807, %sfp
	str	r4, [sp, #200]	@ _797, %sfp
	and	r4, r0, #255	@ _815, tmp807,
	ldr	r0, [sp, #248]	@ tmp813, %sfp
	ldr	r10, [sp, #100]	@ rest_number_I_lsm.83, %sfp
	str	r4, [sp, #204]	@ _815, %sfp
	and	r0, r0, #255	@ _833, tmp813,
	str	r0, [sp, #208]	@ _833, %sfp
	and	r0, r2, #255	@ _851, tmp819,
	ldr	r2, [sp, #252]	@ tmp825, %sfp
	str	r0, [sp, #212]	@ _851, %sfp
	movs	r3, #0	@ rest_number_I_lsm.80,
	and	r1, r1, #255	@ _599, tmp735,
	and	r2, r2, #255	@ _869, tmp825,
	str	r2, [sp, #216]	@ _869, %sfp
	str	fp, [sp, #100]	@ prephitmp_4974, %sfp
	mov	r2, r3	@ local_cnt, rest_number_I_lsm.80
	mov	fp, r1	@ _599, _599
	mov	r0, r3	@ rest_number_I_lsm.80, rest_number_I_lsm.80
	ldr	r1, [sp, #76]	@ rest_number_I_lsm.89, %sfp
	ldr	r3, [sp, #80]	@ rest_number_I_lsm.87, %sfp
	str	lr, [sp, #76]	@ prephitmp_5031, %sfp
	str	r5, [sp, #32]	@ prephitmp_5049, %sfp
	b	.L81	@
.LVL209:
.L61:
.LBE240:
.LBE244:
.LBE287:
.LBB288:
.LBB289:
.LBB290:
@ E:\NeuOrga\Programmieren\c_cpp\github_os\input\src\os_base\os_common.c:225:       if(Operand1->number[pos] < Operand2->number[pos])
	.loc 1 225 0
	ldr	r4, [sp]	@ pretmp_3930, %sfp
	cmp	r10, r4	@ rest_number_I_lsm.83, pretmp_3930
	bcc	.L60	@,
@ E:\NeuOrga\Programmieren\c_cpp\github_os\input\src\os_base\os_common.c:230:       else if (Operand1->number[pos] > Operand2->number[pos])
	.loc 1 230 0
	bhi	.L188	@,
.LVL210:
@ E:\NeuOrga\Programmieren\c_cpp\github_os\input\src\os_base\os_common.c:225:       if(Operand1->number[pos] < Operand2->number[pos])
	.loc 1 225 0
	ldr	r4, [sp, #72]	@ rest_number_I_lsm.85, %sfp
	cmp	r4, r7	@ rest_number_I_lsm.85, prephitmp_4023
	bcc	.L60	@,
@ E:\NeuOrga\Programmieren\c_cpp\github_os\input\src\os_base\os_common.c:230:       else if (Operand1->number[pos] > Operand2->number[pos])
	.loc 1 230 0
	bhi	.L64	@,
.LVL211:
@ E:\NeuOrga\Programmieren\c_cpp\github_os\input\src\os_base\os_common.c:225:       if(Operand1->number[pos] < Operand2->number[pos])
	.loc 1 225 0
	cmp	r3, r6	@ rest_number_I_lsm.87, prephitmp_4020
	bcc	.L60	@,
@ E:\NeuOrga\Programmieren\c_cpp\github_os\input\src\os_base\os_common.c:230:       else if (Operand1->number[pos] > Operand2->number[pos])
	.loc 1 230 0
	bhi	.L64	@,
.LVL212:
@ E:\NeuOrga\Programmieren\c_cpp\github_os\input\src\os_base\os_common.c:225:       if(Operand1->number[pos] < Operand2->number[pos])
	.loc 1 225 0
	ldr	r4, [sp, #32]	@ prephitmp_5049, %sfp
	cmp	r1, r4	@ rest_number_I_lsm.89, prephitmp_5049
	bcc	.L60	@,
@ E:\NeuOrga\Programmieren\c_cpp\github_os\input\src\os_base\os_common.c:230:       else if (Operand1->number[pos] > Operand2->number[pos])
	.loc 1 230 0
	bhi	.L64	@,
.LVL213:
@ E:\NeuOrga\Programmieren\c_cpp\github_os\input\src\os_base\os_common.c:225:       if(Operand1->number[pos] < Operand2->number[pos])
	.loc 1 225 0
	ldr	r4, [sp, #120]	@ rest_number_I_lsm.91, %sfp
	mov	lr, r4	@ rest_number_I_lsm.91, rest_number_I_lsm.91
	ldr	r4, [sp, #8]	@ prephitmp_5046, %sfp
	cmp	lr, r4	@ rest_number_I_lsm.91, prephitmp_5046
	bcc	.L60	@,
@ E:\NeuOrga\Programmieren\c_cpp\github_os\input\src\os_base\os_common.c:230:       else if (Operand1->number[pos] > Operand2->number[pos])
	.loc 1 230 0
	bhi	.L64	@,
.LVL214:
@ E:\NeuOrga\Programmieren\c_cpp\github_os\input\src\os_base\os_common.c:225:       if(Operand1->number[pos] < Operand2->number[pos])
	.loc 1 225 0
	ldr	r4, [sp, #116]	@ rest_number_I_lsm.93, %sfp
	cmp	r4, r9	@ rest_number_I_lsm.93, prephitmp_5042
	bcc	.L60	@,
@ E:\NeuOrga\Programmieren\c_cpp\github_os\input\src\os_base\os_common.c:230:       else if (Operand1->number[pos] > Operand2->number[pos])
	.loc 1 230 0
	bhi	.L64	@,
.LVL215:
@ E:\NeuOrga\Programmieren\c_cpp\github_os\input\src\os_base\os_common.c:225:       if(Operand1->number[pos] < Operand2->number[pos])
	.loc 1 225 0
	ldr	r4, [sp, #68]	@ rest_number_I_lsm.95, %sfp
	cmp	r4, r8	@ rest_number_I_lsm.95, prephitmp_5037
	bcc	.L60	@,
@ E:\NeuOrga\Programmieren\c_cpp\github_os\input\src\os_base\os_common.c:230:       else if (Operand1->number[pos] > Operand2->number[pos])
	.loc 1 230 0
	bhi	.L64	@,
.LVL216:
@ E:\NeuOrga\Programmieren\c_cpp\github_os\input\src\os_base\os_common.c:225:       if(Operand1->number[pos] < Operand2->number[pos])
	.loc 1 225 0
	ldr	r4, [sp, #60]	@ rest_number_I_lsm.97, %sfp
	ldr	r5, [sp, #76]	@ prephitmp_5031, %sfp
	cmp	r4, r5	@ rest_number_I_lsm.97, prephitmp_5031
	bcc	.L60	@,
@ E:\NeuOrga\Programmieren\c_cpp\github_os\input\src\os_base\os_common.c:230:       else if (Operand1->number[pos] > Operand2->number[pos])
	.loc 1 230 0
	bhi	.L64	@,
.LVL217:
@ E:\NeuOrga\Programmieren\c_cpp\github_os\input\src\os_base\os_common.c:225:       if(Operand1->number[pos] < Operand2->number[pos])
	.loc 1 225 0
	ldr	r4, [sp, #64]	@ rest_number_I_lsm.99, %sfp
	mov	lr, r4	@ rest_number_I_lsm.99, rest_number_I_lsm.99
	ldr	r4, [sp, #16]	@ prephitmp_5024, %sfp
	cmp	lr, r4	@ rest_number_I_lsm.99, prephitmp_5024
	bcc	.L60	@,
@ E:\NeuOrga\Programmieren\c_cpp\github_os\input\src\os_base\os_common.c:230:       else if (Operand1->number[pos] > Operand2->number[pos])
	.loc 1 230 0
	bhi	.L64	@,
.LVL218:
@ E:\NeuOrga\Programmieren\c_cpp\github_os\input\src\os_base\os_common.c:225:       if(Operand1->number[pos] < Operand2->number[pos])
	.loc 1 225 0
	ldr	r4, [sp, #56]	@ rest_number_I_lsm.79, %sfp
	mov	lr, r4	@ rest_number_I_lsm.79, rest_number_I_lsm.79
	ldr	r4, [sp, #12]	@ prephitmp_5016, %sfp
	cmp	lr, r4	@ rest_number_I_lsm.79, prephitmp_5016
	bcc	.L60	@,
@ E:\NeuOrga\Programmieren\c_cpp\github_os\input\src\os_base\os_common.c:230:       else if (Operand1->number[pos] > Operand2->number[pos])
	.loc 1 230 0
	bhi	.L64	@,
.LVL219:
@ E:\NeuOrga\Programmieren\c_cpp\github_os\input\src\os_base\os_common.c:225:       if(Operand1->number[pos] < Operand2->number[pos])
	.loc 1 225 0
	ldr	r4, [sp, #52]	@ rest_number_I_lsm.101, %sfp
	mov	lr, r4	@ rest_number_I_lsm.101, rest_number_I_lsm.101
	ldr	r4, [sp, #28]	@ prephitmp_5007, %sfp
	cmp	lr, r4	@ rest_number_I_lsm.101, prephitmp_5007
	bcc	.L60	@,
@ E:\NeuOrga\Programmieren\c_cpp\github_os\input\src\os_base\os_common.c:230:       else if (Operand1->number[pos] > Operand2->number[pos])
	.loc 1 230 0
	bhi	.L64	@,
.LVL220:
@ E:\NeuOrga\Programmieren\c_cpp\github_os\input\src\os_base\os_common.c:225:       if(Operand1->number[pos] < Operand2->number[pos])
	.loc 1 225 0
	ldr	r4, [sp, #104]	@ rest_number_I_lsm.103, %sfp
	mov	lr, r4	@ rest_number_I_lsm.103, rest_number_I_lsm.103
	ldr	r4, [sp, #24]	@ prephitmp_4997, %sfp
	cmp	lr, r4	@ rest_number_I_lsm.103, prephitmp_4997
	bcc	.L60	@,
@ E:\NeuOrga\Programmieren\c_cpp\github_os\input\src\os_base\os_common.c:230:       else if (Operand1->number[pos] > Operand2->number[pos])
	.loc 1 230 0
	bhi	.L64	@,
.LVL221:
@ E:\NeuOrga\Programmieren\c_cpp\github_os\input\src\os_base\os_common.c:225:       if(Operand1->number[pos] < Operand2->number[pos])
	.loc 1 225 0
	ldr	r4, [sp, #48]	@ rest_number_I_lsm.105, %sfp
	mov	lr, r4	@ rest_number_I_lsm.105, rest_number_I_lsm.105
	ldr	r4, [sp, #20]	@ prephitmp_4986, %sfp
	cmp	lr, r4	@ rest_number_I_lsm.105, prephitmp_4986
	bcc	.L60	@,
@ E:\NeuOrga\Programmieren\c_cpp\github_os\input\src\os_base\os_common.c:230:       else if (Operand1->number[pos] > Operand2->number[pos])
	.loc 1 230 0
	bhi	.L64	@,
.LVL222:
@ E:\NeuOrga\Programmieren\c_cpp\github_os\input\src\os_base\os_common.c:225:       if(Operand1->number[pos] < Operand2->number[pos])
	.loc 1 225 0
	ldr	r4, [sp, #44]	@ rest_number_I_lsm.107, %sfp
	mov	lr, r4	@ rest_number_I_lsm.107, rest_number_I_lsm.107
	ldr	r4, [sp, #100]	@ prephitmp_4974, %sfp
	cmp	lr, r4	@ rest_number_I_lsm.107, prephitmp_4974
	bcc	.L60	@,
@ E:\NeuOrga\Programmieren\c_cpp\github_os\input\src\os_base\os_common.c:230:       else if (Operand1->number[pos] > Operand2->number[pos])
	.loc 1 230 0
	bhi	.L64	@,
.LVL223:
@ E:\NeuOrga\Programmieren\c_cpp\github_os\input\src\os_base\os_common.c:225:       if(Operand1->number[pos] < Operand2->number[pos])
	.loc 1 225 0
	ldr	r4, [sp, #40]	@ rest_number_I_lsm.109, %sfp
	mov	lr, r4	@ rest_number_I_lsm.109, rest_number_I_lsm.109
	ldr	r4, [sp, #228]	@ result$number$15, %sfp
	cmp	lr, r4	@ rest_number_I_lsm.109, result$number$15
	bcc	.L60	@,
.LVL224:
.L64:
.LBE290:
.LBE289:
.LBB292:
.LBB293:
@ E:\NeuOrga\Programmieren\c_cpp\github_os\input\src\os_base\os_common.c:252:       if(Operand1->number[pos] != Operand2->number[pos])
	.loc 1 252 0
	ldr	r4, [sp, #4]	@ result$number$0, %sfp
	cmp	ip, r4	@ rest_number_I_lsm.81, result$number$0
	bne	.L188	@,
.LVL225:
	ldr	r4, [sp]	@ pretmp_3930, %sfp
	cmp	r10, r4	@ rest_number_I_lsm.83, pretmp_3930
	bne	.L188	@,
.LVL226:
	ldr	r4, [sp, #72]	@ rest_number_I_lsm.85, %sfp
	cmp	r4, r7	@ rest_number_I_lsm.85, prephitmp_4023
	bne	.L217	@,
.LVL227:
	cmp	r3, r6	@ rest_number_I_lsm.87, prephitmp_4020
	bne	.L80	@,
.LVL228:
	ldr	r4, [sp, #32]	@ prephitmp_5049, %sfp
	cmp	r1, r4	@ rest_number_I_lsm.89, prephitmp_5049
	bne	.L80	@,
.LVL229:
	ldr	r4, [sp, #120]	@ rest_number_I_lsm.91, %sfp
	mov	lr, r4	@ rest_number_I_lsm.91, rest_number_I_lsm.91
	ldr	r4, [sp, #8]	@ prephitmp_5046, %sfp
	cmp	lr, r4	@ rest_number_I_lsm.91, prephitmp_5046
	bne	.L218	@,
.LVL230:
	ldr	r4, [sp, #116]	@ rest_number_I_lsm.93, %sfp
	cmp	r4, r9	@ rest_number_I_lsm.93, prephitmp_5042
	bne	.L80	@,
.LVL231:
	ldr	r4, [sp, #68]	@ rest_number_I_lsm.95, %sfp
	cmp	r4, r8	@ rest_number_I_lsm.95, prephitmp_5037
	bne	.L80	@,
.LVL232:
	ldr	r4, [sp, #60]	@ rest_number_I_lsm.97, %sfp
	ldr	r5, [sp, #76]	@ prephitmp_5031, %sfp
	cmp	r4, r5	@ rest_number_I_lsm.97, prephitmp_5031
	bne	.L80	@,
.LVL233:
	ldr	r4, [sp, #64]	@ rest_number_I_lsm.99, %sfp
	mov	lr, r4	@ rest_number_I_lsm.99, rest_number_I_lsm.99
	ldr	r4, [sp, #16]	@ prephitmp_5024, %sfp
	cmp	lr, r4	@ rest_number_I_lsm.99, prephitmp_5024
	bne	.L219	@,
.LVL234:
	ldr	r4, [sp, #56]	@ rest_number_I_lsm.79, %sfp
	mov	lr, r4	@ rest_number_I_lsm.79, rest_number_I_lsm.79
	ldr	r4, [sp, #12]	@ prephitmp_5016, %sfp
	cmp	lr, r4	@ rest_number_I_lsm.79, prephitmp_5016
	bne	.L220	@,
.LVL235:
	ldr	r4, [sp, #52]	@ rest_number_I_lsm.101, %sfp
	mov	lr, r4	@ rest_number_I_lsm.101, rest_number_I_lsm.101
	ldr	r4, [sp, #28]	@ prephitmp_5007, %sfp
	cmp	lr, r4	@ rest_number_I_lsm.101, prephitmp_5007
	bne	.L221	@,
.LVL236:
	ldr	r4, [sp, #104]	@ rest_number_I_lsm.103, %sfp
	mov	lr, r4	@ rest_number_I_lsm.103, rest_number_I_lsm.103
	ldr	r4, [sp, #24]	@ prephitmp_4997, %sfp
	cmp	lr, r4	@ rest_number_I_lsm.103, prephitmp_4997
	bne	.L222	@,
.LVL237:
	ldr	r4, [sp, #48]	@ rest_number_I_lsm.105, %sfp
	mov	lr, r4	@ rest_number_I_lsm.105, rest_number_I_lsm.105
	ldr	r4, [sp, #20]	@ prephitmp_4986, %sfp
	cmp	lr, r4	@ rest_number_I_lsm.105, prephitmp_4986
	bne	.L223	@,
.LVL238:
	ldr	r4, [sp, #44]	@ rest_number_I_lsm.107, %sfp
	mov	lr, r4	@ rest_number_I_lsm.107, rest_number_I_lsm.107
	ldr	r4, [sp, #100]	@ prephitmp_4974, %sfp
	cmp	lr, r4	@ rest_number_I_lsm.107, prephitmp_4974
	bne	.L224	@,
.LVL239:
	ldr	r4, [sp, #40]	@ rest_number_I_lsm.109, %sfp
	mov	lr, r4	@ rest_number_I_lsm.109, rest_number_I_lsm.109
	ldr	r4, [sp, #228]	@ result$number$15, %sfp
	cmp	lr, r4	@ rest_number_I_lsm.109, result$number$15
	bne	.L80	@,
.LVL240:
.L60:
.LBE293:
.LBE292:
.LBE288:
.LBB295:
.LBB245:
.LBB241:
@ E:\NeuOrga\Programmieren\c_cpp\github_os\input\src\os_base\os_common.c:216:       Differenz->number[pos] = tmp_diff;
	.loc 1 216 0
	ldr	r4, [sp, #196]	@ _779, %sfp
	str	r4, [sp, #120]	@ _779, %sfp
	ldr	r4, [sp, #192]	@ _761, %sfp
	str	r4, [sp, #116]	@ _761, %sfp
	ldr	r4, [sp, #180]	@ _743, %sfp
	str	r4, [sp, #68]	@ _743, %sfp
	ldr	r4, [sp, #176]	@ _725, %sfp
	str	r4, [sp, #60]	@ _725, %sfp
	ldr	r4, [sp, #172]	@ _707, %sfp
	str	r4, [sp, #64]	@ _707, %sfp
	ldr	r4, [sp, #160]	@ _671, %sfp
	str	r4, [sp, #52]	@ _671, %sfp
	ldr	r4, [sp, #156]	@ _653, %sfp
	str	r4, [sp, #104]	@ _653, %sfp
	ldr	r4, [sp, #152]	@ _635, %sfp
	ldr	r3, [sp, #168]	@ _689, %sfp
	str	r4, [sp, #48]	@ _635, %sfp
	ldr	r4, [sp, #36]	@ _617, %sfp
	str	r3, [sp, #56]	@ _689, %sfp
	ldr	r3, [sp, #208]	@ _833, %sfp
	str	r3, [sp, #72]	@ _833, %sfp
	ldrd	r10, ip, [sp, #212]	@ rest_number_I_lsm.83, rest_number_I_lsm.81,,
	ldrd	r1, r3, [sp, #200]	@ rest_number_I_lsm.89, rest_number_I_lsm.87,,
	strd	fp, r4, [sp, #40]	@ _599, _617,,
.LBE241:
.LBE245:
.LBE295:
@ E:\NeuOrga\Programmieren\c_cpp\github_os\input\src\os_base\os_common.c:119:          local_cnt++;      
	.loc 1 119 0
	adds	r2, r2, #1	@ local_cnt, local_cnt,
.LVL241:
	movs	r0, #1	@ rest_number_I_lsm.80,
.LVL242:
.L81:
.LBB296:
.LBB294:
.LBB291:
@ E:\NeuOrga\Programmieren\c_cpp\github_os\input\src\os_base\os_common.c:225:       if(Operand1->number[pos] < Operand2->number[pos])
	.loc 1 225 0
	ldr	r4, [sp, #4]	@ result$number$0, %sfp
	cmp	ip, r4	@ rest_number_I_lsm.81, result$number$0
	bcc	.L60	@,
@ E:\NeuOrga\Programmieren\c_cpp\github_os\input\src\os_base\os_common.c:230:       else if (Operand1->number[pos] > Operand2->number[pos])
	.loc 1 230 0
	bls	.L61	@,
.LVL243:
.L80:
	str	r10, [sp, #100]	@ rest_number_I_lsm.83, %sfp
	str	r3, [sp, #80]	@ rest_number_I_lsm.87, %sfp
	str	r1, [sp, #76]	@ rest_number_I_lsm.89, %sfp
	cmp	r0, #0	@ rest_number_I_lsm.80
	bne	.L225	@
.L62:
.LVL244:
.LBE291:
.LBE294:
.LBE296:
@ E:\NeuOrga\Programmieren\c_cpp\github_os\input\src\os_base\os_common.c:123:       u32_teilergebnis = local_cnt * one_shifted_nibble;
	.loc 1 123 0
	ldr	r3, [sp, #224]	@ nibble_shift_left_amount, %sfp
.LBB297:
.LBB298:
.LBB299:
@ E:\NeuOrga\Programmieren\c_cpp\github_os\input\src\os_base\os_common.c:191:       uint16 tmp_sum = (uint16)ErsterSummand->number[pos] +(uint16)ZweiterSummand->number[pos] + carry;
	.loc 1 191 0
	ldr	r1, [sp, #92]	@ rest.number, %sfp
@ E:\NeuOrga\Programmieren\c_cpp\github_os\input\src\os_base\os_common.c:192:       Summe->number[pos] = tmp_sum & 0xFFu;
	.loc 1 192 0
	strb	ip, [sp, #336]	@ rest_number_I_lsm.81, teilergebnis.number
.LBE299:
.LBE298:
.LBE297:
@ E:\NeuOrga\Programmieren\c_cpp\github_os\input\src\os_base\os_common.c:123:       u32_teilergebnis = local_cnt * one_shifted_nibble;
	.loc 1 123 0
	lsl	r3, r2, r3	@ u32_teilergebnis, local_cnt, nibble_shift_left_amount
.LVL245:
.LBB306:
.LBB303:
.LBB300:
@ E:\NeuOrga\Programmieren\c_cpp\github_os\input\src\os_base\os_common.c:192:       Summe->number[pos] = tmp_sum & 0xFFu;
	.loc 1 192 0
	ldr	r2, [sp, #96]	@ _216, %sfp
.LVL246:
	uxtab	r0, r2, r3	@ tmp1103, _216, u32_teilergebnis
@ E:\NeuOrga\Programmieren\c_cpp\github_os\input\src\os_base\os_common.c:191:       uint16 tmp_sum = (uint16)ErsterSummand->number[pos] +(uint16)ZweiterSummand->number[pos] + carry;
	.loc 1 191 0
	ubfx	r2, r3, #1, #8	@ tmp1107, u32_teilergebnis,,
	add	r2, r2, r1	@ tmp1110, rest.number
@ E:\NeuOrga\Programmieren\c_cpp\github_os\input\src\os_base\os_common.c:193:       carry = tmp_sum & 0xFF00u;
	.loc 1 193 0
	bic	r1, r0, #255	@ tmp1115, tmp1103,
@ E:\NeuOrga\Programmieren\c_cpp\github_os\input\src\os_base\os_common.c:191:       uint16 tmp_sum = (uint16)ErsterSummand->number[pos] +(uint16)ZweiterSummand->number[pos] + carry;
	.loc 1 191 0
	add	r2, r2, r1	@ tmp1118, tmp1115
	uxth	r4, r2	@ tmp_sum, tmp1118
	ldr	r2, [sp, #88]	@ rest.number, %sfp
@ E:\NeuOrga\Programmieren\c_cpp\github_os\input\src\os_base\os_common.c:192:       Summe->number[pos] = tmp_sum & 0xFFu;
	.loc 1 192 0
	strb	r0, [sp, #351]	@ tmp1103, teilergebnis.number
@ E:\NeuOrga\Programmieren\c_cpp\github_os\input\src\os_base\os_common.c:191:       uint16 tmp_sum = (uint16)ErsterSummand->number[pos] +(uint16)ZweiterSummand->number[pos] + carry;
	.loc 1 191 0
	ubfx	r1, r3, #2, #8	@ tmp1123, u32_teilergebnis,,
	add	r1, r1, r2	@ tmp1126, rest.number
@ E:\NeuOrga\Programmieren\c_cpp\github_os\input\src\os_base\os_common.c:193:       carry = tmp_sum & 0xFF00u;
	.loc 1 193 0
	and	r2, r4, #65280	@ carry, tmp_sum,
@ E:\NeuOrga\Programmieren\c_cpp\github_os\input\src\os_base\os_common.c:191:       uint16 tmp_sum = (uint16)ErsterSummand->number[pos] +(uint16)ZweiterSummand->number[pos] + carry;
	.loc 1 191 0
	add	r2, r2, r1	@ tmp1128, tmp1126
	uxth	r1, r2	@ tmp_sum, tmp1128
	ldr	r2, [sp, #84]	@ rest.number, %sfp
@ E:\NeuOrga\Programmieren\c_cpp\github_os\input\src\os_base\os_common.c:193:       carry = tmp_sum & 0xFF00u;
	.loc 1 193 0
	str	r1, [sp]	@ tmp_sum, %sfp
@ E:\NeuOrga\Programmieren\c_cpp\github_os\input\src\os_base\os_common.c:191:       uint16 tmp_sum = (uint16)ErsterSummand->number[pos] +(uint16)ZweiterSummand->number[pos] + carry;
	.loc 1 191 0
	ubfx	r3, r3, #3, #8	@ tmp1133, u32_teilergebnis,,
.LVL247:
	add	r3, r3, r2	@ tmp1136, rest.number
@ E:\NeuOrga\Programmieren\c_cpp\github_os\input\src\os_base\os_common.c:193:       carry = tmp_sum & 0xFF00u;
	.loc 1 193 0
	and	r2, r1, #65280	@ carry, tmp_sum,
@ E:\NeuOrga\Programmieren\c_cpp\github_os\input\src\os_base\os_common.c:191:       uint16 tmp_sum = (uint16)ErsterSummand->number[pos] +(uint16)ZweiterSummand->number[pos] + carry;
	.loc 1 191 0
	add	r3, r3, r2	@ tmp1138, carry
	uxth	r2, r3	@ tmp_sum, tmp1138
	ldr	r1, [sp, #108]	@ rest.number, %sfp
@ E:\NeuOrga\Programmieren\c_cpp\github_os\input\src\os_base\os_common.c:192:       Summe->number[pos] = tmp_sum & 0xFFu;
	.loc 1 192 0
	strb	r2, [sp, #348]	@ tmp_sum, teilergebnis.number
@ E:\NeuOrga\Programmieren\c_cpp\github_os\input\src\os_base\os_common.c:193:       carry = tmp_sum & 0xFF00u;
	.loc 1 193 0
	and	r3, r2, #65280	@ carry, tmp_sum,
@ E:\NeuOrga\Programmieren\c_cpp\github_os\input\src\os_base\os_common.c:191:       uint16 tmp_sum = (uint16)ErsterSummand->number[pos] +(uint16)ZweiterSummand->number[pos] + carry;
	.loc 1 191 0
	add	r3, r3, r1	@ tmp1143, rest.number
	uxth	r5, r3	@ tmp_sum, tmp1143
	ldr	r1, [sp, #112]	@ rest.number, %sfp
@ E:\NeuOrga\Programmieren\c_cpp\github_os\input\src\os_base\os_common.c:192:       Summe->number[pos] = tmp_sum & 0xFFu;
	.loc 1 192 0
	strb	r4, [sp, #350]	@ tmp_sum, teilergebnis.number
@ E:\NeuOrga\Programmieren\c_cpp\github_os\input\src\os_base\os_common.c:193:       carry = tmp_sum & 0xFF00u;
	.loc 1 193 0
	and	r3, r5, #65280	@ carry, tmp_sum,
@ E:\NeuOrga\Programmieren\c_cpp\github_os\input\src\os_base\os_common.c:191:       uint16 tmp_sum = (uint16)ErsterSummand->number[pos] +(uint16)ZweiterSummand->number[pos] + carry;
	.loc 1 191 0
	add	r3, r3, r1	@ tmp1148, rest.number
	uxth	r6, r3	@ tmp_sum, tmp1148
	ldr	r1, [sp, #124]	@ rest.number, %sfp
@ E:\NeuOrga\Programmieren\c_cpp\github_os\input\src\os_base\os_common.c:192:       Summe->number[pos] = tmp_sum & 0xFFu;
	.loc 1 192 0
	strb	r5, [sp, #347]	@ tmp_sum, teilergebnis.number
@ E:\NeuOrga\Programmieren\c_cpp\github_os\input\src\os_base\os_common.c:193:       carry = tmp_sum & 0xFF00u;
	.loc 1 193 0
	and	r3, r6, #65280	@ carry, tmp_sum,
@ E:\NeuOrga\Programmieren\c_cpp\github_os\input\src\os_base\os_common.c:191:       uint16 tmp_sum = (uint16)ErsterSummand->number[pos] +(uint16)ZweiterSummand->number[pos] + carry;
	.loc 1 191 0
	add	r3, r3, r1	@ tmp1153, rest.number
	uxth	r7, r3	@ tmp_sum, tmp1153
	ldr	r1, [sp, #132]	@ rest.number, %sfp
@ E:\NeuOrga\Programmieren\c_cpp\github_os\input\src\os_base\os_common.c:192:       Summe->number[pos] = tmp_sum & 0xFFu;
	.loc 1 192 0
	strb	r6, [sp, #346]	@ tmp_sum, teilergebnis.number
@ E:\NeuOrga\Programmieren\c_cpp\github_os\input\src\os_base\os_common.c:193:       carry = tmp_sum & 0xFF00u;
	.loc 1 193 0
	and	r3, r7, #65280	@ carry, tmp_sum,
@ E:\NeuOrga\Programmieren\c_cpp\github_os\input\src\os_base\os_common.c:191:       uint16 tmp_sum = (uint16)ErsterSummand->number[pos] +(uint16)ZweiterSummand->number[pos] + carry;
	.loc 1 191 0
	add	r3, r3, r1	@ tmp1158, rest.number
	uxth	lr, r3	@ tmp_sum, tmp1158
	ldr	r1, [sp, #128]	@ rest.number, %sfp
@ E:\NeuOrga\Programmieren\c_cpp\github_os\input\src\os_base\os_common.c:192:       Summe->number[pos] = tmp_sum & 0xFFu;
	.loc 1 192 0
	strb	r7, [sp, #345]	@ tmp_sum, teilergebnis.number
@ E:\NeuOrga\Programmieren\c_cpp\github_os\input\src\os_base\os_common.c:193:       carry = tmp_sum & 0xFF00u;
	.loc 1 193 0
	and	r3, lr, #65280	@ carry, tmp_sum,
@ E:\NeuOrga\Programmieren\c_cpp\github_os\input\src\os_base\os_common.c:191:       uint16 tmp_sum = (uint16)ErsterSummand->number[pos] +(uint16)ZweiterSummand->number[pos] + carry;
	.loc 1 191 0
	add	r3, r3, r1	@ tmp1163, rest.number
	uxth	r8, r3	@ tmp_sum, tmp1163
	ldr	r1, [sp, #136]	@ rest.number, %sfp
@ E:\NeuOrga\Programmieren\c_cpp\github_os\input\src\os_base\os_common.c:192:       Summe->number[pos] = tmp_sum & 0xFFu;
	.loc 1 192 0
	strb	lr, [sp, #344]	@ tmp_sum, teilergebnis.number
@ E:\NeuOrga\Programmieren\c_cpp\github_os\input\src\os_base\os_common.c:193:       carry = tmp_sum & 0xFF00u;
	.loc 1 193 0
	and	r3, r8, #65280	@ carry, tmp_sum,
@ E:\NeuOrga\Programmieren\c_cpp\github_os\input\src\os_base\os_common.c:191:       uint16 tmp_sum = (uint16)ErsterSummand->number[pos] +(uint16)ZweiterSummand->number[pos] + carry;
	.loc 1 191 0
	add	r3, r3, r1	@ tmp1168, rest.number
	uxth	r9, r3	@ tmp_sum, tmp1168
	ldr	r1, [sp, #144]	@ rest.number, %sfp
@ E:\NeuOrga\Programmieren\c_cpp\github_os\input\src\os_base\os_common.c:192:       Summe->number[pos] = tmp_sum & 0xFFu;
	.loc 1 192 0
	strb	r8, [sp, #343]	@ tmp_sum, teilergebnis.number
@ E:\NeuOrga\Programmieren\c_cpp\github_os\input\src\os_base\os_common.c:193:       carry = tmp_sum & 0xFF00u;
	.loc 1 193 0
	and	r3, r9, #65280	@ carry, tmp_sum,
@ E:\NeuOrga\Programmieren\c_cpp\github_os\input\src\os_base\os_common.c:191:       uint16 tmp_sum = (uint16)ErsterSummand->number[pos] +(uint16)ZweiterSummand->number[pos] + carry;
	.loc 1 191 0
	add	r3, r3, r1	@ tmp1173, rest.number
	uxth	r10, r3	@ tmp_sum, tmp1173
	ldr	r1, [sp, #148]	@ rest.number, %sfp
@ E:\NeuOrga\Programmieren\c_cpp\github_os\input\src\os_base\os_common.c:192:       Summe->number[pos] = tmp_sum & 0xFFu;
	.loc 1 192 0
	strb	r9, [sp, #342]	@ tmp_sum, teilergebnis.number
@ E:\NeuOrga\Programmieren\c_cpp\github_os\input\src\os_base\os_common.c:193:       carry = tmp_sum & 0xFF00u;
	.loc 1 193 0
	and	r3, r10, #65280	@ carry, tmp_sum,
@ E:\NeuOrga\Programmieren\c_cpp\github_os\input\src\os_base\os_common.c:191:       uint16 tmp_sum = (uint16)ErsterSummand->number[pos] +(uint16)ZweiterSummand->number[pos] + carry;
	.loc 1 191 0
	add	r3, r3, r1	@ tmp1178, rest.number
	uxth	fp, r3	@ tmp_sum, tmp1178
	ldr	r1, [sp, #164]	@ rest.number, %sfp
@ E:\NeuOrga\Programmieren\c_cpp\github_os\input\src\os_base\os_common.c:192:       Summe->number[pos] = tmp_sum & 0xFFu;
	.loc 1 192 0
	strb	r10, [sp, #341]	@ tmp_sum, teilergebnis.number
@ E:\NeuOrga\Programmieren\c_cpp\github_os\input\src\os_base\os_common.c:193:       carry = tmp_sum & 0xFF00u;
	.loc 1 193 0
	and	r3, fp, #65280	@ carry, tmp_sum,
@ E:\NeuOrga\Programmieren\c_cpp\github_os\input\src\os_base\os_common.c:191:       uint16 tmp_sum = (uint16)ErsterSummand->number[pos] +(uint16)ZweiterSummand->number[pos] + carry;
	.loc 1 191 0
	add	r3, r3, r1	@ tmp1183, rest.number
	uxth	r3, r3	@ tmp_sum, tmp1183
	ldr	r1, [sp, #188]	@ rest.number, %sfp
@ E:\NeuOrga\Programmieren\c_cpp\github_os\input\src\os_base\os_common.c:193:       carry = tmp_sum & 0xFF00u;
	.loc 1 193 0
	str	r3, [sp, #4]	@ tmp_sum, %sfp
	and	r3, r3, #65280	@ carry, tmp_sum,
@ E:\NeuOrga\Programmieren\c_cpp\github_os\input\src\os_base\os_common.c:191:       uint16 tmp_sum = (uint16)ErsterSummand->number[pos] +(uint16)ZweiterSummand->number[pos] + carry;
	.loc 1 191 0
	add	r3, r3, r1	@ tmp1188, rest.number
	uxth	r1, r3	@ tmp_sum, tmp1188
@ E:\NeuOrga\Programmieren\c_cpp\github_os\input\src\os_base\os_common.c:193:       carry = tmp_sum & 0xFF00u;
	.loc 1 193 0
	str	r1, [sp, #8]	@ tmp_sum, %sfp
	and	r3, r1, #65280	@ carry, tmp_sum,
.LVL248:
@ E:\NeuOrga\Programmieren\c_cpp\github_os\input\src\os_base\os_common.c:191:       uint16 tmp_sum = (uint16)ErsterSummand->number[pos] +(uint16)ZweiterSummand->number[pos] + carry;
	.loc 1 191 0
	ldr	r1, [sp, #184]	@ rest_number_I_lsm.83, %sfp
	add	r3, r3, r1	@ tmp1192, rest_number_I_lsm.83
	uxth	r3, r3	@ tmp_sum, tmp1192
@ E:\NeuOrga\Programmieren\c_cpp\github_os\input\src\os_base\os_common.c:192:       Summe->number[pos] = tmp_sum & 0xFFu;
	.loc 1 192 0
	ldr	r1, [sp]	@ tmp_sum, %sfp
	strb	r1, [sp, #349]	@ tmp_sum, teilergebnis.number
	strb	fp, [sp, #340]	@ tmp_sum, teilergebnis.number
	strb	r3, [sp, #337]	@ tmp_sum, teilergebnis.number
.LBE300:
.LBE303:
.LBE306:
.LBB307:
.LBB232:
.LBB226:
@ E:\NeuOrga\Programmieren\c_cpp\github_os\input\src\os_base\os_common.c:270:       if(Operand1->number[pos] < Operand2->number[pos])
	.loc 1 270 0
	ldr	r3, [sp, #140]	@ _164, %sfp
.LBE226:
.LBE232:
.LBE307:
.LBB308:
.LBB304:
.LBB301:
@ E:\NeuOrga\Programmieren\c_cpp\github_os\input\src\os_base\os_common.c:192:       Summe->number[pos] = tmp_sum & 0xFFu;
	.loc 1 192 0
	ldr	r2, [sp, #4]	@ tmp_sum, %sfp
	strb	r2, [sp, #339]	@ tmp_sum, teilergebnis.number
@ E:\NeuOrga\Programmieren\c_cpp\github_os\input\src\os_base\os_common.c:191:       uint16 tmp_sum = (uint16)ErsterSummand->number[pos] +(uint16)ZweiterSummand->number[pos] + carry;
	.loc 1 191 0
	ldr	r1, [sp, #184]	@ rest_number_I_lsm.83, %sfp
@ E:\NeuOrga\Programmieren\c_cpp\github_os\input\src\os_base\os_common.c:192:       Summe->number[pos] = tmp_sum & 0xFFu;
	.loc 1 192 0
	ldr	r2, [sp, #8]	@ tmp_sum, %sfp
	strb	r2, [sp, #338]	@ tmp_sum, teilergebnis.number
.LBE301:
.LBE304:
.LBE308:
.LBB309:
.LBB233:
.LBB227:
@ E:\NeuOrga\Programmieren\c_cpp\github_os\input\src\os_base\os_common.c:270:       if(Operand1->number[pos] < Operand2->number[pos])
	.loc 1 270 0
	cmp	ip, r3	@ rest_number_I_lsm.81, _164
.LBE227:
.LBE233:
.LBE309:
.LBB310:
.LBB305:
.LBB302:
@ E:\NeuOrga\Programmieren\c_cpp\github_os\input\src\os_base\os_common.c:191:       uint16 tmp_sum = (uint16)ErsterSummand->number[pos] +(uint16)ZweiterSummand->number[pos] + carry;
	.loc 1 191 0
	str	r1, [sp, #100]	@ rest_number_I_lsm.83, %sfp
.LBE302:
.LBE305:
.LBE310:
.LBB311:
.LBB234:
.LBB228:
@ E:\NeuOrga\Programmieren\c_cpp\github_os\input\src\os_base\os_common.c:270:       if(Operand1->number[pos] < Operand2->number[pos])
	.loc 1 270 0
	bcs	.L99	@,
.LVL249:
.L82:
	add	r4, sp, #336	@ tmp1086,,
	ldmia	r4!, {r0, r1, r2, r3}	@ tmp1086,,,,
	ldr	r4, [sp, #232]	@ Quotient, %sfp
	str	r0, [r4]	@ unaligned	@, MEM[(char * {ref-all})Quotient_14(D)]
	str	r1, [r4, #4]	@ unaligned	@, MEM[(char * {ref-all})Quotient_14(D)]
	str	r2, [r4, #8]	@ unaligned	@, MEM[(char * {ref-all})Quotient_14(D)]
	str	r3, [r4, #12]	@ unaligned	@, MEM[(char * {ref-all})Quotient_14(D)]
.LBE228:
.LBE234:
.LBE311:
@ E:\NeuOrga\Programmieren\c_cpp\github_os\input\src\os_base\os_common.c:133: }
	.loc 1 133 0
	add	sp, sp, #372	@,,
	.cfi_remember_state
	.cfi_def_cfa_offset 36
	@ sp needed	@
	pop	{r4, r5, r6, r7, r8, r9, r10, fp, pc}	@
.LVL250:
.L188:
	.cfi_restore_state
	str	r10, [sp, #100]	@ rest_number_I_lsm.83, %sfp
	str	r3, [sp, #80]	@ rest_number_I_lsm.87, %sfp
	str	r1, [sp, #76]	@ rest_number_I_lsm.89, %sfp
	cmp	r0, #0	@ rest_number_I_lsm.80
	beq	.L62	@
	ldr	r1, [sp, #56]	@ rest_number_I_lsm.79, %sfp
	strb	r1, [sp, #330]	@ rest_number_I_lsm.79, rest.number
	strb	ip, [sp, #320]	@ rest_number_I_lsm.81, rest.number
	ldr	r1, [sp, #100]	@ rest_number_I_lsm.83, %sfp
	b	.L179	@
.LVL251:
.L202:
	ldrb	r3, [sp, #315]	@ zero_extendqisi2	@ prephitmp_5007, tmp_Divisor.number
	str	r3, [sp, #28]	@ prephitmp_5007, %sfp
	ldrb	r3, [sp, #314]	@ zero_extendqisi2	@ prephitmp_5016, tmp_Divisor.number
	str	r3, [sp, #12]	@ prephitmp_5016, %sfp
	ldrb	r3, [sp, #313]	@ zero_extendqisi2	@ prephitmp_5024, tmp_Divisor.number
	str	r3, [sp, #16]	@ prephitmp_5024, %sfp
	ldrb	r3, [sp, #309]	@ zero_extendqisi2	@ prephitmp_5046, tmp_Divisor.number
	str	ip, [sp]	@ pretmp_3930, %sfp
	ldrb	lr, [sp, #312]	@ zero_extendqisi2	@ prephitmp_5031, tmp_Divisor.number
	ldrb	r8, [sp, #311]	@ zero_extendqisi2	@ prephitmp_5037, tmp_Divisor.number
	ldrb	r9, [sp, #310]	@ zero_extendqisi2	@ prephitmp_5042, tmp_Divisor.number
	str	r3, [sp, #8]	@ prephitmp_5046, %sfp
	ldrb	r5, [sp, #308]	@ zero_extendqisi2	@ prephitmp_5049, tmp_Divisor.number
	ldrb	r6, [sp, #307]	@ zero_extendqisi2	@ prephitmp_4020, tmp_Divisor.number
	ldrb	r7, [sp, #306]	@ zero_extendqisi2	@ prephitmp_4023, tmp_Divisor.number
	b	.L174	@
.LVL252:
.L221:
	str	r10, [sp, #100]	@ rest_number_I_lsm.83, %sfp
	str	r3, [sp, #80]	@ rest_number_I_lsm.87, %sfp
	str	r1, [sp, #76]	@ rest_number_I_lsm.89, %sfp
	cmp	r0, #0	@ rest_number_I_lsm.80
	beq	.L62	@
	ldr	r0, [sp, #68]	@ rest_number_I_lsm.95, %sfp
	ldr	r4, [sp, #72]	@ rest_number_I_lsm.85, %sfp
	strb	r0, [sp, #327]	@ rest_number_I_lsm.95, rest.number
	ldr	r0, [sp, #60]	@ rest_number_I_lsm.97, %sfp
	ldr	r1, [sp, #56]	@ rest_number_I_lsm.79, %sfp
	strb	r4, [sp, #322]	@ rest_number_I_lsm.85, rest.number
	ldr	r5, [sp, #76]	@ rest_number_I_lsm.89, %sfp
	ldr	r4, [sp, #80]	@ rest_number_I_lsm.87, %sfp
	ldr	r6, [sp, #120]	@ rest_number_I_lsm.91, %sfp
	ldr	r7, [sp, #116]	@ rest_number_I_lsm.93, %sfp
	strb	r0, [sp, #328]	@ rest_number_I_lsm.97, rest.number
	ldr	r0, [sp, #64]	@ rest_number_I_lsm.99, %sfp
	strb	r1, [sp, #330]	@ rest_number_I_lsm.79, rest.number
	strb	r0, [sp, #329]	@ rest_number_I_lsm.99, rest.number
	strb	ip, [sp, #320]	@ rest_number_I_lsm.81, rest.number
	mov	r1, r10	@ rest_number_I_lsm.83, rest_number_I_lsm.83
	strb	r10, [sp, #321]	@ rest_number_I_lsm.83, rest.number
	strb	r4, [sp, #323]	@ rest_number_I_lsm.87, rest.number
	strb	r5, [sp, #324]	@ rest_number_I_lsm.89, rest.number
	strb	r6, [sp, #325]	@ rest_number_I_lsm.91, rest.number
	strb	r7, [sp, #326]	@ rest_number_I_lsm.93, rest.number
	mov	r0, lr	@ rest_number_I_lsm.101, rest_number_I_lsm.101
	b	.L184	@
.LVL253:
.L207:
	ldrb	fp, [sp, #318]	@ zero_extendqisi2	@ prephitmp_4974, tmp_Divisor.number
	ldrb	r3, [sp, #317]	@ zero_extendqisi2	@ prephitmp_4986, tmp_Divisor.number
	ldrb	r2, [sp, #316]	@ zero_extendqisi2	@ prephitmp_4997, tmp_Divisor.number
	ldrb	r1, [sp, #315]	@ zero_extendqisi2	@ prephitmp_5007, tmp_Divisor.number
	ldrb	r4, [sp, #314]	@ zero_extendqisi2	@ prephitmp_5016, tmp_Divisor.number
	ldrb	r0, [sp, #313]	@ zero_extendqisi2	@ prephitmp_5024, tmp_Divisor.number
	ldrb	lr, [sp, #312]	@ zero_extendqisi2	@ prephitmp_5031, tmp_Divisor.number
	ldrb	r8, [sp, #311]	@ zero_extendqisi2	@ prephitmp_5037, tmp_Divisor.number
	b	.L49	@
.LVL254:
.L206:
	ldrb	fp, [sp, #318]	@ zero_extendqisi2	@ prephitmp_4974, tmp_Divisor.number
	ldrb	r3, [sp, #317]	@ zero_extendqisi2	@ prephitmp_4986, tmp_Divisor.number
	ldrb	r2, [sp, #316]	@ zero_extendqisi2	@ prephitmp_4997, tmp_Divisor.number
	ldrb	r1, [sp, #315]	@ zero_extendqisi2	@ prephitmp_5007, tmp_Divisor.number
	ldrb	r4, [sp, #314]	@ zero_extendqisi2	@ prephitmp_5016, tmp_Divisor.number
	ldrb	r0, [sp, #313]	@ zero_extendqisi2	@ prephitmp_5024, tmp_Divisor.number
	ldrb	lr, [sp, #312]	@ zero_extendqisi2	@ prephitmp_5031, tmp_Divisor.number
	ldrb	r8, [sp, #311]	@ zero_extendqisi2	@ prephitmp_5037, tmp_Divisor.number
	ldrb	r9, [sp, #310]	@ zero_extendqisi2	@ prephitmp_5042, tmp_Divisor.number
	b	.L49	@
.LVL255:
.L112:
	strd	r3, r2, [sp, #20]	@ prephitmp_4986, prephitmp_4997,,
.LBB312:
.LBB257:
.LBB255:
@ E:\NeuOrga\Programmieren\c_cpp\github_os\input\src\os_base\os_common.c:252:       if(Operand1->number[pos] != Operand2->number[pos])
	.loc 1 252 0
	ldr	r3, [sp, #220]	@ pretmp_5080, %sfp
	str	r3, [sp]	@ pretmp_5080, %sfp
	ldr	r3, [sp, #140]	@ _164, %sfp
	str	r3, [sp, #4]	@ _164, %sfp
	ldr	r3, [sp, #168]	@ pretmp_3637, %sfp
	str	r3, [sp, #8]	@ pretmp_3637, %sfp
	ldr	r3, [sp, #192]	@ pretmp_3645, %sfp
	str	r3, [sp, #16]	@ pretmp_3645, %sfp
	ldr	r3, [sp, #196]	@ pretmp_3647, %sfp
	str	r1, [sp, #28]	@ prephitmp_5007, %sfp
	ldrd	r7, r6, [sp, #152]	@ prephitmp_4023, prephitmp_4020,,
	ldr	r5, [sp, #160]	@ prephitmp_5049, %sfp
	ldr	lr, [sp, #180]	@ prephitmp_5031, %sfp
	str	r3, [sp, #12]	@ pretmp_3647, %sfp
	ldrd	r9, r8, [sp, #172]	@ prephitmp_5042, prephitmp_5037,,
	ldrd	ip, r4, [sp, #208]	@ pretmp_3652, pretmp_3655,,
	b	.L46	@
.LVL256:
.L111:
	strd	r3, r2, [sp, #20]	@ prephitmp_4986, prephitmp_4997,,
	ldr	r3, [sp, #220]	@ pretmp_5080, %sfp
	str	r3, [sp]	@ pretmp_5080, %sfp
	ldr	r3, [sp, #140]	@ _164, %sfp
	str	r3, [sp, #4]	@ _164, %sfp
	ldr	r3, [sp, #168]	@ pretmp_3637, %sfp
	str	r3, [sp, #8]	@ pretmp_3637, %sfp
	ldr	r3, [sp, #192]	@ pretmp_3645, %sfp
	str	r4, [sp, #12]	@ prephitmp_5016, %sfp
	str	r1, [sp, #28]	@ prephitmp_5007, %sfp
	ldrd	r7, r6, [sp, #152]	@ prephitmp_4023, prephitmp_4020,,
	ldr	r5, [sp, #160]	@ prephitmp_5049, %sfp
	ldr	lr, [sp, #180]	@ prephitmp_5031, %sfp
	str	r3, [sp, #16]	@ pretmp_3645, %sfp
	ldrd	r9, r8, [sp, #172]	@ prephitmp_5042, prephitmp_5037,,
	ldrd	ip, r4, [sp, #208]	@ pretmp_3652, pretmp_3655,,
	b	.L46	@
.LVL257:
.L220:
	str	r10, [sp, #100]	@ rest_number_I_lsm.83, %sfp
	str	r3, [sp, #80]	@ rest_number_I_lsm.87, %sfp
	str	r1, [sp, #76]	@ rest_number_I_lsm.89, %sfp
	cmp	r0, #0	@ rest_number_I_lsm.80
	beq	.L62	@
	mov	r1, lr	@ rest_number_I_lsm.79, rest_number_I_lsm.79
.LVL258:
.L178:
	strb	r1, [sp, #330]	@ rest_number_I_lsm.79, rest.number
	strb	ip, [sp, #320]	@ rest_number_I_lsm.81, rest.number
	mov	r1, r10	@ rest_number_I_lsm.83, rest_number_I_lsm.83
.L179:
	strb	r1, [sp, #321]	@ rest_number_I_lsm.83, rest.number
	ldr	r4, [sp, #72]	@ rest_number_I_lsm.85, %sfp
	b	.L181	@
.LVL259:
.L219:
	str	r10, [sp, #100]	@ rest_number_I_lsm.83, %sfp
	str	r3, [sp, #80]	@ rest_number_I_lsm.87, %sfp
	str	r1, [sp, #76]	@ rest_number_I_lsm.89, %sfp
	cmp	r0, #0	@ rest_number_I_lsm.80
	beq	.L62	@
	ldr	r4, [sp, #72]	@ rest_number_I_lsm.85, %sfp
	ldr	r0, [sp, #68]	@ rest_number_I_lsm.95, %sfp
	ldr	r1, [sp, #56]	@ rest_number_I_lsm.79, %sfp
	strb	r4, [sp, #322]	@ rest_number_I_lsm.85, rest.number
	ldr	r5, [sp, #76]	@ rest_number_I_lsm.89, %sfp
	ldr	r4, [sp, #80]	@ rest_number_I_lsm.87, %sfp
	ldr	r6, [sp, #120]	@ rest_number_I_lsm.91, %sfp
	ldr	r7, [sp, #116]	@ rest_number_I_lsm.93, %sfp
	strb	r0, [sp, #327]	@ rest_number_I_lsm.95, rest.number
	ldr	r0, [sp, #60]	@ rest_number_I_lsm.97, %sfp
	strb	r1, [sp, #330]	@ rest_number_I_lsm.79, rest.number
	strb	r0, [sp, #328]	@ rest_number_I_lsm.97, rest.number
	strb	ip, [sp, #320]	@ rest_number_I_lsm.81, rest.number
	mov	r1, r10	@ rest_number_I_lsm.83, rest_number_I_lsm.83
	strb	r10, [sp, #321]	@ rest_number_I_lsm.83, rest.number
	strb	r4, [sp, #323]	@ rest_number_I_lsm.87, rest.number
	strb	r5, [sp, #324]	@ rest_number_I_lsm.89, rest.number
	strb	r6, [sp, #325]	@ rest_number_I_lsm.91, rest.number
	strb	r7, [sp, #326]	@ rest_number_I_lsm.93, rest.number
	mov	r0, lr	@ rest_number_I_lsm.99, rest_number_I_lsm.99
	b	.L183	@
.LVL260:
.L218:
	str	r10, [sp, #100]	@ rest_number_I_lsm.83, %sfp
	str	r3, [sp, #80]	@ rest_number_I_lsm.87, %sfp
	str	r1, [sp, #76]	@ rest_number_I_lsm.89, %sfp
	cmp	r0, #0	@ rest_number_I_lsm.80
	beq	.L62	@
	ldr	r4, [sp, #72]	@ rest_number_I_lsm.85, %sfp
	ldr	r1, [sp, #56]	@ rest_number_I_lsm.79, %sfp
	strb	r4, [sp, #322]	@ rest_number_I_lsm.85, rest.number
	ldr	r5, [sp, #76]	@ rest_number_I_lsm.89, %sfp
	ldr	r4, [sp, #80]	@ rest_number_I_lsm.87, %sfp
	strb	r1, [sp, #330]	@ rest_number_I_lsm.79, rest.number
	strb	ip, [sp, #320]	@ rest_number_I_lsm.81, rest.number
	mov	r1, r10	@ rest_number_I_lsm.83, rest_number_I_lsm.83
	strb	r10, [sp, #321]	@ rest_number_I_lsm.83, rest.number
	strb	r4, [sp, #323]	@ rest_number_I_lsm.87, rest.number
	strb	r5, [sp, #324]	@ rest_number_I_lsm.89, rest.number
	mov	r6, lr	@ rest_number_I_lsm.91, rest_number_I_lsm.91
	b	.L185	@
.LVL261:
.L217:
	str	r10, [sp, #100]	@ rest_number_I_lsm.83, %sfp
	str	r3, [sp, #80]	@ rest_number_I_lsm.87, %sfp
	str	r1, [sp, #76]	@ rest_number_I_lsm.89, %sfp
	cmp	r0, #0	@ rest_number_I_lsm.80
	beq	.L62	@
	ldr	r1, [sp, #56]	@ rest_number_I_lsm.79, %sfp
	strb	r1, [sp, #330]	@ rest_number_I_lsm.79, rest.number
	strb	ip, [sp, #320]	@ rest_number_I_lsm.81, rest.number
	mov	r1, r10	@ rest_number_I_lsm.83, rest_number_I_lsm.83
	strb	r10, [sp, #321]	@ rest_number_I_lsm.83, rest.number
.LVL262:
.L181:
	strb	r4, [sp, #322]	@ rest_number_I_lsm.85, rest.number
	ldr	r5, [sp, #76]	@ rest_number_I_lsm.89, %sfp
	ldr	r4, [sp, #80]	@ rest_number_I_lsm.87, %sfp
	ldr	r6, [sp, #120]	@ rest_number_I_lsm.91, %sfp
	strb	r4, [sp, #323]	@ rest_number_I_lsm.87, rest.number
	strb	r5, [sp, #324]	@ rest_number_I_lsm.89, rest.number
.L185:
	ldr	r0, [sp, #68]	@ rest_number_I_lsm.95, %sfp
	strb	r0, [sp, #327]	@ rest_number_I_lsm.95, rest.number
	ldr	r0, [sp, #60]	@ rest_number_I_lsm.97, %sfp
	ldr	r7, [sp, #116]	@ rest_number_I_lsm.93, %sfp
	strb	r0, [sp, #328]	@ rest_number_I_lsm.97, rest.number
	ldr	r0, [sp, #64]	@ rest_number_I_lsm.99, %sfp
	strb	r6, [sp, #325]	@ rest_number_I_lsm.91, rest.number
	strb	r7, [sp, #326]	@ rest_number_I_lsm.93, rest.number
.L183:
	strb	r0, [sp, #329]	@ rest_number_I_lsm.99, rest.number
	ldr	r0, [sp, #52]	@ rest_number_I_lsm.101, %sfp
.L184:
	strb	r0, [sp, #331]	@ rest_number_I_lsm.101, rest.number
	ldr	r0, [sp, #104]	@ rest_number_I_lsm.103, %sfp
.L182:
	ldr	r3, [sp, #48]	@ rest_number_I_lsm.105, %sfp
	strb	r0, [sp, #332]	@ rest_number_I_lsm.103, rest.number
.L180:
	strb	r3, [sp, #333]	@ rest_number_I_lsm.105, rest.number
	ldr	r3, [sp, #44]	@ rest_number_I_lsm.107, %sfp
	mov	lr, r3	@ rest_number_I_lsm.107, rest_number_I_lsm.107
.L177:
	ldr	r3, [sp, #40]	@ rest_number_I_lsm.109, %sfp
	str	r0, [sp, #84]	@ rest_number_I_lsm.103, %sfp
	ldr	r0, [sp, #72]	@ rest_number_I_lsm.85, %sfp
	str	r0, [sp, #188]	@ rest_number_I_lsm.85, %sfp
	ldr	r0, [sp, #68]	@ rest_number_I_lsm.95, %sfp
	strb	lr, [sp, #334]	@ rest_number_I_lsm.107, rest.number
	strb	r3, [sp, #335]	@ rest_number_I_lsm.109, rest.number
	mov	lr, r3	@ rest_number_I_lsm.109, rest_number_I_lsm.109
	str	r4, [sp, #164]	@ rest_number_I_lsm.87, %sfp
	ldr	r3, [sp, #56]	@ rest_number_I_lsm.79, %sfp
	ldr	r4, [sp, #60]	@ rest_number_I_lsm.97, %sfp
	str	r0, [sp, #128]	@ rest_number_I_lsm.95, %sfp
	ldr	r0, [sp, #52]	@ rest_number_I_lsm.101, %sfp
	str	r3, [sp, #112]	@ rest_number_I_lsm.79, %sfp
	strd	r6, r5, [sp, #144]	@ rest_number_I_lsm.91, rest_number_I_lsm.89,,
	str	r0, [sp, #108]	@ rest_number_I_lsm.101, %sfp
	ldr	r5, [sp, #64]	@ rest_number_I_lsm.99, %sfp
	ldr	r0, [sp, #44]	@ rest_number_I_lsm.107, %sfp
	ldr	r3, [sp, #48]	@ rest_number_I_lsm.105, %sfp
	str	r5, [sp, #124]	@ rest_number_I_lsm.99, %sfp
	strd	r4, r7, [sp, #132]	@ rest_number_I_lsm.97, rest_number_I_lsm.93,,
	str	lr, [sp, #96]	@ rest_number_I_lsm.109, %sfp
	str	r0, [sp, #92]	@ rest_number_I_lsm.107, %sfp
	str	r3, [sp, #88]	@ rest_number_I_lsm.105, %sfp
	str	r1, [sp, #184]	@ rest_number_I_lsm.83, %sfp
	b	.L62	@
.LVL263:
.L211:
	ldrb	fp, [sp, #318]	@ zero_extendqisi2	@ prephitmp_4974, tmp_Divisor.number
	ldrb	r3, [sp, #317]	@ zero_extendqisi2	@ prephitmp_4986, tmp_Divisor.number
	ldrb	r2, [sp, #316]	@ zero_extendqisi2	@ prephitmp_4997, tmp_Divisor.number
	ldrb	r1, [sp, #315]	@ zero_extendqisi2	@ prephitmp_5007, tmp_Divisor.number
	b	.L49	@
.LVL264:
.L210:
	ldrb	fp, [sp, #318]	@ zero_extendqisi2	@ prephitmp_4974, tmp_Divisor.number
	ldrb	r3, [sp, #317]	@ zero_extendqisi2	@ prephitmp_4986, tmp_Divisor.number
	ldrb	r2, [sp, #316]	@ zero_extendqisi2	@ prephitmp_4997, tmp_Divisor.number
	ldrb	r1, [sp, #315]	@ zero_extendqisi2	@ prephitmp_5007, tmp_Divisor.number
	ldrb	r4, [sp, #314]	@ zero_extendqisi2	@ prephitmp_5016, tmp_Divisor.number
	b	.L49	@
.LVL265:
.L209:
	ldrb	fp, [sp, #318]	@ zero_extendqisi2	@ prephitmp_4974, tmp_Divisor.number
	ldrb	r3, [sp, #317]	@ zero_extendqisi2	@ prephitmp_4986, tmp_Divisor.number
	ldrb	r2, [sp, #316]	@ zero_extendqisi2	@ prephitmp_4997, tmp_Divisor.number
	ldrb	r1, [sp, #315]	@ zero_extendqisi2	@ prephitmp_5007, tmp_Divisor.number
	ldrb	r4, [sp, #314]	@ zero_extendqisi2	@ prephitmp_5016, tmp_Divisor.number
	ldrb	r0, [sp, #313]	@ zero_extendqisi2	@ prephitmp_5024, tmp_Divisor.number
	b	.L49	@
.LVL266:
.L208:
	ldrb	fp, [sp, #318]	@ zero_extendqisi2	@ prephitmp_4974, tmp_Divisor.number
	ldrb	r3, [sp, #317]	@ zero_extendqisi2	@ prephitmp_4986, tmp_Divisor.number
	ldrb	r2, [sp, #316]	@ zero_extendqisi2	@ prephitmp_4997, tmp_Divisor.number
	ldrb	r1, [sp, #315]	@ zero_extendqisi2	@ prephitmp_5007, tmp_Divisor.number
	ldrb	r4, [sp, #314]	@ zero_extendqisi2	@ prephitmp_5016, tmp_Divisor.number
	ldrb	r0, [sp, #313]	@ zero_extendqisi2	@ prephitmp_5024, tmp_Divisor.number
	ldrb	lr, [sp, #312]	@ zero_extendqisi2	@ prephitmp_5031, tmp_Divisor.number
	b	.L49	@
.LVL267:
.L213:
	ldrb	fp, [sp, #318]	@ zero_extendqisi2	@ prephitmp_4974, tmp_Divisor.number
	ldrb	r3, [sp, #317]	@ zero_extendqisi2	@ prephitmp_4986, tmp_Divisor.number
	b	.L49	@
.LVL268:
.L214:
	ldrb	fp, [sp, #318]	@ zero_extendqisi2	@ prephitmp_4974, tmp_Divisor.number
	b	.L49	@
.LVL269:
.L212:
	ldrb	fp, [sp, #318]	@ zero_extendqisi2	@ prephitmp_4974, tmp_Divisor.number
	ldrb	r3, [sp, #317]	@ zero_extendqisi2	@ prephitmp_4986, tmp_Divisor.number
	ldrb	r2, [sp, #316]	@ zero_extendqisi2	@ prephitmp_4997, tmp_Divisor.number
	b	.L49	@
.LVL270:
.L110:
	strd	r3, r2, [sp, #20]	@ prephitmp_4986, prephitmp_4997,,
	ldr	r3, [sp, #220]	@ pretmp_5080, %sfp
	str	r3, [sp]	@ pretmp_5080, %sfp
	ldr	r3, [sp, #140]	@ _164, %sfp
	str	r3, [sp, #4]	@ _164, %sfp
	ldr	r3, [sp, #168]	@ pretmp_3637, %sfp
	str	r1, [sp, #28]	@ prephitmp_5007, %sfp
	strd	r4, r0, [sp, #12]	@ prephitmp_5016, prephitmp_5024,,
	ldrd	r7, r6, [sp, #152]	@ prephitmp_4023, prephitmp_4020,,
	ldr	r5, [sp, #160]	@ prephitmp_5049, %sfp
	str	r3, [sp, #8]	@ pretmp_3637, %sfp
	ldrd	r9, r8, [sp, #172]	@ prephitmp_5042, prephitmp_5037,,
	ldr	lr, [sp, #180]	@ prephitmp_5031, %sfp
	ldrd	ip, r4, [sp, #208]	@ pretmp_3652, pretmp_3655,,
	b	.L46	@
.LVL271:
.L109:
	strd	r3, r2, [sp, #20]	@ prephitmp_4986, prephitmp_4997,,
	ldr	r3, [sp, #140]	@ _164, %sfp
	str	r3, [sp, #4]	@ _164, %sfp
	ldr	r3, [sp, #168]	@ pretmp_3637, %sfp
	str	r4, [sp, #12]	@ prephitmp_5016, %sfp
	str	ip, [sp]	@ pretmp_3930, %sfp
	str	r1, [sp, #28]	@ prephitmp_5007, %sfp
	str	r0, [sp, #16]	@ prephitmp_5024, %sfp
	ldrd	r7, r6, [sp, #152]	@ prephitmp_4023, prephitmp_4020,,
	ldr	r5, [sp, #160]	@ prephitmp_5049, %sfp
	str	r3, [sp, #8]	@ pretmp_3637, %sfp
	ldrd	r9, r8, [sp, #172]	@ prephitmp_5042, prephitmp_5037,,
	ldrd	ip, r4, [sp, #208]	@ pretmp_3652, pretmp_3655,,
	b	.L46	@
.LVL272:
.L108:
	strd	r3, r2, [sp, #20]	@ prephitmp_4986, prephitmp_4997,,
	ldr	r3, [sp, #140]	@ _164, %sfp
	str	r3, [sp, #4]	@ _164, %sfp
	ldr	r3, [sp, #168]	@ pretmp_3637, %sfp
	str	r4, [sp, #12]	@ prephitmp_5016, %sfp
	str	ip, [sp]	@ pretmp_3930, %sfp
	str	r1, [sp, #28]	@ prephitmp_5007, %sfp
	str	r0, [sp, #16]	@ prephitmp_5024, %sfp
	ldrd	r7, r6, [sp, #152]	@ prephitmp_4023, prephitmp_4020,,
	ldr	r5, [sp, #160]	@ prephitmp_5049, %sfp
	str	r3, [sp, #8]	@ pretmp_3637, %sfp
	ldr	r9, [sp, #172]	@ prephitmp_5042, %sfp
	ldrd	ip, r4, [sp, #208]	@ pretmp_3652, pretmp_3655,,
	b	.L46	@
.LVL273:
.L107:
	strd	r3, r2, [sp, #20]	@ prephitmp_4986, prephitmp_4997,,
	ldr	r3, [sp, #140]	@ _164, %sfp
	str	r3, [sp, #4]	@ _164, %sfp
	ldr	r3, [sp, #168]	@ pretmp_3637, %sfp
	str	r4, [sp, #12]	@ prephitmp_5016, %sfp
	str	ip, [sp]	@ pretmp_3930, %sfp
	str	r1, [sp, #28]	@ prephitmp_5007, %sfp
	str	r0, [sp, #16]	@ prephitmp_5024, %sfp
	ldrd	r7, r6, [sp, #152]	@ prephitmp_4023, prephitmp_4020,,
	ldr	r5, [sp, #160]	@ prephitmp_5049, %sfp
	str	r3, [sp, #8]	@ pretmp_3637, %sfp
	ldrd	ip, r4, [sp, #208]	@ pretmp_3652, pretmp_3655,,
	b	.L46	@
.LVL274:
.L106:
	strd	r3, r2, [sp, #20]	@ prephitmp_4986, prephitmp_4997,,
	ldr	r3, [sp, #140]	@ _164, %sfp
	str	r4, [sp, #12]	@ prephitmp_5016, %sfp
	str	ip, [sp]	@ pretmp_3930, %sfp
	str	r1, [sp, #28]	@ prephitmp_5007, %sfp
	str	r0, [sp, #16]	@ prephitmp_5024, %sfp
	str	r3, [sp, #4]	@ _164, %sfp
	ldrd	r7, r6, [sp, #152]	@ prephitmp_4023, prephitmp_4020,,
	ldr	r5, [sp, #160]	@ prephitmp_5049, %sfp
	ldrd	ip, r4, [sp, #208]	@ pretmp_3652, pretmp_3655,,
	b	.L46	@
.LVL275:
.L105:
	strd	r3, r2, [sp, #20]	@ prephitmp_4986, prephitmp_4997,,
	ldr	r3, [sp, #140]	@ _164, %sfp
	str	r4, [sp, #12]	@ prephitmp_5016, %sfp
	str	ip, [sp]	@ pretmp_3930, %sfp
	str	r1, [sp, #28]	@ prephitmp_5007, %sfp
	str	r0, [sp, #16]	@ prephitmp_5024, %sfp
	str	r3, [sp, #4]	@ _164, %sfp
	ldrd	r7, r6, [sp, #152]	@ prephitmp_4023, prephitmp_4020,,
	ldrd	ip, r4, [sp, #208]	@ pretmp_3652, pretmp_3655,,
	b	.L46	@
.LVL276:
.L104:
	strd	r3, r2, [sp, #20]	@ prephitmp_4986, prephitmp_4997,,
	ldr	r3, [sp, #140]	@ _164, %sfp
	str	r4, [sp, #12]	@ prephitmp_5016, %sfp
	mov	r6, r7	@ prephitmp_4020, prephitmp_4020
	str	ip, [sp]	@ pretmp_3930, %sfp
	str	r1, [sp, #28]	@ prephitmp_5007, %sfp
	str	r0, [sp, #16]	@ prephitmp_5024, %sfp
	str	r3, [sp, #4]	@ _164, %sfp
	ldr	r7, [sp, #152]	@ prephitmp_4023, %sfp
	ldrd	ip, r4, [sp, #208]	@ pretmp_3652, pretmp_3655,,
	b	.L46	@
.LVL277:
.L103:
	ldr	r6, [sp]	@ prephitmp_4020, %sfp
.LVL278:
.L175:
	str	r4, [sp, #12]	@ prephitmp_5016, %sfp
	strd	r3, r2, [sp, #20]	@ prephitmp_4986, prephitmp_4997,,
	ldr	r3, [sp, #140]	@ _164, %sfp
	str	ip, [sp]	@ pretmp_3930, %sfp
	str	r1, [sp, #28]	@ prephitmp_5007, %sfp
	str	r0, [sp, #16]	@ prephitmp_5024, %sfp
	str	r3, [sp, #4]	@ _164, %sfp
	ldrd	ip, r4, [sp, #208]	@ pretmp_3652, pretmp_3655,,
	b	.L46	@
.LVL279:
.L83:
	ldrb	ip, [sp, #330]	@ zero_extendqisi2	@ rest.number, rest.number
	str	ip, [sp, #112]	@ rest.number, %sfp
	ldrb	ip, [sp, #331]	@ zero_extendqisi2	@ rest.number, rest.number
	str	ip, [sp, #108]	@ rest.number, %sfp
	ldrb	ip, [sp, #335]	@ zero_extendqisi2	@ _216, rest.number
	str	ip, [sp, #96]	@ _216, %sfp
	ldrb	ip, [sp, #334]	@ zero_extendqisi2	@ rest.number, rest.number
	str	ip, [sp, #92]	@ rest.number, %sfp
	ldrb	ip, [sp, #333]	@ zero_extendqisi2	@ rest.number, rest.number
	ldrb	r3, [sp, #332]	@ zero_extendqisi2	@ rest.number, rest.number
	str	ip, [sp, #88]	@ rest.number, %sfp
	ldrb	ip, [sp, #303]	@ zero_extendqisi2	@ pretmp_3657, tmp_Dividend.number
	ldrb	r2, [sp, #325]	@ zero_extendqisi2	@ rest.number, rest.number
	ldrb	r1, [sp, #324]	@ zero_extendqisi2	@ rest.number, rest.number
	ldrb	r0, [sp, #323]	@ zero_extendqisi2	@ rest.number, rest.number
	ldrb	r4, [sp, #322]	@ zero_extendqisi2	@ rest.number, rest.number
	ldrb	r5, [sp, #329]	@ zero_extendqisi2	@ rest.number, rest.number
	ldrb	r6, [sp, #328]	@ zero_extendqisi2	@ rest.number, rest.number
	ldrb	r7, [sp, #326]	@ zero_extendqisi2	@ rest.number, rest.number
	str	r3, [sp, #84]	@ rest.number, %sfp
	str	ip, [sp, #216]	@ pretmp_3657, %sfp
	ldrb	r3, [sp, #327]	@ zero_extendqisi2	@ rest.number, rest.number
	ldrb	ip, [sp, #302]	@ zero_extendqisi2	@ pretmp_3655, tmp_Dividend.number
	str	r3, [sp, #128]	@ rest.number, %sfp
	str	r2, [sp, #144]	@ rest.number, %sfp
	str	r1, [sp, #148]	@ rest.number, %sfp
	str	r0, [sp, #164]	@ rest.number, %sfp
	str	r4, [sp, #188]	@ rest.number, %sfp
	str	r5, [sp, #124]	@ rest.number, %sfp
	str	r6, [sp, #132]	@ rest.number, %sfp
	str	r7, [sp, #136]	@ rest.number, %sfp
	str	ip, [sp, #212]	@ pretmp_3655, %sfp
	ldrb	ip, [sp, #301]	@ zero_extendqisi2	@ pretmp_3652, tmp_Dividend.number
	str	ip, [sp, #208]	@ pretmp_3652, %sfp
	ldrb	ip, [sp, #300]	@ zero_extendqisi2	@ pretmp_3651, tmp_Dividend.number
	str	ip, [sp, #204]	@ pretmp_3651, %sfp
	ldrb	ip, [sp, #299]	@ zero_extendqisi2	@ pretmp_3649, tmp_Dividend.number
	str	ip, [sp, #200]	@ pretmp_3649, %sfp
	ldrb	ip, [sp, #298]	@ zero_extendqisi2	@ pretmp_3647, tmp_Dividend.number
	str	ip, [sp, #196]	@ pretmp_3647, %sfp
	ldrb	ip, [sp, #297]	@ zero_extendqisi2	@ pretmp_3645, tmp_Dividend.number
	str	ip, [sp, #192]	@ pretmp_3645, %sfp
	ldrb	ip, [sp, #296]	@ zero_extendqisi2	@ pretmp_3643, tmp_Dividend.number
	str	ip, [sp, #180]	@ pretmp_3643, %sfp
	ldrb	ip, [sp, #295]	@ zero_extendqisi2	@ pretmp_3641, tmp_Dividend.number
	str	ip, [sp, #176]	@ pretmp_3641, %sfp
	ldrb	ip, [sp, #294]	@ zero_extendqisi2	@ pretmp_3639, tmp_Dividend.number
	str	ip, [sp, #172]	@ pretmp_3639, %sfp
	ldrb	ip, [sp, #293]	@ zero_extendqisi2	@ pretmp_3637, tmp_Dividend.number
	str	ip, [sp, #168]	@ pretmp_3637, %sfp
	ldrb	ip, [sp, #292]	@ zero_extendqisi2	@ pretmp_3635, tmp_Dividend.number
	str	ip, [sp, #160]	@ pretmp_3635, %sfp
	ldrb	ip, [sp, #291]	@ zero_extendqisi2	@ pretmp_3633, tmp_Dividend.number
	ldr	r3, [sp, #84]	@ rest.number, %sfp
	str	ip, [sp, #156]	@ pretmp_3633, %sfp
	ldrb	ip, [sp, #290]	@ zero_extendqisi2	@ pretmp_3631, tmp_Dividend.number
	str	r3, [sp, #104]	@ rest.number, %sfp
	str	ip, [sp, #152]	@ pretmp_3631, %sfp
	str	r2, [sp, #120]	@ rest.number, %sfp
	strd	r1, r0, [sp, #76]	@ rest.number, rest.number,,
	str	r4, [sp, #72]	@ rest.number, %sfp
	strd	r6, r5, [sp, #60]	@ rest.number, rest.number,,
	str	r7, [sp, #116]	@ rest.number, %sfp
	ldr	r3, [sp, #128]	@ rest.number, %sfp
	str	r3, [sp, #68]	@ rest.number, %sfp
	ldr	r3, [sp, #112]	@ rest.number, %sfp
	str	r3, [sp, #56]	@ rest.number, %sfp
.LVL280:
.L171:
	ldr	r3, [sp, #108]	@ rest.number, %sfp
	str	r3, [sp, #52]	@ rest.number, %sfp
.L172:
	ldr	r3, [sp, #96]	@ _216, %sfp
	str	r3, [sp, #40]	@ _216, %sfp
	ldr	r3, [sp, #92]	@ rest.number, %sfp
	str	r3, [sp, #44]	@ rest.number, %sfp
	ldr	r3, [sp, #88]	@ rest.number, %sfp
	str	r3, [sp, #48]	@ rest.number, %sfp
	b	.L85	@
.LVL281:
.L225:
	ldr	r1, [sp, #56]	@ rest_number_I_lsm.79, %sfp
	b	.L178	@
.LVL282:
.L224:
	str	r10, [sp, #100]	@ rest_number_I_lsm.83, %sfp
	str	r3, [sp, #80]	@ rest_number_I_lsm.87, %sfp
	str	r1, [sp, #76]	@ rest_number_I_lsm.89, %sfp
	cmp	r0, #0	@ rest_number_I_lsm.80
	beq	.L62	@
	ldr	r0, [sp, #68]	@ rest_number_I_lsm.95, %sfp
	strb	r0, [sp, #327]	@ rest_number_I_lsm.95, rest.number
	ldr	r0, [sp, #60]	@ rest_number_I_lsm.97, %sfp
	strb	r0, [sp, #328]	@ rest_number_I_lsm.97, rest.number
	ldr	r0, [sp, #64]	@ rest_number_I_lsm.99, %sfp
	ldr	r4, [sp, #72]	@ rest_number_I_lsm.85, %sfp
	strb	r0, [sp, #329]	@ rest_number_I_lsm.99, rest.number
	ldr	r0, [sp, #52]	@ rest_number_I_lsm.101, %sfp
	ldr	r1, [sp, #56]	@ rest_number_I_lsm.79, %sfp
	strb	r4, [sp, #322]	@ rest_number_I_lsm.85, rest.number
	ldr	r5, [sp, #76]	@ rest_number_I_lsm.89, %sfp
	ldr	r4, [sp, #80]	@ rest_number_I_lsm.87, %sfp
	ldr	r6, [sp, #120]	@ rest_number_I_lsm.91, %sfp
	ldr	r7, [sp, #116]	@ rest_number_I_lsm.93, %sfp
	strb	r0, [sp, #331]	@ rest_number_I_lsm.101, rest.number
	ldr	r3, [sp, #48]	@ rest_number_I_lsm.105, %sfp
	ldr	r0, [sp, #104]	@ rest_number_I_lsm.103, %sfp
	strb	r1, [sp, #330]	@ rest_number_I_lsm.79, rest.number
	strb	ip, [sp, #320]	@ rest_number_I_lsm.81, rest.number
	mov	r1, r10	@ rest_number_I_lsm.83, rest_number_I_lsm.83
	strb	r10, [sp, #321]	@ rest_number_I_lsm.83, rest.number
	strb	r4, [sp, #323]	@ rest_number_I_lsm.87, rest.number
	strb	r5, [sp, #324]	@ rest_number_I_lsm.89, rest.number
	strb	r6, [sp, #325]	@ rest_number_I_lsm.91, rest.number
	strb	r7, [sp, #326]	@ rest_number_I_lsm.93, rest.number
	strb	r0, [sp, #332]	@ rest_number_I_lsm.103, rest.number
	strb	r3, [sp, #333]	@ rest_number_I_lsm.105, rest.number
	b	.L177	@
.LVL283:
.L223:
	str	r10, [sp, #100]	@ rest_number_I_lsm.83, %sfp
	str	r3, [sp, #80]	@ rest_number_I_lsm.87, %sfp
	str	r1, [sp, #76]	@ rest_number_I_lsm.89, %sfp
	cmp	r0, #0	@ rest_number_I_lsm.80
	beq	.L62	@
	ldr	r0, [sp, #68]	@ rest_number_I_lsm.95, %sfp
	strb	r0, [sp, #327]	@ rest_number_I_lsm.95, rest.number
	ldr	r0, [sp, #60]	@ rest_number_I_lsm.97, %sfp
	strb	r0, [sp, #328]	@ rest_number_I_lsm.97, rest.number
	ldr	r0, [sp, #64]	@ rest_number_I_lsm.99, %sfp
	ldr	r4, [sp, #72]	@ rest_number_I_lsm.85, %sfp
	strb	r0, [sp, #329]	@ rest_number_I_lsm.99, rest.number
	ldr	r0, [sp, #52]	@ rest_number_I_lsm.101, %sfp
	ldr	r1, [sp, #56]	@ rest_number_I_lsm.79, %sfp
	strb	r4, [sp, #322]	@ rest_number_I_lsm.85, rest.number
	ldr	r5, [sp, #76]	@ rest_number_I_lsm.89, %sfp
	ldr	r4, [sp, #80]	@ rest_number_I_lsm.87, %sfp
	ldr	r6, [sp, #120]	@ rest_number_I_lsm.91, %sfp
	ldr	r7, [sp, #116]	@ rest_number_I_lsm.93, %sfp
	strb	r0, [sp, #331]	@ rest_number_I_lsm.101, rest.number
	ldr	r0, [sp, #104]	@ rest_number_I_lsm.103, %sfp
	strb	r1, [sp, #330]	@ rest_number_I_lsm.79, rest.number
	strb	ip, [sp, #320]	@ rest_number_I_lsm.81, rest.number
	mov	r1, r10	@ rest_number_I_lsm.83, rest_number_I_lsm.83
	strb	r10, [sp, #321]	@ rest_number_I_lsm.83, rest.number
	strb	r4, [sp, #323]	@ rest_number_I_lsm.87, rest.number
	strb	r5, [sp, #324]	@ rest_number_I_lsm.89, rest.number
	strb	r6, [sp, #325]	@ rest_number_I_lsm.91, rest.number
	strb	r7, [sp, #326]	@ rest_number_I_lsm.93, rest.number
	strb	r0, [sp, #332]	@ rest_number_I_lsm.103, rest.number
	mov	r3, lr	@ rest_number_I_lsm.105, rest_number_I_lsm.105
	b	.L180	@
.LVL284:
.L222:
	str	r10, [sp, #100]	@ rest_number_I_lsm.83, %sfp
	str	r3, [sp, #80]	@ rest_number_I_lsm.87, %sfp
	str	r1, [sp, #76]	@ rest_number_I_lsm.89, %sfp
	cmp	r0, #0	@ rest_number_I_lsm.80
	beq	.L62	@
	ldr	r0, [sp, #68]	@ rest_number_I_lsm.95, %sfp
	strb	r0, [sp, #327]	@ rest_number_I_lsm.95, rest.number
	ldr	r0, [sp, #60]	@ rest_number_I_lsm.97, %sfp
	ldr	r4, [sp, #72]	@ rest_number_I_lsm.85, %sfp
	strb	r0, [sp, #328]	@ rest_number_I_lsm.97, rest.number
	ldr	r0, [sp, #64]	@ rest_number_I_lsm.99, %sfp
	ldr	r1, [sp, #56]	@ rest_number_I_lsm.79, %sfp
	strb	r4, [sp, #322]	@ rest_number_I_lsm.85, rest.number
	ldr	r5, [sp, #76]	@ rest_number_I_lsm.89, %sfp
	ldr	r4, [sp, #80]	@ rest_number_I_lsm.87, %sfp
	ldr	r6, [sp, #120]	@ rest_number_I_lsm.91, %sfp
	ldr	r7, [sp, #116]	@ rest_number_I_lsm.93, %sfp
	strb	r0, [sp, #329]	@ rest_number_I_lsm.99, rest.number
	ldr	r0, [sp, #52]	@ rest_number_I_lsm.101, %sfp
	strb	r1, [sp, #330]	@ rest_number_I_lsm.79, rest.number
	strb	r0, [sp, #331]	@ rest_number_I_lsm.101, rest.number
	strb	ip, [sp, #320]	@ rest_number_I_lsm.81, rest.number
	mov	r1, r10	@ rest_number_I_lsm.83, rest_number_I_lsm.83
	strb	r10, [sp, #321]	@ rest_number_I_lsm.83, rest.number
	strb	r4, [sp, #323]	@ rest_number_I_lsm.87, rest.number
	strb	r5, [sp, #324]	@ rest_number_I_lsm.89, rest.number
	strb	r6, [sp, #325]	@ rest_number_I_lsm.91, rest.number
	strb	r7, [sp, #326]	@ rest_number_I_lsm.93, rest.number
	mov	r0, lr	@ rest_number_I_lsm.103, rest_number_I_lsm.103
	b	.L182	@
.LVL285:
.L215:
	ldr	r3, [sp, #220]	@ pretmp_5080, %sfp
	str	r3, [sp]	@ pretmp_5080, %sfp
	ldr	r3, [sp, #140]	@ _164, %sfp
	str	r3, [sp, #4]	@ _164, %sfp
	ldr	r3, [sp, #168]	@ pretmp_3637, %sfp
	ldr	fp, [sp, #212]	@ prephitmp_4974, %sfp
	str	r3, [sp, #8]	@ pretmp_3637, %sfp
	ldr	r3, [sp, #192]	@ pretmp_3645, %sfp
	str	r3, [sp, #16]	@ pretmp_3645, %sfp
	ldr	r3, [sp, #196]	@ pretmp_3647, %sfp
	str	r1, [sp, #24]	@ pretmp_3651, %sfp
	str	r2, [sp, #20]	@ pretmp_3652, %sfp
	ldrd	r7, r6, [sp, #152]	@ prephitmp_4023, prephitmp_4020,,
	ldr	r5, [sp, #160]	@ prephitmp_5049, %sfp
	ldr	lr, [sp, #180]	@ prephitmp_5031, %sfp
	str	r3, [sp, #12]	@ pretmp_3647, %sfp
	ldrd	r9, r8, [sp, #172]	@ prephitmp_5042, prephitmp_5037,,
	str	r0, [sp, #28]	@ pretmp_3649, %sfp
	mov	r4, fp	@ pretmp_3655, prephitmp_4974
	mov	ip, r2	@ pretmp_3652, pretmp_3652
	b	.L46	@
.LVL286:
.L115:
	ldr	r3, [sp, #220]	@ pretmp_5080, %sfp
	str	r3, [sp]	@ pretmp_5080, %sfp
	ldr	r3, [sp, #140]	@ _164, %sfp
	str	r3, [sp, #4]	@ _164, %sfp
	ldr	r3, [sp, #204]	@ pretmp_3651, %sfp
	str	r3, [sp, #24]	@ pretmp_3651, %sfp
	ldr	r3, [sp, #208]	@ pretmp_3652, %sfp
	str	r3, [sp, #20]	@ pretmp_3652, %sfp
.LVL287:
.L173:
	ldr	r3, [sp, #168]	@ pretmp_3637, %sfp
	str	r3, [sp, #8]	@ pretmp_3637, %sfp
	ldr	r3, [sp, #192]	@ pretmp_3645, %sfp
	str	r3, [sp, #16]	@ pretmp_3645, %sfp
	ldr	r3, [sp, #196]	@ pretmp_3647, %sfp
	str	r3, [sp, #12]	@ pretmp_3647, %sfp
	ldr	r3, [sp, #200]	@ pretmp_3649, %sfp
	ldr	r5, [sp, #160]	@ prephitmp_5049, %sfp
	ldr	lr, [sp, #180]	@ prephitmp_5031, %sfp
	str	r3, [sp, #28]	@ pretmp_3649, %sfp
	ldrd	r7, r6, [sp, #152]	@ prephitmp_4023, prephitmp_4020,,
	ldrd	r9, r8, [sp, #172]	@ prephitmp_5042, prephitmp_5037,,
	ldrd	ip, r4, [sp, #208]	@ pretmp_3652, pretmp_3655,,
	b	.L46	@
.LVL288:
.L114:
	str	r3, [sp, #20]	@ prephitmp_4986, %sfp
	ldr	r3, [sp, #220]	@ pretmp_5080, %sfp
	str	r3, [sp]	@ pretmp_5080, %sfp
	ldr	r3, [sp, #140]	@ _164, %sfp
	str	r3, [sp, #4]	@ _164, %sfp
	ldr	r3, [sp, #204]	@ pretmp_3651, %sfp
	str	r3, [sp, #24]	@ pretmp_3651, %sfp
	ldr	r3, [sp, #168]	@ pretmp_3637, %sfp
	str	r3, [sp, #8]	@ pretmp_3637, %sfp
	ldr	r3, [sp, #192]	@ pretmp_3645, %sfp
	str	r3, [sp, #16]	@ pretmp_3645, %sfp
	ldr	r3, [sp, #196]	@ pretmp_3647, %sfp
	str	r3, [sp, #12]	@ pretmp_3647, %sfp
	ldr	r3, [sp, #200]	@ pretmp_3649, %sfp
	ldr	r5, [sp, #160]	@ prephitmp_5049, %sfp
	ldr	lr, [sp, #180]	@ prephitmp_5031, %sfp
	str	r3, [sp, #28]	@ pretmp_3649, %sfp
	ldrd	r7, r6, [sp, #152]	@ prephitmp_4023, prephitmp_4020,,
	ldrd	r9, r8, [sp, #172]	@ prephitmp_5042, prephitmp_5037,,
	ldr	r4, [sp, #212]	@ pretmp_3655, %sfp
	mov	ip, r2	@ pretmp_3652, pretmp_3652
	b	.L46	@
.LVL289:
.L113:
	strd	r3, r2, [sp, #20]	@ prephitmp_4986, prephitmp_4997,,
	ldr	r3, [sp, #220]	@ pretmp_5080, %sfp
	str	r3, [sp]	@ pretmp_5080, %sfp
	ldr	r3, [sp, #140]	@ _164, %sfp
	str	r3, [sp, #4]	@ _164, %sfp
	b	.L173	@
.LVL290:
.L102:
	ldr	r6, [sp]	@ prephitmp_4020, %sfp
	ldr	r7, [sp, #12]	@ prephitmp_4023, %sfp
	b	.L175	@
.LVL291:
.L201:
	ldrb	r3, [sp, #335]	@ zero_extendqisi2	@ _216, rest.number
	ldrb	r2, [sp, #303]	@ zero_extendqisi2	@ pretmp_3657, tmp_Dividend.number
	str	r3, [sp, #96]	@ _216, %sfp
	str	r2, [sp, #216]	@ pretmp_3657, %sfp
	str	r3, [sp, #40]	@ _216, %sfp
	b	.L85	@
.LVL292:
.L200:
	ldrb	r3, [sp, #335]	@ zero_extendqisi2	@ _216, rest.number
	ldrb	r2, [sp, #334]	@ zero_extendqisi2	@ rest.number, rest.number
	ldrb	r1, [sp, #303]	@ zero_extendqisi2	@ pretmp_3657, tmp_Dividend.number
	str	r1, [sp, #216]	@ pretmp_3657, %sfp
	ldrb	r1, [sp, #302]	@ zero_extendqisi2	@ pretmp_3655, tmp_Dividend.number
	str	r3, [sp, #96]	@ _216, %sfp
	str	r2, [sp, #92]	@ rest.number, %sfp
	str	r1, [sp, #212]	@ pretmp_3655, %sfp
	strd	r3, r2, [sp, #40]	@ _216, rest.number,,
	b	.L85	@
.LVL293:
.L199:
	ldrb	r0, [sp, #303]	@ zero_extendqisi2	@ pretmp_3657, tmp_Dividend.number
	ldrb	r3, [sp, #335]	@ zero_extendqisi2	@ _216, rest.number
	ldrb	r2, [sp, #334]	@ zero_extendqisi2	@ rest.number, rest.number
	str	r0, [sp, #216]	@ pretmp_3657, %sfp
	ldrb	r0, [sp, #302]	@ zero_extendqisi2	@ pretmp_3655, tmp_Dividend.number
	ldrb	r1, [sp, #333]	@ zero_extendqisi2	@ rest.number, rest.number
	str	r0, [sp, #212]	@ pretmp_3655, %sfp
	ldrb	r0, [sp, #301]	@ zero_extendqisi2	@ pretmp_3652, tmp_Dividend.number
	str	r3, [sp, #96]	@ _216, %sfp
	str	r2, [sp, #92]	@ rest.number, %sfp
	str	r1, [sp, #88]	@ rest.number, %sfp
	str	r0, [sp, #208]	@ pretmp_3652, %sfp
	strd	r3, r2, [sp, #40]	@ _216, rest.number,,
	str	r1, [sp, #48]	@ rest.number, %sfp
	b	.L85	@
.LVL294:
.L198:
	ldrb	r4, [sp, #303]	@ zero_extendqisi2	@ pretmp_3657, tmp_Dividend.number
	str	r4, [sp, #216]	@ pretmp_3657, %sfp
	ldrb	r4, [sp, #302]	@ zero_extendqisi2	@ pretmp_3655, tmp_Dividend.number
	ldrb	r2, [sp, #335]	@ zero_extendqisi2	@ _216, rest.number
	ldrb	r1, [sp, #334]	@ zero_extendqisi2	@ rest.number, rest.number
	str	r4, [sp, #212]	@ pretmp_3655, %sfp
	ldrb	r4, [sp, #301]	@ zero_extendqisi2	@ pretmp_3652, tmp_Dividend.number
	ldrb	r3, [sp, #332]	@ zero_extendqisi2	@ rest.number, rest.number
	ldrb	r0, [sp, #333]	@ zero_extendqisi2	@ rest.number, rest.number
	str	r4, [sp, #208]	@ pretmp_3652, %sfp
	ldrb	r4, [sp, #300]	@ zero_extendqisi2	@ pretmp_3651, tmp_Dividend.number
	str	r3, [sp, #84]	@ rest.number, %sfp
	str	r2, [sp, #96]	@ _216, %sfp
	str	r1, [sp, #92]	@ rest.number, %sfp
	str	r0, [sp, #88]	@ rest.number, %sfp
	str	r4, [sp, #204]	@ pretmp_3651, %sfp
	str	r3, [sp, #104]	@ rest.number, %sfp
	strd	r2, r1, [sp, #40]	@ _216, rest.number,,
	str	r0, [sp, #48]	@ rest.number, %sfp
	b	.L85	@
.LVL295:
.L197:
	ldrb	r5, [sp, #303]	@ zero_extendqisi2	@ pretmp_3657, tmp_Dividend.number
	str	r5, [sp, #216]	@ pretmp_3657, %sfp
	ldrb	r5, [sp, #302]	@ zero_extendqisi2	@ pretmp_3655, tmp_Dividend.number
	str	r5, [sp, #212]	@ pretmp_3655, %sfp
	ldrb	r5, [sp, #301]	@ zero_extendqisi2	@ pretmp_3652, tmp_Dividend.number
	ldrb	r1, [sp, #335]	@ zero_extendqisi2	@ _216, rest.number
	ldrb	r0, [sp, #334]	@ zero_extendqisi2	@ rest.number, rest.number
	str	r5, [sp, #208]	@ pretmp_3652, %sfp
	ldrb	r5, [sp, #300]	@ zero_extendqisi2	@ pretmp_3651, tmp_Dividend.number
	ldrb	r3, [sp, #332]	@ zero_extendqisi2	@ rest.number, rest.number
	ldrb	r2, [sp, #331]	@ zero_extendqisi2	@ rest.number, rest.number
	ldrb	r4, [sp, #333]	@ zero_extendqisi2	@ rest.number, rest.number
	str	r5, [sp, #204]	@ pretmp_3651, %sfp
	ldrb	r5, [sp, #299]	@ zero_extendqisi2	@ pretmp_3649, tmp_Dividend.number
	str	r3, [sp, #84]	@ rest.number, %sfp
	str	r2, [sp, #108]	@ rest.number, %sfp
	str	r1, [sp, #96]	@ _216, %sfp
	str	r0, [sp, #92]	@ rest.number, %sfp
	str	r4, [sp, #88]	@ rest.number, %sfp
	str	r5, [sp, #200]	@ pretmp_3649, %sfp
	str	r3, [sp, #104]	@ rest.number, %sfp
	str	r2, [sp, #52]	@ rest.number, %sfp
	strd	r1, r0, [sp, #40]	@ _216, rest.number,,
	str	r4, [sp, #48]	@ rest.number, %sfp
	b	.L85	@
.LVL296:
.L196:
	ldrb	r6, [sp, #303]	@ zero_extendqisi2	@ pretmp_3657, tmp_Dividend.number
	str	r6, [sp, #216]	@ pretmp_3657, %sfp
	ldrb	r6, [sp, #302]	@ zero_extendqisi2	@ pretmp_3655, tmp_Dividend.number
	str	r6, [sp, #212]	@ pretmp_3655, %sfp
	ldrb	r6, [sp, #301]	@ zero_extendqisi2	@ pretmp_3652, tmp_Dividend.number
	str	r6, [sp, #208]	@ pretmp_3652, %sfp
	ldrb	r6, [sp, #300]	@ zero_extendqisi2	@ pretmp_3651, tmp_Dividend.number
	ldrb	r2, [sp, #330]	@ zero_extendqisi2	@ rest.number, rest.number
	ldrb	r1, [sp, #331]	@ zero_extendqisi2	@ rest.number, rest.number
	ldrb	r0, [sp, #335]	@ zero_extendqisi2	@ _216, rest.number
	ldrb	r4, [sp, #334]	@ zero_extendqisi2	@ rest.number, rest.number
	str	r6, [sp, #204]	@ pretmp_3651, %sfp
	ldrb	r6, [sp, #299]	@ zero_extendqisi2	@ pretmp_3649, tmp_Dividend.number
	ldrb	r3, [sp, #332]	@ zero_extendqisi2	@ rest.number, rest.number
	ldrb	r5, [sp, #333]	@ zero_extendqisi2	@ rest.number, rest.number
	str	r6, [sp, #200]	@ pretmp_3649, %sfp
	ldrb	r6, [sp, #298]	@ zero_extendqisi2	@ pretmp_3647, tmp_Dividend.number
	str	r3, [sp, #84]	@ rest.number, %sfp
	str	r2, [sp, #112]	@ rest.number, %sfp
	str	r1, [sp, #108]	@ rest.number, %sfp
	str	r0, [sp, #96]	@ _216, %sfp
	str	r4, [sp, #92]	@ rest.number, %sfp
	str	r5, [sp, #88]	@ rest.number, %sfp
	str	r6, [sp, #196]	@ pretmp_3647, %sfp
	str	r3, [sp, #104]	@ rest.number, %sfp
	strd	r1, r2, [sp, #52]	@ rest.number, rest.number,,
	strd	r0, r4, [sp, #40]	@ _216, rest.number,,
	str	r5, [sp, #48]	@ rest.number, %sfp
	b	.L85	@
.LVL297:
.L195:
	ldrb	r7, [sp, #303]	@ zero_extendqisi2	@ pretmp_3657, tmp_Dividend.number
	str	r7, [sp, #216]	@ pretmp_3657, %sfp
	ldrb	r7, [sp, #302]	@ zero_extendqisi2	@ pretmp_3655, tmp_Dividend.number
	str	r7, [sp, #212]	@ pretmp_3655, %sfp
	ldrb	r7, [sp, #301]	@ zero_extendqisi2	@ pretmp_3652, tmp_Dividend.number
	str	r7, [sp, #208]	@ pretmp_3652, %sfp
	ldrb	r7, [sp, #300]	@ zero_extendqisi2	@ pretmp_3651, tmp_Dividend.number
	str	r7, [sp, #204]	@ pretmp_3651, %sfp
	ldrb	r7, [sp, #299]	@ zero_extendqisi2	@ pretmp_3649, tmp_Dividend.number
	ldrb	r1, [sp, #330]	@ zero_extendqisi2	@ rest.number, rest.number
	ldrb	r0, [sp, #331]	@ zero_extendqisi2	@ rest.number, rest.number
	ldrb	r4, [sp, #335]	@ zero_extendqisi2	@ _216, rest.number
	ldrb	r5, [sp, #334]	@ zero_extendqisi2	@ rest.number, rest.number
	str	r7, [sp, #200]	@ pretmp_3649, %sfp
	ldrb	r7, [sp, #298]	@ zero_extendqisi2	@ pretmp_3647, tmp_Dividend.number
	ldrb	r3, [sp, #332]	@ zero_extendqisi2	@ rest.number, rest.number
	ldrb	r2, [sp, #329]	@ zero_extendqisi2	@ rest.number, rest.number
	ldrb	r6, [sp, #333]	@ zero_extendqisi2	@ rest.number, rest.number
	str	r7, [sp, #196]	@ pretmp_3647, %sfp
	ldrb	r7, [sp, #297]	@ zero_extendqisi2	@ pretmp_3645, tmp_Dividend.number
	str	r3, [sp, #84]	@ rest.number, %sfp
	str	r2, [sp, #124]	@ rest.number, %sfp
	str	r1, [sp, #112]	@ rest.number, %sfp
	str	r0, [sp, #108]	@ rest.number, %sfp
	str	r4, [sp, #96]	@ _216, %sfp
	str	r5, [sp, #92]	@ rest.number, %sfp
	str	r6, [sp, #88]	@ rest.number, %sfp
	str	r7, [sp, #192]	@ pretmp_3645, %sfp
	str	r3, [sp, #104]	@ rest.number, %sfp
	str	r2, [sp, #64]	@ rest.number, %sfp
	strd	r0, r1, [sp, #52]	@ rest.number, rest.number,,
	strd	r4, r5, [sp, #40]	@ _216, rest.number,,
	str	r6, [sp, #48]	@ rest.number, %sfp
	b	.L85	@
.LVL298:
.L194:
	ldrb	r3, [sp, #332]	@ zero_extendqisi2	@ rest.number, rest.number
	str	r3, [sp, #84]	@ rest.number, %sfp
	ldrb	r3, [sp, #303]	@ zero_extendqisi2	@ pretmp_3657, tmp_Dividend.number
	str	r3, [sp, #216]	@ pretmp_3657, %sfp
	ldrb	r3, [sp, #302]	@ zero_extendqisi2	@ pretmp_3655, tmp_Dividend.number
	str	r3, [sp, #212]	@ pretmp_3655, %sfp
	ldrb	r3, [sp, #301]	@ zero_extendqisi2	@ pretmp_3652, tmp_Dividend.number
	str	r3, [sp, #208]	@ pretmp_3652, %sfp
	ldrb	r3, [sp, #300]	@ zero_extendqisi2	@ pretmp_3651, tmp_Dividend.number
	str	r3, [sp, #204]	@ pretmp_3651, %sfp
	ldrb	r3, [sp, #299]	@ zero_extendqisi2	@ pretmp_3649, tmp_Dividend.number
	str	r3, [sp, #200]	@ pretmp_3649, %sfp
	ldrb	r3, [sp, #298]	@ zero_extendqisi2	@ pretmp_3647, tmp_Dividend.number
	str	r3, [sp, #196]	@ pretmp_3647, %sfp
	ldrb	r3, [sp, #297]	@ zero_extendqisi2	@ pretmp_3645, tmp_Dividend.number
	ldrb	r2, [sp, #329]	@ zero_extendqisi2	@ rest.number, rest.number
	ldrb	r1, [sp, #328]	@ zero_extendqisi2	@ rest.number, rest.number
	ldrb	r0, [sp, #330]	@ zero_extendqisi2	@ rest.number, rest.number
	ldrb	r4, [sp, #331]	@ zero_extendqisi2	@ rest.number, rest.number
	ldrb	r5, [sp, #335]	@ zero_extendqisi2	@ _216, rest.number
	ldrb	r6, [sp, #334]	@ zero_extendqisi2	@ rest.number, rest.number
	ldrb	r7, [sp, #333]	@ zero_extendqisi2	@ rest.number, rest.number
	str	r3, [sp, #192]	@ pretmp_3645, %sfp
	ldrb	r3, [sp, #296]	@ zero_extendqisi2	@ pretmp_3643, tmp_Dividend.number
	str	r2, [sp, #124]	@ rest.number, %sfp
	str	r1, [sp, #132]	@ rest.number, %sfp
	str	r0, [sp, #112]	@ rest.number, %sfp
	str	r4, [sp, #108]	@ rest.number, %sfp
	str	r5, [sp, #96]	@ _216, %sfp
	str	r6, [sp, #92]	@ rest.number, %sfp
	str	r7, [sp, #88]	@ rest.number, %sfp
	str	r3, [sp, #180]	@ pretmp_3643, %sfp
	ldr	r3, [sp, #84]	@ rest.number, %sfp
	str	r3, [sp, #104]	@ rest.number, %sfp
	strd	r1, r2, [sp, #60]	@ rest.number, rest.number,,
	strd	r4, r0, [sp, #52]	@ rest.number, rest.number,,
	strd	r5, r6, [sp, #40]	@ _216, rest.number,,
	str	r7, [sp, #48]	@ rest.number, %sfp
	b	.L85	@
.LVL299:
.L193:
	ldrb	ip, [sp, #303]	@ zero_extendqisi2	@ pretmp_3657, tmp_Dividend.number
	str	ip, [sp, #216]	@ pretmp_3657, %sfp
	ldrb	ip, [sp, #302]	@ zero_extendqisi2	@ pretmp_3655, tmp_Dividend.number
	str	ip, [sp, #212]	@ pretmp_3655, %sfp
	ldrb	ip, [sp, #301]	@ zero_extendqisi2	@ pretmp_3652, tmp_Dividend.number
	str	ip, [sp, #208]	@ pretmp_3652, %sfp
	ldrb	ip, [sp, #300]	@ zero_extendqisi2	@ pretmp_3651, tmp_Dividend.number
	str	ip, [sp, #204]	@ pretmp_3651, %sfp
	ldrb	ip, [sp, #299]	@ zero_extendqisi2	@ pretmp_3649, tmp_Dividend.number
	ldrb	r3, [sp, #332]	@ zero_extendqisi2	@ rest.number, rest.number
	str	ip, [sp, #200]	@ pretmp_3649, %sfp
	ldrb	ip, [sp, #298]	@ zero_extendqisi2	@ pretmp_3647, tmp_Dividend.number
	ldrb	r2, [sp, #329]	@ zero_extendqisi2	@ rest.number, rest.number
	ldrb	r1, [sp, #328]	@ zero_extendqisi2	@ rest.number, rest.number
	ldrb	r0, [sp, #327]	@ zero_extendqisi2	@ rest.number, rest.number
	ldrb	r4, [sp, #330]	@ zero_extendqisi2	@ rest.number, rest.number
	ldrb	r5, [sp, #331]	@ zero_extendqisi2	@ rest.number, rest.number
	ldrb	r6, [sp, #335]	@ zero_extendqisi2	@ _216, rest.number
	ldrb	r7, [sp, #334]	@ zero_extendqisi2	@ rest.number, rest.number
	str	r3, [sp, #84]	@ rest.number, %sfp
	str	ip, [sp, #196]	@ pretmp_3647, %sfp
	ldrb	r3, [sp, #333]	@ zero_extendqisi2	@ rest.number, rest.number
	ldrb	ip, [sp, #297]	@ zero_extendqisi2	@ pretmp_3645, tmp_Dividend.number
	str	r3, [sp, #88]	@ rest.number, %sfp
	str	r2, [sp, #124]	@ rest.number, %sfp
	str	r1, [sp, #132]	@ rest.number, %sfp
	str	r0, [sp, #128]	@ rest.number, %sfp
	str	r4, [sp, #112]	@ rest.number, %sfp
	str	r5, [sp, #108]	@ rest.number, %sfp
	str	r6, [sp, #96]	@ _216, %sfp
	str	r7, [sp, #92]	@ rest.number, %sfp
	str	ip, [sp, #192]	@ pretmp_3645, %sfp
	ldrb	ip, [sp, #296]	@ zero_extendqisi2	@ pretmp_3643, tmp_Dividend.number
	ldr	r3, [sp, #84]	@ rest.number, %sfp
	str	ip, [sp, #180]	@ pretmp_3643, %sfp
	str	r3, [sp, #104]	@ rest.number, %sfp
	ldrb	ip, [sp, #295]	@ zero_extendqisi2	@ pretmp_3641, tmp_Dividend.number
	ldr	r3, [sp, #88]	@ rest.number, %sfp
	str	ip, [sp, #176]	@ pretmp_3641, %sfp
	strd	r1, r2, [sp, #60]	@ rest.number, rest.number,,
	str	r0, [sp, #68]	@ rest.number, %sfp
	strd	r5, r4, [sp, #52]	@ rest.number, rest.number,,
	strd	r6, r7, [sp, #40]	@ _216, rest.number,,
	str	r3, [sp, #48]	@ rest.number, %sfp
	b	.L85	@
.LVL300:
.L192:
	ldrb	ip, [sp, #333]	@ zero_extendqisi2	@ rest.number, rest.number
	str	ip, [sp, #88]	@ rest.number, %sfp
	ldrb	ip, [sp, #303]	@ zero_extendqisi2	@ pretmp_3657, tmp_Dividend.number
	str	ip, [sp, #216]	@ pretmp_3657, %sfp
	ldrb	ip, [sp, #302]	@ zero_extendqisi2	@ pretmp_3655, tmp_Dividend.number
	str	ip, [sp, #212]	@ pretmp_3655, %sfp
	ldrb	ip, [sp, #301]	@ zero_extendqisi2	@ pretmp_3652, tmp_Dividend.number
	str	ip, [sp, #208]	@ pretmp_3652, %sfp
	ldrb	ip, [sp, #300]	@ zero_extendqisi2	@ pretmp_3651, tmp_Dividend.number
	ldrb	r3, [sp, #332]	@ zero_extendqisi2	@ rest.number, rest.number
	str	ip, [sp, #204]	@ pretmp_3651, %sfp
	ldrb	ip, [sp, #299]	@ zero_extendqisi2	@ pretmp_3649, tmp_Dividend.number
	ldrb	r2, [sp, #329]	@ zero_extendqisi2	@ rest.number, rest.number
	ldrb	r1, [sp, #328]	@ zero_extendqisi2	@ rest.number, rest.number
	ldrb	r0, [sp, #326]	@ zero_extendqisi2	@ rest.number, rest.number
	ldrb	r4, [sp, #327]	@ zero_extendqisi2	@ rest.number, rest.number
	ldrb	r5, [sp, #330]	@ zero_extendqisi2	@ rest.number, rest.number
	ldrb	r6, [sp, #331]	@ zero_extendqisi2	@ rest.number, rest.number
	ldrb	r7, [sp, #335]	@ zero_extendqisi2	@ _216, rest.number
	str	r3, [sp, #84]	@ rest.number, %sfp
	str	ip, [sp, #200]	@ pretmp_3649, %sfp
	ldrb	r3, [sp, #334]	@ zero_extendqisi2	@ rest.number, rest.number
	ldrb	ip, [sp, #298]	@ zero_extendqisi2	@ pretmp_3647, tmp_Dividend.number
	str	r3, [sp, #92]	@ rest.number, %sfp
	str	r2, [sp, #124]	@ rest.number, %sfp
	str	r1, [sp, #132]	@ rest.number, %sfp
	str	r0, [sp, #136]	@ rest.number, %sfp
	str	r4, [sp, #128]	@ rest.number, %sfp
	str	r5, [sp, #112]	@ rest.number, %sfp
	str	r6, [sp, #108]	@ rest.number, %sfp
	str	r7, [sp, #96]	@ _216, %sfp
	str	ip, [sp, #196]	@ pretmp_3647, %sfp
	ldrb	ip, [sp, #297]	@ zero_extendqisi2	@ pretmp_3645, tmp_Dividend.number
	str	ip, [sp, #192]	@ pretmp_3645, %sfp
	ldr	r3, [sp, #84]	@ rest.number, %sfp
	ldrb	ip, [sp, #296]	@ zero_extendqisi2	@ pretmp_3643, tmp_Dividend.number
	str	ip, [sp, #180]	@ pretmp_3643, %sfp
	str	r3, [sp, #104]	@ rest.number, %sfp
	ldrb	ip, [sp, #295]	@ zero_extendqisi2	@ pretmp_3641, tmp_Dividend.number
	ldr	r3, [sp, #92]	@ rest.number, %sfp
	str	ip, [sp, #176]	@ pretmp_3641, %sfp
	str	r3, [sp, #44]	@ rest.number, %sfp
	ldrb	ip, [sp, #294]	@ zero_extendqisi2	@ pretmp_3639, tmp_Dividend.number
	ldr	r3, [sp, #88]	@ rest.number, %sfp
	str	ip, [sp, #172]	@ pretmp_3639, %sfp
	strd	r1, r2, [sp, #60]	@ rest.number, rest.number,,
	str	r0, [sp, #116]	@ rest.number, %sfp
	str	r4, [sp, #68]	@ rest.number, %sfp
	strd	r6, r5, [sp, #52]	@ rest.number, rest.number,,
	str	r7, [sp, #40]	@ _216, %sfp
	str	r3, [sp, #48]	@ rest.number, %sfp
	b	.L85	@
.LVL301:
.L191:
	ldrb	ip, [sp, #334]	@ zero_extendqisi2	@ rest.number, rest.number
	str	ip, [sp, #92]	@ rest.number, %sfp
	ldrb	ip, [sp, #333]	@ zero_extendqisi2	@ rest.number, rest.number
	str	ip, [sp, #88]	@ rest.number, %sfp
	ldrb	ip, [sp, #303]	@ zero_extendqisi2	@ pretmp_3657, tmp_Dividend.number
	str	ip, [sp, #216]	@ pretmp_3657, %sfp
	ldrb	ip, [sp, #302]	@ zero_extendqisi2	@ pretmp_3655, tmp_Dividend.number
	str	ip, [sp, #212]	@ pretmp_3655, %sfp
	ldrb	ip, [sp, #301]	@ zero_extendqisi2	@ pretmp_3652, tmp_Dividend.number
	ldrb	r3, [sp, #332]	@ zero_extendqisi2	@ rest.number, rest.number
	str	ip, [sp, #208]	@ pretmp_3652, %sfp
	ldrb	ip, [sp, #300]	@ zero_extendqisi2	@ pretmp_3651, tmp_Dividend.number
	ldrb	r2, [sp, #325]	@ zero_extendqisi2	@ rest.number, rest.number
	ldrb	r1, [sp, #329]	@ zero_extendqisi2	@ rest.number, rest.number
	ldrb	r0, [sp, #328]	@ zero_extendqisi2	@ rest.number, rest.number
	ldrb	r4, [sp, #326]	@ zero_extendqisi2	@ rest.number, rest.number
	ldrb	r5, [sp, #327]	@ zero_extendqisi2	@ rest.number, rest.number
	ldrb	r6, [sp, #330]	@ zero_extendqisi2	@ rest.number, rest.number
	ldrb	r7, [sp, #331]	@ zero_extendqisi2	@ rest.number, rest.number
	str	r3, [sp, #84]	@ rest.number, %sfp
	str	ip, [sp, #204]	@ pretmp_3651, %sfp
	ldrb	r3, [sp, #335]	@ zero_extendqisi2	@ _216, rest.number
	ldrb	ip, [sp, #299]	@ zero_extendqisi2	@ pretmp_3649, tmp_Dividend.number
	str	r3, [sp, #96]	@ _216, %sfp
	str	r2, [sp, #144]	@ rest.number, %sfp
	str	r1, [sp, #124]	@ rest.number, %sfp
	str	r0, [sp, #132]	@ rest.number, %sfp
	str	r4, [sp, #136]	@ rest.number, %sfp
	str	r5, [sp, #128]	@ rest.number, %sfp
	str	r6, [sp, #112]	@ rest.number, %sfp
	str	r7, [sp, #108]	@ rest.number, %sfp
	str	ip, [sp, #200]	@ pretmp_3649, %sfp
	ldrb	ip, [sp, #298]	@ zero_extendqisi2	@ pretmp_3647, tmp_Dividend.number
	str	ip, [sp, #196]	@ pretmp_3647, %sfp
	ldrb	ip, [sp, #297]	@ zero_extendqisi2	@ pretmp_3645, tmp_Dividend.number
	str	ip, [sp, #192]	@ pretmp_3645, %sfp
	ldrb	ip, [sp, #296]	@ zero_extendqisi2	@ pretmp_3643, tmp_Dividend.number
	str	ip, [sp, #180]	@ pretmp_3643, %sfp
	ldrb	ip, [sp, #295]	@ zero_extendqisi2	@ pretmp_3641, tmp_Dividend.number
	str	ip, [sp, #176]	@ pretmp_3641, %sfp
	ldrb	ip, [sp, #294]	@ zero_extendqisi2	@ pretmp_3639, tmp_Dividend.number
	str	ip, [sp, #172]	@ pretmp_3639, %sfp
	ldr	r3, [sp, #84]	@ rest.number, %sfp
	ldrb	ip, [sp, #293]	@ zero_extendqisi2	@ pretmp_3637, tmp_Dividend.number
	str	ip, [sp, #168]	@ pretmp_3637, %sfp
	str	r3, [sp, #104]	@ rest.number, %sfp
	str	r2, [sp, #120]	@ rest.number, %sfp
	strd	r0, r1, [sp, #60]	@ rest.number, rest.number,,
	str	r4, [sp, #116]	@ rest.number, %sfp
	str	r5, [sp, #68]	@ rest.number, %sfp
	strd	r7, r6, [sp, #52]	@ rest.number, rest.number,,
	b	.L172	@
.LVL302:
.L190:
	ldrb	ip, [sp, #335]	@ zero_extendqisi2	@ _216, rest.number
	str	ip, [sp, #96]	@ _216, %sfp
	ldrb	ip, [sp, #334]	@ zero_extendqisi2	@ rest.number, rest.number
	str	ip, [sp, #92]	@ rest.number, %sfp
	ldrb	ip, [sp, #333]	@ zero_extendqisi2	@ rest.number, rest.number
	str	ip, [sp, #88]	@ rest.number, %sfp
	ldrb	ip, [sp, #303]	@ zero_extendqisi2	@ pretmp_3657, tmp_Dividend.number
	str	ip, [sp, #216]	@ pretmp_3657, %sfp
	ldrb	ip, [sp, #302]	@ zero_extendqisi2	@ pretmp_3655, tmp_Dividend.number
	ldrb	r3, [sp, #332]	@ zero_extendqisi2	@ rest.number, rest.number
	str	ip, [sp, #212]	@ pretmp_3655, %sfp
	ldrb	ip, [sp, #301]	@ zero_extendqisi2	@ pretmp_3652, tmp_Dividend.number
	ldrb	r2, [sp, #325]	@ zero_extendqisi2	@ rest.number, rest.number
	ldrb	r1, [sp, #324]	@ zero_extendqisi2	@ rest.number, rest.number
	ldrb	r0, [sp, #329]	@ zero_extendqisi2	@ rest.number, rest.number
	ldrb	r4, [sp, #328]	@ zero_extendqisi2	@ rest.number, rest.number
	ldrb	r5, [sp, #326]	@ zero_extendqisi2	@ rest.number, rest.number
	ldrb	r6, [sp, #327]	@ zero_extendqisi2	@ rest.number, rest.number
	ldrb	r7, [sp, #330]	@ zero_extendqisi2	@ rest.number, rest.number
	str	r3, [sp, #84]	@ rest.number, %sfp
	str	ip, [sp, #208]	@ pretmp_3652, %sfp
	ldrb	r3, [sp, #331]	@ zero_extendqisi2	@ rest.number, rest.number
	ldrb	ip, [sp, #300]	@ zero_extendqisi2	@ pretmp_3651, tmp_Dividend.number
	str	r3, [sp, #108]	@ rest.number, %sfp
	str	r2, [sp, #144]	@ rest.number, %sfp
	str	r1, [sp, #148]	@ rest.number, %sfp
	str	r0, [sp, #124]	@ rest.number, %sfp
	str	r4, [sp, #132]	@ rest.number, %sfp
	str	r5, [sp, #136]	@ rest.number, %sfp
	str	r6, [sp, #128]	@ rest.number, %sfp
	str	r7, [sp, #112]	@ rest.number, %sfp
	str	ip, [sp, #204]	@ pretmp_3651, %sfp
	ldrb	ip, [sp, #299]	@ zero_extendqisi2	@ pretmp_3649, tmp_Dividend.number
	str	ip, [sp, #200]	@ pretmp_3649, %sfp
	ldrb	ip, [sp, #298]	@ zero_extendqisi2	@ pretmp_3647, tmp_Dividend.number
	str	ip, [sp, #196]	@ pretmp_3647, %sfp
	ldrb	ip, [sp, #297]	@ zero_extendqisi2	@ pretmp_3645, tmp_Dividend.number
	str	ip, [sp, #192]	@ pretmp_3645, %sfp
	ldrb	ip, [sp, #296]	@ zero_extendqisi2	@ pretmp_3643, tmp_Dividend.number
	str	ip, [sp, #180]	@ pretmp_3643, %sfp
	ldrb	ip, [sp, #295]	@ zero_extendqisi2	@ pretmp_3641, tmp_Dividend.number
	str	ip, [sp, #176]	@ pretmp_3641, %sfp
	ldrb	ip, [sp, #294]	@ zero_extendqisi2	@ pretmp_3639, tmp_Dividend.number
	str	ip, [sp, #172]	@ pretmp_3639, %sfp
	ldrb	ip, [sp, #293]	@ zero_extendqisi2	@ pretmp_3637, tmp_Dividend.number
	str	ip, [sp, #168]	@ pretmp_3637, %sfp
	ldr	r3, [sp, #84]	@ rest.number, %sfp
	ldrb	ip, [sp, #292]	@ zero_extendqisi2	@ pretmp_3635, tmp_Dividend.number
	str	ip, [sp, #160]	@ pretmp_3635, %sfp
	str	r3, [sp, #104]	@ rest.number, %sfp
	str	r2, [sp, #120]	@ rest.number, %sfp
	str	r1, [sp, #76]	@ rest.number, %sfp
	strd	r4, r0, [sp, #60]	@ rest.number, rest.number,,
	str	r5, [sp, #116]	@ rest.number, %sfp
	str	r6, [sp, #68]	@ rest.number, %sfp
	str	r7, [sp, #56]	@ rest.number, %sfp
	b	.L171	@
.LVL303:
.L189:
	ldrb	ip, [sp, #331]	@ zero_extendqisi2	@ rest.number, rest.number
	str	ip, [sp, #108]	@ rest.number, %sfp
	ldrb	ip, [sp, #335]	@ zero_extendqisi2	@ _216, rest.number
	str	ip, [sp, #96]	@ _216, %sfp
	ldrb	ip, [sp, #334]	@ zero_extendqisi2	@ rest.number, rest.number
	str	ip, [sp, #92]	@ rest.number, %sfp
	ldrb	ip, [sp, #333]	@ zero_extendqisi2	@ rest.number, rest.number
	str	ip, [sp, #88]	@ rest.number, %sfp
	ldrb	ip, [sp, #303]	@ zero_extendqisi2	@ pretmp_3657, tmp_Dividend.number
	ldrb	r3, [sp, #332]	@ zero_extendqisi2	@ rest.number, rest.number
	str	ip, [sp, #216]	@ pretmp_3657, %sfp
	ldrb	ip, [sp, #302]	@ zero_extendqisi2	@ pretmp_3655, tmp_Dividend.number
	ldrb	r2, [sp, #325]	@ zero_extendqisi2	@ rest.number, rest.number
	ldrb	r1, [sp, #324]	@ zero_extendqisi2	@ rest.number, rest.number
	ldrb	r0, [sp, #323]	@ zero_extendqisi2	@ rest.number, rest.number
	ldrb	r4, [sp, #329]	@ zero_extendqisi2	@ rest.number, rest.number
	ldrb	r5, [sp, #328]	@ zero_extendqisi2	@ rest.number, rest.number
	ldrb	r6, [sp, #326]	@ zero_extendqisi2	@ rest.number, rest.number
	ldrb	r7, [sp, #327]	@ zero_extendqisi2	@ rest.number, rest.number
	str	r3, [sp, #84]	@ rest.number, %sfp
	str	ip, [sp, #212]	@ pretmp_3655, %sfp
	ldrb	r3, [sp, #330]	@ zero_extendqisi2	@ rest.number, rest.number
	ldrb	ip, [sp, #301]	@ zero_extendqisi2	@ pretmp_3652, tmp_Dividend.number
	str	r3, [sp, #112]	@ rest.number, %sfp
	str	r2, [sp, #144]	@ rest.number, %sfp
	str	r1, [sp, #148]	@ rest.number, %sfp
	str	r0, [sp, #164]	@ rest.number, %sfp
	str	r4, [sp, #124]	@ rest.number, %sfp
	str	r5, [sp, #132]	@ rest.number, %sfp
	str	r6, [sp, #136]	@ rest.number, %sfp
	str	r7, [sp, #128]	@ rest.number, %sfp
	str	ip, [sp, #208]	@ pretmp_3652, %sfp
	ldrb	ip, [sp, #300]	@ zero_extendqisi2	@ pretmp_3651, tmp_Dividend.number
	str	ip, [sp, #204]	@ pretmp_3651, %sfp
	ldrb	ip, [sp, #299]	@ zero_extendqisi2	@ pretmp_3649, tmp_Dividend.number
	str	ip, [sp, #200]	@ pretmp_3649, %sfp
	ldrb	ip, [sp, #298]	@ zero_extendqisi2	@ pretmp_3647, tmp_Dividend.number
	str	ip, [sp, #196]	@ pretmp_3647, %sfp
	ldrb	ip, [sp, #297]	@ zero_extendqisi2	@ pretmp_3645, tmp_Dividend.number
	str	ip, [sp, #192]	@ pretmp_3645, %sfp
	ldrb	ip, [sp, #296]	@ zero_extendqisi2	@ pretmp_3643, tmp_Dividend.number
	str	ip, [sp, #180]	@ pretmp_3643, %sfp
	ldrb	ip, [sp, #295]	@ zero_extendqisi2	@ pretmp_3641, tmp_Dividend.number
	str	ip, [sp, #176]	@ pretmp_3641, %sfp
	ldrb	ip, [sp, #294]	@ zero_extendqisi2	@ pretmp_3639, tmp_Dividend.number
	str	ip, [sp, #172]	@ pretmp_3639, %sfp
	ldrb	ip, [sp, #293]	@ zero_extendqisi2	@ pretmp_3637, tmp_Dividend.number
	ldr	r3, [sp, #84]	@ rest.number, %sfp
	str	ip, [sp, #168]	@ pretmp_3637, %sfp
	ldrb	ip, [sp, #292]	@ zero_extendqisi2	@ pretmp_3635, tmp_Dividend.number
	str	ip, [sp, #160]	@ pretmp_3635, %sfp
	str	r3, [sp, #104]	@ rest.number, %sfp
	ldrb	ip, [sp, #291]	@ zero_extendqisi2	@ pretmp_3633, tmp_Dividend.number
	ldr	r3, [sp, #112]	@ rest.number, %sfp
	str	ip, [sp, #156]	@ pretmp_3633, %sfp
	str	r2, [sp, #120]	@ rest.number, %sfp
	strd	r1, r0, [sp, #76]	@ rest.number, rest.number,,
	strd	r5, r4, [sp, #60]	@ rest.number, rest.number,,
	str	r6, [sp, #116]	@ rest.number, %sfp
	str	r7, [sp, #68]	@ rest.number, %sfp
	str	r3, [sp, #56]	@ rest.number, %sfp
	b	.L171	@
.LBE255:
.LBE257:
.LBE312:
	.cfi_endproc
.LFE4:
	.size	INT_DIV, .-INT_DIV
	.align	1
	.p2align 2,,3
	.global	INT_ADD
	.syntax unified
	.thumb
	.thumb_func
	.fpu softvfp
	.type	INT_ADD, %function
INT_ADD:
.LFB6:
	.loc 1 185 0
	.cfi_startproc
	@ args = 0, pretend = 0, frame = 0
	@ frame_needed = 0, uses_anonymous_args = 0
	@ link register save eliminated.
.LVL304:
	push	{r4, r5}	@
	.cfi_def_cfa_offset 8
	.cfi_offset 4, -8
	.cfi_offset 5, -4
.LBB313:
@ E:\NeuOrga\Programmieren\c_cpp\github_os\input\src\os_base\os_common.c:191:       uint16 tmp_sum = (uint16)ErsterSummand->number[pos] +(uint16)ZweiterSummand->number[pos] + carry;
	.loc 1 191 0
	ldrb	r3, [r1, #15]	@ zero_extendqisi2	@ _30, ErsterSummand_14(D)->number
	ldrb	r4, [r2, #15]	@ zero_extendqisi2	@ _28, ZweiterSummand_15(D)->number
.LVL305:
@ E:\NeuOrga\Programmieren\c_cpp\github_os\input\src\os_base\os_common.c:192:       Summe->number[pos] = tmp_sum & 0xFFu;
	.loc 1 192 0
	add	r4, r4, r3	@ tmp239, _30
.LVL306:
	strb	r4, [r0, #15]	@ tmp239, Summe_17(D)->number
.LVL307:
@ E:\NeuOrga\Programmieren\c_cpp\github_os\input\src\os_base\os_common.c:191:       uint16 tmp_sum = (uint16)ErsterSummand->number[pos] +(uint16)ZweiterSummand->number[pos] + carry;
	.loc 1 191 0
	ldrb	r5, [r2, #14]	@ zero_extendqisi2	@ ZweiterSummand_15(D)->number, ZweiterSummand_15(D)->number
	ldrb	r3, [r1, #14]	@ zero_extendqisi2	@ ErsterSummand_14(D)->number, ErsterSummand_14(D)->number
@ E:\NeuOrga\Programmieren\c_cpp\github_os\input\src\os_base\os_common.c:193:       carry = tmp_sum & 0xFF00u;
	.loc 1 193 0
	bic	r4, r4, #255	@ tmp250, tmp239,
@ E:\NeuOrga\Programmieren\c_cpp\github_os\input\src\os_base\os_common.c:191:       uint16 tmp_sum = (uint16)ErsterSummand->number[pos] +(uint16)ZweiterSummand->number[pos] + carry;
	.loc 1 191 0
	add	r3, r3, r5	@ tmp245, ZweiterSummand_15(D)->number
	add	r3, r3, r4	@ tmp_sum, tmp250
.LVL308:
@ E:\NeuOrga\Programmieren\c_cpp\github_os\input\src\os_base\os_common.c:192:       Summe->number[pos] = tmp_sum & 0xFFu;
	.loc 1 192 0
	strb	r3, [r0, #14]	@ tmp_sum, Summe_17(D)->number
@ E:\NeuOrga\Programmieren\c_cpp\github_os\input\src\os_base\os_common.c:191:       uint16 tmp_sum = (uint16)ErsterSummand->number[pos] +(uint16)ZweiterSummand->number[pos] + carry;
	.loc 1 191 0
	ldrb	r5, [r2, #13]	@ zero_extendqisi2	@ ZweiterSummand_15(D)->number, ZweiterSummand_15(D)->number
	ldrb	r4, [r1, #13]	@ zero_extendqisi2	@ ErsterSummand_14(D)->number, ErsterSummand_14(D)->number
@ E:\NeuOrga\Programmieren\c_cpp\github_os\input\src\os_base\os_common.c:193:       carry = tmp_sum & 0xFF00u;
	.loc 1 193 0
	and	r3, r3, #768	@ carry, tmp_sum,
.LVL309:
@ E:\NeuOrga\Programmieren\c_cpp\github_os\input\src\os_base\os_common.c:191:       uint16 tmp_sum = (uint16)ErsterSummand->number[pos] +(uint16)ZweiterSummand->number[pos] + carry;
	.loc 1 191 0
	add	r4, r4, r5	@ tmp260, ZweiterSummand_15(D)->number
	add	r3, r3, r4	@ tmp_sum, tmp260
.LVL310:
@ E:\NeuOrga\Programmieren\c_cpp\github_os\input\src\os_base\os_common.c:192:       Summe->number[pos] = tmp_sum & 0xFFu;
	.loc 1 192 0
	strb	r3, [r0, #13]	@ tmp_sum, Summe_17(D)->number
@ E:\NeuOrga\Programmieren\c_cpp\github_os\input\src\os_base\os_common.c:191:       uint16 tmp_sum = (uint16)ErsterSummand->number[pos] +(uint16)ZweiterSummand->number[pos] + carry;
	.loc 1 191 0
	ldrb	r5, [r2, #12]	@ zero_extendqisi2	@ ZweiterSummand_15(D)->number, ZweiterSummand_15(D)->number
	ldrb	r4, [r1, #12]	@ zero_extendqisi2	@ ErsterSummand_14(D)->number, ErsterSummand_14(D)->number
@ E:\NeuOrga\Programmieren\c_cpp\github_os\input\src\os_base\os_common.c:193:       carry = tmp_sum & 0xFF00u;
	.loc 1 193 0
	and	r3, r3, #1792	@ carry, tmp_sum,
.LVL311:
@ E:\NeuOrga\Programmieren\c_cpp\github_os\input\src\os_base\os_common.c:191:       uint16 tmp_sum = (uint16)ErsterSummand->number[pos] +(uint16)ZweiterSummand->number[pos] + carry;
	.loc 1 191 0
	add	r4, r4, r5	@ tmp269, ZweiterSummand_15(D)->number
	add	r3, r3, r4	@ tmp_sum, tmp269
.LVL312:
@ E:\NeuOrga\Programmieren\c_cpp\github_os\input\src\os_base\os_common.c:192:       Summe->number[pos] = tmp_sum & 0xFFu;
	.loc 1 192 0
	strb	r3, [r0, #12]	@ tmp_sum, Summe_17(D)->number
@ E:\NeuOrga\Programmieren\c_cpp\github_os\input\src\os_base\os_common.c:191:       uint16 tmp_sum = (uint16)ErsterSummand->number[pos] +(uint16)ZweiterSummand->number[pos] + carry;
	.loc 1 191 0
	ldrb	r5, [r2, #11]	@ zero_extendqisi2	@ ZweiterSummand_15(D)->number, ZweiterSummand_15(D)->number
	ldrb	r4, [r1, #11]	@ zero_extendqisi2	@ ErsterSummand_14(D)->number, ErsterSummand_14(D)->number
@ E:\NeuOrga\Programmieren\c_cpp\github_os\input\src\os_base\os_common.c:193:       carry = tmp_sum & 0xFF00u;
	.loc 1 193 0
	and	r3, r3, #3840	@ carry, tmp_sum,
.LVL313:
@ E:\NeuOrga\Programmieren\c_cpp\github_os\input\src\os_base\os_common.c:191:       uint16 tmp_sum = (uint16)ErsterSummand->number[pos] +(uint16)ZweiterSummand->number[pos] + carry;
	.loc 1 191 0
	add	r4, r4, r5	@ tmp278, ZweiterSummand_15(D)->number
	add	r3, r3, r4	@ tmp_sum, tmp278
.LVL314:
@ E:\NeuOrga\Programmieren\c_cpp\github_os\input\src\os_base\os_common.c:192:       Summe->number[pos] = tmp_sum & 0xFFu;
	.loc 1 192 0
	strb	r3, [r0, #11]	@ tmp_sum, Summe_17(D)->number
.LVL315:
@ E:\NeuOrga\Programmieren\c_cpp\github_os\input\src\os_base\os_common.c:191:       uint16 tmp_sum = (uint16)ErsterSummand->number[pos] +(uint16)ZweiterSummand->number[pos] + carry;
	.loc 1 191 0
	ldrb	r4, [r1, #10]	@ zero_extendqisi2	@ ErsterSummand_14(D)->number, ErsterSummand_14(D)->number
	ldrb	r5, [r2, #10]	@ zero_extendqisi2	@ ZweiterSummand_15(D)->number, ZweiterSummand_15(D)->number
@ E:\NeuOrga\Programmieren\c_cpp\github_os\input\src\os_base\os_common.c:193:       carry = tmp_sum & 0xFF00u;
	.loc 1 193 0
	bic	r3, r3, #255	@ tmp282, tmp_sum,
.LVL316:
	add	r3, r3, r4	@ _258, ErsterSummand_14(D)->number
@ E:\NeuOrga\Programmieren\c_cpp\github_os\input\src\os_base\os_common.c:191:       uint16 tmp_sum = (uint16)ErsterSummand->number[pos] +(uint16)ZweiterSummand->number[pos] + carry;
	.loc 1 191 0
	add	r3, r3, r5	@ tmp_sum, ZweiterSummand_15(D)->number
.LVL317:
@ E:\NeuOrga\Programmieren\c_cpp\github_os\input\src\os_base\os_common.c:192:       Summe->number[pos] = tmp_sum & 0xFFu;
	.loc 1 192 0
	strb	r3, [r0, #10]	@ tmp_sum, Summe_17(D)->number
.LVL318:
@ E:\NeuOrga\Programmieren\c_cpp\github_os\input\src\os_base\os_common.c:191:       uint16 tmp_sum = (uint16)ErsterSummand->number[pos] +(uint16)ZweiterSummand->number[pos] + carry;
	.loc 1 191 0
	ldrb	r4, [r1, #9]	@ zero_extendqisi2	@ ErsterSummand_14(D)->number, ErsterSummand_14(D)->number
	ldrb	r5, [r2, #9]	@ zero_extendqisi2	@ ZweiterSummand_15(D)->number, ZweiterSummand_15(D)->number
@ E:\NeuOrga\Programmieren\c_cpp\github_os\input\src\os_base\os_common.c:193:       carry = tmp_sum & 0xFF00u;
	.loc 1 193 0
	bic	r3, r3, #255	@ tmp291, tmp_sum,
.LVL319:
	add	r4, r4, r3	@ _259, tmp291
@ E:\NeuOrga\Programmieren\c_cpp\github_os\input\src\os_base\os_common.c:191:       uint16 tmp_sum = (uint16)ErsterSummand->number[pos] +(uint16)ZweiterSummand->number[pos] + carry;
	.loc 1 191 0
	add	r4, r4, r5	@ tmp298, ZweiterSummand_15(D)->number
	uxth	r4, r4	@ tmp_sum, tmp298
.LVL320:
@ E:\NeuOrga\Programmieren\c_cpp\github_os\input\src\os_base\os_common.c:192:       Summe->number[pos] = tmp_sum & 0xFFu;
	.loc 1 192 0
	strb	r4, [r0, #9]	@ tmp_sum, Summe_17(D)->number
.LVL321:
@ E:\NeuOrga\Programmieren\c_cpp\github_os\input\src\os_base\os_common.c:191:       uint16 tmp_sum = (uint16)ErsterSummand->number[pos] +(uint16)ZweiterSummand->number[pos] + carry;
	.loc 1 191 0
	ldrb	r3, [r1, #8]	@ zero_extendqisi2	@ ErsterSummand_14(D)->number, ErsterSummand_14(D)->number
	ldrb	r5, [r2, #8]	@ zero_extendqisi2	@ ZweiterSummand_15(D)->number, ZweiterSummand_15(D)->number
@ E:\NeuOrga\Programmieren\c_cpp\github_os\input\src\os_base\os_common.c:193:       carry = tmp_sum & 0xFF00u;
	.loc 1 193 0
	bic	r4, r4, #255	@ tmp300, tmp_sum,
.LVL322:
	add	r3, r3, r4	@ tmp304, tmp300
@ E:\NeuOrga\Programmieren\c_cpp\github_os\input\src\os_base\os_common.c:191:       uint16 tmp_sum = (uint16)ErsterSummand->number[pos] +(uint16)ZweiterSummand->number[pos] + carry;
	.loc 1 191 0
	uxtah	r3, r5, r3	@ tmp307, ZweiterSummand_15(D)->number, tmp304
	uxth	r3, r3	@ tmp_sum, tmp307
.LVL323:
@ E:\NeuOrga\Programmieren\c_cpp\github_os\input\src\os_base\os_common.c:192:       Summe->number[pos] = tmp_sum & 0xFFu;
	.loc 1 192 0
	strb	r3, [r0, #8]	@ tmp_sum, Summe_17(D)->number
.LVL324:
@ E:\NeuOrga\Programmieren\c_cpp\github_os\input\src\os_base\os_common.c:191:       uint16 tmp_sum = (uint16)ErsterSummand->number[pos] +(uint16)ZweiterSummand->number[pos] + carry;
	.loc 1 191 0
	ldrb	r4, [r1, #7]	@ zero_extendqisi2	@ ErsterSummand_14(D)->number, ErsterSummand_14(D)->number
	ldrb	r5, [r2, #7]	@ zero_extendqisi2	@ ZweiterSummand_15(D)->number, ZweiterSummand_15(D)->number
@ E:\NeuOrga\Programmieren\c_cpp\github_os\input\src\os_base\os_common.c:193:       carry = tmp_sum & 0xFF00u;
	.loc 1 193 0
	bic	r3, r3, #255	@ tmp309, tmp_sum,
.LVL325:
	add	r4, r4, r3	@ tmp313, tmp309
@ E:\NeuOrga\Programmieren\c_cpp\github_os\input\src\os_base\os_common.c:191:       uint16 tmp_sum = (uint16)ErsterSummand->number[pos] +(uint16)ZweiterSummand->number[pos] + carry;
	.loc 1 191 0
	uxtah	r4, r5, r4	@ tmp316, ZweiterSummand_15(D)->number, tmp313
	uxth	r4, r4	@ tmp_sum, tmp316
.LVL326:
@ E:\NeuOrga\Programmieren\c_cpp\github_os\input\src\os_base\os_common.c:192:       Summe->number[pos] = tmp_sum & 0xFFu;
	.loc 1 192 0
	strb	r4, [r0, #7]	@ tmp_sum, Summe_17(D)->number
.LVL327:
@ E:\NeuOrga\Programmieren\c_cpp\github_os\input\src\os_base\os_common.c:191:       uint16 tmp_sum = (uint16)ErsterSummand->number[pos] +(uint16)ZweiterSummand->number[pos] + carry;
	.loc 1 191 0
	ldrb	r3, [r1, #6]	@ zero_extendqisi2	@ ErsterSummand_14(D)->number, ErsterSummand_14(D)->number
	ldrb	r5, [r2, #6]	@ zero_extendqisi2	@ ZweiterSummand_15(D)->number, ZweiterSummand_15(D)->number
@ E:\NeuOrga\Programmieren\c_cpp\github_os\input\src\os_base\os_common.c:193:       carry = tmp_sum & 0xFF00u;
	.loc 1 193 0
	bic	r4, r4, #255	@ tmp318, tmp_sum,
.LVL328:
	add	r3, r3, r4	@ tmp322, tmp318
@ E:\NeuOrga\Programmieren\c_cpp\github_os\input\src\os_base\os_common.c:191:       uint16 tmp_sum = (uint16)ErsterSummand->number[pos] +(uint16)ZweiterSummand->number[pos] + carry;
	.loc 1 191 0
	uxtah	r3, r5, r3	@ tmp325, ZweiterSummand_15(D)->number, tmp322
	uxth	r3, r3	@ tmp_sum, tmp325
.LVL329:
@ E:\NeuOrga\Programmieren\c_cpp\github_os\input\src\os_base\os_common.c:192:       Summe->number[pos] = tmp_sum & 0xFFu;
	.loc 1 192 0
	strb	r3, [r0, #6]	@ tmp_sum, Summe_17(D)->number
.LVL330:
@ E:\NeuOrga\Programmieren\c_cpp\github_os\input\src\os_base\os_common.c:191:       uint16 tmp_sum = (uint16)ErsterSummand->number[pos] +(uint16)ZweiterSummand->number[pos] + carry;
	.loc 1 191 0
	ldrb	r4, [r1, #5]	@ zero_extendqisi2	@ ErsterSummand_14(D)->number, ErsterSummand_14(D)->number
	ldrb	r5, [r2, #5]	@ zero_extendqisi2	@ ZweiterSummand_15(D)->number, ZweiterSummand_15(D)->number
@ E:\NeuOrga\Programmieren\c_cpp\github_os\input\src\os_base\os_common.c:193:       carry = tmp_sum & 0xFF00u;
	.loc 1 193 0
	bic	r3, r3, #255	@ tmp327, tmp_sum,
.LVL331:
	add	r4, r4, r3	@ tmp331, tmp327
@ E:\NeuOrga\Programmieren\c_cpp\github_os\input\src\os_base\os_common.c:191:       uint16 tmp_sum = (uint16)ErsterSummand->number[pos] +(uint16)ZweiterSummand->number[pos] + carry;
	.loc 1 191 0
	uxtah	r4, r5, r4	@ tmp334, ZweiterSummand_15(D)->number, tmp331
	uxth	r4, r4	@ tmp_sum, tmp334
.LVL332:
@ E:\NeuOrga\Programmieren\c_cpp\github_os\input\src\os_base\os_common.c:192:       Summe->number[pos] = tmp_sum & 0xFFu;
	.loc 1 192 0
	strb	r4, [r0, #5]	@ tmp_sum, Summe_17(D)->number
.LVL333:
@ E:\NeuOrga\Programmieren\c_cpp\github_os\input\src\os_base\os_common.c:191:       uint16 tmp_sum = (uint16)ErsterSummand->number[pos] +(uint16)ZweiterSummand->number[pos] + carry;
	.loc 1 191 0
	ldrb	r3, [r1, #4]	@ zero_extendqisi2	@ ErsterSummand_14(D)->number, ErsterSummand_14(D)->number
	ldrb	r5, [r2, #4]	@ zero_extendqisi2	@ ZweiterSummand_15(D)->number, ZweiterSummand_15(D)->number
@ E:\NeuOrga\Programmieren\c_cpp\github_os\input\src\os_base\os_common.c:193:       carry = tmp_sum & 0xFF00u;
	.loc 1 193 0
	bic	r4, r4, #255	@ tmp336, tmp_sum,
.LVL334:
	add	r3, r3, r4	@ tmp340, tmp336
@ E:\NeuOrga\Programmieren\c_cpp\github_os\input\src\os_base\os_common.c:191:       uint16 tmp_sum = (uint16)ErsterSummand->number[pos] +(uint16)ZweiterSummand->number[pos] + carry;
	.loc 1 191 0
	uxtah	r3, r5, r3	@ tmp343, ZweiterSummand_15(D)->number, tmp340
	uxth	r3, r3	@ tmp_sum, tmp343
.LVL335:
@ E:\NeuOrga\Programmieren\c_cpp\github_os\input\src\os_base\os_common.c:192:       Summe->number[pos] = tmp_sum & 0xFFu;
	.loc 1 192 0
	strb	r3, [r0, #4]	@ tmp_sum, Summe_17(D)->number
.LVL336:
@ E:\NeuOrga\Programmieren\c_cpp\github_os\input\src\os_base\os_common.c:191:       uint16 tmp_sum = (uint16)ErsterSummand->number[pos] +(uint16)ZweiterSummand->number[pos] + carry;
	.loc 1 191 0
	ldrb	r4, [r1, #3]	@ zero_extendqisi2	@ ErsterSummand_14(D)->number, ErsterSummand_14(D)->number
	ldrb	r5, [r2, #3]	@ zero_extendqisi2	@ ZweiterSummand_15(D)->number, ZweiterSummand_15(D)->number
@ E:\NeuOrga\Programmieren\c_cpp\github_os\input\src\os_base\os_common.c:193:       carry = tmp_sum & 0xFF00u;
	.loc 1 193 0
	bic	r3, r3, #255	@ tmp345, tmp_sum,
.LVL337:
	add	r4, r4, r3	@ tmp349, tmp345
@ E:\NeuOrga\Programmieren\c_cpp\github_os\input\src\os_base\os_common.c:191:       uint16 tmp_sum = (uint16)ErsterSummand->number[pos] +(uint16)ZweiterSummand->number[pos] + carry;
	.loc 1 191 0
	uxtah	r4, r5, r4	@ tmp352, ZweiterSummand_15(D)->number, tmp349
	uxth	r4, r4	@ tmp_sum, tmp352
.LVL338:
@ E:\NeuOrga\Programmieren\c_cpp\github_os\input\src\os_base\os_common.c:192:       Summe->number[pos] = tmp_sum & 0xFFu;
	.loc 1 192 0
	strb	r4, [r0, #3]	@ tmp_sum, Summe_17(D)->number
.LVL339:
@ E:\NeuOrga\Programmieren\c_cpp\github_os\input\src\os_base\os_common.c:191:       uint16 tmp_sum = (uint16)ErsterSummand->number[pos] +(uint16)ZweiterSummand->number[pos] + carry;
	.loc 1 191 0
	ldrb	r3, [r1, #2]	@ zero_extendqisi2	@ ErsterSummand_14(D)->number, ErsterSummand_14(D)->number
	ldrb	r5, [r2, #2]	@ zero_extendqisi2	@ ZweiterSummand_15(D)->number, ZweiterSummand_15(D)->number
@ E:\NeuOrga\Programmieren\c_cpp\github_os\input\src\os_base\os_common.c:193:       carry = tmp_sum & 0xFF00u;
	.loc 1 193 0
	bic	r4, r4, #255	@ tmp354, tmp_sum,
.LVL340:
	add	r3, r3, r4	@ tmp358, tmp354
@ E:\NeuOrga\Programmieren\c_cpp\github_os\input\src\os_base\os_common.c:191:       uint16 tmp_sum = (uint16)ErsterSummand->number[pos] +(uint16)ZweiterSummand->number[pos] + carry;
	.loc 1 191 0
	uxtah	r3, r5, r3	@ tmp361, ZweiterSummand_15(D)->number, tmp358
	uxth	r3, r3	@ tmp_sum, tmp361
.LVL341:
@ E:\NeuOrga\Programmieren\c_cpp\github_os\input\src\os_base\os_common.c:192:       Summe->number[pos] = tmp_sum & 0xFFu;
	.loc 1 192 0
	strb	r3, [r0, #2]	@ tmp_sum, Summe_17(D)->number
.LVL342:
@ E:\NeuOrga\Programmieren\c_cpp\github_os\input\src\os_base\os_common.c:191:       uint16 tmp_sum = (uint16)ErsterSummand->number[pos] +(uint16)ZweiterSummand->number[pos] + carry;
	.loc 1 191 0
	ldrb	r4, [r1, #1]	@ zero_extendqisi2	@ ErsterSummand_14(D)->number, ErsterSummand_14(D)->number
	ldrb	r5, [r2, #1]	@ zero_extendqisi2	@ ZweiterSummand_15(D)->number, ZweiterSummand_15(D)->number
@ E:\NeuOrga\Programmieren\c_cpp\github_os\input\src\os_base\os_common.c:193:       carry = tmp_sum & 0xFF00u;
	.loc 1 193 0
	bic	r3, r3, #255	@ tmp363, tmp_sum,
.LVL343:
	add	r3, r3, r4	@ tmp367, ErsterSummand_14(D)->number
@ E:\NeuOrga\Programmieren\c_cpp\github_os\input\src\os_base\os_common.c:191:       uint16 tmp_sum = (uint16)ErsterSummand->number[pos] +(uint16)ZweiterSummand->number[pos] + carry;
	.loc 1 191 0
	uxtah	r3, r5, r3	@ tmp370, ZweiterSummand_15(D)->number, tmp367
	uxth	r3, r3	@ tmp_sum, tmp370
.LVL344:
@ E:\NeuOrga\Programmieren\c_cpp\github_os\input\src\os_base\os_common.c:192:       Summe->number[pos] = tmp_sum & 0xFFu;
	.loc 1 192 0
	strb	r3, [r0, #1]	@ tmp_sum, Summe_17(D)->number
.LVL345:
@ E:\NeuOrga\Programmieren\c_cpp\github_os\input\src\os_base\os_common.c:191:       uint16 tmp_sum = (uint16)ErsterSummand->number[pos] +(uint16)ZweiterSummand->number[pos] + carry;
	.loc 1 191 0
	ldrb	r3, [r1]	@ zero_extendqisi2	@ ErsterSummand_14(D)->number, ErsterSummand_14(D)->number
.LVL346:
	ldrb	r2, [r2]	@ zero_extendqisi2	@ ZweiterSummand_15(D)->number, ZweiterSummand_15(D)->number
.LVL347:
	add	r3, r3, r2	@ tmp379, ZweiterSummand_15(D)->number
@ E:\NeuOrga\Programmieren\c_cpp\github_os\input\src\os_base\os_common.c:192:       Summe->number[pos] = tmp_sum & 0xFFu;
	.loc 1 192 0
	strb	r3, [r0]	@ tmp379, Summe_17(D)->number
.LVL348:
.LBE313:
@ E:\NeuOrga\Programmieren\c_cpp\github_os\input\src\os_base\os_common.c:195: }
	.loc 1 195 0
	pop	{r4, r5}	@
	.cfi_restore 5
	.cfi_restore 4
	.cfi_def_cfa_offset 0
	bx	lr	@
	.cfi_endproc
.LFE6:
	.size	INT_ADD, .-INT_ADD
	.align	1
	.p2align 2,,3
	.global	INT_SUB
	.syntax unified
	.thumb
	.thumb_func
	.fpu softvfp
	.type	INT_SUB, %function
INT_SUB:
.LFB7:
	.loc 1 197 0
	.cfi_startproc
	@ args = 0, pretend = 0, frame = 0
	@ frame_needed = 0, uses_anonymous_args = 0
	@ link register save eliminated.
.LVL349:
	push	{r4, r5, r6}	@
	.cfi_def_cfa_offset 12
	.cfi_offset 4, -12
	.cfi_offset 5, -8
	.cfi_offset 6, -4
.LBB314:
@ E:\NeuOrga\Programmieren\c_cpp\github_os\input\src\os_base\os_common.c:204:       if(Minuend->number[pos]  >= (Subtrahend->number[pos] + carry))
	.loc 1 204 0
	ldrb	r4, [r1, #15]	@ zero_extendqisi2	@ _30, Minuend_17(D)->number
	ldrb	r5, [r2, #15]	@ zero_extendqisi2	@ _1, Subtrahend_18(D)->number
	uxth	r3, r4	@ _2, _30
	uxth	r6, r5	@ _3, _1
	cmp	r5, r4	@ _1, _30
@ E:\NeuOrga\Programmieren\c_cpp\github_os\input\src\os_base\os_common.c:206:          tmp_diff = (uint16)Minuend->number[pos] - (uint16)Subtrahend->number[pos] - carry;
	.loc 1 206 0
	sub	r3, r3, r6	@ tmp234, _2, _3
@ E:\NeuOrga\Programmieren\c_cpp\github_os\input\src\os_base\os_common.c:210:          tmp_diff = 0x100u+(uint16)Minuend->number[pos] - (uint16)Subtrahend->number[pos] - (uint16)carry;
	.loc 1 210 0
	it	hi
	addhi	r3, r3, #256	@ tmp237, tmp235,
	uxth	r3, r3	@ tmp_diff, tmp237
.LVL350:
@ E:\NeuOrga\Programmieren\c_cpp\github_os\input\src\os_base\os_common.c:216:       Differenz->number[pos] = tmp_diff;
	.loc 1 216 0
	strb	r3, [r0, #15]	@ tmp_diff, Differenz_20(D)->number
.LVL351:
@ E:\NeuOrga\Programmieren\c_cpp\github_os\input\src\os_base\os_common.c:204:       if(Minuend->number[pos]  >= (Subtrahend->number[pos] + carry))
	.loc 1 204 0
	ldrb	r5, [r1, #14]	@ zero_extendqisi2	@ _54, Minuend_17(D)->number
	ldrb	r4, [r2, #14]	@ zero_extendqisi2	@ _55, Subtrahend_18(D)->number
	uxth	r3, r5	@ _56, _54
	uxth	r6, r4	@ _57, _55
	cmp	r5, r4	@ _54, _55
@ E:\NeuOrga\Programmieren\c_cpp\github_os\input\src\os_base\os_common.c:206:          tmp_diff = (uint16)Minuend->number[pos] - (uint16)Subtrahend->number[pos] - carry;
	.loc 1 206 0
	sub	r3, r3, r6	@ tmp239, _56, _57
@ E:\NeuOrga\Programmieren\c_cpp\github_os\input\src\os_base\os_common.c:210:          tmp_diff = 0x100u+(uint16)Minuend->number[pos] - (uint16)Subtrahend->number[pos] - (uint16)carry;
	.loc 1 210 0
	it	cc
	addcc	r3, r3, #256	@ tmp242, tmp240,
	uxth	r3, r3	@ _58, tmp242
.LVL352:
@ E:\NeuOrga\Programmieren\c_cpp\github_os\input\src\os_base\os_common.c:216:       Differenz->number[pos] = tmp_diff;
	.loc 1 216 0
	strb	r3, [r0, #14]	@ _58, Differenz_20(D)->number
.LVL353:
@ E:\NeuOrga\Programmieren\c_cpp\github_os\input\src\os_base\os_common.c:204:       if(Minuend->number[pos]  >= (Subtrahend->number[pos] + carry))
	.loc 1 204 0
	ldrb	r5, [r1, #13]	@ zero_extendqisi2	@ _72, Minuend_17(D)->number
	ldrb	r4, [r2, #13]	@ zero_extendqisi2	@ _73, Subtrahend_18(D)->number
	uxth	r3, r5	@ _74, _72
	cmp	r5, r4	@ _72, _73
	uxth	r6, r4	@ _75, _73
@ E:\NeuOrga\Programmieren\c_cpp\github_os\input\src\os_base\os_common.c:210:          tmp_diff = 0x100u+(uint16)Minuend->number[pos] - (uint16)Subtrahend->number[pos] - (uint16)carry;
	.loc 1 210 0
	it	cc
	addcc	r3, r3, #256	@ tmp245, _74,
	subs	r3, r3, r6	@ tmp247, tmp245, _75
	uxth	r3, r3	@ _76, tmp247
.LVL354:
@ E:\NeuOrga\Programmieren\c_cpp\github_os\input\src\os_base\os_common.c:216:       Differenz->number[pos] = tmp_diff;
	.loc 1 216 0
	strb	r3, [r0, #13]	@ _76, Differenz_20(D)->number
.LVL355:
@ E:\NeuOrga\Programmieren\c_cpp\github_os\input\src\os_base\os_common.c:204:       if(Minuend->number[pos]  >= (Subtrahend->number[pos] + carry))
	.loc 1 204 0
	ldrb	r5, [r1, #12]	@ zero_extendqisi2	@ _90, Minuend_17(D)->number
	ldrb	r4, [r2, #12]	@ zero_extendqisi2	@ _91, Subtrahend_18(D)->number
	uxth	r3, r5	@ _92, _90
	cmp	r5, r4	@ _90, _91
	uxth	r6, r4	@ _93, _91
@ E:\NeuOrga\Programmieren\c_cpp\github_os\input\src\os_base\os_common.c:210:          tmp_diff = 0x100u+(uint16)Minuend->number[pos] - (uint16)Subtrahend->number[pos] - (uint16)carry;
	.loc 1 210 0
	it	cc
	addcc	r3, r3, #256	@ tmp250, _92,
	subs	r3, r3, r6	@ tmp252, tmp250, _93
	uxth	r3, r3	@ _94, tmp252
.LVL356:
@ E:\NeuOrga\Programmieren\c_cpp\github_os\input\src\os_base\os_common.c:216:       Differenz->number[pos] = tmp_diff;
	.loc 1 216 0
	strb	r3, [r0, #12]	@ _94, Differenz_20(D)->number
.LVL357:
@ E:\NeuOrga\Programmieren\c_cpp\github_os\input\src\os_base\os_common.c:204:       if(Minuend->number[pos]  >= (Subtrahend->number[pos] + carry))
	.loc 1 204 0
	ldrb	r5, [r1, #11]	@ zero_extendqisi2	@ _108, Minuend_17(D)->number
	ldrb	r4, [r2, #11]	@ zero_extendqisi2	@ _109, Subtrahend_18(D)->number
	uxth	r3, r5	@ _110, _108
	cmp	r5, r4	@ _108, _109
	uxth	r6, r4	@ _111, _109
@ E:\NeuOrga\Programmieren\c_cpp\github_os\input\src\os_base\os_common.c:210:          tmp_diff = 0x100u+(uint16)Minuend->number[pos] - (uint16)Subtrahend->number[pos] - (uint16)carry;
	.loc 1 210 0
	it	cc
	addcc	r3, r3, #256	@ tmp255, _110,
	subs	r3, r3, r6	@ tmp257, tmp255, _111
	uxth	r3, r3	@ _112, tmp257
.LVL358:
@ E:\NeuOrga\Programmieren\c_cpp\github_os\input\src\os_base\os_common.c:216:       Differenz->number[pos] = tmp_diff;
	.loc 1 216 0
	strb	r3, [r0, #11]	@ _112, Differenz_20(D)->number
.LVL359:
@ E:\NeuOrga\Programmieren\c_cpp\github_os\input\src\os_base\os_common.c:204:       if(Minuend->number[pos]  >= (Subtrahend->number[pos] + carry))
	.loc 1 204 0
	ldrb	r5, [r1, #10]	@ zero_extendqisi2	@ _126, Minuend_17(D)->number
	ldrb	r4, [r2, #10]	@ zero_extendqisi2	@ _127, Subtrahend_18(D)->number
	uxth	r3, r5	@ _128, _126
	cmp	r5, r4	@ _126, _127
	uxth	r6, r4	@ _129, _127
@ E:\NeuOrga\Programmieren\c_cpp\github_os\input\src\os_base\os_common.c:210:          tmp_diff = 0x100u+(uint16)Minuend->number[pos] - (uint16)Subtrahend->number[pos] - (uint16)carry;
	.loc 1 210 0
	it	cc
	addcc	r3, r3, #256	@ tmp260, _128,
	subs	r3, r3, r6	@ tmp262, tmp260, _129
	uxth	r3, r3	@ _130, tmp262
.LVL360:
@ E:\NeuOrga\Programmieren\c_cpp\github_os\input\src\os_base\os_common.c:216:       Differenz->number[pos] = tmp_diff;
	.loc 1 216 0
	strb	r3, [r0, #10]	@ _130, Differenz_20(D)->number
.LVL361:
@ E:\NeuOrga\Programmieren\c_cpp\github_os\input\src\os_base\os_common.c:204:       if(Minuend->number[pos]  >= (Subtrahend->number[pos] + carry))
	.loc 1 204 0
	ldrb	r5, [r1, #9]	@ zero_extendqisi2	@ _144, Minuend_17(D)->number
	ldrb	r4, [r2, #9]	@ zero_extendqisi2	@ _145, Subtrahend_18(D)->number
	uxth	r3, r5	@ _146, _144
	cmp	r5, r4	@ _144, _145
	uxth	r6, r4	@ _147, _145
@ E:\NeuOrga\Programmieren\c_cpp\github_os\input\src\os_base\os_common.c:210:          tmp_diff = 0x100u+(uint16)Minuend->number[pos] - (uint16)Subtrahend->number[pos] - (uint16)carry;
	.loc 1 210 0
	it	cc
	addcc	r3, r3, #256	@ tmp265, _146,
	subs	r3, r3, r6	@ tmp267, tmp265, _147
	uxth	r3, r3	@ _148, tmp267
.LVL362:
@ E:\NeuOrga\Programmieren\c_cpp\github_os\input\src\os_base\os_common.c:216:       Differenz->number[pos] = tmp_diff;
	.loc 1 216 0
	strb	r3, [r0, #9]	@ _148, Differenz_20(D)->number
.LVL363:
@ E:\NeuOrga\Programmieren\c_cpp\github_os\input\src\os_base\os_common.c:204:       if(Minuend->number[pos]  >= (Subtrahend->number[pos] + carry))
	.loc 1 204 0
	ldrb	r5, [r1, #8]	@ zero_extendqisi2	@ _162, Minuend_17(D)->number
	ldrb	r4, [r2, #8]	@ zero_extendqisi2	@ _163, Subtrahend_18(D)->number
	uxth	r3, r5	@ _164, _162
	cmp	r5, r4	@ _162, _163
	uxth	r6, r4	@ _165, _163
@ E:\NeuOrga\Programmieren\c_cpp\github_os\input\src\os_base\os_common.c:210:          tmp_diff = 0x100u+(uint16)Minuend->number[pos] - (uint16)Subtrahend->number[pos] - (uint16)carry;
	.loc 1 210 0
	it	cc
	addcc	r3, r3, #256	@ tmp270, _164,
	subs	r3, r3, r6	@ tmp272, tmp270, _165
	uxth	r3, r3	@ _166, tmp272
.LVL364:
@ E:\NeuOrga\Programmieren\c_cpp\github_os\input\src\os_base\os_common.c:216:       Differenz->number[pos] = tmp_diff;
	.loc 1 216 0
	strb	r3, [r0, #8]	@ _166, Differenz_20(D)->number
.LVL365:
@ E:\NeuOrga\Programmieren\c_cpp\github_os\input\src\os_base\os_common.c:204:       if(Minuend->number[pos]  >= (Subtrahend->number[pos] + carry))
	.loc 1 204 0
	ldrb	r5, [r1, #7]	@ zero_extendqisi2	@ _180, Minuend_17(D)->number
	ldrb	r4, [r2, #7]	@ zero_extendqisi2	@ _181, Subtrahend_18(D)->number
	uxth	r3, r5	@ _182, _180
	cmp	r5, r4	@ _180, _181
	uxth	r6, r4	@ _183, _181
@ E:\NeuOrga\Programmieren\c_cpp\github_os\input\src\os_base\os_common.c:210:          tmp_diff = 0x100u+(uint16)Minuend->number[pos] - (uint16)Subtrahend->number[pos] - (uint16)carry;
	.loc 1 210 0
	it	cc
	addcc	r3, r3, #256	@ tmp275, _182,
	subs	r3, r3, r6	@ tmp277, tmp275, _183
	uxth	r3, r3	@ _184, tmp277
.LVL366:
@ E:\NeuOrga\Programmieren\c_cpp\github_os\input\src\os_base\os_common.c:216:       Differenz->number[pos] = tmp_diff;
	.loc 1 216 0
	strb	r3, [r0, #7]	@ _184, Differenz_20(D)->number
.LVL367:
@ E:\NeuOrga\Programmieren\c_cpp\github_os\input\src\os_base\os_common.c:204:       if(Minuend->number[pos]  >= (Subtrahend->number[pos] + carry))
	.loc 1 204 0
	ldrb	r5, [r1, #6]	@ zero_extendqisi2	@ _198, Minuend_17(D)->number
	ldrb	r4, [r2, #6]	@ zero_extendqisi2	@ _199, Subtrahend_18(D)->number
	uxth	r3, r5	@ _200, _198
	cmp	r5, r4	@ _198, _199
	uxth	r6, r4	@ _201, _199
@ E:\NeuOrga\Programmieren\c_cpp\github_os\input\src\os_base\os_common.c:210:          tmp_diff = 0x100u+(uint16)Minuend->number[pos] - (uint16)Subtrahend->number[pos] - (uint16)carry;
	.loc 1 210 0
	it	cc
	addcc	r3, r3, #256	@ tmp280, _200,
	subs	r3, r3, r6	@ tmp282, tmp280, _201
	uxth	r3, r3	@ _202, tmp282
.LVL368:
@ E:\NeuOrga\Programmieren\c_cpp\github_os\input\src\os_base\os_common.c:216:       Differenz->number[pos] = tmp_diff;
	.loc 1 216 0
	strb	r3, [r0, #6]	@ _202, Differenz_20(D)->number
.LVL369:
@ E:\NeuOrga\Programmieren\c_cpp\github_os\input\src\os_base\os_common.c:204:       if(Minuend->number[pos]  >= (Subtrahend->number[pos] + carry))
	.loc 1 204 0
	ldrb	r5, [r1, #5]	@ zero_extendqisi2	@ _216, Minuend_17(D)->number
	ldrb	r4, [r2, #5]	@ zero_extendqisi2	@ _217, Subtrahend_18(D)->number
	uxth	r3, r5	@ _218, _216
	cmp	r5, r4	@ _216, _217
	uxth	r6, r4	@ _219, _217
@ E:\NeuOrga\Programmieren\c_cpp\github_os\input\src\os_base\os_common.c:210:          tmp_diff = 0x100u+(uint16)Minuend->number[pos] - (uint16)Subtrahend->number[pos] - (uint16)carry;
	.loc 1 210 0
	it	cc
	addcc	r3, r3, #256	@ tmp285, _218,
	subs	r3, r3, r6	@ tmp287, tmp285, _219
	uxth	r3, r3	@ _220, tmp287
.LVL370:
@ E:\NeuOrga\Programmieren\c_cpp\github_os\input\src\os_base\os_common.c:216:       Differenz->number[pos] = tmp_diff;
	.loc 1 216 0
	strb	r3, [r0, #5]	@ _220, Differenz_20(D)->number
.LVL371:
@ E:\NeuOrga\Programmieren\c_cpp\github_os\input\src\os_base\os_common.c:204:       if(Minuend->number[pos]  >= (Subtrahend->number[pos] + carry))
	.loc 1 204 0
	ldrb	r5, [r1, #4]	@ zero_extendqisi2	@ _234, Minuend_17(D)->number
	ldrb	r4, [r2, #4]	@ zero_extendqisi2	@ _235, Subtrahend_18(D)->number
	uxth	r3, r5	@ _236, _234
	cmp	r5, r4	@ _234, _235
	uxth	r6, r4	@ _237, _235
@ E:\NeuOrga\Programmieren\c_cpp\github_os\input\src\os_base\os_common.c:210:          tmp_diff = 0x100u+(uint16)Minuend->number[pos] - (uint16)Subtrahend->number[pos] - (uint16)carry;
	.loc 1 210 0
	it	cc
	addcc	r3, r3, #256	@ tmp290, _236,
	subs	r3, r3, r6	@ tmp292, tmp290, _237
	uxth	r3, r3	@ _238, tmp292
.LVL372:
@ E:\NeuOrga\Programmieren\c_cpp\github_os\input\src\os_base\os_common.c:216:       Differenz->number[pos] = tmp_diff;
	.loc 1 216 0
	strb	r3, [r0, #4]	@ _238, Differenz_20(D)->number
.LVL373:
@ E:\NeuOrga\Programmieren\c_cpp\github_os\input\src\os_base\os_common.c:204:       if(Minuend->number[pos]  >= (Subtrahend->number[pos] + carry))
	.loc 1 204 0
	ldrb	r5, [r1, #3]	@ zero_extendqisi2	@ _252, Minuend_17(D)->number
	ldrb	r4, [r2, #3]	@ zero_extendqisi2	@ _253, Subtrahend_18(D)->number
	uxth	r3, r5	@ _254, _252
	cmp	r5, r4	@ _252, _253
	uxth	r6, r4	@ _255, _253
@ E:\NeuOrga\Programmieren\c_cpp\github_os\input\src\os_base\os_common.c:210:          tmp_diff = 0x100u+(uint16)Minuend->number[pos] - (uint16)Subtrahend->number[pos] - (uint16)carry;
	.loc 1 210 0
	it	cc
	addcc	r3, r3, #256	@ tmp295, _254,
	subs	r3, r3, r6	@ tmp297, tmp295, _255
	uxth	r3, r3	@ _256, tmp297
.LVL374:
@ E:\NeuOrga\Programmieren\c_cpp\github_os\input\src\os_base\os_common.c:216:       Differenz->number[pos] = tmp_diff;
	.loc 1 216 0
	strb	r3, [r0, #3]	@ _256, Differenz_20(D)->number
.LVL375:
@ E:\NeuOrga\Programmieren\c_cpp\github_os\input\src\os_base\os_common.c:204:       if(Minuend->number[pos]  >= (Subtrahend->number[pos] + carry))
	.loc 1 204 0
	ldrb	r5, [r1, #2]	@ zero_extendqisi2	@ _270, Minuend_17(D)->number
	ldrb	r4, [r2, #2]	@ zero_extendqisi2	@ _271, Subtrahend_18(D)->number
	uxth	r3, r5	@ _272, _270
	cmp	r5, r4	@ _270, _271
	uxth	r6, r4	@ _273, _271
@ E:\NeuOrga\Programmieren\c_cpp\github_os\input\src\os_base\os_common.c:210:          tmp_diff = 0x100u+(uint16)Minuend->number[pos] - (uint16)Subtrahend->number[pos] - (uint16)carry;
	.loc 1 210 0
	it	cc
	addcc	r3, r3, #256	@ tmp300, _272,
	subs	r3, r3, r6	@ tmp302, tmp300, _273
	uxth	r3, r3	@ _274, tmp302
.LVL376:
@ E:\NeuOrga\Programmieren\c_cpp\github_os\input\src\os_base\os_common.c:216:       Differenz->number[pos] = tmp_diff;
	.loc 1 216 0
	strb	r3, [r0, #2]	@ _274, Differenz_20(D)->number
.LVL377:
@ E:\NeuOrga\Programmieren\c_cpp\github_os\input\src\os_base\os_common.c:204:       if(Minuend->number[pos]  >= (Subtrahend->number[pos] + carry))
	.loc 1 204 0
	ldrb	r5, [r1, #1]	@ zero_extendqisi2	@ _288, Minuend_17(D)->number
	ldrb	r4, [r2, #1]	@ zero_extendqisi2	@ _289, Subtrahend_18(D)->number
	uxth	r3, r5	@ _290, _288
	cmp	r5, r4	@ _288, _289
	uxth	r6, r4	@ _291, _289
@ E:\NeuOrga\Programmieren\c_cpp\github_os\input\src\os_base\os_common.c:210:          tmp_diff = 0x100u+(uint16)Minuend->number[pos] - (uint16)Subtrahend->number[pos] - (uint16)carry;
	.loc 1 210 0
	it	cc
	addcc	r3, r3, #256	@ tmp305, _290,
	subs	r3, r3, r6	@ tmp307, tmp305, _291
	uxth	r3, r3	@ _292, tmp307
.LVL378:
@ E:\NeuOrga\Programmieren\c_cpp\github_os\input\src\os_base\os_common.c:216:       Differenz->number[pos] = tmp_diff;
	.loc 1 216 0
	strb	r3, [r0, #1]	@ _292, Differenz_20(D)->number
.LVL379:
@ E:\NeuOrga\Programmieren\c_cpp\github_os\input\src\os_base\os_common.c:204:       if(Minuend->number[pos]  >= (Subtrahend->number[pos] + carry))
	.loc 1 204 0
	ldrb	r1, [r1]	@ zero_extendqisi2	@ _25, Minuend_17(D)->number
.LVL380:
	ldrb	r2, [r2]	@ zero_extendqisi2	@ _24, Subtrahend_18(D)->number
.LVL381:
	uxth	r3, r1	@ _15, _25
	cmp	r2, r1	@ _24, _25
	uxth	r4, r2	@ _13, _24
@ E:\NeuOrga\Programmieren\c_cpp\github_os\input\src\os_base\os_common.c:210:          tmp_diff = 0x100u+(uint16)Minuend->number[pos] - (uint16)Subtrahend->number[pos] - (uint16)carry;
	.loc 1 210 0
	it	hi
	addhi	r3, r3, #256	@ tmp310, _15,
	subs	r3, r3, r4	@ tmp312, tmp310, _13
	uxth	r3, r3	@ tmp_diff, tmp312
.LVL382:
@ E:\NeuOrga\Programmieren\c_cpp\github_os\input\src\os_base\os_common.c:216:       Differenz->number[pos] = tmp_diff;
	.loc 1 216 0
	strb	r3, [r0]	@ tmp_diff, Differenz_20(D)->number
.LVL383:
.LBE314:
@ E:\NeuOrga\Programmieren\c_cpp\github_os\input\src\os_base\os_common.c:218: }
	.loc 1 218 0
	pop	{r4, r5, r6}	@
	.cfi_restore 6
	.cfi_restore 5
	.cfi_restore 4
	.cfi_def_cfa_offset 0
	bx	lr	@
	.cfi_endproc
.LFE7:
	.size	INT_SUB, .-INT_SUB
	.align	1
	.p2align 2,,3
	.global	IS_LESS
	.syntax unified
	.thumb
	.thumb_func
	.fpu softvfp
	.type	IS_LESS, %function
IS_LESS:
.LFB8:
	.loc 1 220 0
	.cfi_startproc
	@ args = 0, pretend = 0, frame = 0
	@ frame_needed = 0, uses_anonymous_args = 0
	@ link register save eliminated.
.LVL384:
@ E:\NeuOrga\Programmieren\c_cpp\github_os\input\src\os_base\os_common.c:225:       if(Operand1->number[pos] < Operand2->number[pos])
	.loc 1 225 0
	ldrb	r2, [r0]	@ zero_extendqisi2	@ _15, Operand1_7(D)->number
	ldrb	r3, [r1]	@ zero_extendqisi2	@ _16, Operand2_8(D)->number
	cmp	r2, r3	@ _15, _16
	bcc	.L310	@,
@ E:\NeuOrga\Programmieren\c_cpp\github_os\input\src\os_base\os_common.c:230:       else if (Operand1->number[pos] > Operand2->number[pos])
	.loc 1 230 0
	bhi	.L311	@,
.LVL385:
@ E:\NeuOrga\Programmieren\c_cpp\github_os\input\src\os_base\os_common.c:225:       if(Operand1->number[pos] < Operand2->number[pos])
	.loc 1 225 0
	ldrb	r2, [r0, #1]	@ zero_extendqisi2	@ _22, Operand1_7(D)->number
	ldrb	r3, [r1, #1]	@ zero_extendqisi2	@ _23, Operand2_8(D)->number
	cmp	r2, r3	@ _22, _23
	bcc	.L310	@,
@ E:\NeuOrga\Programmieren\c_cpp\github_os\input\src\os_base\os_common.c:230:       else if (Operand1->number[pos] > Operand2->number[pos])
	.loc 1 230 0
	bhi	.L311	@,
.LVL386:
@ E:\NeuOrga\Programmieren\c_cpp\github_os\input\src\os_base\os_common.c:225:       if(Operand1->number[pos] < Operand2->number[pos])
	.loc 1 225 0
	ldrb	r2, [r0, #2]	@ zero_extendqisi2	@ _29, Operand1_7(D)->number
	ldrb	r3, [r1, #2]	@ zero_extendqisi2	@ _30, Operand2_8(D)->number
	cmp	r2, r3	@ _29, _30
	bcc	.L310	@,
@ E:\NeuOrga\Programmieren\c_cpp\github_os\input\src\os_base\os_common.c:230:       else if (Operand1->number[pos] > Operand2->number[pos])
	.loc 1 230 0
	bhi	.L311	@,
.LVL387:
@ E:\NeuOrga\Programmieren\c_cpp\github_os\input\src\os_base\os_common.c:225:       if(Operand1->number[pos] < Operand2->number[pos])
	.loc 1 225 0
	ldrb	r2, [r0, #3]	@ zero_extendqisi2	@ _36, Operand1_7(D)->number
	ldrb	r3, [r1, #3]	@ zero_extendqisi2	@ _37, Operand2_8(D)->number
	cmp	r2, r3	@ _36, _37
	bcc	.L310	@,
@ E:\NeuOrga\Programmieren\c_cpp\github_os\input\src\os_base\os_common.c:230:       else if (Operand1->number[pos] > Operand2->number[pos])
	.loc 1 230 0
	bhi	.L311	@,
.LVL388:
@ E:\NeuOrga\Programmieren\c_cpp\github_os\input\src\os_base\os_common.c:225:       if(Operand1->number[pos] < Operand2->number[pos])
	.loc 1 225 0
	ldrb	r2, [r0, #4]	@ zero_extendqisi2	@ _43, Operand1_7(D)->number
	ldrb	r3, [r1, #4]	@ zero_extendqisi2	@ _44, Operand2_8(D)->number
	cmp	r2, r3	@ _43, _44
	bcc	.L310	@,
@ E:\NeuOrga\Programmieren\c_cpp\github_os\input\src\os_base\os_common.c:230:       else if (Operand1->number[pos] > Operand2->number[pos])
	.loc 1 230 0
	bhi	.L311	@,
.LVL389:
@ E:\NeuOrga\Programmieren\c_cpp\github_os\input\src\os_base\os_common.c:225:       if(Operand1->number[pos] < Operand2->number[pos])
	.loc 1 225 0
	ldrb	r2, [r0, #5]	@ zero_extendqisi2	@ _50, Operand1_7(D)->number
	ldrb	r3, [r1, #5]	@ zero_extendqisi2	@ _51, Operand2_8(D)->number
	cmp	r2, r3	@ _50, _51
	bcc	.L310	@,
@ E:\NeuOrga\Programmieren\c_cpp\github_os\input\src\os_base\os_common.c:230:       else if (Operand1->number[pos] > Operand2->number[pos])
	.loc 1 230 0
	bhi	.L311	@,
.LVL390:
@ E:\NeuOrga\Programmieren\c_cpp\github_os\input\src\os_base\os_common.c:225:       if(Operand1->number[pos] < Operand2->number[pos])
	.loc 1 225 0
	ldrb	r2, [r0, #6]	@ zero_extendqisi2	@ _57, Operand1_7(D)->number
	ldrb	r3, [r1, #6]	@ zero_extendqisi2	@ _58, Operand2_8(D)->number
	cmp	r2, r3	@ _57, _58
	bcc	.L310	@,
@ E:\NeuOrga\Programmieren\c_cpp\github_os\input\src\os_base\os_common.c:230:       else if (Operand1->number[pos] > Operand2->number[pos])
	.loc 1 230 0
	bhi	.L311	@,
.LVL391:
@ E:\NeuOrga\Programmieren\c_cpp\github_os\input\src\os_base\os_common.c:225:       if(Operand1->number[pos] < Operand2->number[pos])
	.loc 1 225 0
	ldrb	r2, [r0, #7]	@ zero_extendqisi2	@ _64, Operand1_7(D)->number
	ldrb	r3, [r1, #7]	@ zero_extendqisi2	@ _65, Operand2_8(D)->number
	cmp	r2, r3	@ _64, _65
	bcc	.L310	@,
@ E:\NeuOrga\Programmieren\c_cpp\github_os\input\src\os_base\os_common.c:230:       else if (Operand1->number[pos] > Operand2->number[pos])
	.loc 1 230 0
	bhi	.L311	@,
.LVL392:
@ E:\NeuOrga\Programmieren\c_cpp\github_os\input\src\os_base\os_common.c:225:       if(Operand1->number[pos] < Operand2->number[pos])
	.loc 1 225 0
	ldrb	r2, [r0, #8]	@ zero_extendqisi2	@ _71, Operand1_7(D)->number
	ldrb	r3, [r1, #8]	@ zero_extendqisi2	@ _72, Operand2_8(D)->number
	cmp	r2, r3	@ _71, _72
	bcc	.L310	@,
@ E:\NeuOrga\Programmieren\c_cpp\github_os\input\src\os_base\os_common.c:230:       else if (Operand1->number[pos] > Operand2->number[pos])
	.loc 1 230 0
	bhi	.L311	@,
.LVL393:
@ E:\NeuOrga\Programmieren\c_cpp\github_os\input\src\os_base\os_common.c:225:       if(Operand1->number[pos] < Operand2->number[pos])
	.loc 1 225 0
	ldrb	r2, [r0, #9]	@ zero_extendqisi2	@ _78, Operand1_7(D)->number
	ldrb	r3, [r1, #9]	@ zero_extendqisi2	@ _79, Operand2_8(D)->number
	cmp	r2, r3	@ _78, _79
	bcc	.L310	@,
@ E:\NeuOrga\Programmieren\c_cpp\github_os\input\src\os_base\os_common.c:230:       else if (Operand1->number[pos] > Operand2->number[pos])
	.loc 1 230 0
	bhi	.L311	@,
.LVL394:
@ E:\NeuOrga\Programmieren\c_cpp\github_os\input\src\os_base\os_common.c:225:       if(Operand1->number[pos] < Operand2->number[pos])
	.loc 1 225 0
	ldrb	r2, [r0, #10]	@ zero_extendqisi2	@ _85, Operand1_7(D)->number
	ldrb	r3, [r1, #10]	@ zero_extendqisi2	@ _86, Operand2_8(D)->number
	cmp	r2, r3	@ _85, _86
	bcc	.L310	@,
@ E:\NeuOrga\Programmieren\c_cpp\github_os\input\src\os_base\os_common.c:230:       else if (Operand1->number[pos] > Operand2->number[pos])
	.loc 1 230 0
	bhi	.L311	@,
.LVL395:
@ E:\NeuOrga\Programmieren\c_cpp\github_os\input\src\os_base\os_common.c:225:       if(Operand1->number[pos] < Operand2->number[pos])
	.loc 1 225 0
	ldrb	r2, [r0, #11]	@ zero_extendqisi2	@ _92, Operand1_7(D)->number
	ldrb	r3, [r1, #11]	@ zero_extendqisi2	@ _93, Operand2_8(D)->number
	cmp	r2, r3	@ _92, _93
	bcc	.L310	@,
@ E:\NeuOrga\Programmieren\c_cpp\github_os\input\src\os_base\os_common.c:230:       else if (Operand1->number[pos] > Operand2->number[pos])
	.loc 1 230 0
	bhi	.L311	@,
.LVL396:
@ E:\NeuOrga\Programmieren\c_cpp\github_os\input\src\os_base\os_common.c:225:       if(Operand1->number[pos] < Operand2->number[pos])
	.loc 1 225 0
	ldrb	r2, [r0, #12]	@ zero_extendqisi2	@ _99, Operand1_7(D)->number
	ldrb	r3, [r1, #12]	@ zero_extendqisi2	@ _100, Operand2_8(D)->number
	cmp	r2, r3	@ _99, _100
	bcc	.L310	@,
@ E:\NeuOrga\Programmieren\c_cpp\github_os\input\src\os_base\os_common.c:230:       else if (Operand1->number[pos] > Operand2->number[pos])
	.loc 1 230 0
	bhi	.L311	@,
.LVL397:
@ E:\NeuOrga\Programmieren\c_cpp\github_os\input\src\os_base\os_common.c:225:       if(Operand1->number[pos] < Operand2->number[pos])
	.loc 1 225 0
	ldrb	r2, [r0, #13]	@ zero_extendqisi2	@ _106, Operand1_7(D)->number
	ldrb	r3, [r1, #13]	@ zero_extendqisi2	@ _107, Operand2_8(D)->number
	cmp	r2, r3	@ _106, _107
	bcc	.L310	@,
@ E:\NeuOrga\Programmieren\c_cpp\github_os\input\src\os_base\os_common.c:230:       else if (Operand1->number[pos] > Operand2->number[pos])
	.loc 1 230 0
	bhi	.L311	@,
.LVL398:
@ E:\NeuOrga\Programmieren\c_cpp\github_os\input\src\os_base\os_common.c:225:       if(Operand1->number[pos] < Operand2->number[pos])
	.loc 1 225 0
	ldrb	r2, [r0, #14]	@ zero_extendqisi2	@ _113, Operand1_7(D)->number
	ldrb	r3, [r1, #14]	@ zero_extendqisi2	@ _114, Operand2_8(D)->number
	cmp	r2, r3	@ _113, _114
	bcc	.L310	@,
@ E:\NeuOrga\Programmieren\c_cpp\github_os\input\src\os_base\os_common.c:230:       else if (Operand1->number[pos] > Operand2->number[pos])
	.loc 1 230 0
	bhi	.L311	@,
.LVL399:
@ E:\NeuOrga\Programmieren\c_cpp\github_os\input\src\os_base\os_common.c:225:       if(Operand1->number[pos] < Operand2->number[pos])
	.loc 1 225 0
	ldrb	r0, [r0, #15]	@ zero_extendqisi2	@ Operand1_7(D)->number, Operand1_7(D)->number
.LVL400:
	ldrb	r3, [r1, #15]	@ zero_extendqisi2	@ Operand2_8(D)->number, Operand2_8(D)->number
@ E:\NeuOrga\Programmieren\c_cpp\github_os\input\src\os_base\os_common.c:227:          is_less = TRUE;
	.loc 1 227 0
	cmp	r0, r3	@ Operand1_7(D)->number, Operand2_8(D)->number
	ite	cs
	movcs	r0, #0	@ <retval>,
	movcc	r0, #1	@ <retval>,
	bx	lr	@
.LVL401:
.L311:
@ E:\NeuOrga\Programmieren\c_cpp\github_os\input\src\os_base\os_common.c:232:          is_less = FALSE;
	.loc 1 232 0
	movs	r0, #0	@ <retval>,
.LVL402:
@ E:\NeuOrga\Programmieren\c_cpp\github_os\input\src\os_base\os_common.c:241: }
	.loc 1 241 0
	bx	lr	@
.LVL403:
.L310:
@ E:\NeuOrga\Programmieren\c_cpp\github_os\input\src\os_base\os_common.c:227:          is_less = TRUE;
	.loc 1 227 0
	movs	r0, #1	@ <retval>,
.LVL404:
	bx	lr	@
	.cfi_endproc
.LFE8:
	.size	IS_LESS, .-IS_LESS
	.align	1
	.p2align 2,,3
	.global	IS_LESS_OR_EQUAL
	.syntax unified
	.thumb
	.thumb_func
	.fpu softvfp
	.type	IS_LESS_OR_EQUAL, %function
IS_LESS_OR_EQUAL:
.LFB9:
	.loc 1 243 0
	.cfi_startproc
	@ args = 0, pretend = 0, frame = 0
	@ frame_needed = 0, uses_anonymous_args = 0
.LVL405:
.LBB315:
.LBB316:
@ E:\NeuOrga\Programmieren\c_cpp\github_os\input\src\os_base\os_common.c:225:       if(Operand1->number[pos] < Operand2->number[pos])
	.loc 1 225 0
	ldrb	r2, [r0]	@ zero_extendqisi2	@ _122, Operand1_3(D)->number
	ldrb	r3, [r1]	@ zero_extendqisi2	@ _123, Operand2_4(D)->number
	cmp	r2, r3	@ _122, _123
	bcc	.L315	@,
@ E:\NeuOrga\Programmieren\c_cpp\github_os\input\src\os_base\os_common.c:230:       else if (Operand1->number[pos] > Operand2->number[pos])
	.loc 1 230 0
	bhi	.L316	@,
.LVL406:
.LBE316:
.LBE315:
@ E:\NeuOrga\Programmieren\c_cpp\github_os\input\src\os_base\os_common.c:243: {
	.loc 1 243 0
	push	{r4, r5, r6, r7, lr}	@
	.cfi_def_cfa_offset 20
	.cfi_offset 4, -20
	.cfi_offset 5, -16
	.cfi_offset 6, -12
	.cfi_offset 7, -8
	.cfi_offset 14, -4
.LBB320:
.LBB317:
@ E:\NeuOrga\Programmieren\c_cpp\github_os\input\src\os_base\os_common.c:225:       if(Operand1->number[pos] < Operand2->number[pos])
	.loc 1 225 0
	ldrb	r5, [r1, #1]	@ zero_extendqisi2	@ Operand2_4(D)->number, Operand2_4(D)->number
	ldrb	r4, [r0, #1]	@ zero_extendqisi2	@ Operand1_3(D)->number, Operand1_3(D)->number
	cmp	r4, r5	@ Operand1_3(D)->number, Operand2_4(D)->number
	bcc	.L332	@,
@ E:\NeuOrga\Programmieren\c_cpp\github_os\input\src\os_base\os_common.c:230:       else if (Operand1->number[pos] > Operand2->number[pos])
	.loc 1 230 0
	bhi	.L347	@,
.LVL407:
@ E:\NeuOrga\Programmieren\c_cpp\github_os\input\src\os_base\os_common.c:225:       if(Operand1->number[pos] < Operand2->number[pos])
	.loc 1 225 0
	ldrb	r7, [r0, #2]	@ zero_extendqisi2	@ Operand1_3(D)->number, Operand1_3(D)->number
	ldrb	r6, [r1, #2]	@ zero_extendqisi2	@ Operand2_4(D)->number, Operand2_4(D)->number
	cmp	r7, r6	@ Operand1_3(D)->number, Operand2_4(D)->number
	bcc	.L332	@,
@ E:\NeuOrga\Programmieren\c_cpp\github_os\input\src\os_base\os_common.c:230:       else if (Operand1->number[pos] > Operand2->number[pos])
	.loc 1 230 0
	bhi	.L314	@,
.LVL408:
@ E:\NeuOrga\Programmieren\c_cpp\github_os\input\src\os_base\os_common.c:225:       if(Operand1->number[pos] < Operand2->number[pos])
	.loc 1 225 0
	ldrb	lr, [r0, #3]	@ zero_extendqisi2	@ _143, Operand1_3(D)->number
	ldrb	ip, [r1, #3]	@ zero_extendqisi2	@ _144, Operand2_4(D)->number
	cmp	lr, ip	@ _143, _144
	bcc	.L332	@,
@ E:\NeuOrga\Programmieren\c_cpp\github_os\input\src\os_base\os_common.c:230:       else if (Operand1->number[pos] > Operand2->number[pos])
	.loc 1 230 0
	bhi	.L314	@,
.LVL409:
@ E:\NeuOrga\Programmieren\c_cpp\github_os\input\src\os_base\os_common.c:225:       if(Operand1->number[pos] < Operand2->number[pos])
	.loc 1 225 0
	ldrb	lr, [r0, #4]	@ zero_extendqisi2	@ _150, Operand1_3(D)->number
	ldrb	ip, [r1, #4]	@ zero_extendqisi2	@ _151, Operand2_4(D)->number
	cmp	lr, ip	@ _150, _151
	bcc	.L332	@,
