	.cpu cortex-m4
	.eabi_attribute 20, 1	@ Tag_ABI_FP_denormal
	.eabi_attribute 21, 1	@ Tag_ABI_FP_exceptions
	.eabi_attribute 23, 3	@ Tag_ABI_FP_number_model
	.eabi_attribute 24, 1	@ Tag_ABI_align8_needed
	.eabi_attribute 25, 1	@ Tag_ABI_align8_preserved
	.eabi_attribute 26, 1	@ Tag_ABI_enum_size
	.eabi_attribute 30, 2	@ Tag_ABI_optimization_goals
	.eabi_attribute 34, 1	@ Tag_CPU_unaligned_access
	.eabi_attribute 18, 4	@ Tag_ABI_PCS_wchar_t
	.file	"os_task_queue.c"
@ GNU C89 (GNU Tools for Arm Embedded Processors 8-2019-q3-update) version 8.3.1 20190703 (release) [gcc-8-branch revision 273027] (arm-none-eabi)
@	compiled by GNU C version 5.3.1 20160211, GMP version 6.1.0, MPFR version 3.1.4, MPC version 1.0.3, isl version isl-0.18-GMP

@ GGC heuristics: --param ggc-min-expand=100 --param ggc-min-heapsize=131072
@ options passed:  -imultilib thumb/v7e-m/nofp
@ -iprefix c:\program files (x86)\gnu tools arm embedded\8 2019-q3-update\bin\../lib/gcc/arm-none-eabi/8.3.1/
@ -isysroot c:\program files (x86)\gnu tools arm embedded\8 2019-q3-update\bin\../arm-none-eabi
@ -D__USES_INITFINI__ -D CFG_PROCESSOR=4 -D STM32F407VG
@ C:\Users\president\Desktop\sbx\input\src\os_base\os_task_queue.c
@ -mcpu=cortex-m4 -mthumb -mfloat-abi=soft -march=armv7e-m
@ -auxbase-strip C:\Users\president\Desktop\sbx\output\os_base\obj_arm\os_task_queue.s
@ -g3 -O3 -Wall -Wextra -Wpedantic -std=c90 -fverbose-asm
@ options enabled:  -faggressive-loop-optimizations -falign-jumps
@ -falign-labels -falign-loops -fauto-inc-dec -fbranch-count-reg
@ -fcaller-saves -fchkp-check-incomplete-type -fchkp-check-read
@ -fchkp-check-write -fchkp-instrument-calls -fchkp-narrow-bounds
@ -fchkp-optimize -fchkp-store-bounds -fchkp-use-static-bounds
@ -fchkp-use-static-const-bounds -fchkp-use-wrappers -fcode-hoisting
@ -fcombine-stack-adjustments -fcommon -fcompare-elim -fcprop-registers
@ -fcrossjumping -fcse-follow-jumps -fdefer-pop
@ -fdelete-null-pointer-checks -fdevirtualize -fdevirtualize-speculatively
@ -fdwarf2-cfi-asm -fearly-inlining -feliminate-unused-debug-types
@ -fexpensive-optimizations -fforward-propagate -ffp-int-builtin-inexact
@ -ffunction-cse -fgcse -fgcse-after-reload -fgcse-lm -fgnu-runtime
@ -fgnu-unique -fguess-branch-probability -fhoist-adjacent-loads -fident
@ -fif-conversion -fif-conversion2 -findirect-inlining -finline
@ -finline-atomics -finline-functions -finline-functions-called-once
@ -finline-small-functions -fipa-bit-cp -fipa-cp -fipa-cp-clone -fipa-icf
@ -fipa-icf-functions -fipa-icf-variables -fipa-profile -fipa-pure-const
@ -fipa-ra -fipa-reference -fipa-sra -fipa-vrp -fira-hoist-pressure
@ -fira-share-save-slots -fira-share-spill-slots
@ -fisolate-erroneous-paths-dereference -fivopts -fkeep-static-consts
@ -fleading-underscore -flifetime-dse -floop-interchange
@ -floop-unroll-and-jam -flra-remat -flto-odr-type-merging -fmath-errno
@ -fmerge-constants -fmerge-debug-strings -fmove-loop-invariants
@ -fomit-frame-pointer -foptimize-sibling-calls -foptimize-strlen
@ -fpartial-inlining -fpeel-loops -fpeephole -fpeephole2 -fplt
@ -fpredictive-commoning -fprefetch-loop-arrays -freg-struct-return
@ -freorder-blocks -freorder-functions -frerun-cse-after-loop
@ -fsched-critical-path-heuristic -fsched-dep-count-heuristic
@ -fsched-group-heuristic -fsched-interblock -fsched-last-insn-heuristic
@ -fsched-pressure -fsched-rank-heuristic -fsched-spec
@ -fsched-spec-insn-heuristic -fsched-stalled-insns-dep -fschedule-insns
@ -fschedule-insns2 -fsection-anchors -fsemantic-interposition
@ -fshow-column -fshrink-wrap -fshrink-wrap-separate -fsigned-zeros
@ -fsplit-ivs-in-unroller -fsplit-loops -fsplit-paths -fsplit-wide-types
@ -fssa-backprop -fssa-phiopt -fstdarg-opt -fstore-merging
@ -fstrict-aliasing -fstrict-volatile-bitfields -fsync-libcalls
@ -fthread-jumps -ftoplevel-reorder -ftrapping-math -ftree-bit-ccp
@ -ftree-builtin-call-dce -ftree-ccp -ftree-ch -ftree-coalesce-vars
@ -ftree-copy-prop -ftree-cselim -ftree-dce -ftree-dominator-opts
@ -ftree-dse -ftree-forwprop -ftree-fre -ftree-loop-distribute-patterns
@ -ftree-loop-distribution -ftree-loop-if-convert -ftree-loop-im
@ -ftree-loop-ivcanon -ftree-loop-optimize -ftree-loop-vectorize
@ -ftree-parallelize-loops= -ftree-partial-pre -ftree-phiprop -ftree-pre
@ -ftree-pta -ftree-reassoc -ftree-scev-cprop -ftree-sink
@ -ftree-slp-vectorize -ftree-slsr -ftree-sra -ftree-switch-conversion
@ -ftree-tail-merge -ftree-ter -ftree-vrp -funit-at-a-time -funswitch-loops
@ -fvar-tracking -fvar-tracking-assignments -fverbose-asm
@ -fzero-initialized-in-bss -masm-syntax-unified -mbe32 -mlittle-endian
@ -mpic-data-is-text-relative -msched-prolog -mthumb -munaligned-access
@ -mvectorize-with-neon-quad

	.text
.Ltext0:
	.cfi_sections	.debug_frame
	.align	1
	.p2align 2,,3
	.global	SET_RUNNING_TASK
	.arch armv7e-m
	.syntax unified
	.thumb
	.thumb_func
	.fpu softvfp
	.type	SET_RUNNING_TASK, %function
SET_RUNNING_TASK:
.LVL0:
.LFB0:
	.file 1 "C:\\Users\\president\\Desktop\\sbx\\input\\src\\os_base\\os_task_queue.c"
	.loc 1 34 1 view -0
	.cfi_startproc
	@ args = 0, pretend = 0, frame = 8
	@ frame_needed = 0, uses_anonymous_args = 0
	.loc 1 35 4 view .LVU1
@ C:\Users\president\Desktop\sbx\input\src\os_base\os_task_queue.c:35:    RUNNING_SCHEDULING_QUEUE_ENTRY = scheduling_task;
	.loc 1 35 35 is_stmt 0 view .LVU2
	ldr	r3, .L11	@ tmp149,
	str	r1, [r3]	@ scheduling_task, RUNNING_SCHEDULING_QUEUE_ENTRY
	.loc 1 36 4 is_stmt 1 view .LVU3
@ C:\Users\president\Desktop\sbx\input\src\os_base\os_task_queue.c:36:    if(task != NULL)
	.loc 1 36 6 is_stmt 0 view .LVU4
	cmp	r0, #0	@ task
	beq	.L7	@
	.loc 1 38 7 is_stmt 1 view .LVU5
@ C:\Users\president\Desktop\sbx\input\src\os_base\os_task_queue.c:34: {
	.loc 1 34 1 is_stmt 0 view .LVU6
	push	{r4, r5, r6, r7, lr}	@
	.cfi_def_cfa_offset 20
	.cfi_offset 4, -20
	.cfi_offset 5, -16
	.cfi_offset 6, -12
	.cfi_offset 7, -8
	.cfi_offset 14, -4
@ C:\Users\president\Desktop\sbx\input\src\os_base\os_task_queue.c:38:       (&RUNNING_TASK[0u])->active                             = task->active;
	.loc 1 38 63 view .LVU7
	ldr	r7, .L11+4	@ tmp154,
@ C:\Users\president\Desktop\sbx\input\src\os_base\os_task_queue.c:38:       (&RUNNING_TASK[0u])->active                             = task->active;
	.loc 1 38 69 view .LVU8
	ldrb	r2, [r0]	@ zero_extendqisi2	@ *task_42(D), *task_42(D)
@ C:\Users\president\Desktop\sbx\input\src\os_base\os_task_queue.c:38:       (&RUNNING_TASK[0u])->active                             = task->active;
	.loc 1 38 63 view .LVU9
	ldrb	r3, [r7]	@ zero_extendqisi2	@, RUNNING_TASK[0].active
@ C:\Users\president\Desktop\sbx\input\src\os_base\os_task_queue.c:43:       (&RUNNING_TASK[0u])->nr_of_ins_activated                = task->nr_of_ins_activated;
	.loc 1 43 69 view .LVU10
	ldrb	r5, [r0, #5]	@ zero_extendqisi2	@ _6, task_42(D)->nr_of_ins_activated
@ C:\Users\president\Desktop\sbx\input\src\os_base\os_task_queue.c:38:       (&RUNNING_TASK[0u])->active                             = task->active;
	.loc 1 38 63 view .LVU11
	bfi	r3, r2, #0, #1	@ RUNNING_TASK[0].active, *task_42(D),,
	strb	r3, [r7]	@ RUNNING_TASK[0].active, RUNNING_TASK[0].active
	.loc 1 39 7 is_stmt 1 view .LVU12
@ C:\Users\president\Desktop\sbx\input\src\os_base\os_task_queue.c:39:       (&RUNNING_TASK[0u])->task_queued                        = task->task_queued;
	.loc 1 39 69 is_stmt 0 view .LVU13
	ldrb	r3, [r0]	@ zero_extendqisi2	@ *task_42(D), *task_42(D)
@ C:\Users\president\Desktop\sbx\input\src\os_base\os_task_queue.c:39:       (&RUNNING_TASK[0u])->task_queued                        = task->task_queued;
	.loc 1 39 63 view .LVU14
	ldrb	r2, [r7]	@ zero_extendqisi2	@, RUNNING_TASK[0].task_queued
@ C:\Users\president\Desktop\sbx\input\src\os_base\os_task_queue.c:39:       (&RUNNING_TASK[0u])->task_queued                        = task->task_queued;
	.loc 1 39 69 view .LVU15
	ubfx	r3, r3, #1, #1	@ _2, *task_42(D),,
@ C:\Users\president\Desktop\sbx\input\src\os_base\os_task_queue.c:39:       (&RUNNING_TASK[0u])->task_queued                        = task->task_queued;
	.loc 1 39 63 view .LVU16
	bfi	r2, r3, #1, #1	@ RUNNING_TASK[0].task_queued, _2,,
	strb	r2, [r7]	@ RUNNING_TASK[0].task_queued, RUNNING_TASK[0].task_queued
	.loc 1 40 7 is_stmt 1 view .LVU17
@ C:\Users\president\Desktop\sbx\input\src\os_base\os_task_queue.c:40:       (&RUNNING_TASK[0u])->idle_task                          = task->idle_task;
	.loc 1 40 69 is_stmt 0 view .LVU18
	ldrb	r3, [r0]	@ zero_extendqisi2	@ *task_42(D), *task_42(D)
@ C:\Users\president\Desktop\sbx\input\src\os_base\os_task_queue.c:40:       (&RUNNING_TASK[0u])->idle_task                          = task->idle_task;
	.loc 1 40 63 view .LVU19
	uxtb	r2, r2	@ tmp169, RUNNING_TASK[0].task_queued
@ C:\Users\president\Desktop\sbx\input\src\os_base\os_task_queue.c:40:       (&RUNNING_TASK[0u])->idle_task                          = task->idle_task;
	.loc 1 40 69 view .LVU20
	ubfx	r3, r3, #2, #1	@ _3, *task_42(D),,
@ C:\Users\president\Desktop\sbx\input\src\os_base\os_task_queue.c:40:       (&RUNNING_TASK[0u])->idle_task                          = task->idle_task;
	.loc 1 40 63 view .LVU21
	bfi	r2, r3, #2, #1	@ RUNNING_TASK[0].idle_task, _3,,
	strb	r2, [r7]	@ RUNNING_TASK[0].idle_task, RUNNING_TASK[0].idle_task
	.loc 1 41 7 is_stmt 1 view .LVU22
@ C:\Users\president\Desktop\sbx\input\src\os_base\os_task_queue.c:41:       (&RUNNING_TASK[0u])->free                               = task->free;
	.loc 1 41 69 is_stmt 0 view .LVU23
	ldr	r3, [r0]	@ *task_42(D), *task_42(D)
@ C:\Users\president\Desktop\sbx\input\src\os_base\os_task_queue.c:41:       (&RUNNING_TASK[0u])->free                               = task->free;
	.loc 1 41 63 view .LVU24
	ldr	r2, [r7]	@ RUNNING_TASK[0].free, RUNNING_TASK[0].free
@ C:\Users\president\Desktop\sbx\input\src\os_base\os_task_queue.c:41:       (&RUNNING_TASK[0u])->free                               = task->free;
	.loc 1 41 69 view .LVU25
	ubfx	r3, r3, #3, #29	@ _4, *task_42(D),,
@ C:\Users\president\Desktop\sbx\input\src\os_base\os_task_queue.c:41:       (&RUNNING_TASK[0u])->free                               = task->free;
	.loc 1 41 63 view .LVU26
	bfi	r2, r3, #3, #29	@ RUNNING_TASK[0].free, _4,,
	mov	r4, r0	@ task, task
	str	r2, [r7]	@ RUNNING_TASK[0].free, RUNNING_TASK[0].free
	.loc 1 42 7 is_stmt 1 view .LVU27
@ C:\Users\president\Desktop\sbx\input\src\os_base\os_task_queue.c:34: {
	.loc 1 34 1 is_stmt 0 view .LVU28
	sub	sp, sp, #12	@,,
	.cfi_def_cfa_offset 32
@ C:\Users\president\Desktop\sbx\input\src\os_base\os_task_queue.c:42:       (&RUNNING_TASK[0u])->nr_of_ins_allowed                  = task->nr_of_ins_allowed;
	.loc 1 42 69 view .LVU29
	ldrb	r3, [r0, #4]	@ zero_extendqisi2	@ _5, task_42(D)->nr_of_ins_allowed
@ C:\Users\president\Desktop\sbx\input\src\os_base\os_task_queue.c:42:       (&RUNNING_TASK[0u])->nr_of_ins_allowed                  = task->nr_of_ins_allowed;
	.loc 1 42 63 view .LVU30
	strb	r3, [r7, #4]	@ _5, RUNNING_TASK[0].nr_of_ins_allowed
	.loc 1 43 7 is_stmt 1 view .LVU31
@ C:\Users\president\Desktop\sbx\input\src\os_base\os_task_queue.c:44:       ASSIGN(&(&RUNNING_TASK[0u])->wait_act_until, &task->wait_act_until);
	.loc 1 44 7 is_stmt 0 view .LVU32
	adds	r0, r7, #6	@, tmp154,
.LVL1:
	.loc 1 44 7 view .LVU33
	adds	r1, r4, #6	@, task,
.LVL2:
@ C:\Users\president\Desktop\sbx\input\src\os_base\os_task_queue.c:43:       (&RUNNING_TASK[0u])->nr_of_ins_activated                = task->nr_of_ins_activated;
	.loc 1 43 63 view .LVU34
	strb	r5, [r7, #5]	@ _6, RUNNING_TASK[0].nr_of_ins_activated
	.loc 1 44 7 is_stmt 1 view .LVU35
	bl	ASSIGN		@
.LVL3:
	.loc 1 45 7 view .LVU36
	add	r0, r7, #22	@, tmp154,
	add	r1, r4, #22	@, task,
	bl	ASSIGN		@
.LVL4:
	.loc 1 46 7 view .LVU37
	add	r0, r7, #38	@, tmp154,
	add	r1, r4, #38	@, task,
	bl	ASSIGN		@
.LVL5:
	.loc 1 47 7 view .LVU38
@ C:\Users\president\Desktop\sbx\input\src\os_base\os_task_queue.c:47:       (&RUNNING_TASK[0u])->overwaittime_per_prio_inc_step  = task->overwaittime_per_prio_inc_step;
	.loc 1 47 66 is_stmt 0 view .LVU39
	ldr	r3, [r4, #56]	@ _10, task_42(D)->overwaittime_per_prio_inc_step
@ C:\Users\president\Desktop\sbx\input\src\os_base\os_task_queue.c:47:       (&RUNNING_TASK[0u])->overwaittime_per_prio_inc_step  = task->overwaittime_per_prio_inc_step;
	.loc 1 47 60 view .LVU40
	str	r3, [r7, #56]	@ _10, RUNNING_TASK[0].overwaittime_per_prio_inc_step
	.loc 1 48 7 is_stmt 1 view .LVU41
	add	r0, r7, #60	@, tmp154,
	add	r1, r4, #60	@, task,
	bl	ASSIGN		@
.LVL6:
	.loc 1 49 7 view .LVU42
	add	r0, r7, #76	@, tmp154,
	add	r1, r4, #76	@, task,
	bl	ASSIGN		@
.LVL7:
	.loc 1 50 7 view .LVU43
	add	r0, r7, #92	@, tmp154,
	add	r1, r4, #92	@, task,
	bl	ASSIGN		@
.LVL8:
	.loc 1 51 7 view .LVU44
@ C:\Users\president\Desktop\sbx\input\src\os_base\os_task_queue.c:53:       (&RUNNING_TASK[0u])->fp                              = task->fp;
	.loc 1 53 66 is_stmt 0 view .LVU45
	ldrd	r1, r2, [r4, #116]	@ vect__16.6, vect__16.7, task,
@ C:\Users\president\Desktop\sbx\input\src\os_base\os_task_queue.c:56:       (&RUNNING_TASK[0u])->task_group                      = task->task_group;
	.loc 1 56 66 view .LVU46
	ldr	r3, [r4, #128]	@ _19, task_42(D)->task_group
@ C:\Users\president\Desktop\sbx\input\src\os_base\os_task_queue.c:51:       (&RUNNING_TASK[0u])->current_prio                    = task->current_prio;
	.loc 1 51 66 view .LVU47
	ldrb	r5, [r4, #108]	@ zero_extendqisi2	@ _14, task_42(D)->current_prio
@ C:\Users\president\Desktop\sbx\input\src\os_base\os_task_queue.c:52:       (&RUNNING_TASK[0u])->default_prio                    = task->default_prio;
	.loc 1 52 66 view .LVU48
	ldrb	r0, [r4, #109]	@ zero_extendqisi2	@ _15, task_42(D)->default_prio
@ C:\Users\president\Desktop\sbx\input\src\os_base\os_task_queue.c:55:       (&RUNNING_TASK[0u])->task_state                      = task->task_state;
	.loc 1 55 66 view .LVU49
	ldrb	ip, [r4, #124]	@ zero_extendqisi2	@ _18, task_42(D)->task_state
@ C:\Users\president\Desktop\sbx\input\src\os_base\os_task_queue.c:56:       (&RUNNING_TASK[0u])->task_group                      = task->task_group;
	.loc 1 56 60 view .LVU50
	str	r3, [r7, #128]	@ _19, RUNNING_TASK[0].task_group
@ C:\Users\president\Desktop\sbx\input\src\os_base\os_task_queue.c:63:       (&RUNNING_TASK[0u])->r0                             = task->r0;
	.loc 1 63 65 view .LVU51
	ldr	r3, [r4, #156]	@ vect__20.18, MEM[(long unsigned int *)task_42(D) + 156B]
	ldr	r6, [r4, #136]	@ vect__20.13, MEM[(long unsigned int *)task_42(D) + 136B]
	str	r3, [sp, #4]	@ vect__20.18, %sfp
@ C:\Users\president\Desktop\sbx\input\src\os_base\os_task_queue.c:63:       (&RUNNING_TASK[0u])->r0                             = task->r0;
	.loc 1 63 59 view .LVU52
	ldr	r3, [r4, #132]	@ tmp219, MEM[(long unsigned int *)task_42(D) + 132B]
@ C:\Users\president\Desktop\sbx\input\src\os_base\os_task_queue.c:53:       (&RUNNING_TASK[0u])->fp                              = task->fp;
	.loc 1 53 60 view .LVU53
	str	r1, [r7, #116]	@ vect__16.6, MEM[(void *)&RUNNING_TASK + 116B]
	str	r2, [r7, #120]	@ vect__16.7, MEM[(void *)&RUNNING_TASK + 120B]
@ C:\Users\president\Desktop\sbx\input\src\os_base\os_task_queue.c:63:       (&RUNNING_TASK[0u])->r0                             = task->r0;
	.loc 1 63 65 view .LVU54
	ldr	r1, [r4, #148]	@ vect__20.16, MEM[(long unsigned int *)task_42(D) + 148B]
	ldr	r2, [r4, #152]	@ vect__20.17, MEM[(long unsigned int *)task_42(D) + 152B]
@ C:\Users\president\Desktop\sbx\input\src\os_base\os_task_queue.c:51:       (&RUNNING_TASK[0u])->current_prio                    = task->current_prio;
	.loc 1 51 60 view .LVU55
	strb	r5, [r7, #108]	@ _14, RUNNING_TASK[0].current_prio
	.loc 1 52 7 is_stmt 1 view .LVU56
@ C:\Users\president\Desktop\sbx\input\src\os_base\os_task_queue.c:63:       (&RUNNING_TASK[0u])->r0                             = task->r0;
	.loc 1 63 59 is_stmt 0 view .LVU57
	strd	r3, r6, [r7, #132]	@ tmp219, vect__20.13, tmp154,
@ C:\Users\president\Desktop\sbx\input\src\os_base\os_task_queue.c:63:       (&RUNNING_TASK[0u])->r0                             = task->r0;
	.loc 1 63 65 view .LVU58
	ldr	r5, [r4, #140]	@ vect__20.14, MEM[(long unsigned int *)task_42(D) + 140B]
@ C:\Users\president\Desktop\sbx\input\src\os_base\os_task_queue.c:63:       (&RUNNING_TASK[0u])->r0                             = task->r0;
	.loc 1 63 59 view .LVU59
	ldr	r3, [sp, #4]	@ vect__20.18, %sfp
@ C:\Users\president\Desktop\sbx\input\src\os_base\os_task_queue.c:52:       (&RUNNING_TASK[0u])->default_prio                    = task->default_prio;
	.loc 1 52 60 view .LVU60
	strb	r0, [r7, #109]	@ _15, RUNNING_TASK[0].default_prio
	.loc 1 53 7 is_stmt 1 view .LVU61
	.loc 1 54 7 view .LVU62
	.loc 1 55 7 view .LVU63
@ C:\Users\president\Desktop\sbx\input\src\os_base\os_task_queue.c:63:       (&RUNNING_TASK[0u])->r0                             = task->r0;
	.loc 1 63 65 is_stmt 0 view .LVU64
	ldr	r0, [r4, #144]	@ vect__20.15, MEM[(long unsigned int *)task_42(D) + 144B]
@ C:\Users\president\Desktop\sbx\input\src\os_base\os_task_queue.c:63:       (&RUNNING_TASK[0u])->r0                             = task->r0;
	.loc 1 63 59 view .LVU65
	str	r3, [r7, #156]	@ vect__20.18, MEM[(long unsigned int *)&RUNNING_TASK + 156B]
	strd	r1, r2, [r7, #148]	@ vect__20.16, vect__20.17, tmp154,
@ C:\Users\president\Desktop\sbx\input\src\os_base\os_task_queue.c:63:       (&RUNNING_TASK[0u])->r0                             = task->r0;
	.loc 1 63 65 view .LVU66
	ldrd	r2, r3, [r4, #172]	@ vect__20.22, vect__20.23, task,
	ldr	r1, [r4, #164]	@ vect__20.20, MEM[(long unsigned int *)task_42(D) + 164B]
	ldr	r6, [r4, #180]	@ vect__20.24, MEM[(long unsigned int *)task_42(D) + 180B]
@ C:\Users\president\Desktop\sbx\input\src\os_base\os_task_queue.c:55:       (&RUNNING_TASK[0u])->task_state                      = task->task_state;
	.loc 1 55 60 view .LVU67
	strb	ip, [r7, #124]	@ _18, RUNNING_TASK[0].task_state
	.loc 1 56 7 is_stmt 1 view .LVU68
	.loc 1 63 7 view .LVU69
	.loc 1 64 7 view .LVU70
	.loc 1 65 7 view .LVU71
	.loc 1 66 7 view .LVU72
	.loc 1 67 7 view .LVU73
	.loc 1 68 7 view .LVU74
	.loc 1 69 7 view .LVU75
	.loc 1 70 7 view .LVU76
	.loc 1 71 7 view .LVU77
	.loc 1 72 7 view .LVU78
	.loc 1 73 7 view .LVU79
	.loc 1 74 7 view .LVU80
	.loc 1 75 7 view .LVU81
@ C:\Users\president\Desktop\sbx\input\src\os_base\os_task_queue.c:63:       (&RUNNING_TASK[0u])->r0                             = task->r0;
	.loc 1 63 59 is_stmt 0 view .LVU82
	strd	r5, r0, [r7, #140]	@ vect__20.14, vect__20.15, tmp154,
	ldr	r0, [r4, #160]	@ tmp220, MEM[(long unsigned int *)task_42(D) + 160B]
	str	r1, [r7, #164]	@ vect__20.20, MEM[(long unsigned int *)&RUNNING_TASK + 164B]
@ C:\Users\president\Desktop\sbx\input\src\os_base\os_task_queue.c:78:       (&RUNNING_TASK[0u])->p_stack_pointer                   = task->p_stack_pointer;
	.loc 1 78 68 view .LVU83
	ldr	r1, [r4, #192]	@ vect__33.31, MEM[(unsigned_char_t * *)task_42(D) + 192B]
	str	r1, [sp, #4]	@ vect__33.31, %sfp
@ C:\Users\president\Desktop\sbx\input\src\os_base\os_task_queue.c:63:       (&RUNNING_TASK[0u])->r0                             = task->r0;
	.loc 1 63 59 view .LVU84
	str	r0, [r7, #160]	@ tmp220, MEM[(long unsigned int *)&RUNNING_TASK + 160B]
	ldr	r1, [r4, #168]	@ tmp221, MEM[(long unsigned int *)task_42(D) + 168B]
	str	r1, [r7, #168]	@ tmp221, MEM[(long unsigned int *)&RUNNING_TASK + 168B]
@ C:\Users\president\Desktop\sbx\input\src\os_base\os_task_queue.c:78:       (&RUNNING_TASK[0u])->p_stack_pointer                   = task->p_stack_pointer;
	.loc 1 78 68 view .LVU85
	ldrd	r5, r0, [r4, #184]	@ vect__33.29, vect__33.30, task,
@ C:\Users\president\Desktop\sbx\input\src\os_base\os_task_queue.c:81:       (&RUNNING_TASK[0u])->stack_size                       = task->stack_size;
	.loc 1 81 67 view .LVU86
	ldr	r1, [r4, #196]	@ tmp222, task_42(D)->stack_size
@ C:\Users\president\Desktop\sbx\input\src\os_base\os_task_queue.c:82:       (&RUNNING_TASK[0u])->p_stack_pointer_end                = task->p_stack_pointer_end;
	.loc 1 82 69 view .LVU87
	ldr	r4, [r4, #200]	@ _37, task_42(D)->p_stack_pointer_end
.LVL9:
@ C:\Users\president\Desktop\sbx\input\src\os_base\os_task_queue.c:81:       (&RUNNING_TASK[0u])->stack_size                       = task->stack_size;
	.loc 1 81 67 view .LVU88
	str	r1, [r7, #196]	@ tmp222, RUNNING_TASK[0].stack_size
@ C:\Users\president\Desktop\sbx\input\src\os_base\os_task_queue.c:63:       (&RUNNING_TASK[0u])->r0                             = task->r0;
	.loc 1 63 59 view .LVU89
	strd	r2, r3, [r7, #172]	@ vect__20.22, vect__20.23, tmp154,
@ C:\Users\president\Desktop\sbx\input\src\os_base\os_task_queue.c:78:       (&RUNNING_TASK[0u])->p_stack_pointer                   = task->p_stack_pointer;
	.loc 1 78 62 view .LVU90
	ldr	r3, [sp, #4]	@ vect__33.31, %sfp
	str	r0, [r7, #188]	@ vect__33.30, MEM[(unsigned_char_t * *)&RUNNING_TASK + 188B]
	strd	r6, r5, [r7, #180]	@ vect__20.24, vect__33.29, tmp154,
	str	r3, [r7, #192]	@ vect__33.31, MEM[(unsigned_char_t * *)&RUNNING_TASK + 192B]
	.loc 1 81 7 is_stmt 1 view .LVU91
	.loc 1 82 7 view .LVU92
@ C:\Users\president\Desktop\sbx\input\src\os_base\os_task_queue.c:82:       (&RUNNING_TASK[0u])->p_stack_pointer_end                = task->p_stack_pointer_end;
	.loc 1 82 63 is_stmt 0 view .LVU93
	str	r4, [r7, #200]	@ _37, RUNNING_TASK[0].p_stack_pointer_end
@ C:\Users\president\Desktop\sbx\input\src\os_base\os_task_queue.c:84: }
	.loc 1 84 1 view .LVU94
	add	sp, sp, #12	@,,
	.cfi_def_cfa_offset 20
	@ sp needed	@
	pop	{r4, r5, r6, r7, pc}	@
.LVL10:
.L7:
	.cfi_def_cfa_offset 0
	.cfi_restore 4
	.cfi_restore 5
	.cfi_restore 6
	.cfi_restore 7
	.cfi_restore 14
	.loc 1 84 1 view .LVU95
	bx	lr	@
.L12:
	.align	2
.L11:
	.word	RUNNING_SCHEDULING_QUEUE_ENTRY
	.word	RUNNING_TASK
	.cfi_endproc
.LFE0:
	.size	SET_RUNNING_TASK, .-SET_RUNNING_TASK
	.align	1
	.p2align 2,,3
	.global	OS_INIT_TASK_QUEUE
	.syntax unified
	.thumb
	.thumb_func
	.fpu softvfp
	.type	OS_INIT_TASK_QUEUE, %function
OS_INIT_TASK_QUEUE:
.LFB1:
	.loc 1 88 1 is_stmt 1 view -0
	.cfi_startproc
	@ args = 0, pretend = 0, frame = 0
	@ frame_needed = 0, uses_anonymous_args = 0
	.loc 1 89 4 view .LVU97
@ C:\Users\president\Desktop\sbx\input\src\os_base\os_task_queue.c:88: {
	.loc 1 88 1 is_stmt 0 view .LVU98
	push	{r4, r5, r6, r7, r8, lr}	@
	.cfi_def_cfa_offset 24
	.cfi_offset 4, -24
	.cfi_offset 5, -20
	.cfi_offset 6, -16
	.cfi_offset 7, -12
	.cfi_offset 8, -8
	.cfi_offset 14, -4
@ C:\Users\president\Desktop\sbx\input\src\os_base\os_task_queue.c:89:    if(bTASK_QUEUE_INITIALIZED == FALSE)
	.loc 1 89 31 view .LVU99
	ldr	r8, .L18+8	@ tmp122,
@ C:\Users\president\Desktop\sbx\input\src\os_base\os_task_queue.c:89:    if(bTASK_QUEUE_INITIALIZED == FALSE)
	.loc 1 89 6 view .LVU100
	ldrb	r6, [r8]	@ zero_extendqisi2	@ bTASK_QUEUE_INITIALIZED, bTASK_QUEUE_INITIALIZED
	cbnz	r6, .L13	@ bTASK_QUEUE_INITIALIZED,
	ldr	r4, .L18	@ ivtmp.42,
	ldr	r5, .L18+4	@ ivtmp.43,
	add	r7, r4, #40	@ _24, ivtmp.42,
.L15:
.LBB2:
	.loc 1 94 10 is_stmt 1 view .LVU101
@ C:\Users\president\Desktop\sbx\input\src\os_base\os_task_queue.c:94:          TASK_SCHEDULING_QUEUE[element_nr] = (scheduling_t)0u;
	.loc 1 94 44 is_stmt 0 view .LVU102
	str	r6, [r4], #4	@ tmp118, MEM[base: _19, offset: 0B]
	.loc 1 95 10 is_stmt 1 view .LVU103
	mov	r0, r5	@, ivtmp.43
	bl	OS_TASK_INIT_TASK_ENVIRONMENT		@
.LVL11:
	.loc 1 96 10 view .LVU104
@ C:\Users\president\Desktop\sbx\input\src\os_base\os_task_queue.c:92:       while(element_nr < MAX_RUN_QUEUE_SIZE)
	.loc 1 92 12 is_stmt 0 view .LVU105
	cmp	r4, r7	@ ivtmp.42, _24
	add	r5, r5, #208	@ ivtmp.43, ivtmp.43,
	bne	.L15		@,
	.loc 1 98 7 is_stmt 1 view .LVU106
@ C:\Users\president\Desktop\sbx\input\src\os_base\os_task_queue.c:98:       bTASK_QUEUE_INITIALIZED = TRUE;
	.loc 1 98 31 is_stmt 0 view .LVU107
	movs	r3, #1	@ tmp120,
	strb	r3, [r8]	@ tmp120, bTASK_QUEUE_INITIALIZED
.L13:
	.loc 1 98 31 view .LVU108
.LBE2:
@ C:\Users\president\Desktop\sbx\input\src\os_base\os_task_queue.c:100: }
	.loc 1 100 1 view .LVU109
	pop	{r4, r5, r6, r7, r8, pc}	@
.L19:
	.align	2
.L18:
	.word	TASK_SCHEDULING_QUEUE
	.word	TASK_RUN_QUEUE
	.word	bTASK_QUEUE_INITIALIZED
	.cfi_endproc
.LFE1:
	.size	OS_INIT_TASK_QUEUE, .-OS_INIT_TASK_QUEUE
	.align	1
	.p2align 2,,3
	.global	ADD_TO_TASK_QUEUE
	.syntax unified
	.thumb
	.thumb_func
	.fpu softvfp
	.type	ADD_TO_TASK_QUEUE, %function
ADD_TO_TASK_QUEUE:
.LVL12:
.LFB2:
	.loc 1 102 1 is_stmt 1 view -0
	.cfi_startproc
	@ args = 0, pretend = 0, frame = 24
	@ frame_needed = 0, uses_anonymous_args = 0
	.loc 1 103 4 view .LVU111
	.loc 1 104 4 view .LVU112
	.loc 1 106 4 view .LVU113
@ C:\Users\president\Desktop\sbx\input\src\os_base\os_task_queue.c:102: {
	.loc 1 102 1 is_stmt 0 view .LVU114
	push	{r4, r5, r6, r7, r8, r9, r10, fp, lr}	@
	.cfi_def_cfa_offset 36
	.cfi_offset 4, -36
	.cfi_offset 5, -32
	.cfi_offset 6, -28
	.cfi_offset 7, -24
	.cfi_offset 8, -20
	.cfi_offset 9, -16
	.cfi_offset 10, -12
	.cfi_offset 11, -8
	.cfi_offset 14, -4
@ C:\Users\president\Desktop\sbx\input\src\os_base\os_task_queue.c:107:           &&((&TASK_RUN_QUEUE[element_nr])->task_queued == TRUE)
	.loc 1 107 43 view .LVU115
	ldr	r5, .L34	@ tmp361,
	ldrb	r3, [r5]	@ zero_extendqisi2	@ TASK_RUN_QUEUE, TASK_RUN_QUEUE
@ C:\Users\president\Desktop\sbx\input\src\os_base\os_task_queue.c:107:           &&((&TASK_RUN_QUEUE[element_nr])->task_queued == TRUE)
	.loc 1 107 11 view .LVU116
	ubfx	r3, r3, #1, #1	@ tmp181, TASK_RUN_QUEUE,,
@ C:\Users\president\Desktop\sbx\input\src\os_base\os_task_queue.c:102: {
	.loc 1 102 1 view .LVU117
	sub	sp, sp, #28	@,,
	.cfi_def_cfa_offset 64
@ C:\Users\president\Desktop\sbx\input\src\os_base\os_task_queue.c:107:           &&((&TASK_RUN_QUEUE[element_nr])->task_queued == TRUE)
	.loc 1 107 11 view .LVU118
	cmp	r3, #0	@ tmp181
	beq	.L23	@
	.loc 1 110 7 is_stmt 1 view .LVU119
.LVL13:
@ C:\Users\president\Desktop\sbx\input\src\os_base\os_task_queue.c:107:           &&((&TASK_RUN_QUEUE[element_nr])->task_queued == TRUE)
	.loc 1 107 43 is_stmt 0 view .LVU120
	ldrb	r2, [r5, #208]	@ zero_extendqisi2	@ TASK_RUN_QUEUE, TASK_RUN_QUEUE
@ C:\Users\president\Desktop\sbx\input\src\os_base\os_task_queue.c:107:           &&((&TASK_RUN_QUEUE[element_nr])->task_queued == TRUE)
	.loc 1 107 11 view .LVU121
	lsls	r1, r2, #30	@, TASK_RUN_QUEUE,
	bpl	.L21		@,
	.loc 1 110 7 is_stmt 1 view .LVU122
.LVL14:
@ C:\Users\president\Desktop\sbx\input\src\os_base\os_task_queue.c:107:           &&((&TASK_RUN_QUEUE[element_nr])->task_queued == TRUE)
	.loc 1 107 43 is_stmt 0 view .LVU123
	ldrb	r3, [r5, #416]	@ zero_extendqisi2	@ TASK_RUN_QUEUE, TASK_RUN_QUEUE
@ C:\Users\president\Desktop\sbx\input\src\os_base\os_task_queue.c:107:           &&((&TASK_RUN_QUEUE[element_nr])->task_queued == TRUE)
	.loc 1 107 11 view .LVU124
	lsls	r2, r3, #30	@, TASK_RUN_QUEUE,
	bpl	.L25		@,
	.loc 1 110 7 is_stmt 1 view .LVU125
.LVL15:
@ C:\Users\president\Desktop\sbx\input\src\os_base\os_task_queue.c:107:           &&((&TASK_RUN_QUEUE[element_nr])->task_queued == TRUE)
	.loc 1 107 43 is_stmt 0 view .LVU126
	ldrb	r3, [r5, #624]	@ zero_extendqisi2	@ TASK_RUN_QUEUE, TASK_RUN_QUEUE
@ C:\Users\president\Desktop\sbx\input\src\os_base\os_task_queue.c:107:           &&((&TASK_RUN_QUEUE[element_nr])->task_queued == TRUE)
	.loc 1 107 11 view .LVU127
	lsls	r3, r3, #30	@, TASK_RUN_QUEUE,
	bpl	.L26		@,
	.loc 1 110 7 is_stmt 1 view .LVU128
.LVL16:
@ C:\Users\president\Desktop\sbx\input\src\os_base\os_task_queue.c:107:           &&((&TASK_RUN_QUEUE[element_nr])->task_queued == TRUE)
	.loc 1 107 43 is_stmt 0 view .LVU129
	ldrb	r3, [r5, #832]	@ zero_extendqisi2	@ TASK_RUN_QUEUE, TASK_RUN_QUEUE
@ C:\Users\president\Desktop\sbx\input\src\os_base\os_task_queue.c:107:           &&((&TASK_RUN_QUEUE[element_nr])->task_queued == TRUE)
	.loc 1 107 11 view .LVU130
	lsls	r7, r3, #30	@, TASK_RUN_QUEUE,
	bpl	.L27		@,
	.loc 1 110 7 is_stmt 1 view .LVU131
.LVL17:
@ C:\Users\president\Desktop\sbx\input\src\os_base\os_task_queue.c:107:           &&((&TASK_RUN_QUEUE[element_nr])->task_queued == TRUE)
	.loc 1 107 43 is_stmt 0 view .LVU132
	ldrb	r3, [r5, #1040]	@ zero_extendqisi2	@ TASK_RUN_QUEUE, TASK_RUN_QUEUE
@ C:\Users\president\Desktop\sbx\input\src\os_base\os_task_queue.c:107:           &&((&TASK_RUN_QUEUE[element_nr])->task_queued == TRUE)
	.loc 1 107 11 view .LVU133
	lsls	r6, r3, #30	@, TASK_RUN_QUEUE,
	bpl	.L28		@,
	.loc 1 110 7 is_stmt 1 view .LVU134
.LVL18:
@ C:\Users\president\Desktop\sbx\input\src\os_base\os_task_queue.c:107:           &&((&TASK_RUN_QUEUE[element_nr])->task_queued == TRUE)
	.loc 1 107 43 is_stmt 0 view .LVU135
	ldrb	r3, [r5, #1248]	@ zero_extendqisi2	@ TASK_RUN_QUEUE, TASK_RUN_QUEUE
@ C:\Users\president\Desktop\sbx\input\src\os_base\os_task_queue.c:107:           &&((&TASK_RUN_QUEUE[element_nr])->task_queued == TRUE)
	.loc 1 107 11 view .LVU136
	lsls	r4, r3, #30	@, TASK_RUN_QUEUE,
	bpl	.L29		@,
	.loc 1 110 7 is_stmt 1 view .LVU137
.LVL19:
@ C:\Users\president\Desktop\sbx\input\src\os_base\os_task_queue.c:107:           &&((&TASK_RUN_QUEUE[element_nr])->task_queued == TRUE)
	.loc 1 107 43 is_stmt 0 view .LVU138
	ldrb	r3, [r5, #1456]	@ zero_extendqisi2	@ TASK_RUN_QUEUE, TASK_RUN_QUEUE
@ C:\Users\president\Desktop\sbx\input\src\os_base\os_task_queue.c:107:           &&((&TASK_RUN_QUEUE[element_nr])->task_queued == TRUE)
	.loc 1 107 11 view .LVU139
	lsls	r1, r3, #30	@, TASK_RUN_QUEUE,
	bpl	.L30		@,
	.loc 1 110 7 is_stmt 1 view .LVU140
.LVL20:
@ C:\Users\president\Desktop\sbx\input\src\os_base\os_task_queue.c:107:           &&((&TASK_RUN_QUEUE[element_nr])->task_queued == TRUE)
	.loc 1 107 43 is_stmt 0 view .LVU141
	ldrb	r3, [r5, #1664]	@ zero_extendqisi2	@ TASK_RUN_QUEUE, TASK_RUN_QUEUE
@ C:\Users\president\Desktop\sbx\input\src\os_base\os_task_queue.c:107:           &&((&TASK_RUN_QUEUE[element_nr])->task_queued == TRUE)
	.loc 1 107 11 view .LVU142
	lsls	r2, r3, #30	@, TASK_RUN_QUEUE,
	bpl	.L31		@,
	.loc 1 110 7 is_stmt 1 view .LVU143
.LVL21:
@ C:\Users\president\Desktop\sbx\input\src\os_base\os_task_queue.c:107:           &&((&TASK_RUN_QUEUE[element_nr])->task_queued == TRUE)
	.loc 1 107 43 is_stmt 0 view .LVU144
	ldrb	r3, [r5, #1872]	@ zero_extendqisi2	@ TASK_RUN_QUEUE, TASK_RUN_QUEUE
@ C:\Users\president\Desktop\sbx\input\src\os_base\os_task_queue.c:107:           &&((&TASK_RUN_QUEUE[element_nr])->task_queued == TRUE)
	.loc 1 107 11 view .LVU145
	lsls	r3, r3, #30	@, TASK_RUN_QUEUE,
	bpl	.L32		@,
@ C:\Users\president\Desktop\sbx\input\src\os_base\os_task_queue.c:104:    task_t* ret_task = 0u;
	.loc 1 104 12 view .LVU146
	movs	r0, #0	@ <retval>,
.LVL22:
	.loc 1 161 4 is_stmt 1 view .LVU147
@ C:\Users\president\Desktop\sbx\input\src\os_base\os_task_queue.c:162: }
	.loc 1 162 1 is_stmt 0 view .LVU148
	add	sp, sp, #28	@,,
	.cfi_remember_state
	.cfi_def_cfa_offset 36
	@ sp needed	@
	pop	{r4, r5, r6, r7, r8, r9, r10, fp, pc}	@
.LVL23:
.L29:
	.cfi_restore_state
@ C:\Users\president\Desktop\sbx\input\src\os_base\os_task_queue.c:107:           &&((&TASK_RUN_QUEUE[element_nr])->task_queued == TRUE)
	.loc 1 107 43 view .LVU149
	movs	r3, #6	@ _119,
.LVL24:
.L21:
	.loc 1 113 4 is_stmt 1 view .LVU150
	.loc 1 115 7 view .LVU151
@ C:\Users\president\Desktop\sbx\input\src\os_base\os_task_queue.c:115:       (&TASK_RUN_QUEUE[element_nr])->active                          = task->active;
	.loc 1 115 70 is_stmt 0 view .LVU152
	movs	r7, #208	@ tmp243,
	mul	r7, r7, r3	@ tmp242, tmp243, _119
@ C:\Users\president\Desktop\sbx\input\src\os_base\os_task_queue.c:115:       (&TASK_RUN_QUEUE[element_nr])->active                          = task->active;
	.loc 1 115 76 view .LVU153
	ldrb	r2, [r0]	@ zero_extendqisi2	@ *task_53(D), *task_53(D)
@ C:\Users\president\Desktop\sbx\input\src\os_base\os_task_queue.c:115:       (&TASK_RUN_QUEUE[element_nr])->active                          = task->active;
	.loc 1 115 70 view .LVU154
	ldrb	r3, [r5, r7]	@ zero_extendqisi2	@, TASK_RUN_QUEUE[_119].active
	bfi	r3, r2, #0, #1	@ TASK_RUN_QUEUE[_119].active, *task_53(D),,
@ C:\Users\president\Desktop\sbx\input\src\os_base\os_task_queue.c:116:       (&TASK_RUN_QUEUE[element_nr])->task_queued                     = TRUE;
	.loc 1 116 70 view .LVU155
	orr	r3, r3, #2	@ tmp253, TASK_RUN_QUEUE[_119].active,
	strb	r3, [r5, r7]	@ tmp253, TASK_RUN_QUEUE[_119].task_queued
@ C:\Users\president\Desktop\sbx\input\src\os_base\os_task_queue.c:117:       (&TASK_RUN_QUEUE[element_nr])->idle_task                        = task->idle_task;
	.loc 1 117 77 view .LVU156
	ldrb	r3, [r0]	@ zero_extendqisi2	@ *task_53(D), *task_53(D)
@ C:\Users\president\Desktop\sbx\input\src\os_base\os_task_queue.c:117:       (&TASK_RUN_QUEUE[element_nr])->idle_task                        = task->idle_task;
	.loc 1 117 71 view .LVU157
	ldrb	r2, [r5, r7]	@ zero_extendqisi2	@, TASK_RUN_QUEUE[_119].idle_task
@ C:\Users\president\Desktop\sbx\input\src\os_base\os_task_queue.c:117:       (&TASK_RUN_QUEUE[element_nr])->idle_task                        = task->idle_task;
	.loc 1 117 77 view .LVU158
	ubfx	r3, r3, #2, #1	@ _7, *task_53(D),,
@ C:\Users\president\Desktop\sbx\input\src\os_base\os_task_queue.c:117:       (&TASK_RUN_QUEUE[element_nr])->idle_task                        = task->idle_task;
	.loc 1 117 71 view .LVU159
	bfi	r2, r3, #2, #1	@ TASK_RUN_QUEUE[_119].idle_task, _7,,
	strb	r2, [r5, r7]	@ TASK_RUN_QUEUE[_119].idle_task, TASK_RUN_QUEUE[_119].idle_task
@ C:\Users\president\Desktop\sbx\input\src\os_base\os_task_queue.c:118:       (&TASK_RUN_QUEUE[element_nr])->free                            = task->free;
	.loc 1 118 76 view .LVU160
	ldr	r3, [r0]	@ *task_53(D), *task_53(D)
@ C:\Users\president\Desktop\sbx\input\src\os_base\os_task_queue.c:118:       (&TASK_RUN_QUEUE[element_nr])->free                            = task->free;
	.loc 1 118 70 view .LVU161
	ldr	r2, [r5, r7]	@ TASK_RUN_QUEUE[_119].free, TASK_RUN_QUEUE[_119].free
@ C:\Users\president\Desktop\sbx\input\src\os_base\os_task_queue.c:118:       (&TASK_RUN_QUEUE[element_nr])->free                            = task->free;
	.loc 1 118 76 view .LVU162
	ubfx	r3, r3, #3, #29	@ _8, *task_53(D),,
@ C:\Users\president\Desktop\sbx\input\src\os_base\os_task_queue.c:118:       (&TASK_RUN_QUEUE[element_nr])->free                            = task->free;
	.loc 1 118 70 view .LVU163
	bfi	r2, r3, #3, #29	@ TASK_RUN_QUEUE[_119].free, _8,,
	str	r2, [r5, r7]	@ TASK_RUN_QUEUE[_119].free, TASK_RUN_QUEUE[_119].free
@ C:\Users\president\Desktop\sbx\input\src\os_base\os_task_queue.c:115:       (&TASK_RUN_QUEUE[element_nr])->active                          = task->active;
	.loc 1 115 70 view .LVU164
	adds	r6, r5, r7	@ tmp244, tmp361, tmp242
	.loc 1 116 7 is_stmt 1 view .LVU165
	.loc 1 117 7 view .LVU166
	.loc 1 118 7 view .LVU167
	.loc 1 119 7 view .LVU168
	mov	r4, r0	@ task, task
@ C:\Users\president\Desktop\sbx\input\src\os_base\os_task_queue.c:119:       (&TASK_RUN_QUEUE[element_nr])->nr_of_ins_allowed                  = task->nr_of_ins_allowed;
	.loc 1 119 79 is_stmt 0 view .LVU169
	ldrb	r3, [r0, #4]	@ zero_extendqisi2	@ _9, task_53(D)->nr_of_ins_allowed
@ C:\Users\president\Desktop\sbx\input\src\os_base\os_task_queue.c:119:       (&TASK_RUN_QUEUE[element_nr])->nr_of_ins_allowed                  = task->nr_of_ins_allowed;
	.loc 1 119 73 view .LVU170
	strb	r3, [r6, #4]	@ _9, TASK_RUN_QUEUE[_119].nr_of_ins_allowed
	.loc 1 120 7 is_stmt 1 view .LVU171
@ C:\Users\president\Desktop\sbx\input\src\os_base\os_task_queue.c:120:       (&TASK_RUN_QUEUE[element_nr])->nr_of_ins_activated                = task->nr_of_ins_activated;
	.loc 1 120 79 is_stmt 0 view .LVU172
	ldrb	r3, [r4, #5]	@ zero_extendqisi2	@ _10, task_53(D)->nr_of_ins_activated
@ C:\Users\president\Desktop\sbx\input\src\os_base\os_task_queue.c:120:       (&TASK_RUN_QUEUE[element_nr])->nr_of_ins_activated                = task->nr_of_ins_activated;
	.loc 1 120 73 view .LVU173
	strb	r3, [r6, #5]	@ _10, TASK_RUN_QUEUE[_119].nr_of_ins_activated
	.loc 1 121 7 is_stmt 1 view .LVU174
@ C:\Users\president\Desktop\sbx\input\src\os_base\os_task_queue.c:121:       ASSIGN(&(&TASK_RUN_QUEUE[element_nr])->wait_act_until, &task->wait_act_until);
	.loc 1 121 14 is_stmt 0 view .LVU175
	adds	r0, r7, #6	@ tmp285, tmp242,
.LVL25:
@ C:\Users\president\Desktop\sbx\input\src\os_base\os_task_queue.c:121:       ASSIGN(&(&TASK_RUN_QUEUE[element_nr])->wait_act_until, &task->wait_act_until);
	.loc 1 121 7 view .LVU176
	add	r0, r0, r5	@, tmp361
	adds	r1, r4, #6	@, task,
	bl	ASSIGN		@
.LVL26:
	.loc 1 122 7 is_stmt 1 view .LVU177
@ C:\Users\president\Desktop\sbx\input\src\os_base\os_task_queue.c:122:       ASSIGN(&(&TASK_RUN_QUEUE[element_nr])->wait_time, &task->wait_time);
	.loc 1 122 14 is_stmt 0 view .LVU178
	add	r0, r7, #22	@ tmp289, tmp242,
@ C:\Users\president\Desktop\sbx\input\src\os_base\os_task_queue.c:122:       ASSIGN(&(&TASK_RUN_QUEUE[element_nr])->wait_time, &task->wait_time);
	.loc 1 122 7 view .LVU179
	add	r0, r0, r5	@, tmp361
	add	r1, r4, #22	@, task,
	bl	ASSIGN		@
.LVL27:
	.loc 1 123 7 is_stmt 1 view .LVU180
@ C:\Users\president\Desktop\sbx\input\src\os_base\os_task_queue.c:123:       ASSIGN(&(&TASK_RUN_QUEUE[element_nr])->time_to_prio_inc, &task->time_to_prio_inc);
	.loc 1 123 14 is_stmt 0 view .LVU181
	add	r0, r7, #38	@ tmp293, tmp242,
@ C:\Users\president\Desktop\sbx\input\src\os_base\os_task_queue.c:123:       ASSIGN(&(&TASK_RUN_QUEUE[element_nr])->time_to_prio_inc, &task->time_to_prio_inc);
	.loc 1 123 7 view .LVU182
	add	r0, r0, r5	@, tmp361
	add	r1, r4, #38	@, task,
	bl	ASSIGN		@
.LVL28:
	.loc 1 124 7 is_stmt 1 view .LVU183
@ C:\Users\president\Desktop\sbx\input\src\os_base\os_task_queue.c:124:       (&TASK_RUN_QUEUE[element_nr])->overwaittime_per_prio_inc_step  = task->overwaittime_per_prio_inc_step;
	.loc 1 124 76 is_stmt 0 view .LVU184
	ldr	r3, [r4, #56]	@ _17, task_53(D)->overwaittime_per_prio_inc_step
@ C:\Users\president\Desktop\sbx\input\src\os_base\os_task_queue.c:124:       (&TASK_RUN_QUEUE[element_nr])->overwaittime_per_prio_inc_step  = task->overwaittime_per_prio_inc_step;
	.loc 1 124 70 view .LVU185
	str	r3, [r6, #56]	@ _17, TASK_RUN_QUEUE[_119].overwaittime_per_prio_inc_step
	.loc 1 125 7 is_stmt 1 view .LVU186
@ C:\Users\president\Desktop\sbx\input\src\os_base\os_task_queue.c:125:       ASSIGN(&(&TASK_RUN_QUEUE[element_nr])->max_allowed_wait_time, &task->max_allowed_wait_time);
	.loc 1 125 14 is_stmt 0 view .LVU187
	add	r0, r7, #60	@ tmp302, tmp242,
@ C:\Users\president\Desktop\sbx\input\src\os_base\os_task_queue.c:125:       ASSIGN(&(&TASK_RUN_QUEUE[element_nr])->max_allowed_wait_time, &task->max_allowed_wait_time);
	.loc 1 125 7 view .LVU188
	add	r0, r0, r5	@, tmp361
	add	r1, r4, #60	@, task,
	bl	ASSIGN		@
.LVL29:
	.loc 1 126 7 is_stmt 1 view .LVU189
@ C:\Users\president\Desktop\sbx\input\src\os_base\os_task_queue.c:126:       ASSIGN(&(&TASK_RUN_QUEUE[element_nr])->exe_time, &task->exe_time   );
	.loc 1 126 14 is_stmt 0 view .LVU190
	add	r0, r7, #76	@ tmp306, tmp242,
@ C:\Users\president\Desktop\sbx\input\src\os_base\os_task_queue.c:126:       ASSIGN(&(&TASK_RUN_QUEUE[element_nr])->exe_time, &task->exe_time   );
	.loc 1 126 7 view .LVU191
	add	r0, r0, r5	@, tmp361
	add	r1, r4, #76	@, task,
	bl	ASSIGN		@
.LVL30:
	.loc 1 127 7 is_stmt 1 view .LVU192
@ C:\Users\president\Desktop\sbx\input\src\os_base\os_task_queue.c:127:       ASSIGN(&(&TASK_RUN_QUEUE[element_nr])->start_time, &task->start_time );
	.loc 1 127 14 is_stmt 0 view .LVU193
	add	r0, r7, #92	@ tmp310, tmp242,
@ C:\Users\president\Desktop\sbx\input\src\os_base\os_task_queue.c:127:       ASSIGN(&(&TASK_RUN_QUEUE[element_nr])->start_time, &task->start_time );
	.loc 1 127 7 view .LVU194
	add	r0, r0, r5	@, tmp361
	add	r1, r4, #92	@, task,
	bl	ASSIGN		@
.LVL31:
	.loc 1 128 7 is_stmt 1 view .LVU195
@ C:\Users\president\Desktop\sbx\input\src\os_base\os_task_queue.c:128:       (&TASK_RUN_QUEUE[element_nr])->current_prio                    = task->current_prio;
	.loc 1 128 76 is_stmt 0 view .LVU196
	ldrb	r3, [r4, #108]	@ zero_extendqisi2	@ _24, task_53(D)->current_prio
@ C:\Users\president\Desktop\sbx\input\src\os_base\os_task_queue.c:128:       (&TASK_RUN_QUEUE[element_nr])->current_prio                    = task->current_prio;
	.loc 1 128 70 view .LVU197
	strb	r3, [r6, #108]	@ _24, TASK_RUN_QUEUE[_119].current_prio
	.loc 1 129 7 is_stmt 1 view .LVU198
@ C:\Users\president\Desktop\sbx\input\src\os_base\os_task_queue.c:129:       (&TASK_RUN_QUEUE[element_nr])->default_prio                    = task->default_prio;
	.loc 1 129 76 is_stmt 0 view .LVU199
	ldrb	r3, [r4, #109]	@ zero_extendqisi2	@ _25, task_53(D)->default_prio
@ C:\Users\president\Desktop\sbx\input\src\os_base\os_task_queue.c:129:       (&TASK_RUN_QUEUE[element_nr])->default_prio                    = task->default_prio;
	.loc 1 129 70 view .LVU200
	strb	r3, [r6, #109]	@ _25, TASK_RUN_QUEUE[_119].default_prio
	.loc 1 130 7 is_stmt 1 view .LVU201
	.loc 1 131 7 view .LVU202
@ C:\Users\president\Desktop\sbx\input\src\os_base\os_task_queue.c:130:       (&TASK_RUN_QUEUE[element_nr])->fp                              = task->fp;
	.loc 1 130 76 is_stmt 0 view .LVU203
	ldrd	r2, r0, [r4, #116]	@ vect__26.47, vect__26.48, task,
	add	r3, r7, #112	@ tmp327, tmp242,
	add	r3, r3, r5	@ tmp328, tmp361
	add	r1, r7, #128	@ tmp343, tmp242,
@ C:\Users\president\Desktop\sbx\input\src\os_base\os_task_queue.c:130:       (&TASK_RUN_QUEUE[element_nr])->fp                              = task->fp;
	.loc 1 130 70 view .LVU204
	str	r2, [r3, #4]	@ vect__26.47, MEM[(void *)vectp.50_143]
	str	r0, [r3, #8]	@ vect__26.48, MEM[(void *)vectp.50_143 + 4B]
	.loc 1 132 7 is_stmt 1 view .LVU205
@ C:\Users\president\Desktop\sbx\input\src\os_base\os_task_queue.c:133:       (&TASK_RUN_QUEUE[element_nr])->task_group                      = task->task_group;
	.loc 1 133 76 is_stmt 0 view .LVU206
	ldr	r0, [r4, #128]	@ _29, task_53(D)->task_group
	str	r0, [sp]	@ _29, %sfp
@ C:\Users\president\Desktop\sbx\input\src\os_base\os_task_queue.c:140:       (&TASK_RUN_QUEUE[element_nr])->r0                             = task->r0;
	.loc 1 140 75 view .LVU207
	ldrd	r9, r0, [r4, #140]	@ vect__30.55, vect__30.56, task,
	str	r0, [sp, #4]	@ vect__30.56, %sfp
	ldr	r0, [r4, #148]	@ vect__30.57, MEM[(long unsigned int *)task_53(D) + 148B]
	str	r0, [sp, #8]	@ vect__30.57, %sfp
	ldr	r0, [r4, #152]	@ vect__30.58, MEM[(long unsigned int *)task_53(D) + 152B]
	str	r0, [sp, #12]	@ vect__30.58, %sfp
	ldr	r0, [r4, #156]	@ vect__30.59, MEM[(long unsigned int *)task_53(D) + 156B]
	str	r0, [sp, #16]	@ vect__30.59, %sfp
	ldr	r0, [r4, #160]	@ vect__30.60, MEM[(long unsigned int *)task_53(D) + 160B]
	str	r0, [sp, #20]	@ vect__30.60, %sfp
	add	r1, r1, r5	@ tmp344, tmp361
	ldrd	fp, r10, [r4, #132]	@ vect__30.53, vect__30.54, task,
@ C:\Users\president\Desktop\sbx\input\src\os_base\os_task_queue.c:133:       (&TASK_RUN_QUEUE[element_nr])->task_group                      = task->task_group;
	.loc 1 133 70 view .LVU208
	ldr	r0, [sp]	@ _29, %sfp
@ C:\Users\president\Desktop\sbx\input\src\os_base\os_task_queue.c:132:       (&TASK_RUN_QUEUE[element_nr])->task_state                      = task->task_state;
	.loc 1 132 76 view .LVU209
	ldrb	r3, [r4, #124]	@ zero_extendqisi2	@ _28, task_53(D)->task_state
@ C:\Users\president\Desktop\sbx\input\src\os_base\os_task_queue.c:133:       (&TASK_RUN_QUEUE[element_nr])->task_group                      = task->task_group;
	.loc 1 133 70 view .LVU210
	str	r0, [r6, #128]	@ _29, TASK_RUN_QUEUE[_119].task_group
	adds	r2, r1, #4	@ vectp.67, tmp344,
@ C:\Users\president\Desktop\sbx\input\src\os_base\os_task_queue.c:140:       (&TASK_RUN_QUEUE[element_nr])->r0                             = task->r0;
	.loc 1 140 75 view .LVU211
	ldr	r0, [r4, #180]	@ vect__30.65, MEM[(long unsigned int *)task_53(D) + 180B]
@ C:\Users\president\Desktop\sbx\input\src\os_base\os_task_queue.c:132:       (&TASK_RUN_QUEUE[element_nr])->task_state                      = task->task_state;
	.loc 1 132 70 view .LVU212
	strb	r3, [r6, #124]	@ _28, TASK_RUN_QUEUE[_119].task_state
	.loc 1 133 7 is_stmt 1 view .LVU213
	.loc 1 140 7 view .LVU214
	.loc 1 141 7 view .LVU215
	.loc 1 142 7 view .LVU216
	.loc 1 143 7 view .LVU217
	.loc 1 144 7 view .LVU218
	.loc 1 145 7 view .LVU219
	.loc 1 146 7 view .LVU220
	.loc 1 147 7 view .LVU221
	.loc 1 148 7 view .LVU222
	.loc 1 149 7 view .LVU223
	.loc 1 150 7 view .LVU224
	.loc 1 151 7 view .LVU225
	.loc 1 152 7 view .LVU226
@ C:\Users\president\Desktop\sbx\input\src\os_base\os_task_queue.c:140:       (&TASK_RUN_QUEUE[element_nr])->r0                             = task->r0;
	.loc 1 140 75 is_stmt 0 view .LVU227
	ldrd	r8, lr, [r4, #164]	@ vect__30.61, vect__30.62, task,
	add	r3, r7, #184	@ tmp348, tmp242,
	ldrd	ip, r7, [r4, #172]	@ vect__30.63, vect__30.64, task,
	str	r0, [sp]	@ vect__30.65, %sfp
@ C:\Users\president\Desktop\sbx\input\src\os_base\os_task_queue.c:140:       (&TASK_RUN_QUEUE[element_nr])->r0                             = task->r0;
	.loc 1 140 69 view .LVU228
	ldr	r0, [sp, #4]	@ vect__30.56, %sfp
	str	fp, [r1, #4]	@ vect__30.53, MEM[(long unsigned int *)vectp.67_168]
	str	r0, [r2, #12]	@ vect__30.56, MEM[(long unsigned int *)vectp.67_168 + 12B]
	ldr	r0, [sp, #8]	@ vect__30.57, %sfp
	str	r0, [r2, #16]	@ vect__30.57, MEM[(long unsigned int *)vectp.67_168 + 16B]
	ldr	r0, [sp, #12]	@ vect__30.58, %sfp
	str	r0, [r2, #20]	@ vect__30.58, MEM[(long unsigned int *)vectp.67_168 + 20B]
	ldr	r0, [sp, #16]	@ vect__30.59, %sfp
	str	r0, [r2, #24]	@ vect__30.59, MEM[(long unsigned int *)vectp.67_168 + 24B]
	ldr	r0, [sp, #20]	@ vect__30.60, %sfp
	str	r0, [r2, #28]	@ vect__30.60, MEM[(long unsigned int *)vectp.67_168 + 28B]
	ldr	r0, [sp]	@ vect__30.65, %sfp
	strd	r10, r9, [r2, #4]	@ vect__30.54, vect__30.55, vectp.67,
@ C:\Users\president\Desktop\sbx\input\src\os_base\os_task_queue.c:154:       (&TASK_RUN_QUEUE[element_nr])->p_stack_pointer                   = task->p_stack_pointer;
	.loc 1 154 78 view .LVU229
	ldr	r9, [r4, #184]	@ vect__43.70, MEM[(unsigned_char_t * *)task_53(D) + 184B]
@ C:\Users\president\Desktop\sbx\input\src\os_base\os_task_queue.c:140:       (&TASK_RUN_QUEUE[element_nr])->r0                             = task->r0;
	.loc 1 140 69 view .LVU230
	str	r0, [r2, #48]	@ vect__30.65, MEM[(long unsigned int *)vectp.67_168 + 48B]
	.loc 1 154 7 is_stmt 1 view .LVU231
	.loc 1 155 7 view .LVU232
	.loc 1 156 7 view .LVU233
@ C:\Users\president\Desktop\sbx\input\src\os_base\os_task_queue.c:140:       (&TASK_RUN_QUEUE[element_nr])->r0                             = task->r0;
	.loc 1 140 69 is_stmt 0 view .LVU234
	strd	r8, lr, [r2, #32]	@ vect__30.61, vect__30.62, vectp.67,
	strd	ip, r7, [r2, #40]	@ vect__30.63, vect__30.64, vectp.67,
@ C:\Users\president\Desktop\sbx\input\src\os_base\os_task_queue.c:154:       (&TASK_RUN_QUEUE[element_nr])->p_stack_pointer                   = task->p_stack_pointer;
	.loc 1 154 78 view .LVU235
	ldrd	r0, r2, [r4, #188]	@ vect__43.71, vect__43.72, task,
	adds	r1, r5, r3	@ vectp.74, tmp361, tmp348
@ C:\Users\president\Desktop\sbx\input\src\os_base\os_task_queue.c:154:       (&TASK_RUN_QUEUE[element_nr])->p_stack_pointer                   = task->p_stack_pointer;
	.loc 1 154 72 view .LVU236
	str	r9, [r5, r3]	@ vect__43.70, MEM[(unsigned_char_t * *)vectp.74_200]
	strd	r0, r2, [r1, #4]	@ vect__43.71, vect__43.72, vectp.74,
	.loc 1 157 7 is_stmt 1 view .LVU237
@ C:\Users\president\Desktop\sbx\input\src\os_base\os_task_queue.c:158:       (&TASK_RUN_QUEUE[element_nr])->p_stack_pointer_end                = task->p_stack_pointer_end;
	.loc 1 158 79 is_stmt 0 view .LVU238
	ldrd	r2, r3, [r4, #196]	@ _46, _47, task,
@ C:\Users\president\Desktop\sbx\input\src\os_base\os_task_queue.c:159:       ret_task = &TASK_RUN_QUEUE[element_nr];
	.loc 1 159 16 view .LVU239
	mov	r0, r6	@ <retval>, tmp244
@ C:\Users\president\Desktop\sbx\input\src\os_base\os_task_queue.c:158:       (&TASK_RUN_QUEUE[element_nr])->p_stack_pointer_end                = task->p_stack_pointer_end;
	.loc 1 158 73 view .LVU240
	strd	r2, r3, [r6, #196]	@ _46, _47, tmp244,
	.loc 1 159 7 is_stmt 1 view .LVU241
.LVL32:
@ C:\Users\president\Desktop\sbx\input\src\os_base\os_task_queue.c:162: }
	.loc 1 162 1 is_stmt 0 view .LVU242
	add	sp, sp, #28	@,,
	.cfi_remember_state
	.cfi_def_cfa_offset 36
	@ sp needed	@
	pop	{r4, r5, r6, r7, r8, r9, r10, fp, pc}	@
.LVL33:
.L23:
	.cfi_restore_state
@ C:\Users\president\Desktop\sbx\input\src\os_base\os_task_queue.c:107:           &&((&TASK_RUN_QUEUE[element_nr])->task_queued == TRUE)
	.loc 1 107 43 view .LVU243
	movs	r3, #0	@ _119,
	b	.L21		@
.LVL34:
.L25:
	.loc 1 107 43 view .LVU244
	movs	r3, #2	@ _119,
	b	.L21		@
.LVL35:
.L26:
	.loc 1 107 43 view .LVU245
	movs	r3, #3	@ _119,
	b	.L21		@
.LVL36:
.L27:
	.loc 1 107 43 view .LVU246
	movs	r3, #4	@ _119,
	b	.L21		@
.LVL37:
.L28:
	.loc 1 107 43 view .LVU247
	movs	r3, #5	@ _119,
	b	.L21		@
.LVL38:
.L30:
	.loc 1 107 43 view .LVU248
	movs	r3, #7	@ _119,
	b	.L21		@
.LVL39:
.L31:
	.loc 1 107 43 view .LVU249
	movs	r3, #8	@ _119,
	b	.L21		@
.LVL40:
.L32:
	.loc 1 107 43 view .LVU250
	movs	r3, #9	@ _119,
	b	.L21		@
.L35:
	.align	2
.L34:
	.word	TASK_RUN_QUEUE
	.cfi_endproc
.LFE2:
	.size	ADD_TO_TASK_QUEUE, .-ADD_TO_TASK_QUEUE
	.align	1
	.p2align 2,,3
	.global	DELETE_FROM_TASK_QUEUE
	.syntax unified
	.thumb
	.thumb_func
	.fpu softvfp
	.type	DELETE_FROM_TASK_QUEUE, %function
DELETE_FROM_TASK_QUEUE:
.LVL41:
.LFB3:
	.loc 1 164 1 is_stmt 1 view -0
	.cfi_startproc
	@ args = 0, pretend = 0, frame = 0
	@ frame_needed = 0, uses_anonymous_args = 0
	.loc 1 165 4 view .LVU252
	.loc 1 166 4 view .LVU253
	.loc 1 167 4 view .LVU254
	.loc 1 168 4 view .LVU255
	.loc 1 169 4 view .LVU256
	.loc 1 170 4 view .LVU257
@ C:\Users\president\Desktop\sbx\input\src\os_base\os_task_queue.c:164: {
	.loc 1 164 1 is_stmt 0 view .LVU258
	push	{r3, r4, r5, lr}	@
	.cfi_def_cfa_offset 16
	.cfi_offset 3, -16
	.cfi_offset 4, -12
	.cfi_offset 5, -8
	.cfi_offset 14, -4
@ C:\Users\president\Desktop\sbx\input\src\os_base\os_task_queue.c:165:    task->active                                =   FALSE   ;
	.loc 1 165 48 view .LVU259
	movs	r5, #0	@ tmp117,
@ C:\Users\president\Desktop\sbx\input\src\os_base\os_task_queue.c:164: {
	.loc 1 164 1 view .LVU260
	mov	r4, r0	@ task, task
@ C:\Users\president\Desktop\sbx\input\src\os_base\os_task_queue.c:165:    task->active                                =   FALSE   ;
	.loc 1 165 48 view .LVU261
	str	r5, [r0]	@ tmp117, MEM[(struct task_t *)task_8(D)]
@ C:\Users\president\Desktop\sbx\input\src\os_base\os_task_queue.c:169:    task->nr_of_ins_allowed                        =   0u       ;
	.loc 1 169 51 view .LVU262
	strh	r5, [r0, #4]	@ movhi	@ tmp117, MEM[(unsigned char *)task_8(D) + 4B]
	.loc 1 171 4 is_stmt 1 view .LVU263
	adds	r0, r0, #6	@, task,
.LVL42:
	.loc 1 171 4 is_stmt 0 view .LVU264
	bl	ASSIGN_NULL		@
.LVL43:
	.loc 1 172 4 is_stmt 1 view .LVU265
	add	r0, r4, #22	@, task,
	bl	ASSIGN_NULL		@
.LVL44:
	.loc 1 173 4 view .LVU266
	add	r0, r4, #38	@, task,
	bl	ASSIGN_NULL		@
.LVL45:
	.loc 1 174 4 view .LVU267
@ C:\Users\president\Desktop\sbx\input\src\os_base\os_task_queue.c:175:    ASSIGN_NULL(&task->max_allowed_wait_time);
	.loc 1 175 4 is_stmt 0 view .LVU268
	add	r0, r4, #60	@, task,
@ C:\Users\president\Desktop\sbx\input\src\os_base\os_task_queue.c:174:    task->overwaittime_per_prio_inc_step        =   0u       ;
	.loc 1 174 48 view .LVU269
	str	r5, [r4, #56]	@ tmp117, task_8(D)->overwaittime_per_prio_inc_step
	.loc 1 175 4 is_stmt 1 view .LVU270
	bl	ASSIGN_NULL		@
.LVL46:
	.loc 1 176 4 view .LVU271
	add	r0, r4, #76	@, task,
	bl	ASSIGN_NULL		@
.LVL47:
	.loc 1 177 4 view .LVU272
	add	r0, r4, #92	@, task,
	bl	ASSIGN_NULL		@
.LVL48:
	.loc 1 178 4 view .LVU273
	.loc 1 179 4 view .LVU274
@ C:\Users\president\Desktop\sbx\input\src\os_base\os_task_queue.c:181:    task->state_request                         =   &OS_TASK_STATE_REQUEST       ;
	.loc 1 181 48 is_stmt 0 view .LVU275
	ldr	r3, .L38	@ tmp130,
@ C:\Users\president\Desktop\sbx\input\src\os_base\os_task_queue.c:178:    task->current_prio                          =   0u       ;
	.loc 1 178 48 view .LVU276
	strh	r5, [r4, #108]	@ movhi	@ tmp117, MEM[(unsigned char *)task_8(D) + 108B]
	.loc 1 180 4 is_stmt 1 view .LVU277
@ C:\Users\president\Desktop\sbx\input\src\os_base\os_task_queue.c:180:    task->fp                                    =   0u       ;
	.loc 1 180 48 is_stmt 0 view .LVU278
	str	r5, [r4, #116]	@ tmp117, task_8(D)->fp
	.loc 1 181 4 is_stmt 1 view .LVU279
@ C:\Users\president\Desktop\sbx\input\src\os_base\os_task_queue.c:182:    task->task_state                            =   E_TASK_UNSPECIFIED;
	.loc 1 182 48 is_stmt 0 view .LVU280
	strb	r5, [r4, #124]	@ tmp117, task_8(D)->task_state
@ C:\Users\president\Desktop\sbx\input\src\os_base\os_task_queue.c:190:    task->r0                                   =   0u              ;
	.loc 1 190 47 view .LVU281
	strd	r5, r5, [r4, #128]	@ tmp117, tmp117, task,
@ C:\Users\president\Desktop\sbx\input\src\os_base\os_task_queue.c:192:    task->r2                                   =   0u              ;
	.loc 1 192 47 view .LVU282
	strd	r5, r5, [r4, #136]	@ tmp117, tmp117, task,
@ C:\Users\president\Desktop\sbx\input\src\os_base\os_task_queue.c:194:    task->r4                                   =   0u              ;
	.loc 1 194 47 view .LVU283
	strd	r5, r5, [r4, #144]	@ tmp117, tmp117, task,
@ C:\Users\president\Desktop\sbx\input\src\os_base\os_task_queue.c:196:    task->r6                                   =   0u              ;
	.loc 1 196 47 view .LVU284
	strd	r5, r5, [r4, #152]	@ tmp117, tmp117, task,
@ C:\Users\president\Desktop\sbx\input\src\os_base\os_task_queue.c:198:    task->r8                                   =   0u              ;
	.loc 1 198 47 view .LVU285
	strd	r5, r5, [r4, #160]	@ tmp117, tmp117, task,
@ C:\Users\president\Desktop\sbx\input\src\os_base\os_task_queue.c:200:    task->r10                                  =   0u             ;
	.loc 1 200 47 view .LVU286
	strd	r5, r5, [r4, #168]	@ tmp117, tmp117, task,
@ C:\Users\president\Desktop\sbx\input\src\os_base\os_task_queue.c:202:    task->r12                                  =   0u             ;
	.loc 1 202 47 view .LVU287
	strd	r5, r5, [r4, #176]	@ tmp117, tmp117, task,
@ C:\Users\president\Desktop\sbx\input\src\os_base\os_task_queue.c:207:    task->p_stack_pointer_by_malloc                 =   0u       ;
	.loc 1 207 52 view .LVU288
	strd	r5, r5, [r4, #184]	@ tmp117, tmp117, task,
@ C:\Users\president\Desktop\sbx\input\src\os_base\os_task_queue.c:209:    task->stack_size                             =   0u       ;
	.loc 1 209 49 view .LVU289
	strd	r5, r5, [r4, #192]	@ tmp117, tmp117, task,
@ C:\Users\president\Desktop\sbx\input\src\os_base\os_task_queue.c:210:    task->p_stack_pointer_end                      =   0u       ;
	.loc 1 210 51 view .LVU290
	str	r5, [r4, #200]	@ tmp117, task_8(D)->p_stack_pointer_end
@ C:\Users\president\Desktop\sbx\input\src\os_base\os_task_queue.c:181:    task->state_request                         =   &OS_TASK_STATE_REQUEST       ;
	.loc 1 181 48 view .LVU291
	str	r3, [r4, #120]	@ tmp130, task_8(D)->state_request
	.loc 1 182 4 is_stmt 1 view .LVU292
	.loc 1 183 4 view .LVU293
	.loc 1 190 4 view .LVU294
	.loc 1 191 4 view .LVU295
	.loc 1 192 4 view .LVU296
	.loc 1 193 4 view .LVU297
	.loc 1 194 4 view .LVU298
	.loc 1 195 4 view .LVU299
	.loc 1 196 4 view .LVU300
	.loc 1 197 4 view .LVU301
	.loc 1 198 4 view .LVU302
	.loc 1 199 4 view .LVU303
	.loc 1 200 4 view .LVU304
	.loc 1 201 4 view .LVU305
	.loc 1 202 4 view .LVU306
	.loc 1 206 4 view .LVU307
	.loc 1 207 4 view .LVU308
	.loc 1 208 4 view .LVU309
	.loc 1 209 4 view .LVU310
	.loc 1 210 4 view .LVU311
@ C:\Users\president\Desktop\sbx\input\src\os_base\os_task_queue.c:211: }
	.loc 1 211 1 is_stmt 0 view .LVU312
	pop	{r3, r4, r5, pc}	@
.LVL49:
.L39:
	.loc 1 211 1 view .LVU313
	.align	2
.L38:
	.word	OS_TASK_STATE_REQUEST
	.cfi_endproc
.LFE3:
	.size	DELETE_FROM_TASK_QUEUE, .-DELETE_FROM_TASK_QUEUE
	.align	1
	.p2align 2,,3
	.global	GET_FROM_TASK_QUEUE
	.syntax unified
	.thumb
	.thumb_func
	.fpu softvfp
	.type	GET_FROM_TASK_QUEUE, %function
GET_FROM_TASK_QUEUE:
.LVL50:
.LFB4:
	.loc 1 213 1 is_stmt 1 view -0
	.cfi_startproc
	@ args = 0, pretend = 0, frame = 0
	@ frame_needed = 0, uses_anonymous_args = 0
	@ link register save eliminated.
	.loc 1 214 4 view .LVU315
@ C:\Users\president\Desktop\sbx\input\src\os_base\os_task_queue.c:215: }
	.loc 1 215 1 is_stmt 0 view .LVU316
	ldr	r0, [r0]	@, *scheduling_queue_element_2(D)
.LVL51:
	.loc 1 215 1 view .LVU317
	bx	lr	@
	.cfi_endproc
.LFE4:
	.size	GET_FROM_TASK_QUEUE, .-GET_FROM_TASK_QUEUE
	.align	1
	.p2align 2,,3
	.global	GET_FROM_SCHEDULING_QUEUE
	.syntax unified
	.thumb
	.thumb_func
	.fpu softvfp
	.type	GET_FROM_SCHEDULING_QUEUE, %function
GET_FROM_SCHEDULING_QUEUE:
.LVL52:
.LFB5:
	.loc 1 217 1 is_stmt 1 view -0
	.cfi_startproc
	@ args = 0, pretend = 0, frame = 0
	@ frame_needed = 0, uses_anonymous_args = 0
	@ link register save eliminated.
	.loc 1 218 4 view .LVU319
@ C:\Users\president\Desktop\sbx\input\src\os_base\os_task_queue.c:218:    return ((scheduling_t*)&TASK_SCHEDULING_QUEUE[element_nr]);
	.loc 1 218 12 is_stmt 0 view .LVU320
	ldr	r3, .L42	@ tmp118,
@ C:\Users\president\Desktop\sbx\input\src\os_base\os_task_queue.c:219: }
	.loc 1 219 1 view .LVU321
	add	r0, r3, r0, lsl #2	@, tmp118, element_nr,
.LVL53:
	.loc 1 219 1 view .LVU322
	bx	lr	@
.L43:
	.align	2
.L42:
	.word	TASK_SCHEDULING_QUEUE
	.cfi_endproc
.LFE5:
	.size	GET_FROM_SCHEDULING_QUEUE, .-GET_FROM_SCHEDULING_QUEUE
	.align	1
	.p2align 2,,3
	.global	DELETE_FROM_SCHEDULING_QUEUE
	.syntax unified
	.thumb
	.thumb_func
	.fpu softvfp
	.type	DELETE_FROM_SCHEDULING_QUEUE, %function
DELETE_FROM_SCHEDULING_QUEUE:
.LVL54:
.LFB6:
	.loc 1 222 1 is_stmt 1 view -0
	.cfi_startproc
	@ args = 0, pretend = 0, frame = 0
	@ frame_needed = 0, uses_anonymous_args = 0
	@ link register save eliminated.
	.loc 1 223 4 view .LVU324
@ C:\Users\president\Desktop\sbx\input\src\os_base\os_task_queue.c:223:    *scheduling_queue_element = 0u;
	.loc 1 223 30 is_stmt 0 view .LVU325
	movs	r3, #0	@ tmp111,
	str	r3, [r0]	@ tmp111, *scheduling_queue_element_2(D)
@ C:\Users\president\Desktop\sbx\input\src\os_base\os_task_queue.c:224: }
	.loc 1 224 1 view .LVU326
	bx	lr	@
	.cfi_endproc
.LFE6:
	.size	DELETE_FROM_SCHEDULING_QUEUE, .-DELETE_FROM_SCHEDULING_QUEUE
	.align	1
	.p2align 2,,3
	.global	ADD_TO_SCHEDULING_QUEUE
	.syntax unified
	.thumb
	.thumb_func
	.fpu softvfp
	.type	ADD_TO_SCHEDULING_QUEUE, %function
ADD_TO_SCHEDULING_QUEUE:
.LVL55:
.LFB7:
	.loc 1 226 1 is_stmt 1 view -0
	.cfi_startproc
	@ args = 0, pretend = 0, frame = 0
	@ frame_needed = 0, uses_anonymous_args = 0
	@ link register save eliminated.
	.loc 1 234 4 view .LVU328
	.loc 1 235 4 view .LVU329
	.loc 1 237 4 view .LVU330
	.loc 1 240 7 view .LVU331
@ C:\Users\president\Desktop\sbx\input\src\os_base\os_task_queue.c:240:       if(TASK_SCHEDULING_QUEUE[index] == NULL)
	.loc 1 240 31 is_stmt 0 view .LVU332
	ldr	r3, .L57	@ tmp143,
@ C:\Users\president\Desktop\sbx\input\src\os_base\os_task_queue.c:240:       if(TASK_SCHEDULING_QUEUE[index] == NULL)
	.loc 1 240 9 view .LVU333
	ldr	r2, [r3]	@ TASK_SCHEDULING_QUEUE, TASK_SCHEDULING_QUEUE
	cbz	r2, .L46	@ TASK_SCHEDULING_QUEUE,
	.loc 1 245 7 is_stmt 1 view .LVU334
.LVL56:
	.loc 1 240 7 view .LVU335
@ C:\Users\president\Desktop\sbx\input\src\os_base\os_task_queue.c:240:       if(TASK_SCHEDULING_QUEUE[index] == NULL)
	.loc 1 240 9 is_stmt 0 view .LVU336
	ldr	r2, [r3, #4]	@ TASK_SCHEDULING_QUEUE, TASK_SCHEDULING_QUEUE
	cbz	r2, .L49	@ TASK_SCHEDULING_QUEUE,
	.loc 1 245 7 is_stmt 1 view .LVU337
.LVL57:
	.loc 1 240 7 view .LVU338
@ C:\Users\president\Desktop\sbx\input\src\os_base\os_task_queue.c:240:       if(TASK_SCHEDULING_QUEUE[index] == NULL)
	.loc 1 240 9 is_stmt 0 view .LVU339
	ldr	r2, [r3, #8]	@ TASK_SCHEDULING_QUEUE, TASK_SCHEDULING_QUEUE
	cbz	r2, .L50	@ TASK_SCHEDULING_QUEUE,
	.loc 1 245 7 is_stmt 1 view .LVU340
.LVL58:
	.loc 1 240 7 view .LVU341
@ C:\Users\president\Desktop\sbx\input\src\os_base\os_task_queue.c:240:       if(TASK_SCHEDULING_QUEUE[index] == NULL)
	.loc 1 240 9 is_stmt 0 view .LVU342
	ldr	r2, [r3, #12]	@ TASK_SCHEDULING_QUEUE, TASK_SCHEDULING_QUEUE
	cbz	r2, .L51	@ TASK_SCHEDULING_QUEUE,
	.loc 1 245 7 is_stmt 1 view .LVU343
.LVL59:
	.loc 1 240 7 view .LVU344
@ C:\Users\president\Desktop\sbx\input\src\os_base\os_task_queue.c:240:       if(TASK_SCHEDULING_QUEUE[index] == NULL)
	.loc 1 240 9 is_stmt 0 view .LVU345
	ldr	r2, [r3, #16]	@ TASK_SCHEDULING_QUEUE, TASK_SCHEDULING_QUEUE
	cbz	r2, .L52	@ TASK_SCHEDULING_QUEUE,
	.loc 1 245 7 is_stmt 1 view .LVU346
.LVL60:
	.loc 1 240 7 view .LVU347
@ C:\Users\president\Desktop\sbx\input\src\os_base\os_task_queue.c:240:       if(TASK_SCHEDULING_QUEUE[index] == NULL)
	.loc 1 240 9 is_stmt 0 view .LVU348
	ldr	r2, [r3, #20]	@ TASK_SCHEDULING_QUEUE, TASK_SCHEDULING_QUEUE
	cbz	r2, .L53	@ TASK_SCHEDULING_QUEUE,
	.loc 1 245 7 is_stmt 1 view .LVU349
.LVL61:
	.loc 1 240 7 view .LVU350
@ C:\Users\president\Desktop\sbx\input\src\os_base\os_task_queue.c:240:       if(TASK_SCHEDULING_QUEUE[index] == NULL)
	.loc 1 240 9 is_stmt 0 view .LVU351
	ldr	r2, [r3, #24]	@ TASK_SCHEDULING_QUEUE, TASK_SCHEDULING_QUEUE
	cbz	r2, .L54	@ TASK_SCHEDULING_QUEUE,
	.loc 1 245 7 is_stmt 1 view .LVU352
.LVL62:
	.loc 1 240 7 view .LVU353
@ C:\Users\president\Desktop\sbx\input\src\os_base\os_task_queue.c:240:       if(TASK_SCHEDULING_QUEUE[index] == NULL)
	.loc 1 240 9 is_stmt 0 view .LVU354
	ldr	r2, [r3, #28]	@ TASK_SCHEDULING_QUEUE, TASK_SCHEDULING_QUEUE
	cbz	r2, .L55	@ TASK_SCHEDULING_QUEUE,
	.loc 1 245 7 is_stmt 1 view .LVU355
.LVL63:
	.loc 1 240 7 view .LVU356
@ C:\Users\president\Desktop\sbx\input\src\os_base\os_task_queue.c:240:       if(TASK_SCHEDULING_QUEUE[index] == NULL)
	.loc 1 240 9 is_stmt 0 view .LVU357
	ldr	r2, [r3, #32]	@ TASK_SCHEDULING_QUEUE, TASK_SCHEDULING_QUEUE
	cbz	r2, .L56	@ TASK_SCHEDULING_QUEUE,
	.loc 1 245 7 is_stmt 1 view .LVU358
.LVL64:
	.loc 1 240 7 view .LVU359
@ C:\Users\president\Desktop\sbx\input\src\os_base\os_task_queue.c:240:       if(TASK_SCHEDULING_QUEUE[index] == NULL)
	.loc 1 240 9 is_stmt 0 view .LVU360
	ldr	r2, [r3, #36]	@ TASK_SCHEDULING_QUEUE, TASK_SCHEDULING_QUEUE
	cbnz	r2, .L45	@ TASK_SCHEDULING_QUEUE,
@ C:\Users\president\Desktop\sbx\input\src\os_base\os_task_queue.c:240:       if(TASK_SCHEDULING_QUEUE[index] == NULL)
	.loc 1 240 31 view .LVU361
	movs	r2, #9	@ _25,
.LVL65:
.L46:
	.loc 1 242 10 is_stmt 1 view .LVU362
@ C:\Users\president\Desktop\sbx\input\src\os_base\os_task_queue.c:242:          TASK_SCHEDULING_QUEUE[index] = task;
	.loc 1 242 39 is_stmt 0 view .LVU363
	str	r0, [r3, r2, lsl #2]	@ task, TASK_SCHEDULING_QUEUE
	.loc 1 243 10 is_stmt 1 view .LVU364
.LVL66:
	.loc 1 245 7 view .LVU365
	.loc 1 247 4 view .LVU366
.L45:
@ C:\Users\president\Desktop\sbx\input\src\os_base\os_task_queue.c:248: }
	.loc 1 248 1 is_stmt 0 view .LVU367
	bx	lr	@
.LVL67:
.L49:
@ C:\Users\president\Desktop\sbx\input\src\os_base\os_task_queue.c:240:       if(TASK_SCHEDULING_QUEUE[index] == NULL)
	.loc 1 240 31 view .LVU368
	movs	r2, #1	@ _25,
	b	.L46		@
.LVL68:
.L52:
	.loc 1 240 31 view .LVU369
	movs	r2, #4	@ _25,
	b	.L46		@
.LVL69:
.L50:
	.loc 1 240 31 view .LVU370
	movs	r2, #2	@ _25,
	b	.L46		@
.LVL70:
.L51:
	.loc 1 240 31 view .LVU371
	movs	r2, #3	@ _25,
	b	.L46		@
.LVL71:
.L53:
	.loc 1 240 31 view .LVU372
	movs	r2, #5	@ _25,
	b	.L46		@
.LVL72:
.L56:
	.loc 1 240 31 view .LVU373
	movs	r2, #8	@ _25,
	b	.L46		@
.LVL73:
.L54:
	.loc 1 240 31 view .LVU374
	movs	r2, #6	@ _25,
	b	.L46		@
.LVL74:
.L55:
	.loc 1 240 31 view .LVU375
	movs	r2, #7	@ _25,
	b	.L46		@
.L58:
	.align	2
.L57:
	.word	TASK_SCHEDULING_QUEUE
	.cfi_endproc
.LFE7:
	.size	ADD_TO_SCHEDULING_QUEUE, .-ADD_TO_SCHEDULING_QUEUE
	.align	1
	.p2align 2,,3
	.global	GET_IDLE_TASK
	.syntax unified
	.thumb
	.thumb_func
	.fpu softvfp
	.type	GET_IDLE_TASK, %function
GET_IDLE_TASK:
.LFB8:
	.loc 1 279 1 is_stmt 1 view -0
	.cfi_startproc
	@ args = 0, pretend = 0, frame = 0
	@ frame_needed = 0, uses_anonymous_args = 0
	@ link register save eliminated.
	.loc 1 280 4 view .LVU377
@ C:\Users\president\Desktop\sbx\input\src\os_base\os_task_queue.c:281: }
	.loc 1 281 1 is_stmt 0 view .LVU378
	ldr	r0, .L60	@,
	bx	lr	@
.L61:
	.align	2
.L60:
	.word	TASK_IDLE_QUEUE
	.cfi_endproc
.LFE8:
	.size	GET_IDLE_TASK, .-GET_IDLE_TASK
	.align	1
	.p2align 2,,3
	.global	ADD_TO_IDLE_TASK_QUEUE
	.syntax unified
	.thumb
	.thumb_func
	.fpu softvfp
	.type	ADD_TO_IDLE_TASK_QUEUE, %function
ADD_TO_IDLE_TASK_QUEUE:
.LVL75:
.LFB9:
	.loc 1 283 1 is_stmt 1 view -0
	.cfi_startproc
	@ args = 0, pretend = 0, frame = 0
	@ frame_needed = 0, uses_anonymous_args = 0
	.loc 1 285 4 view .LVU380
@ C:\Users\president\Desktop\sbx\input\src\os_base\os_task_queue.c:283: {
	.loc 1 283 1 is_stmt 0 view .LVU381
	push	{r3, r4, r5, r6, r7, lr}	@
	.cfi_def_cfa_offset 24
	.cfi_offset 3, -24
	.cfi_offset 4, -20
	.cfi_offset 5, -16
	.cfi_offset 6, -12
	.cfi_offset 7, -8
	.cfi_offset 14, -4
@ C:\Users\president\Desktop\sbx\input\src\os_base\os_task_queue.c:285:    if((&TASK_IDLE_QUEUE[0u])->idle_task == FALSE)
	.loc 1 285 41 view .LVU382
	ldr	r4, .L66	@ tmp148,
	ldrb	r3, [r4]	@ zero_extendqisi2	@ TASK_IDLE_QUEUE, TASK_IDLE_QUEUE
@ C:\Users\president\Desktop\sbx\input\src\os_base\os_task_queue.c:285:    if((&TASK_IDLE_QUEUE[0u])->idle_task == FALSE)
	.loc 1 285 6 view .LVU383
	lsls	r2, r3, #29	@, TASK_IDLE_QUEUE,
	bpl	.L65		@,
@ C:\Users\president\Desktop\sbx\input\src\os_base\os_task_queue.c:333: }
	.loc 1 333 1 view .LVU384
	pop	{r3, r4, r5, r6, r7, pc}	@
.L65:
	.loc 1 287 7 is_stmt 1 view .LVU385
@ C:\Users\president\Desktop\sbx\input\src\os_base\os_task_queue.c:287:       (&TASK_IDLE_QUEUE[0u])->active                                =   task->active           ;
	.loc 1 287 77 is_stmt 0 view .LVU386
	ldrb	r2, [r0]	@ zero_extendqisi2	@ *task_40(D), *task_40(D)
@ C:\Users\president\Desktop\sbx\input\src\os_base\os_task_queue.c:292:       (&TASK_IDLE_QUEUE[0u])->nr_of_ins_activated                      =   task->nr_of_ins_activated ;
	.loc 1 292 80 view .LVU387
	ldrb	r6, [r0, #5]	@ zero_extendqisi2	@ _8, task_40(D)->nr_of_ins_activated
@ C:\Users\president\Desktop\sbx\input\src\os_base\os_task_queue.c:287:       (&TASK_IDLE_QUEUE[0u])->active                                =   task->active           ;
	.loc 1 287 69 view .LVU388
	bfi	r3, r2, #0, #1	@ TASK_IDLE_QUEUE[0].active, *task_40(D),,
	strb	r3, [r4]	@ TASK_IDLE_QUEUE[0].active, TASK_IDLE_QUEUE[0].active
	.loc 1 288 7 is_stmt 1 view .LVU389
@ C:\Users\president\Desktop\sbx\input\src\os_base\os_task_queue.c:288:       (&TASK_IDLE_QUEUE[0u])->task_queued                           =   task->task_queued      ;
	.loc 1 288 77 is_stmt 0 view .LVU390
	ldrb	r3, [r0]	@ zero_extendqisi2	@ *task_40(D), *task_40(D)
@ C:\Users\president\Desktop\sbx\input\src\os_base\os_task_queue.c:288:       (&TASK_IDLE_QUEUE[0u])->task_queued                           =   task->task_queued      ;
	.loc 1 288 69 view .LVU391
	ldrb	r2, [r4]	@ zero_extendqisi2	@, TASK_IDLE_QUEUE[0].task_queued
@ C:\Users\president\Desktop\sbx\input\src\os_base\os_task_queue.c:288:       (&TASK_IDLE_QUEUE[0u])->task_queued                           =   task->task_queued      ;
	.loc 1 288 77 view .LVU392
	ubfx	r3, r3, #1, #1	@ _4, *task_40(D),,
@ C:\Users\president\Desktop\sbx\input\src\os_base\os_task_queue.c:288:       (&TASK_IDLE_QUEUE[0u])->task_queued                           =   task->task_queued      ;
	.loc 1 288 69 view .LVU393
	bfi	r2, r3, #1, #1	@ TASK_IDLE_QUEUE[0].task_queued, _4,,
	strb	r2, [r4]	@ TASK_IDLE_QUEUE[0].task_queued, TASK_IDLE_QUEUE[0].task_queued
	.loc 1 289 7 is_stmt 1 view .LVU394
@ C:\Users\president\Desktop\sbx\input\src\os_base\os_task_queue.c:289:       (&TASK_IDLE_QUEUE[0u])->idle_task                              =   task->idle_task         ;
	.loc 1 289 78 is_stmt 0 view .LVU395
	ldrb	r3, [r0]	@ zero_extendqisi2	@ *task_40(D), *task_40(D)
@ C:\Users\president\Desktop\sbx\input\src\os_base\os_task_queue.c:289:       (&TASK_IDLE_QUEUE[0u])->idle_task                              =   task->idle_task         ;
	.loc 1 289 70 view .LVU396
	uxtb	r2, r2	@ tmp173, TASK_IDLE_QUEUE[0].task_queued
@ C:\Users\president\Desktop\sbx\input\src\os_base\os_task_queue.c:289:       (&TASK_IDLE_QUEUE[0u])->idle_task                              =   task->idle_task         ;
	.loc 1 289 78 view .LVU397
	ubfx	r3, r3, #2, #1	@ _5, *task_40(D),,
@ C:\Users\president\Desktop\sbx\input\src\os_base\os_task_queue.c:289:       (&TASK_IDLE_QUEUE[0u])->idle_task                              =   task->idle_task         ;
	.loc 1 289 70 view .LVU398
	bfi	r2, r3, #2, #1	@ TASK_IDLE_QUEUE[0].idle_task, _5,,
	strb	r2, [r4]	@ TASK_IDLE_QUEUE[0].idle_task, TASK_IDLE_QUEUE[0].idle_task
	.loc 1 290 7 is_stmt 1 view .LVU399
@ C:\Users\president\Desktop\sbx\input\src\os_base\os_task_queue.c:290:       (&TASK_IDLE_QUEUE[0u])->free                                  =   task->free             ;
	.loc 1 290 77 is_stmt 0 view .LVU400
	ldr	r3, [r0]	@ *task_40(D), *task_40(D)
@ C:\Users\president\Desktop\sbx\input\src\os_base\os_task_queue.c:290:       (&TASK_IDLE_QUEUE[0u])->free                                  =   task->free             ;
	.loc 1 290 69 view .LVU401
	ldr	r2, [r4]	@ TASK_IDLE_QUEUE[0].free, TASK_IDLE_QUEUE[0].free
@ C:\Users\president\Desktop\sbx\input\src\os_base\os_task_queue.c:290:       (&TASK_IDLE_QUEUE[0u])->free                                  =   task->free             ;
	.loc 1 290 77 view .LVU402
	ubfx	r3, r3, #3, #29	@ _6, *task_40(D),,
@ C:\Users\president\Desktop\sbx\input\src\os_base\os_task_queue.c:290:       (&TASK_IDLE_QUEUE[0u])->free                                  =   task->free             ;
	.loc 1 290 69 view .LVU403
	bfi	r2, r3, #3, #29	@ TASK_IDLE_QUEUE[0].free, _6,,
	str	r2, [r4]	@ TASK_IDLE_QUEUE[0].free, TASK_IDLE_QUEUE[0].free
	.loc 1 291 7 is_stmt 1 view .LVU404
	mov	r5, r0	@ task, task
@ C:\Users\president\Desktop\sbx\input\src\os_base\os_task_queue.c:291:       (&TASK_IDLE_QUEUE[0u])->nr_of_ins_allowed                        =   task->nr_of_ins_allowed   ;
	.loc 1 291 80 is_stmt 0 view .LVU405
	ldrb	r3, [r0, #4]	@ zero_extendqisi2	@ _7, task_40(D)->nr_of_ins_allowed
@ C:\Users\president\Desktop\sbx\input\src\os_base\os_task_queue.c:291:       (&TASK_IDLE_QUEUE[0u])->nr_of_ins_allowed                        =   task->nr_of_ins_allowed   ;
	.loc 1 291 72 view .LVU406
	strb	r3, [r4, #4]	@ _7, TASK_IDLE_QUEUE[0].nr_of_ins_allowed
	.loc 1 292 7 is_stmt 1 view .LVU407
@ C:\Users\president\Desktop\sbx\input\src\os_base\os_task_queue.c:293:       ASSIGN(&(&TASK_IDLE_QUEUE[0u])->wait_act_until, &task->wait_act_until);
	.loc 1 293 7 is_stmt 0 view .LVU408
	adds	r1, r0, #6	@, task,
	adds	r0, r4, #6	@, tmp148,
.LVL76:
@ C:\Users\president\Desktop\sbx\input\src\os_base\os_task_queue.c:292:       (&TASK_IDLE_QUEUE[0u])->nr_of_ins_activated                      =   task->nr_of_ins_activated ;
	.loc 1 292 72 view .LVU409
	strb	r6, [r4, #5]	@ _8, TASK_IDLE_QUEUE[0].nr_of_ins_activated
	.loc 1 293 7 is_stmt 1 view .LVU410
	bl	ASSIGN		@
.LVL77:
	.loc 1 294 7 view .LVU411
	add	r1, r5, #22	@, task,
	add	r0, r4, #22	@, tmp148,
	bl	ASSIGN		@
.LVL78:
	.loc 1 295 7 view .LVU412
	add	r1, r5, #38	@, task,
	add	r0, r4, #38	@, tmp148,
	bl	ASSIGN		@
.LVL79:
	.loc 1 296 7 view .LVU413
@ C:\Users\president\Desktop\sbx\input\src\os_base\os_task_queue.c:296:       (&TASK_IDLE_QUEUE[0u])->overwaittime_per_prio_inc_step       =    task->overwaittime_per_prio_inc_step;
	.loc 1 296 77 is_stmt 0 view .LVU414
	ldr	r3, [r5, #56]	@ _12, task_40(D)->overwaittime_per_prio_inc_step
@ C:\Users\president\Desktop\sbx\input\src\os_base\os_task_queue.c:296:       (&TASK_IDLE_QUEUE[0u])->overwaittime_per_prio_inc_step       =    task->overwaittime_per_prio_inc_step;
	.loc 1 296 68 view .LVU415
	str	r3, [r4, #56]	@ _12, TASK_IDLE_QUEUE[0].overwaittime_per_prio_inc_step
	.loc 1 297 7 is_stmt 1 view .LVU416
	add	r1, r5, #60	@, task,
	add	r0, r4, #60	@, tmp148,
	bl	ASSIGN		@
.LVL80:
	.loc 1 298 7 view .LVU417
	add	r1, r5, #76	@, task,
	add	r0, r4, #76	@, tmp148,
	bl	ASSIGN		@
.LVL81:
	.loc 1 299 7 view .LVU418
@ C:\Users\president\Desktop\sbx\input\src\os_base\os_task_queue.c:311:       (&TASK_IDLE_QUEUE[0u])->r0                                   =   task->r0              ;
	.loc 1 311 76 is_stmt 0 view .LVU419
	ldrd	r0, r2, [r5, #128]	@ _19, vect__20.83, task,
@ C:\Users\president\Desktop\sbx\input\src\os_base\os_task_queue.c:301:       (&TASK_IDLE_QUEUE[0u])->fp                                    =   task->fp               ;
	.loc 1 301 77 view .LVU420
	ldrd	r1, r7, [r5, #116]	@ vect__17.77, vect__17.78, task,
@ C:\Users\president\Desktop\sbx\input\src\os_base\os_task_queue.c:299:       (&TASK_IDLE_QUEUE[0u])->current_prio                          =   task->current_prio     ;
	.loc 1 299 77 view .LVU421
	ldrb	r6, [r5, #108]	@ zero_extendqisi2	@ _15, task_40(D)->current_prio
@ C:\Users\president\Desktop\sbx\input\src\os_base\os_task_queue.c:300:       (&TASK_IDLE_QUEUE[0u])->default_prio                          =   task->default_prio     ;
	.loc 1 300 77 view .LVU422
	ldrb	r3, [r5, #109]	@ zero_extendqisi2	@ _16, task_40(D)->default_prio
@ C:\Users\president\Desktop\sbx\input\src\os_base\os_task_queue.c:299:       (&TASK_IDLE_QUEUE[0u])->current_prio                          =   task->current_prio     ;
	.loc 1 299 69 view .LVU423
	strb	r6, [r4, #108]	@ _15, TASK_IDLE_QUEUE[0].current_prio
	.loc 1 300 7 is_stmt 1 view .LVU424
@ C:\Users\president\Desktop\sbx\input\src\os_base\os_task_queue.c:304:       (&TASK_IDLE_QUEUE[0u])->task_group                            =   task->task_group       ;
	.loc 1 304 69 is_stmt 0 view .LVU425
	str	r0, [r4, #128]	@ _19, TASK_IDLE_QUEUE[0].task_group
@ C:\Users\president\Desktop\sbx\input\src\os_base\os_task_queue.c:303:       (&TASK_IDLE_QUEUE[0u])->task_state                            =   E_TASK_READY             ;
	.loc 1 303 69 view .LVU426
	movs	r6, #2	@ tmp200,
@ C:\Users\president\Desktop\sbx\input\src\os_base\os_task_queue.c:311:       (&TASK_IDLE_QUEUE[0u])->r0                                   =   task->r0              ;
	.loc 1 311 76 view .LVU427
	ldr	r0, [r5, #152]	@ vect__20.88, MEM[(long unsigned int *)task_40(D) + 152B]
@ C:\Users\president\Desktop\sbx\input\src\os_base\os_task_queue.c:311:       (&TASK_IDLE_QUEUE[0u])->r0                                   =   task->r0              ;
	.loc 1 311 68 view .LVU428
	str	r2, [r4, #132]	@ vect__20.83, MEM[(long unsigned int *)&TASK_IDLE_QUEUE + 132B]
@ C:\Users\president\Desktop\sbx\input\src\os_base\os_task_queue.c:311:       (&TASK_IDLE_QUEUE[0u])->r0                                   =   task->r0              ;
	.loc 1 311 76 view .LVU429
	ldr	r2, [r5, #156]	@ vect__20.89, MEM[(long unsigned int *)task_40(D) + 156B]
@ C:\Users\president\Desktop\sbx\input\src\os_base\os_task_queue.c:300:       (&TASK_IDLE_QUEUE[0u])->default_prio                          =   task->default_prio     ;
	.loc 1 300 69 view .LVU430
	strb	r3, [r4, #109]	@ _16, TASK_IDLE_QUEUE[0].default_prio
	.loc 1 301 7 is_stmt 1 view .LVU431
	.loc 1 302 7 view .LVU432
@ C:\Users\president\Desktop\sbx\input\src\os_base\os_task_queue.c:301:       (&TASK_IDLE_QUEUE[0u])->fp                                    =   task->fp               ;
	.loc 1 301 69 is_stmt 0 view .LVU433
	str	r1, [r4, #116]	@ vect__17.77, MEM[(void *)&TASK_IDLE_QUEUE + 116B]
@ C:\Users\president\Desktop\sbx\input\src\os_base\os_task_queue.c:311:       (&TASK_IDLE_QUEUE[0u])->r0                                   =   task->r0              ;
	.loc 1 311 76 view .LVU434
	ldr	r3, [r5, #136]	@ vect__20.84, MEM[(long unsigned int *)task_40(D) + 136B]
	ldr	r1, [r5, #140]	@ vect__20.85, MEM[(long unsigned int *)task_40(D) + 140B]
@ C:\Users\president\Desktop\sbx\input\src\os_base\os_task_queue.c:301:       (&TASK_IDLE_QUEUE[0u])->fp                                    =   task->fp               ;
	.loc 1 301 69 view .LVU435
	str	r7, [r4, #120]	@ vect__17.78, MEM[(void *)&TASK_IDLE_QUEUE + 120B]
	.loc 1 303 7 is_stmt 1 view .LVU436
@ C:\Users\president\Desktop\sbx\input\src\os_base\os_task_queue.c:303:       (&TASK_IDLE_QUEUE[0u])->task_state                            =   E_TASK_READY             ;
	.loc 1 303 69 is_stmt 0 view .LVU437
	strb	r6, [r4, #124]	@ tmp200, TASK_IDLE_QUEUE[0].task_state
	.loc 1 304 7 is_stmt 1 view .LVU438
	.loc 1 311 7 view .LVU439
	.loc 1 312 7 view .LVU440
	.loc 1 313 7 view .LVU441
	.loc 1 314 7 view .LVU442
	.loc 1 315 7 view .LVU443
	.loc 1 316 7 view .LVU444
	.loc 1 317 7 view .LVU445
	.loc 1 318 7 view .LVU446
	.loc 1 319 7 view .LVU447
	.loc 1 320 7 view .LVU448
	.loc 1 321 7 view .LVU449
	.loc 1 322 7 view .LVU450
	.loc 1 323 7 view .LVU451
@ C:\Users\president\Desktop\sbx\input\src\os_base\os_task_queue.c:311:       (&TASK_IDLE_QUEUE[0u])->r0                                   =   task->r0              ;
	.loc 1 311 76 is_stmt 0 view .LVU452
	ldr	r7, [r5, #144]	@ vect__20.86, MEM[(long unsigned int *)task_40(D) + 144B]
	ldr	r6, [r5, #148]	@ vect__20.87, MEM[(long unsigned int *)task_40(D) + 148B]
@ C:\Users\president\Desktop\sbx\input\src\os_base\os_task_queue.c:311:       (&TASK_IDLE_QUEUE[0u])->r0                                   =   task->r0              ;
	.loc 1 311 68 view .LVU453
	str	r3, [r4, #136]	@ vect__20.84, MEM[(long unsigned int *)&TASK_IDLE_QUEUE + 136B]
	str	r1, [r4, #140]	@ vect__20.85, MEM[(long unsigned int *)&TASK_IDLE_QUEUE + 140B]
@ C:\Users\president\Desktop\sbx\input\src\os_base\os_task_queue.c:311:       (&TASK_IDLE_QUEUE[0u])->r0                                   =   task->r0              ;
	.loc 1 311 76 view .LVU454
	ldr	r3, [r5, #160]	@ vect__20.90, MEM[(long unsigned int *)task_40(D) + 160B]
	ldr	r1, [r5, #164]	@ vect__20.91, MEM[(long unsigned int *)task_40(D) + 164B]
@ C:\Users\president\Desktop\sbx\input\src\os_base\os_task_queue.c:311:       (&TASK_IDLE_QUEUE[0u])->r0                                   =   task->r0              ;
	.loc 1 311 68 view .LVU455
	str	r3, [r4, #160]	@ vect__20.90, MEM[(long unsigned int *)&TASK_IDLE_QUEUE + 160B]
	strd	r0, r2, [r4, #152]	@ vect__20.88, vect__20.89, tmp148,
@ C:\Users\president\Desktop\sbx\input\src\os_base\os_task_queue.c:311:       (&TASK_IDLE_QUEUE[0u])->r0                                   =   task->r0              ;
	.loc 1 311 76 view .LVU456
	ldr	r2, [r5, #168]	@ vect__20.92, MEM[(long unsigned int *)task_40(D) + 168B]
@ C:\Users\president\Desktop\sbx\input\src\os_base\os_task_queue.c:311:       (&TASK_IDLE_QUEUE[0u])->r0                                   =   task->r0              ;
	.loc 1 311 68 view .LVU457
	str	r1, [r4, #164]	@ vect__20.91, MEM[(long unsigned int *)&TASK_IDLE_QUEUE + 164B]
	strd	r7, r6, [r4, #144]	@ vect__20.86, vect__20.87, tmp148,
@ C:\Users\president\Desktop\sbx\input\src\os_base\os_task_queue.c:311:       (&TASK_IDLE_QUEUE[0u])->r0                                   =   task->r0              ;
	.loc 1 311 76 view .LVU458
	ldrd	r3, r7, [r5, #176]	@ vect__20.94, vect__20.95, task,
@ C:\Users\president\Desktop\sbx\input\src\os_base\os_task_queue.c:327:       (&TASK_IDLE_QUEUE[0u])->p_stack_pointer                         =   task->p_stack_pointer    ;
	.loc 1 327 79 view .LVU459
	ldrd	r6, r0, [r5, #184]	@ vect__33.100, vect__33.101, task,
@ C:\Users\president\Desktop\sbx\input\src\os_base\os_task_queue.c:311:       (&TASK_IDLE_QUEUE[0u])->r0                                   =   task->r0              ;
	.loc 1 311 68 view .LVU460
	str	r2, [r4, #168]	@ vect__20.92, MEM[(long unsigned int *)&TASK_IDLE_QUEUE + 168B]
	ldr	r2, [r5, #172]	@ tmp222, MEM[(long unsigned int *)task_40(D) + 172B]
@ C:\Users\president\Desktop\sbx\input\src\os_base\os_task_queue.c:327:       (&TASK_IDLE_QUEUE[0u])->p_stack_pointer                         =   task->p_stack_pointer    ;
	.loc 1 327 79 view .LVU461
	ldr	r1, [r5, #192]	@ vect__33.102, MEM[(unsigned_char_t * *)task_40(D) + 192B]
@ C:\Users\president\Desktop\sbx\input\src\os_base\os_task_queue.c:311:       (&TASK_IDLE_QUEUE[0u])->r0                                   =   task->r0              ;
	.loc 1 311 68 view .LVU462
	str	r2, [r4, #172]	@ tmp222, MEM[(long unsigned int *)&TASK_IDLE_QUEUE + 172B]
@ C:\Users\president\Desktop\sbx\input\src\os_base\os_task_queue.c:331:       (&TASK_IDLE_QUEUE[0u])->p_stack_pointer_end                      =   task->p_stack_pointer_end ;
	.loc 1 331 80 view .LVU463
	ldrd	r2, r5, [r5, #196]	@ _36, _37, task,
.LVL82:
@ C:\Users\president\Desktop\sbx\input\src\os_base\os_task_queue.c:311:       (&TASK_IDLE_QUEUE[0u])->r0                                   =   task->r0              ;
	.loc 1 311 68 view .LVU464
	strd	r3, r7, [r4, #176]	@ vect__20.94, vect__20.95, tmp148,
	.loc 1 327 7 is_stmt 1 view .LVU465
	.loc 1 328 7 view .LVU466
	.loc 1 329 7 view .LVU467
@ C:\Users\president\Desktop\sbx\input\src\os_base\os_task_queue.c:327:       (&TASK_IDLE_QUEUE[0u])->p_stack_pointer                         =   task->p_stack_pointer    ;
	.loc 1 327 71 is_stmt 0 view .LVU468
	strd	r6, r0, [r4, #184]	@ vect__33.100, vect__33.101, tmp148,
@ C:\Users\president\Desktop\sbx\input\src\os_base\os_task_queue.c:330:       (&TASK_IDLE_QUEUE[0u])->stack_size                             =   task->stack_size        ;
	.loc 1 330 70 view .LVU469
	strd	r1, r2, [r4, #192]	@ vect__33.102, _36, tmp148,
	.loc 1 331 7 is_stmt 1 view .LVU470
@ C:\Users\president\Desktop\sbx\input\src\os_base\os_task_queue.c:331:       (&TASK_IDLE_QUEUE[0u])->p_stack_pointer_end                      =   task->p_stack_pointer_end ;
	.loc 1 331 72 is_stmt 0 view .LVU471
	str	r5, [r4, #200]	@ _37, TASK_IDLE_QUEUE[0].p_stack_pointer_end
@ C:\Users\president\Desktop\sbx\input\src\os_base\os_task_queue.c:333: }
	.loc 1 333 1 view .LVU472
	pop	{r3, r4, r5, r6, r7, pc}	@
.L67:
	.align	2
.L66:
	.word	TASK_IDLE_QUEUE
	.cfi_endproc
.LFE9:
	.size	ADD_TO_IDLE_TASK_QUEUE, .-ADD_TO_IDLE_TASK_QUEUE
	.align	1
	.p2align 2,,3
	.global	GET_RUNNING_TASK
	.syntax unified
	.thumb
	.thumb_func
	.fpu softvfp
	.type	GET_RUNNING_TASK, %function
GET_RUNNING_TASK:
.LFB10:
	.loc 1 335 1 is_stmt 1 view -0
	.cfi_startproc
	@ args = 0, pretend = 0, frame = 0
	@ frame_needed = 0, uses_anonymous_args = 0
	@ link register save eliminated.
	.loc 1 336 4 view .LVU474
@ C:\Users\president\Desktop\sbx\input\src\os_base\os_task_queue.c:337: }
	.loc 1 337 1 is_stmt 0 view .LVU475
	ldr	r0, .L69	@,
	bx	lr	@
.L70:
	.align	2
.L69:
	.word	RUNNING_TASK
	.cfi_endproc
.LFE10:
	.size	GET_RUNNING_TASK, .-GET_RUNNING_TASK
	.align	1
	.p2align 2,,3
	.global	GET_RUNNING_SCHEDULING_QUEUE_ELEMENT_PTR
	.syntax unified
	.thumb
	.thumb_func
	.fpu softvfp
	.type	GET_RUNNING_SCHEDULING_QUEUE_ELEMENT_PTR, %function
GET_RUNNING_SCHEDULING_QUEUE_ELEMENT_PTR:
.LFB11:
	.loc 1 339 1 is_stmt 1 view -0
	.cfi_startproc
	@ args = 0, pretend = 0, frame = 0
	@ frame_needed = 0, uses_anonymous_args = 0
	@ link register save eliminated.
	.loc 1 340 4 view .LVU477
@ C:\Users\president\Desktop\sbx\input\src\os_base\os_task_queue.c:340:    return RUNNING_SCHEDULING_QUEUE_ENTRY;
	.loc 1 340 11 is_stmt 0 view .LVU478
	ldr	r3, .L72	@ tmp112,
@ C:\Users\president\Desktop\sbx\input\src\os_base\os_task_queue.c:341: }
	.loc 1 341 1 view .LVU479
	ldr	r0, [r3]	@, RUNNING_SCHEDULING_QUEUE_ENTRY
	bx	lr	@
.L73:
	.align	2
.L72:
	.word	RUNNING_SCHEDULING_QUEUE_ENTRY
	.cfi_endproc
.LFE11:
	.size	GET_RUNNING_SCHEDULING_QUEUE_ELEMENT_PTR, .-GET_RUNNING_SCHEDULING_QUEUE_ELEMENT_PTR
	.align	1
	.p2align 2,,3
	.global	OS_INIT_TASK
	.syntax unified
	.thumb
	.thumb_func
	.fpu softvfp
	.type	OS_INIT_TASK, %function
OS_INIT_TASK:
.LVL83:
.LFB12:
	.loc 1 354 1 is_stmt 1 view -0
	.cfi_startproc
	@ args = 24, pretend = 0, frame = 0
	@ frame_needed = 0, uses_anonymous_args = 0
	.loc 1 355 4 view .LVU481
@ C:\Users\president\Desktop\sbx\input\src\os_base\os_task_queue.c:354: {
	.loc 1 354 1 is_stmt 0 view .LVU482
	push	{r4, r5, r6, r7, r8, r9, r10, lr}	@
	.cfi_def_cfa_offset 32
	.cfi_offset 4, -32
	.cfi_offset 5, -28
	.cfi_offset 6, -24
	.cfi_offset 7, -20
	.cfi_offset 8, -16
	.cfi_offset 9, -12
	.cfi_offset 10, -8
	.cfi_offset 14, -4
	.loc 1 356 4 is_stmt 1 view .LVU483
@ C:\Users\president\Desktop\sbx\input\src\os_base\os_task_queue.c:354: {
	.loc 1 354 1 is_stmt 0 view .LVU484
	ldr	r7, [sp, #40]	@ uStackSize, uStackSize
	ldrb	r9, [sp, #44]	@ zero_extendqisi2	@ privilige_mode, privilige_mode
	ldrb	r8, [sp, #52]	@ zero_extendqisi2	@ default_prio, default_prio
	ldrd	ip, r5, [sp, #32]	@ p_task_group, pStackAddr,,
@ C:\Users\president\Desktop\sbx\input\src\os_base\os_task_queue.c:356:    if(task != NULL)
	.loc 1 356 6 view .LVU485
	cbz	r0, .L75	@ task,
	.loc 1 358 7 is_stmt 1 view .LVU486
	mov	r6, r3	@ idle_task, idle_task
@ C:\Users\president\Desktop\sbx\input\src\os_base\os_task_queue.c:358:       task->active           = FALSE;
	.loc 1 358 30 is_stmt 0 view .LVU487
	ldrb	r3, [r0]	@ zero_extendqisi2	@, task_8(D)->active
.LVL84:
@ C:\Users\president\Desktop\sbx\input\src\os_base\os_task_queue.c:361:       task->task_group       = p_task_group;
	.loc 1 361 30 view .LVU488
	str	ip, [r0, #128]	@ p_task_group, task_8(D)->task_group
@ C:\Users\president\Desktop\sbx\input\src\os_base\os_task_queue.c:358:       task->active           = FALSE;
	.loc 1 358 30 view .LVU489
	bfc	r3, #0, #1	@ task_8(D)->active,,
@ C:\Users\president\Desktop\sbx\input\src\os_base\os_task_queue.c:362:       task->nr_of_ins_activated = 0u;
	.loc 1 362 33 view .LVU490
	mov	r10, #0	@ tmp128,
	mov	r4, r0	@ task, task
@ C:\Users\president\Desktop\sbx\input\src\os_base\os_task_queue.c:360:       task->nr_of_ins_allowed   = AllowedInstances;
	.loc 1 360 33 view .LVU491
	strb	r2, [r0, #4]	@ AllowedInstances, task_8(D)->nr_of_ins_allowed
@ C:\Users\president\Desktop\sbx\input\src\os_base\os_task_queue.c:359:       task->fp               = TaskFunction;
	.loc 1 359 30 view .LVU492
	str	r1, [r0, #116]	@ TaskFunction, task_8(D)->fp
@ C:\Users\president\Desktop\sbx\input\src\os_base\os_task_queue.c:358:       task->active           = FALSE;
	.loc 1 358 30 view .LVU493
	strb	r3, [r0]	@ task_8(D)->active, task_8(D)->active
	.loc 1 359 7 is_stmt 1 view .LVU494
	.loc 1 360 7 view .LVU495
	.loc 1 361 7 view .LVU496
	.loc 1 362 7 view .LVU497
@ C:\Users\president\Desktop\sbx\input\src\os_base\os_task_queue.c:362:       task->nr_of_ins_activated = 0u;
	.loc 1 362 33 is_stmt 0 view .LVU498
	strb	r10, [r0, #5]	@ tmp128, task_8(D)->nr_of_ins_activated
	.loc 1 363 7 is_stmt 1 view .LVU499
	adds	r0, r0, #6	@, task,
.LVL85:
	.loc 1 363 7 is_stmt 0 view .LVU500
	bl	ASSIGN_NULL		@
.LVL86:
	.loc 1 364 7 is_stmt 1 view .LVU501
@ C:\Users\president\Desktop\sbx\input\src\os_base\os_task_queue.c:367:       task->overwaittime_per_prio_inc_step = 1u;
	.loc 1 367 44 is_stmt 0 view .LVU502
	movs	r3, #1	@ tmp133,
	str	r3, [r4, #56]	@ tmp133, task_8(D)->overwaittime_per_prio_inc_step
@ C:\Users\president\Desktop\sbx\input\src\os_base\os_task_queue.c:368:       ASSIGN_UINT32(&task->max_allowed_wait_time, 100000u);
	.loc 1 368 7 view .LVU503
	ldr	r1, .L79	@,
@ C:\Users\president\Desktop\sbx\input\src\os_base\os_task_queue.c:364:       task->privilige_mode   = privilige_mode;
	.loc 1 364 30 view .LVU504
	strb	r9, [r4, #204]	@ privilige_mode, task_8(D)->privilige_mode
	.loc 1 365 7 is_stmt 1 view .LVU505
@ C:\Users\president\Desktop\sbx\input\src\os_base\os_task_queue.c:368:       ASSIGN_UINT32(&task->max_allowed_wait_time, 100000u);
	.loc 1 368 7 is_stmt 0 view .LVU506
	add	r0, r4, #60	@, task,
@ C:\Users\president\Desktop\sbx\input\src\os_base\os_task_queue.c:365:       task->default_prio     = default_prio;
	.loc 1 365 30 view .LVU507
	strb	r8, [r4, #109]	@ default_prio, task_8(D)->default_prio
	.loc 1 367 7 is_stmt 1 view .LVU508
	.loc 1 368 7 view .LVU509
	bl	ASSIGN_UINT32		@
.LVL87:
	.loc 1 370 7 view .LVU510
@ C:\Users\president\Desktop\sbx\input\src\os_base\os_task_queue.c:370:       task->idle_task      = idle_task;
	.loc 1 370 28 is_stmt 0 view .LVU511
	ldrb	r3, [r4]	@ zero_extendqisi2	@, task_8(D)->idle_task
@ C:\Users\president\Desktop\sbx\input\src\os_base\os_task_queue.c:371:       task->state_request = &OS_TASK_STATE_REQUEST;
	.loc 1 371 27 view .LVU512
	ldr	r2, .L79+4	@ tmp138,
	str	r2, [r4, #120]	@ tmp138, task_8(D)->state_request
@ C:\Users\president\Desktop\sbx\input\src\os_base\os_task_queue.c:370:       task->idle_task      = idle_task;
	.loc 1 370 28 view .LVU513
	bfi	r3, r6, #2, #1	@ task_8(D)->idle_task, idle_task,,
	strb	r3, [r4]	@ task_8(D)->idle_task, task_8(D)->idle_task
	.loc 1 371 7 is_stmt 1 view .LVU514
	.loc 1 372 7 view .LVU515
	mov	r1, r10	@, tmp128
	mov	r0, r4	@, task
	bl	OS_TASK_STATE_REQUEST		@
.LVL88:
	.loc 1 373 7 view .LVU516
	mov	r0, r4	@, task
	bl	OS_CREATE_TASK		@
.LVL89:
	.loc 1 376 7 view .LVU517
@ C:\Users\president\Desktop\sbx\input\src\os_base\os_task_queue.c:378:       task->p_stack_pointer_end      = (unsigned_char_t*)pStackAddr + uStackSize - 1;/* end addresse */
	.loc 1 378 82 is_stmt 0 view .LVU518
	subs	r3, r7, #1	@ tmp139, uStackSize,
	add	r3, r3, r5	@ _5, pStackAddr
@ C:\Users\president\Desktop\sbx\input\src\os_base\os_task_queue.c:377:       task->p_stack_pointer_start    = pStackAddr;/*low addresse */
	.loc 1 377 38 view .LVU519
	strd	r5, r5, [r4, #188]	@ pStackAddr, pStackAddr, task,
	.loc 1 378 7 is_stmt 1 view .LVU520
@ C:\Users\president\Desktop\sbx\input\src\os_base\os_task_queue.c:378:       task->p_stack_pointer_end      = (unsigned_char_t*)pStackAddr + uStackSize - 1;/* end addresse */
	.loc 1 378 38 is_stmt 0 view .LVU521
	strd	r7, r3, [r4, #196]	@ uStackSize, _5, task,
	.loc 1 379 7 is_stmt 1 view .LVU522
	.loc 1 381 7 view .LVU523
@ C:\Users\president\Desktop\sbx\input\src\os_base\os_task_queue.c:381:       task->p_stack_pointer                    = task->p_stack_pointer_end;/* stack wchst von groen zu kleinen adressen.... */
	.loc 1 381 48 is_stmt 0 view .LVU524
	str	r3, [r4, #184]	@ _5, task_8(D)->p_stack_pointer
@ C:\Users\president\Desktop\sbx\input\src\os_base\os_task_queue.c:387: }
	.loc 1 387 1 view .LVU525
	pop	{r4, r5, r6, r7, r8, r9, r10, pc}	@
.LVL90:
.L75:
	.loc 1 385 7 is_stmt 1 view .LVU526
	movs	r1, #10	@,
.LVL91:
	.loc 1 385 7 is_stmt 0 view .LVU527
	movs	r0, #2	@,
.LVL92:
@ C:\Users\president\Desktop\sbx\input\src\os_base\os_task_queue.c:387: }
	.loc 1 387 1 view .LVU528
	pop	{r4, r5, r6, r7, r8, r9, r10, lr}	@
	.cfi_restore 14
	.cfi_restore 10
	.cfi_restore 9
	.cfi_restore 8
	.cfi_restore 7
	.cfi_restore 6
	.cfi_restore 5
	.cfi_restore 4
	.cfi_def_cfa_offset 0
.LVL93:
@ C:\Users\president\Desktop\sbx\input\src\os_base\os_task_queue.c:385:       OS_SET_SW_BUG(E_OS_BUG_NULL_POINTER, E_FUNC_INITTASK);
	.loc 1 385 7 view .LVU529
	b	OS_SET_SW_BUG		@
.LVL94:
.L80:
	.loc 1 385 7 view .LVU530
	.align	2
.L79:
	.word	100000
	.word	OS_TASK_STATE_REQUEST
	.cfi_endproc
.LFE12:
	.size	OS_INIT_TASK, .-OS_INIT_TASK
.Letext0:
	.file 2 "c:\\users\\president\\desktop\\sbx\\input\\src\\os_base\\os_base_types.h"
	.file 3 "c:\\users\\president\\desktop\\sbx\\input\\src\\os_base\\os_common.h"
	.file 4 "c:\\users\\president\\desktop\\sbx\\input\\src\\os_drivers\\lld_core.h"
	.file 5 "c:\\users\\president\\desktop\\sbx\\input\\src\\os_base\\os_task_common.h"
	.file 6 "C:\\Users\\president\\Desktop\\sbx\\input\\src\\os_base\\os_main.h"
	.file 7 "c:\\users\\president\\desktop\\sbx\\input\\src\\os_base\\os_ram.h"
	.file 8 "c:\\users\\president\\desktop\\sbx\\input\\src\\os_base\\os_ram_stack.h"
	.file 9 "C:\\Users\\president\\Desktop\\sbx\\input\\src\\os_base\\os_task_scheduler.h"