	.file	"os_sim_main.c"
	.text
Ltext0:
	.def	_printf;	.scl	3;	.type	32;	.endef
_printf:
LFB1:
	.file 1 "d:/programm/mingw/include/stdio.h"
	.loc 1 252 0
	.cfi_startproc
	pushl	%ebp
	.cfi_def_cfa_offset 8
	.cfi_offset 5, -8
	movl	%esp, %ebp
	.cfi_def_cfa_register 5
	pushl	%ebx
	subl	$36, %esp
	.cfi_offset 3, -12
	.loc 1 254 0
	leal	12(%ebp), %eax
	movl	%eax, -12(%ebp)
	.loc 1 255 0
	movl	-12(%ebp), %eax
	movl	%eax, 4(%esp)
	movl	8(%ebp), %eax
	movl	%eax, (%esp)
	call	___mingw_vprintf
	movl	%eax, %ebx
	.loc 1 257 0
	movl	%ebx, %eax
	.loc 1 258 0
	addl	$36, %esp
	popl	%ebx
	.cfi_restore 3
	popl	%ebp
	.cfi_restore 5
	.cfi_def_cfa 4, 4
	ret
	.cfi_endproc
LFE1:
	.def	___main;	.scl	2;	.type	32;	.endef
	.section .rdata,"dr"
LC1:
	.ascii "Zeit: %d\0"
	.text
	.globl	_main
	.def	_main;	.scl	2;	.type	32;	.endef
_main:
LFB10:
	.file 2 "E:/NeuOrga/Programmieren/c_cpp/github_os/input/src/os_sim/os_sim_main.c"
	.loc 2 11 0
	.cfi_startproc
	pushl	%ebp
	.cfi_def_cfa_offset 8
	.cfi_offset 5, -8
	movl	%esp, %ebp
	.cfi_def_cfa_register 5
	andl	$-16, %esp
	subl	$48, %esp
	.loc 2 11 0
	call	___main
	.loc 2 13 0
	movl	$0, 44(%esp)
	.loc 2 14 0
	movl	$0, (%esp)
	call	_time
	movl	%eax, 40(%esp)
	.loc 2 16 0
	call	_OS_StartOs
	.loc 2 17 0
	jmp	L4
L5:
	.loc 2 20 0
	call	_OS_StateHandler
	.loc 2 21 0
	incl	44(%esp)
L4:
	.loc 2 17 0
	movl	44(%esp), %eax
	movl	$0, %edx
	movl	%eax, 24(%esp)
	movl	%edx, 28(%esp)
	fildq	24(%esp)
	fldt	LC0
	fucompp
	fnstsw	%ax
	testb	$69, %ah
	je	L5
	.loc 2 24 0
	movl	$0, (%esp)
	call	_time
	subl	40(%esp), %eax
	movl	%eax, 40(%esp)
	.loc 2 25 0
	movl	40(%esp), %eax
	movl	%eax, 4(%esp)
	movl	$LC1, (%esp)
	call	_printf
	.loc 2 26 0
	call	_getchar
	.loc 2 27 0
	call	_getchar
	.loc 2 29 0
	movl	12(%ebp), %eax
	movl	(%eax), %edx
	movl	12(%ebp), %eax
	movl	%edx, (%eax)
	.loc 2 31 0
	movl	$0, %eax
	.loc 2 32 0
	leave
	.cfi_restore 5
	.cfi_def_cfa 4, 4
	ret
	.cfi_endproc
LFE10:
	.section .rdata,"dr"
	.align 16
LC0:
	.long	0
	.long	-1094967296
	.long	16409
	.text
Letext0:
	.file 3 "d:/programm/mingw/include/parts/time.h"