ARM GAS  C:\Users\PRESID~1\AppData\Local\Temp\ccgd5bvc.s 			page 1


   1              		.cpu cortex-m4
   2              		.eabi_attribute 20, 1
   3              		.eabi_attribute 21, 1
   4              		.eabi_attribute 23, 3
   5              		.eabi_attribute 24, 1
   6              		.eabi_attribute 25, 1
   7              		.eabi_attribute 26, 1
   8              		.eabi_attribute 30, 2
   9              		.eabi_attribute 34, 1
  10              		.eabi_attribute 18, 4
  11              		.file	"os_common.c"
  12              		.text
  13              	.Ltext0:
  14              		.cfi_sections	.debug_frame
  15              		.align	1
  16              		.p2align 2,,3
  17              		.global	OS_SET_SW_BUG
  18              		.syntax unified
  19              		.thumb
  20              		.thumb_func
  21              		.fpu softvfp
  23              	OS_SET_SW_BUG:
  24              	.LFB0:
  25              		.file 1 "E:\\NeuOrga\\Programmieren\\c_cpp\\github_os\\input\\src\\os_base\\os_common.c"
   1:E:\NeuOrga\Programmieren\c_cpp\github_os\input\src\os_base\os_common.c **** #include "os_firstinc.h"
   2:E:\NeuOrga\Programmieren\c_cpp\github_os\input\src\os_base\os_common.c **** #include "os_task_common.h"
   3:E:\NeuOrga\Programmieren\c_cpp\github_os\input\src\os_base\os_common.c **** 
   4:E:\NeuOrga\Programmieren\c_cpp\github_os\input\src\os_base\os_common.c **** void OS_SET_SW_BUG(os_sw_bugs_t bug_nr, os_sw_bugs_function_t task_func_nr)
   5:E:\NeuOrga\Programmieren\c_cpp\github_os\input\src\os_base\os_common.c **** {
  26              		.loc 1 5 0
  27              		.cfi_startproc
  28              		@ args = 0, pretend = 0, frame = 0
  29              		@ frame_needed = 0, uses_anonymous_args = 0
  30              		@ link register save eliminated.
  31              	.LVL0:
   6:E:\NeuOrga\Programmieren\c_cpp\github_os\input\src\os_base\os_common.c ****    OS_SW_BUG[task_func_nr] = bug_nr;
  32              		.loc 1 6 0
  33 0000 014B     		ldr	r3, .L3
  34 0002 5854     		strb	r0, [r3, r1]
   7:E:\NeuOrga\Programmieren\c_cpp\github_os\input\src\os_base\os_common.c **** }
  35              		.loc 1 7 0
  36 0004 7047     		bx	lr
  37              	.L4:
  38 0006 00BF     		.align	2
  39              	.L3:
  40 0008 00000000 		.word	OS_SW_BUG
  41              		.cfi_endproc
  42              	.LFE0:
  44              		.align	1
  45              		.p2align 2,,3
  46              		.global	OS_GET_CURRENT_TIME
  47              		.syntax unified
  48              		.thumb
  49              		.thumb_func
  50              		.fpu softvfp
  52              	OS_GET_CURRENT_TIME:
  53              	.LFB1:
ARM GAS  C:\Users\PRESID~1\AppData\Local\Temp\ccgd5bvc.s 			page 2


   8:E:\NeuOrga\Programmieren\c_cpp\github_os\input\src\os_base\os_common.c **** 
   9:E:\NeuOrga\Programmieren\c_cpp\github_os\input\src\os_base\os_common.c **** 
  10:E:\NeuOrga\Programmieren\c_cpp\github_os\input\src\os_base\os_common.c **** 
  11:E:\NeuOrga\Programmieren\c_cpp\github_os\input\src\os_base\os_common.c **** void OS_GET_CURRENT_TIME(timebig_t* time)
  12:E:\NeuOrga\Programmieren\c_cpp\github_os\input\src\os_base\os_common.c **** {
  54              		.loc 1 12 0
  55              		.cfi_startproc
  56              		@ args = 0, pretend = 0, frame = 48
  57              		@ frame_needed = 0, uses_anonymous_args = 0
  58              	.LVL1:
  59 000c 2DE9F04F 		push	{r4, r5, r6, r7, r8, r9, r10, fp, lr}
  60              		.cfi_def_cfa_offset 36
  61              		.cfi_offset 4, -36
  62              		.cfi_offset 5, -32
  63              		.cfi_offset 6, -28
  64              		.cfi_offset 7, -24
  65              		.cfi_offset 8, -20
  66              		.cfi_offset 9, -16
  67              		.cfi_offset 10, -12
  68              		.cfi_offset 11, -8
  69              		.cfi_offset 14, -4
  70              	.LBB105:
  71              	.LBB106:
  72              	.LBB107:
  73              	.LBB108:
  13:E:\NeuOrga\Programmieren\c_cpp\github_os\input\src\os_base\os_common.c ****    /* update the current time info */
  14:E:\NeuOrga\Programmieren\c_cpp\github_os\input\src\os_base\os_common.c ****    OS_UpdateCurrentTime();
  15:E:\NeuOrga\Programmieren\c_cpp\github_os\input\src\os_base\os_common.c ****    /* output the time to the caller */
  16:E:\NeuOrga\Programmieren\c_cpp\github_os\input\src\os_base\os_common.c ****    ASSIGN(time, &LOCAL_SYSTEM_TIME);
  17:E:\NeuOrga\Programmieren\c_cpp\github_os\input\src\os_base\os_common.c **** 
  18:E:\NeuOrga\Programmieren\c_cpp\github_os\input\src\os_base\os_common.c **** }
  19:E:\NeuOrga\Programmieren\c_cpp\github_os\input\src\os_base\os_common.c **** void OS_UpdateCurrentTime(void)
  20:E:\NeuOrga\Programmieren\c_cpp\github_os\input\src\os_base\os_common.c **** {
  21:E:\NeuOrga\Programmieren\c_cpp\github_os\input\src\os_base\os_common.c ****    /* the only free running counter on STM32F4 is the DWT counter DWT_CYCCNT
  22:E:\NeuOrga\Programmieren\c_cpp\github_os\input\src\os_base\os_common.c ****    The counter will overflow every 25sec -> provide function OS_ClearCurrentTime to reset the value
  23:E:\NeuOrga\Programmieren\c_cpp\github_os\input\src\os_base\os_common.c ****    */
  24:E:\NeuOrga\Programmieren\c_cpp\github_os\input\src\os_base\os_common.c ****    timebig_t tmp_time;
  25:E:\NeuOrga\Programmieren\c_cpp\github_os\input\src\os_base\os_common.c ****    OS_READ_AND_RESET_CURRENT_TIME(&tmp_time);
  26:E:\NeuOrga\Programmieren\c_cpp\github_os\input\src\os_base\os_common.c **** 
  27:E:\NeuOrga\Programmieren\c_cpp\github_os\input\src\os_base\os_common.c ****    /* increment the global time value by the new increment received by the hardware register */
  28:E:\NeuOrga\Programmieren\c_cpp\github_os\input\src\os_base\os_common.c ****    INT_ADD(&LOCAL_SYSTEM_TIME, &LOCAL_SYSTEM_TIME, &tmp_time);
  29:E:\NeuOrga\Programmieren\c_cpp\github_os\input\src\os_base\os_common.c **** }
  30:E:\NeuOrga\Programmieren\c_cpp\github_os\input\src\os_base\os_common.c **** 
  31:E:\NeuOrga\Programmieren\c_cpp\github_os\input\src\os_base\os_common.c **** void OS_READ_AND_RESET_CURRENT_TIME(timebig_t* timebig)
  32:E:\NeuOrga\Programmieren\c_cpp\github_os\input\src\os_base\os_common.c **** {
  33:E:\NeuOrga\Programmieren\c_cpp\github_os\input\src\os_base\os_common.c **** #if(CFG_PROCESSOR == MCU_CORTEX_M4)
  34:E:\NeuOrga\Programmieren\c_cpp\github_os\input\src\os_base\os_common.c ****    volatile uint32 time = 0u;
  35:E:\NeuOrga\Programmieren\c_cpp\github_os\input\src\os_base\os_common.c **** 
  36:E:\NeuOrga\Programmieren\c_cpp\github_os\input\src\os_base\os_common.c ****    /* unlock the CoreSight (CM4) */
  37:E:\NeuOrga\Programmieren\c_cpp\github_os\input\src\os_base\os_common.c ****    *DWT_LAR = 0xC5ACCE55u;
  74              		.loc 1 37 0
  75 0010 934A     		ldr	r2, .L29
  38:E:\NeuOrga\Programmieren\c_cpp\github_os\input\src\os_base\os_common.c **** 
  39:E:\NeuOrga\Programmieren\c_cpp\github_os\input\src\os_base\os_common.c ****    /* enable trace/debug block TRCENA */
  40:E:\NeuOrga\Programmieren\c_cpp\github_os\input\src\os_base\os_common.c ****    *SCB_DEMCR |= 0x01000000u;
  76              		.loc 1 40 0
  77 0012 DFF85C92 		ldr	r9, .L29+16
ARM GAS  C:\Users\PRESID~1\AppData\Local\Temp\ccgd5bvc.s 			page 3


  37:E:\NeuOrga\Programmieren\c_cpp\github_os\input\src\os_base\os_common.c **** 
  78              		.loc 1 37 0
  79 0016 9349     		ldr	r1, .L29+4
  80              	.LBE108:
  81              	.LBE107:
  82              	.LBB113:
  83              	.LBB114:
  84              	.LBB115:
  41:E:\NeuOrga\Programmieren\c_cpp\github_os\input\src\os_base\os_common.c **** 
  42:E:\NeuOrga\Programmieren\c_cpp\github_os\input\src\os_base\os_common.c ****    /* save the current delta time */
  43:E:\NeuOrga\Programmieren\c_cpp\github_os\input\src\os_base\os_common.c ****    time = *DWT_CYCCNT;
  44:E:\NeuOrga\Programmieren\c_cpp\github_os\input\src\os_base\os_common.c **** 
  45:E:\NeuOrga\Programmieren\c_cpp\github_os\input\src\os_base\os_common.c ****    /* reset the counter to 0 cycle */
  46:E:\NeuOrga\Programmieren\c_cpp\github_os\input\src\os_base\os_common.c ****    *DWT_CYCCNT = 0u;
  47:E:\NeuOrga\Programmieren\c_cpp\github_os\input\src\os_base\os_common.c **** 
  48:E:\NeuOrga\Programmieren\c_cpp\github_os\input\src\os_base\os_common.c ****    /* enable the counter */
  49:E:\NeuOrga\Programmieren\c_cpp\github_os\input\src\os_base\os_common.c ****    *DWT_CTRL |= 1u;
  50:E:\NeuOrga\Programmieren\c_cpp\github_os\input\src\os_base\os_common.c **** 
  51:E:\NeuOrga\Programmieren\c_cpp\github_os\input\src\os_base\os_common.c ****    /* store the read time at the pointer pointer buffer */
  52:E:\NeuOrga\Programmieren\c_cpp\github_os\input\src\os_base\os_common.c ****    ASSIGN_UINT32(timebig, time);
  53:E:\NeuOrga\Programmieren\c_cpp\github_os\input\src\os_base\os_common.c **** #else
  54:E:\NeuOrga\Programmieren\c_cpp\github_os\input\src\os_base\os_common.c ****    ASSIGN_UINT32(timebig, 5u);/* assume a fixed step .... */
  55:E:\NeuOrga\Programmieren\c_cpp\github_os\input\src\os_base\os_common.c **** #endif
  56:E:\NeuOrga\Programmieren\c_cpp\github_os\input\src\os_base\os_common.c **** }
  57:E:\NeuOrga\Programmieren\c_cpp\github_os\input\src\os_base\os_common.c **** 
  58:E:\NeuOrga\Programmieren\c_cpp\github_os\input\src\os_base\os_common.c **** void INT_DIV(big_int* Quotient, const big_int* Dividend, const big_int* Divisor)
  59:E:\NeuOrga\Programmieren\c_cpp\github_os\input\src\os_base\os_common.c **** {
  60:E:\NeuOrga\Programmieren\c_cpp\github_os\input\src\os_base\os_common.c ****    /*Tag: Big Int*/
  61:E:\NeuOrga\Programmieren\c_cpp\github_os\input\src\os_base\os_common.c ****    /*
  62:E:\NeuOrga\Programmieren\c_cpp\github_os\input\src\os_base\os_common.c ****    example: 
  63:E:\NeuOrga\Programmieren\c_cpp\github_os\input\src\os_base\os_common.c ****    Dividend 0x0456
  64:E:\NeuOrga\Programmieren\c_cpp\github_os\input\src\os_base\os_common.c ****    Divisor  0x32
  65:E:\NeuOrga\Programmieren\c_cpp\github_os\input\src\os_base\os_common.c ****    Quotient 0x0456 / 0x32
  66:E:\NeuOrga\Programmieren\c_cpp\github_os\input\src\os_base\os_common.c ****    
  67:E:\NeuOrga\Programmieren\c_cpp\github_os\input\src\os_base\os_common.c ****    0x0456 : 0x32 = 0x16 R 0x9
  68:E:\NeuOrga\Programmieren\c_cpp\github_os\input\src\os_base\os_common.c ****   -0x032|
  69:E:\NeuOrga\Programmieren\c_cpp\github_os\input\src\os_base\os_common.c ****    -----|
  70:E:\NeuOrga\Programmieren\c_cpp\github_os\input\src\os_base\os_common.c ****     0x136
  71:E:\NeuOrga\Programmieren\c_cpp\github_os\input\src\os_base\os_common.c ****    -0x12C
  72:E:\NeuOrga\Programmieren\c_cpp\github_os\input\src\os_base\os_common.c ****     -----|
  73:E:\NeuOrga\Programmieren\c_cpp\github_os\input\src\os_base\os_common.c ****         9
  74:E:\NeuOrga\Programmieren\c_cpp\github_os\input\src\os_base\os_common.c ****    */
  75:E:\NeuOrga\Programmieren\c_cpp\github_os\input\src\os_base\os_common.c ****    uint32 nibble_shift_left_amount = 0u;
  76:E:\NeuOrga\Programmieren\c_cpp\github_os\input\src\os_base\os_common.c ****    big_int local_zero;
  77:E:\NeuOrga\Programmieren\c_cpp\github_os\input\src\os_base\os_common.c ****    big_int tmp_Dividend, tmp_Divisor;
  78:E:\NeuOrga\Programmieren\c_cpp\github_os\input\src\os_base\os_common.c ****    big_int rest;
  79:E:\NeuOrga\Programmieren\c_cpp\github_os\input\src\os_base\os_common.c ****    uint32  local_cnt = 0;
  80:E:\NeuOrga\Programmieren\c_cpp\github_os\input\src\os_base\os_common.c ****    uint32 one_shifted_nibble; 
  81:E:\NeuOrga\Programmieren\c_cpp\github_os\input\src\os_base\os_common.c ****    uint32 u32_teilergebnis;
  82:E:\NeuOrga\Programmieren\c_cpp\github_os\input\src\os_base\os_common.c ****    big_int teilergebnis;
  83:E:\NeuOrga\Programmieren\c_cpp\github_os\input\src\os_base\os_common.c ****    
  84:E:\NeuOrga\Programmieren\c_cpp\github_os\input\src\os_base\os_common.c ****    ASSIGN_NULL(&local_zero);
  85:E:\NeuOrga\Programmieren\c_cpp\github_os\input\src\os_base\os_common.c ****    ASSIGN(&tmp_Dividend, Dividend);
  86:E:\NeuOrga\Programmieren\c_cpp\github_os\input\src\os_base\os_common.c ****    ASSIGN(&tmp_Divisor, Divisor);
  87:E:\NeuOrga\Programmieren\c_cpp\github_os\input\src\os_base\os_common.c ****    ASSIGN(&rest, Dividend);
  88:E:\NeuOrga\Programmieren\c_cpp\github_os\input\src\os_base\os_common.c ****    
  89:E:\NeuOrga\Programmieren\c_cpp\github_os\input\src\os_base\os_common.c ****    /* Case 1: Divisor == 0 */
ARM GAS  C:\Users\PRESID~1\AppData\Local\Temp\ccgd5bvc.s 			page 4


  90:E:\NeuOrga\Programmieren\c_cpp\github_os\input\src\os_base\os_common.c ****    if(IS_EQUAL(&tmp_Divisor,&local_zero))
  91:E:\NeuOrga\Programmieren\c_cpp\github_os\input\src\os_base\os_common.c ****    {
  92:E:\NeuOrga\Programmieren\c_cpp\github_os\input\src\os_base\os_common.c ****       /* Error "N.a.N." */     
  93:E:\NeuOrga\Programmieren\c_cpp\github_os\input\src\os_base\os_common.c ****       OS_SET_SW_BUG(E_OS_BUG_DIVISION_BY_ZERO, E_FUNC_INTDIV);
  94:E:\NeuOrga\Programmieren\c_cpp\github_os\input\src\os_base\os_common.c ****       return;      
  95:E:\NeuOrga\Programmieren\c_cpp\github_os\input\src\os_base\os_common.c ****    }      
  96:E:\NeuOrga\Programmieren\c_cpp\github_os\input\src\os_base\os_common.c ****    while(IS_GREATER_OR_EQUAL(&rest, &tmp_Dividend))
  97:E:\NeuOrga\Programmieren\c_cpp\github_os\input\src\os_base\os_common.c ****    {
  98:E:\NeuOrga\Programmieren\c_cpp\github_os\input\src\os_base\os_common.c ****       /* 
  99:E:\NeuOrga\Programmieren\c_cpp\github_os\input\src\os_base\os_common.c ****       Step 1: Divisor um so viele nibble shiften nach links bis der Divisor größer wie der Divide
 100:E:\NeuOrga\Programmieren\c_cpp\github_os\input\src\os_base\os_common.c ****       Step 2: Die Zahl aus Step 1 um 1 verringern = nibble_shift_left_amount
 101:E:\NeuOrga\Programmieren\c_cpp\github_os\input\src\os_base\os_common.c ****       Step 3: Dividend - n*(Divisor << nibble_shift_left_amount ) = Rest (e.g. 0x136)
 102:E:\NeuOrga\Programmieren\c_cpp\github_os\input\src\os_base\os_common.c ****               Dabei n solange vergrößern bis "Rest" kleiner wie Divisor ist  
 103:E:\NeuOrga\Programmieren\c_cpp\github_os\input\src\os_base\os_common.c ****       Step 4: Teilergebnis = n*(1<<nibble_shift_left_amount)           
 104:E:\NeuOrga\Programmieren\c_cpp\github_os\input\src\os_base\os_common.c ****       Step 5: Teilergebnisse addieren.
 105:E:\NeuOrga\Programmieren\c_cpp\github_os\input\src\os_base\os_common.c ****       */
 106:E:\NeuOrga\Programmieren\c_cpp\github_os\input\src\os_base\os_common.c ****       /* Step 1: Divisor um so viele nibble shiften nach links bis der Divisor größer wie der Div
 107:E:\NeuOrga\Programmieren\c_cpp\github_os\input\src\os_base\os_common.c ****       while(IS_LESS_OR_EQUAL(&tmp_Divisor, &tmp_Dividend))
 108:E:\NeuOrga\Programmieren\c_cpp\github_os\input\src\os_base\os_common.c ****       {      
 109:E:\NeuOrga\Programmieren\c_cpp\github_os\input\src\os_base\os_common.c ****          SHIFT_LEFT(&tmp_Divisor, 4u);
 110:E:\NeuOrga\Programmieren\c_cpp\github_os\input\src\os_base\os_common.c ****          nibble_shift_left_amount++;
 111:E:\NeuOrga\Programmieren\c_cpp\github_os\input\src\os_base\os_common.c ****       }
 112:E:\NeuOrga\Programmieren\c_cpp\github_os\input\src\os_base\os_common.c ****       /* Divisor is already shifted at this point by nibble_shift_left_amount */
 113:E:\NeuOrga\Programmieren\c_cpp\github_os\input\src\os_base\os_common.c ****       /* Step 3: Dabei n = local_cnt solange vergrößern bis "Rest" kleiner wie Divisor ist */
 114:E:\NeuOrga\Programmieren\c_cpp\github_os\input\src\os_base\os_common.c ****       
 115:E:\NeuOrga\Programmieren\c_cpp\github_os\input\src\os_base\os_common.c ****       local_cnt = 0u;
 116:E:\NeuOrga\Programmieren\c_cpp\github_os\input\src\os_base\os_common.c ****       while(IS_LESS_OR_EQUAL(&rest, &tmp_Divisor))
 117:E:\NeuOrga\Programmieren\c_cpp\github_os\input\src\os_base\os_common.c ****       {
 118:E:\NeuOrga\Programmieren\c_cpp\github_os\input\src\os_base\os_common.c ****          INT_SUB(&rest,&tmp_Dividend,&tmp_Divisor);
 119:E:\NeuOrga\Programmieren\c_cpp\github_os\input\src\os_base\os_common.c ****          local_cnt++;      
 120:E:\NeuOrga\Programmieren\c_cpp\github_os\input\src\os_base\os_common.c ****       }
 121:E:\NeuOrga\Programmieren\c_cpp\github_os\input\src\os_base\os_common.c ****       /* Step 4: Teilergebnis = n*(1<<nibble_shift_left_amount)           */
 122:E:\NeuOrga\Programmieren\c_cpp\github_os\input\src\os_base\os_common.c ****       one_shifted_nibble = 1u<<nibble_shift_left_amount;
 123:E:\NeuOrga\Programmieren\c_cpp\github_os\input\src\os_base\os_common.c ****       u32_teilergebnis = local_cnt * one_shifted_nibble;
 124:E:\NeuOrga\Programmieren\c_cpp\github_os\input\src\os_base\os_common.c **** 
 125:E:\NeuOrga\Programmieren\c_cpp\github_os\input\src\os_base\os_common.c ****       ASSIGN_UINT32(&teilergebnis,u32_teilergebnis);
 126:E:\NeuOrga\Programmieren\c_cpp\github_os\input\src\os_base\os_common.c ****       
 127:E:\NeuOrga\Programmieren\c_cpp\github_os\input\src\os_base\os_common.c ****       /* Step 5: Teilergebnisse addieren.*/
 128:E:\NeuOrga\Programmieren\c_cpp\github_os\input\src\os_base\os_common.c ****       INT_ADD(&teilergebnis, &teilergebnis, &rest);
 129:E:\NeuOrga\Programmieren\c_cpp\github_os\input\src\os_base\os_common.c ****       
 130:E:\NeuOrga\Programmieren\c_cpp\github_os\input\src\os_base\os_common.c ****             
 131:E:\NeuOrga\Programmieren\c_cpp\github_os\input\src\os_base\os_common.c ****    }   
 132:E:\NeuOrga\Programmieren\c_cpp\github_os\input\src\os_base\os_common.c ****    ASSIGN(Quotient, &teilergebnis);
 133:E:\NeuOrga\Programmieren\c_cpp\github_os\input\src\os_base\os_common.c **** }
 134:E:\NeuOrga\Programmieren\c_cpp\github_os\input\src\os_base\os_common.c **** 
 135:E:\NeuOrga\Programmieren\c_cpp\github_os\input\src\os_base\os_common.c **** void INT_MUL(big_int* Produkt, const big_int* Faktor1, const big_int* Faktor2)
 136:E:\NeuOrga\Programmieren\c_cpp\github_os\input\src\os_base\os_common.c **** {
 137:E:\NeuOrga\Programmieren\c_cpp\github_os\input\src\os_base\os_common.c ****    /*Tag: Big Int*/
 138:E:\NeuOrga\Programmieren\c_cpp\github_os\input\src\os_base\os_common.c ****    /*
 139:E:\NeuOrga\Programmieren\c_cpp\github_os\input\src\os_base\os_common.c ****    example: 
 140:E:\NeuOrga\Programmieren\c_cpp\github_os\input\src\os_base\os_common.c ****    Faktor1 0x0456
 141:E:\NeuOrga\Programmieren\c_cpp\github_os\input\src\os_base\os_common.c ****    Faktor2 0x0321
 142:E:\NeuOrga\Programmieren\c_cpp\github_os\input\src\os_base\os_common.c ****    Produkt 0x0456 * 0x0321
 143:E:\NeuOrga\Programmieren\c_cpp\github_os\input\src\os_base\os_common.c ****    
 144:E:\NeuOrga\Programmieren\c_cpp\github_os\input\src\os_base\os_common.c ****    
 145:E:\NeuOrga\Programmieren\c_cpp\github_os\input\src\os_base\os_common.c ****    */
 146:E:\NeuOrga\Programmieren\c_cpp\github_os\input\src\os_base\os_common.c ****    big_int result, local_tmp_bigInt;
ARM GAS  C:\Users\PRESID~1\AppData\Local\Temp\ccgd5bvc.s 			page 5


 147:E:\NeuOrga\Programmieren\c_cpp\github_os\input\src\os_base\os_common.c ****    sint32 pos1, pos2;
 148:E:\NeuOrga\Programmieren\c_cpp\github_os\input\src\os_base\os_common.c ****    uint16 local_tmp16;
 149:E:\NeuOrga\Programmieren\c_cpp\github_os\input\src\os_base\os_common.c ****    
 150:E:\NeuOrga\Programmieren\c_cpp\github_os\input\src\os_base\os_common.c ****    ASSIGN_NULL(&local_tmp_bigInt);
 151:E:\NeuOrga\Programmieren\c_cpp\github_os\input\src\os_base\os_common.c ****    ASSIGN_NULL(&result);
 152:E:\NeuOrga\Programmieren\c_cpp\github_os\input\src\os_base\os_common.c ****    
 153:E:\NeuOrga\Programmieren\c_cpp\github_os\input\src\os_base\os_common.c ****    /* 
 154:E:\NeuOrga\Programmieren\c_cpp\github_os\input\src\os_base\os_common.c ****    0x0456 * 0x0321
 155:E:\NeuOrga\Programmieren\c_cpp\github_os\input\src\os_base\os_common.c ****    => 0x0400 * 0x0300 = 0x04 * 0x03 * 0x100*0x100     = 0xC0000
 156:E:\NeuOrga\Programmieren\c_cpp\github_os\input\src\os_base\os_common.c ****     + 0x0400 * 0x0021 = 0x04 * 0x21 * 0x100*0x1       = 0x8400 
 157:E:\NeuOrga\Programmieren\c_cpp\github_os\input\src\os_base\os_common.c ****     + 0x0056 * 0x0300 = 0x56 * 0x03 * 0x1  *0x100*0x1 = 0x10200
 158:E:\NeuOrga\Programmieren\c_cpp\github_os\input\src\os_base\os_common.c ****     + 0x0056 * 0x0021 = 0x56 * 0x21 * 0x1  *0x1  *0x1 = 0xB16
 159:E:\NeuOrga\Programmieren\c_cpp\github_os\input\src\os_base\os_common.c ****     ----------------------
 160:E:\NeuOrga\Programmieren\c_cpp\github_os\input\src\os_base\os_common.c ****     => Summe = 0xD9116
 161:E:\NeuOrga\Programmieren\c_cpp\github_os\input\src\os_base\os_common.c ****    
 162:E:\NeuOrga\Programmieren\c_cpp\github_os\input\src\os_base\os_common.c ****    Step 1: 
 163:E:\NeuOrga\Programmieren\c_cpp\github_os\input\src\os_base\os_common.c ****    Step 2: 
 164:E:\NeuOrga\Programmieren\c_cpp\github_os\input\src\os_base\os_common.c ****    Step 3: 
 165:E:\NeuOrga\Programmieren\c_cpp\github_os\input\src\os_base\os_common.c ****    Step 4: 
 166:E:\NeuOrga\Programmieren\c_cpp\github_os\input\src\os_base\os_common.c ****    Step 5: 
 167:E:\NeuOrga\Programmieren\c_cpp\github_os\input\src\os_base\os_common.c ****    */
 168:E:\NeuOrga\Programmieren\c_cpp\github_os\input\src\os_base\os_common.c ****    for(pos1 = BIG_INT_SIZE-1; pos1 >= 0; pos1--)
 169:E:\NeuOrga\Programmieren\c_cpp\github_os\input\src\os_base\os_common.c ****    {
 170:E:\NeuOrga\Programmieren\c_cpp\github_os\input\src\os_base\os_common.c ****       for(pos2 = BIG_INT_SIZE-1; pos2 >= 0; pos2--)
 171:E:\NeuOrga\Programmieren\c_cpp\github_os\input\src\os_base\os_common.c ****       {
 172:E:\NeuOrga\Programmieren\c_cpp\github_os\input\src\os_base\os_common.c ****          local_tmp16 = ((uint16) *((uint8*)Faktor1+(uint32)pos1)) * ((uint16) *((uint8*)Faktor2+(ui
 173:E:\NeuOrga\Programmieren\c_cpp\github_os\input\src\os_base\os_common.c ****          
 174:E:\NeuOrga\Programmieren\c_cpp\github_os\input\src\os_base\os_common.c ****          ASSIGN_UINT32(&local_tmp_bigInt, (uint32) local_tmp16);
 175:E:\NeuOrga\Programmieren\c_cpp\github_os\input\src\os_base\os_common.c ****          
 176:E:\NeuOrga\Programmieren\c_cpp\github_os\input\src\os_base\os_common.c ****          SHIFT_LEFT(&local_tmp_bigInt, pos1+pos2);
 177:E:\NeuOrga\Programmieren\c_cpp\github_os\input\src\os_base\os_common.c ****          
 178:E:\NeuOrga\Programmieren\c_cpp\github_os\input\src\os_base\os_common.c ****          INT_ADD(&result, &result, &local_tmp_bigInt);
 179:E:\NeuOrga\Programmieren\c_cpp\github_os\input\src\os_base\os_common.c ****       }
 180:E:\NeuOrga\Programmieren\c_cpp\github_os\input\src\os_base\os_common.c ****    }  
 181:E:\NeuOrga\Programmieren\c_cpp\github_os\input\src\os_base\os_common.c ****    ASSIGN(Produkt, &result);
 182:E:\NeuOrga\Programmieren\c_cpp\github_os\input\src\os_base\os_common.c **** }
 183:E:\NeuOrga\Programmieren\c_cpp\github_os\input\src\os_base\os_common.c **** 
 184:E:\NeuOrga\Programmieren\c_cpp\github_os\input\src\os_base\os_common.c **** void INT_ADD(big_int* Summe, const big_int* ErsterSummand, const big_int* ZweiterSummand)
 185:E:\NeuOrga\Programmieren\c_cpp\github_os\input\src\os_base\os_common.c **** {
 186:E:\NeuOrga\Programmieren\c_cpp\github_os\input\src\os_base\os_common.c ****    sint8 pos;
 187:E:\NeuOrga\Programmieren\c_cpp\github_os\input\src\os_base\os_common.c ****    uint16 carry  = 0u;
 188:E:\NeuOrga\Programmieren\c_cpp\github_os\input\src\os_base\os_common.c **** 
 189:E:\NeuOrga\Programmieren\c_cpp\github_os\input\src\os_base\os_common.c ****    for(pos = BIG_INT_SIZE-1; pos >= 0; pos--)
 190:E:\NeuOrga\Programmieren\c_cpp\github_os\input\src\os_base\os_common.c ****    {
 191:E:\NeuOrga\Programmieren\c_cpp\github_os\input\src\os_base\os_common.c ****       uint16 tmp_sum = (uint16)ErsterSummand->number[pos] +(uint16)ZweiterSummand->number[pos] + ca
  85              		.loc 1 191 0
  86 0018 934B     		ldr	r3, .L29+8
  87              	.LBE115:
  88              	.LBE114:
  89              	.LBE113:
  90              	.LBB122:
  91              	.LBB109:
  43:E:\NeuOrga\Programmieren\c_cpp\github_os\input\src\os_base\os_common.c **** 
  92              		.loc 1 43 0
  93 001a DFF858E2 		ldr	lr, .L29+20
  49:E:\NeuOrga\Programmieren\c_cpp\github_os\input\src\os_base\os_common.c **** 
  94              		.loc 1 49 0
ARM GAS  C:\Users\PRESID~1\AppData\Local\Temp\ccgd5bvc.s 			page 6


  95 001e DFF858C2 		ldr	ip, .L29+24
  96              	.LBE109:
  97              	.LBE122:
  98              	.LBE106:
  99              	.LBE105:
  12:E:\NeuOrga\Programmieren\c_cpp\github_os\input\src\os_base\os_common.c ****    /* update the current time info */
 100              		.loc 1 12 0
 101 0022 8DB0     		sub	sp, sp, #52
 102              		.cfi_def_cfa_offset 88
 103              	.LVL2:
 104              	.LBB130:
 105              	.LBB129:
 106              	.LBB123:
 107              	.LBB110:
  34:E:\NeuOrga\Programmieren\c_cpp\github_os\input\src\os_base\os_common.c **** 
 108              		.loc 1 34 0
 109 0024 4FF00008 		mov	r8, #0
 110 0028 CDF81C80 		str	r8, [sp, #28]
  37:E:\NeuOrga\Programmieren\c_cpp\github_os\input\src\os_base\os_common.c **** 
 111              		.loc 1 37 0
 112 002c 1160     		str	r1, [r2]
  40:E:\NeuOrga\Programmieren\c_cpp\github_os\input\src\os_base\os_common.c **** 
 113              		.loc 1 40 0
 114 002e D9F80070 		ldr	r7, [r9]
 115              	.LBE110:
 116              	.LBE123:
 117              	.LBB124:
 118              	.LBB119:
 119              	.LBB116:
 120              		.loc 1 191 0
 121 0032 DA7A     		ldrb	r2, [r3, #11]	@ zero_extendqisi2
 122 0034 0092     		str	r2, [sp]
 123 0036 997A     		ldrb	r1, [r3, #10]	@ zero_extendqisi2
 124 0038 5C7A     		ldrb	r4, [r3, #9]	@ zero_extendqisi2
 125 003a 1A7A     		ldrb	r2, [r3, #8]	@ zero_extendqisi2
 126 003c 0291     		str	r1, [sp, #8]
 127              	.LBE116:
 128              	.LBE119:
 129              	.LBE124:
 130              	.LBB125:
 131              	.LBB111:
  40:E:\NeuOrga\Programmieren\c_cpp\github_os\input\src\os_base\os_common.c **** 
 132              		.loc 1 40 0
 133 003e 47F08077 		orr	r7, r7, #16777216
 134              	.LBE111:
 135              	.LBE125:
 136              	.LBB126:
 137              	.LBB120:
 138              	.LBB117:
 139              		.loc 1 191 0
 140 0042 0394     		str	r4, [sp, #12]
 141 0044 0492     		str	r2, [sp, #16]
 142 0046 DE7B     		ldrb	r6, [r3, #15]	@ zero_extendqisi2
 143 0048 93F80EB0 		ldrb	fp, [r3, #14]	@ zero_extendqisi2
 144 004c 93F80DA0 		ldrb	r10, [r3, #13]	@ zero_extendqisi2
 145 0050 1D7B     		ldrb	r5, [r3, #12]	@ zero_extendqisi2
 146 0052 DA79     		ldrb	r2, [r3, #7]	@ zero_extendqisi2
ARM GAS  C:\Users\PRESID~1\AppData\Local\Temp\ccgd5bvc.s 			page 7


 147 0054 9979     		ldrb	r1, [r3, #6]	@ zero_extendqisi2
 148 0056 5C79     		ldrb	r4, [r3, #5]	@ zero_extendqisi2
 149              	.LBE117:
 150              	.LBE120:
 151              	.LBE126:
 152              	.LBB127:
 153              	.LBB112:
  40:E:\NeuOrga\Programmieren\c_cpp\github_os\input\src\os_base\os_common.c **** 
 154              		.loc 1 40 0
 155 0058 C9F80070 		str	r7, [r9]
  43:E:\NeuOrga\Programmieren\c_cpp\github_os\input\src\os_base\os_common.c **** 
 156              		.loc 1 43 0
 157 005c DEF80070 		ldr	r7, [lr]
 158 0060 0797     		str	r7, [sp, #28]
  46:E:\NeuOrga\Programmieren\c_cpp\github_os\input\src\os_base\os_common.c **** 
 159              		.loc 1 46 0
 160 0062 CEF80080 		str	r8, [lr]
  49:E:\NeuOrga\Programmieren\c_cpp\github_os\input\src\os_base\os_common.c **** 
 161              		.loc 1 49 0
 162 0066 DCF80070 		ldr	r7, [ip]
 163 006a 47F00107 		orr	r7, r7, #1
 164 006e CCF80070 		str	r7, [ip]
  52:E:\NeuOrga\Programmieren\c_cpp\github_os\input\src\os_base\os_common.c **** #else
 165              		.loc 1 52 0
 166 0072 079F     		ldr	r7, [sp, #28]
 167              	.LVL3:
 168              	.LBE112:
 169              	.LBE127:
 170              	.LBB128:
 171              	.LBB121:
 172              	.LBB118:
 192:E:\NeuOrga\Programmieren\c_cpp\github_os\input\src\os_base\os_common.c ****       Summe->number[pos] = tmp_sum & 0xFFu;
 173              		.loc 1 192 0
 174 0074 56FA87F6 		uxtab	r6, r6, r7
 175              	.LVL4:
 193:E:\NeuOrga\Programmieren\c_cpp\github_os\input\src\os_base\os_common.c ****       carry = tmp_sum & 0xFF00u;
 176              		.loc 1 193 0
 177 0078 26F0FF0C 		bic	ip, r6, #255
 191:E:\NeuOrga\Programmieren\c_cpp\github_os\input\src\os_base\os_common.c ****       Summe->number[pos] = tmp_sum & 0xFFu;
 178              		.loc 1 191 0
 179 007c E344     		add	fp, fp, ip
 180 007e C7F3470C 		ubfx	ip, r7, #1, #8
 181 0082 E344     		add	fp, fp, ip
 182              		.loc 1 193 0
 183 0084 2BF0FF0C 		bic	ip, fp, #255
 184 0088 E244     		add	r10, r10, ip
 191:E:\NeuOrga\Programmieren\c_cpp\github_os\input\src\os_base\os_common.c ****       Summe->number[pos] = tmp_sum & 0xFFu;
 185              		.loc 1 191 0
 186 008a C7F3870C 		ubfx	ip, r7, #2, #8
 187 008e E244     		add	r10, r10, ip
 188              		.loc 1 193 0
 189 0090 2AF0FF0C 		bic	ip, r10, #255
 191:E:\NeuOrga\Programmieren\c_cpp\github_os\input\src\os_base\os_common.c ****       Summe->number[pos] = tmp_sum & 0xFFu;
 190              		.loc 1 191 0
 191 0094 C7F3C707 		ubfx	r7, r7, #3, #8
 192              	.LVL5:
 193 0098 6544     		add	r5, r5, ip
ARM GAS  C:\Users\PRESID~1\AppData\Local\Temp\ccgd5bvc.s 			page 8


 194 009a 7D19     		adds	r5, r7, r5
 195 009c 009F     		ldr	r7, [sp]
 196              		.loc 1 193 0
 197 009e 0195     		str	r5, [sp, #4]
 198 00a0 25F0FF05 		bic	r5, r5, #255
 191:E:\NeuOrga\Programmieren\c_cpp\github_os\input\src\os_base\os_common.c ****       Summe->number[pos] = tmp_sum & 0xFFu;
 199              		.loc 1 191 0
 200 00a4 3D44     		add	r5, r5, r7
 201 00a6 029F     		ldr	r7, [sp, #8]
 202              		.loc 1 193 0
 203 00a8 25F0FF0C 		bic	ip, r5, #255
 204 00ac BC44     		add	ip, ip, r7
 191:E:\NeuOrga\Programmieren\c_cpp\github_os\input\src\os_base\os_common.c ****       Summe->number[pos] = tmp_sum & 0xFFu;
 205              		.loc 1 191 0
 206 00ae 1FFA8CFC 		uxth	ip, ip
 207 00b2 039F     		ldr	r7, [sp, #12]
 208              		.loc 1 193 0
 209 00b4 2CF0FF0E 		bic	lr, ip, #255
 210 00b8 BE44     		add	lr, lr, r7
 191:E:\NeuOrga\Programmieren\c_cpp\github_os\input\src\os_base\os_common.c ****       Summe->number[pos] = tmp_sum & 0xFFu;
 211              		.loc 1 191 0
 212 00ba 1FFA8EFE 		uxth	lr, lr
 213 00be 049F     		ldr	r7, [sp, #16]
 214              		.loc 1 193 0
 215 00c0 2EF0FF08 		bic	r8, lr, #255
 216 00c4 B844     		add	r8, r8, r7
 191:E:\NeuOrga\Programmieren\c_cpp\github_os\input\src\os_base\os_common.c ****       Summe->number[pos] = tmp_sum & 0xFFu;
 217              		.loc 1 191 0
 218 00c6 1FFA88F8 		uxth	r8, r8
 219              		.loc 1 193 0
 220 00ca 28F0FF09 		bic	r9, r8, #255
 221 00ce 4A44     		add	r2, r2, r9
 191:E:\NeuOrga\Programmieren\c_cpp\github_os\input\src\os_base\os_common.c ****       Summe->number[pos] = tmp_sum & 0xFFu;
 222              		.loc 1 191 0
 223 00d0 92B2     		uxth	r2, r2
 224              		.loc 1 193 0
 225 00d2 22F0FF09 		bic	r9, r2, #255
 226 00d6 4944     		add	r1, r1, r9
 191:E:\NeuOrga\Programmieren\c_cpp\github_os\input\src\os_base\os_common.c ****       Summe->number[pos] = tmp_sum & 0xFFu;
 227              		.loc 1 191 0
 228 00d8 89B2     		uxth	r1, r1
 229              		.loc 1 193 0
 230 00da 21F0FF09 		bic	r9, r1, #255
 192:E:\NeuOrga\Programmieren\c_cpp\github_os\input\src\os_base\os_common.c ****       Summe->number[pos] = tmp_sum & 0xFFu;
 231              		.loc 1 192 0
 232 00de F6B2     		uxtb	r6, r6
 233 00e0 5FFA8AF7 		uxtb	r7, r10
 234 00e4 4C44     		add	r4, r4, r9
 191:E:\NeuOrga\Programmieren\c_cpp\github_os\input\src\os_base\os_common.c ****       Summe->number[pos] = tmp_sum & 0xFFu;
 235              		.loc 1 191 0
 236 00e6 A4B2     		uxth	r4, r4
 192:E:\NeuOrga\Programmieren\c_cpp\github_os\input\src\os_base\os_common.c ****       Summe->number[pos] = tmp_sum & 0xFFu;
 237              		.loc 1 192 0
 238 00e8 0296     		str	r6, [sp, #8]
 239 00ea 0097     		str	r7, [sp]
 191:E:\NeuOrga\Programmieren\c_cpp\github_os\input\src\os_base\os_common.c ****       Summe->number[pos] = tmp_sum & 0xFFu;
 240              		.loc 1 191 0
ARM GAS  C:\Users\PRESID~1\AppData\Local\Temp\ccgd5bvc.s 			page 9


 241 00ec 93F804A0 		ldrb	r10, [r3, #4]	@ zero_extendqisi2
 192:E:\NeuOrga\Programmieren\c_cpp\github_os\input\src\os_base\os_common.c ****       Summe->number[pos] = tmp_sum & 0xFFu;
 242              		.loc 1 192 0
 243 00f0 9DF80490 		ldrb	r9, [sp, #4]	@ zero_extendqisi2
 244 00f4 CDF80490 		str	r9, [sp, #4]
 245 00f8 5FFA84F9 		uxtb	r9, r4
 246              		.loc 1 193 0
 247 00fc 24F0FF04 		bic	r4, r4, #255
 192:E:\NeuOrga\Programmieren\c_cpp\github_os\input\src\os_base\os_common.c ****       Summe->number[pos] = tmp_sum & 0xFFu;
 248              		.loc 1 192 0
 249 0100 EDB2     		uxtb	r5, r5
 250 0102 5444     		add	r4, r4, r10
 191:E:\NeuOrga\Programmieren\c_cpp\github_os\input\src\os_base\os_common.c ****       Summe->number[pos] = tmp_sum & 0xFFu;
 251              		.loc 1 191 0
 252 0104 A4B2     		uxth	r4, r4
 192:E:\NeuOrga\Programmieren\c_cpp\github_os\input\src\os_base\os_common.c ****       Summe->number[pos] = tmp_sum & 0xFFu;
 253              		.loc 1 192 0
 254 0106 0395     		str	r5, [sp, #12]
 255 0108 DD72     		strb	r5, [r3, #11]
 191:E:\NeuOrga\Programmieren\c_cpp\github_os\input\src\os_base\os_common.c ****       Summe->number[pos] = tmp_sum & 0xFFu;
 256              		.loc 1 191 0
 257 010a DD78     		ldrb	r5, [r3, #3]	@ zero_extendqisi2
 192:E:\NeuOrga\Programmieren\c_cpp\github_os\input\src\os_base\os_common.c ****       Summe->number[pos] = tmp_sum & 0xFFu;
 258              		.loc 1 192 0
 259 010c DE73     		strb	r6, [r3, #15]
 260              		.loc 1 193 0
 261 010e 24F0FF0A 		bic	r10, r4, #255
 192:E:\NeuOrga\Programmieren\c_cpp\github_os\input\src\os_base\os_common.c ****       Summe->number[pos] = tmp_sum & 0xFFu;
 262              		.loc 1 192 0
 263 0112 D2B2     		uxtb	r2, r2
 264 0114 5544     		add	r5, r5, r10
 191:E:\NeuOrga\Programmieren\c_cpp\github_os\input\src\os_base\os_common.c ****       Summe->number[pos] = tmp_sum & 0xFFu;
 265              		.loc 1 191 0
 266 0116 ADB2     		uxth	r5, r5
 192:E:\NeuOrga\Programmieren\c_cpp\github_os\input\src\os_base\os_common.c ****       Summe->number[pos] = tmp_sum & 0xFFu;
 267              		.loc 1 192 0
 268 0118 0492     		str	r2, [sp, #16]
 269 011a DA71     		strb	r2, [r3, #7]
 191:E:\NeuOrga\Programmieren\c_cpp\github_os\input\src\os_base\os_common.c ****       Summe->number[pos] = tmp_sum & 0xFFu;
 270              		.loc 1 191 0
 271 011c 9A78     		ldrb	r2, [r3, #2]	@ zero_extendqisi2
 272 011e 5E78     		ldrb	r6, [r3, #1]	@ zero_extendqisi2
 192:E:\NeuOrga\Programmieren\c_cpp\github_os\input\src\os_base\os_common.c ****       Summe->number[pos] = tmp_sum & 0xFFu;
 273              		.loc 1 192 0
 274 0120 009F     		ldr	r7, [sp]
 275 0122 5F73     		strb	r7, [r3, #13]
 276              		.loc 1 193 0
 277 0124 25F0FF0A 		bic	r10, r5, #255
 278 0128 5244     		add	r2, r2, r10
 191:E:\NeuOrga\Programmieren\c_cpp\github_os\input\src\os_base\os_common.c ****       Summe->number[pos] = tmp_sum & 0xFFu;
 279              		.loc 1 191 0
 280 012a 92B2     		uxth	r2, r2
 281              		.loc 1 193 0
 282 012c 22F0FF0A 		bic	r10, r2, #255
 283 0130 5644     		add	r6, r6, r10
 192:E:\NeuOrga\Programmieren\c_cpp\github_os\input\src\os_base\os_common.c ****       Summe->number[pos] = tmp_sum & 0xFFu;
 284              		.loc 1 192 0
ARM GAS  C:\Users\PRESID~1\AppData\Local\Temp\ccgd5bvc.s 			page 10


 285 0132 019F     		ldr	r7, [sp, #4]
 286 0134 1F73     		strb	r7, [r3, #12]
 191:E:\NeuOrga\Programmieren\c_cpp\github_os\input\src\os_base\os_common.c ****       Summe->number[pos] = tmp_sum & 0xFFu;
 287              		.loc 1 191 0
 288 0136 B6B2     		uxth	r6, r6
 289 0138 00F1040A 		add	r10, r0, #4
 192:E:\NeuOrga\Programmieren\c_cpp\github_os\input\src\os_base\os_common.c ****       Summe->number[pos] = tmp_sum & 0xFFu;
 290              		.loc 1 192 0
 291 013c C9B2     		uxtb	r1, r1
 292 013e 5FFA8BFB 		uxtb	fp, fp
 293 0142 5FFA8CFC 		uxtb	ip, ip
 294 0146 5FFA8EFE 		uxtb	lr, lr
 295 014a 5FFA88F8 		uxtb	r8, r8
 296              	.LVL6:
 297 014e 1F78     		ldrb	r7, [r3]	@ zero_extendqisi2
 298 0150 0591     		str	r1, [sp, #20]
 299 0152 E4B2     		uxtb	r4, r4
 300 0154 EDB2     		uxtb	r5, r5
 301 0156 D2B2     		uxtb	r2, r2
 302 0158 F6B2     		uxtb	r6, r6
 303 015a 9A45     		cmp	r10, r3
 304 015c 83F80EB0 		strb	fp, [r3, #14]
 305              	.LVL7:
 306 0160 83F80AC0 		strb	ip, [r3, #10]
 307              	.LVL8:
 308 0164 83F809E0 		strb	lr, [r3, #9]
 309              	.LVL9:
 310 0168 83F80880 		strb	r8, [r3, #8]
 311              	.LVL10:
 312 016c 9971     		strb	r1, [r3, #6]
 313              	.LVL11:
 314 016e 83F80590 		strb	r9, [r3, #5]
 315              	.LVL12:
 316 0172 1F70     		strb	r7, [r3]
 317 0174 1C71     		strb	r4, [r3, #4]
 318              	.LVL13:
 319 0176 DD70     		strb	r5, [r3, #3]
 320              	.LVL14:
 321 0178 9A70     		strb	r2, [r3, #2]
 322              	.LVL15:
 323 017a 5E70     		strb	r6, [r3, #1]
 324              	.LVL16:
 325 017c 02D9     		bls	.L17
 326 017e 191D     		adds	r1, r3, #4
 327 0180 8842     		cmp	r0, r1
 328 0182 3BD3     		bcc	.L6
 329              	.L17:
 330 0184 5942     		negs	r1, r3
 331 0186 11F00301 		ands	r1, r1, #3
 332 018a 58D0     		beq	.L8
 333 018c 0129     		cmp	r1, #1
 334              	.LBE118:
 335              	.LBE121:
 336              	.LBE128:
 337              	.LBE129:
 338              	.LBE130:
 339              	.LBB131:
ARM GAS  C:\Users\PRESID~1\AppData\Local\Temp\ccgd5bvc.s 			page 11


 340              	.LBB132:
 194:E:\NeuOrga\Programmieren\c_cpp\github_os\input\src\os_base\os_common.c ****    }
 195:E:\NeuOrga\Programmieren\c_cpp\github_os\input\src\os_base\os_common.c **** }
 196:E:\NeuOrga\Programmieren\c_cpp\github_os\input\src\os_base\os_common.c **** void INT_SUB(big_int* Differenz, const big_int* Minuend, const big_int* Subtrahend)
 197:E:\NeuOrga\Programmieren\c_cpp\github_os\input\src\os_base\os_common.c **** {
 198:E:\NeuOrga\Programmieren\c_cpp\github_os\input\src\os_base\os_common.c ****    sint8 pos;
 199:E:\NeuOrga\Programmieren\c_cpp\github_os\input\src\os_base\os_common.c ****    uint16 carry  = 0;
 200:E:\NeuOrga\Programmieren\c_cpp\github_os\input\src\os_base\os_common.c **** 
 201:E:\NeuOrga\Programmieren\c_cpp\github_os\input\src\os_base\os_common.c ****    for(pos = BIG_INT_SIZE-1; pos >= 0; pos--)
 202:E:\NeuOrga\Programmieren\c_cpp\github_os\input\src\os_base\os_common.c ****    {
 203:E:\NeuOrga\Programmieren\c_cpp\github_os\input\src\os_base\os_common.c ****       uint16 tmp_diff = 0u;
 204:E:\NeuOrga\Programmieren\c_cpp\github_os\input\src\os_base\os_common.c ****       if(Minuend->number[pos]  >= (Subtrahend->number[pos] + carry))
 205:E:\NeuOrga\Programmieren\c_cpp\github_os\input\src\os_base\os_common.c ****       {
 206:E:\NeuOrga\Programmieren\c_cpp\github_os\input\src\os_base\os_common.c ****          tmp_diff = (uint16)Minuend->number[pos] - (uint16)Subtrahend->number[pos] - carry;
 207:E:\NeuOrga\Programmieren\c_cpp\github_os\input\src\os_base\os_common.c ****       }
 208:E:\NeuOrga\Programmieren\c_cpp\github_os\input\src\os_base\os_common.c ****       else if((Minuend->number[pos]+0x100u)  >= (Subtrahend->number[pos] + carry))
 209:E:\NeuOrga\Programmieren\c_cpp\github_os\input\src\os_base\os_common.c ****       {
 210:E:\NeuOrga\Programmieren\c_cpp\github_os\input\src\os_base\os_common.c ****          tmp_diff = 0x100u+(uint16)Minuend->number[pos] - (uint16)Subtrahend->number[pos] - (uint16
 211:E:\NeuOrga\Programmieren\c_cpp\github_os\input\src\os_base\os_common.c ****       }
 212:E:\NeuOrga\Programmieren\c_cpp\github_os\input\src\os_base\os_common.c ****       else
 213:E:\NeuOrga\Programmieren\c_cpp\github_os\input\src\os_base\os_common.c ****       {
 214:E:\NeuOrga\Programmieren\c_cpp\github_os\input\src\os_base\os_common.c ****          /* not possible */
 215:E:\NeuOrga\Programmieren\c_cpp\github_os\input\src\os_base\os_common.c ****       }
 216:E:\NeuOrga\Programmieren\c_cpp\github_os\input\src\os_base\os_common.c ****       Differenz->number[pos] = tmp_diff;
 217:E:\NeuOrga\Programmieren\c_cpp\github_os\input\src\os_base\os_common.c ****    }
 218:E:\NeuOrga\Programmieren\c_cpp\github_os\input\src\os_base\os_common.c **** }
 219:E:\NeuOrga\Programmieren\c_cpp\github_os\input\src\os_base\os_common.c **** boolean_t IS_LESS(const big_int* Operand1, const big_int* Operand2)
 220:E:\NeuOrga\Programmieren\c_cpp\github_os\input\src\os_base\os_common.c **** {
 221:E:\NeuOrga\Programmieren\c_cpp\github_os\input\src\os_base\os_common.c ****    uint8 pos;
 222:E:\NeuOrga\Programmieren\c_cpp\github_os\input\src\os_base\os_common.c ****    boolean_t is_less = FALSE;/* in case no if was entered, the numbers are equal -> return FALSE */
 223:E:\NeuOrga\Programmieren\c_cpp\github_os\input\src\os_base\os_common.c ****    for(pos = 0; pos < BIG_INT_SIZE; pos++)
 224:E:\NeuOrga\Programmieren\c_cpp\github_os\input\src\os_base\os_common.c ****    {
 225:E:\NeuOrga\Programmieren\c_cpp\github_os\input\src\os_base\os_common.c ****       if(Operand1->number[pos] < Operand2->number[pos])
 226:E:\NeuOrga\Programmieren\c_cpp\github_os\input\src\os_base\os_common.c ****       {
 227:E:\NeuOrga\Programmieren\c_cpp\github_os\input\src\os_base\os_common.c ****          is_less = TRUE;
 228:E:\NeuOrga\Programmieren\c_cpp\github_os\input\src\os_base\os_common.c ****          break;
 229:E:\NeuOrga\Programmieren\c_cpp\github_os\input\src\os_base\os_common.c ****       }
 230:E:\NeuOrga\Programmieren\c_cpp\github_os\input\src\os_base\os_common.c ****       else if (Operand1->number[pos] > Operand2->number[pos])
 231:E:\NeuOrga\Programmieren\c_cpp\github_os\input\src\os_base\os_common.c ****       {
 232:E:\NeuOrga\Programmieren\c_cpp\github_os\input\src\os_base\os_common.c ****          is_less = FALSE;
 233:E:\NeuOrga\Programmieren\c_cpp\github_os\input\src\os_base\os_common.c ****          break;
 234:E:\NeuOrga\Programmieren\c_cpp\github_os\input\src\os_base\os_common.c ****       }
 235:E:\NeuOrga\Programmieren\c_cpp\github_os\input\src\os_base\os_common.c ****       else
 236:E:\NeuOrga\Programmieren\c_cpp\github_os\input\src\os_base\os_common.c ****       {
 237:E:\NeuOrga\Programmieren\c_cpp\github_os\input\src\os_base\os_common.c ****          /* don't break, but continue with next position */
 238:E:\NeuOrga\Programmieren\c_cpp\github_os\input\src\os_base\os_common.c ****       }
 239:E:\NeuOrga\Programmieren\c_cpp\github_os\input\src\os_base\os_common.c ****    }
 240:E:\NeuOrga\Programmieren\c_cpp\github_os\input\src\os_base\os_common.c ****    return is_less;
 241:E:\NeuOrga\Programmieren\c_cpp\github_os\input\src\os_base\os_common.c **** }
 242:E:\NeuOrga\Programmieren\c_cpp\github_os\input\src\os_base\os_common.c **** boolean_t IS_LESS_OR_EQUAL(const big_int* Operand1, const big_int* Operand2)
 243:E:\NeuOrga\Programmieren\c_cpp\github_os\input\src\os_base\os_common.c **** {
 244:E:\NeuOrga\Programmieren\c_cpp\github_os\input\src\os_base\os_common.c ****    return IS_LESS(Operand1,Operand2) || IS_EQUAL(Operand1,Operand2);
 245:E:\NeuOrga\Programmieren\c_cpp\github_os\input\src\os_base\os_common.c **** }
 246:E:\NeuOrga\Programmieren\c_cpp\github_os\input\src\os_base\os_common.c **** boolean_t IS_EQUAL(const big_int* Operand1, const big_int* Operand2)
 247:E:\NeuOrga\Programmieren\c_cpp\github_os\input\src\os_base\os_common.c **** {
 248:E:\NeuOrga\Programmieren\c_cpp\github_os\input\src\os_base\os_common.c ****    uint8 pos;
 249:E:\NeuOrga\Programmieren\c_cpp\github_os\input\src\os_base\os_common.c ****    boolean_t is_equal = TRUE;/* in case no if/elseif) was entered, the numbers are equal -> return 
ARM GAS  C:\Users\PRESID~1\AppData\Local\Temp\ccgd5bvc.s 			page 12


 250:E:\NeuOrga\Programmieren\c_cpp\github_os\input\src\os_base\os_common.c ****    for(pos = 0u; pos < BIG_INT_SIZE; pos++)
 251:E:\NeuOrga\Programmieren\c_cpp\github_os\input\src\os_base\os_common.c ****    {
 252:E:\NeuOrga\Programmieren\c_cpp\github_os\input\src\os_base\os_common.c ****       if(Operand1->number[pos] != Operand2->number[pos])
 253:E:\NeuOrga\Programmieren\c_cpp\github_os\input\src\os_base\os_common.c ****       {
 254:E:\NeuOrga\Programmieren\c_cpp\github_os\input\src\os_base\os_common.c ****          is_equal = FALSE;
 255:E:\NeuOrga\Programmieren\c_cpp\github_os\input\src\os_base\os_common.c ****          break;
 256:E:\NeuOrga\Programmieren\c_cpp\github_os\input\src\os_base\os_common.c ****       }
 257:E:\NeuOrga\Programmieren\c_cpp\github_os\input\src\os_base\os_common.c ****       else
 258:E:\NeuOrga\Programmieren\c_cpp\github_os\input\src\os_base\os_common.c ****       {
 259:E:\NeuOrga\Programmieren\c_cpp\github_os\input\src\os_base\os_common.c ****          /* don't break, but continue with next position */
 260:E:\NeuOrga\Programmieren\c_cpp\github_os\input\src\os_base\os_common.c ****       }
 261:E:\NeuOrga\Programmieren\c_cpp\github_os\input\src\os_base\os_common.c ****    }
 262:E:\NeuOrga\Programmieren\c_cpp\github_os\input\src\os_base\os_common.c ****    return is_equal;
 263:E:\NeuOrga\Programmieren\c_cpp\github_os\input\src\os_base\os_common.c **** }
 264:E:\NeuOrga\Programmieren\c_cpp\github_os\input\src\os_base\os_common.c **** boolean_t IS_GREATER(const big_int* Operand1, const big_int* Operand2)
 265:E:\NeuOrga\Programmieren\c_cpp\github_os\input\src\os_base\os_common.c **** {
 266:E:\NeuOrga\Programmieren\c_cpp\github_os\input\src\os_base\os_common.c ****    uint8 pos;
 267:E:\NeuOrga\Programmieren\c_cpp\github_os\input\src\os_base\os_common.c ****    boolean_t is_greater = FALSE;/* in case no if was entered, the numbers are equal -> return FALSE
 268:E:\NeuOrga\Programmieren\c_cpp\github_os\input\src\os_base\os_common.c ****    for(pos = 0u; pos < BIG_INT_SIZE; pos++)
 269:E:\NeuOrga\Programmieren\c_cpp\github_os\input\src\os_base\os_common.c ****    {
 270:E:\NeuOrga\Programmieren\c_cpp\github_os\input\src\os_base\os_common.c ****       if(Operand1->number[pos] < Operand2->number[pos])
 271:E:\NeuOrga\Programmieren\c_cpp\github_os\input\src\os_base\os_common.c ****       {
 272:E:\NeuOrga\Programmieren\c_cpp\github_os\input\src\os_base\os_common.c ****          is_greater = FALSE;
 273:E:\NeuOrga\Programmieren\c_cpp\github_os\input\src\os_base\os_common.c ****          break;
 274:E:\NeuOrga\Programmieren\c_cpp\github_os\input\src\os_base\os_common.c ****       }
 275:E:\NeuOrga\Programmieren\c_cpp\github_os\input\src\os_base\os_common.c ****       else if (Operand1->number[pos] > Operand2->number[pos])
 276:E:\NeuOrga\Programmieren\c_cpp\github_os\input\src\os_base\os_common.c ****       {
 277:E:\NeuOrga\Programmieren\c_cpp\github_os\input\src\os_base\os_common.c ****          is_greater = TRUE;
 278:E:\NeuOrga\Programmieren\c_cpp\github_os\input\src\os_base\os_common.c ****          break;
 279:E:\NeuOrga\Programmieren\c_cpp\github_os\input\src\os_base\os_common.c ****       }
 280:E:\NeuOrga\Programmieren\c_cpp\github_os\input\src\os_base\os_common.c ****       else
 281:E:\NeuOrga\Programmieren\c_cpp\github_os\input\src\os_base\os_common.c ****       {
 282:E:\NeuOrga\Programmieren\c_cpp\github_os\input\src\os_base\os_common.c ****          /* don't break, but continue with next position */
 283:E:\NeuOrga\Programmieren\c_cpp\github_os\input\src\os_base\os_common.c ****       }
 284:E:\NeuOrga\Programmieren\c_cpp\github_os\input\src\os_base\os_common.c ****    }
 285:E:\NeuOrga\Programmieren\c_cpp\github_os\input\src\os_base\os_common.c ****    return is_greater;
 286:E:\NeuOrga\Programmieren\c_cpp\github_os\input\src\os_base\os_common.c **** }
 287:E:\NeuOrga\Programmieren\c_cpp\github_os\input\src\os_base\os_common.c **** boolean_t IS_GREATER_OR_EQUAL(const big_int* Operand1, const big_int* Operand2)
 288:E:\NeuOrga\Programmieren\c_cpp\github_os\input\src\os_base\os_common.c **** {
 289:E:\NeuOrga\Programmieren\c_cpp\github_os\input\src\os_base\os_common.c ****    return IS_GREATER(Operand1,Operand2) || IS_EQUAL(Operand1,Operand2);
 290:E:\NeuOrga\Programmieren\c_cpp\github_os\input\src\os_base\os_common.c **** }
 291:E:\NeuOrga\Programmieren\c_cpp\github_os\input\src\os_base\os_common.c **** void ASSIGN(big_int* leftOperand, const big_int* rightOperand)
 292:E:\NeuOrga\Programmieren\c_cpp\github_os\input\src\os_base\os_common.c **** {
 293:E:\NeuOrga\Programmieren\c_cpp\github_os\input\src\os_base\os_common.c ****    uint8 pos;
 294:E:\NeuOrga\Programmieren\c_cpp\github_os\input\src\os_base\os_common.c ****    for (pos = 0u; pos < BIG_INT_SIZE; pos++)
 295:E:\NeuOrga\Programmieren\c_cpp\github_os\input\src\os_base\os_common.c ****    {
 296:E:\NeuOrga\Programmieren\c_cpp\github_os\input\src\os_base\os_common.c ****       leftOperand->number[pos] = rightOperand->number[pos];
 341              		.loc 1 296 0
 342 018e 0770     		strb	r7, [r0]
 343              	.LVL17:
 344 0190 52D0     		beq	.L15
 345 0192 0329     		cmp	r1, #3
 346 0194 4670     		strb	r6, [r0, #1]
 347              	.LVL18:
 348 0196 5AD1     		bne	.L16
 349 0198 8270     		strb	r2, [r0, #2]
 350              	.LVL19:
ARM GAS  C:\Users\PRESID~1\AppData\Local\Temp\ccgd5bvc.s 			page 13


 351 019a 0D25     		movs	r5, #13
 294:E:\NeuOrga\Programmieren\c_cpp\github_os\input\src\os_base\os_common.c ****    {
 352              		.loc 1 294 0
 353 019c 0A46     		mov	r2, r1
 354              	.LVL20:
 355              	.L9:
 356              		.loc 1 296 0
 357 019e 5C58     		ldr	r4, [r3, r1]
 358 01a0 4450     		str	r4, [r0, r1]	@ unaligned
 359 01a2 C1F11006 		rsb	r6, r1, #16
 360 01a6 5C18     		adds	r4, r3, r1
 361 01a8 0144     		add	r1, r1, r0
 362 01aa F6B2     		uxtb	r6, r6
 363 01ac 0434     		adds	r4, r4, #4
 364 01ae 01F1040A 		add	r10, r1, #4
 365 01b2 0327     		movs	r7, #3
 366              	.L12:
 367 01b4 2168     		ldr	r1, [r4]
 368 01b6 CAF80010 		str	r1, [r10]	@ unaligned
 369 01ba 6168     		ldr	r1, [r4, #4]
 370 01bc CAF80410 		str	r1, [r10, #4]	@ unaligned
 371 01c0 042F     		cmp	r7, #4
 372 01c2 47D1     		bne	.L28
 373 01c4 A168     		ldr	r1, [r4, #8]
 374 01c6 CAF80810 		str	r1, [r10, #8]	@ unaligned
 375 01ca 102E     		cmp	r6, #16
 376 01cc A5F11001 		sub	r1, r5, #16
 377 01d0 C9B2     		uxtb	r1, r1
 378 01d2 02F11002 		add	r2, r2, #16
 379 01d6 0ED0     		beq	.L5
 380              	.L14:
 381              	.LVL21:
 382 01d8 9C5C     		ldrb	r4, [r3, r2]	@ zero_extendqisi2
 383 01da 8454     		strb	r4, [r0, r2]
 294:E:\NeuOrga\Programmieren\c_cpp\github_os\input\src\os_base\os_common.c ****    {
 384              		.loc 1 294 0
 385 01dc 0129     		cmp	r1, #1
 386 01de 02F10104 		add	r4, r2, #1
 387 01e2 E4B2     		uxtb	r4, r4
 388              	.LVL22:
 389 01e4 07D0     		beq	.L5
 390 01e6 0232     		adds	r2, r2, #2
 391              		.loc 1 296 0
 392 01e8 1D5D     		ldrb	r5, [r3, r4]	@ zero_extendqisi2
 393 01ea 0555     		strb	r5, [r0, r4]
 294:E:\NeuOrga\Programmieren\c_cpp\github_os\input\src\os_base\os_common.c ****    {
 394              		.loc 1 294 0
 395 01ec 0229     		cmp	r1, #2
 396 01ee D2B2     		uxtb	r2, r2
 397              	.LVL23:
 398 01f0 01D0     		beq	.L5
 399              		.loc 1 296 0
 400 01f2 9B5C     		ldrb	r3, [r3, r2]	@ zero_extendqisi2
 401 01f4 8354     		strb	r3, [r0, r2]
 402              	.LVL24:
 403              	.L5:
 404              	.LBE132:
ARM GAS  C:\Users\PRESID~1\AppData\Local\Temp\ccgd5bvc.s 			page 14


 405              	.LBE131:
  18:E:\NeuOrga\Programmieren\c_cpp\github_os\input\src\os_base\os_common.c **** void OS_UpdateCurrentTime(void)
 406              		.loc 1 18 0
 407 01f6 0DB0     		add	sp, sp, #52
 408              		.cfi_remember_state
 409              		.cfi_def_cfa_offset 36
 410              		@ sp needed
 411 01f8 BDE8F08F 		pop	{r4, r5, r6, r7, r8, r9, r10, fp, pc}
 412              	.LVL25:
 413              	.L6:
 414              		.cfi_restore_state
 415              	.LBB135:
 416              	.LBB133:
 417              		.loc 1 296 0
 418 01fc 059B     		ldr	r3, [sp, #20]
 419 01fe 8371     		strb	r3, [r0, #6]
 420 0200 049B     		ldr	r3, [sp, #16]
 421 0202 C371     		strb	r3, [r0, #7]
 422 0204 039B     		ldr	r3, [sp, #12]
 423 0206 C372     		strb	r3, [r0, #11]
 424 0208 019B     		ldr	r3, [sp, #4]
 425 020a 0373     		strb	r3, [r0, #12]
 426 020c 009B     		ldr	r3, [sp]
 427 020e 4373     		strb	r3, [r0, #13]
 428 0210 029B     		ldr	r3, [sp, #8]
 429 0212 0770     		strb	r7, [r0]
 430              	.LVL26:
 431 0214 4670     		strb	r6, [r0, #1]
 432              	.LVL27:
 433 0216 8270     		strb	r2, [r0, #2]
 434              	.LVL28:
 435 0218 C570     		strb	r5, [r0, #3]
 436              	.LVL29:
 437 021a 0471     		strb	r4, [r0, #4]
 438              	.LVL30:
 439 021c 80F80590 		strb	r9, [r0, #5]
 440              	.LVL31:
 441 0220 80F80880 		strb	r8, [r0, #8]
 442              	.LVL32:
 443 0224 80F809E0 		strb	lr, [r0, #9]
 444              	.LVL33:
 445 0228 80F80AC0 		strb	ip, [r0, #10]
 446              	.LVL34:
 447 022c 80F80EB0 		strb	fp, [r0, #14]
 448              	.LVL35:
 449 0230 C373     		strb	r3, [r0, #15]
 450              	.LVL36:
 451              	.LBE133:
 452              	.LBE135:
  18:E:\NeuOrga\Programmieren\c_cpp\github_os\input\src\os_base\os_common.c **** void OS_UpdateCurrentTime(void)
 453              		.loc 1 18 0
 454 0232 0DB0     		add	sp, sp, #52
 455              		.cfi_remember_state
 456              		.cfi_def_cfa_offset 36
 457              		@ sp needed
 458 0234 BDE8F08F 		pop	{r4, r5, r6, r7, r8, r9, r10, fp, pc}
 459              	.LVL37:
ARM GAS  C:\Users\PRESID~1\AppData\Local\Temp\ccgd5bvc.s 			page 15


 460              	.L15:
 461              		.cfi_restore_state
 462              	.LBB136:
 463              	.LBB134:
 464              		.loc 1 296 0
 465 0238 0F25     		movs	r5, #15
 294:E:\NeuOrga\Programmieren\c_cpp\github_os\input\src\os_base\os_common.c ****    {
 466              		.loc 1 294 0
 467 023a 0A46     		mov	r2, r1
 468 023c AFE7     		b	.L9
 469              	.LVL38:
 470              	.L8:
 471              		.loc 1 296 0
 472 023e 1A68     		ldr	r2, [r3]	@ unaligned
 473 0240 0260     		str	r2, [r0]	@ unaligned
 474 0242 1026     		movs	r6, #16
 294:E:\NeuOrga\Programmieren\c_cpp\github_os\input\src\os_base\os_common.c ****    {
 475              		.loc 1 294 0
 476 0244 0A46     		mov	r2, r1
 477              		.loc 1 296 0
 478 0246 3546     		mov	r5, r6
 479 0248 084C     		ldr	r4, .L29+12
 480 024a 0427     		movs	r7, #4
 481 024c B2E7     		b	.L12
 482              	.LVL39:
 483              	.L16:
 484 024e 0E25     		movs	r5, #14
 294:E:\NeuOrga\Programmieren\c_cpp\github_os\input\src\os_base\os_common.c ****    {
 485              		.loc 1 294 0
 486 0250 0222     		movs	r2, #2
 487 0252 A4E7     		b	.L9
 488              	.LVL40:
 489              	.L28:
 490 0254 A5F10C01 		sub	r1, r5, #12
 491 0258 C9B2     		uxtb	r1, r1
 492 025a 0C32     		adds	r2, r2, #12
 493 025c BCE7     		b	.L14
 494              	.L30:
 495 025e 00BF     		.align	2
 496              	.L29:
 497 0260 B01F00E0 		.word	-536862800
 498 0264 55CEACC5 		.word	-978530731
 499 0268 00000000 		.word	LOCAL_SYSTEM_TIME
 500 026c 04000000 		.word	LOCAL_SYSTEM_TIME+4
 501 0270 FCED00E0 		.word	-536809988
 502 0274 041000E0 		.word	-536866812
 503 0278 001000E0 		.word	-536866816
 504              	.LBE134:
 505              	.LBE136:
 506              		.cfi_endproc
 507              	.LFE1:
 509              		.align	1
 510              		.p2align 2,,3
 511              		.global	OS_UpdateCurrentTime
 512              		.syntax unified
 513              		.thumb
 514              		.thumb_func
ARM GAS  C:\Users\PRESID~1\AppData\Local\Temp\ccgd5bvc.s 			page 16


 515              		.fpu softvfp
 517              	OS_UpdateCurrentTime:
 518              	.LFB2:
  20:E:\NeuOrga\Programmieren\c_cpp\github_os\input\src\os_base\os_common.c ****    /* the only free running counter on STM32F4 is the DWT counter DWT_CYCCNT
 519              		.loc 1 20 0
 520              		.cfi_startproc
 521              		@ args = 0, pretend = 0, frame = 24
 522              		@ frame_needed = 0, uses_anonymous_args = 0
 523 027c 2DE9F041 		push	{r4, r5, r6, r7, r8, lr}
 524              		.cfi_def_cfa_offset 24
 525              		.cfi_offset 4, -24
 526              		.cfi_offset 5, -20
 527              		.cfi_offset 6, -16
 528              		.cfi_offset 7, -12
 529              		.cfi_offset 8, -8
 530              		.cfi_offset 14, -4
 531              	.LBB144:
 532              	.LBB145:
  37:E:\NeuOrga\Programmieren\c_cpp\github_os\input\src\os_base\os_common.c **** 
 533              		.loc 1 37 0
 534 0280 3D4B     		ldr	r3, .L33
  40:E:\NeuOrga\Programmieren\c_cpp\github_os\input\src\os_base\os_common.c **** 
 535              		.loc 1 40 0
 536 0282 3E4D     		ldr	r5, .L33+4
  37:E:\NeuOrga\Programmieren\c_cpp\github_os\input\src\os_base\os_common.c **** 
 537              		.loc 1 37 0
 538 0284 3E4A     		ldr	r2, .L33+8
  43:E:\NeuOrga\Programmieren\c_cpp\github_os\input\src\os_base\os_common.c **** 
 539              		.loc 1 43 0
 540 0286 3F48     		ldr	r0, .L33+12
  49:E:\NeuOrga\Programmieren\c_cpp\github_os\input\src\os_base\os_common.c **** 
 541              		.loc 1 49 0
 542 0288 3F49     		ldr	r1, .L33+16
 543              	.LBE145:
 544              	.LBE144:
  20:E:\NeuOrga\Programmieren\c_cpp\github_os\input\src\os_base\os_common.c ****    /* the only free running counter on STM32F4 is the DWT counter DWT_CYCCNT
 545              		.loc 1 20 0
 546 028a 86B0     		sub	sp, sp, #24
 547              		.cfi_def_cfa_offset 48
 548              	.LVL41:
 549              	.LBB149:
 550              	.LBB146:
  34:E:\NeuOrga\Programmieren\c_cpp\github_os\input\src\os_base\os_common.c **** 
 551              		.loc 1 34 0
 552 028c 0024     		movs	r4, #0
 553 028e 0194     		str	r4, [sp, #4]
  37:E:\NeuOrga\Programmieren\c_cpp\github_os\input\src\os_base\os_common.c **** 
 554              		.loc 1 37 0
 555 0290 1A60     		str	r2, [r3]
  40:E:\NeuOrga\Programmieren\c_cpp\github_os\input\src\os_base\os_common.c **** 
 556              		.loc 1 40 0
 557 0292 2A68     		ldr	r2, [r5]
 558              	.LBE146:
 559              	.LBE149:
 560              	.LBB150:
 561              	.LBB151:
 562              	.LBB152:
ARM GAS  C:\Users\PRESID~1\AppData\Local\Temp\ccgd5bvc.s 			page 17


 191:E:\NeuOrga\Programmieren\c_cpp\github_os\input\src\os_base\os_common.c ****       Summe->number[pos] = tmp_sum & 0xFFu;
 563              		.loc 1 191 0
 564 0294 3D4B     		ldr	r3, .L33+20
 565              	.LBE152:
 566              	.LBE151:
 567              	.LBE150:
 568              	.LBB157:
 569              	.LBB147:
  40:E:\NeuOrga\Programmieren\c_cpp\github_os\input\src\os_base\os_common.c **** 
 570              		.loc 1 40 0
 571 0296 42F08072 		orr	r2, r2, #16777216
 572 029a 2A60     		str	r2, [r5]
  43:E:\NeuOrga\Programmieren\c_cpp\github_os\input\src\os_base\os_common.c **** 
 573              		.loc 1 43 0
 574 029c 0268     		ldr	r2, [r0]
 575 029e 0192     		str	r2, [sp, #4]
  46:E:\NeuOrga\Programmieren\c_cpp\github_os\input\src\os_base\os_common.c **** 
 576              		.loc 1 46 0
 577 02a0 0460     		str	r4, [r0]
  49:E:\NeuOrga\Programmieren\c_cpp\github_os\input\src\os_base\os_common.c **** 
 578              		.loc 1 49 0
 579 02a2 0A68     		ldr	r2, [r1]
 580              	.LBE147:
 581              	.LBE157:
 582              	.LBB158:
 583              	.LBB155:
 584              	.LBB153:
 191:E:\NeuOrga\Programmieren\c_cpp\github_os\input\src\os_base\os_common.c ****       Summe->number[pos] = tmp_sum & 0xFFu;
 585              		.loc 1 191 0
 586 02a4 93F80EE0 		ldrb	lr, [r3, #14]	@ zero_extendqisi2
 587 02a8 93F80F80 		ldrb	r8, [r3, #15]	@ zero_extendqisi2
 588 02ac 5F7B     		ldrb	r7, [r3, #13]	@ zero_extendqisi2
 589              	.LBE153:
 590              	.LBE155:
 591              	.LBE158:
 592              	.LBB159:
 593              	.LBB148:
  49:E:\NeuOrga\Programmieren\c_cpp\github_os\input\src\os_base\os_common.c **** 
 594              		.loc 1 49 0
 595 02ae 42F00102 		orr	r2, r2, #1
 596 02b2 0A60     		str	r2, [r1]
  52:E:\NeuOrga\Programmieren\c_cpp\github_os\input\src\os_base\os_common.c **** #else
 597              		.loc 1 52 0
 598 02b4 019A     		ldr	r2, [sp, #4]
 599              	.LVL42:
 600              	.LBE148:
 601              	.LBE159:
 602              	.LBB160:
 603              	.LBB156:
 604              	.LBB154:
 191:E:\NeuOrga\Programmieren\c_cpp\github_os\input\src\os_base\os_common.c ****       Summe->number[pos] = tmp_sum & 0xFFu;
 605              		.loc 1 191 0
 606 02b6 197B     		ldrb	r1, [r3, #12]	@ zero_extendqisi2
 607 02b8 93F80BC0 		ldrb	ip, [r3, #11]	@ zero_extendqisi2
 608 02bc 9E7A     		ldrb	r6, [r3, #10]	@ zero_extendqisi2
 609 02be 5D7A     		ldrb	r5, [r3, #9]	@ zero_extendqisi2
 610 02c0 1C7A     		ldrb	r4, [r3, #8]	@ zero_extendqisi2
ARM GAS  C:\Users\PRESID~1\AppData\Local\Temp\ccgd5bvc.s 			page 18


 192:E:\NeuOrga\Programmieren\c_cpp\github_os\input\src\os_base\os_common.c ****       carry = tmp_sum & 0xFF00u;
 611              		.loc 1 192 0
 612 02c2 58FA82F8 		uxtab	r8, r8, r2
 613              	.LVL43:
 193:E:\NeuOrga\Programmieren\c_cpp\github_os\input\src\os_base\os_common.c ****    }
 614              		.loc 1 193 0
 615 02c6 28F0FF00 		bic	r0, r8, #255
 191:E:\NeuOrga\Programmieren\c_cpp\github_os\input\src\os_base\os_common.c ****       Summe->number[pos] = tmp_sum & 0xFFu;
 616              		.loc 1 191 0
 617 02ca 7044     		add	r0, r0, lr
 618 02cc C2F3470E 		ubfx	lr, r2, #1, #8
 619 02d0 8644     		add	lr, lr, r0
 193:E:\NeuOrga\Programmieren\c_cpp\github_os\input\src\os_base\os_common.c ****    }
 620              		.loc 1 193 0
 621 02d2 2EF0FF00 		bic	r0, lr, #255
 622 02d6 0744     		add	r7, r7, r0
 191:E:\NeuOrga\Programmieren\c_cpp\github_os\input\src\os_base\os_common.c ****       Summe->number[pos] = tmp_sum & 0xFFu;
 623              		.loc 1 191 0
 624 02d8 C2F38700 		ubfx	r0, r2, #2, #8
 625 02dc 0744     		add	r7, r7, r0
 193:E:\NeuOrga\Programmieren\c_cpp\github_os\input\src\os_base\os_common.c ****    }
 626              		.loc 1 193 0
 627 02de 27F0FF00 		bic	r0, r7, #255
 628 02e2 0144     		add	r1, r1, r0
 191:E:\NeuOrga\Programmieren\c_cpp\github_os\input\src\os_base\os_common.c ****       Summe->number[pos] = tmp_sum & 0xFFu;
 629              		.loc 1 191 0
 630 02e4 C2F3C702 		ubfx	r2, r2, #3, #8
 631              	.LVL44:
 632 02e8 0A44     		add	r2, r2, r1
 192:E:\NeuOrga\Programmieren\c_cpp\github_os\input\src\os_base\os_common.c ****       carry = tmp_sum & 0xFF00u;
 633              		.loc 1 192 0
 634 02ea 83F80F80 		strb	r8, [r3, #15]
 635              	.LVL45:
 193:E:\NeuOrga\Programmieren\c_cpp\github_os\input\src\os_base\os_common.c ****    }
 636              		.loc 1 193 0
 637 02ee 22F0FF08 		bic	r8, r2, #255
 191:E:\NeuOrga\Programmieren\c_cpp\github_os\input\src\os_base\os_common.c ****       Summe->number[pos] = tmp_sum & 0xFFu;
 638              		.loc 1 191 0
 639 02f2 C444     		add	ip, ip, r8
 193:E:\NeuOrga\Programmieren\c_cpp\github_os\input\src\os_base\os_common.c ****    }
 640              		.loc 1 193 0
 641 02f4 2CF0FF08 		bic	r8, ip, #255
 642 02f8 4644     		add	r6, r6, r8
 191:E:\NeuOrga\Programmieren\c_cpp\github_os\input\src\os_base\os_common.c ****       Summe->number[pos] = tmp_sum & 0xFFu;
 643              		.loc 1 191 0
 644 02fa B6B2     		uxth	r6, r6
 193:E:\NeuOrga\Programmieren\c_cpp\github_os\input\src\os_base\os_common.c ****    }
 645              		.loc 1 193 0
 646 02fc 26F0FF08 		bic	r8, r6, #255
 647 0300 4544     		add	r5, r5, r8
 191:E:\NeuOrga\Programmieren\c_cpp\github_os\input\src\os_base\os_common.c ****       Summe->number[pos] = tmp_sum & 0xFFu;
 648              		.loc 1 191 0
 649 0302 ADB2     		uxth	r5, r5
 193:E:\NeuOrga\Programmieren\c_cpp\github_os\input\src\os_base\os_common.c ****    }
 650              		.loc 1 193 0
 651 0304 25F0FF08 		bic	r8, r5, #255
 652 0308 4444     		add	r4, r4, r8
ARM GAS  C:\Users\PRESID~1\AppData\Local\Temp\ccgd5bvc.s 			page 19


 191:E:\NeuOrga\Programmieren\c_cpp\github_os\input\src\os_base\os_common.c ****       Summe->number[pos] = tmp_sum & 0xFFu;
 653              		.loc 1 191 0
 654 030a D879     		ldrb	r0, [r3, #7]	@ zero_extendqisi2
 655 030c 9979     		ldrb	r1, [r3, #6]	@ zero_extendqisi2
 192:E:\NeuOrga\Programmieren\c_cpp\github_os\input\src\os_base\os_common.c ****       carry = tmp_sum & 0xFF00u;
 656              		.loc 1 192 0
 657 030e 83F80EE0 		strb	lr, [r3, #14]
 191:E:\NeuOrga\Programmieren\c_cpp\github_os\input\src\os_base\os_common.c ****       Summe->number[pos] = tmp_sum & 0xFFu;
 658              		.loc 1 191 0
 659 0312 A4B2     		uxth	r4, r4
 193:E:\NeuOrga\Programmieren\c_cpp\github_os\input\src\os_base\os_common.c ****    }
 660              		.loc 1 193 0
 661 0314 24F0FF08 		bic	r8, r4, #255
 662 0318 4044     		add	r0, r0, r8
 191:E:\NeuOrga\Programmieren\c_cpp\github_os\input\src\os_base\os_common.c ****       Summe->number[pos] = tmp_sum & 0xFFu;
 663              		.loc 1 191 0
 664 031a 80B2     		uxth	r0, r0
 665              	.LVL46:
 193:E:\NeuOrga\Programmieren\c_cpp\github_os\input\src\os_base\os_common.c ****    }
 666              		.loc 1 193 0
 667 031c 20F0FF0E 		bic	lr, r0, #255
 668              	.LVL47:
 669 0320 7144     		add	r1, r1, lr
 191:E:\NeuOrga\Programmieren\c_cpp\github_os\input\src\os_base\os_common.c ****       Summe->number[pos] = tmp_sum & 0xFFu;
 670              		.loc 1 191 0
 671 0322 89B2     		uxth	r1, r1
 192:E:\NeuOrga\Programmieren\c_cpp\github_os\input\src\os_base\os_common.c ****       carry = tmp_sum & 0xFF00u;
 672              		.loc 1 192 0
 673 0324 1A73     		strb	r2, [r3, #12]
 191:E:\NeuOrga\Programmieren\c_cpp\github_os\input\src\os_base\os_common.c ****       Summe->number[pos] = tmp_sum & 0xFFu;
 674              		.loc 1 191 0
 675 0326 5A79     		ldrb	r2, [r3, #5]	@ zero_extendqisi2
 192:E:\NeuOrga\Programmieren\c_cpp\github_os\input\src\os_base\os_common.c ****       carry = tmp_sum & 0xFF00u;
 676              		.loc 1 192 0
 677 0328 9E72     		strb	r6, [r3, #10]
 193:E:\NeuOrga\Programmieren\c_cpp\github_os\input\src\os_base\os_common.c ****    }
 678              		.loc 1 193 0
 679 032a 21F0FF06 		bic	r6, r1, #255
 680 032e 3244     		add	r2, r2, r6
 191:E:\NeuOrga\Programmieren\c_cpp\github_os\input\src\os_base\os_common.c ****       Summe->number[pos] = tmp_sum & 0xFFu;
 681              		.loc 1 191 0
 682 0330 92B2     		uxth	r2, r2
 192:E:\NeuOrga\Programmieren\c_cpp\github_os\input\src\os_base\os_common.c ****       carry = tmp_sum & 0xFF00u;
 683              		.loc 1 192 0
 684 0332 5D72     		strb	r5, [r3, #9]
 685 0334 1C72     		strb	r4, [r3, #8]
 686 0336 D871     		strb	r0, [r3, #7]
 687 0338 9971     		strb	r1, [r3, #6]
 688 033a 5F73     		strb	r7, [r3, #13]
 689              	.LVL48:
 690 033c 83F80BC0 		strb	ip, [r3, #11]
 691              	.LVL49:
 692 0340 5A71     		strb	r2, [r3, #5]
 693              	.LVL50:
 191:E:\NeuOrga\Programmieren\c_cpp\github_os\input\src\os_base\os_common.c ****       Summe->number[pos] = tmp_sum & 0xFFu;
 694              		.loc 1 191 0
 695 0342 1C79     		ldrb	r4, [r3, #4]	@ zero_extendqisi2
ARM GAS  C:\Users\PRESID~1\AppData\Local\Temp\ccgd5bvc.s 			page 20


 696 0344 D878     		ldrb	r0, [r3, #3]	@ zero_extendqisi2
 697 0346 9978     		ldrb	r1, [r3, #2]	@ zero_extendqisi2
 698 0348 5D78     		ldrb	r5, [r3, #1]	@ zero_extendqisi2
 193:E:\NeuOrga\Programmieren\c_cpp\github_os\input\src\os_base\os_common.c ****    }
 699              		.loc 1 193 0
 700 034a 22F0FF02 		bic	r2, r2, #255
 701              	.LVL51:
 702 034e 2244     		add	r2, r2, r4
 191:E:\NeuOrga\Programmieren\c_cpp\github_os\input\src\os_base\os_common.c ****       Summe->number[pos] = tmp_sum & 0xFFu;
 703              		.loc 1 191 0
 704 0350 92B2     		uxth	r2, r2
 705              	.LVL52:
 193:E:\NeuOrga\Programmieren\c_cpp\github_os\input\src\os_base\os_common.c ****    }
 706              		.loc 1 193 0
 707 0352 22F0FF04 		bic	r4, r2, #255
 708 0356 2044     		add	r0, r0, r4
 191:E:\NeuOrga\Programmieren\c_cpp\github_os\input\src\os_base\os_common.c ****       Summe->number[pos] = tmp_sum & 0xFFu;
 709              		.loc 1 191 0
 710 0358 80B2     		uxth	r0, r0
 193:E:\NeuOrga\Programmieren\c_cpp\github_os\input\src\os_base\os_common.c ****    }
 711              		.loc 1 193 0
 712 035a 20F0FF04 		bic	r4, r0, #255
 713 035e 2144     		add	r1, r1, r4
 191:E:\NeuOrga\Programmieren\c_cpp\github_os\input\src\os_base\os_common.c ****       Summe->number[pos] = tmp_sum & 0xFFu;
 714              		.loc 1 191 0
 715 0360 89B2     		uxth	r1, r1
 193:E:\NeuOrga\Programmieren\c_cpp\github_os\input\src\os_base\os_common.c ****    }
 716              		.loc 1 193 0
 717 0362 21F0FF04 		bic	r4, r1, #255
 718 0366 2C44     		add	r4, r4, r5
 191:E:\NeuOrga\Programmieren\c_cpp\github_os\input\src\os_base\os_common.c ****       Summe->number[pos] = tmp_sum & 0xFFu;
 719              		.loc 1 191 0
 720 0368 A4B2     		uxth	r4, r4
 192:E:\NeuOrga\Programmieren\c_cpp\github_os\input\src\os_base\os_common.c ****       carry = tmp_sum & 0xFF00u;
 721              		.loc 1 192 0
 722 036a 1A71     		strb	r2, [r3, #4]
 723              	.LVL53:
 724 036c D870     		strb	r0, [r3, #3]
 725              	.LVL54:
 726 036e 9970     		strb	r1, [r3, #2]
 727              	.LVL55:
 728 0370 5C70     		strb	r4, [r3, #1]
 729              	.LVL56:
 730              	.LBE154:
 731              	.LBE156:
 732              	.LBE160:
  29:E:\NeuOrga\Programmieren\c_cpp\github_os\input\src\os_base\os_common.c **** 
 733              		.loc 1 29 0
 734 0372 06B0     		add	sp, sp, #24
 735              		.cfi_def_cfa_offset 24
 736              		@ sp needed
 737 0374 BDE8F081 		pop	{r4, r5, r6, r7, r8, pc}
 738              	.LVL57:
 739              	.L34:
 740              		.align	2
 741              	.L33:
 742 0378 B01F00E0 		.word	-536862800
ARM GAS  C:\Users\PRESID~1\AppData\Local\Temp\ccgd5bvc.s 			page 21


 743 037c FCED00E0 		.word	-536809988
 744 0380 55CEACC5 		.word	-978530731
 745 0384 041000E0 		.word	-536866812
 746 0388 001000E0 		.word	-536866816
 747 038c 00000000 		.word	LOCAL_SYSTEM_TIME
 748              		.cfi_endproc
 749              	.LFE2:
 751              		.align	1
 752              		.p2align 2,,3
 753              		.global	OS_READ_AND_RESET_CURRENT_TIME
 754              		.syntax unified
 755              		.thumb
 756              		.thumb_func
 757              		.fpu softvfp
 759              	OS_READ_AND_RESET_CURRENT_TIME:
 760              	.LFB3:
  32:E:\NeuOrga\Programmieren\c_cpp\github_os\input\src\os_base\os_common.c **** #if(CFG_PROCESSOR == MCU_CORTEX_M4)
 761              		.loc 1 32 0
 762              		.cfi_startproc
 763              		@ args = 0, pretend = 0, frame = 8
 764              		@ frame_needed = 0, uses_anonymous_args = 0
 765              		@ link register save eliminated.
 766              	.LVL58:
 767 0390 30B4     		push	{r4, r5}
 768              		.cfi_def_cfa_offset 8
 769              		.cfi_offset 4, -8
 770              		.cfi_offset 5, -4
  37:E:\NeuOrga\Programmieren\c_cpp\github_os\input\src\os_base\os_common.c **** 
 771              		.loc 1 37 0
 772 0392 114A     		ldr	r2, .L37
  40:E:\NeuOrga\Programmieren\c_cpp\github_os\input\src\os_base\os_common.c **** 
 773              		.loc 1 40 0
 774 0394 114D     		ldr	r5, .L37+4
  37:E:\NeuOrga\Programmieren\c_cpp\github_os\input\src\os_base\os_common.c **** 
 775              		.loc 1 37 0
 776 0396 1249     		ldr	r1, .L37+8
  43:E:\NeuOrga\Programmieren\c_cpp\github_os\input\src\os_base\os_common.c **** 
 777              		.loc 1 43 0
 778 0398 124C     		ldr	r4, .L37+12
  32:E:\NeuOrga\Programmieren\c_cpp\github_os\input\src\os_base\os_common.c **** #if(CFG_PROCESSOR == MCU_CORTEX_M4)
 779              		.loc 1 32 0
 780 039a 82B0     		sub	sp, sp, #8
 781              		.cfi_def_cfa_offset 16
  34:E:\NeuOrga\Programmieren\c_cpp\github_os\input\src\os_base\os_common.c **** 
 782              		.loc 1 34 0
 783 039c 0023     		movs	r3, #0
 784 039e 0193     		str	r3, [sp, #4]
  37:E:\NeuOrga\Programmieren\c_cpp\github_os\input\src\os_base\os_common.c **** 
 785              		.loc 1 37 0
 786 03a0 1160     		str	r1, [r2]
  40:E:\NeuOrga\Programmieren\c_cpp\github_os\input\src\os_base\os_common.c **** 
 787              		.loc 1 40 0
 788 03a2 2A68     		ldr	r2, [r5]
  49:E:\NeuOrga\Programmieren\c_cpp\github_os\input\src\os_base\os_common.c **** 
 789              		.loc 1 49 0
 790 03a4 1049     		ldr	r1, .L37+16
  40:E:\NeuOrga\Programmieren\c_cpp\github_os\input\src\os_base\os_common.c **** 
ARM GAS  C:\Users\PRESID~1\AppData\Local\Temp\ccgd5bvc.s 			page 22


 791              		.loc 1 40 0
 792 03a6 42F08072 		orr	r2, r2, #16777216
 793 03aa 2A60     		str	r2, [r5]
  43:E:\NeuOrga\Programmieren\c_cpp\github_os\input\src\os_base\os_common.c **** 
 794              		.loc 1 43 0
 795 03ac 2268     		ldr	r2, [r4]
 796 03ae 0192     		str	r2, [sp, #4]
  46:E:\NeuOrga\Programmieren\c_cpp\github_os\input\src\os_base\os_common.c **** 
 797              		.loc 1 46 0
 798 03b0 2360     		str	r3, [r4]
  49:E:\NeuOrga\Programmieren\c_cpp\github_os\input\src\os_base\os_common.c **** 
 799              		.loc 1 49 0
 800 03b2 0A68     		ldr	r2, [r1]
 801 03b4 42F00102 		orr	r2, r2, #1
 802 03b8 0A60     		str	r2, [r1]
  52:E:\NeuOrga\Programmieren\c_cpp\github_os\input\src\os_base\os_common.c **** #else
 803              		.loc 1 52 0
 804 03ba 019A     		ldr	r2, [sp, #4]
 805              	.LVL59:
 806 03bc 0360     		str	r3, [r0]	@ unaligned
 807              	.LBB161:
 808              	.LBB162:
 297:E:\NeuOrga\Programmieren\c_cpp\github_os\input\src\os_base\os_common.c ****    }
 298:E:\NeuOrga\Programmieren\c_cpp\github_os\input\src\os_base\os_common.c **** }
 299:E:\NeuOrga\Programmieren\c_cpp\github_os\input\src\os_base\os_common.c **** void ASSIGN_NULL(big_int* leftOperand)
 300:E:\NeuOrga\Programmieren\c_cpp\github_os\input\src\os_base\os_common.c **** {
 301:E:\NeuOrga\Programmieren\c_cpp\github_os\input\src\os_base\os_common.c ****    uint8 pos;
 302:E:\NeuOrga\Programmieren\c_cpp\github_os\input\src\os_base\os_common.c ****    for (pos = 0u; pos < BIG_INT_SIZE; pos++)
 303:E:\NeuOrga\Programmieren\c_cpp\github_os\input\src\os_base\os_common.c ****    {
 304:E:\NeuOrga\Programmieren\c_cpp\github_os\input\src\os_base\os_common.c ****       leftOperand->number[pos] = 0x00u;
 305:E:\NeuOrga\Programmieren\c_cpp\github_os\input\src\os_base\os_common.c ****    }
 306:E:\NeuOrga\Programmieren\c_cpp\github_os\input\src\os_base\os_common.c **** }
 307:E:\NeuOrga\Programmieren\c_cpp\github_os\input\src\os_base\os_common.c **** 
 308:E:\NeuOrga\Programmieren\c_cpp\github_os\input\src\os_base\os_common.c **** void ASSIGN_UINT32(big_int* leftOperand, const uint32 rightOperand)
 309:E:\NeuOrga\Programmieren\c_cpp\github_os\input\src\os_base\os_common.c **** {
 310:E:\NeuOrga\Programmieren\c_cpp\github_os\input\src\os_base\os_common.c ****    uint8 pos;
 311:E:\NeuOrga\Programmieren\c_cpp\github_os\input\src\os_base\os_common.c ****    uint8 i;
 312:E:\NeuOrga\Programmieren\c_cpp\github_os\input\src\os_base\os_common.c ****    for (pos = 0u; pos < BIG_INT_SIZE; pos++)
 313:E:\NeuOrga\Programmieren\c_cpp\github_os\input\src\os_base\os_common.c ****    {
 314:E:\NeuOrga\Programmieren\c_cpp\github_os\input\src\os_base\os_common.c ****       leftOperand->number[pos] = 0x00u;
 315:E:\NeuOrga\Programmieren\c_cpp\github_os\input\src\os_base\os_common.c ****    }
 316:E:\NeuOrga\Programmieren\c_cpp\github_os\input\src\os_base\os_common.c **** 
 317:E:\NeuOrga\Programmieren\c_cpp\github_os\input\src\os_base\os_common.c ****    for (pos = BIG_INT_SIZE-1u, i = 0u; pos >= (BIG_INT_SIZE-sizeof(uint32)); pos--, i++)
 318:E:\NeuOrga\Programmieren\c_cpp\github_os\input\src\os_base\os_common.c ****    {
 319:E:\NeuOrga\Programmieren\c_cpp\github_os\input\src\os_base\os_common.c ****       leftOperand->number[pos] = (rightOperand>>i)&0xFFu;
 809              		.loc 1 319 0
 810 03be 5508     		lsrs	r5, r2, #1
 811 03c0 9408     		lsrs	r4, r2, #2
 812 03c2 D108     		lsrs	r1, r2, #3
 813 03c4 4360     		str	r3, [r0, #4]	@ unaligned
 814 03c6 8360     		str	r3, [r0, #8]	@ unaligned
 815              	.LVL60:
 816 03c8 C273     		strb	r2, [r0, #15]
 817              	.LVL61:
 818 03ca 8573     		strb	r5, [r0, #14]
 819              	.LVL62:
 820 03cc 4473     		strb	r4, [r0, #13]
ARM GAS  C:\Users\PRESID~1\AppData\Local\Temp\ccgd5bvc.s 			page 23


 821              	.LVL63:
 822 03ce 0173     		strb	r1, [r0, #12]
 823              	.LVL64:
 824              	.LBE162:
 825              	.LBE161:
  56:E:\NeuOrga\Programmieren\c_cpp\github_os\input\src\os_base\os_common.c **** 
 826              		.loc 1 56 0
 827 03d0 02B0     		add	sp, sp, #8
 828              		.cfi_def_cfa_offset 8
 829              		@ sp needed
 830 03d2 30BC     		pop	{r4, r5}
 831              		.cfi_restore 5
 832              		.cfi_restore 4
 833              		.cfi_def_cfa_offset 0
 834 03d4 7047     		bx	lr
 835              	.L38:
 836 03d6 00BF     		.align	2
 837              	.L37:
 838 03d8 B01F00E0 		.word	-536862800
 839 03dc FCED00E0 		.word	-536809988
 840 03e0 55CEACC5 		.word	-978530731
 841 03e4 041000E0 		.word	-536866812
 842 03e8 001000E0 		.word	-536866816
 843              		.cfi_endproc
 844              	.LFE3:
 846              		.align	1
 847              		.p2align 2,,3
 848              		.global	INT_DIV
 849              		.syntax unified
 850              		.thumb
 851              		.thumb_func
 852              		.fpu softvfp
 854              	INT_DIV:
 855              	.LFB4:
  59:E:\NeuOrga\Programmieren\c_cpp\github_os\input\src\os_base\os_common.c ****    /*Tag: Big Int*/
 856              		.loc 1 59 0
 857              		.cfi_startproc
 858              		@ args = 0, pretend = 0, frame = 368
 859              		@ frame_needed = 0, uses_anonymous_args = 0
 860              	.LVL65:
 861 03ec 2DE9F04F 		push	{r4, r5, r6, r7, r8, r9, r10, fp, lr}
 862              		.cfi_def_cfa_offset 36
 863              		.cfi_offset 4, -36
 864              		.cfi_offset 5, -32
 865              		.cfi_offset 6, -28
 866              		.cfi_offset 7, -24
 867              		.cfi_offset 8, -20
 868              		.cfi_offset 9, -16
 869              		.cfi_offset 10, -12
 870              		.cfi_offset 11, -8
 871              		.cfi_offset 14, -4
 872 03f0 0C46     		mov	r4, r1
 873 03f2 DDB0     		sub	sp, sp, #372
 874              		.cfi_def_cfa_offset 408
 875              	.LVL66:
  59:E:\NeuOrga\Programmieren\c_cpp\github_os\input\src\os_base\os_common.c ****    /*Tag: Big Int*/
 876              		.loc 1 59 0
ARM GAS  C:\Users\PRESID~1\AppData\Local\Temp\ccgd5bvc.s 			page 24


 877 03f4 1646     		mov	r6, r2
 878 03f6 E368     		ldr	r3, [r4, #12]	@ unaligned
 879 03f8 A268     		ldr	r2, [r4, #8]	@ unaligned
 880              	.LVL67:
 881 03fa 3A90     		str	r0, [sp, #232]
 882 03fc 0868     		ldr	r0, [r1]	@ unaligned
 883              	.LVL68:
 884 03fe 4968     		ldr	r1, [r1, #4]	@ unaligned
 885              	.LVL69:
 886 0400 48AD     		add	r5, sp, #288
 887 0402 0FC5     		stmia	r5!, {r0, r1, r2, r3}
 888 0404 3068     		ldr	r0, [r6]	@ unaligned
 889 0406 7168     		ldr	r1, [r6, #4]	@ unaligned
 890 0408 B268     		ldr	r2, [r6, #8]	@ unaligned
 891 040a F368     		ldr	r3, [r6, #12]	@ unaligned
 892 040c 4CAD     		add	r5, sp, #304
 893 040e 0FC5     		stmia	r5!, {r0, r1, r2, r3}
 894 0410 2068     		ldr	r0, [r4]	@ unaligned
 895 0412 6168     		ldr	r1, [r4, #4]	@ unaligned
 896 0414 A268     		ldr	r2, [r4, #8]	@ unaligned
 897 0416 E368     		ldr	r3, [r4, #12]	@ unaligned
 898              	.LBB218:
 899              	.LBB219:
 252:E:\NeuOrga\Programmieren\c_cpp\github_os\input\src\os_base\os_common.c ****       {
 900              		.loc 1 252 0
 901 0418 9DF83061 		ldrb	r6, [sp, #304]	@ zero_extendqisi2
 902              	.LVL70:
 903 041c 0025     		movs	r5, #0
 904 041e 50AC     		add	r4, sp, #320
 905              	.LVL71:
 906 0420 0FC4     		stmia	r4!, {r0, r1, r2, r3}
 907              	.LVL72:
 908 0422 4595     		str	r5, [sp, #276]
 909 0424 4495     		str	r5, [sp, #272]
 910 0426 4695     		str	r5, [sp, #280]
 911 0428 4795     		str	r5, [sp, #284]
 912 042a 002E     		cmp	r6, #0
 913 042c 62D1     		bne	.L40
 914              	.LVL73:
 915 042e 9DF83121 		ldrb	r2, [sp, #305]	@ zero_extendqisi2
 916 0432 9DF81131 		ldrb	r3, [sp, #273]	@ zero_extendqisi2
 917 0436 9A42     		cmp	r2, r3
 918 0438 5CD1     		bne	.L40
 919              	.LVL74:
 920 043a 9DF81221 		ldrb	r2, [sp, #274]	@ zero_extendqisi2
 921 043e 9DF83231 		ldrb	r3, [sp, #306]	@ zero_extendqisi2
 922 0442 9A42     		cmp	r2, r3
 923 0444 56D1     		bne	.L40
 924              	.LVL75:
 925 0446 9DF83321 		ldrb	r2, [sp, #307]	@ zero_extendqisi2
 926 044a 9DF81331 		ldrb	r3, [sp, #275]	@ zero_extendqisi2
 927 044e 9A42     		cmp	r2, r3
 928 0450 50D1     		bne	.L40
 929              	.LVL76:
 930 0452 9DF81421 		ldrb	r2, [sp, #276]	@ zero_extendqisi2
 931 0456 9DF83431 		ldrb	r3, [sp, #308]	@ zero_extendqisi2
 932 045a 9A42     		cmp	r2, r3
ARM GAS  C:\Users\PRESID~1\AppData\Local\Temp\ccgd5bvc.s 			page 25


 933 045c 4AD1     		bne	.L40
 934              	.LVL77:
 935 045e 9DF81521 		ldrb	r2, [sp, #277]	@ zero_extendqisi2
 936 0462 9DF83531 		ldrb	r3, [sp, #309]	@ zero_extendqisi2
 937 0466 9A42     		cmp	r2, r3
 938 0468 44D1     		bne	.L40
 939              	.LVL78:
 940 046a 9DF81621 		ldrb	r2, [sp, #278]	@ zero_extendqisi2
 941 046e 9DF83631 		ldrb	r3, [sp, #310]	@ zero_extendqisi2
 942 0472 9A42     		cmp	r2, r3
 943 0474 3ED1     		bne	.L40
 944              	.LVL79:
 945 0476 9DF81721 		ldrb	r2, [sp, #279]	@ zero_extendqisi2
 946 047a 9DF83731 		ldrb	r3, [sp, #311]	@ zero_extendqisi2
 947 047e 9A42     		cmp	r2, r3
 948 0480 38D1     		bne	.L40
 949              	.LVL80:
 950 0482 9DF81821 		ldrb	r2, [sp, #280]	@ zero_extendqisi2
 951 0486 9DF83831 		ldrb	r3, [sp, #312]	@ zero_extendqisi2
 952 048a 9A42     		cmp	r2, r3
 953 048c 32D1     		bne	.L40
 954              	.LVL81:
 955 048e 9DF81921 		ldrb	r2, [sp, #281]	@ zero_extendqisi2
 956 0492 9DF83931 		ldrb	r3, [sp, #313]	@ zero_extendqisi2
 957 0496 9A42     		cmp	r2, r3
 958 0498 2CD1     		bne	.L40
 959              	.LVL82:
 960 049a 9DF81A21 		ldrb	r2, [sp, #282]	@ zero_extendqisi2
 961 049e 9DF83A31 		ldrb	r3, [sp, #314]	@ zero_extendqisi2
 962 04a2 9A42     		cmp	r2, r3
 963 04a4 26D1     		bne	.L40
 964              	.LVL83:
 965 04a6 9DF81B21 		ldrb	r2, [sp, #283]	@ zero_extendqisi2
 966 04aa 9DF83B31 		ldrb	r3, [sp, #315]	@ zero_extendqisi2
 967 04ae 9A42     		cmp	r2, r3
 968 04b0 20D1     		bne	.L40
 969              	.LVL84:
 970 04b2 9DF81C21 		ldrb	r2, [sp, #284]	@ zero_extendqisi2
 971 04b6 9DF83C31 		ldrb	r3, [sp, #316]	@ zero_extendqisi2
 972 04ba 9A42     		cmp	r2, r3
 973 04bc 1AD1     		bne	.L40
 974              	.LVL85:
 975 04be 9DF81D21 		ldrb	r2, [sp, #285]	@ zero_extendqisi2
 976 04c2 9DF83D31 		ldrb	r3, [sp, #317]	@ zero_extendqisi2
 977 04c6 9A42     		cmp	r2, r3
 978 04c8 14D1     		bne	.L40
 979              	.LVL86:
 980 04ca 9DF81E21 		ldrb	r2, [sp, #286]	@ zero_extendqisi2
 981 04ce 9DF83E31 		ldrb	r3, [sp, #318]	@ zero_extendqisi2
 982 04d2 9A42     		cmp	r2, r3
 983 04d4 0ED1     		bne	.L40
 984              	.LVL87:
 985 04d6 9DF81F21 		ldrb	r2, [sp, #287]	@ zero_extendqisi2
 986 04da 9DF83F31 		ldrb	r3, [sp, #319]	@ zero_extendqisi2
 987 04de 9A42     		cmp	r2, r3
 988 04e0 08D1     		bne	.L40
 989              	.LVL88:
ARM GAS  C:\Users\PRESID~1\AppData\Local\Temp\ccgd5bvc.s 			page 26


 990              	.LBE219:
 991              	.LBE218:
 992              	.LBB220:
 993              	.LBB221:
   6:E:\NeuOrga\Programmieren\c_cpp\github_os\input\src\os_base\os_common.c **** }
 994              		.loc 1 6 0
 995 04e2 034B     		ldr	r3, .L226
 996 04e4 0C22     		movs	r2, #12
 997 04e6 1A75     		strb	r2, [r3, #20]
 998              	.LVL89:
 999              	.LBE221:
 1000              	.LBE220:
 133:E:\NeuOrga\Programmieren\c_cpp\github_os\input\src\os_base\os_common.c **** 
 1001              		.loc 1 133 0
 1002 04e8 5DB0     		add	sp, sp, #372
 1003              		.cfi_remember_state
 1004              		.cfi_def_cfa_offset 36
 1005              		@ sp needed
 1006 04ea BDE8F08F 		pop	{r4, r5, r6, r7, r8, r9, r10, fp, pc}
 1007              	.LVL90:
 1008              	.L227:
 1009 04ee 00BF     		.align	2
 1010              	.L226:
 1011 04f0 00000000 		.word	OS_SW_BUG
 1012              	.LVL91:
 1013              	.L40:
 1014              		.cfi_restore_state
 1015              	.LBB222:
 1016              	.LBB223:
 1017              	.LBB224:
 270:E:\NeuOrga\Programmieren\c_cpp\github_os\input\src\os_base\os_common.c ****       {
 1018              		.loc 1 270 0
 1019 04f4 9DF82031 		ldrb	r3, [sp, #288]	@ zero_extendqisi2
 1020 04f8 9DF840C1 		ldrb	ip, [sp, #320]	@ zero_extendqisi2
 1021 04fc 2393     		str	r3, [sp, #140]
 1022 04fe 6345     		cmp	r3, ip
 1023 0500 00F21A86 		bhi	.L82
 1024 0504 9DF82121 		ldrb	r2, [sp, #289]	@ zero_extendqisi2
 1025 0508 3792     		str	r2, [sp, #220]
 1026              	.LBE224:
 1027              	.LBE223:
 1028              	.LBE222:
 1029              	.LBB235:
 1030              	.LBB236:
 1031              	.LBB237:
 210:E:\NeuOrga\Programmieren\c_cpp\github_os\input\src\os_base\os_common.c ****       }
 1032              		.loc 1 210 0
 1033 050a 9BB2     		uxth	r3, r3
 1034 050c 92B2     		uxth	r2, r2
 1035 050e 4293     		str	r3, [sp, #264]
 1036 0510 03F58073 		add	r3, r3, #256
 1037 0514 9DF84111 		ldrb	r1, [sp, #321]	@ zero_extendqisi2
 1038 0518 4092     		str	r2, [sp, #256]
 1039              	.LBE237:
 1040              	.LBE236:
 1041              	.LBE235:
  75:E:\NeuOrga\Programmieren\c_cpp\github_os\input\src\os_base\os_common.c ****    big_int local_zero;
ARM GAS  C:\Users\PRESID~1\AppData\Local\Temp\ccgd5bvc.s 			page 27


 1042              		.loc 1 75 0
 1043 051a 0020     		movs	r0, #0
 1044              	.LBB246:
 1045              	.LBB242:
 1046              	.LBB238:
 210:E:\NeuOrga\Programmieren\c_cpp\github_os\input\src\os_base\os_common.c ****       }
 1047              		.loc 1 210 0
 1048 051c 02F58072 		add	r2, r2, #256
 1049 0520 4393     		str	r3, [sp, #268]
 1050 0522 239B     		ldr	r3, [sp, #140]
 1051 0524 2E91     		str	r1, [sp, #184]
 1052              	.LBE238:
 1053              	.LBE242:
 1054              	.LBE246:
  75:E:\NeuOrga\Programmieren\c_cpp\github_os\input\src\os_base\os_common.c ****    big_int local_zero;
 1055              		.loc 1 75 0
 1056 0526 3890     		str	r0, [sp, #224]
 1057              	.LBB247:
 1058              	.LBB243:
 1059              	.LBB239:
 210:E:\NeuOrga\Programmieren\c_cpp\github_os\input\src\os_base\os_common.c ****       }
 1060              		.loc 1 210 0
 1061 0528 4192     		str	r2, [sp, #260]
 1062 052a 1991     		str	r1, [sp, #100]
 1063              	.LVL92:
 1064              	.L99:
 1065              	.LBE239:
 1066              	.LBE243:
 1067              	.LBE247:
 1068              	.LBB248:
 1069              	.LBB229:
 1070              	.LBB225:
 275:E:\NeuOrga\Programmieren\c_cpp\github_os\input\src\os_base\os_common.c ****       {
 1071              		.loc 1 275 0
 1072 052c 9C45     		cmp	ip, r3
 1073 052e 01F22580 		bhi	.L83
 1074              	.LVL93:
 270:E:\NeuOrga\Programmieren\c_cpp\github_os\input\src\os_base\os_common.c ****       {
 1075              		.loc 1 270 0
 1076 0532 2E9B     		ldr	r3, [sp, #184]
 1077 0534 379A     		ldr	r2, [sp, #220]
 1078 0536 9342     		cmp	r3, r2
 1079 0538 C0F0FE85 		bcc	.L82
 1080 053c 9DF84221 		ldrb	r2, [sp, #322]	@ zero_extendqisi2
 1081 0540 9DF82231 		ldrb	r3, [sp, #290]	@ zero_extendqisi2
 1082 0544 2F92     		str	r2, [sp, #188]
 1083 0546 2693     		str	r3, [sp, #152]
 1084 0548 1292     		str	r2, [sp, #72]
 275:E:\NeuOrga\Programmieren\c_cpp\github_os\input\src\os_base\os_common.c ****       {
 1085              		.loc 1 275 0
 1086 054a 01F2E583 		bhi	.L189
 1087              	.LVL94:
 270:E:\NeuOrga\Programmieren\c_cpp\github_os\input\src\os_base\os_common.c ****       {
 1088              		.loc 1 270 0
 1089 054e 9A42     		cmp	r2, r3
 1090 0550 C0F09780 		bcc	.L86
 1091 0554 9DF84321 		ldrb	r2, [sp, #323]	@ zero_extendqisi2
ARM GAS  C:\Users\PRESID~1\AppData\Local\Temp\ccgd5bvc.s 			page 28


 1092 0558 9DF82311 		ldrb	r1, [sp, #291]	@ zero_extendqisi2
 1093 055c 2992     		str	r2, [sp, #164]
 1094 055e 2791     		str	r1, [sp, #156]
 1095 0560 1492     		str	r2, [sp, #80]
 275:E:\NeuOrga\Programmieren\c_cpp\github_os\input\src\os_base\os_common.c ****       {
 1096              		.loc 1 275 0
 1097 0562 01F27883 		bhi	.L190
 1098              	.LVL95:
 270:E:\NeuOrga\Programmieren\c_cpp\github_os\input\src\os_base\os_common.c ****       {
 1099              		.loc 1 270 0
 1100 0566 8A42     		cmp	r2, r1
 1101 0568 C0F08B80 		bcc	.L86
 1102 056c 9DF84421 		ldrb	r2, [sp, #324]	@ zero_extendqisi2
 1103 0570 9DF82411 		ldrb	r1, [sp, #292]	@ zero_extendqisi2
 1104 0574 2592     		str	r2, [sp, #148]
 1105 0576 2891     		str	r1, [sp, #160]
 1106 0578 1392     		str	r2, [sp, #76]
 275:E:\NeuOrga\Programmieren\c_cpp\github_os\input\src\os_base\os_common.c ****       {
 1107              		.loc 1 275 0
 1108 057a 01F21383 		bhi	.L191
 1109              	.LVL96:
 270:E:\NeuOrga\Programmieren\c_cpp\github_os\input\src\os_base\os_common.c ****       {
 1110              		.loc 1 270 0
 1111 057e 8A42     		cmp	r2, r1
 1112 0580 7FD3     		bcc	.L86
 1113 0582 9DF84521 		ldrb	r2, [sp, #325]	@ zero_extendqisi2
 1114 0586 9DF82511 		ldrb	r1, [sp, #293]	@ zero_extendqisi2
 1115 058a 2492     		str	r2, [sp, #144]
 1116 058c 2A91     		str	r1, [sp, #168]
 1117 058e 1E92     		str	r2, [sp, #120]
 275:E:\NeuOrga\Programmieren\c_cpp\github_os\input\src\os_base\os_common.c ****       {
 1118              		.loc 1 275 0
 1119 0590 01F2B282 		bhi	.L192
 1120              	.LVL97:
 270:E:\NeuOrga\Programmieren\c_cpp\github_os\input\src\os_base\os_common.c ****       {
 1121              		.loc 1 270 0
 1122 0594 8A42     		cmp	r2, r1
 1123 0596 74D3     		bcc	.L86
 1124 0598 9DF84611 		ldrb	r1, [sp, #326]	@ zero_extendqisi2
 1125 059c 9DF82641 		ldrb	r4, [sp, #294]	@ zero_extendqisi2
 1126 05a0 2291     		str	r1, [sp, #136]
 1127 05a2 2B94     		str	r4, [sp, #172]
 1128 05a4 1D91     		str	r1, [sp, #116]
 275:E:\NeuOrga\Programmieren\c_cpp\github_os\input\src\os_base\os_common.c ****       {
 1129              		.loc 1 275 0
 1130 05a6 01F25B82 		bhi	.L193
 1131 05aa 0A46     		mov	r2, r1
 1132              	.LVL98:
 270:E:\NeuOrga\Programmieren\c_cpp\github_os\input\src\os_base\os_common.c ****       {
 1133              		.loc 1 270 0
 1134 05ac 2B99     		ldr	r1, [sp, #172]
 1135 05ae 8A42     		cmp	r2, r1
 1136 05b0 67D3     		bcc	.L86
 1137 05b2 9DF84721 		ldrb	r2, [sp, #327]	@ zero_extendqisi2
 1138 05b6 9DF82711 		ldrb	r1, [sp, #295]	@ zero_extendqisi2
 1139 05ba 2092     		str	r2, [sp, #128]
 1140 05bc 2C91     		str	r1, [sp, #176]
ARM GAS  C:\Users\PRESID~1\AppData\Local\Temp\ccgd5bvc.s 			page 29


 1141 05be 1192     		str	r2, [sp, #68]
 275:E:\NeuOrga\Programmieren\c_cpp\github_os\input\src\os_base\os_common.c ****       {
 1142              		.loc 1 275 0
 1143 05c0 01F21382 		bhi	.L194
 1144              	.LVL99:
 270:E:\NeuOrga\Programmieren\c_cpp\github_os\input\src\os_base\os_common.c ****       {
 1145              		.loc 1 270 0
 1146 05c4 8A42     		cmp	r2, r1
 1147 05c6 5CD3     		bcc	.L86
 1148 05c8 9DF84821 		ldrb	r2, [sp, #328]	@ zero_extendqisi2
 1149 05cc 9DF82811 		ldrb	r1, [sp, #296]	@ zero_extendqisi2
 1150 05d0 2192     		str	r2, [sp, #132]
 1151 05d2 2D91     		str	r1, [sp, #180]
 1152 05d4 0F92     		str	r2, [sp, #60]
 275:E:\NeuOrga\Programmieren\c_cpp\github_os\input\src\os_base\os_common.c ****       {
 1153              		.loc 1 275 0
 1154 05d6 01F2D581 		bhi	.L195
 1155              	.LVL100:
 270:E:\NeuOrga\Programmieren\c_cpp\github_os\input\src\os_base\os_common.c ****       {
 1156              		.loc 1 270 0
 1157 05da 8A42     		cmp	r2, r1
 1158 05dc 51D3     		bcc	.L86
 1159 05de 9DF84921 		ldrb	r2, [sp, #329]	@ zero_extendqisi2
 1160 05e2 9DF82911 		ldrb	r1, [sp, #297]	@ zero_extendqisi2
 1161 05e6 1F92     		str	r2, [sp, #124]
 1162 05e8 3091     		str	r1, [sp, #192]
 1163 05ea 1092     		str	r2, [sp, #64]
 275:E:\NeuOrga\Programmieren\c_cpp\github_os\input\src\os_base\os_common.c ****       {
 1164              		.loc 1 275 0
 1165 05ec 01F29E81 		bhi	.L196
 1166              	.LVL101:
 270:E:\NeuOrga\Programmieren\c_cpp\github_os\input\src\os_base\os_common.c ****       {
 1167              		.loc 1 270 0
 1168 05f0 8A42     		cmp	r2, r1
 1169 05f2 46D3     		bcc	.L86
 1170 05f4 9DF84A21 		ldrb	r2, [sp, #330]	@ zero_extendqisi2
 1171 05f8 9DF82A11 		ldrb	r1, [sp, #298]	@ zero_extendqisi2
 1172 05fc 1C92     		str	r2, [sp, #112]
 1173 05fe 3191     		str	r1, [sp, #196]
 1174 0600 0E92     		str	r2, [sp, #56]
 275:E:\NeuOrga\Programmieren\c_cpp\github_os\input\src\os_base\os_common.c ****       {
 1175              		.loc 1 275 0
 1176 0602 01F26E81 		bhi	.L197
 1177              	.LVL102:
 270:E:\NeuOrga\Programmieren\c_cpp\github_os\input\src\os_base\os_common.c ****       {
 1178              		.loc 1 270 0
 1179 0606 8A42     		cmp	r2, r1
 1180 0608 3BD3     		bcc	.L86
 1181 060a 9DF84B11 		ldrb	r1, [sp, #331]	@ zero_extendqisi2
 1182 060e 9DF82B41 		ldrb	r4, [sp, #299]	@ zero_extendqisi2
 1183 0612 1B91     		str	r1, [sp, #108]
 1184 0614 3294     		str	r4, [sp, #200]
 1185 0616 0D91     		str	r1, [sp, #52]
 275:E:\NeuOrga\Programmieren\c_cpp\github_os\input\src\os_base\os_common.c ****       {
 1186              		.loc 1 275 0
 1187 0618 01F24581 		bhi	.L198
 1188 061c 0A46     		mov	r2, r1
ARM GAS  C:\Users\PRESID~1\AppData\Local\Temp\ccgd5bvc.s 			page 30


 1189              	.LVL103:
 270:E:\NeuOrga\Programmieren\c_cpp\github_os\input\src\os_base\os_common.c ****       {
 1190              		.loc 1 270 0
 1191 061e 3299     		ldr	r1, [sp, #200]
 1192 0620 8A42     		cmp	r2, r1
 1193 0622 2ED3     		bcc	.L86
 1194 0624 9DF84C21 		ldrb	r2, [sp, #332]	@ zero_extendqisi2
 1195 0628 9DF82C11 		ldrb	r1, [sp, #300]	@ zero_extendqisi2
 1196 062c 1592     		str	r2, [sp, #84]
 1197 062e 3391     		str	r1, [sp, #204]
 1198 0630 1A92     		str	r2, [sp, #104]
 275:E:\NeuOrga\Programmieren\c_cpp\github_os\input\src\os_base\os_common.c ****       {
 1199              		.loc 1 275 0
 1200 0632 01F22181 		bhi	.L199
 1201              	.LVL104:
 270:E:\NeuOrga\Programmieren\c_cpp\github_os\input\src\os_base\os_common.c ****       {
 1202              		.loc 1 270 0
 1203 0636 8A42     		cmp	r2, r1
 1204 0638 23D3     		bcc	.L86
 1205 063a 9DF84D21 		ldrb	r2, [sp, #333]	@ zero_extendqisi2
 1206 063e 9DF82D11 		ldrb	r1, [sp, #301]	@ zero_extendqisi2
 1207 0642 1692     		str	r2, [sp, #88]
 1208 0644 3491     		str	r1, [sp, #208]
 1209 0646 0C92     		str	r2, [sp, #48]
 275:E:\NeuOrga\Programmieren\c_cpp\github_os\input\src\os_base\os_common.c ****       {
 1210              		.loc 1 275 0
 1211 0648 01F20681 		bhi	.L200
 1212 064c 0A46     		mov	r2, r1
 1213              	.LVL105:
 270:E:\NeuOrga\Programmieren\c_cpp\github_os\input\src\os_base\os_common.c ****       {
 1214              		.loc 1 270 0
 1215 064e 1699     		ldr	r1, [sp, #88]
 1216 0650 8A42     		cmp	r2, r1
 1217 0652 16D8     		bhi	.L86
 1218 0654 9DF84E21 		ldrb	r2, [sp, #334]	@ zero_extendqisi2
 1219 0658 9DF82E11 		ldrb	r1, [sp, #302]	@ zero_extendqisi2
 1220 065c 1792     		str	r2, [sp, #92]
 1221 065e 3591     		str	r1, [sp, #212]
 1222 0660 0B92     		str	r2, [sp, #44]
 275:E:\NeuOrga\Programmieren\c_cpp\github_os\input\src\os_base\os_common.c ****       {
 1223              		.loc 1 275 0
 1224 0662 C1F0F080 		bcc	.L201
 1225              	.LVL106:
 270:E:\NeuOrga\Programmieren\c_cpp\github_os\input\src\os_base\os_common.c ****       {
 1226              		.loc 1 270 0
 1227 0666 8A42     		cmp	r2, r1
 1228 0668 0BD3     		bcc	.L86
 1229 066a 9DF84F21 		ldrb	r2, [sp, #335]	@ zero_extendqisi2
 1230 066e 9DF82F11 		ldrb	r1, [sp, #303]	@ zero_extendqisi2
 1231 0672 1892     		str	r2, [sp, #96]
 1232 0674 3691     		str	r1, [sp, #216]
 1233 0676 0A92     		str	r2, [sp, #40]
 275:E:\NeuOrga\Programmieren\c_cpp\github_os\input\src\os_base\os_common.c ****       {
 1234              		.loc 1 275 0
 1235 0678 00F29480 		bhi	.L85
 1236              	.LVL107:
 1237 067c 8A42     		cmp	r2, r1
ARM GAS  C:\Users\PRESID~1\AppData\Local\Temp\ccgd5bvc.s 			page 31


 1238 067e 00F29180 		bhi	.L85
 1239              	.LVL108:
 1240              	.L86:
 1241              	.LBE225:
 1242              	.LBE229:
 1243              	.LBB230:
 1244              	.LBB231:
 252:E:\NeuOrga\Programmieren\c_cpp\github_os\input\src\os_base\os_common.c ****       {
 1245              		.loc 1 252 0
 1246 0682 239A     		ldr	r2, [sp, #140]
 1247 0684 9445     		cmp	ip, r2
 1248 0686 40F05785 		bne	.L82
 1249              	.LVL109:
 1250 068a 2E9A     		ldr	r2, [sp, #184]
 1251 068c 3799     		ldr	r1, [sp, #220]
 1252 068e 8A42     		cmp	r2, r1
 1253 0690 40F05285 		bne	.L82
 1254              	.LVL110:
 1255 0694 2F9A     		ldr	r2, [sp, #188]
 1256 0696 1293     		str	r3, [sp, #72]
 1257 0698 9A42     		cmp	r2, r3
 1258 069a 2692     		str	r2, [sp, #152]
 1259 069c 40F04C85 		bne	.L82
 1260              	.LVL111:
 1261 06a0 9DF84331 		ldrb	r3, [sp, #323]	@ zero_extendqisi2
 1262 06a4 9DF82321 		ldrb	r2, [sp, #291]	@ zero_extendqisi2
 1263 06a8 2993     		str	r3, [sp, #164]
 1264 06aa 9342     		cmp	r3, r2
 1265 06ac 1492     		str	r2, [sp, #80]
 1266 06ae 2793     		str	r3, [sp, #156]
 1267 06b0 40F04285 		bne	.L82
 1268              	.LVL112:
 1269 06b4 9DF84431 		ldrb	r3, [sp, #324]	@ zero_extendqisi2
 1270 06b8 9DF82421 		ldrb	r2, [sp, #292]	@ zero_extendqisi2
 1271 06bc 2593     		str	r3, [sp, #148]
 1272 06be 9342     		cmp	r3, r2
 1273 06c0 1392     		str	r2, [sp, #76]
 1274 06c2 2893     		str	r3, [sp, #160]
 1275 06c4 40F03885 		bne	.L82
 1276              	.LVL113:
 1277 06c8 9DF84531 		ldrb	r3, [sp, #325]	@ zero_extendqisi2
 1278 06cc 9DF82521 		ldrb	r2, [sp, #293]	@ zero_extendqisi2
 1279 06d0 2493     		str	r3, [sp, #144]
 1280 06d2 9342     		cmp	r3, r2
 1281 06d4 1E92     		str	r2, [sp, #120]
 1282 06d6 2A93     		str	r3, [sp, #168]
 1283 06d8 40F02E85 		bne	.L82
 1284              	.LVL114:
 1285 06dc 9DF84631 		ldrb	r3, [sp, #326]	@ zero_extendqisi2
 1286 06e0 9DF82621 		ldrb	r2, [sp, #294]	@ zero_extendqisi2
 1287 06e4 2293     		str	r3, [sp, #136]
 1288 06e6 9342     		cmp	r3, r2
 1289 06e8 1D92     		str	r2, [sp, #116]
 1290 06ea 2B93     		str	r3, [sp, #172]
 1291 06ec 40F02485 		bne	.L82
 1292              	.LVL115:
 1293 06f0 9DF84731 		ldrb	r3, [sp, #327]	@ zero_extendqisi2
ARM GAS  C:\Users\PRESID~1\AppData\Local\Temp\ccgd5bvc.s 			page 32


 1294 06f4 9DF82721 		ldrb	r2, [sp, #295]	@ zero_extendqisi2
 1295 06f8 2093     		str	r3, [sp, #128]
 1296 06fa 9342     		cmp	r3, r2
 1297 06fc 1192     		str	r2, [sp, #68]
 1298 06fe 2C93     		str	r3, [sp, #176]
 1299 0700 40F01A85 		bne	.L82
 1300              	.LVL116:
 1301 0704 9DF84831 		ldrb	r3, [sp, #328]	@ zero_extendqisi2
 1302 0708 9DF82821 		ldrb	r2, [sp, #296]	@ zero_extendqisi2
 1303 070c 2193     		str	r3, [sp, #132]
 1304 070e 9342     		cmp	r3, r2
 1305 0710 0F92     		str	r2, [sp, #60]
 1306 0712 2D93     		str	r3, [sp, #180]
 1307 0714 40F01085 		bne	.L82
 1308              	.LVL117:
 1309 0718 9DF84931 		ldrb	r3, [sp, #329]	@ zero_extendqisi2
 1310 071c 9DF82921 		ldrb	r2, [sp, #297]	@ zero_extendqisi2
 1311 0720 1F93     		str	r3, [sp, #124]
 1312 0722 9342     		cmp	r3, r2
 1313 0724 1092     		str	r2, [sp, #64]
 1314 0726 3093     		str	r3, [sp, #192]
 1315 0728 40F00685 		bne	.L82
 1316              	.LVL118:
 1317 072c 9DF84A31 		ldrb	r3, [sp, #330]	@ zero_extendqisi2
 1318 0730 9DF82A21 		ldrb	r2, [sp, #298]	@ zero_extendqisi2
 1319 0734 1C93     		str	r3, [sp, #112]
 1320 0736 9342     		cmp	r3, r2
 1321 0738 0E92     		str	r2, [sp, #56]
 1322 073a 3193     		str	r3, [sp, #196]
 1323 073c 40F0FC84 		bne	.L82
 1324              	.LVL119:
 1325 0740 9DF84B31 		ldrb	r3, [sp, #331]	@ zero_extendqisi2
 1326 0744 9DF82B21 		ldrb	r2, [sp, #299]	@ zero_extendqisi2
 1327 0748 1B93     		str	r3, [sp, #108]
 1328 074a 9342     		cmp	r3, r2
 1329 074c 0D92     		str	r2, [sp, #52]
 1330 074e 3293     		str	r3, [sp, #200]
 1331 0750 40F0F284 		bne	.L82
 1332              	.LVL120:
 1333 0754 9DF84C31 		ldrb	r3, [sp, #332]	@ zero_extendqisi2
 1334 0758 9DF82C21 		ldrb	r2, [sp, #300]	@ zero_extendqisi2
 1335 075c 1593     		str	r3, [sp, #84]
 1336 075e 9342     		cmp	r3, r2
 1337 0760 1A92     		str	r2, [sp, #104]
 1338 0762 3393     		str	r3, [sp, #204]
 1339 0764 40F0E884 		bne	.L82
 1340              	.LVL121:
 1341 0768 9DF84D31 		ldrb	r3, [sp, #333]	@ zero_extendqisi2
 1342 076c 9DF82D21 		ldrb	r2, [sp, #301]	@ zero_extendqisi2
 1343 0770 1693     		str	r3, [sp, #88]
 1344 0772 9342     		cmp	r3, r2
 1345 0774 0C92     		str	r2, [sp, #48]
 1346 0776 3493     		str	r3, [sp, #208]
 1347 0778 40F0DE84 		bne	.L82
 1348              	.LVL122:
 1349 077c 9DF84E31 		ldrb	r3, [sp, #334]	@ zero_extendqisi2
 1350 0780 9DF82E21 		ldrb	r2, [sp, #302]	@ zero_extendqisi2
ARM GAS  C:\Users\PRESID~1\AppData\Local\Temp\ccgd5bvc.s 			page 33


 1351 0784 1793     		str	r3, [sp, #92]
 1352 0786 9342     		cmp	r3, r2
 1353 0788 0B92     		str	r2, [sp, #44]
 1354 078a 3593     		str	r3, [sp, #212]
 1355 078c 40F0D484 		bne	.L82
 1356              	.LVL123:
 1357 0790 9DF82F31 		ldrb	r3, [sp, #303]	@ zero_extendqisi2
 1358 0794 9DF84F21 		ldrb	r2, [sp, #335]	@ zero_extendqisi2
 1359 0798 3693     		str	r3, [sp, #216]
 1360 079a 9A42     		cmp	r2, r3
 1361 079c 1892     		str	r2, [sp, #96]
 1362 079e 40F0CB84 		bne	.L82
 1363 07a2 0A92     		str	r2, [sp, #40]
 1364              	.LVL124:
 1365              	.L85:
 1366 07a4 9DF83031 		ldrb	r3, [sp, #304]	@ zero_extendqisi2
 1367 07a8 9DF83FA1 		ldrb	r10, [sp, #319]	@ zero_extendqisi2
 1368 07ac 0193     		str	r3, [sp, #4]
 1369 07ae 1A46     		mov	r2, r3
 1370              	.L43:
 1371              	.LVL125:
 1372              	.LBE231:
 1373              	.LBE230:
 1374              	.LBE248:
 1375              	.LBB249:
 1376              	.LBB250:
 1377              	.LBB251:
 225:E:\NeuOrga\Programmieren\c_cpp\github_os\input\src\os_base\os_common.c ****       {
 1378              		.loc 1 225 0
 1379 07b0 239B     		ldr	r3, [sp, #140]
 1380 07b2 9342     		cmp	r3, r2
 1381 07b4 00F2B580 		bhi	.L44
 1382 07b8 9DF831C1 		ldrb	ip, [sp, #305]	@ zero_extendqisi2
 230:E:\NeuOrga\Programmieren\c_cpp\github_os\input\src\os_base\os_common.c ****       {
 1383              		.loc 1 230 0
 1384 07bc C0F0D484 		bcc	.L202
 1385              	.LVL126:
 225:E:\NeuOrga\Programmieren\c_cpp\github_os\input\src\os_base\os_common.c ****       {
 1386              		.loc 1 225 0
 1387 07c0 379B     		ldr	r3, [sp, #220]
 1388 07c2 9C45     		cmp	ip, r3
 1389 07c4 C0F0AD80 		bcc	.L44
 1390 07c8 9DF83231 		ldrb	r3, [sp, #306]	@ zero_extendqisi2
 1391 07cc 0393     		str	r3, [sp, #12]
 230:E:\NeuOrga\Programmieren\c_cpp\github_os\input\src\os_base\os_common.c ****       {
 1392              		.loc 1 230 0
 1393 07ce 00F2F481 		bhi	.L203
 1394 07d2 1A46     		mov	r2, r3
 1395              	.LVL127:
 225:E:\NeuOrga\Programmieren\c_cpp\github_os\input\src\os_base\os_common.c ****       {
 1396              		.loc 1 225 0
 1397 07d4 269B     		ldr	r3, [sp, #152]
 1398 07d6 9342     		cmp	r3, r2
 1399 07d8 00F2A380 		bhi	.L44
 1400 07dc 9DF83331 		ldrb	r3, [sp, #307]	@ zero_extendqisi2
 1401 07e0 0093     		str	r3, [sp]
 230:E:\NeuOrga\Programmieren\c_cpp\github_os\input\src\os_base\os_common.c ****       {
ARM GAS  C:\Users\PRESID~1\AppData\Local\Temp\ccgd5bvc.s 			page 34


 1402              		.loc 1 230 0
 1403 07e2 C0F0D281 		bcc	.L204
 1404 07e6 1A46     		mov	r2, r3
 1405              	.LVL128:
 225:E:\NeuOrga\Programmieren\c_cpp\github_os\input\src\os_base\os_common.c ****       {
 1406              		.loc 1 225 0
 1407 07e8 279B     		ldr	r3, [sp, #156]
 1408 07ea 9342     		cmp	r3, r2
 1409 07ec 00F29980 		bhi	.L44
 1410 07f0 9DF83451 		ldrb	r5, [sp, #308]	@ zero_extendqisi2
 230:E:\NeuOrga\Programmieren\c_cpp\github_os\input\src\os_base\os_common.c ****       {
 1411              		.loc 1 230 0
 1412 07f4 C0F0A281 		bcc	.L205
 1413              	.LVL129:
 225:E:\NeuOrga\Programmieren\c_cpp\github_os\input\src\os_base\os_common.c ****       {
 1414              		.loc 1 225 0
 1415 07f8 289B     		ldr	r3, [sp, #160]
 1416 07fa AB42     		cmp	r3, r5
 1417 07fc 00F29180 		bhi	.L44
 1418 0800 9DF83531 		ldrb	r3, [sp, #309]	@ zero_extendqisi2
 1419 0804 0293     		str	r3, [sp, #8]
 230:E:\NeuOrga\Programmieren\c_cpp\github_os\input\src\os_base\os_common.c ****       {
 1420              		.loc 1 230 0
 1421 0806 C0F00585 		bcc	.L206
 1422 080a 1A46     		mov	r2, r3
 1423              	.LVL130:
 225:E:\NeuOrga\Programmieren\c_cpp\github_os\input\src\os_base\os_common.c ****       {
 1424              		.loc 1 225 0
 1425 080c 2A9B     		ldr	r3, [sp, #168]
 1426 080e 9342     		cmp	r3, r2
 1427 0810 00F28780 		bhi	.L44
 1428 0814 9DF83691 		ldrb	r9, [sp, #310]	@ zero_extendqisi2
 230:E:\NeuOrga\Programmieren\c_cpp\github_os\input\src\os_base\os_common.c ****       {
 1429              		.loc 1 230 0
 1430 0818 C0F0EA84 		bcc	.L207
 1431              	.LVL131:
 225:E:\NeuOrga\Programmieren\c_cpp\github_os\input\src\os_base\os_common.c ****       {
 1432              		.loc 1 225 0
 1433 081c 2B9B     		ldr	r3, [sp, #172]
 1434 081e 4B45     		cmp	r3, r9
 1435 0820 7FD8     		bhi	.L44
 1436 0822 9DF83781 		ldrb	r8, [sp, #311]	@ zero_extendqisi2
 230:E:\NeuOrga\Programmieren\c_cpp\github_os\input\src\os_base\os_common.c ****       {
 1437              		.loc 1 230 0
 1438 0826 C0F0FB85 		bcc	.L208
 1439              	.LVL132:
 225:E:\NeuOrga\Programmieren\c_cpp\github_os\input\src\os_base\os_common.c ****       {
 1440              		.loc 1 225 0
 1441 082a 2C9B     		ldr	r3, [sp, #176]
 1442 082c 4345     		cmp	r3, r8
 1443 082e 78D8     		bhi	.L44
 1444 0830 9DF838E1 		ldrb	lr, [sp, #312]	@ zero_extendqisi2
 230:E:\NeuOrga\Programmieren\c_cpp\github_os\input\src\os_base\os_common.c ****       {
 1445              		.loc 1 230 0
 1446 0834 C0F0E685 		bcc	.L209
 1447              	.LVL133:
 225:E:\NeuOrga\Programmieren\c_cpp\github_os\input\src\os_base\os_common.c ****       {
ARM GAS  C:\Users\PRESID~1\AppData\Local\Temp\ccgd5bvc.s 			page 35


 1448              		.loc 1 225 0
 1449 0838 2D9B     		ldr	r3, [sp, #180]
 1450 083a 7345     		cmp	r3, lr
 1451 083c 71D8     		bhi	.L44
 1452 083e 9DF83901 		ldrb	r0, [sp, #313]	@ zero_extendqisi2
 230:E:\NeuOrga\Programmieren\c_cpp\github_os\input\src\os_base\os_common.c ****       {
 1453              		.loc 1 230 0
 1454 0842 C0F0D385 		bcc	.L210
 1455              	.LVL134:
 225:E:\NeuOrga\Programmieren\c_cpp\github_os\input\src\os_base\os_common.c ****       {
 1456              		.loc 1 225 0
 1457 0846 309B     		ldr	r3, [sp, #192]
 1458 0848 8342     		cmp	r3, r0
 1459 084a 6AD8     		bhi	.L44
 1460 084c 9DF83A41 		ldrb	r4, [sp, #314]	@ zero_extendqisi2
 230:E:\NeuOrga\Programmieren\c_cpp\github_os\input\src\os_base\os_common.c ****       {
 1461              		.loc 1 230 0
 1462 0850 C0F0C285 		bcc	.L211
 1463              	.LVL135:
 225:E:\NeuOrga\Programmieren\c_cpp\github_os\input\src\os_base\os_common.c ****       {
 1464              		.loc 1 225 0
 1465 0854 319B     		ldr	r3, [sp, #196]
 1466 0856 A342     		cmp	r3, r4
 1467 0858 63D8     		bhi	.L44
 1468 085a 9DF83B11 		ldrb	r1, [sp, #315]	@ zero_extendqisi2
 230:E:\NeuOrga\Programmieren\c_cpp\github_os\input\src\os_base\os_common.c ****       {
 1469              		.loc 1 230 0
 1470 085e C0F0F985 		bcc	.L212
 1471              	.LVL136:
 225:E:\NeuOrga\Programmieren\c_cpp\github_os\input\src\os_base\os_common.c ****       {
 1472              		.loc 1 225 0
 1473 0862 329B     		ldr	r3, [sp, #200]
 1474 0864 8B42     		cmp	r3, r1
 1475 0866 5CD8     		bhi	.L44
 1476 0868 9DF83C21 		ldrb	r2, [sp, #316]	@ zero_extendqisi2
 230:E:\NeuOrga\Programmieren\c_cpp\github_os\input\src\os_base\os_common.c ****       {
 1477              		.loc 1 230 0
 1478 086c C0F0E885 		bcc	.L213
 1479              	.LVL137:
 225:E:\NeuOrga\Programmieren\c_cpp\github_os\input\src\os_base\os_common.c ****       {
 1480              		.loc 1 225 0
 1481 0870 339B     		ldr	r3, [sp, #204]
 1482 0872 9342     		cmp	r3, r2
 1483 0874 55D8     		bhi	.L44
 1484 0876 9DF83D31 		ldrb	r3, [sp, #317]	@ zero_extendqisi2
 230:E:\NeuOrga\Programmieren\c_cpp\github_os\input\src\os_base\os_common.c ****       {
 1485              		.loc 1 230 0
 1486 087a C0F0E785 		bcc	.L214
 1487              	.LVL138:
 225:E:\NeuOrga\Programmieren\c_cpp\github_os\input\src\os_base\os_common.c ****       {
 1488              		.loc 1 225 0
 1489 087e 349E     		ldr	r6, [sp, #208]
 1490 0880 9E42     		cmp	r6, r3
 1491 0882 4ED8     		bhi	.L44
 1492 0884 9DF83EB1 		ldrb	fp, [sp, #318]	@ zero_extendqisi2
 230:E:\NeuOrga\Programmieren\c_cpp\github_os\input\src\os_base\os_common.c ****       {
 1493              		.loc 1 230 0
ARM GAS  C:\Users\PRESID~1\AppData\Local\Temp\ccgd5bvc.s 			page 36


 1494 0888 06D3     		bcc	.L49
 1495              	.LVL139:
 225:E:\NeuOrga\Programmieren\c_cpp\github_os\input\src\os_base\os_common.c ****       {
 1496              		.loc 1 225 0
 1497 088a 359E     		ldr	r6, [sp, #212]
 1498 088c 5E45     		cmp	r6, fp
 1499 088e 48D8     		bhi	.L44
 230:E:\NeuOrga\Programmieren\c_cpp\github_os\input\src\os_base\os_common.c ****       {
 1500              		.loc 1 230 0
 1501 0890 02D3     		bcc	.L49
 1502              	.LVL140:
 225:E:\NeuOrga\Programmieren\c_cpp\github_os\input\src\os_base\os_common.c ****       {
 1503              		.loc 1 225 0
 1504 0892 369E     		ldr	r6, [sp, #216]
 1505 0894 5645     		cmp	r6, r10
 1506 0896 44D8     		bhi	.L44
 1507              	.LVL141:
 1508              	.L49:
 1509              	.LBE251:
 1510              	.LBE250:
 1511              	.LBB252:
 1512              	.LBB253:
 252:E:\NeuOrga\Programmieren\c_cpp\github_os\input\src\os_base\os_common.c ****       {
 1513              		.loc 1 252 0
 1514 0898 239E     		ldr	r6, [sp, #140]
 1515 089a 3746     		mov	r7, r6
 1516 089c 019E     		ldr	r6, [sp, #4]
 1517 089e B742     		cmp	r7, r6
 1518 08a0 40F06781 		bne	.L169
 1519              	.L216:
 1520              	.LVL142:
 1521 08a4 379E     		ldr	r6, [sp, #220]
 1522 08a6 B445     		cmp	ip, r6
 1523 08a8 40F0CA87 		bne	.L102
 1524              	.LVL143:
 1525 08ac 269E     		ldr	r6, [sp, #152]
 1526 08ae 039F     		ldr	r7, [sp, #12]
 1527 08b0 BE42     		cmp	r6, r7
 1528 08b2 40F05586 		bne	.L103
 1529              	.LVL144:
 1530 08b6 279E     		ldr	r6, [sp, #156]
 1531 08b8 009F     		ldr	r7, [sp]
 1532 08ba BE42     		cmp	r6, r7
 1533 08bc 40F04186 		bne	.L104
 1534              	.LVL145:
 1535 08c0 289E     		ldr	r6, [sp, #160]
 1536 08c2 AE42     		cmp	r6, r5
 1537 08c4 40F02E86 		bne	.L105
 1538              	.LVL146:
 1539 08c8 2A9D     		ldr	r5, [sp, #168]
 1540 08ca 029E     		ldr	r6, [sp, #8]
 1541 08cc B542     		cmp	r5, r6
 1542 08ce 40F01986 		bne	.L106
 1543              	.LVL147:
 1544 08d2 2B9D     		ldr	r5, [sp, #172]
 1545 08d4 4D45     		cmp	r5, r9
 1546 08d6 40F00386 		bne	.L107
ARM GAS  C:\Users\PRESID~1\AppData\Local\Temp\ccgd5bvc.s 			page 37


 1547              	.LVL148:
 1548 08da 2C9D     		ldr	r5, [sp, #176]
 1549 08dc 4545     		cmp	r5, r8
 1550 08de 40F0EB85 		bne	.L108
 1551              	.LVL149:
 1552 08e2 2D9D     		ldr	r5, [sp, #180]
 1553 08e4 7545     		cmp	r5, lr
 1554 08e6 40F0D385 		bne	.L109
 1555              	.LVL150:
 1556 08ea 309D     		ldr	r5, [sp, #192]
 1557 08ec 8542     		cmp	r5, r0
 1558 08ee 40F0B985 		bne	.L110
 1559              	.LVL151:
 1560 08f2 3198     		ldr	r0, [sp, #196]
 1561 08f4 A042     		cmp	r0, r4
 1562 08f6 40F0B884 		bne	.L111
 1563              	.LVL152:
 1564 08fa 3298     		ldr	r0, [sp, #200]
 1565 08fc 8842     		cmp	r0, r1
 1566 08fe 40F09D84 		bne	.L112
 1567              	.LVL153:
 1568 0902 3399     		ldr	r1, [sp, #204]
 1569 0904 9142     		cmp	r1, r2
 1570 0906 40F09487 		bne	.L113
 1571              	.LVL154:
 1572 090a 349A     		ldr	r2, [sp, #208]
 1573 090c 9A42     		cmp	r2, r3
 1574 090e 40F07687 		bne	.L114
 1575              	.LVL155:
 1576 0912 359B     		ldr	r3, [sp, #212]
 1577 0914 5B45     		cmp	r3, fp
 1578 0916 40F05787 		bne	.L115
 1579              	.LVL156:
 1580 091a 369B     		ldr	r3, [sp, #216]
 1581 091c 5345     		cmp	r3, r10
 1582 091e 40F03987 		bne	.L215
 1583              	.LVL157:
 1584              	.L44:
 1585              	.LBE253:
 1586              	.LBE252:
 1587              	.LBE249:
  59:E:\NeuOrga\Programmieren\c_cpp\github_os\input\src\os_base\os_common.c ****    /*Tag: Big Int*/
 1588              		.loc 1 59 0
 1589 0922 4FF0000A 		mov	r10, #0
 1590 0926 0DF23F13 		addw	r3, sp, #319
 1591 092a 0093     		str	r3, [sp]
 1592 092c CDE904AA 		strd	r10, r10, [sp, #16]
 1593 0930 CDE902AA 		strd	r10, r10, [sp, #8]
 1594 0934 5746     		mov	r7, r10
 1595 0936 5CA8     		add	r0, sp, #368
 1596 0938 009C     		ldr	r4, [sp]
 1597 093a CDF804A0 		str	r10, [sp, #4]
 1598 093e D146     		mov	r9, r10
 1599 0940 D046     		mov	r8, r10
 1600 0942 D646     		mov	lr, r10
 1601 0944 D446     		mov	ip, r10
 1602 0946 5646     		mov	r6, r10
ARM GAS  C:\Users\PRESID~1\AppData\Local\Temp\ccgd5bvc.s 			page 38


 1603 0948 5146     		mov	r1, r10
 1604 094a 3A46     		mov	r2, r7
 1605 094c 3B46     		mov	r3, r7
 1606 094e CDF818A0 		str	r10, [sp, #24]
 1607 0952 8346     		mov	fp, r0
 1608              	.L42:
 1609              	.LVL158:
 1610              	.LBB258:
 1611              	.LBB259:
 320:E:\NeuOrga\Programmieren\c_cpp\github_os\input\src\os_base\os_common.c ****    }
 321:E:\NeuOrga\Programmieren\c_cpp\github_os\input\src\os_base\os_common.c **** }
 322:E:\NeuOrga\Programmieren\c_cpp\github_os\input\src\os_base\os_common.c **** void SHIFT_LEFT(big_int* number, uint32 amount_bits_shift)
 323:E:\NeuOrga\Programmieren\c_cpp\github_os\input\src\os_base\os_common.c **** {
 324:E:\NeuOrga\Programmieren\c_cpp\github_os\input\src\os_base\os_common.c ****    big_int tmpBigInt, result;
 325:E:\NeuOrga\Programmieren\c_cpp\github_os\input\src\os_base\os_common.c ****    uint32  tmp32;
 326:E:\NeuOrga\Programmieren\c_cpp\github_os\input\src\os_base\os_common.c ****    sint32  pos;
 327:E:\NeuOrga\Programmieren\c_cpp\github_os\input\src\os_base\os_common.c ****    /* init the variable */
 328:E:\NeuOrga\Programmieren\c_cpp\github_os\input\src\os_base\os_common.c ****    ASSIGN_NULL(&tmpBigInt);
 329:E:\NeuOrga\Programmieren\c_cpp\github_os\input\src\os_base\os_common.c ****    ASSIGN_NULL(&result);
 330:E:\NeuOrga\Programmieren\c_cpp\github_os\input\src\os_base\os_common.c ****    
 331:E:\NeuOrga\Programmieren\c_cpp\github_os\input\src\os_base\os_common.c ****    /* due to the underlying 32 bit integer type only 24 bits can be shifted (32bit variable -8bit a
 332:E:\NeuOrga\Programmieren\c_cpp\github_os\input\src\os_base\os_common.c ****    if(amount_bits_shift > 24u)
 333:E:\NeuOrga\Programmieren\c_cpp\github_os\input\src\os_base\os_common.c ****    {
 334:E:\NeuOrga\Programmieren\c_cpp\github_os\input\src\os_base\os_common.c ****       OS_SET_SW_BUG(E_OS_BUG_BIT_SHIFT_OUT_OF_RANGE, E_FUNC_SHIFT_LEFT);
 335:E:\NeuOrga\Programmieren\c_cpp\github_os\input\src\os_base\os_common.c ****       return;
 336:E:\NeuOrga\Programmieren\c_cpp\github_os\input\src\os_base\os_common.c ****    }         
 337:E:\NeuOrga\Programmieren\c_cpp\github_os\input\src\os_base\os_common.c ****    for (pos = BIG_INT_SIZE-1u; pos >= 0; pos--)
 338:E:\NeuOrga\Programmieren\c_cpp\github_os\input\src\os_base\os_common.c ****    {
 339:E:\NeuOrga\Programmieren\c_cpp\github_os\input\src\os_base\os_common.c ****       ASSIGN_NULL(&tmpBigInt);
 340:E:\NeuOrga\Programmieren\c_cpp\github_os\input\src\os_base\os_common.c ****       tmp32 = ((uint32)number->number[(uint32)pos]) << amount_bits_shift;
 1612              		.loc 1 340 0
 1613 0954 14F80109 		ldrb	r0, [r4], #-1	@ zero_extendqisi2
 1614 0958 0094     		str	r4, [sp]
 1615              	.LVL159:
 1616              	.LBB260:
 1617              	.LBB261:
 304:E:\NeuOrga\Programmieren\c_cpp\github_os\input\src\os_base\os_common.c ****    }
 1618              		.loc 1 304 0
 1619 095a 0025     		movs	r5, #0
 1620              	.LBE261:
 1621              	.LBE260:
 1622              		.loc 1 340 0
 1623 095c 0001     		lsls	r0, r0, #4
 1624              	.LBB263:
 1625              	.LBB262:
 304:E:\NeuOrga\Programmieren\c_cpp\github_os\input\src\os_base\os_common.c ****    }
 1626              		.loc 1 304 0
 1627 095e 5995     		str	r5, [sp, #356]
 1628 0960 5A95     		str	r5, [sp, #360]
 1629 0962 5B95     		str	r5, [sp, #364]
 1630              	.LVL160:
 1631 0964 5895     		str	r5, [sp, #352]
 1632              	.LBE262:
 1633              	.LBE263:
 341:E:\NeuOrga\Programmieren\c_cpp\github_os\input\src\os_base\os_common.c ****       tmpBigInt.number[(uint32)pos]      = (tmp32 >> 0u) & 0xFF;
 1634              		.loc 1 341 0
 1635 0966 0BF8010D 		strb	r0, [fp, #-1]!
ARM GAS  C:\Users\PRESID~1\AppData\Local\Temp\ccgd5bvc.s 			page 39


 342:E:\NeuOrga\Programmieren\c_cpp\github_os\input\src\os_base\os_common.c ****       tmpBigInt.number[(uint32)pos+1u]   = (tmp32 >> 8u) & 0xFF;
 1636              		.loc 1 342 0
 1637 096a 000A     		lsrs	r0, r0, #8
 1638              	.LVL161:
 343:E:\NeuOrga\Programmieren\c_cpp\github_os\input\src\os_base\os_common.c ****       tmpBigInt.number[(uint32)pos+2u]   = (tmp32 >>16u) & 0xFF;
 1639              		.loc 1 343 0
 1640 096c 8BF80250 		strb	r5, [fp, #2]
 344:E:\NeuOrga\Programmieren\c_cpp\github_os\input\src\os_base\os_common.c ****       tmpBigInt.number[(uint32)pos+3u]   = (tmp32 >>24u) & 0xFF;
 1641              		.loc 1 344 0
 1642 0970 8BF80350 		strb	r5, [fp, #3]
 1643              	.LVL162:
 342:E:\NeuOrga\Programmieren\c_cpp\github_os\input\src\os_base\os_common.c ****       tmpBigInt.number[(uint32)pos+1u]   = (tmp32 >> 8u) & 0xFF;
 1644              		.loc 1 342 0
 1645 0974 8BF80100 		strb	r0, [fp, #1]
 1646              	.LBB264:
 1647              	.LBB265:
 1648              	.LBB266:
 191:E:\NeuOrga\Programmieren\c_cpp\github_os\input\src\os_base\os_common.c ****       Summe->number[pos] = tmp_sum & 0xFFu;
 1649              		.loc 1 191 0
 1650 0978 9DF86F51 		ldrb	r5, [sp, #367]	@ zero_extendqisi2
 1651 097c 9DF86E41 		ldrb	r4, [sp, #366]	@ zero_extendqisi2
 1652              	.LVL163:
 1653 0980 9DF86D01 		ldrb	r0, [sp, #365]	@ zero_extendqisi2
 1654 0984 AA44     		add	r10, r10, r5
 1655              	.LVL164:
 193:E:\NeuOrga\Programmieren\c_cpp\github_os\input\src\os_base\os_common.c ****    }
 1656              		.loc 1 193 0
 1657 0986 0AF47F45 		and	r5, r10, #65280
 191:E:\NeuOrga\Programmieren\c_cpp\github_os\input\src\os_base\os_common.c ****       Summe->number[pos] = tmp_sum & 0xFFu;
 1658              		.loc 1 191 0
 1659 098a A144     		add	r9, r9, r4
 1660              	.LVL165:
 1661 098c A944     		add	r9, r9, r5
 1662 098e 1FFA89F9 		uxth	r9, r9
 193:E:\NeuOrga\Programmieren\c_cpp\github_os\input\src\os_base\os_common.c ****    }
 1663              		.loc 1 193 0
 1664 0992 09F47F44 		and	r4, r9, #65280
 191:E:\NeuOrga\Programmieren\c_cpp\github_os\input\src\os_base\os_common.c ****       Summe->number[pos] = tmp_sum & 0xFFu;
 1665              		.loc 1 191 0
 1666 0996 8044     		add	r8, r8, r0
 1667              	.LVL166:
 1668 0998 A044     		add	r8, r8, r4
 1669 099a 9DF86B01 		ldrb	r0, [sp, #363]	@ zero_extendqisi2
 1670 099e 0890     		str	r0, [sp, #32]
 1671 09a0 1FFA88F0 		uxth	r0, r8
 193:E:\NeuOrga\Programmieren\c_cpp\github_os\input\src\os_base\os_common.c ****    }
 1672              		.loc 1 193 0
 1673 09a4 00F47F44 		and	r4, r0, #65280
 191:E:\NeuOrga\Programmieren\c_cpp\github_os\input\src\os_base\os_common.c ****       Summe->number[pos] = tmp_sum & 0xFFu;
 1674              		.loc 1 191 0
 1675 09a8 9DF86C51 		ldrb	r5, [sp, #364]	@ zero_extendqisi2
 193:E:\NeuOrga\Programmieren\c_cpp\github_os\input\src\os_base\os_common.c ****    }
 1676              		.loc 1 193 0
 1677 09ac 0790     		str	r0, [sp, #28]
 191:E:\NeuOrga\Programmieren\c_cpp\github_os\input\src\os_base\os_common.c ****       Summe->number[pos] = tmp_sum & 0xFFu;
 1678              		.loc 1 191 0
 1679 09ae 0698     		ldr	r0, [sp, #24]
ARM GAS  C:\Users\PRESID~1\AppData\Local\Temp\ccgd5bvc.s 			page 40


 1680 09b0 0544     		add	r5, r5, r0
 1681 09b2 2544     		add	r5, r5, r4
 1682 09b4 0898     		ldr	r0, [sp, #32]
 1683 09b6 ADB2     		uxth	r5, r5
 1684 09b8 7044     		add	r0, r0, lr
 193:E:\NeuOrga\Programmieren\c_cpp\github_os\input\src\os_base\os_common.c ****    }
 1685              		.loc 1 193 0
 1686 09ba 05F47F44 		and	r4, r5, #65280
 191:E:\NeuOrga\Programmieren\c_cpp\github_os\input\src\os_base\os_common.c ****       Summe->number[pos] = tmp_sum & 0xFFu;
 1687              		.loc 1 191 0
 1688 09be 0444     		add	r4, r4, r0
 193:E:\NeuOrga\Programmieren\c_cpp\github_os\input\src\os_base\os_common.c ****    }
 1689              		.loc 1 193 0
 1690 09c0 0695     		str	r5, [sp, #24]
 1691              	.LVL167:
 191:E:\NeuOrga\Programmieren\c_cpp\github_os\input\src\os_base\os_common.c ****       Summe->number[pos] = tmp_sum & 0xFFu;
 1692              		.loc 1 191 0
 1693 09c2 9DF86A51 		ldrb	r5, [sp, #362]	@ zero_extendqisi2
 1694 09c6 9DF86901 		ldrb	r0, [sp, #361]	@ zero_extendqisi2
 1695 09ca 1FFA84FE 		uxth	lr, r4
 1696              	.LVL168:
 193:E:\NeuOrga\Programmieren\c_cpp\github_os\input\src\os_base\os_common.c ****    }
 1697              		.loc 1 193 0
 1698 09ce 0EF47F44 		and	r4, lr, #65280
 191:E:\NeuOrga\Programmieren\c_cpp\github_os\input\src\os_base\os_common.c ****       Summe->number[pos] = tmp_sum & 0xFFu;
 1699              		.loc 1 191 0
 1700 09d2 AC44     		add	ip, ip, r5
 1701              	.LVL169:
 1702 09d4 A444     		add	ip, ip, r4
 1703 09d6 1FFA8CFC 		uxth	ip, ip
 193:E:\NeuOrga\Programmieren\c_cpp\github_os\input\src\os_base\os_common.c ****    }
 1704              		.loc 1 193 0
 1705 09da 0CF47F44 		and	r4, ip, #65280
 191:E:\NeuOrga\Programmieren\c_cpp\github_os\input\src\os_base\os_common.c ****       Summe->number[pos] = tmp_sum & 0xFFu;
 1706              		.loc 1 191 0
 1707 09de 0144     		add	r1, r1, r0
 1708              	.LVL170:
 1709 09e0 9DF86851 		ldrb	r5, [sp, #360]	@ zero_extendqisi2
 1710 09e4 9DF86701 		ldrb	r0, [sp, #359]	@ zero_extendqisi2
 193:E:\NeuOrga\Programmieren\c_cpp\github_os\input\src\os_base\os_common.c ****    }
 1711              		.loc 1 193 0
 1712 09e8 CDF820E0 		str	lr, [sp, #32]
 191:E:\NeuOrga\Programmieren\c_cpp\github_os\input\src\os_base\os_common.c ****       Summe->number[pos] = tmp_sum & 0xFFu;
 1713              		.loc 1 191 0
 1714 09ec 2144     		add	r1, r1, r4
 1715 09ee 89B2     		uxth	r1, r1
 193:E:\NeuOrga\Programmieren\c_cpp\github_os\input\src\os_base\os_common.c ****    }
 1716              		.loc 1 193 0
 1717 09f0 01F47F44 		and	r4, r1, #65280
 191:E:\NeuOrga\Programmieren\c_cpp\github_os\input\src\os_base\os_common.c ****       Summe->number[pos] = tmp_sum & 0xFFu;
 1718              		.loc 1 191 0
 1719 09f4 2F44     		add	r7, r7, r5
 1720              	.LVL171:
 1721 09f6 2744     		add	r7, r7, r4
 1722 09f8 BFB2     		uxth	r7, r7
 193:E:\NeuOrga\Programmieren\c_cpp\github_os\input\src\os_base\os_common.c ****    }
 1723              		.loc 1 193 0
ARM GAS  C:\Users\PRESID~1\AppData\Local\Temp\ccgd5bvc.s 			page 41


 1724 09fa 07F47F44 		and	r4, r7, #65280
 191:E:\NeuOrga\Programmieren\c_cpp\github_os\input\src\os_base\os_common.c ****       Summe->number[pos] = tmp_sum & 0xFFu;
 1725              		.loc 1 191 0
 1726 09fe 0244     		add	r2, r2, r0
 1727              	.LVL172:
 1728 0a00 9DF86651 		ldrb	r5, [sp, #358]	@ zero_extendqisi2
 1729 0a04 9DF86501 		ldrb	r0, [sp, #357]	@ zero_extendqisi2
 1730 0a08 2244     		add	r2, r2, r4
 1731 0a0a 92B2     		uxth	r2, r2
 193:E:\NeuOrga\Programmieren\c_cpp\github_os\input\src\os_base\os_common.c ****    }
 1732              		.loc 1 193 0
 1733 0a0c 02F47F44 		and	r4, r2, #65280
 191:E:\NeuOrga\Programmieren\c_cpp\github_os\input\src\os_base\os_common.c ****       Summe->number[pos] = tmp_sum & 0xFFu;
 1734              		.loc 1 191 0
 1735 0a10 2E44     		add	r6, r6, r5
 1736              	.LVL173:
 1737 0a12 2644     		add	r6, r6, r4
 1738 0a14 B6B2     		uxth	r6, r6
 193:E:\NeuOrga\Programmieren\c_cpp\github_os\input\src\os_base\os_common.c ****    }
 1739              		.loc 1 193 0
 1740 0a16 06F47F44 		and	r4, r6, #65280
 191:E:\NeuOrga\Programmieren\c_cpp\github_os\input\src\os_base\os_common.c ****       Summe->number[pos] = tmp_sum & 0xFFu;
 1741              		.loc 1 191 0
 1742 0a1a 0344     		add	r3, r3, r0
 1743              	.LVL174:
 1744 0a1c 2344     		add	r3, r3, r4
 1745 0a1e 9BB2     		uxth	r3, r3
 1746 0a20 9DF86401 		ldrb	r0, [sp, #356]	@ zero_extendqisi2
 193:E:\NeuOrga\Programmieren\c_cpp\github_os\input\src\os_base\os_common.c ****    }
 1747              		.loc 1 193 0
 1748 0a24 0993     		str	r3, [sp, #36]
 1749 0a26 03F47F45 		and	r5, r3, #65280
 191:E:\NeuOrga\Programmieren\c_cpp\github_os\input\src\os_base\os_common.c ****       Summe->number[pos] = tmp_sum & 0xFFu;
 1750              		.loc 1 191 0
 1751 0a2a 059B     		ldr	r3, [sp, #20]
 1752 0a2c 9DF86341 		ldrb	r4, [sp, #355]	@ zero_extendqisi2
 1753 0a30 1844     		add	r0, r0, r3
 1754 0a32 0544     		add	r5, r5, r0
 1755 0a34 049B     		ldr	r3, [sp, #16]
 1756 0a36 9DF862E1 		ldrb	lr, [sp, #354]	@ zero_extendqisi2
 1757 0a3a 9DF86181 		ldrb	r8, [sp, #353]	@ zero_extendqisi2
 1758 0a3e ADB2     		uxth	r5, r5
 193:E:\NeuOrga\Programmieren\c_cpp\github_os\input\src\os_base\os_common.c ****    }
 1759              		.loc 1 193 0
 1760 0a40 05F47F40 		and	r0, r5, #65280
 191:E:\NeuOrga\Programmieren\c_cpp\github_os\input\src\os_base\os_common.c ****       Summe->number[pos] = tmp_sum & 0xFFu;
 1761              		.loc 1 191 0
 1762 0a44 1C44     		add	r4, r4, r3
 1763 0a46 0444     		add	r4, r4, r0
 1764 0a48 039B     		ldr	r3, [sp, #12]
 1765 0a4a A4B2     		uxth	r4, r4
 1766 0a4c 9E44     		add	lr, lr, r3
 193:E:\NeuOrga\Programmieren\c_cpp\github_os\input\src\os_base\os_common.c ****    }
 1767              		.loc 1 193 0
 1768 0a4e 04F47F40 		and	r0, r4, #65280
 191:E:\NeuOrga\Programmieren\c_cpp\github_os\input\src\os_base\os_common.c ****       Summe->number[pos] = tmp_sum & 0xFFu;
 1769              		.loc 1 191 0
ARM GAS  C:\Users\PRESID~1\AppData\Local\Temp\ccgd5bvc.s 			page 42


 1770 0a52 029B     		ldr	r3, [sp, #8]
 1771 0a54 7044     		add	r0, r0, lr
 1772 0a56 80B2     		uxth	r0, r0
 1773 0a58 9844     		add	r8, r8, r3
 193:E:\NeuOrga\Programmieren\c_cpp\github_os\input\src\os_base\os_common.c ****    }
 1774              		.loc 1 193 0
 1775 0a5a 00F47F4E 		and	lr, r0, #65280
 191:E:\NeuOrga\Programmieren\c_cpp\github_os\input\src\os_base\os_common.c ****       Summe->number[pos] = tmp_sum & 0xFFu;
 1776              		.loc 1 191 0
 1777 0a5e C644     		add	lr, lr, r8
 1778 0a60 9DF86031 		ldrb	r3, [sp, #352]	@ zero_extendqisi2
 1779 0a64 0393     		str	r3, [sp, #12]
 1780              	.LVL175:
 1781 0a66 1FFA8EF3 		uxth	r3, lr
 1782 0a6a 0293     		str	r3, [sp, #8]
 1783              	.LVL176:
 1784 0a6c 019B     		ldr	r3, [sp, #4]
 192:E:\NeuOrga\Programmieren\c_cpp\github_os\input\src\os_base\os_common.c ****       carry = tmp_sum & 0xFF00u;
 1785              		.loc 1 192 0
 1786 0a6e 9DF81C80 		ldrb	r8, [sp, #28]	@ zero_extendqisi2
 191:E:\NeuOrga\Programmieren\c_cpp\github_os\input\src\os_base\os_common.c ****       Summe->number[pos] = tmp_sum & 0xFFu;
 1787              		.loc 1 191 0
 1788 0a72 9E46     		mov	lr, r3
 1789 0a74 039B     		ldr	r3, [sp, #12]
 192:E:\NeuOrga\Programmieren\c_cpp\github_os\input\src\os_base\os_common.c ****       carry = tmp_sum & 0xFF00u;
 1790              		.loc 1 192 0
 1791 0a76 C0B2     		uxtb	r0, r0
 191:E:\NeuOrga\Programmieren\c_cpp\github_os\input\src\os_base\os_common.c ****       Summe->number[pos] = tmp_sum & 0xFFu;
 1792              		.loc 1 191 0
 1793 0a78 9E44     		add	lr, lr, r3
 1794 0a7a CDF804E0 		str	lr, [sp, #4]
 1795              	.LVL177:
 192:E:\NeuOrga\Programmieren\c_cpp\github_os\input\src\os_base\os_common.c ****       carry = tmp_sum & 0xFF00u;
 1796              		.loc 1 192 0
 1797 0a7e EDB2     		uxtb	r5, r5
 1798 0a80 0390     		str	r0, [sp, #12]
 1799 0a82 9DF80800 		ldrb	r0, [sp, #8]	@ zero_extendqisi2
 1800 0a86 0595     		str	r5, [sp, #20]
 1801              	.LVL178:
 1802 0a88 0290     		str	r0, [sp, #8]
 1803 0a8a E5B2     		uxtb	r5, r4
 1804 0a8c 9DF80400 		ldrb	r0, [sp, #4]	@ zero_extendqisi2
 1805              	.LBE266:
 1806              	.LBE265:
 1807              	.LBE264:
 337:E:\NeuOrga\Programmieren\c_cpp\github_os\input\src\os_base\os_common.c ****    {
 1808              		.loc 1 337 0
 1809 0a90 009C     		ldr	r4, [sp]
 1810              	.LBB273:
 1811              	.LBB270:
 1812              	.LBB267:
 192:E:\NeuOrga\Programmieren\c_cpp\github_os\input\src\os_base\os_common.c ****       carry = tmp_sum & 0xFF00u;
 1813              		.loc 1 192 0
 1814 0a92 0190     		str	r0, [sp, #4]
 1815              	.LBE267:
 1816              	.LBE270:
 1817              	.LBE273:
ARM GAS  C:\Users\PRESID~1\AppData\Local\Temp\ccgd5bvc.s 			page 43


 337:E:\NeuOrga\Programmieren\c_cpp\github_os\input\src\os_base\os_common.c ****    {
 1818              		.loc 1 337 0
 1819 0a94 0DF22F10 		addw	r0, sp, #303
 1820              	.LBB274:
 1821              	.LBB271:
 1822              	.LBB268:
 192:E:\NeuOrga\Programmieren\c_cpp\github_os\input\src\os_base\os_common.c ****       carry = tmp_sum & 0xFF00u;
 1823              		.loc 1 192 0
 1824 0a98 9DF818E0 		ldrb	lr, [sp, #24]	@ zero_extendqisi2
 1825 0a9c CDF818E0 		str	lr, [sp, #24]
 1826              	.LBE268:
 1827              	.LBE271:
 1828              	.LBE274:
 337:E:\NeuOrga\Programmieren\c_cpp\github_os\input\src\os_base\os_common.c ****    {
 1829              		.loc 1 337 0
 1830 0aa0 A042     		cmp	r0, r4
 1831              	.LBB275:
 1832              	.LBB272:
 1833              	.LBB269:
 192:E:\NeuOrga\Programmieren\c_cpp\github_os\input\src\os_base\os_common.c ****       carry = tmp_sum & 0xFF00u;
 1834              		.loc 1 192 0
 1835 0aa2 5FFA8AFA 		uxtb	r10, r10
 1836              	.LVL179:
 1837 0aa6 5FFA89F9 		uxtb	r9, r9
 1838              	.LVL180:
 1839 0aaa 9DF820E0 		ldrb	lr, [sp, #32]	@ zero_extendqisi2
 1840              	.LVL181:
 1841 0aae 9DF82430 		ldrb	r3, [sp, #36]	@ zero_extendqisi2
 1842 0ab2 0495     		str	r5, [sp, #16]
 1843              	.LVL182:
 1844 0ab4 5FFA8CFC 		uxtb	ip, ip
 1845              	.LVL183:
 1846 0ab8 C9B2     		uxtb	r1, r1
 1847              	.LVL184:
 1848 0aba FFB2     		uxtb	r7, r7
 1849              	.LVL185:
 1850 0abc D2B2     		uxtb	r2, r2
 1851              	.LVL186:
 1852 0abe F6B2     		uxtb	r6, r6
 1853              	.LVL187:
 1854              	.LBE269:
 1855              	.LBE272:
 1856              	.LBE275:
 337:E:\NeuOrga\Programmieren\c_cpp\github_os\input\src\os_base\os_common.c ****    {
 1857              		.loc 1 337 0
 1858 0ac0 7FF448AF 		bne	.L42
 1859              	.LBB276:
 1860              	.LBB277:
 296:E:\NeuOrga\Programmieren\c_cpp\github_os\input\src\os_base\os_common.c ****    }
 1861              		.loc 1 296 0
 1862 0ac4 0198     		ldr	r0, [sp, #4]
 1863 0ac6 0093     		str	r3, [sp]
 1864              	.LVL188:
 1865 0ac8 1446     		mov	r4, r2
 1866              	.LVL189:
 1867 0aca B346     		mov	fp, r6
 1868 0acc 0022     		movs	r2, #0
ARM GAS  C:\Users\PRESID~1\AppData\Local\Temp\ccgd5bvc.s 			page 44


 1869              	.LVL190:
 1870 0ace 0E46     		mov	r6, r1
 1871              	.LVL191:
 1872 0ad0 0299     		ldr	r1, [sp, #8]
 1873              	.LVL192:
 1874 0ad2 1346     		mov	r3, r2
 1875              	.LVL193:
 1876 0ad4 60F30702 		bfi	r2, r0, #0, #8
 1877              	.LVL194:
 1878 0ad8 0598     		ldr	r0, [sp, #20]
 1879 0ada 61F30F22 		bfi	r2, r1, #8, #8
 1880 0ade 0099     		ldr	r1, [sp]
 1881 0ae0 60F30703 		bfi	r3, r0, #0, #8
 1882              	.LVL195:
 1883 0ae4 61F30F23 		bfi	r3, r1, #8, #8
 1884 0ae8 0399     		ldr	r1, [sp, #12]
 1885 0aea 3D46     		mov	r5, r7
 1886 0aec 0020     		movs	r0, #0
 1887 0aee 6746     		mov	r7, ip
 1888              	.LVL196:
 1889 0af0 F446     		mov	ip, lr
 1890              	.LVL197:
 1891 0af2 DDF818E0 		ldr	lr, [sp, #24]
 1892              	.LVL198:
 1893 0af6 65F30700 		bfi	r0, r5, #0, #8
 1894              	.LVL199:
 1895 0afa 61F31742 		bfi	r2, r1, #16, #8
 1896 0afe 0025     		movs	r5, #0
 1897 0b00 0499     		ldr	r1, [sp, #16]
 1898 0b02 6EF30705 		bfi	r5, lr, #0, #8
 1899              	.LVL200:
 1900 0b06 61F31F62 		bfi	r2, r1, #24, #8
 1901 0b0a 66F30F20 		bfi	r0, r6, #8, #8
 1902              	.LBE277:
 1903              	.LBE276:
 1904              	.LBE259:
 1905              	.LBE258:
 110:E:\NeuOrga\Programmieren\c_cpp\github_os\input\src\os_base\os_common.c ****       }
 1906              		.loc 1 110 0
 1907 0b0e 3899     		ldr	r1, [sp, #224]
 1908              	.LBB284:
 1909              	.LBB282:
 1910              	.LBB280:
 1911              	.LBB278:
 296:E:\NeuOrga\Programmieren\c_cpp\github_os\input\src\os_base\os_common.c ****    }
 1912              		.loc 1 296 0
 1913 0b10 4C92     		str	r2, [sp, #304]
 1914 0b12 68F30F25 		bfi	r5, r8, #8, #8
 1915 0b16 6BF31743 		bfi	r3, fp, #16, #8
 1916 0b1a 67F31740 		bfi	r0, r7, #16, #8
 1917 0b1e 69F31745 		bfi	r5, r9, #16, #8
 1918 0b22 64F31F63 		bfi	r3, r4, #24, #8
 1919 0b26 6CF31F60 		bfi	r0, ip, #24, #8
 1920 0b2a 6AF31F65 		bfi	r5, r10, #24, #8
 1921              	.LBE278:
 1922              	.LBE280:
 1923              	.LBE282:
ARM GAS  C:\Users\PRESID~1\AppData\Local\Temp\ccgd5bvc.s 			page 45


 1924              	.LBE284:
 110:E:\NeuOrga\Programmieren\c_cpp\github_os\input\src\os_base\os_common.c ****       }
 1925              		.loc 1 110 0
 1926 0b2e 0131     		adds	r1, r1, #1
 1927 0b30 3891     		str	r1, [sp, #224]
 1928              	.LVL201:
 1929              	.LBB285:
 1930              	.LBB283:
 1931              	.LBB281:
 1932              	.LBB279:
 296:E:\NeuOrga\Programmieren\c_cpp\github_os\input\src\os_base\os_common.c ****    }
 1933              		.loc 1 296 0
 1934 0b32 4D93     		str	r3, [sp, #308]
 1935 0b34 4E90     		str	r0, [sp, #312]
 1936 0b36 4F95     		str	r5, [sp, #316]
 1937              	.LVL202:
 1938 0b38 019A     		ldr	r2, [sp, #4]
 1939 0b3a 39E6     		b	.L43
 1940              	.LVL203:
 1941              	.L205:
 1942 0b3c 9DF83561 		ldrb	r6, [sp, #309]	@ zero_extendqisi2
 1943 0b40 0296     		str	r6, [sp, #8]
 1944              	.LVL204:
 1945              	.LBE279:
 1946              	.LBE281:
 1947              	.LBE283:
 1948              	.LBE285:
 1949              	.LBB286:
 1950              	.LBB256:
 1951              	.LBB254:
 252:E:\NeuOrga\Programmieren\c_cpp\github_os\input\src\os_base\os_common.c ****       {
 1952              		.loc 1 252 0
 1953 0b42 239E     		ldr	r6, [sp, #140]
 1954 0b44 9DF83EB1 		ldrb	fp, [sp, #318]	@ zero_extendqisi2
 1955 0b48 9DF83D31 		ldrb	r3, [sp, #317]	@ zero_extendqisi2
 1956 0b4c 9DF83C21 		ldrb	r2, [sp, #316]	@ zero_extendqisi2
 1957 0b50 9DF83B11 		ldrb	r1, [sp, #315]	@ zero_extendqisi2
 1958 0b54 9DF83A41 		ldrb	r4, [sp, #314]	@ zero_extendqisi2
 1959 0b58 9DF83901 		ldrb	r0, [sp, #313]	@ zero_extendqisi2
 1960 0b5c 9DF838E1 		ldrb	lr, [sp, #312]	@ zero_extendqisi2
 1961 0b60 9DF83781 		ldrb	r8, [sp, #311]	@ zero_extendqisi2
 1962 0b64 9DF83691 		ldrb	r9, [sp, #310]	@ zero_extendqisi2
 1963 0b68 3746     		mov	r7, r6
 1964 0b6a 019E     		ldr	r6, [sp, #4]
 1965 0b6c B742     		cmp	r7, r6
 1966 0b6e 3FF499AE 		beq	.L216
 1967              	.LVL205:
 1968              	.L169:
 1969 0b72 009E     		ldr	r6, [sp]
 1970 0b74 039F     		ldr	r7, [sp, #12]
 1971 0b76 CDF800C0 		str	ip, [sp]
 1972 0b7a 0394     		str	r4, [sp, #12]
 1973 0b7c CDE90532 		strd	r3, r2, [sp, #20]
 1974 0b80 0791     		str	r1, [sp, #28]
 1975 0b82 0490     		str	r0, [sp, #16]
 1976 0b84 DDE934C4 		ldrd	ip, r4, [sp, #208]
 1977 0b88 3AE0     		b	.L46
ARM GAS  C:\Users\PRESID~1\AppData\Local\Temp\ccgd5bvc.s 			page 46


 1978              	.LVL206:
 1979              	.L204:
 1980 0b8a 9DF83551 		ldrb	r5, [sp, #309]	@ zero_extendqisi2
 1981 0b8e 0295     		str	r5, [sp, #8]
 1982 0b90 9DF83EB1 		ldrb	fp, [sp, #318]	@ zero_extendqisi2
 1983 0b94 9DF83D31 		ldrb	r3, [sp, #317]	@ zero_extendqisi2
 1984 0b98 9DF83C21 		ldrb	r2, [sp, #316]	@ zero_extendqisi2
 1985 0b9c 9DF83B11 		ldrb	r1, [sp, #315]	@ zero_extendqisi2
 1986 0ba0 9DF83A41 		ldrb	r4, [sp, #314]	@ zero_extendqisi2
 1987 0ba4 9DF83901 		ldrb	r0, [sp, #313]	@ zero_extendqisi2
 1988 0ba8 9DF838E1 		ldrb	lr, [sp, #312]	@ zero_extendqisi2
 1989 0bac 9DF83781 		ldrb	r8, [sp, #311]	@ zero_extendqisi2
 1990 0bb0 9DF83691 		ldrb	r9, [sp, #310]	@ zero_extendqisi2
 1991 0bb4 9DF83451 		ldrb	r5, [sp, #308]	@ zero_extendqisi2
 1992 0bb8 6EE6     		b	.L49
 1993              	.LVL207:
 1994              	.L203:
 1995 0bba 1F46     		mov	r7, r3
 1996 0bbc 9DF83B31 		ldrb	r3, [sp, #315]	@ zero_extendqisi2
 1997 0bc0 0793     		str	r3, [sp, #28]
 1998 0bc2 9DF83A31 		ldrb	r3, [sp, #314]	@ zero_extendqisi2
 1999 0bc6 0393     		str	r3, [sp, #12]
 2000 0bc8 9DF83931 		ldrb	r3, [sp, #313]	@ zero_extendqisi2
 2001 0bcc 0493     		str	r3, [sp, #16]
 2002 0bce 9DF838E1 		ldrb	lr, [sp, #312]	@ zero_extendqisi2
 2003 0bd2 9DF83531 		ldrb	r3, [sp, #309]	@ zero_extendqisi2
 2004 0bd6 9DF83781 		ldrb	r8, [sp, #311]	@ zero_extendqisi2
 2005 0bda 9DF83691 		ldrb	r9, [sp, #310]	@ zero_extendqisi2
 2006 0bde 9DF83451 		ldrb	r5, [sp, #308]	@ zero_extendqisi2
 2007 0be2 9DF83361 		ldrb	r6, [sp, #307]	@ zero_extendqisi2
 2008 0be6 CDF800C0 		str	ip, [sp]
 2009 0bea 0293     		str	r3, [sp, #8]
 2010              	.LVL208:
 2011              	.L174:
 2012 0bec 9DF83D31 		ldrb	r3, [sp, #317]	@ zero_extendqisi2
 2013 0bf0 0593     		str	r3, [sp, #20]
 2014 0bf2 DDE934C4 		ldrd	ip, r4, [sp, #208]
 2015 0bf6 9DF83C31 		ldrb	r3, [sp, #316]	@ zero_extendqisi2
 2016 0bfa 9DF83EB1 		ldrb	fp, [sp, #318]	@ zero_extendqisi2
 2017 0bfe 0693     		str	r3, [sp, #24]
 2018              	.L46:
 2019              	.LBE254:
 2020              	.LBE256:
 2021              	.LBE286:
 2022              	.LBB287:
 2023              	.LBB244:
 2024              	.LBB240:
 210:E:\NeuOrga\Programmieren\c_cpp\github_os\input\src\os_base\os_common.c ****       }
 2025              		.loc 1 210 0
 2026 0c00 BDF8D820 		ldrh	r2, [sp, #216]
 2027 0c04 BDF8CC00 		ldrh	r0, [sp, #204]
 2028 0c08 0990     		str	r0, [sp, #36]
 2029 0c0a 02F58070 		add	r0, r2, #256
 2030 0c0e 3590     		str	r0, [sp, #212]
 2031 0c10 BDF8C800 		ldrh	r0, [sp, #200]
 2032 0c14 3490     		str	r0, [sp, #208]
 2033 0c16 1FFA8CF1 		uxth	r1, ip
ARM GAS  C:\Users\PRESID~1\AppData\Local\Temp\ccgd5bvc.s 			page 47


 2034 0c1a 3598     		ldr	r0, [sp, #212]
 2035 0c1c 0891     		str	r1, [sp, #32]
 2036 0c1e 1FFA8AF1 		uxth	r1, r10
 206:E:\NeuOrga\Programmieren\c_cpp\github_os\input\src\os_base\os_common.c ****       }
 2037              		.loc 1 206 0
 2038 0c22 521A     		subs	r2, r2, r1
 210:E:\NeuOrga\Programmieren\c_cpp\github_os\input\src\os_base\os_common.c ****       }
 2039              		.loc 1 210 0
 2040 0c24 401A     		subs	r0, r0, r1
 2041 0c26 BDF8C410 		ldrh	r1, [sp, #196]
 2042 0c2a 3591     		str	r1, [sp, #212]
 216:E:\NeuOrga\Programmieren\c_cpp\github_os\input\src\os_base\os_common.c ****    }
 2043              		.loc 1 216 0
 2044 0c2c 3699     		ldr	r1, [sp, #216]
 210:E:\NeuOrga\Programmieren\c_cpp\github_os\input\src\os_base\os_common.c ****       }
 2045              		.loc 1 210 0
 2046 0c2e A3B2     		uxth	r3, r4
 216:E:\NeuOrga\Programmieren\c_cpp\github_os\input\src\os_base\os_common.c ****    }
 2047              		.loc 1 216 0
 2048 0c30 5145     		cmp	r1, r10
 2049 0c32 28BF     		it	cs
 2050 0c34 1046     		movcs	r0, r2
 210:E:\NeuOrga\Programmieren\c_cpp\github_os\input\src\os_base\os_common.c ****       }
 2051              		.loc 1 210 0
 2052 0c36 1FFA8BF1 		uxth	r1, fp
 2053 0c3a 03F58072 		add	r2, r3, #256
 2054 0c3e 521A     		subs	r2, r2, r1
 206:E:\NeuOrga\Programmieren\c_cpp\github_os\input\src\os_base\os_common.c ****       }
 2055              		.loc 1 206 0
 2056 0c40 5B1A     		subs	r3, r3, r1
 216:E:\NeuOrga\Programmieren\c_cpp\github_os\input\src\os_base\os_common.c ****    }
 2057              		.loc 1 216 0
 2058 0c42 3690     		str	r0, [sp, #216]
 2059 0c44 1046     		mov	r0, r2
 2060 0c46 5C45     		cmp	r4, fp
 2061 0c48 28BF     		it	cs
 2062 0c4a 1846     		movcs	r0, r3
 2063 0c4c 3990     		str	r0, [sp, #228]
 210:E:\NeuOrga\Programmieren\c_cpp\github_os\input\src\os_base\os_common.c ****       }
 2064              		.loc 1 210 0
 2065 0c4e 059C     		ldr	r4, [sp, #20]
 2066 0c50 0898     		ldr	r0, [sp, #32]
 2067 0c52 BDF8C010 		ldrh	r1, [sp, #192]
 2068 0c56 A3B2     		uxth	r3, r4
 2069 0c58 00F58072 		add	r2, r0, #256
 2070 0c5c D21A     		subs	r2, r2, r3
 206:E:\NeuOrga\Programmieren\c_cpp\github_os\input\src\os_base\os_common.c ****       }
 2071              		.loc 1 206 0
 2072 0c5e C31A     		subs	r3, r0, r3
 210:E:\NeuOrga\Programmieren\c_cpp\github_os\input\src\os_base\os_common.c ****       }
 2073              		.loc 1 210 0
 2074 0c60 BDF8B400 		ldrh	r0, [sp, #180]
 2075 0c64 0890     		str	r0, [sp, #32]
 216:E:\NeuOrga\Programmieren\c_cpp\github_os\input\src\os_base\os_common.c ****    }
 2076              		.loc 1 216 0
 2077 0c66 1046     		mov	r0, r2
 2078 0c68 A445     		cmp	ip, r4
ARM GAS  C:\Users\PRESID~1\AppData\Local\Temp\ccgd5bvc.s 			page 48


 2079 0c6a 28BF     		it	cs
 2080 0c6c 1846     		movcs	r0, r3
 2081 0c6e 3B90     		str	r0, [sp, #236]
 210:E:\NeuOrga\Programmieren\c_cpp\github_os\input\src\os_base\os_common.c ****       }
 2082              		.loc 1 210 0
 2083 0c70 069C     		ldr	r4, [sp, #24]
 2084 0c72 0998     		ldr	r0, [sp, #36]
 2085 0c74 BDF8B0C0 		ldrh	ip, [sp, #176]
 2086 0c78 CDF824C0 		str	ip, [sp, #36]
 2087 0c7c A3B2     		uxth	r3, r4
 2088 0c7e 00F58072 		add	r2, r0, #256
 2089 0c82 D21A     		subs	r2, r2, r3
 216:E:\NeuOrga\Programmieren\c_cpp\github_os\input\src\os_base\os_common.c ****    }
 2090              		.loc 1 216 0
 2091 0c84 9446     		mov	ip, r2
 2092 0c86 339A     		ldr	r2, [sp, #204]
 206:E:\NeuOrga\Programmieren\c_cpp\github_os\input\src\os_base\os_common.c ****       }
 2093              		.loc 1 206 0
 2094 0c88 C31A     		subs	r3, r0, r3
 216:E:\NeuOrga\Programmieren\c_cpp\github_os\input\src\os_base\os_common.c ****    }
 2095              		.loc 1 216 0
 2096 0c8a A242     		cmp	r2, r4
 2097 0c8c 28BF     		it	cs
 2098 0c8e 9C46     		movcs	ip, r3
 210:E:\NeuOrga\Programmieren\c_cpp\github_os\input\src\os_base\os_common.c ****       }
 2099              		.loc 1 210 0
 2100 0c90 3498     		ldr	r0, [sp, #208]
 2101 0c92 079C     		ldr	r4, [sp, #28]
 216:E:\NeuOrga\Programmieren\c_cpp\github_os\input\src\os_base\os_common.c ****    }
 2102              		.loc 1 216 0
 2103 0c94 CDF8F0C0 		str	ip, [sp, #240]
 210:E:\NeuOrga\Programmieren\c_cpp\github_os\input\src\os_base\os_common.c ****       }
 2104              		.loc 1 210 0
 2105 0c98 A3B2     		uxth	r3, r4
 2106 0c9a 00F58072 		add	r2, r0, #256
 2107 0c9e D21A     		subs	r2, r2, r3
 206:E:\NeuOrga\Programmieren\c_cpp\github_os\input\src\os_base\os_common.c ****       }
 2108              		.loc 1 206 0
 2109 0ca0 C31A     		subs	r3, r0, r3
 210:E:\NeuOrga\Programmieren\c_cpp\github_os\input\src\os_base\os_common.c ****       }
 2110              		.loc 1 210 0
 2111 0ca2 BDF8AC00 		ldrh	r0, [sp, #172]
 2112 0ca6 3390     		str	r0, [sp, #204]
 216:E:\NeuOrga\Programmieren\c_cpp\github_os\input\src\os_base\os_common.c ****    }
 2113              		.loc 1 216 0
 2114 0ca8 1046     		mov	r0, r2
 2115 0caa 329A     		ldr	r2, [sp, #200]
 2116 0cac A242     		cmp	r2, r4
 2117 0cae 28BF     		it	cs
 2118 0cb0 1846     		movcs	r0, r3
 2119 0cb2 3290     		str	r0, [sp, #200]
 210:E:\NeuOrga\Programmieren\c_cpp\github_os\input\src\os_base\os_common.c ****       }
 2120              		.loc 1 210 0
 2121 0cb4 3598     		ldr	r0, [sp, #212]
 2122 0cb6 BDF80C30 		ldrh	r3, [sp, #12]
 2123 0cba BDF8A840 		ldrh	r4, [sp, #168]
 2124 0cbe 00F58072 		add	r2, r0, #256
ARM GAS  C:\Users\PRESID~1\AppData\Local\Temp\ccgd5bvc.s 			page 49


 2125 0cc2 D21A     		subs	r2, r2, r3
 206:E:\NeuOrga\Programmieren\c_cpp\github_os\input\src\os_base\os_common.c ****       }
 2126              		.loc 1 206 0
 2127 0cc4 C31A     		subs	r3, r0, r3
 210:E:\NeuOrga\Programmieren\c_cpp\github_os\input\src\os_base\os_common.c ****       }
 2128              		.loc 1 210 0
 2129 0cc6 2046     		mov	r0, r4
 216:E:\NeuOrga\Programmieren\c_cpp\github_os\input\src\os_base\os_common.c ****    }
 2130              		.loc 1 216 0
 2131 0cc8 1446     		mov	r4, r2
 2132 0cca 319A     		ldr	r2, [sp, #196]
 2133 0ccc 9446     		mov	ip, r2
 2134 0cce 039A     		ldr	r2, [sp, #12]
 2135 0cd0 9445     		cmp	ip, r2
 2136 0cd2 28BF     		it	cs
 2137 0cd4 1C46     		movcs	r4, r3
 210:E:\NeuOrga\Programmieren\c_cpp\github_os\input\src\os_base\os_common.c ****       }
 2138              		.loc 1 210 0
 2139 0cd6 BDF81030 		ldrh	r3, [sp, #16]
 216:E:\NeuOrga\Programmieren\c_cpp\github_os\input\src\os_base\os_common.c ****    }
 2140              		.loc 1 216 0
 2141 0cda 3494     		str	r4, [sp, #208]
 210:E:\NeuOrga\Programmieren\c_cpp\github_os\input\src\os_base\os_common.c ****       }
 2142              		.loc 1 210 0
 2143 0cdc 01F58072 		add	r2, r1, #256
 2144 0ce0 D21A     		subs	r2, r2, r3
 2145 0ce2 BDF8A040 		ldrh	r4, [sp, #160]
 2146 0ce6 3194     		str	r4, [sp, #196]
 216:E:\NeuOrga\Programmieren\c_cpp\github_os\input\src\os_base\os_common.c ****    }
 2147              		.loc 1 216 0
 2148 0ce8 1446     		mov	r4, r2
 2149 0cea 309A     		ldr	r2, [sp, #192]
 206:E:\NeuOrga\Programmieren\c_cpp\github_os\input\src\os_base\os_common.c ****       }
 2150              		.loc 1 206 0
 2151 0cec CB1A     		subs	r3, r1, r3
 216:E:\NeuOrga\Programmieren\c_cpp\github_os\input\src\os_base\os_common.c ****    }
 2152              		.loc 1 216 0
 2153 0cee 9446     		mov	ip, r2
 210:E:\NeuOrga\Programmieren\c_cpp\github_os\input\src\os_base\os_common.c ****       }
 2154              		.loc 1 210 0
 2155 0cf0 0899     		ldr	r1, [sp, #32]
 216:E:\NeuOrga\Programmieren\c_cpp\github_os\input\src\os_base\os_common.c ****    }
 2156              		.loc 1 216 0
 2157 0cf2 049A     		ldr	r2, [sp, #16]
 2158 0cf4 9445     		cmp	ip, r2
 2159 0cf6 28BF     		it	cs
 2160 0cf8 1C46     		movcs	r4, r3
 210:E:\NeuOrga\Programmieren\c_cpp\github_os\input\src\os_base\os_common.c ****       }
 2161              		.loc 1 210 0
 2162 0cfa 01F58072 		add	r2, r1, #256
 2163 0cfe 1FFA8EF3 		uxth	r3, lr
 2164 0d02 D21A     		subs	r2, r2, r3
 216:E:\NeuOrga\Programmieren\c_cpp\github_os\input\src\os_base\os_common.c ****    }
 2165              		.loc 1 216 0
 2166 0d04 3094     		str	r4, [sp, #192]
 210:E:\NeuOrga\Programmieren\c_cpp\github_os\input\src\os_base\os_common.c ****       }
 2167              		.loc 1 210 0
ARM GAS  C:\Users\PRESID~1\AppData\Local\Temp\ccgd5bvc.s 			page 50


 2168 0d06 BDF89C40 		ldrh	r4, [sp, #156]
 2169 0d0a 0894     		str	r4, [sp, #32]
 206:E:\NeuOrga\Programmieren\c_cpp\github_os\input\src\os_base\os_common.c ****       }
 2170              		.loc 1 206 0
 2171 0d0c CB1A     		subs	r3, r1, r3
 216:E:\NeuOrga\Programmieren\c_cpp\github_os\input\src\os_base\os_common.c ****    }
 2172              		.loc 1 216 0
 2173 0d0e 1446     		mov	r4, r2
 210:E:\NeuOrga\Programmieren\c_cpp\github_os\input\src\os_base\os_common.c ****       }
 2174              		.loc 1 210 0
 2175 0d10 0999     		ldr	r1, [sp, #36]
 216:E:\NeuOrga\Programmieren\c_cpp\github_os\input\src\os_base\os_common.c ****    }
 2176              		.loc 1 216 0
 2177 0d12 2D9A     		ldr	r2, [sp, #180]
 2178 0d14 7245     		cmp	r2, lr
 2179 0d16 28BF     		it	cs
 2180 0d18 1C46     		movcs	r4, r3
 210:E:\NeuOrga\Programmieren\c_cpp\github_os\input\src\os_base\os_common.c ****       }
 2181              		.loc 1 210 0
 2182 0d1a 01F58072 		add	r2, r1, #256
 2183 0d1e 1FFA88F3 		uxth	r3, r8
 2184 0d22 D21A     		subs	r2, r2, r3
 216:E:\NeuOrga\Programmieren\c_cpp\github_os\input\src\os_base\os_common.c ****    }
 2185              		.loc 1 216 0
 2186 0d24 2D94     		str	r4, [sp, #180]
 210:E:\NeuOrga\Programmieren\c_cpp\github_os\input\src\os_base\os_common.c ****       }
 2187              		.loc 1 210 0
 2188 0d26 BDF89840 		ldrh	r4, [sp, #152]
 2189 0d2a 0994     		str	r4, [sp, #36]
 206:E:\NeuOrga\Programmieren\c_cpp\github_os\input\src\os_base\os_common.c ****       }
 2190              		.loc 1 206 0
 2191 0d2c CB1A     		subs	r3, r1, r3
 216:E:\NeuOrga\Programmieren\c_cpp\github_os\input\src\os_base\os_common.c ****    }
 2192              		.loc 1 216 0
 2193 0d2e 1446     		mov	r4, r2
 210:E:\NeuOrga\Programmieren\c_cpp\github_os\input\src\os_base\os_common.c ****       }
 2194              		.loc 1 210 0
 2195 0d30 3399     		ldr	r1, [sp, #204]
 216:E:\NeuOrga\Programmieren\c_cpp\github_os\input\src\os_base\os_common.c ****    }
 2196              		.loc 1 216 0
 2197 0d32 2C9A     		ldr	r2, [sp, #176]
 2198 0d34 4245     		cmp	r2, r8
 2199 0d36 28BF     		it	cs
 2200 0d38 1C46     		movcs	r4, r3
 210:E:\NeuOrga\Programmieren\c_cpp\github_os\input\src\os_base\os_common.c ****       }
 2201              		.loc 1 210 0
 2202 0d3a 01F58072 		add	r2, r1, #256
 2203 0d3e 1FFA89F3 		uxth	r3, r9
 2204 0d42 D21A     		subs	r2, r2, r3
 216:E:\NeuOrga\Programmieren\c_cpp\github_os\input\src\os_base\os_common.c ****    }
 2205              		.loc 1 216 0
 2206 0d44 3594     		str	r4, [sp, #212]
 2207 0d46 1446     		mov	r4, r2
 2208 0d48 2B9A     		ldr	r2, [sp, #172]
 206:E:\NeuOrga\Programmieren\c_cpp\github_os\input\src\os_base\os_common.c ****       }
 2209              		.loc 1 206 0
 2210 0d4a CB1A     		subs	r3, r1, r3
ARM GAS  C:\Users\PRESID~1\AppData\Local\Temp\ccgd5bvc.s 			page 51


 216:E:\NeuOrga\Programmieren\c_cpp\github_os\input\src\os_base\os_common.c ****    }
 2211              		.loc 1 216 0
 2212 0d4c 4A45     		cmp	r2, r9
 2213 0d4e 28BF     		it	cs
 2214 0d50 1C46     		movcs	r4, r3
 210:E:\NeuOrga\Programmieren\c_cpp\github_os\input\src\os_base\os_common.c ****       }
 2215              		.loc 1 210 0
 2216 0d52 BDF80830 		ldrh	r3, [sp, #8]
 216:E:\NeuOrga\Programmieren\c_cpp\github_os\input\src\os_base\os_common.c ****    }
 2217              		.loc 1 216 0
 2218 0d56 3394     		str	r4, [sp, #204]
 210:E:\NeuOrga\Programmieren\c_cpp\github_os\input\src\os_base\os_common.c ****       }
 2219              		.loc 1 210 0
 2220 0d58 00F58071 		add	r1, r0, #256
 2221 0d5c C91A     		subs	r1, r1, r3
 216:E:\NeuOrga\Programmieren\c_cpp\github_os\input\src\os_base\os_common.c ****    }
 2222              		.loc 1 216 0
 2223 0d5e 0C46     		mov	r4, r1
 2224 0d60 2A99     		ldr	r1, [sp, #168]
 2225 0d62 8C46     		mov	ip, r1
 2226 0d64 0299     		ldr	r1, [sp, #8]
 206:E:\NeuOrga\Programmieren\c_cpp\github_os\input\src\os_base\os_common.c ****       }
 2227              		.loc 1 206 0
 2228 0d66 C31A     		subs	r3, r0, r3
 216:E:\NeuOrga\Programmieren\c_cpp\github_os\input\src\os_base\os_common.c ****    }
 2229              		.loc 1 216 0
 2230 0d68 8C45     		cmp	ip, r1
 2231 0d6a 28BF     		it	cs
 2232 0d6c 1C46     		movcs	r4, r3
 210:E:\NeuOrga\Programmieren\c_cpp\github_os\input\src\os_base\os_common.c ****       }
 2233              		.loc 1 210 0
 2234 0d6e 0899     		ldr	r1, [sp, #32]
 2235 0d70 3198     		ldr	r0, [sp, #196]
 216:E:\NeuOrga\Programmieren\c_cpp\github_os\input\src\os_base\os_common.c ****    }
 2236              		.loc 1 216 0
 2237 0d72 3194     		str	r4, [sp, #196]
 210:E:\NeuOrga\Programmieren\c_cpp\github_os\input\src\os_base\os_common.c ****       }
 2238              		.loc 1 210 0
 2239 0d74 01F58071 		add	r1, r1, #256
 2240 0d78 B4B2     		uxth	r4, r6
 2241 0d7a A1EB040C 		sub	ip, r1, r4
 206:E:\NeuOrga\Programmieren\c_cpp\github_os\input\src\os_base\os_common.c ****       }
 2242              		.loc 1 206 0
 2243 0d7e 0899     		ldr	r1, [sp, #32]
 210:E:\NeuOrga\Programmieren\c_cpp\github_os\input\src\os_base\os_common.c ****       }
 2244              		.loc 1 210 0
 2245 0d80 00F58072 		add	r2, r0, #256
 2246 0d84 ABB2     		uxth	r3, r5
 2247 0d86 D21A     		subs	r2, r2, r3
 206:E:\NeuOrga\Programmieren\c_cpp\github_os\input\src\os_base\os_common.c ****       }
 2248              		.loc 1 206 0
 2249 0d88 091B     		subs	r1, r1, r4
 2250 0d8a C31A     		subs	r3, r0, r3
 2251 0d8c 2A93     		str	r3, [sp, #168]
 2252 0d8e 2B91     		str	r1, [sp, #172]
 210:E:\NeuOrga\Programmieren\c_cpp\github_os\input\src\os_base\os_common.c ****       }
 2253              		.loc 1 210 0
ARM GAS  C:\Users\PRESID~1\AppData\Local\Temp\ccgd5bvc.s 			page 52


 2254 0d90 0998     		ldr	r0, [sp, #36]
 216:E:\NeuOrga\Programmieren\c_cpp\github_os\input\src\os_base\os_common.c ****    }
 2255              		.loc 1 216 0
 2256 0d92 2899     		ldr	r1, [sp, #160]
 210:E:\NeuOrga\Programmieren\c_cpp\github_os\input\src\os_base\os_common.c ****       }
 2257              		.loc 1 210 0
 2258 0d94 00F58074 		add	r4, r0, #256
 2259 0d98 2346     		mov	r3, r4
 216:E:\NeuOrga\Programmieren\c_cpp\github_os\input\src\os_base\os_common.c ****    }
 2260              		.loc 1 216 0
 2261 0d9a 1446     		mov	r4, r2
 2262 0d9c 2A9A     		ldr	r2, [sp, #168]
 2263 0d9e A942     		cmp	r1, r5
 2264 0da0 28BF     		it	cs
 2265 0da2 1446     		movcs	r4, r2
 210:E:\NeuOrga\Programmieren\c_cpp\github_os\input\src\os_base\os_common.c ****       }
 2266              		.loc 1 210 0
 2267 0da4 B9B2     		uxth	r1, r7
 2268 0da6 5B1A     		subs	r3, r3, r1
 206:E:\NeuOrga\Programmieren\c_cpp\github_os\input\src\os_base\os_common.c ****       }
 2269              		.loc 1 206 0
 2270 0da8 411A     		subs	r1, r0, r1
 216:E:\NeuOrga\Programmieren\c_cpp\github_os\input\src\os_base\os_common.c ****    }
 2271              		.loc 1 216 0
 2272 0daa 2B98     		ldr	r0, [sp, #172]
 2273 0dac 0894     		str	r4, [sp, #32]
 2274 0dae 0446     		mov	r4, r0
 2275 0db0 2798     		ldr	r0, [sp, #156]
 210:E:\NeuOrga\Programmieren\c_cpp\github_os\input\src\os_base\os_common.c ****       }
 2276              		.loc 1 210 0
 2277 0db2 BDF80020 		ldrh	r2, [sp]
 2278 0db6 0993     		str	r3, [sp, #36]
 216:E:\NeuOrga\Programmieren\c_cpp\github_os\input\src\os_base\os_common.c ****    }
 2279              		.loc 1 216 0
 2280 0db8 B042     		cmp	r0, r6
 2281 0dba 38BF     		it	cc
 2282 0dbc 6446     		movcc	r4, ip
 210:E:\NeuOrga\Programmieren\c_cpp\github_os\input\src\os_base\os_common.c ****       }
 2283              		.loc 1 210 0
 2284 0dbe 4198     		ldr	r0, [sp, #260]
 2285 0dc0 BDF80430 		ldrh	r3, [sp, #4]
 216:E:\NeuOrga\Programmieren\c_cpp\github_os\input\src\os_base\os_common.c ****    }
 2286              		.loc 1 216 0
 2287 0dc4 3D94     		str	r4, [sp, #244]
 210:E:\NeuOrga\Programmieren\c_cpp\github_os\input\src\os_base\os_common.c ****       }
 2288              		.loc 1 210 0
 2289 0dc6 801A     		subs	r0, r0, r2
 2290 0dc8 2790     		str	r0, [sp, #156]
 206:E:\NeuOrga\Programmieren\c_cpp\github_os\input\src\os_base\os_common.c ****       }
 2291              		.loc 1 206 0
 2292 0dca 4098     		ldr	r0, [sp, #256]
 2293 0dcc 821A     		subs	r2, r0, r2
 210:E:\NeuOrga\Programmieren\c_cpp\github_os\input\src\os_base\os_common.c ****       }
 2294              		.loc 1 210 0
 2295 0dce 4398     		ldr	r0, [sp, #268]
 2296 0dd0 A0EB030C 		sub	ip, r0, r3
 206:E:\NeuOrga\Programmieren\c_cpp\github_os\input\src\os_base\os_common.c ****       }
ARM GAS  C:\Users\PRESID~1\AppData\Local\Temp\ccgd5bvc.s 			page 53


 2297              		.loc 1 206 0
 2298 0dd4 4298     		ldr	r0, [sp, #264]
 2299 0dd6 C31A     		subs	r3, r0, r3
 216:E:\NeuOrga\Programmieren\c_cpp\github_os\input\src\os_base\os_common.c ****    }
 2300              		.loc 1 216 0
 2301 0dd8 0998     		ldr	r0, [sp, #36]
 2302 0dda 0446     		mov	r4, r0
 2303 0ddc 2698     		ldr	r0, [sp, #152]
 2304 0dde B842     		cmp	r0, r7
 2305 0de0 28BF     		it	cs
 2306 0de2 0C46     		movcs	r4, r1
 2307 0de4 2799     		ldr	r1, [sp, #156]
 2308 0de6 0098     		ldr	r0, [sp]
 2309 0de8 3E94     		str	r4, [sp, #248]
 2310 0dea 0C46     		mov	r4, r1
 2311 0dec 3799     		ldr	r1, [sp, #220]
 2312 0dee 8842     		cmp	r0, r1
 2313 0df0 88BF     		it	hi
 2314 0df2 2246     		movhi	r2, r4
 2315 0df4 2399     		ldr	r1, [sp, #140]
 2316 0df6 3998     		ldr	r0, [sp, #228]
 2317 0df8 0C46     		mov	r4, r1
 2318 0dfa 0199     		ldr	r1, [sp, #4]
 2319 0dfc 8C42     		cmp	r4, r1
 2320 0dfe 28BF     		it	cs
 2321 0e00 9C46     		movcs	ip, r3
 2322 0e02 00F0FF04 		and	r4, r0, #255
 2323 0e06 3B98     		ldr	r0, [sp, #236]
 2324 0e08 0994     		str	r4, [sp, #36]
 2325 0e0a 00F0FF04 		and	r4, r0, #255
 2326 0e0e 3C98     		ldr	r0, [sp, #240]
 2327 0e10 2694     		str	r4, [sp, #152]
 2328 0e12 00F0FF04 		and	r4, r0, #255
 2329 0e16 CDF8FCC0 		str	ip, [sp, #252]
 2330 0e1a 3699     		ldr	r1, [sp, #216]
 2331 0e1c 2794     		str	r4, [sp, #156]
 2332 0e1e 9DF840C1 		ldrb	ip, [sp, #320]	@ zero_extendqisi2
 2333 0e22 3298     		ldr	r0, [sp, #200]
 2334 0e24 CDF8E4A0 		str	r10, [sp, #228]
 2335 0e28 00F0FF04 		and	r4, r0, #255
 2336 0e2c 3498     		ldr	r0, [sp, #208]
 2337 0e2e 2894     		str	r4, [sp, #160]
 2338 0e30 00F0FF04 		and	r4, r0, #255
 2339 0e34 3098     		ldr	r0, [sp, #192]
 2340 0e36 2A94     		str	r4, [sp, #168]
 2341 0e38 00F0FF04 		and	r4, r0, #255
 2342 0e3c 2D98     		ldr	r0, [sp, #180]
 2343 0e3e 2B94     		str	r4, [sp, #172]
 2344 0e40 00F0FF04 		and	r4, r0, #255
 2345 0e44 3598     		ldr	r0, [sp, #212]
 2346 0e46 2C94     		str	r4, [sp, #176]
 2347 0e48 00F0FF04 		and	r4, r0, #255
 2348 0e4c 3398     		ldr	r0, [sp, #204]
 2349 0e4e 2D94     		str	r4, [sp, #180]
 2350 0e50 00F0FF04 		and	r4, r0, #255
 2351 0e54 3198     		ldr	r0, [sp, #196]
 2352 0e56 3094     		str	r4, [sp, #192]
ARM GAS  C:\Users\PRESID~1\AppData\Local\Temp\ccgd5bvc.s 			page 54


 2353 0e58 00F0FF04 		and	r4, r0, #255
 2354 0e5c 0898     		ldr	r0, [sp, #32]
 2355 0e5e 3194     		str	r4, [sp, #196]
 2356 0e60 00F0FF04 		and	r4, r0, #255
 2357 0e64 3D98     		ldr	r0, [sp, #244]
 2358 0e66 3294     		str	r4, [sp, #200]
 2359 0e68 00F0FF04 		and	r4, r0, #255
 2360 0e6c 3E98     		ldr	r0, [sp, #248]
 2361 0e6e DDF864A0 		ldr	r10, [sp, #100]
 2362 0e72 3394     		str	r4, [sp, #204]
 2363 0e74 00F0FF00 		and	r0, r0, #255
 2364 0e78 3490     		str	r0, [sp, #208]
 2365 0e7a 02F0FF00 		and	r0, r2, #255
 2366 0e7e 3F9A     		ldr	r2, [sp, #252]
 2367 0e80 3590     		str	r0, [sp, #212]
 2368 0e82 0023     		movs	r3, #0
 2369 0e84 01F0FF01 		and	r1, r1, #255
 2370 0e88 02F0FF02 		and	r2, r2, #255
 2371 0e8c 3692     		str	r2, [sp, #216]
 2372 0e8e CDF864B0 		str	fp, [sp, #100]
 2373 0e92 1A46     		mov	r2, r3
 2374 0e94 8B46     		mov	fp, r1
 2375 0e96 1846     		mov	r0, r3
 2376 0e98 1399     		ldr	r1, [sp, #76]
 2377 0e9a 149B     		ldr	r3, [sp, #80]
 2378 0e9c CDF84CE0 		str	lr, [sp, #76]
 2379 0ea0 0895     		str	r5, [sp, #32]
 2380 0ea2 B7E0     		b	.L81
 2381              	.LVL209:
 2382              	.L61:
 2383              	.LBE240:
 2384              	.LBE244:
 2385              	.LBE287:
 2386              	.LBB288:
 2387              	.LBB289:
 2388              	.LBB290:
 225:E:\NeuOrga\Programmieren\c_cpp\github_os\input\src\os_base\os_common.c ****       {
 2389              		.loc 1 225 0
 2390 0ea4 009C     		ldr	r4, [sp]
 2391 0ea6 A245     		cmp	r10, r4
 2392 0ea8 C0F09780 		bcc	.L60
 230:E:\NeuOrga\Programmieren\c_cpp\github_os\input\src\os_base\os_common.c ****       {
 2393              		.loc 1 230 0
 2394 0eac 00F24E81 		bhi	.L188
 2395              	.LVL210:
 225:E:\NeuOrga\Programmieren\c_cpp\github_os\input\src\os_base\os_common.c ****       {
 2396              		.loc 1 225 0
 2397 0eb0 129C     		ldr	r4, [sp, #72]
 2398 0eb2 BC42     		cmp	r4, r7
 2399 0eb4 C0F09180 		bcc	.L60
 230:E:\NeuOrga\Programmieren\c_cpp\github_os\input\src\os_base\os_common.c ****       {
 2400              		.loc 1 230 0
 2401 0eb8 45D8     		bhi	.L64
 2402              	.LVL211:
 225:E:\NeuOrga\Programmieren\c_cpp\github_os\input\src\os_base\os_common.c ****       {
 2403              		.loc 1 225 0
 2404 0eba B342     		cmp	r3, r6
ARM GAS  C:\Users\PRESID~1\AppData\Local\Temp\ccgd5bvc.s 			page 55


 2405 0ebc C0F08D80 		bcc	.L60
 230:E:\NeuOrga\Programmieren\c_cpp\github_os\input\src\os_base\os_common.c ****       {
 2406              		.loc 1 230 0
 2407 0ec0 41D8     		bhi	.L64
 2408              	.LVL212:
 225:E:\NeuOrga\Programmieren\c_cpp\github_os\input\src\os_base\os_common.c ****       {
 2409              		.loc 1 225 0
 2410 0ec2 089C     		ldr	r4, [sp, #32]
 2411 0ec4 A142     		cmp	r1, r4
 2412 0ec6 C0F08880 		bcc	.L60
 230:E:\NeuOrga\Programmieren\c_cpp\github_os\input\src\os_base\os_common.c ****       {
 2413              		.loc 1 230 0
 2414 0eca 3CD8     		bhi	.L64
 2415              	.LVL213:
 225:E:\NeuOrga\Programmieren\c_cpp\github_os\input\src\os_base\os_common.c ****       {
 2416              		.loc 1 225 0
 2417 0ecc 1E9C     		ldr	r4, [sp, #120]
 2418 0ece A646     		mov	lr, r4
 2419 0ed0 029C     		ldr	r4, [sp, #8]
 2420 0ed2 A645     		cmp	lr, r4
 2421 0ed4 C0F08180 		bcc	.L60
 230:E:\NeuOrga\Programmieren\c_cpp\github_os\input\src\os_base\os_common.c ****       {
 2422              		.loc 1 230 0
 2423 0ed8 35D8     		bhi	.L64
 2424              	.LVL214:
 225:E:\NeuOrga\Programmieren\c_cpp\github_os\input\src\os_base\os_common.c ****       {
 2425              		.loc 1 225 0
 2426 0eda 1D9C     		ldr	r4, [sp, #116]
 2427 0edc 4C45     		cmp	r4, r9
 2428 0ede 7CD3     		bcc	.L60
 230:E:\NeuOrga\Programmieren\c_cpp\github_os\input\src\os_base\os_common.c ****       {
 2429              		.loc 1 230 0
 2430 0ee0 31D8     		bhi	.L64
 2431              	.LVL215:
 225:E:\NeuOrga\Programmieren\c_cpp\github_os\input\src\os_base\os_common.c ****       {
 2432              		.loc 1 225 0
 2433 0ee2 119C     		ldr	r4, [sp, #68]
 2434 0ee4 4445     		cmp	r4, r8
 2435 0ee6 78D3     		bcc	.L60
 230:E:\NeuOrga\Programmieren\c_cpp\github_os\input\src\os_base\os_common.c ****       {
 2436              		.loc 1 230 0
 2437 0ee8 2DD8     		bhi	.L64
 2438              	.LVL216:
 225:E:\NeuOrga\Programmieren\c_cpp\github_os\input\src\os_base\os_common.c ****       {
 2439              		.loc 1 225 0
 2440 0eea 0F9C     		ldr	r4, [sp, #60]
 2441 0eec 139D     		ldr	r5, [sp, #76]
 2442 0eee AC42     		cmp	r4, r5
 2443 0ef0 73D3     		bcc	.L60
 230:E:\NeuOrga\Programmieren\c_cpp\github_os\input\src\os_base\os_common.c ****       {
 2444              		.loc 1 230 0
 2445 0ef2 28D8     		bhi	.L64
 2446              	.LVL217:
 225:E:\NeuOrga\Programmieren\c_cpp\github_os\input\src\os_base\os_common.c ****       {
 2447              		.loc 1 225 0
 2448 0ef4 109C     		ldr	r4, [sp, #64]
 2449 0ef6 A646     		mov	lr, r4
ARM GAS  C:\Users\PRESID~1\AppData\Local\Temp\ccgd5bvc.s 			page 56


 2450 0ef8 049C     		ldr	r4, [sp, #16]
 2451 0efa A645     		cmp	lr, r4
 2452 0efc 6DD3     		bcc	.L60
 230:E:\NeuOrga\Programmieren\c_cpp\github_os\input\src\os_base\os_common.c ****       {
 2453              		.loc 1 230 0
 2454 0efe 22D8     		bhi	.L64
 2455              	.LVL218:
 225:E:\NeuOrga\Programmieren\c_cpp\github_os\input\src\os_base\os_common.c ****       {
 2456              		.loc 1 225 0
 2457 0f00 0E9C     		ldr	r4, [sp, #56]
 2458 0f02 A646     		mov	lr, r4
 2459 0f04 039C     		ldr	r4, [sp, #12]
 2460 0f06 A645     		cmp	lr, r4
 2461 0f08 67D3     		bcc	.L60
 230:E:\NeuOrga\Programmieren\c_cpp\github_os\input\src\os_base\os_common.c ****       {
 2462              		.loc 1 230 0
 2463 0f0a 1CD8     		bhi	.L64
 2464              	.LVL219:
 225:E:\NeuOrga\Programmieren\c_cpp\github_os\input\src\os_base\os_common.c ****       {
 2465              		.loc 1 225 0
 2466 0f0c 0D9C     		ldr	r4, [sp, #52]
 2467 0f0e A646     		mov	lr, r4
 2468 0f10 079C     		ldr	r4, [sp, #28]
 2469 0f12 A645     		cmp	lr, r4
 2470 0f14 61D3     		bcc	.L60
 230:E:\NeuOrga\Programmieren\c_cpp\github_os\input\src\os_base\os_common.c ****       {
 2471              		.loc 1 230 0
 2472 0f16 16D8     		bhi	.L64
 2473              	.LVL220:
 225:E:\NeuOrga\Programmieren\c_cpp\github_os\input\src\os_base\os_common.c ****       {
 2474              		.loc 1 225 0
 2475 0f18 1A9C     		ldr	r4, [sp, #104]
 2476 0f1a A646     		mov	lr, r4
 2477 0f1c 069C     		ldr	r4, [sp, #24]
 2478 0f1e A645     		cmp	lr, r4
 2479 0f20 5BD3     		bcc	.L60
 230:E:\NeuOrga\Programmieren\c_cpp\github_os\input\src\os_base\os_common.c ****       {
 2480              		.loc 1 230 0
 2481 0f22 10D8     		bhi	.L64
 2482              	.LVL221:
 225:E:\NeuOrga\Programmieren\c_cpp\github_os\input\src\os_base\os_common.c ****       {
 2483              		.loc 1 225 0
 2484 0f24 0C9C     		ldr	r4, [sp, #48]
 2485 0f26 A646     		mov	lr, r4
 2486 0f28 059C     		ldr	r4, [sp, #20]
 2487 0f2a A645     		cmp	lr, r4
 2488 0f2c 55D3     		bcc	.L60
 230:E:\NeuOrga\Programmieren\c_cpp\github_os\input\src\os_base\os_common.c ****       {
 2489              		.loc 1 230 0
 2490 0f2e 0AD8     		bhi	.L64
 2491              	.LVL222:
 225:E:\NeuOrga\Programmieren\c_cpp\github_os\input\src\os_base\os_common.c ****       {
 2492              		.loc 1 225 0
 2493 0f30 0B9C     		ldr	r4, [sp, #44]
 2494 0f32 A646     		mov	lr, r4
 2495 0f34 199C     		ldr	r4, [sp, #100]
 2496 0f36 A645     		cmp	lr, r4
ARM GAS  C:\Users\PRESID~1\AppData\Local\Temp\ccgd5bvc.s 			page 57


 2497 0f38 4FD3     		bcc	.L60
 230:E:\NeuOrga\Programmieren\c_cpp\github_os\input\src\os_base\os_common.c ****       {
 2498              		.loc 1 230 0
 2499 0f3a 04D8     		bhi	.L64
 2500              	.LVL223:
 225:E:\NeuOrga\Programmieren\c_cpp\github_os\input\src\os_base\os_common.c ****       {
 2501              		.loc 1 225 0
 2502 0f3c 0A9C     		ldr	r4, [sp, #40]
 2503 0f3e A646     		mov	lr, r4
 2504 0f40 399C     		ldr	r4, [sp, #228]
 2505 0f42 A645     		cmp	lr, r4
 2506 0f44 49D3     		bcc	.L60
 2507              	.LVL224:
 2508              	.L64:
 2509              	.LBE290:
 2510              	.LBE289:
 2511              	.LBB292:
 2512              	.LBB293:
 252:E:\NeuOrga\Programmieren\c_cpp\github_os\input\src\os_base\os_common.c ****       {
 2513              		.loc 1 252 0
 2514 0f46 019C     		ldr	r4, [sp, #4]
 2515 0f48 A445     		cmp	ip, r4
 2516 0f4a 40F0FF80 		bne	.L188
 2517              	.LVL225:
 2518 0f4e 009C     		ldr	r4, [sp]
 2519 0f50 A245     		cmp	r10, r4
 2520 0f52 40F0FB80 		bne	.L188
 2521              	.LVL226:
 2522 0f56 129C     		ldr	r4, [sp, #72]
 2523 0f58 BC42     		cmp	r4, r7
 2524 0f5a 40F0ED81 		bne	.L217
 2525              	.LVL227:
 2526 0f5e B342     		cmp	r3, r6
 2527 0f60 5DD1     		bne	.L80
 2528              	.LVL228:
 2529 0f62 089C     		ldr	r4, [sp, #32]
 2530 0f64 A142     		cmp	r1, r4
 2531 0f66 5AD1     		bne	.L80
 2532              	.LVL229:
 2533 0f68 1E9C     		ldr	r4, [sp, #120]
 2534 0f6a A646     		mov	lr, r4
 2535 0f6c 029C     		ldr	r4, [sp, #8]
 2536 0f6e A645     		cmp	lr, r4
 2537 0f70 40F0C881 		bne	.L218
 2538              	.LVL230:
 2539 0f74 1D9C     		ldr	r4, [sp, #116]
 2540 0f76 4C45     		cmp	r4, r9
 2541 0f78 51D1     		bne	.L80
 2542              	.LVL231:
 2543 0f7a 119C     		ldr	r4, [sp, #68]
 2544 0f7c 4445     		cmp	r4, r8
 2545 0f7e 4ED1     		bne	.L80
 2546              	.LVL232:
 2547 0f80 0F9C     		ldr	r4, [sp, #60]
 2548 0f82 139D     		ldr	r5, [sp, #76]
 2549 0f84 AC42     		cmp	r4, r5
 2550 0f86 4AD1     		bne	.L80
ARM GAS  C:\Users\PRESID~1\AppData\Local\Temp\ccgd5bvc.s 			page 58


 2551              	.LVL233:
 2552 0f88 109C     		ldr	r4, [sp, #64]
 2553 0f8a A646     		mov	lr, r4
 2554 0f8c 049C     		ldr	r4, [sp, #16]
 2555 0f8e A645     		cmp	lr, r4
 2556 0f90 40F09281 		bne	.L219
 2557              	.LVL234:
 2558 0f94 0E9C     		ldr	r4, [sp, #56]
 2559 0f96 A646     		mov	lr, r4
 2560 0f98 039C     		ldr	r4, [sp, #12]
 2561 0f9a A645     		cmp	lr, r4
 2562 0f9c 40F07B81 		bne	.L220
 2563              	.LVL235:
 2564 0fa0 0D9C     		ldr	r4, [sp, #52]
 2565 0fa2 A646     		mov	lr, r4
 2566 0fa4 079C     		ldr	r4, [sp, #28]
 2567 0fa6 A645     		cmp	lr, r4
 2568 0fa8 40F0F980 		bne	.L221
 2569              	.LVL236:
 2570 0fac 1A9C     		ldr	r4, [sp, #104]
 2571 0fae A646     		mov	lr, r4
 2572 0fb0 069C     		ldr	r4, [sp, #24]
 2573 0fb2 A645     		cmp	lr, r4
 2574 0fb4 40F0C283 		bne	.L222
 2575              	.LVL237:
 2576 0fb8 0C9C     		ldr	r4, [sp, #48]
 2577 0fba A646     		mov	lr, r4
 2578 0fbc 059C     		ldr	r4, [sp, #20]
 2579 0fbe A645     		cmp	lr, r4
 2580 0fc0 40F08D83 		bne	.L223
 2581              	.LVL238:
 2582 0fc4 0B9C     		ldr	r4, [sp, #44]
 2583 0fc6 A646     		mov	lr, r4
 2584 0fc8 199C     		ldr	r4, [sp, #100]
 2585 0fca A645     		cmp	lr, r4
 2586 0fcc 40F05683 		bne	.L224
 2587              	.LVL239:
 2588 0fd0 0A9C     		ldr	r4, [sp, #40]
 2589 0fd2 A646     		mov	lr, r4
 2590 0fd4 399C     		ldr	r4, [sp, #228]
 2591 0fd6 A645     		cmp	lr, r4
 2592 0fd8 21D1     		bne	.L80
 2593              	.LVL240:
 2594              	.L60:
 2595              	.LBE293:
 2596              	.LBE292:
 2597              	.LBE288:
 2598              	.LBB295:
 2599              	.LBB245:
 2600              	.LBB241:
 216:E:\NeuOrga\Programmieren\c_cpp\github_os\input\src\os_base\os_common.c ****    }
 2601              		.loc 1 216 0
 2602 0fda 319C     		ldr	r4, [sp, #196]
 2603 0fdc 1E94     		str	r4, [sp, #120]
 2604 0fde 309C     		ldr	r4, [sp, #192]
 2605 0fe0 1D94     		str	r4, [sp, #116]
 2606 0fe2 2D9C     		ldr	r4, [sp, #180]
ARM GAS  C:\Users\PRESID~1\AppData\Local\Temp\ccgd5bvc.s 			page 59


 2607 0fe4 1194     		str	r4, [sp, #68]
 2608 0fe6 2C9C     		ldr	r4, [sp, #176]
 2609 0fe8 0F94     		str	r4, [sp, #60]
 2610 0fea 2B9C     		ldr	r4, [sp, #172]
 2611 0fec 1094     		str	r4, [sp, #64]
 2612 0fee 289C     		ldr	r4, [sp, #160]
 2613 0ff0 0D94     		str	r4, [sp, #52]
 2614 0ff2 279C     		ldr	r4, [sp, #156]
 2615 0ff4 1A94     		str	r4, [sp, #104]
 2616 0ff6 269C     		ldr	r4, [sp, #152]
 2617 0ff8 2A9B     		ldr	r3, [sp, #168]
 2618 0ffa 0C94     		str	r4, [sp, #48]
 2619 0ffc 099C     		ldr	r4, [sp, #36]
 2620 0ffe 0E93     		str	r3, [sp, #56]
 2621 1000 349B     		ldr	r3, [sp, #208]
 2622 1002 1293     		str	r3, [sp, #72]
 2623 1004 DDE935AC 		ldrd	r10, ip, [sp, #212]
 2624 1008 DDE93213 		ldrd	r1, r3, [sp, #200]
 2625 100c CDE90AB4 		strd	fp, r4, [sp, #40]
 2626              	.LBE241:
 2627              	.LBE245:
 2628              	.LBE295:
 119:E:\NeuOrga\Programmieren\c_cpp\github_os\input\src\os_base\os_common.c ****       }
 2629              		.loc 1 119 0
 2630 1010 0132     		adds	r2, r2, #1
 2631              	.LVL241:
 2632 1012 0120     		movs	r0, #1
 2633              	.LVL242:
 2634              	.L81:
 2635              	.LBB296:
 2636              	.LBB294:
 2637              	.LBB291:
 225:E:\NeuOrga\Programmieren\c_cpp\github_os\input\src\os_base\os_common.c ****       {
 2638              		.loc 1 225 0
 2639 1014 019C     		ldr	r4, [sp, #4]
 2640 1016 A445     		cmp	ip, r4
 2641 1018 DFD3     		bcc	.L60
 230:E:\NeuOrga\Programmieren\c_cpp\github_os\input\src\os_base\os_common.c ****       {
 2642              		.loc 1 230 0
 2643 101a 7FF643AF 		bls	.L61
 2644              	.LVL243:
 2645              	.L80:
 2646 101e CDF864A0 		str	r10, [sp, #100]
 2647 1022 1493     		str	r3, [sp, #80]
 2648 1024 1391     		str	r1, [sp, #76]
 2649 1026 0028     		cmp	r0, #0
 2650 1028 40F02683 		bne	.L225
 2651              	.L62:
 2652              	.LVL244:
 2653              	.LBE291:
 2654              	.LBE294:
 2655              	.LBE296:
 123:E:\NeuOrga\Programmieren\c_cpp\github_os\input\src\os_base\os_common.c **** 
 2656              		.loc 1 123 0
 2657 102c 389B     		ldr	r3, [sp, #224]
 2658              	.LBB297:
 2659              	.LBB298:
ARM GAS  C:\Users\PRESID~1\AppData\Local\Temp\ccgd5bvc.s 			page 60


 2660              	.LBB299:
 191:E:\NeuOrga\Programmieren\c_cpp\github_os\input\src\os_base\os_common.c ****       Summe->number[pos] = tmp_sum & 0xFFu;
 2661              		.loc 1 191 0
 2662 102e 1799     		ldr	r1, [sp, #92]
 192:E:\NeuOrga\Programmieren\c_cpp\github_os\input\src\os_base\os_common.c ****       carry = tmp_sum & 0xFF00u;
 2663              		.loc 1 192 0
 2664 1030 8DF850C1 		strb	ip, [sp, #336]
 2665              	.LBE299:
 2666              	.LBE298:
 2667              	.LBE297:
 123:E:\NeuOrga\Programmieren\c_cpp\github_os\input\src\os_base\os_common.c **** 
 2668              		.loc 1 123 0
 2669 1034 02FA03F3 		lsl	r3, r2, r3
 2670              	.LVL245:
 2671              	.LBB306:
 2672              	.LBB303:
 2673              	.LBB300:
 192:E:\NeuOrga\Programmieren\c_cpp\github_os\input\src\os_base\os_common.c ****       carry = tmp_sum & 0xFF00u;
 2674              		.loc 1 192 0
 2675 1038 189A     		ldr	r2, [sp, #96]
 2676              	.LVL246:
 2677 103a 52FA83F0 		uxtab	r0, r2, r3
 191:E:\NeuOrga\Programmieren\c_cpp\github_os\input\src\os_base\os_common.c ****       Summe->number[pos] = tmp_sum & 0xFFu;
 2678              		.loc 1 191 0
 2679 103e C3F34702 		ubfx	r2, r3, #1, #8
 2680 1042 0A44     		add	r2, r2, r1
 193:E:\NeuOrga\Programmieren\c_cpp\github_os\input\src\os_base\os_common.c ****    }
 2681              		.loc 1 193 0
 2682 1044 20F0FF01 		bic	r1, r0, #255
 191:E:\NeuOrga\Programmieren\c_cpp\github_os\input\src\os_base\os_common.c ****       Summe->number[pos] = tmp_sum & 0xFFu;
 2683              		.loc 1 191 0
 2684 1048 0A44     		add	r2, r2, r1
 2685 104a 94B2     		uxth	r4, r2
 2686 104c 169A     		ldr	r2, [sp, #88]
 192:E:\NeuOrga\Programmieren\c_cpp\github_os\input\src\os_base\os_common.c ****       carry = tmp_sum & 0xFF00u;
 2687              		.loc 1 192 0
 2688 104e 8DF85F01 		strb	r0, [sp, #351]
 191:E:\NeuOrga\Programmieren\c_cpp\github_os\input\src\os_base\os_common.c ****       Summe->number[pos] = tmp_sum & 0xFFu;
 2689              		.loc 1 191 0
 2690 1052 C3F38701 		ubfx	r1, r3, #2, #8
 2691 1056 1144     		add	r1, r1, r2
 193:E:\NeuOrga\Programmieren\c_cpp\github_os\input\src\os_base\os_common.c ****    }
 2692              		.loc 1 193 0
 2693 1058 04F47F42 		and	r2, r4, #65280
 191:E:\NeuOrga\Programmieren\c_cpp\github_os\input\src\os_base\os_common.c ****       Summe->number[pos] = tmp_sum & 0xFFu;
 2694              		.loc 1 191 0
 2695 105c 0A44     		add	r2, r2, r1
 2696 105e 91B2     		uxth	r1, r2
 2697 1060 159A     		ldr	r2, [sp, #84]
 193:E:\NeuOrga\Programmieren\c_cpp\github_os\input\src\os_base\os_common.c ****    }
 2698              		.loc 1 193 0
 2699 1062 0091     		str	r1, [sp]
 191:E:\NeuOrga\Programmieren\c_cpp\github_os\input\src\os_base\os_common.c ****       Summe->number[pos] = tmp_sum & 0xFFu;
 2700              		.loc 1 191 0
 2701 1064 C3F3C703 		ubfx	r3, r3, #3, #8
 2702              	.LVL247:
 2703 1068 1344     		add	r3, r3, r2
ARM GAS  C:\Users\PRESID~1\AppData\Local\Temp\ccgd5bvc.s 			page 61


 193:E:\NeuOrga\Programmieren\c_cpp\github_os\input\src\os_base\os_common.c ****    }
 2704              		.loc 1 193 0
 2705 106a 01F47F42 		and	r2, r1, #65280
 191:E:\NeuOrga\Programmieren\c_cpp\github_os\input\src\os_base\os_common.c ****       Summe->number[pos] = tmp_sum & 0xFFu;
 2706              		.loc 1 191 0
 2707 106e 1344     		add	r3, r3, r2
 2708 1070 9AB2     		uxth	r2, r3
 2709 1072 1B99     		ldr	r1, [sp, #108]
 192:E:\NeuOrga\Programmieren\c_cpp\github_os\input\src\os_base\os_common.c ****       carry = tmp_sum & 0xFF00u;
 2710              		.loc 1 192 0
 2711 1074 8DF85C21 		strb	r2, [sp, #348]
 193:E:\NeuOrga\Programmieren\c_cpp\github_os\input\src\os_base\os_common.c ****    }
 2712              		.loc 1 193 0
 2713 1078 02F47F43 		and	r3, r2, #65280
 191:E:\NeuOrga\Programmieren\c_cpp\github_os\input\src\os_base\os_common.c ****       Summe->number[pos] = tmp_sum & 0xFFu;
 2714              		.loc 1 191 0
 2715 107c 0B44     		add	r3, r3, r1
 2716 107e 9DB2     		uxth	r5, r3
 2717 1080 1C99     		ldr	r1, [sp, #112]
 192:E:\NeuOrga\Programmieren\c_cpp\github_os\input\src\os_base\os_common.c ****       carry = tmp_sum & 0xFF00u;
 2718              		.loc 1 192 0
 2719 1082 8DF85E41 		strb	r4, [sp, #350]
 193:E:\NeuOrga\Programmieren\c_cpp\github_os\input\src\os_base\os_common.c ****    }
 2720              		.loc 1 193 0
 2721 1086 05F47F43 		and	r3, r5, #65280
 191:E:\NeuOrga\Programmieren\c_cpp\github_os\input\src\os_base\os_common.c ****       Summe->number[pos] = tmp_sum & 0xFFu;
 2722              		.loc 1 191 0
 2723 108a 0B44     		add	r3, r3, r1
 2724 108c 9EB2     		uxth	r6, r3
 2725 108e 1F99     		ldr	r1, [sp, #124]
 192:E:\NeuOrga\Programmieren\c_cpp\github_os\input\src\os_base\os_common.c ****       carry = tmp_sum & 0xFF00u;
 2726              		.loc 1 192 0
 2727 1090 8DF85B51 		strb	r5, [sp, #347]
 193:E:\NeuOrga\Programmieren\c_cpp\github_os\input\src\os_base\os_common.c ****    }
 2728              		.loc 1 193 0
 2729 1094 06F47F43 		and	r3, r6, #65280
 191:E:\NeuOrga\Programmieren\c_cpp\github_os\input\src\os_base\os_common.c ****       Summe->number[pos] = tmp_sum & 0xFFu;
 2730              		.loc 1 191 0
 2731 1098 0B44     		add	r3, r3, r1
 2732 109a 9FB2     		uxth	r7, r3
 2733 109c 2199     		ldr	r1, [sp, #132]
 192:E:\NeuOrga\Programmieren\c_cpp\github_os\input\src\os_base\os_common.c ****       carry = tmp_sum & 0xFF00u;
 2734              		.loc 1 192 0
 2735 109e 8DF85A61 		strb	r6, [sp, #346]
 193:E:\NeuOrga\Programmieren\c_cpp\github_os\input\src\os_base\os_common.c ****    }
 2736              		.loc 1 193 0
 2737 10a2 07F47F43 		and	r3, r7, #65280
 191:E:\NeuOrga\Programmieren\c_cpp\github_os\input\src\os_base\os_common.c ****       Summe->number[pos] = tmp_sum & 0xFFu;
 2738              		.loc 1 191 0
 2739 10a6 0B44     		add	r3, r3, r1
 2740 10a8 1FFA83FE 		uxth	lr, r3
 2741 10ac 2099     		ldr	r1, [sp, #128]
 192:E:\NeuOrga\Programmieren\c_cpp\github_os\input\src\os_base\os_common.c ****       carry = tmp_sum & 0xFF00u;
 2742              		.loc 1 192 0
 2743 10ae 8DF85971 		strb	r7, [sp, #345]
 193:E:\NeuOrga\Programmieren\c_cpp\github_os\input\src\os_base\os_common.c ****    }
 2744              		.loc 1 193 0
ARM GAS  C:\Users\PRESID~1\AppData\Local\Temp\ccgd5bvc.s 			page 62


 2745 10b2 0EF47F43 		and	r3, lr, #65280
 191:E:\NeuOrga\Programmieren\c_cpp\github_os\input\src\os_base\os_common.c ****       Summe->number[pos] = tmp_sum & 0xFFu;
 2746              		.loc 1 191 0
 2747 10b6 0B44     		add	r3, r3, r1
 2748 10b8 1FFA83F8 		uxth	r8, r3
 2749 10bc 2299     		ldr	r1, [sp, #136]
 192:E:\NeuOrga\Programmieren\c_cpp\github_os\input\src\os_base\os_common.c ****       carry = tmp_sum & 0xFF00u;
 2750              		.loc 1 192 0
 2751 10be 8DF858E1 		strb	lr, [sp, #344]
 193:E:\NeuOrga\Programmieren\c_cpp\github_os\input\src\os_base\os_common.c ****    }
 2752              		.loc 1 193 0
 2753 10c2 08F47F43 		and	r3, r8, #65280
 191:E:\NeuOrga\Programmieren\c_cpp\github_os\input\src\os_base\os_common.c ****       Summe->number[pos] = tmp_sum & 0xFFu;
 2754              		.loc 1 191 0
 2755 10c6 0B44     		add	r3, r3, r1
 2756 10c8 1FFA83F9 		uxth	r9, r3
 2757 10cc 2499     		ldr	r1, [sp, #144]
 192:E:\NeuOrga\Programmieren\c_cpp\github_os\input\src\os_base\os_common.c ****       carry = tmp_sum & 0xFF00u;
 2758              		.loc 1 192 0
 2759 10ce 8DF85781 		strb	r8, [sp, #343]
 193:E:\NeuOrga\Programmieren\c_cpp\github_os\input\src\os_base\os_common.c ****    }
 2760              		.loc 1 193 0
 2761 10d2 09F47F43 		and	r3, r9, #65280
 191:E:\NeuOrga\Programmieren\c_cpp\github_os\input\src\os_base\os_common.c ****       Summe->number[pos] = tmp_sum & 0xFFu;
 2762              		.loc 1 191 0
 2763 10d6 0B44     		add	r3, r3, r1
 2764 10d8 1FFA83FA 		uxth	r10, r3
 2765 10dc 2599     		ldr	r1, [sp, #148]
 192:E:\NeuOrga\Programmieren\c_cpp\github_os\input\src\os_base\os_common.c ****       carry = tmp_sum & 0xFF00u;
 2766              		.loc 1 192 0
 2767 10de 8DF85691 		strb	r9, [sp, #342]
 193:E:\NeuOrga\Programmieren\c_cpp\github_os\input\src\os_base\os_common.c ****    }
 2768              		.loc 1 193 0
 2769 10e2 0AF47F43 		and	r3, r10, #65280
 191:E:\NeuOrga\Programmieren\c_cpp\github_os\input\src\os_base\os_common.c ****       Summe->number[pos] = tmp_sum & 0xFFu;
 2770              		.loc 1 191 0
 2771 10e6 0B44     		add	r3, r3, r1
 2772 10e8 1FFA83FB 		uxth	fp, r3
 2773 10ec 2999     		ldr	r1, [sp, #164]
 192:E:\NeuOrga\Programmieren\c_cpp\github_os\input\src\os_base\os_common.c ****       carry = tmp_sum & 0xFF00u;
 2774              		.loc 1 192 0
 2775 10ee 8DF855A1 		strb	r10, [sp, #341]
 193:E:\NeuOrga\Programmieren\c_cpp\github_os\input\src\os_base\os_common.c ****    }
 2776              		.loc 1 193 0
 2777 10f2 0BF47F43 		and	r3, fp, #65280
 191:E:\NeuOrga\Programmieren\c_cpp\github_os\input\src\os_base\os_common.c ****       Summe->number[pos] = tmp_sum & 0xFFu;
 2778              		.loc 1 191 0
 2779 10f6 0B44     		add	r3, r3, r1
 2780 10f8 9BB2     		uxth	r3, r3
 2781 10fa 2F99     		ldr	r1, [sp, #188]
 193:E:\NeuOrga\Programmieren\c_cpp\github_os\input\src\os_base\os_common.c ****    }
 2782              		.loc 1 193 0
 2783 10fc 0193     		str	r3, [sp, #4]
 2784 10fe 03F47F43 		and	r3, r3, #65280
 191:E:\NeuOrga\Programmieren\c_cpp\github_os\input\src\os_base\os_common.c ****       Summe->number[pos] = tmp_sum & 0xFFu;
 2785              		.loc 1 191 0
 2786 1102 0B44     		add	r3, r3, r1
ARM GAS  C:\Users\PRESID~1\AppData\Local\Temp\ccgd5bvc.s 			page 63


 2787 1104 99B2     		uxth	r1, r3
 193:E:\NeuOrga\Programmieren\c_cpp\github_os\input\src\os_base\os_common.c ****    }
 2788              		.loc 1 193 0
 2789 1106 0291     		str	r1, [sp, #8]
 2790 1108 01F47F43 		and	r3, r1, #65280
 2791              	.LVL248:
 191:E:\NeuOrga\Programmieren\c_cpp\github_os\input\src\os_base\os_common.c ****       Summe->number[pos] = tmp_sum & 0xFFu;
 2792              		.loc 1 191 0
 2793 110c 2E99     		ldr	r1, [sp, #184]
 2794 110e 0B44     		add	r3, r3, r1
 2795 1110 9BB2     		uxth	r3, r3
 192:E:\NeuOrga\Programmieren\c_cpp\github_os\input\src\os_base\os_common.c ****       carry = tmp_sum & 0xFF00u;
 2796              		.loc 1 192 0
 2797 1112 0099     		ldr	r1, [sp]
 2798 1114 8DF85D11 		strb	r1, [sp, #349]
 2799 1118 8DF854B1 		strb	fp, [sp, #340]
 2800 111c 8DF85131 		strb	r3, [sp, #337]
 2801              	.LBE300:
 2802              	.LBE303:
 2803              	.LBE306:
 2804              	.LBB307:
 2805              	.LBB232:
 2806              	.LBB226:
 270:E:\NeuOrga\Programmieren\c_cpp\github_os\input\src\os_base\os_common.c ****       {
 2807              		.loc 1 270 0
 2808 1120 239B     		ldr	r3, [sp, #140]
 2809              	.LBE226:
 2810              	.LBE232:
 2811              	.LBE307:
 2812              	.LBB308:
 2813              	.LBB304:
 2814              	.LBB301:
 192:E:\NeuOrga\Programmieren\c_cpp\github_os\input\src\os_base\os_common.c ****       carry = tmp_sum & 0xFF00u;
 2815              		.loc 1 192 0
 2816 1122 019A     		ldr	r2, [sp, #4]
 2817 1124 8DF85321 		strb	r2, [sp, #339]
 191:E:\NeuOrga\Programmieren\c_cpp\github_os\input\src\os_base\os_common.c ****       Summe->number[pos] = tmp_sum & 0xFFu;
 2818              		.loc 1 191 0
 2819 1128 2E99     		ldr	r1, [sp, #184]
 192:E:\NeuOrga\Programmieren\c_cpp\github_os\input\src\os_base\os_common.c ****       carry = tmp_sum & 0xFF00u;
 2820              		.loc 1 192 0
 2821 112a 029A     		ldr	r2, [sp, #8]
 2822 112c 8DF85221 		strb	r2, [sp, #338]
 2823              	.LBE301:
 2824              	.LBE304:
 2825              	.LBE308:
 2826              	.LBB309:
 2827              	.LBB233:
 2828              	.LBB227:
 270:E:\NeuOrga\Programmieren\c_cpp\github_os\input\src\os_base\os_common.c ****       {
 2829              		.loc 1 270 0
 2830 1130 9C45     		cmp	ip, r3
 2831              	.LBE227:
 2832              	.LBE233:
 2833              	.LBE309:
 2834              	.LBB310:
 2835              	.LBB305:
ARM GAS  C:\Users\PRESID~1\AppData\Local\Temp\ccgd5bvc.s 			page 64


 2836              	.LBB302:
 191:E:\NeuOrga\Programmieren\c_cpp\github_os\input\src\os_base\os_common.c ****       Summe->number[pos] = tmp_sum & 0xFFu;
 2837              		.loc 1 191 0
 2838 1132 1991     		str	r1, [sp, #100]
 2839              	.LBE302:
 2840              	.LBE305:
 2841              	.LBE310:
 2842              	.LBB311:
 2843              	.LBB234:
 2844              	.LBB228:
 270:E:\NeuOrga\Programmieren\c_cpp\github_os\input\src\os_base\os_common.c ****       {
 2845              		.loc 1 270 0
 2846 1134 BFF4FAA9 		bcs	.L99
 2847              	.LVL249:
 2848              	.L82:
 2849 1138 54AC     		add	r4, sp, #336
 2850 113a 0FCC     		ldmia	r4!, {r0, r1, r2, r3}
 2851 113c 3A9C     		ldr	r4, [sp, #232]
 2852 113e 2060     		str	r0, [r4]	@ unaligned
 2853 1140 6160     		str	r1, [r4, #4]	@ unaligned
 2854 1142 A260     		str	r2, [r4, #8]	@ unaligned
 2855 1144 E360     		str	r3, [r4, #12]	@ unaligned
 2856              	.LBE228:
 2857              	.LBE234:
 2858              	.LBE311:
 133:E:\NeuOrga\Programmieren\c_cpp\github_os\input\src\os_base\os_common.c **** 
 2859              		.loc 1 133 0
 2860 1146 5DB0     		add	sp, sp, #372
 2861              		.cfi_remember_state
 2862              		.cfi_def_cfa_offset 36
 2863              		@ sp needed
 2864 1148 BDE8F08F 		pop	{r4, r5, r6, r7, r8, r9, r10, fp, pc}
 2865              	.LVL250:
 2866              	.L188:
 2867              		.cfi_restore_state
 2868 114c CDF864A0 		str	r10, [sp, #100]
 2869 1150 1493     		str	r3, [sp, #80]
 2870 1152 1391     		str	r1, [sp, #76]
 2871 1154 0028     		cmp	r0, #0
 2872 1156 3FF469AF 		beq	.L62
 2873 115a 0E99     		ldr	r1, [sp, #56]
 2874 115c 8DF84A11 		strb	r1, [sp, #330]
 2875 1160 8DF840C1 		strb	ip, [sp, #320]
 2876 1164 1999     		ldr	r1, [sp, #100]
 2877 1166 A3E0     		b	.L179
 2878              	.LVL251:
 2879              	.L202:
 2880 1168 9DF83B31 		ldrb	r3, [sp, #315]	@ zero_extendqisi2
 2881 116c 0793     		str	r3, [sp, #28]
 2882 116e 9DF83A31 		ldrb	r3, [sp, #314]	@ zero_extendqisi2
 2883 1172 0393     		str	r3, [sp, #12]
 2884 1174 9DF83931 		ldrb	r3, [sp, #313]	@ zero_extendqisi2
 2885 1178 0493     		str	r3, [sp, #16]
 2886 117a 9DF83531 		ldrb	r3, [sp, #309]	@ zero_extendqisi2
 2887 117e CDF800C0 		str	ip, [sp]
 2888 1182 9DF838E1 		ldrb	lr, [sp, #312]	@ zero_extendqisi2
 2889 1186 9DF83781 		ldrb	r8, [sp, #311]	@ zero_extendqisi2
ARM GAS  C:\Users\PRESID~1\AppData\Local\Temp\ccgd5bvc.s 			page 65


 2890 118a 9DF83691 		ldrb	r9, [sp, #310]	@ zero_extendqisi2
 2891 118e 0293     		str	r3, [sp, #8]
 2892 1190 9DF83451 		ldrb	r5, [sp, #308]	@ zero_extendqisi2
 2893 1194 9DF83361 		ldrb	r6, [sp, #307]	@ zero_extendqisi2
 2894 1198 9DF83271 		ldrb	r7, [sp, #306]	@ zero_extendqisi2
 2895 119c 26E5     		b	.L174
 2896              	.LVL252:
 2897              	.L221:
 2898 119e CDF864A0 		str	r10, [sp, #100]
 2899 11a2 1493     		str	r3, [sp, #80]
 2900 11a4 1391     		str	r1, [sp, #76]
 2901 11a6 0028     		cmp	r0, #0
 2902 11a8 3FF440AF 		beq	.L62
 2903 11ac 1198     		ldr	r0, [sp, #68]
 2904 11ae 129C     		ldr	r4, [sp, #72]
 2905 11b0 8DF84701 		strb	r0, [sp, #327]
 2906 11b4 0F98     		ldr	r0, [sp, #60]
 2907 11b6 0E99     		ldr	r1, [sp, #56]
 2908 11b8 8DF84241 		strb	r4, [sp, #322]
 2909 11bc 139D     		ldr	r5, [sp, #76]
 2910 11be 149C     		ldr	r4, [sp, #80]
 2911 11c0 1E9E     		ldr	r6, [sp, #120]
 2912 11c2 1D9F     		ldr	r7, [sp, #116]
 2913 11c4 8DF84801 		strb	r0, [sp, #328]
 2914 11c8 1098     		ldr	r0, [sp, #64]
 2915 11ca 8DF84A11 		strb	r1, [sp, #330]
 2916 11ce 8DF84901 		strb	r0, [sp, #329]
 2917 11d2 8DF840C1 		strb	ip, [sp, #320]
 2918 11d6 5146     		mov	r1, r10
 2919 11d8 8DF841A1 		strb	r10, [sp, #321]
 2920 11dc 8DF84341 		strb	r4, [sp, #323]
 2921 11e0 8DF84451 		strb	r5, [sp, #324]
 2922 11e4 8DF84561 		strb	r6, [sp, #325]
 2923 11e8 8DF84671 		strb	r7, [sp, #326]
 2924 11ec 7046     		mov	r0, lr
 2925 11ee CAE0     		b	.L184
 2926              	.LVL253:
 2927              	.L207:
 2928 11f0 9DF83EB1 		ldrb	fp, [sp, #318]	@ zero_extendqisi2
 2929 11f4 9DF83D31 		ldrb	r3, [sp, #317]	@ zero_extendqisi2
 2930 11f8 9DF83C21 		ldrb	r2, [sp, #316]	@ zero_extendqisi2
 2931 11fc 9DF83B11 		ldrb	r1, [sp, #315]	@ zero_extendqisi2
 2932 1200 9DF83A41 		ldrb	r4, [sp, #314]	@ zero_extendqisi2
 2933 1204 9DF83901 		ldrb	r0, [sp, #313]	@ zero_extendqisi2
 2934 1208 9DF838E1 		ldrb	lr, [sp, #312]	@ zero_extendqisi2
 2935 120c 9DF83781 		ldrb	r8, [sp, #311]	@ zero_extendqisi2
 2936 1210 FFF742BB 		b	.L49
 2937              	.LVL254:
 2938              	.L206:
 2939 1214 9DF83EB1 		ldrb	fp, [sp, #318]	@ zero_extendqisi2
 2940 1218 9DF83D31 		ldrb	r3, [sp, #317]	@ zero_extendqisi2
 2941 121c 9DF83C21 		ldrb	r2, [sp, #316]	@ zero_extendqisi2
 2942 1220 9DF83B11 		ldrb	r1, [sp, #315]	@ zero_extendqisi2
 2943 1224 9DF83A41 		ldrb	r4, [sp, #314]	@ zero_extendqisi2
 2944 1228 9DF83901 		ldrb	r0, [sp, #313]	@ zero_extendqisi2
 2945 122c 9DF838E1 		ldrb	lr, [sp, #312]	@ zero_extendqisi2
 2946 1230 9DF83781 		ldrb	r8, [sp, #311]	@ zero_extendqisi2
ARM GAS  C:\Users\PRESID~1\AppData\Local\Temp\ccgd5bvc.s 			page 66


 2947 1234 9DF83691 		ldrb	r9, [sp, #310]	@ zero_extendqisi2
 2948 1238 FFF72EBB 		b	.L49
 2949              	.LVL255:
 2950              	.L112:
 2951 123c CDE90532 		strd	r3, r2, [sp, #20]
 2952              	.LBB312:
 2953              	.LBB257:
 2954              	.LBB255:
 252:E:\NeuOrga\Programmieren\c_cpp\github_os\input\src\os_base\os_common.c ****       {
 2955              		.loc 1 252 0
 2956 1240 379B     		ldr	r3, [sp, #220]
 2957 1242 0093     		str	r3, [sp]
 2958 1244 239B     		ldr	r3, [sp, #140]
 2959 1246 0193     		str	r3, [sp, #4]
 2960 1248 2A9B     		ldr	r3, [sp, #168]
 2961 124a 0293     		str	r3, [sp, #8]
 2962 124c 309B     		ldr	r3, [sp, #192]
 2963 124e 0493     		str	r3, [sp, #16]
 2964 1250 319B     		ldr	r3, [sp, #196]
 2965 1252 0791     		str	r1, [sp, #28]
 2966 1254 DDE92676 		ldrd	r7, r6, [sp, #152]
 2967 1258 289D     		ldr	r5, [sp, #160]
 2968 125a DDF8B4E0 		ldr	lr, [sp, #180]
 2969 125e 0393     		str	r3, [sp, #12]
 2970 1260 DDE92B98 		ldrd	r9, r8, [sp, #172]
 2971 1264 DDE934C4 		ldrd	ip, r4, [sp, #208]
 2972 1268 CAE4     		b	.L46
 2973              	.LVL256:
 2974              	.L111:
 2975 126a CDE90532 		strd	r3, r2, [sp, #20]
 2976 126e 379B     		ldr	r3, [sp, #220]
 2977 1270 0093     		str	r3, [sp]
 2978 1272 239B     		ldr	r3, [sp, #140]
 2979 1274 0193     		str	r3, [sp, #4]
 2980 1276 2A9B     		ldr	r3, [sp, #168]
 2981 1278 0293     		str	r3, [sp, #8]
 2982 127a 309B     		ldr	r3, [sp, #192]
 2983 127c 0394     		str	r4, [sp, #12]
 2984 127e 0791     		str	r1, [sp, #28]
 2985 1280 DDE92676 		ldrd	r7, r6, [sp, #152]
 2986 1284 289D     		ldr	r5, [sp, #160]
 2987 1286 DDF8B4E0 		ldr	lr, [sp, #180]
 2988 128a 0493     		str	r3, [sp, #16]
 2989 128c DDE92B98 		ldrd	r9, r8, [sp, #172]
 2990 1290 DDE934C4 		ldrd	ip, r4, [sp, #208]
 2991 1294 B4E4     		b	.L46
 2992              	.LVL257:
 2993              	.L220:
 2994 1296 CDF864A0 		str	r10, [sp, #100]
 2995 129a 1493     		str	r3, [sp, #80]
 2996 129c 1391     		str	r1, [sp, #76]
 2997 129e 0028     		cmp	r0, #0
 2998 12a0 3FF4C4AE 		beq	.L62
 2999 12a4 7146     		mov	r1, lr
 3000              	.LVL258:
 3001              	.L178:
 3002 12a6 8DF84A11 		strb	r1, [sp, #330]
ARM GAS  C:\Users\PRESID~1\AppData\Local\Temp\ccgd5bvc.s 			page 67


 3003 12aa 8DF840C1 		strb	ip, [sp, #320]
 3004 12ae 5146     		mov	r1, r10
 3005              	.L179:
 3006 12b0 8DF84111 		strb	r1, [sp, #321]
 3007 12b4 129C     		ldr	r4, [sp, #72]
 3008 12b6 4EE0     		b	.L181
 3009              	.LVL259:
 3010              	.L219:
 3011 12b8 CDF864A0 		str	r10, [sp, #100]
 3012 12bc 1493     		str	r3, [sp, #80]
 3013 12be 1391     		str	r1, [sp, #76]
 3014 12c0 0028     		cmp	r0, #0
 3015 12c2 3FF4B3AE 		beq	.L62
 3016 12c6 129C     		ldr	r4, [sp, #72]
 3017 12c8 1198     		ldr	r0, [sp, #68]
 3018 12ca 0E99     		ldr	r1, [sp, #56]
 3019 12cc 8DF84241 		strb	r4, [sp, #322]
 3020 12d0 139D     		ldr	r5, [sp, #76]
 3021 12d2 149C     		ldr	r4, [sp, #80]
 3022 12d4 1E9E     		ldr	r6, [sp, #120]
 3023 12d6 1D9F     		ldr	r7, [sp, #116]
 3024 12d8 8DF84701 		strb	r0, [sp, #327]
 3025 12dc 0F98     		ldr	r0, [sp, #60]
 3026 12de 8DF84A11 		strb	r1, [sp, #330]
 3027 12e2 8DF84801 		strb	r0, [sp, #328]
 3028 12e6 8DF840C1 		strb	ip, [sp, #320]
 3029 12ea 5146     		mov	r1, r10
 3030 12ec 8DF841A1 		strb	r10, [sp, #321]
 3031 12f0 8DF84341 		strb	r4, [sp, #323]
 3032 12f4 8DF84451 		strb	r5, [sp, #324]
 3033 12f8 8DF84561 		strb	r6, [sp, #325]
 3034 12fc 8DF84671 		strb	r7, [sp, #326]
 3035 1300 7046     		mov	r0, lr
 3036 1302 3DE0     		b	.L183
 3037              	.LVL260:
 3038              	.L218:
 3039 1304 CDF864A0 		str	r10, [sp, #100]
 3040 1308 1493     		str	r3, [sp, #80]
 3041 130a 1391     		str	r1, [sp, #76]
 3042 130c 0028     		cmp	r0, #0
 3043 130e 3FF48DAE 		beq	.L62
 3044 1312 129C     		ldr	r4, [sp, #72]
 3045 1314 0E99     		ldr	r1, [sp, #56]
 3046 1316 8DF84241 		strb	r4, [sp, #322]
 3047 131a 139D     		ldr	r5, [sp, #76]
 3048 131c 149C     		ldr	r4, [sp, #80]
 3049 131e 8DF84A11 		strb	r1, [sp, #330]
 3050 1322 8DF840C1 		strb	ip, [sp, #320]
 3051 1326 5146     		mov	r1, r10
 3052 1328 8DF841A1 		strb	r10, [sp, #321]
 3053 132c 8DF84341 		strb	r4, [sp, #323]
 3054 1330 8DF84451 		strb	r5, [sp, #324]
 3055 1334 7646     		mov	r6, lr
 3056 1336 17E0     		b	.L185
 3057              	.LVL261:
 3058              	.L217:
 3059 1338 CDF864A0 		str	r10, [sp, #100]
ARM GAS  C:\Users\PRESID~1\AppData\Local\Temp\ccgd5bvc.s 			page 68


 3060 133c 1493     		str	r3, [sp, #80]
 3061 133e 1391     		str	r1, [sp, #76]
 3062 1340 0028     		cmp	r0, #0
 3063 1342 3FF473AE 		beq	.L62
 3064 1346 0E99     		ldr	r1, [sp, #56]
 3065 1348 8DF84A11 		strb	r1, [sp, #330]
 3066 134c 8DF840C1 		strb	ip, [sp, #320]
 3067 1350 5146     		mov	r1, r10
 3068 1352 8DF841A1 		strb	r10, [sp, #321]
 3069              	.LVL262:
 3070              	.L181:
 3071 1356 8DF84241 		strb	r4, [sp, #322]
 3072 135a 139D     		ldr	r5, [sp, #76]
 3073 135c 149C     		ldr	r4, [sp, #80]
 3074 135e 1E9E     		ldr	r6, [sp, #120]
 3075 1360 8DF84341 		strb	r4, [sp, #323]
 3076 1364 8DF84451 		strb	r5, [sp, #324]
 3077              	.L185:
 3078 1368 1198     		ldr	r0, [sp, #68]
 3079 136a 8DF84701 		strb	r0, [sp, #327]
 3080 136e 0F98     		ldr	r0, [sp, #60]
 3081 1370 1D9F     		ldr	r7, [sp, #116]
 3082 1372 8DF84801 		strb	r0, [sp, #328]
 3083 1376 1098     		ldr	r0, [sp, #64]
 3084 1378 8DF84561 		strb	r6, [sp, #325]
 3085 137c 8DF84671 		strb	r7, [sp, #326]
 3086              	.L183:
 3087 1380 8DF84901 		strb	r0, [sp, #329]
 3088 1384 0D98     		ldr	r0, [sp, #52]
 3089              	.L184:
 3090 1386 8DF84B01 		strb	r0, [sp, #331]
 3091 138a 1A98     		ldr	r0, [sp, #104]
 3092              	.L182:
 3093 138c 0C9B     		ldr	r3, [sp, #48]
 3094 138e 8DF84C01 		strb	r0, [sp, #332]
 3095              	.L180:
 3096 1392 8DF84D31 		strb	r3, [sp, #333]
 3097 1396 0B9B     		ldr	r3, [sp, #44]
 3098 1398 9E46     		mov	lr, r3
 3099              	.L177:
 3100 139a 0A9B     		ldr	r3, [sp, #40]
 3101 139c 1590     		str	r0, [sp, #84]
 3102 139e 1298     		ldr	r0, [sp, #72]
 3103 13a0 2F90     		str	r0, [sp, #188]
 3104 13a2 1198     		ldr	r0, [sp, #68]
 3105 13a4 8DF84EE1 		strb	lr, [sp, #334]
 3106 13a8 8DF84F31 		strb	r3, [sp, #335]
 3107 13ac 9E46     		mov	lr, r3
 3108 13ae 2994     		str	r4, [sp, #164]
 3109 13b0 0E9B     		ldr	r3, [sp, #56]
 3110 13b2 0F9C     		ldr	r4, [sp, #60]
 3111 13b4 2090     		str	r0, [sp, #128]
 3112 13b6 0D98     		ldr	r0, [sp, #52]
 3113 13b8 1C93     		str	r3, [sp, #112]
 3114 13ba CDE92465 		strd	r6, r5, [sp, #144]
 3115 13be 1B90     		str	r0, [sp, #108]
 3116 13c0 109D     		ldr	r5, [sp, #64]
ARM GAS  C:\Users\PRESID~1\AppData\Local\Temp\ccgd5bvc.s 			page 69


 3117 13c2 0B98     		ldr	r0, [sp, #44]
 3118 13c4 0C9B     		ldr	r3, [sp, #48]
 3119 13c6 1F95     		str	r5, [sp, #124]
 3120 13c8 CDE92147 		strd	r4, r7, [sp, #132]
 3121 13cc CDF860E0 		str	lr, [sp, #96]
 3122 13d0 1790     		str	r0, [sp, #92]
 3123 13d2 1693     		str	r3, [sp, #88]
 3124 13d4 2E91     		str	r1, [sp, #184]
 3125 13d6 29E6     		b	.L62
 3126              	.LVL263:
 3127              	.L211:
 3128 13d8 9DF83EB1 		ldrb	fp, [sp, #318]	@ zero_extendqisi2
 3129 13dc 9DF83D31 		ldrb	r3, [sp, #317]	@ zero_extendqisi2
 3130 13e0 9DF83C21 		ldrb	r2, [sp, #316]	@ zero_extendqisi2
 3131 13e4 9DF83B11 		ldrb	r1, [sp, #315]	@ zero_extendqisi2
 3132 13e8 FFF756BA 		b	.L49
 3133              	.LVL264:
 3134              	.L210:
 3135 13ec 9DF83EB1 		ldrb	fp, [sp, #318]	@ zero_extendqisi2
 3136 13f0 9DF83D31 		ldrb	r3, [sp, #317]	@ zero_extendqisi2
 3137 13f4 9DF83C21 		ldrb	r2, [sp, #316]	@ zero_extendqisi2
 3138 13f8 9DF83B11 		ldrb	r1, [sp, #315]	@ zero_extendqisi2
 3139 13fc 9DF83A41 		ldrb	r4, [sp, #314]	@ zero_extendqisi2
 3140 1400 FFF74ABA 		b	.L49
 3141              	.LVL265:
 3142              	.L209:
 3143 1404 9DF83EB1 		ldrb	fp, [sp, #318]	@ zero_extendqisi2
 3144 1408 9DF83D31 		ldrb	r3, [sp, #317]	@ zero_extendqisi2
 3145 140c 9DF83C21 		ldrb	r2, [sp, #316]	@ zero_extendqisi2
 3146 1410 9DF83B11 		ldrb	r1, [sp, #315]	@ zero_extendqisi2
 3147 1414 9DF83A41 		ldrb	r4, [sp, #314]	@ zero_extendqisi2
 3148 1418 9DF83901 		ldrb	r0, [sp, #313]	@ zero_extendqisi2
 3149 141c FFF73CBA 		b	.L49
 3150              	.LVL266:
 3151              	.L208:
 3152 1420 9DF83EB1 		ldrb	fp, [sp, #318]	@ zero_extendqisi2
 3153 1424 9DF83D31 		ldrb	r3, [sp, #317]	@ zero_extendqisi2
 3154 1428 9DF83C21 		ldrb	r2, [sp, #316]	@ zero_extendqisi2
 3155 142c 9DF83B11 		ldrb	r1, [sp, #315]	@ zero_extendqisi2
 3156 1430 9DF83A41 		ldrb	r4, [sp, #314]	@ zero_extendqisi2
 3157 1434 9DF83901 		ldrb	r0, [sp, #313]	@ zero_extendqisi2
 3158 1438 9DF838E1 		ldrb	lr, [sp, #312]	@ zero_extendqisi2
 3159 143c FFF72CBA 		b	.L49
 3160              	.LVL267:
 3161              	.L213:
 3162 1440 9DF83EB1 		ldrb	fp, [sp, #318]	@ zero_extendqisi2
 3163 1444 9DF83D31 		ldrb	r3, [sp, #317]	@ zero_extendqisi2
 3164 1448 FFF726BA 		b	.L49
 3165              	.LVL268:
 3166              	.L214:
 3167 144c 9DF83EB1 		ldrb	fp, [sp, #318]	@ zero_extendqisi2
 3168 1450 FFF722BA 		b	.L49
 3169              	.LVL269:
 3170              	.L212:
 3171 1454 9DF83EB1 		ldrb	fp, [sp, #318]	@ zero_extendqisi2
 3172 1458 9DF83D31 		ldrb	r3, [sp, #317]	@ zero_extendqisi2
 3173 145c 9DF83C21 		ldrb	r2, [sp, #316]	@ zero_extendqisi2
ARM GAS  C:\Users\PRESID~1\AppData\Local\Temp\ccgd5bvc.s 			page 70


 3174 1460 FFF71ABA 		b	.L49
 3175              	.LVL270:
 3176              	.L110:
 3177 1464 CDE90532 		strd	r3, r2, [sp, #20]
 3178 1468 379B     		ldr	r3, [sp, #220]
 3179 146a 0093     		str	r3, [sp]
 3180 146c 239B     		ldr	r3, [sp, #140]
 3181 146e 0193     		str	r3, [sp, #4]
 3182 1470 2A9B     		ldr	r3, [sp, #168]
 3183 1472 0791     		str	r1, [sp, #28]
 3184 1474 CDE90340 		strd	r4, r0, [sp, #12]
 3185 1478 DDE92676 		ldrd	r7, r6, [sp, #152]
 3186 147c 289D     		ldr	r5, [sp, #160]
 3187 147e 0293     		str	r3, [sp, #8]
 3188 1480 DDE92B98 		ldrd	r9, r8, [sp, #172]
 3189 1484 DDF8B4E0 		ldr	lr, [sp, #180]
 3190 1488 DDE934C4 		ldrd	ip, r4, [sp, #208]
 3191 148c FFF7B8BB 		b	.L46
 3192              	.LVL271:
 3193              	.L109:
 3194 1490 CDE90532 		strd	r3, r2, [sp, #20]
 3195 1494 239B     		ldr	r3, [sp, #140]
 3196 1496 0193     		str	r3, [sp, #4]
 3197 1498 2A9B     		ldr	r3, [sp, #168]
 3198 149a 0394     		str	r4, [sp, #12]
 3199 149c CDF800C0 		str	ip, [sp]
 3200 14a0 0791     		str	r1, [sp, #28]
 3201 14a2 0490     		str	r0, [sp, #16]
 3202 14a4 DDE92676 		ldrd	r7, r6, [sp, #152]
 3203 14a8 289D     		ldr	r5, [sp, #160]
 3204 14aa 0293     		str	r3, [sp, #8]
 3205 14ac DDE92B98 		ldrd	r9, r8, [sp, #172]
 3206 14b0 DDE934C4 		ldrd	ip, r4, [sp, #208]
 3207 14b4 FFF7A4BB 		b	.L46
 3208              	.LVL272:
 3209              	.L108:
 3210 14b8 CDE90532 		strd	r3, r2, [sp, #20]
 3211 14bc 239B     		ldr	r3, [sp, #140]
 3212 14be 0193     		str	r3, [sp, #4]
 3213 14c0 2A9B     		ldr	r3, [sp, #168]
 3214 14c2 0394     		str	r4, [sp, #12]
 3215 14c4 CDF800C0 		str	ip, [sp]
 3216 14c8 0791     		str	r1, [sp, #28]
 3217 14ca 0490     		str	r0, [sp, #16]
 3218 14cc DDE92676 		ldrd	r7, r6, [sp, #152]
 3219 14d0 289D     		ldr	r5, [sp, #160]
 3220 14d2 0293     		str	r3, [sp, #8]
 3221 14d4 DDF8AC90 		ldr	r9, [sp, #172]
 3222 14d8 DDE934C4 		ldrd	ip, r4, [sp, #208]
 3223 14dc FFF790BB 		b	.L46
 3224              	.LVL273:
 3225              	.L107:
 3226 14e0 CDE90532 		strd	r3, r2, [sp, #20]
 3227 14e4 239B     		ldr	r3, [sp, #140]
 3228 14e6 0193     		str	r3, [sp, #4]
 3229 14e8 2A9B     		ldr	r3, [sp, #168]
 3230 14ea 0394     		str	r4, [sp, #12]
ARM GAS  C:\Users\PRESID~1\AppData\Local\Temp\ccgd5bvc.s 			page 71


 3231 14ec CDF800C0 		str	ip, [sp]
 3232 14f0 0791     		str	r1, [sp, #28]
 3233 14f2 0490     		str	r0, [sp, #16]
 3234 14f4 DDE92676 		ldrd	r7, r6, [sp, #152]
 3235 14f8 289D     		ldr	r5, [sp, #160]
 3236 14fa 0293     		str	r3, [sp, #8]
 3237 14fc DDE934C4 		ldrd	ip, r4, [sp, #208]
 3238 1500 FFF77EBB 		b	.L46
 3239              	.LVL274:
 3240              	.L106:
 3241 1504 CDE90532 		strd	r3, r2, [sp, #20]
 3242 1508 239B     		ldr	r3, [sp, #140]
 3243 150a 0394     		str	r4, [sp, #12]
 3244 150c CDF800C0 		str	ip, [sp]
 3245 1510 0791     		str	r1, [sp, #28]
 3246 1512 0490     		str	r0, [sp, #16]
 3247 1514 0193     		str	r3, [sp, #4]
 3248 1516 DDE92676 		ldrd	r7, r6, [sp, #152]
 3249 151a 289D     		ldr	r5, [sp, #160]
 3250 151c DDE934C4 		ldrd	ip, r4, [sp, #208]
 3251 1520 FFF76EBB 		b	.L46
 3252              	.LVL275:
 3253              	.L105:
 3254 1524 CDE90532 		strd	r3, r2, [sp, #20]
 3255 1528 239B     		ldr	r3, [sp, #140]
 3256 152a 0394     		str	r4, [sp, #12]
 3257 152c CDF800C0 		str	ip, [sp]
 3258 1530 0791     		str	r1, [sp, #28]
 3259 1532 0490     		str	r0, [sp, #16]
 3260 1534 0193     		str	r3, [sp, #4]
 3261 1536 DDE92676 		ldrd	r7, r6, [sp, #152]
 3262 153a DDE934C4 		ldrd	ip, r4, [sp, #208]
 3263 153e FFF75FBB 		b	.L46
 3264              	.LVL276:
 3265              	.L104:
 3266 1542 CDE90532 		strd	r3, r2, [sp, #20]
 3267 1546 239B     		ldr	r3, [sp, #140]
 3268 1548 0394     		str	r4, [sp, #12]
 3269 154a 3E46     		mov	r6, r7
 3270 154c CDF800C0 		str	ip, [sp]
 3271 1550 0791     		str	r1, [sp, #28]
 3272 1552 0490     		str	r0, [sp, #16]
 3273 1554 0193     		str	r3, [sp, #4]
 3274 1556 269F     		ldr	r7, [sp, #152]
 3275 1558 DDE934C4 		ldrd	ip, r4, [sp, #208]
 3276 155c FFF750BB 		b	.L46
 3277              	.LVL277:
 3278              	.L103:
 3279 1560 009E     		ldr	r6, [sp]
 3280              	.LVL278:
 3281              	.L175:
 3282 1562 0394     		str	r4, [sp, #12]
 3283 1564 CDE90532 		strd	r3, r2, [sp, #20]
 3284 1568 239B     		ldr	r3, [sp, #140]
 3285 156a CDF800C0 		str	ip, [sp]
 3286 156e 0791     		str	r1, [sp, #28]
 3287 1570 0490     		str	r0, [sp, #16]
ARM GAS  C:\Users\PRESID~1\AppData\Local\Temp\ccgd5bvc.s 			page 72


 3288 1572 0193     		str	r3, [sp, #4]
 3289 1574 DDE934C4 		ldrd	ip, r4, [sp, #208]
 3290 1578 FFF742BB 		b	.L46
 3291              	.LVL279:
 3292              	.L83:
 3293 157c 9DF84AC1 		ldrb	ip, [sp, #330]	@ zero_extendqisi2
 3294 1580 CDF870C0 		str	ip, [sp, #112]
 3295 1584 9DF84BC1 		ldrb	ip, [sp, #331]	@ zero_extendqisi2
 3296 1588 CDF86CC0 		str	ip, [sp, #108]
 3297 158c 9DF84FC1 		ldrb	ip, [sp, #335]	@ zero_extendqisi2
 3298 1590 CDF860C0 		str	ip, [sp, #96]
 3299 1594 9DF84EC1 		ldrb	ip, [sp, #334]	@ zero_extendqisi2
 3300 1598 CDF85CC0 		str	ip, [sp, #92]
 3301 159c 9DF84DC1 		ldrb	ip, [sp, #333]	@ zero_extendqisi2
 3302 15a0 9DF84C31 		ldrb	r3, [sp, #332]	@ zero_extendqisi2
 3303 15a4 CDF858C0 		str	ip, [sp, #88]
 3304 15a8 9DF82FC1 		ldrb	ip, [sp, #303]	@ zero_extendqisi2
 3305 15ac 9DF84521 		ldrb	r2, [sp, #325]	@ zero_extendqisi2
 3306 15b0 9DF84411 		ldrb	r1, [sp, #324]	@ zero_extendqisi2
 3307 15b4 9DF84301 		ldrb	r0, [sp, #323]	@ zero_extendqisi2
 3308 15b8 9DF84241 		ldrb	r4, [sp, #322]	@ zero_extendqisi2
 3309 15bc 9DF84951 		ldrb	r5, [sp, #329]	@ zero_extendqisi2
 3310 15c0 9DF84861 		ldrb	r6, [sp, #328]	@ zero_extendqisi2
 3311 15c4 9DF84671 		ldrb	r7, [sp, #326]	@ zero_extendqisi2
 3312 15c8 1593     		str	r3, [sp, #84]
 3313 15ca CDF8D8C0 		str	ip, [sp, #216]
 3314 15ce 9DF84731 		ldrb	r3, [sp, #327]	@ zero_extendqisi2
 3315 15d2 9DF82EC1 		ldrb	ip, [sp, #302]	@ zero_extendqisi2
 3316 15d6 2093     		str	r3, [sp, #128]
 3317 15d8 2492     		str	r2, [sp, #144]
 3318 15da 2591     		str	r1, [sp, #148]
 3319 15dc 2990     		str	r0, [sp, #164]
 3320 15de 2F94     		str	r4, [sp, #188]
 3321 15e0 1F95     		str	r5, [sp, #124]
 3322 15e2 2196     		str	r6, [sp, #132]
 3323 15e4 2297     		str	r7, [sp, #136]
 3324 15e6 CDF8D4C0 		str	ip, [sp, #212]
 3325 15ea 9DF82DC1 		ldrb	ip, [sp, #301]	@ zero_extendqisi2
 3326 15ee CDF8D0C0 		str	ip, [sp, #208]
 3327 15f2 9DF82CC1 		ldrb	ip, [sp, #300]	@ zero_extendqisi2
 3328 15f6 CDF8CCC0 		str	ip, [sp, #204]
 3329 15fa 9DF82BC1 		ldrb	ip, [sp, #299]	@ zero_extendqisi2
 3330 15fe CDF8C8C0 		str	ip, [sp, #200]
 3331 1602 9DF82AC1 		ldrb	ip, [sp, #298]	@ zero_extendqisi2
 3332 1606 CDF8C4C0 		str	ip, [sp, #196]
 3333 160a 9DF829C1 		ldrb	ip, [sp, #297]	@ zero_extendqisi2
 3334 160e CDF8C0C0 		str	ip, [sp, #192]
 3335 1612 9DF828C1 		ldrb	ip, [sp, #296]	@ zero_extendqisi2
 3336 1616 CDF8B4C0 		str	ip, [sp, #180]
 3337 161a 9DF827C1 		ldrb	ip, [sp, #295]	@ zero_extendqisi2
 3338 161e CDF8B0C0 		str	ip, [sp, #176]
 3339 1622 9DF826C1 		ldrb	ip, [sp, #294]	@ zero_extendqisi2
 3340 1626 CDF8ACC0 		str	ip, [sp, #172]
 3341 162a 9DF825C1 		ldrb	ip, [sp, #293]	@ zero_extendqisi2
 3342 162e CDF8A8C0 		str	ip, [sp, #168]
 3343 1632 9DF824C1 		ldrb	ip, [sp, #292]	@ zero_extendqisi2
 3344 1636 CDF8A0C0 		str	ip, [sp, #160]
ARM GAS  C:\Users\PRESID~1\AppData\Local\Temp\ccgd5bvc.s 			page 73


 3345 163a 9DF823C1 		ldrb	ip, [sp, #291]	@ zero_extendqisi2
 3346 163e 159B     		ldr	r3, [sp, #84]
 3347 1640 CDF89CC0 		str	ip, [sp, #156]
 3348 1644 9DF822C1 		ldrb	ip, [sp, #290]	@ zero_extendqisi2
 3349 1648 1A93     		str	r3, [sp, #104]
 3350 164a CDF898C0 		str	ip, [sp, #152]
 3351 164e 1E92     		str	r2, [sp, #120]
 3352 1650 CDE91310 		strd	r1, r0, [sp, #76]
 3353 1654 1294     		str	r4, [sp, #72]
 3354 1656 CDE90F65 		strd	r6, r5, [sp, #60]
 3355 165a 1D97     		str	r7, [sp, #116]
 3356 165c 209B     		ldr	r3, [sp, #128]
 3357 165e 1193     		str	r3, [sp, #68]
 3358 1660 1C9B     		ldr	r3, [sp, #112]
 3359 1662 0E93     		str	r3, [sp, #56]
 3360              	.LVL280:
 3361              	.L171:
 3362 1664 1B9B     		ldr	r3, [sp, #108]
 3363 1666 0D93     		str	r3, [sp, #52]
 3364              	.L172:
 3365 1668 189B     		ldr	r3, [sp, #96]
 3366 166a 0A93     		str	r3, [sp, #40]
 3367 166c 179B     		ldr	r3, [sp, #92]
 3368 166e 0B93     		str	r3, [sp, #44]
 3369 1670 169B     		ldr	r3, [sp, #88]
 3370 1672 0C93     		str	r3, [sp, #48]
 3371 1674 FFF796B8 		b	.L85
 3372              	.LVL281:
 3373              	.L225:
 3374 1678 0E99     		ldr	r1, [sp, #56]
 3375 167a 14E6     		b	.L178
 3376              	.LVL282:
 3377              	.L224:
 3378 167c CDF864A0 		str	r10, [sp, #100]
 3379 1680 1493     		str	r3, [sp, #80]
 3380 1682 1391     		str	r1, [sp, #76]
 3381 1684 0028     		cmp	r0, #0
 3382 1686 3FF4D1AC 		beq	.L62
 3383 168a 1198     		ldr	r0, [sp, #68]
 3384 168c 8DF84701 		strb	r0, [sp, #327]
 3385 1690 0F98     		ldr	r0, [sp, #60]
 3386 1692 8DF84801 		strb	r0, [sp, #328]
 3387 1696 1098     		ldr	r0, [sp, #64]
 3388 1698 129C     		ldr	r4, [sp, #72]
 3389 169a 8DF84901 		strb	r0, [sp, #329]
 3390 169e 0D98     		ldr	r0, [sp, #52]
 3391 16a0 0E99     		ldr	r1, [sp, #56]
 3392 16a2 8DF84241 		strb	r4, [sp, #322]
 3393 16a6 139D     		ldr	r5, [sp, #76]
 3394 16a8 149C     		ldr	r4, [sp, #80]
 3395 16aa 1E9E     		ldr	r6, [sp, #120]
 3396 16ac 1D9F     		ldr	r7, [sp, #116]
 3397 16ae 8DF84B01 		strb	r0, [sp, #331]
 3398 16b2 0C9B     		ldr	r3, [sp, #48]
 3399 16b4 1A98     		ldr	r0, [sp, #104]
 3400 16b6 8DF84A11 		strb	r1, [sp, #330]
 3401 16ba 8DF840C1 		strb	ip, [sp, #320]
ARM GAS  C:\Users\PRESID~1\AppData\Local\Temp\ccgd5bvc.s 			page 74


 3402 16be 5146     		mov	r1, r10
 3403 16c0 8DF841A1 		strb	r10, [sp, #321]
 3404 16c4 8DF84341 		strb	r4, [sp, #323]
 3405 16c8 8DF84451 		strb	r5, [sp, #324]
 3406 16cc 8DF84561 		strb	r6, [sp, #325]
 3407 16d0 8DF84671 		strb	r7, [sp, #326]
 3408 16d4 8DF84C01 		strb	r0, [sp, #332]
 3409 16d8 8DF84D31 		strb	r3, [sp, #333]
 3410 16dc 5DE6     		b	.L177
 3411              	.LVL283:
 3412              	.L223:
 3413 16de CDF864A0 		str	r10, [sp, #100]
 3414 16e2 1493     		str	r3, [sp, #80]
 3415 16e4 1391     		str	r1, [sp, #76]
 3416 16e6 0028     		cmp	r0, #0
 3417 16e8 3FF4A0AC 		beq	.L62
 3418 16ec 1198     		ldr	r0, [sp, #68]
 3419 16ee 8DF84701 		strb	r0, [sp, #327]
 3420 16f2 0F98     		ldr	r0, [sp, #60]
 3421 16f4 8DF84801 		strb	r0, [sp, #328]
 3422 16f8 1098     		ldr	r0, [sp, #64]
 3423 16fa 129C     		ldr	r4, [sp, #72]
 3424 16fc 8DF84901 		strb	r0, [sp, #329]
 3425 1700 0D98     		ldr	r0, [sp, #52]
 3426 1702 0E99     		ldr	r1, [sp, #56]
 3427 1704 8DF84241 		strb	r4, [sp, #322]
 3428 1708 139D     		ldr	r5, [sp, #76]
 3429 170a 149C     		ldr	r4, [sp, #80]
 3430 170c 1E9E     		ldr	r6, [sp, #120]
 3431 170e 1D9F     		ldr	r7, [sp, #116]
 3432 1710 8DF84B01 		strb	r0, [sp, #331]
 3433 1714 1A98     		ldr	r0, [sp, #104]
 3434 1716 8DF84A11 		strb	r1, [sp, #330]
 3435 171a 8DF840C1 		strb	ip, [sp, #320]
 3436 171e 5146     		mov	r1, r10
 3437 1720 8DF841A1 		strb	r10, [sp, #321]
 3438 1724 8DF84341 		strb	r4, [sp, #323]
 3439 1728 8DF84451 		strb	r5, [sp, #324]
 3440 172c 8DF84561 		strb	r6, [sp, #325]
 3441 1730 8DF84671 		strb	r7, [sp, #326]
 3442 1734 8DF84C01 		strb	r0, [sp, #332]
 3443 1738 7346     		mov	r3, lr
 3444 173a 2AE6     		b	.L180
 3445              	.LVL284:
 3446              	.L222:
 3447 173c CDF864A0 		str	r10, [sp, #100]
 3448 1740 1493     		str	r3, [sp, #80]
 3449 1742 1391     		str	r1, [sp, #76]
 3450 1744 0028     		cmp	r0, #0
 3451 1746 3FF471AC 		beq	.L62
 3452 174a 1198     		ldr	r0, [sp, #68]
 3453 174c 8DF84701 		strb	r0, [sp, #327]
 3454 1750 0F98     		ldr	r0, [sp, #60]
 3455 1752 129C     		ldr	r4, [sp, #72]
 3456 1754 8DF84801 		strb	r0, [sp, #328]
 3457 1758 1098     		ldr	r0, [sp, #64]
 3458 175a 0E99     		ldr	r1, [sp, #56]
ARM GAS  C:\Users\PRESID~1\AppData\Local\Temp\ccgd5bvc.s 			page 75


 3459 175c 8DF84241 		strb	r4, [sp, #322]
 3460 1760 139D     		ldr	r5, [sp, #76]
 3461 1762 149C     		ldr	r4, [sp, #80]
 3462 1764 1E9E     		ldr	r6, [sp, #120]
 3463 1766 1D9F     		ldr	r7, [sp, #116]
 3464 1768 8DF84901 		strb	r0, [sp, #329]
 3465 176c 0D98     		ldr	r0, [sp, #52]
 3466 176e 8DF84A11 		strb	r1, [sp, #330]
 3467 1772 8DF84B01 		strb	r0, [sp, #331]
 3468 1776 8DF840C1 		strb	ip, [sp, #320]
 3469 177a 5146     		mov	r1, r10
 3470 177c 8DF841A1 		strb	r10, [sp, #321]
 3471 1780 8DF84341 		strb	r4, [sp, #323]
 3472 1784 8DF84451 		strb	r5, [sp, #324]
 3473 1788 8DF84561 		strb	r6, [sp, #325]
 3474 178c 8DF84671 		strb	r7, [sp, #326]
 3475 1790 7046     		mov	r0, lr
 3476 1792 FBE5     		b	.L182
 3477              	.LVL285:
 3478              	.L215:
 3479 1794 379B     		ldr	r3, [sp, #220]
 3480 1796 0093     		str	r3, [sp]
 3481 1798 239B     		ldr	r3, [sp, #140]
 3482 179a 0193     		str	r3, [sp, #4]
 3483 179c 2A9B     		ldr	r3, [sp, #168]
 3484 179e DDF8D4B0 		ldr	fp, [sp, #212]
 3485 17a2 0293     		str	r3, [sp, #8]
 3486 17a4 309B     		ldr	r3, [sp, #192]
 3487 17a6 0493     		str	r3, [sp, #16]
 3488 17a8 319B     		ldr	r3, [sp, #196]
 3489 17aa 0691     		str	r1, [sp, #24]
 3490 17ac 0592     		str	r2, [sp, #20]
 3491 17ae DDE92676 		ldrd	r7, r6, [sp, #152]
 3492 17b2 289D     		ldr	r5, [sp, #160]
 3493 17b4 DDF8B4E0 		ldr	lr, [sp, #180]
 3494 17b8 0393     		str	r3, [sp, #12]
 3495 17ba DDE92B98 		ldrd	r9, r8, [sp, #172]
 3496 17be 0790     		str	r0, [sp, #28]
 3497 17c0 5C46     		mov	r4, fp
 3498 17c2 9446     		mov	ip, r2
 3499 17c4 FFF71CBA 		b	.L46
 3500              	.LVL286:
 3501              	.L115:
 3502 17c8 379B     		ldr	r3, [sp, #220]
 3503 17ca 0093     		str	r3, [sp]
 3504 17cc 239B     		ldr	r3, [sp, #140]
 3505 17ce 0193     		str	r3, [sp, #4]
 3506 17d0 339B     		ldr	r3, [sp, #204]
 3507 17d2 0693     		str	r3, [sp, #24]
 3508 17d4 349B     		ldr	r3, [sp, #208]
 3509 17d6 0593     		str	r3, [sp, #20]
 3510              	.LVL287:
 3511              	.L173:
 3512 17d8 2A9B     		ldr	r3, [sp, #168]
 3513 17da 0293     		str	r3, [sp, #8]
 3514 17dc 309B     		ldr	r3, [sp, #192]
 3515 17de 0493     		str	r3, [sp, #16]
ARM GAS  C:\Users\PRESID~1\AppData\Local\Temp\ccgd5bvc.s 			page 76


 3516 17e0 319B     		ldr	r3, [sp, #196]
 3517 17e2 0393     		str	r3, [sp, #12]
 3518 17e4 329B     		ldr	r3, [sp, #200]
 3519 17e6 289D     		ldr	r5, [sp, #160]
 3520 17e8 DDF8B4E0 		ldr	lr, [sp, #180]
 3521 17ec 0793     		str	r3, [sp, #28]
 3522 17ee DDE92676 		ldrd	r7, r6, [sp, #152]
 3523 17f2 DDE92B98 		ldrd	r9, r8, [sp, #172]
 3524 17f6 DDE934C4 		ldrd	ip, r4, [sp, #208]
 3525 17fa FFF701BA 		b	.L46
 3526              	.LVL288:
 3527              	.L114:
 3528 17fe 0593     		str	r3, [sp, #20]
 3529 1800 379B     		ldr	r3, [sp, #220]
 3530 1802 0093     		str	r3, [sp]
 3531 1804 239B     		ldr	r3, [sp, #140]
 3532 1806 0193     		str	r3, [sp, #4]
 3533 1808 339B     		ldr	r3, [sp, #204]
 3534 180a 0693     		str	r3, [sp, #24]
 3535 180c 2A9B     		ldr	r3, [sp, #168]
 3536 180e 0293     		str	r3, [sp, #8]
 3537 1810 309B     		ldr	r3, [sp, #192]
 3538 1812 0493     		str	r3, [sp, #16]
 3539 1814 319B     		ldr	r3, [sp, #196]
 3540 1816 0393     		str	r3, [sp, #12]
 3541 1818 329B     		ldr	r3, [sp, #200]
 3542 181a 289D     		ldr	r5, [sp, #160]
 3543 181c DDF8B4E0 		ldr	lr, [sp, #180]
 3544 1820 0793     		str	r3, [sp, #28]
 3545 1822 DDE92676 		ldrd	r7, r6, [sp, #152]
 3546 1826 DDE92B98 		ldrd	r9, r8, [sp, #172]
 3547 182a 359C     		ldr	r4, [sp, #212]
 3548 182c 9446     		mov	ip, r2
 3549 182e FFF7E7B9 		b	.L46
 3550              	.LVL289:
 3551              	.L113:
 3552 1832 CDE90532 		strd	r3, r2, [sp, #20]
 3553 1836 379B     		ldr	r3, [sp, #220]
 3554 1838 0093     		str	r3, [sp]
 3555 183a 239B     		ldr	r3, [sp, #140]
 3556 183c 0193     		str	r3, [sp, #4]
 3557 183e CBE7     		b	.L173
 3558              	.LVL290:
 3559              	.L102:
 3560 1840 009E     		ldr	r6, [sp]
 3561 1842 039F     		ldr	r7, [sp, #12]
 3562 1844 8DE6     		b	.L175
 3563              	.LVL291:
 3564              	.L201:
 3565 1846 9DF84F31 		ldrb	r3, [sp, #335]	@ zero_extendqisi2
 3566 184a 9DF82F21 		ldrb	r2, [sp, #303]	@ zero_extendqisi2
 3567 184e 1893     		str	r3, [sp, #96]
 3568 1850 3692     		str	r2, [sp, #216]
 3569 1852 0A93     		str	r3, [sp, #40]
 3570 1854 FEF7A6BF 		b	.L85
 3571              	.LVL292:
 3572              	.L200:
ARM GAS  C:\Users\PRESID~1\AppData\Local\Temp\ccgd5bvc.s 			page 77


 3573 1858 9DF84F31 		ldrb	r3, [sp, #335]	@ zero_extendqisi2
 3574 185c 9DF84E21 		ldrb	r2, [sp, #334]	@ zero_extendqisi2
 3575 1860 9DF82F11 		ldrb	r1, [sp, #303]	@ zero_extendqisi2
 3576 1864 3691     		str	r1, [sp, #216]
 3577 1866 9DF82E11 		ldrb	r1, [sp, #302]	@ zero_extendqisi2
 3578 186a 1893     		str	r3, [sp, #96]
 3579 186c 1792     		str	r2, [sp, #92]
 3580 186e 3591     		str	r1, [sp, #212]
 3581 1870 CDE90A32 		strd	r3, r2, [sp, #40]
 3582 1874 FEF796BF 		b	.L85
 3583              	.LVL293:
 3584              	.L199:
 3585 1878 9DF82F01 		ldrb	r0, [sp, #303]	@ zero_extendqisi2
 3586 187c 9DF84F31 		ldrb	r3, [sp, #335]	@ zero_extendqisi2
 3587 1880 9DF84E21 		ldrb	r2, [sp, #334]	@ zero_extendqisi2
 3588 1884 3690     		str	r0, [sp, #216]
 3589 1886 9DF82E01 		ldrb	r0, [sp, #302]	@ zero_extendqisi2
 3590 188a 9DF84D11 		ldrb	r1, [sp, #333]	@ zero_extendqisi2
 3591 188e 3590     		str	r0, [sp, #212]
 3592 1890 9DF82D01 		ldrb	r0, [sp, #301]	@ zero_extendqisi2
 3593 1894 1893     		str	r3, [sp, #96]
 3594 1896 1792     		str	r2, [sp, #92]
 3595 1898 1691     		str	r1, [sp, #88]
 3596 189a 3490     		str	r0, [sp, #208]
 3597 189c CDE90A32 		strd	r3, r2, [sp, #40]
 3598 18a0 0C91     		str	r1, [sp, #48]
 3599 18a2 FEF77FBF 		b	.L85
 3600              	.LVL294:
 3601              	.L198:
 3602 18a6 9DF82F41 		ldrb	r4, [sp, #303]	@ zero_extendqisi2
 3603 18aa 3694     		str	r4, [sp, #216]
 3604 18ac 9DF82E41 		ldrb	r4, [sp, #302]	@ zero_extendqisi2
 3605 18b0 9DF84F21 		ldrb	r2, [sp, #335]	@ zero_extendqisi2
 3606 18b4 9DF84E11 		ldrb	r1, [sp, #334]	@ zero_extendqisi2
 3607 18b8 3594     		str	r4, [sp, #212]
 3608 18ba 9DF82D41 		ldrb	r4, [sp, #301]	@ zero_extendqisi2
 3609 18be 9DF84C31 		ldrb	r3, [sp, #332]	@ zero_extendqisi2
 3610 18c2 9DF84D01 		ldrb	r0, [sp, #333]	@ zero_extendqisi2
 3611 18c6 3494     		str	r4, [sp, #208]
 3612 18c8 9DF82C41 		ldrb	r4, [sp, #300]	@ zero_extendqisi2
 3613 18cc 1593     		str	r3, [sp, #84]
 3614 18ce 1892     		str	r2, [sp, #96]
 3615 18d0 1791     		str	r1, [sp, #92]
 3616 18d2 1690     		str	r0, [sp, #88]
 3617 18d4 3394     		str	r4, [sp, #204]
 3618 18d6 1A93     		str	r3, [sp, #104]
 3619 18d8 CDE90A21 		strd	r2, r1, [sp, #40]
 3620 18dc 0C90     		str	r0, [sp, #48]
 3621 18de FEF761BF 		b	.L85
 3622              	.LVL295:
 3623              	.L197:
 3624 18e2 9DF82F51 		ldrb	r5, [sp, #303]	@ zero_extendqisi2
 3625 18e6 3695     		str	r5, [sp, #216]
 3626 18e8 9DF82E51 		ldrb	r5, [sp, #302]	@ zero_extendqisi2
 3627 18ec 3595     		str	r5, [sp, #212]
 3628 18ee 9DF82D51 		ldrb	r5, [sp, #301]	@ zero_extendqisi2
 3629 18f2 9DF84F11 		ldrb	r1, [sp, #335]	@ zero_extendqisi2
ARM GAS  C:\Users\PRESID~1\AppData\Local\Temp\ccgd5bvc.s 			page 78


 3630 18f6 9DF84E01 		ldrb	r0, [sp, #334]	@ zero_extendqisi2
 3631 18fa 3495     		str	r5, [sp, #208]
 3632 18fc 9DF82C51 		ldrb	r5, [sp, #300]	@ zero_extendqisi2
 3633 1900 9DF84C31 		ldrb	r3, [sp, #332]	@ zero_extendqisi2
 3634 1904 9DF84B21 		ldrb	r2, [sp, #331]	@ zero_extendqisi2
 3635 1908 9DF84D41 		ldrb	r4, [sp, #333]	@ zero_extendqisi2
 3636 190c 3395     		str	r5, [sp, #204]
 3637 190e 9DF82B51 		ldrb	r5, [sp, #299]	@ zero_extendqisi2
 3638 1912 1593     		str	r3, [sp, #84]
 3639 1914 1B92     		str	r2, [sp, #108]
 3640 1916 1891     		str	r1, [sp, #96]
 3641 1918 1790     		str	r0, [sp, #92]
 3642 191a 1694     		str	r4, [sp, #88]
 3643 191c 3295     		str	r5, [sp, #200]
 3644 191e 1A93     		str	r3, [sp, #104]
 3645 1920 0D92     		str	r2, [sp, #52]
 3646 1922 CDE90A10 		strd	r1, r0, [sp, #40]
 3647 1926 0C94     		str	r4, [sp, #48]
 3648 1928 FEF73CBF 		b	.L85
 3649              	.LVL296:
 3650              	.L196:
 3651 192c 9DF82F61 		ldrb	r6, [sp, #303]	@ zero_extendqisi2
 3652 1930 3696     		str	r6, [sp, #216]
 3653 1932 9DF82E61 		ldrb	r6, [sp, #302]	@ zero_extendqisi2
 3654 1936 3596     		str	r6, [sp, #212]
 3655 1938 9DF82D61 		ldrb	r6, [sp, #301]	@ zero_extendqisi2
 3656 193c 3496     		str	r6, [sp, #208]
 3657 193e 9DF82C61 		ldrb	r6, [sp, #300]	@ zero_extendqisi2
 3658 1942 9DF84A21 		ldrb	r2, [sp, #330]	@ zero_extendqisi2
 3659 1946 9DF84B11 		ldrb	r1, [sp, #331]	@ zero_extendqisi2
 3660 194a 9DF84F01 		ldrb	r0, [sp, #335]	@ zero_extendqisi2
 3661 194e 9DF84E41 		ldrb	r4, [sp, #334]	@ zero_extendqisi2
 3662 1952 3396     		str	r6, [sp, #204]
 3663 1954 9DF82B61 		ldrb	r6, [sp, #299]	@ zero_extendqisi2
 3664 1958 9DF84C31 		ldrb	r3, [sp, #332]	@ zero_extendqisi2
 3665 195c 9DF84D51 		ldrb	r5, [sp, #333]	@ zero_extendqisi2
 3666 1960 3296     		str	r6, [sp, #200]
 3667 1962 9DF82A61 		ldrb	r6, [sp, #298]	@ zero_extendqisi2
 3668 1966 1593     		str	r3, [sp, #84]
 3669 1968 1C92     		str	r2, [sp, #112]
 3670 196a 1B91     		str	r1, [sp, #108]
 3671 196c 1890     		str	r0, [sp, #96]
 3672 196e 1794     		str	r4, [sp, #92]
 3673 1970 1695     		str	r5, [sp, #88]
 3674 1972 3196     		str	r6, [sp, #196]
 3675 1974 1A93     		str	r3, [sp, #104]
 3676 1976 CDE90D12 		strd	r1, r2, [sp, #52]
 3677 197a CDE90A04 		strd	r0, r4, [sp, #40]
 3678 197e 0C95     		str	r5, [sp, #48]
 3679 1980 FEF710BF 		b	.L85
 3680              	.LVL297:
 3681              	.L195:
 3682 1984 9DF82F71 		ldrb	r7, [sp, #303]	@ zero_extendqisi2
 3683 1988 3697     		str	r7, [sp, #216]
 3684 198a 9DF82E71 		ldrb	r7, [sp, #302]	@ zero_extendqisi2
 3685 198e 3597     		str	r7, [sp, #212]
 3686 1990 9DF82D71 		ldrb	r7, [sp, #301]	@ zero_extendqisi2
ARM GAS  C:\Users\PRESID~1\AppData\Local\Temp\ccgd5bvc.s 			page 79


 3687 1994 3497     		str	r7, [sp, #208]
 3688 1996 9DF82C71 		ldrb	r7, [sp, #300]	@ zero_extendqisi2
 3689 199a 3397     		str	r7, [sp, #204]
 3690 199c 9DF82B71 		ldrb	r7, [sp, #299]	@ zero_extendqisi2
 3691 19a0 9DF84A11 		ldrb	r1, [sp, #330]	@ zero_extendqisi2
 3692 19a4 9DF84B01 		ldrb	r0, [sp, #331]	@ zero_extendqisi2
 3693 19a8 9DF84F41 		ldrb	r4, [sp, #335]	@ zero_extendqisi2
 3694 19ac 9DF84E51 		ldrb	r5, [sp, #334]	@ zero_extendqisi2
 3695 19b0 3297     		str	r7, [sp, #200]
 3696 19b2 9DF82A71 		ldrb	r7, [sp, #298]	@ zero_extendqisi2
 3697 19b6 9DF84C31 		ldrb	r3, [sp, #332]	@ zero_extendqisi2
 3698 19ba 9DF84921 		ldrb	r2, [sp, #329]	@ zero_extendqisi2
 3699 19be 9DF84D61 		ldrb	r6, [sp, #333]	@ zero_extendqisi2
 3700 19c2 3197     		str	r7, [sp, #196]
 3701 19c4 9DF82971 		ldrb	r7, [sp, #297]	@ zero_extendqisi2
 3702 19c8 1593     		str	r3, [sp, #84]
 3703 19ca 1F92     		str	r2, [sp, #124]
 3704 19cc 1C91     		str	r1, [sp, #112]
 3705 19ce 1B90     		str	r0, [sp, #108]
 3706 19d0 1894     		str	r4, [sp, #96]
 3707 19d2 1795     		str	r5, [sp, #92]
 3708 19d4 1696     		str	r6, [sp, #88]
 3709 19d6 3097     		str	r7, [sp, #192]
 3710 19d8 1A93     		str	r3, [sp, #104]
 3711 19da 1092     		str	r2, [sp, #64]
 3712 19dc CDE90D01 		strd	r0, r1, [sp, #52]
 3713 19e0 CDE90A45 		strd	r4, r5, [sp, #40]
 3714 19e4 0C96     		str	r6, [sp, #48]
 3715 19e6 FEF7DDBE 		b	.L85
 3716              	.LVL298:
 3717              	.L194:
 3718 19ea 9DF84C31 		ldrb	r3, [sp, #332]	@ zero_extendqisi2
 3719 19ee 1593     		str	r3, [sp, #84]
 3720 19f0 9DF82F31 		ldrb	r3, [sp, #303]	@ zero_extendqisi2
 3721 19f4 3693     		str	r3, [sp, #216]
 3722 19f6 9DF82E31 		ldrb	r3, [sp, #302]	@ zero_extendqisi2
 3723 19fa 3593     		str	r3, [sp, #212]
 3724 19fc 9DF82D31 		ldrb	r3, [sp, #301]	@ zero_extendqisi2
 3725 1a00 3493     		str	r3, [sp, #208]
 3726 1a02 9DF82C31 		ldrb	r3, [sp, #300]	@ zero_extendqisi2
 3727 1a06 3393     		str	r3, [sp, #204]
 3728 1a08 9DF82B31 		ldrb	r3, [sp, #299]	@ zero_extendqisi2
 3729 1a0c 3293     		str	r3, [sp, #200]
 3730 1a0e 9DF82A31 		ldrb	r3, [sp, #298]	@ zero_extendqisi2
 3731 1a12 3193     		str	r3, [sp, #196]
 3732 1a14 9DF82931 		ldrb	r3, [sp, #297]	@ zero_extendqisi2
 3733 1a18 9DF84921 		ldrb	r2, [sp, #329]	@ zero_extendqisi2
 3734 1a1c 9DF84811 		ldrb	r1, [sp, #328]	@ zero_extendqisi2
 3735 1a20 9DF84A01 		ldrb	r0, [sp, #330]	@ zero_extendqisi2
 3736 1a24 9DF84B41 		ldrb	r4, [sp, #331]	@ zero_extendqisi2
 3737 1a28 9DF84F51 		ldrb	r5, [sp, #335]	@ zero_extendqisi2
 3738 1a2c 9DF84E61 		ldrb	r6, [sp, #334]	@ zero_extendqisi2
 3739 1a30 9DF84D71 		ldrb	r7, [sp, #333]	@ zero_extendqisi2
 3740 1a34 3093     		str	r3, [sp, #192]
 3741 1a36 9DF82831 		ldrb	r3, [sp, #296]	@ zero_extendqisi2
 3742 1a3a 1F92     		str	r2, [sp, #124]
 3743 1a3c 2191     		str	r1, [sp, #132]
ARM GAS  C:\Users\PRESID~1\AppData\Local\Temp\ccgd5bvc.s 			page 80


 3744 1a3e 1C90     		str	r0, [sp, #112]
 3745 1a40 1B94     		str	r4, [sp, #108]
 3746 1a42 1895     		str	r5, [sp, #96]
 3747 1a44 1796     		str	r6, [sp, #92]
 3748 1a46 1697     		str	r7, [sp, #88]
 3749 1a48 2D93     		str	r3, [sp, #180]
 3750 1a4a 159B     		ldr	r3, [sp, #84]
 3751 1a4c 1A93     		str	r3, [sp, #104]
 3752 1a4e CDE90F12 		strd	r1, r2, [sp, #60]
 3753 1a52 CDE90D40 		strd	r4, r0, [sp, #52]
 3754 1a56 CDE90A56 		strd	r5, r6, [sp, #40]
 3755 1a5a 0C97     		str	r7, [sp, #48]
 3756 1a5c FEF7A2BE 		b	.L85
 3757              	.LVL299:
 3758              	.L193:
 3759 1a60 9DF82FC1 		ldrb	ip, [sp, #303]	@ zero_extendqisi2
 3760 1a64 CDF8D8C0 		str	ip, [sp, #216]
 3761 1a68 9DF82EC1 		ldrb	ip, [sp, #302]	@ zero_extendqisi2
 3762 1a6c CDF8D4C0 		str	ip, [sp, #212]
 3763 1a70 9DF82DC1 		ldrb	ip, [sp, #301]	@ zero_extendqisi2
 3764 1a74 CDF8D0C0 		str	ip, [sp, #208]
 3765 1a78 9DF82CC1 		ldrb	ip, [sp, #300]	@ zero_extendqisi2
 3766 1a7c CDF8CCC0 		str	ip, [sp, #204]
 3767 1a80 9DF82BC1 		ldrb	ip, [sp, #299]	@ zero_extendqisi2
 3768 1a84 9DF84C31 		ldrb	r3, [sp, #332]	@ zero_extendqisi2
 3769 1a88 CDF8C8C0 		str	ip, [sp, #200]
 3770 1a8c 9DF82AC1 		ldrb	ip, [sp, #298]	@ zero_extendqisi2
 3771 1a90 9DF84921 		ldrb	r2, [sp, #329]	@ zero_extendqisi2
 3772 1a94 9DF84811 		ldrb	r1, [sp, #328]	@ zero_extendqisi2
 3773 1a98 9DF84701 		ldrb	r0, [sp, #327]	@ zero_extendqisi2
 3774 1a9c 9DF84A41 		ldrb	r4, [sp, #330]	@ zero_extendqisi2
 3775 1aa0 9DF84B51 		ldrb	r5, [sp, #331]	@ zero_extendqisi2
 3776 1aa4 9DF84F61 		ldrb	r6, [sp, #335]	@ zero_extendqisi2
 3777 1aa8 9DF84E71 		ldrb	r7, [sp, #334]	@ zero_extendqisi2
 3778 1aac 1593     		str	r3, [sp, #84]
 3779 1aae CDF8C4C0 		str	ip, [sp, #196]
 3780 1ab2 9DF84D31 		ldrb	r3, [sp, #333]	@ zero_extendqisi2
 3781 1ab6 9DF829C1 		ldrb	ip, [sp, #297]	@ zero_extendqisi2
 3782 1aba 1693     		str	r3, [sp, #88]
 3783 1abc 1F92     		str	r2, [sp, #124]
 3784 1abe 2191     		str	r1, [sp, #132]
 3785 1ac0 2090     		str	r0, [sp, #128]
 3786 1ac2 1C94     		str	r4, [sp, #112]
 3787 1ac4 1B95     		str	r5, [sp, #108]
 3788 1ac6 1896     		str	r6, [sp, #96]
 3789 1ac8 1797     		str	r7, [sp, #92]
 3790 1aca CDF8C0C0 		str	ip, [sp, #192]
 3791 1ace 9DF828C1 		ldrb	ip, [sp, #296]	@ zero_extendqisi2
 3792 1ad2 159B     		ldr	r3, [sp, #84]
 3793 1ad4 CDF8B4C0 		str	ip, [sp, #180]
 3794 1ad8 1A93     		str	r3, [sp, #104]
 3795 1ada 9DF827C1 		ldrb	ip, [sp, #295]	@ zero_extendqisi2
 3796 1ade 169B     		ldr	r3, [sp, #88]
 3797 1ae0 CDF8B0C0 		str	ip, [sp, #176]
 3798 1ae4 CDE90F12 		strd	r1, r2, [sp, #60]
 3799 1ae8 1190     		str	r0, [sp, #68]
 3800 1aea CDE90D54 		strd	r5, r4, [sp, #52]
ARM GAS  C:\Users\PRESID~1\AppData\Local\Temp\ccgd5bvc.s 			page 81


 3801 1aee CDE90A67 		strd	r6, r7, [sp, #40]
 3802 1af2 0C93     		str	r3, [sp, #48]
 3803 1af4 FEF756BE 		b	.L85
 3804              	.LVL300:
 3805              	.L192:
 3806 1af8 9DF84DC1 		ldrb	ip, [sp, #333]	@ zero_extendqisi2
 3807 1afc CDF858C0 		str	ip, [sp, #88]
 3808 1b00 9DF82FC1 		ldrb	ip, [sp, #303]	@ zero_extendqisi2
 3809 1b04 CDF8D8C0 		str	ip, [sp, #216]
 3810 1b08 9DF82EC1 		ldrb	ip, [sp, #302]	@ zero_extendqisi2
 3811 1b0c CDF8D4C0 		str	ip, [sp, #212]
 3812 1b10 9DF82DC1 		ldrb	ip, [sp, #301]	@ zero_extendqisi2
 3813 1b14 CDF8D0C0 		str	ip, [sp, #208]
 3814 1b18 9DF82CC1 		ldrb	ip, [sp, #300]	@ zero_extendqisi2
 3815 1b1c 9DF84C31 		ldrb	r3, [sp, #332]	@ zero_extendqisi2
 3816 1b20 CDF8CCC0 		str	ip, [sp, #204]
 3817 1b24 9DF82BC1 		ldrb	ip, [sp, #299]	@ zero_extendqisi2
 3818 1b28 9DF84921 		ldrb	r2, [sp, #329]	@ zero_extendqisi2
 3819 1b2c 9DF84811 		ldrb	r1, [sp, #328]	@ zero_extendqisi2
 3820 1b30 9DF84601 		ldrb	r0, [sp, #326]	@ zero_extendqisi2
 3821 1b34 9DF84741 		ldrb	r4, [sp, #327]	@ zero_extendqisi2
 3822 1b38 9DF84A51 		ldrb	r5, [sp, #330]	@ zero_extendqisi2
 3823 1b3c 9DF84B61 		ldrb	r6, [sp, #331]	@ zero_extendqisi2
 3824 1b40 9DF84F71 		ldrb	r7, [sp, #335]	@ zero_extendqisi2
 3825 1b44 1593     		str	r3, [sp, #84]
 3826 1b46 CDF8C8C0 		str	ip, [sp, #200]
 3827 1b4a 9DF84E31 		ldrb	r3, [sp, #334]	@ zero_extendqisi2
 3828 1b4e 9DF82AC1 		ldrb	ip, [sp, #298]	@ zero_extendqisi2
 3829 1b52 1793     		str	r3, [sp, #92]
 3830 1b54 1F92     		str	r2, [sp, #124]
 3831 1b56 2191     		str	r1, [sp, #132]
 3832 1b58 2290     		str	r0, [sp, #136]
 3833 1b5a 2094     		str	r4, [sp, #128]
 3834 1b5c 1C95     		str	r5, [sp, #112]
 3835 1b5e 1B96     		str	r6, [sp, #108]
 3836 1b60 1897     		str	r7, [sp, #96]
 3837 1b62 CDF8C4C0 		str	ip, [sp, #196]
 3838 1b66 9DF829C1 		ldrb	ip, [sp, #297]	@ zero_extendqisi2
 3839 1b6a CDF8C0C0 		str	ip, [sp, #192]
 3840 1b6e 159B     		ldr	r3, [sp, #84]
 3841 1b70 9DF828C1 		ldrb	ip, [sp, #296]	@ zero_extendqisi2
 3842 1b74 CDF8B4C0 		str	ip, [sp, #180]
 3843 1b78 1A93     		str	r3, [sp, #104]
 3844 1b7a 9DF827C1 		ldrb	ip, [sp, #295]	@ zero_extendqisi2
 3845 1b7e 179B     		ldr	r3, [sp, #92]
 3846 1b80 CDF8B0C0 		str	ip, [sp, #176]
 3847 1b84 0B93     		str	r3, [sp, #44]
 3848 1b86 9DF826C1 		ldrb	ip, [sp, #294]	@ zero_extendqisi2
 3849 1b8a 169B     		ldr	r3, [sp, #88]
 3850 1b8c CDF8ACC0 		str	ip, [sp, #172]
 3851 1b90 CDE90F12 		strd	r1, r2, [sp, #60]
 3852 1b94 1D90     		str	r0, [sp, #116]
 3853 1b96 1194     		str	r4, [sp, #68]
 3854 1b98 CDE90D65 		strd	r6, r5, [sp, #52]
 3855 1b9c 0A97     		str	r7, [sp, #40]
 3856 1b9e 0C93     		str	r3, [sp, #48]
 3857 1ba0 FEF700BE 		b	.L85
ARM GAS  C:\Users\PRESID~1\AppData\Local\Temp\ccgd5bvc.s 			page 82


 3858              	.LVL301:
 3859              	.L191:
 3860 1ba4 9DF84EC1 		ldrb	ip, [sp, #334]	@ zero_extendqisi2
 3861 1ba8 CDF85CC0 		str	ip, [sp, #92]
 3862 1bac 9DF84DC1 		ldrb	ip, [sp, #333]	@ zero_extendqisi2
 3863 1bb0 CDF858C0 		str	ip, [sp, #88]
 3864 1bb4 9DF82FC1 		ldrb	ip, [sp, #303]	@ zero_extendqisi2
 3865 1bb8 CDF8D8C0 		str	ip, [sp, #216]
 3866 1bbc 9DF82EC1 		ldrb	ip, [sp, #302]	@ zero_extendqisi2
 3867 1bc0 CDF8D4C0 		str	ip, [sp, #212]
 3868 1bc4 9DF82DC1 		ldrb	ip, [sp, #301]	@ zero_extendqisi2
 3869 1bc8 9DF84C31 		ldrb	r3, [sp, #332]	@ zero_extendqisi2
 3870 1bcc CDF8D0C0 		str	ip, [sp, #208]
 3871 1bd0 9DF82CC1 		ldrb	ip, [sp, #300]	@ zero_extendqisi2
 3872 1bd4 9DF84521 		ldrb	r2, [sp, #325]	@ zero_extendqisi2
 3873 1bd8 9DF84911 		ldrb	r1, [sp, #329]	@ zero_extendqisi2
 3874 1bdc 9DF84801 		ldrb	r0, [sp, #328]	@ zero_extendqisi2
 3875 1be0 9DF84641 		ldrb	r4, [sp, #326]	@ zero_extendqisi2
 3876 1be4 9DF84751 		ldrb	r5, [sp, #327]	@ zero_extendqisi2
 3877 1be8 9DF84A61 		ldrb	r6, [sp, #330]	@ zero_extendqisi2
 3878 1bec 9DF84B71 		ldrb	r7, [sp, #331]	@ zero_extendqisi2
 3879 1bf0 1593     		str	r3, [sp, #84]
 3880 1bf2 CDF8CCC0 		str	ip, [sp, #204]
 3881 1bf6 9DF84F31 		ldrb	r3, [sp, #335]	@ zero_extendqisi2
 3882 1bfa 9DF82BC1 		ldrb	ip, [sp, #299]	@ zero_extendqisi2
 3883 1bfe 1893     		str	r3, [sp, #96]
 3884 1c00 2492     		str	r2, [sp, #144]
 3885 1c02 1F91     		str	r1, [sp, #124]
 3886 1c04 2190     		str	r0, [sp, #132]
 3887 1c06 2294     		str	r4, [sp, #136]
 3888 1c08 2095     		str	r5, [sp, #128]
 3889 1c0a 1C96     		str	r6, [sp, #112]
 3890 1c0c 1B97     		str	r7, [sp, #108]
 3891 1c0e CDF8C8C0 		str	ip, [sp, #200]
 3892 1c12 9DF82AC1 		ldrb	ip, [sp, #298]	@ zero_extendqisi2
 3893 1c16 CDF8C4C0 		str	ip, [sp, #196]
 3894 1c1a 9DF829C1 		ldrb	ip, [sp, #297]	@ zero_extendqisi2
 3895 1c1e CDF8C0C0 		str	ip, [sp, #192]
 3896 1c22 9DF828C1 		ldrb	ip, [sp, #296]	@ zero_extendqisi2
 3897 1c26 CDF8B4C0 		str	ip, [sp, #180]
 3898 1c2a 9DF827C1 		ldrb	ip, [sp, #295]	@ zero_extendqisi2
 3899 1c2e CDF8B0C0 		str	ip, [sp, #176]
 3900 1c32 9DF826C1 		ldrb	ip, [sp, #294]	@ zero_extendqisi2
 3901 1c36 CDF8ACC0 		str	ip, [sp, #172]
 3902 1c3a 159B     		ldr	r3, [sp, #84]
 3903 1c3c 9DF825C1 		ldrb	ip, [sp, #293]	@ zero_extendqisi2
 3904 1c40 CDF8A8C0 		str	ip, [sp, #168]
 3905 1c44 1A93     		str	r3, [sp, #104]
 3906 1c46 1E92     		str	r2, [sp, #120]
 3907 1c48 CDE90F01 		strd	r0, r1, [sp, #60]
 3908 1c4c 1D94     		str	r4, [sp, #116]
 3909 1c4e 1195     		str	r5, [sp, #68]
 3910 1c50 CDE90D76 		strd	r7, r6, [sp, #52]
 3911 1c54 08E5     		b	.L172
 3912              	.LVL302:
 3913              	.L190:
 3914 1c56 9DF84FC1 		ldrb	ip, [sp, #335]	@ zero_extendqisi2
ARM GAS  C:\Users\PRESID~1\AppData\Local\Temp\ccgd5bvc.s 			page 83


 3915 1c5a CDF860C0 		str	ip, [sp, #96]
 3916 1c5e 9DF84EC1 		ldrb	ip, [sp, #334]	@ zero_extendqisi2
 3917 1c62 CDF85CC0 		str	ip, [sp, #92]
 3918 1c66 9DF84DC1 		ldrb	ip, [sp, #333]	@ zero_extendqisi2
 3919 1c6a CDF858C0 		str	ip, [sp, #88]
 3920 1c6e 9DF82FC1 		ldrb	ip, [sp, #303]	@ zero_extendqisi2
 3921 1c72 CDF8D8C0 		str	ip, [sp, #216]
 3922 1c76 9DF82EC1 		ldrb	ip, [sp, #302]	@ zero_extendqisi2
 3923 1c7a 9DF84C31 		ldrb	r3, [sp, #332]	@ zero_extendqisi2
 3924 1c7e CDF8D4C0 		str	ip, [sp, #212]
 3925 1c82 9DF82DC1 		ldrb	ip, [sp, #301]	@ zero_extendqisi2
 3926 1c86 9DF84521 		ldrb	r2, [sp, #325]	@ zero_extendqisi2
 3927 1c8a 9DF84411 		ldrb	r1, [sp, #324]	@ zero_extendqisi2
 3928 1c8e 9DF84901 		ldrb	r0, [sp, #329]	@ zero_extendqisi2
 3929 1c92 9DF84841 		ldrb	r4, [sp, #328]	@ zero_extendqisi2
 3930 1c96 9DF84651 		ldrb	r5, [sp, #326]	@ zero_extendqisi2
 3931 1c9a 9DF84761 		ldrb	r6, [sp, #327]	@ zero_extendqisi2
 3932 1c9e 9DF84A71 		ldrb	r7, [sp, #330]	@ zero_extendqisi2
 3933 1ca2 1593     		str	r3, [sp, #84]
 3934 1ca4 CDF8D0C0 		str	ip, [sp, #208]
 3935 1ca8 9DF84B31 		ldrb	r3, [sp, #331]	@ zero_extendqisi2
 3936 1cac 9DF82CC1 		ldrb	ip, [sp, #300]	@ zero_extendqisi2
 3937 1cb0 1B93     		str	r3, [sp, #108]
 3938 1cb2 2492     		str	r2, [sp, #144]
 3939 1cb4 2591     		str	r1, [sp, #148]
 3940 1cb6 1F90     		str	r0, [sp, #124]
 3941 1cb8 2194     		str	r4, [sp, #132]
 3942 1cba 2295     		str	r5, [sp, #136]
 3943 1cbc 2096     		str	r6, [sp, #128]
 3944 1cbe 1C97     		str	r7, [sp, #112]
 3945 1cc0 CDF8CCC0 		str	ip, [sp, #204]
 3946 1cc4 9DF82BC1 		ldrb	ip, [sp, #299]	@ zero_extendqisi2
 3947 1cc8 CDF8C8C0 		str	ip, [sp, #200]
 3948 1ccc 9DF82AC1 		ldrb	ip, [sp, #298]	@ zero_extendqisi2
 3949 1cd0 CDF8C4C0 		str	ip, [sp, #196]
 3950 1cd4 9DF829C1 		ldrb	ip, [sp, #297]	@ zero_extendqisi2
 3951 1cd8 CDF8C0C0 		str	ip, [sp, #192]
 3952 1cdc 9DF828C1 		ldrb	ip, [sp, #296]	@ zero_extendqisi2
 3953 1ce0 CDF8B4C0 		str	ip, [sp, #180]
 3954 1ce4 9DF827C1 		ldrb	ip, [sp, #295]	@ zero_extendqisi2
 3955 1ce8 CDF8B0C0 		str	ip, [sp, #176]
 3956 1cec 9DF826C1 		ldrb	ip, [sp, #294]	@ zero_extendqisi2
 3957 1cf0 CDF8ACC0 		str	ip, [sp, #172]
 3958 1cf4 9DF825C1 		ldrb	ip, [sp, #293]	@ zero_extendqisi2
 3959 1cf8 CDF8A8C0 		str	ip, [sp, #168]
 3960 1cfc 159B     		ldr	r3, [sp, #84]
 3961 1cfe 9DF824C1 		ldrb	ip, [sp, #292]	@ zero_extendqisi2
 3962 1d02 CDF8A0C0 		str	ip, [sp, #160]
 3963 1d06 1A93     		str	r3, [sp, #104]
 3964 1d08 1E92     		str	r2, [sp, #120]
 3965 1d0a 1391     		str	r1, [sp, #76]
 3966 1d0c CDE90F40 		strd	r4, r0, [sp, #60]
 3967 1d10 1D95     		str	r5, [sp, #116]
 3968 1d12 1196     		str	r6, [sp, #68]
 3969 1d14 0E97     		str	r7, [sp, #56]
 3970 1d16 A5E4     		b	.L171
 3971              	.LVL303:
ARM GAS  C:\Users\PRESID~1\AppData\Local\Temp\ccgd5bvc.s 			page 84


 3972              	.L189:
 3973 1d18 9DF84BC1 		ldrb	ip, [sp, #331]	@ zero_extendqisi2
 3974 1d1c CDF86CC0 		str	ip, [sp, #108]
 3975 1d20 9DF84FC1 		ldrb	ip, [sp, #335]	@ zero_extendqisi2
 3976 1d24 CDF860C0 		str	ip, [sp, #96]
 3977 1d28 9DF84EC1 		ldrb	ip, [sp, #334]	@ zero_extendqisi2
 3978 1d2c CDF85CC0 		str	ip, [sp, #92]
 3979 1d30 9DF84DC1 		ldrb	ip, [sp, #333]	@ zero_extendqisi2
 3980 1d34 CDF858C0 		str	ip, [sp, #88]
 3981 1d38 9DF82FC1 		ldrb	ip, [sp, #303]	@ zero_extendqisi2
 3982 1d3c 9DF84C31 		ldrb	r3, [sp, #332]	@ zero_extendqisi2
 3983 1d40 CDF8D8C0 		str	ip, [sp, #216]
 3984 1d44 9DF82EC1 		ldrb	ip, [sp, #302]	@ zero_extendqisi2
 3985 1d48 9DF84521 		ldrb	r2, [sp, #325]	@ zero_extendqisi2
 3986 1d4c 9DF84411 		ldrb	r1, [sp, #324]	@ zero_extendqisi2
 3987 1d50 9DF84301 		ldrb	r0, [sp, #323]	@ zero_extendqisi2
 3988 1d54 9DF84941 		ldrb	r4, [sp, #329]	@ zero_extendqisi2
 3989 1d58 9DF84851 		ldrb	r5, [sp, #328]	@ zero_extendqisi2
 3990 1d5c 9DF84661 		ldrb	r6, [sp, #326]	@ zero_extendqisi2
 3991 1d60 9DF84771 		ldrb	r7, [sp, #327]	@ zero_extendqisi2
 3992 1d64 1593     		str	r3, [sp, #84]
 3993 1d66 CDF8D4C0 		str	ip, [sp, #212]
 3994 1d6a 9DF84A31 		ldrb	r3, [sp, #330]	@ zero_extendqisi2
 3995 1d6e 9DF82DC1 		ldrb	ip, [sp, #301]	@ zero_extendqisi2
 3996 1d72 1C93     		str	r3, [sp, #112]
 3997 1d74 2492     		str	r2, [sp, #144]
 3998 1d76 2591     		str	r1, [sp, #148]
 3999 1d78 2990     		str	r0, [sp, #164]
 4000 1d7a 1F94     		str	r4, [sp, #124]
 4001 1d7c 2195     		str	r5, [sp, #132]
 4002 1d7e 2296     		str	r6, [sp, #136]
 4003 1d80 2097     		str	r7, [sp, #128]
 4004 1d82 CDF8D0C0 		str	ip, [sp, #208]
 4005 1d86 9DF82CC1 		ldrb	ip, [sp, #300]	@ zero_extendqisi2
 4006 1d8a CDF8CCC0 		str	ip, [sp, #204]
 4007 1d8e 9DF82BC1 		ldrb	ip, [sp, #299]	@ zero_extendqisi2
 4008 1d92 CDF8C8C0 		str	ip, [sp, #200]
 4009 1d96 9DF82AC1 		ldrb	ip, [sp, #298]	@ zero_extendqisi2
 4010 1d9a CDF8C4C0 		str	ip, [sp, #196]
 4011 1d9e 9DF829C1 		ldrb	ip, [sp, #297]	@ zero_extendqisi2
 4012 1da2 CDF8C0C0 		str	ip, [sp, #192]
 4013 1da6 9DF828C1 		ldrb	ip, [sp, #296]	@ zero_extendqisi2
 4014 1daa CDF8B4C0 		str	ip, [sp, #180]
 4015 1dae 9DF827C1 		ldrb	ip, [sp, #295]	@ zero_extendqisi2
 4016 1db2 CDF8B0C0 		str	ip, [sp, #176]
 4017 1db6 9DF826C1 		ldrb	ip, [sp, #294]	@ zero_extendqisi2
 4018 1dba CDF8ACC0 		str	ip, [sp, #172]
 4019 1dbe 9DF825C1 		ldrb	ip, [sp, #293]	@ zero_extendqisi2
 4020 1dc2 159B     		ldr	r3, [sp, #84]
 4021 1dc4 CDF8A8C0 		str	ip, [sp, #168]
 4022 1dc8 9DF824C1 		ldrb	ip, [sp, #292]	@ zero_extendqisi2
 4023 1dcc CDF8A0C0 		str	ip, [sp, #160]
 4024 1dd0 1A93     		str	r3, [sp, #104]
 4025 1dd2 9DF823C1 		ldrb	ip, [sp, #291]	@ zero_extendqisi2
 4026 1dd6 1C9B     		ldr	r3, [sp, #112]
 4027 1dd8 CDF89CC0 		str	ip, [sp, #156]
 4028 1ddc 1E92     		str	r2, [sp, #120]
ARM GAS  C:\Users\PRESID~1\AppData\Local\Temp\ccgd5bvc.s 			page 85


 4029 1dde CDE91310 		strd	r1, r0, [sp, #76]
 4030 1de2 CDE90F54 		strd	r5, r4, [sp, #60]
 4031 1de6 1D96     		str	r6, [sp, #116]
 4032 1de8 1197     		str	r7, [sp, #68]
 4033 1dea 0E93     		str	r3, [sp, #56]
 4034 1dec 3AE4     		b	.L171
 4035              	.LBE255:
 4036              	.LBE257:
 4037              	.LBE312:
 4038              		.cfi_endproc
 4039              	.LFE4:
 4041              		.align	1
 4042 1dee 00BF     		.p2align 2,,3
 4043              		.global	INT_ADD
 4044              		.syntax unified
 4045              		.thumb
 4046              		.thumb_func
 4047              		.fpu softvfp
 4049              	INT_ADD:
 4050              	.LFB6:
 185:E:\NeuOrga\Programmieren\c_cpp\github_os\input\src\os_base\os_common.c ****    sint8 pos;
 4051              		.loc 1 185 0
 4052              		.cfi_startproc
 4053              		@ args = 0, pretend = 0, frame = 0
 4054              		@ frame_needed = 0, uses_anonymous_args = 0
 4055              		@ link register save eliminated.
 4056              	.LVL304:
 4057 1df0 30B4     		push	{r4, r5}
 4058              		.cfi_def_cfa_offset 8
 4059              		.cfi_offset 4, -8
 4060              		.cfi_offset 5, -4
 4061              	.LBB313:
 191:E:\NeuOrga\Programmieren\c_cpp\github_os\input\src\os_base\os_common.c ****       Summe->number[pos] = tmp_sum & 0xFFu;
 4062              		.loc 1 191 0
 4063 1df2 CB7B     		ldrb	r3, [r1, #15]	@ zero_extendqisi2
 4064 1df4 D47B     		ldrb	r4, [r2, #15]	@ zero_extendqisi2
 4065              	.LVL305:
 192:E:\NeuOrga\Programmieren\c_cpp\github_os\input\src\os_base\os_common.c ****       carry = tmp_sum & 0xFF00u;
 4066              		.loc 1 192 0
 4067 1df6 1C44     		add	r4, r4, r3
 4068              	.LVL306:
 4069 1df8 C473     		strb	r4, [r0, #15]
 4070              	.LVL307:
 191:E:\NeuOrga\Programmieren\c_cpp\github_os\input\src\os_base\os_common.c ****       Summe->number[pos] = tmp_sum & 0xFFu;
 4071              		.loc 1 191 0
 4072 1dfa 957B     		ldrb	r5, [r2, #14]	@ zero_extendqisi2
 4073 1dfc 8B7B     		ldrb	r3, [r1, #14]	@ zero_extendqisi2
 193:E:\NeuOrga\Programmieren\c_cpp\github_os\input\src\os_base\os_common.c ****    }
 4074              		.loc 1 193 0
 4075 1dfe 24F0FF04 		bic	r4, r4, #255
 191:E:\NeuOrga\Programmieren\c_cpp\github_os\input\src\os_base\os_common.c ****       Summe->number[pos] = tmp_sum & 0xFFu;
 4076              		.loc 1 191 0
 4077 1e02 2B44     		add	r3, r3, r5
 4078 1e04 2344     		add	r3, r3, r4
 4079              	.LVL308:
 192:E:\NeuOrga\Programmieren\c_cpp\github_os\input\src\os_base\os_common.c ****       carry = tmp_sum & 0xFF00u;
 4080              		.loc 1 192 0
ARM GAS  C:\Users\PRESID~1\AppData\Local\Temp\ccgd5bvc.s 			page 86


 4081 1e06 8373     		strb	r3, [r0, #14]
 191:E:\NeuOrga\Programmieren\c_cpp\github_os\input\src\os_base\os_common.c ****       Summe->number[pos] = tmp_sum & 0xFFu;
 4082              		.loc 1 191 0
 4083 1e08 557B     		ldrb	r5, [r2, #13]	@ zero_extendqisi2
 4084 1e0a 4C7B     		ldrb	r4, [r1, #13]	@ zero_extendqisi2
 193:E:\NeuOrga\Programmieren\c_cpp\github_os\input\src\os_base\os_common.c ****    }
 4085              		.loc 1 193 0
 4086 1e0c 03F44073 		and	r3, r3, #768
 4087              	.LVL309:
 191:E:\NeuOrga\Programmieren\c_cpp\github_os\input\src\os_base\os_common.c ****       Summe->number[pos] = tmp_sum & 0xFFu;
 4088              		.loc 1 191 0
 4089 1e10 2C44     		add	r4, r4, r5
 4090 1e12 2344     		add	r3, r3, r4
 4091              	.LVL310:
 192:E:\NeuOrga\Programmieren\c_cpp\github_os\input\src\os_base\os_common.c ****       carry = tmp_sum & 0xFF00u;
 4092              		.loc 1 192 0
 4093 1e14 4373     		strb	r3, [r0, #13]
 191:E:\NeuOrga\Programmieren\c_cpp\github_os\input\src\os_base\os_common.c ****       Summe->number[pos] = tmp_sum & 0xFFu;
 4094              		.loc 1 191 0
 4095 1e16 157B     		ldrb	r5, [r2, #12]	@ zero_extendqisi2
 4096 1e18 0C7B     		ldrb	r4, [r1, #12]	@ zero_extendqisi2
 193:E:\NeuOrga\Programmieren\c_cpp\github_os\input\src\os_base\os_common.c ****    }
 4097              		.loc 1 193 0
 4098 1e1a 03F4E063 		and	r3, r3, #1792
 4099              	.LVL311:
 191:E:\NeuOrga\Programmieren\c_cpp\github_os\input\src\os_base\os_common.c ****       Summe->number[pos] = tmp_sum & 0xFFu;
 4100              		.loc 1 191 0
 4101 1e1e 2C44     		add	r4, r4, r5
 4102 1e20 2344     		add	r3, r3, r4
 4103              	.LVL312:
 192:E:\NeuOrga\Programmieren\c_cpp\github_os\input\src\os_base\os_common.c ****       carry = tmp_sum & 0xFF00u;
 4104              		.loc 1 192 0
 4105 1e22 0373     		strb	r3, [r0, #12]
 191:E:\NeuOrga\Programmieren\c_cpp\github_os\input\src\os_base\os_common.c ****       Summe->number[pos] = tmp_sum & 0xFFu;
 4106              		.loc 1 191 0
 4107 1e24 D57A     		ldrb	r5, [r2, #11]	@ zero_extendqisi2
 4108 1e26 CC7A     		ldrb	r4, [r1, #11]	@ zero_extendqisi2
 193:E:\NeuOrga\Programmieren\c_cpp\github_os\input\src\os_base\os_common.c ****    }
 4109              		.loc 1 193 0
 4110 1e28 03F47063 		and	r3, r3, #3840
 4111              	.LVL313:
 191:E:\NeuOrga\Programmieren\c_cpp\github_os\input\src\os_base\os_common.c ****       Summe->number[pos] = tmp_sum & 0xFFu;
 4112              		.loc 1 191 0
 4113 1e2c 2C44     		add	r4, r4, r5
 4114 1e2e 2344     		add	r3, r3, r4
 4115              	.LVL314:
 192:E:\NeuOrga\Programmieren\c_cpp\github_os\input\src\os_base\os_common.c ****       carry = tmp_sum & 0xFF00u;
 4116              		.loc 1 192 0
 4117 1e30 C372     		strb	r3, [r0, #11]
 4118              	.LVL315:
 191:E:\NeuOrga\Programmieren\c_cpp\github_os\input\src\os_base\os_common.c ****       Summe->number[pos] = tmp_sum & 0xFFu;
 4119              		.loc 1 191 0
 4120 1e32 8C7A     		ldrb	r4, [r1, #10]	@ zero_extendqisi2
 4121 1e34 957A     		ldrb	r5, [r2, #10]	@ zero_extendqisi2
 193:E:\NeuOrga\Programmieren\c_cpp\github_os\input\src\os_base\os_common.c ****    }
 4122              		.loc 1 193 0
 4123 1e36 23F0FF03 		bic	r3, r3, #255
ARM GAS  C:\Users\PRESID~1\AppData\Local\Temp\ccgd5bvc.s 			page 87


 4124              	.LVL316:
 4125 1e3a 2344     		add	r3, r3, r4
 191:E:\NeuOrga\Programmieren\c_cpp\github_os\input\src\os_base\os_common.c ****       Summe->number[pos] = tmp_sum & 0xFFu;
 4126              		.loc 1 191 0
 4127 1e3c 2B44     		add	r3, r3, r5
 4128              	.LVL317:
 192:E:\NeuOrga\Programmieren\c_cpp\github_os\input\src\os_base\os_common.c ****       carry = tmp_sum & 0xFF00u;
 4129              		.loc 1 192 0
 4130 1e3e 8372     		strb	r3, [r0, #10]
 4131              	.LVL318:
 191:E:\NeuOrga\Programmieren\c_cpp\github_os\input\src\os_base\os_common.c ****       Summe->number[pos] = tmp_sum & 0xFFu;
 4132              		.loc 1 191 0
 4133 1e40 4C7A     		ldrb	r4, [r1, #9]	@ zero_extendqisi2
 4134 1e42 557A     		ldrb	r5, [r2, #9]	@ zero_extendqisi2
 193:E:\NeuOrga\Programmieren\c_cpp\github_os\input\src\os_base\os_common.c ****    }
 4135              		.loc 1 193 0
 4136 1e44 23F0FF03 		bic	r3, r3, #255
 4137              	.LVL319:
 4138 1e48 1C44     		add	r4, r4, r3
 191:E:\NeuOrga\Programmieren\c_cpp\github_os\input\src\os_base\os_common.c ****       Summe->number[pos] = tmp_sum & 0xFFu;
 4139              		.loc 1 191 0
 4140 1e4a 2C44     		add	r4, r4, r5
 4141 1e4c A4B2     		uxth	r4, r4
 4142              	.LVL320:
 192:E:\NeuOrga\Programmieren\c_cpp\github_os\input\src\os_base\os_common.c ****       carry = tmp_sum & 0xFF00u;
 4143              		.loc 1 192 0
 4144 1e4e 4472     		strb	r4, [r0, #9]
 4145              	.LVL321:
 191:E:\NeuOrga\Programmieren\c_cpp\github_os\input\src\os_base\os_common.c ****       Summe->number[pos] = tmp_sum & 0xFFu;
 4146              		.loc 1 191 0
 4147 1e50 0B7A     		ldrb	r3, [r1, #8]	@ zero_extendqisi2
 4148 1e52 157A     		ldrb	r5, [r2, #8]	@ zero_extendqisi2
 193:E:\NeuOrga\Programmieren\c_cpp\github_os\input\src\os_base\os_common.c ****    }
 4149              		.loc 1 193 0
 4150 1e54 24F0FF04 		bic	r4, r4, #255
 4151              	.LVL322:
 4152 1e58 2344     		add	r3, r3, r4
 191:E:\NeuOrga\Programmieren\c_cpp\github_os\input\src\os_base\os_common.c ****       Summe->number[pos] = tmp_sum & 0xFFu;
 4153              		.loc 1 191 0
 4154 1e5a 15FA83F3 		uxtah	r3, r5, r3
 4155 1e5e 9BB2     		uxth	r3, r3
 4156              	.LVL323:
 192:E:\NeuOrga\Programmieren\c_cpp\github_os\input\src\os_base\os_common.c ****       carry = tmp_sum & 0xFF00u;
 4157              		.loc 1 192 0
 4158 1e60 0372     		strb	r3, [r0, #8]
 4159              	.LVL324:
 191:E:\NeuOrga\Programmieren\c_cpp\github_os\input\src\os_base\os_common.c ****       Summe->number[pos] = tmp_sum & 0xFFu;
 4160              		.loc 1 191 0
 4161 1e62 CC79     		ldrb	r4, [r1, #7]	@ zero_extendqisi2
 4162 1e64 D579     		ldrb	r5, [r2, #7]	@ zero_extendqisi2
 193:E:\NeuOrga\Programmieren\c_cpp\github_os\input\src\os_base\os_common.c ****    }
 4163              		.loc 1 193 0
 4164 1e66 23F0FF03 		bic	r3, r3, #255
 4165              	.LVL325:
 4166 1e6a 1C44     		add	r4, r4, r3
 191:E:\NeuOrga\Programmieren\c_cpp\github_os\input\src\os_base\os_common.c ****       Summe->number[pos] = tmp_sum & 0xFFu;
 4167              		.loc 1 191 0
ARM GAS  C:\Users\PRESID~1\AppData\Local\Temp\ccgd5bvc.s 			page 88


 4168 1e6c 15FA84F4 		uxtah	r4, r5, r4
 4169 1e70 A4B2     		uxth	r4, r4
 4170              	.LVL326:
 192:E:\NeuOrga\Programmieren\c_cpp\github_os\input\src\os_base\os_common.c ****       carry = tmp_sum & 0xFF00u;
 4171              		.loc 1 192 0
 4172 1e72 C471     		strb	r4, [r0, #7]
 4173              	.LVL327:
 191:E:\NeuOrga\Programmieren\c_cpp\github_os\input\src\os_base\os_common.c ****       Summe->number[pos] = tmp_sum & 0xFFu;
 4174              		.loc 1 191 0
 4175 1e74 8B79     		ldrb	r3, [r1, #6]	@ zero_extendqisi2
 4176 1e76 9579     		ldrb	r5, [r2, #6]	@ zero_extendqisi2
 193:E:\NeuOrga\Programmieren\c_cpp\github_os\input\src\os_base\os_common.c ****    }
 4177              		.loc 1 193 0
 4178 1e78 24F0FF04 		bic	r4, r4, #255
 4179              	.LVL328:
 4180 1e7c 2344     		add	r3, r3, r4
 191:E:\NeuOrga\Programmieren\c_cpp\github_os\input\src\os_base\os_common.c ****       Summe->number[pos] = tmp_sum & 0xFFu;
 4181              		.loc 1 191 0
 4182 1e7e 15FA83F3 		uxtah	r3, r5, r3
 4183 1e82 9BB2     		uxth	r3, r3
 4184              	.LVL329:
 192:E:\NeuOrga\Programmieren\c_cpp\github_os\input\src\os_base\os_common.c ****       carry = tmp_sum & 0xFF00u;
 4185              		.loc 1 192 0
