ARM GAS  C:\Users\PRESID~1\AppData\Local\Temp\ccQZplPi.s 			page 1


   1              		.syntax unified
   2              		.cpu cortex-m4
   3              		.fpu softvfp
   4              		.eabi_attribute 20, 1
   5              		.eabi_attribute 21, 1
   6              		.eabi_attribute 23, 3
   7              		.eabi_attribute 24, 1
   8              		.eabi_attribute 25, 1
   9              		.eabi_attribute 26, 1
  10              		.eabi_attribute 30, 6
  11              		.eabi_attribute 34, 1
  12              		.eabi_attribute 18, 4
  13              		.thumb
  14              		.file	"os_exception.c"
  15              		.text
  16              	.Ltext0:
  17              		.cfi_sections	.debug_frame
  18              		.align	2
  19              		.thumb
  20              		.thumb_func
  22              	OS_Exception_Read_Status_Registers:
  23              	.LFB0:
  24              		.file 1 "E:\\NeuOrga\\Programmieren\\c_cpp\\github_os\\input\\src\\os_base\\os_exception.c"
   1:E:\NeuOrga\Programmieren\c_cpp\github_os\input\src\os_base\os_exception.c **** #include "os_firstinc.h"
   2:E:\NeuOrga\Programmieren\c_cpp\github_os\input\src\os_base\os_exception.c **** #include "os_exception_isr_handler.h"
   3:E:\NeuOrga\Programmieren\c_cpp\github_os\input\src\os_base\os_exception.c **** #include "os_shutdown.h"
   4:E:\NeuOrga\Programmieren\c_cpp\github_os\input\src\os_base\os_exception.c **** #include "os_start_os.h"
   5:E:\NeuOrga\Programmieren\c_cpp\github_os\input\src\os_base\os_exception.c **** #include "os_ram.h"
   6:E:\NeuOrga\Programmieren\c_cpp\github_os\input\src\os_base\os_exception.c **** 
   7:E:\NeuOrga\Programmieren\c_cpp\github_os\input\src\os_base\os_exception.c **** /* the Interrupt table is set via the code linked to 0x00 and following ...   */
   8:E:\NeuOrga\Programmieren\c_cpp\github_os\input\src\os_base\os_exception.c **** /* interrupts are disabled during RESET exception and will be enabled by task system */
   9:E:\NeuOrga\Programmieren\c_cpp\github_os\input\src\os_base\os_exception.c **** Local OS_Exception_Read_Status_Registers(void)
  10:E:\NeuOrga\Programmieren\c_cpp\github_os\input\src\os_base\os_exception.c **** {
  25              		.loc 1 10 0
  26              		.cfi_startproc
  27              		@ args = 0, pretend = 0, frame = 0
  28              		@ frame_needed = 1, uses_anonymous_args = 0
  29              		@ link register save eliminated.
  30 0000 80B4     		push	{r7}
  31              		.cfi_def_cfa_offset 4
  32              		.cfi_offset 7, -4
  33 0002 00AF     		add	r7, sp, #0
  34              		.cfi_def_cfa_register 7
  11:E:\NeuOrga\Programmieren\c_cpp\github_os\input\src\os_base\os_exception.c ****    #define HARDFAULT_STATUS_REG ((volatile uint32*)0xE000ED2Cu)
  12:E:\NeuOrga\Programmieren\c_cpp\github_os\input\src\os_base\os_exception.c ****    #define FAULT_STATUS_REG     ((volatile uint32*)0xE000ED28u)
  13:E:\NeuOrga\Programmieren\c_cpp\github_os\input\src\os_base\os_exception.c ****    #define MEM_FAULT_ADDR_REG   ((volatile uint32*)0xE000ED34u) 
  14:E:\NeuOrga\Programmieren\c_cpp\github_os\input\src\os_base\os_exception.c ****    #define BUS_FAULT_ADDR_REG   ((volatile uint32*)0xE000ED38u)
  15:E:\NeuOrga\Programmieren\c_cpp\github_os\input\src\os_base\os_exception.c ****    #define AUX_FAULT_STATUS_REG ((volatile uint32*)0xE000ED3Cu)
  16:E:\NeuOrga\Programmieren\c_cpp\github_os\input\src\os_base\os_exception.c ****    VAR_HARDFAULT_STATUS_REG = *HARDFAULT_STATUS_REG;
  35              		.loc 1 16 0
  36 0004 0C4B     		ldr	r3, .L2
  37 0006 1B68     		ldr	r3, [r3]
  38 0008 0C4A     		ldr	r2, .L2+4
  39 000a 1360     		str	r3, [r2]
  17:E:\NeuOrga\Programmieren\c_cpp\github_os\input\src\os_base\os_exception.c ****    VAR_FAULT_STATUS_REG     = *FAULT_STATUS_REG;
  40              		.loc 1 17 0
  41 000c 0C4B     		ldr	r3, .L2+8
ARM GAS  C:\Users\PRESID~1\AppData\Local\Temp\ccQZplPi.s 			page 2


  42 000e 1B68     		ldr	r3, [r3]
  43 0010 0C4A     		ldr	r2, .L2+12
  44 0012 1360     		str	r3, [r2]
  18:E:\NeuOrga\Programmieren\c_cpp\github_os\input\src\os_base\os_exception.c ****    VAR_MEM_FAULT_ADDR_REG   = *MEM_FAULT_ADDR_REG;
  45              		.loc 1 18 0
  46 0014 0C4B     		ldr	r3, .L2+16
  47 0016 1B68     		ldr	r3, [r3]
  48 0018 0C4A     		ldr	r2, .L2+20
  49 001a 1360     		str	r3, [r2]
  19:E:\NeuOrga\Programmieren\c_cpp\github_os\input\src\os_base\os_exception.c ****    VAR_BUS_FAULT_ADDR_REG   = *BUS_FAULT_ADDR_REG;
  50              		.loc 1 19 0
  51 001c 0C4B     		ldr	r3, .L2+24
  52 001e 1B68     		ldr	r3, [r3]
  53 0020 0C4A     		ldr	r2, .L2+28
  54 0022 1360     		str	r3, [r2]
  20:E:\NeuOrga\Programmieren\c_cpp\github_os\input\src\os_base\os_exception.c ****    VAR_AUX_FAULT_STATUS_REG = *AUX_FAULT_STATUS_REG; 
  55              		.loc 1 20 0
  56 0024 0C4B     		ldr	r3, .L2+32
  57 0026 1B68     		ldr	r3, [r3]
  58 0028 0C4A     		ldr	r2, .L2+36
  59 002a 1360     		str	r3, [r2]
  21:E:\NeuOrga\Programmieren\c_cpp\github_os\input\src\os_base\os_exception.c **** }
  60              		.loc 1 21 0
  61 002c 1846     		mov	r0, r3
  62 002e BD46     		mov	sp, r7
  63              		.cfi_def_cfa_register 13
  64              		@ sp needed
  65 0030 5DF8047B 		ldr	r7, [sp], #4
  66              		.cfi_restore 7
  67              		.cfi_def_cfa_offset 0
  68 0034 7047     		bx	lr
  69              	.L3:
  70 0036 00BF     		.align	2
  71              	.L2:
  72 0038 2CED00E0 		.word	-536810196
  73 003c 00000000 		.word	VAR_HARDFAULT_STATUS_REG
  74 0040 28ED00E0 		.word	-536810200
  75 0044 00000000 		.word	VAR_FAULT_STATUS_REG
  76 0048 34ED00E0 		.word	-536810188
  77 004c 00000000 		.word	VAR_MEM_FAULT_ADDR_REG
  78 0050 38ED00E0 		.word	-536810184
  79 0054 00000000 		.word	VAR_BUS_FAULT_ADDR_REG
  80 0058 3CED00E0 		.word	-536810180
  81 005c 00000000 		.word	VAR_AUX_FAULT_STATUS_REG
  82              		.cfi_endproc
  83              	.LFE0:
  85              		.align	2
  86              		.global	OS_Exception_HARDFAULT
  87              		.thumb
  88              		.thumb_func
  90              	OS_Exception_HARDFAULT:
  91              	.LFB1:
  22:E:\NeuOrga\Programmieren\c_cpp\github_os\input\src\os_base\os_exception.c **** 
  23:E:\NeuOrga\Programmieren\c_cpp\github_os\input\src\os_base\os_exception.c **** 
  24:E:\NeuOrga\Programmieren\c_cpp\github_os\input\src\os_base\os_exception.c **** void OS_Exception_HARDFAULT(void)
  25:E:\NeuOrga\Programmieren\c_cpp\github_os\input\src\os_base\os_exception.c **** {
  92              		.loc 1 25 0
ARM GAS  C:\Users\PRESID~1\AppData\Local\Temp\ccQZplPi.s 			page 3


  93              		.cfi_startproc
  94              		@ args = 0, pretend = 0, frame = 0
  95              		@ frame_needed = 1, uses_anonymous_args = 0
  96 0060 80B5     		push	{r7, lr}
  97              		.cfi_def_cfa_offset 8
  98              		.cfi_offset 7, -8
  99              		.cfi_offset 14, -4
 100 0062 00AF     		add	r7, sp, #0
 101              		.cfi_def_cfa_register 7
  26:E:\NeuOrga\Programmieren\c_cpp\github_os\input\src\os_base\os_exception.c ****    OS_Exception_Read_Status_Registers();
 102              		.loc 1 26 0
 103 0064 FFF7CCFF 		bl	OS_Exception_Read_Status_Registers
 104              	.L5:
  27:E:\NeuOrga\Programmieren\c_cpp\github_os\input\src\os_base\os_exception.c ****    while(1){}
 105              		.loc 1 27 0 discriminator 1
 106 0068 FEE7     		b	.L5
 107              		.cfi_endproc
 108              	.LFE1:
 110 006a 00BF     		.align	2
 111              		.global	OS_Exception_NMI
 112              		.thumb
 113              		.thumb_func
 115              	OS_Exception_NMI:
 116              	.LFB2:
  28:E:\NeuOrga\Programmieren\c_cpp\github_os\input\src\os_base\os_exception.c ****    OS_SHUTDOWN(os_reset_hardreset);
  29:E:\NeuOrga\Programmieren\c_cpp\github_os\input\src\os_base\os_exception.c **** }
  30:E:\NeuOrga\Programmieren\c_cpp\github_os\input\src\os_base\os_exception.c **** 
  31:E:\NeuOrga\Programmieren\c_cpp\github_os\input\src\os_base\os_exception.c **** 
  32:E:\NeuOrga\Programmieren\c_cpp\github_os\input\src\os_base\os_exception.c **** void OS_Exception_NMI(void)
  33:E:\NeuOrga\Programmieren\c_cpp\github_os\input\src\os_base\os_exception.c **** {
 117              		.loc 1 33 0
 118              		.cfi_startproc
 119              		@ args = 0, pretend = 0, frame = 0
 120              		@ frame_needed = 1, uses_anonymous_args = 0
 121 006c 80B5     		push	{r7, lr}
 122              		.cfi_def_cfa_offset 8
 123              		.cfi_offset 7, -8
 124              		.cfi_offset 14, -4
 125 006e 00AF     		add	r7, sp, #0
 126              		.cfi_def_cfa_register 7
  34:E:\NeuOrga\Programmieren\c_cpp\github_os\input\src\os_base\os_exception.c ****    OS_Exception_Read_Status_Registers();
 127              		.loc 1 34 0
 128 0070 FFF7C6FF 		bl	OS_Exception_Read_Status_Registers
 129              	.L7:
  35:E:\NeuOrga\Programmieren\c_cpp\github_os\input\src\os_base\os_exception.c ****    while(1){}
 130              		.loc 1 35 0 discriminator 1
 131 0074 FEE7     		b	.L7
 132              		.cfi_endproc
 133              	.LFE2:
 135 0076 00BF     		.align	2
 136              		.global	OS_Exception_SWI
 137              		.thumb
 138              		.thumb_func
 140              	OS_Exception_SWI:
 141              	.LFB3:
  36:E:\NeuOrga\Programmieren\c_cpp\github_os\input\src\os_base\os_exception.c ****    OS_SHUTDOWN(os_reset_hardreset);
  37:E:\NeuOrga\Programmieren\c_cpp\github_os\input\src\os_base\os_exception.c **** }
ARM GAS  C:\Users\PRESID~1\AppData\Local\Temp\ccQZplPi.s 			page 4


  38:E:\NeuOrga\Programmieren\c_cpp\github_os\input\src\os_base\os_exception.c **** void OS_Exception_SWI(void)
  39:E:\NeuOrga\Programmieren\c_cpp\github_os\input\src\os_base\os_exception.c **** {
 142              		.loc 1 39 0
 143              		.cfi_startproc
 144              		@ args = 0, pretend = 0, frame = 0
 145              		@ frame_needed = 1, uses_anonymous_args = 0
 146 0078 80B5     		push	{r7, lr}
 147              		.cfi_def_cfa_offset 8
 148              		.cfi_offset 7, -8
 149              		.cfi_offset 14, -4
 150 007a 00AF     		add	r7, sp, #0
 151              		.cfi_def_cfa_register 7
  40:E:\NeuOrga\Programmieren\c_cpp\github_os\input\src\os_base\os_exception.c ****    /* Mode: Supervisor:
  41:E:\NeuOrga\Programmieren\c_cpp\github_os\input\src\os_base\os_exception.c ****      Exception SWI is entered, in case a user mode program executed the assembler code "SWI" (SoftW
  42:E:\NeuOrga\Programmieren\c_cpp\github_os\input\src\os_base\os_exception.c ****    OS_ISRHANDLERC0();
 152              		.loc 1 42 0
 153 007c FFF7FEFF 		bl	OS_ISRHANDLERC0
  43:E:\NeuOrga\Programmieren\c_cpp\github_os\input\src\os_base\os_exception.c **** }
 154              		.loc 1 43 0
 155 0080 80BD     		pop	{r7, pc}
 156              		.cfi_endproc
 157              	.LFE3:
 159 0082 00BF     		.align	2
 160              		.global	OS_Exception_BUS_FAULT
 161              		.thumb
 162              		.thumb_func
 164              	OS_Exception_BUS_FAULT:
 165              	.LFB4:
  44:E:\NeuOrga\Programmieren\c_cpp\github_os\input\src\os_base\os_exception.c **** void OS_Exception_BUS_FAULT(void)
  45:E:\NeuOrga\Programmieren\c_cpp\github_os\input\src\os_base\os_exception.c **** {
 166              		.loc 1 45 0
 167              		.cfi_startproc
 168              		@ args = 0, pretend = 0, frame = 0
 169              		@ frame_needed = 1, uses_anonymous_args = 0
 170 0084 80B5     		push	{r7, lr}
 171              		.cfi_def_cfa_offset 8
 172              		.cfi_offset 7, -8
 173              		.cfi_offset 14, -4
 174 0086 00AF     		add	r7, sp, #0
 175              		.cfi_def_cfa_register 7
  46:E:\NeuOrga\Programmieren\c_cpp\github_os\input\src\os_base\os_exception.c ****    OS_Exception_Read_Status_Registers();
 176              		.loc 1 46 0
 177 0088 FFF7BAFF 		bl	OS_Exception_Read_Status_Registers
 178              	.L10:
  47:E:\NeuOrga\Programmieren\c_cpp\github_os\input\src\os_base\os_exception.c ****    while(1){}
 179              		.loc 1 47 0 discriminator 1
 180 008c FEE7     		b	.L10
 181              		.cfi_endproc
 182              	.LFE4:
 184 008e 00BF     		.align	2
 185              		.global	OS_Exception_DEBUG
 186              		.thumb
 187              		.thumb_func
 189              	OS_Exception_DEBUG:
 190              	.LFB5:
  48:E:\NeuOrga\Programmieren\c_cpp\github_os\input\src\os_base\os_exception.c ****    OS_SHUTDOWN(os_reset_hardreset);
  49:E:\NeuOrga\Programmieren\c_cpp\github_os\input\src\os_base\os_exception.c **** }
ARM GAS  C:\Users\PRESID~1\AppData\Local\Temp\ccQZplPi.s 			page 5


  50:E:\NeuOrga\Programmieren\c_cpp\github_os\input\src\os_base\os_exception.c **** 
  51:E:\NeuOrga\Programmieren\c_cpp\github_os\input\src\os_base\os_exception.c **** void OS_Exception_DEBUG(void)
  52:E:\NeuOrga\Programmieren\c_cpp\github_os\input\src\os_base\os_exception.c **** {
 191              		.loc 1 52 0
 192              		.cfi_startproc
 193              		@ args = 0, pretend = 0, frame = 0
 194              		@ frame_needed = 1, uses_anonymous_args = 0
 195 0090 80B5     		push	{r7, lr}
 196              		.cfi_def_cfa_offset 8
 197              		.cfi_offset 7, -8
 198              		.cfi_offset 14, -4
 199 0092 00AF     		add	r7, sp, #0
 200              		.cfi_def_cfa_register 7
  53:E:\NeuOrga\Programmieren\c_cpp\github_os\input\src\os_base\os_exception.c ****    OS_Exception_Read_Status_Registers();
 201              		.loc 1 53 0
 202 0094 FFF7B4FF 		bl	OS_Exception_Read_Status_Registers
 203              	.L12:
  54:E:\NeuOrga\Programmieren\c_cpp\github_os\input\src\os_base\os_exception.c ****    while(1){}
 204              		.loc 1 54 0 discriminator 1
 205 0098 FEE7     		b	.L12
 206              		.cfi_endproc
 207              	.LFE5:
 209 009a 00BF     		.align	2
 210              		.global	OS_Exception_MEM_MANAG_FAULT
 211              		.thumb
 212              		.thumb_func
 214              	OS_Exception_MEM_MANAG_FAULT:
 215              	.LFB6:
  55:E:\NeuOrga\Programmieren\c_cpp\github_os\input\src\os_base\os_exception.c ****    OS_SHUTDOWN(os_reset_hardreset);
  56:E:\NeuOrga\Programmieren\c_cpp\github_os\input\src\os_base\os_exception.c **** }
  57:E:\NeuOrga\Programmieren\c_cpp\github_os\input\src\os_base\os_exception.c **** 
  58:E:\NeuOrga\Programmieren\c_cpp\github_os\input\src\os_base\os_exception.c **** void OS_Exception_MEM_MANAG_FAULT(void)
  59:E:\NeuOrga\Programmieren\c_cpp\github_os\input\src\os_base\os_exception.c **** {
 216              		.loc 1 59 0
 217              		.cfi_startproc
 218              		@ args = 0, pretend = 0, frame = 0
 219              		@ frame_needed = 1, uses_anonymous_args = 0
 220 009c 80B5     		push	{r7, lr}
 221              		.cfi_def_cfa_offset 8
 222              		.cfi_offset 7, -8
 223              		.cfi_offset 14, -4
 224 009e 00AF     		add	r7, sp, #0
 225              		.cfi_def_cfa_register 7
  60:E:\NeuOrga\Programmieren\c_cpp\github_os\input\src\os_base\os_exception.c ****    OS_Exception_Read_Status_Registers();
 226              		.loc 1 60 0
 227 00a0 FFF7AEFF 		bl	OS_Exception_Read_Status_Registers
 228              	.L14:
  61:E:\NeuOrga\Programmieren\c_cpp\github_os\input\src\os_base\os_exception.c ****    while(1){}
 229              		.loc 1 61 0 discriminator 1
 230 00a4 FEE7     		b	.L14
 231              		.cfi_endproc
 232              	.LFE6:
 234 00a6 00BF     		.align	2
 235              		.global	OS_Exception_USAGE_FAULT
 236              		.thumb
 237              		.thumb_func
 239              	OS_Exception_USAGE_FAULT:
ARM GAS  C:\Users\PRESID~1\AppData\Local\Temp\ccQZplPi.s 			page 6


 240              	.LFB7:
  62:E:\NeuOrga\Programmieren\c_cpp\github_os\input\src\os_base\os_exception.c ****    OS_SHUTDOWN(os_reset_hardreset);
  63:E:\NeuOrga\Programmieren\c_cpp\github_os\input\src\os_base\os_exception.c **** }
  64:E:\NeuOrga\Programmieren\c_cpp\github_os\input\src\os_base\os_exception.c **** 
  65:E:\NeuOrga\Programmieren\c_cpp\github_os\input\src\os_base\os_exception.c **** void OS_Exception_USAGE_FAULT(void)
  66:E:\NeuOrga\Programmieren\c_cpp\github_os\input\src\os_base\os_exception.c **** {
 241              		.loc 1 66 0
 242              		.cfi_startproc
 243              		@ args = 0, pretend = 0, frame = 0
 244              		@ frame_needed = 1, uses_anonymous_args = 0
 245 00a8 80B5     		push	{r7, lr}
 246              		.cfi_def_cfa_offset 8
 247              		.cfi_offset 7, -8
 248              		.cfi_offset 14, -4
 249 00aa 00AF     		add	r7, sp, #0
 250              		.cfi_def_cfa_register 7
  67:E:\NeuOrga\Programmieren\c_cpp\github_os\input\src\os_base\os_exception.c ****    OS_Exception_Read_Status_Registers();
 251              		.loc 1 67 0
 252 00ac FFF7A8FF 		bl	OS_Exception_Read_Status_Registers
 253              	.L16:
  68:E:\NeuOrga\Programmieren\c_cpp\github_os\input\src\os_base\os_exception.c ****    while(1){}
 254              		.loc 1 68 0 discriminator 1
 255 00b0 FEE7     		b	.L16
 256              		.cfi_endproc
 257              	.LFE7:
 259 00b2 00BF     		.align	2
 260              		.global	OS_Exception_PendSV
 261              		.thumb
 262              		.thumb_func
 264              	OS_Exception_PendSV:
 265              	.LFB8:
  69:E:\NeuOrga\Programmieren\c_cpp\github_os\input\src\os_base\os_exception.c ****    OS_SHUTDOWN(os_reset_hardreset);
  70:E:\NeuOrga\Programmieren\c_cpp\github_os\input\src\os_base\os_exception.c **** }
  71:E:\NeuOrga\Programmieren\c_cpp\github_os\input\src\os_base\os_exception.c **** 
  72:E:\NeuOrga\Programmieren\c_cpp\github_os\input\src\os_base\os_exception.c **** void OS_Exception_PendSV(void)
  73:E:\NeuOrga\Programmieren\c_cpp\github_os\input\src\os_base\os_exception.c **** {
 266              		.loc 1 73 0
 267              		.cfi_startproc
 268              		@ args = 0, pretend = 0, frame = 0
 269              		@ frame_needed = 1, uses_anonymous_args = 0
 270              		@ link register save eliminated.
 271 00b4 80B4     		push	{r7}
 272              		.cfi_def_cfa_offset 4
 273              		.cfi_offset 7, -4
 274 00b6 00AF     		add	r7, sp, #0
 275              		.cfi_def_cfa_register 7
 276              	.L18:
  74:E:\NeuOrga\Programmieren\c_cpp\github_os\input\src\os_base\os_exception.c ****    while(1){}
 277              		.loc 1 74 0 discriminator 1
 278 00b8 FEE7     		b	.L18
 279              		.cfi_endproc
 280              	.LFE8:
 282 00ba 00BF     		.align	2
 283              		.global	OS_Exception_Systick
 284              		.thumb
 285              		.thumb_func
 287              	OS_Exception_Systick:
ARM GAS  C:\Users\PRESID~1\AppData\Local\Temp\ccQZplPi.s 			page 7


 288              	.LFB9:
  75:E:\NeuOrga\Programmieren\c_cpp\github_os\input\src\os_base\os_exception.c ****    OS_SHUTDOWN(os_reset_hardreset);
  76:E:\NeuOrga\Programmieren\c_cpp\github_os\input\src\os_base\os_exception.c **** }
  77:E:\NeuOrga\Programmieren\c_cpp\github_os\input\src\os_base\os_exception.c **** 
  78:E:\NeuOrga\Programmieren\c_cpp\github_os\input\src\os_base\os_exception.c **** void OS_Exception_Systick(void)
  79:E:\NeuOrga\Programmieren\c_cpp\github_os\input\src\os_base\os_exception.c **** {
 289              		.loc 1 79 0
 290              		.cfi_startproc
 291              		@ args = 0, pretend = 0, frame = 0
 292              		@ frame_needed = 1, uses_anonymous_args = 0
 293              		@ link register save eliminated.
 294 00bc 80B4     		push	{r7}
 295              		.cfi_def_cfa_offset 4
 296              		.cfi_offset 7, -4
 297 00be 00AF     		add	r7, sp, #0
 298              		.cfi_def_cfa_register 7
 299              	.L20:
  80:E:\NeuOrga\Programmieren\c_cpp\github_os\input\src\os_base\os_exception.c ****    while(1){}
 300              		.loc 1 80 0 discriminator 1
 301 00c0 FEE7     		b	.L20
 302              		.cfi_endproc
 303              	.LFE9:
 305 00c2 00BF     		.align	2
 306              		.global	OS_Exception_IRQ
 307              		.thumb
 308              		.thumb_func
 310              	OS_Exception_IRQ:
 311              	.LFB10:
  81:E:\NeuOrga\Programmieren\c_cpp\github_os\input\src\os_base\os_exception.c ****    OS_SHUTDOWN(os_reset_hardreset);
  82:E:\NeuOrga\Programmieren\c_cpp\github_os\input\src\os_base\os_exception.c **** }
  83:E:\NeuOrga\Programmieren\c_cpp\github_os\input\src\os_base\os_exception.c **** 
  84:E:\NeuOrga\Programmieren\c_cpp\github_os\input\src\os_base\os_exception.c **** void OS_Exception_IRQ(void)
  85:E:\NeuOrga\Programmieren\c_cpp\github_os\input\src\os_base\os_exception.c **** {
 312              		.loc 1 85 0
 313              		.cfi_startproc
 314              		@ args = 0, pretend = 0, frame = 0
 315              		@ frame_needed = 1, uses_anonymous_args = 0
 316 00c4 80B5     		push	{r7, lr}
 317              		.cfi_def_cfa_offset 8
 318              		.cfi_offset 7, -8
 319              		.cfi_offset 14, -4
 320 00c6 00AF     		add	r7, sp, #0
 321              		.cfi_def_cfa_register 7
  86:E:\NeuOrga\Programmieren\c_cpp\github_os\input\src\os_base\os_exception.c ****    OS_ISRHANDLERC0();
 322              		.loc 1 86 0
 323 00c8 FFF7FEFF 		bl	OS_ISRHANDLERC0
  87:E:\NeuOrga\Programmieren\c_cpp\github_os\input\src\os_base\os_exception.c **** }
 324              		.loc 1 87 0
 325 00cc 80BD     		pop	{r7, pc}
 326              		.cfi_endproc
 327              	.LFE10:
 329 00ce 00BF     		.align	2
 330              		.global	OS_Exception_FIQ
 331              		.thumb
 332              		.thumb_func
 334              	OS_Exception_FIQ:
 335              	.LFB11:
ARM GAS  C:\Users\PRESID~1\AppData\Local\Temp\ccQZplPi.s 			page 8


  88:E:\NeuOrga\Programmieren\c_cpp\github_os\input\src\os_base\os_exception.c **** void OS_Exception_FIQ(void)
  89:E:\NeuOrga\Programmieren\c_cpp\github_os\input\src\os_base\os_exception.c **** {
 336              		.loc 1 89 0
 337              		.cfi_startproc
 338              		@ args = 0, pretend = 0, frame = 0
 339              		@ frame_needed = 1, uses_anonymous_args = 0
 340 00d0 80B5     		push	{r7, lr}
 341              		.cfi_def_cfa_offset 8
 342              		.cfi_offset 7, -8
 343              		.cfi_offset 14, -4
 344 00d2 00AF     		add	r7, sp, #0
 345              		.cfi_def_cfa_register 7
  90:E:\NeuOrga\Programmieren\c_cpp\github_os\input\src\os_base\os_exception.c ****    OS_ISRHANDLERC0();
 346              		.loc 1 90 0
 347 00d4 FFF7FEFF 		bl	OS_ISRHANDLERC0
  91:E:\NeuOrga\Programmieren\c_cpp\github_os\input\src\os_base\os_exception.c **** }
 348              		.loc 1 91 0
 349 00d8 80BD     		pop	{r7, pc}
 350              		.cfi_endproc
 351              	.LFE11:
 353 00da 00BF     		.align	2
 354              		.global	TCMP1
 355              		.thumb
 356              		.thumb_func
 358              	TCMP1:
 359              	.LFB12:
  92:E:\NeuOrga\Programmieren\c_cpp\github_os\input\src\os_base\os_exception.c **** 
  93:E:\NeuOrga\Programmieren\c_cpp\github_os\input\src\os_base\os_exception.c **** 
  94:E:\NeuOrga\Programmieren\c_cpp\github_os\input\src\os_base\os_exception.c **** ISR TCMP1(void)
  95:E:\NeuOrga\Programmieren\c_cpp\github_os\input\src\os_base\os_exception.c **** {
 360              		.loc 1 95 0
 361              		.cfi_startproc
 362              		@ args = 0, pretend = 0, frame = 0
 363              		@ frame_needed = 1, uses_anonymous_args = 0
 364 00dc 80B5     		push	{r7, lr}
 365              		.cfi_def_cfa_offset 8
 366              		.cfi_offset 7, -8
 367              		.cfi_offset 14, -4
 368 00de 00AF     		add	r7, sp, #0
 369              		.cfi_def_cfa_register 7
  96:E:\NeuOrga\Programmieren\c_cpp\github_os\input\src\os_base\os_exception.c ****    OS_ISRHANDLERC0();
 370              		.loc 1 96 0
 371 00e0 FFF7FEFF 		bl	OS_ISRHANDLERC0
  97:E:\NeuOrga\Programmieren\c_cpp\github_os\input\src\os_base\os_exception.c **** }
 372              		.loc 1 97 0
 373 00e4 80BD     		pop	{r7, pc}
 374              		.cfi_endproc
 375              	.LFE12:
 377 00e6 00BF     		.align	2
 378              		.global	TCMP2
 379              		.thumb
 380              		.thumb_func
 382              	TCMP2:
 383              	.LFB13:
  98:E:\NeuOrga\Programmieren\c_cpp\github_os\input\src\os_base\os_exception.c **** ISR TCMP2(void)
  99:E:\NeuOrga\Programmieren\c_cpp\github_os\input\src\os_base\os_exception.c **** {
 384              		.loc 1 99 0
ARM GAS  C:\Users\PRESID~1\AppData\Local\Temp\ccQZplPi.s 			page 9


 385              		.cfi_startproc
 386              		@ args = 0, pretend = 0, frame = 0
 387              		@ frame_needed = 1, uses_anonymous_args = 0
 388 00e8 80B5     		push	{r7, lr}
 389              		.cfi_def_cfa_offset 8
 390              		.cfi_offset 7, -8
 391              		.cfi_offset 14, -4
 392 00ea 00AF     		add	r7, sp, #0
 393              		.cfi_def_cfa_register 7
 100:E:\NeuOrga\Programmieren\c_cpp\github_os\input\src\os_base\os_exception.c ****    OS_ISRHANDLERC1();
 394              		.loc 1 100 0
 395 00ec FFF7FEFF 		bl	OS_ISRHANDLERC1
 101:E:\NeuOrga\Programmieren\c_cpp\github_os\input\src\os_base\os_exception.c **** }
 396              		.loc 1 101 0
 397 00f0 80BD     		pop	{r7, pc}
 398              		.cfi_endproc
 399              	.LFE13:
 401 00f2 00BF     		.align	2
 402              		.global	TCMP3
 403              		.thumb
 404              		.thumb_func
 406              	TCMP3:
 407              	.LFB14:
 102:E:\NeuOrga\Programmieren\c_cpp\github_os\input\src\os_base\os_exception.c **** ISR TCMP3(void)
 103:E:\NeuOrga\Programmieren\c_cpp\github_os\input\src\os_base\os_exception.c **** {
 408              		.loc 1 103 0
 409              		.cfi_startproc
 410              		@ args = 0, pretend = 0, frame = 0
 411              		@ frame_needed = 1, uses_anonymous_args = 0
 412 00f4 80B5     		push	{r7, lr}
 413              		.cfi_def_cfa_offset 8
 414              		.cfi_offset 7, -8
 415              		.cfi_offset 14, -4
 416 00f6 00AF     		add	r7, sp, #0
 417              		.cfi_def_cfa_register 7
 104:E:\NeuOrga\Programmieren\c_cpp\github_os\input\src\os_base\os_exception.c ****    OS_ISRHANDLERC2();
 418              		.loc 1 104 0
 419 00f8 FFF7FEFF 		bl	OS_ISRHANDLERC2
 105:E:\NeuOrga\Programmieren\c_cpp\github_os\input\src\os_base\os_exception.c **** }
 420              		.loc 1 105 0
 421 00fc 80BD     		pop	{r7, pc}
 422              		.cfi_endproc
 423              	.LFE14:
 425 00fe 00BF     		.align	2
 426              		.global	TCMP4
 427              		.thumb
 428              		.thumb_func
 430              	TCMP4:
 431              	.LFB15:
 106:E:\NeuOrga\Programmieren\c_cpp\github_os\input\src\os_base\os_exception.c **** ISR TCMP4(void)
 107:E:\NeuOrga\Programmieren\c_cpp\github_os\input\src\os_base\os_exception.c **** {
 432              		.loc 1 107 0
 433              		.cfi_startproc
 434              		@ args = 0, pretend = 0, frame = 0
 435              		@ frame_needed = 1, uses_anonymous_args = 0
 436 0100 80B5     		push	{r7, lr}
 437              		.cfi_def_cfa_offset 8
ARM GAS  C:\Users\PRESID~1\AppData\Local\Temp\ccQZplPi.s 			page 10


 438              		.cfi_offset 7, -8
 439              		.cfi_offset 14, -4
 440 0102 00AF     		add	r7, sp, #0
 441              		.cfi_def_cfa_register 7
 108:E:\NeuOrga\Programmieren\c_cpp\github_os\input\src\os_base\os_exception.c ****    OS_ISRHANDLERC3();
 442              		.loc 1 108 0
 443 0104 FFF7FEFF 		bl	OS_ISRHANDLERC3
 109:E:\NeuOrga\Programmieren\c_cpp\github_os\input\src\os_base\os_exception.c **** }
 444              		.loc 1 109 0
 445 0108 80BD     		pop	{r7, pc}
 446              		.cfi_endproc
 447              	.LFE15:
 449              	.Letext0:
 450              		.file 2 "e:\\neuorga\\programmieren\\c_cpp\\github_os\\input\\src\\os_base\\os_ram.h"
 451              		.file 3 "e:\\neuorga\\programmieren\\c_cpp\\github_os\\input\\src\\os_base\\os_base_types.h"
 452              		.file 4 "E:\\NeuOrga\\Programmieren\\c_cpp\\github_os\\input\\src\\os_base\\os_shutdown.h"
ARM GAS  C:\Users\PRESID~1\AppData\Local\Temp\ccQZplPi.s 			page 11


DEFINED SYMBOLS
                            *ABS*:00000000 os_exception.c
C:\Users\PRESID~1\AppData\Local\Temp\ccQZplPi.s:18     .text:00000000 $t
C:\Users\PRESID~1\AppData\Local\Temp\ccQZplPi.s:22     .text:00000000 OS_Exception_Read_Status_Registers
C:\Users\PRESID~1\AppData\Local\Temp\ccQZplPi.s:72     .text:00000038 $d
C:\Users\PRESID~1\AppData\Local\Temp\ccQZplPi.s:85     .text:00000060 $t
C:\Users\PRESID~1\AppData\Local\Temp\ccQZplPi.s:90     .text:00000060 OS_Exception_HARDFAULT
C:\Users\PRESID~1\AppData\Local\Temp\ccQZplPi.s:115    .text:0000006c OS_Exception_NMI
C:\Users\PRESID~1\AppData\Local\Temp\ccQZplPi.s:140    .text:00000078 OS_Exception_SWI
C:\Users\PRESID~1\AppData\Local\Temp\ccQZplPi.s:164    .text:00000084 OS_Exception_BUS_FAULT
C:\Users\PRESID~1\AppData\Local\Temp\ccQZplPi.s:189    .text:00000090 OS_Exception_DEBUG
C:\Users\PRESID~1\AppData\Local\Temp\ccQZplPi.s:214    .text:0000009c OS_Exception_MEM_MANAG_FAULT
C:\Users\PRESID~1\AppData\Local\Temp\ccQZplPi.s:239    .text:000000a8 OS_Exception_USAGE_FAULT
C:\Users\PRESID~1\AppData\Local\Temp\ccQZplPi.s:264    .text:000000b4 OS_Exception_PendSV
C:\Users\PRESID~1\AppData\Local\Temp\ccQZplPi.s:287    .text:000000bc OS_Exception_Systick
C:\Users\PRESID~1\AppData\Local\Temp\ccQZplPi.s:310    .text:000000c4 OS_Exception_IRQ
C:\Users\PRESID~1\AppData\Local\Temp\ccQZplPi.s:334    .text:000000d0 OS_Exception_FIQ
C:\Users\PRESID~1\AppData\Local\Temp\ccQZplPi.s:358    .text:000000dc TCMP1
C:\Users\PRESID~1\AppData\Local\Temp\ccQZplPi.s:382    .text:000000e8 TCMP2
C:\Users\PRESID~1\AppData\Local\Temp\ccQZplPi.s:406    .text:000000f4 TCMP3
C:\Users\PRESID~1\AppData\Local\Temp\ccQZplPi.s:430    .text:00000100 TCMP4
                     .debug_frame:00000010 $d
                           .group:00000000 wm4.0.235f4ede03ac0010553e0a50454c6591
                           .group:00000000 wm4.os_base_types.h.2.f3c0267f175f5cbacca6b71710665a02
                           .group:00000000 wm4.os_common.h.2.d75289bcbcba9f0e2c2ffeda9394ea88
                           .group:00000000 wm4.os_stack.h.2.19e5f67d3b2f1e569581f0c055512986
                           .group:00000000 wm4.os_heap.h.2.89074aae455d2462b5952479e3530dd1
                           .group:00000000 wm4.os_task_config.h.2.7cfaa082f19f6144d85c64ce1f04b914
                           .group:00000000 wm4.os_task_common.h.92.310ae0de7be5874c80e3c1d4bf919b37
                           .group:00000000 wm4.os_exception_isr_handler.h.2.19ab7c9017e871de2a8a91d100f54831

UNDEFINED SYMBOLS
VAR_HARDFAULT_STATUS_REG
VAR_FAULT_STATUS_REG
VAR_MEM_FAULT_ADDR_REG
VAR_BUS_FAULT_ADDR_REG
VAR_AUX_FAULT_STATUS_REG
OS_ISRHANDLERC0
OS_ISRHANDLERC1
OS_ISRHANDLERC2
OS_ISRHANDLERC3
