ARM GAS  C:\Users\PRESID~1\AppData\Local\Temp\ccGbI9zi.s 			page 1


   1              		.syntax unified
   2              		.cpu cortex-m4
   3              		.fpu softvfp
   4              		.eabi_attribute 20, 1
   5              		.eabi_attribute 21, 1
   6              		.eabi_attribute 23, 3
   7              		.eabi_attribute 24, 1
   8              		.eabi_attribute 25, 1
   9              		.eabi_attribute 26, 1
  10              		.eabi_attribute 30, 6
  11              		.eabi_attribute 34, 1
  12              		.eabi_attribute 18, 4
  13              		.thumb
  14              		.file	"os_exception.c"
  15              		.text
  16              	.Ltext0:
  17              		.cfi_sections	.debug_frame
  18              		.align	2
  19              		.global	OS_Exception_HARDFAULT
  20              		.thumb
  21              		.thumb_func
  23              	OS_Exception_HARDFAULT:
  24              	.LFB0:
  25              		.file 1 "E:\\NeuOrga\\Programmieren\\c_cpp\\github_os\\input\\src\\os_base\\os_exception.c"
   1:E:\NeuOrga\Programmieren\c_cpp\github_os\input\src\os_base\os_exception.c **** #include "os_firstinc.h"
   2:E:\NeuOrga\Programmieren\c_cpp\github_os\input\src\os_base\os_exception.c **** #include "os_exception_isr_handler.h"
   3:E:\NeuOrga\Programmieren\c_cpp\github_os\input\src\os_base\os_exception.c **** #include "os_shutdown.h"
   4:E:\NeuOrga\Programmieren\c_cpp\github_os\input\src\os_base\os_exception.c **** #include "os_start_os.h"
   5:E:\NeuOrga\Programmieren\c_cpp\github_os\input\src\os_base\os_exception.c **** #include "os_ram.h"
   6:E:\NeuOrga\Programmieren\c_cpp\github_os\input\src\os_base\os_exception.c **** 
   7:E:\NeuOrga\Programmieren\c_cpp\github_os\input\src\os_base\os_exception.c **** /* the Interrupt table is set via the code linked to 0x00 and following ...   */
   8:E:\NeuOrga\Programmieren\c_cpp\github_os\input\src\os_base\os_exception.c **** /* interrupts are disabled during RESET exception and will be enabled by task system */
   9:E:\NeuOrga\Programmieren\c_cpp\github_os\input\src\os_base\os_exception.c **** void OS_Exception_HARDFAULT(void)
  10:E:\NeuOrga\Programmieren\c_cpp\github_os\input\src\os_base\os_exception.c **** {
  26              		.loc 1 10 0
  27              		.cfi_startproc
  28              		@ args = 0, pretend = 0, frame = 8
  29              		@ frame_needed = 1, uses_anonymous_args = 0
  30              		@ link register save eliminated.
  31 0000 80B4     		push	{r7}
  32              		.cfi_def_cfa_offset 4
  33              		.cfi_offset 7, -4
  34 0002 83B0     		sub	sp, sp, #12
  35              		.cfi_def_cfa_offset 16
  36 0004 00AF     		add	r7, sp, #0
  37              		.cfi_def_cfa_register 7
  11:E:\NeuOrga\Programmieren\c_cpp\github_os\input\src\os_base\os_exception.c ****    volatile uint32 ERROR_HARDFAULT = 0;
  38              		.loc 1 11 0
  39 0006 0023     		movs	r3, #0
  40 0008 7B60     		str	r3, [r7, #4]
  12:E:\NeuOrga\Programmieren\c_cpp\github_os\input\src\os_base\os_exception.c ****    ERROR_HARDFAULT = *((uint32*)0xE000ED2Cu);
  41              		.loc 1 12 0
  42 000a 024B     		ldr	r3, .L3
  43 000c 1B68     		ldr	r3, [r3]
  44 000e 7B60     		str	r3, [r7, #4]
  45              	.L2:
  13:E:\NeuOrga\Programmieren\c_cpp\github_os\input\src\os_base\os_exception.c ****    /*#error "Hardfault generate, use the hardfault exception status register for reason"*/
ARM GAS  C:\Users\PRESID~1\AppData\Local\Temp\ccGbI9zi.s 			page 2


  14:E:\NeuOrga\Programmieren\c_cpp\github_os\input\src\os_base\os_exception.c ****    while(1){}
  46              		.loc 1 14 0 discriminator 1
  47 0010 FEE7     		b	.L2
  48              	.L4:
  49 0012 00BF     		.align	2
  50              	.L3:
  51 0014 2CED00E0 		.word	-536810196
  52              		.cfi_endproc
  53              	.LFE0:
  55              		.align	2
  56              		.global	OS_Exception_NMI
  57              		.thumb
  58              		.thumb_func
  60              	OS_Exception_NMI:
  61              	.LFB1:
  15:E:\NeuOrga\Programmieren\c_cpp\github_os\input\src\os_base\os_exception.c **** }
  16:E:\NeuOrga\Programmieren\c_cpp\github_os\input\src\os_base\os_exception.c **** 
  17:E:\NeuOrga\Programmieren\c_cpp\github_os\input\src\os_base\os_exception.c **** 
  18:E:\NeuOrga\Programmieren\c_cpp\github_os\input\src\os_base\os_exception.c **** void OS_Exception_NMI(void)
  19:E:\NeuOrga\Programmieren\c_cpp\github_os\input\src\os_base\os_exception.c **** {
  62              		.loc 1 19 0
  63              		.cfi_startproc
  64              		@ args = 0, pretend = 0, frame = 0
  65              		@ frame_needed = 1, uses_anonymous_args = 0
  66              		@ link register save eliminated.
  67 0018 80B4     		push	{r7}
  68              		.cfi_def_cfa_offset 4
  69              		.cfi_offset 7, -4
  70 001a 00AF     		add	r7, sp, #0
  71              		.cfi_def_cfa_register 7
  72              	.L6:
  20:E:\NeuOrga\Programmieren\c_cpp\github_os\input\src\os_base\os_exception.c ****    while(1){}
  73              		.loc 1 20 0 discriminator 1
  74 001c FEE7     		b	.L6
  75              		.cfi_endproc
  76              	.LFE1:
  78 001e 00BF     		.align	2
  79              		.global	OS_Exception_SWI
  80              		.thumb
  81              		.thumb_func
  83              	OS_Exception_SWI:
  84              	.LFB2:
  21:E:\NeuOrga\Programmieren\c_cpp\github_os\input\src\os_base\os_exception.c ****    OS_SHUTDOWN(os_reset_hardreset);
  22:E:\NeuOrga\Programmieren\c_cpp\github_os\input\src\os_base\os_exception.c **** }
  23:E:\NeuOrga\Programmieren\c_cpp\github_os\input\src\os_base\os_exception.c **** void OS_Exception_SWI(void)
  24:E:\NeuOrga\Programmieren\c_cpp\github_os\input\src\os_base\os_exception.c **** {
  85              		.loc 1 24 0
  86              		.cfi_startproc
  87              		@ args = 0, pretend = 0, frame = 0
  88              		@ frame_needed = 1, uses_anonymous_args = 0
  89 0020 80B5     		push	{r7, lr}
  90              		.cfi_def_cfa_offset 8
  91              		.cfi_offset 7, -8
  92              		.cfi_offset 14, -4
  93 0022 00AF     		add	r7, sp, #0
  94              		.cfi_def_cfa_register 7
  25:E:\NeuOrga\Programmieren\c_cpp\github_os\input\src\os_base\os_exception.c ****    /* Mode: Supervisor:
ARM GAS  C:\Users\PRESID~1\AppData\Local\Temp\ccGbI9zi.s 			page 3


  26:E:\NeuOrga\Programmieren\c_cpp\github_os\input\src\os_base\os_exception.c ****      Exception SWI is entered, in case a user mode program executed the assembler code "SWI" (SoftW
  27:E:\NeuOrga\Programmieren\c_cpp\github_os\input\src\os_base\os_exception.c ****    OS_ISRHANDLERC0();
  95              		.loc 1 27 0
  96 0024 FFF7FEFF 		bl	OS_ISRHANDLERC0
  28:E:\NeuOrga\Programmieren\c_cpp\github_os\input\src\os_base\os_exception.c **** }
  97              		.loc 1 28 0
  98 0028 80BD     		pop	{r7, pc}
  99              		.cfi_endproc
 100              	.LFE2:
 102 002a 00BF     		.align	2
 103              		.global	OS_Exception_BUS_FAULT
 104              		.thumb
 105              		.thumb_func
 107              	OS_Exception_BUS_FAULT:
 108              	.LFB3:
  29:E:\NeuOrga\Programmieren\c_cpp\github_os\input\src\os_base\os_exception.c **** void OS_Exception_BUS_FAULT(void)
  30:E:\NeuOrga\Programmieren\c_cpp\github_os\input\src\os_base\os_exception.c **** {
 109              		.loc 1 30 0
 110              		.cfi_startproc
 111              		@ args = 0, pretend = 0, frame = 0
 112              		@ frame_needed = 1, uses_anonymous_args = 0
 113              		@ link register save eliminated.
 114 002c 80B4     		push	{r7}
 115              		.cfi_def_cfa_offset 4
 116              		.cfi_offset 7, -4
 117 002e 00AF     		add	r7, sp, #0
 118              		.cfi_def_cfa_register 7
 119              	.L9:
  31:E:\NeuOrga\Programmieren\c_cpp\github_os\input\src\os_base\os_exception.c ****    while(1){}
 120              		.loc 1 31 0 discriminator 1
 121 0030 FEE7     		b	.L9
 122              		.cfi_endproc
 123              	.LFE3:
 125 0032 00BF     		.align	2
 126              		.global	OS_Exception_MEM_MANAG_FAULT
 127              		.thumb
 128              		.thumb_func
 130              	OS_Exception_MEM_MANAG_FAULT:
 131              	.LFB4:
  32:E:\NeuOrga\Programmieren\c_cpp\github_os\input\src\os_base\os_exception.c ****    OS_SHUTDOWN(os_reset_hardreset);
  33:E:\NeuOrga\Programmieren\c_cpp\github_os\input\src\os_base\os_exception.c **** }
  34:E:\NeuOrga\Programmieren\c_cpp\github_os\input\src\os_base\os_exception.c **** void OS_Exception_MEM_MANAG_FAULT(void)
  35:E:\NeuOrga\Programmieren\c_cpp\github_os\input\src\os_base\os_exception.c **** {
 132              		.loc 1 35 0
 133              		.cfi_startproc
 134              		@ args = 0, pretend = 0, frame = 0
 135              		@ frame_needed = 1, uses_anonymous_args = 0
 136              		@ link register save eliminated.
 137 0034 80B4     		push	{r7}
 138              		.cfi_def_cfa_offset 4
 139              		.cfi_offset 7, -4
 140 0036 00AF     		add	r7, sp, #0
 141              		.cfi_def_cfa_register 7
 142              	.L11:
  36:E:\NeuOrga\Programmieren\c_cpp\github_os\input\src\os_base\os_exception.c ****    while(1){}
 143              		.loc 1 36 0 discriminator 1
 144 0038 FEE7     		b	.L11
ARM GAS  C:\Users\PRESID~1\AppData\Local\Temp\ccGbI9zi.s 			page 4


 145              		.cfi_endproc
 146              	.LFE4:
 148 003a 00BF     		.align	2
 149              		.global	OS_Exception_IRQ
 150              		.thumb
 151              		.thumb_func
 153              	OS_Exception_IRQ:
 154              	.LFB5:
  37:E:\NeuOrga\Programmieren\c_cpp\github_os\input\src\os_base\os_exception.c ****    OS_SHUTDOWN(os_reset_hardreset);
  38:E:\NeuOrga\Programmieren\c_cpp\github_os\input\src\os_base\os_exception.c **** }
  39:E:\NeuOrga\Programmieren\c_cpp\github_os\input\src\os_base\os_exception.c **** void OS_Exception_IRQ(void)
  40:E:\NeuOrga\Programmieren\c_cpp\github_os\input\src\os_base\os_exception.c **** {
 155              		.loc 1 40 0
 156              		.cfi_startproc
 157              		@ args = 0, pretend = 0, frame = 0
 158              		@ frame_needed = 1, uses_anonymous_args = 0
 159 003c 80B5     		push	{r7, lr}
 160              		.cfi_def_cfa_offset 8
 161              		.cfi_offset 7, -8
 162              		.cfi_offset 14, -4
 163 003e 00AF     		add	r7, sp, #0
 164              		.cfi_def_cfa_register 7
  41:E:\NeuOrga\Programmieren\c_cpp\github_os\input\src\os_base\os_exception.c ****    OS_ISRHANDLERC0();
 165              		.loc 1 41 0
 166 0040 FFF7FEFF 		bl	OS_ISRHANDLERC0
  42:E:\NeuOrga\Programmieren\c_cpp\github_os\input\src\os_base\os_exception.c **** }
 167              		.loc 1 42 0
 168 0044 80BD     		pop	{r7, pc}
 169              		.cfi_endproc
 170              	.LFE5:
 172 0046 00BF     		.align	2
 173              		.global	OS_Exception_FIQ
 174              		.thumb
 175              		.thumb_func
 177              	OS_Exception_FIQ:
 178              	.LFB6:
  43:E:\NeuOrga\Programmieren\c_cpp\github_os\input\src\os_base\os_exception.c **** void OS_Exception_FIQ(void)
  44:E:\NeuOrga\Programmieren\c_cpp\github_os\input\src\os_base\os_exception.c **** {
 179              		.loc 1 44 0
 180              		.cfi_startproc
 181              		@ args = 0, pretend = 0, frame = 0
 182              		@ frame_needed = 1, uses_anonymous_args = 0
 183 0048 80B5     		push	{r7, lr}
 184              		.cfi_def_cfa_offset 8
 185              		.cfi_offset 7, -8
 186              		.cfi_offset 14, -4
 187 004a 00AF     		add	r7, sp, #0
 188              		.cfi_def_cfa_register 7
  45:E:\NeuOrga\Programmieren\c_cpp\github_os\input\src\os_base\os_exception.c ****    OS_ISRHANDLERC0();
 189              		.loc 1 45 0
 190 004c FFF7FEFF 		bl	OS_ISRHANDLERC0
  46:E:\NeuOrga\Programmieren\c_cpp\github_os\input\src\os_base\os_exception.c **** }
 191              		.loc 1 46 0
 192 0050 80BD     		pop	{r7, pc}
 193              		.cfi_endproc
 194              	.LFE6:
 196 0052 00BF     		.align	2
ARM GAS  C:\Users\PRESID~1\AppData\Local\Temp\ccGbI9zi.s 			page 5


 197              		.global	TCMP1
 198              		.thumb
 199              		.thumb_func
 201              	TCMP1:
 202              	.LFB7:
  47:E:\NeuOrga\Programmieren\c_cpp\github_os\input\src\os_base\os_exception.c **** 
  48:E:\NeuOrga\Programmieren\c_cpp\github_os\input\src\os_base\os_exception.c **** 
  49:E:\NeuOrga\Programmieren\c_cpp\github_os\input\src\os_base\os_exception.c **** ISR TCMP1(void)
  50:E:\NeuOrga\Programmieren\c_cpp\github_os\input\src\os_base\os_exception.c **** {
 203              		.loc 1 50 0
 204              		.cfi_startproc
 205              		@ args = 0, pretend = 0, frame = 0
 206              		@ frame_needed = 1, uses_anonymous_args = 0
 207 0054 80B5     		push	{r7, lr}
 208              		.cfi_def_cfa_offset 8
 209              		.cfi_offset 7, -8
 210              		.cfi_offset 14, -4
 211 0056 00AF     		add	r7, sp, #0
 212              		.cfi_def_cfa_register 7
  51:E:\NeuOrga\Programmieren\c_cpp\github_os\input\src\os_base\os_exception.c ****    OS_ISRHANDLERC0();
 213              		.loc 1 51 0
 214 0058 FFF7FEFF 		bl	OS_ISRHANDLERC0
  52:E:\NeuOrga\Programmieren\c_cpp\github_os\input\src\os_base\os_exception.c **** }
 215              		.loc 1 52 0
 216 005c 80BD     		pop	{r7, pc}
 217              		.cfi_endproc
 218              	.LFE7:
 220 005e 00BF     		.align	2
 221              		.global	TCMP2
 222              		.thumb
 223              		.thumb_func
 225              	TCMP2:
 226              	.LFB8:
  53:E:\NeuOrga\Programmieren\c_cpp\github_os\input\src\os_base\os_exception.c **** ISR TCMP2(void)
  54:E:\NeuOrga\Programmieren\c_cpp\github_os\input\src\os_base\os_exception.c **** {
 227              		.loc 1 54 0
 228              		.cfi_startproc
 229              		@ args = 0, pretend = 0, frame = 0
 230              		@ frame_needed = 1, uses_anonymous_args = 0
 231 0060 80B5     		push	{r7, lr}
 232              		.cfi_def_cfa_offset 8
 233              		.cfi_offset 7, -8
 234              		.cfi_offset 14, -4
 235 0062 00AF     		add	r7, sp, #0
 236              		.cfi_def_cfa_register 7
  55:E:\NeuOrga\Programmieren\c_cpp\github_os\input\src\os_base\os_exception.c ****    OS_ISRHANDLERC1();
 237              		.loc 1 55 0
 238 0064 FFF7FEFF 		bl	OS_ISRHANDLERC1
  56:E:\NeuOrga\Programmieren\c_cpp\github_os\input\src\os_base\os_exception.c **** }
 239              		.loc 1 56 0
 240 0068 80BD     		pop	{r7, pc}
 241              		.cfi_endproc
 242              	.LFE8:
 244 006a 00BF     		.align	2
 245              		.global	TCMP3
 246              		.thumb
 247              		.thumb_func
ARM GAS  C:\Users\PRESID~1\AppData\Local\Temp\ccGbI9zi.s 			page 6


 249              	TCMP3:
 250              	.LFB9:
  57:E:\NeuOrga\Programmieren\c_cpp\github_os\input\src\os_base\os_exception.c **** ISR TCMP3(void)
  58:E:\NeuOrga\Programmieren\c_cpp\github_os\input\src\os_base\os_exception.c **** {
 251              		.loc 1 58 0
 252              		.cfi_startproc
 253              		@ args = 0, pretend = 0, frame = 0
 254              		@ frame_needed = 1, uses_anonymous_args = 0
 255 006c 80B5     		push	{r7, lr}
 256              		.cfi_def_cfa_offset 8
 257              		.cfi_offset 7, -8
 258              		.cfi_offset 14, -4
 259 006e 00AF     		add	r7, sp, #0
 260              		.cfi_def_cfa_register 7
  59:E:\NeuOrga\Programmieren\c_cpp\github_os\input\src\os_base\os_exception.c ****    OS_ISRHANDLERC2();
 261              		.loc 1 59 0
 262 0070 FFF7FEFF 		bl	OS_ISRHANDLERC2
  60:E:\NeuOrga\Programmieren\c_cpp\github_os\input\src\os_base\os_exception.c **** }
 263              		.loc 1 60 0
 264 0074 80BD     		pop	{r7, pc}
 265              		.cfi_endproc
 266              	.LFE9:
 268 0076 00BF     		.align	2
 269              		.global	TCMP4
 270              		.thumb
 271              		.thumb_func
 273              	TCMP4:
 274              	.LFB10:
  61:E:\NeuOrga\Programmieren\c_cpp\github_os\input\src\os_base\os_exception.c **** ISR TCMP4(void)
  62:E:\NeuOrga\Programmieren\c_cpp\github_os\input\src\os_base\os_exception.c **** {
 275              		.loc 1 62 0
 276              		.cfi_startproc
 277              		@ args = 0, pretend = 0, frame = 0
 278              		@ frame_needed = 1, uses_anonymous_args = 0
 279 0078 80B5     		push	{r7, lr}
 280              		.cfi_def_cfa_offset 8
 281              		.cfi_offset 7, -8
 282              		.cfi_offset 14, -4
 283 007a 00AF     		add	r7, sp, #0
 284              		.cfi_def_cfa_register 7
  63:E:\NeuOrga\Programmieren\c_cpp\github_os\input\src\os_base\os_exception.c ****    OS_ISRHANDLERC3();
 285              		.loc 1 63 0
 286 007c FFF7FEFF 		bl	OS_ISRHANDLERC3
  64:E:\NeuOrga\Programmieren\c_cpp\github_os\input\src\os_base\os_exception.c **** }
 287              		.loc 1 64 0
 288 0080 80BD     		pop	{r7, pc}
 289              		.cfi_endproc
 290              	.LFE10:
 292              	.Letext0:
 293              		.file 2 "e:\\neuorga\\programmieren\\c_cpp\\github_os\\input\\src\\os_base\\os_base_types.h"
 294              		.file 3 "E:\\NeuOrga\\Programmieren\\c_cpp\\github_os\\input\\src\\os_base\\os_shutdown.h"
ARM GAS  C:\Users\PRESID~1\AppData\Local\Temp\ccGbI9zi.s 			page 7


DEFINED SYMBOLS
                            *ABS*:00000000 os_exception.c
C:\Users\PRESID~1\AppData\Local\Temp\ccGbI9zi.s:18     .text:00000000 $t
C:\Users\PRESID~1\AppData\Local\Temp\ccGbI9zi.s:23     .text:00000000 OS_Exception_HARDFAULT
C:\Users\PRESID~1\AppData\Local\Temp\ccGbI9zi.s:51     .text:00000014 $d
C:\Users\PRESID~1\AppData\Local\Temp\ccGbI9zi.s:55     .text:00000018 $t
C:\Users\PRESID~1\AppData\Local\Temp\ccGbI9zi.s:60     .text:00000018 OS_Exception_NMI
C:\Users\PRESID~1\AppData\Local\Temp\ccGbI9zi.s:83     .text:00000020 OS_Exception_SWI
C:\Users\PRESID~1\AppData\Local\Temp\ccGbI9zi.s:107    .text:0000002c OS_Exception_BUS_FAULT
C:\Users\PRESID~1\AppData\Local\Temp\ccGbI9zi.s:130    .text:00000034 OS_Exception_MEM_MANAG_FAULT
C:\Users\PRESID~1\AppData\Local\Temp\ccGbI9zi.s:153    .text:0000003c OS_Exception_IRQ
C:\Users\PRESID~1\AppData\Local\Temp\ccGbI9zi.s:177    .text:00000048 OS_Exception_FIQ
C:\Users\PRESID~1\AppData\Local\Temp\ccGbI9zi.s:201    .text:00000054 TCMP1
C:\Users\PRESID~1\AppData\Local\Temp\ccGbI9zi.s:225    .text:00000060 TCMP2
C:\Users\PRESID~1\AppData\Local\Temp\ccGbI9zi.s:249    .text:0000006c TCMP3
C:\Users\PRESID~1\AppData\Local\Temp\ccGbI9zi.s:273    .text:00000078 TCMP4
                     .debug_frame:00000010 $d
                           .group:00000000 wm4.0.235f4ede03ac0010553e0a50454c6591
                           .group:00000000 wm4.os_base_types.h.2.f3c0267f175f5cbacca6b71710665a02
                           .group:00000000 wm4.os_common.h.2.d75289bcbcba9f0e2c2ffeda9394ea88
                           .group:00000000 wm4.os_stack.h.2.19e5f67d3b2f1e569581f0c055512986
                           .group:00000000 wm4.os_heap.h.2.89074aae455d2462b5952479e3530dd1
                           .group:00000000 wm4.os_task_config.h.2.7cfaa082f19f6144d85c64ce1f04b914
                           .group:00000000 wm4.os_task_common.h.92.310ae0de7be5874c80e3c1d4bf919b37
                           .group:00000000 wm4.os_exception_isr_handler.h.2.19ab7c9017e871de2a8a91d100f54831

UNDEFINED SYMBOLS
OS_ISRHANDLERC0
OS_ISRHANDLERC1
OS_ISRHANDLERC2
OS_ISRHANDLERC3
