ARM GAS  C:\Users\PRESID~1\AppData\Local\Temp\ccKpai4y.s 			page 1


   1              		.syntax unified
   2              		.cpu cortex-m4
   3              		.fpu softvfp
   4              		.eabi_attribute 20, 1
   5              		.eabi_attribute 21, 1
   6              		.eabi_attribute 23, 3
   7              		.eabi_attribute 24, 1
   8              		.eabi_attribute 25, 1
   9              		.eabi_attribute 26, 1
  10              		.eabi_attribute 30, 6
  11              		.eabi_attribute 34, 1
  12              		.eabi_attribute 18, 4
  13              		.thumb
  14              		.file	"os_exception.c"
  15              		.text
  16              	.Ltext0:
  17              		.cfi_sections	.debug_frame
  18              		.align	2
  19              		.thumb
  20              		.thumb_func
  22              	OS_Exception_Read_Status_Registers:
  23              	.LFB0:
  24              		.file 1 "E:\\NeuOrga\\Programmieren\\c_cpp\\github_os\\input\\src\\os_base\\os_exception.c"
   1:E:\NeuOrga\Programmieren\c_cpp\github_os\input\src\os_base\os_exception.c **** #include "os_firstinc.h"
   2:E:\NeuOrga\Programmieren\c_cpp\github_os\input\src\os_base\os_exception.c **** #include "os_exception_isr_handler.h"
   3:E:\NeuOrga\Programmieren\c_cpp\github_os\input\src\os_base\os_exception.c **** #include "os_shutdown.h"
   4:E:\NeuOrga\Programmieren\c_cpp\github_os\input\src\os_base\os_exception.c **** #include "os_start_os.h"
   5:E:\NeuOrga\Programmieren\c_cpp\github_os\input\src\os_base\os_exception.c **** #include "os_ram.h"
   6:E:\NeuOrga\Programmieren\c_cpp\github_os\input\src\os_base\os_exception.c **** #include "..\os_base\os_task_queue.h"
   7:E:\NeuOrga\Programmieren\c_cpp\github_os\input\src\os_base\os_exception.c **** #include "..\os_base\os_task_scheduler.h"
   8:E:\NeuOrga\Programmieren\c_cpp\github_os\input\src\os_base\os_exception.c **** /* the Interrupt table is set via the code linked to 0x00 and following ...   */
   9:E:\NeuOrga\Programmieren\c_cpp\github_os\input\src\os_base\os_exception.c **** /* interrupts are disabled during RESET exception and will be enabled by task system */
  10:E:\NeuOrga\Programmieren\c_cpp\github_os\input\src\os_base\os_exception.c **** Local void OS_Exception_Read_Status_Registers(void)
  11:E:\NeuOrga\Programmieren\c_cpp\github_os\input\src\os_base\os_exception.c **** {
  25              		.loc 1 11 0
  26              		.cfi_startproc
  27              		@ args = 0, pretend = 0, frame = 0
  28              		@ frame_needed = 1, uses_anonymous_args = 0
  29              		@ link register save eliminated.
  30 0000 80B4     		push	{r7}
  31              		.cfi_def_cfa_offset 4
  32              		.cfi_offset 7, -4
  33 0002 00AF     		add	r7, sp, #0
  34              		.cfi_def_cfa_register 7
  12:E:\NeuOrga\Programmieren\c_cpp\github_os\input\src\os_base\os_exception.c **** #if(CFG_PROCESSOR == cMCU_CORTEX_M4)
  13:E:\NeuOrga\Programmieren\c_cpp\github_os\input\src\os_base\os_exception.c ****    #define HARDFAULT_STATUS_REG ((volatile uint32*)0xE000ED2Cu)
  14:E:\NeuOrga\Programmieren\c_cpp\github_os\input\src\os_base\os_exception.c ****    #define MEM_MANAG_FAULT_STATUS_REG     ((volatile uint8*)0xE000ED28u)
  15:E:\NeuOrga\Programmieren\c_cpp\github_os\input\src\os_base\os_exception.c ****    #define BUS_FAULT_STATUS_REG     ((volatile uint8*)0xE000ED29u)
  16:E:\NeuOrga\Programmieren\c_cpp\github_os\input\src\os_base\os_exception.c ****    #define USAGE_FAULT_STATUS_REG     ((volatile uint16*)0xE000ED2Au)
  17:E:\NeuOrga\Programmieren\c_cpp\github_os\input\src\os_base\os_exception.c ****    #define MEM_FAULT_ADDR_REG   ((volatile uint32*)0xE000ED34u)
  18:E:\NeuOrga\Programmieren\c_cpp\github_os\input\src\os_base\os_exception.c ****    #define BUS_FAULT_ADDR_REG   ((volatile uint32*)0xE000ED38u)
  19:E:\NeuOrga\Programmieren\c_cpp\github_os\input\src\os_base\os_exception.c ****    #define AUX_FAULT_STATUS_REG ((volatile uint32*)0xE000ED3Cu)
  20:E:\NeuOrga\Programmieren\c_cpp\github_os\input\src\os_base\os_exception.c ****    VAR_HARDFAULT_STATUS_REG = *HARDFAULT_STATUS_REG;
  35              		.loc 1 20 0
  36 0004 124B     		ldr	r3, .L2
  37 0006 1B68     		ldr	r3, [r3]
  38 0008 124A     		ldr	r2, .L2+4
ARM GAS  C:\Users\PRESID~1\AppData\Local\Temp\ccKpai4y.s 			page 2


  39 000a 1360     		str	r3, [r2]
  21:E:\NeuOrga\Programmieren\c_cpp\github_os\input\src\os_base\os_exception.c ****    VAR_MEM_MANAG_FAULT_STATUS_REG     = *MEM_MANAG_FAULT_STATUS_REG;
  40              		.loc 1 21 0
  41 000c 124B     		ldr	r3, .L2+8
  42 000e 1B78     		ldrb	r3, [r3]
  43 0010 DBB2     		uxtb	r3, r3
  44 0012 1A46     		mov	r2, r3
  45 0014 114B     		ldr	r3, .L2+12
  46 0016 1A60     		str	r2, [r3]
  22:E:\NeuOrga\Programmieren\c_cpp\github_os\input\src\os_base\os_exception.c ****    VAR_BUS_FAULT_STATUS_REG   = *BUS_FAULT_STATUS_REG;
  47              		.loc 1 22 0
  48 0018 114B     		ldr	r3, .L2+16
  49 001a 1B78     		ldrb	r3, [r3]
  50 001c DBB2     		uxtb	r3, r3
  51 001e 1A46     		mov	r2, r3
  52 0020 104B     		ldr	r3, .L2+20
  53 0022 1A60     		str	r2, [r3]
  23:E:\NeuOrga\Programmieren\c_cpp\github_os\input\src\os_base\os_exception.c ****    VAR_USAGE_FAULT_STATUS_REG = *USAGE_FAULT_STATUS_REG;
  54              		.loc 1 23 0
  55 0024 104B     		ldr	r3, .L2+24
  56 0026 1B88     		ldrh	r3, [r3]	@ movhi
  57 0028 9BB2     		uxth	r3, r3
  58 002a 1A46     		mov	r2, r3
  59 002c 0F4B     		ldr	r3, .L2+28
  60 002e 1A60     		str	r2, [r3]
  24:E:\NeuOrga\Programmieren\c_cpp\github_os\input\src\os_base\os_exception.c ****    VAR_MEM_FAULT_ADDR_REG   = *MEM_FAULT_ADDR_REG;
  61              		.loc 1 24 0
  62 0030 0F4B     		ldr	r3, .L2+32
  63 0032 1B68     		ldr	r3, [r3]
  64 0034 0F4A     		ldr	r2, .L2+36
  65 0036 1360     		str	r3, [r2]
  25:E:\NeuOrga\Programmieren\c_cpp\github_os\input\src\os_base\os_exception.c ****    VAR_BUS_FAULT_ADDR_REG   = *BUS_FAULT_ADDR_REG;
  66              		.loc 1 25 0
  67 0038 0F4B     		ldr	r3, .L2+40
  68 003a 1B68     		ldr	r3, [r3]
  69 003c 0F4A     		ldr	r2, .L2+44
  70 003e 1360     		str	r3, [r2]
  26:E:\NeuOrga\Programmieren\c_cpp\github_os\input\src\os_base\os_exception.c ****    VAR_AUX_FAULT_STATUS_REG = *AUX_FAULT_STATUS_REG;
  71              		.loc 1 26 0
  72 0040 0F4B     		ldr	r3, .L2+48
  73 0042 1B68     		ldr	r3, [r3]
  74 0044 0F4A     		ldr	r2, .L2+52
  75 0046 1360     		str	r3, [r2]
  27:E:\NeuOrga\Programmieren\c_cpp\github_os\input\src\os_base\os_exception.c **** #endif
  28:E:\NeuOrga\Programmieren\c_cpp\github_os\input\src\os_base\os_exception.c **** }
  76              		.loc 1 28 0
  77 0048 BD46     		mov	sp, r7
  78              		.cfi_def_cfa_register 13
  79              		@ sp needed
  80 004a 5DF8047B 		ldr	r7, [sp], #4
  81              		.cfi_restore 7
  82              		.cfi_def_cfa_offset 0
  83 004e 7047     		bx	lr
  84              	.L3:
  85              		.align	2
  86              	.L2:
  87 0050 2CED00E0 		.word	-536810196
ARM GAS  C:\Users\PRESID~1\AppData\Local\Temp\ccKpai4y.s 			page 3


  88 0054 00000000 		.word	VAR_HARDFAULT_STATUS_REG
  89 0058 28ED00E0 		.word	-536810200
  90 005c 00000000 		.word	VAR_MEM_MANAG_FAULT_STATUS_REG
  91 0060 29ED00E0 		.word	-536810199
  92 0064 00000000 		.word	VAR_BUS_FAULT_STATUS_REG
  93 0068 2AED00E0 		.word	-536810198
  94 006c 00000000 		.word	VAR_USAGE_FAULT_STATUS_REG
  95 0070 34ED00E0 		.word	-536810188
  96 0074 00000000 		.word	VAR_MEM_FAULT_ADDR_REG
  97 0078 38ED00E0 		.word	-536810184
  98 007c 00000000 		.word	VAR_BUS_FAULT_ADDR_REG
  99 0080 3CED00E0 		.word	-536810180
 100 0084 00000000 		.word	VAR_AUX_FAULT_STATUS_REG
 101              		.cfi_endproc
 102              	.LFE0:
 104              		.align	2
 105              		.global	OS_Exception_HARDFAULT
 106              		.thumb
 107              		.thumb_func
 109              	OS_Exception_HARDFAULT:
 110              	.LFB1:
  29:E:\NeuOrga\Programmieren\c_cpp\github_os\input\src\os_base\os_exception.c **** 
  30:E:\NeuOrga\Programmieren\c_cpp\github_os\input\src\os_base\os_exception.c **** 
  31:E:\NeuOrga\Programmieren\c_cpp\github_os\input\src\os_base\os_exception.c **** void OS_Exception_HARDFAULT(void)
  32:E:\NeuOrga\Programmieren\c_cpp\github_os\input\src\os_base\os_exception.c **** {
 111              		.loc 1 32 0
 112              		.cfi_startproc
 113              		@ args = 0, pretend = 0, frame = 0
 114              		@ frame_needed = 1, uses_anonymous_args = 0
 115 0088 80B5     		push	{r7, lr}
 116              		.cfi_def_cfa_offset 8
 117              		.cfi_offset 7, -8
 118              		.cfi_offset 14, -4
 119 008a 00AF     		add	r7, sp, #0
 120              		.cfi_def_cfa_register 7
  33:E:\NeuOrga\Programmieren\c_cpp\github_os\input\src\os_base\os_exception.c **** #if(CFG_PROCESSOR == cMCU_CORTEX_M4)
  34:E:\NeuOrga\Programmieren\c_cpp\github_os\input\src\os_base\os_exception.c ****    __asm__ __volatile__ ("LDR r0,%0;\
 121              		.loc 1 34 0
 122 008c 034B     		ldr	r3, .L6
 123              	@ 34 "E:\NeuOrga\Programmieren\c_cpp\github_os\input\src\os_base\os_exception.c" 1
 124 008e 1868C0F8 		LDR r0,[r3];                          STR r14,[r0];
 124      00E0
 125              	@ 0 "" 2
  35:E:\NeuOrga\Programmieren\c_cpp\github_os\input\src\os_base\os_exception.c ****                           STR r14,[r0];"
  36:E:\NeuOrga\Programmieren\c_cpp\github_os\input\src\os_base\os_exception.c ****                         :"=m"(LINK_REGISTER_HANDLER)
  37:E:\NeuOrga\Programmieren\c_cpp\github_os\input\src\os_base\os_exception.c ****                         :
  38:E:\NeuOrga\Programmieren\c_cpp\github_os\input\src\os_base\os_exception.c ****                         :"r0"
  39:E:\NeuOrga\Programmieren\c_cpp\github_os\input\src\os_base\os_exception.c ****                         );
  40:E:\NeuOrga\Programmieren\c_cpp\github_os\input\src\os_base\os_exception.c ****    OS_Exception_Read_Status_Registers();
 126              		.loc 1 40 0
 127              		.thumb
 128 0094 FFF7B4FF 		bl	OS_Exception_Read_Status_Registers
 129              	.L5:
  41:E:\NeuOrga\Programmieren\c_cpp\github_os\input\src\os_base\os_exception.c ****    while(1){}
 130              		.loc 1 41 0 discriminator 1
 131 0098 FEE7     		b	.L5
 132              	.L7:
ARM GAS  C:\Users\PRESID~1\AppData\Local\Temp\ccKpai4y.s 			page 4


 133 009a 00BF     		.align	2
 134              	.L6:
 135 009c 00000000 		.word	LINK_REGISTER_HANDLER
 136              		.cfi_endproc
 137              	.LFE1:
 139              		.align	2
 140              		.global	OS_Exception_NMI
 141              		.thumb
 142              		.thumb_func
 144              	OS_Exception_NMI:
 145              	.LFB2:
  42:E:\NeuOrga\Programmieren\c_cpp\github_os\input\src\os_base\os_exception.c ****    OS_SHUTDOWN(os_reset_hardreset);
  43:E:\NeuOrga\Programmieren\c_cpp\github_os\input\src\os_base\os_exception.c **** #endif
  44:E:\NeuOrga\Programmieren\c_cpp\github_os\input\src\os_base\os_exception.c **** }
  45:E:\NeuOrga\Programmieren\c_cpp\github_os\input\src\os_base\os_exception.c **** 
  46:E:\NeuOrga\Programmieren\c_cpp\github_os\input\src\os_base\os_exception.c **** 
  47:E:\NeuOrga\Programmieren\c_cpp\github_os\input\src\os_base\os_exception.c **** void OS_Exception_NMI(void)
  48:E:\NeuOrga\Programmieren\c_cpp\github_os\input\src\os_base\os_exception.c **** {
 146              		.loc 1 48 0
 147              		.cfi_startproc
 148              		@ args = 0, pretend = 0, frame = 0
 149              		@ frame_needed = 1, uses_anonymous_args = 0
 150 00a0 80B5     		push	{r7, lr}
 151              		.cfi_def_cfa_offset 8
 152              		.cfi_offset 7, -8
 153              		.cfi_offset 14, -4
 154 00a2 00AF     		add	r7, sp, #0
 155              		.cfi_def_cfa_register 7
  49:E:\NeuOrga\Programmieren\c_cpp\github_os\input\src\os_base\os_exception.c **** #if(CFG_PROCESSOR == cMCU_CORTEX_M4)
  50:E:\NeuOrga\Programmieren\c_cpp\github_os\input\src\os_base\os_exception.c ****    __asm__ __volatile__ ("LDR r0,%0;\
 156              		.loc 1 50 0
 157 00a4 034B     		ldr	r3, .L10
 158              	@ 50 "E:\NeuOrga\Programmieren\c_cpp\github_os\input\src\os_base\os_exception.c" 1
 159 00a6 1868C0F8 		LDR r0,[r3];                          STR r14,[r0];
 159      00E0
 160              	@ 0 "" 2
  51:E:\NeuOrga\Programmieren\c_cpp\github_os\input\src\os_base\os_exception.c ****                           STR r14,[r0];"
  52:E:\NeuOrga\Programmieren\c_cpp\github_os\input\src\os_base\os_exception.c ****                         :"=m"(LINK_REGISTER_HANDLER)
  53:E:\NeuOrga\Programmieren\c_cpp\github_os\input\src\os_base\os_exception.c ****                         :
  54:E:\NeuOrga\Programmieren\c_cpp\github_os\input\src\os_base\os_exception.c ****                         :"r0"
  55:E:\NeuOrga\Programmieren\c_cpp\github_os\input\src\os_base\os_exception.c ****                         );   
  56:E:\NeuOrga\Programmieren\c_cpp\github_os\input\src\os_base\os_exception.c ****    OS_Exception_Read_Status_Registers();
 161              		.loc 1 56 0
 162              		.thumb
 163 00ac FFF7A8FF 		bl	OS_Exception_Read_Status_Registers
 164              	.L9:
  57:E:\NeuOrga\Programmieren\c_cpp\github_os\input\src\os_base\os_exception.c ****    while(1){}
 165              		.loc 1 57 0 discriminator 1
 166 00b0 FEE7     		b	.L9
 167              	.L11:
 168 00b2 00BF     		.align	2
 169              	.L10:
 170 00b4 00000000 		.word	LINK_REGISTER_HANDLER
 171              		.cfi_endproc
 172              	.LFE2:
 174              		.align	2
 175              		.global	OS_Exception_SWI
ARM GAS  C:\Users\PRESID~1\AppData\Local\Temp\ccKpai4y.s 			page 5


 176              		.thumb
 177              		.thumb_func
 179              	OS_Exception_SWI:
 180              	.LFB3:
  58:E:\NeuOrga\Programmieren\c_cpp\github_os\input\src\os_base\os_exception.c ****    OS_SHUTDOWN(os_reset_hardreset);
  59:E:\NeuOrga\Programmieren\c_cpp\github_os\input\src\os_base\os_exception.c **** #endif
  60:E:\NeuOrga\Programmieren\c_cpp\github_os\input\src\os_base\os_exception.c **** }
  61:E:\NeuOrga\Programmieren\c_cpp\github_os\input\src\os_base\os_exception.c **** void OS_Exception_SWI(void)
  62:E:\NeuOrga\Programmieren\c_cpp\github_os\input\src\os_base\os_exception.c **** {
 181              		.loc 1 62 0
 182              		.cfi_startproc
 183              		@ args = 0, pretend = 0, frame = 0
 184              		@ frame_needed = 1, uses_anonymous_args = 0
 185 00b8 80B5     		push	{r7, lr}
 186              		.cfi_def_cfa_offset 8
 187              		.cfi_offset 7, -8
 188              		.cfi_offset 14, -4
 189 00ba 00AF     		add	r7, sp, #0
 190              		.cfi_def_cfa_register 7
  63:E:\NeuOrga\Programmieren\c_cpp\github_os\input\src\os_base\os_exception.c **** #if(CFG_PROCESSOR == cMCU_CORTEX_M4)
  64:E:\NeuOrga\Programmieren\c_cpp\github_os\input\src\os_base\os_exception.c ****    __asm__ __volatile__ ("LDR r0,%0;\
 191              		.loc 1 64 0
 192 00bc 034B     		ldr	r3, .L13
 193              	@ 64 "E:\NeuOrga\Programmieren\c_cpp\github_os\input\src\os_base\os_exception.c" 1
 194 00be 1868C0F8 		LDR r0,[r3];                          STR r14,[r0];
 194      00E0
 195              	@ 0 "" 2
  65:E:\NeuOrga\Programmieren\c_cpp\github_os\input\src\os_base\os_exception.c ****                           STR r14,[r0];"
  66:E:\NeuOrga\Programmieren\c_cpp\github_os\input\src\os_base\os_exception.c ****                         :"=m"(LINK_REGISTER_HANDLER)
  67:E:\NeuOrga\Programmieren\c_cpp\github_os\input\src\os_base\os_exception.c ****                         :
  68:E:\NeuOrga\Programmieren\c_cpp\github_os\input\src\os_base\os_exception.c ****                         :"r0"
  69:E:\NeuOrga\Programmieren\c_cpp\github_os\input\src\os_base\os_exception.c ****                         );   
  70:E:\NeuOrga\Programmieren\c_cpp\github_os\input\src\os_base\os_exception.c ****    /* Mode: Supervisor:
  71:E:\NeuOrga\Programmieren\c_cpp\github_os\input\src\os_base\os_exception.c ****      Exception SWI is entered, in case a user mode program executed the assembler code "SWI" (SoftW
  72:E:\NeuOrga\Programmieren\c_cpp\github_os\input\src\os_base\os_exception.c ****    OS_ISRHANDLERC0();
 196              		.loc 1 72 0
 197              		.thumb
 198 00c4 FFF7FEFF 		bl	OS_ISRHANDLERC0
  73:E:\NeuOrga\Programmieren\c_cpp\github_os\input\src\os_base\os_exception.c **** #endif
  74:E:\NeuOrga\Programmieren\c_cpp\github_os\input\src\os_base\os_exception.c **** }
 199              		.loc 1 74 0
 200 00c8 80BD     		pop	{r7, pc}
 201              	.L14:
 202 00ca 00BF     		.align	2
 203              	.L13:
 204 00cc 00000000 		.word	LINK_REGISTER_HANDLER
 205              		.cfi_endproc
 206              	.LFE3:
 208              		.align	2
 209              		.global	OS_Exception_BUS_FAULT
 210              		.thumb
 211              		.thumb_func
 213              	OS_Exception_BUS_FAULT:
 214              	.LFB4:
  75:E:\NeuOrga\Programmieren\c_cpp\github_os\input\src\os_base\os_exception.c **** void OS_Exception_BUS_FAULT(void)
  76:E:\NeuOrga\Programmieren\c_cpp\github_os\input\src\os_base\os_exception.c **** {
 215              		.loc 1 76 0
ARM GAS  C:\Users\PRESID~1\AppData\Local\Temp\ccKpai4y.s 			page 6


 216              		.cfi_startproc
 217              		@ args = 0, pretend = 0, frame = 0
 218              		@ frame_needed = 1, uses_anonymous_args = 0
 219 00d0 80B5     		push	{r7, lr}
 220              		.cfi_def_cfa_offset 8
 221              		.cfi_offset 7, -8
 222              		.cfi_offset 14, -4
 223 00d2 00AF     		add	r7, sp, #0
 224              		.cfi_def_cfa_register 7
  77:E:\NeuOrga\Programmieren\c_cpp\github_os\input\src\os_base\os_exception.c **** #if(CFG_PROCESSOR == cMCU_CORTEX_M4)
  78:E:\NeuOrga\Programmieren\c_cpp\github_os\input\src\os_base\os_exception.c ****    __asm__ __volatile__ ("LDR r0,%0;\
 225              		.loc 1 78 0
 226 00d4 034B     		ldr	r3, .L17
 227              	@ 78 "E:\NeuOrga\Programmieren\c_cpp\github_os\input\src\os_base\os_exception.c" 1
 228 00d6 1868C0F8 		LDR r0,[r3];                          STR r14,[r0];
 228      00E0
 229              	@ 0 "" 2
  79:E:\NeuOrga\Programmieren\c_cpp\github_os\input\src\os_base\os_exception.c ****                           STR r14,[r0];"
  80:E:\NeuOrga\Programmieren\c_cpp\github_os\input\src\os_base\os_exception.c ****                         :"=m"(LINK_REGISTER_HANDLER)
  81:E:\NeuOrga\Programmieren\c_cpp\github_os\input\src\os_base\os_exception.c ****                         :
  82:E:\NeuOrga\Programmieren\c_cpp\github_os\input\src\os_base\os_exception.c ****                         :"r0"
  83:E:\NeuOrga\Programmieren\c_cpp\github_os\input\src\os_base\os_exception.c ****                         );   
  84:E:\NeuOrga\Programmieren\c_cpp\github_os\input\src\os_base\os_exception.c ****    OS_Exception_Read_Status_Registers();
 230              		.loc 1 84 0
 231              		.thumb
 232 00dc FFF790FF 		bl	OS_Exception_Read_Status_Registers
 233              	.L16:
  85:E:\NeuOrga\Programmieren\c_cpp\github_os\input\src\os_base\os_exception.c ****    while(1){}
 234              		.loc 1 85 0 discriminator 1
 235 00e0 FEE7     		b	.L16
 236              	.L18:
 237 00e2 00BF     		.align	2
 238              	.L17:
 239 00e4 00000000 		.word	LINK_REGISTER_HANDLER
 240              		.cfi_endproc
 241              	.LFE4:
 243              		.align	2
 244              		.global	OS_Exception_DEBUG
 245              		.thumb
 246              		.thumb_func
 248              	OS_Exception_DEBUG:
 249              	.LFB5:
  86:E:\NeuOrga\Programmieren\c_cpp\github_os\input\src\os_base\os_exception.c ****    OS_SHUTDOWN(os_reset_hardreset);
  87:E:\NeuOrga\Programmieren\c_cpp\github_os\input\src\os_base\os_exception.c **** #endif
  88:E:\NeuOrga\Programmieren\c_cpp\github_os\input\src\os_base\os_exception.c **** }
  89:E:\NeuOrga\Programmieren\c_cpp\github_os\input\src\os_base\os_exception.c **** 
  90:E:\NeuOrga\Programmieren\c_cpp\github_os\input\src\os_base\os_exception.c **** void OS_Exception_DEBUG(void)
  91:E:\NeuOrga\Programmieren\c_cpp\github_os\input\src\os_base\os_exception.c **** {
 250              		.loc 1 91 0
 251              		.cfi_startproc
 252              		@ args = 0, pretend = 0, frame = 0
 253              		@ frame_needed = 1, uses_anonymous_args = 0
 254 00e8 80B5     		push	{r7, lr}
 255              		.cfi_def_cfa_offset 8
 256              		.cfi_offset 7, -8
 257              		.cfi_offset 14, -4
 258 00ea 00AF     		add	r7, sp, #0
ARM GAS  C:\Users\PRESID~1\AppData\Local\Temp\ccKpai4y.s 			page 7


 259              		.cfi_def_cfa_register 7
  92:E:\NeuOrga\Programmieren\c_cpp\github_os\input\src\os_base\os_exception.c **** #if(CFG_PROCESSOR == cMCU_CORTEX_M4)
  93:E:\NeuOrga\Programmieren\c_cpp\github_os\input\src\os_base\os_exception.c ****    OS_Exception_Read_Status_Registers();
 260              		.loc 1 93 0
 261 00ec FFF788FF 		bl	OS_Exception_Read_Status_Registers
 262              	.L20:
  94:E:\NeuOrga\Programmieren\c_cpp\github_os\input\src\os_base\os_exception.c ****    while(1){}
 263              		.loc 1 94 0 discriminator 1
 264 00f0 FEE7     		b	.L20
 265              		.cfi_endproc
 266              	.LFE5:
 268 00f2 00BF     		.align	2
 269              		.global	OS_Exception_MEM_MANAG_FAULT
 270              		.thumb
 271              		.thumb_func
 273              	OS_Exception_MEM_MANAG_FAULT:
 274              	.LFB6:
  95:E:\NeuOrga\Programmieren\c_cpp\github_os\input\src\os_base\os_exception.c ****    OS_SHUTDOWN(os_reset_hardreset);
  96:E:\NeuOrga\Programmieren\c_cpp\github_os\input\src\os_base\os_exception.c **** #endif
  97:E:\NeuOrga\Programmieren\c_cpp\github_os\input\src\os_base\os_exception.c **** }
  98:E:\NeuOrga\Programmieren\c_cpp\github_os\input\src\os_base\os_exception.c **** 
  99:E:\NeuOrga\Programmieren\c_cpp\github_os\input\src\os_base\os_exception.c **** void OS_Exception_MEM_MANAG_FAULT(void)
 100:E:\NeuOrga\Programmieren\c_cpp\github_os\input\src\os_base\os_exception.c **** {
 275              		.loc 1 100 0
 276              		.cfi_startproc
 277              		@ args = 0, pretend = 0, frame = 0
 278              		@ frame_needed = 1, uses_anonymous_args = 0
 279 00f4 80B5     		push	{r7, lr}
 280              		.cfi_def_cfa_offset 8
 281              		.cfi_offset 7, -8
 282              		.cfi_offset 14, -4
 283 00f6 00AF     		add	r7, sp, #0
 284              		.cfi_def_cfa_register 7
 101:E:\NeuOrga\Programmieren\c_cpp\github_os\input\src\os_base\os_exception.c **** #if(CFG_PROCESSOR == cMCU_CORTEX_M4)
 102:E:\NeuOrga\Programmieren\c_cpp\github_os\input\src\os_base\os_exception.c ****    __asm__ __volatile__ ("LDR r0,%0;\
 285              		.loc 1 102 0
 286 00f8 034B     		ldr	r3, .L23
 287              	@ 102 "E:\NeuOrga\Programmieren\c_cpp\github_os\input\src\os_base\os_exception.c" 1
 288 00fa 1868C0F8 		LDR r0,[r3];                          STR r14,[r0];
 288      00E0
 289              	@ 0 "" 2
 103:E:\NeuOrga\Programmieren\c_cpp\github_os\input\src\os_base\os_exception.c ****                           STR r14,[r0];"
 104:E:\NeuOrga\Programmieren\c_cpp\github_os\input\src\os_base\os_exception.c ****                         :"=m"(LINK_REGISTER_HANDLER)
 105:E:\NeuOrga\Programmieren\c_cpp\github_os\input\src\os_base\os_exception.c ****                         :
 106:E:\NeuOrga\Programmieren\c_cpp\github_os\input\src\os_base\os_exception.c ****                         :"r0"
 107:E:\NeuOrga\Programmieren\c_cpp\github_os\input\src\os_base\os_exception.c ****                         );   
 108:E:\NeuOrga\Programmieren\c_cpp\github_os\input\src\os_base\os_exception.c ****    OS_Exception_Read_Status_Registers();
 290              		.loc 1 108 0
 291              		.thumb
 292 0100 FFF77EFF 		bl	OS_Exception_Read_Status_Registers
 293              	.L22:
 109:E:\NeuOrga\Programmieren\c_cpp\github_os\input\src\os_base\os_exception.c ****    while(1){}
 294              		.loc 1 109 0 discriminator 1
 295 0104 FEE7     		b	.L22
 296              	.L24:
 297 0106 00BF     		.align	2
 298              	.L23:
ARM GAS  C:\Users\PRESID~1\AppData\Local\Temp\ccKpai4y.s 			page 8


 299 0108 00000000 		.word	LINK_REGISTER_HANDLER
 300              		.cfi_endproc
 301              	.LFE6:
 303              		.align	2
 304              		.global	OS_Exception_USAGE_FAULT
 305              		.thumb
 306              		.thumb_func
 308              	OS_Exception_USAGE_FAULT:
 309              	.LFB7:
 110:E:\NeuOrga\Programmieren\c_cpp\github_os\input\src\os_base\os_exception.c ****    OS_SHUTDOWN(os_reset_hardreset);
 111:E:\NeuOrga\Programmieren\c_cpp\github_os\input\src\os_base\os_exception.c **** #endif
 112:E:\NeuOrga\Programmieren\c_cpp\github_os\input\src\os_base\os_exception.c **** }
 113:E:\NeuOrga\Programmieren\c_cpp\github_os\input\src\os_base\os_exception.c **** 
 114:E:\NeuOrga\Programmieren\c_cpp\github_os\input\src\os_base\os_exception.c **** void OS_Exception_USAGE_FAULT(void)
 115:E:\NeuOrga\Programmieren\c_cpp\github_os\input\src\os_base\os_exception.c **** {
 310              		.loc 1 115 0
 311              		.cfi_startproc
 312              		@ args = 0, pretend = 0, frame = 0
 313              		@ frame_needed = 1, uses_anonymous_args = 0
 314 010c 80B5     		push	{r7, lr}
 315              		.cfi_def_cfa_offset 8
 316              		.cfi_offset 7, -8
 317              		.cfi_offset 14, -4
 318 010e 00AF     		add	r7, sp, #0
 319              		.cfi_def_cfa_register 7
 116:E:\NeuOrga\Programmieren\c_cpp\github_os\input\src\os_base\os_exception.c **** #if(CFG_PROCESSOR == cMCU_CORTEX_M4)
 117:E:\NeuOrga\Programmieren\c_cpp\github_os\input\src\os_base\os_exception.c ****    __asm__ __volatile__ ("LDR r0,%0;\
 320              		.loc 1 117 0
 321 0110 034B     		ldr	r3, .L27
 322              	@ 117 "E:\NeuOrga\Programmieren\c_cpp\github_os\input\src\os_base\os_exception.c" 1
 323 0112 1868C0F8 		LDR r0,[r3];                          STR r14,[r0];
 323      00E0
 324              	@ 0 "" 2
 118:E:\NeuOrga\Programmieren\c_cpp\github_os\input\src\os_base\os_exception.c ****                           STR r14,[r0];"
 119:E:\NeuOrga\Programmieren\c_cpp\github_os\input\src\os_base\os_exception.c ****                         :"=m"(LINK_REGISTER_HANDLER)
 120:E:\NeuOrga\Programmieren\c_cpp\github_os\input\src\os_base\os_exception.c ****                         :
 121:E:\NeuOrga\Programmieren\c_cpp\github_os\input\src\os_base\os_exception.c ****                         :"r0"
 122:E:\NeuOrga\Programmieren\c_cpp\github_os\input\src\os_base\os_exception.c ****                         );   
 123:E:\NeuOrga\Programmieren\c_cpp\github_os\input\src\os_base\os_exception.c ****    OS_Exception_Read_Status_Registers();
 325              		.loc 1 123 0
 326              		.thumb
 327 0118 FFF772FF 		bl	OS_Exception_Read_Status_Registers
 328              	.L26:
 124:E:\NeuOrga\Programmieren\c_cpp\github_os\input\src\os_base\os_exception.c ****    while(1){}
 329              		.loc 1 124 0 discriminator 1
 330 011c FEE7     		b	.L26
 331              	.L28:
 332 011e 00BF     		.align	2
 333              	.L27:
 334 0120 00000000 		.word	LINK_REGISTER_HANDLER
 335              		.cfi_endproc
 336              	.LFE7:
 338              		.align	2
 339              		.global	OS_Exception_PendSV
 340              		.thumb
 341              		.thumb_func
 343              	OS_Exception_PendSV:
ARM GAS  C:\Users\PRESID~1\AppData\Local\Temp\ccKpai4y.s 			page 9


 344              	.LFB8:
 125:E:\NeuOrga\Programmieren\c_cpp\github_os\input\src\os_base\os_exception.c ****    OS_SHUTDOWN(os_reset_hardreset);
 126:E:\NeuOrga\Programmieren\c_cpp\github_os\input\src\os_base\os_exception.c **** #endif
 127:E:\NeuOrga\Programmieren\c_cpp\github_os\input\src\os_base\os_exception.c **** }
 128:E:\NeuOrga\Programmieren\c_cpp\github_os\input\src\os_base\os_exception.c **** 
 129:E:\NeuOrga\Programmieren\c_cpp\github_os\input\src\os_base\os_exception.c **** void OS_Exception_PendSV(void)
 130:E:\NeuOrga\Programmieren\c_cpp\github_os\input\src\os_base\os_exception.c **** {
 345              		.loc 1 130 0
 346              		.cfi_startproc
 347              		@ args = 0, pretend = 0, frame = 0
 348              		@ frame_needed = 1, uses_anonymous_args = 0
 349              		@ link register save eliminated.
 350 0124 80B4     		push	{r7}
 351              		.cfi_def_cfa_offset 4
 352              		.cfi_offset 7, -4
 353 0126 00AF     		add	r7, sp, #0
 354              		.cfi_def_cfa_register 7
 355              	.L30:
 131:E:\NeuOrga\Programmieren\c_cpp\github_os\input\src\os_base\os_exception.c **** #if(CFG_PROCESSOR == cMCU_CORTEX_M4)
 132:E:\NeuOrga\Programmieren\c_cpp\github_os\input\src\os_base\os_exception.c ****    while(1){}
 356              		.loc 1 132 0 discriminator 1
 357 0128 FEE7     		b	.L30
 358              		.cfi_endproc
 359              	.LFE8:
 361 012a 00BF     		.align	2
 362              		.global	OS_Exception_Systick
 363              		.thumb
 364              		.thumb_func
 366              	OS_Exception_Systick:
 367              	.LFB9:
 133:E:\NeuOrga\Programmieren\c_cpp\github_os\input\src\os_base\os_exception.c ****    OS_SHUTDOWN(os_reset_hardreset);
 134:E:\NeuOrga\Programmieren\c_cpp\github_os\input\src\os_base\os_exception.c **** #endif
 135:E:\NeuOrga\Programmieren\c_cpp\github_os\input\src\os_base\os_exception.c **** }
 136:E:\NeuOrga\Programmieren\c_cpp\github_os\input\src\os_base\os_exception.c **** 
 137:E:\NeuOrga\Programmieren\c_cpp\github_os\input\src\os_base\os_exception.c **** void OS_Exception_Systick(void)
 138:E:\NeuOrga\Programmieren\c_cpp\github_os\input\src\os_base\os_exception.c **** {
 368              		.loc 1 138 0
 369              		.cfi_startproc
 370              		@ args = 0, pretend = 0, frame = 8
 371              		@ frame_needed = 1, uses_anonymous_args = 0
 372 012c 80B5     		push	{r7, lr}
 373              		.cfi_def_cfa_offset 8
 374              		.cfi_offset 7, -8
 375              		.cfi_offset 14, -4
 376 012e 82B0     		sub	sp, sp, #8
 377              		.cfi_def_cfa_offset 16
 378 0130 00AF     		add	r7, sp, #0
 379              		.cfi_def_cfa_register 7
 139:E:\NeuOrga\Programmieren\c_cpp\github_os\input\src\os_base\os_exception.c **** #if(CFG_PROCESSOR == cMCU_CORTEX_M4)
 140:E:\NeuOrga\Programmieren\c_cpp\github_os\input\src\os_base\os_exception.c ****    task_t* task = 0u;
 380              		.loc 1 140 0
 381 0132 0023     		movs	r3, #0
 382 0134 7B60     		str	r3, [r7, #4]
 141:E:\NeuOrga\Programmieren\c_cpp\github_os\input\src\os_base\os_exception.c ****    /* configure the TCMP */
 142:E:\NeuOrga\Programmieren\c_cpp\github_os\input\src\os_base\os_exception.c ****    /*
 143:E:\NeuOrga\Programmieren\c_cpp\github_os\input\src\os_base\os_exception.c ****    Dispatcher function for Core 0:
 144:E:\NeuOrga\Programmieren\c_cpp\github_os\input\src\os_base\os_exception.c ****     -> ISR_TASK_DISPATCH_C0
ARM GAS  C:\Users\PRESID~1\AppData\Local\Temp\ccKpai4y.s 			page 10


 145:E:\NeuOrga\Programmieren\c_cpp\github_os\input\src\os_base\os_exception.c ****    Write Adresse into the config register (interrupts are requested by SWI/SVC???)
 146:E:\NeuOrga\Programmieren\c_cpp\github_os\input\src\os_base\os_exception.c ****    */
 147:E:\NeuOrga\Programmieren\c_cpp\github_os\input\src\os_base\os_exception.c ****    #define SYSTICK_CTRL_STAT_REG ((uint32*)0xE000E010)
 148:E:\NeuOrga\Programmieren\c_cpp\github_os\input\src\os_base\os_exception.c ****    #define SYSTICK_RLD_VAL_REG   ((uint32*)0xE000E014)
 149:E:\NeuOrga\Programmieren\c_cpp\github_os\input\src\os_base\os_exception.c ****    #define SYSTICK_CURRENT_VAL_REG ((uint32*)0xE000E018)
 150:E:\NeuOrga\Programmieren\c_cpp\github_os\input\src\os_base\os_exception.c ****    #define SYSTICK_STAT_REG_TICKINT ((uint32)0x00000002)
 151:E:\NeuOrga\Programmieren\c_cpp\github_os\input\src\os_base\os_exception.c ****    #define SYSTICK_STAT_REG_ENABLE  ((uint32)0x00000001)
 152:E:\NeuOrga\Programmieren\c_cpp\github_os\input\src\os_base\os_exception.c ****    #define LOOPTIME_IN_USEC ((uint32)10000u)
 153:E:\NeuOrga\Programmieren\c_cpp\github_os\input\src\os_base\os_exception.c ****    /*
 154:E:\NeuOrga\Programmieren\c_cpp\github_os\input\src\os_base\os_exception.c ****    CLOCK = HCLK / 8
 155:E:\NeuOrga\Programmieren\c_cpp\github_os\input\src\os_base\os_exception.c ****    vermutlich: CLOCK = 150Mhz / 8 = 18,75 Mhz
 156:E:\NeuOrga\Programmieren\c_cpp\github_os\input\src\os_base\os_exception.c ****    */
 157:E:\NeuOrga\Programmieren\c_cpp\github_os\input\src\os_base\os_exception.c ****    #if(CFG_PROCESSOR == cMCU_CORTEX_M4)
 158:E:\NeuOrga\Programmieren\c_cpp\github_os\input\src\os_base\os_exception.c ****    *SYSTICK_RLD_VAL_REG = *SYSTICK_RLD_VAL_REG | (((uint32)MCU_CLOCK_IN_HZ * LOOPTIME_IN_USEC) / ((
 383              		.loc 1 158 0
 384 0136 254A     		ldr	r2, .L33
 385 0138 244B     		ldr	r3, .L33
 386 013a 1B68     		ldr	r3, [r3]
 387 013c 43F42673 		orr	r3, r3, #664
 388 0140 43F00303 		orr	r3, r3, #3
 389 0144 1360     		str	r3, [r2]
 159:E:\NeuOrga\Programmieren\c_cpp\github_os\input\src\os_base\os_exception.c ****    *SYSTICK_CURRENT_VAL_REG = ((uint32)0x00000000);
 390              		.loc 1 159 0
 391 0146 224B     		ldr	r3, .L33+4
 392 0148 0022     		movs	r2, #0
 393 014a 1A60     		str	r2, [r3]
 160:E:\NeuOrga\Programmieren\c_cpp\github_os\input\src\os_base\os_exception.c ****    *SYSTICK_CTRL_STAT_REG = *SYSTICK_CTRL_STAT_REG | SYSTICK_STAT_REG_TICKINT | SYSTICK_STAT_REG_EN
 394              		.loc 1 160 0
 395 014c 214A     		ldr	r2, .L33+8
 396 014e 214B     		ldr	r3, .L33+8
 397 0150 1B68     		ldr	r3, [r3]
 398 0152 43F00303 		orr	r3, r3, #3
 399 0156 1360     		str	r3, [r2]
 161:E:\NeuOrga\Programmieren\c_cpp\github_os\input\src\os_base\os_exception.c ****    #endif   
 162:E:\NeuOrga\Programmieren\c_cpp\github_os\input\src\os_base\os_exception.c ****    /*
 163:E:\NeuOrga\Programmieren\c_cpp\github_os\input\src\os_base\os_exception.c ****    4.4.1. SysTick Control and Status Register
 164:E:\NeuOrga\Programmieren\c_cpp\github_os\input\src\os_base\os_exception.c **** 
 165:E:\NeuOrga\Programmieren\c_cpp\github_os\input\src\os_base\os_exception.c **** The SysTick SYST_CSR register enables the SysTick features. The register resets to 0x00000000, or t
 166:E:\NeuOrga\Programmieren\c_cpp\github_os\input\src\os_base\os_exception.c **** 
 167:E:\NeuOrga\Programmieren\c_cpp\github_os\input\src\os_base\os_exception.c **** Table 4.33. SysTick SYST_CSR register bit assignments
 168:E:\NeuOrga\Programmieren\c_cpp\github_os\input\src\os_base\os_exception.c **** Bits	Name	Function
 169:E:\NeuOrga\Programmieren\c_cpp\github_os\input\src\os_base\os_exception.c **** [31:17]	-	Reserved.
 170:E:\NeuOrga\Programmieren\c_cpp\github_os\input\src\os_base\os_exception.c **** [16]	COUNTFLAG
 171:E:\NeuOrga\Programmieren\c_cpp\github_os\input\src\os_base\os_exception.c **** 
 172:E:\NeuOrga\Programmieren\c_cpp\github_os\input\src\os_base\os_exception.c **** Returns 1 if timer counted to 0 since last time this was read.
 173:E:\NeuOrga\Programmieren\c_cpp\github_os\input\src\os_base\os_exception.c **** [15:3]	-	Reserved.
 174:E:\NeuOrga\Programmieren\c_cpp\github_os\input\src\os_base\os_exception.c **** [2]	CLKSOURCE
 175:E:\NeuOrga\Programmieren\c_cpp\github_os\input\src\os_base\os_exception.c **** 
 176:E:\NeuOrga\Programmieren\c_cpp\github_os\input\src\os_base\os_exception.c **** Indicates the clock source:
 177:E:\NeuOrga\Programmieren\c_cpp\github_os\input\src\os_base\os_exception.c **** 
 178:E:\NeuOrga\Programmieren\c_cpp\github_os\input\src\os_base\os_exception.c **** 0 = external clock
 179:E:\NeuOrga\Programmieren\c_cpp\github_os\input\src\os_base\os_exception.c **** 
 180:E:\NeuOrga\Programmieren\c_cpp\github_os\input\src\os_base\os_exception.c **** 1 = processor clock.
 181:E:\NeuOrga\Programmieren\c_cpp\github_os\input\src\os_base\os_exception.c **** [1]	TICKINT
 182:E:\NeuOrga\Programmieren\c_cpp\github_os\input\src\os_base\os_exception.c **** 
 183:E:\NeuOrga\Programmieren\c_cpp\github_os\input\src\os_base\os_exception.c **** Enables SysTick exception request:
 184:E:\NeuOrga\Programmieren\c_cpp\github_os\input\src\os_base\os_exception.c **** 
ARM GAS  C:\Users\PRESID~1\AppData\Local\Temp\ccKpai4y.s 			page 11


 185:E:\NeuOrga\Programmieren\c_cpp\github_os\input\src\os_base\os_exception.c **** 0 = counting down to zero does not assert the SysTick exception request
 186:E:\NeuOrga\Programmieren\c_cpp\github_os\input\src\os_base\os_exception.c **** 
 187:E:\NeuOrga\Programmieren\c_cpp\github_os\input\src\os_base\os_exception.c **** 1 = counting down to zero asserts the SysTick exception request.
 188:E:\NeuOrga\Programmieren\c_cpp\github_os\input\src\os_base\os_exception.c **** 
 189:E:\NeuOrga\Programmieren\c_cpp\github_os\input\src\os_base\os_exception.c **** Software can use COUNTFLAG to determine if SysTick has ever counted to zero.
 190:E:\NeuOrga\Programmieren\c_cpp\github_os\input\src\os_base\os_exception.c **** [0]	ENABLE
 191:E:\NeuOrga\Programmieren\c_cpp\github_os\input\src\os_base\os_exception.c **** 
 192:E:\NeuOrga\Programmieren\c_cpp\github_os\input\src\os_base\os_exception.c **** Enables the counter:
 193:E:\NeuOrga\Programmieren\c_cpp\github_os\input\src\os_base\os_exception.c **** 
 194:E:\NeuOrga\Programmieren\c_cpp\github_os\input\src\os_base\os_exception.c **** 0 = counter disabled
 195:E:\NeuOrga\Programmieren\c_cpp\github_os\input\src\os_base\os_exception.c **** 
 196:E:\NeuOrga\Programmieren\c_cpp\github_os\input\src\os_base\os_exception.c **** 1 = counter enabled.
 197:E:\NeuOrga\Programmieren\c_cpp\github_os\input\src\os_base\os_exception.c **** 
 198:E:\NeuOrga\Programmieren\c_cpp\github_os\input\src\os_base\os_exception.c **** When ENABLE is set to 1, the counter loads the RELOAD value from the SYST_RVR register and then cou
 199:E:\NeuOrga\Programmieren\c_cpp\github_os\input\src\os_base\os_exception.c ****    */
 200:E:\NeuOrga\Programmieren\c_cpp\github_os\input\src\os_base\os_exception.c ****    /* disable running task */
 201:E:\NeuOrga\Programmieren\c_cpp\github_os\input\src\os_base\os_exception.c ****    task = GetRunningTask();
 400              		.loc 1 201 0
 401 0158 FFF7FEFF 		bl	GetRunningTask
 402 015c 7860     		str	r0, [r7, #4]
 202:E:\NeuOrga\Programmieren\c_cpp\github_os\input\src\os_base\os_exception.c ****    if(task != 0u)
 403              		.loc 1 202 0
 404 015e 7B68     		ldr	r3, [r7, #4]
 405 0160 002B     		cmp	r3, #0
 406 0162 2ED0     		beq	.L32
 203:E:\NeuOrga\Programmieren\c_cpp\github_os\input\src\os_base\os_exception.c ****    {
 204:E:\NeuOrga\Programmieren\c_cpp\github_os\input\src\os_base\os_exception.c ****       OS_TASK_SAVETASK_ENVIRONMENT(task);
 407              		.loc 1 204 0
 408 0164 7868     		ldr	r0, [r7, #4]
 409 0166 FFF7FEFF 		bl	OS_TASK_SAVETASK_ENVIRONMENT
 205:E:\NeuOrga\Programmieren\c_cpp\github_os\input\src\os_base\os_exception.c ****       OS_TASK_RESTORE_SYSTEM_STACK(&OS_STACK[GET_CORE_ID()][0]);
 410              		.loc 1 205 0
 411 016a FFF7FEFF 		bl	GET_CORE_ID
 412 016e 0346     		mov	r3, r0
 413 0170 1B02     		lsls	r3, r3, #8
 414 0172 194A     		ldr	r2, .L33+12
 415 0174 1344     		add	r3, r3, r2
 416 0176 1846     		mov	r0, r3
 417 0178 FFF7FEFF 		bl	OS_TASK_RESTORE_SYSTEM_STACK
 206:E:\NeuOrga\Programmieren\c_cpp\github_os\input\src\os_base\os_exception.c ****       task->active = False;
 418              		.loc 1 206 0
 419 017c 7A68     		ldr	r2, [r7, #4]
 420 017e 1378     		ldrb	r3, [r2]
 421 0180 6FF30003 		bfc	r3, #0, #1
 422 0184 1370     		strb	r3, [r2]
 207:E:\NeuOrga\Programmieren\c_cpp\github_os\input\src\os_base\os_exception.c ****       task->exe_time += (Get_current_time() - task->start_time);
 423              		.loc 1 207 0
 424 0186 FFF7FEFF 		bl	Get_current_time
 425 018a 0246     		mov	r2, r0
 426 018c 7B68     		ldr	r3, [r7, #4]
 427 018e 1B6A     		ldr	r3, [r3, #32]
 428 0190 D31A     		subs	r3, r2, r3
 429 0192 7A68     		ldr	r2, [r7, #4]
 430 0194 D269     		ldr	r2, [r2, #28]
 431 0196 1A44     		add	r2, r2, r3
 432 0198 7B68     		ldr	r3, [r7, #4]
 433 019a DA61     		str	r2, [r3, #28]
ARM GAS  C:\Users\PRESID~1\AppData\Local\Temp\ccKpai4y.s 			page 12


 208:E:\NeuOrga\Programmieren\c_cpp\github_os\input\src\os_base\os_exception.c ****       task->task_group->exe_time += (Get_current_time() - task->start_time);
 434              		.loc 1 208 0
 435 019c FFF7FEFF 		bl	Get_current_time
 436 01a0 0246     		mov	r2, r0
 437 01a2 7B68     		ldr	r3, [r7, #4]
 438 01a4 1B6A     		ldr	r3, [r3, #32]
 439 01a6 D21A     		subs	r2, r2, r3
 440 01a8 7B68     		ldr	r3, [r7, #4]
 441 01aa 9B6B     		ldr	r3, [r3, #56]
 442 01ac 7968     		ldr	r1, [r7, #4]
 443 01ae 896B     		ldr	r1, [r1, #56]
 444 01b0 0968     		ldr	r1, [r1]
 445 01b2 0A44     		add	r2, r2, r1
 446 01b4 1A60     		str	r2, [r3]
 209:E:\NeuOrga\Programmieren\c_cpp\github_os\input\src\os_base\os_exception.c ****       SET_RUNNING_TASK(0);
 447              		.loc 1 209 0
 448 01b6 0020     		movs	r0, #0
 449 01b8 FFF7FEFF 		bl	SET_RUNNING_TASK
 210:E:\NeuOrga\Programmieren\c_cpp\github_os\input\src\os_base\os_exception.c ****       OS_TERMINATE_TASK(task);
 450              		.loc 1 210 0
 451 01bc 7868     		ldr	r0, [r7, #4]
 452 01be FFF7FEFF 		bl	OS_TERMINATE_TASK
 453              	.L32:
 211:E:\NeuOrga\Programmieren\c_cpp\github_os\input\src\os_base\os_exception.c ****    }
 212:E:\NeuOrga\Programmieren\c_cpp\github_os\input\src\os_base\os_exception.c ****    OS_STATE_HANDLER();
 454              		.loc 1 212 0
 455 01c2 FFF7FEFF 		bl	OS_STATE_HANDLER
 213:E:\NeuOrga\Programmieren\c_cpp\github_os\input\src\os_base\os_exception.c **** #endif
 214:E:\NeuOrga\Programmieren\c_cpp\github_os\input\src\os_base\os_exception.c **** }
 456              		.loc 1 214 0
 457 01c6 0837     		adds	r7, r7, #8
 458              		.cfi_def_cfa_offset 8
 459 01c8 BD46     		mov	sp, r7
 460              		.cfi_def_cfa_register 13
 461              		@ sp needed
 462 01ca 80BD     		pop	{r7, pc}
 463              	.L34:
 464              		.align	2
 465              	.L33:
 466 01cc 14E000E0 		.word	-536813548
 467 01d0 18E000E0 		.word	-536813544
 468 01d4 10E000E0 		.word	-536813552
 469 01d8 00000000 		.word	OS_STACK
 470              		.cfi_endproc
 471              	.LFE9:
 473              		.align	2
 474              		.global	OS_Exception_IRQ
 475              		.thumb
 476              		.thumb_func
 478              	OS_Exception_IRQ:
 479              	.LFB10:
 215:E:\NeuOrga\Programmieren\c_cpp\github_os\input\src\os_base\os_exception.c **** 
 216:E:\NeuOrga\Programmieren\c_cpp\github_os\input\src\os_base\os_exception.c **** void OS_Exception_IRQ(void)
 217:E:\NeuOrga\Programmieren\c_cpp\github_os\input\src\os_base\os_exception.c **** {
 480              		.loc 1 217 0
 481              		.cfi_startproc
 482              		@ args = 0, pretend = 0, frame = 0
ARM GAS  C:\Users\PRESID~1\AppData\Local\Temp\ccKpai4y.s 			page 13


 483              		@ frame_needed = 1, uses_anonymous_args = 0
 484 01dc 80B5     		push	{r7, lr}
 485              		.cfi_def_cfa_offset 8
 486              		.cfi_offset 7, -8
 487              		.cfi_offset 14, -4
 488 01de 00AF     		add	r7, sp, #0
 489              		.cfi_def_cfa_register 7
 218:E:\NeuOrga\Programmieren\c_cpp\github_os\input\src\os_base\os_exception.c **** #if(CFG_PROCESSOR == cMCU_CORTEX_M4)
 219:E:\NeuOrga\Programmieren\c_cpp\github_os\input\src\os_base\os_exception.c ****    OS_ISRHANDLERC0();
 490              		.loc 1 219 0
 491 01e0 FFF7FEFF 		bl	OS_ISRHANDLERC0
 220:E:\NeuOrga\Programmieren\c_cpp\github_os\input\src\os_base\os_exception.c **** #endif
 221:E:\NeuOrga\Programmieren\c_cpp\github_os\input\src\os_base\os_exception.c **** }
 492              		.loc 1 221 0
 493 01e4 80BD     		pop	{r7, pc}
 494              		.cfi_endproc
 495              	.LFE10:
 497 01e6 00BF     		.align	2
 498              		.global	OS_Exception_FIQ
 499              		.thumb
 500              		.thumb_func
 502              	OS_Exception_FIQ:
 503              	.LFB11:
 222:E:\NeuOrga\Programmieren\c_cpp\github_os\input\src\os_base\os_exception.c **** void OS_Exception_FIQ(void)
 223:E:\NeuOrga\Programmieren\c_cpp\github_os\input\src\os_base\os_exception.c **** {
 504              		.loc 1 223 0
 505              		.cfi_startproc
 506              		@ args = 0, pretend = 0, frame = 0
 507              		@ frame_needed = 1, uses_anonymous_args = 0
 508 01e8 80B5     		push	{r7, lr}
 509              		.cfi_def_cfa_offset 8
 510              		.cfi_offset 7, -8
 511              		.cfi_offset 14, -4
 512 01ea 00AF     		add	r7, sp, #0
 513              		.cfi_def_cfa_register 7
 224:E:\NeuOrga\Programmieren\c_cpp\github_os\input\src\os_base\os_exception.c **** #if(CFG_PROCESSOR == cMCU_CORTEX_M4)
 225:E:\NeuOrga\Programmieren\c_cpp\github_os\input\src\os_base\os_exception.c ****    OS_ISRHANDLERC0();
 514              		.loc 1 225 0
 515 01ec FFF7FEFF 		bl	OS_ISRHANDLERC0
 226:E:\NeuOrga\Programmieren\c_cpp\github_os\input\src\os_base\os_exception.c **** #endif
 227:E:\NeuOrga\Programmieren\c_cpp\github_os\input\src\os_base\os_exception.c **** }
 516              		.loc 1 227 0
 517 01f0 80BD     		pop	{r7, pc}
 518              		.cfi_endproc
 519              	.LFE11:
 521 01f2 00BF     		.align	2
 522              		.global	TCMP1
 523              		.thumb
 524              		.thumb_func
 526              	TCMP1:
 527              	.LFB12:
 228:E:\NeuOrga\Programmieren\c_cpp\github_os\input\src\os_base\os_exception.c **** 
 229:E:\NeuOrga\Programmieren\c_cpp\github_os\input\src\os_base\os_exception.c **** 
 230:E:\NeuOrga\Programmieren\c_cpp\github_os\input\src\os_base\os_exception.c **** ISR TCMP1(void)
 231:E:\NeuOrga\Programmieren\c_cpp\github_os\input\src\os_base\os_exception.c **** {
 528              		.loc 1 231 0
 529              		.cfi_startproc
ARM GAS  C:\Users\PRESID~1\AppData\Local\Temp\ccKpai4y.s 			page 14


 530              		@ args = 0, pretend = 0, frame = 0
 531              		@ frame_needed = 1, uses_anonymous_args = 0
 532 01f4 80B5     		push	{r7, lr}
 533              		.cfi_def_cfa_offset 8
 534              		.cfi_offset 7, -8
 535              		.cfi_offset 14, -4
 536 01f6 00AF     		add	r7, sp, #0
 537              		.cfi_def_cfa_register 7
 232:E:\NeuOrga\Programmieren\c_cpp\github_os\input\src\os_base\os_exception.c **** #if(CFG_PROCESSOR == cMCU_CORTEX_M4)
 233:E:\NeuOrga\Programmieren\c_cpp\github_os\input\src\os_base\os_exception.c ****    OS_ISRHANDLERC0();
 538              		.loc 1 233 0
 539 01f8 FFF7FEFF 		bl	OS_ISRHANDLERC0
 234:E:\NeuOrga\Programmieren\c_cpp\github_os\input\src\os_base\os_exception.c **** #endif
 235:E:\NeuOrga\Programmieren\c_cpp\github_os\input\src\os_base\os_exception.c **** }
 540              		.loc 1 235 0
 541 01fc 80BD     		pop	{r7, pc}
 542              		.cfi_endproc
 543              	.LFE12:
 545 01fe 00BF     		.align	2
 546              		.global	TCMP2
 547              		.thumb
 548              		.thumb_func
 550              	TCMP2:
 551              	.LFB13:
 236:E:\NeuOrga\Programmieren\c_cpp\github_os\input\src\os_base\os_exception.c **** ISR TCMP2(void)
 237:E:\NeuOrga\Programmieren\c_cpp\github_os\input\src\os_base\os_exception.c **** {
 552              		.loc 1 237 0
 553              		.cfi_startproc
 554              		@ args = 0, pretend = 0, frame = 0
 555              		@ frame_needed = 1, uses_anonymous_args = 0
 556              		@ link register save eliminated.
 557 0200 80B4     		push	{r7}
 558              		.cfi_def_cfa_offset 4
 559              		.cfi_offset 7, -4
 560 0202 00AF     		add	r7, sp, #0
 561              		.cfi_def_cfa_register 7
 238:E:\NeuOrga\Programmieren\c_cpp\github_os\input\src\os_base\os_exception.c **** #if(CFG_PROCESSOR == cMCU_CORTEX_M4)
 239:E:\NeuOrga\Programmieren\c_cpp\github_os\input\src\os_base\os_exception.c ****    
 240:E:\NeuOrga\Programmieren\c_cpp\github_os\input\src\os_base\os_exception.c **** #endif
 241:E:\NeuOrga\Programmieren\c_cpp\github_os\input\src\os_base\os_exception.c **** }
 562              		.loc 1 241 0
 563 0204 BD46     		mov	sp, r7
 564              		.cfi_def_cfa_register 13
 565              		@ sp needed
 566 0206 5DF8047B 		ldr	r7, [sp], #4
 567              		.cfi_restore 7
 568              		.cfi_def_cfa_offset 0
 569 020a 7047     		bx	lr
 570              		.cfi_endproc
 571              	.LFE13:
 573              		.align	2
 574              		.global	TCMP3
 575              		.thumb
 576              		.thumb_func
 578              	TCMP3:
 579              	.LFB14:
 242:E:\NeuOrga\Programmieren\c_cpp\github_os\input\src\os_base\os_exception.c **** ISR TCMP3(void)
ARM GAS  C:\Users\PRESID~1\AppData\Local\Temp\ccKpai4y.s 			page 15


 243:E:\NeuOrga\Programmieren\c_cpp\github_os\input\src\os_base\os_exception.c **** {
 580              		.loc 1 243 0
 581              		.cfi_startproc
 582              		@ args = 0, pretend = 0, frame = 0
 583              		@ frame_needed = 1, uses_anonymous_args = 0
 584              		@ link register save eliminated.
 585 020c 80B4     		push	{r7}
 586              		.cfi_def_cfa_offset 4
 587              		.cfi_offset 7, -4
 588 020e 00AF     		add	r7, sp, #0
 589              		.cfi_def_cfa_register 7
 244:E:\NeuOrga\Programmieren\c_cpp\github_os\input\src\os_base\os_exception.c **** #if(CFG_PROCESSOR == cMCU_CORTEX_M4)
 245:E:\NeuOrga\Programmieren\c_cpp\github_os\input\src\os_base\os_exception.c **** 
 246:E:\NeuOrga\Programmieren\c_cpp\github_os\input\src\os_base\os_exception.c **** #endif
 247:E:\NeuOrga\Programmieren\c_cpp\github_os\input\src\os_base\os_exception.c **** }
 590              		.loc 1 247 0
 591 0210 BD46     		mov	sp, r7
 592              		.cfi_def_cfa_register 13
 593              		@ sp needed
 594 0212 5DF8047B 		ldr	r7, [sp], #4
 595              		.cfi_restore 7
 596              		.cfi_def_cfa_offset 0
 597 0216 7047     		bx	lr
 598              		.cfi_endproc
 599              	.LFE14:
 601              		.align	2
 602              		.global	TCMP4
 603              		.thumb
 604              		.thumb_func
 606              	TCMP4:
 607              	.LFB15:
 248:E:\NeuOrga\Programmieren\c_cpp\github_os\input\src\os_base\os_exception.c **** ISR TCMP4(void)
 249:E:\NeuOrga\Programmieren\c_cpp\github_os\input\src\os_base\os_exception.c **** {
 608              		.loc 1 249 0
 609              		.cfi_startproc
 610              		@ args = 0, pretend = 0, frame = 0
 611              		@ frame_needed = 1, uses_anonymous_args = 0
 612              		@ link register save eliminated.
 613 0218 80B4     		push	{r7}
 614              		.cfi_def_cfa_offset 4
 615              		.cfi_offset 7, -4
 616 021a 00AF     		add	r7, sp, #0
 617              		.cfi_def_cfa_register 7
 250:E:\NeuOrga\Programmieren\c_cpp\github_os\input\src\os_base\os_exception.c **** #if(CFG_PROCESSOR == cMCU_CORTEX_M4)
 251:E:\NeuOrga\Programmieren\c_cpp\github_os\input\src\os_base\os_exception.c **** 
 252:E:\NeuOrga\Programmieren\c_cpp\github_os\input\src\os_base\os_exception.c **** #endif
 253:E:\NeuOrga\Programmieren\c_cpp\github_os\input\src\os_base\os_exception.c **** }
 618              		.loc 1 253 0
 619 021c BD46     		mov	sp, r7
 620              		.cfi_def_cfa_register 13
 621              		@ sp needed
 622 021e 5DF8047B 		ldr	r7, [sp], #4
 623              		.cfi_restore 7
 624              		.cfi_def_cfa_offset 0
 625 0222 7047     		bx	lr
 626              		.cfi_endproc
 627              	.LFE15:
ARM GAS  C:\Users\PRESID~1\AppData\Local\Temp\ccKpai4y.s 			page 16


 629              	.Letext0:
 630              		.file 2 "e:\\neuorga\\programmieren\\c_cpp\\github_os\\input\\src\\os_base\\os_base_types.h"
 631              		.file 3 "e:\\neuorga\\programmieren\\c_cpp\\github_os\\input\\src\\os_base\\os_task_common.h"
 632              		.file 4 "E:\\NeuOrga\\Programmieren\\c_cpp\\github_os\\input\\src\\os_base\\os_shutdown.h"
 633              		.file 5 "e:\\neuorga\\programmieren\\c_cpp\\github_os\\input\\src\\os_base\\os_ram.h"
ARM GAS  C:\Users\PRESID~1\AppData\Local\Temp\ccKpai4y.s 			page 17


DEFINED SYMBOLS
                            *ABS*:00000000 os_exception.c
C:\Users\PRESID~1\AppData\Local\Temp\ccKpai4y.s:18     .text:00000000 $t
C:\Users\PRESID~1\AppData\Local\Temp\ccKpai4y.s:22     .text:00000000 OS_Exception_Read_Status_Registers
C:\Users\PRESID~1\AppData\Local\Temp\ccKpai4y.s:87     .text:00000050 $d
C:\Users\PRESID~1\AppData\Local\Temp\ccKpai4y.s:104    .text:00000088 $t
C:\Users\PRESID~1\AppData\Local\Temp\ccKpai4y.s:109    .text:00000088 OS_Exception_HARDFAULT
C:\Users\PRESID~1\AppData\Local\Temp\ccKpai4y.s:135    .text:0000009c $d
C:\Users\PRESID~1\AppData\Local\Temp\ccKpai4y.s:139    .text:000000a0 $t
C:\Users\PRESID~1\AppData\Local\Temp\ccKpai4y.s:144    .text:000000a0 OS_Exception_NMI
C:\Users\PRESID~1\AppData\Local\Temp\ccKpai4y.s:170    .text:000000b4 $d
C:\Users\PRESID~1\AppData\Local\Temp\ccKpai4y.s:174    .text:000000b8 $t
C:\Users\PRESID~1\AppData\Local\Temp\ccKpai4y.s:179    .text:000000b8 OS_Exception_SWI
C:\Users\PRESID~1\AppData\Local\Temp\ccKpai4y.s:204    .text:000000cc $d
C:\Users\PRESID~1\AppData\Local\Temp\ccKpai4y.s:208    .text:000000d0 $t
C:\Users\PRESID~1\AppData\Local\Temp\ccKpai4y.s:213    .text:000000d0 OS_Exception_BUS_FAULT
C:\Users\PRESID~1\AppData\Local\Temp\ccKpai4y.s:239    .text:000000e4 $d
C:\Users\PRESID~1\AppData\Local\Temp\ccKpai4y.s:243    .text:000000e8 $t
C:\Users\PRESID~1\AppData\Local\Temp\ccKpai4y.s:248    .text:000000e8 OS_Exception_DEBUG
C:\Users\PRESID~1\AppData\Local\Temp\ccKpai4y.s:273    .text:000000f4 OS_Exception_MEM_MANAG_FAULT
C:\Users\PRESID~1\AppData\Local\Temp\ccKpai4y.s:299    .text:00000108 $d
C:\Users\PRESID~1\AppData\Local\Temp\ccKpai4y.s:303    .text:0000010c $t
C:\Users\PRESID~1\AppData\Local\Temp\ccKpai4y.s:308    .text:0000010c OS_Exception_USAGE_FAULT
C:\Users\PRESID~1\AppData\Local\Temp\ccKpai4y.s:334    .text:00000120 $d
C:\Users\PRESID~1\AppData\Local\Temp\ccKpai4y.s:338    .text:00000124 $t
C:\Users\PRESID~1\AppData\Local\Temp\ccKpai4y.s:343    .text:00000124 OS_Exception_PendSV
C:\Users\PRESID~1\AppData\Local\Temp\ccKpai4y.s:366    .text:0000012c OS_Exception_Systick
C:\Users\PRESID~1\AppData\Local\Temp\ccKpai4y.s:466    .text:000001cc $d
C:\Users\PRESID~1\AppData\Local\Temp\ccKpai4y.s:473    .text:000001dc $t
C:\Users\PRESID~1\AppData\Local\Temp\ccKpai4y.s:478    .text:000001dc OS_Exception_IRQ
C:\Users\PRESID~1\AppData\Local\Temp\ccKpai4y.s:502    .text:000001e8 OS_Exception_FIQ
C:\Users\PRESID~1\AppData\Local\Temp\ccKpai4y.s:526    .text:000001f4 TCMP1
C:\Users\PRESID~1\AppData\Local\Temp\ccKpai4y.s:550    .text:00000200 TCMP2
C:\Users\PRESID~1\AppData\Local\Temp\ccKpai4y.s:578    .text:0000020c TCMP3
C:\Users\PRESID~1\AppData\Local\Temp\ccKpai4y.s:606    .text:00000218 TCMP4
                     .debug_frame:00000010 $d
                           .group:00000000 wm4.0.235f4ede03ac0010553e0a50454c6591
                           .group:00000000 wm4.os_base_types.h.2.f3c0267f175f5cbacca6b71710665a02
                           .group:00000000 wm4.os_common.h.2.dc27b9b2168d1784dc01b241752b07b2
                           .group:00000000 wm4.os_stack.h.2.19e5f67d3b2f1e569581f0c055512986
                           .group:00000000 wm4.os_heap.h.2.89074aae455d2462b5952479e3530dd1
                           .group:00000000 wm4.os_main.h.2.1f66ae3841c27bd36097fa1d2e1fe6a7
                           .group:00000000 wm4.os_task_config.h.2.7cfaa082f19f6144d85c64ce1f04b914
                           .group:00000000 wm4.os_task_common.h.93.9db5c540899793a03f331176d195d033
                           .group:00000000 wm4.os_exception_isr_handler.h.2.19ab7c9017e871de2a8a91d100f54831
                           .group:00000000 wm4.os_task_queue.h.6.11b2b5108cc81a52748b72bfa95a66ad
                           .group:00000000 wm4.os_task_scheduler.h.2.125feba674fa85672711aed1ca8ea199

UNDEFINED SYMBOLS
VAR_HARDFAULT_STATUS_REG
VAR_MEM_MANAG_FAULT_STATUS_REG
VAR_BUS_FAULT_STATUS_REG
VAR_USAGE_FAULT_STATUS_REG
VAR_MEM_FAULT_ADDR_REG
VAR_BUS_FAULT_ADDR_REG
VAR_AUX_FAULT_STATUS_REG
LINK_REGISTER_HANDLER
ARM GAS  C:\Users\PRESID~1\AppData\Local\Temp\ccKpai4y.s 			page 18


OS_ISRHANDLERC0
GetRunningTask
OS_TASK_SAVETASK_ENVIRONMENT
GET_CORE_ID
OS_TASK_RESTORE_SYSTEM_STACK
Get_current_time
SET_RUNNING_TASK
OS_TERMINATE_TASK
OS_STATE_HANDLER
OS_STACK
