ARM GAS  C:\Users\PRESID~1\AppData\Local\Temp\ccET6nar.s 			page 1


   1              		.cpu cortex-m4
   2              		.eabi_attribute 20, 1
   3              		.eabi_attribute 21, 1
   4              		.eabi_attribute 23, 3
   5              		.eabi_attribute 24, 1
   6              		.eabi_attribute 25, 1
   7              		.eabi_attribute 26, 1
   8              		.eabi_attribute 30, 2
   9              		.eabi_attribute 34, 1
  10              		.eabi_attribute 18, 4
  11              		.file	"os_exception.c"
  12              		.text
  13              	.Ltext0:
  14              		.cfi_sections	.debug_frame
  15              		.align	1
  16              		.p2align 2,,3
  17              		.global	OS_Exception_NMI
  18              		.syntax unified
  19              		.thumb
  20              		.thumb_func
  21              		.fpu softvfp
  23              	OS_Exception_NMI:
  24              	.LFB1:
  25              		.file 1 "E:\\NeuOrga\\Programmieren\\c_cpp\\github_os\\input\\src\\os_base\\os_exception.c"
   1:E:\NeuOrga\Programmieren\c_cpp\github_os\input\src\os_base\os_exception.c **** #include "os_firstinc.h"
   2:E:\NeuOrga\Programmieren\c_cpp\github_os\input\src\os_base\os_exception.c **** #include "os_exception_isr_handler.h"
   3:E:\NeuOrga\Programmieren\c_cpp\github_os\input\src\os_base\os_exception.c **** #include "os_shutdown.h"
   4:E:\NeuOrga\Programmieren\c_cpp\github_os\input\src\os_base\os_exception.c **** #include "os_start_os.h"
   5:E:\NeuOrga\Programmieren\c_cpp\github_os\input\src\os_base\os_exception.c **** #include "..\os_base\os_task_queue.h"
   6:E:\NeuOrga\Programmieren\c_cpp\github_os\input\src\os_base\os_exception.c **** #include "..\os_base\os_task_scheduler.h"
   7:E:\NeuOrga\Programmieren\c_cpp\github_os\input\src\os_base\os_exception.c **** /* the Interrupt table is set via the code linked to 0x00 and following ...   */
   8:E:\NeuOrga\Programmieren\c_cpp\github_os\input\src\os_base\os_exception.c **** /* interrupts are disabled during RESET exception and will be enabled by task system */
   9:E:\NeuOrga\Programmieren\c_cpp\github_os\input\src\os_base\os_exception.c **** 
  10:E:\NeuOrga\Programmieren\c_cpp\github_os\input\src\os_base\os_exception.c **** /*All infos regarding faults are stored in seperate variables (not in a shared structure)
  11:E:\NeuOrga\Programmieren\c_cpp\github_os\input\src\os_base\os_exception.c ****  because the debugger can read from addresses only, but does not know padding of structures.... */
  12:E:\NeuOrga\Programmieren\c_cpp\github_os\input\src\os_base\os_exception.c **** 
  13:E:\NeuOrga\Programmieren\c_cpp\github_os\input\src\os_base\os_exception.c **** #if(CFG_PROCESSOR == cMCU_CORTEX_M4)
  14:E:\NeuOrga\Programmieren\c_cpp\github_os\input\src\os_base\os_exception.c **** Local __inline__ void OS_Exception_Read_Status_Registers(void)
  15:E:\NeuOrga\Programmieren\c_cpp\github_os\input\src\os_base\os_exception.c **** {
  16:E:\NeuOrga\Programmieren\c_cpp\github_os\input\src\os_base\os_exception.c ****    #define HARDFAULT_STATUS_REG ((volatile uint32*)0xE000ED2Cu)
  17:E:\NeuOrga\Programmieren\c_cpp\github_os\input\src\os_base\os_exception.c ****    #define MEM_MANAG_FAULT_STATUS_REG     ((volatile uint8*)0xE000ED28u)
  18:E:\NeuOrga\Programmieren\c_cpp\github_os\input\src\os_base\os_exception.c ****    #define BUS_FAULT_STATUS_REG     ((volatile uint8*)0xE000ED29u)
  19:E:\NeuOrga\Programmieren\c_cpp\github_os\input\src\os_base\os_exception.c ****    #define USAGE_FAULT_STATUS_REG     ((volatile uint16*)0xE000ED2Au)
  20:E:\NeuOrga\Programmieren\c_cpp\github_os\input\src\os_base\os_exception.c ****    #define MEM_FAULT_ADDR_REG   ((volatile uint32*)0xE000ED34u)
  21:E:\NeuOrga\Programmieren\c_cpp\github_os\input\src\os_base\os_exception.c ****    #define BUS_FAULT_ADDR_REG   ((volatile uint32*)0xE000ED38u)
  22:E:\NeuOrga\Programmieren\c_cpp\github_os\input\src\os_base\os_exception.c ****    #define AUX_FAULT_STATUS_REG ((volatile uint32*)0xE000ED3Cu)
  23:E:\NeuOrga\Programmieren\c_cpp\github_os\input\src\os_base\os_exception.c ****    VAR_HARDFAULT_STATUS_REG = *HARDFAULT_STATUS_REG;
  24:E:\NeuOrga\Programmieren\c_cpp\github_os\input\src\os_base\os_exception.c ****    VAR_MEM_MANAG_FAULT_STATUS_REG     = *MEM_MANAG_FAULT_STATUS_REG;
  25:E:\NeuOrga\Programmieren\c_cpp\github_os\input\src\os_base\os_exception.c ****    VAR_BUS_FAULT_STATUS_REG   = *BUS_FAULT_STATUS_REG;
  26:E:\NeuOrga\Programmieren\c_cpp\github_os\input\src\os_base\os_exception.c ****    VAR_USAGE_FAULT_STATUS_REG = *USAGE_FAULT_STATUS_REG;
  27:E:\NeuOrga\Programmieren\c_cpp\github_os\input\src\os_base\os_exception.c ****    VAR_MEM_FAULT_ADDR_REG   = *MEM_FAULT_ADDR_REG;
  28:E:\NeuOrga\Programmieren\c_cpp\github_os\input\src\os_base\os_exception.c ****    VAR_BUS_FAULT_ADDR_REG   = *BUS_FAULT_ADDR_REG;
  29:E:\NeuOrga\Programmieren\c_cpp\github_os\input\src\os_base\os_exception.c ****    VAR_AUX_FAULT_STATUS_REG = *AUX_FAULT_STATUS_REG;
  30:E:\NeuOrga\Programmieren\c_cpp\github_os\input\src\os_base\os_exception.c **** }
  31:E:\NeuOrga\Programmieren\c_cpp\github_os\input\src\os_base\os_exception.c **** #endif
  32:E:\NeuOrga\Programmieren\c_cpp\github_os\input\src\os_base\os_exception.c **** /* 0x00000000 Stack -> not implemented via function, see stack.c        */
  33:E:\NeuOrga\Programmieren\c_cpp\github_os\input\src\os_base\os_exception.c **** /* 0x00000004 OS_Exception_RESET -> implemented in os_exception_reset.s */
ARM GAS  C:\Users\PRESID~1\AppData\Local\Temp\ccET6nar.s 			page 2


  34:E:\NeuOrga\Programmieren\c_cpp\github_os\input\src\os_base\os_exception.c **** /* 0x00000008 OS_Exception_NMI */
  35:E:\NeuOrga\Programmieren\c_cpp\github_os\input\src\os_base\os_exception.c **** void OS_Exception_NMI(void)
  36:E:\NeuOrga\Programmieren\c_cpp\github_os\input\src\os_base\os_exception.c **** {
  26              		.loc 1 36 0
  27              		.cfi_startproc
  28              		@ args = 0, pretend = 0, frame = 0
  29              		@ frame_needed = 0, uses_anonymous_args = 0
  30 0000 38B5     		push	{r3, r4, r5, lr}
  31              		.cfi_def_cfa_offset 16
  32              		.cfi_offset 3, -16
  33              		.cfi_offset 4, -12
  34              		.cfi_offset 5, -8
  35              		.cfi_offset 14, -4
  37:E:\NeuOrga\Programmieren\c_cpp\github_os\input\src\os_base\os_exception.c **** #if(CFG_PROCESSOR == cMCU_CORTEX_M4)
  38:E:\NeuOrga\Programmieren\c_cpp\github_os\input\src\os_base\os_exception.c ****    __asm__ __volatile__ ("LDR r0,%0;\
  36              		.loc 1 38 0
  37 0002 154B     		ldr	r3, .L4
  38              		.syntax unified
  39              	@ 38 "E:\NeuOrga\Programmieren\c_cpp\github_os\input\src\os_base\os_exception.c" 1
  40 0004 1868C0F8 		LDR r0,[r3];                          STR r14,[r0];
  40      00E0
  41              	@ 0 "" 2
  42              		.thumb
  43              		.syntax unified
  44              	.LBB18:
  45              	.LBB19:
  23:E:\NeuOrga\Programmieren\c_cpp\github_os\input\src\os_base\os_exception.c ****    VAR_MEM_MANAG_FAULT_STATUS_REG     = *MEM_MANAG_FAULT_STATUS_REG;
  46              		.loc 1 23 0
  47 000a 144B     		ldr	r3, .L4+4
  48 000c 144A     		ldr	r2, .L4+8
  49 000e 1968     		ldr	r1, [r3]
  50 0010 1160     		str	r1, [r2]
  24:E:\NeuOrga\Programmieren\c_cpp\github_os\input\src\os_base\os_exception.c ****    VAR_BUS_FAULT_STATUS_REG   = *BUS_FAULT_STATUS_REG;
  51              		.loc 1 24 0
  52 0012 043B     		subs	r3, r3, #4
  53 0014 134C     		ldr	r4, .L4+12
  54 0016 1B78     		ldrb	r3, [r3]	@ zero_extendqisi2
  25:E:\NeuOrga\Programmieren\c_cpp\github_os\input\src\os_base\os_exception.c ****    VAR_USAGE_FAULT_STATUS_REG = *USAGE_FAULT_STATUS_REG;
  55              		.loc 1 25 0
  56 0018 1348     		ldr	r0, .L4+16
  57 001a 1449     		ldr	r1, .L4+20
  26:E:\NeuOrga\Programmieren\c_cpp\github_os\input\src\os_base\os_exception.c ****    VAR_MEM_FAULT_ADDR_REG   = *MEM_FAULT_ADDR_REG;
  58              		.loc 1 26 0
  59 001c 144A     		ldr	r2, .L4+24
  60 001e 154D     		ldr	r5, .L4+28
  24:E:\NeuOrga\Programmieren\c_cpp\github_os\input\src\os_base\os_exception.c ****    VAR_BUS_FAULT_STATUS_REG   = *BUS_FAULT_STATUS_REG;
  61              		.loc 1 24 0
  62 0020 DBB2     		uxtb	r3, r3
  63 0022 2360     		str	r3, [r4]
  25:E:\NeuOrga\Programmieren\c_cpp\github_os\input\src\os_base\os_exception.c ****    VAR_USAGE_FAULT_STATUS_REG = *USAGE_FAULT_STATUS_REG;
  64              		.loc 1 25 0
  65 0024 0378     		ldrb	r3, [r0]	@ zero_extendqisi2
  27:E:\NeuOrga\Programmieren\c_cpp\github_os\input\src\os_base\os_exception.c ****    VAR_BUS_FAULT_ADDR_REG   = *BUS_FAULT_ADDR_REG;
  66              		.loc 1 27 0
  67 0026 144C     		ldr	r4, .L4+32
  68 0028 1448     		ldr	r0, .L4+36
  25:E:\NeuOrga\Programmieren\c_cpp\github_os\input\src\os_base\os_exception.c ****    VAR_USAGE_FAULT_STATUS_REG = *USAGE_FAULT_STATUS_REG;
ARM GAS  C:\Users\PRESID~1\AppData\Local\Temp\ccET6nar.s 			page 3


  69              		.loc 1 25 0
  70 002a DBB2     		uxtb	r3, r3
  71 002c 0B60     		str	r3, [r1]
  26:E:\NeuOrga\Programmieren\c_cpp\github_os\input\src\os_base\os_exception.c ****    VAR_MEM_FAULT_ADDR_REG   = *MEM_FAULT_ADDR_REG;
  72              		.loc 1 26 0
  73 002e 1388     		ldrh	r3, [r2]
  28:E:\NeuOrga\Programmieren\c_cpp\github_os\input\src\os_base\os_exception.c ****    VAR_AUX_FAULT_STATUS_REG = *AUX_FAULT_STATUS_REG;
  74              		.loc 1 28 0
  75 0030 1349     		ldr	r1, .L4+40
  26:E:\NeuOrga\Programmieren\c_cpp\github_os\input\src\os_base\os_exception.c ****    VAR_MEM_FAULT_ADDR_REG   = *MEM_FAULT_ADDR_REG;
  76              		.loc 1 26 0
  77 0032 9BB2     		uxth	r3, r3
  78 0034 2B60     		str	r3, [r5]
  27:E:\NeuOrga\Programmieren\c_cpp\github_os\input\src\os_base\os_exception.c ****    VAR_BUS_FAULT_ADDR_REG   = *BUS_FAULT_ADDR_REG;
  79              		.loc 1 27 0
  80 0036 2368     		ldr	r3, [r4]
  81 0038 0360     		str	r3, [r0]
  28:E:\NeuOrga\Programmieren\c_cpp\github_os\input\src\os_base\os_exception.c ****    VAR_AUX_FAULT_STATUS_REG = *AUX_FAULT_STATUS_REG;
  82              		.loc 1 28 0
  83 003a D2F80E30 		ldr	r3, [r2, #14]
  84 003e 0B60     		str	r3, [r1]
  29:E:\NeuOrga\Programmieren\c_cpp\github_os\input\src\os_base\os_exception.c **** }
  85              		.loc 1 29 0
  86 0040 1232     		adds	r2, r2, #18
  87 0042 104B     		ldr	r3, .L4+44
  88 0044 1268     		ldr	r2, [r2]
  89 0046 1A60     		str	r2, [r3]
  90              	.LBE19:
  91              	.LBE18:
  39:E:\NeuOrga\Programmieren\c_cpp\github_os\input\src\os_base\os_exception.c ****                           STR r14,[r0];"
  40:E:\NeuOrga\Programmieren\c_cpp\github_os\input\src\os_base\os_exception.c ****                         :"=m"(LINK_REGISTER_HANDLER)
  41:E:\NeuOrga\Programmieren\c_cpp\github_os\input\src\os_base\os_exception.c ****                         :
  42:E:\NeuOrga\Programmieren\c_cpp\github_os\input\src\os_base\os_exception.c ****                         :"r0"
  43:E:\NeuOrga\Programmieren\c_cpp\github_os\input\src\os_base\os_exception.c ****                         );
  44:E:\NeuOrga\Programmieren\c_cpp\github_os\input\src\os_base\os_exception.c ****    OS_Exception_Read_Status_Registers();
  45:E:\NeuOrga\Programmieren\c_cpp\github_os\input\src\os_base\os_exception.c ****   
  46:E:\NeuOrga\Programmieren\c_cpp\github_os\input\src\os_base\os_exception.c ****    /* run all exceptions in handler mode */
  47:E:\NeuOrga\Programmieren\c_cpp\github_os\input\src\os_base\os_exception.c ****    LLF_EXCEPTION_TO_HANDLER_MODE();
  92              		.loc 1 47 0
  93 0048 FFF7FEFF 		bl	LLF_EXCEPTION_TO_HANDLER_MODE
  94              	.LVL0:
  48:E:\NeuOrga\Programmieren\c_cpp\github_os\input\src\os_base\os_exception.c ****    
  49:E:\NeuOrga\Programmieren\c_cpp\github_os\input\src\os_base\os_exception.c ****    OS_Shutdown(os_reset_hardreset);
  95              		.loc 1 49 0
  96 004c 0020     		movs	r0, #0
  50:E:\NeuOrga\Programmieren\c_cpp\github_os\input\src\os_base\os_exception.c **** #endif
  51:E:\NeuOrga\Programmieren\c_cpp\github_os\input\src\os_base\os_exception.c **** }
  97              		.loc 1 51 0
  98 004e BDE83840 		pop	{r3, r4, r5, lr}
  99              		.cfi_restore 14
 100              		.cfi_restore 5
 101              		.cfi_restore 4
 102              		.cfi_restore 3
 103              		.cfi_def_cfa_offset 0
  49:E:\NeuOrga\Programmieren\c_cpp\github_os\input\src\os_base\os_exception.c **** #endif
 104              		.loc 1 49 0
 105 0052 FFF7FEBF 		b	OS_Shutdown
ARM GAS  C:\Users\PRESID~1\AppData\Local\Temp\ccET6nar.s 			page 4


 106              	.LVL1:
 107              	.L5:
 108 0056 00BF     		.align	2
 109              	.L4:
 110 0058 00000000 		.word	LINK_REGISTER_HANDLER
 111 005c 2CED00E0 		.word	-536810196
 112 0060 00000000 		.word	VAR_HARDFAULT_STATUS_REG
 113 0064 00000000 		.word	VAR_MEM_MANAG_FAULT_STATUS_REG
 114 0068 29ED00E0 		.word	-536810199
 115 006c 00000000 		.word	VAR_BUS_FAULT_STATUS_REG
 116 0070 2AED00E0 		.word	-536810198
 117 0074 00000000 		.word	VAR_USAGE_FAULT_STATUS_REG
 118 0078 34ED00E0 		.word	-536810188
 119 007c 00000000 		.word	VAR_MEM_FAULT_ADDR_REG
 120 0080 00000000 		.word	VAR_BUS_FAULT_ADDR_REG
 121 0084 00000000 		.word	VAR_AUX_FAULT_STATUS_REG
 122              		.cfi_endproc
 123              	.LFE1:
 125              		.align	1
 126              		.p2align 2,,3
 127              		.global	OS_Exception_HARDFAULT
 128              		.syntax unified
 129              		.thumb
 130              		.thumb_func
 131              		.fpu softvfp
 133              	OS_Exception_HARDFAULT:
 134              	.LFB11:
 135              		.cfi_startproc
 136              		@ args = 0, pretend = 0, frame = 0
 137              		@ frame_needed = 0, uses_anonymous_args = 0
 138 0088 38B5     		push	{r3, r4, r5, lr}
 139              		.cfi_def_cfa_offset 16
 140              		.cfi_offset 3, -16
 141              		.cfi_offset 4, -12
 142              		.cfi_offset 5, -8
 143              		.cfi_offset 14, -4
 144 008a 154B     		ldr	r3, .L8
 145              		.syntax unified
 146              	@ 38 "E:\NeuOrga\Programmieren\c_cpp\github_os\input\src\os_base\os_exception.c" 1
 147 008c 1868C0F8 		LDR r0,[r3];                          STR r14,[r0];
 147      00E0
 148              	@ 0 "" 2
 149              		.thumb
 150              		.syntax unified
 151 0092 144B     		ldr	r3, .L8+4
 152 0094 144A     		ldr	r2, .L8+8
 153 0096 1968     		ldr	r1, [r3]
 154 0098 1160     		str	r1, [r2]
 155 009a 043B     		subs	r3, r3, #4
 156 009c 134C     		ldr	r4, .L8+12
 157 009e 1B78     		ldrb	r3, [r3]	@ zero_extendqisi2
 158 00a0 1348     		ldr	r0, .L8+16
 159 00a2 1449     		ldr	r1, .L8+20
 160 00a4 144A     		ldr	r2, .L8+24
 161 00a6 154D     		ldr	r5, .L8+28
 162 00a8 DBB2     		uxtb	r3, r3
 163 00aa 2360     		str	r3, [r4]
ARM GAS  C:\Users\PRESID~1\AppData\Local\Temp\ccET6nar.s 			page 5


 164 00ac 0378     		ldrb	r3, [r0]	@ zero_extendqisi2
 165 00ae 144C     		ldr	r4, .L8+32
 166 00b0 1448     		ldr	r0, .L8+36
 167 00b2 DBB2     		uxtb	r3, r3
 168 00b4 0B60     		str	r3, [r1]
 169 00b6 1388     		ldrh	r3, [r2]
 170 00b8 1349     		ldr	r1, .L8+40
 171 00ba 9BB2     		uxth	r3, r3
 172 00bc 2B60     		str	r3, [r5]
 173 00be 2368     		ldr	r3, [r4]
 174 00c0 0360     		str	r3, [r0]
 175 00c2 D2F80E30 		ldr	r3, [r2, #14]
 176 00c6 0B60     		str	r3, [r1]
 177 00c8 1232     		adds	r2, r2, #18
 178 00ca 104B     		ldr	r3, .L8+44
 179 00cc 1268     		ldr	r2, [r2]
 180 00ce 1A60     		str	r2, [r3]
 181 00d0 FFF7FEFF 		bl	LLF_EXCEPTION_TO_HANDLER_MODE
 182 00d4 0020     		movs	r0, #0
 183 00d6 BDE83840 		pop	{r3, r4, r5, lr}
 184              		.cfi_restore 14
 185              		.cfi_restore 5
 186              		.cfi_restore 4
 187              		.cfi_restore 3
 188              		.cfi_def_cfa_offset 0
 189 00da FFF7FEBF 		b	OS_Shutdown
 190              	.L9:
 191 00de 00BF     		.align	2
 192              	.L8:
 193 00e0 00000000 		.word	LINK_REGISTER_HANDLER
 194 00e4 2CED00E0 		.word	-536810196
 195 00e8 00000000 		.word	VAR_HARDFAULT_STATUS_REG
 196 00ec 00000000 		.word	VAR_MEM_MANAG_FAULT_STATUS_REG
 197 00f0 29ED00E0 		.word	-536810199
 198 00f4 00000000 		.word	VAR_BUS_FAULT_STATUS_REG
 199 00f8 2AED00E0 		.word	-536810198
 200 00fc 00000000 		.word	VAR_USAGE_FAULT_STATUS_REG
 201 0100 34ED00E0 		.word	-536810188
 202 0104 00000000 		.word	VAR_MEM_FAULT_ADDR_REG
 203 0108 00000000 		.word	VAR_BUS_FAULT_ADDR_REG
 204 010c 00000000 		.word	VAR_AUX_FAULT_STATUS_REG
 205              		.cfi_endproc
 206              	.LFE11:
 208              		.align	1
 209              		.p2align 2,,3
 210              		.global	OS_Exception_MEM_MANAG_FAULT
 211              		.syntax unified
 212              		.thumb
 213              		.thumb_func
 214              		.fpu softvfp
 216              	OS_Exception_MEM_MANAG_FAULT:
 217              	.LFB13:
 218              		.cfi_startproc
 219              		@ args = 0, pretend = 0, frame = 0
 220              		@ frame_needed = 0, uses_anonymous_args = 0
 221 0110 38B5     		push	{r3, r4, r5, lr}
 222              		.cfi_def_cfa_offset 16
ARM GAS  C:\Users\PRESID~1\AppData\Local\Temp\ccET6nar.s 			page 6


 223              		.cfi_offset 3, -16
 224              		.cfi_offset 4, -12
 225              		.cfi_offset 5, -8
 226              		.cfi_offset 14, -4
 227 0112 154B     		ldr	r3, .L12
 228              		.syntax unified
 229              	@ 38 "E:\NeuOrga\Programmieren\c_cpp\github_os\input\src\os_base\os_exception.c" 1
 230 0114 1868C0F8 		LDR r0,[r3];                          STR r14,[r0];
 230      00E0
 231              	@ 0 "" 2
 232              		.thumb
 233              		.syntax unified
 234 011a 144B     		ldr	r3, .L12+4
 235 011c 144A     		ldr	r2, .L12+8
 236 011e 1968     		ldr	r1, [r3]
 237 0120 1160     		str	r1, [r2]
 238 0122 043B     		subs	r3, r3, #4
 239 0124 134C     		ldr	r4, .L12+12
 240 0126 1B78     		ldrb	r3, [r3]	@ zero_extendqisi2
 241 0128 1348     		ldr	r0, .L12+16
 242 012a 1449     		ldr	r1, .L12+20
 243 012c 144A     		ldr	r2, .L12+24
 244 012e 154D     		ldr	r5, .L12+28
 245 0130 DBB2     		uxtb	r3, r3
 246 0132 2360     		str	r3, [r4]
 247 0134 0378     		ldrb	r3, [r0]	@ zero_extendqisi2
 248 0136 144C     		ldr	r4, .L12+32
 249 0138 1448     		ldr	r0, .L12+36
 250 013a DBB2     		uxtb	r3, r3
 251 013c 0B60     		str	r3, [r1]
 252 013e 1388     		ldrh	r3, [r2]
 253 0140 1349     		ldr	r1, .L12+40
 254 0142 9BB2     		uxth	r3, r3
 255 0144 2B60     		str	r3, [r5]
 256 0146 2368     		ldr	r3, [r4]
 257 0148 0360     		str	r3, [r0]
 258 014a D2F80E30 		ldr	r3, [r2, #14]
 259 014e 0B60     		str	r3, [r1]
 260 0150 1232     		adds	r2, r2, #18
 261 0152 104B     		ldr	r3, .L12+44
 262 0154 1268     		ldr	r2, [r2]
 263 0156 1A60     		str	r2, [r3]
 264 0158 FFF7FEFF 		bl	LLF_EXCEPTION_TO_HANDLER_MODE
 265 015c 0020     		movs	r0, #0
 266 015e BDE83840 		pop	{r3, r4, r5, lr}
 267              		.cfi_restore 14
 268              		.cfi_restore 5
 269              		.cfi_restore 4
 270              		.cfi_restore 3
 271              		.cfi_def_cfa_offset 0
 272 0162 FFF7FEBF 		b	OS_Shutdown
 273              	.L13:
 274 0166 00BF     		.align	2
 275              	.L12:
 276 0168 00000000 		.word	LINK_REGISTER_HANDLER
 277 016c 2CED00E0 		.word	-536810196
 278 0170 00000000 		.word	VAR_HARDFAULT_STATUS_REG
ARM GAS  C:\Users\PRESID~1\AppData\Local\Temp\ccET6nar.s 			page 7


 279 0174 00000000 		.word	VAR_MEM_MANAG_FAULT_STATUS_REG
 280 0178 29ED00E0 		.word	-536810199
 281 017c 00000000 		.word	VAR_BUS_FAULT_STATUS_REG
 282 0180 2AED00E0 		.word	-536810198
 283 0184 00000000 		.word	VAR_USAGE_FAULT_STATUS_REG
 284 0188 34ED00E0 		.word	-536810188
 285 018c 00000000 		.word	VAR_MEM_FAULT_ADDR_REG
 286 0190 00000000 		.word	VAR_BUS_FAULT_ADDR_REG
 287 0194 00000000 		.word	VAR_AUX_FAULT_STATUS_REG
 288              		.cfi_endproc
 289              	.LFE13:
 291              		.align	1
 292              		.p2align 2,,3
 293              		.global	OS_Exception_BUS_FAULT
 294              		.syntax unified
 295              		.thumb
 296              		.thumb_func
 297              		.fpu softvfp
 299              	OS_Exception_BUS_FAULT:
 300              	.LFB15:
 301              		.cfi_startproc
 302              		@ args = 0, pretend = 0, frame = 0
 303              		@ frame_needed = 0, uses_anonymous_args = 0
 304 0198 38B5     		push	{r3, r4, r5, lr}
 305              		.cfi_def_cfa_offset 16
 306              		.cfi_offset 3, -16
 307              		.cfi_offset 4, -12
 308              		.cfi_offset 5, -8
 309              		.cfi_offset 14, -4
 310 019a 154B     		ldr	r3, .L16
 311              		.syntax unified
 312              	@ 38 "E:\NeuOrga\Programmieren\c_cpp\github_os\input\src\os_base\os_exception.c" 1
 313 019c 1868C0F8 		LDR r0,[r3];                          STR r14,[r0];
 313      00E0
 314              	@ 0 "" 2
 315              		.thumb
 316              		.syntax unified
 317 01a2 144B     		ldr	r3, .L16+4
 318 01a4 144A     		ldr	r2, .L16+8
 319 01a6 1968     		ldr	r1, [r3]
 320 01a8 1160     		str	r1, [r2]
 321 01aa 043B     		subs	r3, r3, #4
 322 01ac 134C     		ldr	r4, .L16+12
 323 01ae 1B78     		ldrb	r3, [r3]	@ zero_extendqisi2
 324 01b0 1348     		ldr	r0, .L16+16
 325 01b2 1449     		ldr	r1, .L16+20
 326 01b4 144A     		ldr	r2, .L16+24
 327 01b6 154D     		ldr	r5, .L16+28
 328 01b8 DBB2     		uxtb	r3, r3
 329 01ba 2360     		str	r3, [r4]
 330 01bc 0378     		ldrb	r3, [r0]	@ zero_extendqisi2
 331 01be 144C     		ldr	r4, .L16+32
 332 01c0 1448     		ldr	r0, .L16+36
 333 01c2 DBB2     		uxtb	r3, r3
 334 01c4 0B60     		str	r3, [r1]
 335 01c6 1388     		ldrh	r3, [r2]
 336 01c8 1349     		ldr	r1, .L16+40
ARM GAS  C:\Users\PRESID~1\AppData\Local\Temp\ccET6nar.s 			page 8


 337 01ca 9BB2     		uxth	r3, r3
 338 01cc 2B60     		str	r3, [r5]
 339 01ce 2368     		ldr	r3, [r4]
 340 01d0 0360     		str	r3, [r0]
 341 01d2 D2F80E30 		ldr	r3, [r2, #14]
 342 01d6 0B60     		str	r3, [r1]
 343 01d8 1232     		adds	r2, r2, #18
 344 01da 104B     		ldr	r3, .L16+44
 345 01dc 1268     		ldr	r2, [r2]
 346 01de 1A60     		str	r2, [r3]
 347 01e0 FFF7FEFF 		bl	LLF_EXCEPTION_TO_HANDLER_MODE
 348 01e4 0020     		movs	r0, #0
 349 01e6 BDE83840 		pop	{r3, r4, r5, lr}
 350              		.cfi_restore 14
 351              		.cfi_restore 5
 352              		.cfi_restore 4
 353              		.cfi_restore 3
 354              		.cfi_def_cfa_offset 0
 355 01ea FFF7FEBF 		b	OS_Shutdown
 356              	.L17:
 357 01ee 00BF     		.align	2
 358              	.L16:
 359 01f0 00000000 		.word	LINK_REGISTER_HANDLER
 360 01f4 2CED00E0 		.word	-536810196
 361 01f8 00000000 		.word	VAR_HARDFAULT_STATUS_REG
 362 01fc 00000000 		.word	VAR_MEM_MANAG_FAULT_STATUS_REG
 363 0200 29ED00E0 		.word	-536810199
 364 0204 00000000 		.word	VAR_BUS_FAULT_STATUS_REG
 365 0208 2AED00E0 		.word	-536810198
 366 020c 00000000 		.word	VAR_USAGE_FAULT_STATUS_REG
 367 0210 34ED00E0 		.word	-536810188
 368 0214 00000000 		.word	VAR_MEM_FAULT_ADDR_REG
 369 0218 00000000 		.word	VAR_BUS_FAULT_ADDR_REG
 370 021c 00000000 		.word	VAR_AUX_FAULT_STATUS_REG
 371              		.cfi_endproc
 372              	.LFE15:
 374              		.align	1
 375              		.p2align 2,,3
 376              		.global	OS_Exception_USAGE_FAULT
 377              		.syntax unified
 378              		.thumb
 379              		.thumb_func
 380              		.fpu softvfp
 382              	OS_Exception_USAGE_FAULT:
 383              	.LFB17:
 384              		.cfi_startproc
 385              		@ args = 0, pretend = 0, frame = 0
 386              		@ frame_needed = 0, uses_anonymous_args = 0
 387 0220 38B5     		push	{r3, r4, r5, lr}
 388              		.cfi_def_cfa_offset 16
 389              		.cfi_offset 3, -16
 390              		.cfi_offset 4, -12
 391              		.cfi_offset 5, -8
 392              		.cfi_offset 14, -4
 393 0222 154B     		ldr	r3, .L20
 394              		.syntax unified
 395              	@ 38 "E:\NeuOrga\Programmieren\c_cpp\github_os\input\src\os_base\os_exception.c" 1
ARM GAS  C:\Users\PRESID~1\AppData\Local\Temp\ccET6nar.s 			page 9


 396 0224 1868C0F8 		LDR r0,[r3];                          STR r14,[r0];
 396      00E0
 397              	@ 0 "" 2
 398              		.thumb
 399              		.syntax unified
 400 022a 144B     		ldr	r3, .L20+4
 401 022c 144A     		ldr	r2, .L20+8
 402 022e 1968     		ldr	r1, [r3]
 403 0230 1160     		str	r1, [r2]
 404 0232 043B     		subs	r3, r3, #4
 405 0234 134C     		ldr	r4, .L20+12
 406 0236 1B78     		ldrb	r3, [r3]	@ zero_extendqisi2
 407 0238 1348     		ldr	r0, .L20+16
 408 023a 1449     		ldr	r1, .L20+20
 409 023c 144A     		ldr	r2, .L20+24
 410 023e 154D     		ldr	r5, .L20+28
 411 0240 DBB2     		uxtb	r3, r3
 412 0242 2360     		str	r3, [r4]
 413 0244 0378     		ldrb	r3, [r0]	@ zero_extendqisi2
 414 0246 144C     		ldr	r4, .L20+32
 415 0248 1448     		ldr	r0, .L20+36
 416 024a DBB2     		uxtb	r3, r3
 417 024c 0B60     		str	r3, [r1]
 418 024e 1388     		ldrh	r3, [r2]
 419 0250 1349     		ldr	r1, .L20+40
 420 0252 9BB2     		uxth	r3, r3
 421 0254 2B60     		str	r3, [r5]
 422 0256 2368     		ldr	r3, [r4]
 423 0258 0360     		str	r3, [r0]
 424 025a D2F80E30 		ldr	r3, [r2, #14]
 425 025e 0B60     		str	r3, [r1]
 426 0260 1232     		adds	r2, r2, #18
 427 0262 104B     		ldr	r3, .L20+44
 428 0264 1268     		ldr	r2, [r2]
 429 0266 1A60     		str	r2, [r3]
 430 0268 FFF7FEFF 		bl	LLF_EXCEPTION_TO_HANDLER_MODE
 431 026c 0020     		movs	r0, #0
 432 026e BDE83840 		pop	{r3, r4, r5, lr}
 433              		.cfi_restore 14
 434              		.cfi_restore 5
 435              		.cfi_restore 4
 436              		.cfi_restore 3
 437              		.cfi_def_cfa_offset 0
 438 0272 FFF7FEBF 		b	OS_Shutdown
 439              	.L21:
 440 0276 00BF     		.align	2
 441              	.L20:
 442 0278 00000000 		.word	LINK_REGISTER_HANDLER
 443 027c 2CED00E0 		.word	-536810196
 444 0280 00000000 		.word	VAR_HARDFAULT_STATUS_REG
 445 0284 00000000 		.word	VAR_MEM_MANAG_FAULT_STATUS_REG
 446 0288 29ED00E0 		.word	-536810199
 447 028c 00000000 		.word	VAR_BUS_FAULT_STATUS_REG
 448 0290 2AED00E0 		.word	-536810198
 449 0294 00000000 		.word	VAR_USAGE_FAULT_STATUS_REG
 450 0298 34ED00E0 		.word	-536810188
 451 029c 00000000 		.word	VAR_MEM_FAULT_ADDR_REG
ARM GAS  C:\Users\PRESID~1\AppData\Local\Temp\ccET6nar.s 			page 10


 452 02a0 00000000 		.word	VAR_BUS_FAULT_ADDR_REG
 453 02a4 00000000 		.word	VAR_AUX_FAULT_STATUS_REG
 454              		.cfi_endproc
 455              	.LFE17:
 457              		.align	1
 458              		.p2align 2,,3
 459              		.global	OS_Exception_DEBUG
 460              		.syntax unified
 461              		.thumb
 462              		.thumb_func
 463              		.fpu softvfp
 465              	OS_Exception_DEBUG:
 466              	.LFB6:
  52:E:\NeuOrga\Programmieren\c_cpp\github_os\input\src\os_base\os_exception.c **** /* 0x0000000C OS_Exception_HARDFAULT */
  53:E:\NeuOrga\Programmieren\c_cpp\github_os\input\src\os_base\os_exception.c **** void OS_Exception_HARDFAULT(void)
  54:E:\NeuOrga\Programmieren\c_cpp\github_os\input\src\os_base\os_exception.c **** {
  55:E:\NeuOrga\Programmieren\c_cpp\github_os\input\src\os_base\os_exception.c **** #if(CFG_PROCESSOR == cMCU_CORTEX_M4)
  56:E:\NeuOrga\Programmieren\c_cpp\github_os\input\src\os_base\os_exception.c ****    __asm__ __volatile__ ("LDR r0,%0;\
  57:E:\NeuOrga\Programmieren\c_cpp\github_os\input\src\os_base\os_exception.c ****                           STR r14,[r0];"
  58:E:\NeuOrga\Programmieren\c_cpp\github_os\input\src\os_base\os_exception.c ****                         :"=m"(LINK_REGISTER_HANDLER)
  59:E:\NeuOrga\Programmieren\c_cpp\github_os\input\src\os_base\os_exception.c ****                         :
  60:E:\NeuOrga\Programmieren\c_cpp\github_os\input\src\os_base\os_exception.c ****                         :"r0"
  61:E:\NeuOrga\Programmieren\c_cpp\github_os\input\src\os_base\os_exception.c ****                         );
  62:E:\NeuOrga\Programmieren\c_cpp\github_os\input\src\os_base\os_exception.c ****    OS_Exception_Read_Status_Registers();
  63:E:\NeuOrga\Programmieren\c_cpp\github_os\input\src\os_base\os_exception.c ****  
  64:E:\NeuOrga\Programmieren\c_cpp\github_os\input\src\os_base\os_exception.c ****    /* run all exceptions in handler mode */
  65:E:\NeuOrga\Programmieren\c_cpp\github_os\input\src\os_base\os_exception.c ****    LLF_EXCEPTION_TO_HANDLER_MODE();
  66:E:\NeuOrga\Programmieren\c_cpp\github_os\input\src\os_base\os_exception.c ****    
  67:E:\NeuOrga\Programmieren\c_cpp\github_os\input\src\os_base\os_exception.c ****    OS_Shutdown(os_reset_hardreset);
  68:E:\NeuOrga\Programmieren\c_cpp\github_os\input\src\os_base\os_exception.c **** #endif
  69:E:\NeuOrga\Programmieren\c_cpp\github_os\input\src\os_base\os_exception.c **** }
  70:E:\NeuOrga\Programmieren\c_cpp\github_os\input\src\os_base\os_exception.c **** /* 0x00000010 OS_Exception_MEM_MANAG_FAULT */
  71:E:\NeuOrga\Programmieren\c_cpp\github_os\input\src\os_base\os_exception.c **** void OS_Exception_MEM_MANAG_FAULT(void)
  72:E:\NeuOrga\Programmieren\c_cpp\github_os\input\src\os_base\os_exception.c **** {
  73:E:\NeuOrga\Programmieren\c_cpp\github_os\input\src\os_base\os_exception.c **** #if(CFG_PROCESSOR == cMCU_CORTEX_M4)
  74:E:\NeuOrga\Programmieren\c_cpp\github_os\input\src\os_base\os_exception.c ****    __asm__ __volatile__ ("LDR r0,%0;\
  75:E:\NeuOrga\Programmieren\c_cpp\github_os\input\src\os_base\os_exception.c ****                           STR r14,[r0];"
  76:E:\NeuOrga\Programmieren\c_cpp\github_os\input\src\os_base\os_exception.c ****                         :"=m"(LINK_REGISTER_HANDLER)
  77:E:\NeuOrga\Programmieren\c_cpp\github_os\input\src\os_base\os_exception.c ****                         :
  78:E:\NeuOrga\Programmieren\c_cpp\github_os\input\src\os_base\os_exception.c ****                         :"r0"
  79:E:\NeuOrga\Programmieren\c_cpp\github_os\input\src\os_base\os_exception.c ****                         );
  80:E:\NeuOrga\Programmieren\c_cpp\github_os\input\src\os_base\os_exception.c ****    OS_Exception_Read_Status_Registers();
  81:E:\NeuOrga\Programmieren\c_cpp\github_os\input\src\os_base\os_exception.c ****    
  82:E:\NeuOrga\Programmieren\c_cpp\github_os\input\src\os_base\os_exception.c ****    /* run all exceptions in handler mode */
  83:E:\NeuOrga\Programmieren\c_cpp\github_os\input\src\os_base\os_exception.c ****    LLF_EXCEPTION_TO_HANDLER_MODE();
  84:E:\NeuOrga\Programmieren\c_cpp\github_os\input\src\os_base\os_exception.c ****    
  85:E:\NeuOrga\Programmieren\c_cpp\github_os\input\src\os_base\os_exception.c ****    OS_Shutdown(os_reset_hardreset);
  86:E:\NeuOrga\Programmieren\c_cpp\github_os\input\src\os_base\os_exception.c **** #endif
  87:E:\NeuOrga\Programmieren\c_cpp\github_os\input\src\os_base\os_exception.c **** }
  88:E:\NeuOrga\Programmieren\c_cpp\github_os\input\src\os_base\os_exception.c **** /* 0x00000014 OS_Exception_BUS_FAULT */
  89:E:\NeuOrga\Programmieren\c_cpp\github_os\input\src\os_base\os_exception.c **** void OS_Exception_BUS_FAULT(void)
  90:E:\NeuOrga\Programmieren\c_cpp\github_os\input\src\os_base\os_exception.c **** {
  91:E:\NeuOrga\Programmieren\c_cpp\github_os\input\src\os_base\os_exception.c **** #if(CFG_PROCESSOR == cMCU_CORTEX_M4)
  92:E:\NeuOrga\Programmieren\c_cpp\github_os\input\src\os_base\os_exception.c ****    __asm__ __volatile__ ("LDR r0,%0;\
  93:E:\NeuOrga\Programmieren\c_cpp\github_os\input\src\os_base\os_exception.c ****                           STR r14,[r0];"
  94:E:\NeuOrga\Programmieren\c_cpp\github_os\input\src\os_base\os_exception.c ****                         :"=m"(LINK_REGISTER_HANDLER)
  95:E:\NeuOrga\Programmieren\c_cpp\github_os\input\src\os_base\os_exception.c ****                         :
ARM GAS  C:\Users\PRESID~1\AppData\Local\Temp\ccET6nar.s 			page 11


  96:E:\NeuOrga\Programmieren\c_cpp\github_os\input\src\os_base\os_exception.c ****                         :"r0"
  97:E:\NeuOrga\Programmieren\c_cpp\github_os\input\src\os_base\os_exception.c ****                         );
  98:E:\NeuOrga\Programmieren\c_cpp\github_os\input\src\os_base\os_exception.c ****    OS_Exception_Read_Status_Registers();
  99:E:\NeuOrga\Programmieren\c_cpp\github_os\input\src\os_base\os_exception.c ****    
 100:E:\NeuOrga\Programmieren\c_cpp\github_os\input\src\os_base\os_exception.c ****    /* run all exceptions in handler mode */
 101:E:\NeuOrga\Programmieren\c_cpp\github_os\input\src\os_base\os_exception.c ****    LLF_EXCEPTION_TO_HANDLER_MODE();
 102:E:\NeuOrga\Programmieren\c_cpp\github_os\input\src\os_base\os_exception.c ****    
 103:E:\NeuOrga\Programmieren\c_cpp\github_os\input\src\os_base\os_exception.c ****    OS_Shutdown(os_reset_hardreset);
 104:E:\NeuOrga\Programmieren\c_cpp\github_os\input\src\os_base\os_exception.c **** #endif
 105:E:\NeuOrga\Programmieren\c_cpp\github_os\input\src\os_base\os_exception.c **** }
 106:E:\NeuOrga\Programmieren\c_cpp\github_os\input\src\os_base\os_exception.c **** /* 0x00000018 OS_Exception_BUS_FAULT */
 107:E:\NeuOrga\Programmieren\c_cpp\github_os\input\src\os_base\os_exception.c **** void OS_Exception_USAGE_FAULT(void)
 108:E:\NeuOrga\Programmieren\c_cpp\github_os\input\src\os_base\os_exception.c **** {
 109:E:\NeuOrga\Programmieren\c_cpp\github_os\input\src\os_base\os_exception.c **** #if(CFG_PROCESSOR == cMCU_CORTEX_M4)
 110:E:\NeuOrga\Programmieren\c_cpp\github_os\input\src\os_base\os_exception.c ****    __asm__ __volatile__ ("LDR r0,%0;\
 111:E:\NeuOrga\Programmieren\c_cpp\github_os\input\src\os_base\os_exception.c ****                           STR r14,[r0];"
 112:E:\NeuOrga\Programmieren\c_cpp\github_os\input\src\os_base\os_exception.c ****                         :"=m"(LINK_REGISTER_HANDLER)
 113:E:\NeuOrga\Programmieren\c_cpp\github_os\input\src\os_base\os_exception.c ****                         :
 114:E:\NeuOrga\Programmieren\c_cpp\github_os\input\src\os_base\os_exception.c ****                         :"r0"
 115:E:\NeuOrga\Programmieren\c_cpp\github_os\input\src\os_base\os_exception.c ****                         );
 116:E:\NeuOrga\Programmieren\c_cpp\github_os\input\src\os_base\os_exception.c ****    OS_Exception_Read_Status_Registers();
 117:E:\NeuOrga\Programmieren\c_cpp\github_os\input\src\os_base\os_exception.c ****    
 118:E:\NeuOrga\Programmieren\c_cpp\github_os\input\src\os_base\os_exception.c ****    /* run all exceptions in handler mode */
 119:E:\NeuOrga\Programmieren\c_cpp\github_os\input\src\os_base\os_exception.c ****    LLF_EXCEPTION_TO_HANDLER_MODE();
 120:E:\NeuOrga\Programmieren\c_cpp\github_os\input\src\os_base\os_exception.c ****    
 121:E:\NeuOrga\Programmieren\c_cpp\github_os\input\src\os_base\os_exception.c ****    OS_Shutdown(os_reset_hardreset);
 122:E:\NeuOrga\Programmieren\c_cpp\github_os\input\src\os_base\os_exception.c **** #endif
 123:E:\NeuOrga\Programmieren\c_cpp\github_os\input\src\os_base\os_exception.c **** }
 124:E:\NeuOrga\Programmieren\c_cpp\github_os\input\src\os_base\os_exception.c **** /* 0x0000001C reserved */
 125:E:\NeuOrga\Programmieren\c_cpp\github_os\input\src\os_base\os_exception.c **** /* 0x00000020 reserved */
 126:E:\NeuOrga\Programmieren\c_cpp\github_os\input\src\os_base\os_exception.c **** /* 0x00000024 reserved */
 127:E:\NeuOrga\Programmieren\c_cpp\github_os\input\src\os_base\os_exception.c **** /* 0x00000028 reserved */
 128:E:\NeuOrga\Programmieren\c_cpp\github_os\input\src\os_base\os_exception.c **** /* 0x0000002C OS_Exception_SVC -> implemented in lld_global */
 129:E:\NeuOrga\Programmieren\c_cpp\github_os\input\src\os_base\os_exception.c **** /* 0x00000030 OS_Exception_DEBUG */
 130:E:\NeuOrga\Programmieren\c_cpp\github_os\input\src\os_base\os_exception.c **** void OS_Exception_DEBUG(void)
 131:E:\NeuOrga\Programmieren\c_cpp\github_os\input\src\os_base\os_exception.c **** {
 467              		.loc 1 131 0
 468              		.cfi_startproc
 469              		@ args = 0, pretend = 0, frame = 0
 470              		@ frame_needed = 0, uses_anonymous_args = 0
 471              		.loc 1 131 0
 472 02a8 38B5     		push	{r3, r4, r5, lr}
 473              		.cfi_def_cfa_offset 16
 474              		.cfi_offset 3, -16
 475              		.cfi_offset 4, -12
 476              		.cfi_offset 5, -8
 477              		.cfi_offset 14, -4
 478              	.LBB20:
 479              	.LBB21:
  23:E:\NeuOrga\Programmieren\c_cpp\github_os\input\src\os_base\os_exception.c ****    VAR_MEM_MANAG_FAULT_STATUS_REG     = *MEM_MANAG_FAULT_STATUS_REG;
 480              		.loc 1 23 0
 481 02aa 134B     		ldr	r3, .L24
 482 02ac 134A     		ldr	r2, .L24+4
 483 02ae 1968     		ldr	r1, [r3]
 484 02b0 1160     		str	r1, [r2]
  24:E:\NeuOrga\Programmieren\c_cpp\github_os\input\src\os_base\os_exception.c ****    VAR_BUS_FAULT_STATUS_REG   = *BUS_FAULT_STATUS_REG;
 485              		.loc 1 24 0
ARM GAS  C:\Users\PRESID~1\AppData\Local\Temp\ccET6nar.s 			page 12


 486 02b2 043B     		subs	r3, r3, #4
 487 02b4 124C     		ldr	r4, .L24+8
 488 02b6 1B78     		ldrb	r3, [r3]	@ zero_extendqisi2
  25:E:\NeuOrga\Programmieren\c_cpp\github_os\input\src\os_base\os_exception.c ****    VAR_USAGE_FAULT_STATUS_REG = *USAGE_FAULT_STATUS_REG;
 489              		.loc 1 25 0
 490 02b8 1248     		ldr	r0, .L24+12
 491 02ba 1349     		ldr	r1, .L24+16
  26:E:\NeuOrga\Programmieren\c_cpp\github_os\input\src\os_base\os_exception.c ****    VAR_MEM_FAULT_ADDR_REG   = *MEM_FAULT_ADDR_REG;
 492              		.loc 1 26 0
 493 02bc 134A     		ldr	r2, .L24+20
 494 02be 144D     		ldr	r5, .L24+24
  24:E:\NeuOrga\Programmieren\c_cpp\github_os\input\src\os_base\os_exception.c ****    VAR_BUS_FAULT_STATUS_REG   = *BUS_FAULT_STATUS_REG;
 495              		.loc 1 24 0
 496 02c0 DBB2     		uxtb	r3, r3
 497 02c2 2360     		str	r3, [r4]
  25:E:\NeuOrga\Programmieren\c_cpp\github_os\input\src\os_base\os_exception.c ****    VAR_USAGE_FAULT_STATUS_REG = *USAGE_FAULT_STATUS_REG;
 498              		.loc 1 25 0
 499 02c4 0378     		ldrb	r3, [r0]	@ zero_extendqisi2
  27:E:\NeuOrga\Programmieren\c_cpp\github_os\input\src\os_base\os_exception.c ****    VAR_BUS_FAULT_ADDR_REG   = *BUS_FAULT_ADDR_REG;
 500              		.loc 1 27 0
 501 02c6 134C     		ldr	r4, .L24+28
 502 02c8 1348     		ldr	r0, .L24+32
  25:E:\NeuOrga\Programmieren\c_cpp\github_os\input\src\os_base\os_exception.c ****    VAR_USAGE_FAULT_STATUS_REG = *USAGE_FAULT_STATUS_REG;
 503              		.loc 1 25 0
 504 02ca DBB2     		uxtb	r3, r3
 505 02cc 0B60     		str	r3, [r1]
  26:E:\NeuOrga\Programmieren\c_cpp\github_os\input\src\os_base\os_exception.c ****    VAR_MEM_FAULT_ADDR_REG   = *MEM_FAULT_ADDR_REG;
 506              		.loc 1 26 0
 507 02ce 1388     		ldrh	r3, [r2]
  28:E:\NeuOrga\Programmieren\c_cpp\github_os\input\src\os_base\os_exception.c ****    VAR_AUX_FAULT_STATUS_REG = *AUX_FAULT_STATUS_REG;
 508              		.loc 1 28 0
 509 02d0 1249     		ldr	r1, .L24+36
  26:E:\NeuOrga\Programmieren\c_cpp\github_os\input\src\os_base\os_exception.c ****    VAR_MEM_FAULT_ADDR_REG   = *MEM_FAULT_ADDR_REG;
 510              		.loc 1 26 0
 511 02d2 9BB2     		uxth	r3, r3
 512 02d4 2B60     		str	r3, [r5]
  27:E:\NeuOrga\Programmieren\c_cpp\github_os\input\src\os_base\os_exception.c ****    VAR_BUS_FAULT_ADDR_REG   = *BUS_FAULT_ADDR_REG;
 513              		.loc 1 27 0
 514 02d6 2368     		ldr	r3, [r4]
 515 02d8 0360     		str	r3, [r0]
  28:E:\NeuOrga\Programmieren\c_cpp\github_os\input\src\os_base\os_exception.c ****    VAR_AUX_FAULT_STATUS_REG = *AUX_FAULT_STATUS_REG;
 516              		.loc 1 28 0
 517 02da D2F80E30 		ldr	r3, [r2, #14]
 518 02de 0B60     		str	r3, [r1]
  29:E:\NeuOrga\Programmieren\c_cpp\github_os\input\src\os_base\os_exception.c **** }
 519              		.loc 1 29 0
 520 02e0 1232     		adds	r2, r2, #18
 521 02e2 0F4B     		ldr	r3, .L24+40
 522 02e4 1268     		ldr	r2, [r2]
 523 02e6 1A60     		str	r2, [r3]
 524              	.LBE21:
 525              	.LBE20:
 132:E:\NeuOrga\Programmieren\c_cpp\github_os\input\src\os_base\os_exception.c **** #if(CFG_PROCESSOR == cMCU_CORTEX_M4)
 133:E:\NeuOrga\Programmieren\c_cpp\github_os\input\src\os_base\os_exception.c ****    OS_Exception_Read_Status_Registers();
 134:E:\NeuOrga\Programmieren\c_cpp\github_os\input\src\os_base\os_exception.c ****    
 135:E:\NeuOrga\Programmieren\c_cpp\github_os\input\src\os_base\os_exception.c ****    /* run all exceptions in handler mode */
 136:E:\NeuOrga\Programmieren\c_cpp\github_os\input\src\os_base\os_exception.c ****    LLF_EXCEPTION_TO_HANDLER_MODE();
ARM GAS  C:\Users\PRESID~1\AppData\Local\Temp\ccET6nar.s 			page 13


 526              		.loc 1 136 0
 527 02e8 FFF7FEFF 		bl	LLF_EXCEPTION_TO_HANDLER_MODE
 528              	.LVL2:
 137:E:\NeuOrga\Programmieren\c_cpp\github_os\input\src\os_base\os_exception.c ****    
 138:E:\NeuOrga\Programmieren\c_cpp\github_os\input\src\os_base\os_exception.c ****    OS_Shutdown(os_reset_hardreset);
 529              		.loc 1 138 0
 530 02ec 0020     		movs	r0, #0
 139:E:\NeuOrga\Programmieren\c_cpp\github_os\input\src\os_base\os_exception.c **** #endif
 140:E:\NeuOrga\Programmieren\c_cpp\github_os\input\src\os_base\os_exception.c **** }
 531              		.loc 1 140 0
 532 02ee BDE83840 		pop	{r3, r4, r5, lr}
 533              		.cfi_restore 14
 534              		.cfi_restore 5
 535              		.cfi_restore 4
 536              		.cfi_restore 3
 537              		.cfi_def_cfa_offset 0
 138:E:\NeuOrga\Programmieren\c_cpp\github_os\input\src\os_base\os_exception.c **** #endif
 538              		.loc 1 138 0
 539 02f2 FFF7FEBF 		b	OS_Shutdown
 540              	.LVL3:
 541              	.L25:
 542 02f6 00BF     		.align	2
 543              	.L24:
 544 02f8 2CED00E0 		.word	-536810196
 545 02fc 00000000 		.word	VAR_HARDFAULT_STATUS_REG
 546 0300 00000000 		.word	VAR_MEM_MANAG_FAULT_STATUS_REG
 547 0304 29ED00E0 		.word	-536810199
 548 0308 00000000 		.word	VAR_BUS_FAULT_STATUS_REG
 549 030c 2AED00E0 		.word	-536810198
 550 0310 00000000 		.word	VAR_USAGE_FAULT_STATUS_REG
 551 0314 34ED00E0 		.word	-536810188
 552 0318 00000000 		.word	VAR_MEM_FAULT_ADDR_REG
 553 031c 00000000 		.word	VAR_BUS_FAULT_ADDR_REG
 554 0320 00000000 		.word	VAR_AUX_FAULT_STATUS_REG
 555              		.cfi_endproc
 556              	.LFE6:
 558              		.align	1
 559              		.p2align 2,,3
 560              		.global	OS_Exception_PendSV
 561              		.syntax unified
 562              		.thumb
 563              		.thumb_func
 564              		.fpu softvfp
 566              	OS_Exception_PendSV:
 567              	.LFB7:
 141:E:\NeuOrga\Programmieren\c_cpp\github_os\input\src\os_base\os_exception.c **** /* 0x00000034 reserved */
 142:E:\NeuOrga\Programmieren\c_cpp\github_os\input\src\os_base\os_exception.c **** /* 0x00000038 OS_Exception_PendSV */
 143:E:\NeuOrga\Programmieren\c_cpp\github_os\input\src\os_base\os_exception.c **** void OS_Exception_PendSV(void)
 144:E:\NeuOrga\Programmieren\c_cpp\github_os\input\src\os_base\os_exception.c **** {
 568              		.loc 1 144 0
 569              		.cfi_startproc
 570              		@ args = 0, pretend = 0, frame = 0
 571              		@ frame_needed = 0, uses_anonymous_args = 0
 572 0324 08B5     		push	{r3, lr}
 573              		.cfi_def_cfa_offset 8
 574              		.cfi_offset 3, -8
 575              		.cfi_offset 14, -4
ARM GAS  C:\Users\PRESID~1\AppData\Local\Temp\ccET6nar.s 			page 14


 145:E:\NeuOrga\Programmieren\c_cpp\github_os\input\src\os_base\os_exception.c **** #if(CFG_PROCESSOR == cMCU_CORTEX_M4)
 146:E:\NeuOrga\Programmieren\c_cpp\github_os\input\src\os_base\os_exception.c **** /* run all exceptions in handler mode */
 147:E:\NeuOrga\Programmieren\c_cpp\github_os\input\src\os_base\os_exception.c ****    LLF_EXCEPTION_TO_HANDLER_MODE();
 576              		.loc 1 147 0
 577 0326 FFF7FEFF 		bl	LLF_EXCEPTION_TO_HANDLER_MODE
 578              	.LVL4:
 148:E:\NeuOrga\Programmieren\c_cpp\github_os\input\src\os_base\os_exception.c ****    
 149:E:\NeuOrga\Programmieren\c_cpp\github_os\input\src\os_base\os_exception.c ****    OS_Shutdown(os_reset_hardreset);
 579              		.loc 1 149 0
 580 032a 0020     		movs	r0, #0
 150:E:\NeuOrga\Programmieren\c_cpp\github_os\input\src\os_base\os_exception.c **** #endif
 151:E:\NeuOrga\Programmieren\c_cpp\github_os\input\src\os_base\os_exception.c **** }
 581              		.loc 1 151 0
 582 032c BDE80840 		pop	{r3, lr}
 583              		.cfi_restore 14
 584              		.cfi_restore 3
 585              		.cfi_def_cfa_offset 0
 149:E:\NeuOrga\Programmieren\c_cpp\github_os\input\src\os_base\os_exception.c **** #endif
 586              		.loc 1 149 0
 587 0330 FFF7FEBF 		b	OS_Shutdown
 588              	.LVL5:
 589              		.cfi_endproc
 590              	.LFE7:
 592              		.align	1
 593              		.p2align 2,,3
 594              		.global	OS_Exception_Systick
 595              		.syntax unified
 596              		.thumb
 597              		.thumb_func
 598              		.fpu softvfp
 600              	OS_Exception_Systick:
 601              	.LFB8:
 152:E:\NeuOrga\Programmieren\c_cpp\github_os\input\src\os_base\os_exception.c **** /* 0x0000003C OS_Exception_Systick */
 153:E:\NeuOrga\Programmieren\c_cpp\github_os\input\src\os_base\os_exception.c **** void OS_Exception_Systick(void)
 154:E:\NeuOrga\Programmieren\c_cpp\github_os\input\src\os_base\os_exception.c **** {
 602              		.loc 1 154 0
 603              		.cfi_startproc
 604              		@ args = 0, pretend = 0, frame = 32
 605              		@ frame_needed = 0, uses_anonymous_args = 0
 606 0334 F0B5     		push	{r4, r5, r6, r7, lr}
 607              		.cfi_def_cfa_offset 20
 608              		.cfi_offset 4, -20
 609              		.cfi_offset 5, -16
 610              		.cfi_offset 6, -12
 611              		.cfi_offset 7, -8
 612              		.cfi_offset 14, -4
 613 0336 89B0     		sub	sp, sp, #36
 614              		.cfi_def_cfa_offset 56
 155:E:\NeuOrga\Programmieren\c_cpp\github_os\input\src\os_base\os_exception.c **** #if(CFG_PROCESSOR == cMCU_CORTEX_M4)
 156:E:\NeuOrga\Programmieren\c_cpp\github_os\input\src\os_base\os_exception.c ****    task_t* task;
 157:E:\NeuOrga\Programmieren\c_cpp\github_os\input\src\os_base\os_exception.c ****    scheduling_t* scheduling_task_ptr;
 158:E:\NeuOrga\Programmieren\c_cpp\github_os\input\src\os_base\os_exception.c ****    BigInt Diff;
 159:E:\NeuOrga\Programmieren\c_cpp\github_os\input\src\os_base\os_exception.c ****    timebig_t time;
 160:E:\NeuOrga\Programmieren\c_cpp\github_os\input\src\os_base\os_exception.c ****    
 161:E:\NeuOrga\Programmieren\c_cpp\github_os\input\src\os_base\os_exception.c ****    /* run all exceptions in handler mode */
 162:E:\NeuOrga\Programmieren\c_cpp\github_os\input\src\os_base\os_exception.c ****    LLF_EXCEPTION_TO_HANDLER_MODE();
 615              		.loc 1 162 0
ARM GAS  C:\Users\PRESID~1\AppData\Local\Temp\ccET6nar.s 			page 15


 616 0338 FFF7FEFF 		bl	LLF_EXCEPTION_TO_HANDLER_MODE
 617              	.LVL6:
 163:E:\NeuOrga\Programmieren\c_cpp\github_os\input\src\os_base\os_exception.c **** 
 164:E:\NeuOrga\Programmieren\c_cpp\github_os\input\src\os_base\os_exception.c ****    DBG_RLD_VALUE = 0xFFFFFFFF;
 165:E:\NeuOrga\Programmieren\c_cpp\github_os\input\src\os_base\os_exception.c ****    DBG_CURR_VAL = 0xFFFFFFFF;
 166:E:\NeuOrga\Programmieren\c_cpp\github_os\input\src\os_base\os_exception.c ****    DBG_CTRL_VALUE = 0xFFFFFFFF;
 618              		.loc 1 166 0
 619 033c 2D4C     		ldr	r4, .L34
 164:E:\NeuOrga\Programmieren\c_cpp\github_os\input\src\os_base\os_exception.c ****    DBG_CURR_VAL = 0xFFFFFFFF;
 620              		.loc 1 164 0
 621 033e DFF8D0C0 		ldr	ip, .L34+28
 167:E:\NeuOrga\Programmieren\c_cpp\github_os\input\src\os_base\os_exception.c ****    DBG_CALIB_VALUE = 0xFFFFFFFF;
 622              		.loc 1 167 0
 623 0342 2D48     		ldr	r0, .L34+4
 165:E:\NeuOrga\Programmieren\c_cpp\github_os\input\src\os_base\os_exception.c ****    DBG_CTRL_VALUE = 0xFFFFFFFF;
 624              		.loc 1 165 0
 625 0344 2D4E     		ldr	r6, .L34+8
 168:E:\NeuOrga\Programmieren\c_cpp\github_os\input\src\os_base\os_exception.c ****    /* the systick timer is stopped during debug... see CorteM4 manual */
 169:E:\NeuOrga\Programmieren\c_cpp\github_os\input\src\os_base\os_exception.c **** 
 170:E:\NeuOrga\Programmieren\c_cpp\github_os\input\src\os_base\os_exception.c ****    task = 0u;
 171:E:\NeuOrga\Programmieren\c_cpp\github_os\input\src\os_base\os_exception.c ****    /* configure the TCMP */
 172:E:\NeuOrga\Programmieren\c_cpp\github_os\input\src\os_base\os_exception.c ****    /*
 173:E:\NeuOrga\Programmieren\c_cpp\github_os\input\src\os_base\os_exception.c ****    Dispatcher function for Core 0:
 174:E:\NeuOrga\Programmieren\c_cpp\github_os\input\src\os_base\os_exception.c ****     Write Adresse into the config register (interrupts are requested by SWI/SVC???)
 175:E:\NeuOrga\Programmieren\c_cpp\github_os\input\src\os_base\os_exception.c ****    */
 176:E:\NeuOrga\Programmieren\c_cpp\github_os\input\src\os_base\os_exception.c ****    #define SYSTICK_CTRL_STAT_REG ((uint32*)0xE000E010)
 177:E:\NeuOrga\Programmieren\c_cpp\github_os\input\src\os_base\os_exception.c ****    #define SYSTICK_RLD_VAL_REG   ((uint32*)0xE000E014)
 178:E:\NeuOrga\Programmieren\c_cpp\github_os\input\src\os_base\os_exception.c ****    #define SYSTICK_CURRENT_VAL_REG ((uint32*)0xE000E018)
 179:E:\NeuOrga\Programmieren\c_cpp\github_os\input\src\os_base\os_exception.c ****    #define SYSTICK_CALIB_VAL_REG ((uint32*)0xE000E01C)
 180:E:\NeuOrga\Programmieren\c_cpp\github_os\input\src\os_base\os_exception.c ****    #define SYSTICK_STAT_REG_CLKSRC_AHB ((uint32)0x00000004)
 181:E:\NeuOrga\Programmieren\c_cpp\github_os\input\src\os_base\os_exception.c ****    #define SYSTICK_STAT_REG_CLKSRC_AHB_8 ((uint32)0x00000000)
 182:E:\NeuOrga\Programmieren\c_cpp\github_os\input\src\os_base\os_exception.c ****    #define SYSTICK_STAT_REG_TICKINT ((uint32)0x00000002)
 183:E:\NeuOrga\Programmieren\c_cpp\github_os\input\src\os_base\os_exception.c ****    #define SYSTICK_STAT_REG_ENABLE  ((uint32)0x00000001)
 184:E:\NeuOrga\Programmieren\c_cpp\github_os\input\src\os_base\os_exception.c ****    #define LOOPTIME_IN_USEC ((uint32)10000u)
 185:E:\NeuOrga\Programmieren\c_cpp\github_os\input\src\os_base\os_exception.c ****    /*
 186:E:\NeuOrga\Programmieren\c_cpp\github_os\input\src\os_base\os_exception.c ****    CLOCK = HCLK / 8
 187:E:\NeuOrga\Programmieren\c_cpp\github_os\input\src\os_base\os_exception.c ****    vermutlich: CLOCK = 150Mhz / 8 = 18,75 Mhz
 188:E:\NeuOrga\Programmieren\c_cpp\github_os\input\src\os_base\os_exception.c ****    */
 189:E:\NeuOrga\Programmieren\c_cpp\github_os\input\src\os_base\os_exception.c ****    *SYSTICK_RLD_VAL_REG = (*SYSTICK_RLD_VAL_REG & 0xFF000000 )| (((uint32)MCU_CLOCK_IN_HZ / ((uint3
 626              		.loc 1 189 0
 627 0346 2E4D     		ldr	r5, .L34+12
 190:E:\NeuOrga\Programmieren\c_cpp\github_os\input\src\os_base\os_exception.c ****    *SYSTICK_CURRENT_VAL_REG = ((uint32)0x00000000);
 191:E:\NeuOrga\Programmieren\c_cpp\github_os\input\src\os_base\os_exception.c ****    *SYSTICK_CTRL_STAT_REG = *SYSTICK_CTRL_STAT_REG | SYSTICK_STAT_REG_TICKINT | SYSTICK_STAT_REG_EN
 628              		.loc 1 191 0
 629 0348 2E4A     		ldr	r2, .L34+16
 190:E:\NeuOrga\Programmieren\c_cpp\github_os\input\src\os_base\os_exception.c ****    *SYSTICK_CURRENT_VAL_REG = ((uint32)0x00000000);
 630              		.loc 1 190 0
 631 034a 2F4F     		ldr	r7, .L34+20
 192:E:\NeuOrga\Programmieren\c_cpp\github_os\input\src\os_base\os_exception.c **** 
 193:E:\NeuOrga\Programmieren\c_cpp\github_os\input\src\os_base\os_exception.c ****    DBG_RLD_VALUE  = *SYSTICK_RLD_VAL_REG;
 194:E:\NeuOrga\Programmieren\c_cpp\github_os\input\src\os_base\os_exception.c ****    DBG_CURR_VAL   = *SYSTICK_CURRENT_VAL_REG;
 195:E:\NeuOrga\Programmieren\c_cpp\github_os\input\src\os_base\os_exception.c ****    DBG_CTRL_VALUE = *SYSTICK_CTRL_STAT_REG;
 196:E:\NeuOrga\Programmieren\c_cpp\github_os\input\src\os_base\os_exception.c ****    DBG_CALIB_VALUE = *SYSTICK_CALIB_VAL_REG;
 632              		.loc 1 196 0
 633 034c DFF8C4E0 		ldr	lr, .L34+32
 164:E:\NeuOrga\Programmieren\c_cpp\github_os\input\src\os_base\os_exception.c ****    DBG_CURR_VAL = 0xFFFFFFFF;
 634              		.loc 1 164 0
ARM GAS  C:\Users\PRESID~1\AppData\Local\Temp\ccET6nar.s 			page 16


 635 0350 4FF0FF33 		mov	r3, #-1
 636 0354 CCF80030 		str	r3, [ip]
 165:E:\NeuOrga\Programmieren\c_cpp\github_os\input\src\os_base\os_exception.c ****    DBG_CTRL_VALUE = 0xFFFFFFFF;
 637              		.loc 1 165 0
 638 0358 3360     		str	r3, [r6]
 166:E:\NeuOrga\Programmieren\c_cpp\github_os\input\src\os_base\os_exception.c ****    DBG_CALIB_VALUE = 0xFFFFFFFF;
 639              		.loc 1 166 0
 640 035a 2360     		str	r3, [r4]
 167:E:\NeuOrga\Programmieren\c_cpp\github_os\input\src\os_base\os_exception.c ****    /* the systick timer is stopped during debug... see CorteM4 manual */
 641              		.loc 1 167 0
 642 035c 0360     		str	r3, [r0]
 643              	.LVL7:
 189:E:\NeuOrga\Programmieren\c_cpp\github_os\input\src\os_base\os_exception.c ****    *SYSTICK_CURRENT_VAL_REG = ((uint32)0x00000000);
 644              		.loc 1 189 0
 645 035e 2B68     		ldr	r3, [r5]
 191:E:\NeuOrga\Programmieren\c_cpp\github_os\input\src\os_base\os_exception.c **** 
 646              		.loc 1 191 0
 647 0360 1168     		ldr	r1, [r2]
 189:E:\NeuOrga\Programmieren\c_cpp\github_os\input\src\os_base\os_exception.c ****    *SYSTICK_CURRENT_VAL_REG = ((uint32)0x00000000);
 648              		.loc 1 189 0
 649 0362 03F07F43 		and	r3, r3, #-16777216
 650 0366 43F4CD13 		orr	r3, r3, #1679360
 651 036a 43F42073 		orr	r3, r3, #640
 652 036e 2B60     		str	r3, [r5]
 191:E:\NeuOrga\Programmieren\c_cpp\github_os\input\src\os_base\os_exception.c **** 
 653              		.loc 1 191 0
 654 0370 41F00301 		orr	r1, r1, #3
 190:E:\NeuOrga\Programmieren\c_cpp\github_os\input\src\os_base\os_exception.c ****    *SYSTICK_CTRL_STAT_REG = *SYSTICK_CTRL_STAT_REG | SYSTICK_STAT_REG_TICKINT | SYSTICK_STAT_REG_EN
 655              		.loc 1 190 0
 656 0374 0025     		movs	r5, #0
 191:E:\NeuOrga\Programmieren\c_cpp\github_os\input\src\os_base\os_exception.c **** 
 657              		.loc 1 191 0
 658 0376 1160     		str	r1, [r2]
 190:E:\NeuOrga\Programmieren\c_cpp\github_os\input\src\os_base\os_exception.c ****    *SYSTICK_CTRL_STAT_REG = *SYSTICK_CTRL_STAT_REG | SYSTICK_STAT_REG_TICKINT | SYSTICK_STAT_REG_EN
 659              		.loc 1 190 0
 660 0378 3D60     		str	r5, [r7]
 193:E:\NeuOrga\Programmieren\c_cpp\github_os\input\src\os_base\os_exception.c ****    DBG_CURR_VAL   = *SYSTICK_CURRENT_VAL_REG;
 661              		.loc 1 193 0
 662 037a CCF80030 		str	r3, [ip]
 194:E:\NeuOrga\Programmieren\c_cpp\github_os\input\src\os_base\os_exception.c ****    DBG_CTRL_VALUE = *SYSTICK_CTRL_STAT_REG;
 663              		.loc 1 194 0
 664 037e 3B68     		ldr	r3, [r7]
 665 0380 3360     		str	r3, [r6]
 195:E:\NeuOrga\Programmieren\c_cpp\github_os\input\src\os_base\os_exception.c ****    DBG_CALIB_VALUE = *SYSTICK_CALIB_VAL_REG;
 666              		.loc 1 195 0
 667 0382 1368     		ldr	r3, [r2]
 668 0384 2360     		str	r3, [r4]
 669              		.loc 1 196 0
 670 0386 DEF80030 		ldr	r3, [lr]
 671 038a 0360     		str	r3, [r0]
 197:E:\NeuOrga\Programmieren\c_cpp\github_os\input\src\os_base\os_exception.c ****    /*
 198:E:\NeuOrga\Programmieren\c_cpp\github_os\input\src\os_base\os_exception.c ****    4.4.1. SysTick Control and Status Register
 199:E:\NeuOrga\Programmieren\c_cpp\github_os\input\src\os_base\os_exception.c **** 
 200:E:\NeuOrga\Programmieren\c_cpp\github_os\input\src\os_base\os_exception.c **** The SysTick SYST_CSR register enables the SysTick features. The register resets to 0x00000000, or t
 201:E:\NeuOrga\Programmieren\c_cpp\github_os\input\src\os_base\os_exception.c **** 
 202:E:\NeuOrga\Programmieren\c_cpp\github_os\input\src\os_base\os_exception.c **** Table 4.33. SysTick SYST_CSR register bit assignments
 203:E:\NeuOrga\Programmieren\c_cpp\github_os\input\src\os_base\os_exception.c **** Bits	Name	Function
ARM GAS  C:\Users\PRESID~1\AppData\Local\Temp\ccET6nar.s 			page 17


 204:E:\NeuOrga\Programmieren\c_cpp\github_os\input\src\os_base\os_exception.c **** [31:17]	-	Reserved.
 205:E:\NeuOrga\Programmieren\c_cpp\github_os\input\src\os_base\os_exception.c **** [16]	COUNTFLAG
 206:E:\NeuOrga\Programmieren\c_cpp\github_os\input\src\os_base\os_exception.c **** 
 207:E:\NeuOrga\Programmieren\c_cpp\github_os\input\src\os_base\os_exception.c **** Returns 1 if timer counted to 0 since last time this was read.
 208:E:\NeuOrga\Programmieren\c_cpp\github_os\input\src\os_base\os_exception.c **** [15:3]	-	Reserved.
 209:E:\NeuOrga\Programmieren\c_cpp\github_os\input\src\os_base\os_exception.c **** [2]	CLKSOURCE
 210:E:\NeuOrga\Programmieren\c_cpp\github_os\input\src\os_base\os_exception.c **** 
 211:E:\NeuOrga\Programmieren\c_cpp\github_os\input\src\os_base\os_exception.c **** Indicates the clock source:
 212:E:\NeuOrga\Programmieren\c_cpp\github_os\input\src\os_base\os_exception.c **** 
 213:E:\NeuOrga\Programmieren\c_cpp\github_os\input\src\os_base\os_exception.c **** 0 = external clock
 214:E:\NeuOrga\Programmieren\c_cpp\github_os\input\src\os_base\os_exception.c **** 
 215:E:\NeuOrga\Programmieren\c_cpp\github_os\input\src\os_base\os_exception.c **** 1 = processor clock.
 216:E:\NeuOrga\Programmieren\c_cpp\github_os\input\src\os_base\os_exception.c **** [1]	TICKINT
 217:E:\NeuOrga\Programmieren\c_cpp\github_os\input\src\os_base\os_exception.c **** 
 218:E:\NeuOrga\Programmieren\c_cpp\github_os\input\src\os_base\os_exception.c **** Enables SysTick exception request:
 219:E:\NeuOrga\Programmieren\c_cpp\github_os\input\src\os_base\os_exception.c **** 
 220:E:\NeuOrga\Programmieren\c_cpp\github_os\input\src\os_base\os_exception.c **** 0 = counting down to zero does not assert the SysTick exception request
 221:E:\NeuOrga\Programmieren\c_cpp\github_os\input\src\os_base\os_exception.c **** 
 222:E:\NeuOrga\Programmieren\c_cpp\github_os\input\src\os_base\os_exception.c **** 1 = counting down to zero asserts the SysTick exception request.
 223:E:\NeuOrga\Programmieren\c_cpp\github_os\input\src\os_base\os_exception.c **** 
 224:E:\NeuOrga\Programmieren\c_cpp\github_os\input\src\os_base\os_exception.c **** Software can use COUNTFLAG to determine if SysTick has ever counted to zero.
 225:E:\NeuOrga\Programmieren\c_cpp\github_os\input\src\os_base\os_exception.c **** [0]	ENABLE
 226:E:\NeuOrga\Programmieren\c_cpp\github_os\input\src\os_base\os_exception.c **** 
 227:E:\NeuOrga\Programmieren\c_cpp\github_os\input\src\os_base\os_exception.c **** Enables the counter:
 228:E:\NeuOrga\Programmieren\c_cpp\github_os\input\src\os_base\os_exception.c **** 
 229:E:\NeuOrga\Programmieren\c_cpp\github_os\input\src\os_base\os_exception.c **** 0 = counter disabled
 230:E:\NeuOrga\Programmieren\c_cpp\github_os\input\src\os_base\os_exception.c **** 
 231:E:\NeuOrga\Programmieren\c_cpp\github_os\input\src\os_base\os_exception.c **** 1 = counter enabled.
 232:E:\NeuOrga\Programmieren\c_cpp\github_os\input\src\os_base\os_exception.c **** 
 233:E:\NeuOrga\Programmieren\c_cpp\github_os\input\src\os_base\os_exception.c **** When ENABLE is set to 1, the counter loads the RELOAD value from the SYST_RVR register and then cou
 234:E:\NeuOrga\Programmieren\c_cpp\github_os\input\src\os_base\os_exception.c ****    */
 235:E:\NeuOrga\Programmieren\c_cpp\github_os\input\src\os_base\os_exception.c ****    /* disable running task */
 236:E:\NeuOrga\Programmieren\c_cpp\github_os\input\src\os_base\os_exception.c ****    task = GetRunningTask();
 672              		.loc 1 236 0
 673 038c FFF7FEFF 		bl	GetRunningTask
 674              	.LVL8:
 675 0390 0446     		mov	r4, r0
 676              	.LVL9:
 237:E:\NeuOrga\Programmieren\c_cpp\github_os\input\src\os_base\os_exception.c ****    scheduling_task_ptr = GetRunningSchedulingQueueElementPtr();
 677              		.loc 1 237 0
 678 0392 FFF7FEFF 		bl	GetRunningSchedulingQueueElementPtr
 679              	.LVL10:
 238:E:\NeuOrga\Programmieren\c_cpp\github_os\input\src\os_base\os_exception.c ****    if(task != 0u)
 680              		.loc 1 238 0
 681 0396 44B3     		cbz	r4, .L29
 682 0398 0746     		mov	r7, r0
 239:E:\NeuOrga\Programmieren\c_cpp\github_os\input\src\os_base\os_exception.c ****    {
 240:E:\NeuOrga\Programmieren\c_cpp\github_os\input\src\os_base\os_exception.c ****       OS_TaskSaveTaskEnvironment(task);
 683              		.loc 1 240 0
 684 039a 2046     		mov	r0, r4
 685              	.LVL11:
 686 039c FFF7FEFF 		bl	OS_TaskSaveTaskEnvironment
 687              	.LVL12:
 241:E:\NeuOrga\Programmieren\c_cpp\github_os\input\src\os_base\os_exception.c ****       OS_TASK_RESTORE_SYSTEM_STACK((uint8*)&OS_MAIN_STACK);
 688              		.loc 1 241 0
 689 03a0 1A48     		ldr	r0, .L34+24
 690 03a2 FFF7FEFF 		bl	OS_TASK_RESTORE_SYSTEM_STACK
ARM GAS  C:\Users\PRESID~1\AppData\Local\Temp\ccET6nar.s 			page 18


 691              	.LVL13:
 242:E:\NeuOrga\Programmieren\c_cpp\github_os\input\src\os_base\os_exception.c ****       task->active = False;
 692              		.loc 1 242 0
 693 03a6 2378     		ldrb	r3, [r4]	@ zero_extendqisi2
 694 03a8 2646     		mov	r6, r4
 695 03aa 65F30003 		bfi	r3, r5, #0, #1
 696 03ae 06F85C3B 		strb	r3, [r6], #92
 243:E:\NeuOrga\Programmieren\c_cpp\github_os\input\src\os_base\os_exception.c ****       /*task->exe_time += (OS_GetCurrentTime() - task->start_time);*/
 244:E:\NeuOrga\Programmieren\c_cpp\github_os\input\src\os_base\os_exception.c ****       OS_GetCurrentTime(&time);
 697              		.loc 1 244 0
 698 03b2 04A8     		add	r0, sp, #16
 699 03b4 FFF7FEFF 		bl	OS_GetCurrentTime
 700              	.LVL14:
 245:E:\NeuOrga\Programmieren\c_cpp\github_os\input\src\os_base\os_exception.c ****       IntSub(&Diff, &time, &task->start_time);
 701              		.loc 1 245 0
 702 03b8 3246     		mov	r2, r6
 703 03ba 04A9     		add	r1, sp, #16
 704 03bc 6846     		mov	r0, sp
 705 03be FFF7FEFF 		bl	IntSub
 706              	.LVL15:
 246:E:\NeuOrga\Programmieren\c_cpp\github_os\input\src\os_base\os_exception.c ****       IntAdd(&task->exe_time, &task->exe_time, &Diff);
 707              		.loc 1 246 0
 708 03c2 04F14C01 		add	r1, r4, #76
 709 03c6 0846     		mov	r0, r1
 710 03c8 6A46     		mov	r2, sp
 711 03ca FFF7FEFF 		bl	IntAdd
 712              	.LVL16:
 247:E:\NeuOrga\Programmieren\c_cpp\github_os\input\src\os_base\os_exception.c ****       /*task->task_group->exe_time += (OS_GetCurrentTime() - task->start_time);*/
 248:E:\NeuOrga\Programmieren\c_cpp\github_os\input\src\os_base\os_exception.c ****       IntAdd(&task->task_group->exe_time, &task->task_group->exe_time, &Diff);
 713              		.loc 1 248 0
 714 03ce D4F88010 		ldr	r1, [r4, #128]
 715 03d2 6A46     		mov	r2, sp
 716 03d4 0846     		mov	r0, r1
 717 03d6 FFF7FEFF 		bl	IntAdd
 718              	.LVL17:
 249:E:\NeuOrga\Programmieren\c_cpp\github_os\input\src\os_base\os_exception.c ****       SET_RUNNING_TASK(0,0);
 719              		.loc 1 249 0
 720 03da 2946     		mov	r1, r5
 721 03dc 2846     		mov	r0, r5
 722 03de FFF7FEFF 		bl	SET_RUNNING_TASK
 723              	.LVL18:
 250:E:\NeuOrga\Programmieren\c_cpp\github_os\input\src\os_base\os_exception.c ****       OS_TerminateTask(task,scheduling_task_ptr);
 724              		.loc 1 250 0
 725 03e2 3946     		mov	r1, r7
 726 03e4 2046     		mov	r0, r4
 727 03e6 FFF7FEFF 		bl	OS_TerminateTask
 728              	.LVL19:
 729              	.L29:
 251:E:\NeuOrga\Programmieren\c_cpp\github_os\input\src\os_base\os_exception.c ****    }
 252:E:\NeuOrga\Programmieren\c_cpp\github_os\input\src\os_base\os_exception.c ****    /* call OS_StateHandler to determine what steps needs to be performed next */
 253:E:\NeuOrga\Programmieren\c_cpp\github_os\input\src\os_base\os_exception.c ****    OS_StateHandler();
 730              		.loc 1 253 0
 731 03ea FFF7FEFF 		bl	OS_StateHandler
 732              	.LVL20:
 254:E:\NeuOrga\Programmieren\c_cpp\github_os\input\src\os_base\os_exception.c **** #endif
 255:E:\NeuOrga\Programmieren\c_cpp\github_os\input\src\os_base\os_exception.c **** }
 733              		.loc 1 255 0
ARM GAS  C:\Users\PRESID~1\AppData\Local\Temp\ccET6nar.s 			page 19


 734 03ee 09B0     		add	sp, sp, #36
 735              		.cfi_def_cfa_offset 20
 736              		@ sp needed
 737 03f0 F0BD     		pop	{r4, r5, r6, r7, pc}
 738              	.LVL21:
 739              	.L35:
 740 03f2 00BF     		.align	2
 741              	.L34:
 742 03f4 00000000 		.word	DBG_CTRL_VALUE
 743 03f8 00000000 		.word	DBG_CALIB_VALUE
 744 03fc 00000000 		.word	DBG_CURR_VAL
 745 0400 14E000E0 		.word	-536813548
 746 0404 10E000E0 		.word	-536813552
 747 0408 18E000E0 		.word	-536813544
 748 040c 00000000 		.word	OS_MAIN_STACK
 749 0410 00000000 		.word	DBG_RLD_VALUE
 750 0414 1CE000E0 		.word	-536813540
 751              		.cfi_endproc
 752              	.LFE8:
 754              		.align	1
 755              		.p2align 2,,3
 756              		.global	OS_Exception_IRQ
 757              		.syntax unified
 758              		.thumb
 759              		.thumb_func
 760              		.fpu softvfp
 762              	OS_Exception_IRQ:
 763              	.LFB19:
 764              		.cfi_startproc
 765              		@ args = 0, pretend = 0, frame = 0
 766              		@ frame_needed = 0, uses_anonymous_args = 0
 767 0418 38B5     		push	{r3, r4, r5, lr}
 768              		.cfi_def_cfa_offset 16
 769              		.cfi_offset 3, -16
 770              		.cfi_offset 4, -12
 771              		.cfi_offset 5, -8
 772              		.cfi_offset 14, -4
 773 041a 154B     		ldr	r3, .L38
 774              		.syntax unified
 775              	@ 38 "E:\NeuOrga\Programmieren\c_cpp\github_os\input\src\os_base\os_exception.c" 1
 776 041c 1868C0F8 		LDR r0,[r3];                          STR r14,[r0];
 776      00E0
 777              	@ 0 "" 2
 778              		.thumb
 779              		.syntax unified
 780 0422 144B     		ldr	r3, .L38+4
 781 0424 144A     		ldr	r2, .L38+8
 782 0426 1968     		ldr	r1, [r3]
 783 0428 1160     		str	r1, [r2]
 784 042a 043B     		subs	r3, r3, #4
 785 042c 134C     		ldr	r4, .L38+12
 786 042e 1B78     		ldrb	r3, [r3]	@ zero_extendqisi2
 787 0430 1348     		ldr	r0, .L38+16
 788 0432 1449     		ldr	r1, .L38+20
 789 0434 144A     		ldr	r2, .L38+24
 790 0436 154D     		ldr	r5, .L38+28
 791 0438 DBB2     		uxtb	r3, r3
ARM GAS  C:\Users\PRESID~1\AppData\Local\Temp\ccET6nar.s 			page 20


 792 043a 2360     		str	r3, [r4]
 793 043c 0378     		ldrb	r3, [r0]	@ zero_extendqisi2
 794 043e 144C     		ldr	r4, .L38+32
 795 0440 1448     		ldr	r0, .L38+36
 796 0442 DBB2     		uxtb	r3, r3
 797 0444 0B60     		str	r3, [r1]
 798 0446 1388     		ldrh	r3, [r2]
 799 0448 1349     		ldr	r1, .L38+40
 800 044a 9BB2     		uxth	r3, r3
 801 044c 2B60     		str	r3, [r5]
 802 044e 2368     		ldr	r3, [r4]
 803 0450 0360     		str	r3, [r0]
 804 0452 D2F80E30 		ldr	r3, [r2, #14]
 805 0456 0B60     		str	r3, [r1]
 806 0458 1232     		adds	r2, r2, #18
 807 045a 104B     		ldr	r3, .L38+44
 808 045c 1268     		ldr	r2, [r2]
 809 045e 1A60     		str	r2, [r3]
 810 0460 FFF7FEFF 		bl	LLF_EXCEPTION_TO_HANDLER_MODE
 811 0464 0020     		movs	r0, #0
 812 0466 BDE83840 		pop	{r3, r4, r5, lr}
 813              		.cfi_restore 14
 814              		.cfi_restore 5
 815              		.cfi_restore 4
 816              		.cfi_restore 3
 817              		.cfi_def_cfa_offset 0
 818 046a FFF7FEBF 		b	OS_Shutdown
 819              	.L39:
 820 046e 00BF     		.align	2
 821              	.L38:
 822 0470 00000000 		.word	LINK_REGISTER_HANDLER
 823 0474 2CED00E0 		.word	-536810196
 824 0478 00000000 		.word	VAR_HARDFAULT_STATUS_REG
 825 047c 00000000 		.word	VAR_MEM_MANAG_FAULT_STATUS_REG
 826 0480 29ED00E0 		.word	-536810199
 827 0484 00000000 		.word	VAR_BUS_FAULT_STATUS_REG
 828 0488 2AED00E0 		.word	-536810198
 829 048c 00000000 		.word	VAR_USAGE_FAULT_STATUS_REG
 830 0490 34ED00E0 		.word	-536810188
 831 0494 00000000 		.word	VAR_MEM_FAULT_ADDR_REG
 832 0498 00000000 		.word	VAR_BUS_FAULT_ADDR_REG
 833 049c 00000000 		.word	VAR_AUX_FAULT_STATUS_REG
 834              		.cfi_endproc
 835              	.LFE19:
 837              	.Letext0:
 838              		.file 2 "e:\\neuorga\\programmieren\\c_cpp\\github_os\\input\\src\\os_base\\os_base_types.h"
 839              		.file 3 "e:\\neuorga\\programmieren\\c_cpp\\github_os\\input\\src\\os_base\\os_common.h"
 840              		.file 4 "e:\\neuorga\\programmieren\\c_cpp\\github_os\\input\\src\\os_drivers\\lld_core.h"
 841              		.file 5 "e:\\neuorga\\programmieren\\c_cpp\\github_os\\input\\src\\os_base\\os_task_common.h"
 842              		.file 6 "e:\\neuorga\\programmieren\\c_cpp\\github_os\\input\\src\\os_base\\os_ram.h"
 843              		.file 7 "e:\\neuorga\\programmieren\\c_cpp\\github_os\\input\\src\\os_base\\os_ram_stack.h"
 844              		.file 8 "E:\\NeuOrga\\Programmieren\\c_cpp\\github_os\\input\\src\\os_base\\os_shutdown.h"
 845              		.file 9 "e:\\neuorga\\programmieren\\c_cpp\\github_os\\input\\src\\os_base\\os_task_queue.h"
 846              		.file 10 "e:\\neuorga\\programmieren\\c_cpp\\github_os\\input\\src\\os_base\\os_task_scheduler.h"
 847              		.file 11 "e:\\neuorga\\programmieren\\c_cpp\\github_os\\input\\src\\os_base\\os_main.h"
ARM GAS  C:\Users\PRESID~1\AppData\Local\Temp\ccET6nar.s 			page 21


DEFINED SYMBOLS
                            *ABS*:00000000 os_exception.c
C:\Users\PRESID~1\AppData\Local\Temp\ccET6nar.s:15     .text:00000000 $t
C:\Users\PRESID~1\AppData\Local\Temp\ccET6nar.s:23     .text:00000000 OS_Exception_NMI
C:\Users\PRESID~1\AppData\Local\Temp\ccET6nar.s:110    .text:00000058 $d
C:\Users\PRESID~1\AppData\Local\Temp\ccET6nar.s:125    .text:00000088 $t
C:\Users\PRESID~1\AppData\Local\Temp\ccET6nar.s:133    .text:00000088 OS_Exception_HARDFAULT
C:\Users\PRESID~1\AppData\Local\Temp\ccET6nar.s:193    .text:000000e0 $d
C:\Users\PRESID~1\AppData\Local\Temp\ccET6nar.s:208    .text:00000110 $t
C:\Users\PRESID~1\AppData\Local\Temp\ccET6nar.s:216    .text:00000110 OS_Exception_MEM_MANAG_FAULT
C:\Users\PRESID~1\AppData\Local\Temp\ccET6nar.s:276    .text:00000168 $d
C:\Users\PRESID~1\AppData\Local\Temp\ccET6nar.s:291    .text:00000198 $t
C:\Users\PRESID~1\AppData\Local\Temp\ccET6nar.s:299    .text:00000198 OS_Exception_BUS_FAULT
C:\Users\PRESID~1\AppData\Local\Temp\ccET6nar.s:359    .text:000001f0 $d
C:\Users\PRESID~1\AppData\Local\Temp\ccET6nar.s:374    .text:00000220 $t
C:\Users\PRESID~1\AppData\Local\Temp\ccET6nar.s:382    .text:00000220 OS_Exception_USAGE_FAULT
C:\Users\PRESID~1\AppData\Local\Temp\ccET6nar.s:442    .text:00000278 $d
C:\Users\PRESID~1\AppData\Local\Temp\ccET6nar.s:457    .text:000002a8 $t
C:\Users\PRESID~1\AppData\Local\Temp\ccET6nar.s:465    .text:000002a8 OS_Exception_DEBUG
C:\Users\PRESID~1\AppData\Local\Temp\ccET6nar.s:544    .text:000002f8 $d
C:\Users\PRESID~1\AppData\Local\Temp\ccET6nar.s:558    .text:00000324 $t
C:\Users\PRESID~1\AppData\Local\Temp\ccET6nar.s:566    .text:00000324 OS_Exception_PendSV
C:\Users\PRESID~1\AppData\Local\Temp\ccET6nar.s:600    .text:00000334 OS_Exception_Systick
C:\Users\PRESID~1\AppData\Local\Temp\ccET6nar.s:742    .text:000003f4 $d
C:\Users\PRESID~1\AppData\Local\Temp\ccET6nar.s:754    .text:00000418 $t
C:\Users\PRESID~1\AppData\Local\Temp\ccET6nar.s:762    .text:00000418 OS_Exception_IRQ
C:\Users\PRESID~1\AppData\Local\Temp\ccET6nar.s:822    .text:00000470 $d
                           .group:00000000 wm4.0.c0793757704d250d57c533755ef2cd77
                           .group:00000000 wm4.os_base_types.h.2.f3c0267f175f5cbacca6b71710665a02
                           .group:00000000 wm4.os_common.h.2.7e9aadbd6cc66ffeb9ea2492a31fabc8
                           .group:00000000 wm4.os_task_config.h.2.a73335dbec9f276504b3b94e79d1d898
                           .group:00000000 wm4.os_task_common.h.97.d031f1e6a25f19c1fb076c4a4d7927a1
                           .group:00000000 wm4.os_stack.h.2.0b496ee49cecbb9eb97fc92684c656a4
                           .group:00000000 wm4.os_heap.h.2.89074aae455d2462b5952479e3530dd1
                           .group:00000000 wm4.os_main.h.2.1f66ae3841c27bd36097fa1d2e1fe6a7
                           .group:00000000 wm4.os_task_queue.h.2.9428c7964838a07bb4b1cac6c50ee9b2
                           .group:00000000 wm4.os_task_scheduler.h.2.125feba674fa85672711aed1ca8ea199

UNDEFINED SYMBOLS
LLF_EXCEPTION_TO_HANDLER_MODE
OS_Shutdown
LINK_REGISTER_HANDLER
VAR_HARDFAULT_STATUS_REG
VAR_MEM_MANAG_FAULT_STATUS_REG
VAR_BUS_FAULT_STATUS_REG
VAR_USAGE_FAULT_STATUS_REG
VAR_MEM_FAULT_ADDR_REG
VAR_BUS_FAULT_ADDR_REG
VAR_AUX_FAULT_STATUS_REG
GetRunningTask
GetRunningSchedulingQueueElementPtr
OS_TaskSaveTaskEnvironment
OS_TASK_RESTORE_SYSTEM_STACK
OS_GetCurrentTime
IntSub
IntAdd
SET_RUNNING_TASK
ARM GAS  C:\Users\PRESID~1\AppData\Local\Temp\ccET6nar.s 			page 22


OS_TerminateTask
OS_StateHandler
DBG_CTRL_VALUE
DBG_CALIB_VALUE
DBG_CURR_VAL
OS_MAIN_STACK
DBG_RLD_VALUE
