ARM GAS  C:\Users\PRESID~1\AppData\Local\Temp\cckQCvii.s 			page 1


   1              		.cpu cortex-m4
   2              		.eabi_attribute 20, 1
   3              		.eabi_attribute 21, 1
   4              		.eabi_attribute 23, 3
   5              		.eabi_attribute 24, 1
   6              		.eabi_attribute 25, 1
   7              		.eabi_attribute 26, 1
   8              		.eabi_attribute 30, 2
   9              		.eabi_attribute 34, 1
  10              		.eabi_attribute 18, 4
  11              		.file	"os_exception_isr_handler.c"
  12              		.text
  13              	.Ltext0:
  14              		.cfi_sections	.debug_frame
  15              		.align	1
  16              		.p2align 2,,3
  17              		.global	OS_ISRHANDLERC0
  18              		.arch armv7e-m
  19              		.syntax unified
  20              		.thumb
  21              		.thumb_func
  22              		.fpu softvfp
  24              	OS_ISRHANDLERC0:
  25              	.LVL0:
  26              	.LFB0:
  27              		.file 1 "C:\\Users\\president\\Desktop\\sbx\\input\\src\\os_base\\os_exception_isr_handler.c"
   1:C:\Users\president\Desktop\sbx\input\src\os_base\os_exception_isr_handler.c **** #include "os_firstinc.h"
   2:C:\Users\president\Desktop\sbx\input\src\os_base\os_exception_isr_handler.c **** #include "os_task_common.h"
   3:C:\Users\president\Desktop\sbx\input\src\os_base\os_exception_isr_handler.c **** #include "os_task_scheduler.h"
   4:C:\Users\president\Desktop\sbx\input\src\os_base\os_exception_isr_handler.c **** #include "os_shutdown.h"
   5:C:\Users\president\Desktop\sbx\input\src\os_base\os_exception_isr_handler.c **** #include "os_exception_isr_handler.h"
   6:C:\Users\president\Desktop\sbx\input\src\os_base\os_exception_isr_handler.c **** 
   7:C:\Users\president\Desktop\sbx\input\src\os_base\os_exception_isr_handler.c **** 
   8:C:\Users\president\Desktop\sbx\input\src\os_base\os_exception_isr_handler.c **** 
   9:C:\Users\president\Desktop\sbx\input\src\os_base\os_exception_isr_handler.c **** void OS_ISRHANDLERC0(uint32 svc_number)
  10:C:\Users\president\Desktop\sbx\input\src\os_base\os_exception_isr_handler.c **** {
  28              		.loc 1 10 1 view -0
  29              		.cfi_startproc
  30              		@ args = 0, pretend = 0, frame = 0
  31              		@ frame_needed = 0, uses_anonymous_args = 0
  11:C:\Users\president\Desktop\sbx\input\src\os_base\os_exception_isr_handler.c ****    switch(svc_number)/* Implement needed SVC numbers (need for example for user code to access priv
  32              		.loc 1 11 4 view .LVU1
  33 0000 00B9     		cbnz	r0, .L7
  34 0002 7047     		bx	lr
  35              	.L7:
  12:C:\Users\president\Desktop\sbx\input\src\os_base\os_exception_isr_handler.c ****    {
  13:C:\Users\president\Desktop\sbx\input\src\os_base\os_exception_isr_handler.c ****    case SVC_00:            /* Handle SVC 00 */
  14:C:\Users\president\Desktop\sbx\input\src\os_base\os_exception_isr_handler.c ****    {
  15:C:\Users\president\Desktop\sbx\input\src\os_base\os_exception_isr_handler.c ****       /* svc_00 implemented as reference only */
  16:C:\Users\president\Desktop\sbx\input\src\os_base\os_exception_isr_handler.c ****       REFERENCE_UNUSED_PARAMETER(svc_number);
  17:C:\Users\president\Desktop\sbx\input\src\os_base\os_exception_isr_handler.c ****       break;
  18:C:\Users\president\Desktop\sbx\input\src\os_base\os_exception_isr_handler.c ****    }
  19:C:\Users\president\Desktop\sbx\input\src\os_base\os_exception_isr_handler.c ****    default:                /* Unknown SVC */
  20:C:\Users\president\Desktop\sbx\input\src\os_base\os_exception_isr_handler.c ****    {
  21:C:\Users\president\Desktop\sbx\input\src\os_base\os_exception_isr_handler.c ****       OS_SET_SW_BUG(E_OS_BUG_SVC_NUMBER_MISSING, E_FUNC_ISRHANDLER);
  36              		.loc 1 21 7 view .LVU2
  10:C:\Users\president\Desktop\sbx\input\src\os_base\os_exception_isr_handler.c ****    switch(svc_number)/* Implement needed SVC numbers (need for example for user code to access priv
ARM GAS  C:\Users\PRESID~1\AppData\Local\Temp\cckQCvii.s 			page 2


  37              		.loc 1 10 1 is_stmt 0 view .LVU3
  38 0004 08B5     		push	{r3, lr}
  39              		.cfi_def_cfa_offset 8
  40              		.cfi_offset 3, -8
  41              		.cfi_offset 14, -4
  42              		.loc 1 21 7 view .LVU4
  43 0006 1221     		movs	r1, #18
  44 0008 0A20     		movs	r0, #10
  45              	.LVL1:
  46              		.loc 1 21 7 view .LVU5
  47 000a FFF7FEFF 		bl	OS_SET_SW_BUG
  48              	.LVL2:
  22:C:\Users\president\Desktop\sbx\input\src\os_base\os_exception_isr_handler.c ****       OS_SHUTDOWN(E_OS_RESET_HARDRESET,0u);
  49              		.loc 1 22 7 is_stmt 1 view .LVU6
  50 000e 0021     		movs	r1, #0
  51 0010 0846     		mov	r0, r1
  23:C:\Users\president\Desktop\sbx\input\src\os_base\os_exception_isr_handler.c ****       break;
  24:C:\Users\president\Desktop\sbx\input\src\os_base\os_exception_isr_handler.c ****    }
  25:C:\Users\president\Desktop\sbx\input\src\os_base\os_exception_isr_handler.c ****    }
  26:C:\Users\president\Desktop\sbx\input\src\os_base\os_exception_isr_handler.c **** }...
  52              		.loc 1 26 1 is_stmt 0 view .LVU7
  53 0012 BDE80840 		pop	{r3, lr}
  54              		.cfi_restore 14
  55              		.cfi_restore 3
  56              		.cfi_def_cfa_offset 0
  22:C:\Users\president\Desktop\sbx\input\src\os_base\os_exception_isr_handler.c ****       OS_SHUTDOWN(E_OS_RESET_HARDRESET,0u);
  57              		.loc 1 22 7 view .LVU8
  58 0016 FFF7FEBF 		b	OS_SHUTDOWN
  59              	.LVL3:
  60              		.cfi_endproc
  61              	.LFE0:
  63              	.Letext0:
  64              		.file 2 "c:\\users\\president\\desktop\\sbx\\input\\src\\os_base\\os_base_types.h"
  65              		.file 3 "c:\\users\\president\\desktop\\sbx\\input\\src\\os_base\\os_common.h"
  66              		.file 4 "c:\\users\\president\\desktop\\sbx\\input\\src\\os_drivers\\lld_core.h"
  67              		.file 5 "c:\\users\\president\\desktop\\sbx\\input\\src\\os_base\\os_task_common.h"
  68              		.file 6 "C:\\Users\\president\\Desktop\\sbx\\input\\src\\os_base\\os_main.h"
  69              		.file 7 "c:\\users\\president\\desktop\\sbx\\input\\src\\os_base\\os_ram.h"
  70              		.file 8 "c:\\users\\president\\desktop\\sbx\\input\\src\\os_base\\os_ram_stack.h"
  71              		.file 9 "C:\\Users\\president\\Desktop\\sbx\\input\\src\\os_base\\os_shutdown.h"
ARM GAS  C:\Users\PRESID~1\AppData\Local\Temp\cckQCvii.s 			page 3

