ARM GAS  C:\Users\PRESID~1\AppData\Local\Temp\ccFH53ge.s 			page 1


   1              		.cpu cortex-m4
   2              		.eabi_attribute 20, 1
   3              		.eabi_attribute 21, 1
   4              		.eabi_attribute 23, 3
   5              		.eabi_attribute 24, 1
   6              		.eabi_attribute 25, 1
   7              		.eabi_attribute 26, 1
   8              		.eabi_attribute 30, 2
   9              		.eabi_attribute 34, 1
  10              		.eabi_attribute 18, 4
  11              		.file	"os_exception.c"
  12              		.text
  13              	.Ltext0:
  14              		.cfi_sections	.debug_frame
  15              		.align	1
  16              		.p2align 2,,3
  17              		.global	OS_EXCEPTION_NMI
  18              		.arch armv7e-m
  19              		.syntax unified
  20              		.thumb
  21              		.thumb_func
  22              		.fpu softvfp
  24              	OS_EXCEPTION_NMI:
  25              	.LFB1:
  26              		.file 1 "C:\\Users\\president\\Desktop\\sbx\\input\\src\\os_base\\os_exception.c"
   1:C:\Users\president\Desktop\sbx\input\src\os_base\os_exception.c **** #include "os_firstinc.h"
   2:C:\Users\president\Desktop\sbx\input\src\os_base\os_exception.c **** #include "os_exception_isr_handler.h"
   3:C:\Users\president\Desktop\sbx\input\src\os_base\os_exception.c **** #include "os_exception.h"
   4:C:\Users\president\Desktop\sbx\input\src\os_base\os_exception.c **** #include "os_shutdown.h"
   5:C:\Users\president\Desktop\sbx\input\src\os_base\os_exception.c **** #include "os_start_os.h"
   6:C:\Users\president\Desktop\sbx\input\src\os_base\os_exception.c **** #include "..\os_base\os_task_queue.h"
   7:C:\Users\president\Desktop\sbx\input\src\os_base\os_exception.c **** #include "..\os_base\os_task_scheduler.h"
   8:C:\Users\president\Desktop\sbx\input\src\os_base\os_exception.c **** /* the Interrupt table is set via the code linked to 0x00 and following ...   */
   9:C:\Users\president\Desktop\sbx\input\src\os_base\os_exception.c **** /* interrupts are disabled during RESET exception and will be enabled by task system */
  10:C:\Users\president\Desktop\sbx\input\src\os_base\os_exception.c **** 
  11:C:\Users\president\Desktop\sbx\input\src\os_base\os_exception.c **** /*All infos regarding faults are stored in seperate variables (not in a shared structure)
  12:C:\Users\president\Desktop\sbx\input\src\os_base\os_exception.c ****  because the debugger can read from addresses only, but does not know padding of structures.... */
  13:C:\Users\president\Desktop\sbx\input\src\os_base\os_exception.c **** 
  14:C:\Users\president\Desktop\sbx\input\src\os_base\os_exception.c **** #if(CFG_PROCESSOR == MCU_CORTEX_M4)
  15:C:\Users\president\Desktop\sbx\input\src\os_base\os_exception.c **** LOCAL __inline__ void os_exception_read_status_registers(void)
  16:C:\Users\president\Desktop\sbx\input\src\os_base\os_exception.c **** {
  17:C:\Users\president\Desktop\sbx\input\src\os_base\os_exception.c ****    VAR_HARDFAULT_STATUS_REG = *HARDFAULT_STATUS_REG;
  18:C:\Users\president\Desktop\sbx\input\src\os_base\os_exception.c ****    VAR_MEM_MANAG_FAULT_STATUS_REG     = *MEM_MANAG_FAULT_STATUS_REG;
  19:C:\Users\president\Desktop\sbx\input\src\os_base\os_exception.c ****    VAR_BUS_FAULT_STATUS_REG   = *BUS_FAULT_STATUS_REG;
  20:C:\Users\president\Desktop\sbx\input\src\os_base\os_exception.c ****    VAR_USAGE_FAULT_STATUS_REG = *USAGE_FAULT_STATUS_REG;
  21:C:\Users\president\Desktop\sbx\input\src\os_base\os_exception.c ****    VAR_MEM_FAULT_ADDR_REG   = *MEM_FAULT_ADDR_REG;
  22:C:\Users\president\Desktop\sbx\input\src\os_base\os_exception.c ****    VAR_BUS_FAULT_ADDR_REG   = *BUS_FAULT_ADDR_REG;
  23:C:\Users\president\Desktop\sbx\input\src\os_base\os_exception.c ****    VAR_AUX_FAULT_STATUS_REG = *AUX_FAULT_STATUS_REG;
  24:C:\Users\president\Desktop\sbx\input\src\os_base\os_exception.c **** }
  25:C:\Users\president\Desktop\sbx\input\src\os_base\os_exception.c **** #endif
  26:C:\Users\president\Desktop\sbx\input\src\os_base\os_exception.c **** /* 0x00000000 OS_MAIN_STACK -> not implemented via function, see stack.c        */
  27:C:\Users\president\Desktop\sbx\input\src\os_base\os_exception.c **** /* 0x00000004 OS_EXCEPTION_RESET -> implemented in os_exception_reset.s */
  28:C:\Users\president\Desktop\sbx\input\src\os_base\os_exception.c **** /* 0x00000008 OS_EXCEPTION_NMI */
  29:C:\Users\president\Desktop\sbx\input\src\os_base\os_exception.c **** void OS_EXCEPTION_NMI(void)
  30:C:\Users\president\Desktop\sbx\input\src\os_base\os_exception.c **** {
  27              		.loc 1 30 1 view -0
  28              		.cfi_startproc
ARM GAS  C:\Users\PRESID~1\AppData\Local\Temp\ccFH53ge.s 			page 2


  29              		@ args = 0, pretend = 0, frame = 0
  30              		@ frame_needed = 0, uses_anonymous_args = 0
  31:C:\Users\president\Desktop\sbx\input\src\os_base\os_exception.c **** #if(CFG_PROCESSOR == MCU_CORTEX_M4)
  32:C:\Users\president\Desktop\sbx\input\src\os_base\os_exception.c ****    __asm__ __volatile__ ("LDR r0,%0;\
  31              		.loc 1 32 4 view .LVU1
  30:C:\Users\president\Desktop\sbx\input\src\os_base\os_exception.c **** #if(CFG_PROCESSOR == MCU_CORTEX_M4)
  32              		.loc 1 30 1 is_stmt 0 view .LVU2
  33 0000 38B5     		push	{r3, r4, r5, lr}
  34              		.cfi_def_cfa_offset 16
  35              		.cfi_offset 3, -16
  36              		.cfi_offset 4, -12
  37              		.cfi_offset 5, -8
  38              		.cfi_offset 14, -4
  39              		.loc 1 32 4 view .LVU3
  40 0002 154B     		ldr	r3, .L4
  41              		.syntax unified
  42              	@ 32 "C:\Users\president\Desktop\sbx\input\src\os_base\os_exception.c" 1
  43 0004 1868C0F8 		LDR r0,[r3];                          STR r14,[r0];
  43      00E0
  44              	@ 0 "" 2
  33:C:\Users\president\Desktop\sbx\input\src\os_base\os_exception.c ****                           STR r14,[r0];"
  34:C:\Users\president\Desktop\sbx\input\src\os_base\os_exception.c ****                          :"=m"(LINK_REGISTER_HANDLER)
  35:C:\Users\president\Desktop\sbx\input\src\os_base\os_exception.c ****                          :
  36:C:\Users\president\Desktop\sbx\input\src\os_base\os_exception.c ****                          :"r0"
  37:C:\Users\president\Desktop\sbx\input\src\os_base\os_exception.c ****                         );
  38:C:\Users\president\Desktop\sbx\input\src\os_base\os_exception.c ****    os_exception_read_status_registers();
  45              		.loc 1 38 4 is_stmt 1 view .LVU4
  46              		.thumb
  47              		.syntax unified
  48              	.LBB18:
  49              	.LBI18:
  15:C:\Users\president\Desktop\sbx\input\src\os_base\os_exception.c **** {
  50              		.loc 1 15 23 view .LVU5
  51              	.LBB19:
  17:C:\Users\president\Desktop\sbx\input\src\os_base\os_exception.c ****    VAR_MEM_MANAG_FAULT_STATUS_REG     = *MEM_MANAG_FAULT_STATUS_REG;
  52              		.loc 1 17 4 view .LVU6
  17:C:\Users\president\Desktop\sbx\input\src\os_base\os_exception.c ****    VAR_MEM_MANAG_FAULT_STATUS_REG     = *MEM_MANAG_FAULT_STATUS_REG;
  53              		.loc 1 17 31 is_stmt 0 view .LVU7
  54 000a 144B     		ldr	r3, .L4+4
  17:C:\Users\president\Desktop\sbx\input\src\os_base\os_exception.c ****    VAR_MEM_MANAG_FAULT_STATUS_REG     = *MEM_MANAG_FAULT_STATUS_REG;
  55              		.loc 1 17 29 view .LVU8
  56 000c 144A     		ldr	r2, .L4+8
  17:C:\Users\president\Desktop\sbx\input\src\os_base\os_exception.c ****    VAR_MEM_MANAG_FAULT_STATUS_REG     = *MEM_MANAG_FAULT_STATUS_REG;
  57              		.loc 1 17 31 view .LVU9
  58 000e 1968     		ldr	r1, [r3]
  17:C:\Users\president\Desktop\sbx\input\src\os_base\os_exception.c ****    VAR_MEM_MANAG_FAULT_STATUS_REG     = *MEM_MANAG_FAULT_STATUS_REG;
  59              		.loc 1 17 29 view .LVU10
  60 0010 1160     		str	r1, [r2]
  18:C:\Users\president\Desktop\sbx\input\src\os_base\os_exception.c ****    VAR_BUS_FAULT_STATUS_REG   = *BUS_FAULT_STATUS_REG;
  61              		.loc 1 18 4 is_stmt 1 view .LVU11
  18:C:\Users\president\Desktop\sbx\input\src\os_base\os_exception.c ****    VAR_BUS_FAULT_STATUS_REG   = *BUS_FAULT_STATUS_REG;
  62              		.loc 1 18 41 is_stmt 0 view .LVU12
  63 0012 043B     		subs	r3, r3, #4
  18:C:\Users\president\Desktop\sbx\input\src\os_base\os_exception.c ****    VAR_BUS_FAULT_STATUS_REG   = *BUS_FAULT_STATUS_REG;
  64              		.loc 1 18 39 view .LVU13
  65 0014 134C     		ldr	r4, .L4+12
  18:C:\Users\president\Desktop\sbx\input\src\os_base\os_exception.c ****    VAR_BUS_FAULT_STATUS_REG   = *BUS_FAULT_STATUS_REG;
ARM GAS  C:\Users\PRESID~1\AppData\Local\Temp\ccFH53ge.s 			page 3


  66              		.loc 1 18 41 view .LVU14
  67 0016 1B78     		ldrb	r3, [r3]	@ zero_extendqisi2
  19:C:\Users\president\Desktop\sbx\input\src\os_base\os_exception.c ****    VAR_USAGE_FAULT_STATUS_REG = *USAGE_FAULT_STATUS_REG;
  68              		.loc 1 19 33 view .LVU15
  69 0018 1348     		ldr	r0, .L4+16
  19:C:\Users\president\Desktop\sbx\input\src\os_base\os_exception.c ****    VAR_USAGE_FAULT_STATUS_REG = *USAGE_FAULT_STATUS_REG;
  70              		.loc 1 19 31 view .LVU16
  71 001a 1449     		ldr	r1, .L4+20
  20:C:\Users\president\Desktop\sbx\input\src\os_base\os_exception.c ****    VAR_MEM_FAULT_ADDR_REG   = *MEM_FAULT_ADDR_REG;
  72              		.loc 1 20 33 view .LVU17
  73 001c 144A     		ldr	r2, .L4+24
  20:C:\Users\president\Desktop\sbx\input\src\os_base\os_exception.c ****    VAR_MEM_FAULT_ADDR_REG   = *MEM_FAULT_ADDR_REG;
  74              		.loc 1 20 31 view .LVU18
  75 001e 154D     		ldr	r5, .L4+28
  18:C:\Users\president\Desktop\sbx\input\src\os_base\os_exception.c ****    VAR_BUS_FAULT_STATUS_REG   = *BUS_FAULT_STATUS_REG;
  76              		.loc 1 18 41 view .LVU19
  77 0020 DBB2     		uxtb	r3, r3
  18:C:\Users\president\Desktop\sbx\input\src\os_base\os_exception.c ****    VAR_BUS_FAULT_STATUS_REG   = *BUS_FAULT_STATUS_REG;
  78              		.loc 1 18 39 view .LVU20
  79 0022 2360     		str	r3, [r4]
  19:C:\Users\president\Desktop\sbx\input\src\os_base\os_exception.c ****    VAR_USAGE_FAULT_STATUS_REG = *USAGE_FAULT_STATUS_REG;
  80              		.loc 1 19 4 is_stmt 1 view .LVU21
  19:C:\Users\president\Desktop\sbx\input\src\os_base\os_exception.c ****    VAR_USAGE_FAULT_STATUS_REG = *USAGE_FAULT_STATUS_REG;
  81              		.loc 1 19 33 is_stmt 0 view .LVU22
  82 0024 0378     		ldrb	r3, [r0]	@ zero_extendqisi2
  21:C:\Users\president\Desktop\sbx\input\src\os_base\os_exception.c ****    VAR_BUS_FAULT_ADDR_REG   = *BUS_FAULT_ADDR_REG;
  83              		.loc 1 21 31 view .LVU23
  84 0026 144C     		ldr	r4, .L4+32
  21:C:\Users\president\Desktop\sbx\input\src\os_base\os_exception.c ****    VAR_BUS_FAULT_ADDR_REG   = *BUS_FAULT_ADDR_REG;
  85              		.loc 1 21 29 view .LVU24
  86 0028 1448     		ldr	r0, .L4+36
  19:C:\Users\president\Desktop\sbx\input\src\os_base\os_exception.c ****    VAR_USAGE_FAULT_STATUS_REG = *USAGE_FAULT_STATUS_REG;
  87              		.loc 1 19 33 view .LVU25
  88 002a DBB2     		uxtb	r3, r3
  19:C:\Users\president\Desktop\sbx\input\src\os_base\os_exception.c ****    VAR_USAGE_FAULT_STATUS_REG = *USAGE_FAULT_STATUS_REG;
  89              		.loc 1 19 31 view .LVU26
  90 002c 0B60     		str	r3, [r1]
  20:C:\Users\president\Desktop\sbx\input\src\os_base\os_exception.c ****    VAR_MEM_FAULT_ADDR_REG   = *MEM_FAULT_ADDR_REG;
  91              		.loc 1 20 4 is_stmt 1 view .LVU27
  20:C:\Users\president\Desktop\sbx\input\src\os_base\os_exception.c ****    VAR_MEM_FAULT_ADDR_REG   = *MEM_FAULT_ADDR_REG;
  92              		.loc 1 20 33 is_stmt 0 view .LVU28
  93 002e 1388     		ldrh	r3, [r2]
  22:C:\Users\president\Desktop\sbx\input\src\os_base\os_exception.c ****    VAR_AUX_FAULT_STATUS_REG = *AUX_FAULT_STATUS_REG;
  94              		.loc 1 22 29 view .LVU29
  95 0030 1349     		ldr	r1, .L4+40
  20:C:\Users\president\Desktop\sbx\input\src\os_base\os_exception.c ****    VAR_MEM_FAULT_ADDR_REG   = *MEM_FAULT_ADDR_REG;
  96              		.loc 1 20 33 view .LVU30
  97 0032 9BB2     		uxth	r3, r3
  20:C:\Users\president\Desktop\sbx\input\src\os_base\os_exception.c ****    VAR_MEM_FAULT_ADDR_REG   = *MEM_FAULT_ADDR_REG;
  98              		.loc 1 20 31 view .LVU31
  99 0034 2B60     		str	r3, [r5]
  21:C:\Users\president\Desktop\sbx\input\src\os_base\os_exception.c ****    VAR_BUS_FAULT_ADDR_REG   = *BUS_FAULT_ADDR_REG;
 100              		.loc 1 21 4 is_stmt 1 view .LVU32
  21:C:\Users\president\Desktop\sbx\input\src\os_base\os_exception.c ****    VAR_BUS_FAULT_ADDR_REG   = *BUS_FAULT_ADDR_REG;
 101              		.loc 1 21 31 is_stmt 0 view .LVU33
 102 0036 2368     		ldr	r3, [r4]
  21:C:\Users\president\Desktop\sbx\input\src\os_base\os_exception.c ****    VAR_BUS_FAULT_ADDR_REG   = *BUS_FAULT_ADDR_REG;
ARM GAS  C:\Users\PRESID~1\AppData\Local\Temp\ccFH53ge.s 			page 4


 103              		.loc 1 21 29 view .LVU34
 104 0038 0360     		str	r3, [r0]
  22:C:\Users\president\Desktop\sbx\input\src\os_base\os_exception.c ****    VAR_AUX_FAULT_STATUS_REG = *AUX_FAULT_STATUS_REG;
 105              		.loc 1 22 4 is_stmt 1 view .LVU35
  22:C:\Users\president\Desktop\sbx\input\src\os_base\os_exception.c ****    VAR_AUX_FAULT_STATUS_REG = *AUX_FAULT_STATUS_REG;
 106              		.loc 1 22 31 is_stmt 0 view .LVU36
 107 003a D2F80E30 		ldr	r3, [r2, #14]
  22:C:\Users\president\Desktop\sbx\input\src\os_base\os_exception.c ****    VAR_AUX_FAULT_STATUS_REG = *AUX_FAULT_STATUS_REG;
 108              		.loc 1 22 29 view .LVU37
 109 003e 0B60     		str	r3, [r1]
  23:C:\Users\president\Desktop\sbx\input\src\os_base\os_exception.c **** }
 110              		.loc 1 23 4 is_stmt 1 view .LVU38
  23:C:\Users\president\Desktop\sbx\input\src\os_base\os_exception.c **** }
 111              		.loc 1 23 31 is_stmt 0 view .LVU39
 112 0040 1232     		adds	r2, r2, #18
  23:C:\Users\president\Desktop\sbx\input\src\os_base\os_exception.c **** }
 113              		.loc 1 23 29 view .LVU40
 114 0042 104B     		ldr	r3, .L4+44
  23:C:\Users\president\Desktop\sbx\input\src\os_base\os_exception.c **** }
 115              		.loc 1 23 31 view .LVU41
 116 0044 1268     		ldr	r2, [r2]
  23:C:\Users\president\Desktop\sbx\input\src\os_base\os_exception.c **** }
 117              		.loc 1 23 29 view .LVU42
 118 0046 1A60     		str	r2, [r3]
 119              	.LBE19:
 120              	.LBE18:
  39:C:\Users\president\Desktop\sbx\input\src\os_base\os_exception.c **** 
  40:C:\Users\president\Desktop\sbx\input\src\os_base\os_exception.c ****    /* run all exceptions in handler mode */
  41:C:\Users\president\Desktop\sbx\input\src\os_base\os_exception.c ****    LLF_EXCEPTION_TO_HANDLER_MODE();
 121              		.loc 1 41 4 is_stmt 1 view .LVU43
 122 0048 FFF7FEFF 		bl	LLF_EXCEPTION_TO_HANDLER_MODE
 123              	.LVL0:
  42:C:\Users\president\Desktop\sbx\input\src\os_base\os_exception.c **** 
  43:C:\Users\president\Desktop\sbx\input\src\os_base\os_exception.c ****    OS_SHUTDOWN(E_OS_RESET_HARDRESET,0u);
 124              		.loc 1 43 4 view .LVU44
 125 004c 0021     		movs	r1, #0
 126 004e 0846     		mov	r0, r1
  44:C:\Users\president\Desktop\sbx\input\src\os_base\os_exception.c **** #endif
  45:C:\Users\president\Desktop\sbx\input\src\os_base\os_exception.c **** }
 127              		.loc 1 45 1 is_stmt 0 view .LVU45
 128 0050 BDE83840 		pop	{r3, r4, r5, lr}
 129              		.cfi_restore 14
 130              		.cfi_restore 5
 131              		.cfi_restore 4
 132              		.cfi_restore 3
 133              		.cfi_def_cfa_offset 0
  43:C:\Users\president\Desktop\sbx\input\src\os_base\os_exception.c **** #endif
 134              		.loc 1 43 4 view .LVU46
 135 0054 FFF7FEBF 		b	OS_SHUTDOWN
 136              	.LVL1:
 137              	.L5:
 138              		.align	2
 139              	.L4:
 140 0058 00000000 		.word	LINK_REGISTER_HANDLER
 141 005c 2CED00E0 		.word	-536810196
 142 0060 00000000 		.word	VAR_HARDFAULT_STATUS_REG
 143 0064 00000000 		.word	VAR_MEM_MANAG_FAULT_STATUS_REG
ARM GAS  C:\Users\PRESID~1\AppData\Local\Temp\ccFH53ge.s 			page 5


 144 0068 29ED00E0 		.word	-536810199
 145 006c 00000000 		.word	VAR_BUS_FAULT_STATUS_REG
 146 0070 2AED00E0 		.word	-536810198
 147 0074 00000000 		.word	VAR_USAGE_FAULT_STATUS_REG
 148 0078 34ED00E0 		.word	-536810188
 149 007c 00000000 		.word	VAR_MEM_FAULT_ADDR_REG
 150 0080 00000000 		.word	VAR_BUS_FAULT_ADDR_REG
 151 0084 00000000 		.word	VAR_AUX_FAULT_STATUS_REG
 152              		.cfi_endproc
 153              	.LFE1:
 155              		.align	1
 156              		.p2align 2,,3
 157              		.global	OS_EXCEPTION_HARDFAULT
 158              		.syntax unified
 159              		.thumb
 160              		.thumb_func
 161              		.fpu softvfp
 163              	OS_EXCEPTION_HARDFAULT:
 164              	.LFB11:
 165              		.cfi_startproc
 166              		@ args = 0, pretend = 0, frame = 0
 167              		@ frame_needed = 0, uses_anonymous_args = 0
 168 0088 38B5     		push	{r3, r4, r5, lr}
 169              		.cfi_def_cfa_offset 16
 170              		.cfi_offset 3, -16
 171              		.cfi_offset 4, -12
 172              		.cfi_offset 5, -8
 173              		.cfi_offset 14, -4
 174 008a 154B     		ldr	r3, .L8
 175              		.syntax unified
 176              	@ 32 "C:\Users\president\Desktop\sbx\input\src\os_base\os_exception.c" 1
 177 008c 1868C0F8 		LDR r0,[r3];                          STR r14,[r0];
 177      00E0
 178              	@ 0 "" 2
 179              		.thumb
 180              		.syntax unified
 181 0092 144B     		ldr	r3, .L8+4
 182 0094 144A     		ldr	r2, .L8+8
 183 0096 1968     		ldr	r1, [r3]
 184 0098 1160     		str	r1, [r2]
 185 009a 043B     		subs	r3, r3, #4
 186 009c 134C     		ldr	r4, .L8+12
 187 009e 1B78     		ldrb	r3, [r3]	@ zero_extendqisi2
 188 00a0 1348     		ldr	r0, .L8+16
 189 00a2 1449     		ldr	r1, .L8+20
 190 00a4 144A     		ldr	r2, .L8+24
 191 00a6 154D     		ldr	r5, .L8+28
 192 00a8 DBB2     		uxtb	r3, r3
 193 00aa 2360     		str	r3, [r4]
 194 00ac 0378     		ldrb	r3, [r0]	@ zero_extendqisi2
 195 00ae 144C     		ldr	r4, .L8+32
 196 00b0 1448     		ldr	r0, .L8+36
 197 00b2 DBB2     		uxtb	r3, r3
 198 00b4 0B60     		str	r3, [r1]
 199 00b6 1388     		ldrh	r3, [r2]
 200 00b8 1349     		ldr	r1, .L8+40
 201 00ba 9BB2     		uxth	r3, r3
ARM GAS  C:\Users\PRESID~1\AppData\Local\Temp\ccFH53ge.s 			page 6


 202 00bc 2B60     		str	r3, [r5]
 203 00be 2368     		ldr	r3, [r4]
 204 00c0 0360     		str	r3, [r0]
 205 00c2 D2F80E30 		ldr	r3, [r2, #14]
 206 00c6 0B60     		str	r3, [r1]
 207 00c8 1232     		adds	r2, r2, #18
 208 00ca 104B     		ldr	r3, .L8+44
 209 00cc 1268     		ldr	r2, [r2]
 210 00ce 1A60     		str	r2, [r3]
 211 00d0 FFF7FEFF 		bl	LLF_EXCEPTION_TO_HANDLER_MODE
 212 00d4 0021     		movs	r1, #0
 213 00d6 0846     		mov	r0, r1
 214 00d8 BDE83840 		pop	{r3, r4, r5, lr}
 215              		.cfi_restore 14
 216              		.cfi_restore 5
 217              		.cfi_restore 4
 218              		.cfi_restore 3
 219              		.cfi_def_cfa_offset 0
 220 00dc FFF7FEBF 		b	OS_SHUTDOWN
 221              	.L9:
 222              		.align	2
 223              	.L8:
 224 00e0 00000000 		.word	LINK_REGISTER_HANDLER
 225 00e4 2CED00E0 		.word	-536810196
 226 00e8 00000000 		.word	VAR_HARDFAULT_STATUS_REG
 227 00ec 00000000 		.word	VAR_MEM_MANAG_FAULT_STATUS_REG
 228 00f0 29ED00E0 		.word	-536810199
 229 00f4 00000000 		.word	VAR_BUS_FAULT_STATUS_REG
 230 00f8 2AED00E0 		.word	-536810198
 231 00fc 00000000 		.word	VAR_USAGE_FAULT_STATUS_REG
 232 0100 34ED00E0 		.word	-536810188
 233 0104 00000000 		.word	VAR_MEM_FAULT_ADDR_REG
 234 0108 00000000 		.word	VAR_BUS_FAULT_ADDR_REG
 235 010c 00000000 		.word	VAR_AUX_FAULT_STATUS_REG
 236              		.cfi_endproc
 237              	.LFE11:
 239              		.align	1
 240              		.p2align 2,,3
 241              		.global	OS_EXCEPTION_MEM_MANAG_FAULT
 242              		.syntax unified
 243              		.thumb
 244              		.thumb_func
 245              		.fpu softvfp
 247              	OS_EXCEPTION_MEM_MANAG_FAULT:
 248              	.LFB13:
 249              		.cfi_startproc
 250              		@ args = 0, pretend = 0, frame = 0
 251              		@ frame_needed = 0, uses_anonymous_args = 0
 252 0110 38B5     		push	{r3, r4, r5, lr}
 253              		.cfi_def_cfa_offset 16
 254              		.cfi_offset 3, -16
 255              		.cfi_offset 4, -12
 256              		.cfi_offset 5, -8
 257              		.cfi_offset 14, -4
 258 0112 154B     		ldr	r3, .L12
 259              		.syntax unified
 260              	@ 32 "C:\Users\president\Desktop\sbx\input\src\os_base\os_exception.c" 1
ARM GAS  C:\Users\PRESID~1\AppData\Local\Temp\ccFH53ge.s 			page 7


 261 0114 1868C0F8 		LDR r0,[r3];                          STR r14,[r0];
 261      00E0
 262              	@ 0 "" 2
 263              		.thumb
 264              		.syntax unified
 265 011a 144B     		ldr	r3, .L12+4
 266 011c 144A     		ldr	r2, .L12+8
 267 011e 1968     		ldr	r1, [r3]
 268 0120 1160     		str	r1, [r2]
 269 0122 043B     		subs	r3, r3, #4
 270 0124 134C     		ldr	r4, .L12+12
 271 0126 1B78     		ldrb	r3, [r3]	@ zero_extendqisi2
 272 0128 1348     		ldr	r0, .L12+16
 273 012a 1449     		ldr	r1, .L12+20
 274 012c 144A     		ldr	r2, .L12+24
 275 012e 154D     		ldr	r5, .L12+28
 276 0130 DBB2     		uxtb	r3, r3
 277 0132 2360     		str	r3, [r4]
 278 0134 0378     		ldrb	r3, [r0]	@ zero_extendqisi2
 279 0136 144C     		ldr	r4, .L12+32
 280 0138 1448     		ldr	r0, .L12+36
 281 013a DBB2     		uxtb	r3, r3
 282 013c 0B60     		str	r3, [r1]
 283 013e 1388     		ldrh	r3, [r2]
 284 0140 1349     		ldr	r1, .L12+40
 285 0142 9BB2     		uxth	r3, r3
 286 0144 2B60     		str	r3, [r5]
 287 0146 2368     		ldr	r3, [r4]
 288 0148 0360     		str	r3, [r0]
 289 014a D2F80E30 		ldr	r3, [r2, #14]
 290 014e 0B60     		str	r3, [r1]
 291 0150 1232     		adds	r2, r2, #18
 292 0152 104B     		ldr	r3, .L12+44
 293 0154 1268     		ldr	r2, [r2]
 294 0156 1A60     		str	r2, [r3]
 295 0158 FFF7FEFF 		bl	LLF_EXCEPTION_TO_HANDLER_MODE
 296 015c 0021     		movs	r1, #0
 297 015e 0846     		mov	r0, r1
 298 0160 BDE83840 		pop	{r3, r4, r5, lr}
 299              		.cfi_restore 14
 300              		.cfi_restore 5
 301              		.cfi_restore 4
 302              		.cfi_restore 3
 303              		.cfi_def_cfa_offset 0
 304 0164 FFF7FEBF 		b	OS_SHUTDOWN
 305              	.L13:
 306              		.align	2
 307              	.L12:
 308 0168 00000000 		.word	LINK_REGISTER_HANDLER
 309 016c 2CED00E0 		.word	-536810196
 310 0170 00000000 		.word	VAR_HARDFAULT_STATUS_REG
 311 0174 00000000 		.word	VAR_MEM_MANAG_FAULT_STATUS_REG
 312 0178 29ED00E0 		.word	-536810199
 313 017c 00000000 		.word	VAR_BUS_FAULT_STATUS_REG
 314 0180 2AED00E0 		.word	-536810198
 315 0184 00000000 		.word	VAR_USAGE_FAULT_STATUS_REG
 316 0188 34ED00E0 		.word	-536810188
ARM GAS  C:\Users\PRESID~1\AppData\Local\Temp\ccFH53ge.s 			page 8


 317 018c 00000000 		.word	VAR_MEM_FAULT_ADDR_REG
 318 0190 00000000 		.word	VAR_BUS_FAULT_ADDR_REG
 319 0194 00000000 		.word	VAR_AUX_FAULT_STATUS_REG
 320              		.cfi_endproc
 321              	.LFE13:
 323              		.align	1
 324              		.p2align 2,,3
 325              		.global	OS_EXCEPTION_BUS_FAULT
 326              		.syntax unified
 327              		.thumb
 328              		.thumb_func
 329              		.fpu softvfp
 331              	OS_EXCEPTION_BUS_FAULT:
 332              	.LFB15:
 333              		.cfi_startproc
 334              		@ args = 0, pretend = 0, frame = 0
 335              		@ frame_needed = 0, uses_anonymous_args = 0
 336 0198 38B5     		push	{r3, r4, r5, lr}
 337              		.cfi_def_cfa_offset 16
 338              		.cfi_offset 3, -16
 339              		.cfi_offset 4, -12
 340              		.cfi_offset 5, -8
 341              		.cfi_offset 14, -4
 342 019a 154B     		ldr	r3, .L16
 343              		.syntax unified
 344              	@ 32 "C:\Users\president\Desktop\sbx\input\src\os_base\os_exception.c" 1
 345 019c 1868C0F8 		LDR r0,[r3];                          STR r14,[r0];
 345      00E0
 346              	@ 0 "" 2
 347              		.thumb
 348              		.syntax unified
 349 01a2 144B     		ldr	r3, .L16+4
 350 01a4 144A     		ldr	r2, .L16+8
 351 01a6 1968     		ldr	r1, [r3]
 352 01a8 1160     		str	r1, [r2]
 353 01aa 043B     		subs	r3, r3, #4
 354 01ac 134C     		ldr	r4, .L16+12
 355 01ae 1B78     		ldrb	r3, [r3]	@ zero_extendqisi2
 356 01b0 1348     		ldr	r0, .L16+16
 357 01b2 1449     		ldr	r1, .L16+20
 358 01b4 144A     		ldr	r2, .L16+24
 359 01b6 154D     		ldr	r5, .L16+28
 360 01b8 DBB2     		uxtb	r3, r3
 361 01ba 2360     		str	r3, [r4]
 362 01bc 0378     		ldrb	r3, [r0]	@ zero_extendqisi2
 363 01be 144C     		ldr	r4, .L16+32
 364 01c0 1448     		ldr	r0, .L16+36
 365 01c2 DBB2     		uxtb	r3, r3
 366 01c4 0B60     		str	r3, [r1]
 367 01c6 1388     		ldrh	r3, [r2]
 368 01c8 1349     		ldr	r1, .L16+40
 369 01ca 9BB2     		uxth	r3, r3
 370 01cc 2B60     		str	r3, [r5]
 371 01ce 2368     		ldr	r3, [r4]
 372 01d0 0360     		str	r3, [r0]
 373 01d2 D2F80E30 		ldr	r3, [r2, #14]
 374 01d6 0B60     		str	r3, [r1]
ARM GAS  C:\Users\PRESID~1\AppData\Local\Temp\ccFH53ge.s 			page 9


 375 01d8 1232     		adds	r2, r2, #18
 376 01da 104B     		ldr	r3, .L16+44
 377 01dc 1268     		ldr	r2, [r2]
 378 01de 1A60     		str	r2, [r3]
 379 01e0 FFF7FEFF 		bl	LLF_EXCEPTION_TO_HANDLER_MODE
 380 01e4 0021     		movs	r1, #0
 381 01e6 0846     		mov	r0, r1
 382 01e8 BDE83840 		pop	{r3, r4, r5, lr}
 383              		.cfi_restore 14
 384              		.cfi_restore 5
 385              		.cfi_restore 4
 386              		.cfi_restore 3
 387              		.cfi_def_cfa_offset 0
 388 01ec FFF7FEBF 		b	OS_SHUTDOWN
 389              	.L17:
 390              		.align	2
 391              	.L16:
 392 01f0 00000000 		.word	LINK_REGISTER_HANDLER
 393 01f4 2CED00E0 		.word	-536810196
 394 01f8 00000000 		.word	VAR_HARDFAULT_STATUS_REG
 395 01fc 00000000 		.word	VAR_MEM_MANAG_FAULT_STATUS_REG
 396 0200 29ED00E0 		.word	-536810199
 397 0204 00000000 		.word	VAR_BUS_FAULT_STATUS_REG
 398 0208 2AED00E0 		.word	-536810198
 399 020c 00000000 		.word	VAR_USAGE_FAULT_STATUS_REG
 400 0210 34ED00E0 		.word	-536810188
 401 0214 00000000 		.word	VAR_MEM_FAULT_ADDR_REG
 402 0218 00000000 		.word	VAR_BUS_FAULT_ADDR_REG
 403 021c 00000000 		.word	VAR_AUX_FAULT_STATUS_REG
 404              		.cfi_endproc
 405              	.LFE15:
 407              		.align	1
 408              		.p2align 2,,3
 409              		.global	OS_EXCEPTION_USAGE_FAULT
 410              		.syntax unified
 411              		.thumb
 412              		.thumb_func
 413              		.fpu softvfp
 415              	OS_EXCEPTION_USAGE_FAULT:
 416              	.LFB17:
 417              		.cfi_startproc
 418              		@ args = 0, pretend = 0, frame = 0
 419              		@ frame_needed = 0, uses_anonymous_args = 0
 420 0220 38B5     		push	{r3, r4, r5, lr}
 421              		.cfi_def_cfa_offset 16
 422              		.cfi_offset 3, -16
 423              		.cfi_offset 4, -12
 424              		.cfi_offset 5, -8
 425              		.cfi_offset 14, -4
 426 0222 154B     		ldr	r3, .L20
 427              		.syntax unified
 428              	@ 32 "C:\Users\president\Desktop\sbx\input\src\os_base\os_exception.c" 1
 429 0224 1868C0F8 		LDR r0,[r3];                          STR r14,[r0];
 429      00E0
 430              	@ 0 "" 2
 431              		.thumb
 432              		.syntax unified
ARM GAS  C:\Users\PRESID~1\AppData\Local\Temp\ccFH53ge.s 			page 10


 433 022a 144B     		ldr	r3, .L20+4
 434 022c 144A     		ldr	r2, .L20+8
 435 022e 1968     		ldr	r1, [r3]
 436 0230 1160     		str	r1, [r2]
 437 0232 043B     		subs	r3, r3, #4
 438 0234 134C     		ldr	r4, .L20+12
 439 0236 1B78     		ldrb	r3, [r3]	@ zero_extendqisi2
 440 0238 1348     		ldr	r0, .L20+16
 441 023a 1449     		ldr	r1, .L20+20
 442 023c 144A     		ldr	r2, .L20+24
 443 023e 154D     		ldr	r5, .L20+28
 444 0240 DBB2     		uxtb	r3, r3
 445 0242 2360     		str	r3, [r4]
 446 0244 0378     		ldrb	r3, [r0]	@ zero_extendqisi2
 447 0246 144C     		ldr	r4, .L20+32
 448 0248 1448     		ldr	r0, .L20+36
 449 024a DBB2     		uxtb	r3, r3
 450 024c 0B60     		str	r3, [r1]
 451 024e 1388     		ldrh	r3, [r2]
 452 0250 1349     		ldr	r1, .L20+40
 453 0252 9BB2     		uxth	r3, r3
 454 0254 2B60     		str	r3, [r5]
 455 0256 2368     		ldr	r3, [r4]
 456 0258 0360     		str	r3, [r0]
 457 025a D2F80E30 		ldr	r3, [r2, #14]
 458 025e 0B60     		str	r3, [r1]
 459 0260 1232     		adds	r2, r2, #18
 460 0262 104B     		ldr	r3, .L20+44
 461 0264 1268     		ldr	r2, [r2]
 462 0266 1A60     		str	r2, [r3]
 463 0268 FFF7FEFF 		bl	LLF_EXCEPTION_TO_HANDLER_MODE
 464 026c 0021     		movs	r1, #0
 465 026e 0846     		mov	r0, r1
 466 0270 BDE83840 		pop	{r3, r4, r5, lr}
 467              		.cfi_restore 14
 468              		.cfi_restore 5
 469              		.cfi_restore 4
 470              		.cfi_restore 3
 471              		.cfi_def_cfa_offset 0
 472 0274 FFF7FEBF 		b	OS_SHUTDOWN
 473              	.L21:
 474              		.align	2
 475              	.L20:
 476 0278 00000000 		.word	LINK_REGISTER_HANDLER
 477 027c 2CED00E0 		.word	-536810196
 478 0280 00000000 		.word	VAR_HARDFAULT_STATUS_REG
 479 0284 00000000 		.word	VAR_MEM_MANAG_FAULT_STATUS_REG
 480 0288 29ED00E0 		.word	-536810199
 481 028c 00000000 		.word	VAR_BUS_FAULT_STATUS_REG
 482 0290 2AED00E0 		.word	-536810198
 483 0294 00000000 		.word	VAR_USAGE_FAULT_STATUS_REG
 484 0298 34ED00E0 		.word	-536810188
 485 029c 00000000 		.word	VAR_MEM_FAULT_ADDR_REG
 486 02a0 00000000 		.word	VAR_BUS_FAULT_ADDR_REG
 487 02a4 00000000 		.word	VAR_AUX_FAULT_STATUS_REG
 488              		.cfi_endproc
 489              	.LFE17:
ARM GAS  C:\Users\PRESID~1\AppData\Local\Temp\ccFH53ge.s 			page 11


 491              		.align	1
 492              		.p2align 2,,3
 493              		.global	OS_EXCEPTION_DEBUG
 494              		.syntax unified
 495              		.thumb
 496              		.thumb_func
 497              		.fpu softvfp
 499              	OS_EXCEPTION_DEBUG:
 500              	.LFB6:
  46:C:\Users\president\Desktop\sbx\input\src\os_base\os_exception.c **** /* 0x0000000C OS_EXCEPTION_HARDFAULT */
  47:C:\Users\president\Desktop\sbx\input\src\os_base\os_exception.c **** void OS_EXCEPTION_HARDFAULT(void)
  48:C:\Users\president\Desktop\sbx\input\src\os_base\os_exception.c **** {
  49:C:\Users\president\Desktop\sbx\input\src\os_base\os_exception.c **** #if(CFG_PROCESSOR == MCU_CORTEX_M4)
  50:C:\Users\president\Desktop\sbx\input\src\os_base\os_exception.c ****    __asm__ __volatile__ ("LDR r0,%0;\
  51:C:\Users\president\Desktop\sbx\input\src\os_base\os_exception.c ****                           STR r14,[r0];"
  52:C:\Users\president\Desktop\sbx\input\src\os_base\os_exception.c ****                          :"=m"(LINK_REGISTER_HANDLER)
  53:C:\Users\president\Desktop\sbx\input\src\os_base\os_exception.c ****                          :
  54:C:\Users\president\Desktop\sbx\input\src\os_base\os_exception.c ****                          :"r0"
  55:C:\Users\president\Desktop\sbx\input\src\os_base\os_exception.c ****                         );
  56:C:\Users\president\Desktop\sbx\input\src\os_base\os_exception.c ****    os_exception_read_status_registers();
  57:C:\Users\president\Desktop\sbx\input\src\os_base\os_exception.c **** 
  58:C:\Users\president\Desktop\sbx\input\src\os_base\os_exception.c ****    /* run all exceptions in handler mode */
  59:C:\Users\president\Desktop\sbx\input\src\os_base\os_exception.c ****    LLF_EXCEPTION_TO_HANDLER_MODE();
  60:C:\Users\president\Desktop\sbx\input\src\os_base\os_exception.c **** 
  61:C:\Users\president\Desktop\sbx\input\src\os_base\os_exception.c ****    OS_SHUTDOWN(E_OS_RESET_HARDRESET,0u);
  62:C:\Users\president\Desktop\sbx\input\src\os_base\os_exception.c **** #endif
  63:C:\Users\president\Desktop\sbx\input\src\os_base\os_exception.c **** }
  64:C:\Users\president\Desktop\sbx\input\src\os_base\os_exception.c **** /* 0x00000010 OS_EXCEPTION_MEM_MANAG_FAULT */
  65:C:\Users\president\Desktop\sbx\input\src\os_base\os_exception.c **** void OS_EXCEPTION_MEM_MANAG_FAULT(void)
  66:C:\Users\president\Desktop\sbx\input\src\os_base\os_exception.c **** {
  67:C:\Users\president\Desktop\sbx\input\src\os_base\os_exception.c **** #if(CFG_PROCESSOR == MCU_CORTEX_M4)
  68:C:\Users\president\Desktop\sbx\input\src\os_base\os_exception.c ****    __asm__ __volatile__ ("LDR r0,%0;\
  69:C:\Users\president\Desktop\sbx\input\src\os_base\os_exception.c ****                           STR r14,[r0];"
  70:C:\Users\president\Desktop\sbx\input\src\os_base\os_exception.c ****                          :"=m"(LINK_REGISTER_HANDLER)
  71:C:\Users\president\Desktop\sbx\input\src\os_base\os_exception.c ****                          :
  72:C:\Users\president\Desktop\sbx\input\src\os_base\os_exception.c ****                          :"r0"
  73:C:\Users\president\Desktop\sbx\input\src\os_base\os_exception.c ****                         );
  74:C:\Users\president\Desktop\sbx\input\src\os_base\os_exception.c ****    os_exception_read_status_registers();
  75:C:\Users\president\Desktop\sbx\input\src\os_base\os_exception.c **** 
  76:C:\Users\president\Desktop\sbx\input\src\os_base\os_exception.c ****    /* run all exceptions in handler mode */
  77:C:\Users\president\Desktop\sbx\input\src\os_base\os_exception.c ****    LLF_EXCEPTION_TO_HANDLER_MODE();
  78:C:\Users\president\Desktop\sbx\input\src\os_base\os_exception.c **** 
  79:C:\Users\president\Desktop\sbx\input\src\os_base\os_exception.c ****    OS_SHUTDOWN(E_OS_RESET_HARDRESET,0u);
  80:C:\Users\president\Desktop\sbx\input\src\os_base\os_exception.c **** #endif
  81:C:\Users\president\Desktop\sbx\input\src\os_base\os_exception.c **** }
  82:C:\Users\president\Desktop\sbx\input\src\os_base\os_exception.c **** /* 0x00000014 OS_EXCEPTION_BUS_FAULT */
  83:C:\Users\president\Desktop\sbx\input\src\os_base\os_exception.c **** void OS_EXCEPTION_BUS_FAULT(void)
  84:C:\Users\president\Desktop\sbx\input\src\os_base\os_exception.c **** {
  85:C:\Users\president\Desktop\sbx\input\src\os_base\os_exception.c **** #if(CFG_PROCESSOR == MCU_CORTEX_M4)
  86:C:\Users\president\Desktop\sbx\input\src\os_base\os_exception.c ****    __asm__ __volatile__ ("LDR r0,%0;\
  87:C:\Users\president\Desktop\sbx\input\src\os_base\os_exception.c ****                           STR r14,[r0];"
  88:C:\Users\president\Desktop\sbx\input\src\os_base\os_exception.c ****                          :"=m"(LINK_REGISTER_HANDLER)
  89:C:\Users\president\Desktop\sbx\input\src\os_base\os_exception.c ****                          :
  90:C:\Users\president\Desktop\sbx\input\src\os_base\os_exception.c ****                          :"r0"
  91:C:\Users\president\Desktop\sbx\input\src\os_base\os_exception.c ****                         );
  92:C:\Users\president\Desktop\sbx\input\src\os_base\os_exception.c ****    os_exception_read_status_registers();
  93:C:\Users\president\Desktop\sbx\input\src\os_base\os_exception.c **** 
ARM GAS  C:\Users\PRESID~1\AppData\Local\Temp\ccFH53ge.s 			page 12


  94:C:\Users\president\Desktop\sbx\input\src\os_base\os_exception.c ****    /* run all exceptions in handler mode */
  95:C:\Users\president\Desktop\sbx\input\src\os_base\os_exception.c ****    LLF_EXCEPTION_TO_HANDLER_MODE();
  96:C:\Users\president\Desktop\sbx\input\src\os_base\os_exception.c **** 
  97:C:\Users\president\Desktop\sbx\input\src\os_base\os_exception.c ****    OS_SHUTDOWN(E_OS_RESET_HARDRESET,0u);
  98:C:\Users\president\Desktop\sbx\input\src\os_base\os_exception.c **** #endif
  99:C:\Users\president\Desktop\sbx\input\src\os_base\os_exception.c **** }
 100:C:\Users\president\Desktop\sbx\input\src\os_base\os_exception.c **** /* 0x00000018 OS_EXCEPTION_BUS_FAULT */
 101:C:\Users\president\Desktop\sbx\input\src\os_base\os_exception.c **** void OS_EXCEPTION_USAGE_FAULT(void)
 102:C:\Users\president\Desktop\sbx\input\src\os_base\os_exception.c **** {
 103:C:\Users\president\Desktop\sbx\input\src\os_base\os_exception.c **** #if(CFG_PROCESSOR == MCU_CORTEX_M4)
 104:C:\Users\president\Desktop\sbx\input\src\os_base\os_exception.c ****    __asm__ __volatile__ ("LDR r0,%0;\
 105:C:\Users\president\Desktop\sbx\input\src\os_base\os_exception.c ****                           STR r14,[r0];"
 106:C:\Users\president\Desktop\sbx\input\src\os_base\os_exception.c ****                          :"=m"(LINK_REGISTER_HANDLER)
 107:C:\Users\president\Desktop\sbx\input\src\os_base\os_exception.c ****                          :
 108:C:\Users\president\Desktop\sbx\input\src\os_base\os_exception.c ****                          :"r0"
 109:C:\Users\president\Desktop\sbx\input\src\os_base\os_exception.c ****                         );
 110:C:\Users\president\Desktop\sbx\input\src\os_base\os_exception.c ****    os_exception_read_status_registers();
 111:C:\Users\president\Desktop\sbx\input\src\os_base\os_exception.c **** 
 112:C:\Users\president\Desktop\sbx\input\src\os_base\os_exception.c ****    /* run all exceptions in handler mode */
 113:C:\Users\president\Desktop\sbx\input\src\os_base\os_exception.c ****    LLF_EXCEPTION_TO_HANDLER_MODE();
 114:C:\Users\president\Desktop\sbx\input\src\os_base\os_exception.c **** 
 115:C:\Users\president\Desktop\sbx\input\src\os_base\os_exception.c ****    OS_SHUTDOWN(E_OS_RESET_HARDRESET,0u);
 116:C:\Users\president\Desktop\sbx\input\src\os_base\os_exception.c **** #endif
 117:C:\Users\president\Desktop\sbx\input\src\os_base\os_exception.c **** }
 118:C:\Users\president\Desktop\sbx\input\src\os_base\os_exception.c **** /* 0x0000001C reserved */
 119:C:\Users\president\Desktop\sbx\input\src\os_base\os_exception.c **** /* 0x00000020 reserved */
 120:C:\Users\president\Desktop\sbx\input\src\os_base\os_exception.c **** /* 0x00000024 reserved */
 121:C:\Users\president\Desktop\sbx\input\src\os_base\os_exception.c **** /* 0x00000028 reserved */
 122:C:\Users\president\Desktop\sbx\input\src\os_base\os_exception.c **** /* 0x0000002C OS_EXCEPTION_SVC -> implemented in lld_global */
 123:C:\Users\president\Desktop\sbx\input\src\os_base\os_exception.c **** /* 0x00000030 OS_EXCEPTION_DEBUG */
 124:C:\Users\president\Desktop\sbx\input\src\os_base\os_exception.c **** void OS_EXCEPTION_DEBUG(void)
 125:C:\Users\president\Desktop\sbx\input\src\os_base\os_exception.c **** {
 501              		.loc 1 125 1 is_stmt 1 view -0
 502              		.cfi_startproc
 503              		@ args = 0, pretend = 0, frame = 0
 504              		@ frame_needed = 0, uses_anonymous_args = 0
 126:C:\Users\president\Desktop\sbx\input\src\os_base\os_exception.c **** #if(CFG_PROCESSOR == MCU_CORTEX_M4)
 127:C:\Users\president\Desktop\sbx\input\src\os_base\os_exception.c ****    os_exception_read_status_registers();
 505              		.loc 1 127 4 view .LVU48
 506              	.LBB20:
 507              	.LBI20:
  15:C:\Users\president\Desktop\sbx\input\src\os_base\os_exception.c **** {
 508              		.loc 1 15 23 view .LVU49
 509              	.LBB21:
  17:C:\Users\president\Desktop\sbx\input\src\os_base\os_exception.c ****    VAR_MEM_MANAG_FAULT_STATUS_REG     = *MEM_MANAG_FAULT_STATUS_REG;
 510              		.loc 1 17 4 view .LVU50
 511              	.LBE21:
 512              	.LBE20:
 125:C:\Users\president\Desktop\sbx\input\src\os_base\os_exception.c **** #if(CFG_PROCESSOR == MCU_CORTEX_M4)
 513              		.loc 1 125 1 is_stmt 0 view .LVU51
 514 02a8 38B5     		push	{r3, r4, r5, lr}
 515              		.cfi_def_cfa_offset 16
 516              		.cfi_offset 3, -16
 517              		.cfi_offset 4, -12
 518              		.cfi_offset 5, -8
 519              		.cfi_offset 14, -4
 520              	.LBB23:
ARM GAS  C:\Users\PRESID~1\AppData\Local\Temp\ccFH53ge.s 			page 13


 521              	.LBB22:
  17:C:\Users\president\Desktop\sbx\input\src\os_base\os_exception.c ****    VAR_MEM_MANAG_FAULT_STATUS_REG     = *MEM_MANAG_FAULT_STATUS_REG;
 522              		.loc 1 17 31 view .LVU52
 523 02aa 134B     		ldr	r3, .L24
  17:C:\Users\president\Desktop\sbx\input\src\os_base\os_exception.c ****    VAR_MEM_MANAG_FAULT_STATUS_REG     = *MEM_MANAG_FAULT_STATUS_REG;
 524              		.loc 1 17 29 view .LVU53
 525 02ac 134A     		ldr	r2, .L24+4
  17:C:\Users\president\Desktop\sbx\input\src\os_base\os_exception.c ****    VAR_MEM_MANAG_FAULT_STATUS_REG     = *MEM_MANAG_FAULT_STATUS_REG;
 526              		.loc 1 17 31 view .LVU54
 527 02ae 1968     		ldr	r1, [r3]
  17:C:\Users\president\Desktop\sbx\input\src\os_base\os_exception.c ****    VAR_MEM_MANAG_FAULT_STATUS_REG     = *MEM_MANAG_FAULT_STATUS_REG;
 528              		.loc 1 17 29 view .LVU55
 529 02b0 1160     		str	r1, [r2]
  18:C:\Users\president\Desktop\sbx\input\src\os_base\os_exception.c ****    VAR_BUS_FAULT_STATUS_REG   = *BUS_FAULT_STATUS_REG;
 530              		.loc 1 18 4 is_stmt 1 view .LVU56
  18:C:\Users\president\Desktop\sbx\input\src\os_base\os_exception.c ****    VAR_BUS_FAULT_STATUS_REG   = *BUS_FAULT_STATUS_REG;
 531              		.loc 1 18 41 is_stmt 0 view .LVU57
 532 02b2 043B     		subs	r3, r3, #4
  18:C:\Users\president\Desktop\sbx\input\src\os_base\os_exception.c ****    VAR_BUS_FAULT_STATUS_REG   = *BUS_FAULT_STATUS_REG;
 533              		.loc 1 18 39 view .LVU58
 534 02b4 124C     		ldr	r4, .L24+8
  18:C:\Users\president\Desktop\sbx\input\src\os_base\os_exception.c ****    VAR_BUS_FAULT_STATUS_REG   = *BUS_FAULT_STATUS_REG;
 535              		.loc 1 18 41 view .LVU59
 536 02b6 1B78     		ldrb	r3, [r3]	@ zero_extendqisi2
  19:C:\Users\president\Desktop\sbx\input\src\os_base\os_exception.c ****    VAR_USAGE_FAULT_STATUS_REG = *USAGE_FAULT_STATUS_REG;
 537              		.loc 1 19 33 view .LVU60
 538 02b8 1248     		ldr	r0, .L24+12
  19:C:\Users\president\Desktop\sbx\input\src\os_base\os_exception.c ****    VAR_USAGE_FAULT_STATUS_REG = *USAGE_FAULT_STATUS_REG;
 539              		.loc 1 19 31 view .LVU61
 540 02ba 1349     		ldr	r1, .L24+16
  20:C:\Users\president\Desktop\sbx\input\src\os_base\os_exception.c ****    VAR_MEM_FAULT_ADDR_REG   = *MEM_FAULT_ADDR_REG;
 541              		.loc 1 20 33 view .LVU62
 542 02bc 134A     		ldr	r2, .L24+20
  20:C:\Users\president\Desktop\sbx\input\src\os_base\os_exception.c ****    VAR_MEM_FAULT_ADDR_REG   = *MEM_FAULT_ADDR_REG;
 543              		.loc 1 20 31 view .LVU63
 544 02be 144D     		ldr	r5, .L24+24
  18:C:\Users\president\Desktop\sbx\input\src\os_base\os_exception.c ****    VAR_BUS_FAULT_STATUS_REG   = *BUS_FAULT_STATUS_REG;
 545              		.loc 1 18 41 view .LVU64
 546 02c0 DBB2     		uxtb	r3, r3
  18:C:\Users\president\Desktop\sbx\input\src\os_base\os_exception.c ****    VAR_BUS_FAULT_STATUS_REG   = *BUS_FAULT_STATUS_REG;
 547              		.loc 1 18 39 view .LVU65
 548 02c2 2360     		str	r3, [r4]
  19:C:\Users\president\Desktop\sbx\input\src\os_base\os_exception.c ****    VAR_USAGE_FAULT_STATUS_REG = *USAGE_FAULT_STATUS_REG;
 549              		.loc 1 19 4 is_stmt 1 view .LVU66
  19:C:\Users\president\Desktop\sbx\input\src\os_base\os_exception.c ****    VAR_USAGE_FAULT_STATUS_REG = *USAGE_FAULT_STATUS_REG;
 550              		.loc 1 19 33 is_stmt 0 view .LVU67
 551 02c4 0378     		ldrb	r3, [r0]	@ zero_extendqisi2
  21:C:\Users\president\Desktop\sbx\input\src\os_base\os_exception.c ****    VAR_BUS_FAULT_ADDR_REG   = *BUS_FAULT_ADDR_REG;
 552              		.loc 1 21 31 view .LVU68
 553 02c6 134C     		ldr	r4, .L24+28
  21:C:\Users\president\Desktop\sbx\input\src\os_base\os_exception.c ****    VAR_BUS_FAULT_ADDR_REG   = *BUS_FAULT_ADDR_REG;
 554              		.loc 1 21 29 view .LVU69
 555 02c8 1348     		ldr	r0, .L24+32
  19:C:\Users\president\Desktop\sbx\input\src\os_base\os_exception.c ****    VAR_USAGE_FAULT_STATUS_REG = *USAGE_FAULT_STATUS_REG;
 556              		.loc 1 19 33 view .LVU70
 557 02ca DBB2     		uxtb	r3, r3
  19:C:\Users\president\Desktop\sbx\input\src\os_base\os_exception.c ****    VAR_USAGE_FAULT_STATUS_REG = *USAGE_FAULT_STATUS_REG;
ARM GAS  C:\Users\PRESID~1\AppData\Local\Temp\ccFH53ge.s 			page 14


 558              		.loc 1 19 31 view .LVU71
 559 02cc 0B60     		str	r3, [r1]
  20:C:\Users\president\Desktop\sbx\input\src\os_base\os_exception.c ****    VAR_MEM_FAULT_ADDR_REG   = *MEM_FAULT_ADDR_REG;
 560              		.loc 1 20 4 is_stmt 1 view .LVU72
  20:C:\Users\president\Desktop\sbx\input\src\os_base\os_exception.c ****    VAR_MEM_FAULT_ADDR_REG   = *MEM_FAULT_ADDR_REG;
 561              		.loc 1 20 33 is_stmt 0 view .LVU73
 562 02ce 1388     		ldrh	r3, [r2]
  22:C:\Users\president\Desktop\sbx\input\src\os_base\os_exception.c ****    VAR_AUX_FAULT_STATUS_REG = *AUX_FAULT_STATUS_REG;
 563              		.loc 1 22 29 view .LVU74
 564 02d0 1249     		ldr	r1, .L24+36
  20:C:\Users\president\Desktop\sbx\input\src\os_base\os_exception.c ****    VAR_MEM_FAULT_ADDR_REG   = *MEM_FAULT_ADDR_REG;
 565              		.loc 1 20 33 view .LVU75
 566 02d2 9BB2     		uxth	r3, r3
  20:C:\Users\president\Desktop\sbx\input\src\os_base\os_exception.c ****    VAR_MEM_FAULT_ADDR_REG   = *MEM_FAULT_ADDR_REG;
 567              		.loc 1 20 31 view .LVU76
 568 02d4 2B60     		str	r3, [r5]
  21:C:\Users\president\Desktop\sbx\input\src\os_base\os_exception.c ****    VAR_BUS_FAULT_ADDR_REG   = *BUS_FAULT_ADDR_REG;
 569              		.loc 1 21 4 is_stmt 1 view .LVU77
  21:C:\Users\president\Desktop\sbx\input\src\os_base\os_exception.c ****    VAR_BUS_FAULT_ADDR_REG   = *BUS_FAULT_ADDR_REG;
 570              		.loc 1 21 31 is_stmt 0 view .LVU78
 571 02d6 2368     		ldr	r3, [r4]
  21:C:\Users\president\Desktop\sbx\input\src\os_base\os_exception.c ****    VAR_BUS_FAULT_ADDR_REG   = *BUS_FAULT_ADDR_REG;
 572              		.loc 1 21 29 view .LVU79
 573 02d8 0360     		str	r3, [r0]
  22:C:\Users\president\Desktop\sbx\input\src\os_base\os_exception.c ****    VAR_AUX_FAULT_STATUS_REG = *AUX_FAULT_STATUS_REG;
 574              		.loc 1 22 4 is_stmt 1 view .LVU80
  22:C:\Users\president\Desktop\sbx\input\src\os_base\os_exception.c ****    VAR_AUX_FAULT_STATUS_REG = *AUX_FAULT_STATUS_REG;
 575              		.loc 1 22 31 is_stmt 0 view .LVU81
 576 02da D2F80E30 		ldr	r3, [r2, #14]
  22:C:\Users\president\Desktop\sbx\input\src\os_base\os_exception.c ****    VAR_AUX_FAULT_STATUS_REG = *AUX_FAULT_STATUS_REG;
 577              		.loc 1 22 29 view .LVU82
 578 02de 0B60     		str	r3, [r1]
  23:C:\Users\president\Desktop\sbx\input\src\os_base\os_exception.c **** }
 579              		.loc 1 23 4 is_stmt 1 view .LVU83
  23:C:\Users\president\Desktop\sbx\input\src\os_base\os_exception.c **** }
 580              		.loc 1 23 31 is_stmt 0 view .LVU84
 581 02e0 1232     		adds	r2, r2, #18
  23:C:\Users\president\Desktop\sbx\input\src\os_base\os_exception.c **** }
 582              		.loc 1 23 29 view .LVU85
 583 02e2 0F4B     		ldr	r3, .L24+40
  23:C:\Users\president\Desktop\sbx\input\src\os_base\os_exception.c **** }
 584              		.loc 1 23 31 view .LVU86
 585 02e4 1268     		ldr	r2, [r2]
  23:C:\Users\president\Desktop\sbx\input\src\os_base\os_exception.c **** }
 586              		.loc 1 23 29 view .LVU87
 587 02e6 1A60     		str	r2, [r3]
 588              	.LBE22:
 589              	.LBE23:
 128:C:\Users\president\Desktop\sbx\input\src\os_base\os_exception.c **** 
 129:C:\Users\president\Desktop\sbx\input\src\os_base\os_exception.c ****    /* run all exceptions in handler mode */
 130:C:\Users\president\Desktop\sbx\input\src\os_base\os_exception.c ****    LLF_EXCEPTION_TO_HANDLER_MODE();
 590              		.loc 1 130 4 is_stmt 1 view .LVU88
 591 02e8 FFF7FEFF 		bl	LLF_EXCEPTION_TO_HANDLER_MODE
 592              	.LVL2:
 131:C:\Users\president\Desktop\sbx\input\src\os_base\os_exception.c **** 
 132:C:\Users\president\Desktop\sbx\input\src\os_base\os_exception.c ****    OS_SHUTDOWN(E_OS_RESET_HARDRESET,0u);
 593              		.loc 1 132 4 view .LVU89
ARM GAS  C:\Users\PRESID~1\AppData\Local\Temp\ccFH53ge.s 			page 15


 594 02ec 0021     		movs	r1, #0
 595 02ee 0846     		mov	r0, r1
 133:C:\Users\president\Desktop\sbx\input\src\os_base\os_exception.c **** #endif
 134:C:\Users\president\Desktop\sbx\input\src\os_base\os_exception.c **** }
 596              		.loc 1 134 1 is_stmt 0 view .LVU90
 597 02f0 BDE83840 		pop	{r3, r4, r5, lr}
 598              		.cfi_restore 14
 599              		.cfi_restore 5
 600              		.cfi_restore 4
 601              		.cfi_restore 3
 602              		.cfi_def_cfa_offset 0
 132:C:\Users\president\Desktop\sbx\input\src\os_base\os_exception.c **** #endif
 603              		.loc 1 132 4 view .LVU91
 604 02f4 FFF7FEBF 		b	OS_SHUTDOWN
 605              	.LVL3:
 606              	.L25:
 607              		.align	2
 608              	.L24:
 609 02f8 2CED00E0 		.word	-536810196
 610 02fc 00000000 		.word	VAR_HARDFAULT_STATUS_REG
 611 0300 00000000 		.word	VAR_MEM_MANAG_FAULT_STATUS_REG
 612 0304 29ED00E0 		.word	-536810199
 613 0308 00000000 		.word	VAR_BUS_FAULT_STATUS_REG
 614 030c 2AED00E0 		.word	-536810198
 615 0310 00000000 		.word	VAR_USAGE_FAULT_STATUS_REG
 616 0314 34ED00E0 		.word	-536810188
 617 0318 00000000 		.word	VAR_MEM_FAULT_ADDR_REG
 618 031c 00000000 		.word	VAR_BUS_FAULT_ADDR_REG
 619 0320 00000000 		.word	VAR_AUX_FAULT_STATUS_REG
 620              		.cfi_endproc
 621              	.LFE6:
 623              		.align	1
 624              		.p2align 2,,3
 625              		.global	OS_EXCEPTION_PEND_SV
 626              		.syntax unified
 627              		.thumb
 628              		.thumb_func
 629              		.fpu softvfp
 631              	OS_EXCEPTION_PEND_SV:
 632              	.LFB7:
 135:C:\Users\president\Desktop\sbx\input\src\os_base\os_exception.c **** /* 0x00000034 reserved */
 136:C:\Users\president\Desktop\sbx\input\src\os_base\os_exception.c **** /* 0x00000038 OS_EXCEPTION_PEND_SV */
 137:C:\Users\president\Desktop\sbx\input\src\os_base\os_exception.c **** void OS_EXCEPTION_PEND_SV(void)
 138:C:\Users\president\Desktop\sbx\input\src\os_base\os_exception.c **** {
 633              		.loc 1 138 1 is_stmt 1 view -0
 634              		.cfi_startproc
 635              		@ args = 0, pretend = 0, frame = 0
 636              		@ frame_needed = 0, uses_anonymous_args = 0
 139:C:\Users\president\Desktop\sbx\input\src\os_base\os_exception.c **** #if(CFG_PROCESSOR == MCU_CORTEX_M4)
 140:C:\Users\president\Desktop\sbx\input\src\os_base\os_exception.c ****    /* run all exceptions in handler mode */
 141:C:\Users\president\Desktop\sbx\input\src\os_base\os_exception.c ****    LLF_EXCEPTION_TO_HANDLER_MODE();
 637              		.loc 1 141 4 view .LVU93
 138:C:\Users\president\Desktop\sbx\input\src\os_base\os_exception.c **** #if(CFG_PROCESSOR == MCU_CORTEX_M4)
 638              		.loc 1 138 1 is_stmt 0 view .LVU94
 639 0324 08B5     		push	{r3, lr}
 640              		.cfi_def_cfa_offset 8
 641              		.cfi_offset 3, -8
ARM GAS  C:\Users\PRESID~1\AppData\Local\Temp\ccFH53ge.s 			page 16


 642              		.cfi_offset 14, -4
 643              		.loc 1 141 4 view .LVU95
 644 0326 FFF7FEFF 		bl	LLF_EXCEPTION_TO_HANDLER_MODE
 645              	.LVL4:
 142:C:\Users\president\Desktop\sbx\input\src\os_base\os_exception.c **** 
 143:C:\Users\president\Desktop\sbx\input\src\os_base\os_exception.c ****    OS_SHUTDOWN(E_OS_RESET_HARDRESET,0u);
 646              		.loc 1 143 4 is_stmt 1 view .LVU96
 647 032a 0021     		movs	r1, #0
 648 032c 0846     		mov	r0, r1
 144:C:\Users\president\Desktop\sbx\input\src\os_base\os_exception.c **** #endif
 145:C:\Users\president\Desktop\sbx\input\src\os_base\os_exception.c **** }
 649              		.loc 1 145 1 is_stmt 0 view .LVU97
 650 032e BDE80840 		pop	{r3, lr}
 651              		.cfi_restore 14
 652              		.cfi_restore 3
 653              		.cfi_def_cfa_offset 0
 143:C:\Users\president\Desktop\sbx\input\src\os_base\os_exception.c **** #endif
 654              		.loc 1 143 4 view .LVU98
 655 0332 FFF7FEBF 		b	OS_SHUTDOWN
 656              	.LVL5:
 657              		.cfi_endproc
 658              	.LFE7:
 660              		.align	1
 661 0336 00BF     		.p2align 2,,3
 662              		.global	OS_EXCEPTION_SYSTICK
 663              		.syntax unified
 664              		.thumb
 665              		.thumb_func
 666              		.fpu softvfp
 668              	OS_EXCEPTION_SYSTICK:
 669              	.LFB8:
 146:C:\Users\president\Desktop\sbx\input\src\os_base\os_exception.c **** /* 0x0000003C OS_EXCEPTION_SYSTICK */
 147:C:\Users\president\Desktop\sbx\input\src\os_base\os_exception.c **** void OS_EXCEPTION_SYSTICK(void)
 148:C:\Users\president\Desktop\sbx\input\src\os_base\os_exception.c **** {
 670              		.loc 1 148 1 is_stmt 1 view -0
 671              		.cfi_startproc
 672              		@ args = 0, pretend = 0, frame = 32
 673              		@ frame_needed = 0, uses_anonymous_args = 0
 149:C:\Users\president\Desktop\sbx\input\src\os_base\os_exception.c **** #if(CFG_PROCESSOR == MCU_CORTEX_M4)
 150:C:\Users\president\Desktop\sbx\input\src\os_base\os_exception.c ****    task_t* task;
 674              		.loc 1 150 4 view .LVU100
 151:C:\Users\president\Desktop\sbx\input\src\os_base\os_exception.c ****    scheduling_t* scheduling_task_ptr;
 675              		.loc 1 151 4 view .LVU101
 152:C:\Users\president\Desktop\sbx\input\src\os_base\os_exception.c ****    big_int Diff;
 676              		.loc 1 152 4 view .LVU102
 153:C:\Users\president\Desktop\sbx\input\src\os_base\os_exception.c ****    timebig_t time;
 677              		.loc 1 153 4 view .LVU103
 154:C:\Users\president\Desktop\sbx\input\src\os_base\os_exception.c **** #endif 
 155:C:\Users\president\Desktop\sbx\input\src\os_base\os_exception.c **** 
 156:C:\Users\president\Desktop\sbx\input\src\os_base\os_exception.c ****    OS_UpdateCurrentTime();
 678              		.loc 1 156 4 view .LVU104
 148:C:\Users\president\Desktop\sbx\input\src\os_base\os_exception.c **** #if(CFG_PROCESSOR == MCU_CORTEX_M4)
 679              		.loc 1 148 1 is_stmt 0 view .LVU105
 680 0338 F0B5     		push	{r4, r5, r6, r7, lr}
 681              		.cfi_def_cfa_offset 20
 682              		.cfi_offset 4, -20
 683              		.cfi_offset 5, -16
ARM GAS  C:\Users\PRESID~1\AppData\Local\Temp\ccFH53ge.s 			page 17


 684              		.cfi_offset 6, -12
 685              		.cfi_offset 7, -8
 686              		.cfi_offset 14, -4
 687 033a 89B0     		sub	sp, sp, #36
 688              		.cfi_def_cfa_offset 56
 689              		.loc 1 156 4 view .LVU106
 690 033c FFF7FEFF 		bl	OS_UpdateCurrentTime
 691              	.LVL6:
 157:C:\Users\president\Desktop\sbx\input\src\os_base\os_exception.c **** 
 158:C:\Users\president\Desktop\sbx\input\src\os_base\os_exception.c **** #if(CFG_PROCESSOR == MCU_CORTEX_M4)
 159:C:\Users\president\Desktop\sbx\input\src\os_base\os_exception.c ****    /* run all exceptions in handler mode */
 160:C:\Users\president\Desktop\sbx\input\src\os_base\os_exception.c ****    LLF_EXCEPTION_TO_HANDLER_MODE();
 692              		.loc 1 160 4 is_stmt 1 view .LVU107
 161:C:\Users\president\Desktop\sbx\input\src\os_base\os_exception.c **** 
 162:C:\Users\president\Desktop\sbx\input\src\os_base\os_exception.c ****    DBG_RLD_VALUE   = 0xFFFFFFFFu;
 163:C:\Users\president\Desktop\sbx\input\src\os_base\os_exception.c ****    DBG_CURR_VAL    = 0xFFFFFFFFu;
 164:C:\Users\president\Desktop\sbx\input\src\os_base\os_exception.c ****    DBG_CTRL_VALUE  = 0xFFFFFFFFu;
 693              		.loc 1 164 20 is_stmt 0 view .LVU108
 694 0340 2E4C     		ldr	r4, .L34
 163:C:\Users\president\Desktop\sbx\input\src\os_base\os_exception.c ****    DBG_CTRL_VALUE  = 0xFFFFFFFFu;
 695              		.loc 1 163 20 view .LVU109
 696 0342 2F4E     		ldr	r6, .L34+4
 165:C:\Users\president\Desktop\sbx\input\src\os_base\os_exception.c ****    DBG_CALIB_VALUE = 0xFFFFFFFFu;
 166:C:\Users\president\Desktop\sbx\input\src\os_base\os_exception.c ****    /* the systick timer is stopped during debug... see CorteM4 manual */
 167:C:\Users\president\Desktop\sbx\input\src\os_base\os_exception.c **** 
 168:C:\Users\president\Desktop\sbx\input\src\os_base\os_exception.c ****    task = 0u;
 169:C:\Users\president\Desktop\sbx\input\src\os_base\os_exception.c ****    /* configure the TCMP */
 170:C:\Users\president\Desktop\sbx\input\src\os_base\os_exception.c ****    /*
 171:C:\Users\president\Desktop\sbx\input\src\os_base\os_exception.c ****    Dispatcher function for Core 0:
 172:C:\Users\president\Desktop\sbx\input\src\os_base\os_exception.c ****     Write Adresse into the config register (interrupts are requested by SWI/SVC???)
 173:C:\Users\president\Desktop\sbx\input\src\os_base\os_exception.c ****    */
 174:C:\Users\president\Desktop\sbx\input\src\os_base\os_exception.c **** 
 175:C:\Users\president\Desktop\sbx\input\src\os_base\os_exception.c ****    /*
 176:C:\Users\president\Desktop\sbx\input\src\os_base\os_exception.c ****    CLOCK = HCLK / 8
 177:C:\Users\president\Desktop\sbx\input\src\os_base\os_exception.c ****    vermutlich: CLOCK = 150Mhz / 8 = 18,75 Mhz
 178:C:\Users\president\Desktop\sbx\input\src\os_base\os_exception.c ****    */
 179:C:\Users\president\Desktop\sbx\input\src\os_base\os_exception.c ****    *SYSTICK_RLD_VAL_REG = (*SYSTICK_RLD_VAL_REG & 0xFF000000u)| (((uint32)MCU_CLOCK_IN_HZ / ((uint3
 697              		.loc 1 179 25 view .LVU110
 698 0344 2F4D     		ldr	r5, .L34+8
 180:C:\Users\president\Desktop\sbx\input\src\os_base\os_exception.c ****    *SYSTICK_CURRENT_VAL_REG = ((uint32)0x00000000u);
 699              		.loc 1 180 29 view .LVU111
 700 0346 304F     		ldr	r7, .L34+12
 160:C:\Users\president\Desktop\sbx\input\src\os_base\os_exception.c **** 
 701              		.loc 1 160 4 view .LVU112
 702 0348 FFF7FEFF 		bl	LLF_EXCEPTION_TO_HANDLER_MODE
 703              	.LVL7:
 162:C:\Users\president\Desktop\sbx\input\src\os_base\os_exception.c ****    DBG_CURR_VAL    = 0xFFFFFFFFu;
 704              		.loc 1 162 4 is_stmt 1 view .LVU113
 162:C:\Users\president\Desktop\sbx\input\src\os_base\os_exception.c ****    DBG_CURR_VAL    = 0xFFFFFFFFu;
 705              		.loc 1 162 20 is_stmt 0 view .LVU114
 706 034c DFF8C8C0 		ldr	ip, .L34+28
 165:C:\Users\president\Desktop\sbx\input\src\os_base\os_exception.c ****    /* the systick timer is stopped during debug... see CorteM4 manual */
 707              		.loc 1 165 20 view .LVU115
 708 0350 2E48     		ldr	r0, .L34+16
 181:C:\Users\president\Desktop\sbx\input\src\os_base\os_exception.c ****    *SYSTICK_CTRL_STAT_REG = *SYSTICK_CTRL_STAT_REG | SYSTICK_STAT_REG_TICKINT | SYSTICK_STAT_REG_EN
 709              		.loc 1 181 27 view .LVU116
 710 0352 2F4A     		ldr	r2, .L34+20
ARM GAS  C:\Users\PRESID~1\AppData\Local\Temp\ccFH53ge.s 			page 18


 182:C:\Users\president\Desktop\sbx\input\src\os_base\os_exception.c **** 
 183:C:\Users\president\Desktop\sbx\input\src\os_base\os_exception.c ****    DBG_RLD_VALUE  = *SYSTICK_RLD_VAL_REG;
 184:C:\Users\president\Desktop\sbx\input\src\os_base\os_exception.c ****    DBG_CURR_VAL   = *SYSTICK_CURRENT_VAL_REG;
 185:C:\Users\president\Desktop\sbx\input\src\os_base\os_exception.c ****    DBG_CTRL_VALUE = *SYSTICK_CTRL_STAT_REG;
 186:C:\Users\president\Desktop\sbx\input\src\os_base\os_exception.c ****    DBG_CALIB_VALUE = *SYSTICK_CALIB_VAL_REG;
 711              		.loc 1 186 22 view .LVU117
 712 0354 DFF8C4E0 		ldr	lr, .L34+32
 162:C:\Users\president\Desktop\sbx\input\src\os_base\os_exception.c ****    DBG_CURR_VAL    = 0xFFFFFFFFu;
 713              		.loc 1 162 20 view .LVU118
 714 0358 4FF0FF33 		mov	r3, #-1
 715 035c CCF80030 		str	r3, [ip]
 163:C:\Users\president\Desktop\sbx\input\src\os_base\os_exception.c ****    DBG_CTRL_VALUE  = 0xFFFFFFFFu;
 716              		.loc 1 163 4 is_stmt 1 view .LVU119
 163:C:\Users\president\Desktop\sbx\input\src\os_base\os_exception.c ****    DBG_CTRL_VALUE  = 0xFFFFFFFFu;
 717              		.loc 1 163 20 is_stmt 0 view .LVU120
 718 0360 3360     		str	r3, [r6]
 164:C:\Users\president\Desktop\sbx\input\src\os_base\os_exception.c ****    DBG_CALIB_VALUE = 0xFFFFFFFFu;
 719              		.loc 1 164 4 is_stmt 1 view .LVU121
 164:C:\Users\president\Desktop\sbx\input\src\os_base\os_exception.c ****    DBG_CALIB_VALUE = 0xFFFFFFFFu;
 720              		.loc 1 164 20 is_stmt 0 view .LVU122
 721 0362 2360     		str	r3, [r4]
 165:C:\Users\president\Desktop\sbx\input\src\os_base\os_exception.c ****    /* the systick timer is stopped during debug... see CorteM4 manual */
 722              		.loc 1 165 4 is_stmt 1 view .LVU123
 165:C:\Users\president\Desktop\sbx\input\src\os_base\os_exception.c ****    /* the systick timer is stopped during debug... see CorteM4 manual */
 723              		.loc 1 165 20 is_stmt 0 view .LVU124
 724 0364 0360     		str	r3, [r0]
 168:C:\Users\president\Desktop\sbx\input\src\os_base\os_exception.c ****    /* configure the TCMP */
 725              		.loc 1 168 4 is_stmt 1 view .LVU125
 726              	.LVL8:
 179:C:\Users\president\Desktop\sbx\input\src\os_base\os_exception.c ****    *SYSTICK_CURRENT_VAL_REG = ((uint32)0x00000000u);
 727              		.loc 1 179 4 view .LVU126
 179:C:\Users\president\Desktop\sbx\input\src\os_base\os_exception.c ****    *SYSTICK_CURRENT_VAL_REG = ((uint32)0x00000000u);
 728              		.loc 1 179 49 is_stmt 0 view .LVU127
 729 0366 2B68     		ldr	r3, [r5]
 181:C:\Users\president\Desktop\sbx\input\src\os_base\os_exception.c **** 
 730              		.loc 1 181 79 view .LVU128
 731 0368 1168     		ldr	r1, [r2]
 179:C:\Users\president\Desktop\sbx\input\src\os_base\os_exception.c ****    *SYSTICK_CURRENT_VAL_REG = ((uint32)0x00000000u);
 732              		.loc 1 179 49 view .LVU129
 733 036a 03F07F43 		and	r3, r3, #-16777216
 179:C:\Users\president\Desktop\sbx\input\src\os_base\os_exception.c ****    *SYSTICK_CURRENT_VAL_REG = ((uint32)0x00000000u);
 734              		.loc 1 179 63 view .LVU130
 735 036e 43F4CD13 		orr	r3, r3, #1679360
 736 0372 43F42073 		orr	r3, r3, #640
 179:C:\Users\president\Desktop\sbx\input\src\os_base\os_exception.c ****    *SYSTICK_CURRENT_VAL_REG = ((uint32)0x00000000u);
 737              		.loc 1 179 25 view .LVU131
 738 0376 2B60     		str	r3, [r5]
 180:C:\Users\president\Desktop\sbx\input\src\os_base\os_exception.c ****    *SYSTICK_CTRL_STAT_REG = *SYSTICK_CTRL_STAT_REG | SYSTICK_STAT_REG_TICKINT | SYSTICK_STAT_REG_EN
 739              		.loc 1 180 4 is_stmt 1 view .LVU132
 181:C:\Users\president\Desktop\sbx\input\src\os_base\os_exception.c **** 
 740              		.loc 1 181 79 is_stmt 0 view .LVU133
 741 0378 41F00301 		orr	r1, r1, #3
 180:C:\Users\president\Desktop\sbx\input\src\os_base\os_exception.c ****    *SYSTICK_CTRL_STAT_REG = *SYSTICK_CTRL_STAT_REG | SYSTICK_STAT_REG_TICKINT | SYSTICK_STAT_REG_EN
 742              		.loc 1 180 29 view .LVU134
 743 037c 0025     		movs	r5, #0
 181:C:\Users\president\Desktop\sbx\input\src\os_base\os_exception.c **** 
 744              		.loc 1 181 27 view .LVU135
ARM GAS  C:\Users\PRESID~1\AppData\Local\Temp\ccFH53ge.s 			page 19


 745 037e 1160     		str	r1, [r2]
 180:C:\Users\president\Desktop\sbx\input\src\os_base\os_exception.c ****    *SYSTICK_CTRL_STAT_REG = *SYSTICK_CTRL_STAT_REG | SYSTICK_STAT_REG_TICKINT | SYSTICK_STAT_REG_EN
 746              		.loc 1 180 29 view .LVU136
 747 0380 3D60     		str	r5, [r7]
 181:C:\Users\president\Desktop\sbx\input\src\os_base\os_exception.c **** 
 748              		.loc 1 181 4 is_stmt 1 view .LVU137
 183:C:\Users\president\Desktop\sbx\input\src\os_base\os_exception.c ****    DBG_CURR_VAL   = *SYSTICK_CURRENT_VAL_REG;
 749              		.loc 1 183 4 view .LVU138
 183:C:\Users\president\Desktop\sbx\input\src\os_base\os_exception.c ****    DBG_CURR_VAL   = *SYSTICK_CURRENT_VAL_REG;
 750              		.loc 1 183 19 is_stmt 0 view .LVU139
 751 0382 CCF80030 		str	r3, [ip]
 184:C:\Users\president\Desktop\sbx\input\src\os_base\os_exception.c ****    DBG_CTRL_VALUE = *SYSTICK_CTRL_STAT_REG;
 752              		.loc 1 184 4 is_stmt 1 view .LVU140
 184:C:\Users\president\Desktop\sbx\input\src\os_base\os_exception.c ****    DBG_CTRL_VALUE = *SYSTICK_CTRL_STAT_REG;
 753              		.loc 1 184 21 is_stmt 0 view .LVU141
 754 0386 3B68     		ldr	r3, [r7]
 184:C:\Users\president\Desktop\sbx\input\src\os_base\os_exception.c ****    DBG_CTRL_VALUE = *SYSTICK_CTRL_STAT_REG;
 755              		.loc 1 184 19 view .LVU142
 756 0388 3360     		str	r3, [r6]
 185:C:\Users\president\Desktop\sbx\input\src\os_base\os_exception.c ****    DBG_CALIB_VALUE = *SYSTICK_CALIB_VAL_REG;
 757              		.loc 1 185 4 is_stmt 1 view .LVU143
 185:C:\Users\president\Desktop\sbx\input\src\os_base\os_exception.c ****    DBG_CALIB_VALUE = *SYSTICK_CALIB_VAL_REG;
 758              		.loc 1 185 21 is_stmt 0 view .LVU144
 759 038a 1368     		ldr	r3, [r2]
 185:C:\Users\president\Desktop\sbx\input\src\os_base\os_exception.c ****    DBG_CALIB_VALUE = *SYSTICK_CALIB_VAL_REG;
 760              		.loc 1 185 19 view .LVU145
 761 038c 2360     		str	r3, [r4]
 762              		.loc 1 186 4 is_stmt 1 view .LVU146
 763              		.loc 1 186 22 is_stmt 0 view .LVU147
 764 038e DEF80030 		ldr	r3, [lr]
 765              		.loc 1 186 20 view .LVU148
 766 0392 0360     		str	r3, [r0]
 187:C:\Users\president\Desktop\sbx\input\src\os_base\os_exception.c ****    /*
 188:C:\Users\president\Desktop\sbx\input\src\os_base\os_exception.c ****    4.4.1. SysTick Control and Status Register
 189:C:\Users\president\Desktop\sbx\input\src\os_base\os_exception.c **** 
 190:C:\Users\president\Desktop\sbx\input\src\os_base\os_exception.c ****    The SysTick SYST_CSR register enables the SysTick features. The register resets to 0x00000000, o
 191:C:\Users\president\Desktop\sbx\input\src\os_base\os_exception.c **** 
 192:C:\Users\president\Desktop\sbx\input\src\os_base\os_exception.c ****    Table 4.33. SysTick SYST_CSR register bit assignments
 193:C:\Users\president\Desktop\sbx\input\src\os_base\os_exception.c ****    Bits	Name	Function
 194:C:\Users\president\Desktop\sbx\input\src\os_base\os_exception.c ****    [31:17]	-	Reserved.
 195:C:\Users\president\Desktop\sbx\input\src\os_base\os_exception.c ****    [16]	COUNTFLAG
 196:C:\Users\president\Desktop\sbx\input\src\os_base\os_exception.c **** 
 197:C:\Users\president\Desktop\sbx\input\src\os_base\os_exception.c ****    Returns 1 if timer counted to 0 since last time this was read.
 198:C:\Users\president\Desktop\sbx\input\src\os_base\os_exception.c ****    [15:3]	-	Reserved.
 199:C:\Users\president\Desktop\sbx\input\src\os_base\os_exception.c ****    [2]	CLKSOURCE
 200:C:\Users\president\Desktop\sbx\input\src\os_base\os_exception.c **** 
 201:C:\Users\president\Desktop\sbx\input\src\os_base\os_exception.c ****    Indicates the clock source:
 202:C:\Users\president\Desktop\sbx\input\src\os_base\os_exception.c **** 
 203:C:\Users\president\Desktop\sbx\input\src\os_base\os_exception.c ****    0 = external clock
 204:C:\Users\president\Desktop\sbx\input\src\os_base\os_exception.c **** 
 205:C:\Users\president\Desktop\sbx\input\src\os_base\os_exception.c ****    1 = processor clock.
 206:C:\Users\president\Desktop\sbx\input\src\os_base\os_exception.c ****    [1]	TICKINT
 207:C:\Users\president\Desktop\sbx\input\src\os_base\os_exception.c **** 
 208:C:\Users\president\Desktop\sbx\input\src\os_base\os_exception.c ****    Enables SysTick exception request:
 209:C:\Users\president\Desktop\sbx\input\src\os_base\os_exception.c **** 
 210:C:\Users\president\Desktop\sbx\input\src\os_base\os_exception.c ****    0 = counting down to zero does not assert the SysTick exception request
 211:C:\Users\president\Desktop\sbx\input\src\os_base\os_exception.c **** 
ARM GAS  C:\Users\PRESID~1\AppData\Local\Temp\ccFH53ge.s 			page 20


 212:C:\Users\president\Desktop\sbx\input\src\os_base\os_exception.c ****    1 = counting down to zero asserts the SysTick exception request.
 213:C:\Users\president\Desktop\sbx\input\src\os_base\os_exception.c **** 
 214:C:\Users\president\Desktop\sbx\input\src\os_base\os_exception.c ****    Software can use COUNTFLAG to determine if SysTick has ever counted to zero.
 215:C:\Users\president\Desktop\sbx\input\src\os_base\os_exception.c ****    [0u]	ENABLE
 216:C:\Users\president\Desktop\sbx\input\src\os_base\os_exception.c **** 
 217:C:\Users\president\Desktop\sbx\input\src\os_base\os_exception.c ****    Enables the counter:
 218:C:\Users\president\Desktop\sbx\input\src\os_base\os_exception.c **** 
 219:C:\Users\president\Desktop\sbx\input\src\os_base\os_exception.c ****    0 = counter disabled
 220:C:\Users\president\Desktop\sbx\input\src\os_base\os_exception.c **** 
 221:C:\Users\president\Desktop\sbx\input\src\os_base\os_exception.c ****    1 = counter enabled.
 222:C:\Users\president\Desktop\sbx\input\src\os_base\os_exception.c **** 
 223:C:\Users\president\Desktop\sbx\input\src\os_base\os_exception.c ****    When ENABLE is set to 1, the counter loads the RELOAD value from the SYST_RVR register and then 
 224:C:\Users\president\Desktop\sbx\input\src\os_base\os_exception.c ****    */
 225:C:\Users\president\Desktop\sbx\input\src\os_base\os_exception.c ****    /* disable running task */
 226:C:\Users\president\Desktop\sbx\input\src\os_base\os_exception.c ****    task = GET_RUNNING_TASK();
 767              		.loc 1 226 4 is_stmt 1 view .LVU149
 768              		.loc 1 226 11 is_stmt 0 view .LVU150
 769 0394 FFF7FEFF 		bl	GET_RUNNING_TASK
 770              	.LVL9:
 771 0398 0446     		mov	r4, r0
 772              	.LVL10:
 227:C:\Users\president\Desktop\sbx\input\src\os_base\os_exception.c ****    scheduling_task_ptr = GET_RUNNING_SCHEDULING_QUEUE_ELEMENT_PTR();
 773              		.loc 1 227 4 is_stmt 1 view .LVU151
 774              		.loc 1 227 26 is_stmt 0 view .LVU152
 775 039a FFF7FEFF 		bl	GET_RUNNING_SCHEDULING_QUEUE_ELEMENT_PTR
 776              	.LVL11:
 228:C:\Users\president\Desktop\sbx\input\src\os_base\os_exception.c ****    if(task != NULL)
 777              		.loc 1 228 4 is_stmt 1 view .LVU153
 778              		.loc 1 228 6 is_stmt 0 view .LVU154
 779 039e 44B3     		cbz	r4, .L29
 229:C:\Users\president\Desktop\sbx\input\src\os_base\os_exception.c ****    {
 230:C:\Users\president\Desktop\sbx\input\src\os_base\os_exception.c ****       OS_TASK_SAVE_TASK_ENVIRONMENT(task);
 780              		.loc 1 230 7 is_stmt 1 view .LVU155
 781 03a0 0746     		mov	r7, r0
 782 03a2 2046     		mov	r0, r4
 783              	.LVL12:
 784              		.loc 1 230 7 is_stmt 0 view .LVU156
 785 03a4 FFF7FEFF 		bl	OS_TASK_SAVE_TASK_ENVIRONMENT
 786              	.LVL13:
 231:C:\Users\president\Desktop\sbx\input\src\os_base\os_exception.c ****       OS_TASK_RESTORE_SYSTEM_STACK((uint8*)&OS_MAIN_STACK);
 787              		.loc 1 231 7 is_stmt 1 view .LVU157
 788 03a8 1A48     		ldr	r0, .L34+24
 789 03aa FFF7FEFF 		bl	OS_TASK_RESTORE_SYSTEM_STACK
 790              	.LVL14:
 232:C:\Users\president\Desktop\sbx\input\src\os_base\os_exception.c ****       task->active = FALSE;
 791              		.loc 1 232 7 view .LVU158
 792              		.loc 1 232 20 is_stmt 0 view .LVU159
 793 03ae 2378     		ldrb	r3, [r4]	@ zero_extendqisi2
 794 03b0 2646     		mov	r6, r4
 795 03b2 65F30003 		bfi	r3, r5, #0, #1
 796 03b6 06F85C3B 		strb	r3, [r6], #92
 233:C:\Users\president\Desktop\sbx\input\src\os_base\os_exception.c ****       /*task->exe_time += (OS_GET_CURRENT_TIME() - task->start_time);*/
 234:C:\Users\president\Desktop\sbx\input\src\os_base\os_exception.c ****       OS_GET_CURRENT_TIME(&time);
 797              		.loc 1 234 7 is_stmt 1 view .LVU160
 798 03ba 04A8     		add	r0, sp, #16
 799 03bc FFF7FEFF 		bl	OS_GET_CURRENT_TIME
 800              	.LVL15:
ARM GAS  C:\Users\PRESID~1\AppData\Local\Temp\ccFH53ge.s 			page 21


 235:C:\Users\president\Desktop\sbx\input\src\os_base\os_exception.c ****       INT_SUB(&Diff, &time, &task->start_time);
 801              		.loc 1 235 7 view .LVU161
 802 03c0 3246     		mov	r2, r6
 803 03c2 04A9     		add	r1, sp, #16
 804 03c4 6846     		mov	r0, sp
 805 03c6 FFF7FEFF 		bl	INT_SUB
 806              	.LVL16:
 236:C:\Users\president\Desktop\sbx\input\src\os_base\os_exception.c ****       INT_ADD(&task->exe_time, &task->exe_time, &Diff);
 807              		.loc 1 236 7 view .LVU162
 808              		.loc 1 236 15 is_stmt 0 view .LVU163
 809 03ca 04F14C01 		add	r1, r4, #76
 810              		.loc 1 236 7 view .LVU164
 811 03ce 0846     		mov	r0, r1
 812 03d0 6A46     		mov	r2, sp
 813 03d2 FFF7FEFF 		bl	INT_ADD
 814              	.LVL17:
 237:C:\Users\president\Desktop\sbx\input\src\os_base\os_exception.c ****       /*task->task_group->exe_time += (OS_GET_CURRENT_TIME() - task->start_time);*/
 238:C:\Users\president\Desktop\sbx\input\src\os_base\os_exception.c ****       INT_ADD(&task->task_group->exe_time, &task->task_group->exe_time, &Diff);
 815              		.loc 1 238 7 is_stmt 1 view .LVU165
 816              		.loc 1 238 15 is_stmt 0 view .LVU166
 817 03d6 D4F88010 		ldr	r1, [r4, #128]
 818              		.loc 1 238 7 view .LVU167
 819 03da 6A46     		mov	r2, sp
 820 03dc 0846     		mov	r0, r1
 821 03de FFF7FEFF 		bl	INT_ADD
 822              	.LVL18:
 239:C:\Users\president\Desktop\sbx\input\src\os_base\os_exception.c ****       SET_RUNNING_TASK(0u,0u);
 823              		.loc 1 239 7 is_stmt 1 view .LVU168
 824 03e2 2946     		mov	r1, r5
 825 03e4 2846     		mov	r0, r5
 826 03e6 FFF7FEFF 		bl	SET_RUNNING_TASK
 827              	.LVL19:
 240:C:\Users\president\Desktop\sbx\input\src\os_base\os_exception.c ****       OS_TERMINATE_TASK(task,scheduling_task_ptr);
 828              		.loc 1 240 7 view .LVU169
 829 03ea 3946     		mov	r1, r7
 830 03ec 2046     		mov	r0, r4
 831 03ee FFF7FEFF 		bl	OS_TERMINATE_TASK
 832              	.LVL20:
 833              	.L29:
 241:C:\Users\president\Desktop\sbx\input\src\os_base\os_exception.c ****    }
 242:C:\Users\president\Desktop\sbx\input\src\os_base\os_exception.c ****    /* call OS_STATE_HANDLER to determine what steps needs to be performed next */
 243:C:\Users\president\Desktop\sbx\input\src\os_base\os_exception.c ****    OS_STATE_HANDLER();
 834              		.loc 1 243 4 view .LVU170
 835 03f2 FFF7FEFF 		bl	OS_STATE_HANDLER
 836              	.LVL21:
 244:C:\Users\president\Desktop\sbx\input\src\os_base\os_exception.c **** #endif
 245:C:\Users\president\Desktop\sbx\input\src\os_base\os_exception.c **** }
 837              		.loc 1 245 1 is_stmt 0 view .LVU171
 838 03f6 09B0     		add	sp, sp, #36
 839              		.cfi_def_cfa_offset 20
 840              		@ sp needed
 841 03f8 F0BD     		pop	{r4, r5, r6, r7, pc}
 842              	.LVL22:
 843              	.L35:
 844              		.loc 1 245 1 view .LVU172
 845 03fa 00BF     		.align	2
 846              	.L34:
ARM GAS  C:\Users\PRESID~1\AppData\Local\Temp\ccFH53ge.s 			page 22


 847 03fc 00000000 		.word	DBG_CTRL_VALUE
 848 0400 00000000 		.word	DBG_CURR_VAL
 849 0404 14E000E0 		.word	-536813548
 850 0408 18E000E0 		.word	-536813544
 851 040c 00000000 		.word	DBG_CALIB_VALUE
 852 0410 10E000E0 		.word	-536813552
 853 0414 00000000 		.word	OS_MAIN_STACK
 854 0418 00000000 		.word	DBG_RLD_VALUE
 855 041c 1CE000E0 		.word	-536813540
 856              		.cfi_endproc
 857              	.LFE8:
 859              		.align	1
 860              		.p2align 2,,3
 861              		.global	OS_EXCEPTION_IRQ
 862              		.syntax unified
 863              		.thumb
 864              		.thumb_func
 865              		.fpu softvfp
 867              	OS_EXCEPTION_IRQ:
 868              	.LFB19:
 869              		.cfi_startproc
 870              		@ args = 0, pretend = 0, frame = 0
 871              		@ frame_needed = 0, uses_anonymous_args = 0
 872 0420 38B5     		push	{r3, r4, r5, lr}
 873              		.cfi_def_cfa_offset 16
 874              		.cfi_offset 3, -16
 875              		.cfi_offset 4, -12
 876              		.cfi_offset 5, -8
 877              		.cfi_offset 14, -4
 878 0422 154B     		ldr	r3, .L38
 879              		.syntax unified
 880              	@ 32 "C:\Users\president\Desktop\sbx\input\src\os_base\os_exception.c" 1
 881 0424 1868C0F8 		LDR r0,[r3];                          STR r14,[r0];
 881      00E0
 882              	@ 0 "" 2
 883              		.thumb
 884              		.syntax unified
 885 042a 144B     		ldr	r3, .L38+4
 886 042c 144A     		ldr	r2, .L38+8
 887 042e 1968     		ldr	r1, [r3]
 888 0430 1160     		str	r1, [r2]
 889 0432 043B     		subs	r3, r3, #4
 890 0434 134C     		ldr	r4, .L38+12
 891 0436 1B78     		ldrb	r3, [r3]	@ zero_extendqisi2
 892 0438 1348     		ldr	r0, .L38+16
 893 043a 1449     		ldr	r1, .L38+20
 894 043c 144A     		ldr	r2, .L38+24
 895 043e 154D     		ldr	r5, .L38+28
 896 0440 DBB2     		uxtb	r3, r3
 897 0442 2360     		str	r3, [r4]
 898 0444 0378     		ldrb	r3, [r0]	@ zero_extendqisi2
 899 0446 144C     		ldr	r4, .L38+32
 900 0448 1448     		ldr	r0, .L38+36
 901 044a DBB2     		uxtb	r3, r3
 902 044c 0B60     		str	r3, [r1]
 903 044e 1388     		ldrh	r3, [r2]
 904 0450 1349     		ldr	r1, .L38+40
ARM GAS  C:\Users\PRESID~1\AppData\Local\Temp\ccFH53ge.s 			page 23


 905 0452 9BB2     		uxth	r3, r3
 906 0454 2B60     		str	r3, [r5]
 907 0456 2368     		ldr	r3, [r4]
 908 0458 0360     		str	r3, [r0]
 909 045a D2F80E30 		ldr	r3, [r2, #14]
 910 045e 0B60     		str	r3, [r1]
 911 0460 1232     		adds	r2, r2, #18
 912 0462 104B     		ldr	r3, .L38+44
 913 0464 1268     		ldr	r2, [r2]
 914 0466 1A60     		str	r2, [r3]
 915 0468 FFF7FEFF 		bl	LLF_EXCEPTION_TO_HANDLER_MODE
 916 046c 0021     		movs	r1, #0
 917 046e 0846     		mov	r0, r1
 918 0470 BDE83840 		pop	{r3, r4, r5, lr}
 919              		.cfi_restore 14
 920              		.cfi_restore 5
 921              		.cfi_restore 4
 922              		.cfi_restore 3
 923              		.cfi_def_cfa_offset 0
 924 0474 FFF7FEBF 		b	OS_SHUTDOWN
 925              	.L39:
 926              		.align	2
 927              	.L38:
 928 0478 00000000 		.word	LINK_REGISTER_HANDLER
 929 047c 2CED00E0 		.word	-536810196
 930 0480 00000000 		.word	VAR_HARDFAULT_STATUS_REG
 931 0484 00000000 		.word	VAR_MEM_MANAG_FAULT_STATUS_REG
 932 0488 29ED00E0 		.word	-536810199
 933 048c 00000000 		.word	VAR_BUS_FAULT_STATUS_REG
 934 0490 2AED00E0 		.word	-536810198
 935 0494 00000000 		.word	VAR_USAGE_FAULT_STATUS_REG
 936 0498 34ED00E0 		.word	-536810188
 937 049c 00000000 		.word	VAR_MEM_FAULT_ADDR_REG
 938 04a0 00000000 		.word	VAR_BUS_FAULT_ADDR_REG
 939 04a4 00000000 		.word	VAR_AUX_FAULT_STATUS_REG
 940              		.cfi_endproc
 941              	.LFE19:
 943              	.Letext0:
 944              		.file 2 "c:\\users\\president\\desktop\\sbx\\input\\src\\os_base\\os_base_types.h"
 945              		.file 3 "c:\\users\\president\\desktop\\sbx\\input\\src\\os_base\\os_common.h"
 946              		.file 4 "c:\\users\\president\\desktop\\sbx\\input\\src\\os_drivers\\lld_core.h"
 947              		.file 5 "c:\\users\\president\\desktop\\sbx\\input\\src\\os_base\\os_task_common.h"
 948              		.file 6 "C:\\Users\\president\\Desktop\\sbx\\input\\src\\os_base\\os_main.h"
 949              		.file 7 "c:\\users\\president\\desktop\\sbx\\input\\src\\os_base\\os_ram.h"
 950              		.file 8 "c:\\users\\president\\desktop\\sbx\\input\\src\\os_base\\os_ram_stack.h"
 951              		.file 9 "C:\\Users\\president\\Desktop\\sbx\\input\\src\\os_base\\os_shutdown.h"
 952              		.file 10 "c:\\users\\president\\desktop\\sbx\\input\\src\\os_base\\os_task_queue.h"
 953              		.file 11 "c:\\users\\president\\desktop\\sbx\\input\\src\\os_base\\os_task_scheduler.h"
ARM GAS  C:\Users\PRESID~1\AppData\Local\Temp\ccFH53ge.s 			page 24


DEFINED SYMBOLS
                            *ABS*:00000000 os_exception.c
C:\Users\PRESID~1\AppData\Local\Temp\ccFH53ge.s:15     .text:00000000 $t
C:\Users\PRESID~1\AppData\Local\Temp\ccFH53ge.s:24     .text:00000000 OS_EXCEPTION_NMI
C:\Users\PRESID~1\AppData\Local\Temp\ccFH53ge.s:140    .text:00000058 $d
C:\Users\PRESID~1\AppData\Local\Temp\ccFH53ge.s:155    .text:00000088 $t
C:\Users\PRESID~1\AppData\Local\Temp\ccFH53ge.s:163    .text:00000088 OS_EXCEPTION_HARDFAULT
C:\Users\PRESID~1\AppData\Local\Temp\ccFH53ge.s:224    .text:000000e0 $d
C:\Users\PRESID~1\AppData\Local\Temp\ccFH53ge.s:239    .text:00000110 $t
C:\Users\PRESID~1\AppData\Local\Temp\ccFH53ge.s:247    .text:00000110 OS_EXCEPTION_MEM_MANAG_FAULT
C:\Users\PRESID~1\AppData\Local\Temp\ccFH53ge.s:308    .text:00000168 $d
C:\Users\PRESID~1\AppData\Local\Temp\ccFH53ge.s:323    .text:00000198 $t
C:\Users\PRESID~1\AppData\Local\Temp\ccFH53ge.s:331    .text:00000198 OS_EXCEPTION_BUS_FAULT
C:\Users\PRESID~1\AppData\Local\Temp\ccFH53ge.s:392    .text:000001f0 $d
C:\Users\PRESID~1\AppData\Local\Temp\ccFH53ge.s:407    .text:00000220 $t
C:\Users\PRESID~1\AppData\Local\Temp\ccFH53ge.s:415    .text:00000220 OS_EXCEPTION_USAGE_FAULT
C:\Users\PRESID~1\AppData\Local\Temp\ccFH53ge.s:476    .text:00000278 $d
C:\Users\PRESID~1\AppData\Local\Temp\ccFH53ge.s:491    .text:000002a8 $t
C:\Users\PRESID~1\AppData\Local\Temp\ccFH53ge.s:499    .text:000002a8 OS_EXCEPTION_DEBUG
C:\Users\PRESID~1\AppData\Local\Temp\ccFH53ge.s:609    .text:000002f8 $d
C:\Users\PRESID~1\AppData\Local\Temp\ccFH53ge.s:623    .text:00000324 $t
C:\Users\PRESID~1\AppData\Local\Temp\ccFH53ge.s:631    .text:00000324 OS_EXCEPTION_PEND_SV
C:\Users\PRESID~1\AppData\Local\Temp\ccFH53ge.s:668    .text:00000338 OS_EXCEPTION_SYSTICK
C:\Users\PRESID~1\AppData\Local\Temp\ccFH53ge.s:847    .text:000003fc $d
C:\Users\PRESID~1\AppData\Local\Temp\ccFH53ge.s:859    .text:00000420 $t
C:\Users\PRESID~1\AppData\Local\Temp\ccFH53ge.s:867    .text:00000420 OS_EXCEPTION_IRQ
C:\Users\PRESID~1\AppData\Local\Temp\ccFH53ge.s:928    .text:00000478 $d
                           .group:00000000 wm4.0.d0671ba4da42efab6145884e3f1c427a
                           .group:00000000 wm4.os_config.h.2.f6eac9d90a921b6f21f0ccaa4f0194d3
                           .group:00000000 wm4.os_common.h.2.552e5427eb955534308d342b866fde4e
                           .group:00000000 wm4.os_task_config.h.2.6666b50e8a518cf90a10402c04d546aa
                           .group:00000000 wm4.os_task_common.h.95.8d8bf4690dc541f58a865736bc15fd8a
                           .group:00000000 wm4.os_exception_isr_handler.h.2.5135980fa4e3951aa157c5167de1136d
                           .group:00000000 wm4.os_exception.h.2.021e31434e3fc31b542c5d8c3891b28a
                           .group:00000000 wm4.os_task_queue.h.2.322205b6bc95ffadb60992ab4fdadeef
                           .group:00000000 wm4.os_task_scheduler.h.2.15617e18d7400fa01024e50e30c98462

UNDEFINED SYMBOLS
LLF_EXCEPTION_TO_HANDLER_MODE
OS_SHUTDOWN
LINK_REGISTER_HANDLER
VAR_HARDFAULT_STATUS_REG
VAR_MEM_MANAG_FAULT_STATUS_REG
VAR_BUS_FAULT_STATUS_REG
VAR_USAGE_FAULT_STATUS_REG
VAR_MEM_FAULT_ADDR_REG
VAR_BUS_FAULT_ADDR_REG
VAR_AUX_FAULT_STATUS_REG
OS_UpdateCurrentTime
GET_RUNNING_TASK
GET_RUNNING_SCHEDULING_QUEUE_ELEMENT_PTR
OS_TASK_SAVE_TASK_ENVIRONMENT
OS_TASK_RESTORE_SYSTEM_STACK
OS_GET_CURRENT_TIME
INT_SUB
INT_ADD
SET_RUNNING_TASK
ARM GAS  C:\Users\PRESID~1\AppData\Local\Temp\ccFH53ge.s 			page 25


OS_TERMINATE_TASK
OS_STATE_HANDLER
DBG_CTRL_VALUE
DBG_CURR_VAL
DBG_CALIB_VALUE
OS_MAIN_STACK
DBG_RLD_VALUE
