ARM GAS  C:\Users\PRESID~1\AppData\Local\Temp\ccjGuJp6.s 			page 1


   1              		.syntax unified
   2              		.cpu cortex-m4
   3              		.fpu softvfp
   4              		.eabi_attribute 20, 1
   5              		.eabi_attribute 21, 1
   6              		.eabi_attribute 23, 3
   7              		.eabi_attribute 24, 1
   8              		.eabi_attribute 25, 1
   9              		.eabi_attribute 26, 1
  10              		.eabi_attribute 30, 6
  11              		.eabi_attribute 34, 1
  12              		.eabi_attribute 18, 4
  13              		.thumb
  14              		.file	"os_exception.c"
  15              		.text
  16              	.Ltext0:
  17              		.cfi_sections	.debug_frame
  18              		.align	2
  19              		.global	OS_Exception_HARDFAULT
  20              		.thumb
  21              		.thumb_func
  23              	OS_Exception_HARDFAULT:
  24              	.LFB0:
  25              		.file 1 "E:\\NeuOrga\\Programmieren\\c_cpp\\github_os\\input\\src\\os_base\\os_exception.c"
   1:E:\NeuOrga\Programmieren\c_cpp\github_os\input\src\os_base\os_exception.c **** #include "os_firstinc.h"
   2:E:\NeuOrga\Programmieren\c_cpp\github_os\input\src\os_base\os_exception.c **** #include "os_exception_isr_handler.h"
   3:E:\NeuOrga\Programmieren\c_cpp\github_os\input\src\os_base\os_exception.c **** #include "os_shutdown.h"
   4:E:\NeuOrga\Programmieren\c_cpp\github_os\input\src\os_base\os_exception.c **** #include "os_start_os.h"
   5:E:\NeuOrga\Programmieren\c_cpp\github_os\input\src\os_base\os_exception.c **** #include "os_ram.h"
   6:E:\NeuOrga\Programmieren\c_cpp\github_os\input\src\os_base\os_exception.c **** 
   7:E:\NeuOrga\Programmieren\c_cpp\github_os\input\src\os_base\os_exception.c **** /* the Interrupt table is set via the code linked to 0x00 and following ...   */
   8:E:\NeuOrga\Programmieren\c_cpp\github_os\input\src\os_base\os_exception.c **** /* interrupts are disabled during RESET exception and will be enabled by task system */
   9:E:\NeuOrga\Programmieren\c_cpp\github_os\input\src\os_base\os_exception.c **** void OS_Exception_HARDFAULT(void)
  10:E:\NeuOrga\Programmieren\c_cpp\github_os\input\src\os_base\os_exception.c **** {
  26              		.loc 1 10 0
  27              		.cfi_startproc
  28              		@ args = 0, pretend = 0, frame = 8
  29              		@ frame_needed = 1, uses_anonymous_args = 0
  30              		@ link register save eliminated.
  31 0000 80B4     		push	{r7}
  32              		.cfi_def_cfa_offset 4
  33              		.cfi_offset 7, -4
  34 0002 83B0     		sub	sp, sp, #12
  35              		.cfi_def_cfa_offset 16
  36 0004 00AF     		add	r7, sp, #0
  37              		.cfi_def_cfa_register 7
  11:E:\NeuOrga\Programmieren\c_cpp\github_os\input\src\os_base\os_exception.c ****    volatile uint32 ERROR_HARDFAULT = 0;
  38              		.loc 1 11 0
  39 0006 0023     		movs	r3, #0
  40 0008 7B60     		str	r3, [r7, #4]
  12:E:\NeuOrga\Programmieren\c_cpp\github_os\input\src\os_base\os_exception.c ****    ERROR_HARDFAULT = *((uint32*)0xE000ED2Cu);
  41              		.loc 1 12 0
  42 000a 024B     		ldr	r3, .L3
  43 000c 1B68     		ldr	r3, [r3]
  44 000e 7B60     		str	r3, [r7, #4]
  45              	.L2:
  13:E:\NeuOrga\Programmieren\c_cpp\github_os\input\src\os_base\os_exception.c ****    /*#error "Hardfault generate, use the hardfault exception status register for reason"*/
ARM GAS  C:\Users\PRESID~1\AppData\Local\Temp\ccjGuJp6.s 			page 2


  14:E:\NeuOrga\Programmieren\c_cpp\github_os\input\src\os_base\os_exception.c ****    while(1){}
  46              		.loc 1 14 0 discriminator 1
  47 0010 FEE7     		b	.L2
  48              	.L4:
  49 0012 00BF     		.align	2
  50              	.L3:
  51 0014 2CED00E0 		.word	-536810196
  52              		.cfi_endproc
  53              	.LFE0:
  55              		.align	2
  56              		.global	OS_Exception_NMI
  57              		.thumb
  58              		.thumb_func
  60              	OS_Exception_NMI:
  61              	.LFB1:
  15:E:\NeuOrga\Programmieren\c_cpp\github_os\input\src\os_base\os_exception.c **** }
  16:E:\NeuOrga\Programmieren\c_cpp\github_os\input\src\os_base\os_exception.c **** 
  17:E:\NeuOrga\Programmieren\c_cpp\github_os\input\src\os_base\os_exception.c **** 
  18:E:\NeuOrga\Programmieren\c_cpp\github_os\input\src\os_base\os_exception.c **** void OS_Exception_NMI(void)
  19:E:\NeuOrga\Programmieren\c_cpp\github_os\input\src\os_base\os_exception.c **** {
  62              		.loc 1 19 0
  63              		.cfi_startproc
  64              		@ args = 0, pretend = 0, frame = 0
  65              		@ frame_needed = 1, uses_anonymous_args = 0
  66              		@ link register save eliminated.
  67 0018 80B4     		push	{r7}
  68              		.cfi_def_cfa_offset 4
  69              		.cfi_offset 7, -4
  70 001a 00AF     		add	r7, sp, #0
  71              		.cfi_def_cfa_register 7
  72              	.L6:
  20:E:\NeuOrga\Programmieren\c_cpp\github_os\input\src\os_base\os_exception.c ****    while(1){}
  73              		.loc 1 20 0 discriminator 1
  74 001c FEE7     		b	.L6
  75              		.cfi_endproc
  76              	.LFE1:
  78 001e 00BF     		.align	2
  79              		.global	OS_Exception_SWI
  80              		.thumb
  81              		.thumb_func
  83              	OS_Exception_SWI:
  84              	.LFB2:
  21:E:\NeuOrga\Programmieren\c_cpp\github_os\input\src\os_base\os_exception.c ****    OS_SHUTDOWN(os_reset_hardreset);
  22:E:\NeuOrga\Programmieren\c_cpp\github_os\input\src\os_base\os_exception.c **** }
  23:E:\NeuOrga\Programmieren\c_cpp\github_os\input\src\os_base\os_exception.c **** void OS_Exception_SWI(void)
  24:E:\NeuOrga\Programmieren\c_cpp\github_os\input\src\os_base\os_exception.c **** {
  85              		.loc 1 24 0
  86              		.cfi_startproc
  87              		@ args = 0, pretend = 0, frame = 0
  88              		@ frame_needed = 1, uses_anonymous_args = 0
  89 0020 80B5     		push	{r7, lr}
  90              		.cfi_def_cfa_offset 8
  91              		.cfi_offset 7, -8
  92              		.cfi_offset 14, -4
  93 0022 00AF     		add	r7, sp, #0
  94              		.cfi_def_cfa_register 7
  25:E:\NeuOrga\Programmieren\c_cpp\github_os\input\src\os_base\os_exception.c ****    /* Mode: Supervisor:
ARM GAS  C:\Users\PRESID~1\AppData\Local\Temp\ccjGuJp6.s 			page 3


  26:E:\NeuOrga\Programmieren\c_cpp\github_os\input\src\os_base\os_exception.c ****      Exception SWI is entered, in case a user mode program executed the assembler code "SWI" (SoftW
  27:E:\NeuOrga\Programmieren\c_cpp\github_os\input\src\os_base\os_exception.c ****    OS_ISRHANDLERC0();
  95              		.loc 1 27 0
  96 0024 FFF7FEFF 		bl	OS_ISRHANDLERC0
  28:E:\NeuOrga\Programmieren\c_cpp\github_os\input\src\os_base\os_exception.c **** }
  97              		.loc 1 28 0
  98 0028 80BD     		pop	{r7, pc}
  99              		.cfi_endproc
 100              	.LFE2:
 102 002a 00BF     		.align	2
 103              		.global	OS_Exception_BUS_FAULT
 104              		.thumb
 105              		.thumb_func
 107              	OS_Exception_BUS_FAULT:
 108              	.LFB3:
  29:E:\NeuOrga\Programmieren\c_cpp\github_os\input\src\os_base\os_exception.c **** void OS_Exception_BUS_FAULT(void)
  30:E:\NeuOrga\Programmieren\c_cpp\github_os\input\src\os_base\os_exception.c **** {
 109              		.loc 1 30 0
 110              		.cfi_startproc
 111              		@ args = 0, pretend = 0, frame = 0
 112              		@ frame_needed = 1, uses_anonymous_args = 0
 113              		@ link register save eliminated.
 114 002c 80B4     		push	{r7}
 115              		.cfi_def_cfa_offset 4
 116              		.cfi_offset 7, -4
 117 002e 00AF     		add	r7, sp, #0
 118              		.cfi_def_cfa_register 7
 119              	.L9:
  31:E:\NeuOrga\Programmieren\c_cpp\github_os\input\src\os_base\os_exception.c ****    while(1){}
 120              		.loc 1 31 0 discriminator 1
 121 0030 FEE7     		b	.L9
 122              		.cfi_endproc
 123              	.LFE3:
 125 0032 00BF     		.align	2
 126              		.global	OS_Exception_DEBUG
 127              		.thumb
 128              		.thumb_func
 130              	OS_Exception_DEBUG:
 131              	.LFB4:
  32:E:\NeuOrga\Programmieren\c_cpp\github_os\input\src\os_base\os_exception.c ****    OS_SHUTDOWN(os_reset_hardreset);
  33:E:\NeuOrga\Programmieren\c_cpp\github_os\input\src\os_base\os_exception.c **** }
  34:E:\NeuOrga\Programmieren\c_cpp\github_os\input\src\os_base\os_exception.c **** 
  35:E:\NeuOrga\Programmieren\c_cpp\github_os\input\src\os_base\os_exception.c **** void OS_Exception_DEBUG(void)
  36:E:\NeuOrga\Programmieren\c_cpp\github_os\input\src\os_base\os_exception.c **** {
 132              		.loc 1 36 0
 133              		.cfi_startproc
 134              		@ args = 0, pretend = 0, frame = 0
 135              		@ frame_needed = 1, uses_anonymous_args = 0
 136              		@ link register save eliminated.
 137 0034 80B4     		push	{r7}
 138              		.cfi_def_cfa_offset 4
 139              		.cfi_offset 7, -4
 140 0036 00AF     		add	r7, sp, #0
 141              		.cfi_def_cfa_register 7
 142              	.L11:
  37:E:\NeuOrga\Programmieren\c_cpp\github_os\input\src\os_base\os_exception.c ****    while(1){}
 143              		.loc 1 37 0 discriminator 1
ARM GAS  C:\Users\PRESID~1\AppData\Local\Temp\ccjGuJp6.s 			page 4


 144 0038 FEE7     		b	.L11
 145              		.cfi_endproc
 146              	.LFE4:
 148 003a 00BF     		.align	2
 149              		.global	OS_Exception_MEM_MANAG_FAULT
 150              		.thumb
 151              		.thumb_func
 153              	OS_Exception_MEM_MANAG_FAULT:
 154              	.LFB5:
  38:E:\NeuOrga\Programmieren\c_cpp\github_os\input\src\os_base\os_exception.c ****    OS_SHUTDOWN(os_reset_hardreset);
  39:E:\NeuOrga\Programmieren\c_cpp\github_os\input\src\os_base\os_exception.c **** }
  40:E:\NeuOrga\Programmieren\c_cpp\github_os\input\src\os_base\os_exception.c **** 
  41:E:\NeuOrga\Programmieren\c_cpp\github_os\input\src\os_base\os_exception.c **** void OS_Exception_MEM_MANAG_FAULT(void)
  42:E:\NeuOrga\Programmieren\c_cpp\github_os\input\src\os_base\os_exception.c **** {
 155              		.loc 1 42 0
 156              		.cfi_startproc
 157              		@ args = 0, pretend = 0, frame = 0
 158              		@ frame_needed = 1, uses_anonymous_args = 0
 159              		@ link register save eliminated.
 160 003c 80B4     		push	{r7}
 161              		.cfi_def_cfa_offset 4
 162              		.cfi_offset 7, -4
 163 003e 00AF     		add	r7, sp, #0
 164              		.cfi_def_cfa_register 7
 165              	.L13:
  43:E:\NeuOrga\Programmieren\c_cpp\github_os\input\src\os_base\os_exception.c ****    while(1){}
 166              		.loc 1 43 0 discriminator 1
 167 0040 FEE7     		b	.L13
 168              		.cfi_endproc
 169              	.LFE5:
 171 0042 00BF     		.align	2
 172              		.global	OS_Exception_USAGE_FAULT
 173              		.thumb
 174              		.thumb_func
 176              	OS_Exception_USAGE_FAULT:
 177              	.LFB6:
  44:E:\NeuOrga\Programmieren\c_cpp\github_os\input\src\os_base\os_exception.c ****    OS_SHUTDOWN(os_reset_hardreset);
  45:E:\NeuOrga\Programmieren\c_cpp\github_os\input\src\os_base\os_exception.c **** }
  46:E:\NeuOrga\Programmieren\c_cpp\github_os\input\src\os_base\os_exception.c **** 
  47:E:\NeuOrga\Programmieren\c_cpp\github_os\input\src\os_base\os_exception.c **** void OS_Exception_USAGE_FAULT(void)
  48:E:\NeuOrga\Programmieren\c_cpp\github_os\input\src\os_base\os_exception.c **** {
 178              		.loc 1 48 0
 179              		.cfi_startproc
 180              		@ args = 0, pretend = 0, frame = 0
 181              		@ frame_needed = 1, uses_anonymous_args = 0
 182              		@ link register save eliminated.
 183 0044 80B4     		push	{r7}
 184              		.cfi_def_cfa_offset 4
 185              		.cfi_offset 7, -4
 186 0046 00AF     		add	r7, sp, #0
 187              		.cfi_def_cfa_register 7
 188              	.L15:
  49:E:\NeuOrga\Programmieren\c_cpp\github_os\input\src\os_base\os_exception.c ****    while(1){}
 189              		.loc 1 49 0 discriminator 1
 190 0048 FEE7     		b	.L15
 191              		.cfi_endproc
 192              	.LFE6:
ARM GAS  C:\Users\PRESID~1\AppData\Local\Temp\ccjGuJp6.s 			page 5


 194 004a 00BF     		.align	2
 195              		.global	OS_Exception_PendSV
 196              		.thumb
 197              		.thumb_func
 199              	OS_Exception_PendSV:
 200              	.LFB7:
  50:E:\NeuOrga\Programmieren\c_cpp\github_os\input\src\os_base\os_exception.c ****    OS_SHUTDOWN(os_reset_hardreset);
  51:E:\NeuOrga\Programmieren\c_cpp\github_os\input\src\os_base\os_exception.c **** }
  52:E:\NeuOrga\Programmieren\c_cpp\github_os\input\src\os_base\os_exception.c **** 
  53:E:\NeuOrga\Programmieren\c_cpp\github_os\input\src\os_base\os_exception.c **** void OS_Exception_PendSV(void)
  54:E:\NeuOrga\Programmieren\c_cpp\github_os\input\src\os_base\os_exception.c **** {
 201              		.loc 1 54 0
 202              		.cfi_startproc
 203              		@ args = 0, pretend = 0, frame = 0
 204              		@ frame_needed = 1, uses_anonymous_args = 0
 205              		@ link register save eliminated.
 206 004c 80B4     		push	{r7}
 207              		.cfi_def_cfa_offset 4
 208              		.cfi_offset 7, -4
 209 004e 00AF     		add	r7, sp, #0
 210              		.cfi_def_cfa_register 7
 211              	.L17:
  55:E:\NeuOrga\Programmieren\c_cpp\github_os\input\src\os_base\os_exception.c ****    while(1){}
 212              		.loc 1 55 0 discriminator 1
 213 0050 FEE7     		b	.L17
 214              		.cfi_endproc
 215              	.LFE7:
 217 0052 00BF     		.align	2
 218              		.global	OS_Exception_Systick
 219              		.thumb
 220              		.thumb_func
 222              	OS_Exception_Systick:
 223              	.LFB8:
  56:E:\NeuOrga\Programmieren\c_cpp\github_os\input\src\os_base\os_exception.c ****    OS_SHUTDOWN(os_reset_hardreset);
  57:E:\NeuOrga\Programmieren\c_cpp\github_os\input\src\os_base\os_exception.c **** }
  58:E:\NeuOrga\Programmieren\c_cpp\github_os\input\src\os_base\os_exception.c **** 
  59:E:\NeuOrga\Programmieren\c_cpp\github_os\input\src\os_base\os_exception.c **** void OS_Exception_Systick(void)
  60:E:\NeuOrga\Programmieren\c_cpp\github_os\input\src\os_base\os_exception.c **** {
 224              		.loc 1 60 0
 225              		.cfi_startproc
 226              		@ args = 0, pretend = 0, frame = 0
 227              		@ frame_needed = 1, uses_anonymous_args = 0
 228              		@ link register save eliminated.
 229 0054 80B4     		push	{r7}
 230              		.cfi_def_cfa_offset 4
 231              		.cfi_offset 7, -4
 232 0056 00AF     		add	r7, sp, #0
 233              		.cfi_def_cfa_register 7
 234              	.L19:
  61:E:\NeuOrga\Programmieren\c_cpp\github_os\input\src\os_base\os_exception.c ****    while(1){}
 235              		.loc 1 61 0 discriminator 1
 236 0058 FEE7     		b	.L19
 237              		.cfi_endproc
 238              	.LFE8:
 240 005a 00BF     		.align	2
 241              		.global	OS_Exception_IRQ
 242              		.thumb
ARM GAS  C:\Users\PRESID~1\AppData\Local\Temp\ccjGuJp6.s 			page 6


 243              		.thumb_func
 245              	OS_Exception_IRQ:
 246              	.LFB9:
  62:E:\NeuOrga\Programmieren\c_cpp\github_os\input\src\os_base\os_exception.c ****    OS_SHUTDOWN(os_reset_hardreset);
  63:E:\NeuOrga\Programmieren\c_cpp\github_os\input\src\os_base\os_exception.c **** }
  64:E:\NeuOrga\Programmieren\c_cpp\github_os\input\src\os_base\os_exception.c **** 
  65:E:\NeuOrga\Programmieren\c_cpp\github_os\input\src\os_base\os_exception.c **** void OS_Exception_IRQ(void)
  66:E:\NeuOrga\Programmieren\c_cpp\github_os\input\src\os_base\os_exception.c **** {
 247              		.loc 1 66 0
 248              		.cfi_startproc
 249              		@ args = 0, pretend = 0, frame = 0
 250              		@ frame_needed = 1, uses_anonymous_args = 0
 251 005c 80B5     		push	{r7, lr}
 252              		.cfi_def_cfa_offset 8
 253              		.cfi_offset 7, -8
 254              		.cfi_offset 14, -4
 255 005e 00AF     		add	r7, sp, #0
 256              		.cfi_def_cfa_register 7
  67:E:\NeuOrga\Programmieren\c_cpp\github_os\input\src\os_base\os_exception.c ****    OS_ISRHANDLERC0();
 257              		.loc 1 67 0
 258 0060 FFF7FEFF 		bl	OS_ISRHANDLERC0
  68:E:\NeuOrga\Programmieren\c_cpp\github_os\input\src\os_base\os_exception.c **** }
 259              		.loc 1 68 0
 260 0064 80BD     		pop	{r7, pc}
 261              		.cfi_endproc
 262              	.LFE9:
 264 0066 00BF     		.align	2
 265              		.global	OS_Exception_FIQ
 266              		.thumb
 267              		.thumb_func
 269              	OS_Exception_FIQ:
 270              	.LFB10:
  69:E:\NeuOrga\Programmieren\c_cpp\github_os\input\src\os_base\os_exception.c **** void OS_Exception_FIQ(void)
  70:E:\NeuOrga\Programmieren\c_cpp\github_os\input\src\os_base\os_exception.c **** {
 271              		.loc 1 70 0
 272              		.cfi_startproc
 273              		@ args = 0, pretend = 0, frame = 0
 274              		@ frame_needed = 1, uses_anonymous_args = 0
 275 0068 80B5     		push	{r7, lr}
 276              		.cfi_def_cfa_offset 8
 277              		.cfi_offset 7, -8
 278              		.cfi_offset 14, -4
 279 006a 00AF     		add	r7, sp, #0
 280              		.cfi_def_cfa_register 7
  71:E:\NeuOrga\Programmieren\c_cpp\github_os\input\src\os_base\os_exception.c ****    OS_ISRHANDLERC0();
 281              		.loc 1 71 0
 282 006c FFF7FEFF 		bl	OS_ISRHANDLERC0
  72:E:\NeuOrga\Programmieren\c_cpp\github_os\input\src\os_base\os_exception.c **** }
 283              		.loc 1 72 0
 284 0070 80BD     		pop	{r7, pc}
 285              		.cfi_endproc
 286              	.LFE10:
 288 0072 00BF     		.align	2
 289              		.global	TCMP1
 290              		.thumb
 291              		.thumb_func
 293              	TCMP1:
ARM GAS  C:\Users\PRESID~1\AppData\Local\Temp\ccjGuJp6.s 			page 7


 294              	.LFB11:
  73:E:\NeuOrga\Programmieren\c_cpp\github_os\input\src\os_base\os_exception.c **** 
  74:E:\NeuOrga\Programmieren\c_cpp\github_os\input\src\os_base\os_exception.c **** 
  75:E:\NeuOrga\Programmieren\c_cpp\github_os\input\src\os_base\os_exception.c **** ISR TCMP1(void)
  76:E:\NeuOrga\Programmieren\c_cpp\github_os\input\src\os_base\os_exception.c **** {
 295              		.loc 1 76 0
 296              		.cfi_startproc
 297              		@ args = 0, pretend = 0, frame = 0
 298              		@ frame_needed = 1, uses_anonymous_args = 0
 299 0074 80B5     		push	{r7, lr}
 300              		.cfi_def_cfa_offset 8
 301              		.cfi_offset 7, -8
 302              		.cfi_offset 14, -4
 303 0076 00AF     		add	r7, sp, #0
 304              		.cfi_def_cfa_register 7
  77:E:\NeuOrga\Programmieren\c_cpp\github_os\input\src\os_base\os_exception.c ****    OS_ISRHANDLERC0();
 305              		.loc 1 77 0
 306 0078 FFF7FEFF 		bl	OS_ISRHANDLERC0
  78:E:\NeuOrga\Programmieren\c_cpp\github_os\input\src\os_base\os_exception.c **** }
 307              		.loc 1 78 0
 308 007c 80BD     		pop	{r7, pc}
 309              		.cfi_endproc
 310              	.LFE11:
 312 007e 00BF     		.align	2
 313              		.global	TCMP2
 314              		.thumb
 315              		.thumb_func
 317              	TCMP2:
 318              	.LFB12:
  79:E:\NeuOrga\Programmieren\c_cpp\github_os\input\src\os_base\os_exception.c **** ISR TCMP2(void)
  80:E:\NeuOrga\Programmieren\c_cpp\github_os\input\src\os_base\os_exception.c **** {
 319              		.loc 1 80 0
 320              		.cfi_startproc
 321              		@ args = 0, pretend = 0, frame = 0
 322              		@ frame_needed = 1, uses_anonymous_args = 0
 323 0080 80B5     		push	{r7, lr}
 324              		.cfi_def_cfa_offset 8
 325              		.cfi_offset 7, -8
 326              		.cfi_offset 14, -4
 327 0082 00AF     		add	r7, sp, #0
 328              		.cfi_def_cfa_register 7
  81:E:\NeuOrga\Programmieren\c_cpp\github_os\input\src\os_base\os_exception.c ****    OS_ISRHANDLERC1();
 329              		.loc 1 81 0
 330 0084 FFF7FEFF 		bl	OS_ISRHANDLERC1
  82:E:\NeuOrga\Programmieren\c_cpp\github_os\input\src\os_base\os_exception.c **** }
 331              		.loc 1 82 0
 332 0088 80BD     		pop	{r7, pc}
 333              		.cfi_endproc
 334              	.LFE12:
 336 008a 00BF     		.align	2
 337              		.global	TCMP3
 338              		.thumb
 339              		.thumb_func
 341              	TCMP3:
 342              	.LFB13:
  83:E:\NeuOrga\Programmieren\c_cpp\github_os\input\src\os_base\os_exception.c **** ISR TCMP3(void)
  84:E:\NeuOrga\Programmieren\c_cpp\github_os\input\src\os_base\os_exception.c **** {
ARM GAS  C:\Users\PRESID~1\AppData\Local\Temp\ccjGuJp6.s 			page 8


 343              		.loc 1 84 0
 344              		.cfi_startproc
 345              		@ args = 0, pretend = 0, frame = 0
 346              		@ frame_needed = 1, uses_anonymous_args = 0
 347 008c 80B5     		push	{r7, lr}
 348              		.cfi_def_cfa_offset 8
 349              		.cfi_offset 7, -8
 350              		.cfi_offset 14, -4
 351 008e 00AF     		add	r7, sp, #0
 352              		.cfi_def_cfa_register 7
  85:E:\NeuOrga\Programmieren\c_cpp\github_os\input\src\os_base\os_exception.c ****    OS_ISRHANDLERC2();
 353              		.loc 1 85 0
 354 0090 FFF7FEFF 		bl	OS_ISRHANDLERC2
  86:E:\NeuOrga\Programmieren\c_cpp\github_os\input\src\os_base\os_exception.c **** }
 355              		.loc 1 86 0
 356 0094 80BD     		pop	{r7, pc}
 357              		.cfi_endproc
 358              	.LFE13:
 360 0096 00BF     		.align	2
 361              		.global	TCMP4
 362              		.thumb
 363              		.thumb_func
 365              	TCMP4:
 366              	.LFB14:
  87:E:\NeuOrga\Programmieren\c_cpp\github_os\input\src\os_base\os_exception.c **** ISR TCMP4(void)
  88:E:\NeuOrga\Programmieren\c_cpp\github_os\input\src\os_base\os_exception.c **** {
 367              		.loc 1 88 0
 368              		.cfi_startproc
 369              		@ args = 0, pretend = 0, frame = 0
 370              		@ frame_needed = 1, uses_anonymous_args = 0
 371 0098 80B5     		push	{r7, lr}
 372              		.cfi_def_cfa_offset 8
 373              		.cfi_offset 7, -8
 374              		.cfi_offset 14, -4
 375 009a 00AF     		add	r7, sp, #0
 376              		.cfi_def_cfa_register 7
  89:E:\NeuOrga\Programmieren\c_cpp\github_os\input\src\os_base\os_exception.c ****    OS_ISRHANDLERC3();
 377              		.loc 1 89 0
 378 009c FFF7FEFF 		bl	OS_ISRHANDLERC3
  90:E:\NeuOrga\Programmieren\c_cpp\github_os\input\src\os_base\os_exception.c **** }
 379              		.loc 1 90 0
 380 00a0 80BD     		pop	{r7, pc}
 381              		.cfi_endproc
 382              	.LFE14:
 384              	.Letext0:
 385              		.file 2 "e:\\neuorga\\programmieren\\c_cpp\\github_os\\input\\src\\os_base\\os_base_types.h"
 386              		.file 3 "E:\\NeuOrga\\Programmieren\\c_cpp\\github_os\\input\\src\\os_base\\os_shutdown.h"
ARM GAS  C:\Users\PRESID~1\AppData\Local\Temp\ccjGuJp6.s 			page 9


DEFINED SYMBOLS
                            *ABS*:00000000 os_exception.c
C:\Users\PRESID~1\AppData\Local\Temp\ccjGuJp6.s:18     .text:00000000 $t
C:\Users\PRESID~1\AppData\Local\Temp\ccjGuJp6.s:23     .text:00000000 OS_Exception_HARDFAULT
C:\Users\PRESID~1\AppData\Local\Temp\ccjGuJp6.s:51     .text:00000014 $d
C:\Users\PRESID~1\AppData\Local\Temp\ccjGuJp6.s:55     .text:00000018 $t
C:\Users\PRESID~1\AppData\Local\Temp\ccjGuJp6.s:60     .text:00000018 OS_Exception_NMI
C:\Users\PRESID~1\AppData\Local\Temp\ccjGuJp6.s:83     .text:00000020 OS_Exception_SWI
C:\Users\PRESID~1\AppData\Local\Temp\ccjGuJp6.s:107    .text:0000002c OS_Exception_BUS_FAULT
C:\Users\PRESID~1\AppData\Local\Temp\ccjGuJp6.s:130    .text:00000034 OS_Exception_DEBUG
C:\Users\PRESID~1\AppData\Local\Temp\ccjGuJp6.s:153    .text:0000003c OS_Exception_MEM_MANAG_FAULT
C:\Users\PRESID~1\AppData\Local\Temp\ccjGuJp6.s:176    .text:00000044 OS_Exception_USAGE_FAULT
C:\Users\PRESID~1\AppData\Local\Temp\ccjGuJp6.s:199    .text:0000004c OS_Exception_PendSV
C:\Users\PRESID~1\AppData\Local\Temp\ccjGuJp6.s:222    .text:00000054 OS_Exception_Systick
C:\Users\PRESID~1\AppData\Local\Temp\ccjGuJp6.s:245    .text:0000005c OS_Exception_IRQ
C:\Users\PRESID~1\AppData\Local\Temp\ccjGuJp6.s:269    .text:00000068 OS_Exception_FIQ
C:\Users\PRESID~1\AppData\Local\Temp\ccjGuJp6.s:293    .text:00000074 TCMP1
C:\Users\PRESID~1\AppData\Local\Temp\ccjGuJp6.s:317    .text:00000080 TCMP2
C:\Users\PRESID~1\AppData\Local\Temp\ccjGuJp6.s:341    .text:0000008c TCMP3
C:\Users\PRESID~1\AppData\Local\Temp\ccjGuJp6.s:365    .text:00000098 TCMP4
                     .debug_frame:00000010 $d
                           .group:00000000 wm4.0.235f4ede03ac0010553e0a50454c6591
                           .group:00000000 wm4.os_base_types.h.2.f3c0267f175f5cbacca6b71710665a02
                           .group:00000000 wm4.os_common.h.2.d75289bcbcba9f0e2c2ffeda9394ea88
                           .group:00000000 wm4.os_stack.h.2.19e5f67d3b2f1e569581f0c055512986
                           .group:00000000 wm4.os_heap.h.2.89074aae455d2462b5952479e3530dd1
                           .group:00000000 wm4.os_task_config.h.2.7cfaa082f19f6144d85c64ce1f04b914
                           .group:00000000 wm4.os_task_common.h.92.310ae0de7be5874c80e3c1d4bf919b37
                           .group:00000000 wm4.os_exception_isr_handler.h.2.19ab7c9017e871de2a8a91d100f54831

UNDEFINED SYMBOLS
OS_ISRHANDLERC0
OS_ISRHANDLERC1
OS_ISRHANDLERC2
OS_ISRHANDLERC3
