ARM GAS  C:\Users\PRESID~1\AppData\Local\Temp\cc2ac1dr.s 			page 1


   1              		.cpu cortex-m4
   2              		.eabi_attribute 20, 1
   3              		.eabi_attribute 21, 1
   4              		.eabi_attribute 23, 3
   5              		.eabi_attribute 24, 1
   6              		.eabi_attribute 25, 1
   7              		.eabi_attribute 26, 1
   8              		.eabi_attribute 30, 6
   9              		.eabi_attribute 34, 1
  10              		.eabi_attribute 18, 4
  11              		.file	"os_rte_icc.c"
  12              		.text
  13              	.Ltext0:
  14              		.cfi_sections	.debug_frame
  15              		.align	1
  16              		.global	SEND_DATA
  17              		.syntax unified
  18              		.thumb
  19              		.thumb_func
  20              		.fpu softvfp
  22              	SEND_DATA:
  23              	.LFB0:
  24              		.file 1 "E:\\NeuOrga\\Programmieren\\c_cpp\\github_os\\input\\src\\os_base\\os_rte_icc.c"
   1:E:\NeuOrga\Programmieren\c_cpp\github_os\input\src\os_base\os_rte_icc.c **** #include "os_firstinc.h"
   2:E:\NeuOrga\Programmieren\c_cpp\github_os\input\src\os_base\os_rte_icc.c **** #include "os_common.h"
   3:E:\NeuOrga\Programmieren\c_cpp\github_os\input\src\os_base\os_rte_icc.c **** /* ROUTING_TABLE:
   4:E:\NeuOrga\Programmieren\c_cpp\github_os\input\src\os_base\os_rte_icc.c **** e.g.
   5:E:\NeuOrga\Programmieren\c_cpp\github_os\input\src\os_base\os_rte_icc.c **** C0->C1
   6:E:\NeuOrga\Programmieren\c_cpp\github_os\input\src\os_base\os_rte_icc.c **** C0->C2
   7:E:\NeuOrga\Programmieren\c_cpp\github_os\input\src\os_base\os_rte_icc.c **** C0->C3
   8:E:\NeuOrga\Programmieren\c_cpp\github_os\input\src\os_base\os_rte_icc.c **** 
   9:E:\NeuOrga\Programmieren\c_cpp\github_os\input\src\os_base\os_rte_icc.c **** C1->C0
  10:E:\NeuOrga\Programmieren\c_cpp\github_os\input\src\os_base\os_rte_icc.c **** C1->C2
  11:E:\NeuOrga\Programmieren\c_cpp\github_os\input\src\os_base\os_rte_icc.c **** C1->C3
  12:E:\NeuOrga\Programmieren\c_cpp\github_os\input\src\os_base\os_rte_icc.c **** 
  13:E:\NeuOrga\Programmieren\c_cpp\github_os\input\src\os_base\os_rte_icc.c **** C2->C0
  14:E:\NeuOrga\Programmieren\c_cpp\github_os\input\src\os_base\os_rte_icc.c **** C2->C1
  15:E:\NeuOrga\Programmieren\c_cpp\github_os\input\src\os_base\os_rte_icc.c **** C2->C2
  16:E:\NeuOrga\Programmieren\c_cpp\github_os\input\src\os_base\os_rte_icc.c **** 
  17:E:\NeuOrga\Programmieren\c_cpp\github_os\input\src\os_base\os_rte_icc.c **** C3->C0
  18:E:\NeuOrga\Programmieren\c_cpp\github_os\input\src\os_base\os_rte_icc.c **** C3->C1
  19:E:\NeuOrga\Programmieren\c_cpp\github_os\input\src\os_base\os_rte_icc.c **** C3->C2
  20:E:\NeuOrga\Programmieren\c_cpp\github_os\input\src\os_base\os_rte_icc.c **** 
  21:E:\NeuOrga\Programmieren\c_cpp\github_os\input\src\os_base\os_rte_icc.c **** -> amout_of_channels = Summe(n_Cores =2, n_Cores=X, (2*(n_Cores-1))) = n_Cores*(n_Cores-1)
  22:E:\NeuOrga\Programmieren\c_cpp\github_os\input\src\os_base\os_rte_icc.c **** -> n_Cores=2, amout_of_channels=2
  23:E:\NeuOrga\Programmieren\c_cpp\github_os\input\src\os_base\os_rte_icc.c **** -> n_Cores=3, amout_of_channels=6
  24:E:\NeuOrga\Programmieren\c_cpp\github_os\input\src\os_base\os_rte_icc.c **** -> n_Cores=4, amout_of_channels=12
  25:E:\NeuOrga\Programmieren\c_cpp\github_os\input\src\os_base\os_rte_icc.c **** -> n_Cores=5, amout_of_channels=20
  26:E:\NeuOrga\Programmieren\c_cpp\github_os\input\src\os_base\os_rte_icc.c **** -> n_Cores=6, amout_of_channels=30
  27:E:\NeuOrga\Programmieren\c_cpp\github_os\input\src\os_base\os_rte_icc.c **** -> n_Cores=7, amout_of_channels=42
  28:E:\NeuOrga\Programmieren\c_cpp\github_os\input\src\os_base\os_rte_icc.c **** 
  29:E:\NeuOrga\Programmieren\c_cpp\github_os\input\src\os_base\os_rte_icc.c **** The calculation describes the maxiumum amount of channels needed.
  30:E:\NeuOrga\Programmieren\c_cpp\github_os\input\src\os_base\os_rte_icc.c **** 
  31:E:\NeuOrga\Programmieren\c_cpp\github_os\input\src\os_base\os_rte_icc.c **** Assumptions: all core share one shared RAM block simplifing RTE complexity to amount_of_channels = 
  32:E:\NeuOrga\Programmieren\c_cpp\github_os\input\src\os_base\os_rte_icc.c **** 
  33:E:\NeuOrga\Programmieren\c_cpp\github_os\input\src\os_base\os_rte_icc.c **** */
  34:E:\NeuOrga\Programmieren\c_cpp\github_os\input\src\os_base\os_rte_icc.c **** /*
ARM GAS  C:\Users\PRESID~1\AppData\Local\Temp\cc2ac1dr.s 			page 2


  35:E:\NeuOrga\Programmieren\c_cpp\github_os\input\src\os_base\os_rte_icc.c **** 7	Anwendungen (Application)	Anwendungsorientiert	Anwendung	Ende zu Ende (Multihop)		HTTP,FTP,HTTPS,
  36:E:\NeuOrga\Programmieren\c_cpp\github_os\input\src\os_base\os_rte_icc.c **** 
  37:E:\NeuOrga\Programmieren\c_cpp\github_os\input\src\os_base\os_rte_icc.c **** 6	Darstellung (Presentation)	Anwendungsorientiert	Anwendung	Ende zu Ende (Multihop)
  38:E:\NeuOrga\Programmieren\c_cpp\github_os\input\src\os_base\os_rte_icc.c **** 
  39:E:\NeuOrga\Programmieren\c_cpp\github_os\input\src\os_base\os_rte_icc.c **** 5	Sitzung	(Session)		Anwendungsorientiert	Anwendung	Ende zu Ende (Multihop)
  40:E:\NeuOrga\Programmieren\c_cpp\github_os\input\src\os_base\os_rte_icc.c **** 
  41:E:\NeuOrga\Programmieren\c_cpp\github_os\input\src\os_base\os_rte_icc.c **** 4	Transport (Transport)		Transportorientiert	Transport	Ende zu Ende (Multihop)		TCP,UDP,SCTP,SPX,		
  42:E:\NeuOrga\Programmieren\c_cpp\github_os\input\src\os_base\os_rte_icc.c **** 																			UDP = Datagramme
  43:E:\NeuOrga\Programmieren\c_cpp\github_os\input\src\os_base\os_rte_icc.c **** 3	Vermittlung (Network)		Transportorientiert	Internet	Punkt zu Punkt			ICMP,IGMP,IP,IPsec,IPX			Pak
  44:E:\NeuOrga\Programmieren\c_cpp\github_os\input\src\os_base\os_rte_icc.c **** 2	Sicherung (Data Link)		Transportorientiert	Netzzugriff	Punkt zu Punkt			Ethernet,Token Ring,FDDI,
  45:E:\NeuOrga\Programmieren\c_cpp\github_os\input\src\os_base\os_rte_icc.c **** 1	Bitübertragung(Physical)	Transportorientiert	Netzzugriff	Punkt zu Punkt			Ethernet,Token Ring,FDD
  46:E:\NeuOrga\Programmieren\c_cpp\github_os\input\src\os_base\os_rte_icc.c **** 
  47:E:\NeuOrga\Programmieren\c_cpp\github_os\input\src\os_base\os_rte_icc.c **** */
  48:E:\NeuOrga\Programmieren\c_cpp\github_os\input\src\os_base\os_rte_icc.c **** 
  49:E:\NeuOrga\Programmieren\c_cpp\github_os\input\src\os_base\os_rte_icc.c **** /*
  50:E:\NeuOrga\Programmieren\c_cpp\github_os\input\src\os_base\os_rte_icc.c **** Layer 4 Implementation
  51:E:\NeuOrga\Programmieren\c_cpp\github_os\input\src\os_base\os_rte_icc.c **** RQ: Segmentierung und Stauvermeidung
  52:E:\NeuOrga\Programmieren\c_cpp\github_os\input\src\os_base\os_rte_icc.c **** Start
  53:E:\NeuOrga\Programmieren\c_cpp\github_os\input\src\os_base\os_rte_icc.c **** */
  54:E:\NeuOrga\Programmieren\c_cpp\github_os\input\src\os_base\os_rte_icc.c **** /*
  55:E:\NeuOrga\Programmieren\c_cpp\github_os\input\src\os_base\os_rte_icc.c **** Layer 4 Implementation Segement or Datagramme based
  56:E:\NeuOrga\Programmieren\c_cpp\github_os\input\src\os_base\os_rte_icc.c **** End
  57:E:\NeuOrga\Programmieren\c_cpp\github_os\input\src\os_base\os_rte_icc.c **** */
  58:E:\NeuOrga\Programmieren\c_cpp\github_os\input\src\os_base\os_rte_icc.c **** 
  59:E:\NeuOrga\Programmieren\c_cpp\github_os\input\src\os_base\os_rte_icc.c **** /*
  60:E:\NeuOrga\Programmieren\c_cpp\github_os\input\src\os_base\os_rte_icc.c **** Layer 3 Implementation
  61:E:\NeuOrga\Programmieren\c_cpp\github_os\input\src\os_base\os_rte_icc.c **** Start
  62:E:\NeuOrga\Programmieren\c_cpp\github_os\input\src\os_base\os_rte_icc.c **** RQ: Routing of packages
  63:E:\NeuOrga\Programmieren\c_cpp\github_os\input\src\os_base\os_rte_icc.c **** */
  64:E:\NeuOrga\Programmieren\c_cpp\github_os\input\src\os_base\os_rte_icc.c **** /*
  65:E:\NeuOrga\Programmieren\c_cpp\github_os\input\src\os_base\os_rte_icc.c **** Layer 3 Implementation Paket based
  66:E:\NeuOrga\Programmieren\c_cpp\github_os\input\src\os_base\os_rte_icc.c **** End
  67:E:\NeuOrga\Programmieren\c_cpp\github_os\input\src\os_base\os_rte_icc.c **** */
  68:E:\NeuOrga\Programmieren\c_cpp\github_os\input\src\os_base\os_rte_icc.c **** uint8 SEND_DATA(CoreID_t Core_id_transmitter, CoreID_t Core_id_receiver, uint32 length, uint8* data
  69:E:\NeuOrga\Programmieren\c_cpp\github_os\input\src\os_base\os_rte_icc.c **** {
  25              		.loc 1 69 0
  26              		.cfi_startproc
  27              		@ args = 0, pretend = 0, frame = 16
  28              		@ frame_needed = 1, uses_anonymous_args = 0
  29              		@ link register save eliminated.
  30 0000 80B4     		push	{r7}
  31              		.cfi_def_cfa_offset 4
  32              		.cfi_offset 7, -4
  33 0002 85B0     		sub	sp, sp, #20
  34              		.cfi_def_cfa_offset 24
  35 0004 00AF     		add	r7, sp, #0
  36              		.cfi_def_cfa_register 7
  37 0006 BA60     		str	r2, [r7, #8]
  38 0008 7B60     		str	r3, [r7, #4]
  39 000a 0346     		mov	r3, r0
  40 000c FB73     		strb	r3, [r7, #15]
  41 000e 0B46     		mov	r3, r1
  42 0010 BB73     		strb	r3, [r7, #14]
  70:E:\NeuOrga\Programmieren\c_cpp\github_os\input\src\os_base\os_rte_icc.c ****    ReferenceUnusedParameter(Core_id_transmitter);
  71:E:\NeuOrga\Programmieren\c_cpp\github_os\input\src\os_base\os_rte_icc.c ****    ReferenceUnusedParameter(Core_id_receiver);
  72:E:\NeuOrga\Programmieren\c_cpp\github_os\input\src\os_base\os_rte_icc.c ****    ReferenceUnusedParameter(length);
  73:E:\NeuOrga\Programmieren\c_cpp\github_os\input\src\os_base\os_rte_icc.c ****    ReferenceUnusedParameter(data);
ARM GAS  C:\Users\PRESID~1\AppData\Local\Temp\cc2ac1dr.s 			page 3


  74:E:\NeuOrga\Programmieren\c_cpp\github_os\input\src\os_base\os_rte_icc.c ****    /*TODO "SEND_DATA() not yet implemented"*/
  75:E:\NeuOrga\Programmieren\c_cpp\github_os\input\src\os_base\os_rte_icc.c ****    return True;
  43              		.loc 1 75 0
  44 0012 0123     		movs	r3, #1
  76:E:\NeuOrga\Programmieren\c_cpp\github_os\input\src\os_base\os_rte_icc.c **** }
  45              		.loc 1 76 0
  46 0014 1846     		mov	r0, r3
  47 0016 1437     		adds	r7, r7, #20
  48              		.cfi_def_cfa_offset 4
  49 0018 BD46     		mov	sp, r7
  50              		.cfi_def_cfa_register 13
  51              		@ sp needed
  52 001a 80BC     		pop	{r7}
  53              		.cfi_restore 7
  54              		.cfi_def_cfa_offset 0
  55 001c 7047     		bx	lr
  56              		.cfi_endproc
  57              	.LFE0:
  59              		.align	1
  60              		.global	SEND_PACKAGE
  61              		.syntax unified
  62              		.thumb
  63              		.thumb_func
  64              		.fpu softvfp
  66              	SEND_PACKAGE:
  67              	.LFB1:
  77:E:\NeuOrga\Programmieren\c_cpp\github_os\input\src\os_base\os_rte_icc.c **** /*
  78:E:\NeuOrga\Programmieren\c_cpp\github_os\input\src\os_base\os_rte_icc.c **** Layer 2 Implementation Frame based:
  79:E:\NeuOrga\Programmieren\c_cpp\github_os\input\src\os_base\os_rte_icc.c **** RQ: split in frames
  80:E:\NeuOrga\Programmieren\c_cpp\github_os\input\src\os_base\os_rte_icc.c **** RQ: Checksums
  81:E:\NeuOrga\Programmieren\c_cpp\github_os\input\src\os_base\os_rte_icc.c **** 
  82:E:\NeuOrga\Programmieren\c_cpp\github_os\input\src\os_base\os_rte_icc.c **** Start
  83:E:\NeuOrga\Programmieren\c_cpp\github_os\input\src\os_base\os_rte_icc.c **** */
  84:E:\NeuOrga\Programmieren\c_cpp\github_os\input\src\os_base\os_rte_icc.c **** /*
  85:E:\NeuOrga\Programmieren\c_cpp\github_os\input\src\os_base\os_rte_icc.c **** Layer 2 Implementation
  86:E:\NeuOrga\Programmieren\c_cpp\github_os\input\src\os_base\os_rte_icc.c **** End
  87:E:\NeuOrga\Programmieren\c_cpp\github_os\input\src\os_base\os_rte_icc.c **** */
  88:E:\NeuOrga\Programmieren\c_cpp\github_os\input\src\os_base\os_rte_icc.c **** uint8 SEND_PACKAGE(CoreID_t Core_id_transmitter, CoreID_t Core_id_receiver, uint32 length, uint8* p
  89:E:\NeuOrga\Programmieren\c_cpp\github_os\input\src\os_base\os_rte_icc.c **** {
  68              		.loc 1 89 0
  69              		.cfi_startproc
  70              		@ args = 0, pretend = 0, frame = 16
  71              		@ frame_needed = 1, uses_anonymous_args = 0
  72              		@ link register save eliminated.
  73 001e 80B4     		push	{r7}
  74              		.cfi_def_cfa_offset 4
  75              		.cfi_offset 7, -4
  76 0020 85B0     		sub	sp, sp, #20
  77              		.cfi_def_cfa_offset 24
  78 0022 00AF     		add	r7, sp, #0
  79              		.cfi_def_cfa_register 7
  80 0024 BA60     		str	r2, [r7, #8]
  81 0026 7B60     		str	r3, [r7, #4]
  82 0028 0346     		mov	r3, r0
  83 002a FB73     		strb	r3, [r7, #15]
  84 002c 0B46     		mov	r3, r1
  85 002e BB73     		strb	r3, [r7, #14]
ARM GAS  C:\Users\PRESID~1\AppData\Local\Temp\cc2ac1dr.s 			page 4


  90:E:\NeuOrga\Programmieren\c_cpp\github_os\input\src\os_base\os_rte_icc.c ****    ReferenceUnusedParameter(Core_id_transmitter);
  91:E:\NeuOrga\Programmieren\c_cpp\github_os\input\src\os_base\os_rte_icc.c ****    ReferenceUnusedParameter(Core_id_receiver);
  92:E:\NeuOrga\Programmieren\c_cpp\github_os\input\src\os_base\os_rte_icc.c ****    ReferenceUnusedParameter(length);
  93:E:\NeuOrga\Programmieren\c_cpp\github_os\input\src\os_base\os_rte_icc.c ****    ReferenceUnusedParameter(package);
  94:E:\NeuOrga\Programmieren\c_cpp\github_os\input\src\os_base\os_rte_icc.c ****    /*TODO "SEND_PACKAGE() not yet implemented"*/
  95:E:\NeuOrga\Programmieren\c_cpp\github_os\input\src\os_base\os_rte_icc.c ****    return True;
  86              		.loc 1 95 0
  87 0030 0123     		movs	r3, #1
  96:E:\NeuOrga\Programmieren\c_cpp\github_os\input\src\os_base\os_rte_icc.c **** }
  88              		.loc 1 96 0
  89 0032 1846     		mov	r0, r3
  90 0034 1437     		adds	r7, r7, #20
  91              		.cfi_def_cfa_offset 4
  92 0036 BD46     		mov	sp, r7
  93              		.cfi_def_cfa_register 13
  94              		@ sp needed
  95 0038 80BC     		pop	{r7}
  96              		.cfi_restore 7
  97              		.cfi_def_cfa_offset 0
  98 003a 7047     		bx	lr
  99              		.cfi_endproc
 100              	.LFE1:
 102              		.align	1
 103              		.global	SEND_FRAME
 104              		.syntax unified
 105              		.thumb
 106              		.thumb_func
 107              		.fpu softvfp
 109              	SEND_FRAME:
 110              	.LFB2:
  97:E:\NeuOrga\Programmieren\c_cpp\github_os\input\src\os_base\os_rte_icc.c **** 
  98:E:\NeuOrga\Programmieren\c_cpp\github_os\input\src\os_base\os_rte_icc.c **** /*
  99:E:\NeuOrga\Programmieren\c_cpp\github_os\input\src\os_base\os_rte_icc.c **** Layer 1 Implementation
 100:E:\NeuOrga\Programmieren\c_cpp\github_os\input\src\os_base\os_rte_icc.c **** RQ: Send Bits/Bytes
 101:E:\NeuOrga\Programmieren\c_cpp\github_os\input\src\os_base\os_rte_icc.c **** Start
 102:E:\NeuOrga\Programmieren\c_cpp\github_os\input\src\os_base\os_rte_icc.c **** */
 103:E:\NeuOrga\Programmieren\c_cpp\github_os\input\src\os_base\os_rte_icc.c **** /*
 104:E:\NeuOrga\Programmieren\c_cpp\github_os\input\src\os_base\os_rte_icc.c **** e.g.
 105:E:\NeuOrga\Programmieren\c_cpp\github_os\input\src\os_base\os_rte_icc.c **** C0->C1
 106:E:\NeuOrga\Programmieren\c_cpp\github_os\input\src\os_base\os_rte_icc.c **** 
 107:E:\NeuOrga\Programmieren\c_cpp\github_os\input\src\os_base\os_rte_icc.c **** C0:
 108:E:\NeuOrga\Programmieren\c_cpp\github_os\input\src\os_base\os_rte_icc.c **** 1. Check for pending read
 109:E:\NeuOrga\Programmieren\c_cpp\github_os\input\src\os_base\os_rte_icc.c **** 2. Write into buffer
 110:E:\NeuOrga\Programmieren\c_cpp\github_os\input\src\os_base\os_rte_icc.c **** 3. set updated flag
 111:E:\NeuOrga\Programmieren\c_cpp\github_os\input\src\os_base\os_rte_icc.c **** C1:
 112:E:\NeuOrga\Programmieren\c_cpp\github_os\input\src\os_base\os_rte_icc.c **** 4.1 Set pending read flag
 113:E:\NeuOrga\Programmieren\c_cpp\github_os\input\src\os_base\os_rte_icc.c **** 4.2 Check for pending write
 114:E:\NeuOrga\Programmieren\c_cpp\github_os\input\src\os_base\os_rte_icc.c **** 5. Read from Buffer
 115:E:\NeuOrga\Programmieren\c_cpp\github_os\input\src\os_base\os_rte_icc.c **** 6. Clear updated flag (+buffer)+ Clear pending read
 116:E:\NeuOrga\Programmieren\c_cpp\github_os\input\src\os_base\os_rte_icc.c **** 
 117:E:\NeuOrga\Programmieren\c_cpp\github_os\input\src\os_base\os_rte_icc.c **** */
 118:E:\NeuOrga\Programmieren\c_cpp\github_os\input\src\os_base\os_rte_icc.c **** uint8 SEND_FRAME(CoreID_t Core_id_transmitter, CoreID_t Core_id_receiver, uint32 length, uint8* fra
 119:E:\NeuOrga\Programmieren\c_cpp\github_os\input\src\os_base\os_rte_icc.c **** {
 111              		.loc 1 119 0
 112              		.cfi_startproc
 113              		@ args = 0, pretend = 0, frame = 16
 114              		@ frame_needed = 1, uses_anonymous_args = 0
ARM GAS  C:\Users\PRESID~1\AppData\Local\Temp\cc2ac1dr.s 			page 5


 115              		@ link register save eliminated.
 116 003c 80B4     		push	{r7}
 117              		.cfi_def_cfa_offset 4
 118              		.cfi_offset 7, -4
 119 003e 85B0     		sub	sp, sp, #20
 120              		.cfi_def_cfa_offset 24
 121 0040 00AF     		add	r7, sp, #0
 122              		.cfi_def_cfa_register 7
 123 0042 BA60     		str	r2, [r7, #8]
 124 0044 7B60     		str	r3, [r7, #4]
 125 0046 0346     		mov	r3, r0
 126 0048 FB73     		strb	r3, [r7, #15]
 127 004a 0B46     		mov	r3, r1
 128 004c BB73     		strb	r3, [r7, #14]
 120:E:\NeuOrga\Programmieren\c_cpp\github_os\input\src\os_base\os_rte_icc.c ****    ReferenceUnusedParameter(Core_id_transmitter);
 121:E:\NeuOrga\Programmieren\c_cpp\github_os\input\src\os_base\os_rte_icc.c ****    ReferenceUnusedParameter(Core_id_receiver);
 122:E:\NeuOrga\Programmieren\c_cpp\github_os\input\src\os_base\os_rte_icc.c ****    ReferenceUnusedParameter(length);
 123:E:\NeuOrga\Programmieren\c_cpp\github_os\input\src\os_base\os_rte_icc.c ****    ReferenceUnusedParameter(frame);
 124:E:\NeuOrga\Programmieren\c_cpp\github_os\input\src\os_base\os_rte_icc.c ****    /*TODO "SEND_FRAME() not yet implemented"*/
 125:E:\NeuOrga\Programmieren\c_cpp\github_os\input\src\os_base\os_rte_icc.c ****    return True;
 129              		.loc 1 125 0
 130 004e 0123     		movs	r3, #1
 126:E:\NeuOrga\Programmieren\c_cpp\github_os\input\src\os_base\os_rte_icc.c **** }
 131              		.loc 1 126 0
 132 0050 1846     		mov	r0, r3
 133 0052 1437     		adds	r7, r7, #20
 134              		.cfi_def_cfa_offset 4
 135 0054 BD46     		mov	sp, r7
 136              		.cfi_def_cfa_register 13
 137              		@ sp needed
 138 0056 80BC     		pop	{r7}
 139              		.cfi_restore 7
 140              		.cfi_def_cfa_offset 0
 141 0058 7047     		bx	lr
 142              		.cfi_endproc
 143              	.LFE2:
 145              	.Letext0:
 146              		.file 2 "e:\\neuorga\\programmieren\\c_cpp\\github_os\\input\\src\\os_base\\os_base_types.h"
 147              		.file 3 "e:\\neuorga\\programmieren\\c_cpp\\github_os\\input\\src\\os_base\\os_ram.h"
 148              		.file 4 "e:\\neuorga\\programmieren\\c_cpp\\github_os\\input\\src\\os_base\\os_task_common.h"
 149              		.file 5 "e:\\neuorga\\programmieren\\c_cpp\\github_os\\input\\src\\os_drivers\\lld_core.h"
ARM GAS  C:\Users\PRESID~1\AppData\Local\Temp\cc2ac1dr.s 			page 6

