ARM GAS  C:\Users\PRESID~1\AppData\Local\Temp\ccQzdMXu.s 			page 1


   1              		.syntax unified
   2              		.cpu cortex-m4
   3              		.fpu softvfp
   4              		.eabi_attribute 20, 1
   5              		.eabi_attribute 21, 1
   6              		.eabi_attribute 23, 3
   7              		.eabi_attribute 24, 1
   8              		.eabi_attribute 25, 1
   9              		.eabi_attribute 26, 1
  10              		.eabi_attribute 30, 6
  11              		.eabi_attribute 34, 1
  12              		.eabi_attribute 18, 4
  13              		.thumb
  14              		.file	"os_rte_icc.c"
  15              		.text
  16              	.Ltext0:
  17              		.cfi_sections	.debug_frame
  18              		.align	2
  19              		.global	SEND_DATA
  20              		.thumb
  21              		.thumb_func
  23              	SEND_DATA:
  24              	.LFB0:
  25              		.file 1 "E:\\NeuOrga\\Programmieren\\c_cpp\\github_os\\input\\src\\os_base\\os_rte_icc.c"
   1:E:\NeuOrga\Programmieren\c_cpp\github_os\input\src\os_base\os_rte_icc.c **** #include "os_firstinc.h"
   2:E:\NeuOrga\Programmieren\c_cpp\github_os\input\src\os_base\os_rte_icc.c **** #include "os_common.h"
   3:E:\NeuOrga\Programmieren\c_cpp\github_os\input\src\os_base\os_rte_icc.c **** /* ROUTING_TABLE:
   4:E:\NeuOrga\Programmieren\c_cpp\github_os\input\src\os_base\os_rte_icc.c **** e.g.
   5:E:\NeuOrga\Programmieren\c_cpp\github_os\input\src\os_base\os_rte_icc.c **** C0->C1
   6:E:\NeuOrga\Programmieren\c_cpp\github_os\input\src\os_base\os_rte_icc.c **** C0->C2
   7:E:\NeuOrga\Programmieren\c_cpp\github_os\input\src\os_base\os_rte_icc.c **** C0->C3
   8:E:\NeuOrga\Programmieren\c_cpp\github_os\input\src\os_base\os_rte_icc.c **** 
   9:E:\NeuOrga\Programmieren\c_cpp\github_os\input\src\os_base\os_rte_icc.c **** C1->C0
  10:E:\NeuOrga\Programmieren\c_cpp\github_os\input\src\os_base\os_rte_icc.c **** C1->C2
  11:E:\NeuOrga\Programmieren\c_cpp\github_os\input\src\os_base\os_rte_icc.c **** C1->C3
  12:E:\NeuOrga\Programmieren\c_cpp\github_os\input\src\os_base\os_rte_icc.c **** 
  13:E:\NeuOrga\Programmieren\c_cpp\github_os\input\src\os_base\os_rte_icc.c **** C2->C0
  14:E:\NeuOrga\Programmieren\c_cpp\github_os\input\src\os_base\os_rte_icc.c **** C2->C1
  15:E:\NeuOrga\Programmieren\c_cpp\github_os\input\src\os_base\os_rte_icc.c **** C2->C2
  16:E:\NeuOrga\Programmieren\c_cpp\github_os\input\src\os_base\os_rte_icc.c **** 
  17:E:\NeuOrga\Programmieren\c_cpp\github_os\input\src\os_base\os_rte_icc.c **** C3->C0
  18:E:\NeuOrga\Programmieren\c_cpp\github_os\input\src\os_base\os_rte_icc.c **** C3->C1
  19:E:\NeuOrga\Programmieren\c_cpp\github_os\input\src\os_base\os_rte_icc.c **** C3->C2
  20:E:\NeuOrga\Programmieren\c_cpp\github_os\input\src\os_base\os_rte_icc.c **** 
  21:E:\NeuOrga\Programmieren\c_cpp\github_os\input\src\os_base\os_rte_icc.c **** -> amout_of_channels = Summe(n_Cores =2, n_Cores=X, (2*(n_Cores-1))) = n_Cores*(n_Cores-1)
  22:E:\NeuOrga\Programmieren\c_cpp\github_os\input\src\os_base\os_rte_icc.c **** -> n_Cores=2, amout_of_channels=2
  23:E:\NeuOrga\Programmieren\c_cpp\github_os\input\src\os_base\os_rte_icc.c **** -> n_Cores=3, amout_of_channels=6
  24:E:\NeuOrga\Programmieren\c_cpp\github_os\input\src\os_base\os_rte_icc.c **** -> n_Cores=4, amout_of_channels=12
  25:E:\NeuOrga\Programmieren\c_cpp\github_os\input\src\os_base\os_rte_icc.c **** -> n_Cores=5, amout_of_channels=20
  26:E:\NeuOrga\Programmieren\c_cpp\github_os\input\src\os_base\os_rte_icc.c **** -> n_Cores=6, amout_of_channels=30
  27:E:\NeuOrga\Programmieren\c_cpp\github_os\input\src\os_base\os_rte_icc.c **** -> n_Cores=7, amout_of_channels=42
  28:E:\NeuOrga\Programmieren\c_cpp\github_os\input\src\os_base\os_rte_icc.c **** 
  29:E:\NeuOrga\Programmieren\c_cpp\github_os\input\src\os_base\os_rte_icc.c **** The calculation describes the maxiumum amount of channels needed.
  30:E:\NeuOrga\Programmieren\c_cpp\github_os\input\src\os_base\os_rte_icc.c **** 
  31:E:\NeuOrga\Programmieren\c_cpp\github_os\input\src\os_base\os_rte_icc.c **** Assumptions: all core share one shared RAM block simplifing RTE complexity to amount_of_channels = 
  32:E:\NeuOrga\Programmieren\c_cpp\github_os\input\src\os_base\os_rte_icc.c **** 
  33:E:\NeuOrga\Programmieren\c_cpp\github_os\input\src\os_base\os_rte_icc.c **** */
ARM GAS  C:\Users\PRESID~1\AppData\Local\Temp\ccQzdMXu.s 			page 2


  34:E:\NeuOrga\Programmieren\c_cpp\github_os\input\src\os_base\os_rte_icc.c **** /*
  35:E:\NeuOrga\Programmieren\c_cpp\github_os\input\src\os_base\os_rte_icc.c **** 7	Anwendungen (Application)	Anwendungsorientiert	Anwendung	Ende zu Ende (Multihop)		HTTP,FTP,HTTPS,
  36:E:\NeuOrga\Programmieren\c_cpp\github_os\input\src\os_base\os_rte_icc.c **** 
  37:E:\NeuOrga\Programmieren\c_cpp\github_os\input\src\os_base\os_rte_icc.c **** 6	Darstellung (Presentation)	Anwendungsorientiert	Anwendung	Ende zu Ende (Multihop)
  38:E:\NeuOrga\Programmieren\c_cpp\github_os\input\src\os_base\os_rte_icc.c **** 
  39:E:\NeuOrga\Programmieren\c_cpp\github_os\input\src\os_base\os_rte_icc.c **** 5	Sitzung	(Session)		Anwendungsorientiert	Anwendung	Ende zu Ende (Multihop)
  40:E:\NeuOrga\Programmieren\c_cpp\github_os\input\src\os_base\os_rte_icc.c **** 
  41:E:\NeuOrga\Programmieren\c_cpp\github_os\input\src\os_base\os_rte_icc.c **** 4	Transport (Transport)		Transportorientiert	Transport	Ende zu Ende (Multihop)		TCP,UDP,SCTP,SPX,		
  42:E:\NeuOrga\Programmieren\c_cpp\github_os\input\src\os_base\os_rte_icc.c **** 																			UDP = Datagramme
  43:E:\NeuOrga\Programmieren\c_cpp\github_os\input\src\os_base\os_rte_icc.c **** 3	Vermittlung (Network)		Transportorientiert	Internet	Punkt zu Punkt			ICMP,IGMP,IP,IPsec,IPX			Pak
  44:E:\NeuOrga\Programmieren\c_cpp\github_os\input\src\os_base\os_rte_icc.c **** 2	Sicherung (Data Link)		Transportorientiert	Netzzugriff	Punkt zu Punkt			Ethernet,Token Ring,FDDI,
  45:E:\NeuOrga\Programmieren\c_cpp\github_os\input\src\os_base\os_rte_icc.c **** 1	Bitübertragung(Physical)	Transportorientiert	Netzzugriff	Punkt zu Punkt			Ethernet,Token Ring,FDD
  46:E:\NeuOrga\Programmieren\c_cpp\github_os\input\src\os_base\os_rte_icc.c **** 
  47:E:\NeuOrga\Programmieren\c_cpp\github_os\input\src\os_base\os_rte_icc.c **** */
  48:E:\NeuOrga\Programmieren\c_cpp\github_os\input\src\os_base\os_rte_icc.c **** 
  49:E:\NeuOrga\Programmieren\c_cpp\github_os\input\src\os_base\os_rte_icc.c **** /*
  50:E:\NeuOrga\Programmieren\c_cpp\github_os\input\src\os_base\os_rte_icc.c **** Layer 4 Implementation
  51:E:\NeuOrga\Programmieren\c_cpp\github_os\input\src\os_base\os_rte_icc.c **** RQ: Segmentierung und Stauvermeidung
  52:E:\NeuOrga\Programmieren\c_cpp\github_os\input\src\os_base\os_rte_icc.c **** Start
  53:E:\NeuOrga\Programmieren\c_cpp\github_os\input\src\os_base\os_rte_icc.c **** */
  54:E:\NeuOrga\Programmieren\c_cpp\github_os\input\src\os_base\os_rte_icc.c **** /*
  55:E:\NeuOrga\Programmieren\c_cpp\github_os\input\src\os_base\os_rte_icc.c **** Layer 4 Implementation Segement or Datagramme based
  56:E:\NeuOrga\Programmieren\c_cpp\github_os\input\src\os_base\os_rte_icc.c **** End
  57:E:\NeuOrga\Programmieren\c_cpp\github_os\input\src\os_base\os_rte_icc.c **** */
  58:E:\NeuOrga\Programmieren\c_cpp\github_os\input\src\os_base\os_rte_icc.c **** 
  59:E:\NeuOrga\Programmieren\c_cpp\github_os\input\src\os_base\os_rte_icc.c **** /*
  60:E:\NeuOrga\Programmieren\c_cpp\github_os\input\src\os_base\os_rte_icc.c **** Layer 3 Implementation
  61:E:\NeuOrga\Programmieren\c_cpp\github_os\input\src\os_base\os_rte_icc.c **** Start
  62:E:\NeuOrga\Programmieren\c_cpp\github_os\input\src\os_base\os_rte_icc.c **** RQ: Routing of packages
  63:E:\NeuOrga\Programmieren\c_cpp\github_os\input\src\os_base\os_rte_icc.c **** */
  64:E:\NeuOrga\Programmieren\c_cpp\github_os\input\src\os_base\os_rte_icc.c **** /*
  65:E:\NeuOrga\Programmieren\c_cpp\github_os\input\src\os_base\os_rte_icc.c **** Layer 3 Implementation Paket based
  66:E:\NeuOrga\Programmieren\c_cpp\github_os\input\src\os_base\os_rte_icc.c **** End
  67:E:\NeuOrga\Programmieren\c_cpp\github_os\input\src\os_base\os_rte_icc.c **** */
  68:E:\NeuOrga\Programmieren\c_cpp\github_os\input\src\os_base\os_rte_icc.c **** uint8 SEND_DATA(CoreID_t Core_id_transmitter, CoreID_t Core_id_receiver, uint32 length, uint8* data
  69:E:\NeuOrga\Programmieren\c_cpp\github_os\input\src\os_base\os_rte_icc.c **** {
  26              		.loc 1 69 0
  27              		.cfi_startproc
  28              		@ args = 0, pretend = 0, frame = 16
  29              		@ frame_needed = 1, uses_anonymous_args = 0
  30              		@ link register save eliminated.
  31 0000 80B4     		push	{r7}
  32              		.cfi_def_cfa_offset 4
  33              		.cfi_offset 7, -4
  34 0002 85B0     		sub	sp, sp, #20
  35              		.cfi_def_cfa_offset 24
  36 0004 00AF     		add	r7, sp, #0
  37              		.cfi_def_cfa_register 7
  38 0006 BA60     		str	r2, [r7, #8]
  39 0008 7B60     		str	r3, [r7, #4]
  40 000a 0346     		mov	r3, r0
  41 000c FB73     		strb	r3, [r7, #15]
  42 000e 0B46     		mov	r3, r1
  43 0010 BB73     		strb	r3, [r7, #14]
  70:E:\NeuOrga\Programmieren\c_cpp\github_os\input\src\os_base\os_rte_icc.c ****    ReferenceUnusedParameter(Core_id_transmitter);
  71:E:\NeuOrga\Programmieren\c_cpp\github_os\input\src\os_base\os_rte_icc.c ****    ReferenceUnusedParameter(Core_id_receiver);
  72:E:\NeuOrga\Programmieren\c_cpp\github_os\input\src\os_base\os_rte_icc.c ****    ReferenceUnusedParameter(length);
ARM GAS  C:\Users\PRESID~1\AppData\Local\Temp\ccQzdMXu.s 			page 3


  73:E:\NeuOrga\Programmieren\c_cpp\github_os\input\src\os_base\os_rte_icc.c ****    ReferenceUnusedParameter(data);
  74:E:\NeuOrga\Programmieren\c_cpp\github_os\input\src\os_base\os_rte_icc.c ****    /*#warn "SEND_DATA() not yet implemented"*/
  75:E:\NeuOrga\Programmieren\c_cpp\github_os\input\src\os_base\os_rte_icc.c ****    return True;
  44              		.loc 1 75 0
  45 0012 0123     		movs	r3, #1
  76:E:\NeuOrga\Programmieren\c_cpp\github_os\input\src\os_base\os_rte_icc.c **** }
  46              		.loc 1 76 0
  47 0014 1846     		mov	r0, r3
  48 0016 1437     		adds	r7, r7, #20
  49              		.cfi_def_cfa_offset 4
  50 0018 BD46     		mov	sp, r7
  51              		.cfi_def_cfa_register 13
  52              		@ sp needed
  53 001a 5DF8047B 		ldr	r7, [sp], #4
  54              		.cfi_restore 7
  55              		.cfi_def_cfa_offset 0
  56 001e 7047     		bx	lr
  57              		.cfi_endproc
  58              	.LFE0:
  60              		.align	2
  61              		.global	SEND_PACKAGE
  62              		.thumb
  63              		.thumb_func
  65              	SEND_PACKAGE:
  66              	.LFB1:
  77:E:\NeuOrga\Programmieren\c_cpp\github_os\input\src\os_base\os_rte_icc.c **** /*
  78:E:\NeuOrga\Programmieren\c_cpp\github_os\input\src\os_base\os_rte_icc.c **** Layer 2 Implementation Frame based:
  79:E:\NeuOrga\Programmieren\c_cpp\github_os\input\src\os_base\os_rte_icc.c **** RQ: split in frames
  80:E:\NeuOrga\Programmieren\c_cpp\github_os\input\src\os_base\os_rte_icc.c **** RQ: Checksums
  81:E:\NeuOrga\Programmieren\c_cpp\github_os\input\src\os_base\os_rte_icc.c **** 
  82:E:\NeuOrga\Programmieren\c_cpp\github_os\input\src\os_base\os_rte_icc.c **** Start
  83:E:\NeuOrga\Programmieren\c_cpp\github_os\input\src\os_base\os_rte_icc.c **** */
  84:E:\NeuOrga\Programmieren\c_cpp\github_os\input\src\os_base\os_rte_icc.c **** /*
  85:E:\NeuOrga\Programmieren\c_cpp\github_os\input\src\os_base\os_rte_icc.c **** Layer 2 Implementation
  86:E:\NeuOrga\Programmieren\c_cpp\github_os\input\src\os_base\os_rte_icc.c **** End
  87:E:\NeuOrga\Programmieren\c_cpp\github_os\input\src\os_base\os_rte_icc.c **** */
  88:E:\NeuOrga\Programmieren\c_cpp\github_os\input\src\os_base\os_rte_icc.c **** uint8 SEND_PACKAGE(CoreID_t Core_id_transmitter, CoreID_t Core_id_receiver, uint32 length, uint8* p
  89:E:\NeuOrga\Programmieren\c_cpp\github_os\input\src\os_base\os_rte_icc.c **** {
  67              		.loc 1 89 0
  68              		.cfi_startproc
  69              		@ args = 0, pretend = 0, frame = 16
  70              		@ frame_needed = 1, uses_anonymous_args = 0
  71              		@ link register save eliminated.
  72 0020 80B4     		push	{r7}
  73              		.cfi_def_cfa_offset 4
  74              		.cfi_offset 7, -4
  75 0022 85B0     		sub	sp, sp, #20
  76              		.cfi_def_cfa_offset 24
  77 0024 00AF     		add	r7, sp, #0
  78              		.cfi_def_cfa_register 7
  79 0026 BA60     		str	r2, [r7, #8]
  80 0028 7B60     		str	r3, [r7, #4]
  81 002a 0346     		mov	r3, r0
  82 002c FB73     		strb	r3, [r7, #15]
  83 002e 0B46     		mov	r3, r1
  84 0030 BB73     		strb	r3, [r7, #14]
  90:E:\NeuOrga\Programmieren\c_cpp\github_os\input\src\os_base\os_rte_icc.c ****    ReferenceUnusedParameter(Core_id_transmitter);
ARM GAS  C:\Users\PRESID~1\AppData\Local\Temp\ccQzdMXu.s 			page 4


  91:E:\NeuOrga\Programmieren\c_cpp\github_os\input\src\os_base\os_rte_icc.c ****    ReferenceUnusedParameter(Core_id_receiver);
  92:E:\NeuOrga\Programmieren\c_cpp\github_os\input\src\os_base\os_rte_icc.c ****    ReferenceUnusedParameter(length);
  93:E:\NeuOrga\Programmieren\c_cpp\github_os\input\src\os_base\os_rte_icc.c ****    ReferenceUnusedParameter(package);
  94:E:\NeuOrga\Programmieren\c_cpp\github_os\input\src\os_base\os_rte_icc.c ****    /*#warn "SEND_PACKAGE() not yet implemented"*/
  95:E:\NeuOrga\Programmieren\c_cpp\github_os\input\src\os_base\os_rte_icc.c ****    return True;
  85              		.loc 1 95 0
  86 0032 0123     		movs	r3, #1
  96:E:\NeuOrga\Programmieren\c_cpp\github_os\input\src\os_base\os_rte_icc.c **** }
  87              		.loc 1 96 0
  88 0034 1846     		mov	r0, r3
  89 0036 1437     		adds	r7, r7, #20
  90              		.cfi_def_cfa_offset 4
  91 0038 BD46     		mov	sp, r7
  92              		.cfi_def_cfa_register 13
  93              		@ sp needed
  94 003a 5DF8047B 		ldr	r7, [sp], #4
  95              		.cfi_restore 7
  96              		.cfi_def_cfa_offset 0
  97 003e 7047     		bx	lr
  98              		.cfi_endproc
  99              	.LFE1:
 101              		.align	2
 102              		.global	SEND_FRAME
 103              		.thumb
 104              		.thumb_func
 106              	SEND_FRAME:
 107              	.LFB2:
  97:E:\NeuOrga\Programmieren\c_cpp\github_os\input\src\os_base\os_rte_icc.c **** 
  98:E:\NeuOrga\Programmieren\c_cpp\github_os\input\src\os_base\os_rte_icc.c **** /*
  99:E:\NeuOrga\Programmieren\c_cpp\github_os\input\src\os_base\os_rte_icc.c **** Layer 1 Implementation
 100:E:\NeuOrga\Programmieren\c_cpp\github_os\input\src\os_base\os_rte_icc.c **** RQ: Send Bits/Bytes
 101:E:\NeuOrga\Programmieren\c_cpp\github_os\input\src\os_base\os_rte_icc.c **** Start
 102:E:\NeuOrga\Programmieren\c_cpp\github_os\input\src\os_base\os_rte_icc.c **** */
 103:E:\NeuOrga\Programmieren\c_cpp\github_os\input\src\os_base\os_rte_icc.c **** /*
 104:E:\NeuOrga\Programmieren\c_cpp\github_os\input\src\os_base\os_rte_icc.c **** e.g.
 105:E:\NeuOrga\Programmieren\c_cpp\github_os\input\src\os_base\os_rte_icc.c **** C0->C1
 106:E:\NeuOrga\Programmieren\c_cpp\github_os\input\src\os_base\os_rte_icc.c **** 
 107:E:\NeuOrga\Programmieren\c_cpp\github_os\input\src\os_base\os_rte_icc.c **** C0:
 108:E:\NeuOrga\Programmieren\c_cpp\github_os\input\src\os_base\os_rte_icc.c **** 1. Check for pending read
 109:E:\NeuOrga\Programmieren\c_cpp\github_os\input\src\os_base\os_rte_icc.c **** 2. Write into buffer
 110:E:\NeuOrga\Programmieren\c_cpp\github_os\input\src\os_base\os_rte_icc.c **** 3. set updated flag
 111:E:\NeuOrga\Programmieren\c_cpp\github_os\input\src\os_base\os_rte_icc.c **** C1:
 112:E:\NeuOrga\Programmieren\c_cpp\github_os\input\src\os_base\os_rte_icc.c **** 4.1 Set pending read flag
 113:E:\NeuOrga\Programmieren\c_cpp\github_os\input\src\os_base\os_rte_icc.c **** 4.2 Check for pending write
 114:E:\NeuOrga\Programmieren\c_cpp\github_os\input\src\os_base\os_rte_icc.c **** 5. Read from Buffer
 115:E:\NeuOrga\Programmieren\c_cpp\github_os\input\src\os_base\os_rte_icc.c **** 6. Clear updated flag (+buffer)+ Clear pending read
 116:E:\NeuOrga\Programmieren\c_cpp\github_os\input\src\os_base\os_rte_icc.c **** 
 117:E:\NeuOrga\Programmieren\c_cpp\github_os\input\src\os_base\os_rte_icc.c **** */
 118:E:\NeuOrga\Programmieren\c_cpp\github_os\input\src\os_base\os_rte_icc.c **** uint8 SEND_FRAME(CoreID_t Core_id_transmitter, CoreID_t Core_id_receiver, uint32 length, uint8* fra
 119:E:\NeuOrga\Programmieren\c_cpp\github_os\input\src\os_base\os_rte_icc.c **** {
 108              		.loc 1 119 0
 109              		.cfi_startproc
 110              		@ args = 0, pretend = 0, frame = 16
 111              		@ frame_needed = 1, uses_anonymous_args = 0
 112              		@ link register save eliminated.
 113 0040 80B4     		push	{r7}
 114              		.cfi_def_cfa_offset 4
ARM GAS  C:\Users\PRESID~1\AppData\Local\Temp\ccQzdMXu.s 			page 5


 115              		.cfi_offset 7, -4
 116 0042 85B0     		sub	sp, sp, #20
 117              		.cfi_def_cfa_offset 24
 118 0044 00AF     		add	r7, sp, #0
 119              		.cfi_def_cfa_register 7
 120 0046 BA60     		str	r2, [r7, #8]
 121 0048 7B60     		str	r3, [r7, #4]
 122 004a 0346     		mov	r3, r0
 123 004c FB73     		strb	r3, [r7, #15]
 124 004e 0B46     		mov	r3, r1
 125 0050 BB73     		strb	r3, [r7, #14]
 120:E:\NeuOrga\Programmieren\c_cpp\github_os\input\src\os_base\os_rte_icc.c ****    ReferenceUnusedParameter(Core_id_transmitter);
 121:E:\NeuOrga\Programmieren\c_cpp\github_os\input\src\os_base\os_rte_icc.c ****    ReferenceUnusedParameter(Core_id_receiver);
 122:E:\NeuOrga\Programmieren\c_cpp\github_os\input\src\os_base\os_rte_icc.c ****    ReferenceUnusedParameter(length);
 123:E:\NeuOrga\Programmieren\c_cpp\github_os\input\src\os_base\os_rte_icc.c ****    ReferenceUnusedParameter(frame);
 124:E:\NeuOrga\Programmieren\c_cpp\github_os\input\src\os_base\os_rte_icc.c ****    /*#warn "SEND_FRAME() not yet implemented"*/
 125:E:\NeuOrga\Programmieren\c_cpp\github_os\input\src\os_base\os_rte_icc.c ****    return True;
 126              		.loc 1 125 0
 127 0052 0123     		movs	r3, #1
 126:E:\NeuOrga\Programmieren\c_cpp\github_os\input\src\os_base\os_rte_icc.c **** }
 128              		.loc 1 126 0
 129 0054 1846     		mov	r0, r3
 130 0056 1437     		adds	r7, r7, #20
 131              		.cfi_def_cfa_offset 4
 132 0058 BD46     		mov	sp, r7
 133              		.cfi_def_cfa_register 13
 134              		@ sp needed
 135 005a 5DF8047B 		ldr	r7, [sp], #4
 136              		.cfi_restore 7
 137              		.cfi_def_cfa_offset 0
 138 005e 7047     		bx	lr
 139              		.cfi_endproc
 140              	.LFE2:
 142              	.Letext0:
 143              		.file 2 "e:\\neuorga\\programmieren\\c_cpp\\github_os\\input\\src\\os_base\\os_base_types.h"
 144              		.file 3 "e:\\neuorga\\programmieren\\c_cpp\\github_os\\input\\src\\os_drivers\\lld_core.h"
ARM GAS  C:\Users\PRESID~1\AppData\Local\Temp\ccQzdMXu.s 			page 6


DEFINED SYMBOLS
                            *ABS*:00000000 os_rte_icc.c
C:\Users\PRESID~1\AppData\Local\Temp\ccQzdMXu.s:18     .text:00000000 $t
C:\Users\PRESID~1\AppData\Local\Temp\ccQzdMXu.s:23     .text:00000000 SEND_DATA
C:\Users\PRESID~1\AppData\Local\Temp\ccQzdMXu.s:65     .text:00000020 SEND_PACKAGE
C:\Users\PRESID~1\AppData\Local\Temp\ccQzdMXu.s:106    .text:00000040 SEND_FRAME
                     .debug_frame:00000010 $d
                           .group:00000000 wm4.0.718a663455c795daf5c6dd176ef70bbe
                           .group:00000000 wm4.os_base_types.h.2.f3c0267f175f5cbacca6b71710665a02
                           .group:00000000 wm4.os_common.h.2.17fb4bbab233edcbaca9a4c22556f36d
                           .group:00000000 wm4.os_stack.h.2.19e5f67d3b2f1e569581f0c055512986
                           .group:00000000 wm4.os_heap.h.2.89074aae455d2462b5952479e3530dd1
                           .group:00000000 wm4.os_task_config.h.2.7cfaa082f19f6144d85c64ce1f04b914
                           .group:00000000 wm4.os_task_common.h.92.310ae0de7be5874c80e3c1d4bf919b37

NO UNDEFINED SYMBOLS
