ARM GAS  C:\Users\PRESID~1\AppData\Local\Temp\ccDGQ3st.s 			page 1


   1              		.cpu cortex-m4
   2              		.eabi_attribute 20, 1
   3              		.eabi_attribute 21, 1
   4              		.eabi_attribute 23, 3
   5              		.eabi_attribute 24, 1
   6              		.eabi_attribute 25, 1
   7              		.eabi_attribute 26, 1
   8              		.eabi_attribute 30, 2
   9              		.eabi_attribute 34, 1
  10              		.eabi_attribute 18, 4
  11              		.file	"os_stack.c"
  12              		.text
  13              	.Ltext0:
  14              		.cfi_sections	.debug_frame
  15              		.align	1
  16              		.p2align 2,,3
  17              		.global	OS_STACK_CHECK
  18              		.arch armv7e-m
  19              		.syntax unified
  20              		.thumb
  21              		.thumb_func
  22              		.fpu softvfp
  24              	OS_STACK_CHECK:
  25              	.LFB0:
  26              		.file 1 "C:\\Users\\president\\Desktop\\sbx\\input\\src\\os_base\\os_stack.c"
   1:C:\Users\president\Desktop\sbx\input\src\os_base\os_stack.c **** #include "os_firstinc.h"
   2:C:\Users\president\Desktop\sbx\input\src\os_base\os_stack.c **** 
   3:C:\Users\president\Desktop\sbx\input\src\os_base\os_stack.c **** void OS_STACK_CHECK(void)
   4:C:\Users\president\Desktop\sbx\input\src\os_base\os_stack.c **** { 
  27              		.loc 1 4 1 view -0
  28              		.cfi_startproc
  29              		@ args = 0, pretend = 0, frame = 0
  30              		@ frame_needed = 0, uses_anonymous_args = 0
   5:C:\Users\president\Desktop\sbx\input\src\os_base\os_stack.c ****    /* the last 64 bytes are reserved for stack check for every stack
   6:C:\Users\president\Desktop\sbx\input\src\os_base\os_stack.c ****    unsigned_char_t OS_MAIN_STACK[OS_MAIN_STACK_SIZE];
   7:C:\Users\president\Desktop\sbx\input\src\os_base\os_stack.c **** 
   8:C:\Users\president\Desktop\sbx\input\src\os_base\os_stack.c ****    the stack is starting at the highest address and growing to lower addresses -> pattern start on 
   9:C:\Users\president\Desktop\sbx\input\src\os_base\os_stack.c **** 
  10:C:\Users\president\Desktop\sbx\input\src\os_base\os_stack.c ****    */
  11:C:\Users\president\Desktop\sbx\input\src\os_base\os_stack.c ****    static volatile uint32 stack_pos = 0u, stack_used = FALSE;
  31              		.loc 1 11 4 view .LVU1
  12:C:\Users\president\Desktop\sbx\input\src\os_base\os_stack.c ****    OS_MAIN_STACK_ADDR = (volatile uint32*)-1u;
  32              		.loc 1 12 4 view .LVU2
   4:C:\Users\president\Desktop\sbx\input\src\os_base\os_stack.c ****    /* the last 64 bytes are reserved for stack check for every stack
  33              		.loc 1 4 1 is_stmt 0 view .LVU3
  34 0000 2DE9F84F 		push	{r3, r4, r5, r6, r7, r8, r9, r10, fp, lr}
  35              		.cfi_def_cfa_offset 40
  36              		.cfi_offset 3, -40
  37              		.cfi_offset 4, -36
  38              		.cfi_offset 5, -32
  39              		.cfi_offset 6, -28
  40              		.cfi_offset 7, -24
  41              		.cfi_offset 8, -20
  42              		.cfi_offset 9, -16
  43              		.cfi_offset 10, -12
  44              		.cfi_offset 11, -8
  45              		.cfi_offset 14, -4
ARM GAS  C:\Users\PRESID~1\AppData\Local\Temp\ccDGQ3st.s 			page 2


  13:C:\Users\president\Desktop\sbx\input\src\os_base\os_stack.c ****    OS_MAIN_STACK_POS =  (volatile uint32) -1u;
  14:C:\Users\president\Desktop\sbx\input\src\os_base\os_stack.c ****    OS_MAIN_STACK_USAGE_PERCENT = 0u;
  15:C:\Users\president\Desktop\sbx\input\src\os_base\os_stack.c **** 
  16:C:\Users\president\Desktop\sbx\input\src\os_base\os_stack.c ****    for(stack_pos = 0; stack_pos < OS_MAIN_STACK_SIZE; stack_pos++)
  46              		.loc 1 16 18 view .LVU4
  47 0004 AC4B     		ldr	r3, .L85
  13:C:\Users\president\Desktop\sbx\input\src\os_base\os_stack.c ****    OS_MAIN_STACK_POS =  (volatile uint32) -1u;
  48              		.loc 1 13 22 view .LVU5
  49 0006 AD4F     		ldr	r7, .L85+4
  14:C:\Users\president\Desktop\sbx\input\src\os_base\os_stack.c **** 
  50              		.loc 1 14 32 view .LVU6
  51 0008 DFF8F0E2 		ldr	lr, .L85+68
  12:C:\Users\president\Desktop\sbx\input\src\os_base\os_stack.c ****    OS_MAIN_STACK_POS =  (volatile uint32) -1u;
  52              		.loc 1 12 23 view .LVU7
  53 000c AC4C     		ldr	r4, .L85+8
  54 000e 4FF0FF32 		mov	r2, #-1
  14:C:\Users\president\Desktop\sbx\input\src\os_base\os_stack.c **** 
  55              		.loc 1 14 32 view .LVU8
  56 0012 0025     		movs	r5, #0
  13:C:\Users\president\Desktop\sbx\input\src\os_base\os_stack.c ****    OS_MAIN_STACK_POS =  (volatile uint32) -1u;
  57              		.loc 1 13 22 view .LVU9
  58 0014 3A60     		str	r2, [r7]
  14:C:\Users\president\Desktop\sbx\input\src\os_base\os_stack.c **** 
  59              		.loc 1 14 32 view .LVU10
  60 0016 CEF80050 		str	r5, [lr]
  61              		.loc 1 16 18 view .LVU11
  62 001a 1D60     		str	r5, [r3]
  63              		.loc 1 16 33 view .LVU12
  64 001c 1868     		ldr	r0, [r3]
  12:C:\Users\president\Desktop\sbx\input\src\os_base\os_stack.c ****    OS_MAIN_STACK_POS =  (volatile uint32) -1u;
  65              		.loc 1 12 23 view .LVU13
  66 001e 2260     		str	r2, [r4]
  13:C:\Users\president\Desktop\sbx\input\src\os_base\os_stack.c ****    OS_MAIN_STACK_POS =  (volatile uint32) -1u;
  67              		.loc 1 13 4 is_stmt 1 view .LVU14
  14:C:\Users\president\Desktop\sbx\input\src\os_base\os_stack.c **** 
  68              		.loc 1 14 4 view .LVU15
  69              		.loc 1 16 4 view .LVU16
  70 0020 B0F5806F 		cmp	r0, #1024
  71 0024 1AD2     		bcs	.L3
  72 0026 A748     		ldr	r0, .L85+12
  73 0028 1146     		mov	r1, r2
  17:C:\Users\president\Desktop\sbx\input\src\os_base\os_stack.c ****    {
  18:C:\Users\president\Desktop\sbx\input\src\os_base\os_stack.c ****       if(OS_MAIN_STACK[stack_pos] != 0xAA)
  19:C:\Users\president\Desktop\sbx\input\src\os_base\os_stack.c ****       {
  20:C:\Users\president\Desktop\sbx\input\src\os_base\os_stack.c ****          stack_used = TRUE;
  74              		.loc 1 20 21 is_stmt 0 view .LVU17
  75 002a 0126     		movs	r6, #1
  76              	.L2:
  18:C:\Users\president\Desktop\sbx\input\src\os_base\os_stack.c ****       {
  77              		.loc 1 18 7 is_stmt 1 view .LVU18
  78              		.loc 1 20 10 view .LVU19
  18:C:\Users\president\Desktop\sbx\input\src\os_base\os_stack.c ****       {
  79              		.loc 1 18 23 is_stmt 0 view .LVU20
  80 002c 1A68     		ldr	r2, [r3]
  18:C:\Users\president\Desktop\sbx\input\src\os_base\os_stack.c ****       {
  81              		.loc 1 18 9 view .LVU21
  82 002e 825C     		ldrb	r2, [r0, r2]	@ zero_extendqisi2
ARM GAS  C:\Users\PRESID~1\AppData\Local\Temp\ccDGQ3st.s 			page 3


  83 0030 AA2A     		cmp	r2, #170
  84 0032 0AD0     		beq	.L4
  21:C:\Users\president\Desktop\sbx\input\src\os_base\os_stack.c ****          if(stack_pos < OS_MAIN_STACK_POS)
  22:C:\Users\president\Desktop\sbx\input\src\os_base\os_stack.c ****          {
  23:C:\Users\president\Desktop\sbx\input\src\os_base\os_stack.c ****             OS_MAIN_STACK_POS  = (volatile uint32 )stack_pos;
  85              		.loc 1 23 13 is_stmt 1 view .LVU22
  20:C:\Users\president\Desktop\sbx\input\src\os_base\os_stack.c ****          if(stack_pos < OS_MAIN_STACK_POS)
  86              		.loc 1 20 21 is_stmt 0 view .LVU23
  87 0034 5E60     		str	r6, [r3, #4]
  21:C:\Users\president\Desktop\sbx\input\src\os_base\os_stack.c ****          if(stack_pos < OS_MAIN_STACK_POS)
  88              		.loc 1 21 10 is_stmt 1 view .LVU24
  21:C:\Users\president\Desktop\sbx\input\src\os_base\os_stack.c ****          if(stack_pos < OS_MAIN_STACK_POS)
  89              		.loc 1 21 23 is_stmt 0 view .LVU25
  90 0036 D3F800C0 		ldr	ip, [r3]
  91 003a 3A68     		ldr	r2, [r7]
  21:C:\Users\president\Desktop\sbx\input\src\os_base\os_stack.c ****          if(stack_pos < OS_MAIN_STACK_POS)
  92              		.loc 1 21 12 view .LVU26
  93 003c 9445     		cmp	ip, r2
  94 003e 04D2     		bcs	.L4
  95              		.loc 1 23 32 view .LVU27
  96 0040 1A68     		ldr	r2, [r3]
  97 0042 3A60     		str	r2, [r7]
  24:C:\Users\president\Desktop\sbx\input\src\os_base\os_stack.c ****             OS_MAIN_STACK_ADDR = (volatile uint32*)&OS_MAIN_STACK[stack_pos];
  98              		.loc 1 24 13 is_stmt 1 view .LVU28
  99              		.loc 1 24 66 is_stmt 0 view .LVU29
 100 0044 1968     		ldr	r1, [r3]
 101              		.loc 1 24 52 view .LVU30
 102 0046 0125     		movs	r5, #1
 103 0048 0144     		add	r1, r1, r0
 104              	.L4:
  16:C:\Users\president\Desktop\sbx\input\src\os_base\os_stack.c ****    {
 105              		.loc 1 16 64 discriminator 2 view .LVU31
 106 004a 1A68     		ldr	r2, [r3]
 107 004c 0132     		adds	r2, r2, #1
 108 004e 1A60     		str	r2, [r3]
  16:C:\Users\president\Desktop\sbx\input\src\os_base\os_stack.c ****    {
 109              		.loc 1 16 33 discriminator 2 view .LVU32
 110 0050 1A68     		ldr	r2, [r3]
  16:C:\Users\president\Desktop\sbx\input\src\os_base\os_stack.c ****    {
 111              		.loc 1 16 4 discriminator 2 view .LVU33
 112 0052 B2F5806F 		cmp	r2, #1024
 113 0056 E9D3     		bcc	.L2
 114 0058 05B1     		cbz	r5, .L3
 115 005a 2160     		str	r1, [r4]
 116              	.L3:
  25:C:\Users\president\Desktop\sbx\input\src\os_base\os_stack.c ****          }
  26:C:\Users\president\Desktop\sbx\input\src\os_base\os_stack.c ****       }
  27:C:\Users\president\Desktop\sbx\input\src\os_base\os_stack.c ****    }
  28:C:\Users\president\Desktop\sbx\input\src\os_base\os_stack.c ****    for(stack_pos = 0; stack_pos < TASK0_STACK_SIZE; stack_pos++)
 117              		.loc 1 28 4 is_stmt 1 view .LVU34
 118              		.loc 1 28 18 is_stmt 0 view .LVU35
 119 005c 0021     		movs	r1, #0
 120 005e 1960     		str	r1, [r3]
 121              		.loc 1 28 33 view .LVU36
 122 0060 1A68     		ldr	r2, [r3]
 123              		.loc 1 28 4 view .LVU37
 124 0062 B2F5FA6F 		cmp	r2, #2000
ARM GAS  C:\Users\PRESID~1\AppData\Local\Temp\ccDGQ3st.s 			page 4


 125 0066 80F07481 		bcs	.L79
 126 006a 974D     		ldr	r5, .L85+16
 127 006c 974C     		ldr	r4, .L85+20
 128 006e 2868     		ldr	r0, [r5]
 129 0070 974E     		ldr	r6, .L85+24
  29:C:\Users\president\Desktop\sbx\input\src\os_base\os_stack.c ****    {
  30:C:\Users\president\Desktop\sbx\input\src\os_base\os_stack.c ****       if(TASK0_STACK[stack_pos] != 0xAA)
  31:C:\Users\president\Desktop\sbx\input\src\os_base\os_stack.c ****       {
  32:C:\Users\president\Desktop\sbx\input\src\os_base\os_stack.c ****          stack_used = TRUE;
 130              		.loc 1 32 21 view .LVU38
 131 0072 4FF0010C 		mov	ip, #1
 132              	.L9:
  30:C:\Users\president\Desktop\sbx\input\src\os_base\os_stack.c ****       {
 133              		.loc 1 30 7 is_stmt 1 view .LVU39
 134              		.loc 1 32 10 view .LVU40
  30:C:\Users\president\Desktop\sbx\input\src\os_base\os_stack.c ****       {
 135              		.loc 1 30 21 is_stmt 0 view .LVU41
 136 0076 1A68     		ldr	r2, [r3]
  30:C:\Users\president\Desktop\sbx\input\src\os_base\os_stack.c ****       {
 137              		.loc 1 30 9 view .LVU42
 138 0078 A25C     		ldrb	r2, [r4, r2]	@ zero_extendqisi2
 139 007a AA2A     		cmp	r2, #170
 140 007c 0BD0     		beq	.L8
  33:C:\Users\president\Desktop\sbx\input\src\os_base\os_stack.c ****          if(stack_pos < TASK0_STACK_POS)
  34:C:\Users\president\Desktop\sbx\input\src\os_base\os_stack.c ****          {
  35:C:\Users\president\Desktop\sbx\input\src\os_base\os_stack.c ****             TASK0_STACK_POS  = (volatile uint32 )stack_pos;
 141              		.loc 1 35 13 is_stmt 1 view .LVU43
  32:C:\Users\president\Desktop\sbx\input\src\os_base\os_stack.c ****          if(stack_pos < TASK0_STACK_POS)
 142              		.loc 1 32 21 is_stmt 0 view .LVU44
 143 007e C3F804C0 		str	ip, [r3, #4]
  33:C:\Users\president\Desktop\sbx\input\src\os_base\os_stack.c ****          if(stack_pos < TASK0_STACK_POS)
 144              		.loc 1 33 10 is_stmt 1 view .LVU45
  33:C:\Users\president\Desktop\sbx\input\src\os_base\os_stack.c ****          if(stack_pos < TASK0_STACK_POS)
 145              		.loc 1 33 23 is_stmt 0 view .LVU46
 146 0082 D3F80080 		ldr	r8, [r3]
 147 0086 3268     		ldr	r2, [r6]
  33:C:\Users\president\Desktop\sbx\input\src\os_base\os_stack.c ****          if(stack_pos < TASK0_STACK_POS)
 148              		.loc 1 33 12 view .LVU47
 149 0088 9045     		cmp	r8, r2
 150 008a 04D2     		bcs	.L8
 151              		.loc 1 35 30 view .LVU48
 152 008c 1A68     		ldr	r2, [r3]
 153 008e 3260     		str	r2, [r6]
  36:C:\Users\president\Desktop\sbx\input\src\os_base\os_stack.c ****             TASK0_STACK_ADDR = (volatile uint32*)&TASK0_STACK[stack_pos];
 154              		.loc 1 36 13 is_stmt 1 view .LVU49
 155              		.loc 1 36 62 is_stmt 0 view .LVU50
 156 0090 1868     		ldr	r0, [r3]
 157              		.loc 1 36 50 view .LVU51
 158 0092 0121     		movs	r1, #1
 159 0094 2044     		add	r0, r0, r4
 160              	.L8:
  28:C:\Users\president\Desktop\sbx\input\src\os_base\os_stack.c ****    {
 161              		.loc 1 28 62 discriminator 2 view .LVU52
 162 0096 1A68     		ldr	r2, [r3]
 163 0098 0132     		adds	r2, r2, #1
 164 009a 1A60     		str	r2, [r3]
  28:C:\Users\president\Desktop\sbx\input\src\os_base\os_stack.c ****    {
ARM GAS  C:\Users\PRESID~1\AppData\Local\Temp\ccDGQ3st.s 			page 5


 165              		.loc 1 28 33 discriminator 2 view .LVU53
 166 009c 1A68     		ldr	r2, [r3]
  28:C:\Users\president\Desktop\sbx\input\src\os_base\os_stack.c ****    {
 167              		.loc 1 28 4 discriminator 2 view .LVU54
 168 009e B2F5FA6F 		cmp	r2, #2000
 169 00a2 E8D3     		bcc	.L9
 170 00a4 01B1     		cbz	r1, .L7
 171 00a6 2860     		str	r0, [r5]
 172              	.L7:
  37:C:\Users\president\Desktop\sbx\input\src\os_base\os_stack.c ****          }
  38:C:\Users\president\Desktop\sbx\input\src\os_base\os_stack.c ****       }
  39:C:\Users\president\Desktop\sbx\input\src\os_base\os_stack.c ****    }
  40:C:\Users\president\Desktop\sbx\input\src\os_base\os_stack.c ****    for(stack_pos = 0; stack_pos < TASK1_STACK_SIZE; stack_pos++)
 173              		.loc 1 40 4 is_stmt 1 view .LVU55
 174              		.loc 1 40 18 is_stmt 0 view .LVU56
 175 00a8 0021     		movs	r1, #0
 176 00aa 1960     		str	r1, [r3]
 177              		.loc 1 40 33 view .LVU57
 178 00ac 1A68     		ldr	r2, [r3]
 179              		.loc 1 40 4 view .LVU58
 180 00ae B2F5FA6F 		cmp	r2, #2000
 181 00b2 80F05081 		bcs	.L80
 182 00b6 DFF848C2 		ldr	ip, .L85+72
 183 00ba 864C     		ldr	r4, .L85+28
 184 00bc DCF80000 		ldr	r0, [ip]
 185 00c0 854D     		ldr	r5, .L85+32
  41:C:\Users\president\Desktop\sbx\input\src\os_base\os_stack.c ****    {
  42:C:\Users\president\Desktop\sbx\input\src\os_base\os_stack.c ****       if(TASK1_STACK[stack_pos] != 0xAA)
  43:C:\Users\president\Desktop\sbx\input\src\os_base\os_stack.c ****       {
  44:C:\Users\president\Desktop\sbx\input\src\os_base\os_stack.c ****          stack_used = TRUE;
 186              		.loc 1 44 21 view .LVU59
 187 00c2 4FF00108 		mov	r8, #1
 188              	.L14:
  42:C:\Users\president\Desktop\sbx\input\src\os_base\os_stack.c ****       {
 189              		.loc 1 42 7 is_stmt 1 view .LVU60
 190              		.loc 1 44 10 view .LVU61
  42:C:\Users\president\Desktop\sbx\input\src\os_base\os_stack.c ****       {
 191              		.loc 1 42 21 is_stmt 0 view .LVU62
 192 00c6 1A68     		ldr	r2, [r3]
  42:C:\Users\president\Desktop\sbx\input\src\os_base\os_stack.c ****       {
 193              		.loc 1 42 9 view .LVU63
 194 00c8 A25C     		ldrb	r2, [r4, r2]	@ zero_extendqisi2
 195 00ca AA2A     		cmp	r2, #170
 196 00cc 0BD0     		beq	.L13
  45:C:\Users\president\Desktop\sbx\input\src\os_base\os_stack.c ****          if(stack_pos < TASK1_STACK_POS)
  46:C:\Users\president\Desktop\sbx\input\src\os_base\os_stack.c ****          {
  47:C:\Users\president\Desktop\sbx\input\src\os_base\os_stack.c ****             TASK1_STACK_POS  = (volatile uint32 )stack_pos;
 197              		.loc 1 47 13 is_stmt 1 view .LVU64
  44:C:\Users\president\Desktop\sbx\input\src\os_base\os_stack.c ****          if(stack_pos < TASK1_STACK_POS)
 198              		.loc 1 44 21 is_stmt 0 view .LVU65
 199 00ce C3F80480 		str	r8, [r3, #4]
  45:C:\Users\president\Desktop\sbx\input\src\os_base\os_stack.c ****          if(stack_pos < TASK1_STACK_POS)
 200              		.loc 1 45 10 is_stmt 1 view .LVU66
  45:C:\Users\president\Desktop\sbx\input\src\os_base\os_stack.c ****          if(stack_pos < TASK1_STACK_POS)
 201              		.loc 1 45 23 is_stmt 0 view .LVU67
 202 00d2 D3F80090 		ldr	r9, [r3]
 203 00d6 2A68     		ldr	r2, [r5]
ARM GAS  C:\Users\PRESID~1\AppData\Local\Temp\ccDGQ3st.s 			page 6


  45:C:\Users\president\Desktop\sbx\input\src\os_base\os_stack.c ****          if(stack_pos < TASK1_STACK_POS)
 204              		.loc 1 45 12 view .LVU68
 205 00d8 9145     		cmp	r9, r2
 206 00da 04D2     		bcs	.L13
 207              		.loc 1 47 30 view .LVU69
 208 00dc 1A68     		ldr	r2, [r3]
 209 00de 2A60     		str	r2, [r5]
  48:C:\Users\president\Desktop\sbx\input\src\os_base\os_stack.c ****             TASK1_STACK_ADDR = (volatile uint32*)&TASK1_STACK[stack_pos];
 210              		.loc 1 48 13 is_stmt 1 view .LVU70
 211              		.loc 1 48 62 is_stmt 0 view .LVU71
 212 00e0 1868     		ldr	r0, [r3]
 213              		.loc 1 48 50 view .LVU72
 214 00e2 0121     		movs	r1, #1
 215 00e4 2044     		add	r0, r0, r4
 216              	.L13:
  40:C:\Users\president\Desktop\sbx\input\src\os_base\os_stack.c ****    {
 217              		.loc 1 40 62 discriminator 2 view .LVU73
 218 00e6 1A68     		ldr	r2, [r3]
 219 00e8 0132     		adds	r2, r2, #1
 220 00ea 1A60     		str	r2, [r3]
  40:C:\Users\president\Desktop\sbx\input\src\os_base\os_stack.c ****    {
 221              		.loc 1 40 33 discriminator 2 view .LVU74
 222 00ec 1A68     		ldr	r2, [r3]
  40:C:\Users\president\Desktop\sbx\input\src\os_base\os_stack.c ****    {
 223              		.loc 1 40 4 discriminator 2 view .LVU75
 224 00ee B2F5FA6F 		cmp	r2, #2000
 225 00f2 E8D3     		bcc	.L14
 226 00f4 09B1     		cbz	r1, .L12
 227 00f6 CCF80000 		str	r0, [ip]
 228              	.L12:
  49:C:\Users\president\Desktop\sbx\input\src\os_base\os_stack.c ****          }
  50:C:\Users\president\Desktop\sbx\input\src\os_base\os_stack.c ****       }
  51:C:\Users\president\Desktop\sbx\input\src\os_base\os_stack.c ****    }
  52:C:\Users\president\Desktop\sbx\input\src\os_base\os_stack.c ****    for(stack_pos = 0; stack_pos < TASK2_STACK_SIZE; stack_pos++)
 229              		.loc 1 52 4 is_stmt 1 view .LVU76
 230              		.loc 1 52 18 is_stmt 0 view .LVU77
 231 00fa 0021     		movs	r1, #0
 232 00fc 1960     		str	r1, [r3]
 233              		.loc 1 52 33 view .LVU78
 234 00fe 1A68     		ldr	r2, [r3]
 235              		.loc 1 52 4 view .LVU79
 236 0100 B2F5FA6F 		cmp	r2, #2000
 237 0104 80F02981 		bcs	.L81
 238 0108 DFF8F881 		ldr	r8, .L85+76
 239 010c DFF8F8C1 		ldr	ip, .L85+80
 240 0110 D8F80000 		ldr	r0, [r8]
 241 0114 714C     		ldr	r4, .L85+36
  53:C:\Users\president\Desktop\sbx\input\src\os_base\os_stack.c ****    {
  54:C:\Users\president\Desktop\sbx\input\src\os_base\os_stack.c ****       if(TASK2_STACK[stack_pos] != 0xAA)
  55:C:\Users\president\Desktop\sbx\input\src\os_base\os_stack.c ****       {
  56:C:\Users\president\Desktop\sbx\input\src\os_base\os_stack.c ****          stack_used = TRUE;
 242              		.loc 1 56 21 view .LVU80
 243 0116 4FF00109 		mov	r9, #1
 244              	.L19:
  54:C:\Users\president\Desktop\sbx\input\src\os_base\os_stack.c ****       {
 245              		.loc 1 54 7 is_stmt 1 view .LVU81
 246              		.loc 1 56 10 view .LVU82
ARM GAS  C:\Users\PRESID~1\AppData\Local\Temp\ccDGQ3st.s 			page 7


  54:C:\Users\president\Desktop\sbx\input\src\os_base\os_stack.c ****       {
 247              		.loc 1 54 21 is_stmt 0 view .LVU83
 248 011a 1A68     		ldr	r2, [r3]
  54:C:\Users\president\Desktop\sbx\input\src\os_base\os_stack.c ****       {
 249              		.loc 1 54 9 view .LVU84
 250 011c 1CF80220 		ldrb	r2, [ip, r2]	@ zero_extendqisi2
 251 0120 AA2A     		cmp	r2, #170
 252 0122 0BD0     		beq	.L18
  57:C:\Users\president\Desktop\sbx\input\src\os_base\os_stack.c ****          if(stack_pos < TASK2_STACK_POS)
  58:C:\Users\president\Desktop\sbx\input\src\os_base\os_stack.c ****          {
  59:C:\Users\president\Desktop\sbx\input\src\os_base\os_stack.c ****             TASK2_STACK_POS  = (volatile uint32 )stack_pos;
 253              		.loc 1 59 13 is_stmt 1 view .LVU85
  56:C:\Users\president\Desktop\sbx\input\src\os_base\os_stack.c ****          if(stack_pos < TASK2_STACK_POS)
 254              		.loc 1 56 21 is_stmt 0 view .LVU86
 255 0124 C3F80490 		str	r9, [r3, #4]
  57:C:\Users\president\Desktop\sbx\input\src\os_base\os_stack.c ****          if(stack_pos < TASK2_STACK_POS)
 256              		.loc 1 57 10 is_stmt 1 view .LVU87
  57:C:\Users\president\Desktop\sbx\input\src\os_base\os_stack.c ****          if(stack_pos < TASK2_STACK_POS)
 257              		.loc 1 57 23 is_stmt 0 view .LVU88
 258 0128 D3F800A0 		ldr	r10, [r3]
 259 012c 2268     		ldr	r2, [r4]
  57:C:\Users\president\Desktop\sbx\input\src\os_base\os_stack.c ****          if(stack_pos < TASK2_STACK_POS)
 260              		.loc 1 57 12 view .LVU89
 261 012e 9245     		cmp	r10, r2
 262 0130 04D2     		bcs	.L18
 263              		.loc 1 59 30 view .LVU90
 264 0132 1A68     		ldr	r2, [r3]
 265 0134 2260     		str	r2, [r4]
  60:C:\Users\president\Desktop\sbx\input\src\os_base\os_stack.c ****             TASK2_STACK_ADDR = (volatile uint32*)&TASK2_STACK[stack_pos];
 266              		.loc 1 60 13 is_stmt 1 view .LVU91
 267              		.loc 1 60 62 is_stmt 0 view .LVU92
 268 0136 1868     		ldr	r0, [r3]
 269              		.loc 1 60 50 view .LVU93
 270 0138 0121     		movs	r1, #1
 271 013a 6044     		add	r0, r0, ip
 272              	.L18:
  52:C:\Users\president\Desktop\sbx\input\src\os_base\os_stack.c ****    {
 273              		.loc 1 52 62 discriminator 2 view .LVU94
 274 013c 1A68     		ldr	r2, [r3]
 275 013e 0132     		adds	r2, r2, #1
 276 0140 1A60     		str	r2, [r3]
  52:C:\Users\president\Desktop\sbx\input\src\os_base\os_stack.c ****    {
 277              		.loc 1 52 33 discriminator 2 view .LVU95
 278 0142 1A68     		ldr	r2, [r3]
  52:C:\Users\president\Desktop\sbx\input\src\os_base\os_stack.c ****    {
 279              		.loc 1 52 4 discriminator 2 view .LVU96
 280 0144 B2F5FA6F 		cmp	r2, #2000
 281 0148 E7D3     		bcc	.L19
 282 014a 09B1     		cbz	r1, .L17
 283 014c C8F80000 		str	r0, [r8]
 284              	.L17:
  61:C:\Users\president\Desktop\sbx\input\src\os_base\os_stack.c ****          }
  62:C:\Users\president\Desktop\sbx\input\src\os_base\os_stack.c ****       }
  63:C:\Users\president\Desktop\sbx\input\src\os_base\os_stack.c ****    }
  64:C:\Users\president\Desktop\sbx\input\src\os_base\os_stack.c ****    for(stack_pos = 0; stack_pos < TASK3_STACK_SIZE; stack_pos++)
 285              		.loc 1 64 4 is_stmt 1 view .LVU97
 286              		.loc 1 64 18 is_stmt 0 view .LVU98
ARM GAS  C:\Users\PRESID~1\AppData\Local\Temp\ccDGQ3st.s 			page 8


 287 0150 0021     		movs	r1, #0
 288 0152 1960     		str	r1, [r3]
 289              		.loc 1 64 33 view .LVU99
 290 0154 1A68     		ldr	r2, [r3]
 291              		.loc 1 64 4 view .LVU100
 292 0156 B2F5FA6F 		cmp	r2, #2000
 293 015a 80F00081 		bcs	.L82
 294 015e DFF8AC91 		ldr	r9, .L85+84
 295 0162 DFF8AC81 		ldr	r8, .L85+88
 296 0166 D9F800C0 		ldr	ip, [r9]
 297 016a 5D48     		ldr	r0, .L85+40
  65:C:\Users\president\Desktop\sbx\input\src\os_base\os_stack.c ****    {
  66:C:\Users\president\Desktop\sbx\input\src\os_base\os_stack.c ****       if(TASK3_STACK[stack_pos] != 0xAA)
  67:C:\Users\president\Desktop\sbx\input\src\os_base\os_stack.c ****       {
  68:C:\Users\president\Desktop\sbx\input\src\os_base\os_stack.c ****          stack_used = TRUE;
 298              		.loc 1 68 21 view .LVU101
 299 016c 4FF0010A 		mov	r10, #1
 300              	.L24:
  66:C:\Users\president\Desktop\sbx\input\src\os_base\os_stack.c ****       {
 301              		.loc 1 66 7 is_stmt 1 view .LVU102
 302              		.loc 1 68 10 view .LVU103
  66:C:\Users\president\Desktop\sbx\input\src\os_base\os_stack.c ****       {
 303              		.loc 1 66 21 is_stmt 0 view .LVU104
 304 0170 1A68     		ldr	r2, [r3]
  66:C:\Users\president\Desktop\sbx\input\src\os_base\os_stack.c ****       {
 305              		.loc 1 66 9 view .LVU105
 306 0172 18F80220 		ldrb	r2, [r8, r2]	@ zero_extendqisi2
 307 0176 AA2A     		cmp	r2, #170
 308 0178 0CD0     		beq	.L23
  69:C:\Users\president\Desktop\sbx\input\src\os_base\os_stack.c ****          if(stack_pos < TASK3_STACK_POS)
  70:C:\Users\president\Desktop\sbx\input\src\os_base\os_stack.c ****          {
  71:C:\Users\president\Desktop\sbx\input\src\os_base\os_stack.c ****             TASK3_STACK_POS  = (volatile uint32 )stack_pos;
 309              		.loc 1 71 13 is_stmt 1 view .LVU106
  68:C:\Users\president\Desktop\sbx\input\src\os_base\os_stack.c ****          if(stack_pos < TASK3_STACK_POS)
 310              		.loc 1 68 21 is_stmt 0 view .LVU107
 311 017a C3F804A0 		str	r10, [r3, #4]
  69:C:\Users\president\Desktop\sbx\input\src\os_base\os_stack.c ****          if(stack_pos < TASK3_STACK_POS)
 312              		.loc 1 69 10 is_stmt 1 view .LVU108
  69:C:\Users\president\Desktop\sbx\input\src\os_base\os_stack.c ****          if(stack_pos < TASK3_STACK_POS)
 313              		.loc 1 69 23 is_stmt 0 view .LVU109
 314 017e D3F800B0 		ldr	fp, [r3]
 315 0182 0268     		ldr	r2, [r0]
  69:C:\Users\president\Desktop\sbx\input\src\os_base\os_stack.c ****          if(stack_pos < TASK3_STACK_POS)
 316              		.loc 1 69 12 view .LVU110
 317 0184 9345     		cmp	fp, r2
 318 0186 05D2     		bcs	.L23
 319              		.loc 1 71 30 view .LVU111
 320 0188 1A68     		ldr	r2, [r3]
 321 018a 0260     		str	r2, [r0]
  72:C:\Users\president\Desktop\sbx\input\src\os_base\os_stack.c ****             TASK3_STACK_ADDR = (volatile uint32*)&TASK3_STACK[stack_pos];
 322              		.loc 1 72 13 is_stmt 1 view .LVU112
 323              		.loc 1 72 62 is_stmt 0 view .LVU113
 324 018c 1A68     		ldr	r2, [r3]
 325              		.loc 1 72 50 view .LVU114
 326 018e 0121     		movs	r1, #1
 327 0190 08EB020C 		add	ip, r8, r2
 328              	.L23:
ARM GAS  C:\Users\PRESID~1\AppData\Local\Temp\ccDGQ3st.s 			page 9


  64:C:\Users\president\Desktop\sbx\input\src\os_base\os_stack.c ****    {
 329              		.loc 1 64 62 discriminator 2 view .LVU115
 330 0194 1A68     		ldr	r2, [r3]
 331 0196 0132     		adds	r2, r2, #1
 332 0198 1A60     		str	r2, [r3]
  64:C:\Users\president\Desktop\sbx\input\src\os_base\os_stack.c ****    {
 333              		.loc 1 64 33 discriminator 2 view .LVU116
 334 019a 1A68     		ldr	r2, [r3]
  64:C:\Users\president\Desktop\sbx\input\src\os_base\os_stack.c ****    {
 335              		.loc 1 64 4 discriminator 2 view .LVU117
 336 019c B2F5FA6F 		cmp	r2, #2000
 337 01a0 E6D3     		bcc	.L24
 338 01a2 09B1     		cbz	r1, .L22
 339 01a4 C9F800C0 		str	ip, [r9]
 340              	.L22:
  73:C:\Users\president\Desktop\sbx\input\src\os_base\os_stack.c ****          }
  74:C:\Users\president\Desktop\sbx\input\src\os_base\os_stack.c ****       }
  75:C:\Users\president\Desktop\sbx\input\src\os_base\os_stack.c ****    }
  76:C:\Users\president\Desktop\sbx\input\src\os_base\os_stack.c ****    for(stack_pos = 0; stack_pos < TASK4_STACK_SIZE; stack_pos++)
 341              		.loc 1 76 4 is_stmt 1 view .LVU118
 342              		.loc 1 76 18 is_stmt 0 view .LVU119
 343 01a8 0022     		movs	r2, #0
 344 01aa 1A60     		str	r2, [r3]
 345              		.loc 1 76 33 view .LVU120
 346 01ac 1968     		ldr	r1, [r3]
 347              		.loc 1 76 4 view .LVU121
 348 01ae B1F5FA6F 		cmp	r1, #2000
 349 01b2 80F0D680 		bcs	.L83
 350 01b6 DFF85C91 		ldr	r9, .L85+92
 351 01ba DFF85C81 		ldr	r8, .L85+96
 352 01be D9F800C0 		ldr	ip, [r9]
 353 01c2 4849     		ldr	r1, .L85+44
  77:C:\Users\president\Desktop\sbx\input\src\os_base\os_stack.c ****    {
  78:C:\Users\president\Desktop\sbx\input\src\os_base\os_stack.c ****       if(TASK4_STACK[stack_pos] != 0xAA)
  79:C:\Users\president\Desktop\sbx\input\src\os_base\os_stack.c ****       {
  80:C:\Users\president\Desktop\sbx\input\src\os_base\os_stack.c ****          stack_used = TRUE;
 354              		.loc 1 80 21 view .LVU122
 355 01c4 9246     		mov	r10, r2
 356              	.L29:
  78:C:\Users\president\Desktop\sbx\input\src\os_base\os_stack.c ****       {
 357              		.loc 1 78 7 is_stmt 1 view .LVU123
 358              		.loc 1 80 10 view .LVU124
  78:C:\Users\president\Desktop\sbx\input\src\os_base\os_stack.c ****       {
 359              		.loc 1 78 21 is_stmt 0 view .LVU125
 360 01c6 1A68     		ldr	r2, [r3]
  78:C:\Users\president\Desktop\sbx\input\src\os_base\os_stack.c ****       {
 361              		.loc 1 78 9 view .LVU126
 362 01c8 18F80220 		ldrb	r2, [r8, r2]	@ zero_extendqisi2
 363 01cc AA2A     		cmp	r2, #170
 364 01ce 0DD0     		beq	.L28
  81:C:\Users\president\Desktop\sbx\input\src\os_base\os_stack.c ****          if(stack_pos < TASK4_STACK_POS)
  82:C:\Users\president\Desktop\sbx\input\src\os_base\os_stack.c ****          {
  83:C:\Users\president\Desktop\sbx\input\src\os_base\os_stack.c ****             TASK4_STACK_POS  = (volatile uint32 )stack_pos;
 365              		.loc 1 83 13 is_stmt 1 view .LVU127
  80:C:\Users\president\Desktop\sbx\input\src\os_base\os_stack.c ****          if(stack_pos < TASK4_STACK_POS)
 366              		.loc 1 80 21 is_stmt 0 view .LVU128
 367 01d0 0122     		movs	r2, #1
ARM GAS  C:\Users\PRESID~1\AppData\Local\Temp\ccDGQ3st.s 			page 10


 368 01d2 5A60     		str	r2, [r3, #4]
  81:C:\Users\president\Desktop\sbx\input\src\os_base\os_stack.c ****          if(stack_pos < TASK4_STACK_POS)
 369              		.loc 1 81 10 is_stmt 1 view .LVU129
  81:C:\Users\president\Desktop\sbx\input\src\os_base\os_stack.c ****          if(stack_pos < TASK4_STACK_POS)
 370              		.loc 1 81 23 is_stmt 0 view .LVU130
 371 01d4 D3F800B0 		ldr	fp, [r3]
 372 01d8 0A68     		ldr	r2, [r1]
  81:C:\Users\president\Desktop\sbx\input\src\os_base\os_stack.c ****          if(stack_pos < TASK4_STACK_POS)
 373              		.loc 1 81 12 view .LVU131
 374 01da 9345     		cmp	fp, r2
 375 01dc 06D2     		bcs	.L28
 376              		.loc 1 83 30 view .LVU132
 377 01de 1A68     		ldr	r2, [r3]
 378 01e0 0A60     		str	r2, [r1]
  84:C:\Users\president\Desktop\sbx\input\src\os_base\os_stack.c ****             TASK4_STACK_ADDR = (volatile uint32*)&TASK4_STACK[stack_pos];
 379              		.loc 1 84 13 is_stmt 1 view .LVU133
 380              		.loc 1 84 62 is_stmt 0 view .LVU134
 381 01e2 1A68     		ldr	r2, [r3]
 382              		.loc 1 84 50 view .LVU135
 383 01e4 4FF0010A 		mov	r10, #1
 384 01e8 08EB020C 		add	ip, r8, r2
 385              	.L28:
  76:C:\Users\president\Desktop\sbx\input\src\os_base\os_stack.c ****    {
 386              		.loc 1 76 62 discriminator 2 view .LVU136
 387 01ec 1A68     		ldr	r2, [r3]
 388 01ee 0132     		adds	r2, r2, #1
 389 01f0 1A60     		str	r2, [r3]
  76:C:\Users\president\Desktop\sbx\input\src\os_base\os_stack.c ****    {
 390              		.loc 1 76 33 discriminator 2 view .LVU137
 391 01f2 1A68     		ldr	r2, [r3]
  76:C:\Users\president\Desktop\sbx\input\src\os_base\os_stack.c ****    {
 392              		.loc 1 76 4 discriminator 2 view .LVU138
 393 01f4 B2F5FA6F 		cmp	r2, #2000
 394 01f8 E5D3     		bcc	.L29
 395 01fa 5246     		mov	r2, r10
 396 01fc 0AB1     		cbz	r2, .L27
 397 01fe C9F800C0 		str	ip, [r9]
 398              	.L27:
  85:C:\Users\president\Desktop\sbx\input\src\os_base\os_stack.c ****          }
  86:C:\Users\president\Desktop\sbx\input\src\os_base\os_stack.c ****       }
  87:C:\Users\president\Desktop\sbx\input\src\os_base\os_stack.c ****    }   
  88:C:\Users\president\Desktop\sbx\input\src\os_base\os_stack.c ****    OS_MAIN_STACK_USAGE_PERCENT = (OS_MAIN_STACK_SIZE - OS_MAIN_STACK_POS) * 100u / OS_MAIN_STACK_SI
 399              		.loc 1 88 4 is_stmt 1 view .LVU139
 400              		.loc 1 88 75 is_stmt 0 view .LVU140
 401 0202 D7F80080 		ldr	r8, [r7]
  89:C:\Users\president\Desktop\sbx\input\src\os_base\os_stack.c ****    TASK0_STACK_USAGE_PERCENT   = (TASK0_STACK_SIZE - TASK0_STACK_POS) * 100u / TASK0_STACK_SIZE;
 402              		.loc 1 89 78 view .LVU141
 403 0206 384F     		ldr	r7, .L85+48
 404              		.loc 1 89 32 view .LVU142
 405 0208 DFF810C1 		ldr	ip, .L85+100
  88:C:\Users\president\Desktop\sbx\input\src\os_base\os_stack.c ****    TASK0_STACK_USAGE_PERCENT   = (TASK0_STACK_SIZE - TASK0_STACK_POS) * 100u / TASK0_STACK_SIZE;
 406              		.loc 1 88 75 view .LVU143
 407 020c 6FF06302 		mvn	r2, #99
 408 0210 02FB08F8 		mul	r8, r2, r8
 409 0214 08F5C838 		add	r8, r8, #102400
  88:C:\Users\president\Desktop\sbx\input\src\os_base\os_stack.c ****    TASK0_STACK_USAGE_PERCENT   = (TASK0_STACK_SIZE - TASK0_STACK_POS) * 100u / TASK0_STACK_SIZE;
 410              		.loc 1 88 82 view .LVU144
ARM GAS  C:\Users\PRESID~1\AppData\Local\Temp\ccDGQ3st.s 			page 11


 411 0218 4FEA9828 		lsr	r8, r8, #10
  88:C:\Users\president\Desktop\sbx\input\src\os_base\os_stack.c ****    TASK0_STACK_USAGE_PERCENT   = (TASK0_STACK_SIZE - TASK0_STACK_POS) * 100u / TASK0_STACK_SIZE;
 412              		.loc 1 88 32 view .LVU145
 413 021c CEF80080 		str	r8, [lr]
 414              		.loc 1 89 4 is_stmt 1 view .LVU146
 415              		.loc 1 89 71 is_stmt 0 view .LVU147
 416 0220 D6F80080 		ldr	r8, [r6]
  90:C:\Users\president\Desktop\sbx\input\src\os_base\os_stack.c ****    TASK1_STACK_USAGE_PERCENT   = (TASK1_STACK_SIZE - TASK1_STACK_POS) * 100u / TASK1_STACK_SIZE;
 417              		.loc 1 90 32 view .LVU148
 418 0224 314E     		ldr	r6, .L85+52
  89:C:\Users\president\Desktop\sbx\input\src\os_base\os_stack.c ****    TASK0_STACK_USAGE_PERCENT   = (TASK0_STACK_SIZE - TASK0_STACK_POS) * 100u / TASK0_STACK_SIZE;
 419              		.loc 1 89 71 view .LVU149
 420 0226 02FB08F8 		mul	r8, r2, r8
 421 022a 08F54338 		add	r8, r8, #199680
 422 022e 08F5A078 		add	r8, r8, #320
  89:C:\Users\president\Desktop\sbx\input\src\os_base\os_stack.c ****    TASK0_STACK_USAGE_PERCENT   = (TASK0_STACK_SIZE - TASK0_STACK_POS) * 100u / TASK0_STACK_SIZE;
 423              		.loc 1 89 78 view .LVU150
 424 0232 A7FB0898 		umull	r9, r8, r7, r8
 425 0236 4FEAD818 		lsr	r8, r8, #7
  89:C:\Users\president\Desktop\sbx\input\src\os_base\os_stack.c ****    TASK0_STACK_USAGE_PERCENT   = (TASK0_STACK_SIZE - TASK0_STACK_POS) * 100u / TASK0_STACK_SIZE;
 426              		.loc 1 89 32 view .LVU151
 427 023a CCF80080 		str	r8, [ip]
 428              		.loc 1 90 4 is_stmt 1 view .LVU152
 429              		.loc 1 90 71 is_stmt 0 view .LVU153
 430 023e D5F80080 		ldr	r8, [r5]
  91:C:\Users\president\Desktop\sbx\input\src\os_base\os_stack.c ****    TASK2_STACK_USAGE_PERCENT   = (TASK2_STACK_SIZE - TASK2_STACK_POS) * 100u / TASK2_STACK_SIZE;
 431              		.loc 1 91 32 view .LVU154
 432 0242 2B4D     		ldr	r5, .L85+56
  90:C:\Users\president\Desktop\sbx\input\src\os_base\os_stack.c ****    TASK1_STACK_USAGE_PERCENT   = (TASK1_STACK_SIZE - TASK1_STACK_POS) * 100u / TASK1_STACK_SIZE;
 433              		.loc 1 90 71 view .LVU155
 434 0244 02FB08F8 		mul	r8, r2, r8
 435 0248 08F54338 		add	r8, r8, #199680
 436 024c 08F5A078 		add	r8, r8, #320
  90:C:\Users\president\Desktop\sbx\input\src\os_base\os_stack.c ****    TASK1_STACK_USAGE_PERCENT   = (TASK1_STACK_SIZE - TASK1_STACK_POS) * 100u / TASK1_STACK_SIZE;
 437              		.loc 1 90 78 view .LVU156
 438 0250 A7FB0898 		umull	r9, r8, r7, r8
 439 0254 4FEAD818 		lsr	r8, r8, #7
  90:C:\Users\president\Desktop\sbx\input\src\os_base\os_stack.c ****    TASK1_STACK_USAGE_PERCENT   = (TASK1_STACK_SIZE - TASK1_STACK_POS) * 100u / TASK1_STACK_SIZE;
 440              		.loc 1 90 32 view .LVU157
 441 0258 C6F80080 		str	r8, [r6]
 442              		.loc 1 91 4 is_stmt 1 view .LVU158
 443              		.loc 1 91 71 is_stmt 0 view .LVU159
 444 025c D4F80080 		ldr	r8, [r4]
  92:C:\Users\president\Desktop\sbx\input\src\os_base\os_stack.c ****    TASK3_STACK_USAGE_PERCENT   = (TASK3_STACK_SIZE - TASK3_STACK_POS) * 100u / TASK3_STACK_SIZE;
 445              		.loc 1 92 32 view .LVU160
 446 0260 244C     		ldr	r4, .L85+60
  91:C:\Users\president\Desktop\sbx\input\src\os_base\os_stack.c ****    TASK2_STACK_USAGE_PERCENT   = (TASK2_STACK_SIZE - TASK2_STACK_POS) * 100u / TASK2_STACK_SIZE;
 447              		.loc 1 91 71 view .LVU161
 448 0262 02FB08F8 		mul	r8, r2, r8
 449 0266 08F54338 		add	r8, r8, #199680
 450 026a 08F5A078 		add	r8, r8, #320
  91:C:\Users\president\Desktop\sbx\input\src\os_base\os_stack.c ****    TASK2_STACK_USAGE_PERCENT   = (TASK2_STACK_SIZE - TASK2_STACK_POS) * 100u / TASK2_STACK_SIZE;
 451              		.loc 1 91 78 view .LVU162
 452 026e A7FB0898 		umull	r9, r8, r7, r8
 453 0272 4FEAD818 		lsr	r8, r8, #7
  91:C:\Users\president\Desktop\sbx\input\src\os_base\os_stack.c ****    TASK2_STACK_USAGE_PERCENT   = (TASK2_STACK_SIZE - TASK2_STACK_POS) * 100u / TASK2_STACK_SIZE;
 454              		.loc 1 91 32 view .LVU163
ARM GAS  C:\Users\PRESID~1\AppData\Local\Temp\ccDGQ3st.s 			page 12


 455 0276 C5F80080 		str	r8, [r5]
 456              		.loc 1 92 4 is_stmt 1 view .LVU164
 457              		.loc 1 92 71 is_stmt 0 view .LVU165
 458 027a D0F80080 		ldr	r8, [r0]
  93:C:\Users\president\Desktop\sbx\input\src\os_base\os_stack.c ****    TASK4_STACK_USAGE_PERCENT   = (TASK4_STACK_SIZE - TASK4_STACK_POS) * 100u / TASK4_STACK_SIZE;
 459              		.loc 1 93 32 view .LVU166
 460 027e 1E48     		ldr	r0, .L85+64
  92:C:\Users\president\Desktop\sbx\input\src\os_base\os_stack.c ****    TASK3_STACK_USAGE_PERCENT   = (TASK3_STACK_SIZE - TASK3_STACK_POS) * 100u / TASK3_STACK_SIZE;
 461              		.loc 1 92 71 view .LVU167
 462 0280 02FB08F8 		mul	r8, r2, r8
 463 0284 08F54338 		add	r8, r8, #199680
 464 0288 08F5A078 		add	r8, r8, #320
  92:C:\Users\president\Desktop\sbx\input\src\os_base\os_stack.c ****    TASK3_STACK_USAGE_PERCENT   = (TASK3_STACK_SIZE - TASK3_STACK_POS) * 100u / TASK3_STACK_SIZE;
 465              		.loc 1 92 78 view .LVU168
 466 028c A7FB0898 		umull	r9, r8, r7, r8
 467 0290 4FEAD818 		lsr	r8, r8, #7
  92:C:\Users\president\Desktop\sbx\input\src\os_base\os_stack.c ****    TASK3_STACK_USAGE_PERCENT   = (TASK3_STACK_SIZE - TASK3_STACK_POS) * 100u / TASK3_STACK_SIZE;
 468              		.loc 1 92 32 view .LVU169
 469 0294 C4F80080 		str	r8, [r4]
 470              		.loc 1 93 4 is_stmt 1 view .LVU170
 471              		.loc 1 93 71 is_stmt 0 view .LVU171
 472 0298 0968     		ldr	r1, [r1]
 473 029a 02FB01F2 		mul	r2, r2, r1
 474 029e 02F54332 		add	r2, r2, #199680
 475 02a2 02F5A072 		add	r2, r2, #320
 476              		.loc 1 93 78 view .LVU172
 477 02a6 A7FB0212 		umull	r1, r2, r7, r2
 478 02aa D209     		lsrs	r2, r2, #7
 479              		.loc 1 93 32 view .LVU173
 480 02ac 0260     		str	r2, [r0]
  94:C:\Users\president\Desktop\sbx\input\src\os_base\os_stack.c **** 
  95:C:\Users\president\Desktop\sbx\input\src\os_base\os_stack.c ****    if((stack_used == TRUE) && ((OS_MAIN_STACK_USAGE_PERCENT > 80u) || (TASK0_STACK_USAGE_PERCENT > 
 481              		.loc 1 95 4 is_stmt 1 view .LVU174
 482              		.loc 1 95 19 is_stmt 0 view .LVU175
 483 02ae 5B68     		ldr	r3, [r3, #4]
 484              		.loc 1 95 6 view .LVU176
 485 02b0 012B     		cmp	r3, #1
 486 02b2 35D0     		beq	.L84
 487              	.L1:
  96:C:\Users\president\Desktop\sbx\input\src\os_base\os_stack.c ****    {
  97:C:\Users\president\Desktop\sbx\input\src\os_base\os_stack.c ****       OS_SET_SW_BUG(E_OS_BUG_CRITICAL_STACK_USAGE,E_FUNC_STACKCHECK);
  98:C:\Users\president\Desktop\sbx\input\src\os_base\os_stack.c ****       while(1)
  99:C:\Users\president\Desktop\sbx\input\src\os_base\os_stack.c ****       {
 100:C:\Users\president\Desktop\sbx\input\src\os_base\os_stack.c ****          /* allow easy debugging */
 101:C:\Users\president\Desktop\sbx\input\src\os_base\os_stack.c ****       }
 102:C:\Users\president\Desktop\sbx\input\src\os_base\os_stack.c ****    }
 103:C:\Users\president\Desktop\sbx\input\src\os_base\os_stack.c **** }
 488              		.loc 1 103 1 view .LVU177
 489 02b4 BDE8F88F 		pop	{r3, r4, r5, r6, r7, r8, r9, r10, fp, pc}
 490              	.L86:
 491              		.align	2
 492              	.L85:
 493 02b8 00000000 		.word	.LANCHOR0
 494 02bc 00000000 		.word	OS_MAIN_STACK_POS
 495 02c0 00000000 		.word	OS_MAIN_STACK_ADDR
 496 02c4 00000000 		.word	OS_MAIN_STACK
 497 02c8 00000000 		.word	TASK0_STACK_ADDR
ARM GAS  C:\Users\PRESID~1\AppData\Local\Temp\ccDGQ3st.s 			page 13


 498 02cc 00000000 		.word	TASK0_STACK
 499 02d0 00000000 		.word	TASK0_STACK_POS
 500 02d4 00000000 		.word	TASK1_STACK
 501 02d8 00000000 		.word	TASK1_STACK_POS
 502 02dc 00000000 		.word	TASK2_STACK_POS
 503 02e0 00000000 		.word	TASK3_STACK_POS
 504 02e4 00000000 		.word	TASK4_STACK_POS
 505 02e8 D34D6210 		.word	274877907
 506 02ec 00000000 		.word	TASK1_STACK_USAGE_PERCENT
 507 02f0 00000000 		.word	TASK2_STACK_USAGE_PERCENT
 508 02f4 00000000 		.word	TASK3_STACK_USAGE_PERCENT
 509 02f8 00000000 		.word	TASK4_STACK_USAGE_PERCENT
 510 02fc 00000000 		.word	OS_MAIN_STACK_USAGE_PERCENT
 511 0300 00000000 		.word	TASK1_STACK_ADDR
 512 0304 00000000 		.word	TASK2_STACK_ADDR
 513 0308 00000000 		.word	TASK2_STACK
 514 030c 00000000 		.word	TASK3_STACK_ADDR
 515 0310 00000000 		.word	TASK3_STACK
 516 0314 00000000 		.word	TASK4_STACK_ADDR
 517 0318 00000000 		.word	TASK4_STACK
 518 031c 00000000 		.word	TASK0_STACK_USAGE_PERCENT
 519              	.L84:
  95:C:\Users\president\Desktop\sbx\input\src\os_base\os_stack.c ****    {
 520              		.loc 1 95 61 discriminator 1 view .LVU178
 521 0320 DEF80030 		ldr	r3, [lr]
  95:C:\Users\president\Desktop\sbx\input\src\os_base\os_stack.c ****    {
 522              		.loc 1 95 28 discriminator 1 view .LVU179
 523 0324 502B     		cmp	r3, #80
 524 0326 0FD8     		bhi	.L32
  95:C:\Users\president\Desktop\sbx\input\src\os_base\os_stack.c ****    {
 525              		.loc 1 95 98 discriminator 2 view .LVU180
 526 0328 DCF80030 		ldr	r3, [ip]
  95:C:\Users\president\Desktop\sbx\input\src\os_base\os_stack.c ****    {
 527              		.loc 1 95 68 discriminator 2 view .LVU181
 528 032c 502B     		cmp	r3, #80
 529 032e 0BD8     		bhi	.L32
  95:C:\Users\president\Desktop\sbx\input\src\os_base\os_stack.c ****    {
 530              		.loc 1 95 135 discriminator 3 view .LVU182
 531 0330 3368     		ldr	r3, [r6]
  95:C:\Users\president\Desktop\sbx\input\src\os_base\os_stack.c ****    {
 532              		.loc 1 95 105 discriminator 3 view .LVU183
 533 0332 502B     		cmp	r3, #80
 534 0334 08D8     		bhi	.L32
  95:C:\Users\president\Desktop\sbx\input\src\os_base\os_stack.c ****    {
 535              		.loc 1 95 172 discriminator 4 view .LVU184
 536 0336 2B68     		ldr	r3, [r5]
  95:C:\Users\president\Desktop\sbx\input\src\os_base\os_stack.c ****    {
 537              		.loc 1 95 142 discriminator 4 view .LVU185
 538 0338 502B     		cmp	r3, #80
 539 033a 05D8     		bhi	.L32
  95:C:\Users\president\Desktop\sbx\input\src\os_base\os_stack.c ****    {
 540              		.loc 1 95 209 discriminator 5 view .LVU186
 541 033c 2368     		ldr	r3, [r4]
  95:C:\Users\president\Desktop\sbx\input\src\os_base\os_stack.c ****    {
 542              		.loc 1 95 179 discriminator 5 view .LVU187
 543 033e 502B     		cmp	r3, #80
 544 0340 02D8     		bhi	.L32
ARM GAS  C:\Users\PRESID~1\AppData\Local\Temp\ccDGQ3st.s 			page 14


  95:C:\Users\president\Desktop\sbx\input\src\os_base\os_stack.c ****    {
 545              		.loc 1 95 246 discriminator 6 view .LVU188
 546 0342 0368     		ldr	r3, [r0]
  95:C:\Users\president\Desktop\sbx\input\src\os_base\os_stack.c ****    {
 547              		.loc 1 95 216 discriminator 6 view .LVU189
 548 0344 502B     		cmp	r3, #80
 549 0346 B5D9     		bls	.L1
 550              	.L32:
  97:C:\Users\president\Desktop\sbx\input\src\os_base\os_stack.c ****       while(1)
 551              		.loc 1 97 7 is_stmt 1 view .LVU190
 552 0348 1121     		movs	r1, #17
 553 034a 0920     		movs	r0, #9
 554 034c FFF7FEFF 		bl	OS_SET_SW_BUG
 555              	.LVL0:
 556              	.L33:
  98:C:\Users\president\Desktop\sbx\input\src\os_base\os_stack.c ****       {
 557              		.loc 1 98 7 discriminator 1 view .LVU191
 101:C:\Users\president\Desktop\sbx\input\src\os_base\os_stack.c ****    }
 558              		.loc 1 101 7 discriminator 1 view .LVU192
  98:C:\Users\president\Desktop\sbx\input\src\os_base\os_stack.c ****       {
 559              		.loc 1 98 7 discriminator 1 view .LVU193
 101:C:\Users\president\Desktop\sbx\input\src\os_base\os_stack.c ****    }
 560              		.loc 1 101 7 discriminator 1 view .LVU194
 561 0350 FEE7     		b	.L33
 562              	.L79:
 563 0352 054E     		ldr	r6, .L87
 564 0354 A8E6     		b	.L7
 565              	.L80:
 566 0356 054D     		ldr	r5, .L87+4
 567 0358 CFE6     		b	.L12
 568              	.L81:
 569 035a 054C     		ldr	r4, .L87+8
 570 035c F8E6     		b	.L17
 571              	.L82:
 572 035e 0548     		ldr	r0, .L87+12
 573 0360 22E7     		b	.L22
 574              	.L83:
 575 0362 0549     		ldr	r1, .L87+16
 576 0364 4DE7     		b	.L27
 577              	.L88:
 578 0366 00BF     		.align	2
 579              	.L87:
 580 0368 00000000 		.word	TASK0_STACK_POS
 581 036c 00000000 		.word	TASK1_STACK_POS
 582 0370 00000000 		.word	TASK2_STACK_POS
 583 0374 00000000 		.word	TASK3_STACK_POS
 584 0378 00000000 		.word	TASK4_STACK_POS
 585              		.cfi_endproc
 586              	.LFE0:
 588              		.bss
 589              		.align	2
 590              		.set	.LANCHOR0,. + 0
 593              	stack_pos.4125:
 594 0000 00000000 		.space	4
 597              	stack_used.4126:
 598 0004 00000000 		.space	4
 599              		.text
ARM GAS  C:\Users\PRESID~1\AppData\Local\Temp\ccDGQ3st.s 			page 15


 600              	.Letext0:
 601              		.file 2 "c:\\users\\president\\desktop\\sbx\\input\\src\\os_base\\os_base_types.h"
 602              		.file 3 "c:\\users\\president\\desktop\\sbx\\input\\src\\os_base\\os_common.h"
 603              		.file 4 "c:\\users\\president\\desktop\\sbx\\input\\src\\os_drivers\\lld_core.h"
 604              		.file 5 "c:\\users\\president\\desktop\\sbx\\input\\src\\os_base\\os_task_common.h"
 605              		.file 6 "C:\\Users\\president\\Desktop\\sbx\\input\\src\\os_base\\os_main.h"
 606              		.file 7 "c:\\users\\president\\desktop\\sbx\\input\\src\\os_base\\os_ram.h"
 607              		.file 8 "c:\\users\\president\\desktop\\sbx\\input\\src\\os_base\\os_ram_stack.h"
ARM GAS  C:\Users\PRESID~1\AppData\Local\Temp\ccDGQ3st.s 			page 16


DEFINED SYMBOLS
                            *ABS*:00000000 os_stack.c
C:\Users\PRESID~1\AppData\Local\Temp\ccDGQ3st.s:15     .text:00000000 $t
C:\Users\PRESID~1\AppData\Local\Temp\ccDGQ3st.s:24     .text:00000000 OS_STACK_CHECK
C:\Users\PRESID~1\AppData\Local\Temp\ccDGQ3st.s:493    .text:000002b8 $d
C:\Users\PRESID~1\AppData\Local\Temp\ccDGQ3st.s:521    .text:00000320 $t
C:\Users\PRESID~1\AppData\Local\Temp\ccDGQ3st.s:580    .text:00000368 $d
C:\Users\PRESID~1\AppData\Local\Temp\ccDGQ3st.s:589    .bss:00000000 $d
C:\Users\PRESID~1\AppData\Local\Temp\ccDGQ3st.s:593    .bss:00000000 stack_pos.4125
C:\Users\PRESID~1\AppData\Local\Temp\ccDGQ3st.s:597    .bss:00000004 stack_used.4126
                           .group:00000000 wm4.0.e31f5ef4b602e0fe12ffa66337bb63a5
                           .group:00000000 wm4.os_config.h.2.f6eac9d90a921b6f21f0ccaa4f0194d3
                           .group:00000000 wm4.os_common.h.2.552e5427eb955534308d342b866fde4e
                           .group:00000000 wm4.os_task_config.h.2.6666b50e8a518cf90a10402c04d546aa
                           .group:00000000 wm4.os_task_common.h.95.8d8bf4690dc541f58a865736bc15fd8a

UNDEFINED SYMBOLS
OS_MAIN_STACK_POS
OS_MAIN_STACK_ADDR
OS_MAIN_STACK
TASK0_STACK_ADDR
TASK0_STACK
TASK0_STACK_POS
TASK1_STACK
TASK1_STACK_POS
TASK2_STACK_POS
TASK3_STACK_POS
TASK4_STACK_POS
TASK1_STACK_USAGE_PERCENT
TASK2_STACK_USAGE_PERCENT
TASK3_STACK_USAGE_PERCENT
TASK4_STACK_USAGE_PERCENT
OS_MAIN_STACK_USAGE_PERCENT
TASK1_STACK_ADDR
TASK2_STACK_ADDR
TASK2_STACK
TASK3_STACK_ADDR
TASK3_STACK
TASK4_STACK_ADDR
TASK4_STACK
TASK0_STACK_USAGE_PERCENT
OS_SET_SW_BUG
