ARM GAS  C:\Users\PRESID~1\AppData\Local\Temp\ccvHDft5.s 			page 1


   1              		.cpu cortex-m4
   2              		.eabi_attribute 20, 1
   3              		.eabi_attribute 21, 1
   4              		.eabi_attribute 23, 3
   5              		.eabi_attribute 24, 1
   6              		.eabi_attribute 25, 1
   7              		.eabi_attribute 26, 1
   8              		.eabi_attribute 30, 2
   9              		.eabi_attribute 34, 1
  10              		.eabi_attribute 18, 4
  11              		.file	"os_stack.c"
  12              		.text
  13              	.Ltext0:
  14              		.cfi_sections	.debug_frame
  15              		.align	1
  16              		.p2align 2,,3
  17              		.global	OS_StackCheck
  18              		.syntax unified
  19              		.thumb
  20              		.thumb_func
  21              		.fpu softvfp
  23              	OS_StackCheck:
  24              	.LFB0:
  25              		.file 1 "E:\\NeuOrga\\Programmieren\\c_cpp\\github_os\\input\\src\\os_base\\os_stack.c"
   1:E:\NeuOrga\Programmieren\c_cpp\github_os\input\src\os_base\os_stack.c **** #include "os_firstinc.h"
   2:E:\NeuOrga\Programmieren\c_cpp\github_os\input\src\os_base\os_stack.c **** 
   3:E:\NeuOrga\Programmieren\c_cpp\github_os\input\src\os_base\os_stack.c **** void OS_StackCheck(uint32 amount_bytes_to_check)
   4:E:\NeuOrga\Programmieren\c_cpp\github_os\input\src\os_base\os_stack.c **** {
  26              		.loc 1 4 0
  27              		.cfi_startproc
  28              		@ args = 0, pretend = 0, frame = 0
  29              		@ frame_needed = 0, uses_anonymous_args = 0
  30              	.LVL0:
  31 0000 F8B5     		push	{r3, r4, r5, r6, r7, lr}
  32              		.cfi_def_cfa_offset 24
  33              		.cfi_offset 3, -24
  34              		.cfi_offset 4, -20
  35              		.cfi_offset 5, -16
  36              		.cfi_offset 6, -12
  37              		.cfi_offset 7, -8
  38              		.cfi_offset 14, -4
   5:E:\NeuOrga\Programmieren\c_cpp\github_os\input\src\os_base\os_stack.c ****    /* the last 64 bytes are reserved for stack check for every stack 
   6:E:\NeuOrga\Programmieren\c_cpp\github_os\input\src\os_base\os_stack.c ****    unsigned_char_t OS_STACK[NR_OF_CORES][OS_STACK_SIZE];
   7:E:\NeuOrga\Programmieren\c_cpp\github_os\input\src\os_base\os_stack.c ****    unsigned_char_t OS_MAIN_STACK[OS_STACK_SIZE];
   8:E:\NeuOrga\Programmieren\c_cpp\github_os\input\src\os_base\os_stack.c ****    
   9:E:\NeuOrga\Programmieren\c_cpp\github_os\input\src\os_base\os_stack.c ****    the stack is starting at the highest address and growing to lower addresses -> pattern start on 
  10:E:\NeuOrga\Programmieren\c_cpp\github_os\input\src\os_base\os_stack.c ****    
  11:E:\NeuOrga\Programmieren\c_cpp\github_os\input\src\os_base\os_stack.c ****    */
  12:E:\NeuOrga\Programmieren\c_cpp\github_os\input\src\os_base\os_stack.c ****    static volatile uint32 stack_pos = 0, nr_of_cores = 0, failed = False;
  13:E:\NeuOrga\Programmieren\c_cpp\github_os\input\src\os_base\os_stack.c ****    static volatile uint32* critical_addr = (volatile uint32*)-1;
  14:E:\NeuOrga\Programmieren\c_cpp\github_os\input\src\os_base\os_stack.c ****    static volatile uint32  critical_pos =  (volatile uint32) -1;
  15:E:\NeuOrga\Programmieren\c_cpp\github_os\input\src\os_base\os_stack.c ****    static volatile uint32  critical_stack_usage_percent = 0u;
  16:E:\NeuOrga\Programmieren\c_cpp\github_os\input\src\os_base\os_stack.c **** 
  17:E:\NeuOrga\Programmieren\c_cpp\github_os\input\src\os_base\os_stack.c ****    for(stack_pos = 0; stack_pos < amount_bytes_to_check; stack_pos++)
  39              		.loc 1 17 0
  40 0002 2A4B     		ldr	r3, .L22
  41 0004 2A4C     		ldr	r4, .L22+4
ARM GAS  C:\Users\PRESID~1\AppData\Local\Temp\ccvHDft5.s 			page 2


  42 0006 0026     		movs	r6, #0
  43 0008 1E60     		str	r6, [r3]
  44 000a 1A68     		ldr	r2, [r3]
  45 000c 8242     		cmp	r2, r0
  46 000e 33D2     		bcs	.L2
  47 0010 284F     		ldr	r7, .L22+8
  48 0012 2949     		ldr	r1, .L22+12
  18:E:\NeuOrga\Programmieren\c_cpp\github_os\input\src\os_base\os_stack.c ****    {
  19:E:\NeuOrga\Programmieren\c_cpp\github_os\input\src\os_base\os_stack.c ****       for(nr_of_cores = 0; nr_of_cores < NR_OF_CORES; nr_of_cores++)
  20:E:\NeuOrga\Programmieren\c_cpp\github_os\input\src\os_base\os_stack.c ****       {
  21:E:\NeuOrga\Programmieren\c_cpp\github_os\input\src\os_base\os_stack.c ****          if(OS_STACK[nr_of_cores][stack_pos] != 0xAA)
  22:E:\NeuOrga\Programmieren\c_cpp\github_os\input\src\os_base\os_stack.c ****          {
  23:E:\NeuOrga\Programmieren\c_cpp\github_os\input\src\os_base\os_stack.c ****             failed = True;
  49              		.loc 1 23 0
  50 0014 0125     		movs	r5, #1
  51              	.L11:
  19:E:\NeuOrga\Programmieren\c_cpp\github_os\input\src\os_base\os_stack.c ****       {
  52              		.loc 1 19 0
  53 0016 5E60     		str	r6, [r3, #4]
  54 0018 5A68     		ldr	r2, [r3, #4]
  55 001a D2B9     		cbnz	r2, .L3
  56              	.L7:
  21:E:\NeuOrga\Programmieren\c_cpp\github_os\input\src\os_base\os_stack.c ****          {
  57              		.loc 1 21 0
  58 001c 5A68     		ldr	r2, [r3, #4]
  59 001e D3F800C0 		ldr	ip, [r3]
  60 0022 02EB8202 		add	r2, r2, r2, lsl #2
  61 0026 01EB0232 		add	r2, r1, r2, lsl #12
  62 002a 12F80C20 		ldrb	r2, [r2, ip]	@ zero_extendqisi2
  63 002e AA2A     		cmp	r2, #170
  64 0030 09D0     		beq	.L5
  65              		.loc 1 23 0
  66 0032 9D60     		str	r5, [r3, #8]
  24:E:\NeuOrga\Programmieren\c_cpp\github_os\input\src\os_base\os_stack.c ****             if(stack_pos < critical_pos)
  67              		.loc 1 24 0
  68 0034 D3F800C0 		ldr	ip, [r3]
  69 0038 2268     		ldr	r2, [r4]
  70 003a 9445     		cmp	ip, r2
  71 003c 03D2     		bcs	.L5
  25:E:\NeuOrga\Programmieren\c_cpp\github_os\input\src\os_base\os_stack.c ****             {
  26:E:\NeuOrga\Programmieren\c_cpp\github_os\input\src\os_base\os_stack.c ****                critical_pos  = (volatile uint32 )stack_pos;
  72              		.loc 1 26 0
  73 003e 1A68     		ldr	r2, [r3]
  74 0040 2260     		str	r2, [r4]
  27:E:\NeuOrga\Programmieren\c_cpp\github_os\input\src\os_base\os_stack.c ****                critical_addr = (volatile uint32*)&OS_STACK[nr_of_cores][stack_pos];
  75              		.loc 1 27 0
  76 0042 5A68     		ldr	r2, [r3, #4]
  77 0044 1A68     		ldr	r2, [r3]
  78              	.L5:
  19:E:\NeuOrga\Programmieren\c_cpp\github_os\input\src\os_base\os_stack.c ****       {
  79              		.loc 1 19 0 discriminator 2
  80 0046 5A68     		ldr	r2, [r3, #4]
  81 0048 0132     		adds	r2, r2, #1
  82 004a 5A60     		str	r2, [r3, #4]
  83 004c 5A68     		ldr	r2, [r3, #4]
  84 004e 002A     		cmp	r2, #0
  85 0050 E4D0     		beq	.L7
ARM GAS  C:\Users\PRESID~1\AppData\Local\Temp\ccvHDft5.s 			page 3


  86              	.L3:
  28:E:\NeuOrga\Programmieren\c_cpp\github_os\input\src\os_base\os_stack.c ****             }   
  29:E:\NeuOrga\Programmieren\c_cpp\github_os\input\src\os_base\os_stack.c ****          }   
  30:E:\NeuOrga\Programmieren\c_cpp\github_os\input\src\os_base\os_stack.c ****       }
  31:E:\NeuOrga\Programmieren\c_cpp\github_os\input\src\os_base\os_stack.c ****       if(OS_MAIN_STACK[stack_pos] != 0xAA)
  87              		.loc 1 31 0
  88 0052 1A68     		ldr	r2, [r3]
  89 0054 BA5C     		ldrb	r2, [r7, r2]	@ zero_extendqisi2
  90 0056 AA2A     		cmp	r2, #170
  91 0058 08D0     		beq	.L9
  32:E:\NeuOrga\Programmieren\c_cpp\github_os\input\src\os_base\os_stack.c ****       {
  33:E:\NeuOrga\Programmieren\c_cpp\github_os\input\src\os_base\os_stack.c ****          failed = True;
  92              		.loc 1 33 0
  93 005a 9D60     		str	r5, [r3, #8]
  34:E:\NeuOrga\Programmieren\c_cpp\github_os\input\src\os_base\os_stack.c ****          if(stack_pos < critical_pos)
  94              		.loc 1 34 0
  95 005c D3F800C0 		ldr	ip, [r3]
  96 0060 2268     		ldr	r2, [r4]
  97 0062 9445     		cmp	ip, r2
  98 0064 02D2     		bcs	.L9
  35:E:\NeuOrga\Programmieren\c_cpp\github_os\input\src\os_base\os_stack.c ****          {
  36:E:\NeuOrga\Programmieren\c_cpp\github_os\input\src\os_base\os_stack.c ****             critical_pos  = (volatile uint32 )stack_pos;
  99              		.loc 1 36 0
 100 0066 1A68     		ldr	r2, [r3]
 101 0068 2260     		str	r2, [r4]
  37:E:\NeuOrga\Programmieren\c_cpp\github_os\input\src\os_base\os_stack.c ****             critical_addr = (volatile uint32*)&OS_MAIN_STACK[stack_pos];
 102              		.loc 1 37 0
 103 006a 1A68     		ldr	r2, [r3]
 104              	.L9:
  17:E:\NeuOrga\Programmieren\c_cpp\github_os\input\src\os_base\os_stack.c ****    {
 105              		.loc 1 17 0 discriminator 2
 106 006c 1A68     		ldr	r2, [r3]
 107 006e 0132     		adds	r2, r2, #1
 108 0070 1A60     		str	r2, [r3]
 109 0072 1A68     		ldr	r2, [r3]
 110 0074 8242     		cmp	r2, r0
 111 0076 CED3     		bcc	.L11
 112              	.L2:
  38:E:\NeuOrga\Programmieren\c_cpp\github_os\input\src\os_base\os_stack.c ****          }          
  39:E:\NeuOrga\Programmieren\c_cpp\github_os\input\src\os_base\os_stack.c ****       }         
  40:E:\NeuOrga\Programmieren\c_cpp\github_os\input\src\os_base\os_stack.c ****    }
  41:E:\NeuOrga\Programmieren\c_cpp\github_os\input\src\os_base\os_stack.c ****    critical_stack_usage_percent = (OS_STACK_SIZE - critical_pos) * 100u / OS_STACK_SIZE;
 113              		.loc 1 41 0
 114 0078 2068     		ldr	r0, [r4]
 115              	.LVL1:
 116 007a 1049     		ldr	r1, .L22+16
 117 007c 6FF06302 		mvn	r2, #99
 118 0080 02FB00F2 		mul	r2, r2, r0
 119 0084 02F5FA12 		add	r2, r2, #2048000
 120 0088 A1FB0212 		umull	r1, r2, r1, r2
 121 008c 920B     		lsrs	r2, r2, #14
 122 008e DA60     		str	r2, [r3, #12]
  42:E:\NeuOrga\Programmieren\c_cpp\github_os\input\src\os_base\os_stack.c ****    
  43:E:\NeuOrga\Programmieren\c_cpp\github_os\input\src\os_base\os_stack.c ****    if((failed == True) && (critical_stack_usage_percent > 80u))
 123              		.loc 1 43 0
 124 0090 9A68     		ldr	r2, [r3, #8]
 125 0092 012A     		cmp	r2, #1
ARM GAS  C:\Users\PRESID~1\AppData\Local\Temp\ccvHDft5.s 			page 4


 126 0094 00D0     		beq	.L21
 127              	.L1:
  44:E:\NeuOrga\Programmieren\c_cpp\github_os\input\src\os_base\os_stack.c ****    {
  45:E:\NeuOrga\Programmieren\c_cpp\github_os\input\src\os_base\os_stack.c ****       OS_SetSwBug(os_bug_critical_stack_usage,Func_StackCheck);
  46:E:\NeuOrga\Programmieren\c_cpp\github_os\input\src\os_base\os_stack.c ****       ReferenceUnusedParameter(critical_pos);
  47:E:\NeuOrga\Programmieren\c_cpp\github_os\input\src\os_base\os_stack.c ****       ReferenceUnusedParameter(critical_addr);
  48:E:\NeuOrga\Programmieren\c_cpp\github_os\input\src\os_base\os_stack.c ****       while(1)
  49:E:\NeuOrga\Programmieren\c_cpp\github_os\input\src\os_base\os_stack.c ****       {
  50:E:\NeuOrga\Programmieren\c_cpp\github_os\input\src\os_base\os_stack.c ****          /* allow easy debugging */
  51:E:\NeuOrga\Programmieren\c_cpp\github_os\input\src\os_base\os_stack.c ****       }  
  52:E:\NeuOrga\Programmieren\c_cpp\github_os\input\src\os_base\os_stack.c ****    }   
  53:E:\NeuOrga\Programmieren\c_cpp\github_os\input\src\os_base\os_stack.c **** }
 128              		.loc 1 53 0
 129 0096 F8BD     		pop	{r3, r4, r5, r6, r7, pc}
 130              	.L21:
  43:E:\NeuOrga\Programmieren\c_cpp\github_os\input\src\os_base\os_stack.c ****    {
 131              		.loc 1 43 0 discriminator 1
 132 0098 DB68     		ldr	r3, [r3, #12]
 133 009a 502B     		cmp	r3, #80
 134 009c FBD9     		bls	.L1
  45:E:\NeuOrga\Programmieren\c_cpp\github_os\input\src\os_base\os_stack.c ****       ReferenceUnusedParameter(critical_pos);
 135              		.loc 1 45 0
 136 009e 1121     		movs	r1, #17
 137 00a0 0920     		movs	r0, #9
 138 00a2 FFF7FEFF 		bl	OS_SetSwBug
 139              	.LVL2:
  46:E:\NeuOrga\Programmieren\c_cpp\github_os\input\src\os_base\os_stack.c ****       ReferenceUnusedParameter(critical_addr);
 140              		.loc 1 46 0
 141 00a6 2368     		ldr	r3, [r4]
 142 00a8 2360     		str	r3, [r4]
 143              	.L13:
 144 00aa FEE7     		b	.L13
 145              	.L23:
 146              		.align	2
 147              	.L22:
 148 00ac 00000000 		.word	.LANCHOR0
 149 00b0 00000000 		.word	.LANCHOR1
 150 00b4 00000000 		.word	OS_MAIN_STACK
 151 00b8 00000000 		.word	OS_STACK
 152 00bc CDCCCCCC 		.word	-858993459
 153              		.cfi_endproc
 154              	.LFE0:
 156              		.align	1
 157              		.p2align 2,,3
 158              		.global	OS_StackChkPatternInit
 159              		.syntax unified
 160              		.thumb
 161              		.thumb_func
 162              		.fpu softvfp
 164              	OS_StackChkPatternInit:
 165              	.LFB1:
  54:E:\NeuOrga\Programmieren\c_cpp\github_os\input\src\os_base\os_stack.c **** void OS_StackChkPatternInit(void)
  55:E:\NeuOrga\Programmieren\c_cpp\github_os\input\src\os_base\os_stack.c **** {
 166              		.loc 1 55 0
 167              		.cfi_startproc
 168              		@ args = 0, pretend = 0, frame = 0
 169              		@ frame_needed = 0, uses_anonymous_args = 0
ARM GAS  C:\Users\PRESID~1\AppData\Local\Temp\ccvHDft5.s 			page 5


 170              		@ link register save eliminated.
  56:E:\NeuOrga\Programmieren\c_cpp\github_os\input\src\os_base\os_stack.c ****    static volatile uint32 stack_pos = 0,nr_of_cores = 0;
  57:E:\NeuOrga\Programmieren\c_cpp\github_os\input\src\os_base\os_stack.c ****    /* init the stack with 0xAA (only the highest 64 bytes leave out, because they might be already 
  58:E:\NeuOrga\Programmieren\c_cpp\github_os\input\src\os_base\os_stack.c ****    for(stack_pos = 0; stack_pos < (OS_STACK_SIZE-64); stack_pos++)
 171              		.loc 1 58 0
 172 00c0 134A     		ldr	r2, .L33
  55:E:\NeuOrga\Programmieren\c_cpp\github_os\input\src\os_base\os_stack.c ****    static volatile uint32 stack_pos = 0,nr_of_cores = 0;
 173              		.loc 1 55 0
 174 00c2 F0B4     		push	{r4, r5, r6, r7}
 175              		.cfi_def_cfa_offset 16
 176              		.cfi_offset 4, -16
 177              		.cfi_offset 5, -12
 178              		.cfi_offset 6, -8
 179              		.cfi_offset 7, -4
 180              		.loc 1 58 0
 181 00c4 0027     		movs	r7, #0
 182 00c6 1761     		str	r7, [r2, #16]
 183 00c8 1369     		ldr	r3, [r2, #16]
 184 00ca 44F6BF76 		movw	r6, #20415
 185 00ce B342     		cmp	r3, r6
 186 00d0 1CD8     		bhi	.L24
 187 00d2 DFF844C0 		ldr	ip, .L33+8
 188 00d6 0F4D     		ldr	r5, .L33+4
  59:E:\NeuOrga\Programmieren\c_cpp\github_os\input\src\os_base\os_stack.c ****    {
  60:E:\NeuOrga\Programmieren\c_cpp\github_os\input\src\os_base\os_stack.c ****       for(nr_of_cores = 0; nr_of_cores < NR_OF_CORES; nr_of_cores++)
  61:E:\NeuOrga\Programmieren\c_cpp\github_os\input\src\os_base\os_stack.c ****       {
  62:E:\NeuOrga\Programmieren\c_cpp\github_os\input\src\os_base\os_stack.c ****          OS_STACK[nr_of_cores][stack_pos] = 0xAA;
 189              		.loc 1 62 0
 190 00d8 AA24     		movs	r4, #170
 191              	.L28:
  60:E:\NeuOrga\Programmieren\c_cpp\github_os\input\src\os_base\os_stack.c ****       {
 192              		.loc 1 60 0
 193 00da 5761     		str	r7, [r2, #20]
 194 00dc 5369     		ldr	r3, [r2, #20]
 195 00de 63B9     		cbnz	r3, .L26
 196              	.L27:
 197              		.loc 1 62 0 discriminator 3
 198 00e0 5369     		ldr	r3, [r2, #20]
 199 00e2 1069     		ldr	r0, [r2, #16]
  60:E:\NeuOrga\Programmieren\c_cpp\github_os\input\src\os_base\os_stack.c ****       {
 200              		.loc 1 60 0 discriminator 3
 201 00e4 5169     		ldr	r1, [r2, #20]
 202 00e6 0131     		adds	r1, r1, #1
 203              		.loc 1 62 0 discriminator 3
 204 00e8 03EB8303 		add	r3, r3, r3, lsl #2
  60:E:\NeuOrga\Programmieren\c_cpp\github_os\input\src\os_base\os_stack.c ****       {
 205              		.loc 1 60 0 discriminator 3
 206 00ec 5161     		str	r1, [r2, #20]
 207              		.loc 1 62 0 discriminator 3
 208 00ee 05EB0333 		add	r3, r5, r3, lsl #12
  60:E:\NeuOrga\Programmieren\c_cpp\github_os\input\src\os_base\os_stack.c ****       {
 209              		.loc 1 60 0 discriminator 3
 210 00f2 5169     		ldr	r1, [r2, #20]
 211              		.loc 1 62 0 discriminator 3
 212 00f4 1C54     		strb	r4, [r3, r0]
  60:E:\NeuOrga\Programmieren\c_cpp\github_os\input\src\os_base\os_stack.c ****       {
 213              		.loc 1 60 0 discriminator 3
ARM GAS  C:\Users\PRESID~1\AppData\Local\Temp\ccvHDft5.s 			page 6


 214 00f6 0029     		cmp	r1, #0
 215 00f8 F2D0     		beq	.L27
 216              	.L26:
  63:E:\NeuOrga\Programmieren\c_cpp\github_os\input\src\os_base\os_stack.c ****       }
  64:E:\NeuOrga\Programmieren\c_cpp\github_os\input\src\os_base\os_stack.c ****       OS_MAIN_STACK[stack_pos] = 0xAA;
 217              		.loc 1 64 0
 218 00fa 1169     		ldr	r1, [r2, #16]
  58:E:\NeuOrga\Programmieren\c_cpp\github_os\input\src\os_base\os_stack.c ****    {
 219              		.loc 1 58 0
 220 00fc 1369     		ldr	r3, [r2, #16]
 221              		.loc 1 64 0
 222 00fe 0CF80140 		strb	r4, [ip, r1]
  58:E:\NeuOrga\Programmieren\c_cpp\github_os\input\src\os_base\os_stack.c ****    {
 223              		.loc 1 58 0
 224 0102 0133     		adds	r3, r3, #1
 225 0104 1361     		str	r3, [r2, #16]
 226 0106 1369     		ldr	r3, [r2, #16]
 227 0108 B342     		cmp	r3, r6
 228 010a E6D9     		bls	.L28
 229              	.L24:
  65:E:\NeuOrga\Programmieren\c_cpp\github_os\input\src\os_base\os_stack.c ****    }    
  66:E:\NeuOrga\Programmieren\c_cpp\github_os\input\src\os_base\os_stack.c **** }   ...
 230              		.loc 1 66 0
 231 010c F0BC     		pop	{r4, r5, r6, r7}
 232              		.cfi_restore 7
 233              		.cfi_restore 6
 234              		.cfi_restore 5
 235              		.cfi_restore 4
 236              		.cfi_def_cfa_offset 0
 237 010e 7047     		bx	lr
 238              	.L34:
 239              		.align	2
 240              	.L33:
 241 0110 00000000 		.word	.LANCHOR0
 242 0114 00000000 		.word	OS_STACK
 243 0118 00000000 		.word	OS_MAIN_STACK
 244              		.cfi_endproc
 245              	.LFE1:
 247              		.data
 248              		.align	2
 249              		.set	.LANCHOR1,. + 0
 252              	critical_pos.4033:
 253 0000 FFFFFFFF 		.word	-1
 254              		.bss
 255              		.align	2
 256              		.set	.LANCHOR0,. + 0
 259              	stack_pos.4029:
 260 0000 00000000 		.space	4
 263              	nr_of_cores.4030:
 264 0004 00000000 		.space	4
 267              	failed.4031:
 268 0008 00000000 		.space	4
 271              	critical_stack_usage_percent.4034:
 272 000c 00000000 		.space	4
 275              	stack_pos.4045:
 276 0010 00000000 		.space	4
 279              	nr_of_cores.4046:
ARM GAS  C:\Users\PRESID~1\AppData\Local\Temp\ccvHDft5.s 			page 7


 280 0014 00000000 		.space	4
 281              		.text
 282              	.Letext0:
 283              		.file 2 "e:\\neuorga\\programmieren\\c_cpp\\github_os\\input\\src\\os_base\\os_base_types.h"
 284              		.file 3 "e:\\neuorga\\programmieren\\c_cpp\\github_os\\input\\src\\os_base\\os_common.h"
 285              		.file 4 "e:\\neuorga\\programmieren\\c_cpp\\github_os\\input\\src\\os_drivers\\lld_core.h"
 286              		.file 5 "e:\\neuorga\\programmieren\\c_cpp\\github_os\\input\\src\\os_base\\os_task_common.h"
 287              		.file 6 "e:\\neuorga\\programmieren\\c_cpp\\github_os\\input\\src\\os_base\\os_ram.h"
ARM GAS  C:\Users\PRESID~1\AppData\Local\Temp\ccvHDft5.s 			page 8


DEFINED SYMBOLS
                            *ABS*:00000000 os_stack.c
C:\Users\PRESID~1\AppData\Local\Temp\ccvHDft5.s:15     .text:00000000 $t
C:\Users\PRESID~1\AppData\Local\Temp\ccvHDft5.s:23     .text:00000000 OS_StackCheck
C:\Users\PRESID~1\AppData\Local\Temp\ccvHDft5.s:148    .text:000000ac $d
C:\Users\PRESID~1\AppData\Local\Temp\ccvHDft5.s:156    .text:000000c0 $t
C:\Users\PRESID~1\AppData\Local\Temp\ccvHDft5.s:164    .text:000000c0 OS_StackChkPatternInit
C:\Users\PRESID~1\AppData\Local\Temp\ccvHDft5.s:241    .text:00000110 $d
C:\Users\PRESID~1\AppData\Local\Temp\ccvHDft5.s:248    .data:00000000 $d
C:\Users\PRESID~1\AppData\Local\Temp\ccvHDft5.s:252    .data:00000000 critical_pos.4033
C:\Users\PRESID~1\AppData\Local\Temp\ccvHDft5.s:255    .bss:00000000 $d
C:\Users\PRESID~1\AppData\Local\Temp\ccvHDft5.s:259    .bss:00000000 stack_pos.4029
C:\Users\PRESID~1\AppData\Local\Temp\ccvHDft5.s:263    .bss:00000004 nr_of_cores.4030
C:\Users\PRESID~1\AppData\Local\Temp\ccvHDft5.s:267    .bss:00000008 failed.4031
C:\Users\PRESID~1\AppData\Local\Temp\ccvHDft5.s:271    .bss:0000000c critical_stack_usage_percent.4034
C:\Users\PRESID~1\AppData\Local\Temp\ccvHDft5.s:275    .bss:00000010 stack_pos.4045
C:\Users\PRESID~1\AppData\Local\Temp\ccvHDft5.s:279    .bss:00000014 nr_of_cores.4046
                           .group:00000000 wm4.0.d67ddeb5d3f434a0386bf4e126239e16
                           .group:00000000 wm4.os_base_types.h.2.f3c0267f175f5cbacca6b71710665a02
                           .group:00000000 wm4.os_common.h.2.7d3083dfb0b17ee9cbe20f6fe4481cd9
                           .group:00000000 wm4.os_task_config.h.2.a73335dbec9f276504b3b94e79d1d898
                           .group:00000000 wm4.os_task_common.h.97.d031f1e6a25f19c1fb076c4a4d7927a1
                           .group:00000000 wm4.os_stack.h.2.f736ad9941e78e3f128684d765efeb27
                           .group:00000000 wm4.os_heap.h.2.89074aae455d2462b5952479e3530dd1
                           .group:00000000 wm4.os_main.h.2.1f66ae3841c27bd36097fa1d2e1fe6a7

UNDEFINED SYMBOLS
OS_SetSwBug
OS_MAIN_STACK
OS_STACK
