ARM GAS  C:\Users\PRESID~1\AppData\Local\Temp\cc9KVhqU.s 			page 1


   1              		.cpu cortex-m4
   2              		.eabi_attribute 20, 1
   3              		.eabi_attribute 21, 1
   4              		.eabi_attribute 23, 3
   5              		.eabi_attribute 24, 1
   6              		.eabi_attribute 25, 1
   7              		.eabi_attribute 26, 1
   8              		.eabi_attribute 30, 2
   9              		.eabi_attribute 34, 1
  10              		.eabi_attribute 18, 4
  11              		.file	"os_task_queue.c"
  12              		.text
  13              	.Ltext0:
  14              		.cfi_sections	.debug_frame
  15              		.align	1
  16              		.p2align 2,,3
  17              		.global	SET_RUNNING_TASK
  18              		.syntax unified
  19              		.thumb
  20              		.thumb_func
  21              		.fpu softvfp
  23              	SET_RUNNING_TASK:
  24              	.LFB0:
  25              		.file 1 "E:\\NeuOrga\\Programmieren\\c_cpp\\github_os\\input\\src\\os_base\\os_task_queue.c"
   1:E:\NeuOrga\Programmieren\c_cpp\github_os\input\src\os_base\os_task_queue.c **** #include "os_firstinc.h"
   2:E:\NeuOrga\Programmieren\c_cpp\github_os\input\src\os_base\os_task_queue.c **** #include "os_task_common.h"
   3:E:\NeuOrga\Programmieren\c_cpp\github_os\input\src\os_base\os_task_queue.c **** #include "os_task_queue.h"
   4:E:\NeuOrga\Programmieren\c_cpp\github_os\input\src\os_base\os_task_queue.c **** #include "os_task_scheduler.h"
   5:E:\NeuOrga\Programmieren\c_cpp\github_os\input\src\os_base\os_task_queue.c **** 
   6:E:\NeuOrga\Programmieren\c_cpp\github_os\input\src\os_base\os_task_queue.c **** 
   7:E:\NeuOrga\Programmieren\c_cpp\github_os\input\src\os_base\os_task_queue.c **** 
   8:E:\NeuOrga\Programmieren\c_cpp\github_os\input\src\os_base\os_task_queue.c **** 
   9:E:\NeuOrga\Programmieren\c_cpp\github_os\input\src\os_base\os_task_queue.c **** 
  10:E:\NeuOrga\Programmieren\c_cpp\github_os\input\src\os_base\os_task_queue.c **** /* index 0: current task, 1,2,3,4: next tasks to be executed */
  11:E:\NeuOrga\Programmieren\c_cpp\github_os\input\src\os_base\os_task_queue.c **** /*
  12:E:\NeuOrga\Programmieren\c_cpp\github_os\input\src\os_base\os_task_queue.c **** 1. after execution of task finished(OS_TerminateTask):
  13:E:\NeuOrga\Programmieren\c_cpp\github_os\input\src\os_base\os_task_queue.c ****  - delete run_queue_element         (DeleteFromTaskQueue)
  14:E:\NeuOrga\Programmieren\c_cpp\github_os\input\src\os_base\os_task_queue.c ****  - delete Scheduling queue entry    (DeleteFromSchedulingQueue)
  15:E:\NeuOrga\Programmieren\c_cpp\github_os\input\src\os_base\os_task_queue.c ****  - shift pointers towards index 0   (UpdateSchedulingQueue)
  16:E:\NeuOrga\Programmieren\c_cpp\github_os\input\src\os_base\os_task_queue.c **** 
  17:E:\NeuOrga\Programmieren\c_cpp\github_os\input\src\os_base\os_task_queue.c **** 
  18:E:\NeuOrga\Programmieren\c_cpp\github_os\input\src\os_base\os_task_queue.c ****  2. to add new task (ActivateTask):
  19:E:\NeuOrga\Programmieren\c_cpp\github_os\input\src\os_base\os_task_queue.c ****  - add element to run_queue at first free element (AddToTaskQueue)
  20:E:\NeuOrga\Programmieren\c_cpp\github_os\input\src\os_base\os_task_queue.c ****  - add a reference to the scheduling Queue         (AddToSchedulingQueue)
  21:E:\NeuOrga\Programmieren\c_cpp\github_os\input\src\os_base\os_task_queue.c **** 
  22:E:\NeuOrga\Programmieren\c_cpp\github_os\input\src\os_base\os_task_queue.c ****  3. to start task:
  23:E:\NeuOrga\Programmieren\c_cpp\github_os\input\src\os_base\os_task_queue.c **** - start the task at index = 0                     (GetFromTaskQueue)
  24:E:\NeuOrga\Programmieren\c_cpp\github_os\input\src\os_base\os_task_queue.c **** 
  25:E:\NeuOrga\Programmieren\c_cpp\github_os\input\src\os_base\os_task_queue.c ****  4. to preempt task:
  26:E:\NeuOrga\Programmieren\c_cpp\github_os\input\src\os_base\os_task_queue.c **** - take element of index = 0 of SchedulingQueue and save it somewhere else  (UpdateSchedulingQueue)
  27:E:\NeuOrga\Programmieren\c_cpp\github_os\input\src\os_base\os_task_queue.c **** - shift all entries in SchedulingQueue to 0 by 1                           (UpdateSchedulingQueue)
  28:E:\NeuOrga\Programmieren\c_cpp\github_os\input\src\os_base\os_task_queue.c **** - add saved element at first free entry in SchedulingQueue                 (UpdateSchedulingQueue)
  29:E:\NeuOrga\Programmieren\c_cpp\github_os\input\src\os_base\os_task_queue.c **** - eliminate empty SchedulingQueue entries                                  (UpdateSchedulingQueue)
  30:E:\NeuOrga\Programmieren\c_cpp\github_os\input\src\os_base\os_task_queue.c ****  */
  31:E:\NeuOrga\Programmieren\c_cpp\github_os\input\src\os_base\os_task_queue.c **** 
  32:E:\NeuOrga\Programmieren\c_cpp\github_os\input\src\os_base\os_task_queue.c **** 
  33:E:\NeuOrga\Programmieren\c_cpp\github_os\input\src\os_base\os_task_queue.c **** void SET_RUNNING_TASK(task_t* task, scheduling_t* scheduling_task)
ARM GAS  C:\Users\PRESID~1\AppData\Local\Temp\cc9KVhqU.s 			page 2


  34:E:\NeuOrga\Programmieren\c_cpp\github_os\input\src\os_base\os_task_queue.c **** {
  26              		.loc 1 34 0
  27              		.cfi_startproc
  28              		@ args = 0, pretend = 0, frame = 0
  29              		@ frame_needed = 0, uses_anonymous_args = 0
  30              		@ link register save eliminated.
  31              	.LVL0:
  35:E:\NeuOrga\Programmieren\c_cpp\github_os\input\src\os_base\os_task_queue.c ****    RUNNING_SCHEDULING_QUEUE_ENTRY = scheduling_task;
  32              		.loc 1 35 0
  33 0000 354B     		ldr	r3, .L11
  34 0002 1960     		str	r1, [r3]
  36:E:\NeuOrga\Programmieren\c_cpp\github_os\input\src\os_base\os_task_queue.c ****    if(task != 0)
  35              		.loc 1 36 0
  36 0004 0028     		cmp	r0, #0
  37 0006 66D0     		beq	.L7
  37:E:\NeuOrga\Programmieren\c_cpp\github_os\input\src\os_base\os_task_queue.c ****    {
  38:E:\NeuOrga\Programmieren\c_cpp\github_os\input\src\os_base\os_task_queue.c ****       (&RUNNING_TASK[0])->active                          = task->active;
  38              		.loc 1 38 0
  39 0008 344B     		ldr	r3, .L11+4
  39:E:\NeuOrga\Programmieren\c_cpp\github_os\input\src\os_base\os_task_queue.c ****       (&RUNNING_TASK[0])->task_queued                     = task->task_queued;
  40:E:\NeuOrga\Programmieren\c_cpp\github_os\input\src\os_base\os_task_queue.c ****       (&RUNNING_TASK[0])->IdleTask                        = task->IdleTask;
  41:E:\NeuOrga\Programmieren\c_cpp\github_os\input\src\os_base\os_task_queue.c ****       (&RUNNING_TASK[0])->FREE                            = task->FREE;
  42:E:\NeuOrga\Programmieren\c_cpp\github_os\input\src\os_base\os_task_queue.c ****       (&RUNNING_TASK[0])->NrOfInsAllowed                  = task->NrOfInsAllowed;
  43:E:\NeuOrga\Programmieren\c_cpp\github_os\input\src\os_base\os_task_queue.c ****       (&RUNNING_TASK[0])->NrOfInsActivated                = task->NrOfInsActivated;
  44:E:\NeuOrga\Programmieren\c_cpp\github_os\input\src\os_base\os_task_queue.c ****       (&RUNNING_TASK[0])->WaitActUntil                    = task->WaitActUntil;
  40              		.loc 1 44 0
  41 000a 8168     		ldr	r1, [r0, #8]
  42              	.LVL1:
  38:E:\NeuOrga\Programmieren\c_cpp\github_os\input\src\os_base\os_task_queue.c ****       (&RUNNING_TASK[0])->task_queued                     = task->task_queued;
  43              		.loc 1 38 0
  44 000c 1A78     		ldrb	r2, [r3]	@ zero_extendqisi2
  34:E:\NeuOrga\Programmieren\c_cpp\github_os\input\src\os_base\os_task_queue.c ****    RUNNING_SCHEDULING_QUEUE_ENTRY = scheduling_task;
  45              		.loc 1 34 0
  46 000e 70B4     		push	{r4, r5, r6}
  47              		.cfi_def_cfa_offset 12
  48              		.cfi_offset 4, -12
  49              		.cfi_offset 5, -8
  50              		.cfi_offset 6, -4
  38:E:\NeuOrga\Programmieren\c_cpp\github_os\input\src\os_base\os_task_queue.c ****       (&RUNNING_TASK[0])->task_queued                     = task->task_queued;
  51              		.loc 1 38 0
  52 0010 0478     		ldrb	r4, [r0]	@ zero_extendqisi2
  43:E:\NeuOrga\Programmieren\c_cpp\github_os\input\src\os_base\os_task_queue.c ****       (&RUNNING_TASK[0])->WaitActUntil                    = task->WaitActUntil;
  53              		.loc 1 43 0
  54 0012 4579     		ldrb	r5, [r0, #5]	@ zero_extendqisi2
  45:E:\NeuOrga\Programmieren\c_cpp\github_os\input\src\os_base\os_task_queue.c ****       (&RUNNING_TASK[0])->wait_time                       = task->wait_time;
  46:E:\NeuOrga\Programmieren\c_cpp\github_os\input\src\os_base\os_task_queue.c ****       (&RUNNING_TASK[0])->TimeToPrioInc                   = task->TimeToPrioInc;
  55              		.loc 1 46 0
  56 0014 0669     		ldr	r6, [r0, #16]
  38:E:\NeuOrga\Programmieren\c_cpp\github_os\input\src\os_base\os_task_queue.c ****       (&RUNNING_TASK[0])->task_queued                     = task->task_queued;
  57              		.loc 1 38 0
  58 0016 64F30002 		bfi	r2, r4, #0, #1
  59 001a 1A70     		strb	r2, [r3]
  39:E:\NeuOrga\Programmieren\c_cpp\github_os\input\src\os_base\os_task_queue.c ****       (&RUNNING_TASK[0])->IdleTask                        = task->IdleTask;
  60              		.loc 1 39 0
  61 001c 0278     		ldrb	r2, [r0]	@ zero_extendqisi2
  62 001e 1C78     		ldrb	r4, [r3]	@ zero_extendqisi2
  63 0020 C2F34002 		ubfx	r2, r2, #1, #1
ARM GAS  C:\Users\PRESID~1\AppData\Local\Temp\cc9KVhqU.s 			page 3


  64 0024 62F34104 		bfi	r4, r2, #1, #1
  65 0028 1C70     		strb	r4, [r3]
  40:E:\NeuOrga\Programmieren\c_cpp\github_os\input\src\os_base\os_task_queue.c ****       (&RUNNING_TASK[0])->FREE                            = task->FREE;
  66              		.loc 1 40 0
  67 002a 0278     		ldrb	r2, [r0]	@ zero_extendqisi2
  68 002c E4B2     		uxtb	r4, r4
  69 002e C2F38002 		ubfx	r2, r2, #2, #1
  70 0032 62F38204 		bfi	r4, r2, #2, #1
  71 0036 1C70     		strb	r4, [r3]
  41:E:\NeuOrga\Programmieren\c_cpp\github_os\input\src\os_base\os_task_queue.c ****       (&RUNNING_TASK[0])->NrOfInsAllowed                  = task->NrOfInsAllowed;
  72              		.loc 1 41 0
  73 0038 0268     		ldr	r2, [r0]
  74 003a 1C68     		ldr	r4, [r3]
  75 003c C2F3DC02 		ubfx	r2, r2, #3, #29
  76 0040 62F3DF04 		bfi	r4, r2, #3, #29
  77 0044 1C60     		str	r4, [r3]
  42:E:\NeuOrga\Programmieren\c_cpp\github_os\input\src\os_base\os_task_queue.c ****       (&RUNNING_TASK[0])->NrOfInsActivated                = task->NrOfInsActivated;
  78              		.loc 1 42 0
  79 0046 0279     		ldrb	r2, [r0, #4]	@ zero_extendqisi2
  45:E:\NeuOrga\Programmieren\c_cpp\github_os\input\src\os_base\os_task_queue.c ****       (&RUNNING_TASK[0])->TimeToPrioInc                   = task->TimeToPrioInc;
  80              		.loc 1 45 0
  81 0048 C468     		ldr	r4, [r0, #12]
  42:E:\NeuOrga\Programmieren\c_cpp\github_os\input\src\os_base\os_task_queue.c ****       (&RUNNING_TASK[0])->NrOfInsActivated                = task->NrOfInsActivated;
  82              		.loc 1 42 0
  83 004a 1A71     		strb	r2, [r3, #4]
  43:E:\NeuOrga\Programmieren\c_cpp\github_os\input\src\os_base\os_task_queue.c ****       (&RUNNING_TASK[0])->WaitActUntil                    = task->WaitActUntil;
  84              		.loc 1 43 0
  85 004c 5D71     		strb	r5, [r3, #5]
  47:E:\NeuOrga\Programmieren\c_cpp\github_os\input\src\os_base\os_task_queue.c ****       (&RUNNING_TASK[0])->overwaittime_per_prio_inc_step  = task->overwaittime_per_prio_inc_step;
  86              		.loc 1 47 0
  87 004e 4269     		ldr	r2, [r0, #20]
  48:E:\NeuOrga\Programmieren\c_cpp\github_os\input\src\os_base\os_task_queue.c ****       (&RUNNING_TASK[0])->max_allowed_wait_time           = task->max_allowed_wait_time;
  88              		.loc 1 48 0
  89 0050 8569     		ldr	r5, [r0, #24]
  45:E:\NeuOrga\Programmieren\c_cpp\github_os\input\src\os_base\os_task_queue.c ****       (&RUNNING_TASK[0])->TimeToPrioInc                   = task->TimeToPrioInc;
  90              		.loc 1 45 0
  91 0052 DC60     		str	r4, [r3, #12]
  49:E:\NeuOrga\Programmieren\c_cpp\github_os\input\src\os_base\os_task_queue.c ****       (&RUNNING_TASK[0])->exe_time                        = task->exe_time;
  92              		.loc 1 49 0
  93 0054 C469     		ldr	r4, [r0, #28]
  44:E:\NeuOrga\Programmieren\c_cpp\github_os\input\src\os_base\os_task_queue.c ****       (&RUNNING_TASK[0])->wait_time                       = task->wait_time;
  94              		.loc 1 44 0
  95 0056 9960     		str	r1, [r3, #8]
  47:E:\NeuOrga\Programmieren\c_cpp\github_os\input\src\os_base\os_task_queue.c ****       (&RUNNING_TASK[0])->max_allowed_wait_time           = task->max_allowed_wait_time;
  96              		.loc 1 47 0
  97 0058 5A61     		str	r2, [r3, #20]
  50:E:\NeuOrga\Programmieren\c_cpp\github_os\input\src\os_base\os_task_queue.c ****       (&RUNNING_TASK[0])->start_time                      = task->start_time;
  98              		.loc 1 50 0
  99 005a 016A     		ldr	r1, [r0, #32]
  51:E:\NeuOrga\Programmieren\c_cpp\github_os\input\src\os_base\os_task_queue.c ****       (&RUNNING_TASK[0])->current_prio                    = task->current_prio;
 100              		.loc 1 51 0
 101 005c 90F82420 		ldrb	r2, [r0, #36]	@ zero_extendqisi2
  46:E:\NeuOrga\Programmieren\c_cpp\github_os\input\src\os_base\os_task_queue.c ****       (&RUNNING_TASK[0])->overwaittime_per_prio_inc_step  = task->overwaittime_per_prio_inc_step;
 102              		.loc 1 46 0
 103 0060 1E61     		str	r6, [r3, #16]
  49:E:\NeuOrga\Programmieren\c_cpp\github_os\input\src\os_base\os_task_queue.c ****       (&RUNNING_TASK[0])->start_time                      = task->start_time;
 104              		.loc 1 49 0
ARM GAS  C:\Users\PRESID~1\AppData\Local\Temp\cc9KVhqU.s 			page 4


 105 0062 C3E90654 		strd	r5, r4, [r3, #24]
  50:E:\NeuOrga\Programmieren\c_cpp\github_os\input\src\os_base\os_task_queue.c ****       (&RUNNING_TASK[0])->current_prio                    = task->current_prio;
 106              		.loc 1 50 0
 107 0066 1962     		str	r1, [r3, #32]
 108              		.loc 1 51 0
 109 0068 83F82420 		strb	r2, [r3, #36]
  52:E:\NeuOrga\Programmieren\c_cpp\github_os\input\src\os_base\os_task_queue.c ****       (&RUNNING_TASK[0])->default_prio                    = task->default_prio;
 110              		.loc 1 52 0
 111 006c 90F82550 		ldrb	r5, [r0, #37]	@ zero_extendqisi2
  53:E:\NeuOrga\Programmieren\c_cpp\github_os\input\src\os_base\os_task_queue.c ****       (&RUNNING_TASK[0])->fp                              = task->fp;
  54:E:\NeuOrga\Programmieren\c_cpp\github_os\input\src\os_base\os_task_queue.c ****       (&RUNNING_TASK[0])->state_request                   = task->state_request;
  55:E:\NeuOrga\Programmieren\c_cpp\github_os\input\src\os_base\os_task_queue.c ****       (&RUNNING_TASK[0])->task_state                      = task->task_state;
 112              		.loc 1 55 0
 113 0070 90F83420 		ldrb	r2, [r0, #52]	@ zero_extendqisi2
  52:E:\NeuOrga\Programmieren\c_cpp\github_os\input\src\os_base\os_task_queue.c ****       (&RUNNING_TASK[0])->default_prio                    = task->default_prio;
 114              		.loc 1 52 0
 115 0074 83F82550 		strb	r5, [r3, #37]
  54:E:\NeuOrga\Programmieren\c_cpp\github_os\input\src\os_base\os_task_queue.c ****       (&RUNNING_TASK[0])->task_state                      = task->task_state;
 116              		.loc 1 54 0
 117 0078 D0E90B41 		ldrd	r4, r1, [r0, #44]
  56:E:\NeuOrga\Programmieren\c_cpp\github_os\input\src\os_base\os_task_queue.c ****       (&RUNNING_TASK[0])->task_group                      = task->task_group;
 118              		.loc 1 56 0
 119 007c 856B     		ldr	r5, [r0, #56]
  53:E:\NeuOrga\Programmieren\c_cpp\github_os\input\src\os_base\os_task_queue.c ****       (&RUNNING_TASK[0])->fp                              = task->fp;
 120              		.loc 1 53 0
 121 007e DC62     		str	r4, [r3, #44]
  54:E:\NeuOrga\Programmieren\c_cpp\github_os\input\src\os_base\os_task_queue.c ****       (&RUNNING_TASK[0])->task_state                      = task->task_state;
 122              		.loc 1 54 0
 123 0080 1963     		str	r1, [r3, #48]
  57:E:\NeuOrga\Programmieren\c_cpp\github_os\input\src\os_base\os_task_queue.c ****    #if(CFG_PROCESSOR == cMCU_X86)
  58:E:\NeuOrga\Programmieren\c_cpp\github_os\input\src\os_base\os_task_queue.c ****       (&RUNNING_TASK[0])->EAX                             = task->EAX;
  59:E:\NeuOrga\Programmieren\c_cpp\github_os\input\src\os_base\os_task_queue.c ****       (&RUNNING_TASK[0])->EBX                             = task->EBX;
  60:E:\NeuOrga\Programmieren\c_cpp\github_os\input\src\os_base\os_task_queue.c ****       (&RUNNING_TASK[0])->ECX                             = task->ECX;
  61:E:\NeuOrga\Programmieren\c_cpp\github_os\input\src\os_base\os_task_queue.c ****       (&RUNNING_TASK[0])->EDX                             = task->EDX;
  62:E:\NeuOrga\Programmieren\c_cpp\github_os\input\src\os_base\os_task_queue.c ****    #else
  63:E:\NeuOrga\Programmieren\c_cpp\github_os\input\src\os_base\os_task_queue.c ****       (&RUNNING_TASK[0])->r0                             = task->r0;
 124              		.loc 1 63 0
 125 0082 C46B     		ldr	r4, [r0, #60]
  64:E:\NeuOrga\Programmieren\c_cpp\github_os\input\src\os_base\os_task_queue.c ****       (&RUNNING_TASK[0])->r1                             = task->r1;
 126              		.loc 1 64 0
 127 0084 016C     		ldr	r1, [r0, #64]
  55:E:\NeuOrga\Programmieren\c_cpp\github_os\input\src\os_base\os_task_queue.c ****       (&RUNNING_TASK[0])->task_group                      = task->task_group;
 128              		.loc 1 55 0
 129 0086 83F83420 		strb	r2, [r3, #52]
  65:E:\NeuOrga\Programmieren\c_cpp\github_os\input\src\os_base\os_task_queue.c ****       (&RUNNING_TASK[0])->r2                             = task->r2;
 130              		.loc 1 65 0
 131 008a 426C     		ldr	r2, [r0, #68]
  56:E:\NeuOrga\Programmieren\c_cpp\github_os\input\src\os_base\os_task_queue.c ****    #if(CFG_PROCESSOR == cMCU_X86)
 132              		.loc 1 56 0
 133 008c 9D63     		str	r5, [r3, #56]
  63:E:\NeuOrga\Programmieren\c_cpp\github_os\input\src\os_base\os_task_queue.c ****       (&RUNNING_TASK[0])->r1                             = task->r1;
 134              		.loc 1 63 0
 135 008e DC63     		str	r4, [r3, #60]
  66:E:\NeuOrga\Programmieren\c_cpp\github_os\input\src\os_base\os_task_queue.c ****       (&RUNNING_TASK[0])->r3                             = task->r3;
 136              		.loc 1 66 0
 137 0090 856C     		ldr	r5, [r0, #72]
  67:E:\NeuOrga\Programmieren\c_cpp\github_os\input\src\os_base\os_task_queue.c ****       (&RUNNING_TASK[0])->r4                             = task->r4;
ARM GAS  C:\Users\PRESID~1\AppData\Local\Temp\cc9KVhqU.s 			page 5


 138              		.loc 1 67 0
 139 0092 C46C     		ldr	r4, [r0, #76]
  64:E:\NeuOrga\Programmieren\c_cpp\github_os\input\src\os_base\os_task_queue.c ****       (&RUNNING_TASK[0])->r2                             = task->r2;
 140              		.loc 1 64 0
 141 0094 1964     		str	r1, [r3, #64]
  65:E:\NeuOrga\Programmieren\c_cpp\github_os\input\src\os_base\os_task_queue.c ****       (&RUNNING_TASK[0])->r3                             = task->r3;
 142              		.loc 1 65 0
 143 0096 5A64     		str	r2, [r3, #68]
  68:E:\NeuOrga\Programmieren\c_cpp\github_os\input\src\os_base\os_task_queue.c ****       (&RUNNING_TASK[0])->r5                             = task->r5;
 144              		.loc 1 68 0
 145 0098 016D     		ldr	r1, [r0, #80]
  69:E:\NeuOrga\Programmieren\c_cpp\github_os\input\src\os_base\os_task_queue.c ****       (&RUNNING_TASK[0])->r6                             = task->r6;
 146              		.loc 1 69 0
 147 009a 426D     		ldr	r2, [r0, #84]
  66:E:\NeuOrga\Programmieren\c_cpp\github_os\input\src\os_base\os_task_queue.c ****       (&RUNNING_TASK[0])->r4                             = task->r4;
 148              		.loc 1 66 0
 149 009c 9D64     		str	r5, [r3, #72]
  67:E:\NeuOrga\Programmieren\c_cpp\github_os\input\src\os_base\os_task_queue.c ****       (&RUNNING_TASK[0])->r5                             = task->r5;
 150              		.loc 1 67 0
 151 009e DC64     		str	r4, [r3, #76]
  70:E:\NeuOrga\Programmieren\c_cpp\github_os\input\src\os_base\os_task_queue.c ****       (&RUNNING_TASK[0])->r7                             = task->r7;
 152              		.loc 1 70 0
 153 00a0 856D     		ldr	r5, [r0, #88]
  71:E:\NeuOrga\Programmieren\c_cpp\github_os\input\src\os_base\os_task_queue.c ****       (&RUNNING_TASK[0])->r8                             = task->r8;
 154              		.loc 1 71 0
 155 00a2 C46D     		ldr	r4, [r0, #92]
  68:E:\NeuOrga\Programmieren\c_cpp\github_os\input\src\os_base\os_task_queue.c ****       (&RUNNING_TASK[0])->r6                             = task->r6;
 156              		.loc 1 68 0
 157 00a4 1965     		str	r1, [r3, #80]
  69:E:\NeuOrga\Programmieren\c_cpp\github_os\input\src\os_base\os_task_queue.c ****       (&RUNNING_TASK[0])->r7                             = task->r7;
 158              		.loc 1 69 0
 159 00a6 5A65     		str	r2, [r3, #84]
  72:E:\NeuOrga\Programmieren\c_cpp\github_os\input\src\os_base\os_task_queue.c ****       (&RUNNING_TASK[0])->r9                             = task->r9;
 160              		.loc 1 72 0
 161 00a8 016E     		ldr	r1, [r0, #96]
  73:E:\NeuOrga\Programmieren\c_cpp\github_os\input\src\os_base\os_task_queue.c ****       (&RUNNING_TASK[0])->r10                            = task->r10;
 162              		.loc 1 73 0
 163 00aa 426E     		ldr	r2, [r0, #100]
  71:E:\NeuOrga\Programmieren\c_cpp\github_os\input\src\os_base\os_task_queue.c ****       (&RUNNING_TASK[0])->r9                             = task->r9;
 164              		.loc 1 71 0
 165 00ac C3E91654 		strd	r5, r4, [r3, #88]
 166              		.loc 1 73 0
 167 00b0 C3E91812 		strd	r1, r2, [r3, #96]
  74:E:\NeuOrga\Programmieren\c_cpp\github_os\input\src\os_base\os_task_queue.c ****       (&RUNNING_TASK[0])->r11                            = task->r11;
  75:E:\NeuOrga\Programmieren\c_cpp\github_os\input\src\os_base\os_task_queue.c ****       (&RUNNING_TASK[0])->r12                            = task->r12;
 168              		.loc 1 75 0
 169 00b4 D0E91A12 		ldrd	r1, r2, [r0, #104]
  76:E:\NeuOrga\Programmieren\c_cpp\github_os\input\src\os_base\os_task_queue.c ****    #endif
  77:E:\NeuOrga\Programmieren\c_cpp\github_os\input\src\os_base\os_task_queue.c **** 
  78:E:\NeuOrga\Programmieren\c_cpp\github_os\input\src\os_base\os_task_queue.c ****       (&RUNNING_TASK[0])->pStackPointer                   = task->pStackPointer;
  79:E:\NeuOrga\Programmieren\c_cpp\github_os\input\src\os_base\os_task_queue.c ****       (&RUNNING_TASK[0])->pStackPointerByMalloc           = task->pStackPointerByMalloc;
 170              		.loc 1 79 0
 171 00b8 D0E91C65 		ldrd	r6, r5, [r0, #112]
  74:E:\NeuOrga\Programmieren\c_cpp\github_os\input\src\os_base\os_task_queue.c ****       (&RUNNING_TASK[0])->r11                            = task->r11;
 172              		.loc 1 74 0
 173 00bc 9966     		str	r1, [r3, #104]
  75:E:\NeuOrga\Programmieren\c_cpp\github_os\input\src\os_base\os_task_queue.c ****    #endif
ARM GAS  C:\Users\PRESID~1\AppData\Local\Temp\cc9KVhqU.s 			page 6


 174              		.loc 1 75 0
 175 00be DA66     		str	r2, [r3, #108]
  80:E:\NeuOrga\Programmieren\c_cpp\github_os\input\src\os_base\os_task_queue.c ****       (&RUNNING_TASK[0])->pStackPointerStart              = task->pStackPointerStart;
  81:E:\NeuOrga\Programmieren\c_cpp\github_os\input\src\os_base\os_task_queue.c ****       (&RUNNING_TASK[0])->StackSize                       = task->StackSize;
  82:E:\NeuOrga\Programmieren\c_cpp\github_os\input\src\os_base\os_task_queue.c ****       (&RUNNING_TASK[0])->pStackPointerEnd                = task->pStackPointerEnd;
 176              		.loc 1 82 0
 177 00c0 D0E91F12 		ldrd	r1, r2, [r0, #124]
  80:E:\NeuOrga\Programmieren\c_cpp\github_os\input\src\os_base\os_task_queue.c ****       (&RUNNING_TASK[0])->pStackPointerStart              = task->pStackPointerStart;
 178              		.loc 1 80 0
 179 00c4 846F     		ldr	r4, [r0, #120]
 180              		.loc 1 82 0
 181 00c6 C3F88020 		str	r2, [r3, #128]
  79:E:\NeuOrga\Programmieren\c_cpp\github_os\input\src\os_base\os_task_queue.c ****       (&RUNNING_TASK[0])->pStackPointerStart              = task->pStackPointerStart;
 182              		.loc 1 79 0
 183 00ca C3E91C65 		strd	r6, r5, [r3, #112]
  81:E:\NeuOrga\Programmieren\c_cpp\github_os\input\src\os_base\os_task_queue.c ****       (&RUNNING_TASK[0])->pStackPointerEnd                = task->pStackPointerEnd;
 184              		.loc 1 81 0
 185 00ce C3E91E41 		strd	r4, r1, [r3, #120]
  83:E:\NeuOrga\Programmieren\c_cpp\github_os\input\src\os_base\os_task_queue.c ****    }
  84:E:\NeuOrga\Programmieren\c_cpp\github_os\input\src\os_base\os_task_queue.c **** }
 186              		.loc 1 84 0
 187 00d2 70BC     		pop	{r4, r5, r6}
 188              		.cfi_restore 6
 189              		.cfi_restore 5
 190              		.cfi_restore 4
 191              		.cfi_def_cfa_offset 0
 192 00d4 7047     		bx	lr
 193              	.LVL2:
 194              	.L7:
 195 00d6 7047     		bx	lr
 196              	.L12:
 197              		.align	2
 198              	.L11:
 199 00d8 00000000 		.word	RUNNING_SCHEDULING_QUEUE_ENTRY
 200 00dc 00000000 		.word	RUNNING_TASK
 201              		.cfi_endproc
 202              	.LFE0:
 204              		.align	1
 205              		.p2align 2,,3
 206              		.global	OS_InitTaskQueue
 207              		.syntax unified
 208              		.thumb
 209              		.thumb_func
 210              		.fpu softvfp
 212              	OS_InitTaskQueue:
 213              	.LFB1:
  85:E:\NeuOrga\Programmieren\c_cpp\github_os\input\src\os_base\os_task_queue.c **** 
  86:E:\NeuOrga\Programmieren\c_cpp\github_os\input\src\os_base\os_task_queue.c **** /* task queue handling */
  87:E:\NeuOrga\Programmieren\c_cpp\github_os\input\src\os_base\os_task_queue.c **** void OS_InitTaskQueue(void)
  88:E:\NeuOrga\Programmieren\c_cpp\github_os\input\src\os_base\os_task_queue.c **** {
 214              		.loc 1 88 0
 215              		.cfi_startproc
 216              		@ args = 0, pretend = 0, frame = 0
 217              		@ frame_needed = 0, uses_anonymous_args = 0
 218 00e0 2DE9F041 		push	{r4, r5, r6, r7, r8, lr}
 219              		.cfi_def_cfa_offset 24
 220              		.cfi_offset 4, -24
ARM GAS  C:\Users\PRESID~1\AppData\Local\Temp\cc9KVhqU.s 			page 7


 221              		.cfi_offset 5, -20
 222              		.cfi_offset 6, -16
 223              		.cfi_offset 7, -12
 224              		.cfi_offset 8, -8
 225              		.cfi_offset 14, -4
  89:E:\NeuOrga\Programmieren\c_cpp\github_os\input\src\os_base\os_task_queue.c ****    if(bTASK_QUEUE_INITIALIZED == False)
 226              		.loc 1 89 0
 227 00e4 DFF83480 		ldr	r8, .L18+8
 228 00e8 98F80060 		ldrb	r6, [r8]	@ zero_extendqisi2
 229 00ec 7EB9     		cbnz	r6, .L13
 230 00ee 094C     		ldr	r4, .L18
 231 00f0 094D     		ldr	r5, .L18+4
 232 00f2 04F12807 		add	r7, r4, #40
 233              	.L15:
 234              	.LBB2:
  90:E:\NeuOrga\Programmieren\c_cpp\github_os\input\src\os_base\os_task_queue.c ****    {
  91:E:\NeuOrga\Programmieren\c_cpp\github_os\input\src\os_base\os_task_queue.c ****       unsigned_char_t element_nr = 0;
  92:E:\NeuOrga\Programmieren\c_cpp\github_os\input\src\os_base\os_task_queue.c ****       while(element_nr < MAX_RUN_QUEUE_SIZE)
  93:E:\NeuOrga\Programmieren\c_cpp\github_os\input\src\os_base\os_task_queue.c ****       {
  94:E:\NeuOrga\Programmieren\c_cpp\github_os\input\src\os_base\os_task_queue.c ****          TASK_SCHEDULING_QUEUE[element_nr] = (scheduling_t)0;
 235              		.loc 1 94 0
 236 00f6 44F8046B 		str	r6, [r4], #4
  95:E:\NeuOrga\Programmieren\c_cpp\github_os\input\src\os_base\os_task_queue.c ****          OS_Task_InitTaskEnvironment(&TASK_RUN_QUEUE[element_nr]);
 237              		.loc 1 95 0
 238 00fa 2846     		mov	r0, r5
 239 00fc FFF7FEFF 		bl	OS_Task_InitTaskEnvironment
 240              	.LVL3:
  92:E:\NeuOrga\Programmieren\c_cpp\github_os\input\src\os_base\os_task_queue.c ****       {
 241              		.loc 1 92 0
 242 0100 BC42     		cmp	r4, r7
 243 0102 05F18805 		add	r5, r5, #136
 244 0106 F6D1     		bne	.L15
  96:E:\NeuOrga\Programmieren\c_cpp\github_os\input\src\os_base\os_task_queue.c ****          element_nr++;
  97:E:\NeuOrga\Programmieren\c_cpp\github_os\input\src\os_base\os_task_queue.c ****       }
  98:E:\NeuOrga\Programmieren\c_cpp\github_os\input\src\os_base\os_task_queue.c ****       bTASK_QUEUE_INITIALIZED = True;
 245              		.loc 1 98 0
 246 0108 0123     		movs	r3, #1
 247 010a 88F80030 		strb	r3, [r8]
 248              	.L13:
 249              	.LBE2:
  99:E:\NeuOrga\Programmieren\c_cpp\github_os\input\src\os_base\os_task_queue.c ****    }
 100:E:\NeuOrga\Programmieren\c_cpp\github_os\input\src\os_base\os_task_queue.c **** }
 250              		.loc 1 100 0
 251 010e BDE8F081 		pop	{r4, r5, r6, r7, r8, pc}
 252              	.L19:
 253 0112 00BF     		.align	2
 254              	.L18:
 255 0114 00000000 		.word	TASK_SCHEDULING_QUEUE
 256 0118 00000000 		.word	TASK_RUN_QUEUE
 257 011c 00000000 		.word	bTASK_QUEUE_INITIALIZED
 258              		.cfi_endproc
 259              	.LFE1:
 261              		.align	1
 262              		.p2align 2,,3
 263              		.global	AddToTaskQueue
 264              		.syntax unified
 265              		.thumb
ARM GAS  C:\Users\PRESID~1\AppData\Local\Temp\cc9KVhqU.s 			page 8


 266              		.thumb_func
 267              		.fpu softvfp
 269              	AddToTaskQueue:
 270              	.LFB2:
 101:E:\NeuOrga\Programmieren\c_cpp\github_os\input\src\os_base\os_task_queue.c **** task_t* AddToTaskQueue(task_t* task)
 102:E:\NeuOrga\Programmieren\c_cpp\github_os\input\src\os_base\os_task_queue.c **** {
 271              		.loc 1 102 0
 272              		.cfi_startproc
 273              		@ args = 0, pretend = 0, frame = 0
 274              		@ frame_needed = 0, uses_anonymous_args = 0
 275              		@ link register save eliminated.
 276              	.LVL4:
 103:E:\NeuOrga\Programmieren\c_cpp\github_os\input\src\os_base\os_task_queue.c ****    unsigned_char_t element_nr = 0;
 104:E:\NeuOrga\Programmieren\c_cpp\github_os\input\src\os_base\os_task_queue.c ****    task_t* ret_task = 0;
 105:E:\NeuOrga\Programmieren\c_cpp\github_os\input\src\os_base\os_task_queue.c ****    
 106:E:\NeuOrga\Programmieren\c_cpp\github_os\input\src\os_base\os_task_queue.c ****    while( (element_nr < MAX_RUN_QUEUE_SIZE)
 107:E:\NeuOrga\Programmieren\c_cpp\github_os\input\src\os_base\os_task_queue.c ****           &&((&TASK_RUN_QUEUE[element_nr])->task_queued == True)
 277              		.loc 1 107 0
 278 0120 554A     		ldr	r2, .L36
 279 0122 1378     		ldrb	r3, [r2]	@ zero_extendqisi2
 280 0124 C3F34003 		ubfx	r3, r3, #1, #1
 281 0128 002B     		cmp	r3, #0
 282 012a 00F09580 		beq	.L23
 283              	.LVL5:
 284 012e 92F88810 		ldrb	r1, [r2, #136]	@ zero_extendqisi2
 285 0132 8907     		lsls	r1, r1, #30
 286 0134 28D5     		bpl	.L21
 287              	.LVL6:
 288 0136 92F81031 		ldrb	r3, [r2, #272]	@ zero_extendqisi2
 289 013a 9907     		lsls	r1, r3, #30
 290 013c 40F18E80 		bpl	.L25
 291              	.LVL7:
 292 0140 92F89831 		ldrb	r3, [r2, #408]	@ zero_extendqisi2
 293 0144 9B07     		lsls	r3, r3, #30
 294 0146 40F18B80 		bpl	.L26
 295              	.LVL8:
 296 014a 92F82032 		ldrb	r3, [r2, #544]	@ zero_extendqisi2
 297 014e 9907     		lsls	r1, r3, #30
 298 0150 40F18880 		bpl	.L27
 299              	.LVL9:
 300 0154 92F8A832 		ldrb	r3, [r2, #680]	@ zero_extendqisi2
 301 0158 9B07     		lsls	r3, r3, #30
 302 015a 40F18580 		bpl	.L28
 303              	.LVL10:
 304 015e 92F83033 		ldrb	r3, [r2, #816]	@ zero_extendqisi2
 305 0162 9907     		lsls	r1, r3, #30
 306 0164 40F18480 		bpl	.L29
 307              	.LVL11:
 308 0168 92F8B833 		ldrb	r3, [r2, #952]	@ zero_extendqisi2
 309 016c 9B07     		lsls	r3, r3, #30
 310 016e 40F18180 		bpl	.L30
 311              	.LVL12:
 312 0172 92F84034 		ldrb	r3, [r2, #1088]	@ zero_extendqisi2
 313 0176 9907     		lsls	r1, r3, #30
 314 0178 78D5     		bpl	.L31
 315              	.LVL13:
 316 017a 92F8C834 		ldrb	r3, [r2, #1224]	@ zero_extendqisi2
ARM GAS  C:\Users\PRESID~1\AppData\Local\Temp\cc9KVhqU.s 			page 9


 317 017e 9B07     		lsls	r3, r3, #30
 318 0180 01D5     		bpl	.L32
 104:E:\NeuOrga\Programmieren\c_cpp\github_os\input\src\os_base\os_task_queue.c ****    
 319              		.loc 1 104 0
 320 0182 0020     		movs	r0, #0
 321              	.LVL14:
 108:E:\NeuOrga\Programmieren\c_cpp\github_os\input\src\os_base\os_task_queue.c ****         )
 109:E:\NeuOrga\Programmieren\c_cpp\github_os\input\src\os_base\os_task_queue.c ****    {
 110:E:\NeuOrga\Programmieren\c_cpp\github_os\input\src\os_base\os_task_queue.c ****       element_nr++;
 111:E:\NeuOrga\Programmieren\c_cpp\github_os\input\src\os_base\os_task_queue.c ****    }
 112:E:\NeuOrga\Programmieren\c_cpp\github_os\input\src\os_base\os_task_queue.c ****    /* while loop ended due to free task_array slot ...*/
 113:E:\NeuOrga\Programmieren\c_cpp\github_os\input\src\os_base\os_task_queue.c ****    if( (element_nr < MAX_RUN_QUEUE_SIZE) && ((&TASK_RUN_QUEUE[element_nr])->task_queued == False) )
 114:E:\NeuOrga\Programmieren\c_cpp\github_os\input\src\os_base\os_task_queue.c ****    {
 115:E:\NeuOrga\Programmieren\c_cpp\github_os\input\src\os_base\os_task_queue.c ****       (&TASK_RUN_QUEUE[element_nr])->active                          = task->active;
 116:E:\NeuOrga\Programmieren\c_cpp\github_os\input\src\os_base\os_task_queue.c ****       (&TASK_RUN_QUEUE[element_nr])->task_queued                     = True;
 117:E:\NeuOrga\Programmieren\c_cpp\github_os\input\src\os_base\os_task_queue.c ****       (&TASK_RUN_QUEUE[element_nr])->IdleTask                        = task->IdleTask;
 118:E:\NeuOrga\Programmieren\c_cpp\github_os\input\src\os_base\os_task_queue.c ****       (&TASK_RUN_QUEUE[element_nr])->FREE                            = task->FREE;
 119:E:\NeuOrga\Programmieren\c_cpp\github_os\input\src\os_base\os_task_queue.c ****       (&TASK_RUN_QUEUE[element_nr])->NrOfInsAllowed                  = task->NrOfInsAllowed;
 120:E:\NeuOrga\Programmieren\c_cpp\github_os\input\src\os_base\os_task_queue.c ****       (&TASK_RUN_QUEUE[element_nr])->NrOfInsActivated                = task->NrOfInsActivated;
 121:E:\NeuOrga\Programmieren\c_cpp\github_os\input\src\os_base\os_task_queue.c ****       (&TASK_RUN_QUEUE[element_nr])->WaitActUntil                    = task->WaitActUntil;
 122:E:\NeuOrga\Programmieren\c_cpp\github_os\input\src\os_base\os_task_queue.c ****       (&TASK_RUN_QUEUE[element_nr])->wait_time                       = task->wait_time;
 123:E:\NeuOrga\Programmieren\c_cpp\github_os\input\src\os_base\os_task_queue.c ****       (&TASK_RUN_QUEUE[element_nr])->TimeToPrioInc                   = task->TimeToPrioInc;
 124:E:\NeuOrga\Programmieren\c_cpp\github_os\input\src\os_base\os_task_queue.c ****       (&TASK_RUN_QUEUE[element_nr])->overwaittime_per_prio_inc_step  = task->overwaittime_per_prio_
 125:E:\NeuOrga\Programmieren\c_cpp\github_os\input\src\os_base\os_task_queue.c ****       (&TASK_RUN_QUEUE[element_nr])->max_allowed_wait_time           = task->max_allowed_wait_time;
 126:E:\NeuOrga\Programmieren\c_cpp\github_os\input\src\os_base\os_task_queue.c ****       (&TASK_RUN_QUEUE[element_nr])->exe_time                        = task->exe_time;
 127:E:\NeuOrga\Programmieren\c_cpp\github_os\input\src\os_base\os_task_queue.c ****       (&TASK_RUN_QUEUE[element_nr])->start_time                      = task->start_time;
 128:E:\NeuOrga\Programmieren\c_cpp\github_os\input\src\os_base\os_task_queue.c ****       (&TASK_RUN_QUEUE[element_nr])->current_prio                    = task->current_prio;
 129:E:\NeuOrga\Programmieren\c_cpp\github_os\input\src\os_base\os_task_queue.c ****       (&TASK_RUN_QUEUE[element_nr])->default_prio                    = task->default_prio;
 130:E:\NeuOrga\Programmieren\c_cpp\github_os\input\src\os_base\os_task_queue.c ****       (&TASK_RUN_QUEUE[element_nr])->fp                              = task->fp;
 131:E:\NeuOrga\Programmieren\c_cpp\github_os\input\src\os_base\os_task_queue.c ****       (&TASK_RUN_QUEUE[element_nr])->state_request                   = task->state_request;
 132:E:\NeuOrga\Programmieren\c_cpp\github_os\input\src\os_base\os_task_queue.c ****       (&TASK_RUN_QUEUE[element_nr])->task_state                      = task->task_state;
 133:E:\NeuOrga\Programmieren\c_cpp\github_os\input\src\os_base\os_task_queue.c ****       (&TASK_RUN_QUEUE[element_nr])->task_group                      = task->task_group;
 134:E:\NeuOrga\Programmieren\c_cpp\github_os\input\src\os_base\os_task_queue.c ****    #if(CFG_PROCESSOR == cMCU_X86)
 135:E:\NeuOrga\Programmieren\c_cpp\github_os\input\src\os_base\os_task_queue.c ****       (&TASK_RUN_QUEUE[element_nr])->EAX                             = task->EAX;
 136:E:\NeuOrga\Programmieren\c_cpp\github_os\input\src\os_base\os_task_queue.c ****       (&TASK_RUN_QUEUE[element_nr])->EBX                             = task->EBX;
 137:E:\NeuOrga\Programmieren\c_cpp\github_os\input\src\os_base\os_task_queue.c ****       (&TASK_RUN_QUEUE[element_nr])->ECX                             = task->ECX;
 138:E:\NeuOrga\Programmieren\c_cpp\github_os\input\src\os_base\os_task_queue.c ****       (&TASK_RUN_QUEUE[element_nr])->EDX                             = task->EDX;
 139:E:\NeuOrga\Programmieren\c_cpp\github_os\input\src\os_base\os_task_queue.c ****    #else
 140:E:\NeuOrga\Programmieren\c_cpp\github_os\input\src\os_base\os_task_queue.c ****       (&TASK_RUN_QUEUE[element_nr])->r0                             = task->r0;
 141:E:\NeuOrga\Programmieren\c_cpp\github_os\input\src\os_base\os_task_queue.c ****       (&TASK_RUN_QUEUE[element_nr])->r1                             = task->r1;
 142:E:\NeuOrga\Programmieren\c_cpp\github_os\input\src\os_base\os_task_queue.c ****       (&TASK_RUN_QUEUE[element_nr])->r2                             = task->r2;
 143:E:\NeuOrga\Programmieren\c_cpp\github_os\input\src\os_base\os_task_queue.c ****       (&TASK_RUN_QUEUE[element_nr])->r3                             = task->r3;
 144:E:\NeuOrga\Programmieren\c_cpp\github_os\input\src\os_base\os_task_queue.c ****       (&TASK_RUN_QUEUE[element_nr])->r4                             = task->r4;
 145:E:\NeuOrga\Programmieren\c_cpp\github_os\input\src\os_base\os_task_queue.c ****       (&TASK_RUN_QUEUE[element_nr])->r5                             = task->r5;
 146:E:\NeuOrga\Programmieren\c_cpp\github_os\input\src\os_base\os_task_queue.c ****       (&TASK_RUN_QUEUE[element_nr])->r6                             = task->r6;
 147:E:\NeuOrga\Programmieren\c_cpp\github_os\input\src\os_base\os_task_queue.c ****       (&TASK_RUN_QUEUE[element_nr])->r7                             = task->r7;
 148:E:\NeuOrga\Programmieren\c_cpp\github_os\input\src\os_base\os_task_queue.c ****       (&TASK_RUN_QUEUE[element_nr])->r8                             = task->r8;
 149:E:\NeuOrga\Programmieren\c_cpp\github_os\input\src\os_base\os_task_queue.c ****       (&TASK_RUN_QUEUE[element_nr])->r9                             = task->r9;
 150:E:\NeuOrga\Programmieren\c_cpp\github_os\input\src\os_base\os_task_queue.c ****       (&TASK_RUN_QUEUE[element_nr])->r10                            = task->r10;
 151:E:\NeuOrga\Programmieren\c_cpp\github_os\input\src\os_base\os_task_queue.c ****       (&TASK_RUN_QUEUE[element_nr])->r11                            = task->r11;
 152:E:\NeuOrga\Programmieren\c_cpp\github_os\input\src\os_base\os_task_queue.c ****       (&TASK_RUN_QUEUE[element_nr])->r12                            = task->r12;
 153:E:\NeuOrga\Programmieren\c_cpp\github_os\input\src\os_base\os_task_queue.c ****    #endif
 154:E:\NeuOrga\Programmieren\c_cpp\github_os\input\src\os_base\os_task_queue.c ****       (&TASK_RUN_QUEUE[element_nr])->pStackPointer                   = task->pStackPointer;
 155:E:\NeuOrga\Programmieren\c_cpp\github_os\input\src\os_base\os_task_queue.c ****       (&TASK_RUN_QUEUE[element_nr])->pStackPointerByMalloc           = task->pStackPointerByMalloc;
 156:E:\NeuOrga\Programmieren\c_cpp\github_os\input\src\os_base\os_task_queue.c ****       (&TASK_RUN_QUEUE[element_nr])->pStackPointerStart              = task->pStackPointerStart;
 157:E:\NeuOrga\Programmieren\c_cpp\github_os\input\src\os_base\os_task_queue.c ****       (&TASK_RUN_QUEUE[element_nr])->StackSize                       = task->StackSize;
 158:E:\NeuOrga\Programmieren\c_cpp\github_os\input\src\os_base\os_task_queue.c ****       (&TASK_RUN_QUEUE[element_nr])->pStackPointerEnd                = task->pStackPointerEnd;
ARM GAS  C:\Users\PRESID~1\AppData\Local\Temp\cc9KVhqU.s 			page 10


 159:E:\NeuOrga\Programmieren\c_cpp\github_os\input\src\os_base\os_task_queue.c ****       ret_task = &TASK_RUN_QUEUE[element_nr];
 160:E:\NeuOrga\Programmieren\c_cpp\github_os\input\src\os_base\os_task_queue.c ****    }
 161:E:\NeuOrga\Programmieren\c_cpp\github_os\input\src\os_base\os_task_queue.c ****    return ret_task;
 162:E:\NeuOrga\Programmieren\c_cpp\github_os\input\src\os_base\os_task_queue.c **** }
 322              		.loc 1 162 0
 323 0184 7047     		bx	lr
 324              	.LVL15:
 325              	.L32:
 107:E:\NeuOrga\Programmieren\c_cpp\github_os\input\src\os_base\os_task_queue.c ****         )
 326              		.loc 1 107 0
 327 0186 0923     		movs	r3, #9
 328              	.LVL16:
 329              	.L21:
 115:E:\NeuOrga\Programmieren\c_cpp\github_os\input\src\os_base\os_task_queue.c ****       (&TASK_RUN_QUEUE[element_nr])->task_queued                     = True;
 330              		.loc 1 115 0
 331 0188 03EB0313 		add	r3, r3, r3, lsl #4
 332 018c DB00     		lsls	r3, r3, #3
 102:E:\NeuOrga\Programmieren\c_cpp\github_os\input\src\os_base\os_task_queue.c ****    unsigned_char_t element_nr = 0;
 333              		.loc 1 102 0
 334 018e 70B4     		push	{r4, r5, r6}
 335              		.cfi_def_cfa_offset 12
 336              		.cfi_offset 4, -12
 337              		.cfi_offset 5, -8
 338              		.cfi_offset 6, -4
 115:E:\NeuOrga\Programmieren\c_cpp\github_os\input\src\os_base\os_task_queue.c ****       (&TASK_RUN_QUEUE[element_nr])->task_queued                     = True;
 339              		.loc 1 115 0
 340 0190 D15C     		ldrb	r1, [r2, r3]	@ zero_extendqisi2
 341 0192 0478     		ldrb	r4, [r0]	@ zero_extendqisi2
 342 0194 64F30001 		bfi	r1, r4, #0, #1
 116:E:\NeuOrga\Programmieren\c_cpp\github_os\input\src\os_base\os_task_queue.c ****       (&TASK_RUN_QUEUE[element_nr])->IdleTask                        = task->IdleTask;
 343              		.loc 1 116 0
 344 0198 C9B2     		uxtb	r1, r1
 345 019a 41F00201 		orr	r1, r1, #2
 346 019e D154     		strb	r1, [r2, r3]
 117:E:\NeuOrga\Programmieren\c_cpp\github_os\input\src\os_base\os_task_queue.c ****       (&TASK_RUN_QUEUE[element_nr])->FREE                            = task->FREE;
 347              		.loc 1 117 0
 348 01a0 0178     		ldrb	r1, [r0]	@ zero_extendqisi2
 349 01a2 D45C     		ldrb	r4, [r2, r3]	@ zero_extendqisi2
 350 01a4 C1F38001 		ubfx	r1, r1, #2, #1
 351 01a8 61F38204 		bfi	r4, r1, #2, #1
 352 01ac D454     		strb	r4, [r2, r3]
 118:E:\NeuOrga\Programmieren\c_cpp\github_os\input\src\os_base\os_task_queue.c ****       (&TASK_RUN_QUEUE[element_nr])->NrOfInsAllowed                  = task->NrOfInsAllowed;
 353              		.loc 1 118 0
 354 01ae 0168     		ldr	r1, [r0]
 355 01b0 D458     		ldr	r4, [r2, r3]
 356 01b2 C1F3DC01 		ubfx	r1, r1, #3, #29
 357 01b6 61F3DF04 		bfi	r4, r1, #3, #29
 358 01ba D450     		str	r4, [r2, r3]
 115:E:\NeuOrga\Programmieren\c_cpp\github_os\input\src\os_base\os_task_queue.c ****       (&TASK_RUN_QUEUE[element_nr])->task_queued                     = True;
 359              		.loc 1 115 0
 360 01bc 1344     		add	r3, r3, r2
 119:E:\NeuOrga\Programmieren\c_cpp\github_os\input\src\os_base\os_task_queue.c ****       (&TASK_RUN_QUEUE[element_nr])->NrOfInsActivated                = task->NrOfInsActivated;
 361              		.loc 1 119 0
 362 01be 0279     		ldrb	r2, [r0, #4]	@ zero_extendqisi2
 363 01c0 1A71     		strb	r2, [r3, #4]
 120:E:\NeuOrga\Programmieren\c_cpp\github_os\input\src\os_base\os_task_queue.c ****       (&TASK_RUN_QUEUE[element_nr])->WaitActUntil                    = task->WaitActUntil;
 364              		.loc 1 120 0
ARM GAS  C:\Users\PRESID~1\AppData\Local\Temp\cc9KVhqU.s 			page 11


 365 01c2 4279     		ldrb	r2, [r0, #5]	@ zero_extendqisi2
 366 01c4 5A71     		strb	r2, [r3, #5]
 122:E:\NeuOrga\Programmieren\c_cpp\github_os\input\src\os_base\os_task_queue.c ****       (&TASK_RUN_QUEUE[element_nr])->TimeToPrioInc                   = task->TimeToPrioInc;
 367              		.loc 1 122 0
 368 01c6 D0E90241 		ldrd	r4, r1, [r0, #8]
 124:E:\NeuOrga\Programmieren\c_cpp\github_os\input\src\os_base\os_task_queue.c ****       (&TASK_RUN_QUEUE[element_nr])->max_allowed_wait_time           = task->max_allowed_wait_time;
 369              		.loc 1 124 0
 370 01ca D0E90425 		ldrd	r2, r5, [r0, #16]
 121:E:\NeuOrga\Programmieren\c_cpp\github_os\input\src\os_base\os_task_queue.c ****       (&TASK_RUN_QUEUE[element_nr])->wait_time                       = task->wait_time;
 371              		.loc 1 121 0
 372 01ce 9C60     		str	r4, [r3, #8]
 125:E:\NeuOrga\Programmieren\c_cpp\github_os\input\src\os_base\os_task_queue.c ****       (&TASK_RUN_QUEUE[element_nr])->exe_time                        = task->exe_time;
 373              		.loc 1 125 0
 374 01d0 8469     		ldr	r4, [r0, #24]
 122:E:\NeuOrga\Programmieren\c_cpp\github_os\input\src\os_base\os_task_queue.c ****       (&TASK_RUN_QUEUE[element_nr])->TimeToPrioInc                   = task->TimeToPrioInc;
 375              		.loc 1 122 0
 376 01d2 D960     		str	r1, [r3, #12]
 126:E:\NeuOrga\Programmieren\c_cpp\github_os\input\src\os_base\os_task_queue.c ****       (&TASK_RUN_QUEUE[element_nr])->start_time                      = task->start_time;
 377              		.loc 1 126 0
 378 01d4 C169     		ldr	r1, [r0, #28]
 123:E:\NeuOrga\Programmieren\c_cpp\github_os\input\src\os_base\os_task_queue.c ****       (&TASK_RUN_QUEUE[element_nr])->overwaittime_per_prio_inc_step  = task->overwaittime_per_prio_
 379              		.loc 1 123 0
 380 01d6 1A61     		str	r2, [r3, #16]
 127:E:\NeuOrga\Programmieren\c_cpp\github_os\input\src\os_base\os_task_queue.c ****       (&TASK_RUN_QUEUE[element_nr])->current_prio                    = task->current_prio;
 381              		.loc 1 127 0
 382 01d8 026A     		ldr	r2, [r0, #32]
 125:E:\NeuOrga\Programmieren\c_cpp\github_os\input\src\os_base\os_task_queue.c ****       (&TASK_RUN_QUEUE[element_nr])->exe_time                        = task->exe_time;
 383              		.loc 1 125 0
 384 01da C3E90554 		strd	r5, r4, [r3, #20]
 127:E:\NeuOrga\Programmieren\c_cpp\github_os\input\src\os_base\os_task_queue.c ****       (&TASK_RUN_QUEUE[element_nr])->current_prio                    = task->current_prio;
 385              		.loc 1 127 0
 386 01de C3E90712 		strd	r1, r2, [r3, #28]
 128:E:\NeuOrga\Programmieren\c_cpp\github_os\input\src\os_base\os_task_queue.c ****       (&TASK_RUN_QUEUE[element_nr])->default_prio                    = task->default_prio;
 387              		.loc 1 128 0
 388 01e2 90F82420 		ldrb	r2, [r0, #36]	@ zero_extendqisi2
 389 01e6 83F82420 		strb	r2, [r3, #36]
 129:E:\NeuOrga\Programmieren\c_cpp\github_os\input\src\os_base\os_task_queue.c ****       (&TASK_RUN_QUEUE[element_nr])->fp                              = task->fp;
 390              		.loc 1 129 0
 391 01ea 90F82520 		ldrb	r2, [r0, #37]	@ zero_extendqisi2
 392 01ee 83F82520 		strb	r2, [r3, #37]
 130:E:\NeuOrga\Programmieren\c_cpp\github_os\input\src\os_base\os_task_queue.c ****       (&TASK_RUN_QUEUE[element_nr])->state_request                   = task->state_request;
 393              		.loc 1 130 0
 394 01f2 C26A     		ldr	r2, [r0, #44]
 395 01f4 DA62     		str	r2, [r3, #44]
 140:E:\NeuOrga\Programmieren\c_cpp\github_os\input\src\os_base\os_task_queue.c ****       (&TASK_RUN_QUEUE[element_nr])->r1                             = task->r1;
 396              		.loc 1 140 0
 397 01f6 D0E90E12 		ldrd	r1, r2, [r0, #56]
 131:E:\NeuOrga\Programmieren\c_cpp\github_os\input\src\os_base\os_task_queue.c ****       (&TASK_RUN_QUEUE[element_nr])->task_state                      = task->task_state;
 398              		.loc 1 131 0
 399 01fa 056B     		ldr	r5, [r0, #48]
 132:E:\NeuOrga\Programmieren\c_cpp\github_os\input\src\os_base\os_task_queue.c ****       (&TASK_RUN_QUEUE[element_nr])->task_group                      = task->task_group;
 400              		.loc 1 132 0
 401 01fc 90F83440 		ldrb	r4, [r0, #52]	@ zero_extendqisi2
 131:E:\NeuOrga\Programmieren\c_cpp\github_os\input\src\os_base\os_task_queue.c ****       (&TASK_RUN_QUEUE[element_nr])->task_state                      = task->task_state;
 402              		.loc 1 131 0
 403 0200 1D63     		str	r5, [r3, #48]
 141:E:\NeuOrga\Programmieren\c_cpp\github_os\input\src\os_base\os_task_queue.c ****       (&TASK_RUN_QUEUE[element_nr])->r2                             = task->r2;
ARM GAS  C:\Users\PRESID~1\AppData\Local\Temp\cc9KVhqU.s 			page 12


 404              		.loc 1 141 0
 405 0202 056C     		ldr	r5, [r0, #64]
 132:E:\NeuOrga\Programmieren\c_cpp\github_os\input\src\os_base\os_task_queue.c ****       (&TASK_RUN_QUEUE[element_nr])->task_group                      = task->task_group;
 406              		.loc 1 132 0
 407 0204 83F83440 		strb	r4, [r3, #52]
 142:E:\NeuOrga\Programmieren\c_cpp\github_os\input\src\os_base\os_task_queue.c ****       (&TASK_RUN_QUEUE[element_nr])->r3                             = task->r3;
 408              		.loc 1 142 0
 409 0208 446C     		ldr	r4, [r0, #68]
 133:E:\NeuOrga\Programmieren\c_cpp\github_os\input\src\os_base\os_task_queue.c ****    #if(CFG_PROCESSOR == cMCU_X86)
 410              		.loc 1 133 0
 411 020a 9963     		str	r1, [r3, #56]
 143:E:\NeuOrga\Programmieren\c_cpp\github_os\input\src\os_base\os_task_queue.c ****       (&TASK_RUN_QUEUE[element_nr])->r4                             = task->r4;
 412              		.loc 1 143 0
 413 020c 816C     		ldr	r1, [r0, #72]
 140:E:\NeuOrga\Programmieren\c_cpp\github_os\input\src\os_base\os_task_queue.c ****       (&TASK_RUN_QUEUE[element_nr])->r1                             = task->r1;
 414              		.loc 1 140 0
 415 020e DA63     		str	r2, [r3, #60]
 144:E:\NeuOrga\Programmieren\c_cpp\github_os\input\src\os_base\os_task_queue.c ****       (&TASK_RUN_QUEUE[element_nr])->r5                             = task->r5;
 416              		.loc 1 144 0
 417 0210 C26C     		ldr	r2, [r0, #76]
 141:E:\NeuOrga\Programmieren\c_cpp\github_os\input\src\os_base\os_task_queue.c ****       (&TASK_RUN_QUEUE[element_nr])->r2                             = task->r2;
 418              		.loc 1 141 0
 419 0212 1D64     		str	r5, [r3, #64]
 145:E:\NeuOrga\Programmieren\c_cpp\github_os\input\src\os_base\os_task_queue.c ****       (&TASK_RUN_QUEUE[element_nr])->r6                             = task->r6;
 420              		.loc 1 145 0
 421 0214 056D     		ldr	r5, [r0, #80]
 142:E:\NeuOrga\Programmieren\c_cpp\github_os\input\src\os_base\os_task_queue.c ****       (&TASK_RUN_QUEUE[element_nr])->r3                             = task->r3;
 422              		.loc 1 142 0
 423 0216 5C64     		str	r4, [r3, #68]
 146:E:\NeuOrga\Programmieren\c_cpp\github_os\input\src\os_base\os_task_queue.c ****       (&TASK_RUN_QUEUE[element_nr])->r7                             = task->r7;
 424              		.loc 1 146 0
 425 0218 446D     		ldr	r4, [r0, #84]
 143:E:\NeuOrga\Programmieren\c_cpp\github_os\input\src\os_base\os_task_queue.c ****       (&TASK_RUN_QUEUE[element_nr])->r4                             = task->r4;
 426              		.loc 1 143 0
 427 021a 9964     		str	r1, [r3, #72]
 147:E:\NeuOrga\Programmieren\c_cpp\github_os\input\src\os_base\os_task_queue.c ****       (&TASK_RUN_QUEUE[element_nr])->r8                             = task->r8;
 428              		.loc 1 147 0
 429 021c 816D     		ldr	r1, [r0, #88]
 144:E:\NeuOrga\Programmieren\c_cpp\github_os\input\src\os_base\os_task_queue.c ****       (&TASK_RUN_QUEUE[element_nr])->r5                             = task->r5;
 430              		.loc 1 144 0
 431 021e DA64     		str	r2, [r3, #76]
 148:E:\NeuOrga\Programmieren\c_cpp\github_os\input\src\os_base\os_task_queue.c ****       (&TASK_RUN_QUEUE[element_nr])->r9                             = task->r9;
 432              		.loc 1 148 0
 433 0220 C26D     		ldr	r2, [r0, #92]
 145:E:\NeuOrga\Programmieren\c_cpp\github_os\input\src\os_base\os_task_queue.c ****       (&TASK_RUN_QUEUE[element_nr])->r6                             = task->r6;
 434              		.loc 1 145 0
 435 0222 1D65     		str	r5, [r3, #80]
 149:E:\NeuOrga\Programmieren\c_cpp\github_os\input\src\os_base\os_task_queue.c ****       (&TASK_RUN_QUEUE[element_nr])->r10                            = task->r10;
 436              		.loc 1 149 0
 437 0224 056E     		ldr	r5, [r0, #96]
 146:E:\NeuOrga\Programmieren\c_cpp\github_os\input\src\os_base\os_task_queue.c ****       (&TASK_RUN_QUEUE[element_nr])->r7                             = task->r7;
 438              		.loc 1 146 0
 439 0226 5C65     		str	r4, [r3, #84]
 150:E:\NeuOrga\Programmieren\c_cpp\github_os\input\src\os_base\os_task_queue.c ****       (&TASK_RUN_QUEUE[element_nr])->r11                            = task->r11;
 440              		.loc 1 150 0
 441 0228 446E     		ldr	r4, [r0, #100]
 147:E:\NeuOrga\Programmieren\c_cpp\github_os\input\src\os_base\os_task_queue.c ****       (&TASK_RUN_QUEUE[element_nr])->r8                             = task->r8;
ARM GAS  C:\Users\PRESID~1\AppData\Local\Temp\cc9KVhqU.s 			page 13


 442              		.loc 1 147 0
 443 022a 9965     		str	r1, [r3, #88]
 151:E:\NeuOrga\Programmieren\c_cpp\github_os\input\src\os_base\os_task_queue.c ****       (&TASK_RUN_QUEUE[element_nr])->r12                            = task->r12;
 444              		.loc 1 151 0
 445 022c 816E     		ldr	r1, [r0, #104]
 148:E:\NeuOrga\Programmieren\c_cpp\github_os\input\src\os_base\os_task_queue.c ****       (&TASK_RUN_QUEUE[element_nr])->r9                             = task->r9;
 446              		.loc 1 148 0
 447 022e DA65     		str	r2, [r3, #92]
 152:E:\NeuOrga\Programmieren\c_cpp\github_os\input\src\os_base\os_task_queue.c ****    #endif
 448              		.loc 1 152 0
 449 0230 C26E     		ldr	r2, [r0, #108]
 150:E:\NeuOrga\Programmieren\c_cpp\github_os\input\src\os_base\os_task_queue.c ****       (&TASK_RUN_QUEUE[element_nr])->r11                            = task->r11;
 450              		.loc 1 150 0
 451 0232 C3E91854 		strd	r5, r4, [r3, #96]
 152:E:\NeuOrga\Programmieren\c_cpp\github_os\input\src\os_base\os_task_queue.c ****    #endif
 452              		.loc 1 152 0
 453 0236 C3E91A12 		strd	r1, r2, [r3, #104]
 155:E:\NeuOrga\Programmieren\c_cpp\github_os\input\src\os_base\os_task_queue.c ****       (&TASK_RUN_QUEUE[element_nr])->pStackPointerStart              = task->pStackPointerStart;
 454              		.loc 1 155 0
 455 023a D0E91C65 		ldrd	r6, r5, [r0, #112]
 157:E:\NeuOrga\Programmieren\c_cpp\github_os\input\src\os_base\os_task_queue.c ****       (&TASK_RUN_QUEUE[element_nr])->pStackPointerEnd                = task->pStackPointerEnd;
 456              		.loc 1 157 0
 457 023e D0E91E41 		ldrd	r4, r1, [r0, #120]
 158:E:\NeuOrga\Programmieren\c_cpp\github_os\input\src\os_base\os_task_queue.c ****       ret_task = &TASK_RUN_QUEUE[element_nr];
 458              		.loc 1 158 0
 459 0242 D0F88020 		ldr	r2, [r0, #128]
 460 0246 C3F88020 		str	r2, [r3, #128]
 155:E:\NeuOrga\Programmieren\c_cpp\github_os\input\src\os_base\os_task_queue.c ****       (&TASK_RUN_QUEUE[element_nr])->pStackPointerStart              = task->pStackPointerStart;
 461              		.loc 1 155 0
 462 024a C3E91C65 		strd	r6, r5, [r3, #112]
 157:E:\NeuOrga\Programmieren\c_cpp\github_os\input\src\os_base\os_task_queue.c ****       (&TASK_RUN_QUEUE[element_nr])->pStackPointerEnd                = task->pStackPointerEnd;
 463              		.loc 1 157 0
 464 024e C3E91E41 		strd	r4, r1, [r3, #120]
 159:E:\NeuOrga\Programmieren\c_cpp\github_os\input\src\os_base\os_task_queue.c ****    }
 465              		.loc 1 159 0
 466 0252 1846     		mov	r0, r3
 467              	.LVL17:
 468              		.loc 1 162 0
 469 0254 70BC     		pop	{r4, r5, r6}
 470              		.cfi_restore 6
 471              		.cfi_restore 5
 472              		.cfi_restore 4
 473              		.cfi_def_cfa_offset 0
 474 0256 7047     		bx	lr
 475              	.LVL18:
 476              	.L23:
 107:E:\NeuOrga\Programmieren\c_cpp\github_os\input\src\os_base\os_task_queue.c ****         )
 477              		.loc 1 107 0
 478 0258 0023     		movs	r3, #0
 479 025a 95E7     		b	.L21
 480              	.LVL19:
 481              	.L25:
 482 025c 0223     		movs	r3, #2
 483 025e 93E7     		b	.L21
 484              	.LVL20:
 485              	.L26:
 486 0260 0323     		movs	r3, #3
ARM GAS  C:\Users\PRESID~1\AppData\Local\Temp\cc9KVhqU.s 			page 14


 487 0262 91E7     		b	.L21
 488              	.LVL21:
 489              	.L27:
 490 0264 0423     		movs	r3, #4
 491 0266 8FE7     		b	.L21
 492              	.LVL22:
 493              	.L28:
 494 0268 0523     		movs	r3, #5
 495 026a 8DE7     		b	.L21
 496              	.LVL23:
 497              	.L31:
 498 026c 0823     		movs	r3, #8
 499 026e 8BE7     		b	.L21
 500              	.LVL24:
 501              	.L29:
 502 0270 0623     		movs	r3, #6
 503 0272 89E7     		b	.L21
 504              	.LVL25:
 505              	.L30:
 506 0274 0723     		movs	r3, #7
 507 0276 87E7     		b	.L21
 508              	.L37:
 509              		.align	2
 510              	.L36:
 511 0278 00000000 		.word	TASK_RUN_QUEUE
 512              		.cfi_endproc
 513              	.LFE2:
 515              		.align	1
 516              		.p2align 2,,3
 517              		.global	DeleteFromTaskQueue
 518              		.syntax unified
 519              		.thumb
 520              		.thumb_func
 521              		.fpu softvfp
 523              	DeleteFromTaskQueue:
 524              	.LFB3:
 163:E:\NeuOrga\Programmieren\c_cpp\github_os\input\src\os_base\os_task_queue.c **** void DeleteFromTaskQueue(task_t* task)
 164:E:\NeuOrga\Programmieren\c_cpp\github_os\input\src\os_base\os_task_queue.c **** {
 525              		.loc 1 164 0
 526              		.cfi_startproc
 527              		@ args = 0, pretend = 0, frame = 0
 528              		@ frame_needed = 0, uses_anonymous_args = 0
 529              		@ link register save eliminated.
 530              	.LVL26:
 165:E:\NeuOrga\Programmieren\c_cpp\github_os\input\src\os_base\os_task_queue.c ****    task->active                                =   False   ;
 166:E:\NeuOrga\Programmieren\c_cpp\github_os\input\src\os_base\os_task_queue.c ****    task->task_queued                           =   False   ;
 167:E:\NeuOrga\Programmieren\c_cpp\github_os\input\src\os_base\os_task_queue.c ****    task->IdleTask                              =   False   ;
 168:E:\NeuOrga\Programmieren\c_cpp\github_os\input\src\os_base\os_task_queue.c ****    task->FREE                                  =   0       ;
 169:E:\NeuOrga\Programmieren\c_cpp\github_os\input\src\os_base\os_task_queue.c ****    task->NrOfInsAllowed                        =   0       ;
 170:E:\NeuOrga\Programmieren\c_cpp\github_os\input\src\os_base\os_task_queue.c ****    task->NrOfInsActivated                      =   0       ;
 171:E:\NeuOrga\Programmieren\c_cpp\github_os\input\src\os_base\os_task_queue.c ****    task->WaitActUntil                          =   0       ;
 172:E:\NeuOrga\Programmieren\c_cpp\github_os\input\src\os_base\os_task_queue.c ****    task->wait_time                             =   0       ;
 173:E:\NeuOrga\Programmieren\c_cpp\github_os\input\src\os_base\os_task_queue.c ****    task->TimeToPrioInc                         =   0       ;
 174:E:\NeuOrga\Programmieren\c_cpp\github_os\input\src\os_base\os_task_queue.c ****    task->overwaittime_per_prio_inc_step        =   0       ;
 175:E:\NeuOrga\Programmieren\c_cpp\github_os\input\src\os_base\os_task_queue.c ****    task->max_allowed_wait_time                 =   0       ;
 176:E:\NeuOrga\Programmieren\c_cpp\github_os\input\src\os_base\os_task_queue.c ****    task->exe_time                              =   0       ;
 177:E:\NeuOrga\Programmieren\c_cpp\github_os\input\src\os_base\os_task_queue.c ****    task->start_time                            =   0       ;
ARM GAS  C:\Users\PRESID~1\AppData\Local\Temp\cc9KVhqU.s 			page 15


 178:E:\NeuOrga\Programmieren\c_cpp\github_os\input\src\os_base\os_task_queue.c ****    task->current_prio                          =   0       ;
 179:E:\NeuOrga\Programmieren\c_cpp\github_os\input\src\os_base\os_task_queue.c ****    task->default_prio                          =   0       ;
 180:E:\NeuOrga\Programmieren\c_cpp\github_os\input\src\os_base\os_task_queue.c ****    task->fp                                    =   0       ;
 181:E:\NeuOrga\Programmieren\c_cpp\github_os\input\src\os_base\os_task_queue.c ****    task->state_request                         =   &task_state_request       ;
 531              		.loc 1 181 0
 532 027c 124B     		ldr	r3, .L39
 533 027e 0363     		str	r3, [r0, #48]
 165:E:\NeuOrga\Programmieren\c_cpp\github_os\input\src\os_base\os_task_queue.c ****    task->active                                =   False   ;
 534              		.loc 1 165 0
 535 0280 0023     		movs	r3, #0
 536 0282 0360     		str	r3, [r0]
 168:E:\NeuOrga\Programmieren\c_cpp\github_os\input\src\os_base\os_task_queue.c ****    task->NrOfInsAllowed                        =   0       ;
 537              		.loc 1 168 0
 538 0284 8380     		strh	r3, [r0, #4]	@ movhi
 171:E:\NeuOrga\Programmieren\c_cpp\github_os\input\src\os_base\os_task_queue.c ****    task->wait_time                             =   0       ;
 539              		.loc 1 171 0
 540 0286 C0E90233 		strd	r3, r3, [r0, #8]
 173:E:\NeuOrga\Programmieren\c_cpp\github_os\input\src\os_base\os_task_queue.c ****    task->overwaittime_per_prio_inc_step        =   0       ;
 541              		.loc 1 173 0
 542 028a C0E90433 		strd	r3, r3, [r0, #16]
 175:E:\NeuOrga\Programmieren\c_cpp\github_os\input\src\os_base\os_task_queue.c ****    task->exe_time                              =   0       ;
 543              		.loc 1 175 0
 544 028e C0E90633 		strd	r3, r3, [r0, #24]
 176:E:\NeuOrga\Programmieren\c_cpp\github_os\input\src\os_base\os_task_queue.c ****    task->start_time                            =   0       ;
 545              		.loc 1 176 0
 546 0292 0362     		str	r3, [r0, #32]
 177:E:\NeuOrga\Programmieren\c_cpp\github_os\input\src\os_base\os_task_queue.c ****    task->current_prio                          =   0       ;
 547              		.loc 1 177 0
 548 0294 8384     		strh	r3, [r0, #36]	@ movhi
 180:E:\NeuOrga\Programmieren\c_cpp\github_os\input\src\os_base\os_task_queue.c ****    task->state_request                         =   &task_state_request       ;
 549              		.loc 1 180 0
 550 0296 C362     		str	r3, [r0, #44]
 182:E:\NeuOrga\Programmieren\c_cpp\github_os\input\src\os_base\os_task_queue.c ****    task->task_state                            =   Task_unspecified;
 551              		.loc 1 182 0
 552 0298 80F83430 		strb	r3, [r0, #52]
 183:E:\NeuOrga\Programmieren\c_cpp\github_os\input\src\os_base\os_task_queue.c ****    task->task_group                            =   0       ;
 184:E:\NeuOrga\Programmieren\c_cpp\github_os\input\src\os_base\os_task_queue.c ****       #if(CFG_PROCESSOR == cMCU_X86)
 185:E:\NeuOrga\Programmieren\c_cpp\github_os\input\src\os_base\os_task_queue.c ****       task->EAX                                   =   0              ;
 186:E:\NeuOrga\Programmieren\c_cpp\github_os\input\src\os_base\os_task_queue.c ****       task->EBX                                   =   0             ;
 187:E:\NeuOrga\Programmieren\c_cpp\github_os\input\src\os_base\os_task_queue.c ****       task->ECX                                   =   0              ;
 188:E:\NeuOrga\Programmieren\c_cpp\github_os\input\src\os_base\os_task_queue.c ****       task->EDX                                   =   0              ;
 189:E:\NeuOrga\Programmieren\c_cpp\github_os\input\src\os_base\os_task_queue.c ****       #elif(CFG_PROCESSOR == cMCU_CORTEX_M4)
 190:E:\NeuOrga\Programmieren\c_cpp\github_os\input\src\os_base\os_task_queue.c ****       task->r0                                   =   0              ;
 553              		.loc 1 190 0
 554 029c C0E90E33 		strd	r3, r3, [r0, #56]
 191:E:\NeuOrga\Programmieren\c_cpp\github_os\input\src\os_base\os_task_queue.c ****       task->r1                                   =   0              ;
 192:E:\NeuOrga\Programmieren\c_cpp\github_os\input\src\os_base\os_task_queue.c ****       task->r2                                   =   0              ;
 555              		.loc 1 192 0
 556 02a0 C0E91033 		strd	r3, r3, [r0, #64]
 193:E:\NeuOrga\Programmieren\c_cpp\github_os\input\src\os_base\os_task_queue.c ****       task->r3                                   =   0              ;
 194:E:\NeuOrga\Programmieren\c_cpp\github_os\input\src\os_base\os_task_queue.c ****       task->r4                                   =   0              ;
 557              		.loc 1 194 0
 558 02a4 C0E91233 		strd	r3, r3, [r0, #72]
 195:E:\NeuOrga\Programmieren\c_cpp\github_os\input\src\os_base\os_task_queue.c ****       task->r5                                   =   0              ;
 196:E:\NeuOrga\Programmieren\c_cpp\github_os\input\src\os_base\os_task_queue.c ****       task->r6                                   =   0              ;
 559              		.loc 1 196 0
 560 02a8 C0E91433 		strd	r3, r3, [r0, #80]
ARM GAS  C:\Users\PRESID~1\AppData\Local\Temp\cc9KVhqU.s 			page 16


 197:E:\NeuOrga\Programmieren\c_cpp\github_os\input\src\os_base\os_task_queue.c ****       task->r7                                   =   0              ;
 198:E:\NeuOrga\Programmieren\c_cpp\github_os\input\src\os_base\os_task_queue.c ****       task->r8                                   =   0              ;
 561              		.loc 1 198 0
 562 02ac C0E91633 		strd	r3, r3, [r0, #88]
 199:E:\NeuOrga\Programmieren\c_cpp\github_os\input\src\os_base\os_task_queue.c ****       task->r9                                   =   0              ;
 200:E:\NeuOrga\Programmieren\c_cpp\github_os\input\src\os_base\os_task_queue.c ****       task->r10                                  =   0             ;
 563              		.loc 1 200 0
 564 02b0 C0E91833 		strd	r3, r3, [r0, #96]
 201:E:\NeuOrga\Programmieren\c_cpp\github_os\input\src\os_base\os_task_queue.c ****       task->r11                                  =   0             ;
 202:E:\NeuOrga\Programmieren\c_cpp\github_os\input\src\os_base\os_task_queue.c ****       task->r12                                  =   0             ;
 565              		.loc 1 202 0
 566 02b4 C0E91A33 		strd	r3, r3, [r0, #104]
 203:E:\NeuOrga\Programmieren\c_cpp\github_os\input\src\os_base\os_task_queue.c ****       #else
 204:E:\NeuOrga\Programmieren\c_cpp\github_os\input\src\os_base\os_task_queue.c ****       #error "os_task_queue.c"
 205:E:\NeuOrga\Programmieren\c_cpp\github_os\input\src\os_base\os_task_queue.c ****       #endif
 206:E:\NeuOrga\Programmieren\c_cpp\github_os\input\src\os_base\os_task_queue.c ****    task->pStackPointer                         =   0       ;
 207:E:\NeuOrga\Programmieren\c_cpp\github_os\input\src\os_base\os_task_queue.c ****    task->pStackPointerByMalloc                 =   0       ;
 567              		.loc 1 207 0
 568 02b8 C0E91C33 		strd	r3, r3, [r0, #112]
 208:E:\NeuOrga\Programmieren\c_cpp\github_os\input\src\os_base\os_task_queue.c ****    task->pStackPointerStart                    =   0       ;
 209:E:\NeuOrga\Programmieren\c_cpp\github_os\input\src\os_base\os_task_queue.c ****    task->StackSize                             =   0       ;
 569              		.loc 1 209 0
 570 02bc C0E91E33 		strd	r3, r3, [r0, #120]
 210:E:\NeuOrga\Programmieren\c_cpp\github_os\input\src\os_base\os_task_queue.c ****    task->pStackPointerEnd                      =   0       ;
 571              		.loc 1 210 0
 572 02c0 C0F88030 		str	r3, [r0, #128]
 211:E:\NeuOrga\Programmieren\c_cpp\github_os\input\src\os_base\os_task_queue.c **** }
 573              		.loc 1 211 0
 574 02c4 7047     		bx	lr
 575              	.L40:
 576 02c6 00BF     		.align	2
 577              	.L39:
 578 02c8 00000000 		.word	task_state_request
 579              		.cfi_endproc
 580              	.LFE3:
 582              		.align	1
 583              		.p2align 2,,3
 584              		.global	GetFromTaskQueue
 585              		.syntax unified
 586              		.thumb
 587              		.thumb_func
 588              		.fpu softvfp
 590              	GetFromTaskQueue:
 591              	.LFB4:
 212:E:\NeuOrga\Programmieren\c_cpp\github_os\input\src\os_base\os_task_queue.c **** task_t* GetFromTaskQueue(scheduling_t* scheduling_queue_element)
 213:E:\NeuOrga\Programmieren\c_cpp\github_os\input\src\os_base\os_task_queue.c **** {
 592              		.loc 1 213 0
 593              		.cfi_startproc
 594              		@ args = 0, pretend = 0, frame = 0
 595              		@ frame_needed = 0, uses_anonymous_args = 0
 596              		@ link register save eliminated.
 597              	.LVL27:
 214:E:\NeuOrga\Programmieren\c_cpp\github_os\input\src\os_base\os_task_queue.c ****    return ((task_t*)*scheduling_queue_element);
 215:E:\NeuOrga\Programmieren\c_cpp\github_os\input\src\os_base\os_task_queue.c **** }
 598              		.loc 1 215 0
 599 02cc 0068     		ldr	r0, [r0]
 600              	.LVL28:
ARM GAS  C:\Users\PRESID~1\AppData\Local\Temp\cc9KVhqU.s 			page 17


 601 02ce 7047     		bx	lr
 602              		.cfi_endproc
 603              	.LFE4:
 605              		.align	1
 606              		.p2align 2,,3
 607              		.global	GetFromSchedulingQueue
 608              		.syntax unified
 609              		.thumb
 610              		.thumb_func
 611              		.fpu softvfp
 613              	GetFromSchedulingQueue:
 614              	.LFB5:
 216:E:\NeuOrga\Programmieren\c_cpp\github_os\input\src\os_base\os_task_queue.c **** scheduling_t* GetFromSchedulingQueue(unsigned_char_t element_nr)
 217:E:\NeuOrga\Programmieren\c_cpp\github_os\input\src\os_base\os_task_queue.c **** {
 615              		.loc 1 217 0
 616              		.cfi_startproc
 617              		@ args = 0, pretend = 0, frame = 0
 618              		@ frame_needed = 0, uses_anonymous_args = 0
 619              		@ link register save eliminated.
 620              	.LVL29:
 218:E:\NeuOrga\Programmieren\c_cpp\github_os\input\src\os_base\os_task_queue.c ****    return ((scheduling_t*)&TASK_SCHEDULING_QUEUE[element_nr]);
 621              		.loc 1 218 0
 622 02d0 014B     		ldr	r3, .L43
 219:E:\NeuOrga\Programmieren\c_cpp\github_os\input\src\os_base\os_task_queue.c **** }
 623              		.loc 1 219 0
 624 02d2 03EB8000 		add	r0, r3, r0, lsl #2
 625              	.LVL30:
 626 02d6 7047     		bx	lr
 627              	.L44:
 628              		.align	2
 629              	.L43:
 630 02d8 00000000 		.word	TASK_SCHEDULING_QUEUE
 631              		.cfi_endproc
 632              	.LFE5:
 634              		.align	1
 635              		.p2align 2,,3
 636              		.global	DeleteFromSchedulingQueue
 637              		.syntax unified
 638              		.thumb
 639              		.thumb_func
 640              		.fpu softvfp
 642              	DeleteFromSchedulingQueue:
 643              	.LFB6:
 220:E:\NeuOrga\Programmieren\c_cpp\github_os\input\src\os_base\os_task_queue.c **** /* Pointer Queue Handling*/
 221:E:\NeuOrga\Programmieren\c_cpp\github_os\input\src\os_base\os_task_queue.c **** void DeleteFromSchedulingQueue(scheduling_t* scheduling_queue_element)
 222:E:\NeuOrga\Programmieren\c_cpp\github_os\input\src\os_base\os_task_queue.c **** {
 644              		.loc 1 222 0
 645              		.cfi_startproc
 646              		@ args = 0, pretend = 0, frame = 0
 647              		@ frame_needed = 0, uses_anonymous_args = 0
 648              		@ link register save eliminated.
 649              	.LVL31:
 223:E:\NeuOrga\Programmieren\c_cpp\github_os\input\src\os_base\os_task_queue.c ****    *scheduling_queue_element = 0;
 650              		.loc 1 223 0
 651 02dc 0023     		movs	r3, #0
 652 02de 0360     		str	r3, [r0]
 224:E:\NeuOrga\Programmieren\c_cpp\github_os\input\src\os_base\os_task_queue.c **** }
ARM GAS  C:\Users\PRESID~1\AppData\Local\Temp\cc9KVhqU.s 			page 18


 653              		.loc 1 224 0
 654 02e0 7047     		bx	lr
 655              		.cfi_endproc
 656              	.LFE6:
 658              		.align	1
 659 02e2 00BF     		.p2align 2,,3
 660              		.global	AddToSchedulingQueue
 661              		.syntax unified
 662              		.thumb
 663              		.thumb_func
 664              		.fpu softvfp
 666              	AddToSchedulingQueue:
 667              	.LFB7:
 225:E:\NeuOrga\Programmieren\c_cpp\github_os\input\src\os_base\os_task_queue.c **** void AddToSchedulingQueue(task_t* task)
 226:E:\NeuOrga\Programmieren\c_cpp\github_os\input\src\os_base\os_task_queue.c **** {
 668              		.loc 1 226 0
 669              		.cfi_startproc
 670              		@ args = 0, pretend = 0, frame = 0
 671              		@ frame_needed = 0, uses_anonymous_args = 0
 672              		@ link register save eliminated.
 673              	.LVL32:
 227:E:\NeuOrga\Programmieren\c_cpp\github_os\input\src\os_base\os_task_queue.c ****    /*
 228:E:\NeuOrga\Programmieren\c_cpp\github_os\input\src\os_base\os_task_queue.c ****    Description:
 229:E:\NeuOrga\Programmieren\c_cpp\github_os\input\src\os_base\os_task_queue.c ****    add "task" into next free slot of TASK_SCHEDULING_QUEUE
 230:E:\NeuOrga\Programmieren\c_cpp\github_os\input\src\os_base\os_task_queue.c **** 
 231:E:\NeuOrga\Programmieren\c_cpp\github_os\input\src\os_base\os_task_queue.c ****    in:     task_t* task (task to be added)
 232:E:\NeuOrga\Programmieren\c_cpp\github_os\input\src\os_base\os_task_queue.c ****    out:
 233:E:\NeuOrga\Programmieren\c_cpp\github_os\input\src\os_base\os_task_queue.c ****    */
 234:E:\NeuOrga\Programmieren\c_cpp\github_os\input\src\os_base\os_task_queue.c ****    unsigned_char_t Add_successful = False;
 235:E:\NeuOrga\Programmieren\c_cpp\github_os\input\src\os_base\os_task_queue.c ****    unsigned_char_t index = 0;
 236:E:\NeuOrga\Programmieren\c_cpp\github_os\input\src\os_base\os_task_queue.c **** 
 237:E:\NeuOrga\Programmieren\c_cpp\github_os\input\src\os_base\os_task_queue.c ****    while(  (index < MAX_RUN_QUEUE_SIZE)
 238:E:\NeuOrga\Programmieren\c_cpp\github_os\input\src\os_base\os_task_queue.c ****            &&(Add_successful == False))
 239:E:\NeuOrga\Programmieren\c_cpp\github_os\input\src\os_base\os_task_queue.c ****    {
 240:E:\NeuOrga\Programmieren\c_cpp\github_os\input\src\os_base\os_task_queue.c ****       if(TASK_SCHEDULING_QUEUE[index] == 0)
 674              		.loc 1 240 0
 675 02e4 144B     		ldr	r3, .L58
 676 02e6 1A68     		ldr	r2, [r3]
 677 02e8 92B1     		cbz	r2, .L47
 678              	.LVL33:
 679 02ea 5A68     		ldr	r2, [r3, #4]
 680 02ec 9AB1     		cbz	r2, .L50
 681              	.LVL34:
 682 02ee 9A68     		ldr	r2, [r3, #8]
 683 02f0 AAB1     		cbz	r2, .L51
 684              	.LVL35:
 685 02f2 DA68     		ldr	r2, [r3, #12]
 686 02f4 AAB1     		cbz	r2, .L52
 687              	.LVL36:
 688 02f6 1A69     		ldr	r2, [r3, #16]
 689 02f8 7AB1     		cbz	r2, .L53
 690              	.LVL37:
 691 02fa 5A69     		ldr	r2, [r3, #20]
 692 02fc 9AB1     		cbz	r2, .L54
 693              	.LVL38:
 694 02fe 9A69     		ldr	r2, [r3, #24]
 695 0300 AAB1     		cbz	r2, .L55
ARM GAS  C:\Users\PRESID~1\AppData\Local\Temp\cc9KVhqU.s 			page 19


 696              	.LVL39:
 697 0302 DA69     		ldr	r2, [r3, #28]
 698 0304 AAB1     		cbz	r2, .L56
 699              	.LVL40:
 700 0306 1A6A     		ldr	r2, [r3, #32]
 701 0308 7AB1     		cbz	r2, .L57
 702              	.LVL41:
 703 030a 5A6A     		ldr	r2, [r3, #36]
 704 030c 12B9     		cbnz	r2, .L46
 705 030e 0922     		movs	r2, #9
 706              	.LVL42:
 707              	.L47:
 241:E:\NeuOrga\Programmieren\c_cpp\github_os\input\src\os_base\os_task_queue.c ****       {
 242:E:\NeuOrga\Programmieren\c_cpp\github_os\input\src\os_base\os_task_queue.c ****          TASK_SCHEDULING_QUEUE[index] = task;
 708              		.loc 1 242 0
 709 0310 43F82200 		str	r0, [r3, r2, lsl #2]
 710              	.LVL43:
 711              	.L46:
 243:E:\NeuOrga\Programmieren\c_cpp\github_os\input\src\os_base\os_task_queue.c ****          Add_successful         = True;
 244:E:\NeuOrga\Programmieren\c_cpp\github_os\input\src\os_base\os_task_queue.c ****       }
 245:E:\NeuOrga\Programmieren\c_cpp\github_os\input\src\os_base\os_task_queue.c ****       index++;
 246:E:\NeuOrga\Programmieren\c_cpp\github_os\input\src\os_base\os_task_queue.c ****    }
 247:E:\NeuOrga\Programmieren\c_cpp\github_os\input\src\os_base\os_task_queue.c ****    return;
 248:E:\NeuOrga\Programmieren\c_cpp\github_os\input\src\os_base\os_task_queue.c **** }
 712              		.loc 1 248 0
 713 0314 7047     		bx	lr
 714              	.LVL44:
 715              	.L50:
 240:E:\NeuOrga\Programmieren\c_cpp\github_os\input\src\os_base\os_task_queue.c ****       {
 716              		.loc 1 240 0
 717 0316 0122     		movs	r2, #1
 718 0318 FAE7     		b	.L47
 719              	.LVL45:
 720              	.L53:
 721 031a 0422     		movs	r2, #4
 722 031c F8E7     		b	.L47
 723              	.LVL46:
 724              	.L51:
 725 031e 0222     		movs	r2, #2
 726 0320 F6E7     		b	.L47
 727              	.LVL47:
 728              	.L52:
 729 0322 0322     		movs	r2, #3
 730 0324 F4E7     		b	.L47
 731              	.LVL48:
 732              	.L54:
 733 0326 0522     		movs	r2, #5
 734 0328 F2E7     		b	.L47
 735              	.LVL49:
 736              	.L57:
 737 032a 0822     		movs	r2, #8
 738 032c F0E7     		b	.L47
 739              	.LVL50:
 740              	.L55:
 741 032e 0622     		movs	r2, #6
 742 0330 EEE7     		b	.L47
 743              	.LVL51:
ARM GAS  C:\Users\PRESID~1\AppData\Local\Temp\cc9KVhqU.s 			page 20


 744              	.L56:
 745 0332 0722     		movs	r2, #7
 746 0334 ECE7     		b	.L47
 747              	.L59:
 748 0336 00BF     		.align	2
 749              	.L58:
 750 0338 00000000 		.word	TASK_SCHEDULING_QUEUE
 751              		.cfi_endproc
 752              	.LFE7:
 754              		.align	1
 755              		.p2align 2,,3
 756              		.global	UpdateSchedulingQueue
 757              		.syntax unified
 758              		.thumb
 759              		.thumb_func
 760              		.fpu softvfp
 762              	UpdateSchedulingQueue:
 763              	.LFB8:
 249:E:\NeuOrga\Programmieren\c_cpp\github_os\input\src\os_base\os_task_queue.c **** void UpdateSchedulingQueue(void)
 250:E:\NeuOrga\Programmieren\c_cpp\github_os\input\src\os_base\os_task_queue.c **** {
 764              		.loc 1 250 0
 765              		.cfi_startproc
 766              		@ args = 0, pretend = 0, frame = 0
 767              		@ frame_needed = 0, uses_anonymous_args = 0
 768              		@ link register save eliminated.
 769              	.LVL52:
 770 033c F0B4     		push	{r4, r5, r6, r7}
 771              		.cfi_def_cfa_offset 16
 772              		.cfi_offset 4, -16
 773              		.cfi_offset 5, -12
 774              		.cfi_offset 6, -8
 775              		.cfi_offset 7, -4
 776 033e 224E     		ldr	r6, .L99
 777              		.loc 1 250 0
 778 0340 0122     		movs	r2, #1
 779 0342 3346     		mov	r3, r6
 251:E:\NeuOrga\Programmieren\c_cpp\github_os\input\src\os_base\os_task_queue.c ****    /* eliminate emptry link list entries (should be colleted at the high numbers) */
 252:E:\NeuOrga\Programmieren\c_cpp\github_os\input\src\os_base\os_task_queue.c ****    unsigned_char_t dest = 0, src = 0;
 253:E:\NeuOrga\Programmieren\c_cpp\github_os\input\src\os_base\os_task_queue.c **** 
 254:E:\NeuOrga\Programmieren\c_cpp\github_os\input\src\os_base\os_task_queue.c ****    while (dest < MAX_RUN_PQUEUE_SIZE)
 255:E:\NeuOrga\Programmieren\c_cpp\github_os\input\src\os_base\os_task_queue.c ****    {
 256:E:\NeuOrga\Programmieren\c_cpp\github_os\input\src\os_base\os_task_queue.c ****       if(TASK_SCHEDULING_QUEUE[dest] == 0)
 257:E:\NeuOrga\Programmieren\c_cpp\github_os\input\src\os_base\os_task_queue.c ****       {
 258:E:\NeuOrga\Programmieren\c_cpp\github_os\input\src\os_base\os_task_queue.c ****          /* found empty entry ->shift following elements left in array */
 259:E:\NeuOrga\Programmieren\c_cpp\github_os\input\src\os_base\os_task_queue.c **** 
 260:E:\NeuOrga\Programmieren\c_cpp\github_os\input\src\os_base\os_task_queue.c ****          src = dest; /* start from empty entry point */
 261:E:\NeuOrga\Programmieren\c_cpp\github_os\input\src\os_base\os_task_queue.c ****          while((src < MAX_RUN_PQUEUE_SIZE)&&(TASK_SCHEDULING_QUEUE[src]==0))
 262:E:\NeuOrga\Programmieren\c_cpp\github_os\input\src\os_base\os_task_queue.c ****          {
 263:E:\NeuOrga\Programmieren\c_cpp\github_os\input\src\os_base\os_task_queue.c ****             src++;
 264:E:\NeuOrga\Programmieren\c_cpp\github_os\input\src\os_base\os_task_queue.c ****          }
 265:E:\NeuOrga\Programmieren\c_cpp\github_os\input\src\os_base\os_task_queue.c ****          if((src < MAX_RUN_PQUEUE_SIZE)&&(TASK_SCHEDULING_QUEUE[src]!=0))
 266:E:\NeuOrga\Programmieren\c_cpp\github_os\input\src\os_base\os_task_queue.c ****          {
 267:E:\NeuOrga\Programmieren\c_cpp\github_os\input\src\os_base\os_task_queue.c ****             TASK_SCHEDULING_QUEUE[dest] = TASK_SCHEDULING_QUEUE[src];
 268:E:\NeuOrga\Programmieren\c_cpp\github_os\input\src\os_base\os_task_queue.c ****             TASK_SCHEDULING_QUEUE[src]  = 0;
 780              		.loc 1 268 0
 781 0344 0027     		movs	r7, #0
 782 0346 04E0     		b	.L61
ARM GAS  C:\Users\PRESID~1\AppData\Local\Temp\cc9KVhqU.s 			page 21


 783              	.LVL53:
 784              	.L62:
 254:E:\NeuOrga\Programmieren\c_cpp\github_os\input\src\os_base\os_task_queue.c ****    {
 785              		.loc 1 254 0
 786 0348 0A2A     		cmp	r2, #10
 787 034a 3AD0     		beq	.L60
 788              	.LVL54:
 789              	.L98:
 790 034c 511C     		adds	r1, r2, #1
 791              	.L66:
 792 034e 0A46     		mov	r2, r1
 793 0350 0433     		adds	r3, r3, #4
 794              	.L61:
 795              	.LVL55:
 256:E:\NeuOrga\Programmieren\c_cpp\github_os\input\src\os_base\os_task_queue.c ****       {
 796              		.loc 1 256 0
 797 0352 1968     		ldr	r1, [r3]
 798 0354 0029     		cmp	r1, #0
 799 0356 F7D1     		bne	.L62
 800              	.LVL56:
 261:E:\NeuOrga\Programmieren\c_cpp\github_os\input\src\os_base\os_task_queue.c ****          {
 801              		.loc 1 261 0
 802 0358 0A2A     		cmp	r2, #10
 803 035a D4B2     		uxtb	r4, r2
 804 035c 31D0     		beq	.L60
 805 035e 5868     		ldr	r0, [r3, #4]
 806 0360 1546     		mov	r5, r2
 807 0362 511C     		adds	r1, r2, #1
 808 0364 48BB     		cbnz	r0, .L64
 809              	.LVL57:
 810 0366 092C     		cmp	r4, #9
 811 0368 F0D0     		beq	.L98
 812 036a 9868     		ldr	r0, [r3, #8]
 813 036c 511C     		adds	r1, r2, #1
 814 036e 0D46     		mov	r5, r1
 815 0370 18BB     		cbnz	r0, .L64
 816              	.LVL58:
 817 0372 082C     		cmp	r4, #8
 818 0374 EBD0     		beq	.L66
 819 0376 D868     		ldr	r0, [r3, #12]
 820 0378 951C     		adds	r5, r2, #2
 821 037a F0B9     		cbnz	r0, .L64
 822              	.LVL59:
 823 037c 072C     		cmp	r4, #7
 824 037e E6D0     		beq	.L66
 825 0380 1869     		ldr	r0, [r3, #16]
 826 0382 D51C     		adds	r5, r2, #3
 827 0384 C8B9     		cbnz	r0, .L64
 828              	.LVL60:
 829 0386 062C     		cmp	r4, #6
 830 0388 E1D0     		beq	.L66
 831 038a 5869     		ldr	r0, [r3, #20]
 832 038c 151D     		adds	r5, r2, #4
 833 038e A0B9     		cbnz	r0, .L64
 834              	.LVL61:
 835 0390 052C     		cmp	r4, #5
 836 0392 DCD0     		beq	.L66
ARM GAS  C:\Users\PRESID~1\AppData\Local\Temp\cc9KVhqU.s 			page 22


 837 0394 9869     		ldr	r0, [r3, #24]
 838 0396 551D     		adds	r5, r2, #5
 839 0398 78B9     		cbnz	r0, .L64
 840              	.LVL62:
 841 039a 042C     		cmp	r4, #4
 842 039c D7D0     		beq	.L66
 843 039e D869     		ldr	r0, [r3, #28]
 844 03a0 951D     		adds	r5, r2, #6
 845 03a2 50B9     		cbnz	r0, .L64
 846              	.LVL63:
 847 03a4 032C     		cmp	r4, #3
 848 03a6 D2D0     		beq	.L66
 849 03a8 186A     		ldr	r0, [r3, #32]
 850 03aa D51D     		adds	r5, r2, #7
 851 03ac 28B9     		cbnz	r0, .L64
 852              	.LVL64:
 853 03ae 012C     		cmp	r4, #1
 854 03b0 CDD1     		bne	.L66
 855 03b2 706A     		ldr	r0, [r6, #36]
 856 03b4 0925     		movs	r5, #9
 857 03b6 0028     		cmp	r0, #0
 858 03b8 C9D0     		beq	.L66
 859              	.LVL65:
 860              	.L64:
 267:E:\NeuOrga\Programmieren\c_cpp\github_os\input\src\os_base\os_task_queue.c ****             TASK_SCHEDULING_QUEUE[src]  = 0;
 861              		.loc 1 267 0
 862 03ba 1860     		str	r0, [r3]
 863              		.loc 1 268 0
 864 03bc 46F82570 		str	r7, [r6, r5, lsl #2]
 865 03c0 C5E7     		b	.L66
 866              	.LVL66:
 867              	.L60:
 269:E:\NeuOrga\Programmieren\c_cpp\github_os\input\src\os_base\os_task_queue.c ****          }
 270:E:\NeuOrga\Programmieren\c_cpp\github_os\input\src\os_base\os_task_queue.c ****       }
 271:E:\NeuOrga\Programmieren\c_cpp\github_os\input\src\os_base\os_task_queue.c ****       dest++;
 272:E:\NeuOrga\Programmieren\c_cpp\github_os\input\src\os_base\os_task_queue.c ****    }
 273:E:\NeuOrga\Programmieren\c_cpp\github_os\input\src\os_base\os_task_queue.c **** }
 868              		.loc 1 273 0
 869 03c2 F0BC     		pop	{r4, r5, r6, r7}
 870              		.cfi_restore 7
 871              		.cfi_restore 6
 872              		.cfi_restore 5
 873              		.cfi_restore 4
 874              		.cfi_def_cfa_offset 0
 875 03c4 7047     		bx	lr
 876              	.L100:
 877 03c6 00BF     		.align	2
 878              	.L99:
 879 03c8 00000000 		.word	TASK_SCHEDULING_QUEUE
 880              		.cfi_endproc
 881              	.LFE8:
 883              		.align	1
 884              		.p2align 2,,3
 885              		.global	GetIdleTask
 886              		.syntax unified
 887              		.thumb
 888              		.thumb_func
ARM GAS  C:\Users\PRESID~1\AppData\Local\Temp\cc9KVhqU.s 			page 23


 889              		.fpu softvfp
 891              	GetIdleTask:
 892              	.LFB9:
 274:E:\NeuOrga\Programmieren\c_cpp\github_os\input\src\os_base\os_task_queue.c **** 
 275:E:\NeuOrga\Programmieren\c_cpp\github_os\input\src\os_base\os_task_queue.c **** /* Idle task queue handling */
 276:E:\NeuOrga\Programmieren\c_cpp\github_os\input\src\os_base\os_task_queue.c **** task_t* GetIdleTask(void)
 277:E:\NeuOrga\Programmieren\c_cpp\github_os\input\src\os_base\os_task_queue.c **** {
 893              		.loc 1 277 0
 894              		.cfi_startproc
 895              		@ args = 0, pretend = 0, frame = 0
 896              		@ frame_needed = 0, uses_anonymous_args = 0
 897              		@ link register save eliminated.
 278:E:\NeuOrga\Programmieren\c_cpp\github_os\input\src\os_base\os_task_queue.c ****    return (&TASK_IDLE_QUEUE[0]);
 279:E:\NeuOrga\Programmieren\c_cpp\github_os\input\src\os_base\os_task_queue.c **** }
 898              		.loc 1 279 0
 899 03cc 0048     		ldr	r0, .L102
 900 03ce 7047     		bx	lr
 901              	.L103:
 902              		.align	2
 903              	.L102:
 904 03d0 00000000 		.word	TASK_IDLE_QUEUE
 905              		.cfi_endproc
 906              	.LFE9:
 908              		.align	1
 909              		.p2align 2,,3
 910              		.global	AddToIdleTaskQueue
 911              		.syntax unified
 912              		.thumb
 913              		.thumb_func
 914              		.fpu softvfp
 916              	AddToIdleTaskQueue:
 917              	.LFB10:
 280:E:\NeuOrga\Programmieren\c_cpp\github_os\input\src\os_base\os_task_queue.c **** void AddToIdleTaskQueue(task_t* task)
 281:E:\NeuOrga\Programmieren\c_cpp\github_os\input\src\os_base\os_task_queue.c **** {
 918              		.loc 1 281 0
 919              		.cfi_startproc
 920              		@ args = 0, pretend = 0, frame = 0
 921              		@ frame_needed = 0, uses_anonymous_args = 0
 922              		@ link register save eliminated.
 923              	.LVL67:
 282:E:\NeuOrga\Programmieren\c_cpp\github_os\input\src\os_base\os_task_queue.c ****    /* only 1 element for TASK_IDLE_QUEUE allowed */
 283:E:\NeuOrga\Programmieren\c_cpp\github_os\input\src\os_base\os_task_queue.c ****    if((&TASK_IDLE_QUEUE[0])->IdleTask == False)
 924              		.loc 1 283 0
 925 03d4 324B     		ldr	r3, .L110
 926 03d6 1A78     		ldrb	r2, [r3]	@ zero_extendqisi2
 927 03d8 5107     		lsls	r1, r2, #29
 928 03da 60D4     		bmi	.L107
 281:E:\NeuOrga\Programmieren\c_cpp\github_os\input\src\os_base\os_task_queue.c ****    /* only 1 element for TASK_IDLE_QUEUE allowed */
 929              		.loc 1 281 0
 930 03dc F0B4     		push	{r4, r5, r6, r7}
 931              		.cfi_def_cfa_offset 16
 932              		.cfi_offset 4, -16
 933              		.cfi_offset 5, -12
 934              		.cfi_offset 6, -8
 935              		.cfi_offset 7, -4
 284:E:\NeuOrga\Programmieren\c_cpp\github_os\input\src\os_base\os_task_queue.c ****    {
 285:E:\NeuOrga\Programmieren\c_cpp\github_os\input\src\os_base\os_task_queue.c ****       (&TASK_IDLE_QUEUE[0])->active                                =   task->active           ;
ARM GAS  C:\Users\PRESID~1\AppData\Local\Temp\cc9KVhqU.s 			page 24


 936              		.loc 1 285 0
 937 03de 0478     		ldrb	r4, [r0]	@ zero_extendqisi2
 286:E:\NeuOrga\Programmieren\c_cpp\github_os\input\src\os_base\os_task_queue.c ****       (&TASK_IDLE_QUEUE[0])->task_queued                           =   task->task_queued      ;
 287:E:\NeuOrga\Programmieren\c_cpp\github_os\input\src\os_base\os_task_queue.c ****       (&TASK_IDLE_QUEUE[0])->IdleTask                              =   task->IdleTask         ;
 288:E:\NeuOrga\Programmieren\c_cpp\github_os\input\src\os_base\os_task_queue.c ****       (&TASK_IDLE_QUEUE[0])->FREE                                  =   task->FREE             ;
 289:E:\NeuOrga\Programmieren\c_cpp\github_os\input\src\os_base\os_task_queue.c ****       (&TASK_IDLE_QUEUE[0])->NrOfInsAllowed                        =   task->NrOfInsAllowed   ;
 290:E:\NeuOrga\Programmieren\c_cpp\github_os\input\src\os_base\os_task_queue.c ****       (&TASK_IDLE_QUEUE[0])->NrOfInsActivated                      =   task->NrOfInsActivated ;
 938              		.loc 1 290 0
 939 03e0 4579     		ldrb	r5, [r0, #5]	@ zero_extendqisi2
 291:E:\NeuOrga\Programmieren\c_cpp\github_os\input\src\os_base\os_task_queue.c ****       (&TASK_IDLE_QUEUE[0])->WaitActUntil                          =   task->WaitActUntil     ;
 940              		.loc 1 291 0
 941 03e2 8168     		ldr	r1, [r0, #8]
 292:E:\NeuOrga\Programmieren\c_cpp\github_os\input\src\os_base\os_task_queue.c ****       (&TASK_IDLE_QUEUE[0])->wait_time                             =   task->wait_time        ;
 942              		.loc 1 292 0
 943 03e4 C768     		ldr	r7, [r0, #12]
 293:E:\NeuOrga\Programmieren\c_cpp\github_os\input\src\os_base\os_task_queue.c ****       (&TASK_IDLE_QUEUE[0])->TimeToPrioInc                         =   task->TimeToPrioInc    ;
 294:E:\NeuOrga\Programmieren\c_cpp\github_os\input\src\os_base\os_task_queue.c ****       (&TASK_IDLE_QUEUE[0])->overwaittime_per_prio_inc_step        =   task->overwaittime_per_prio_
 944              		.loc 1 294 0
 945 03e6 4669     		ldr	r6, [r0, #20]
 285:E:\NeuOrga\Programmieren\c_cpp\github_os\input\src\os_base\os_task_queue.c ****       (&TASK_IDLE_QUEUE[0])->task_queued                           =   task->task_queued      ;
 946              		.loc 1 285 0
 947 03e8 64F30002 		bfi	r2, r4, #0, #1
 948 03ec 1A70     		strb	r2, [r3]
 286:E:\NeuOrga\Programmieren\c_cpp\github_os\input\src\os_base\os_task_queue.c ****       (&TASK_IDLE_QUEUE[0])->IdleTask                              =   task->IdleTask         ;
 949              		.loc 1 286 0
 950 03ee 0278     		ldrb	r2, [r0]	@ zero_extendqisi2
 951 03f0 1C78     		ldrb	r4, [r3]	@ zero_extendqisi2
 952 03f2 C2F34002 		ubfx	r2, r2, #1, #1
 953 03f6 62F34104 		bfi	r4, r2, #1, #1
 954 03fa 1C70     		strb	r4, [r3]
 287:E:\NeuOrga\Programmieren\c_cpp\github_os\input\src\os_base\os_task_queue.c ****       (&TASK_IDLE_QUEUE[0])->FREE                                  =   task->FREE             ;
 955              		.loc 1 287 0
 956 03fc 0278     		ldrb	r2, [r0]	@ zero_extendqisi2
 957 03fe E4B2     		uxtb	r4, r4
 958 0400 C2F38002 		ubfx	r2, r2, #2, #1
 959 0404 62F38204 		bfi	r4, r2, #2, #1
 960 0408 1C70     		strb	r4, [r3]
 288:E:\NeuOrga\Programmieren\c_cpp\github_os\input\src\os_base\os_task_queue.c ****       (&TASK_IDLE_QUEUE[0])->NrOfInsAllowed                        =   task->NrOfInsAllowed   ;
 961              		.loc 1 288 0
 962 040a 0268     		ldr	r2, [r0]
 963 040c 1C68     		ldr	r4, [r3]
 964 040e C2F3DC02 		ubfx	r2, r2, #3, #29
 965 0412 62F3DF04 		bfi	r4, r2, #3, #29
 966 0416 1C60     		str	r4, [r3]
 289:E:\NeuOrga\Programmieren\c_cpp\github_os\input\src\os_base\os_task_queue.c ****       (&TASK_IDLE_QUEUE[0])->NrOfInsActivated                      =   task->NrOfInsActivated ;
 967              		.loc 1 289 0
 968 0418 0279     		ldrb	r2, [r0, #4]	@ zero_extendqisi2
 293:E:\NeuOrga\Programmieren\c_cpp\github_os\input\src\os_base\os_task_queue.c ****       (&TASK_IDLE_QUEUE[0])->overwaittime_per_prio_inc_step        =   task->overwaittime_per_prio_
 969              		.loc 1 293 0
 970 041a 0469     		ldr	r4, [r0, #16]
 289:E:\NeuOrga\Programmieren\c_cpp\github_os\input\src\os_base\os_task_queue.c ****       (&TASK_IDLE_QUEUE[0])->NrOfInsActivated                      =   task->NrOfInsActivated ;
 971              		.loc 1 289 0
 972 041c 1A71     		strb	r2, [r3, #4]
 295:E:\NeuOrga\Programmieren\c_cpp\github_os\input\src\os_base\os_task_queue.c ****       (&TASK_IDLE_QUEUE[0])->max_allowed_wait_time                 =   task->max_allowed_wait_time;
 973              		.loc 1 295 0
 974 041e 8269     		ldr	r2, [r0, #24]
 290:E:\NeuOrga\Programmieren\c_cpp\github_os\input\src\os_base\os_task_queue.c ****       (&TASK_IDLE_QUEUE[0])->WaitActUntil                          =   task->WaitActUntil     ;
ARM GAS  C:\Users\PRESID~1\AppData\Local\Temp\cc9KVhqU.s 			page 25


 975              		.loc 1 290 0
 976 0420 5D71     		strb	r5, [r3, #5]
 291:E:\NeuOrga\Programmieren\c_cpp\github_os\input\src\os_base\os_task_queue.c ****       (&TASK_IDLE_QUEUE[0])->wait_time                             =   task->wait_time        ;
 977              		.loc 1 291 0
 978 0422 9960     		str	r1, [r3, #8]
 296:E:\NeuOrga\Programmieren\c_cpp\github_os\input\src\os_base\os_task_queue.c ****       (&TASK_IDLE_QUEUE[0])->exe_time                              =   task->exe_time;
 979              		.loc 1 296 0
 980 0424 C569     		ldr	r5, [r0, #28]
 297:E:\NeuOrga\Programmieren\c_cpp\github_os\input\src\os_base\os_task_queue.c ****       (&TASK_IDLE_QUEUE[0])->current_prio                          =   task->current_prio     ;
 298:E:\NeuOrga\Programmieren\c_cpp\github_os\input\src\os_base\os_task_queue.c ****       (&TASK_IDLE_QUEUE[0])->default_prio                          =   task->default_prio     ;
 981              		.loc 1 298 0
 982 0426 90F82510 		ldrb	r1, [r0, #37]	@ zero_extendqisi2
 293:E:\NeuOrga\Programmieren\c_cpp\github_os\input\src\os_base\os_task_queue.c ****       (&TASK_IDLE_QUEUE[0])->overwaittime_per_prio_inc_step        =   task->overwaittime_per_prio_
 983              		.loc 1 293 0
 984 042a 1C61     		str	r4, [r3, #16]
 295:E:\NeuOrga\Programmieren\c_cpp\github_os\input\src\os_base\os_task_queue.c ****       (&TASK_IDLE_QUEUE[0])->exe_time                              =   task->exe_time;
 985              		.loc 1 295 0
 986 042c 9A61     		str	r2, [r3, #24]
 297:E:\NeuOrga\Programmieren\c_cpp\github_os\input\src\os_base\os_task_queue.c ****       (&TASK_IDLE_QUEUE[0])->current_prio                          =   task->current_prio     ;
 987              		.loc 1 297 0
 988 042e 90F82440 		ldrb	r4, [r0, #36]	@ zero_extendqisi2
 299:E:\NeuOrga\Programmieren\c_cpp\github_os\input\src\os_base\os_task_queue.c ****       (&TASK_IDLE_QUEUE[0])->fp                                    =   task->fp               ;
 989              		.loc 1 299 0
 990 0432 C26A     		ldr	r2, [r0, #44]
 292:E:\NeuOrga\Programmieren\c_cpp\github_os\input\src\os_base\os_task_queue.c ****       (&TASK_IDLE_QUEUE[0])->TimeToPrioInc                         =   task->TimeToPrioInc    ;
 991              		.loc 1 292 0
 992 0434 DF60     		str	r7, [r3, #12]
 294:E:\NeuOrga\Programmieren\c_cpp\github_os\input\src\os_base\os_task_queue.c ****       (&TASK_IDLE_QUEUE[0])->max_allowed_wait_time                 =   task->max_allowed_wait_time;
 993              		.loc 1 294 0
 994 0436 5E61     		str	r6, [r3, #20]
 296:E:\NeuOrga\Programmieren\c_cpp\github_os\input\src\os_base\os_task_queue.c ****       (&TASK_IDLE_QUEUE[0])->current_prio                          =   task->current_prio     ;
 995              		.loc 1 296 0
 996 0438 DD61     		str	r5, [r3, #28]
 297:E:\NeuOrga\Programmieren\c_cpp\github_os\input\src\os_base\os_task_queue.c ****       (&TASK_IDLE_QUEUE[0])->default_prio                          =   task->default_prio     ;
 997              		.loc 1 297 0
 998 043a 83F82440 		strb	r4, [r3, #36]
 298:E:\NeuOrga\Programmieren\c_cpp\github_os\input\src\os_base\os_task_queue.c ****       (&TASK_IDLE_QUEUE[0])->fp                                    =   task->fp               ;
 999              		.loc 1 298 0
 1000 043e 83F82510 		strb	r1, [r3, #37]
 1001              		.loc 1 299 0
 1002 0442 DA62     		str	r2, [r3, #44]
 300:E:\NeuOrga\Programmieren\c_cpp\github_os\input\src\os_base\os_task_queue.c ****       (&TASK_IDLE_QUEUE[0])->state_request                         =   task->state_request    ;
 301:E:\NeuOrga\Programmieren\c_cpp\github_os\input\src\os_base\os_task_queue.c ****       (&TASK_IDLE_QUEUE[0])->task_state                            =   Task_ready             ;
 302:E:\NeuOrga\Programmieren\c_cpp\github_os\input\src\os_base\os_task_queue.c ****       (&TASK_IDLE_QUEUE[0])->task_group                            =   task->task_group       ;
 303:E:\NeuOrga\Programmieren\c_cpp\github_os\input\src\os_base\os_task_queue.c ****       #if(CFG_PROCESSOR == cMCU_X86)
 304:E:\NeuOrga\Programmieren\c_cpp\github_os\input\src\os_base\os_task_queue.c ****       (&TASK_IDLE_QUEUE[0])->EAX                                   =   task->EAX              ;
 305:E:\NeuOrga\Programmieren\c_cpp\github_os\input\src\os_base\os_task_queue.c ****       (&TASK_IDLE_QUEUE[0])->EBX                                   =   task->EBX              ;
 306:E:\NeuOrga\Programmieren\c_cpp\github_os\input\src\os_base\os_task_queue.c ****       (&TASK_IDLE_QUEUE[0])->ECX                                   =   task->ECX              ;
 307:E:\NeuOrga\Programmieren\c_cpp\github_os\input\src\os_base\os_task_queue.c ****       (&TASK_IDLE_QUEUE[0])->EDX                                   =   task->EDX              ;
 308:E:\NeuOrga\Programmieren\c_cpp\github_os\input\src\os_base\os_task_queue.c ****       #elif(CFG_PROCESSOR == cMCU_CORTEX_M4)
 309:E:\NeuOrga\Programmieren\c_cpp\github_os\input\src\os_base\os_task_queue.c ****       (&TASK_IDLE_QUEUE[0])->r0                                   =   task->r0              ;
 1003              		.loc 1 309 0
 1004 0444 D0E90E41 		ldrd	r4, r1, [r0, #56]
 300:E:\NeuOrga\Programmieren\c_cpp\github_os\input\src\os_base\os_task_queue.c ****       (&TASK_IDLE_QUEUE[0])->state_request                         =   task->state_request    ;
 1005              		.loc 1 300 0
 1006 0448 026B     		ldr	r2, [r0, #48]
 1007 044a 1A63     		str	r2, [r3, #48]
ARM GAS  C:\Users\PRESID~1\AppData\Local\Temp\cc9KVhqU.s 			page 26


 301:E:\NeuOrga\Programmieren\c_cpp\github_os\input\src\os_base\os_task_queue.c ****       (&TASK_IDLE_QUEUE[0])->task_group                            =   task->task_group       ;
 1008              		.loc 1 301 0
 1009 044c 0225     		movs	r5, #2
 310:E:\NeuOrga\Programmieren\c_cpp\github_os\input\src\os_base\os_task_queue.c ****       (&TASK_IDLE_QUEUE[0])->r1                                   =   task->r1              ;
 1010              		.loc 1 310 0
 1011 044e 026C     		ldr	r2, [r0, #64]
 301:E:\NeuOrga\Programmieren\c_cpp\github_os\input\src\os_base\os_task_queue.c ****       (&TASK_IDLE_QUEUE[0])->task_group                            =   task->task_group       ;
 1012              		.loc 1 301 0
 1013 0450 83F83450 		strb	r5, [r3, #52]
 302:E:\NeuOrga\Programmieren\c_cpp\github_os\input\src\os_base\os_task_queue.c ****       #if(CFG_PROCESSOR == cMCU_X86)
 1014              		.loc 1 302 0
 1015 0454 9C63     		str	r4, [r3, #56]
 311:E:\NeuOrga\Programmieren\c_cpp\github_os\input\src\os_base\os_task_queue.c ****       (&TASK_IDLE_QUEUE[0])->r2                                   =   task->r2              ;
 1016              		.loc 1 311 0
 1017 0456 456C     		ldr	r5, [r0, #68]
 312:E:\NeuOrga\Programmieren\c_cpp\github_os\input\src\os_base\os_task_queue.c ****       (&TASK_IDLE_QUEUE[0])->r3                                   =   task->r3              ;
 1018              		.loc 1 312 0
 1019 0458 846C     		ldr	r4, [r0, #72]
 309:E:\NeuOrga\Programmieren\c_cpp\github_os\input\src\os_base\os_task_queue.c ****       (&TASK_IDLE_QUEUE[0])->r1                                   =   task->r1              ;
 1020              		.loc 1 309 0
 1021 045a D963     		str	r1, [r3, #60]
 310:E:\NeuOrga\Programmieren\c_cpp\github_os\input\src\os_base\os_task_queue.c ****       (&TASK_IDLE_QUEUE[0])->r2                                   =   task->r2              ;
 1022              		.loc 1 310 0
 1023 045c 1A64     		str	r2, [r3, #64]
 313:E:\NeuOrga\Programmieren\c_cpp\github_os\input\src\os_base\os_task_queue.c ****       (&TASK_IDLE_QUEUE[0])->r4                                   =   task->r4              ;
 1024              		.loc 1 313 0
 1025 045e C16C     		ldr	r1, [r0, #76]
 314:E:\NeuOrga\Programmieren\c_cpp\github_os\input\src\os_base\os_task_queue.c ****       (&TASK_IDLE_QUEUE[0])->r5                                   =   task->r5              ;
 1026              		.loc 1 314 0
 1027 0460 026D     		ldr	r2, [r0, #80]
 311:E:\NeuOrga\Programmieren\c_cpp\github_os\input\src\os_base\os_task_queue.c ****       (&TASK_IDLE_QUEUE[0])->r3                                   =   task->r3              ;
 1028              		.loc 1 311 0
 1029 0462 5D64     		str	r5, [r3, #68]
 312:E:\NeuOrga\Programmieren\c_cpp\github_os\input\src\os_base\os_task_queue.c ****       (&TASK_IDLE_QUEUE[0])->r4                                   =   task->r4              ;
 1030              		.loc 1 312 0
 1031 0464 9C64     		str	r4, [r3, #72]
 315:E:\NeuOrga\Programmieren\c_cpp\github_os\input\src\os_base\os_task_queue.c ****       (&TASK_IDLE_QUEUE[0])->r6                                   =   task->r6              ;
 1032              		.loc 1 315 0
 1033 0466 456D     		ldr	r5, [r0, #84]
 316:E:\NeuOrga\Programmieren\c_cpp\github_os\input\src\os_base\os_task_queue.c ****       (&TASK_IDLE_QUEUE[0])->r7                                   =   task->r7              ;
 1034              		.loc 1 316 0
 1035 0468 846D     		ldr	r4, [r0, #88]
 313:E:\NeuOrga\Programmieren\c_cpp\github_os\input\src\os_base\os_task_queue.c ****       (&TASK_IDLE_QUEUE[0])->r5                                   =   task->r5              ;
 1036              		.loc 1 313 0
 1037 046a D964     		str	r1, [r3, #76]
 314:E:\NeuOrga\Programmieren\c_cpp\github_os\input\src\os_base\os_task_queue.c ****       (&TASK_IDLE_QUEUE[0])->r6                                   =   task->r6              ;
 1038              		.loc 1 314 0
 1039 046c 1A65     		str	r2, [r3, #80]
 317:E:\NeuOrga\Programmieren\c_cpp\github_os\input\src\os_base\os_task_queue.c ****       (&TASK_IDLE_QUEUE[0])->r8                                   =   task->r8              ;
 1040              		.loc 1 317 0
 1041 046e C16D     		ldr	r1, [r0, #92]
 318:E:\NeuOrga\Programmieren\c_cpp\github_os\input\src\os_base\os_task_queue.c ****       (&TASK_IDLE_QUEUE[0])->r9                                   =   task->r9              ;
 1042              		.loc 1 318 0
 1043 0470 026E     		ldr	r2, [r0, #96]
 315:E:\NeuOrga\Programmieren\c_cpp\github_os\input\src\os_base\os_task_queue.c ****       (&TASK_IDLE_QUEUE[0])->r7                                   =   task->r7              ;
 1044              		.loc 1 315 0
 1045 0472 5D65     		str	r5, [r3, #84]
ARM GAS  C:\Users\PRESID~1\AppData\Local\Temp\cc9KVhqU.s 			page 27


 316:E:\NeuOrga\Programmieren\c_cpp\github_os\input\src\os_base\os_task_queue.c ****       (&TASK_IDLE_QUEUE[0])->r8                                   =   task->r8              ;
 1046              		.loc 1 316 0
 1047 0474 9C65     		str	r4, [r3, #88]
 319:E:\NeuOrga\Programmieren\c_cpp\github_os\input\src\os_base\os_task_queue.c ****       (&TASK_IDLE_QUEUE[0])->r10                                  =   task->r10             ;
 1048              		.loc 1 319 0
 1049 0476 456E     		ldr	r5, [r0, #100]
 320:E:\NeuOrga\Programmieren\c_cpp\github_os\input\src\os_base\os_task_queue.c ****       (&TASK_IDLE_QUEUE[0])->r11                                  =   task->r11             ;
 1050              		.loc 1 320 0
 1051 0478 846E     		ldr	r4, [r0, #104]
 317:E:\NeuOrga\Programmieren\c_cpp\github_os\input\src\os_base\os_task_queue.c ****       (&TASK_IDLE_QUEUE[0])->r9                                   =   task->r9              ;
 1052              		.loc 1 317 0
 1053 047a D965     		str	r1, [r3, #92]
 318:E:\NeuOrga\Programmieren\c_cpp\github_os\input\src\os_base\os_task_queue.c ****       (&TASK_IDLE_QUEUE[0])->r10                                  =   task->r10             ;
 1054              		.loc 1 318 0
 1055 047c 1A66     		str	r2, [r3, #96]
 321:E:\NeuOrga\Programmieren\c_cpp\github_os\input\src\os_base\os_task_queue.c ****       (&TASK_IDLE_QUEUE[0])->r12                                  =   task->r12             ;
 1056              		.loc 1 321 0
 1057 047e C16E     		ldr	r1, [r0, #108]
 322:E:\NeuOrga\Programmieren\c_cpp\github_os\input\src\os_base\os_task_queue.c ****       #else
 323:E:\NeuOrga\Programmieren\c_cpp\github_os\input\src\os_base\os_task_queue.c ****       #error "os_task_queue.c"
 324:E:\NeuOrga\Programmieren\c_cpp\github_os\input\src\os_base\os_task_queue.c ****       #endif
 325:E:\NeuOrga\Programmieren\c_cpp\github_os\input\src\os_base\os_task_queue.c ****       (&TASK_IDLE_QUEUE[0])->pStackPointer                         =   task->pStackPointer    ;
 1058              		.loc 1 325 0
 1059 0480 026F     		ldr	r2, [r0, #112]
 320:E:\NeuOrga\Programmieren\c_cpp\github_os\input\src\os_base\os_task_queue.c ****       (&TASK_IDLE_QUEUE[0])->r12                                  =   task->r12             ;
 1060              		.loc 1 320 0
 1061 0482 C3E91954 		strd	r5, r4, [r3, #100]
 1062              		.loc 1 325 0
 1063 0486 C3E91B12 		strd	r1, r2, [r3, #108]
 326:E:\NeuOrga\Programmieren\c_cpp\github_os\input\src\os_base\os_task_queue.c ****       (&TASK_IDLE_QUEUE[0])->pStackPointerByMalloc                 =   task->pStackPointerByMalloc;
 327:E:\NeuOrga\Programmieren\c_cpp\github_os\input\src\os_base\os_task_queue.c ****       (&TASK_IDLE_QUEUE[0])->pStackPointerStart                    =   task->pStackPointerStart;
 1064              		.loc 1 327 0
 1065 048a D0E91D54 		ldrd	r5, r4, [r0, #116]
 328:E:\NeuOrga\Programmieren\c_cpp\github_os\input\src\os_base\os_task_queue.c ****       (&TASK_IDLE_QUEUE[0])->StackSize                             =   task->StackSize        ;
 329:E:\NeuOrga\Programmieren\c_cpp\github_os\input\src\os_base\os_task_queue.c ****       (&TASK_IDLE_QUEUE[0])->pStackPointerEnd                      =   task->pStackPointerEnd ;
 1066              		.loc 1 329 0
 1067 048e D0E91F12 		ldrd	r1, r2, [r0, #124]
 327:E:\NeuOrga\Programmieren\c_cpp\github_os\input\src\os_base\os_task_queue.c ****       (&TASK_IDLE_QUEUE[0])->StackSize                             =   task->StackSize        ;
 1068              		.loc 1 327 0
 1069 0492 C3E91D54 		strd	r5, r4, [r3, #116]
 1070              		.loc 1 329 0
 1071 0496 C3E91F12 		strd	r1, r2, [r3, #124]
 330:E:\NeuOrga\Programmieren\c_cpp\github_os\input\src\os_base\os_task_queue.c ****    }
 331:E:\NeuOrga\Programmieren\c_cpp\github_os\input\src\os_base\os_task_queue.c **** }
 1072              		.loc 1 331 0
 1073 049a F0BC     		pop	{r4, r5, r6, r7}
 1074              		.cfi_restore 7
 1075              		.cfi_restore 6
 1076              		.cfi_restore 5
 1077              		.cfi_restore 4
 1078              		.cfi_def_cfa_offset 0
 1079 049c 7047     		bx	lr
 1080              	.L107:
 1081 049e 7047     		bx	lr
 1082              	.L111:
 1083              		.align	2
 1084              	.L110:
ARM GAS  C:\Users\PRESID~1\AppData\Local\Temp\cc9KVhqU.s 			page 28


 1085 04a0 00000000 		.word	TASK_IDLE_QUEUE
 1086              		.cfi_endproc
 1087              	.LFE10:
 1089              		.align	1
 1090              		.p2align 2,,3
 1091              		.global	GetRunningTask
 1092              		.syntax unified
 1093              		.thumb
 1094              		.thumb_func
 1095              		.fpu softvfp
 1097              	GetRunningTask:
 1098              	.LFB11:
 332:E:\NeuOrga\Programmieren\c_cpp\github_os\input\src\os_base\os_task_queue.c **** task_t* GetRunningTask(void)
 333:E:\NeuOrga\Programmieren\c_cpp\github_os\input\src\os_base\os_task_queue.c **** {
 1099              		.loc 1 333 0
 1100              		.cfi_startproc
 1101              		@ args = 0, pretend = 0, frame = 0
 1102              		@ frame_needed = 0, uses_anonymous_args = 0
 1103              		@ link register save eliminated.
 334:E:\NeuOrga\Programmieren\c_cpp\github_os\input\src\os_base\os_task_queue.c ****    return (&RUNNING_TASK[0]);
 335:E:\NeuOrga\Programmieren\c_cpp\github_os\input\src\os_base\os_task_queue.c **** }
 1104              		.loc 1 335 0
 1105 04a4 0048     		ldr	r0, .L113
 1106 04a6 7047     		bx	lr
 1107              	.L114:
 1108              		.align	2
 1109              	.L113:
 1110 04a8 00000000 		.word	RUNNING_TASK
 1111              		.cfi_endproc
 1112              	.LFE11:
 1114              		.align	1
 1115              		.p2align 2,,3
 1116              		.global	GetRunningSchedulingQueueElementPtr
 1117              		.syntax unified
 1118              		.thumb
 1119              		.thumb_func
 1120              		.fpu softvfp
 1122              	GetRunningSchedulingQueueElementPtr:
 1123              	.LFB12:
 336:E:\NeuOrga\Programmieren\c_cpp\github_os\input\src\os_base\os_task_queue.c **** scheduling_t* GetRunningSchedulingQueueElementPtr(void)
 337:E:\NeuOrga\Programmieren\c_cpp\github_os\input\src\os_base\os_task_queue.c **** {
 1124              		.loc 1 337 0
 1125              		.cfi_startproc
 1126              		@ args = 0, pretend = 0, frame = 0
 1127              		@ frame_needed = 0, uses_anonymous_args = 0
 1128              		@ link register save eliminated.
 338:E:\NeuOrga\Programmieren\c_cpp\github_os\input\src\os_base\os_task_queue.c ****     return RUNNING_SCHEDULING_QUEUE_ENTRY;
 1129              		.loc 1 338 0
 1130 04ac 014B     		ldr	r3, .L116
 339:E:\NeuOrga\Programmieren\c_cpp\github_os\input\src\os_base\os_task_queue.c **** }
 1131              		.loc 1 339 0
 1132 04ae 1868     		ldr	r0, [r3]
 1133 04b0 7047     		bx	lr
 1134              	.L117:
 1135 04b2 00BF     		.align	2
 1136              	.L116:
 1137 04b4 00000000 		.word	RUNNING_SCHEDULING_QUEUE_ENTRY
ARM GAS  C:\Users\PRESID~1\AppData\Local\Temp\cc9KVhqU.s 			page 29


 1138              		.cfi_endproc
 1139              	.LFE12:
 1141              		.align	1
 1142              		.p2align 2,,3
 1143              		.global	OS_InitTask
 1144              		.syntax unified
 1145              		.thumb
 1146              		.thumb_func
 1147              		.fpu softvfp
 1149              	OS_InitTask:
 1150              	.LFB13:
 340:E:\NeuOrga\Programmieren\c_cpp\github_os\input\src\os_base\os_task_queue.c **** void OS_InitTask(
 341:E:\NeuOrga\Programmieren\c_cpp\github_os\input\src\os_base\os_task_queue.c ****    task_t*          task,
 342:E:\NeuOrga\Programmieren\c_cpp\github_os\input\src\os_base\os_task_queue.c ****    func_p_t         TaskFunction,
 343:E:\NeuOrga\Programmieren\c_cpp\github_os\input\src\os_base\os_task_queue.c ****    unsigned_char_t  AllowedInstances,
 344:E:\NeuOrga\Programmieren\c_cpp\github_os\input\src\os_base\os_task_queue.c ****    unsigned_char_t  IdleTask,
 345:E:\NeuOrga\Programmieren\c_cpp\github_os\input\src\os_base\os_task_queue.c ****    task_group_t*    p_task_group,
 346:E:\NeuOrga\Programmieren\c_cpp\github_os\input\src\os_base\os_task_queue.c ****    unsigned_char_t* pStackAddr,
 347:E:\NeuOrga\Programmieren\c_cpp\github_os\input\src\os_base\os_task_queue.c ****    unsigned_int32_t uStackSize,
 348:E:\NeuOrga\Programmieren\c_cpp\github_os\input\src\os_base\os_task_queue.c ****    privilige_mode_t privilige_mode,
 349:E:\NeuOrga\Programmieren\c_cpp\github_os\input\src\os_base\os_task_queue.c ****    CoreID_t         core,
 350:E:\NeuOrga\Programmieren\c_cpp\github_os\input\src\os_base\os_task_queue.c ****    unsigned_char_t  default_prio
 351:E:\NeuOrga\Programmieren\c_cpp\github_os\input\src\os_base\os_task_queue.c **** )
 352:E:\NeuOrga\Programmieren\c_cpp\github_os\input\src\os_base\os_task_queue.c **** {
 1151              		.loc 1 352 0
 1152              		.cfi_startproc
 1153              		@ args = 24, pretend = 0, frame = 0
 1154              		@ frame_needed = 0, uses_anonymous_args = 0
 1155              	.LVL68:
 1156 04b8 2DE9F843 		push	{r3, r4, r5, r6, r7, r8, r9, lr}
 1157              		.cfi_def_cfa_offset 32
 1158              		.cfi_offset 3, -32
 1159              		.cfi_offset 4, -28
 1160              		.cfi_offset 5, -24
 1161              		.cfi_offset 6, -20
 1162              		.cfi_offset 7, -16
 1163              		.cfi_offset 8, -12
 1164              		.cfi_offset 9, -8
 1165              		.cfi_offset 14, -4
 1166              		.loc 1 352 0
 1167 04bc 0A9D     		ldr	r5, [sp, #40]
 1168 04be 9DF82CE0 		ldrb	lr, [sp, #44]	@ zero_extendqisi2
 1169 04c2 9DF834C0 		ldrb	ip, [sp, #52]	@ zero_extendqisi2
 1170 04c6 DDE90887 		ldrd	r8, r7, [sp, #32]
 353:E:\NeuOrga\Programmieren\c_cpp\github_os\input\src\os_base\os_task_queue.c ****    ReferenceUnusedParameter(core);
 354:E:\NeuOrga\Programmieren\c_cpp\github_os\input\src\os_base\os_task_queue.c ****    if(task!=0)
 1171              		.loc 1 354 0
 1172 04ca 58B3     		cbz	r0, .L119
 355:E:\NeuOrga\Programmieren\c_cpp\github_os\input\src\os_base\os_task_queue.c ****    {
 356:E:\NeuOrga\Programmieren\c_cpp\github_os\input\src\os_base\os_task_queue.c ****       task->active           = False;
 1173              		.loc 1 356 0
 1174 04cc 0678     		ldrb	r6, [r0]	@ zero_extendqisi2
 357:E:\NeuOrga\Programmieren\c_cpp\github_os\input\src\os_base\os_task_queue.c ****       task->fp               = TaskFunction;
 358:E:\NeuOrga\Programmieren\c_cpp\github_os\input\src\os_base\os_task_queue.c ****       task->NrOfInsAllowed   = AllowedInstances;
 1175              		.loc 1 358 0
 1176 04ce 0271     		strb	r2, [r0, #4]
 359:E:\NeuOrga\Programmieren\c_cpp\github_os\input\src\os_base\os_task_queue.c ****       task->task_group       = p_task_group;
ARM GAS  C:\Users\PRESID~1\AppData\Local\Temp\cc9KVhqU.s 			page 30


 360:E:\NeuOrga\Programmieren\c_cpp\github_os\input\src\os_base\os_task_queue.c ****       task->NrOfInsActivated = 0;
 361:E:\NeuOrga\Programmieren\c_cpp\github_os\input\src\os_base\os_task_queue.c ****       task->WaitActUntil     = 0;
 362:E:\NeuOrga\Programmieren\c_cpp\github_os\input\src\os_base\os_task_queue.c ****       task->privilige_mode   = privilige_mode;
 363:E:\NeuOrga\Programmieren\c_cpp\github_os\input\src\os_base\os_task_queue.c ****       task->default_prio     = default_prio;
 364:E:\NeuOrga\Programmieren\c_cpp\github_os\input\src\os_base\os_task_queue.c **** 
 365:E:\NeuOrga\Programmieren\c_cpp\github_os\input\src\os_base\os_task_queue.c ****       task->overwaittime_per_prio_inc_step = 1;
 366:E:\NeuOrga\Programmieren\c_cpp\github_os\input\src\os_base\os_task_queue.c ****       task->max_allowed_wait_time          = 100000;
 367:E:\NeuOrga\Programmieren\c_cpp\github_os\input\src\os_base\os_task_queue.c **** 
 368:E:\NeuOrga\Programmieren\c_cpp\github_os\input\src\os_base\os_task_queue.c ****       task->IdleTask      = IdleTask;
 1177              		.loc 1 368 0
 1178 04d0 06F0FE06 		and	r6, r6, #254
 366:E:\NeuOrga\Programmieren\c_cpp\github_os\input\src\os_base\os_task_queue.c **** 
 1179              		.loc 1 366 0
 1180 04d4 164A     		ldr	r2, .L123
 1181              	.LVL69:
 357:E:\NeuOrga\Programmieren\c_cpp\github_os\input\src\os_base\os_task_queue.c ****       task->fp               = TaskFunction;
 1182              		.loc 1 357 0
 1183 04d6 C162     		str	r1, [r0, #44]
 1184              		.loc 1 368 0
 1185 04d8 63F38206 		bfi	r6, r3, #2, #1
 360:E:\NeuOrga\Programmieren\c_cpp\github_os\input\src\os_base\os_task_queue.c ****       task->WaitActUntil     = 0;
 1186              		.loc 1 360 0
 1187 04dc 0021     		movs	r1, #0
 1188              	.LVL70:
 369:E:\NeuOrga\Programmieren\c_cpp\github_os\input\src\os_base\os_task_queue.c ****       task->state_request = &task_state_request;
 1189              		.loc 1 369 0
 1190 04de 154B     		ldr	r3, .L123+4
 1191              	.LVL71:
 362:E:\NeuOrga\Programmieren\c_cpp\github_os\input\src\os_base\os_task_queue.c ****       task->default_prio     = default_prio;
 1192              		.loc 1 362 0
 1193 04e0 80F884E0 		strb	lr, [r0, #132]
 365:E:\NeuOrga\Programmieren\c_cpp\github_os\input\src\os_base\os_task_queue.c ****       task->max_allowed_wait_time          = 100000;
 1194              		.loc 1 365 0
 1195 04e4 4FF00109 		mov	r9, #1
 1196 04e8 0446     		mov	r4, r0
 366:E:\NeuOrga\Programmieren\c_cpp\github_os\input\src\os_base\os_task_queue.c **** 
 1197              		.loc 1 366 0
 1198 04ea C0E90592 		strd	r9, r2, [r0, #20]
 363:E:\NeuOrga\Programmieren\c_cpp\github_os\input\src\os_base\os_task_queue.c **** 
 1199              		.loc 1 363 0
 1200 04ee 80F825C0 		strb	ip, [r0, #37]
 360:E:\NeuOrga\Programmieren\c_cpp\github_os\input\src\os_base\os_task_queue.c ****       task->WaitActUntil     = 0;
 1201              		.loc 1 360 0
 1202 04f2 4171     		strb	r1, [r0, #5]
 361:E:\NeuOrga\Programmieren\c_cpp\github_os\input\src\os_base\os_task_queue.c ****       task->privilige_mode   = privilige_mode;
 1203              		.loc 1 361 0
 1204 04f4 8160     		str	r1, [r0, #8]
 1205              		.loc 1 369 0
 1206 04f6 0363     		str	r3, [r0, #48]
 359:E:\NeuOrga\Programmieren\c_cpp\github_os\input\src\os_base\os_task_queue.c ****       task->NrOfInsActivated = 0;
 1207              		.loc 1 359 0
 1208 04f8 C0F83880 		str	r8, [r0, #56]
 368:E:\NeuOrga\Programmieren\c_cpp\github_os\input\src\os_base\os_task_queue.c ****       task->state_request = &task_state_request;
 1209              		.loc 1 368 0
 1210 04fc 0670     		strb	r6, [r0]
 370:E:\NeuOrga\Programmieren\c_cpp\github_os\input\src\os_base\os_task_queue.c ****       task_state_request(task, Task_unspecified);
 1211              		.loc 1 370 0
ARM GAS  C:\Users\PRESID~1\AppData\Local\Temp\cc9KVhqU.s 			page 31


 1212 04fe FFF7FEFF 		bl	task_state_request
 1213              	.LVL72:
 371:E:\NeuOrga\Programmieren\c_cpp\github_os\input\src\os_base\os_task_queue.c ****       OS_CreateTask(task);
 1214              		.loc 1 371 0
 1215 0502 2046     		mov	r0, r4
 1216 0504 FFF7FEFF 		bl	OS_CreateTask
 1217              	.LVL73:
 1218 0508 B5F5FA6F 		cmp	r5, #2000
 1219 050c 28BF     		it	cs
 1220 050e 4FF4FA65 		movcs	r5, #2000
 1221              	.LVL74:
 372:E:\NeuOrga\Programmieren\c_cpp\github_os\input\src\os_base\os_task_queue.c ****       if(uStackSize > TASK_STACK_SIZE)
 373:E:\NeuOrga\Programmieren\c_cpp\github_os\input\src\os_base\os_task_queue.c ****       {
 374:E:\NeuOrga\Programmieren\c_cpp\github_os\input\src\os_base\os_task_queue.c ****          uStackSize = TASK_STACK_SIZE;
 375:E:\NeuOrga\Programmieren\c_cpp\github_os\input\src\os_base\os_task_queue.c ****       }
 376:E:\NeuOrga\Programmieren\c_cpp\github_os\input\src\os_base\os_task_queue.c **** 
 377:E:\NeuOrga\Programmieren\c_cpp\github_os\input\src\os_base\os_task_queue.c ****       /* just create stack */
 378:E:\NeuOrga\Programmieren\c_cpp\github_os\input\src\os_base\os_task_queue.c ****       task->pStackPointerByMalloc = pStackAddr;
 379:E:\NeuOrga\Programmieren\c_cpp\github_os\input\src\os_base\os_task_queue.c ****       task->pStackPointerStart    = pStackAddr;/*low addresse */
 380:E:\NeuOrga\Programmieren\c_cpp\github_os\input\src\os_base\os_task_queue.c ****       task->pStackPointerEnd      = (unsigned_char_t*)pStackAddr + uStackSize - 1;/* end addresse *
 1222              		.loc 1 380 0
 1223 0512 6A1E     		subs	r2, r5, #1
 1224 0514 3A44     		add	r2, r2, r7
 1225 0516 C4E91F52 		strd	r5, r2, [r4, #124]
 378:E:\NeuOrga\Programmieren\c_cpp\github_os\input\src\os_base\os_task_queue.c ****       task->pStackPointerStart    = pStackAddr;/*low addresse */
 1226              		.loc 1 378 0
 1227 051a C4E91C27 		strd	r2, r7, [r4, #112]
 379:E:\NeuOrga\Programmieren\c_cpp\github_os\input\src\os_base\os_task_queue.c ****       task->pStackPointerEnd      = (unsigned_char_t*)pStackAddr + uStackSize - 1;/* end addresse *
 1228              		.loc 1 379 0
 1229 051e A767     		str	r7, [r4, #120]
 381:E:\NeuOrga\Programmieren\c_cpp\github_os\input\src\os_base\os_task_queue.c ****       task->StackSize             = uStackSize;
 382:E:\NeuOrga\Programmieren\c_cpp\github_os\input\src\os_base\os_task_queue.c ****       /* stack register */
 383:E:\NeuOrga\Programmieren\c_cpp\github_os\input\src\os_base\os_task_queue.c ****       task->pStackPointer                    = task->pStackPointerEnd;/* stack wchst von groen zu
 384:E:\NeuOrga\Programmieren\c_cpp\github_os\input\src\os_base\os_task_queue.c ****    }
 385:E:\NeuOrga\Programmieren\c_cpp\github_os\input\src\os_base\os_task_queue.c ****    else
 386:E:\NeuOrga\Programmieren\c_cpp\github_os\input\src\os_base\os_task_queue.c ****    {
 387:E:\NeuOrga\Programmieren\c_cpp\github_os\input\src\os_base\os_task_queue.c ****       OS_SetSwBug(os_bug_null_pointer, Func_InitTask);
 388:E:\NeuOrga\Programmieren\c_cpp\github_os\input\src\os_base\os_task_queue.c ****    }
 389:E:\NeuOrga\Programmieren\c_cpp\github_os\input\src\os_base\os_task_queue.c **** }
 1230              		.loc 1 389 0
 1231 0520 BDE8F883 		pop	{r3, r4, r5, r6, r7, r8, r9, pc}
 1232              	.LVL75:
 1233              	.L119:
 387:E:\NeuOrga\Programmieren\c_cpp\github_os\input\src\os_base\os_task_queue.c ****    }
 1234              		.loc 1 387 0
 1235 0524 0A21     		movs	r1, #10
 1236              	.LVL76:
 1237 0526 0220     		movs	r0, #2
 1238              	.LVL77:
 1239              		.loc 1 389 0
 1240 0528 BDE8F843 		pop	{r3, r4, r5, r6, r7, r8, r9, lr}
 1241              		.cfi_restore 14
 1242              		.cfi_restore 9
 1243              		.cfi_restore 8
 1244              		.cfi_restore 7
 1245              		.cfi_restore 6
 1246              		.cfi_restore 5
ARM GAS  C:\Users\PRESID~1\AppData\Local\Temp\cc9KVhqU.s 			page 32


 1247              		.cfi_restore 4
 1248              		.cfi_restore 3
 1249              		.cfi_def_cfa_offset 0
 1250              	.LVL78:
 387:E:\NeuOrga\Programmieren\c_cpp\github_os\input\src\os_base\os_task_queue.c ****    }
 1251              		.loc 1 387 0
 1252 052c FFF7FEBF 		b	OS_SetSwBug
 1253              	.LVL79:
 1254              	.L124:
 1255              		.align	2
 1256              	.L123:
 1257 0530 A0860100 		.word	100000
 1258 0534 00000000 		.word	task_state_request
 1259              		.cfi_endproc
 1260              	.LFE13:
 1262              	.Letext0:
 1263              		.file 2 "e:\\neuorga\\programmieren\\c_cpp\\github_os\\input\\src\\os_base\\os_base_types.h"
 1264              		.file 3 "e:\\neuorga\\programmieren\\c_cpp\\github_os\\input\\src\\os_base\\os_common.h"
 1265              		.file 4 "e:\\neuorga\\programmieren\\c_cpp\\github_os\\input\\src\\os_drivers\\lld_core.h"
 1266              		.file 5 "e:\\neuorga\\programmieren\\c_cpp\\github_os\\input\\src\\os_base\\os_task_common.h"
 1267              		.file 6 "e:\\neuorga\\programmieren\\c_cpp\\github_os\\input\\src\\os_base\\os_ram.h"
 1268              		.file 7 "E:\\NeuOrga\\Programmieren\\c_cpp\\github_os\\input\\src\\os_base\\os_task_scheduler.h"
ARM GAS  C:\Users\PRESID~1\AppData\Local\Temp\cc9KVhqU.s 			page 33


DEFINED SYMBOLS
                            *ABS*:00000000 os_task_queue.c
C:\Users\PRESID~1\AppData\Local\Temp\cc9KVhqU.s:15     .text:00000000 $t
C:\Users\PRESID~1\AppData\Local\Temp\cc9KVhqU.s:23     .text:00000000 SET_RUNNING_TASK
C:\Users\PRESID~1\AppData\Local\Temp\cc9KVhqU.s:199    .text:000000d8 $d
C:\Users\PRESID~1\AppData\Local\Temp\cc9KVhqU.s:204    .text:000000e0 $t
C:\Users\PRESID~1\AppData\Local\Temp\cc9KVhqU.s:212    .text:000000e0 OS_InitTaskQueue
C:\Users\PRESID~1\AppData\Local\Temp\cc9KVhqU.s:255    .text:00000114 $d
C:\Users\PRESID~1\AppData\Local\Temp\cc9KVhqU.s:261    .text:00000120 $t
C:\Users\PRESID~1\AppData\Local\Temp\cc9KVhqU.s:269    .text:00000120 AddToTaskQueue
C:\Users\PRESID~1\AppData\Local\Temp\cc9KVhqU.s:511    .text:00000278 $d
C:\Users\PRESID~1\AppData\Local\Temp\cc9KVhqU.s:515    .text:0000027c $t
C:\Users\PRESID~1\AppData\Local\Temp\cc9KVhqU.s:523    .text:0000027c DeleteFromTaskQueue
C:\Users\PRESID~1\AppData\Local\Temp\cc9KVhqU.s:578    .text:000002c8 $d
C:\Users\PRESID~1\AppData\Local\Temp\cc9KVhqU.s:582    .text:000002cc $t
C:\Users\PRESID~1\AppData\Local\Temp\cc9KVhqU.s:590    .text:000002cc GetFromTaskQueue
C:\Users\PRESID~1\AppData\Local\Temp\cc9KVhqU.s:613    .text:000002d0 GetFromSchedulingQueue
C:\Users\PRESID~1\AppData\Local\Temp\cc9KVhqU.s:630    .text:000002d8 $d
C:\Users\PRESID~1\AppData\Local\Temp\cc9KVhqU.s:634    .text:000002dc $t
C:\Users\PRESID~1\AppData\Local\Temp\cc9KVhqU.s:642    .text:000002dc DeleteFromSchedulingQueue
C:\Users\PRESID~1\AppData\Local\Temp\cc9KVhqU.s:666    .text:000002e4 AddToSchedulingQueue
C:\Users\PRESID~1\AppData\Local\Temp\cc9KVhqU.s:750    .text:00000338 $d
C:\Users\PRESID~1\AppData\Local\Temp\cc9KVhqU.s:754    .text:0000033c $t
C:\Users\PRESID~1\AppData\Local\Temp\cc9KVhqU.s:762    .text:0000033c UpdateSchedulingQueue
C:\Users\PRESID~1\AppData\Local\Temp\cc9KVhqU.s:879    .text:000003c8 $d
C:\Users\PRESID~1\AppData\Local\Temp\cc9KVhqU.s:883    .text:000003cc $t
C:\Users\PRESID~1\AppData\Local\Temp\cc9KVhqU.s:891    .text:000003cc GetIdleTask
C:\Users\PRESID~1\AppData\Local\Temp\cc9KVhqU.s:904    .text:000003d0 $d
C:\Users\PRESID~1\AppData\Local\Temp\cc9KVhqU.s:908    .text:000003d4 $t
C:\Users\PRESID~1\AppData\Local\Temp\cc9KVhqU.s:916    .text:000003d4 AddToIdleTaskQueue
C:\Users\PRESID~1\AppData\Local\Temp\cc9KVhqU.s:1085   .text:000004a0 $d
C:\Users\PRESID~1\AppData\Local\Temp\cc9KVhqU.s:1089   .text:000004a4 $t
C:\Users\PRESID~1\AppData\Local\Temp\cc9KVhqU.s:1097   .text:000004a4 GetRunningTask
C:\Users\PRESID~1\AppData\Local\Temp\cc9KVhqU.s:1110   .text:000004a8 $d
C:\Users\PRESID~1\AppData\Local\Temp\cc9KVhqU.s:1114   .text:000004ac $t
C:\Users\PRESID~1\AppData\Local\Temp\cc9KVhqU.s:1122   .text:000004ac GetRunningSchedulingQueueElementPtr
C:\Users\PRESID~1\AppData\Local\Temp\cc9KVhqU.s:1137   .text:000004b4 $d
C:\Users\PRESID~1\AppData\Local\Temp\cc9KVhqU.s:1141   .text:000004b8 $t
C:\Users\PRESID~1\AppData\Local\Temp\cc9KVhqU.s:1149   .text:000004b8 OS_InitTask
C:\Users\PRESID~1\AppData\Local\Temp\cc9KVhqU.s:1257   .text:00000530 $d
                           .group:00000000 wm4.0.d67ddeb5d3f434a0386bf4e126239e16
                           .group:00000000 wm4.os_base_types.h.2.f3c0267f175f5cbacca6b71710665a02
                           .group:00000000 wm4.os_common.h.2.7d3083dfb0b17ee9cbe20f6fe4481cd9
                           .group:00000000 wm4.os_task_config.h.2.a73335dbec9f276504b3b94e79d1d898
                           .group:00000000 wm4.os_task_common.h.95.eb4fc951d6d8ca08a3f35501d742a960
                           .group:00000000 wm4.os_stack.h.2.f736ad9941e78e3f128684d765efeb27
                           .group:00000000 wm4.os_heap.h.2.89074aae455d2462b5952479e3530dd1
                           .group:00000000 wm4.os_main.h.2.1f66ae3841c27bd36097fa1d2e1fe6a7
                           .group:00000000 wm4.os_task_queue.h.2.9428c7964838a07bb4b1cac6c50ee9b2
                           .group:00000000 wm4.os_task_scheduler.h.2.125feba674fa85672711aed1ca8ea199

UNDEFINED SYMBOLS
RUNNING_SCHEDULING_QUEUE_ENTRY
RUNNING_TASK
OS_Task_InitTaskEnvironment
TASK_SCHEDULING_QUEUE
TASK_RUN_QUEUE
ARM GAS  C:\Users\PRESID~1\AppData\Local\Temp\cc9KVhqU.s 			page 34


bTASK_QUEUE_INITIALIZED
task_state_request
TASK_IDLE_QUEUE
OS_CreateTask
OS_SetSwBug
