ARM GAS  C:\Users\PRESID~1\AppData\Local\Temp\ccY755Dl.s 			page 1


   1              		.cpu cortex-m4
   2              		.eabi_attribute 20, 1
   3              		.eabi_attribute 21, 1
   4              		.eabi_attribute 23, 3
   5              		.eabi_attribute 24, 1
   6              		.eabi_attribute 25, 1
   7              		.eabi_attribute 26, 1
   8              		.eabi_attribute 30, 6
   9              		.eabi_attribute 34, 1
  10              		.eabi_attribute 18, 4
  11              		.file	"os_task_scheduler.c"
  12              		.text
  13              	.Ltext0:
  14              		.cfi_sections	.debug_frame
  15              		.align	1
  16              		.global	OS_ActivateDispatcher
  17              		.syntax unified
  18              		.thumb
  19              		.thumb_func
  20              		.fpu softvfp
  22              	OS_ActivateDispatcher:
  23              	.LFB0:
  24              		.file 1 "E:\\NeuOrga\\Programmieren\\c_cpp\\github_os\\input\\src\\os_base\\os_task_scheduler.c"
   1:E:\NeuOrga\Programmieren\c_cpp\github_os\input\src\os_base\os_task_scheduler.c **** #include "os_firstinc.h"
   2:E:\NeuOrga\Programmieren\c_cpp\github_os\input\src\os_base\os_task_scheduler.c **** #include "os_common.h"
   3:E:\NeuOrga\Programmieren\c_cpp\github_os\input\src\os_base\os_task_scheduler.c **** #include "os_task_common.h"
   4:E:\NeuOrga\Programmieren\c_cpp\github_os\input\src\os_base\os_task_scheduler.c **** #include "os_task_scheduler.h"
   5:E:\NeuOrga\Programmieren\c_cpp\github_os\input\src\os_base\os_task_scheduler.c **** #include "os_task_queue.h"
   6:E:\NeuOrga\Programmieren\c_cpp\github_os\input\src\os_base\os_task_scheduler.c **** #include "os_stack.h"
   7:E:\NeuOrga\Programmieren\c_cpp\github_os\input\src\os_base\os_task_scheduler.c **** 
   8:E:\NeuOrga\Programmieren\c_cpp\github_os\input\src\os_base\os_task_scheduler.c **** /*
   9:E:\NeuOrga\Programmieren\c_cpp\github_os\input\src\os_base\os_task_scheduler.c **** 1. running     --(terminate)--> suspend
  10:E:\NeuOrga\Programmieren\c_cpp\github_os\input\src\os_base\os_task_scheduler.c **** 2. running     --(preempt  )--> ready
  11:E:\NeuOrga\Programmieren\c_cpp\github_os\input\src\os_base\os_task_scheduler.c **** 3. suspend     --(activate )--> ready
  12:E:\NeuOrga\Programmieren\c_cpp\github_os\input\src\os_base\os_task_scheduler.c **** 4. ready       --(start    )--> running
  13:E:\NeuOrga\Programmieren\c_cpp\github_os\input\src\os_base\os_task_scheduler.c **** 5. unspecified --(create   )--> suspend
  14:E:\NeuOrga\Programmieren\c_cpp\github_os\input\src\os_base\os_task_scheduler.c **** */
  15:E:\NeuOrga\Programmieren\c_cpp\github_os\input\src\os_base\os_task_scheduler.c **** 
  16:E:\NeuOrga\Programmieren\c_cpp\github_os\input\src\os_base\os_task_scheduler.c **** 
  17:E:\NeuOrga\Programmieren\c_cpp\github_os\input\src\os_base\os_task_scheduler.c **** Local void TASK_0(void* task_ptr);
  18:E:\NeuOrga\Programmieren\c_cpp\github_os\input\src\os_base\os_task_scheduler.c **** Local void TASK_1(void* task_ptr);
  19:E:\NeuOrga\Programmieren\c_cpp\github_os\input\src\os_base\os_task_scheduler.c **** Local void TASK_2(void* task_ptr);
  20:E:\NeuOrga\Programmieren\c_cpp\github_os\input\src\os_base\os_task_scheduler.c **** Local task_t** OS_TaskScheduler();
  21:E:\NeuOrga\Programmieren\c_cpp\github_os\input\src\os_base\os_task_scheduler.c **** 
  22:E:\NeuOrga\Programmieren\c_cpp\github_os\input\src\os_base\os_task_scheduler.c **** void OS_ActivateDispatcher(void)
  23:E:\NeuOrga\Programmieren\c_cpp\github_os\input\src\os_base\os_task_scheduler.c **** {
  25              		.loc 1 23 0
  26              		.cfi_startproc
  27              		@ args = 0, pretend = 0, frame = 0
  28              		@ frame_needed = 1, uses_anonymous_args = 0
  29              		@ link register save eliminated.
  30 0000 80B4     		push	{r7}
  31              		.cfi_def_cfa_offset 4
  32              		.cfi_offset 7, -4
  33 0002 00AF     		add	r7, sp, #0
  34              		.cfi_def_cfa_register 7
  24:E:\NeuOrga\Programmieren\c_cpp\github_os\input\src\os_base\os_task_scheduler.c **** 
ARM GAS  C:\Users\PRESID~1\AppData\Local\Temp\ccY755Dl.s 			page 2


  25:E:\NeuOrga\Programmieren\c_cpp\github_os\input\src\os_base\os_task_scheduler.c ****    /* configure the TCMP */
  26:E:\NeuOrga\Programmieren\c_cpp\github_os\input\src\os_base\os_task_scheduler.c ****    /*
  27:E:\NeuOrga\Programmieren\c_cpp\github_os\input\src\os_base\os_task_scheduler.c ****    Dispatcher function for Core 0:
  28:E:\NeuOrga\Programmieren\c_cpp\github_os\input\src\os_base\os_task_scheduler.c ****    Write Adresse into the config register (interrupts are requested by SWI/SVC???)
  29:E:\NeuOrga\Programmieren\c_cpp\github_os\input\src\os_base\os_task_scheduler.c ****    */
  30:E:\NeuOrga\Programmieren\c_cpp\github_os\input\src\os_base\os_task_scheduler.c ****    #define SYSTICK_CTRL_STAT_REG ((uint32*)0xE000E010)
  31:E:\NeuOrga\Programmieren\c_cpp\github_os\input\src\os_base\os_task_scheduler.c ****    #define SYSTICK_RLD_VAL_REG   ((uint32*)0xE000E014)
  32:E:\NeuOrga\Programmieren\c_cpp\github_os\input\src\os_base\os_task_scheduler.c ****    #define SYSTICK_CURRENT_VAL_REG ((uint32*)0xE000E018)
  33:E:\NeuOrga\Programmieren\c_cpp\github_os\input\src\os_base\os_task_scheduler.c ****    #define SYSTICK_STAT_REG_TICKINT ((uint32)0x00000002)
  34:E:\NeuOrga\Programmieren\c_cpp\github_os\input\src\os_base\os_task_scheduler.c ****    #define SYSTICK_STAT_REG_ENABLE  ((uint32)0x00000001)
  35:E:\NeuOrga\Programmieren\c_cpp\github_os\input\src\os_base\os_task_scheduler.c ****    #define LOOPTIME_IN_USEC ((uint32)10000u)
  36:E:\NeuOrga\Programmieren\c_cpp\github_os\input\src\os_base\os_task_scheduler.c ****    /*
  37:E:\NeuOrga\Programmieren\c_cpp\github_os\input\src\os_base\os_task_scheduler.c ****    CLOCK = HCLK / 8
  38:E:\NeuOrga\Programmieren\c_cpp\github_os\input\src\os_base\os_task_scheduler.c ****    vermutlich: CLOCK = 150Mhz / 8 = 18,75 Mhz
  39:E:\NeuOrga\Programmieren\c_cpp\github_os\input\src\os_base\os_task_scheduler.c ****    */
  40:E:\NeuOrga\Programmieren\c_cpp\github_os\input\src\os_base\os_task_scheduler.c ****    #if(CFG_PROCESSOR == cMCU_CORTEX_M4)
  41:E:\NeuOrga\Programmieren\c_cpp\github_os\input\src\os_base\os_task_scheduler.c ****    *SYSTICK_RLD_VAL_REG = (*SYSTICK_RLD_VAL_REG & 0xFF000000 )| (((uint32)MCU_CLOCK_IN_HZ / ((uint3
  35              		.loc 1 41 0
  36 0004 0B4B     		ldr	r3, .L2
  37 0006 1B68     		ldr	r3, [r3]
  38 0008 03F07F43 		and	r3, r3, #-16777216
  39 000c 094A     		ldr	r2, .L2
  40 000e 43F4CD13 		orr	r3, r3, #1679360
  41 0012 43F42073 		orr	r3, r3, #640
  42 0016 1360     		str	r3, [r2]
  42:E:\NeuOrga\Programmieren\c_cpp\github_os\input\src\os_base\os_task_scheduler.c ****    *SYSTICK_CURRENT_VAL_REG = ((uint32)0x00000000);
  43              		.loc 1 42 0
  44 0018 074B     		ldr	r3, .L2+4
  45 001a 0022     		movs	r2, #0
  46 001c 1A60     		str	r2, [r3]
  43:E:\NeuOrga\Programmieren\c_cpp\github_os\input\src\os_base\os_task_scheduler.c ****    *SYSTICK_CTRL_STAT_REG = *SYSTICK_CTRL_STAT_REG | SYSTICK_STAT_REG_TICKINT | SYSTICK_STAT_REG_EN
  47              		.loc 1 43 0
  48 001e 074B     		ldr	r3, .L2+8
  49 0020 1B68     		ldr	r3, [r3]
  50 0022 064A     		ldr	r2, .L2+8
  51 0024 43F00303 		orr	r3, r3, #3
  52 0028 1360     		str	r3, [r2]
  44:E:\NeuOrga\Programmieren\c_cpp\github_os\input\src\os_base\os_task_scheduler.c ****    #endif
  45:E:\NeuOrga\Programmieren\c_cpp\github_os\input\src\os_base\os_task_scheduler.c **** }
  53              		.loc 1 45 0
  54 002a 00BF     		nop
  55 002c BD46     		mov	sp, r7
  56              		.cfi_def_cfa_register 13
  57              		@ sp needed
  58 002e 80BC     		pop	{r7}
  59              		.cfi_restore 7
  60              		.cfi_def_cfa_offset 0
  61 0030 7047     		bx	lr
  62              	.L3:
  63 0032 00BF     		.align	2
  64              	.L2:
  65 0034 14E000E0 		.word	-536813548
  66 0038 18E000E0 		.word	-536813544
  67 003c 10E000E0 		.word	-536813552
  68              		.cfi_endproc
  69              	.LFE0:
  71              		.align	1
ARM GAS  C:\Users\PRESID~1\AppData\Local\Temp\ccY755Dl.s 			page 3


  72              		.global	OS_SleepTask
  73              		.syntax unified
  74              		.thumb
  75              		.thumb_func
  76              		.fpu softvfp
  78              	OS_SleepTask:
  79              	.LFB1:
  46:E:\NeuOrga\Programmieren\c_cpp\github_os\input\src\os_base\os_task_scheduler.c **** 
  47:E:\NeuOrga\Programmieren\c_cpp\github_os\input\src\os_base\os_task_scheduler.c **** 
  48:E:\NeuOrga\Programmieren\c_cpp\github_os\input\src\os_base\os_task_scheduler.c **** void OS_SleepTask(task_t* task, task_time_t millisec)
  49:E:\NeuOrga\Programmieren\c_cpp\github_os\input\src\os_base\os_task_scheduler.c **** {
  80              		.loc 1 49 0
  81              		.cfi_startproc
  82              		@ args = 0, pretend = 0, frame = 8
  83              		@ frame_needed = 1, uses_anonymous_args = 0
  84 0040 80B5     		push	{r7, lr}
  85              		.cfi_def_cfa_offset 8
  86              		.cfi_offset 7, -8
  87              		.cfi_offset 14, -4
  88 0042 82B0     		sub	sp, sp, #8
  89              		.cfi_def_cfa_offset 16
  90 0044 00AF     		add	r7, sp, #0
  91              		.cfi_def_cfa_register 7
  92 0046 7860     		str	r0, [r7, #4]
  93 0048 3960     		str	r1, [r7]
  50:E:\NeuOrga\Programmieren\c_cpp\github_os\input\src\os_base\os_task_scheduler.c ****    task->WaitActUntil = OS_GetCurrentTime() + millisec;
  94              		.loc 1 50 0
  95 004a FFF7FEFF 		bl	OS_GetCurrentTime
  96 004e 0246     		mov	r2, r0
  97 0050 3B68     		ldr	r3, [r7]
  98 0052 1A44     		add	r2, r2, r3
  99 0054 7B68     		ldr	r3, [r7, #4]
 100 0056 9A60     		str	r2, [r3, #8]
  51:E:\NeuOrga\Programmieren\c_cpp\github_os\input\src\os_base\os_task_scheduler.c **** }
 101              		.loc 1 51 0
 102 0058 00BF     		nop
 103 005a 0837     		adds	r7, r7, #8
 104              		.cfi_def_cfa_offset 8
 105 005c BD46     		mov	sp, r7
 106              		.cfi_def_cfa_register 13
 107              		@ sp needed
 108 005e 80BD     		pop	{r7, pc}
 109              		.cfi_endproc
 110              	.LFE1:
 112              		.align	1
 113              		.global	task_state_request
 114              		.syntax unified
 115              		.thumb
 116              		.thumb_func
 117              		.fpu softvfp
 119              	task_state_request:
 120              	.LFB2:
  52:E:\NeuOrga\Programmieren\c_cpp\github_os\input\src\os_base\os_task_scheduler.c **** 
  53:E:\NeuOrga\Programmieren\c_cpp\github_os\input\src\os_base\os_task_scheduler.c **** unsigned_char_t task_state_request(void* temp_task, task_state_t requested_state)
  54:E:\NeuOrga\Programmieren\c_cpp\github_os\input\src\os_base\os_task_scheduler.c **** {
 121              		.loc 1 54 0
 122              		.cfi_startproc
ARM GAS  C:\Users\PRESID~1\AppData\Local\Temp\ccY755Dl.s 			page 4


 123              		@ args = 0, pretend = 0, frame = 16
 124              		@ frame_needed = 1, uses_anonymous_args = 0
 125 0060 80B5     		push	{r7, lr}
 126              		.cfi_def_cfa_offset 8
 127              		.cfi_offset 7, -8
 128              		.cfi_offset 14, -4
 129 0062 84B0     		sub	sp, sp, #16
 130              		.cfi_def_cfa_offset 24
 131 0064 00AF     		add	r7, sp, #0
 132              		.cfi_def_cfa_register 7
 133 0066 7860     		str	r0, [r7, #4]
 134 0068 0B46     		mov	r3, r1
 135 006a FB70     		strb	r3, [r7, #3]
  55:E:\NeuOrga\Programmieren\c_cpp\github_os\input\src\os_base\os_task_scheduler.c ****    unsigned_char_t RequestState = Rejected;
 136              		.loc 1 55 0
 137 006c 0023     		movs	r3, #0
 138 006e FB73     		strb	r3, [r7, #15]
  56:E:\NeuOrga\Programmieren\c_cpp\github_os\input\src\os_base\os_task_scheduler.c **** 
  57:E:\NeuOrga\Programmieren\c_cpp\github_os\input\src\os_base\os_task_scheduler.c ****    task_t* task = (task_t*) temp_task;
 139              		.loc 1 57 0
 140 0070 7B68     		ldr	r3, [r7, #4]
 141 0072 BB60     		str	r3, [r7, #8]
  58:E:\NeuOrga\Programmieren\c_cpp\github_os\input\src\os_base\os_task_scheduler.c **** 
  59:E:\NeuOrga\Programmieren\c_cpp\github_os\input\src\os_base\os_task_scheduler.c ****    switch(requested_state)
 142              		.loc 1 59 0
 143 0074 FB78     		ldrb	r3, [r7, #3]	@ zero_extendqisi2
 144 0076 032B     		cmp	r3, #3
 145 0078 60D8     		bhi	.L30
 146 007a 01A2     		adr	r2, .L8
 147 007c 52F823F0 		ldr	pc, [r2, r3, lsl #2]
 148              		.p2align 2
 149              	.L8:
 150 0080 91000000 		.word	.L7+1
 151 0084 B3000000 		.word	.L9+1
 152 0088 FD000000 		.word	.L10+1
 153 008c E1000000 		.word	.L11+1
 154              		.p2align 1
 155              	.L7:
  60:E:\NeuOrga\Programmieren\c_cpp\github_os\input\src\os_base\os_task_scheduler.c ****    {
  61:E:\NeuOrga\Programmieren\c_cpp\github_os\input\src\os_base\os_task_scheduler.c ****    case Task_unspecified:/* 1. create new task */
  62:E:\NeuOrga\Programmieren\c_cpp\github_os\input\src\os_base\os_task_scheduler.c ****    {
  63:E:\NeuOrga\Programmieren\c_cpp\github_os\input\src\os_base\os_task_scheduler.c ****       switch(task->task_state)
 156              		.loc 1 63 0
 157 0090 BB68     		ldr	r3, [r7, #8]
 158 0092 93F83430 		ldrb	r3, [r3, #52]	@ zero_extendqisi2
 159 0096 013B     		subs	r3, r3, #1
 160 0098 022B     		cmp	r3, #2
 161 009a 02D8     		bhi	.L12
  64:E:\NeuOrga\Programmieren\c_cpp\github_os\input\src\os_base\os_task_scheduler.c ****       {
  65:E:\NeuOrga\Programmieren\c_cpp\github_os\input\src\os_base\os_task_scheduler.c ****       case Task_ready:
  66:E:\NeuOrga\Programmieren\c_cpp\github_os\input\src\os_base\os_task_scheduler.c ****       case Task_running:
  67:E:\NeuOrga\Programmieren\c_cpp\github_os\input\src\os_base\os_task_scheduler.c ****       case Task_suspended:
  68:E:\NeuOrga\Programmieren\c_cpp\github_os\input\src\os_base\os_task_scheduler.c ****       {
  69:E:\NeuOrga\Programmieren\c_cpp\github_os\input\src\os_base\os_task_scheduler.c ****          RequestState = Rejected;
 162              		.loc 1 69 0
 163 009c 0023     		movs	r3, #0
 164 009e FB73     		strb	r3, [r7, #15]
ARM GAS  C:\Users\PRESID~1\AppData\Local\Temp\ccY755Dl.s 			page 5


  70:E:\NeuOrga\Programmieren\c_cpp\github_os\input\src\os_base\os_task_scheduler.c ****          break;
 165              		.loc 1 70 0
 166 00a0 06E0     		b	.L14
 167              	.L12:
  71:E:\NeuOrga\Programmieren\c_cpp\github_os\input\src\os_base\os_task_scheduler.c ****       }
  72:E:\NeuOrga\Programmieren\c_cpp\github_os\input\src\os_base\os_task_scheduler.c ****       default:
  73:E:\NeuOrga\Programmieren\c_cpp\github_os\input\src\os_base\os_task_scheduler.c ****       {
  74:E:\NeuOrga\Programmieren\c_cpp\github_os\input\src\os_base\os_task_scheduler.c ****          task->task_state = Task_unspecified;
 168              		.loc 1 74 0
 169 00a2 BB68     		ldr	r3, [r7, #8]
 170 00a4 0022     		movs	r2, #0
 171 00a6 83F83420 		strb	r2, [r3, #52]
  75:E:\NeuOrga\Programmieren\c_cpp\github_os\input\src\os_base\os_task_scheduler.c ****          RequestState = Accepted;
 172              		.loc 1 75 0
 173 00aa 0123     		movs	r3, #1
 174 00ac FB73     		strb	r3, [r7, #15]
  76:E:\NeuOrga\Programmieren\c_cpp\github_os\input\src\os_base\os_task_scheduler.c ****          break;
 175              		.loc 1 76 0
 176 00ae 00BF     		nop
 177              	.L14:
  77:E:\NeuOrga\Programmieren\c_cpp\github_os\input\src\os_base\os_task_scheduler.c ****       }
  78:E:\NeuOrga\Programmieren\c_cpp\github_os\input\src\os_base\os_task_scheduler.c ****       }
  79:E:\NeuOrga\Programmieren\c_cpp\github_os\input\src\os_base\os_task_scheduler.c ****       break;
 178              		.loc 1 79 0
 179 00b0 45E0     		b	.L15
 180              	.L9:
  80:E:\NeuOrga\Programmieren\c_cpp\github_os\input\src\os_base\os_task_scheduler.c ****    }
  81:E:\NeuOrga\Programmieren\c_cpp\github_os\input\src\os_base\os_task_scheduler.c ****    case Task_suspended:
  82:E:\NeuOrga\Programmieren\c_cpp\github_os\input\src\os_base\os_task_scheduler.c ****    {
  83:E:\NeuOrga\Programmieren\c_cpp\github_os\input\src\os_base\os_task_scheduler.c ****       switch(task->task_state)
 181              		.loc 1 83 0
 182 00b2 BB68     		ldr	r3, [r7, #8]
 183 00b4 93F83430 		ldrb	r3, [r3, #52]	@ zero_extendqisi2
 184 00b8 002B     		cmp	r3, #0
 185 00ba 02D0     		beq	.L17
 186 00bc 032B     		cmp	r3, #3
 187 00be 07D0     		beq	.L18
  84:E:\NeuOrga\Programmieren\c_cpp\github_os\input\src\os_base\os_task_scheduler.c ****       {
  85:E:\NeuOrga\Programmieren\c_cpp\github_os\input\src\os_base\os_task_scheduler.c ****       case Task_unspecified: /* 2. create task transition */
  86:E:\NeuOrga\Programmieren\c_cpp\github_os\input\src\os_base\os_task_scheduler.c ****       {
  87:E:\NeuOrga\Programmieren\c_cpp\github_os\input\src\os_base\os_task_scheduler.c ****          /* no checks */
  88:E:\NeuOrga\Programmieren\c_cpp\github_os\input\src\os_base\os_task_scheduler.c ****          task->task_state = Task_suspended;
  89:E:\NeuOrga\Programmieren\c_cpp\github_os\input\src\os_base\os_task_scheduler.c ****          RequestState = Accepted;
  90:E:\NeuOrga\Programmieren\c_cpp\github_os\input\src\os_base\os_task_scheduler.c ****          break;
  91:E:\NeuOrga\Programmieren\c_cpp\github_os\input\src\os_base\os_task_scheduler.c ****       }
  92:E:\NeuOrga\Programmieren\c_cpp\github_os\input\src\os_base\os_task_scheduler.c ****       case Task_running: /* 3. terminate task */
  93:E:\NeuOrga\Programmieren\c_cpp\github_os\input\src\os_base\os_task_scheduler.c ****       {
  94:E:\NeuOrga\Programmieren\c_cpp\github_os\input\src\os_base\os_task_scheduler.c ****          task->task_state = Task_suspended;
  95:E:\NeuOrga\Programmieren\c_cpp\github_os\input\src\os_base\os_task_scheduler.c ****          RequestState = Accepted;
  96:E:\NeuOrga\Programmieren\c_cpp\github_os\input\src\os_base\os_task_scheduler.c ****          break;
  97:E:\NeuOrga\Programmieren\c_cpp\github_os\input\src\os_base\os_task_scheduler.c ****       }
  98:E:\NeuOrga\Programmieren\c_cpp\github_os\input\src\os_base\os_task_scheduler.c ****       default:
  99:E:\NeuOrga\Programmieren\c_cpp\github_os\input\src\os_base\os_task_scheduler.c ****       {
 100:E:\NeuOrga\Programmieren\c_cpp\github_os\input\src\os_base\os_task_scheduler.c ****          /* no change in states allowed */
 101:E:\NeuOrga\Programmieren\c_cpp\github_os\input\src\os_base\os_task_scheduler.c ****          break;
 188              		.loc 1 101 0
 189 00c0 0DE0     		b	.L19
ARM GAS  C:\Users\PRESID~1\AppData\Local\Temp\ccY755Dl.s 			page 6


 190              	.L17:
  88:E:\NeuOrga\Programmieren\c_cpp\github_os\input\src\os_base\os_task_scheduler.c ****          RequestState = Accepted;
 191              		.loc 1 88 0
 192 00c2 BB68     		ldr	r3, [r7, #8]
 193 00c4 0122     		movs	r2, #1
 194 00c6 83F83420 		strb	r2, [r3, #52]
  89:E:\NeuOrga\Programmieren\c_cpp\github_os\input\src\os_base\os_task_scheduler.c ****          break;
 195              		.loc 1 89 0
 196 00ca 0123     		movs	r3, #1
 197 00cc FB73     		strb	r3, [r7, #15]
  90:E:\NeuOrga\Programmieren\c_cpp\github_os\input\src\os_base\os_task_scheduler.c ****       }
 198              		.loc 1 90 0
 199 00ce 06E0     		b	.L19
 200              	.L18:
  94:E:\NeuOrga\Programmieren\c_cpp\github_os\input\src\os_base\os_task_scheduler.c ****          RequestState = Accepted;
 201              		.loc 1 94 0
 202 00d0 BB68     		ldr	r3, [r7, #8]
 203 00d2 0122     		movs	r2, #1
 204 00d4 83F83420 		strb	r2, [r3, #52]
  95:E:\NeuOrga\Programmieren\c_cpp\github_os\input\src\os_base\os_task_scheduler.c ****          break;
 205              		.loc 1 95 0
 206 00d8 0123     		movs	r3, #1
 207 00da FB73     		strb	r3, [r7, #15]
  96:E:\NeuOrga\Programmieren\c_cpp\github_os\input\src\os_base\os_task_scheduler.c ****       }
 208              		.loc 1 96 0
 209 00dc 00BF     		nop
 210              	.L19:
 102:E:\NeuOrga\Programmieren\c_cpp\github_os\input\src\os_base\os_task_scheduler.c ****       }
 103:E:\NeuOrga\Programmieren\c_cpp\github_os\input\src\os_base\os_task_scheduler.c ****       }
 104:E:\NeuOrga\Programmieren\c_cpp\github_os\input\src\os_base\os_task_scheduler.c ****       break;
 211              		.loc 1 104 0
 212 00de 2EE0     		b	.L15
 213              	.L11:
 105:E:\NeuOrga\Programmieren\c_cpp\github_os\input\src\os_base\os_task_scheduler.c ****    }
 106:E:\NeuOrga\Programmieren\c_cpp\github_os\input\src\os_base\os_task_scheduler.c ****    case Task_running:
 107:E:\NeuOrga\Programmieren\c_cpp\github_os\input\src\os_base\os_task_scheduler.c ****    {
 108:E:\NeuOrga\Programmieren\c_cpp\github_os\input\src\os_base\os_task_scheduler.c ****       switch(task->task_state)
 214              		.loc 1 108 0
 215 00e0 BB68     		ldr	r3, [r7, #8]
 216 00e2 93F83430 		ldrb	r3, [r3, #52]	@ zero_extendqisi2
 217 00e6 022B     		cmp	r3, #2
 218 00e8 00D0     		beq	.L21
 109:E:\NeuOrga\Programmieren\c_cpp\github_os\input\src\os_base\os_task_scheduler.c ****       {
 110:E:\NeuOrga\Programmieren\c_cpp\github_os\input\src\os_base\os_task_scheduler.c ****       case Task_ready: /* 4. start task transition */
 111:E:\NeuOrga\Programmieren\c_cpp\github_os\input\src\os_base\os_task_scheduler.c ****       {
 112:E:\NeuOrga\Programmieren\c_cpp\github_os\input\src\os_base\os_task_scheduler.c ****          task->task_state = Task_running;
 113:E:\NeuOrga\Programmieren\c_cpp\github_os\input\src\os_base\os_task_scheduler.c ****          RequestState   = Accepted;
 114:E:\NeuOrga\Programmieren\c_cpp\github_os\input\src\os_base\os_task_scheduler.c ****          break;
 115:E:\NeuOrga\Programmieren\c_cpp\github_os\input\src\os_base\os_task_scheduler.c ****       }
 116:E:\NeuOrga\Programmieren\c_cpp\github_os\input\src\os_base\os_task_scheduler.c ****       default:
 117:E:\NeuOrga\Programmieren\c_cpp\github_os\input\src\os_base\os_task_scheduler.c ****       {
 118:E:\NeuOrga\Programmieren\c_cpp\github_os\input\src\os_base\os_task_scheduler.c ****          /* no change in states allowed */
 119:E:\NeuOrga\Programmieren\c_cpp\github_os\input\src\os_base\os_task_scheduler.c ****          break;
 219              		.loc 1 119 0
 220 00ea 06E0     		b	.L22
 221              	.L21:
 112:E:\NeuOrga\Programmieren\c_cpp\github_os\input\src\os_base\os_task_scheduler.c ****          RequestState   = Accepted;
ARM GAS  C:\Users\PRESID~1\AppData\Local\Temp\ccY755Dl.s 			page 7


 222              		.loc 1 112 0
 223 00ec BB68     		ldr	r3, [r7, #8]
 224 00ee 0322     		movs	r2, #3
 225 00f0 83F83420 		strb	r2, [r3, #52]
 113:E:\NeuOrga\Programmieren\c_cpp\github_os\input\src\os_base\os_task_scheduler.c ****          break;
 226              		.loc 1 113 0
 227 00f4 0123     		movs	r3, #1
 228 00f6 FB73     		strb	r3, [r7, #15]
 114:E:\NeuOrga\Programmieren\c_cpp\github_os\input\src\os_base\os_task_scheduler.c ****       }
 229              		.loc 1 114 0
 230 00f8 00BF     		nop
 231              	.L22:
 120:E:\NeuOrga\Programmieren\c_cpp\github_os\input\src\os_base\os_task_scheduler.c ****       }
 121:E:\NeuOrga\Programmieren\c_cpp\github_os\input\src\os_base\os_task_scheduler.c ****       }
 122:E:\NeuOrga\Programmieren\c_cpp\github_os\input\src\os_base\os_task_scheduler.c ****       break;
 232              		.loc 1 122 0
 233 00fa 20E0     		b	.L15
 234              	.L10:
 123:E:\NeuOrga\Programmieren\c_cpp\github_os\input\src\os_base\os_task_scheduler.c **** 
 124:E:\NeuOrga\Programmieren\c_cpp\github_os\input\src\os_base\os_task_scheduler.c ****    }
 125:E:\NeuOrga\Programmieren\c_cpp\github_os\input\src\os_base\os_task_scheduler.c ****    case Task_ready:
 126:E:\NeuOrga\Programmieren\c_cpp\github_os\input\src\os_base\os_task_scheduler.c ****    {
 127:E:\NeuOrga\Programmieren\c_cpp\github_os\input\src\os_base\os_task_scheduler.c ****       switch(task->task_state)
 235              		.loc 1 127 0
 236 00fc BB68     		ldr	r3, [r7, #8]
 237 00fe 93F83430 		ldrb	r3, [r3, #52]	@ zero_extendqisi2
 238 0102 012B     		cmp	r3, #1
 239 0104 04D0     		beq	.L24
 240 0106 032B     		cmp	r3, #3
 241 0108 09D0     		beq	.L25
 242 010a 002B     		cmp	r3, #0
 243 010c 0ED0     		beq	.L26
 128:E:\NeuOrga\Programmieren\c_cpp\github_os\input\src\os_base\os_task_scheduler.c ****       {
 129:E:\NeuOrga\Programmieren\c_cpp\github_os\input\src\os_base\os_task_scheduler.c ****       case Task_suspended: /* activate task transition */
 130:E:\NeuOrga\Programmieren\c_cpp\github_os\input\src\os_base\os_task_scheduler.c ****       {
 131:E:\NeuOrga\Programmieren\c_cpp\github_os\input\src\os_base\os_task_scheduler.c ****          task->task_state = Task_ready;
 132:E:\NeuOrga\Programmieren\c_cpp\github_os\input\src\os_base\os_task_scheduler.c ****          RequestState   = Accepted;
 133:E:\NeuOrga\Programmieren\c_cpp\github_os\input\src\os_base\os_task_scheduler.c ****          break;
 134:E:\NeuOrga\Programmieren\c_cpp\github_os\input\src\os_base\os_task_scheduler.c ****       }
 135:E:\NeuOrga\Programmieren\c_cpp\github_os\input\src\os_base\os_task_scheduler.c ****       case Task_running: /* preempt task transition */
 136:E:\NeuOrga\Programmieren\c_cpp\github_os\input\src\os_base\os_task_scheduler.c ****       {
 137:E:\NeuOrga\Programmieren\c_cpp\github_os\input\src\os_base\os_task_scheduler.c ****          task->task_state = Task_ready;
 138:E:\NeuOrga\Programmieren\c_cpp\github_os\input\src\os_base\os_task_scheduler.c ****          RequestState   = Accepted;
 139:E:\NeuOrga\Programmieren\c_cpp\github_os\input\src\os_base\os_task_scheduler.c ****          break;
 140:E:\NeuOrga\Programmieren\c_cpp\github_os\input\src\os_base\os_task_scheduler.c ****       }
 141:E:\NeuOrga\Programmieren\c_cpp\github_os\input\src\os_base\os_task_scheduler.c ****       case Task_unspecified:
 142:E:\NeuOrga\Programmieren\c_cpp\github_os\input\src\os_base\os_task_scheduler.c ****       {
 143:E:\NeuOrga\Programmieren\c_cpp\github_os\input\src\os_base\os_task_scheduler.c ****           task->task_state = Task_ready;
 144:E:\NeuOrga\Programmieren\c_cpp\github_os\input\src\os_base\os_task_scheduler.c ****           RequestState = Accepted;
 145:E:\NeuOrga\Programmieren\c_cpp\github_os\input\src\os_base\os_task_scheduler.c ****           break;
 146:E:\NeuOrga\Programmieren\c_cpp\github_os\input\src\os_base\os_task_scheduler.c ****       }
 147:E:\NeuOrga\Programmieren\c_cpp\github_os\input\src\os_base\os_task_scheduler.c ****       default:
 148:E:\NeuOrga\Programmieren\c_cpp\github_os\input\src\os_base\os_task_scheduler.c ****       {
 149:E:\NeuOrga\Programmieren\c_cpp\github_os\input\src\os_base\os_task_scheduler.c ****          /* no change in states allowed */
 150:E:\NeuOrga\Programmieren\c_cpp\github_os\input\src\os_base\os_task_scheduler.c ****          break;
 244              		.loc 1 150 0
 245 010e 14E0     		b	.L27
ARM GAS  C:\Users\PRESID~1\AppData\Local\Temp\ccY755Dl.s 			page 8


 246              	.L24:
 131:E:\NeuOrga\Programmieren\c_cpp\github_os\input\src\os_base\os_task_scheduler.c ****          RequestState   = Accepted;
 247              		.loc 1 131 0
 248 0110 BB68     		ldr	r3, [r7, #8]
 249 0112 0222     		movs	r2, #2
 250 0114 83F83420 		strb	r2, [r3, #52]
 132:E:\NeuOrga\Programmieren\c_cpp\github_os\input\src\os_base\os_task_scheduler.c ****          break;
 251              		.loc 1 132 0
 252 0118 0123     		movs	r3, #1
 253 011a FB73     		strb	r3, [r7, #15]
 133:E:\NeuOrga\Programmieren\c_cpp\github_os\input\src\os_base\os_task_scheduler.c ****       }
 254              		.loc 1 133 0
 255 011c 0DE0     		b	.L27
 256              	.L25:
 137:E:\NeuOrga\Programmieren\c_cpp\github_os\input\src\os_base\os_task_scheduler.c ****          RequestState   = Accepted;
 257              		.loc 1 137 0
 258 011e BB68     		ldr	r3, [r7, #8]
 259 0120 0222     		movs	r2, #2
 260 0122 83F83420 		strb	r2, [r3, #52]
 138:E:\NeuOrga\Programmieren\c_cpp\github_os\input\src\os_base\os_task_scheduler.c ****          break;
 261              		.loc 1 138 0
 262 0126 0123     		movs	r3, #1
 263 0128 FB73     		strb	r3, [r7, #15]
 139:E:\NeuOrga\Programmieren\c_cpp\github_os\input\src\os_base\os_task_scheduler.c ****       }
 264              		.loc 1 139 0
 265 012a 06E0     		b	.L27
 266              	.L26:
 143:E:\NeuOrga\Programmieren\c_cpp\github_os\input\src\os_base\os_task_scheduler.c ****           RequestState = Accepted;
 267              		.loc 1 143 0
 268 012c BB68     		ldr	r3, [r7, #8]
 269 012e 0222     		movs	r2, #2
 270 0130 83F83420 		strb	r2, [r3, #52]
 144:E:\NeuOrga\Programmieren\c_cpp\github_os\input\src\os_base\os_task_scheduler.c ****           break;
 271              		.loc 1 144 0
 272 0134 0123     		movs	r3, #1
 273 0136 FB73     		strb	r3, [r7, #15]
 145:E:\NeuOrga\Programmieren\c_cpp\github_os\input\src\os_base\os_task_scheduler.c ****       }
 274              		.loc 1 145 0
 275 0138 00BF     		nop
 276              	.L27:
 151:E:\NeuOrga\Programmieren\c_cpp\github_os\input\src\os_base\os_task_scheduler.c ****       }
 152:E:\NeuOrga\Programmieren\c_cpp\github_os\input\src\os_base\os_task_scheduler.c ****       }
 153:E:\NeuOrga\Programmieren\c_cpp\github_os\input\src\os_base\os_task_scheduler.c ****       break;
 277              		.loc 1 153 0
 278 013a 00E0     		b	.L15
 279              	.L30:
 154:E:\NeuOrga\Programmieren\c_cpp\github_os\input\src\os_base\os_task_scheduler.c ****    }
 155:E:\NeuOrga\Programmieren\c_cpp\github_os\input\src\os_base\os_task_scheduler.c ****    default:
 156:E:\NeuOrga\Programmieren\c_cpp\github_os\input\src\os_base\os_task_scheduler.c ****    {
 157:E:\NeuOrga\Programmieren\c_cpp\github_os\input\src\os_base\os_task_scheduler.c ****       break;
 280              		.loc 1 157 0
 281 013c 00BF     		nop
 282              	.L15:
 158:E:\NeuOrga\Programmieren\c_cpp\github_os\input\src\os_base\os_task_scheduler.c ****    }
 159:E:\NeuOrga\Programmieren\c_cpp\github_os\input\src\os_base\os_task_scheduler.c ****    }
 160:E:\NeuOrga\Programmieren\c_cpp\github_os\input\src\os_base\os_task_scheduler.c ****    if(RequestState == Rejected)
 283              		.loc 1 160 0
ARM GAS  C:\Users\PRESID~1\AppData\Local\Temp\ccY755Dl.s 			page 9


 284 013e FB7B     		ldrb	r3, [r7, #15]	@ zero_extendqisi2
 285 0140 002B     		cmp	r3, #0
 286 0142 03D1     		bne	.L28
 161:E:\NeuOrga\Programmieren\c_cpp\github_os\input\src\os_base\os_task_scheduler.c ****    {
 162:E:\NeuOrga\Programmieren\c_cpp\github_os\input\src\os_base\os_task_scheduler.c ****       OS_SetSwBug(os_bug_taskstate_request_denied, Func_TaskStateRequest);
 287              		.loc 1 162 0
 288 0144 0B21     		movs	r1, #11
 289 0146 0120     		movs	r0, #1
 290 0148 FFF7FEFF 		bl	OS_SetSwBug
 291              	.L28:
 163:E:\NeuOrga\Programmieren\c_cpp\github_os\input\src\os_base\os_task_scheduler.c ****    }
 164:E:\NeuOrga\Programmieren\c_cpp\github_os\input\src\os_base\os_task_scheduler.c ****    return RequestState;
 292              		.loc 1 164 0
 293 014c FB7B     		ldrb	r3, [r7, #15]	@ zero_extendqisi2
 165:E:\NeuOrga\Programmieren\c_cpp\github_os\input\src\os_base\os_task_scheduler.c **** }
 294              		.loc 1 165 0
 295 014e 1846     		mov	r0, r3
 296 0150 1037     		adds	r7, r7, #16
 297              		.cfi_def_cfa_offset 8
 298 0152 BD46     		mov	sp, r7
 299              		.cfi_def_cfa_register 13
 300              		@ sp needed
 301 0154 80BD     		pop	{r7, pc}
 302              		.cfi_endproc
 303              	.LFE2:
 305              		.align	1
 306              		.global	OS_CreateTask
 307              		.syntax unified
 308              		.thumb
 309              		.thumb_func
 310              		.fpu softvfp
 312              	OS_CreateTask:
 313              	.LFB3:
 166:E:\NeuOrga\Programmieren\c_cpp\github_os\input\src\os_base\os_task_scheduler.c **** 
 167:E:\NeuOrga\Programmieren\c_cpp\github_os\input\src\os_base\os_task_scheduler.c **** void OS_CreateTask(task_t* task)
 168:E:\NeuOrga\Programmieren\c_cpp\github_os\input\src\os_base\os_task_scheduler.c **** {
 314              		.loc 1 168 0
 315              		.cfi_startproc
 316              		@ args = 0, pretend = 0, frame = 8
 317              		@ frame_needed = 1, uses_anonymous_args = 0
 318 0156 80B5     		push	{r7, lr}
 319              		.cfi_def_cfa_offset 8
 320              		.cfi_offset 7, -8
 321              		.cfi_offset 14, -4
 322 0158 82B0     		sub	sp, sp, #8
 323              		.cfi_def_cfa_offset 16
 324 015a 00AF     		add	r7, sp, #0
 325              		.cfi_def_cfa_register 7
 326 015c 7860     		str	r0, [r7, #4]
 169:E:\NeuOrga\Programmieren\c_cpp\github_os\input\src\os_base\os_task_scheduler.c ****    /*5. unspecified --(create   )--> suspend*/
 170:E:\NeuOrga\Programmieren\c_cpp\github_os\input\src\os_base\os_task_scheduler.c ****    if(task != 0)
 327              		.loc 1 170 0
 328 015e 7B68     		ldr	r3, [r7, #4]
 329 0160 002B     		cmp	r3, #0
 330 0162 15D0     		beq	.L32
 171:E:\NeuOrga\Programmieren\c_cpp\github_os\input\src\os_base\os_task_scheduler.c ****    {
 172:E:\NeuOrga\Programmieren\c_cpp\github_os\input\src\os_base\os_task_scheduler.c ****       if(task->state_request != 0)
ARM GAS  C:\Users\PRESID~1\AppData\Local\Temp\ccY755Dl.s 			page 10


 331              		.loc 1 172 0
 332 0164 7B68     		ldr	r3, [r7, #4]
 333 0166 1B6B     		ldr	r3, [r3, #48]
 334 0168 002B     		cmp	r3, #0
 335 016a 0CD0     		beq	.L33
 173:E:\NeuOrga\Programmieren\c_cpp\github_os\input\src\os_base\os_task_scheduler.c ****       {
 174:E:\NeuOrga\Programmieren\c_cpp\github_os\input\src\os_base\os_task_scheduler.c ****          if(task->state_request(task, Task_suspended)== Accepted)
 336              		.loc 1 174 0
 337 016c 7B68     		ldr	r3, [r7, #4]
 338 016e 1B6B     		ldr	r3, [r3, #48]
 339 0170 0121     		movs	r1, #1
 340 0172 7868     		ldr	r0, [r7, #4]
 341 0174 9847     		blx	r3
 342              	.LVL0:
 343 0176 0346     		mov	r3, r0
 344 0178 012B     		cmp	r3, #1
 345 017a 0DD0     		beq	.L37
 175:E:\NeuOrga\Programmieren\c_cpp\github_os\input\src\os_base\os_task_scheduler.c ****          {
 176:E:\NeuOrga\Programmieren\c_cpp\github_os\input\src\os_base\os_task_scheduler.c ****             /*QAC*/
 177:E:\NeuOrga\Programmieren\c_cpp\github_os\input\src\os_base\os_task_scheduler.c ****          }
 178:E:\NeuOrga\Programmieren\c_cpp\github_os\input\src\os_base\os_task_scheduler.c ****          else
 179:E:\NeuOrga\Programmieren\c_cpp\github_os\input\src\os_base\os_task_scheduler.c ****          {
 180:E:\NeuOrga\Programmieren\c_cpp\github_os\input\src\os_base\os_task_scheduler.c ****             OS_SetSwBug(os_bug_taskstate_request_denied, Func_TerminateTask);
 346              		.loc 1 180 0
 347 017c 0721     		movs	r1, #7
 348 017e 0120     		movs	r0, #1
 349 0180 FFF7FEFF 		bl	OS_SetSwBug
 181:E:\NeuOrga\Programmieren\c_cpp\github_os\input\src\os_base\os_task_scheduler.c ****          }
 182:E:\NeuOrga\Programmieren\c_cpp\github_os\input\src\os_base\os_task_scheduler.c ****       }
 183:E:\NeuOrga\Programmieren\c_cpp\github_os\input\src\os_base\os_task_scheduler.c ****       else
 184:E:\NeuOrga\Programmieren\c_cpp\github_os\input\src\os_base\os_task_scheduler.c ****       {
 185:E:\NeuOrga\Programmieren\c_cpp\github_os\input\src\os_base\os_task_scheduler.c ****          OS_SetSwBug(os_bug_null_pointer, Func_TerminateTask);
 186:E:\NeuOrga\Programmieren\c_cpp\github_os\input\src\os_base\os_task_scheduler.c ****       }
 187:E:\NeuOrga\Programmieren\c_cpp\github_os\input\src\os_base\os_task_scheduler.c ****    }
 188:E:\NeuOrga\Programmieren\c_cpp\github_os\input\src\os_base\os_task_scheduler.c ****    else
 189:E:\NeuOrga\Programmieren\c_cpp\github_os\input\src\os_base\os_task_scheduler.c ****    {
 190:E:\NeuOrga\Programmieren\c_cpp\github_os\input\src\os_base\os_task_scheduler.c ****       OS_SetSwBug(os_bug_null_pointer, Func_TerminateTask);
 191:E:\NeuOrga\Programmieren\c_cpp\github_os\input\src\os_base\os_task_scheduler.c ****    }     
 192:E:\NeuOrga\Programmieren\c_cpp\github_os\input\src\os_base\os_task_scheduler.c **** }
 350              		.loc 1 192 0
 351 0184 08E0     		b	.L37
 352              	.L33:
 185:E:\NeuOrga\Programmieren\c_cpp\github_os\input\src\os_base\os_task_scheduler.c ****       }
 353              		.loc 1 185 0
 354 0186 0721     		movs	r1, #7
 355 0188 0220     		movs	r0, #2
 356 018a FFF7FEFF 		bl	OS_SetSwBug
 357              		.loc 1 192 0
 358 018e 03E0     		b	.L37
 359              	.L32:
 190:E:\NeuOrga\Programmieren\c_cpp\github_os\input\src\os_base\os_task_scheduler.c ****    }     
 360              		.loc 1 190 0
 361 0190 0721     		movs	r1, #7
 362 0192 0220     		movs	r0, #2
 363 0194 FFF7FEFF 		bl	OS_SetSwBug
 364              	.L37:
 365              		.loc 1 192 0
ARM GAS  C:\Users\PRESID~1\AppData\Local\Temp\ccY755Dl.s 			page 11


 366 0198 00BF     		nop
 367 019a 0837     		adds	r7, r7, #8
 368              		.cfi_def_cfa_offset 8
 369 019c BD46     		mov	sp, r7
 370              		.cfi_def_cfa_register 13
 371              		@ sp needed
 372 019e 80BD     		pop	{r7, pc}
 373              		.cfi_endproc
 374              	.LFE3:
 376              		.align	1
 377              		.global	OS_PreemptTask
 378              		.syntax unified
 379              		.thumb
 380              		.thumb_func
 381              		.fpu softvfp
 383              	OS_PreemptTask:
 384              	.LFB4:
 193:E:\NeuOrga\Programmieren\c_cpp\github_os\input\src\os_base\os_task_scheduler.c **** void OS_PreemptTask(task_t* task, scheduling_t* scheduling_task)
 194:E:\NeuOrga\Programmieren\c_cpp\github_os\input\src\os_base\os_task_scheduler.c **** {
 385              		.loc 1 194 0
 386              		.cfi_startproc
 387              		@ args = 0, pretend = 0, frame = 8
 388              		@ frame_needed = 1, uses_anonymous_args = 0
 389 01a0 80B5     		push	{r7, lr}
 390              		.cfi_def_cfa_offset 8
 391              		.cfi_offset 7, -8
 392              		.cfi_offset 14, -4
 393 01a2 82B0     		sub	sp, sp, #8
 394              		.cfi_def_cfa_offset 16
 395 01a4 00AF     		add	r7, sp, #0
 396              		.cfi_def_cfa_register 7
 397 01a6 7860     		str	r0, [r7, #4]
 398 01a8 3960     		str	r1, [r7]
 195:E:\NeuOrga\Programmieren\c_cpp\github_os\input\src\os_base\os_task_scheduler.c ****    /*2. running     --(preempt  )--> ready*/
 196:E:\NeuOrga\Programmieren\c_cpp\github_os\input\src\os_base\os_task_scheduler.c ****    /* Preempt task
 197:E:\NeuOrga\Programmieren\c_cpp\github_os\input\src\os_base\os_task_scheduler.c ****    - Disable Interrupts
 198:E:\NeuOrga\Programmieren\c_cpp\github_os\input\src\os_base\os_task_scheduler.c ****    - OS_TaskSaveTaskEnvironment
 199:E:\NeuOrga\Programmieren\c_cpp\github_os\input\src\os_base\os_task_scheduler.c ****    - add to Schedule Queue / delete from RunQueue
 200:E:\NeuOrga\Programmieren\c_cpp\github_os\input\src\os_base\os_task_scheduler.c ****    - delete active flag
 201:E:\NeuOrga\Programmieren\c_cpp\github_os\input\src\os_base\os_task_scheduler.c ****    - enable Interrupts
 202:E:\NeuOrga\Programmieren\c_cpp\github_os\input\src\os_base\os_task_scheduler.c ****    */
 203:E:\NeuOrga\Programmieren\c_cpp\github_os\input\src\os_base\os_task_scheduler.c ****    if(task != 0 && scheduling_task != 0)
 399              		.loc 1 203 0
 400 01aa 7B68     		ldr	r3, [r7, #4]
 401 01ac 002B     		cmp	r3, #0
 402 01ae 3ED0     		beq	.L39
 403              		.loc 1 203 0 is_stmt 0 discriminator 1
 404 01b0 3B68     		ldr	r3, [r7]
 405 01b2 002B     		cmp	r3, #0
 406 01b4 3BD0     		beq	.L39
 204:E:\NeuOrga\Programmieren\c_cpp\github_os\input\src\os_base\os_task_scheduler.c ****    {
 205:E:\NeuOrga\Programmieren\c_cpp\github_os\input\src\os_base\os_task_scheduler.c ****       if(task->state_request != 0)
 407              		.loc 1 205 0 is_stmt 1
 408 01b6 7B68     		ldr	r3, [r7, #4]
 409 01b8 1B6B     		ldr	r3, [r3, #48]
 410 01ba 002B     		cmp	r3, #0
 411 01bc 32D0     		beq	.L40
ARM GAS  C:\Users\PRESID~1\AppData\Local\Temp\ccY755Dl.s 			page 12


 206:E:\NeuOrga\Programmieren\c_cpp\github_os\input\src\os_base\os_task_scheduler.c ****       {
 207:E:\NeuOrga\Programmieren\c_cpp\github_os\input\src\os_base\os_task_scheduler.c ****          if(task->state_request(task, Task_ready)== Accepted)
 412              		.loc 1 207 0
 413 01be 7B68     		ldr	r3, [r7, #4]
 414 01c0 1B6B     		ldr	r3, [r3, #48]
 415 01c2 0221     		movs	r1, #2
 416 01c4 7868     		ldr	r0, [r7, #4]
 417 01c6 9847     		blx	r3
 418              	.LVL1:
 419 01c8 0346     		mov	r3, r0
 420 01ca 012B     		cmp	r3, #1
 421 01cc 25D1     		bne	.L41
 208:E:\NeuOrga\Programmieren\c_cpp\github_os\input\src\os_base\os_task_scheduler.c ****          {
 209:E:\NeuOrga\Programmieren\c_cpp\github_os\input\src\os_base\os_task_scheduler.c ****             DisableInterrupts();
 422              		.loc 1 209 0
 423 01ce FFF7FEFF 		bl	LLF_INT_DISABLE
 210:E:\NeuOrga\Programmieren\c_cpp\github_os\input\src\os_base\os_task_scheduler.c ****             OS_TaskSaveTaskEnvironment(task);
 424              		.loc 1 210 0
 425 01d2 7868     		ldr	r0, [r7, #4]
 426 01d4 FFF7FEFF 		bl	OS_TaskSaveTaskEnvironment
 211:E:\NeuOrga\Programmieren\c_cpp\github_os\input\src\os_base\os_task_scheduler.c ****             OS_TASK_RESTORE_SYSTEM_STACK(&OS_STACK[OS_GetCoreId()][0]);
 427              		.loc 1 211 0
 428 01d8 FFF7FEFF 		bl	OS_GetCoreId
 429 01dc 0346     		mov	r3, r0
 430 01de 1A46     		mov	r2, r3
 431 01e0 1346     		mov	r3, r2
 432 01e2 9B00     		lsls	r3, r3, #2
 433 01e4 1344     		add	r3, r3, r2
 434 01e6 1B03     		lsls	r3, r3, #12
 435 01e8 154A     		ldr	r2, .L45
 436 01ea 1344     		add	r3, r3, r2
 437 01ec 1846     		mov	r0, r3
 438 01ee FFF7FEFF 		bl	OS_TASK_RESTORE_SYSTEM_STACK
 212:E:\NeuOrga\Programmieren\c_cpp\github_os\input\src\os_base\os_task_scheduler.c ****             DeleteFromTaskQueue(task);
 439              		.loc 1 212 0
 440 01f2 7868     		ldr	r0, [r7, #4]
 441 01f4 FFF7FEFF 		bl	DeleteFromTaskQueue
 213:E:\NeuOrga\Programmieren\c_cpp\github_os\input\src\os_base\os_task_scheduler.c ****             DeleteFromSchedulingQueue(scheduling_task);
 442              		.loc 1 213 0
 443 01f8 3868     		ldr	r0, [r7]
 444 01fa FFF7FEFF 		bl	DeleteFromSchedulingQueue
 214:E:\NeuOrga\Programmieren\c_cpp\github_os\input\src\os_base\os_task_scheduler.c **** 
 215:E:\NeuOrga\Programmieren\c_cpp\github_os\input\src\os_base\os_task_scheduler.c ****             task->active = False;
 445              		.loc 1 215 0
 446 01fe 7A68     		ldr	r2, [r7, #4]
 447 0200 1378     		ldrb	r3, [r2]
 448 0202 6FF30003 		bfc	r3, #0, #1
 449 0206 1370     		strb	r3, [r2]
 216:E:\NeuOrga\Programmieren\c_cpp\github_os\input\src\os_base\os_task_scheduler.c ****             /* reset the prio increase for waiting */
 217:E:\NeuOrga\Programmieren\c_cpp\github_os\input\src\os_base\os_task_scheduler.c ****             task->current_prio = task->default_prio;
 450              		.loc 1 217 0
 451 0208 7B68     		ldr	r3, [r7, #4]
 452 020a 93F82520 		ldrb	r2, [r3, #37]	@ zero_extendqisi2
 453 020e 7B68     		ldr	r3, [r7, #4]
 454 0210 83F82420 		strb	r2, [r3, #36]
 218:E:\NeuOrga\Programmieren\c_cpp\github_os\input\src\os_base\os_task_scheduler.c ****             EnableInterrupts();
 455              		.loc 1 218 0
ARM GAS  C:\Users\PRESID~1\AppData\Local\Temp\ccY755Dl.s 			page 13


 456 0214 FFF7FEFF 		bl	LLF_INT_ENABLE
 205:E:\NeuOrga\Programmieren\c_cpp\github_os\input\src\os_base\os_task_scheduler.c ****       {
 457              		.loc 1 205 0
 458 0218 0DE0     		b	.L44
 459              	.L41:
 219:E:\NeuOrga\Programmieren\c_cpp\github_os\input\src\os_base\os_task_scheduler.c ****          }
 220:E:\NeuOrga\Programmieren\c_cpp\github_os\input\src\os_base\os_task_scheduler.c ****          else
 221:E:\NeuOrga\Programmieren\c_cpp\github_os\input\src\os_base\os_task_scheduler.c ****          {
 222:E:\NeuOrga\Programmieren\c_cpp\github_os\input\src\os_base\os_task_scheduler.c ****             OS_SetSwBug(os_bug_taskstate_request_denied, Func_Preempt_Task);
 460              		.loc 1 222 0
 461 021a 0C21     		movs	r1, #12
 462 021c 0120     		movs	r0, #1
 463 021e FFF7FEFF 		bl	OS_SetSwBug
 205:E:\NeuOrga\Programmieren\c_cpp\github_os\input\src\os_base\os_task_scheduler.c ****       {
 464              		.loc 1 205 0
 465 0222 08E0     		b	.L44
 466              	.L40:
 223:E:\NeuOrga\Programmieren\c_cpp\github_os\input\src\os_base\os_task_scheduler.c ****          }
 224:E:\NeuOrga\Programmieren\c_cpp\github_os\input\src\os_base\os_task_scheduler.c ****       }
 225:E:\NeuOrga\Programmieren\c_cpp\github_os\input\src\os_base\os_task_scheduler.c ****       else
 226:E:\NeuOrga\Programmieren\c_cpp\github_os\input\src\os_base\os_task_scheduler.c ****       {
 227:E:\NeuOrga\Programmieren\c_cpp\github_os\input\src\os_base\os_task_scheduler.c ****          OS_SetSwBug(os_bug_null_pointer, Func_Preempt_Task);
 467              		.loc 1 227 0
 468 0224 0C21     		movs	r1, #12
 469 0226 0220     		movs	r0, #2
 470 0228 FFF7FEFF 		bl	OS_SetSwBug
 205:E:\NeuOrga\Programmieren\c_cpp\github_os\input\src\os_base\os_task_scheduler.c ****       {
 471              		.loc 1 205 0
 472 022c 03E0     		b	.L44
 473              	.L39:
 228:E:\NeuOrga\Programmieren\c_cpp\github_os\input\src\os_base\os_task_scheduler.c ****       }
 229:E:\NeuOrga\Programmieren\c_cpp\github_os\input\src\os_base\os_task_scheduler.c **** 
 230:E:\NeuOrga\Programmieren\c_cpp\github_os\input\src\os_base\os_task_scheduler.c ****    }
 231:E:\NeuOrga\Programmieren\c_cpp\github_os\input\src\os_base\os_task_scheduler.c ****    else
 232:E:\NeuOrga\Programmieren\c_cpp\github_os\input\src\os_base\os_task_scheduler.c ****    {
 233:E:\NeuOrga\Programmieren\c_cpp\github_os\input\src\os_base\os_task_scheduler.c ****       OS_SetSwBug(os_bug_null_pointer, Func_Preempt_Task);
 474              		.loc 1 233 0
 475 022e 0C21     		movs	r1, #12
 476 0230 0220     		movs	r0, #2
 477 0232 FFF7FEFF 		bl	OS_SetSwBug
 478              	.L44:
 234:E:\NeuOrga\Programmieren\c_cpp\github_os\input\src\os_base\os_task_scheduler.c ****    }   
 235:E:\NeuOrga\Programmieren\c_cpp\github_os\input\src\os_base\os_task_scheduler.c **** }
 479              		.loc 1 235 0
 480 0236 00BF     		nop
 481 0238 0837     		adds	r7, r7, #8
 482              		.cfi_def_cfa_offset 8
 483 023a BD46     		mov	sp, r7
 484              		.cfi_def_cfa_register 13
 485              		@ sp needed
 486 023c 80BD     		pop	{r7, pc}
 487              	.L46:
 488 023e 00BF     		.align	2
 489              	.L45:
 490 0240 00000000 		.word	OS_STACK
 491              		.cfi_endproc
 492              	.LFE4:
ARM GAS  C:\Users\PRESID~1\AppData\Local\Temp\ccY755Dl.s 			page 14


 494              		.align	1
 495              		.global	OS_ActivateTask
 496              		.syntax unified
 497              		.thumb
 498              		.thumb_func
 499              		.fpu softvfp
 501              	OS_ActivateTask:
 502              	.LFB5:
 236:E:\NeuOrga\Programmieren\c_cpp\github_os\input\src\os_base\os_task_scheduler.c **** 
 237:E:\NeuOrga\Programmieren\c_cpp\github_os\input\src\os_base\os_task_scheduler.c **** void OS_ActivateTask(task_t* task)
 238:E:\NeuOrga\Programmieren\c_cpp\github_os\input\src\os_base\os_task_scheduler.c **** {
 503              		.loc 1 238 0
 504              		.cfi_startproc
 505              		@ args = 0, pretend = 0, frame = 8
 506              		@ frame_needed = 1, uses_anonymous_args = 0
 507 0244 80B5     		push	{r7, lr}
 508              		.cfi_def_cfa_offset 8
 509              		.cfi_offset 7, -8
 510              		.cfi_offset 14, -4
 511 0246 82B0     		sub	sp, sp, #8
 512              		.cfi_def_cfa_offset 16
 513 0248 00AF     		add	r7, sp, #0
 514              		.cfi_def_cfa_register 7
 515 024a 7860     		str	r0, [r7, #4]
 239:E:\NeuOrga\Programmieren\c_cpp\github_os\input\src\os_base\os_task_scheduler.c ****    /*
 240:E:\NeuOrga\Programmieren\c_cpp\github_os\input\src\os_base\os_task_scheduler.c ****    Activate Task:
 241:E:\NeuOrga\Programmieren\c_cpp\github_os\input\src\os_base\os_task_scheduler.c ****    - Disable Interrupts
 242:E:\NeuOrga\Programmieren\c_cpp\github_os\input\src\os_base\os_task_scheduler.c ****    - Add to schedule Queue
 243:E:\NeuOrga\Programmieren\c_cpp\github_os\input\src\os_base\os_task_scheduler.c ****    - Enable Interrupts
 244:E:\NeuOrga\Programmieren\c_cpp\github_os\input\src\os_base\os_task_scheduler.c **** 
 245:E:\NeuOrga\Programmieren\c_cpp\github_os\input\src\os_base\os_task_scheduler.c ****    in case of valid request, the content, where the "task_t* task" is point to is stored in TASK_RU
 246:E:\NeuOrga\Programmieren\c_cpp\github_os\input\src\os_base\os_task_scheduler.c ****    */
 247:E:\NeuOrga\Programmieren\c_cpp\github_os\input\src\os_base\os_task_scheduler.c ****    if(task != 0)
 516              		.loc 1 247 0
 517 024c 7B68     		ldr	r3, [r7, #4]
 518 024e 002B     		cmp	r3, #0
 519 0250 3CD0     		beq	.L54
 248:E:\NeuOrga\Programmieren\c_cpp\github_os\input\src\os_base\os_task_scheduler.c ****    {
 249:E:\NeuOrga\Programmieren\c_cpp\github_os\input\src\os_base\os_task_scheduler.c ****       if(task->state_request(task, Task_ready)==Accepted)
 520              		.loc 1 249 0
 521 0252 7B68     		ldr	r3, [r7, #4]
 522 0254 1B6B     		ldr	r3, [r3, #48]
 523 0256 0221     		movs	r1, #2
 524 0258 7868     		ldr	r0, [r7, #4]
 525 025a 9847     		blx	r3
 526              	.LVL2:
 527 025c 0346     		mov	r3, r0
 528 025e 012B     		cmp	r3, #1
 529 0260 30D1     		bne	.L49
 250:E:\NeuOrga\Programmieren\c_cpp\github_os\input\src\os_base\os_task_scheduler.c ****       {
 251:E:\NeuOrga\Programmieren\c_cpp\github_os\input\src\os_base\os_task_scheduler.c ****          DisableInterrupts();
 530              		.loc 1 251 0
 531 0262 FFF7FEFF 		bl	LLF_INT_DISABLE
 252:E:\NeuOrga\Programmieren\c_cpp\github_os\input\src\os_base\os_task_scheduler.c ****          /* 3. suspended to ready (add to runqueue) */
 253:E:\NeuOrga\Programmieren\c_cpp\github_os\input\src\os_base\os_task_scheduler.c ****          if(task->IdleTask == False)
 532              		.loc 1 253 0
 533 0266 7B68     		ldr	r3, [r7, #4]
ARM GAS  C:\Users\PRESID~1\AppData\Local\Temp\ccY755Dl.s 			page 15


 534 0268 1B78     		ldrb	r3, [r3]	@ zero_extendqisi2
 535 026a 03F00403 		and	r3, r3, #4
 536 026e DBB2     		uxtb	r3, r3
 537 0270 002B     		cmp	r3, #0
 538 0272 21D1     		bne	.L50
 254:E:\NeuOrga\Programmieren\c_cpp\github_os\input\src\os_base\os_task_scheduler.c ****          {
 255:E:\NeuOrga\Programmieren\c_cpp\github_os\input\src\os_base\os_task_scheduler.c ****             if( (task->active == False)
 539              		.loc 1 255 0
 540 0274 7B68     		ldr	r3, [r7, #4]
 541 0276 1B78     		ldrb	r3, [r3]	@ zero_extendqisi2
 542 0278 03F00103 		and	r3, r3, #1
 543 027c DBB2     		uxtb	r3, r3
 544 027e 002B     		cmp	r3, #0
 545 0280 0CD0     		beq	.L51
 256:E:\NeuOrga\Programmieren\c_cpp\github_os\input\src\os_base\os_task_scheduler.c ****                   || ( (task->active == True) && (task->NrOfInsAllowed > task->NrOfInsActivated) )/
 546              		.loc 1 256 0
 547 0282 7B68     		ldr	r3, [r7, #4]
 548 0284 1B78     		ldrb	r3, [r3]	@ zero_extendqisi2
 549 0286 03F00103 		and	r3, r3, #1
 550 028a DBB2     		uxtb	r3, r3
 551 028c 002B     		cmp	r3, #0
 552 028e 16D0     		beq	.L53
 553              		.loc 1 256 0 is_stmt 0 discriminator 1
 554 0290 7B68     		ldr	r3, [r7, #4]
 555 0292 1A79     		ldrb	r2, [r3, #4]	@ zero_extendqisi2
 556 0294 7B68     		ldr	r3, [r7, #4]
 557 0296 5B79     		ldrb	r3, [r3, #5]	@ zero_extendqisi2
 558 0298 9A42     		cmp	r2, r3
 559 029a 10D9     		bls	.L53
 560              	.L51:
 257:E:\NeuOrga\Programmieren\c_cpp\github_os\input\src\os_base\os_task_scheduler.c ****               )
 258:E:\NeuOrga\Programmieren\c_cpp\github_os\input\src\os_base\os_task_scheduler.c ****             {
 259:E:\NeuOrga\Programmieren\c_cpp\github_os\input\src\os_base\os_task_scheduler.c ****                /* only activate if allowed by rule */
 260:E:\NeuOrga\Programmieren\c_cpp\github_os\input\src\os_base\os_task_scheduler.c ****                task = AddToTaskQueue(task);
 561              		.loc 1 260 0 is_stmt 1
 562 029c 7868     		ldr	r0, [r7, #4]
 563 029e FFF7FEFF 		bl	AddToTaskQueue
 564 02a2 7860     		str	r0, [r7, #4]
 261:E:\NeuOrga\Programmieren\c_cpp\github_os\input\src\os_base\os_task_scheduler.c **** 
 262:E:\NeuOrga\Programmieren\c_cpp\github_os\input\src\os_base\os_task_scheduler.c ****                AddToSchedulingQueue(task);
 565              		.loc 1 262 0
 566 02a4 7868     		ldr	r0, [r7, #4]
 567 02a6 FFF7FEFF 		bl	AddToSchedulingQueue
 263:E:\NeuOrga\Programmieren\c_cpp\github_os\input\src\os_base\os_task_scheduler.c ****                task->NrOfInsActivated++;
 568              		.loc 1 263 0
 569 02aa 7B68     		ldr	r3, [r7, #4]
 570 02ac 5B79     		ldrb	r3, [r3, #5]	@ zero_extendqisi2
 571 02ae 0133     		adds	r3, r3, #1
 572 02b0 DAB2     		uxtb	r2, r3
 573 02b2 7B68     		ldr	r3, [r7, #4]
 574 02b4 5A71     		strb	r2, [r3, #5]
 575 02b6 02E0     		b	.L53
 576              	.L50:
 264:E:\NeuOrga\Programmieren\c_cpp\github_os\input\src\os_base\os_task_scheduler.c ****             }
 265:E:\NeuOrga\Programmieren\c_cpp\github_os\input\src\os_base\os_task_scheduler.c ****             else
 266:E:\NeuOrga\Programmieren\c_cpp\github_os\input\src\os_base\os_task_scheduler.c ****             {
 267:E:\NeuOrga\Programmieren\c_cpp\github_os\input\src\os_base\os_task_scheduler.c ****                /* multiple activation bug occured */
ARM GAS  C:\Users\PRESID~1\AppData\Local\Temp\ccY755Dl.s 			page 16


 268:E:\NeuOrga\Programmieren\c_cpp\github_os\input\src\os_base\os_task_scheduler.c ****             }
 269:E:\NeuOrga\Programmieren\c_cpp\github_os\input\src\os_base\os_task_scheduler.c ****          }
 270:E:\NeuOrga\Programmieren\c_cpp\github_os\input\src\os_base\os_task_scheduler.c ****          else
 271:E:\NeuOrga\Programmieren\c_cpp\github_os\input\src\os_base\os_task_scheduler.c ****          {
 272:E:\NeuOrga\Programmieren\c_cpp\github_os\input\src\os_base\os_task_scheduler.c ****             AddToIdleTaskQueue(task);
 577              		.loc 1 272 0
 578 02b8 7868     		ldr	r0, [r7, #4]
 579 02ba FFF7FEFF 		bl	AddToIdleTaskQueue
 580              	.L53:
 273:E:\NeuOrga\Programmieren\c_cpp\github_os\input\src\os_base\os_task_scheduler.c ****          }
 274:E:\NeuOrga\Programmieren\c_cpp\github_os\input\src\os_base\os_task_scheduler.c ****          EnableInterrupts();
 581              		.loc 1 274 0
 582 02be FFF7FEFF 		bl	LLF_INT_ENABLE
 275:E:\NeuOrga\Programmieren\c_cpp\github_os\input\src\os_base\os_task_scheduler.c ****       }
 276:E:\NeuOrga\Programmieren\c_cpp\github_os\input\src\os_base\os_task_scheduler.c ****       else
 277:E:\NeuOrga\Programmieren\c_cpp\github_os\input\src\os_base\os_task_scheduler.c ****       {
 278:E:\NeuOrga\Programmieren\c_cpp\github_os\input\src\os_base\os_task_scheduler.c ****          OS_SetSwBug(os_bug_taskstate_request_denied, Func_ActivateTask);
 279:E:\NeuOrga\Programmieren\c_cpp\github_os\input\src\os_base\os_task_scheduler.c ****       }
 280:E:\NeuOrga\Programmieren\c_cpp\github_os\input\src\os_base\os_task_scheduler.c ****    }
 281:E:\NeuOrga\Programmieren\c_cpp\github_os\input\src\os_base\os_task_scheduler.c **** }
 583              		.loc 1 281 0
 584 02c2 03E0     		b	.L54
 585              	.L49:
 278:E:\NeuOrga\Programmieren\c_cpp\github_os\input\src\os_base\os_task_scheduler.c ****       }
 586              		.loc 1 278 0
 587 02c4 0A21     		movs	r1, #10
 588 02c6 0120     		movs	r0, #1
 589 02c8 FFF7FEFF 		bl	OS_SetSwBug
 590              	.L54:
 591              		.loc 1 281 0
 592 02cc 00BF     		nop
 593 02ce 0837     		adds	r7, r7, #8
 594              		.cfi_def_cfa_offset 8
 595 02d0 BD46     		mov	sp, r7
 596              		.cfi_def_cfa_register 13
 597              		@ sp needed
 598 02d2 80BD     		pop	{r7, pc}
 599              		.cfi_endproc
 600              	.LFE5:
 602              		.align	1
 603              		.global	OS_StartTask
 604              		.syntax unified
 605              		.thumb
 606              		.thumb_func
 607              		.fpu softvfp
 609              	OS_StartTask:
 610              	.LFB6:
 282:E:\NeuOrga\Programmieren\c_cpp\github_os\input\src\os_base\os_task_scheduler.c **** void OS_StartTask(task_t* task, scheduling_t* scheduling_task)
 283:E:\NeuOrga\Programmieren\c_cpp\github_os\input\src\os_base\os_task_scheduler.c **** {
 611              		.loc 1 283 0
 612              		.cfi_startproc
 613              		@ args = 0, pretend = 0, frame = 8
 614              		@ frame_needed = 1, uses_anonymous_args = 0
 615 02d4 80B5     		push	{r7, lr}
 616              		.cfi_def_cfa_offset 8
 617              		.cfi_offset 7, -8
 618              		.cfi_offset 14, -4
ARM GAS  C:\Users\PRESID~1\AppData\Local\Temp\ccY755Dl.s 			page 17


 619 02d6 82B0     		sub	sp, sp, #8
 620              		.cfi_def_cfa_offset 16
 621 02d8 00AF     		add	r7, sp, #0
 622              		.cfi_def_cfa_register 7
 623 02da 7860     		str	r0, [r7, #4]
 624 02dc 3960     		str	r1, [r7]
 284:E:\NeuOrga\Programmieren\c_cpp\github_os\input\src\os_base\os_task_scheduler.c ****    /* OS_StartTask
 285:E:\NeuOrga\Programmieren\c_cpp\github_os\input\src\os_base\os_task_scheduler.c ****    - Disable interrupts
 286:E:\NeuOrga\Programmieren\c_cpp\github_os\input\src\os_base\os_task_scheduler.c ****    - restore Environment
 287:E:\NeuOrga\Programmieren\c_cpp\github_os\input\src\os_base\os_task_scheduler.c ****    - enable interrupts
 288:E:\NeuOrga\Programmieren\c_cpp\github_os\input\src\os_base\os_task_scheduler.c **** 
 289:E:\NeuOrga\Programmieren\c_cpp\github_os\input\src\os_base\os_task_scheduler.c ****    - Start Task
 290:E:\NeuOrga\Programmieren\c_cpp\github_os\input\src\os_base\os_task_scheduler.c ****     */
 291:E:\NeuOrga\Programmieren\c_cpp\github_os\input\src\os_base\os_task_scheduler.c ****    if( (task != 0) && (scheduling_task != 0)&& ((task->task_queued != False)||(task->IdleTask != Fa
 625              		.loc 1 291 0
 626 02de 7B68     		ldr	r3, [r7, #4]
 627 02e0 002B     		cmp	r3, #0
 628 02e2 5CD0     		beq	.L62
 629              		.loc 1 291 0 is_stmt 0 discriminator 1
 630 02e4 3B68     		ldr	r3, [r7]
 631 02e6 002B     		cmp	r3, #0
 632 02e8 59D0     		beq	.L62
 633              		.loc 1 291 0 discriminator 2
 634 02ea 7B68     		ldr	r3, [r7, #4]
 635 02ec 1B78     		ldrb	r3, [r3]	@ zero_extendqisi2
 636 02ee 03F00203 		and	r3, r3, #2
 637 02f2 DBB2     		uxtb	r3, r3
 638 02f4 002B     		cmp	r3, #0
 639 02f6 06D1     		bne	.L57
 640              		.loc 1 291 0 discriminator 3
 641 02f8 7B68     		ldr	r3, [r7, #4]
 642 02fa 1B78     		ldrb	r3, [r3]	@ zero_extendqisi2
 643 02fc 03F00403 		and	r3, r3, #4
 644 0300 DBB2     		uxtb	r3, r3
 645 0302 002B     		cmp	r3, #0
 646 0304 4BD0     		beq	.L62
 647              	.L57:
 292:E:\NeuOrga\Programmieren\c_cpp\github_os\input\src\os_base\os_task_scheduler.c ****    {
 293:E:\NeuOrga\Programmieren\c_cpp\github_os\input\src\os_base\os_task_scheduler.c ****       if(task->state_request !=0)
 648              		.loc 1 293 0 is_stmt 1
 649 0306 7B68     		ldr	r3, [r7, #4]
 650 0308 1B6B     		ldr	r3, [r3, #48]
 651 030a 002B     		cmp	r3, #0
 652 030c 43D0     		beq	.L58
 294:E:\NeuOrga\Programmieren\c_cpp\github_os\input\src\os_base\os_task_scheduler.c ****       {
 295:E:\NeuOrga\Programmieren\c_cpp\github_os\input\src\os_base\os_task_scheduler.c ****          if(task->state_request(task, Task_running)== Accepted)
 653              		.loc 1 295 0
 654 030e 7B68     		ldr	r3, [r7, #4]
 655 0310 1B6B     		ldr	r3, [r3, #48]
 656 0312 0321     		movs	r1, #3
 657 0314 7868     		ldr	r0, [r7, #4]
 658 0316 9847     		blx	r3
 659              	.LVL3:
 660 0318 0346     		mov	r3, r0
 661 031a 012B     		cmp	r3, #1
 662 031c 36D1     		bne	.L59
 296:E:\NeuOrga\Programmieren\c_cpp\github_os\input\src\os_base\os_task_scheduler.c ****          {
ARM GAS  C:\Users\PRESID~1\AppData\Local\Temp\ccY755Dl.s 			page 18


 297:E:\NeuOrga\Programmieren\c_cpp\github_os\input\src\os_base\os_task_scheduler.c ****             DisableInterrupts();
 663              		.loc 1 297 0
 664 031e FFF7FEFF 		bl	LLF_INT_DISABLE
 298:E:\NeuOrga\Programmieren\c_cpp\github_os\input\src\os_base\os_task_scheduler.c ****             task->active =  True;
 665              		.loc 1 298 0
 666 0322 7A68     		ldr	r2, [r7, #4]
 667 0324 1378     		ldrb	r3, [r2]
 668 0326 43F00103 		orr	r3, r3, #1
 669 032a 1370     		strb	r3, [r2]
 299:E:\NeuOrga\Programmieren\c_cpp\github_os\input\src\os_base\os_task_scheduler.c ****             task->wait_time = 0;
 670              		.loc 1 299 0
 671 032c 7B68     		ldr	r3, [r7, #4]
 672 032e 0022     		movs	r2, #0
 673 0330 DA60     		str	r2, [r3, #12]
 300:E:\NeuOrga\Programmieren\c_cpp\github_os\input\src\os_base\os_task_scheduler.c ****             task->current_prio = task->default_prio;
 674              		.loc 1 300 0
 675 0332 7B68     		ldr	r3, [r7, #4]
 676 0334 93F82520 		ldrb	r2, [r3, #37]	@ zero_extendqisi2
 677 0338 7B68     		ldr	r3, [r7, #4]
 678 033a 83F82420 		strb	r2, [r3, #36]
 301:E:\NeuOrga\Programmieren\c_cpp\github_os\input\src\os_base\os_task_scheduler.c ****             OS_TASK_SAVE_SYSTEM_STACK(&OS_STACK[OS_GetCoreId()][0]);
 679              		.loc 1 301 0
 680 033e FFF7FEFF 		bl	OS_GetCoreId
 681 0342 0346     		mov	r3, r0
 682 0344 1A46     		mov	r2, r3
 683 0346 1346     		mov	r3, r2
 684 0348 9B00     		lsls	r3, r3, #2
 685 034a 1344     		add	r3, r3, r2
 686 034c 1B03     		lsls	r3, r3, #12
 687 034e 164A     		ldr	r2, .L63
 688 0350 1344     		add	r3, r3, r2
 689 0352 1846     		mov	r0, r3
 690 0354 FFF7FEFF 		bl	OS_TASK_SAVE_SYSTEM_STACK
 302:E:\NeuOrga\Programmieren\c_cpp\github_os\input\src\os_base\os_task_scheduler.c ****             OS_TASK_RESTORETASK_ENVIRONMENT(task);
 691              		.loc 1 302 0
 692 0358 7868     		ldr	r0, [r7, #4]
 693 035a FFF7FEFF 		bl	OS_TASK_RESTORETASK_ENVIRONMENT
 303:E:\NeuOrga\Programmieren\c_cpp\github_os\input\src\os_base\os_task_scheduler.c ****             task->start_time = OS_GetCurrentTime();
 694              		.loc 1 303 0
 695 035e FFF7FEFF 		bl	OS_GetCurrentTime
 696 0362 0246     		mov	r2, r0
 697 0364 7B68     		ldr	r3, [r7, #4]
 698 0366 1A62     		str	r2, [r3, #32]
 304:E:\NeuOrga\Programmieren\c_cpp\github_os\input\src\os_base\os_task_scheduler.c ****             EnableInterrupts();
 699              		.loc 1 304 0
 700 0368 FFF7FEFF 		bl	LLF_INT_ENABLE
 305:E:\NeuOrga\Programmieren\c_cpp\github_os\input\src\os_base\os_task_scheduler.c **** 
 306:E:\NeuOrga\Programmieren\c_cpp\github_os\input\src\os_base\os_task_scheduler.c ****             /* task execution shall not happen with disabled interrupts */
 307:E:\NeuOrga\Programmieren\c_cpp\github_os\input\src\os_base\os_task_scheduler.c ****             SET_RUNNING_TASK(task, scheduling_task);
 701              		.loc 1 307 0
 702 036c 3968     		ldr	r1, [r7]
 703 036e 7868     		ldr	r0, [r7, #4]
 704 0370 FFF7FEFF 		bl	SET_RUNNING_TASK
 308:E:\NeuOrga\Programmieren\c_cpp\github_os\input\src\os_base\os_task_scheduler.c ****             /* change to user mode... */
 309:E:\NeuOrga\Programmieren\c_cpp\github_os\input\src\os_base\os_task_scheduler.c ****             if(task->privilige_mode == ePriviligeMode_unpriviliged_thread_mode)
 705              		.loc 1 309 0
 706 0374 7B68     		ldr	r3, [r7, #4]
ARM GAS  C:\Users\PRESID~1\AppData\Local\Temp\ccY755Dl.s 			page 19


 707 0376 93F88430 		ldrb	r3, [r3, #132]	@ zero_extendqisi2
 708 037a 002B     		cmp	r3, #0
 709 037c 01D1     		bne	.L60
 310:E:\NeuOrga\Programmieren\c_cpp\github_os\input\src\os_base\os_task_scheduler.c ****             {
 311:E:\NeuOrga\Programmieren\c_cpp\github_os\input\src\os_base\os_task_scheduler.c ****                LLF_CHANGE_TO_UNPRIVILIGED_THREAD_MODE();
 710              		.loc 1 311 0
 711 037e FFF7FEFF 		bl	LLF_CHANGE_TO_UNPRIVILIGED_THREAD_MODE
 712              	.L60:
 312:E:\NeuOrga\Programmieren\c_cpp\github_os\input\src\os_base\os_task_scheduler.c ****             }
 313:E:\NeuOrga\Programmieren\c_cpp\github_os\input\src\os_base\os_task_scheduler.c **** 
 314:E:\NeuOrga\Programmieren\c_cpp\github_os\input\src\os_base\os_task_scheduler.c ****             /* call the task entry function */
 315:E:\NeuOrga\Programmieren\c_cpp\github_os\input\src\os_base\os_task_scheduler.c ****             task->fp(task);
 713              		.loc 1 315 0
 714 0382 7B68     		ldr	r3, [r7, #4]
 715 0384 DB6A     		ldr	r3, [r3, #44]
 716 0386 7868     		ldr	r0, [r7, #4]
 717 0388 9847     		blx	r3
 718              	.LVL4:
 316:E:\NeuOrga\Programmieren\c_cpp\github_os\input\src\os_base\os_task_scheduler.c ****          }
 317:E:\NeuOrga\Programmieren\c_cpp\github_os\input\src\os_base\os_task_scheduler.c ****          else
 318:E:\NeuOrga\Programmieren\c_cpp\github_os\input\src\os_base\os_task_scheduler.c ****          {
 319:E:\NeuOrga\Programmieren\c_cpp\github_os\input\src\os_base\os_task_scheduler.c ****             OS_SetSwBug(os_bug_taskstate_request_denied, Func_StartTask);
 320:E:\NeuOrga\Programmieren\c_cpp\github_os\input\src\os_base\os_task_scheduler.c ****          }
 321:E:\NeuOrga\Programmieren\c_cpp\github_os\input\src\os_base\os_task_scheduler.c **** 
 322:E:\NeuOrga\Programmieren\c_cpp\github_os\input\src\os_base\os_task_scheduler.c ****       }
 323:E:\NeuOrga\Programmieren\c_cpp\github_os\input\src\os_base\os_task_scheduler.c ****       else
 324:E:\NeuOrga\Programmieren\c_cpp\github_os\input\src\os_base\os_task_scheduler.c ****       {
 325:E:\NeuOrga\Programmieren\c_cpp\github_os\input\src\os_base\os_task_scheduler.c ****          OS_SetSwBug(os_bug_null_pointer, Func_StartTask);
 326:E:\NeuOrga\Programmieren\c_cpp\github_os\input\src\os_base\os_task_scheduler.c ****       }
 327:E:\NeuOrga\Programmieren\c_cpp\github_os\input\src\os_base\os_task_scheduler.c ****    }
 328:E:\NeuOrga\Programmieren\c_cpp\github_os\input\src\os_base\os_task_scheduler.c ****    /* allowed in case of empty QUEUE elements (queue elements which have no activate_task yet recei
 329:E:\NeuOrga\Programmieren\c_cpp\github_os\input\src\os_base\os_task_scheduler.c ****    else
 330:E:\NeuOrga\Programmieren\c_cpp\github_os\input\src\os_base\os_task_scheduler.c ****    {
 331:E:\NeuOrga\Programmieren\c_cpp\github_os\input\src\os_base\os_task_scheduler.c ****        OS_SetSwBug(os_bug_null_pointer, Func_StartTask);
 332:E:\NeuOrga\Programmieren\c_cpp\github_os\input\src\os_base\os_task_scheduler.c ****    }
 333:E:\NeuOrga\Programmieren\c_cpp\github_os\input\src\os_base\os_task_scheduler.c ****    */
 334:E:\NeuOrga\Programmieren\c_cpp\github_os\input\src\os_base\os_task_scheduler.c **** }
 719              		.loc 1 334 0
 720 038a 08E0     		b	.L62
 721              	.L59:
 319:E:\NeuOrga\Programmieren\c_cpp\github_os\input\src\os_base\os_task_scheduler.c ****          }
 722              		.loc 1 319 0
 723 038c 0521     		movs	r1, #5
 724 038e 0120     		movs	r0, #1
 725 0390 FFF7FEFF 		bl	OS_SetSwBug
 726              		.loc 1 334 0
 727 0394 03E0     		b	.L62
 728              	.L58:
 325:E:\NeuOrga\Programmieren\c_cpp\github_os\input\src\os_base\os_task_scheduler.c ****       }
 729              		.loc 1 325 0
 730 0396 0521     		movs	r1, #5
 731 0398 0220     		movs	r0, #2
 732 039a FFF7FEFF 		bl	OS_SetSwBug
 733              	.L62:
 734              		.loc 1 334 0
 735 039e 00BF     		nop
 736 03a0 0837     		adds	r7, r7, #8
ARM GAS  C:\Users\PRESID~1\AppData\Local\Temp\ccY755Dl.s 			page 20


 737              		.cfi_def_cfa_offset 8
 738 03a2 BD46     		mov	sp, r7
 739              		.cfi_def_cfa_register 13
 740              		@ sp needed
 741 03a4 80BD     		pop	{r7, pc}
 742              	.L64:
 743 03a6 00BF     		.align	2
 744              	.L63:
 745 03a8 00000000 		.word	OS_STACK
 746              		.cfi_endproc
 747              	.LFE6:
 749              		.align	1
 750              		.global	OS_TerminateTask
 751              		.syntax unified
 752              		.thumb
 753              		.thumb_func
 754              		.fpu softvfp
 756              	OS_TerminateTask:
 757              	.LFB7:
 335:E:\NeuOrga\Programmieren\c_cpp\github_os\input\src\os_base\os_task_scheduler.c **** void OS_TerminateTask(task_t* task, scheduling_t* scheduling_task)
 336:E:\NeuOrga\Programmieren\c_cpp\github_os\input\src\os_base\os_task_scheduler.c **** {
 758              		.loc 1 336 0
 759              		.cfi_startproc
 760              		@ args = 0, pretend = 0, frame = 8
 761              		@ frame_needed = 1, uses_anonymous_args = 0
 762 03ac 80B5     		push	{r7, lr}
 763              		.cfi_def_cfa_offset 8
 764              		.cfi_offset 7, -8
 765              		.cfi_offset 14, -4
 766 03ae 82B0     		sub	sp, sp, #8
 767              		.cfi_def_cfa_offset 16
 768 03b0 00AF     		add	r7, sp, #0
 769              		.cfi_def_cfa_register 7
 770 03b2 7860     		str	r0, [r7, #4]
 771 03b4 3960     		str	r1, [r7]
 337:E:\NeuOrga\Programmieren\c_cpp\github_os\input\src\os_base\os_task_scheduler.c ****    /* Preempt task
 338:E:\NeuOrga\Programmieren\c_cpp\github_os\input\src\os_base\os_task_scheduler.c ****    - Disable Interrupts
 339:E:\NeuOrga\Programmieren\c_cpp\github_os\input\src\os_base\os_task_scheduler.c ****    - OS_TaskSaveTaskEnvironment
 340:E:\NeuOrga\Programmieren\c_cpp\github_os\input\src\os_base\os_task_scheduler.c ****    - add to Schedule Queue / delete from RunQueue
 341:E:\NeuOrga\Programmieren\c_cpp\github_os\input\src\os_base\os_task_scheduler.c ****    - delete active flag
 342:E:\NeuOrga\Programmieren\c_cpp\github_os\input\src\os_base\os_task_scheduler.c ****    - enable Interrupts
 343:E:\NeuOrga\Programmieren\c_cpp\github_os\input\src\os_base\os_task_scheduler.c ****    */
 344:E:\NeuOrga\Programmieren\c_cpp\github_os\input\src\os_base\os_task_scheduler.c ****    if(task != 0 && scheduling_task != 0)
 772              		.loc 1 344 0
 773 03b6 7B68     		ldr	r3, [r7, #4]
 774 03b8 002B     		cmp	r3, #0
 775 03ba 3ED0     		beq	.L66
 776              		.loc 1 344 0 is_stmt 0 discriminator 1
 777 03bc 3B68     		ldr	r3, [r7]
 778 03be 002B     		cmp	r3, #0
 779 03c0 3BD0     		beq	.L66
 345:E:\NeuOrga\Programmieren\c_cpp\github_os\input\src\os_base\os_task_scheduler.c ****    {
 346:E:\NeuOrga\Programmieren\c_cpp\github_os\input\src\os_base\os_task_scheduler.c ****       if(task->state_request != 0)
 780              		.loc 1 346 0 is_stmt 1
 781 03c2 7B68     		ldr	r3, [r7, #4]
 782 03c4 1B6B     		ldr	r3, [r3, #48]
 783 03c6 002B     		cmp	r3, #0
ARM GAS  C:\Users\PRESID~1\AppData\Local\Temp\ccY755Dl.s 			page 21


 784 03c8 32D0     		beq	.L67
 347:E:\NeuOrga\Programmieren\c_cpp\github_os\input\src\os_base\os_task_scheduler.c ****       {
 348:E:\NeuOrga\Programmieren\c_cpp\github_os\input\src\os_base\os_task_scheduler.c ****          if(task->state_request(task, Task_suspended)== Accepted)
 785              		.loc 1 348 0
 786 03ca 7B68     		ldr	r3, [r7, #4]
 787 03cc 1B6B     		ldr	r3, [r3, #48]
 788 03ce 0121     		movs	r1, #1
 789 03d0 7868     		ldr	r0, [r7, #4]
 790 03d2 9847     		blx	r3
 791              	.LVL5:
 792 03d4 0346     		mov	r3, r0
 793 03d6 012B     		cmp	r3, #1
 794 03d8 25D1     		bne	.L68
 349:E:\NeuOrga\Programmieren\c_cpp\github_os\input\src\os_base\os_task_scheduler.c ****          {
 350:E:\NeuOrga\Programmieren\c_cpp\github_os\input\src\os_base\os_task_scheduler.c ****             DisableInterrupts();
 795              		.loc 1 350 0
 796 03da FFF7FEFF 		bl	LLF_INT_DISABLE
 351:E:\NeuOrga\Programmieren\c_cpp\github_os\input\src\os_base\os_task_scheduler.c ****             OS_TaskSaveTaskEnvironment(task);
 797              		.loc 1 351 0
 798 03de 7868     		ldr	r0, [r7, #4]
 799 03e0 FFF7FEFF 		bl	OS_TaskSaveTaskEnvironment
 352:E:\NeuOrga\Programmieren\c_cpp\github_os\input\src\os_base\os_task_scheduler.c ****             OS_TASK_RESTORE_SYSTEM_STACK(&OS_STACK[OS_GetCoreId()][0]);
 800              		.loc 1 352 0
 801 03e4 FFF7FEFF 		bl	OS_GetCoreId
 802 03e8 0346     		mov	r3, r0
 803 03ea 1A46     		mov	r2, r3
 804 03ec 1346     		mov	r3, r2
 805 03ee 9B00     		lsls	r3, r3, #2
 806 03f0 1344     		add	r3, r3, r2
 807 03f2 1B03     		lsls	r3, r3, #12
 808 03f4 154A     		ldr	r2, .L72
 809 03f6 1344     		add	r3, r3, r2
 810 03f8 1846     		mov	r0, r3
 811 03fa FFF7FEFF 		bl	OS_TASK_RESTORE_SYSTEM_STACK
 353:E:\NeuOrga\Programmieren\c_cpp\github_os\input\src\os_base\os_task_scheduler.c ****             DeleteFromTaskQueue(task);
 812              		.loc 1 353 0
 813 03fe 7868     		ldr	r0, [r7, #4]
 814 0400 FFF7FEFF 		bl	DeleteFromTaskQueue
 354:E:\NeuOrga\Programmieren\c_cpp\github_os\input\src\os_base\os_task_scheduler.c ****             DeleteFromSchedulingQueue(scheduling_task);
 815              		.loc 1 354 0
 816 0404 3868     		ldr	r0, [r7]
 817 0406 FFF7FEFF 		bl	DeleteFromSchedulingQueue
 355:E:\NeuOrga\Programmieren\c_cpp\github_os\input\src\os_base\os_task_scheduler.c **** 
 356:E:\NeuOrga\Programmieren\c_cpp\github_os\input\src\os_base\os_task_scheduler.c ****             task->active = False;
 818              		.loc 1 356 0
 819 040a 7A68     		ldr	r2, [r7, #4]
 820 040c 1378     		ldrb	r3, [r2]
 821 040e 6FF30003 		bfc	r3, #0, #1
 822 0412 1370     		strb	r3, [r2]
 357:E:\NeuOrga\Programmieren\c_cpp\github_os\input\src\os_base\os_task_scheduler.c ****             /* reset the prio increase for waiting */
 358:E:\NeuOrga\Programmieren\c_cpp\github_os\input\src\os_base\os_task_scheduler.c ****             task->current_prio = task->default_prio;
 823              		.loc 1 358 0
 824 0414 7B68     		ldr	r3, [r7, #4]
 825 0416 93F82520 		ldrb	r2, [r3, #37]	@ zero_extendqisi2
 826 041a 7B68     		ldr	r3, [r7, #4]
 827 041c 83F82420 		strb	r2, [r3, #36]
 359:E:\NeuOrga\Programmieren\c_cpp\github_os\input\src\os_base\os_task_scheduler.c ****             EnableInterrupts();
ARM GAS  C:\Users\PRESID~1\AppData\Local\Temp\ccY755Dl.s 			page 22


 828              		.loc 1 359 0
 829 0420 FFF7FEFF 		bl	LLF_INT_ENABLE
 346:E:\NeuOrga\Programmieren\c_cpp\github_os\input\src\os_base\os_task_scheduler.c ****       {
 830              		.loc 1 346 0
 831 0424 0DE0     		b	.L71
 832              	.L68:
 360:E:\NeuOrga\Programmieren\c_cpp\github_os\input\src\os_base\os_task_scheduler.c ****          }
 361:E:\NeuOrga\Programmieren\c_cpp\github_os\input\src\os_base\os_task_scheduler.c ****          else
 362:E:\NeuOrga\Programmieren\c_cpp\github_os\input\src\os_base\os_task_scheduler.c ****          {
 363:E:\NeuOrga\Programmieren\c_cpp\github_os\input\src\os_base\os_task_scheduler.c ****             OS_SetSwBug(os_bug_taskstate_request_denied, Func_TerminateTask);
 833              		.loc 1 363 0
 834 0426 0721     		movs	r1, #7
 835 0428 0120     		movs	r0, #1
 836 042a FFF7FEFF 		bl	OS_SetSwBug
 346:E:\NeuOrga\Programmieren\c_cpp\github_os\input\src\os_base\os_task_scheduler.c ****       {
 837              		.loc 1 346 0
 838 042e 08E0     		b	.L71
 839              	.L67:
 364:E:\NeuOrga\Programmieren\c_cpp\github_os\input\src\os_base\os_task_scheduler.c ****          }
 365:E:\NeuOrga\Programmieren\c_cpp\github_os\input\src\os_base\os_task_scheduler.c ****       }
 366:E:\NeuOrga\Programmieren\c_cpp\github_os\input\src\os_base\os_task_scheduler.c ****       else
 367:E:\NeuOrga\Programmieren\c_cpp\github_os\input\src\os_base\os_task_scheduler.c ****       {
 368:E:\NeuOrga\Programmieren\c_cpp\github_os\input\src\os_base\os_task_scheduler.c ****          OS_SetSwBug(os_bug_null_pointer, Func_TerminateTask);
 840              		.loc 1 368 0
 841 0430 0721     		movs	r1, #7
 842 0432 0220     		movs	r0, #2
 843 0434 FFF7FEFF 		bl	OS_SetSwBug
 346:E:\NeuOrga\Programmieren\c_cpp\github_os\input\src\os_base\os_task_scheduler.c ****       {
 844              		.loc 1 346 0
 845 0438 03E0     		b	.L71
 846              	.L66:
 369:E:\NeuOrga\Programmieren\c_cpp\github_os\input\src\os_base\os_task_scheduler.c ****       }
 370:E:\NeuOrga\Programmieren\c_cpp\github_os\input\src\os_base\os_task_scheduler.c **** 
 371:E:\NeuOrga\Programmieren\c_cpp\github_os\input\src\os_base\os_task_scheduler.c ****    }
 372:E:\NeuOrga\Programmieren\c_cpp\github_os\input\src\os_base\os_task_scheduler.c ****    else
 373:E:\NeuOrga\Programmieren\c_cpp\github_os\input\src\os_base\os_task_scheduler.c ****    {
 374:E:\NeuOrga\Programmieren\c_cpp\github_os\input\src\os_base\os_task_scheduler.c ****       OS_SetSwBug(os_bug_null_pointer, Func_TerminateTask);
 847              		.loc 1 374 0
 848 043a 0721     		movs	r1, #7
 849 043c 0220     		movs	r0, #2
 850 043e FFF7FEFF 		bl	OS_SetSwBug
 851              	.L71:
 375:E:\NeuOrga\Programmieren\c_cpp\github_os\input\src\os_base\os_task_scheduler.c ****    }
 376:E:\NeuOrga\Programmieren\c_cpp\github_os\input\src\os_base\os_task_scheduler.c **** }
 852              		.loc 1 376 0
 853 0442 00BF     		nop
 854 0444 0837     		adds	r7, r7, #8
 855              		.cfi_def_cfa_offset 8
 856 0446 BD46     		mov	sp, r7
 857              		.cfi_def_cfa_register 13
 858              		@ sp needed
 859 0448 80BD     		pop	{r7, pc}
 860              	.L73:
 861 044a 00BF     		.align	2
 862              	.L72:
 863 044c 00000000 		.word	OS_STACK
 864              		.cfi_endproc
ARM GAS  C:\Users\PRESID~1\AppData\Local\Temp\ccY755Dl.s 			page 23


 865              	.LFE7:
 867              		.align	1
 868              		.global	OS_TaskDispatcher
 869              		.syntax unified
 870              		.thumb
 871              		.thumb_func
 872              		.fpu softvfp
 874              	OS_TaskDispatcher:
 875              	.LFB8:
 377:E:\NeuOrga\Programmieren\c_cpp\github_os\input\src\os_base\os_task_scheduler.c **** void OS_TaskDispatcher(void)
 378:E:\NeuOrga\Programmieren\c_cpp\github_os\input\src\os_base\os_task_scheduler.c **** {
 876              		.loc 1 378 0
 877              		.cfi_startproc
 878              		@ args = 0, pretend = 0, frame = 8
 879              		@ frame_needed = 1, uses_anonymous_args = 0
 880 0450 80B5     		push	{r7, lr}
 881              		.cfi_def_cfa_offset 8
 882              		.cfi_offset 7, -8
 883              		.cfi_offset 14, -4
 884 0452 82B0     		sub	sp, sp, #8
 885              		.cfi_def_cfa_offset 16
 886 0454 00AF     		add	r7, sp, #0
 887              		.cfi_def_cfa_register 7
 379:E:\NeuOrga\Programmieren\c_cpp\github_os\input\src\os_base\os_task_scheduler.c ****    /* called in an certain core context (Core_0/1/2/3)*/
 380:E:\NeuOrga\Programmieren\c_cpp\github_os\input\src\os_base\os_task_scheduler.c **** 
 381:E:\NeuOrga\Programmieren\c_cpp\github_os\input\src\os_base\os_task_scheduler.c **** 
 382:E:\NeuOrga\Programmieren\c_cpp\github_os\input\src\os_base\os_task_scheduler.c ****    /*
 383:E:\NeuOrga\Programmieren\c_cpp\github_os\input\src\os_base\os_task_scheduler.c ****    1. running     --(terminate)--> suspend
 384:E:\NeuOrga\Programmieren\c_cpp\github_os\input\src\os_base\os_task_scheduler.c ****    2. running     --(preempt  )--> ready
 385:E:\NeuOrga\Programmieren\c_cpp\github_os\input\src\os_base\os_task_scheduler.c ****    3. suspend     --(activate )--> ready
 386:E:\NeuOrga\Programmieren\c_cpp\github_os\input\src\os_base\os_task_scheduler.c ****    4. ready       --(start    )--> running
 387:E:\NeuOrga\Programmieren\c_cpp\github_os\input\src\os_base\os_task_scheduler.c ****    5. unspecified --(create   )--> suspend
 388:E:\NeuOrga\Programmieren\c_cpp\github_os\input\src\os_base\os_task_scheduler.c ****    */
 389:E:\NeuOrga\Programmieren\c_cpp\github_os\input\src\os_base\os_task_scheduler.c ****    scheduling_t* scheduling_task_ptr;
 390:E:\NeuOrga\Programmieren\c_cpp\github_os\input\src\os_base\os_task_scheduler.c ****    task_t* task = 0;
 888              		.loc 1 390 0
 889 0456 0023     		movs	r3, #0
 890 0458 7B60     		str	r3, [r7, #4]
 391:E:\NeuOrga\Programmieren\c_cpp\github_os\input\src\os_base\os_task_scheduler.c ****    /* get running task */
 392:E:\NeuOrga\Programmieren\c_cpp\github_os\input\src\os_base\os_task_scheduler.c ****    task         = GetRunningTask();
 891              		.loc 1 392 0
 892 045a FFF7FEFF 		bl	GetRunningTask
 893 045e 7860     		str	r0, [r7, #4]
 393:E:\NeuOrga\Programmieren\c_cpp\github_os\input\src\os_base\os_task_scheduler.c ****    scheduling_task_ptr = GetRunningSchedulingQueueElementPtr();
 894              		.loc 1 393 0
 895 0460 FFF7FEFF 		bl	GetRunningSchedulingQueueElementPtr
 896 0464 3860     		str	r0, [r7]
 394:E:\NeuOrga\Programmieren\c_cpp\github_os\input\src\os_base\os_task_scheduler.c ****    /* Preempt Task */
 395:E:\NeuOrga\Programmieren\c_cpp\github_os\input\src\os_base\os_task_scheduler.c ****    if(task!=0 && scheduling_task_ptr != 0)
 897              		.loc 1 395 0
 898 0466 7B68     		ldr	r3, [r7, #4]
 899 0468 002B     		cmp	r3, #0
 900 046a 06D0     		beq	.L75
 901              		.loc 1 395 0 is_stmt 0 discriminator 1
 902 046c 3B68     		ldr	r3, [r7]
 903 046e 002B     		cmp	r3, #0
 904 0470 03D0     		beq	.L75
ARM GAS  C:\Users\PRESID~1\AppData\Local\Temp\ccY755Dl.s 			page 24


 396:E:\NeuOrga\Programmieren\c_cpp\github_os\input\src\os_base\os_task_scheduler.c ****    {
 397:E:\NeuOrga\Programmieren\c_cpp\github_os\input\src\os_base\os_task_scheduler.c ****       OS_TerminateTask(task, scheduling_task_ptr);
 905              		.loc 1 397 0 is_stmt 1
 906 0472 3968     		ldr	r1, [r7]
 907 0474 7868     		ldr	r0, [r7, #4]
 908 0476 FFF7FEFF 		bl	OS_TerminateTask
 909              	.L75:
 398:E:\NeuOrga\Programmieren\c_cpp\github_os\input\src\os_base\os_task_scheduler.c ****    }
 399:E:\NeuOrga\Programmieren\c_cpp\github_os\input\src\os_base\os_task_scheduler.c **** 
 400:E:\NeuOrga\Programmieren\c_cpp\github_os\input\src\os_base\os_task_scheduler.c **** 
 401:E:\NeuOrga\Programmieren\c_cpp\github_os\input\src\os_base\os_task_scheduler.c ****    /* ask for the next task to be activated... */
 402:E:\NeuOrga\Programmieren\c_cpp\github_os\input\src\os_base\os_task_scheduler.c ****    scheduling_task_ptr = OS_TaskScheduler();
 910              		.loc 1 402 0
 911 047a 00F0C9F8 		bl	OS_TaskScheduler
 912 047e 3860     		str	r0, [r7]
 403:E:\NeuOrga\Programmieren\c_cpp\github_os\input\src\os_base\os_task_scheduler.c ****    if(scheduling_task_ptr != 0)
 913              		.loc 1 403 0
 914 0480 3B68     		ldr	r3, [r7]
 915 0482 002B     		cmp	r3, #0
 916 0484 03D0     		beq	.L76
 404:E:\NeuOrga\Programmieren\c_cpp\github_os\input\src\os_base\os_task_scheduler.c ****    {
 405:E:\NeuOrga\Programmieren\c_cpp\github_os\input\src\os_base\os_task_scheduler.c ****       task = GetFromTaskQueue(scheduling_task_ptr);
 917              		.loc 1 405 0
 918 0486 3868     		ldr	r0, [r7]
 919 0488 FFF7FEFF 		bl	GetFromTaskQueue
 920 048c 7860     		str	r0, [r7, #4]
 921              	.L76:
 406:E:\NeuOrga\Programmieren\c_cpp\github_os\input\src\os_base\os_task_scheduler.c ****    }
 407:E:\NeuOrga\Programmieren\c_cpp\github_os\input\src\os_base\os_task_scheduler.c ****    if(task != 0 && scheduling_task_ptr != 0)
 922              		.loc 1 407 0
 923 048e 7B68     		ldr	r3, [r7, #4]
 924 0490 002B     		cmp	r3, #0
 925 0492 06D0     		beq	.L78
 926              		.loc 1 407 0 is_stmt 0 discriminator 1
 927 0494 3B68     		ldr	r3, [r7]
 928 0496 002B     		cmp	r3, #0
 929 0498 03D0     		beq	.L78
 408:E:\NeuOrga\Programmieren\c_cpp\github_os\input\src\os_base\os_task_scheduler.c ****    {
 409:E:\NeuOrga\Programmieren\c_cpp\github_os\input\src\os_base\os_task_scheduler.c ****        OS_StartTask(task, scheduling_task_ptr);
 930              		.loc 1 409 0 is_stmt 1
 931 049a 3968     		ldr	r1, [r7]
 932 049c 7868     		ldr	r0, [r7, #4]
 933 049e FFF7FEFF 		bl	OS_StartTask
 934              	.L78:
 410:E:\NeuOrga\Programmieren\c_cpp\github_os\input\src\os_base\os_task_scheduler.c ****    }
 411:E:\NeuOrga\Programmieren\c_cpp\github_os\input\src\os_base\os_task_scheduler.c **** }
 935              		.loc 1 411 0
 936 04a2 00BF     		nop
 937 04a4 0837     		adds	r7, r7, #8
 938              		.cfi_def_cfa_offset 8
 939 04a6 BD46     		mov	sp, r7
 940              		.cfi_def_cfa_register 13
 941              		@ sp needed
 942 04a8 80BD     		pop	{r7, pc}
 943              		.cfi_endproc
 944              	.LFE8:
 946              		.align	1
ARM GAS  C:\Users\PRESID~1\AppData\Local\Temp\ccY755Dl.s 			page 25


 947              		.syntax unified
 948              		.thumb
 949              		.thumb_func
 950              		.fpu softvfp
 952              	TASK_0:
 953              	.LFB9:
 412:E:\NeuOrga\Programmieren\c_cpp\github_os\input\src\os_base\os_task_scheduler.c **** Local void TASK_0(void* task_ptr)
 413:E:\NeuOrga\Programmieren\c_cpp\github_os\input\src\os_base\os_task_scheduler.c **** {
 954              		.loc 1 413 0
 955              		.cfi_startproc
 956              		@ args = 0, pretend = 0, frame = 8
 957              		@ frame_needed = 1, uses_anonymous_args = 0
 958 04aa 80B5     		push	{r7, lr}
 959              		.cfi_def_cfa_offset 8
 960              		.cfi_offset 7, -8
 961              		.cfi_offset 14, -4
 962 04ac 82B0     		sub	sp, sp, #8
 963              		.cfi_def_cfa_offset 16
 964 04ae 00AF     		add	r7, sp, #0
 965              		.cfi_def_cfa_register 7
 966 04b0 7860     		str	r0, [r7, #4]
 414:E:\NeuOrga\Programmieren\c_cpp\github_os\input\src\os_base\os_task_scheduler.c ****    ReferenceUnusedParameter(task_ptr);
 415:E:\NeuOrga\Programmieren\c_cpp\github_os\input\src\os_base\os_task_scheduler.c ****    HaltMcu();/* HLT will be ended by timer interrupt, what shall be done with the rest of the funct
 967              		.loc 1 415 0
 968 04b2 FFF7FEFF 		bl	LLF_WAIT_FOR_INTERRUPT
 416:E:\NeuOrga\Programmieren\c_cpp\github_os\input\src\os_base\os_task_scheduler.c **** }
 969              		.loc 1 416 0
 970 04b6 00BF     		nop
 971 04b8 0837     		adds	r7, r7, #8
 972              		.cfi_def_cfa_offset 8
 973 04ba BD46     		mov	sp, r7
 974              		.cfi_def_cfa_register 13
 975              		@ sp needed
 976 04bc 80BD     		pop	{r7, pc}
 977              		.cfi_endproc
 978              	.LFE9:
 980              		.align	1
 981              		.syntax unified
 982              		.thumb
 983              		.thumb_func
 984              		.fpu softvfp
 986              	TASK_1:
 987              	.LFB10:
 417:E:\NeuOrga\Programmieren\c_cpp\github_os\input\src\os_base\os_task_scheduler.c **** Local void TASK_1(void* task_ptr)
 418:E:\NeuOrga\Programmieren\c_cpp\github_os\input\src\os_base\os_task_scheduler.c **** {
 988              		.loc 1 418 0
 989              		.cfi_startproc
 990              		@ args = 0, pretend = 0, frame = 8
 991              		@ frame_needed = 1, uses_anonymous_args = 0
 992 04be 80B5     		push	{r7, lr}
 993              		.cfi_def_cfa_offset 8
 994              		.cfi_offset 7, -8
 995              		.cfi_offset 14, -4
 996 04c0 82B0     		sub	sp, sp, #8
 997              		.cfi_def_cfa_offset 16
 998 04c2 00AF     		add	r7, sp, #0
 999              		.cfi_def_cfa_register 7
ARM GAS  C:\Users\PRESID~1\AppData\Local\Temp\ccY755Dl.s 			page 26


 1000 04c4 7860     		str	r0, [r7, #4]
 419:E:\NeuOrga\Programmieren\c_cpp\github_os\input\src\os_base\os_task_scheduler.c ****    ReferenceUnusedParameter(task_ptr);
 420:E:\NeuOrga\Programmieren\c_cpp\github_os\input\src\os_base\os_task_scheduler.c ****    /* worker task */
 421:E:\NeuOrga\Programmieren\c_cpp\github_os\input\src\os_base\os_task_scheduler.c **** 
 422:E:\NeuOrga\Programmieren\c_cpp\github_os\input\src\os_base\os_task_scheduler.c ****    /* do some things */
 423:E:\NeuOrga\Programmieren\c_cpp\github_os\input\src\os_base\os_task_scheduler.c ****    /*while(1) {}*/
 424:E:\NeuOrga\Programmieren\c_cpp\github_os\input\src\os_base\os_task_scheduler.c ****    TASK1_CALL_NR++;
 1001              		.loc 1 424 0
 1002 04c6 054B     		ldr	r3, .L82
 1003 04c8 1B68     		ldr	r3, [r3]
 1004 04ca 0133     		adds	r3, r3, #1
 1005 04cc 034A     		ldr	r2, .L82
 1006 04ce 1360     		str	r3, [r2]
 425:E:\NeuOrga\Programmieren\c_cpp\github_os\input\src\os_base\os_task_scheduler.c ****    OS_SleepTask((task_t*)task_ptr, 10);
 1007              		.loc 1 425 0
 1008 04d0 0A21     		movs	r1, #10
 1009 04d2 7868     		ldr	r0, [r7, #4]
 1010 04d4 FFF7FEFF 		bl	OS_SleepTask
 1011              	.L81:
 426:E:\NeuOrga\Programmieren\c_cpp\github_os\input\src\os_base\os_task_scheduler.c ****    #if (CFG_PROCESSOR != cMCU_X86)
 427:E:\NeuOrga\Programmieren\c_cpp\github_os\input\src\os_base\os_task_scheduler.c ****    while(1) {}
 1012              		.loc 1 427 0 discriminator 1
 1013 04d8 FEE7     		b	.L81
 1014              	.L83:
 1015 04da 00BF     		.align	2
 1016              	.L82:
 1017 04dc 00000000 		.word	TASK1_CALL_NR
 1018              		.cfi_endproc
 1019              	.LFE10:
 1021              		.align	1
 1022              		.syntax unified
 1023              		.thumb
 1024              		.thumb_func
 1025              		.fpu softvfp
 1027              	TASK_2:
 1028              	.LFB11:
 428:E:\NeuOrga\Programmieren\c_cpp\github_os\input\src\os_base\os_task_scheduler.c ****    #endif
 429:E:\NeuOrga\Programmieren\c_cpp\github_os\input\src\os_base\os_task_scheduler.c ****    /* end */
 430:E:\NeuOrga\Programmieren\c_cpp\github_os\input\src\os_base\os_task_scheduler.c **** }
 431:E:\NeuOrga\Programmieren\c_cpp\github_os\input\src\os_base\os_task_scheduler.c **** Local void TASK_2(void* task_ptr)
 432:E:\NeuOrga\Programmieren\c_cpp\github_os\input\src\os_base\os_task_scheduler.c **** {
 1029              		.loc 1 432 0
 1030              		.cfi_startproc
 1031              		@ args = 0, pretend = 0, frame = 8
 1032              		@ frame_needed = 1, uses_anonymous_args = 0
 1033              		@ link register save eliminated.
 1034 04e0 80B4     		push	{r7}
 1035              		.cfi_def_cfa_offset 4
 1036              		.cfi_offset 7, -4
 1037 04e2 83B0     		sub	sp, sp, #12
 1038              		.cfi_def_cfa_offset 16
 1039 04e4 00AF     		add	r7, sp, #0
 1040              		.cfi_def_cfa_register 7
 1041 04e6 7860     		str	r0, [r7, #4]
 433:E:\NeuOrga\Programmieren\c_cpp\github_os\input\src\os_base\os_task_scheduler.c ****    ReferenceUnusedParameter(task_ptr);
 434:E:\NeuOrga\Programmieren\c_cpp\github_os\input\src\os_base\os_task_scheduler.c ****    /* worker task */
 435:E:\NeuOrga\Programmieren\c_cpp\github_os\input\src\os_base\os_task_scheduler.c **** 
ARM GAS  C:\Users\PRESID~1\AppData\Local\Temp\ccY755Dl.s 			page 27


 436:E:\NeuOrga\Programmieren\c_cpp\github_os\input\src\os_base\os_task_scheduler.c ****    /* do some things */
 437:E:\NeuOrga\Programmieren\c_cpp\github_os\input\src\os_base\os_task_scheduler.c ****    TASK2_CALL_NR++;
 1042              		.loc 1 437 0
 1043 04e8 024B     		ldr	r3, .L86
 1044 04ea 1B68     		ldr	r3, [r3]
 1045 04ec 0133     		adds	r3, r3, #1
 1046 04ee 014A     		ldr	r2, .L86
 1047 04f0 1360     		str	r3, [r2]
 1048              	.L85:
 438:E:\NeuOrga\Programmieren\c_cpp\github_os\input\src\os_base\os_task_scheduler.c ****    #if (CFG_PROCESSOR != cMCU_X86)
 439:E:\NeuOrga\Programmieren\c_cpp\github_os\input\src\os_base\os_task_scheduler.c ****    while(1) {}
 1049              		.loc 1 439 0 discriminator 1
 1050 04f2 FEE7     		b	.L85
 1051              	.L87:
 1052              		.align	2
 1053              	.L86:
 1054 04f4 00000000 		.word	TASK2_CALL_NR
 1055              		.cfi_endproc
 1056              	.LFE11:
 1058              		.align	1
 1059              		.syntax unified
 1060              		.thumb
 1061              		.thumb_func
 1062              		.fpu softvfp
 1064              	TASK_3:
 1065              	.LFB12:
 440:E:\NeuOrga\Programmieren\c_cpp\github_os\input\src\os_base\os_task_scheduler.c ****    #endif
 441:E:\NeuOrga\Programmieren\c_cpp\github_os\input\src\os_base\os_task_scheduler.c ****    /* end */
 442:E:\NeuOrga\Programmieren\c_cpp\github_os\input\src\os_base\os_task_scheduler.c **** }
 443:E:\NeuOrga\Programmieren\c_cpp\github_os\input\src\os_base\os_task_scheduler.c **** Local void TASK_3(void* task_ptr)
 444:E:\NeuOrga\Programmieren\c_cpp\github_os\input\src\os_base\os_task_scheduler.c **** {
 1066              		.loc 1 444 0
 1067              		.cfi_startproc
 1068              		@ args = 0, pretend = 0, frame = 8
 1069              		@ frame_needed = 1, uses_anonymous_args = 0
 1070              		@ link register save eliminated.
 1071 04f8 80B4     		push	{r7}
 1072              		.cfi_def_cfa_offset 4
 1073              		.cfi_offset 7, -4
 1074 04fa 83B0     		sub	sp, sp, #12
 1075              		.cfi_def_cfa_offset 16
 1076 04fc 00AF     		add	r7, sp, #0
 1077              		.cfi_def_cfa_register 7
 1078 04fe 7860     		str	r0, [r7, #4]
 445:E:\NeuOrga\Programmieren\c_cpp\github_os\input\src\os_base\os_task_scheduler.c ****    ReferenceUnusedParameter(task_ptr);
 446:E:\NeuOrga\Programmieren\c_cpp\github_os\input\src\os_base\os_task_scheduler.c ****    /* worker task */
 447:E:\NeuOrga\Programmieren\c_cpp\github_os\input\src\os_base\os_task_scheduler.c **** 
 448:E:\NeuOrga\Programmieren\c_cpp\github_os\input\src\os_base\os_task_scheduler.c ****    /* do some things */
 449:E:\NeuOrga\Programmieren\c_cpp\github_os\input\src\os_base\os_task_scheduler.c ****    TASK3_CALL_NR++;
 1079              		.loc 1 449 0
 1080 0500 024B     		ldr	r3, .L90
 1081 0502 1B68     		ldr	r3, [r3]
 1082 0504 0133     		adds	r3, r3, #1
 1083 0506 014A     		ldr	r2, .L90
 1084 0508 1360     		str	r3, [r2]
 1085              	.L89:
 450:E:\NeuOrga\Programmieren\c_cpp\github_os\input\src\os_base\os_task_scheduler.c ****    #if (CFG_PROCESSOR != cMCU_X86)
ARM GAS  C:\Users\PRESID~1\AppData\Local\Temp\ccY755Dl.s 			page 28


 451:E:\NeuOrga\Programmieren\c_cpp\github_os\input\src\os_base\os_task_scheduler.c ****    while(1) {}
 1086              		.loc 1 451 0 discriminator 1
 1087 050a FEE7     		b	.L89
 1088              	.L91:
 1089              		.align	2
 1090              	.L90:
 1091 050c 00000000 		.word	TASK3_CALL_NR
 1092              		.cfi_endproc
 1093              	.LFE12:
 1095              		.align	1
 1096              		.global	OS_InitTasks
 1097              		.syntax unified
 1098              		.thumb
 1099              		.thumb_func
 1100              		.fpu softvfp
 1102              	OS_InitTasks:
 1103              	.LFB13:
 452:E:\NeuOrga\Programmieren\c_cpp\github_os\input\src\os_base\os_task_scheduler.c ****    #endif
 453:E:\NeuOrga\Programmieren\c_cpp\github_os\input\src\os_base\os_task_scheduler.c ****    /* end */
 454:E:\NeuOrga\Programmieren\c_cpp\github_os\input\src\os_base\os_task_scheduler.c **** }
 455:E:\NeuOrga\Programmieren\c_cpp\github_os\input\src\os_base\os_task_scheduler.c **** void OS_InitTasks(void)
 456:E:\NeuOrga\Programmieren\c_cpp\github_os\input\src\os_base\os_task_scheduler.c **** {
 1104              		.loc 1 456 0
 1105              		.cfi_startproc
 1106              		@ args = 0, pretend = 0, frame = 8
 1107              		@ frame_needed = 1, uses_anonymous_args = 0
 1108 0510 80B5     		push	{r7, lr}
 1109              		.cfi_def_cfa_offset 8
 1110              		.cfi_offset 7, -8
 1111              		.cfi_offset 14, -4
 1112 0512 88B0     		sub	sp, sp, #32
 1113              		.cfi_def_cfa_offset 40
 1114 0514 06AF     		add	r7, sp, #24
 1115              		.cfi_def_cfa 7, 16
 457:E:\NeuOrga\Programmieren\c_cpp\github_os\input\src\os_base\os_task_scheduler.c ****    task_t* task_ptr = 0;
 1116              		.loc 1 457 0
 1117 0516 0023     		movs	r3, #0
 1118 0518 7B60     		str	r3, [r7, #4]
 458:E:\NeuOrga\Programmieren\c_cpp\github_os\input\src\os_base\os_task_scheduler.c ****    LAST_CURRENT_TIME = OS_GetCurrentTime();
 1119              		.loc 1 458 0
 1120 051a FFF7FEFF 		bl	OS_GetCurrentTime
 1121 051e 0246     		mov	r2, r0
 1122 0520 2B4B     		ldr	r3, .L93
 1123 0522 1A60     		str	r2, [r3]
 459:E:\NeuOrga\Programmieren\c_cpp\github_os\input\src\os_base\os_task_scheduler.c **** 
 460:E:\NeuOrga\Programmieren\c_cpp\github_os\input\src\os_base\os_task_scheduler.c ****    ReferenceUnusedParameter (TASK_GROUP_1);
 461:E:\NeuOrga\Programmieren\c_cpp\github_os\input\src\os_base\os_task_scheduler.c ****    ReferenceUnusedParameter (TASK_GROUP_2);
 462:E:\NeuOrga\Programmieren\c_cpp\github_os\input\src\os_base\os_task_scheduler.c ****    ReferenceUnusedParameter (TASK_GROUP_3);
 463:E:\NeuOrga\Programmieren\c_cpp\github_os\input\src\os_base\os_task_scheduler.c ****    ReferenceUnusedParameter (TASK_GROUP_4);
 464:E:\NeuOrga\Programmieren\c_cpp\github_os\input\src\os_base\os_task_scheduler.c ****    ReferenceUnusedParameter (TASK_GROUP_5);
 465:E:\NeuOrga\Programmieren\c_cpp\github_os\input\src\os_base\os_task_scheduler.c **** 
 466:E:\NeuOrga\Programmieren\c_cpp\github_os\input\src\os_base\os_task_scheduler.c ****     /*
 467:E:\NeuOrga\Programmieren\c_cpp\github_os\input\src\os_base\os_task_scheduler.c ****    set task_state for all tasks to Task_unspecified
 468:E:\NeuOrga\Programmieren\c_cpp\github_os\input\src\os_base\os_task_scheduler.c ****     */
 469:E:\NeuOrga\Programmieren\c_cpp\github_os\input\src\os_base\os_task_scheduler.c ****    OS_InitTaskQueue();
 1124              		.loc 1 469 0
 1125 0524 FFF7FEFF 		bl	OS_InitTaskQueue
ARM GAS  C:\Users\PRESID~1\AppData\Local\Temp\ccY755Dl.s 			page 29


 470:E:\NeuOrga\Programmieren\c_cpp\github_os\input\src\os_base\os_task_scheduler.c **** 
 471:E:\NeuOrga\Programmieren\c_cpp\github_os\input\src\os_base\os_task_scheduler.c ****    /* setup idle task */
 472:E:\NeuOrga\Programmieren\c_cpp\github_os\input\src\os_base\os_task_scheduler.c ****    task_ptr = &TASK_0_VAR;
 1126              		.loc 1 472 0
 1127 0528 2A4B     		ldr	r3, .L93+4
 1128 052a 7B60     		str	r3, [r7, #4]
 473:E:\NeuOrga\Programmieren\c_cpp\github_os\input\src\os_base\os_task_scheduler.c ****    OS_InitTask(task_ptr,                          /* task */
 1129              		.loc 1 473 0
 1130 052c 0023     		movs	r3, #0
 1131 052e 0593     		str	r3, [sp, #20]
 1132 0530 0023     		movs	r3, #0
 1133 0532 0493     		str	r3, [sp, #16]
 1134 0534 0023     		movs	r3, #0
 1135 0536 0393     		str	r3, [sp, #12]
 1136 0538 C823     		movs	r3, #200
 1137 053a 0293     		str	r3, [sp, #8]
 1138 053c 264B     		ldr	r3, .L93+8
 1139 053e 0193     		str	r3, [sp, #4]
 1140 0540 264B     		ldr	r3, .L93+12
 1141 0542 0093     		str	r3, [sp]
 1142 0544 0123     		movs	r3, #1
 1143 0546 0122     		movs	r2, #1
 1144 0548 2549     		ldr	r1, .L93+16
 1145 054a 7868     		ldr	r0, [r7, #4]
 1146 054c FFF7FEFF 		bl	OS_InitTask
 474:E:\NeuOrga\Programmieren\c_cpp\github_os\input\src\os_base\os_task_scheduler.c ****                 &TASK_0,                           /* Task Function*/
 475:E:\NeuOrga\Programmieren\c_cpp\github_os\input\src\os_base\os_task_scheduler.c ****                 1,                                 /* Nr of allowed instances*/
 476:E:\NeuOrga\Programmieren\c_cpp\github_os\input\src\os_base\os_task_scheduler.c ****                 True,                              /* Idle Task */
 477:E:\NeuOrga\Programmieren\c_cpp\github_os\input\src\os_base\os_task_scheduler.c ****                 &TASK_GROUP_1,                     /* Task Group */
 478:E:\NeuOrga\Programmieren\c_cpp\github_os\input\src\os_base\os_task_scheduler.c ****                 (unsigned_char_t*)&TASK_STACK[0],  /* Task_stack */
 479:E:\NeuOrga\Programmieren\c_cpp\github_os\input\src\os_base\os_task_scheduler.c ****                 200,                                /* Stack Size */
 480:E:\NeuOrga\Programmieren\c_cpp\github_os\input\src\os_base\os_task_scheduler.c ****                 ePriviligeMode_unpriviliged_thread_mode, /* Unpriviliged Thread Mode */
 481:E:\NeuOrga\Programmieren\c_cpp\github_os\input\src\os_base\os_task_scheduler.c ****                 Core0,                            /* Cortex M4 has only 1 core */
 482:E:\NeuOrga\Programmieren\c_cpp\github_os\input\src\os_base\os_task_scheduler.c ****                 0                                   /* default prio */
 483:E:\NeuOrga\Programmieren\c_cpp\github_os\input\src\os_base\os_task_scheduler.c ****                );
 484:E:\NeuOrga\Programmieren\c_cpp\github_os\input\src\os_base\os_task_scheduler.c ****    OS_SaveTaskPtr(task_ptr, Task_0_ptr);
 485:E:\NeuOrga\Programmieren\c_cpp\github_os\input\src\os_base\os_task_scheduler.c **** 
 486:E:\NeuOrga\Programmieren\c_cpp\github_os\input\src\os_base\os_task_scheduler.c ****    /* setup worker task */
 487:E:\NeuOrga\Programmieren\c_cpp\github_os\input\src\os_base\os_task_scheduler.c ****    task_ptr = &TASK_1_VAR;
 1147              		.loc 1 487 0
 1148 0550 244B     		ldr	r3, .L93+20
 1149 0552 7B60     		str	r3, [r7, #4]
 488:E:\NeuOrga\Programmieren\c_cpp\github_os\input\src\os_base\os_task_scheduler.c ****    OS_InitTask(task_ptr,      /* task */
 1150              		.loc 1 488 0
 1151 0554 0123     		movs	r3, #1
 1152 0556 0593     		str	r3, [sp, #20]
 1153 0558 0023     		movs	r3, #0
 1154 055a 0493     		str	r3, [sp, #16]
 1155 055c 0023     		movs	r3, #0
 1156 055e 0393     		str	r3, [sp, #12]
 1157 0560 C823     		movs	r3, #200
 1158 0562 0293     		str	r3, [sp, #8]
 1159 0564 204B     		ldr	r3, .L93+24
 1160 0566 0193     		str	r3, [sp, #4]
 1161 0568 1C4B     		ldr	r3, .L93+12
 1162 056a 0093     		str	r3, [sp]
 1163 056c 0023     		movs	r3, #0
ARM GAS  C:\Users\PRESID~1\AppData\Local\Temp\ccY755Dl.s 			page 30


 1164 056e 0122     		movs	r2, #1
 1165 0570 1E49     		ldr	r1, .L93+28
 1166 0572 7868     		ldr	r0, [r7, #4]
 1167 0574 FFF7FEFF 		bl	OS_InitTask
 489:E:\NeuOrga\Programmieren\c_cpp\github_os\input\src\os_base\os_task_scheduler.c ****                 &TASK_1,       /* Task Function*/
 490:E:\NeuOrga\Programmieren\c_cpp\github_os\input\src\os_base\os_task_scheduler.c ****                 1,             /* Nr of allowed instances*/
 491:E:\NeuOrga\Programmieren\c_cpp\github_os\input\src\os_base\os_task_scheduler.c ****                 False,          /* Idle Task */
 492:E:\NeuOrga\Programmieren\c_cpp\github_os\input\src\os_base\os_task_scheduler.c ****                 &TASK_GROUP_1, /* Task Group */
 493:E:\NeuOrga\Programmieren\c_cpp\github_os\input\src\os_base\os_task_scheduler.c ****                 (unsigned_char_t*)&TASK_STACK[1],/* Task_stack */
 494:E:\NeuOrga\Programmieren\c_cpp\github_os\input\src\os_base\os_task_scheduler.c ****                 200,            /* Stack Size */
 495:E:\NeuOrga\Programmieren\c_cpp\github_os\input\src\os_base\os_task_scheduler.c ****                 ePriviligeMode_unpriviliged_thread_mode, /* Unpriviliged Thread Mode */
 496:E:\NeuOrga\Programmieren\c_cpp\github_os\input\src\os_base\os_task_scheduler.c ****                 Core0,
 497:E:\NeuOrga\Programmieren\c_cpp\github_os\input\src\os_base\os_task_scheduler.c ****                 1                                   /* default prio */
 498:E:\NeuOrga\Programmieren\c_cpp\github_os\input\src\os_base\os_task_scheduler.c ****                );
 499:E:\NeuOrga\Programmieren\c_cpp\github_os\input\src\os_base\os_task_scheduler.c ****    OS_SaveTaskPtr(task_ptr, Task_1_ptr);
 500:E:\NeuOrga\Programmieren\c_cpp\github_os\input\src\os_base\os_task_scheduler.c **** 
 501:E:\NeuOrga\Programmieren\c_cpp\github_os\input\src\os_base\os_task_scheduler.c ****    /* setup worker task */
 502:E:\NeuOrga\Programmieren\c_cpp\github_os\input\src\os_base\os_task_scheduler.c ****    task_ptr = &TASK_2_VAR;
 1168              		.loc 1 502 0
 1169 0578 1D4B     		ldr	r3, .L93+32
 1170 057a 7B60     		str	r3, [r7, #4]
 503:E:\NeuOrga\Programmieren\c_cpp\github_os\input\src\os_base\os_task_scheduler.c ****    OS_InitTask(task_ptr,      /* task */
 1171              		.loc 1 503 0
 1172 057c 0223     		movs	r3, #2
 1173 057e 0593     		str	r3, [sp, #20]
 1174 0580 0023     		movs	r3, #0
 1175 0582 0493     		str	r3, [sp, #16]
 1176 0584 0023     		movs	r3, #0
 1177 0586 0393     		str	r3, [sp, #12]
 1178 0588 C823     		movs	r3, #200
 1179 058a 0293     		str	r3, [sp, #8]
 1180 058c 194B     		ldr	r3, .L93+36
 1181 058e 0193     		str	r3, [sp, #4]
 1182 0590 194B     		ldr	r3, .L93+40
 1183 0592 0093     		str	r3, [sp]
 1184 0594 0023     		movs	r3, #0
 1185 0596 0122     		movs	r2, #1
 1186 0598 1849     		ldr	r1, .L93+44
 1187 059a 7868     		ldr	r0, [r7, #4]
 1188 059c FFF7FEFF 		bl	OS_InitTask
 504:E:\NeuOrga\Programmieren\c_cpp\github_os\input\src\os_base\os_task_scheduler.c ****                 &TASK_2,       /* Task Function*/
 505:E:\NeuOrga\Programmieren\c_cpp\github_os\input\src\os_base\os_task_scheduler.c ****                 1,             /* Nr of allowed instances*/
 506:E:\NeuOrga\Programmieren\c_cpp\github_os\input\src\os_base\os_task_scheduler.c ****                 False,          /* Idle Task */
 507:E:\NeuOrga\Programmieren\c_cpp\github_os\input\src\os_base\os_task_scheduler.c ****                 &TASK_GROUP_2, /* Task Group */
 508:E:\NeuOrga\Programmieren\c_cpp\github_os\input\src\os_base\os_task_scheduler.c ****                 (unsigned_char_t*)&TASK_STACK[2],/* Task_stack */
 509:E:\NeuOrga\Programmieren\c_cpp\github_os\input\src\os_base\os_task_scheduler.c ****                 200,            /* Stack Size */
 510:E:\NeuOrga\Programmieren\c_cpp\github_os\input\src\os_base\os_task_scheduler.c ****                 ePriviligeMode_unpriviliged_thread_mode, /* Unpriviliged Thread Mode */
 511:E:\NeuOrga\Programmieren\c_cpp\github_os\input\src\os_base\os_task_scheduler.c ****                 Core0,
 512:E:\NeuOrga\Programmieren\c_cpp\github_os\input\src\os_base\os_task_scheduler.c ****                 2                                   /* default prio */
 513:E:\NeuOrga\Programmieren\c_cpp\github_os\input\src\os_base\os_task_scheduler.c ****                );
 514:E:\NeuOrga\Programmieren\c_cpp\github_os\input\src\os_base\os_task_scheduler.c ****    OS_SaveTaskPtr(task_ptr, Task_2_ptr);
 515:E:\NeuOrga\Programmieren\c_cpp\github_os\input\src\os_base\os_task_scheduler.c **** 
 516:E:\NeuOrga\Programmieren\c_cpp\github_os\input\src\os_base\os_task_scheduler.c ****    /* setup worker task */
 517:E:\NeuOrga\Programmieren\c_cpp\github_os\input\src\os_base\os_task_scheduler.c ****    task_ptr = &TASK_3_VAR;
 1189              		.loc 1 517 0
 1190 05a0 174B     		ldr	r3, .L93+48
 1191 05a2 7B60     		str	r3, [r7, #4]
ARM GAS  C:\Users\PRESID~1\AppData\Local\Temp\ccY755Dl.s 			page 31


 518:E:\NeuOrga\Programmieren\c_cpp\github_os\input\src\os_base\os_task_scheduler.c ****    OS_InitTask(task_ptr,      /* task */
 1192              		.loc 1 518 0
 1193 05a4 0323     		movs	r3, #3
 1194 05a6 0593     		str	r3, [sp, #20]
 1195 05a8 0023     		movs	r3, #0
 1196 05aa 0493     		str	r3, [sp, #16]
 1197 05ac 0023     		movs	r3, #0
 1198 05ae 0393     		str	r3, [sp, #12]
 1199 05b0 C823     		movs	r3, #200
 1200 05b2 0293     		str	r3, [sp, #8]
 1201 05b4 134B     		ldr	r3, .L93+52
 1202 05b6 0193     		str	r3, [sp, #4]
 1203 05b8 134B     		ldr	r3, .L93+56
 1204 05ba 0093     		str	r3, [sp]
 1205 05bc 0023     		movs	r3, #0
 1206 05be 0122     		movs	r2, #1
 1207 05c0 1249     		ldr	r1, .L93+60
 1208 05c2 7868     		ldr	r0, [r7, #4]
 1209 05c4 FFF7FEFF 		bl	OS_InitTask
 519:E:\NeuOrga\Programmieren\c_cpp\github_os\input\src\os_base\os_task_scheduler.c ****                 &TASK_3,       /* Task Function*/
 520:E:\NeuOrga\Programmieren\c_cpp\github_os\input\src\os_base\os_task_scheduler.c ****                 1,             /* Nr of allowed instances*/
 521:E:\NeuOrga\Programmieren\c_cpp\github_os\input\src\os_base\os_task_scheduler.c ****                 False,          /* Idle Task */
 522:E:\NeuOrga\Programmieren\c_cpp\github_os\input\src\os_base\os_task_scheduler.c ****                 &TASK_GROUP_3, /* Task Group */
 523:E:\NeuOrga\Programmieren\c_cpp\github_os\input\src\os_base\os_task_scheduler.c ****                 (unsigned_char_t*)&TASK_STACK[3],/* Task_stack */
 524:E:\NeuOrga\Programmieren\c_cpp\github_os\input\src\os_base\os_task_scheduler.c ****                 200,           /* Stack Size */
 525:E:\NeuOrga\Programmieren\c_cpp\github_os\input\src\os_base\os_task_scheduler.c ****                 ePriviligeMode_unpriviliged_thread_mode, /* Unpriviliged Thread Mode */
 526:E:\NeuOrga\Programmieren\c_cpp\github_os\input\src\os_base\os_task_scheduler.c ****                 Core0,
 527:E:\NeuOrga\Programmieren\c_cpp\github_os\input\src\os_base\os_task_scheduler.c ****                 3                                   /* default prio */
 528:E:\NeuOrga\Programmieren\c_cpp\github_os\input\src\os_base\os_task_scheduler.c ****                );
 529:E:\NeuOrga\Programmieren\c_cpp\github_os\input\src\os_base\os_task_scheduler.c ****    OS_SaveTaskPtr(task_ptr, Task_3_ptr);
 530:E:\NeuOrga\Programmieren\c_cpp\github_os\input\src\os_base\os_task_scheduler.c **** }
 1210              		.loc 1 530 0
 1211 05c8 00BF     		nop
 1212 05ca 0837     		adds	r7, r7, #8
 1213              		.cfi_def_cfa_offset 8
 1214 05cc BD46     		mov	sp, r7
 1215              		.cfi_def_cfa_register 13
 1216              		@ sp needed
 1217 05ce 80BD     		pop	{r7, pc}
 1218              	.L94:
 1219              		.align	2
 1220              	.L93:
 1221 05d0 00000000 		.word	LAST_CURRENT_TIME
 1222 05d4 00000000 		.word	TASK_0_VAR
 1223 05d8 00000000 		.word	TASK_STACK
 1224 05dc 00000000 		.word	TASK_GROUP_1
 1225 05e0 00000000 		.word	TASK_0
 1226 05e4 00000000 		.word	TASK_1_VAR
 1227 05e8 D0070000 		.word	TASK_STACK+2000
 1228 05ec 00000000 		.word	TASK_1
 1229 05f0 00000000 		.word	TASK_2_VAR
 1230 05f4 A00F0000 		.word	TASK_STACK+4000
 1231 05f8 00000000 		.word	TASK_GROUP_2
 1232 05fc 00000000 		.word	TASK_2
 1233 0600 00000000 		.word	TASK_3_VAR
 1234 0604 70170000 		.word	TASK_STACK+6000
 1235 0608 00000000 		.word	TASK_GROUP_3
ARM GAS  C:\Users\PRESID~1\AppData\Local\Temp\ccY755Dl.s 			page 32


 1236 060c 00000000 		.word	TASK_3
 1237              		.cfi_endproc
 1238              	.LFE13:
 1240              		.global	__aeabi_ui2d
 1241              		.global	__aeabi_dcmpgt
 1242              		.align	1
 1243              		.syntax unified
 1244              		.thumb
 1245              		.thumb_func
 1246              		.fpu softvfp
 1248              	OS_TaskScheduler:
 1249              	.LFB14:
 531:E:\NeuOrga\Programmieren\c_cpp\github_os\input\src\os_base\os_task_scheduler.c **** 
 532:E:\NeuOrga\Programmieren\c_cpp\github_os\input\src\os_base\os_task_scheduler.c **** 
 533:E:\NeuOrga\Programmieren\c_cpp\github_os\input\src\os_base\os_task_scheduler.c **** Local scheduling_t* OS_TaskScheduler(void)
 534:E:\NeuOrga\Programmieren\c_cpp\github_os\input\src\os_base\os_task_scheduler.c **** {
 1250              		.loc 1 534 0
 1251              		.cfi_startproc
 1252              		@ args = 0, pretend = 0, frame = 24
 1253              		@ frame_needed = 1, uses_anonymous_args = 0
 1254 0610 90B5     		push	{r4, r7, lr}
 1255              		.cfi_def_cfa_offset 12
 1256              		.cfi_offset 4, -12
 1257              		.cfi_offset 7, -8
 1258              		.cfi_offset 14, -4
 1259 0612 87B0     		sub	sp, sp, #28
 1260              		.cfi_def_cfa_offset 40
 1261 0614 00AF     		add	r7, sp, #0
 1262              		.cfi_def_cfa_register 7
 535:E:\NeuOrga\Programmieren\c_cpp\github_os\input\src\os_base\os_task_scheduler.c **** 
 536:E:\NeuOrga\Programmieren\c_cpp\github_os\input\src\os_base\os_task_scheduler.c ****    scheduling_t*    scheduling_queue_member;
 537:E:\NeuOrga\Programmieren\c_cpp\github_os\input\src\os_base\os_task_scheduler.c ****    unsigned_char_t element_nr;
 538:E:\NeuOrga\Programmieren\c_cpp\github_os\input\src\os_base\os_task_scheduler.c **** 
 539:E:\NeuOrga\Programmieren\c_cpp\github_os\input\src\os_base\os_task_scheduler.c ****    unsigned_char_t Winner_prio = 0;
 1263              		.loc 1 539 0
 1264 0616 0023     		movs	r3, #0
 1265 0618 BB75     		strb	r3, [r7, #22]
 540:E:\NeuOrga\Programmieren\c_cpp\github_os\input\src\os_base\os_task_scheduler.c ****    task_t*         task = 0;
 1266              		.loc 1 540 0
 1267 061a 0023     		movs	r3, #0
 1268 061c FB60     		str	r3, [r7, #12]
 541:E:\NeuOrga\Programmieren\c_cpp\github_os\input\src\os_base\os_task_scheduler.c ****    task_t*         Winner_task = 0;
 1269              		.loc 1 541 0
 1270 061e 0023     		movs	r3, #0
 1271 0620 BB60     		str	r3, [r7, #8]
 542:E:\NeuOrga\Programmieren\c_cpp\github_os\input\src\os_base\os_task_scheduler.c ****    scheduling_t*   Winner_scheduling_queue_member = 0;
 1272              		.loc 1 542 0
 1273 0622 0023     		movs	r3, #0
 1274 0624 3B61     		str	r3, [r7, #16]
 543:E:\NeuOrga\Programmieren\c_cpp\github_os\input\src\os_base\os_task_scheduler.c ****    scheduler_time_t delta_time = OS_GetCurrentTime() - LAST_CURRENT_TIME;
 1275              		.loc 1 543 0
 1276 0626 FFF7FEFF 		bl	OS_GetCurrentTime
 1277 062a 0246     		mov	r2, r0
 1278 062c 504B     		ldr	r3, .L111
 1279 062e 1B68     		ldr	r3, [r3]
 1280 0630 D31A     		subs	r3, r2, r3
 1281 0632 7B60     		str	r3, [r7, #4]
ARM GAS  C:\Users\PRESID~1\AppData\Local\Temp\ccY755Dl.s 			page 33


 544:E:\NeuOrga\Programmieren\c_cpp\github_os\input\src\os_base\os_task_scheduler.c **** 
 545:E:\NeuOrga\Programmieren\c_cpp\github_os\input\src\os_base\os_task_scheduler.c ****    LAST_CURRENT_TIME = OS_GetCurrentTime();
 1282              		.loc 1 545 0
 1283 0634 FFF7FEFF 		bl	OS_GetCurrentTime
 1284 0638 0246     		mov	r2, r0
 1285 063a 4D4B     		ldr	r3, .L111
 1286 063c 1A60     		str	r2, [r3]
 546:E:\NeuOrga\Programmieren\c_cpp\github_os\input\src\os_base\os_task_scheduler.c **** 
 547:E:\NeuOrga\Programmieren\c_cpp\github_os\input\src\os_base\os_task_scheduler.c ****    ReferenceUnusedParameter(Winner_task);
 548:E:\NeuOrga\Programmieren\c_cpp\github_os\input\src\os_base\os_task_scheduler.c ****    /*
 549:E:\NeuOrga\Programmieren\c_cpp\github_os\input\src\os_base\os_task_scheduler.c ****    x const for single task: task->default_prio // low = 0,.....high=100
 550:E:\NeuOrga\Programmieren\c_cpp\github_os\input\src\os_base\os_task_scheduler.c ****    x var   for single task: task->current_prio // see prio_std
 551:E:\NeuOrga\Programmieren\c_cpp\github_os\input\src\os_base\os_task_scheduler.c ****    x var   for single task: task->wait_time    //
 552:E:\NeuOrga\Programmieren\c_cpp\github_os\input\src\os_base\os_task_scheduler.c ****    x var   for single task: task->exe_time
 553:E:\NeuOrga\Programmieren\c_cpp\github_os\input\src\os_base\os_task_scheduler.c ****    x const for single task: task->TimeToPrioInc
 554:E:\NeuOrga\Programmieren\c_cpp\github_os\input\src\os_base\os_task_scheduler.c ****    x const for single task: task->max_allowed_wait_time
 555:E:\NeuOrga\Programmieren\c_cpp\github_os\input\src\os_base\os_task_scheduler.c ****    x const for single task: task->min_allowed_wait_time
 556:E:\NeuOrga\Programmieren\c_cpp\github_os\input\src\os_base\os_task_scheduler.c ****    x const for single task: task->overwaittime_per_prio_inc_step //e.g. 100*MinTimeSlice_us
 557:E:\NeuOrga\Programmieren\c_cpp\github_os\input\src\os_base\os_task_scheduler.c ****    x const for single task: task->task_group  //to allow processor access control by groups (e.g. u
 558:E:\NeuOrga\Programmieren\c_cpp\github_os\input\src\os_base\os_task_scheduler.c ****    x const for single task: task->WaitActUntil
 559:E:\NeuOrga\Programmieren\c_cpp\github_os\input\src\os_base\os_task_scheduler.c ****    (task_group is designed to allow proccessor access control between e.g. Customer Software Task a
 560:E:\NeuOrga\Programmieren\c_cpp\github_os\input\src\os_base\os_task_scheduler.c ****    */
 561:E:\NeuOrga\Programmieren\c_cpp\github_os\input\src\os_base\os_task_scheduler.c ****    For_all_tasks_in_queue(element_nr)
 1287              		.loc 1 561 0
 1288 063e 0023     		movs	r3, #0
 1289 0640 FB75     		strb	r3, [r7, #23]
 1290 0642 5DE0     		b	.L96
 1291              	.L104:
 562:E:\NeuOrga\Programmieren\c_cpp\github_os\input\src\os_base\os_task_scheduler.c ****    {
 563:E:\NeuOrga\Programmieren\c_cpp\github_os\input\src\os_base\os_task_scheduler.c ****       scheduling_queue_member = GetFromSchedulingQueue(element_nr);
 1292              		.loc 1 563 0
 1293 0644 FB7D     		ldrb	r3, [r7, #23]	@ zero_extendqisi2
 1294 0646 1846     		mov	r0, r3
 1295 0648 FFF7FEFF 		bl	GetFromSchedulingQueue
 1296 064c 3860     		str	r0, [r7]
 564:E:\NeuOrga\Programmieren\c_cpp\github_os\input\src\os_base\os_task_scheduler.c ****       /*task will have a pointer on the task_obj, and might be equal to "(task_t*) 0" */
 565:E:\NeuOrga\Programmieren\c_cpp\github_os\input\src\os_base\os_task_scheduler.c ****       task             = GetFromTaskQueue(scheduling_queue_member);
 1297              		.loc 1 565 0
 1298 064e 3868     		ldr	r0, [r7]
 1299 0650 FFF7FEFF 		bl	GetFromTaskQueue
 1300 0654 F860     		str	r0, [r7, #12]
 566:E:\NeuOrga\Programmieren\c_cpp\github_os\input\src\os_base\os_task_scheduler.c ****       /* increase prio: high numbers->high prio */
 567:E:\NeuOrga\Programmieren\c_cpp\github_os\input\src\os_base\os_task_scheduler.c ****       if((task != 0)&&(task->task_queued != False))
 1301              		.loc 1 567 0
 1302 0656 FB68     		ldr	r3, [r7, #12]
 1303 0658 002B     		cmp	r3, #0
 1304 065a 4ED0     		beq	.L97
 1305              		.loc 1 567 0 is_stmt 0 discriminator 1
 1306 065c FB68     		ldr	r3, [r7, #12]
 1307 065e 1B78     		ldrb	r3, [r3]	@ zero_extendqisi2
 1308 0660 03F00203 		and	r3, r3, #2
 1309 0664 DBB2     		uxtb	r3, r3
 1310 0666 002B     		cmp	r3, #0
 1311 0668 47D0     		beq	.L97
 568:E:\NeuOrga\Programmieren\c_cpp\github_os\input\src\os_base\os_task_scheduler.c ****       {
 569:E:\NeuOrga\Programmieren\c_cpp\github_os\input\src\os_base\os_task_scheduler.c ****          if(task->wait_time >= task->TimeToPrioInc)
 1312              		.loc 1 569 0 is_stmt 1
ARM GAS  C:\Users\PRESID~1\AppData\Local\Temp\ccY755Dl.s 			page 34


 1313 066a FB68     		ldr	r3, [r7, #12]
 1314 066c DA68     		ldr	r2, [r3, #12]
 1315 066e FB68     		ldr	r3, [r7, #12]
 1316 0670 1B69     		ldr	r3, [r3, #16]
 1317 0672 9A42     		cmp	r2, r3
 1318 0674 0AD3     		bcc	.L98
 570:E:\NeuOrga\Programmieren\c_cpp\github_os\input\src\os_base\os_task_scheduler.c ****          {
 571:E:\NeuOrga\Programmieren\c_cpp\github_os\input\src\os_base\os_task_scheduler.c ****             task->current_prio = task->current_prio + task->overwaittime_per_prio_inc_step;
 1319              		.loc 1 571 0
 1320 0676 FB68     		ldr	r3, [r7, #12]
 1321 0678 93F82420 		ldrb	r2, [r3, #36]	@ zero_extendqisi2
 1322 067c FB68     		ldr	r3, [r7, #12]
 1323 067e 5B69     		ldr	r3, [r3, #20]
 1324 0680 DBB2     		uxtb	r3, r3
 1325 0682 1344     		add	r3, r3, r2
 1326 0684 DAB2     		uxtb	r2, r3
 1327 0686 FB68     		ldr	r3, [r7, #12]
 1328 0688 83F82420 		strb	r2, [r3, #36]
 1329              	.L98:
 572:E:\NeuOrga\Programmieren\c_cpp\github_os\input\src\os_base\os_task_scheduler.c ****          }
 573:E:\NeuOrga\Programmieren\c_cpp\github_os\input\src\os_base\os_task_scheduler.c ****          /* in case wait condition not yet fulfilled, set prio to 0 */
 574:E:\NeuOrga\Programmieren\c_cpp\github_os\input\src\os_base\os_task_scheduler.c ****          if(task->WaitActUntil > OS_GetCurrentTime())
 1330              		.loc 1 574 0
 1331 068c FB68     		ldr	r3, [r7, #12]
 1332 068e 9C68     		ldr	r4, [r3, #8]
 1333 0690 FFF7FEFF 		bl	OS_GetCurrentTime
 1334 0694 0346     		mov	r3, r0
 1335 0696 9C42     		cmp	r4, r3
 1336 0698 03D9     		bls	.L99
 575:E:\NeuOrga\Programmieren\c_cpp\github_os\input\src\os_base\os_task_scheduler.c ****          {
 576:E:\NeuOrga\Programmieren\c_cpp\github_os\input\src\os_base\os_task_scheduler.c ****             task->current_prio = 0;
 1337              		.loc 1 576 0
 1338 069a FB68     		ldr	r3, [r7, #12]
 1339 069c 0022     		movs	r2, #0
 1340 069e 83F82420 		strb	r2, [r3, #36]
 1341              	.L99:
 577:E:\NeuOrga\Programmieren\c_cpp\github_os\input\src\os_base\os_task_scheduler.c ****          }
 578:E:\NeuOrga\Programmieren\c_cpp\github_os\input\src\os_base\os_task_scheduler.c ****          if(task->wait_time > task->max_allowed_wait_time)
 1342              		.loc 1 578 0
 1343 06a2 FB68     		ldr	r3, [r7, #12]
 1344 06a4 DA68     		ldr	r2, [r3, #12]
 1345 06a6 FB68     		ldr	r3, [r7, #12]
 1346 06a8 9B69     		ldr	r3, [r3, #24]
 1347 06aa 9A42     		cmp	r2, r3
 1348 06ac 03D9     		bls	.L100
 579:E:\NeuOrga\Programmieren\c_cpp\github_os\input\src\os_base\os_task_scheduler.c ****          {
 580:E:\NeuOrga\Programmieren\c_cpp\github_os\input\src\os_base\os_task_scheduler.c ****             /* set bug */
 581:E:\NeuOrga\Programmieren\c_cpp\github_os\input\src\os_base\os_task_scheduler.c ****             OS_SetSwBug(os_bug_task_max_wait_time_reached, Func_TaskScheduler);
 1349              		.loc 1 581 0
 1350 06ae 0821     		movs	r1, #8
 1351 06b0 0320     		movs	r0, #3
 1352 06b2 FFF7FEFF 		bl	OS_SetSwBug
 1353              	.L100:
 582:E:\NeuOrga\Programmieren\c_cpp\github_os\input\src\os_base\os_task_scheduler.c ****          }
 583:E:\NeuOrga\Programmieren\c_cpp\github_os\input\src\os_base\os_task_scheduler.c ****          /* not active TASK_RUN_QUEUE elements have no valid task_group!!*/
 584:E:\NeuOrga\Programmieren\c_cpp\github_os\input\src\os_base\os_task_scheduler.c ****          if(task->task_group!=0)
 1354              		.loc 1 584 0
ARM GAS  C:\Users\PRESID~1\AppData\Local\Temp\ccY755Dl.s 			page 35


 1355 06b6 FB68     		ldr	r3, [r7, #12]
 1356 06b8 9B6B     		ldr	r3, [r3, #56]
 1357 06ba 002B     		cmp	r3, #0
 1358 06bc 19D0     		beq	.L101
 585:E:\NeuOrga\Programmieren\c_cpp\github_os\input\src\os_base\os_task_scheduler.c ****          {
 586:E:\NeuOrga\Programmieren\c_cpp\github_os\input\src\os_base\os_task_scheduler.c ****             /* usage the exe time for scheduling strategy */
 587:E:\NeuOrga\Programmieren\c_cpp\github_os\input\src\os_base\os_task_scheduler.c ****             if(task->task_group->exe_time > task->task_group->fair_exe_time)
 1359              		.loc 1 587 0
 1360 06be FB68     		ldr	r3, [r7, #12]
 1361 06c0 9B6B     		ldr	r3, [r3, #56]
 1362 06c2 1A68     		ldr	r2, [r3]
 1363 06c4 FB68     		ldr	r3, [r7, #12]
 1364 06c6 9B6B     		ldr	r3, [r3, #56]
 1365 06c8 5B68     		ldr	r3, [r3, #4]
 1366 06ca 9A42     		cmp	r2, r3
 1367 06cc 15D9     		bls	.L97
 588:E:\NeuOrga\Programmieren\c_cpp\github_os\input\src\os_base\os_task_scheduler.c ****             {
 589:E:\NeuOrga\Programmieren\c_cpp\github_os\input\src\os_base\os_task_scheduler.c ****                if(task->exe_time > Task_min_time)/* guarantee min time */
 1368              		.loc 1 589 0
 1369 06ce FB68     		ldr	r3, [r7, #12]
 1370 06d0 DB69     		ldr	r3, [r3, #28]
 1371 06d2 1846     		mov	r0, r3
 1372 06d4 FFF7FEFF 		bl	__aeabi_ui2d
 1373              	.LVL6:
 1374 06d8 4FF00002 		mov	r2, #0
 1375 06dc 254B     		ldr	r3, .L111+4
 1376 06de FFF7FEFF 		bl	__aeabi_dcmpgt
 1377              	.LVL7:
 1378 06e2 0346     		mov	r3, r0
 1379 06e4 002B     		cmp	r3, #0
 1380 06e6 08D0     		beq	.L97
 590:E:\NeuOrga\Programmieren\c_cpp\github_os\input\src\os_base\os_task_scheduler.c ****                {
 591:E:\NeuOrga\Programmieren\c_cpp\github_os\input\src\os_base\os_task_scheduler.c ****                   task->current_prio = 0;
 1381              		.loc 1 591 0
 1382 06e8 FB68     		ldr	r3, [r7, #12]
 1383 06ea 0022     		movs	r2, #0
 1384 06ec 83F82420 		strb	r2, [r3, #36]
 1385 06f0 03E0     		b	.L97
 1386              	.L101:
 592:E:\NeuOrga\Programmieren\c_cpp\github_os\input\src\os_base\os_task_scheduler.c **** 
 593:E:\NeuOrga\Programmieren\c_cpp\github_os\input\src\os_base\os_task_scheduler.c ****                }
 594:E:\NeuOrga\Programmieren\c_cpp\github_os\input\src\os_base\os_task_scheduler.c ****             }
 595:E:\NeuOrga\Programmieren\c_cpp\github_os\input\src\os_base\os_task_scheduler.c ****          }
 596:E:\NeuOrga\Programmieren\c_cpp\github_os\input\src\os_base\os_task_scheduler.c ****          else
 597:E:\NeuOrga\Programmieren\c_cpp\github_os\input\src\os_base\os_task_scheduler.c ****          {
 598:E:\NeuOrga\Programmieren\c_cpp\github_os\input\src\os_base\os_task_scheduler.c ****             OS_SetSwBug(os_bug_null_pointer, Func_TaskScheduler);
 1387              		.loc 1 598 0
 1388 06f2 0821     		movs	r1, #8
 1389 06f4 0220     		movs	r0, #2
 1390 06f6 FFF7FEFF 		bl	OS_SetSwBug
 1391              	.L97:
 561:E:\NeuOrga\Programmieren\c_cpp\github_os\input\src\os_base\os_task_scheduler.c ****    {
 1392              		.loc 1 561 0 discriminator 2
 1393 06fa FB7D     		ldrb	r3, [r7, #23]	@ zero_extendqisi2
 1394 06fc 0133     		adds	r3, r3, #1
 1395 06fe FB75     		strb	r3, [r7, #23]
 1396              	.L96:
ARM GAS  C:\Users\PRESID~1\AppData\Local\Temp\ccY755Dl.s 			page 36


 561:E:\NeuOrga\Programmieren\c_cpp\github_os\input\src\os_base\os_task_scheduler.c ****    {
 1397              		.loc 1 561 0 is_stmt 0 discriminator 1
 1398 0700 FB7D     		ldrb	r3, [r7, #23]	@ zero_extendqisi2
 1399 0702 092B     		cmp	r3, #9
 1400 0704 9ED9     		bls	.L104
 599:E:\NeuOrga\Programmieren\c_cpp\github_os\input\src\os_base\os_task_scheduler.c ****          }
 600:E:\NeuOrga\Programmieren\c_cpp\github_os\input\src\os_base\os_task_scheduler.c ****       }
 601:E:\NeuOrga\Programmieren\c_cpp\github_os\input\src\os_base\os_task_scheduler.c ****       /* do not set bug, because task =0 is used for empty queue elements
 602:E:\NeuOrga\Programmieren\c_cpp\github_os\input\src\os_base\os_task_scheduler.c ****       else
 603:E:\NeuOrga\Programmieren\c_cpp\github_os\input\src\os_base\os_task_scheduler.c ****       {
 604:E:\NeuOrga\Programmieren\c_cpp\github_os\input\src\os_base\os_task_scheduler.c ****           OS_SetSwBug(os_bug_null_pointer, Func_TaskScheduler);
 605:E:\NeuOrga\Programmieren\c_cpp\github_os\input\src\os_base\os_task_scheduler.c ****       }
 606:E:\NeuOrga\Programmieren\c_cpp\github_os\input\src\os_base\os_task_scheduler.c ****       */
 607:E:\NeuOrga\Programmieren\c_cpp\github_os\input\src\os_base\os_task_scheduler.c ****    }
 608:E:\NeuOrga\Programmieren\c_cpp\github_os\input\src\os_base\os_task_scheduler.c ****    For_all_tasks_in_queue(element_nr)
 1401              		.loc 1 608 0 is_stmt 1
 1402 0706 0023     		movs	r3, #0
 1403 0708 FB75     		strb	r3, [r7, #23]
 1404 070a 29E0     		b	.L105
 1405              	.L108:
 609:E:\NeuOrga\Programmieren\c_cpp\github_os\input\src\os_base\os_task_scheduler.c ****    {
 610:E:\NeuOrga\Programmieren\c_cpp\github_os\input\src\os_base\os_task_scheduler.c ****       scheduling_queue_member = GetFromSchedulingQueue(element_nr);
 1406              		.loc 1 610 0
 1407 070c FB7D     		ldrb	r3, [r7, #23]	@ zero_extendqisi2
 1408 070e 1846     		mov	r0, r3
 1409 0710 FFF7FEFF 		bl	GetFromSchedulingQueue
 1410 0714 3860     		str	r0, [r7]
 611:E:\NeuOrga\Programmieren\c_cpp\github_os\input\src\os_base\os_task_scheduler.c ****       task             = GetFromTaskQueue(scheduling_queue_member);
 1411              		.loc 1 611 0
 1412 0716 3868     		ldr	r0, [r7]
 1413 0718 FFF7FEFF 		bl	GetFromTaskQueue
 1414 071c F860     		str	r0, [r7, #12]
 612:E:\NeuOrga\Programmieren\c_cpp\github_os\input\src\os_base\os_task_scheduler.c ****       if(task != 0)
 1415              		.loc 1 612 0
 1416 071e FB68     		ldr	r3, [r7, #12]
 1417 0720 002B     		cmp	r3, #0
 1418 0722 1AD0     		beq	.L106
 613:E:\NeuOrga\Programmieren\c_cpp\github_os\input\src\os_base\os_task_scheduler.c ****       {
 614:E:\NeuOrga\Programmieren\c_cpp\github_os\input\src\os_base\os_task_scheduler.c ****          /*update wait time */
 615:E:\NeuOrga\Programmieren\c_cpp\github_os\input\src\os_base\os_task_scheduler.c ****          if(task->IdleTask != True)
 1419              		.loc 1 615 0
 1420 0724 FB68     		ldr	r3, [r7, #12]
 1421 0726 1B78     		ldrb	r3, [r3]	@ zero_extendqisi2
 1422 0728 03F00403 		and	r3, r3, #4
 1423 072c DBB2     		uxtb	r3, r3
 1424 072e 002B     		cmp	r3, #0
 1425 0730 05D1     		bne	.L107
 616:E:\NeuOrga\Programmieren\c_cpp\github_os\input\src\os_base\os_task_scheduler.c ****          {
 617:E:\NeuOrga\Programmieren\c_cpp\github_os\input\src\os_base\os_task_scheduler.c ****             task->wait_time += delta_time;
 1426              		.loc 1 617 0
 1427 0732 FB68     		ldr	r3, [r7, #12]
 1428 0734 DA68     		ldr	r2, [r3, #12]
 1429 0736 7B68     		ldr	r3, [r7, #4]
 1430 0738 1A44     		add	r2, r2, r3
 1431 073a FB68     		ldr	r3, [r7, #12]
 1432 073c DA60     		str	r2, [r3, #12]
 1433              	.L107:
ARM GAS  C:\Users\PRESID~1\AppData\Local\Temp\ccY755Dl.s 			page 37


 618:E:\NeuOrga\Programmieren\c_cpp\github_os\input\src\os_base\os_task_scheduler.c ****          }
 619:E:\NeuOrga\Programmieren\c_cpp\github_os\input\src\os_base\os_task_scheduler.c ****          /* search for task with highest prio and assign it to Winner_task */
 620:E:\NeuOrga\Programmieren\c_cpp\github_os\input\src\os_base\os_task_scheduler.c ****          if(task->current_prio > Winner_prio)
 1434              		.loc 1 620 0
 1435 073e FB68     		ldr	r3, [r7, #12]
 1436 0740 93F82430 		ldrb	r3, [r3, #36]	@ zero_extendqisi2
 1437 0744 BA7D     		ldrb	r2, [r7, #22]	@ zero_extendqisi2
 1438 0746 9A42     		cmp	r2, r3
 1439 0748 07D2     		bcs	.L106
 621:E:\NeuOrga\Programmieren\c_cpp\github_os\input\src\os_base\os_task_scheduler.c ****          {
 622:E:\NeuOrga\Programmieren\c_cpp\github_os\input\src\os_base\os_task_scheduler.c ****             Winner_prio = task->current_prio;
 1440              		.loc 1 622 0
 1441 074a FB68     		ldr	r3, [r7, #12]
 1442 074c 93F82430 		ldrb	r3, [r3, #36]
 1443 0750 BB75     		strb	r3, [r7, #22]
 623:E:\NeuOrga\Programmieren\c_cpp\github_os\input\src\os_base\os_task_scheduler.c ****             Winner_task = task;
 1444              		.loc 1 623 0
 1445 0752 FB68     		ldr	r3, [r7, #12]
 1446 0754 BB60     		str	r3, [r7, #8]
 624:E:\NeuOrga\Programmieren\c_cpp\github_os\input\src\os_base\os_task_scheduler.c ****             Winner_scheduling_queue_member = scheduling_queue_member;
 1447              		.loc 1 624 0
 1448 0756 3B68     		ldr	r3, [r7]
 1449 0758 3B61     		str	r3, [r7, #16]
 1450              	.L106:
 608:E:\NeuOrga\Programmieren\c_cpp\github_os\input\src\os_base\os_task_scheduler.c ****    {
 1451              		.loc 1 608 0 discriminator 2
 1452 075a FB7D     		ldrb	r3, [r7, #23]	@ zero_extendqisi2
 1453 075c 0133     		adds	r3, r3, #1
 1454 075e FB75     		strb	r3, [r7, #23]
 1455              	.L105:
 608:E:\NeuOrga\Programmieren\c_cpp\github_os\input\src\os_base\os_task_scheduler.c ****    {
 1456              		.loc 1 608 0 is_stmt 0 discriminator 1
 1457 0760 FB7D     		ldrb	r3, [r7, #23]	@ zero_extendqisi2
 1458 0762 092B     		cmp	r3, #9
 1459 0764 D2D9     		bls	.L108
 625:E:\NeuOrga\Programmieren\c_cpp\github_os\input\src\os_base\os_task_scheduler.c ****          }
 626:E:\NeuOrga\Programmieren\c_cpp\github_os\input\src\os_base\os_task_scheduler.c **** 
 627:E:\NeuOrga\Programmieren\c_cpp\github_os\input\src\os_base\os_task_scheduler.c ****       }
 628:E:\NeuOrga\Programmieren\c_cpp\github_os\input\src\os_base\os_task_scheduler.c ****       /* do not set bug, because task =0 is used for empty queue elements
 629:E:\NeuOrga\Programmieren\c_cpp\github_os\input\src\os_base\os_task_scheduler.c ****       else
 630:E:\NeuOrga\Programmieren\c_cpp\github_os\input\src\os_base\os_task_scheduler.c ****       {
 631:E:\NeuOrga\Programmieren\c_cpp\github_os\input\src\os_base\os_task_scheduler.c ****           OS_SetSwBug(os_bug_null_pointer, Func_TaskScheduler);
 632:E:\NeuOrga\Programmieren\c_cpp\github_os\input\src\os_base\os_task_scheduler.c ****       }
 633:E:\NeuOrga\Programmieren\c_cpp\github_os\input\src\os_base\os_task_scheduler.c ****       */
 634:E:\NeuOrga\Programmieren\c_cpp\github_os\input\src\os_base\os_task_scheduler.c ****    }
 635:E:\NeuOrga\Programmieren\c_cpp\github_os\input\src\os_base\os_task_scheduler.c ****    return Winner_scheduling_queue_member;
 1460              		.loc 1 635 0 is_stmt 1
 1461 0766 3B69     		ldr	r3, [r7, #16]
 636:E:\NeuOrga\Programmieren\c_cpp\github_os\input\src\os_base\os_task_scheduler.c **** }
 1462              		.loc 1 636 0
 1463 0768 1846     		mov	r0, r3
 1464 076a 1C37     		adds	r7, r7, #28
 1465              		.cfi_def_cfa_offset 12
 1466 076c BD46     		mov	sp, r7
 1467              		.cfi_def_cfa_register 13
 1468              		@ sp needed
 1469 076e 90BD     		pop	{r4, r7, pc}
ARM GAS  C:\Users\PRESID~1\AppData\Local\Temp\ccY755Dl.s 			page 38


 1470              	.L112:
 1471              		.align	2
 1472              	.L111:
 1473 0770 00000000 		.word	LAST_CURRENT_TIME
 1474 0774 0000F03F 		.word	1072693248
 1475              		.cfi_endproc
 1476              	.LFE14:
 1478              	.Letext0:
 1479              		.file 2 "e:\\neuorga\\programmieren\\c_cpp\\github_os\\input\\src\\os_base\\os_base_types.h"
 1480              		.file 3 "e:\\neuorga\\programmieren\\c_cpp\\github_os\\input\\src\\os_base\\os_common.h"
 1481              		.file 4 "e:\\neuorga\\programmieren\\c_cpp\\github_os\\input\\src\\os_drivers\\lld_core.h"
 1482              		.file 5 "e:\\neuorga\\programmieren\\c_cpp\\github_os\\input\\src\\os_base\\os_task_common.h"
 1483              		.file 6 "e:\\neuorga\\programmieren\\c_cpp\\github_os\\input\\src\\os_base\\os_ram.h"
 1484              		.file 7 "E:\\NeuOrga\\Programmieren\\c_cpp\\github_os\\input\\src\\os_base\\os_task_scheduler.h"
ARM GAS  C:\Users\PRESID~1\AppData\Local\Temp\ccY755Dl.s 			page 39


DEFINED SYMBOLS
                            *ABS*:00000000 os_task_scheduler.c
C:\Users\PRESID~1\AppData\Local\Temp\ccY755Dl.s:15     .text:00000000 $t
C:\Users\PRESID~1\AppData\Local\Temp\ccY755Dl.s:22     .text:00000000 OS_ActivateDispatcher
C:\Users\PRESID~1\AppData\Local\Temp\ccY755Dl.s:65     .text:00000034 $d
C:\Users\PRESID~1\AppData\Local\Temp\ccY755Dl.s:71     .text:00000040 $t
C:\Users\PRESID~1\AppData\Local\Temp\ccY755Dl.s:78     .text:00000040 OS_SleepTask
C:\Users\PRESID~1\AppData\Local\Temp\ccY755Dl.s:119    .text:00000060 task_state_request
C:\Users\PRESID~1\AppData\Local\Temp\ccY755Dl.s:150    .text:00000080 $d
C:\Users\PRESID~1\AppData\Local\Temp\ccY755Dl.s:154    .text:00000090 $t
C:\Users\PRESID~1\AppData\Local\Temp\ccY755Dl.s:312    .text:00000156 OS_CreateTask
C:\Users\PRESID~1\AppData\Local\Temp\ccY755Dl.s:383    .text:000001a0 OS_PreemptTask
C:\Users\PRESID~1\AppData\Local\Temp\ccY755Dl.s:490    .text:00000240 $d
C:\Users\PRESID~1\AppData\Local\Temp\ccY755Dl.s:494    .text:00000244 $t
C:\Users\PRESID~1\AppData\Local\Temp\ccY755Dl.s:501    .text:00000244 OS_ActivateTask
C:\Users\PRESID~1\AppData\Local\Temp\ccY755Dl.s:609    .text:000002d4 OS_StartTask
C:\Users\PRESID~1\AppData\Local\Temp\ccY755Dl.s:745    .text:000003a8 $d
C:\Users\PRESID~1\AppData\Local\Temp\ccY755Dl.s:749    .text:000003ac $t
C:\Users\PRESID~1\AppData\Local\Temp\ccY755Dl.s:756    .text:000003ac OS_TerminateTask
C:\Users\PRESID~1\AppData\Local\Temp\ccY755Dl.s:863    .text:0000044c $d
C:\Users\PRESID~1\AppData\Local\Temp\ccY755Dl.s:867    .text:00000450 $t
C:\Users\PRESID~1\AppData\Local\Temp\ccY755Dl.s:874    .text:00000450 OS_TaskDispatcher
C:\Users\PRESID~1\AppData\Local\Temp\ccY755Dl.s:1248   .text:00000610 OS_TaskScheduler
C:\Users\PRESID~1\AppData\Local\Temp\ccY755Dl.s:952    .text:000004aa TASK_0
C:\Users\PRESID~1\AppData\Local\Temp\ccY755Dl.s:986    .text:000004be TASK_1
C:\Users\PRESID~1\AppData\Local\Temp\ccY755Dl.s:1017   .text:000004dc $d
C:\Users\PRESID~1\AppData\Local\Temp\ccY755Dl.s:1021   .text:000004e0 $t
C:\Users\PRESID~1\AppData\Local\Temp\ccY755Dl.s:1027   .text:000004e0 TASK_2
C:\Users\PRESID~1\AppData\Local\Temp\ccY755Dl.s:1054   .text:000004f4 $d
C:\Users\PRESID~1\AppData\Local\Temp\ccY755Dl.s:1058   .text:000004f8 $t
C:\Users\PRESID~1\AppData\Local\Temp\ccY755Dl.s:1064   .text:000004f8 TASK_3
C:\Users\PRESID~1\AppData\Local\Temp\ccY755Dl.s:1091   .text:0000050c $d
C:\Users\PRESID~1\AppData\Local\Temp\ccY755Dl.s:1095   .text:00000510 $t
C:\Users\PRESID~1\AppData\Local\Temp\ccY755Dl.s:1102   .text:00000510 OS_InitTasks
C:\Users\PRESID~1\AppData\Local\Temp\ccY755Dl.s:1221   .text:000005d0 $d
C:\Users\PRESID~1\AppData\Local\Temp\ccY755Dl.s:1242   .text:00000610 $t
C:\Users\PRESID~1\AppData\Local\Temp\ccY755Dl.s:1473   .text:00000770 $d
                           .group:00000000 wm4.0.aa75c0738974a382baf71fbad152c229
                           .group:00000000 wm4.os_base_types.h.2.f3c0267f175f5cbacca6b71710665a02
                           .group:00000000 wm4.os_common.h.2.c6c04bcf238b83a2cba2b703b96f6544
                           .group:00000000 wm4.os_task_config.h.2.a73335dbec9f276504b3b94e79d1d898
                           .group:00000000 wm4.os_task_common.h.95.eb4fc951d6d8ca08a3f35501d742a960
                           .group:00000000 wm4.os_stack.h.2.6c90615f258321a46ef9203bf6ef5141
                           .group:00000000 wm4.os_heap.h.2.89074aae455d2462b5952479e3530dd1
                           .group:00000000 wm4.os_main.h.2.1f66ae3841c27bd36097fa1d2e1fe6a7
                           .group:00000000 wm4.os_task_scheduler.h.2.125feba674fa85672711aed1ca8ea199
                           .group:00000000 wm4.os_task_queue.h.2.9428c7964838a07bb4b1cac6c50ee9b2

UNDEFINED SYMBOLS
OS_GetCurrentTime
OS_SetSwBug
LLF_INT_DISABLE
OS_TaskSaveTaskEnvironment
OS_GetCoreId
OS_TASK_RESTORE_SYSTEM_STACK
DeleteFromTaskQueue
DeleteFromSchedulingQueue
ARM GAS  C:\Users\PRESID~1\AppData\Local\Temp\ccY755Dl.s 			page 40


LLF_INT_ENABLE
OS_STACK
AddToTaskQueue
AddToSchedulingQueue
AddToIdleTaskQueue
OS_TASK_SAVE_SYSTEM_STACK
OS_TASK_RESTORETASK_ENVIRONMENT
SET_RUNNING_TASK
LLF_CHANGE_TO_UNPRIVILIGED_THREAD_MODE
GetRunningTask
GetRunningSchedulingQueueElementPtr
GetFromTaskQueue
LLF_WAIT_FOR_INTERRUPT
TASK1_CALL_NR
TASK2_CALL_NR
TASK3_CALL_NR
OS_InitTaskQueue
OS_InitTask
LAST_CURRENT_TIME
TASK_0_VAR
TASK_STACK
TASK_GROUP_1
TASK_1_VAR
TASK_2_VAR
TASK_GROUP_2
TASK_3_VAR
TASK_GROUP_3
__aeabi_ui2d
__aeabi_dcmpgt
GetFromSchedulingQueue
