ARM GAS  C:\Users\PRESID~1\AppData\Local\Temp\ccAgDin9.s 			page 1


   1              		.cpu cortex-m4
   2              		.eabi_attribute 20, 1
   3              		.eabi_attribute 21, 1
   4              		.eabi_attribute 23, 3
   5              		.eabi_attribute 24, 1
   6              		.eabi_attribute 25, 1
   7              		.eabi_attribute 26, 1
   8              		.eabi_attribute 30, 6
   9              		.eabi_attribute 34, 1
  10              		.eabi_attribute 18, 4
  11              		.file	"os_task_queue.c"
  12              		.text
  13              	.Ltext0:
  14              		.cfi_sections	.debug_frame
  15              		.align	1
  16              		.global	SET_RUNNING_TASK
  17              		.syntax unified
  18              		.thumb
  19              		.thumb_func
  20              		.fpu softvfp
  22              	SET_RUNNING_TASK:
  23              	.LFB0:
  24              		.file 1 "E:\\NeuOrga\\Programmieren\\c_cpp\\github_os\\input\\src\\os_base\\os_task_queue.c"
   1:E:\NeuOrga\Programmieren\c_cpp\github_os\input\src\os_base\os_task_queue.c **** #include "os_firstinc.h"
   2:E:\NeuOrga\Programmieren\c_cpp\github_os\input\src\os_base\os_task_queue.c **** #include "os_task_common.h"
   3:E:\NeuOrga\Programmieren\c_cpp\github_os\input\src\os_base\os_task_queue.c **** #include "os_task_queue.h"
   4:E:\NeuOrga\Programmieren\c_cpp\github_os\input\src\os_base\os_task_queue.c **** #include "os_task_scheduler.h"
   5:E:\NeuOrga\Programmieren\c_cpp\github_os\input\src\os_base\os_task_queue.c **** 
   6:E:\NeuOrga\Programmieren\c_cpp\github_os\input\src\os_base\os_task_queue.c **** 
   7:E:\NeuOrga\Programmieren\c_cpp\github_os\input\src\os_base\os_task_queue.c **** 
   8:E:\NeuOrga\Programmieren\c_cpp\github_os\input\src\os_base\os_task_queue.c **** 
   9:E:\NeuOrga\Programmieren\c_cpp\github_os\input\src\os_base\os_task_queue.c **** 
  10:E:\NeuOrga\Programmieren\c_cpp\github_os\input\src\os_base\os_task_queue.c **** /* index 0: current task, 1,2,3,4: next tasks to be executed */
  11:E:\NeuOrga\Programmieren\c_cpp\github_os\input\src\os_base\os_task_queue.c **** /*
  12:E:\NeuOrga\Programmieren\c_cpp\github_os\input\src\os_base\os_task_queue.c **** 1. after execution of task finished(OS_TERMINATE_TASK):
  13:E:\NeuOrga\Programmieren\c_cpp\github_os\input\src\os_base\os_task_queue.c ****  - delete run_queue_element         (DeleteFromTaskQueue)
  14:E:\NeuOrga\Programmieren\c_cpp\github_os\input\src\os_base\os_task_queue.c ****  - delete link in link_list         (DeleteFromPointerQueue)
  15:E:\NeuOrga\Programmieren\c_cpp\github_os\input\src\os_base\os_task_queue.c ****  - shift pointers towards index 0   (UpdatePointerQueue)
  16:E:\NeuOrga\Programmieren\c_cpp\github_os\input\src\os_base\os_task_queue.c **** 
  17:E:\NeuOrga\Programmieren\c_cpp\github_os\input\src\os_base\os_task_queue.c **** 
  18:E:\NeuOrga\Programmieren\c_cpp\github_os\input\src\os_base\os_task_queue.c ****  2. to add new task (ActivateTask):
  19:E:\NeuOrga\Programmieren\c_cpp\github_os\input\src\os_base\os_task_queue.c ****  - add element to run_queue at first free element (AddToTaskQueue)
  20:E:\NeuOrga\Programmieren\c_cpp\github_os\input\src\os_base\os_task_queue.c ****  - add a link in the link_list at the end         (AddToPointerQueue)
  21:E:\NeuOrga\Programmieren\c_cpp\github_os\input\src\os_base\os_task_queue.c **** 
  22:E:\NeuOrga\Programmieren\c_cpp\github_os\input\src\os_base\os_task_queue.c ****  3. to start task:
  23:E:\NeuOrga\Programmieren\c_cpp\github_os\input\src\os_base\os_task_queue.c **** - start the task at index = 0                     (GetFromTaskQueue)
  24:E:\NeuOrga\Programmieren\c_cpp\github_os\input\src\os_base\os_task_queue.c **** 
  25:E:\NeuOrga\Programmieren\c_cpp\github_os\input\src\os_base\os_task_queue.c ****  4. to preempt task:
  26:E:\NeuOrga\Programmieren\c_cpp\github_os\input\src\os_base\os_task_queue.c **** - take element of index = 0 of linklist and save it somewhere else  (UpdatePointerQueue)
  27:E:\NeuOrga\Programmieren\c_cpp\github_os\input\src\os_base\os_task_queue.c **** - shift all entries in linklist to 0 by 1                           (UpdatePointerQueue)
  28:E:\NeuOrga\Programmieren\c_cpp\github_os\input\src\os_base\os_task_queue.c **** - add saved element at first free entry in linklist                 (UpdatePointerQueue)
  29:E:\NeuOrga\Programmieren\c_cpp\github_os\input\src\os_base\os_task_queue.c **** - eliminate empty link entries                                      (UpdatePointerQueue)
  30:E:\NeuOrga\Programmieren\c_cpp\github_os\input\src\os_base\os_task_queue.c ****  */
  31:E:\NeuOrga\Programmieren\c_cpp\github_os\input\src\os_base\os_task_queue.c **** 
  32:E:\NeuOrga\Programmieren\c_cpp\github_os\input\src\os_base\os_task_queue.c **** 
  33:E:\NeuOrga\Programmieren\c_cpp\github_os\input\src\os_base\os_task_queue.c **** void SET_RUNNING_TASK(task_t* task)
  34:E:\NeuOrga\Programmieren\c_cpp\github_os\input\src\os_base\os_task_queue.c **** {
ARM GAS  C:\Users\PRESID~1\AppData\Local\Temp\ccAgDin9.s 			page 2


  25              		.loc 1 34 0
  26              		.cfi_startproc
  27              		@ args = 0, pretend = 0, frame = 8
  28              		@ frame_needed = 1, uses_anonymous_args = 0
  29              		@ link register save eliminated.
  30 0000 80B4     		push	{r7}
  31              		.cfi_def_cfa_offset 4
  32              		.cfi_offset 7, -4
  33 0002 83B0     		sub	sp, sp, #12
  34              		.cfi_def_cfa_offset 16
  35 0004 00AF     		add	r7, sp, #0
  36              		.cfi_def_cfa_register 7
  37 0006 7860     		str	r0, [r7, #4]
  35:E:\NeuOrga\Programmieren\c_cpp\github_os\input\src\os_base\os_task_queue.c ****    if(task != 0)
  38              		.loc 1 35 0
  39 0008 7B68     		ldr	r3, [r7, #4]
  40 000a 002B     		cmp	r3, #0
  41 000c 00F0B380 		beq	.L3
  36:E:\NeuOrga\Programmieren\c_cpp\github_os\input\src\os_base\os_task_queue.c ****    {
  37:E:\NeuOrga\Programmieren\c_cpp\github_os\input\src\os_base\os_task_queue.c ****       (&RUNNING_TASK[0])->active                          = task->active;
  42              		.loc 1 37 0
  43 0010 7B68     		ldr	r3, [r7, #4]
  44 0012 1B78     		ldrb	r3, [r3]
  45 0014 C3F30003 		ubfx	r3, r3, #0, #1
  46 0018 D9B2     		uxtb	r1, r3
  47 001a 594A     		ldr	r2, .L4
  48 001c 1378     		ldrb	r3, [r2]
  49 001e 61F30003 		bfi	r3, r1, #0, #1
  50 0022 1370     		strb	r3, [r2]
  38:E:\NeuOrga\Programmieren\c_cpp\github_os\input\src\os_base\os_task_queue.c ****       (&RUNNING_TASK[0])->task_queued                     = task->task_queued;
  51              		.loc 1 38 0
  52 0024 7B68     		ldr	r3, [r7, #4]
  53 0026 1B78     		ldrb	r3, [r3]
  54 0028 C3F34003 		ubfx	r3, r3, #1, #1
  55 002c D9B2     		uxtb	r1, r3
  56 002e 544A     		ldr	r2, .L4
  57 0030 1378     		ldrb	r3, [r2]
  58 0032 61F34103 		bfi	r3, r1, #1, #1
  59 0036 1370     		strb	r3, [r2]
  39:E:\NeuOrga\Programmieren\c_cpp\github_os\input\src\os_base\os_task_queue.c ****       (&RUNNING_TASK[0])->IdleTask                        = task->IdleTask;
  60              		.loc 1 39 0
  61 0038 7B68     		ldr	r3, [r7, #4]
  62 003a 1B78     		ldrb	r3, [r3]
  63 003c C3F38003 		ubfx	r3, r3, #2, #1
  64 0040 D9B2     		uxtb	r1, r3
  65 0042 4F4A     		ldr	r2, .L4
  66 0044 1378     		ldrb	r3, [r2]
  67 0046 61F38203 		bfi	r3, r1, #2, #1
  68 004a 1370     		strb	r3, [r2]
  40:E:\NeuOrga\Programmieren\c_cpp\github_os\input\src\os_base\os_task_queue.c ****       (&RUNNING_TASK[0])->FREE                            = task->FREE;
  69              		.loc 1 40 0
  70 004c 7B68     		ldr	r3, [r7, #4]
  71 004e 1B68     		ldr	r3, [r3]
  72 0050 C3F3DC01 		ubfx	r1, r3, #3, #29
  73 0054 4A4A     		ldr	r2, .L4
  74 0056 1368     		ldr	r3, [r2]
  75 0058 61F3DF03 		bfi	r3, r1, #3, #29
ARM GAS  C:\Users\PRESID~1\AppData\Local\Temp\ccAgDin9.s 			page 3


  76 005c 1360     		str	r3, [r2]
  41:E:\NeuOrga\Programmieren\c_cpp\github_os\input\src\os_base\os_task_queue.c ****       (&RUNNING_TASK[0])->NrOfInsAllowed                  = task->NrOfInsAllowed;
  77              		.loc 1 41 0
  78 005e 7B68     		ldr	r3, [r7, #4]
  79 0060 1A79     		ldrb	r2, [r3, #4]	@ zero_extendqisi2
  80 0062 474B     		ldr	r3, .L4
  81 0064 1A71     		strb	r2, [r3, #4]
  42:E:\NeuOrga\Programmieren\c_cpp\github_os\input\src\os_base\os_task_queue.c ****       (&RUNNING_TASK[0])->NrOfInsActivated                = task->NrOfInsActivated;
  82              		.loc 1 42 0
  83 0066 7B68     		ldr	r3, [r7, #4]
  84 0068 5A79     		ldrb	r2, [r3, #5]	@ zero_extendqisi2
  85 006a 454B     		ldr	r3, .L4
  86 006c 5A71     		strb	r2, [r3, #5]
  43:E:\NeuOrga\Programmieren\c_cpp\github_os\input\src\os_base\os_task_queue.c ****       (&RUNNING_TASK[0])->WaitActUntil                    = task->WaitActUntil;
  87              		.loc 1 43 0
  88 006e 7B68     		ldr	r3, [r7, #4]
  89 0070 9B68     		ldr	r3, [r3, #8]
  90 0072 434A     		ldr	r2, .L4
  91 0074 9360     		str	r3, [r2, #8]
  44:E:\NeuOrga\Programmieren\c_cpp\github_os\input\src\os_base\os_task_queue.c ****       (&RUNNING_TASK[0])->wait_time                       = task->wait_time;
  92              		.loc 1 44 0
  93 0076 7B68     		ldr	r3, [r7, #4]
  94 0078 DB68     		ldr	r3, [r3, #12]
  95 007a 414A     		ldr	r2, .L4
  96 007c D360     		str	r3, [r2, #12]
  45:E:\NeuOrga\Programmieren\c_cpp\github_os\input\src\os_base\os_task_queue.c ****       (&RUNNING_TASK[0])->TimeToPrioInc                   = task->TimeToPrioInc;
  97              		.loc 1 45 0
  98 007e 7B68     		ldr	r3, [r7, #4]
  99 0080 1B69     		ldr	r3, [r3, #16]
 100 0082 3F4A     		ldr	r2, .L4
 101 0084 1361     		str	r3, [r2, #16]
  46:E:\NeuOrga\Programmieren\c_cpp\github_os\input\src\os_base\os_task_queue.c ****       (&RUNNING_TASK[0])->overwaittime_per_prio_inc_step  = task->overwaittime_per_prio_inc_step;
 102              		.loc 1 46 0
 103 0086 7B68     		ldr	r3, [r7, #4]
 104 0088 5B69     		ldr	r3, [r3, #20]
 105 008a 3D4A     		ldr	r2, .L4
 106 008c 5361     		str	r3, [r2, #20]
  47:E:\NeuOrga\Programmieren\c_cpp\github_os\input\src\os_base\os_task_queue.c ****       (&RUNNING_TASK[0])->max_allowed_wait_time           = task->max_allowed_wait_time;
 107              		.loc 1 47 0
 108 008e 7B68     		ldr	r3, [r7, #4]
 109 0090 9B69     		ldr	r3, [r3, #24]
 110 0092 3B4A     		ldr	r2, .L4
 111 0094 9361     		str	r3, [r2, #24]
  48:E:\NeuOrga\Programmieren\c_cpp\github_os\input\src\os_base\os_task_queue.c ****       (&RUNNING_TASK[0])->exe_time                        = task->exe_time;
 112              		.loc 1 48 0
 113 0096 7B68     		ldr	r3, [r7, #4]
 114 0098 DB69     		ldr	r3, [r3, #28]
 115 009a 394A     		ldr	r2, .L4
 116 009c D361     		str	r3, [r2, #28]
  49:E:\NeuOrga\Programmieren\c_cpp\github_os\input\src\os_base\os_task_queue.c ****       (&RUNNING_TASK[0])->start_time                      = task->start_time;
 117              		.loc 1 49 0
 118 009e 7B68     		ldr	r3, [r7, #4]
 119 00a0 1B6A     		ldr	r3, [r3, #32]
 120 00a2 374A     		ldr	r2, .L4
 121 00a4 1362     		str	r3, [r2, #32]
  50:E:\NeuOrga\Programmieren\c_cpp\github_os\input\src\os_base\os_task_queue.c ****       (&RUNNING_TASK[0])->current_prio                    = task->current_prio;
 122              		.loc 1 50 0
ARM GAS  C:\Users\PRESID~1\AppData\Local\Temp\ccAgDin9.s 			page 4


 123 00a6 7B68     		ldr	r3, [r7, #4]
 124 00a8 93F82420 		ldrb	r2, [r3, #36]	@ zero_extendqisi2
 125 00ac 344B     		ldr	r3, .L4
 126 00ae 83F82420 		strb	r2, [r3, #36]
  51:E:\NeuOrga\Programmieren\c_cpp\github_os\input\src\os_base\os_task_queue.c ****       (&RUNNING_TASK[0])->default_prio                    = task->default_prio;
 127              		.loc 1 51 0
 128 00b2 7B68     		ldr	r3, [r7, #4]
 129 00b4 93F82520 		ldrb	r2, [r3, #37]	@ zero_extendqisi2
 130 00b8 314B     		ldr	r3, .L4
 131 00ba 83F82520 		strb	r2, [r3, #37]
  52:E:\NeuOrga\Programmieren\c_cpp\github_os\input\src\os_base\os_task_queue.c ****       (&RUNNING_TASK[0])->fp                              = task->fp;
 132              		.loc 1 52 0
 133 00be 7B68     		ldr	r3, [r7, #4]
 134 00c0 DB6A     		ldr	r3, [r3, #44]
 135 00c2 2F4A     		ldr	r2, .L4
 136 00c4 D362     		str	r3, [r2, #44]
  53:E:\NeuOrga\Programmieren\c_cpp\github_os\input\src\os_base\os_task_queue.c ****       (&RUNNING_TASK[0])->state_request                   = task->state_request;
 137              		.loc 1 53 0
 138 00c6 7B68     		ldr	r3, [r7, #4]
 139 00c8 1B6B     		ldr	r3, [r3, #48]
 140 00ca 2D4A     		ldr	r2, .L4
 141 00cc 1363     		str	r3, [r2, #48]
  54:E:\NeuOrga\Programmieren\c_cpp\github_os\input\src\os_base\os_task_queue.c ****       (&RUNNING_TASK[0])->task_state                      = task->task_state;
 142              		.loc 1 54 0
 143 00ce 7B68     		ldr	r3, [r7, #4]
 144 00d0 93F83420 		ldrb	r2, [r3, #52]	@ zero_extendqisi2
 145 00d4 2A4B     		ldr	r3, .L4
 146 00d6 83F83420 		strb	r2, [r3, #52]
  55:E:\NeuOrga\Programmieren\c_cpp\github_os\input\src\os_base\os_task_queue.c ****       (&RUNNING_TASK[0])->task_group                      = task->task_group;
 147              		.loc 1 55 0
 148 00da 7B68     		ldr	r3, [r7, #4]
 149 00dc 9B6B     		ldr	r3, [r3, #56]
 150 00de 284A     		ldr	r2, .L4
 151 00e0 9363     		str	r3, [r2, #56]
  56:E:\NeuOrga\Programmieren\c_cpp\github_os\input\src\os_base\os_task_queue.c ****    #if(CFG_PROCESSOR == cMCU_X86)
  57:E:\NeuOrga\Programmieren\c_cpp\github_os\input\src\os_base\os_task_queue.c ****       (&RUNNING_TASK[0])->EAX                             = task->EAX;
  58:E:\NeuOrga\Programmieren\c_cpp\github_os\input\src\os_base\os_task_queue.c ****       (&RUNNING_TASK[0])->EBX                             = task->EBX;
  59:E:\NeuOrga\Programmieren\c_cpp\github_os\input\src\os_base\os_task_queue.c ****       (&RUNNING_TASK[0])->ECX                             = task->ECX;
  60:E:\NeuOrga\Programmieren\c_cpp\github_os\input\src\os_base\os_task_queue.c ****       (&RUNNING_TASK[0])->EDX                             = task->EDX;
  61:E:\NeuOrga\Programmieren\c_cpp\github_os\input\src\os_base\os_task_queue.c ****    #else
  62:E:\NeuOrga\Programmieren\c_cpp\github_os\input\src\os_base\os_task_queue.c ****       (&RUNNING_TASK[0])->r0                             = task->r0;
 152              		.loc 1 62 0
 153 00e2 7B68     		ldr	r3, [r7, #4]
 154 00e4 DB6B     		ldr	r3, [r3, #60]
 155 00e6 264A     		ldr	r2, .L4
 156 00e8 D363     		str	r3, [r2, #60]
  63:E:\NeuOrga\Programmieren\c_cpp\github_os\input\src\os_base\os_task_queue.c ****       (&RUNNING_TASK[0])->r1                             = task->r1;
 157              		.loc 1 63 0
 158 00ea 7B68     		ldr	r3, [r7, #4]
 159 00ec 1B6C     		ldr	r3, [r3, #64]
 160 00ee 244A     		ldr	r2, .L4
 161 00f0 1364     		str	r3, [r2, #64]
  64:E:\NeuOrga\Programmieren\c_cpp\github_os\input\src\os_base\os_task_queue.c ****       (&RUNNING_TASK[0])->r2                             = task->r2;
 162              		.loc 1 64 0
 163 00f2 7B68     		ldr	r3, [r7, #4]
 164 00f4 5B6C     		ldr	r3, [r3, #68]
 165 00f6 224A     		ldr	r2, .L4
ARM GAS  C:\Users\PRESID~1\AppData\Local\Temp\ccAgDin9.s 			page 5


 166 00f8 5364     		str	r3, [r2, #68]
  65:E:\NeuOrga\Programmieren\c_cpp\github_os\input\src\os_base\os_task_queue.c ****       (&RUNNING_TASK[0])->r3                             = task->r3;
 167              		.loc 1 65 0
 168 00fa 7B68     		ldr	r3, [r7, #4]
 169 00fc 9B6C     		ldr	r3, [r3, #72]
 170 00fe 204A     		ldr	r2, .L4
 171 0100 9364     		str	r3, [r2, #72]
  66:E:\NeuOrga\Programmieren\c_cpp\github_os\input\src\os_base\os_task_queue.c ****       (&RUNNING_TASK[0])->r4                             = task->r4;
 172              		.loc 1 66 0
 173 0102 7B68     		ldr	r3, [r7, #4]
 174 0104 DB6C     		ldr	r3, [r3, #76]
 175 0106 1E4A     		ldr	r2, .L4
 176 0108 D364     		str	r3, [r2, #76]
  67:E:\NeuOrga\Programmieren\c_cpp\github_os\input\src\os_base\os_task_queue.c ****       (&RUNNING_TASK[0])->r5                             = task->r5;
 177              		.loc 1 67 0
 178 010a 7B68     		ldr	r3, [r7, #4]
 179 010c 1B6D     		ldr	r3, [r3, #80]
 180 010e 1C4A     		ldr	r2, .L4
 181 0110 1365     		str	r3, [r2, #80]
  68:E:\NeuOrga\Programmieren\c_cpp\github_os\input\src\os_base\os_task_queue.c ****       (&RUNNING_TASK[0])->r6                             = task->r6;
 182              		.loc 1 68 0
 183 0112 7B68     		ldr	r3, [r7, #4]
 184 0114 5B6D     		ldr	r3, [r3, #84]
 185 0116 1A4A     		ldr	r2, .L4
 186 0118 5365     		str	r3, [r2, #84]
  69:E:\NeuOrga\Programmieren\c_cpp\github_os\input\src\os_base\os_task_queue.c ****       (&RUNNING_TASK[0])->r7                             = task->r7;
 187              		.loc 1 69 0
 188 011a 7B68     		ldr	r3, [r7, #4]
 189 011c 9B6D     		ldr	r3, [r3, #88]
 190 011e 184A     		ldr	r2, .L4
 191 0120 9365     		str	r3, [r2, #88]
  70:E:\NeuOrga\Programmieren\c_cpp\github_os\input\src\os_base\os_task_queue.c ****       (&RUNNING_TASK[0])->r8                             = task->r8;
 192              		.loc 1 70 0
 193 0122 7B68     		ldr	r3, [r7, #4]
 194 0124 DB6D     		ldr	r3, [r3, #92]
 195 0126 164A     		ldr	r2, .L4
 196 0128 D365     		str	r3, [r2, #92]
  71:E:\NeuOrga\Programmieren\c_cpp\github_os\input\src\os_base\os_task_queue.c ****       (&RUNNING_TASK[0])->r9                             = task->r9;
 197              		.loc 1 71 0
 198 012a 7B68     		ldr	r3, [r7, #4]
 199 012c 1B6E     		ldr	r3, [r3, #96]
 200 012e 144A     		ldr	r2, .L4
 201 0130 1366     		str	r3, [r2, #96]
  72:E:\NeuOrga\Programmieren\c_cpp\github_os\input\src\os_base\os_task_queue.c ****       (&RUNNING_TASK[0])->r10                            = task->r10;
 202              		.loc 1 72 0
 203 0132 7B68     		ldr	r3, [r7, #4]
 204 0134 5B6E     		ldr	r3, [r3, #100]
 205 0136 124A     		ldr	r2, .L4
 206 0138 5366     		str	r3, [r2, #100]
  73:E:\NeuOrga\Programmieren\c_cpp\github_os\input\src\os_base\os_task_queue.c ****       (&RUNNING_TASK[0])->r11                            = task->r11;
 207              		.loc 1 73 0
 208 013a 7B68     		ldr	r3, [r7, #4]
 209 013c 9B6E     		ldr	r3, [r3, #104]
 210 013e 104A     		ldr	r2, .L4
 211 0140 9366     		str	r3, [r2, #104]
  74:E:\NeuOrga\Programmieren\c_cpp\github_os\input\src\os_base\os_task_queue.c ****       (&RUNNING_TASK[0])->r12                            = task->r12;
 212              		.loc 1 74 0
ARM GAS  C:\Users\PRESID~1\AppData\Local\Temp\ccAgDin9.s 			page 6


 213 0142 7B68     		ldr	r3, [r7, #4]
 214 0144 DB6E     		ldr	r3, [r3, #108]
 215 0146 0E4A     		ldr	r2, .L4
 216 0148 D366     		str	r3, [r2, #108]
  75:E:\NeuOrga\Programmieren\c_cpp\github_os\input\src\os_base\os_task_queue.c ****    #endif
  76:E:\NeuOrga\Programmieren\c_cpp\github_os\input\src\os_base\os_task_queue.c **** 
  77:E:\NeuOrga\Programmieren\c_cpp\github_os\input\src\os_base\os_task_queue.c ****       (&RUNNING_TASK[0])->pStackPointer                   = task->pStackPointer;
 217              		.loc 1 77 0
 218 014a 7B68     		ldr	r3, [r7, #4]
 219 014c 1B6F     		ldr	r3, [r3, #112]
 220 014e 0C4A     		ldr	r2, .L4
 221 0150 1367     		str	r3, [r2, #112]
  78:E:\NeuOrga\Programmieren\c_cpp\github_os\input\src\os_base\os_task_queue.c ****       (&RUNNING_TASK[0])->pStackPointerByMalloc           = task->pStackPointerByMalloc;
 222              		.loc 1 78 0
 223 0152 7B68     		ldr	r3, [r7, #4]
 224 0154 5B6F     		ldr	r3, [r3, #116]
 225 0156 0A4A     		ldr	r2, .L4
 226 0158 5367     		str	r3, [r2, #116]
  79:E:\NeuOrga\Programmieren\c_cpp\github_os\input\src\os_base\os_task_queue.c ****       (&RUNNING_TASK[0])->pStackPointerStart              = task->pStackPointerStart;
 227              		.loc 1 79 0
 228 015a 7B68     		ldr	r3, [r7, #4]
 229 015c 9B6F     		ldr	r3, [r3, #120]
 230 015e 084A     		ldr	r2, .L4
 231 0160 9367     		str	r3, [r2, #120]
  80:E:\NeuOrga\Programmieren\c_cpp\github_os\input\src\os_base\os_task_queue.c ****       (&RUNNING_TASK[0])->StackSize                       = task->StackSize;
 232              		.loc 1 80 0
 233 0162 7B68     		ldr	r3, [r7, #4]
 234 0164 DB6F     		ldr	r3, [r3, #124]
 235 0166 064A     		ldr	r2, .L4
 236 0168 D367     		str	r3, [r2, #124]
  81:E:\NeuOrga\Programmieren\c_cpp\github_os\input\src\os_base\os_task_queue.c ****       (&RUNNING_TASK[0])->pStackPointerEnd                = task->pStackPointerEnd;
 237              		.loc 1 81 0
 238 016a 7B68     		ldr	r3, [r7, #4]
 239 016c D3F88030 		ldr	r3, [r3, #128]
 240 0170 034A     		ldr	r2, .L4
 241 0172 C2F88030 		str	r3, [r2, #128]
 242              	.L3:
  82:E:\NeuOrga\Programmieren\c_cpp\github_os\input\src\os_base\os_task_queue.c ****    }
  83:E:\NeuOrga\Programmieren\c_cpp\github_os\input\src\os_base\os_task_queue.c **** }
 243              		.loc 1 83 0
 244 0176 00BF     		nop
 245 0178 0C37     		adds	r7, r7, #12
 246              		.cfi_def_cfa_offset 4
 247 017a BD46     		mov	sp, r7
 248              		.cfi_def_cfa_register 13
 249              		@ sp needed
 250 017c 80BC     		pop	{r7}
 251              		.cfi_restore 7
 252              		.cfi_def_cfa_offset 0
 253 017e 7047     		bx	lr
 254              	.L5:
 255              		.align	2
 256              	.L4:
 257 0180 00000000 		.word	RUNNING_TASK
 258              		.cfi_endproc
 259              	.LFE0:
 261              		.align	1
ARM GAS  C:\Users\PRESID~1\AppData\Local\Temp\ccAgDin9.s 			page 7


 262              		.global	OS_INIT_TASK_QUEUE
 263              		.syntax unified
 264              		.thumb
 265              		.thumb_func
 266              		.fpu softvfp
 268              	OS_INIT_TASK_QUEUE:
 269              	.LFB1:
  84:E:\NeuOrga\Programmieren\c_cpp\github_os\input\src\os_base\os_task_queue.c **** 
  85:E:\NeuOrga\Programmieren\c_cpp\github_os\input\src\os_base\os_task_queue.c **** /* task queue handling */
  86:E:\NeuOrga\Programmieren\c_cpp\github_os\input\src\os_base\os_task_queue.c **** void OS_INIT_TASK_QUEUE(void)
  87:E:\NeuOrga\Programmieren\c_cpp\github_os\input\src\os_base\os_task_queue.c **** {
 270              		.loc 1 87 0
 271              		.cfi_startproc
 272              		@ args = 0, pretend = 0, frame = 8
 273              		@ frame_needed = 1, uses_anonymous_args = 0
 274 0184 80B5     		push	{r7, lr}
 275              		.cfi_def_cfa_offset 8
 276              		.cfi_offset 7, -8
 277              		.cfi_offset 14, -4
 278 0186 82B0     		sub	sp, sp, #8
 279              		.cfi_def_cfa_offset 16
 280 0188 00AF     		add	r7, sp, #0
 281              		.cfi_def_cfa_register 7
  88:E:\NeuOrga\Programmieren\c_cpp\github_os\input\src\os_base\os_task_queue.c ****    if(bTASK_QUEUE_INITIALIZED == False)
 282              		.loc 1 88 0
 283 018a 114B     		ldr	r3, .L11
 284 018c 1B78     		ldrb	r3, [r3]	@ zero_extendqisi2
 285 018e 002B     		cmp	r3, #0
 286 0190 1AD1     		bne	.L10
 287              	.LBB2:
  89:E:\NeuOrga\Programmieren\c_cpp\github_os\input\src\os_base\os_task_queue.c ****    {
  90:E:\NeuOrga\Programmieren\c_cpp\github_os\input\src\os_base\os_task_queue.c ****       unsigned_char_t element_nr = 0;
 288              		.loc 1 90 0
 289 0192 0023     		movs	r3, #0
 290 0194 FB71     		strb	r3, [r7, #7]
  91:E:\NeuOrga\Programmieren\c_cpp\github_os\input\src\os_base\os_task_queue.c ****       while(element_nr < MAX_RUN_QUEUE_SIZE)
 291              		.loc 1 91 0
 292 0196 11E0     		b	.L8
 293              	.L9:
  92:E:\NeuOrga\Programmieren\c_cpp\github_os\input\src\os_base\os_task_queue.c ****       {
  93:E:\NeuOrga\Programmieren\c_cpp\github_os\input\src\os_base\os_task_queue.c **** 
  94:E:\NeuOrga\Programmieren\c_cpp\github_os\input\src\os_base\os_task_queue.c **** 
  95:E:\NeuOrga\Programmieren\c_cpp\github_os\input\src\os_base\os_task_queue.c ****          (pTASK_RUN_QUEUE[element_nr]) = (task_t*)0;
 294              		.loc 1 95 0
 295 0198 FB79     		ldrb	r3, [r7, #7]	@ zero_extendqisi2
 296 019a 0E4A     		ldr	r2, .L11+4
 297 019c 0021     		movs	r1, #0
 298 019e 42F82310 		str	r1, [r2, r3, lsl #2]
  96:E:\NeuOrga\Programmieren\c_cpp\github_os\input\src\os_base\os_task_queue.c ****          OS_Task_InitTaskEnvironment(&TASK_RUN_QUEUE[element_nr]);
 299              		.loc 1 96 0
 300 01a2 FA79     		ldrb	r2, [r7, #7]	@ zero_extendqisi2
 301 01a4 1346     		mov	r3, r2
 302 01a6 1B01     		lsls	r3, r3, #4
 303 01a8 1344     		add	r3, r3, r2
 304 01aa DB00     		lsls	r3, r3, #3
 305 01ac 0A4A     		ldr	r2, .L11+8
 306 01ae 1344     		add	r3, r3, r2
ARM GAS  C:\Users\PRESID~1\AppData\Local\Temp\ccAgDin9.s 			page 8


 307 01b0 1846     		mov	r0, r3
 308 01b2 FFF7FEFF 		bl	OS_Task_InitTaskEnvironment
  97:E:\NeuOrga\Programmieren\c_cpp\github_os\input\src\os_base\os_task_queue.c ****          element_nr++;
 309              		.loc 1 97 0
 310 01b6 FB79     		ldrb	r3, [r7, #7]	@ zero_extendqisi2
 311 01b8 0133     		adds	r3, r3, #1
 312 01ba FB71     		strb	r3, [r7, #7]
 313              	.L8:
  91:E:\NeuOrga\Programmieren\c_cpp\github_os\input\src\os_base\os_task_queue.c ****       {
 314              		.loc 1 91 0
 315 01bc FB79     		ldrb	r3, [r7, #7]	@ zero_extendqisi2
 316 01be 042B     		cmp	r3, #4
 317 01c0 EAD9     		bls	.L9
  98:E:\NeuOrga\Programmieren\c_cpp\github_os\input\src\os_base\os_task_queue.c ****       }
  99:E:\NeuOrga\Programmieren\c_cpp\github_os\input\src\os_base\os_task_queue.c ****       bTASK_QUEUE_INITIALIZED = True;
 318              		.loc 1 99 0
 319 01c2 034B     		ldr	r3, .L11
 320 01c4 0122     		movs	r2, #1
 321 01c6 1A70     		strb	r2, [r3]
 322              	.L10:
 323              	.LBE2:
 100:E:\NeuOrga\Programmieren\c_cpp\github_os\input\src\os_base\os_task_queue.c ****    }
 101:E:\NeuOrga\Programmieren\c_cpp\github_os\input\src\os_base\os_task_queue.c **** }
 324              		.loc 1 101 0
 325 01c8 00BF     		nop
 326 01ca 0837     		adds	r7, r7, #8
 327              		.cfi_def_cfa_offset 8
 328 01cc BD46     		mov	sp, r7
 329              		.cfi_def_cfa_register 13
 330              		@ sp needed
 331 01ce 80BD     		pop	{r7, pc}
 332              	.L12:
 333              		.align	2
 334              	.L11:
 335 01d0 00000000 		.word	bTASK_QUEUE_INITIALIZED
 336 01d4 00000000 		.word	pTASK_RUN_QUEUE
 337 01d8 00000000 		.word	TASK_RUN_QUEUE
 338              		.cfi_endproc
 339              	.LFE1:
 341              		.align	1
 342              		.global	AddToTaskQueue
 343              		.syntax unified
 344              		.thumb
 345              		.thumb_func
 346              		.fpu softvfp
 348              	AddToTaskQueue:
 349              	.LFB2:
 102:E:\NeuOrga\Programmieren\c_cpp\github_os\input\src\os_base\os_task_queue.c **** void* AddToTaskQueue(task_t* task)
 103:E:\NeuOrga\Programmieren\c_cpp\github_os\input\src\os_base\os_task_queue.c **** {
 350              		.loc 1 103 0
 351              		.cfi_startproc
 352              		@ args = 0, pretend = 0, frame = 16
 353              		@ frame_needed = 1, uses_anonymous_args = 0
 354              		@ link register save eliminated.
 355 01dc 80B4     		push	{r7}
 356              		.cfi_def_cfa_offset 4
 357              		.cfi_offset 7, -4
ARM GAS  C:\Users\PRESID~1\AppData\Local\Temp\ccAgDin9.s 			page 9


 358 01de 85B0     		sub	sp, sp, #20
 359              		.cfi_def_cfa_offset 24
 360 01e0 00AF     		add	r7, sp, #0
 361              		.cfi_def_cfa_register 7
 362 01e2 7860     		str	r0, [r7, #4]
 104:E:\NeuOrga\Programmieren\c_cpp\github_os\input\src\os_base\os_task_queue.c ****    unsigned_char_t element_nr = 0;
 363              		.loc 1 104 0
 364 01e4 0023     		movs	r3, #0
 365 01e6 FB73     		strb	r3, [r7, #15]
 105:E:\NeuOrga\Programmieren\c_cpp\github_os\input\src\os_base\os_task_queue.c ****    while( (element_nr < MAX_RUN_QUEUE_SIZE)
 366              		.loc 1 105 0
 367 01e8 02E0     		b	.L14
 368              	.L16:
 106:E:\NeuOrga\Programmieren\c_cpp\github_os\input\src\os_base\os_task_queue.c ****           &&((&TASK_RUN_QUEUE[element_nr])->task_queued == True)
 107:E:\NeuOrga\Programmieren\c_cpp\github_os\input\src\os_base\os_task_queue.c ****         )
 108:E:\NeuOrga\Programmieren\c_cpp\github_os\input\src\os_base\os_task_queue.c ****    {
 109:E:\NeuOrga\Programmieren\c_cpp\github_os\input\src\os_base\os_task_queue.c ****       element_nr++;
 369              		.loc 1 109 0
 370 01ea FB7B     		ldrb	r3, [r7, #15]	@ zero_extendqisi2
 371 01ec 0133     		adds	r3, r3, #1
 372 01ee FB73     		strb	r3, [r7, #15]
 373              	.L14:
 105:E:\NeuOrga\Programmieren\c_cpp\github_os\input\src\os_base\os_task_queue.c ****    while( (element_nr < MAX_RUN_QUEUE_SIZE)
 374              		.loc 1 105 0
 375 01f0 FB7B     		ldrb	r3, [r7, #15]	@ zero_extendqisi2
 376 01f2 042B     		cmp	r3, #4
 377 01f4 0CD8     		bhi	.L15
 106:E:\NeuOrga\Programmieren\c_cpp\github_os\input\src\os_base\os_task_queue.c ****           &&((&TASK_RUN_QUEUE[element_nr])->task_queued == True)
 378              		.loc 1 106 0
 379 01f6 FA7B     		ldrb	r2, [r7, #15]	@ zero_extendqisi2
 380 01f8 B849     		ldr	r1, .L19
 381 01fa 1346     		mov	r3, r2
 382 01fc 1B01     		lsls	r3, r3, #4
 383 01fe 1344     		add	r3, r3, r2
 384 0200 DB00     		lsls	r3, r3, #3
 385 0202 0B44     		add	r3, r3, r1
 386 0204 1B78     		ldrb	r3, [r3]
 387 0206 C3F34003 		ubfx	r3, r3, #1, #1
 388 020a DBB2     		uxtb	r3, r3
 389 020c 012B     		cmp	r3, #1
 390 020e ECD0     		beq	.L16
 391              	.L15:
 110:E:\NeuOrga\Programmieren\c_cpp\github_os\input\src\os_base\os_task_queue.c ****    }
 111:E:\NeuOrga\Programmieren\c_cpp\github_os\input\src\os_base\os_task_queue.c ****    /* while loop ended due to free task_array slot ...*/
 112:E:\NeuOrga\Programmieren\c_cpp\github_os\input\src\os_base\os_task_queue.c ****    if( (element_nr < MAX_RUN_QUEUE_SIZE) && ((&TASK_RUN_QUEUE[element_nr])->task_queued == False) )
 392              		.loc 1 112 0
 393 0210 FB7B     		ldrb	r3, [r7, #15]	@ zero_extendqisi2
 394 0212 042B     		cmp	r3, #4
 395 0214 00F2BF81 		bhi	.L17
 396              		.loc 1 112 0 is_stmt 0 discriminator 1
 397 0218 FA7B     		ldrb	r2, [r7, #15]	@ zero_extendqisi2
 398 021a B049     		ldr	r1, .L19
 399 021c 1346     		mov	r3, r2
 400 021e 1B01     		lsls	r3, r3, #4
 401 0220 1344     		add	r3, r3, r2
 402 0222 DB00     		lsls	r3, r3, #3
 403 0224 0B44     		add	r3, r3, r1
ARM GAS  C:\Users\PRESID~1\AppData\Local\Temp\ccAgDin9.s 			page 10


 404 0226 1B78     		ldrb	r3, [r3]
 405 0228 C3F34003 		ubfx	r3, r3, #1, #1
 406 022c DBB2     		uxtb	r3, r3
 407 022e 002B     		cmp	r3, #0
 408 0230 40F0B181 		bne	.L17
 113:E:\NeuOrga\Programmieren\c_cpp\github_os\input\src\os_base\os_task_queue.c ****    {
 114:E:\NeuOrga\Programmieren\c_cpp\github_os\input\src\os_base\os_task_queue.c ****       (&TASK_RUN_QUEUE[element_nr])->active                          = task->active;
 409              		.loc 1 114 0 is_stmt 1
 410 0234 FA7B     		ldrb	r2, [r7, #15]	@ zero_extendqisi2
 411 0236 7B68     		ldr	r3, [r7, #4]
 412 0238 1B78     		ldrb	r3, [r3]
 413 023a C3F30003 		ubfx	r3, r3, #0, #1
 414 023e D9B2     		uxtb	r1, r3
 415 0240 A648     		ldr	r0, .L19
 416 0242 1346     		mov	r3, r2
 417 0244 1B01     		lsls	r3, r3, #4
 418 0246 1344     		add	r3, r3, r2
 419 0248 DB00     		lsls	r3, r3, #3
 420 024a C218     		adds	r2, r0, r3
 421 024c 1378     		ldrb	r3, [r2]
 422 024e 61F30003 		bfi	r3, r1, #0, #1
 423 0252 1370     		strb	r3, [r2]
 115:E:\NeuOrga\Programmieren\c_cpp\github_os\input\src\os_base\os_task_queue.c ****       (&TASK_RUN_QUEUE[element_nr])->task_queued                     = True;
 424              		.loc 1 115 0
 425 0254 FA7B     		ldrb	r2, [r7, #15]	@ zero_extendqisi2
 426 0256 A149     		ldr	r1, .L19
 427 0258 1346     		mov	r3, r2
 428 025a 1B01     		lsls	r3, r3, #4
 429 025c 1344     		add	r3, r3, r2
 430 025e DB00     		lsls	r3, r3, #3
 431 0260 CA18     		adds	r2, r1, r3
 432 0262 1378     		ldrb	r3, [r2]
 433 0264 43F00203 		orr	r3, r3, #2
 434 0268 1370     		strb	r3, [r2]
 116:E:\NeuOrga\Programmieren\c_cpp\github_os\input\src\os_base\os_task_queue.c ****       (&TASK_RUN_QUEUE[element_nr])->IdleTask                        = task->IdleTask;
 435              		.loc 1 116 0
 436 026a FA7B     		ldrb	r2, [r7, #15]	@ zero_extendqisi2
 437 026c 7B68     		ldr	r3, [r7, #4]
 438 026e 1B78     		ldrb	r3, [r3]
 439 0270 C3F38003 		ubfx	r3, r3, #2, #1
 440 0274 D9B2     		uxtb	r1, r3
 441 0276 9948     		ldr	r0, .L19
 442 0278 1346     		mov	r3, r2
 443 027a 1B01     		lsls	r3, r3, #4
 444 027c 1344     		add	r3, r3, r2
 445 027e DB00     		lsls	r3, r3, #3
 446 0280 C218     		adds	r2, r0, r3
 447 0282 1378     		ldrb	r3, [r2]
 448 0284 61F38203 		bfi	r3, r1, #2, #1
 449 0288 1370     		strb	r3, [r2]
 117:E:\NeuOrga\Programmieren\c_cpp\github_os\input\src\os_base\os_task_queue.c ****       (&TASK_RUN_QUEUE[element_nr])->FREE                            = task->FREE;
 450              		.loc 1 117 0
 451 028a FA7B     		ldrb	r2, [r7, #15]	@ zero_extendqisi2
 452 028c 7B68     		ldr	r3, [r7, #4]
 453 028e 1B68     		ldr	r3, [r3]
 454 0290 C3F3DC01 		ubfx	r1, r3, #3, #29
 455 0294 9148     		ldr	r0, .L19
ARM GAS  C:\Users\PRESID~1\AppData\Local\Temp\ccAgDin9.s 			page 11


 456 0296 1346     		mov	r3, r2
 457 0298 1B01     		lsls	r3, r3, #4
 458 029a 1344     		add	r3, r3, r2
 459 029c DB00     		lsls	r3, r3, #3
 460 029e C218     		adds	r2, r0, r3
 461 02a0 1368     		ldr	r3, [r2]
 462 02a2 61F3DF03 		bfi	r3, r1, #3, #29
 463 02a6 1360     		str	r3, [r2]
 118:E:\NeuOrga\Programmieren\c_cpp\github_os\input\src\os_base\os_task_queue.c ****       (&TASK_RUN_QUEUE[element_nr])->NrOfInsAllowed                  = task->NrOfInsAllowed;
 464              		.loc 1 118 0
 465 02a8 FA7B     		ldrb	r2, [r7, #15]	@ zero_extendqisi2
 466 02aa 7B68     		ldr	r3, [r7, #4]
 467 02ac 1879     		ldrb	r0, [r3, #4]	@ zero_extendqisi2
 468 02ae 8B49     		ldr	r1, .L19
 469 02b0 1346     		mov	r3, r2
 470 02b2 1B01     		lsls	r3, r3, #4
 471 02b4 1344     		add	r3, r3, r2
 472 02b6 DB00     		lsls	r3, r3, #3
 473 02b8 0B44     		add	r3, r3, r1
 474 02ba 0433     		adds	r3, r3, #4
 475 02bc 0246     		mov	r2, r0
 476 02be 1A70     		strb	r2, [r3]
 119:E:\NeuOrga\Programmieren\c_cpp\github_os\input\src\os_base\os_task_queue.c ****       (&TASK_RUN_QUEUE[element_nr])->NrOfInsActivated                = task->NrOfInsActivated;
 477              		.loc 1 119 0
 478 02c0 FA7B     		ldrb	r2, [r7, #15]	@ zero_extendqisi2
 479 02c2 7B68     		ldr	r3, [r7, #4]
 480 02c4 5879     		ldrb	r0, [r3, #5]	@ zero_extendqisi2
 481 02c6 8549     		ldr	r1, .L19
 482 02c8 1346     		mov	r3, r2
 483 02ca 1B01     		lsls	r3, r3, #4
 484 02cc 1344     		add	r3, r3, r2
 485 02ce DB00     		lsls	r3, r3, #3
 486 02d0 0B44     		add	r3, r3, r1
 487 02d2 0533     		adds	r3, r3, #5
 488 02d4 0246     		mov	r2, r0
 489 02d6 1A70     		strb	r2, [r3]
 120:E:\NeuOrga\Programmieren\c_cpp\github_os\input\src\os_base\os_task_queue.c ****       (&TASK_RUN_QUEUE[element_nr])->WaitActUntil                    = task->WaitActUntil;
 490              		.loc 1 120 0
 491 02d8 FA7B     		ldrb	r2, [r7, #15]	@ zero_extendqisi2
 492 02da 7B68     		ldr	r3, [r7, #4]
 493 02dc 9968     		ldr	r1, [r3, #8]
 494 02de 7F48     		ldr	r0, .L19
 495 02e0 1346     		mov	r3, r2
 496 02e2 1B01     		lsls	r3, r3, #4
 497 02e4 1344     		add	r3, r3, r2
 498 02e6 DB00     		lsls	r3, r3, #3
 499 02e8 0344     		add	r3, r3, r0
 500 02ea 0833     		adds	r3, r3, #8
 501 02ec 1960     		str	r1, [r3]
 121:E:\NeuOrga\Programmieren\c_cpp\github_os\input\src\os_base\os_task_queue.c ****       (&TASK_RUN_QUEUE[element_nr])->wait_time                       = task->wait_time;
 502              		.loc 1 121 0
 503 02ee FA7B     		ldrb	r2, [r7, #15]	@ zero_extendqisi2
 504 02f0 7B68     		ldr	r3, [r7, #4]
 505 02f2 D968     		ldr	r1, [r3, #12]
 506 02f4 7948     		ldr	r0, .L19
 507 02f6 1346     		mov	r3, r2
 508 02f8 1B01     		lsls	r3, r3, #4
ARM GAS  C:\Users\PRESID~1\AppData\Local\Temp\ccAgDin9.s 			page 12


 509 02fa 1344     		add	r3, r3, r2
 510 02fc DB00     		lsls	r3, r3, #3
 511 02fe 0344     		add	r3, r3, r0
 512 0300 0C33     		adds	r3, r3, #12
 513 0302 1960     		str	r1, [r3]
 122:E:\NeuOrga\Programmieren\c_cpp\github_os\input\src\os_base\os_task_queue.c ****       (&TASK_RUN_QUEUE[element_nr])->TimeToPrioInc                   = task->TimeToPrioInc;
 514              		.loc 1 122 0
 515 0304 FA7B     		ldrb	r2, [r7, #15]	@ zero_extendqisi2
 516 0306 7B68     		ldr	r3, [r7, #4]
 517 0308 1969     		ldr	r1, [r3, #16]
 518 030a 7448     		ldr	r0, .L19
 519 030c 1346     		mov	r3, r2
 520 030e 1B01     		lsls	r3, r3, #4
 521 0310 1344     		add	r3, r3, r2
 522 0312 DB00     		lsls	r3, r3, #3
 523 0314 0344     		add	r3, r3, r0
 524 0316 1033     		adds	r3, r3, #16
 525 0318 1960     		str	r1, [r3]
 123:E:\NeuOrga\Programmieren\c_cpp\github_os\input\src\os_base\os_task_queue.c ****       (&TASK_RUN_QUEUE[element_nr])->overwaittime_per_prio_inc_step  = task->overwaittime_per_prio_
 526              		.loc 1 123 0
 527 031a FA7B     		ldrb	r2, [r7, #15]	@ zero_extendqisi2
 528 031c 7B68     		ldr	r3, [r7, #4]
 529 031e 5969     		ldr	r1, [r3, #20]
 530 0320 6E48     		ldr	r0, .L19
 531 0322 1346     		mov	r3, r2
 532 0324 1B01     		lsls	r3, r3, #4
 533 0326 1344     		add	r3, r3, r2
 534 0328 DB00     		lsls	r3, r3, #3
 535 032a 0344     		add	r3, r3, r0
 536 032c 1433     		adds	r3, r3, #20
 537 032e 1960     		str	r1, [r3]
 124:E:\NeuOrga\Programmieren\c_cpp\github_os\input\src\os_base\os_task_queue.c ****       (&TASK_RUN_QUEUE[element_nr])->max_allowed_wait_time           = task->max_allowed_wait_time;
 538              		.loc 1 124 0
 539 0330 FA7B     		ldrb	r2, [r7, #15]	@ zero_extendqisi2
 540 0332 7B68     		ldr	r3, [r7, #4]
 541 0334 9969     		ldr	r1, [r3, #24]
 542 0336 6948     		ldr	r0, .L19
 543 0338 1346     		mov	r3, r2
 544 033a 1B01     		lsls	r3, r3, #4
 545 033c 1344     		add	r3, r3, r2
 546 033e DB00     		lsls	r3, r3, #3
 547 0340 0344     		add	r3, r3, r0
 548 0342 1833     		adds	r3, r3, #24
 549 0344 1960     		str	r1, [r3]
 125:E:\NeuOrga\Programmieren\c_cpp\github_os\input\src\os_base\os_task_queue.c ****       (&TASK_RUN_QUEUE[element_nr])->exe_time                        = task->exe_time;
 550              		.loc 1 125 0
 551 0346 FA7B     		ldrb	r2, [r7, #15]	@ zero_extendqisi2
 552 0348 7B68     		ldr	r3, [r7, #4]
 553 034a D969     		ldr	r1, [r3, #28]
 554 034c 6348     		ldr	r0, .L19
 555 034e 1346     		mov	r3, r2
 556 0350 1B01     		lsls	r3, r3, #4
 557 0352 1344     		add	r3, r3, r2
 558 0354 DB00     		lsls	r3, r3, #3
 559 0356 0344     		add	r3, r3, r0
 560 0358 1C33     		adds	r3, r3, #28
 561 035a 1960     		str	r1, [r3]
ARM GAS  C:\Users\PRESID~1\AppData\Local\Temp\ccAgDin9.s 			page 13


 126:E:\NeuOrga\Programmieren\c_cpp\github_os\input\src\os_base\os_task_queue.c ****       (&TASK_RUN_QUEUE[element_nr])->start_time                      = task->start_time;
 562              		.loc 1 126 0
 563 035c FA7B     		ldrb	r2, [r7, #15]	@ zero_extendqisi2
 564 035e 7B68     		ldr	r3, [r7, #4]
 565 0360 196A     		ldr	r1, [r3, #32]
 566 0362 5E48     		ldr	r0, .L19
 567 0364 1346     		mov	r3, r2
 568 0366 1B01     		lsls	r3, r3, #4
 569 0368 1344     		add	r3, r3, r2
 570 036a DB00     		lsls	r3, r3, #3
 571 036c 0344     		add	r3, r3, r0
 572 036e 2033     		adds	r3, r3, #32
 573 0370 1960     		str	r1, [r3]
 127:E:\NeuOrga\Programmieren\c_cpp\github_os\input\src\os_base\os_task_queue.c ****       (&TASK_RUN_QUEUE[element_nr])->current_prio                    = task->current_prio;
 574              		.loc 1 127 0
 575 0372 FA7B     		ldrb	r2, [r7, #15]	@ zero_extendqisi2
 576 0374 7B68     		ldr	r3, [r7, #4]
 577 0376 93F82400 		ldrb	r0, [r3, #36]	@ zero_extendqisi2
 578 037a 5849     		ldr	r1, .L19
 579 037c 1346     		mov	r3, r2
 580 037e 1B01     		lsls	r3, r3, #4
 581 0380 1344     		add	r3, r3, r2
 582 0382 DB00     		lsls	r3, r3, #3
 583 0384 0B44     		add	r3, r3, r1
 584 0386 2433     		adds	r3, r3, #36
 585 0388 0246     		mov	r2, r0
 586 038a 1A70     		strb	r2, [r3]
 128:E:\NeuOrga\Programmieren\c_cpp\github_os\input\src\os_base\os_task_queue.c ****       (&TASK_RUN_QUEUE[element_nr])->default_prio                    = task->default_prio;
 587              		.loc 1 128 0
 588 038c FA7B     		ldrb	r2, [r7, #15]	@ zero_extendqisi2
 589 038e 7B68     		ldr	r3, [r7, #4]
 590 0390 93F82500 		ldrb	r0, [r3, #37]	@ zero_extendqisi2
 591 0394 5149     		ldr	r1, .L19
 592 0396 1346     		mov	r3, r2
 593 0398 1B01     		lsls	r3, r3, #4
 594 039a 1344     		add	r3, r3, r2
 595 039c DB00     		lsls	r3, r3, #3
 596 039e 0B44     		add	r3, r3, r1
 597 03a0 2533     		adds	r3, r3, #37
 598 03a2 0246     		mov	r2, r0
 599 03a4 1A70     		strb	r2, [r3]
 129:E:\NeuOrga\Programmieren\c_cpp\github_os\input\src\os_base\os_task_queue.c ****       (&TASK_RUN_QUEUE[element_nr])->fp                              = task->fp;
 600              		.loc 1 129 0
 601 03a6 FA7B     		ldrb	r2, [r7, #15]	@ zero_extendqisi2
 602 03a8 7B68     		ldr	r3, [r7, #4]
 603 03aa D96A     		ldr	r1, [r3, #44]
 604 03ac 4B48     		ldr	r0, .L19
 605 03ae 1346     		mov	r3, r2
 606 03b0 1B01     		lsls	r3, r3, #4
 607 03b2 1344     		add	r3, r3, r2
 608 03b4 DB00     		lsls	r3, r3, #3
 609 03b6 0344     		add	r3, r3, r0
 610 03b8 2C33     		adds	r3, r3, #44
 611 03ba 1960     		str	r1, [r3]
 130:E:\NeuOrga\Programmieren\c_cpp\github_os\input\src\os_base\os_task_queue.c ****       (&TASK_RUN_QUEUE[element_nr])->state_request                   = task->state_request;
 612              		.loc 1 130 0
 613 03bc FA7B     		ldrb	r2, [r7, #15]	@ zero_extendqisi2
ARM GAS  C:\Users\PRESID~1\AppData\Local\Temp\ccAgDin9.s 			page 14


 614 03be 7B68     		ldr	r3, [r7, #4]
 615 03c0 196B     		ldr	r1, [r3, #48]
 616 03c2 4648     		ldr	r0, .L19
 617 03c4 1346     		mov	r3, r2
 618 03c6 1B01     		lsls	r3, r3, #4
 619 03c8 1344     		add	r3, r3, r2
 620 03ca DB00     		lsls	r3, r3, #3
 621 03cc 0344     		add	r3, r3, r0
 622 03ce 3033     		adds	r3, r3, #48
 623 03d0 1960     		str	r1, [r3]
 131:E:\NeuOrga\Programmieren\c_cpp\github_os\input\src\os_base\os_task_queue.c ****       (&TASK_RUN_QUEUE[element_nr])->task_state                      = task->task_state;
 624              		.loc 1 131 0
 625 03d2 FA7B     		ldrb	r2, [r7, #15]	@ zero_extendqisi2
 626 03d4 7B68     		ldr	r3, [r7, #4]
 627 03d6 93F83400 		ldrb	r0, [r3, #52]	@ zero_extendqisi2
 628 03da 4049     		ldr	r1, .L19
 629 03dc 1346     		mov	r3, r2
 630 03de 1B01     		lsls	r3, r3, #4
 631 03e0 1344     		add	r3, r3, r2
 632 03e2 DB00     		lsls	r3, r3, #3
 633 03e4 0B44     		add	r3, r3, r1
 634 03e6 3433     		adds	r3, r3, #52
 635 03e8 0246     		mov	r2, r0
 636 03ea 1A70     		strb	r2, [r3]
 132:E:\NeuOrga\Programmieren\c_cpp\github_os\input\src\os_base\os_task_queue.c ****       (&TASK_RUN_QUEUE[element_nr])->task_group                      = task->task_group;
 637              		.loc 1 132 0
 638 03ec FA7B     		ldrb	r2, [r7, #15]	@ zero_extendqisi2
 639 03ee 7B68     		ldr	r3, [r7, #4]
 640 03f0 996B     		ldr	r1, [r3, #56]
 641 03f2 3A48     		ldr	r0, .L19
 642 03f4 1346     		mov	r3, r2
 643 03f6 1B01     		lsls	r3, r3, #4
 644 03f8 1344     		add	r3, r3, r2
 645 03fa DB00     		lsls	r3, r3, #3
 646 03fc 0344     		add	r3, r3, r0
 647 03fe 3833     		adds	r3, r3, #56
 648 0400 1960     		str	r1, [r3]
 133:E:\NeuOrga\Programmieren\c_cpp\github_os\input\src\os_base\os_task_queue.c ****    #if(CFG_PROCESSOR == cMCU_X86)
 134:E:\NeuOrga\Programmieren\c_cpp\github_os\input\src\os_base\os_task_queue.c ****       (&TASK_RUN_QUEUE[element_nr])->EAX                             = task->EAX;
 135:E:\NeuOrga\Programmieren\c_cpp\github_os\input\src\os_base\os_task_queue.c ****       (&TASK_RUN_QUEUE[element_nr])->EBX                             = task->EBX;
 136:E:\NeuOrga\Programmieren\c_cpp\github_os\input\src\os_base\os_task_queue.c ****       (&TASK_RUN_QUEUE[element_nr])->ECX                             = task->ECX;
 137:E:\NeuOrga\Programmieren\c_cpp\github_os\input\src\os_base\os_task_queue.c ****       (&TASK_RUN_QUEUE[element_nr])->EDX                             = task->EDX;
 138:E:\NeuOrga\Programmieren\c_cpp\github_os\input\src\os_base\os_task_queue.c ****    #else
 139:E:\NeuOrga\Programmieren\c_cpp\github_os\input\src\os_base\os_task_queue.c ****       (&TASK_RUN_QUEUE[element_nr])->r0                             = task->r0;
 649              		.loc 1 139 0
 650 0402 FA7B     		ldrb	r2, [r7, #15]	@ zero_extendqisi2
 651 0404 7B68     		ldr	r3, [r7, #4]
 652 0406 D96B     		ldr	r1, [r3, #60]
 653 0408 3448     		ldr	r0, .L19
 654 040a 1346     		mov	r3, r2
 655 040c 1B01     		lsls	r3, r3, #4
 656 040e 1344     		add	r3, r3, r2
 657 0410 DB00     		lsls	r3, r3, #3
 658 0412 0344     		add	r3, r3, r0
 659 0414 3C33     		adds	r3, r3, #60
 660 0416 1960     		str	r1, [r3]
 140:E:\NeuOrga\Programmieren\c_cpp\github_os\input\src\os_base\os_task_queue.c ****       (&TASK_RUN_QUEUE[element_nr])->r1                             = task->r1;
ARM GAS  C:\Users\PRESID~1\AppData\Local\Temp\ccAgDin9.s 			page 15


 661              		.loc 1 140 0
 662 0418 FA7B     		ldrb	r2, [r7, #15]	@ zero_extendqisi2
 663 041a 7B68     		ldr	r3, [r7, #4]
 664 041c 196C     		ldr	r1, [r3, #64]
 665 041e 2F48     		ldr	r0, .L19
 666 0420 1346     		mov	r3, r2
 667 0422 1B01     		lsls	r3, r3, #4
 668 0424 1344     		add	r3, r3, r2
 669 0426 DB00     		lsls	r3, r3, #3
 670 0428 0344     		add	r3, r3, r0
 671 042a 4033     		adds	r3, r3, #64
 672 042c 1960     		str	r1, [r3]
 141:E:\NeuOrga\Programmieren\c_cpp\github_os\input\src\os_base\os_task_queue.c ****       (&TASK_RUN_QUEUE[element_nr])->r2                             = task->r2;
 673              		.loc 1 141 0
 674 042e FA7B     		ldrb	r2, [r7, #15]	@ zero_extendqisi2
 675 0430 7B68     		ldr	r3, [r7, #4]
 676 0432 596C     		ldr	r1, [r3, #68]
 677 0434 2948     		ldr	r0, .L19
 678 0436 1346     		mov	r3, r2
 679 0438 1B01     		lsls	r3, r3, #4
 680 043a 1344     		add	r3, r3, r2
 681 043c DB00     		lsls	r3, r3, #3
 682 043e 0344     		add	r3, r3, r0
 683 0440 4433     		adds	r3, r3, #68
 684 0442 1960     		str	r1, [r3]
 142:E:\NeuOrga\Programmieren\c_cpp\github_os\input\src\os_base\os_task_queue.c ****       (&TASK_RUN_QUEUE[element_nr])->r3                             = task->r3;
 685              		.loc 1 142 0
 686 0444 FA7B     		ldrb	r2, [r7, #15]	@ zero_extendqisi2
 687 0446 7B68     		ldr	r3, [r7, #4]
 688 0448 996C     		ldr	r1, [r3, #72]
 689 044a 2448     		ldr	r0, .L19
 690 044c 1346     		mov	r3, r2
 691 044e 1B01     		lsls	r3, r3, #4
 692 0450 1344     		add	r3, r3, r2
 693 0452 DB00     		lsls	r3, r3, #3
 694 0454 0344     		add	r3, r3, r0
 695 0456 4833     		adds	r3, r3, #72
 696 0458 1960     		str	r1, [r3]
 143:E:\NeuOrga\Programmieren\c_cpp\github_os\input\src\os_base\os_task_queue.c ****       (&TASK_RUN_QUEUE[element_nr])->r4                             = task->r4;
 697              		.loc 1 143 0
 698 045a FA7B     		ldrb	r2, [r7, #15]	@ zero_extendqisi2
 699 045c 7B68     		ldr	r3, [r7, #4]
 700 045e D96C     		ldr	r1, [r3, #76]
 701 0460 1E48     		ldr	r0, .L19
 702 0462 1346     		mov	r3, r2
 703 0464 1B01     		lsls	r3, r3, #4
 704 0466 1344     		add	r3, r3, r2
 705 0468 DB00     		lsls	r3, r3, #3
 706 046a 0344     		add	r3, r3, r0
 707 046c 4C33     		adds	r3, r3, #76
 708 046e 1960     		str	r1, [r3]
 144:E:\NeuOrga\Programmieren\c_cpp\github_os\input\src\os_base\os_task_queue.c ****       (&TASK_RUN_QUEUE[element_nr])->r5                             = task->r5;
 709              		.loc 1 144 0
 710 0470 FA7B     		ldrb	r2, [r7, #15]	@ zero_extendqisi2
 711 0472 7B68     		ldr	r3, [r7, #4]
 712 0474 196D     		ldr	r1, [r3, #80]
 713 0476 1948     		ldr	r0, .L19
ARM GAS  C:\Users\PRESID~1\AppData\Local\Temp\ccAgDin9.s 			page 16


 714 0478 1346     		mov	r3, r2
 715 047a 1B01     		lsls	r3, r3, #4
 716 047c 1344     		add	r3, r3, r2
 717 047e DB00     		lsls	r3, r3, #3
 718 0480 0344     		add	r3, r3, r0
 719 0482 5033     		adds	r3, r3, #80
 720 0484 1960     		str	r1, [r3]
 145:E:\NeuOrga\Programmieren\c_cpp\github_os\input\src\os_base\os_task_queue.c ****       (&TASK_RUN_QUEUE[element_nr])->r6                             = task->r6;
 721              		.loc 1 145 0
 722 0486 FA7B     		ldrb	r2, [r7, #15]	@ zero_extendqisi2
 723 0488 7B68     		ldr	r3, [r7, #4]
 724 048a 596D     		ldr	r1, [r3, #84]
 725 048c 1348     		ldr	r0, .L19
 726 048e 1346     		mov	r3, r2
 727 0490 1B01     		lsls	r3, r3, #4
 728 0492 1344     		add	r3, r3, r2
 729 0494 DB00     		lsls	r3, r3, #3
 730 0496 0344     		add	r3, r3, r0
 731 0498 5433     		adds	r3, r3, #84
 732 049a 1960     		str	r1, [r3]
 146:E:\NeuOrga\Programmieren\c_cpp\github_os\input\src\os_base\os_task_queue.c ****       (&TASK_RUN_QUEUE[element_nr])->r7                             = task->r7;
 733              		.loc 1 146 0
 734 049c FA7B     		ldrb	r2, [r7, #15]	@ zero_extendqisi2
 735 049e 7B68     		ldr	r3, [r7, #4]
 736 04a0 996D     		ldr	r1, [r3, #88]
 737 04a2 0E48     		ldr	r0, .L19
 738 04a4 1346     		mov	r3, r2
 739 04a6 1B01     		lsls	r3, r3, #4
 740 04a8 1344     		add	r3, r3, r2
 741 04aa DB00     		lsls	r3, r3, #3
 742 04ac 0344     		add	r3, r3, r0
 743 04ae 5833     		adds	r3, r3, #88
 744 04b0 1960     		str	r1, [r3]
 147:E:\NeuOrga\Programmieren\c_cpp\github_os\input\src\os_base\os_task_queue.c ****       (&TASK_RUN_QUEUE[element_nr])->r8                             = task->r8;
 745              		.loc 1 147 0
 746 04b2 FA7B     		ldrb	r2, [r7, #15]	@ zero_extendqisi2
 747 04b4 7B68     		ldr	r3, [r7, #4]
 748 04b6 D96D     		ldr	r1, [r3, #92]
 749 04b8 0848     		ldr	r0, .L19
 750 04ba 1346     		mov	r3, r2
 751 04bc 1B01     		lsls	r3, r3, #4
 752 04be 1344     		add	r3, r3, r2
 753 04c0 DB00     		lsls	r3, r3, #3
 754 04c2 0344     		add	r3, r3, r0
 755 04c4 5C33     		adds	r3, r3, #92
 756 04c6 1960     		str	r1, [r3]
 148:E:\NeuOrga\Programmieren\c_cpp\github_os\input\src\os_base\os_task_queue.c ****       (&TASK_RUN_QUEUE[element_nr])->r9                             = task->r9;
 757              		.loc 1 148 0
 758 04c8 FA7B     		ldrb	r2, [r7, #15]	@ zero_extendqisi2
 759 04ca 7B68     		ldr	r3, [r7, #4]
 760 04cc 196E     		ldr	r1, [r3, #96]
 761 04ce 0348     		ldr	r0, .L19
 762 04d0 1346     		mov	r3, r2
 763 04d2 1B01     		lsls	r3, r3, #4
 764 04d4 1344     		add	r3, r3, r2
 765 04d6 DB00     		lsls	r3, r3, #3
 766 04d8 0344     		add	r3, r3, r0
ARM GAS  C:\Users\PRESID~1\AppData\Local\Temp\ccAgDin9.s 			page 17


 767 04da 01E0     		b	.L20
 768              	.L21:
 769              		.align	2
 770              	.L19:
 771 04dc 00000000 		.word	TASK_RUN_QUEUE
 772              	.L20:
 773 04e0 6033     		adds	r3, r3, #96
 774 04e2 1960     		str	r1, [r3]
 149:E:\NeuOrga\Programmieren\c_cpp\github_os\input\src\os_base\os_task_queue.c ****       (&TASK_RUN_QUEUE[element_nr])->r10                            = task->r10;
 775              		.loc 1 149 0
 776 04e4 FA7B     		ldrb	r2, [r7, #15]	@ zero_extendqisi2
 777 04e6 7B68     		ldr	r3, [r7, #4]
 778 04e8 596E     		ldr	r1, [r3, #100]
 779 04ea 3148     		ldr	r0, .L22
 780 04ec 1346     		mov	r3, r2
 781 04ee 1B01     		lsls	r3, r3, #4
 782 04f0 1344     		add	r3, r3, r2
 783 04f2 DB00     		lsls	r3, r3, #3
 784 04f4 0344     		add	r3, r3, r0
 785 04f6 6433     		adds	r3, r3, #100
 786 04f8 1960     		str	r1, [r3]
 150:E:\NeuOrga\Programmieren\c_cpp\github_os\input\src\os_base\os_task_queue.c ****       (&TASK_RUN_QUEUE[element_nr])->r11                            = task->r11;
 787              		.loc 1 150 0
 788 04fa FA7B     		ldrb	r2, [r7, #15]	@ zero_extendqisi2
 789 04fc 7B68     		ldr	r3, [r7, #4]
 790 04fe 996E     		ldr	r1, [r3, #104]
 791 0500 2B48     		ldr	r0, .L22
 792 0502 1346     		mov	r3, r2
 793 0504 1B01     		lsls	r3, r3, #4
 794 0506 1344     		add	r3, r3, r2
 795 0508 DB00     		lsls	r3, r3, #3
 796 050a 0344     		add	r3, r3, r0
 797 050c 6833     		adds	r3, r3, #104
 798 050e 1960     		str	r1, [r3]
 151:E:\NeuOrga\Programmieren\c_cpp\github_os\input\src\os_base\os_task_queue.c ****       (&TASK_RUN_QUEUE[element_nr])->r12                            = task->r12;
 799              		.loc 1 151 0
 800 0510 FA7B     		ldrb	r2, [r7, #15]	@ zero_extendqisi2
 801 0512 7B68     		ldr	r3, [r7, #4]
 802 0514 D96E     		ldr	r1, [r3, #108]
 803 0516 2648     		ldr	r0, .L22
 804 0518 1346     		mov	r3, r2
 805 051a 1B01     		lsls	r3, r3, #4
 806 051c 1344     		add	r3, r3, r2
 807 051e DB00     		lsls	r3, r3, #3
 808 0520 0344     		add	r3, r3, r0
 809 0522 6C33     		adds	r3, r3, #108
 810 0524 1960     		str	r1, [r3]
 152:E:\NeuOrga\Programmieren\c_cpp\github_os\input\src\os_base\os_task_queue.c ****    #endif
 153:E:\NeuOrga\Programmieren\c_cpp\github_os\input\src\os_base\os_task_queue.c ****       (&TASK_RUN_QUEUE[element_nr])->pStackPointer                   = task->pStackPointer;
 811              		.loc 1 153 0
 812 0526 FA7B     		ldrb	r2, [r7, #15]	@ zero_extendqisi2
 813 0528 7B68     		ldr	r3, [r7, #4]
 814 052a 196F     		ldr	r1, [r3, #112]
 815 052c 2048     		ldr	r0, .L22
 816 052e 1346     		mov	r3, r2
 817 0530 1B01     		lsls	r3, r3, #4
 818 0532 1344     		add	r3, r3, r2
ARM GAS  C:\Users\PRESID~1\AppData\Local\Temp\ccAgDin9.s 			page 18


 819 0534 DB00     		lsls	r3, r3, #3
 820 0536 0344     		add	r3, r3, r0
 821 0538 7033     		adds	r3, r3, #112
 822 053a 1960     		str	r1, [r3]
 154:E:\NeuOrga\Programmieren\c_cpp\github_os\input\src\os_base\os_task_queue.c ****       (&TASK_RUN_QUEUE[element_nr])->pStackPointerByMalloc           = task->pStackPointerByMalloc;
 823              		.loc 1 154 0
 824 053c FA7B     		ldrb	r2, [r7, #15]	@ zero_extendqisi2
 825 053e 7B68     		ldr	r3, [r7, #4]
 826 0540 596F     		ldr	r1, [r3, #116]
 827 0542 1B48     		ldr	r0, .L22
 828 0544 1346     		mov	r3, r2
 829 0546 1B01     		lsls	r3, r3, #4
 830 0548 1344     		add	r3, r3, r2
 831 054a DB00     		lsls	r3, r3, #3
 832 054c 0344     		add	r3, r3, r0
 833 054e 7433     		adds	r3, r3, #116
 834 0550 1960     		str	r1, [r3]
 155:E:\NeuOrga\Programmieren\c_cpp\github_os\input\src\os_base\os_task_queue.c ****       (&TASK_RUN_QUEUE[element_nr])->pStackPointerStart              = task->pStackPointerStart;
 835              		.loc 1 155 0
 836 0552 FA7B     		ldrb	r2, [r7, #15]	@ zero_extendqisi2
 837 0554 7B68     		ldr	r3, [r7, #4]
 838 0556 996F     		ldr	r1, [r3, #120]
 839 0558 1548     		ldr	r0, .L22
 840 055a 1346     		mov	r3, r2
 841 055c 1B01     		lsls	r3, r3, #4
 842 055e 1344     		add	r3, r3, r2
 843 0560 DB00     		lsls	r3, r3, #3
 844 0562 0344     		add	r3, r3, r0
 845 0564 7833     		adds	r3, r3, #120
 846 0566 1960     		str	r1, [r3]
 156:E:\NeuOrga\Programmieren\c_cpp\github_os\input\src\os_base\os_task_queue.c ****       (&TASK_RUN_QUEUE[element_nr])->StackSize                       = task->StackSize;
 847              		.loc 1 156 0
 848 0568 FA7B     		ldrb	r2, [r7, #15]	@ zero_extendqisi2
 849 056a 7B68     		ldr	r3, [r7, #4]
 850 056c D96F     		ldr	r1, [r3, #124]
 851 056e 1048     		ldr	r0, .L22
 852 0570 1346     		mov	r3, r2
 853 0572 1B01     		lsls	r3, r3, #4
 854 0574 1344     		add	r3, r3, r2
 855 0576 DB00     		lsls	r3, r3, #3
 856 0578 0344     		add	r3, r3, r0
 857 057a 7C33     		adds	r3, r3, #124
 858 057c 1960     		str	r1, [r3]
 157:E:\NeuOrga\Programmieren\c_cpp\github_os\input\src\os_base\os_task_queue.c ****       (&TASK_RUN_QUEUE[element_nr])->pStackPointerEnd                = task->pStackPointerEnd;
 859              		.loc 1 157 0
 860 057e FA7B     		ldrb	r2, [r7, #15]	@ zero_extendqisi2
 861 0580 7B68     		ldr	r3, [r7, #4]
 862 0582 D3F88010 		ldr	r1, [r3, #128]
 863 0586 0A48     		ldr	r0, .L22
 864 0588 1346     		mov	r3, r2
 865 058a 1B01     		lsls	r3, r3, #4
 866 058c 1344     		add	r3, r3, r2
 867 058e DB00     		lsls	r3, r3, #3
 868 0590 0344     		add	r3, r3, r0
 869 0592 8033     		adds	r3, r3, #128
 870 0594 1960     		str	r1, [r3]
 871              	.L17:
ARM GAS  C:\Users\PRESID~1\AppData\Local\Temp\ccAgDin9.s 			page 19


 158:E:\NeuOrga\Programmieren\c_cpp\github_os\input\src\os_base\os_task_queue.c ****    }
 159:E:\NeuOrga\Programmieren\c_cpp\github_os\input\src\os_base\os_task_queue.c ****    return ((void*)&TASK_RUN_QUEUE[element_nr]);
 872              		.loc 1 159 0
 873 0596 FA7B     		ldrb	r2, [r7, #15]	@ zero_extendqisi2
 874 0598 1346     		mov	r3, r2
 875 059a 1B01     		lsls	r3, r3, #4
 876 059c 1344     		add	r3, r3, r2
 877 059e DB00     		lsls	r3, r3, #3
 878 05a0 034A     		ldr	r2, .L22
 879 05a2 1344     		add	r3, r3, r2
 160:E:\NeuOrga\Programmieren\c_cpp\github_os\input\src\os_base\os_task_queue.c **** }
 880              		.loc 1 160 0
 881 05a4 1846     		mov	r0, r3
 882 05a6 1437     		adds	r7, r7, #20
 883              		.cfi_def_cfa_offset 4
 884 05a8 BD46     		mov	sp, r7
 885              		.cfi_def_cfa_register 13
 886              		@ sp needed
 887 05aa 80BC     		pop	{r7}
 888              		.cfi_restore 7
 889              		.cfi_def_cfa_offset 0
 890 05ac 7047     		bx	lr
 891              	.L23:
 892 05ae 00BF     		.align	2
 893              	.L22:
 894 05b0 00000000 		.word	TASK_RUN_QUEUE
 895              		.cfi_endproc
 896              	.LFE2:
 898              		.align	1
 899              		.global	DeleteFromTaskQueue
 900              		.syntax unified
 901              		.thumb
 902              		.thumb_func
 903              		.fpu softvfp
 905              	DeleteFromTaskQueue:
 906              	.LFB3:
 161:E:\NeuOrga\Programmieren\c_cpp\github_os\input\src\os_base\os_task_queue.c **** void DeleteFromTaskQueue(task_t* task)
 162:E:\NeuOrga\Programmieren\c_cpp\github_os\input\src\os_base\os_task_queue.c **** {
 907              		.loc 1 162 0
 908              		.cfi_startproc
 909              		@ args = 0, pretend = 0, frame = 8
 910              		@ frame_needed = 1, uses_anonymous_args = 0
 911              		@ link register save eliminated.
 912 05b4 80B4     		push	{r7}
 913              		.cfi_def_cfa_offset 4
 914              		.cfi_offset 7, -4
 915 05b6 83B0     		sub	sp, sp, #12
 916              		.cfi_def_cfa_offset 16
 917 05b8 00AF     		add	r7, sp, #0
 918              		.cfi_def_cfa_register 7
 919 05ba 7860     		str	r0, [r7, #4]
 163:E:\NeuOrga\Programmieren\c_cpp\github_os\input\src\os_base\os_task_queue.c ****    task->active                                =   False   ;
 920              		.loc 1 163 0
 921 05bc 7A68     		ldr	r2, [r7, #4]
 922 05be 1378     		ldrb	r3, [r2]
 923 05c0 6FF30003 		bfc	r3, #0, #1
 924 05c4 1370     		strb	r3, [r2]
ARM GAS  C:\Users\PRESID~1\AppData\Local\Temp\ccAgDin9.s 			page 20


 164:E:\NeuOrga\Programmieren\c_cpp\github_os\input\src\os_base\os_task_queue.c ****    task->task_queued                           =   False   ;
 925              		.loc 1 164 0
 926 05c6 7A68     		ldr	r2, [r7, #4]
 927 05c8 1378     		ldrb	r3, [r2]
 928 05ca 6FF34103 		bfc	r3, #1, #1
 929 05ce 1370     		strb	r3, [r2]
 165:E:\NeuOrga\Programmieren\c_cpp\github_os\input\src\os_base\os_task_queue.c ****    task->IdleTask                              =   False   ;
 930              		.loc 1 165 0
 931 05d0 7A68     		ldr	r2, [r7, #4]
 932 05d2 1378     		ldrb	r3, [r2]
 933 05d4 6FF38203 		bfc	r3, #2, #1
 934 05d8 1370     		strb	r3, [r2]
 166:E:\NeuOrga\Programmieren\c_cpp\github_os\input\src\os_base\os_task_queue.c ****    task->FREE                                  =   0       ;
 935              		.loc 1 166 0
 936 05da 7A68     		ldr	r2, [r7, #4]
 937 05dc 1368     		ldr	r3, [r2]
 938 05de 6FF3DF03 		bfc	r3, #3, #29
 939 05e2 1360     		str	r3, [r2]
 167:E:\NeuOrga\Programmieren\c_cpp\github_os\input\src\os_base\os_task_queue.c ****    task->NrOfInsAllowed                        =   0       ;
 940              		.loc 1 167 0
 941 05e4 7B68     		ldr	r3, [r7, #4]
 942 05e6 0022     		movs	r2, #0
 943 05e8 1A71     		strb	r2, [r3, #4]
 168:E:\NeuOrga\Programmieren\c_cpp\github_os\input\src\os_base\os_task_queue.c ****    task->NrOfInsActivated                      =   0       ;
 944              		.loc 1 168 0
 945 05ea 7B68     		ldr	r3, [r7, #4]
 946 05ec 0022     		movs	r2, #0
 947 05ee 5A71     		strb	r2, [r3, #5]
 169:E:\NeuOrga\Programmieren\c_cpp\github_os\input\src\os_base\os_task_queue.c ****    task->WaitActUntil                          =   0       ;
 948              		.loc 1 169 0
 949 05f0 7B68     		ldr	r3, [r7, #4]
 950 05f2 0022     		movs	r2, #0
 951 05f4 9A60     		str	r2, [r3, #8]
 170:E:\NeuOrga\Programmieren\c_cpp\github_os\input\src\os_base\os_task_queue.c ****    task->wait_time                             =   0       ;
 952              		.loc 1 170 0
 953 05f6 7B68     		ldr	r3, [r7, #4]
 954 05f8 0022     		movs	r2, #0
 955 05fa DA60     		str	r2, [r3, #12]
 171:E:\NeuOrga\Programmieren\c_cpp\github_os\input\src\os_base\os_task_queue.c ****    task->TimeToPrioInc                         =   0       ;
 956              		.loc 1 171 0
 957 05fc 7B68     		ldr	r3, [r7, #4]
 958 05fe 0022     		movs	r2, #0
 959 0600 1A61     		str	r2, [r3, #16]
 172:E:\NeuOrga\Programmieren\c_cpp\github_os\input\src\os_base\os_task_queue.c ****    task->overwaittime_per_prio_inc_step        =   0       ;
 960              		.loc 1 172 0
 961 0602 7B68     		ldr	r3, [r7, #4]
 962 0604 0022     		movs	r2, #0
 963 0606 5A61     		str	r2, [r3, #20]
 173:E:\NeuOrga\Programmieren\c_cpp\github_os\input\src\os_base\os_task_queue.c ****    task->max_allowed_wait_time                 =   0       ;
 964              		.loc 1 173 0
 965 0608 7B68     		ldr	r3, [r7, #4]
 966 060a 0022     		movs	r2, #0
 967 060c 9A61     		str	r2, [r3, #24]
 174:E:\NeuOrga\Programmieren\c_cpp\github_os\input\src\os_base\os_task_queue.c ****    task->exe_time                              =   0       ;
 968              		.loc 1 174 0
 969 060e 7B68     		ldr	r3, [r7, #4]
 970 0610 0022     		movs	r2, #0
ARM GAS  C:\Users\PRESID~1\AppData\Local\Temp\ccAgDin9.s 			page 21


 971 0612 DA61     		str	r2, [r3, #28]
 175:E:\NeuOrga\Programmieren\c_cpp\github_os\input\src\os_base\os_task_queue.c ****    task->start_time                            =   0       ;
 972              		.loc 1 175 0
 973 0614 7B68     		ldr	r3, [r7, #4]
 974 0616 0022     		movs	r2, #0
 975 0618 1A62     		str	r2, [r3, #32]
 176:E:\NeuOrga\Programmieren\c_cpp\github_os\input\src\os_base\os_task_queue.c ****    task->current_prio                          =   0       ;
 976              		.loc 1 176 0
 977 061a 7B68     		ldr	r3, [r7, #4]
 978 061c 0022     		movs	r2, #0
 979 061e 83F82420 		strb	r2, [r3, #36]
 177:E:\NeuOrga\Programmieren\c_cpp\github_os\input\src\os_base\os_task_queue.c ****    task->default_prio                          =   0       ;
 980              		.loc 1 177 0
 981 0622 7B68     		ldr	r3, [r7, #4]
 982 0624 0022     		movs	r2, #0
 983 0626 83F82520 		strb	r2, [r3, #37]
 178:E:\NeuOrga\Programmieren\c_cpp\github_os\input\src\os_base\os_task_queue.c ****    task->fp                                    =   0       ;
 984              		.loc 1 178 0
 985 062a 7B68     		ldr	r3, [r7, #4]
 986 062c 0022     		movs	r2, #0
 987 062e DA62     		str	r2, [r3, #44]
 179:E:\NeuOrga\Programmieren\c_cpp\github_os\input\src\os_base\os_task_queue.c ****    task->state_request                         =   &task_state_request       ;
 988              		.loc 1 179 0
 989 0630 7B68     		ldr	r3, [r7, #4]
 990 0632 224A     		ldr	r2, .L25
 991 0634 1A63     		str	r2, [r3, #48]
 180:E:\NeuOrga\Programmieren\c_cpp\github_os\input\src\os_base\os_task_queue.c ****    task->task_state                            =   Task_unspecified;
 992              		.loc 1 180 0
 993 0636 7B68     		ldr	r3, [r7, #4]
 994 0638 0022     		movs	r2, #0
 995 063a 83F83420 		strb	r2, [r3, #52]
 181:E:\NeuOrga\Programmieren\c_cpp\github_os\input\src\os_base\os_task_queue.c ****    task->task_group                            =   0       ;
 996              		.loc 1 181 0
 997 063e 7B68     		ldr	r3, [r7, #4]
 998 0640 0022     		movs	r2, #0
 999 0642 9A63     		str	r2, [r3, #56]
 182:E:\NeuOrga\Programmieren\c_cpp\github_os\input\src\os_base\os_task_queue.c ****       #if(CFG_PROCESSOR == cMCU_X86)
 183:E:\NeuOrga\Programmieren\c_cpp\github_os\input\src\os_base\os_task_queue.c ****       task->EAX                                   =   0              ;
 184:E:\NeuOrga\Programmieren\c_cpp\github_os\input\src\os_base\os_task_queue.c ****       task->EBX                                   =   0             ;
 185:E:\NeuOrga\Programmieren\c_cpp\github_os\input\src\os_base\os_task_queue.c ****       task->ECX                                   =   0              ;
 186:E:\NeuOrga\Programmieren\c_cpp\github_os\input\src\os_base\os_task_queue.c ****       task->EDX                                   =   0              ;
 187:E:\NeuOrga\Programmieren\c_cpp\github_os\input\src\os_base\os_task_queue.c ****       #elif(CFG_PROCESSOR == cMCU_CORTEX_M4)
 188:E:\NeuOrga\Programmieren\c_cpp\github_os\input\src\os_base\os_task_queue.c ****       task->r0                                   =   0              ;
 1000              		.loc 1 188 0
 1001 0644 7B68     		ldr	r3, [r7, #4]
 1002 0646 0022     		movs	r2, #0
 1003 0648 DA63     		str	r2, [r3, #60]
 189:E:\NeuOrga\Programmieren\c_cpp\github_os\input\src\os_base\os_task_queue.c ****       task->r1                                   =   0              ;
 1004              		.loc 1 189 0
 1005 064a 7B68     		ldr	r3, [r7, #4]
 1006 064c 0022     		movs	r2, #0
 1007 064e 1A64     		str	r2, [r3, #64]
 190:E:\NeuOrga\Programmieren\c_cpp\github_os\input\src\os_base\os_task_queue.c ****       task->r2                                   =   0              ;
 1008              		.loc 1 190 0
 1009 0650 7B68     		ldr	r3, [r7, #4]
 1010 0652 0022     		movs	r2, #0
 1011 0654 5A64     		str	r2, [r3, #68]
ARM GAS  C:\Users\PRESID~1\AppData\Local\Temp\ccAgDin9.s 			page 22


 191:E:\NeuOrga\Programmieren\c_cpp\github_os\input\src\os_base\os_task_queue.c ****       task->r3                                   =   0              ;
 1012              		.loc 1 191 0
 1013 0656 7B68     		ldr	r3, [r7, #4]
 1014 0658 0022     		movs	r2, #0
 1015 065a 9A64     		str	r2, [r3, #72]
 192:E:\NeuOrga\Programmieren\c_cpp\github_os\input\src\os_base\os_task_queue.c ****       task->r4                                   =   0              ;
 1016              		.loc 1 192 0
 1017 065c 7B68     		ldr	r3, [r7, #4]
 1018 065e 0022     		movs	r2, #0
 1019 0660 DA64     		str	r2, [r3, #76]
 193:E:\NeuOrga\Programmieren\c_cpp\github_os\input\src\os_base\os_task_queue.c ****       task->r5                                   =   0              ;
 1020              		.loc 1 193 0
 1021 0662 7B68     		ldr	r3, [r7, #4]
 1022 0664 0022     		movs	r2, #0
 1023 0666 1A65     		str	r2, [r3, #80]
 194:E:\NeuOrga\Programmieren\c_cpp\github_os\input\src\os_base\os_task_queue.c ****       task->r6                                   =   0              ;
 1024              		.loc 1 194 0
 1025 0668 7B68     		ldr	r3, [r7, #4]
 1026 066a 0022     		movs	r2, #0
 1027 066c 5A65     		str	r2, [r3, #84]
 195:E:\NeuOrga\Programmieren\c_cpp\github_os\input\src\os_base\os_task_queue.c ****       task->r7                                   =   0              ;
 1028              		.loc 1 195 0
 1029 066e 7B68     		ldr	r3, [r7, #4]
 1030 0670 0022     		movs	r2, #0
 1031 0672 9A65     		str	r2, [r3, #88]
 196:E:\NeuOrga\Programmieren\c_cpp\github_os\input\src\os_base\os_task_queue.c ****       task->r8                                   =   0              ;
 1032              		.loc 1 196 0
 1033 0674 7B68     		ldr	r3, [r7, #4]
 1034 0676 0022     		movs	r2, #0
 1035 0678 DA65     		str	r2, [r3, #92]
 197:E:\NeuOrga\Programmieren\c_cpp\github_os\input\src\os_base\os_task_queue.c ****       task->r9                                   =   0              ;
 1036              		.loc 1 197 0
 1037 067a 7B68     		ldr	r3, [r7, #4]
 1038 067c 0022     		movs	r2, #0
 1039 067e 1A66     		str	r2, [r3, #96]
 198:E:\NeuOrga\Programmieren\c_cpp\github_os\input\src\os_base\os_task_queue.c ****       task->r10                                  =   0             ;
 1040              		.loc 1 198 0
 1041 0680 7B68     		ldr	r3, [r7, #4]
 1042 0682 0022     		movs	r2, #0
 1043 0684 5A66     		str	r2, [r3, #100]
 199:E:\NeuOrga\Programmieren\c_cpp\github_os\input\src\os_base\os_task_queue.c ****       task->r11                                  =   0             ;
 1044              		.loc 1 199 0
 1045 0686 7B68     		ldr	r3, [r7, #4]
 1046 0688 0022     		movs	r2, #0
 1047 068a 9A66     		str	r2, [r3, #104]
 200:E:\NeuOrga\Programmieren\c_cpp\github_os\input\src\os_base\os_task_queue.c ****       task->r12                                  =   0             ;
 1048              		.loc 1 200 0
 1049 068c 7B68     		ldr	r3, [r7, #4]
 1050 068e 0022     		movs	r2, #0
 1051 0690 DA66     		str	r2, [r3, #108]
 201:E:\NeuOrga\Programmieren\c_cpp\github_os\input\src\os_base\os_task_queue.c ****       #else
 202:E:\NeuOrga\Programmieren\c_cpp\github_os\input\src\os_base\os_task_queue.c ****       #error "os_task_queue.c"
 203:E:\NeuOrga\Programmieren\c_cpp\github_os\input\src\os_base\os_task_queue.c ****       #endif
 204:E:\NeuOrga\Programmieren\c_cpp\github_os\input\src\os_base\os_task_queue.c ****    task->pStackPointer                         =   0       ;
 1052              		.loc 1 204 0
 1053 0692 7B68     		ldr	r3, [r7, #4]
 1054 0694 0022     		movs	r2, #0
ARM GAS  C:\Users\PRESID~1\AppData\Local\Temp\ccAgDin9.s 			page 23


 1055 0696 1A67     		str	r2, [r3, #112]
 205:E:\NeuOrga\Programmieren\c_cpp\github_os\input\src\os_base\os_task_queue.c ****    task->pStackPointerByMalloc                 =   0       ;
 1056              		.loc 1 205 0
 1057 0698 7B68     		ldr	r3, [r7, #4]
 1058 069a 0022     		movs	r2, #0
 1059 069c 5A67     		str	r2, [r3, #116]
 206:E:\NeuOrga\Programmieren\c_cpp\github_os\input\src\os_base\os_task_queue.c ****    task->pStackPointerStart                    =   0       ;
 1060              		.loc 1 206 0
 1061 069e 7B68     		ldr	r3, [r7, #4]
 1062 06a0 0022     		movs	r2, #0
 1063 06a2 9A67     		str	r2, [r3, #120]
 207:E:\NeuOrga\Programmieren\c_cpp\github_os\input\src\os_base\os_task_queue.c ****    task->StackSize                             =   0       ;
 1064              		.loc 1 207 0
 1065 06a4 7B68     		ldr	r3, [r7, #4]
 1066 06a6 0022     		movs	r2, #0
 1067 06a8 DA67     		str	r2, [r3, #124]
 208:E:\NeuOrga\Programmieren\c_cpp\github_os\input\src\os_base\os_task_queue.c ****    task->pStackPointerEnd                      =   0       ;
 1068              		.loc 1 208 0
 1069 06aa 7B68     		ldr	r3, [r7, #4]
 1070 06ac 0022     		movs	r2, #0
 1071 06ae C3F88020 		str	r2, [r3, #128]
 209:E:\NeuOrga\Programmieren\c_cpp\github_os\input\src\os_base\os_task_queue.c **** }
 1072              		.loc 1 209 0
 1073 06b2 00BF     		nop
 1074 06b4 0C37     		adds	r7, r7, #12
 1075              		.cfi_def_cfa_offset 4
 1076 06b6 BD46     		mov	sp, r7
 1077              		.cfi_def_cfa_register 13
 1078              		@ sp needed
 1079 06b8 80BC     		pop	{r7}
 1080              		.cfi_restore 7
 1081              		.cfi_def_cfa_offset 0
 1082 06ba 7047     		bx	lr
 1083              	.L26:
 1084              		.align	2
 1085              	.L25:
 1086 06bc 00000000 		.word	task_state_request
 1087              		.cfi_endproc
 1088              	.LFE3:
 1090              		.align	1
 1091              		.global	GetFromTaskQueue
 1092              		.syntax unified
 1093              		.thumb
 1094              		.thumb_func
 1095              		.fpu softvfp
 1097              	GetFromTaskQueue:
 1098              	.LFB4:
 210:E:\NeuOrga\Programmieren\c_cpp\github_os\input\src\os_base\os_task_queue.c **** task_t* GetFromTaskQueue(link_list_t* link)
 211:E:\NeuOrga\Programmieren\c_cpp\github_os\input\src\os_base\os_task_queue.c **** {
 1099              		.loc 1 211 0
 1100              		.cfi_startproc
 1101              		@ args = 0, pretend = 0, frame = 8
 1102              		@ frame_needed = 1, uses_anonymous_args = 0
 1103              		@ link register save eliminated.
 1104 06c0 80B4     		push	{r7}
 1105              		.cfi_def_cfa_offset 4
 1106              		.cfi_offset 7, -4
ARM GAS  C:\Users\PRESID~1\AppData\Local\Temp\ccAgDin9.s 			page 24


 1107 06c2 83B0     		sub	sp, sp, #12
 1108              		.cfi_def_cfa_offset 16
 1109 06c4 00AF     		add	r7, sp, #0
 1110              		.cfi_def_cfa_register 7
 1111 06c6 7860     		str	r0, [r7, #4]
 212:E:\NeuOrga\Programmieren\c_cpp\github_os\input\src\os_base\os_task_queue.c ****    return ((task_t*)link);/*((task_t*)*link);*/
 1112              		.loc 1 212 0
 1113 06c8 7B68     		ldr	r3, [r7, #4]
 213:E:\NeuOrga\Programmieren\c_cpp\github_os\input\src\os_base\os_task_queue.c **** }
 1114              		.loc 1 213 0
 1115 06ca 1846     		mov	r0, r3
 1116 06cc 0C37     		adds	r7, r7, #12
 1117              		.cfi_def_cfa_offset 4
 1118 06ce BD46     		mov	sp, r7
 1119              		.cfi_def_cfa_register 13
 1120              		@ sp needed
 1121 06d0 80BC     		pop	{r7}
 1122              		.cfi_restore 7
 1123              		.cfi_def_cfa_offset 0
 1124 06d2 7047     		bx	lr
 1125              		.cfi_endproc
 1126              	.LFE4:
 1128              		.align	1
 1129              		.global	GetFromLinkList
 1130              		.syntax unified
 1131              		.thumb
 1132              		.thumb_func
 1133              		.fpu softvfp
 1135              	GetFromLinkList:
 1136              	.LFB5:
 214:E:\NeuOrga\Programmieren\c_cpp\github_os\input\src\os_base\os_task_queue.c **** link_list_t* GetFromLinkList(unsigned_char_t element_nr)
 215:E:\NeuOrga\Programmieren\c_cpp\github_os\input\src\os_base\os_task_queue.c **** {
 1137              		.loc 1 215 0
 1138              		.cfi_startproc
 1139              		@ args = 0, pretend = 0, frame = 8
 1140              		@ frame_needed = 1, uses_anonymous_args = 0
 1141              		@ link register save eliminated.
 1142 06d4 80B4     		push	{r7}
 1143              		.cfi_def_cfa_offset 4
 1144              		.cfi_offset 7, -4
 1145 06d6 83B0     		sub	sp, sp, #12
 1146              		.cfi_def_cfa_offset 16
 1147 06d8 00AF     		add	r7, sp, #0
 1148              		.cfi_def_cfa_register 7
 1149 06da 0346     		mov	r3, r0
 1150 06dc FB71     		strb	r3, [r7, #7]
 216:E:\NeuOrga\Programmieren\c_cpp\github_os\input\src\os_base\os_task_queue.c ****    return ((link_list_t*)pTASK_RUN_QUEUE[element_nr]);
 1151              		.loc 1 216 0
 1152 06de FB79     		ldrb	r3, [r7, #7]	@ zero_extendqisi2
 1153 06e0 034A     		ldr	r2, .L31
 1154 06e2 52F82330 		ldr	r3, [r2, r3, lsl #2]
 217:E:\NeuOrga\Programmieren\c_cpp\github_os\input\src\os_base\os_task_queue.c **** }
 1155              		.loc 1 217 0
 1156 06e6 1846     		mov	r0, r3
 1157 06e8 0C37     		adds	r7, r7, #12
 1158              		.cfi_def_cfa_offset 4
 1159 06ea BD46     		mov	sp, r7
ARM GAS  C:\Users\PRESID~1\AppData\Local\Temp\ccAgDin9.s 			page 25


 1160              		.cfi_def_cfa_register 13
 1161              		@ sp needed
 1162 06ec 80BC     		pop	{r7}
 1163              		.cfi_restore 7
 1164              		.cfi_def_cfa_offset 0
 1165 06ee 7047     		bx	lr
 1166              	.L32:
 1167              		.align	2
 1168              	.L31:
 1169 06f0 00000000 		.word	pTASK_RUN_QUEUE
 1170              		.cfi_endproc
 1171              	.LFE5:
 1173              		.align	1
 1174              		.global	DeleteFromLinkList
 1175              		.syntax unified
 1176              		.thumb
 1177              		.thumb_func
 1178              		.fpu softvfp
 1180              	DeleteFromLinkList:
 1181              	.LFB6:
 218:E:\NeuOrga\Programmieren\c_cpp\github_os\input\src\os_base\os_task_queue.c **** /* Pointer Queue Handling*/
 219:E:\NeuOrga\Programmieren\c_cpp\github_os\input\src\os_base\os_task_queue.c **** void DeleteFromLinkList(unsigned_char_t element_nr)
 220:E:\NeuOrga\Programmieren\c_cpp\github_os\input\src\os_base\os_task_queue.c **** {
 1182              		.loc 1 220 0
 1183              		.cfi_startproc
 1184              		@ args = 0, pretend = 0, frame = 8
 1185              		@ frame_needed = 1, uses_anonymous_args = 0
 1186              		@ link register save eliminated.
 1187 06f4 80B4     		push	{r7}
 1188              		.cfi_def_cfa_offset 4
 1189              		.cfi_offset 7, -4
 1190 06f6 83B0     		sub	sp, sp, #12
 1191              		.cfi_def_cfa_offset 16
 1192 06f8 00AF     		add	r7, sp, #0
 1193              		.cfi_def_cfa_register 7
 1194 06fa 0346     		mov	r3, r0
 1195 06fc FB71     		strb	r3, [r7, #7]
 221:E:\NeuOrga\Programmieren\c_cpp\github_os\input\src\os_base\os_task_queue.c ****    pTASK_RUN_QUEUE[element_nr] = 0;
 1196              		.loc 1 221 0
 1197 06fe FB79     		ldrb	r3, [r7, #7]	@ zero_extendqisi2
 1198 0700 044A     		ldr	r2, .L34
 1199 0702 0021     		movs	r1, #0
 1200 0704 42F82310 		str	r1, [r2, r3, lsl #2]
 222:E:\NeuOrga\Programmieren\c_cpp\github_os\input\src\os_base\os_task_queue.c **** }
 1201              		.loc 1 222 0
 1202 0708 00BF     		nop
 1203 070a 0C37     		adds	r7, r7, #12
 1204              		.cfi_def_cfa_offset 4
 1205 070c BD46     		mov	sp, r7
 1206              		.cfi_def_cfa_register 13
 1207              		@ sp needed
 1208 070e 80BC     		pop	{r7}
 1209              		.cfi_restore 7
 1210              		.cfi_def_cfa_offset 0
 1211 0710 7047     		bx	lr
 1212              	.L35:
 1213 0712 00BF     		.align	2
ARM GAS  C:\Users\PRESID~1\AppData\Local\Temp\ccAgDin9.s 			page 26


 1214              	.L34:
 1215 0714 00000000 		.word	pTASK_RUN_QUEUE
 1216              		.cfi_endproc
 1217              	.LFE6:
 1219              		.align	1
 1220              		.global	AddToLinkList
 1221              		.syntax unified
 1222              		.thumb
 1223              		.thumb_func
 1224              		.fpu softvfp
 1226              	AddToLinkList:
 1227              	.LFB7:
 223:E:\NeuOrga\Programmieren\c_cpp\github_os\input\src\os_base\os_task_queue.c **** void* AddToLinkList(task_t* task)
 224:E:\NeuOrga\Programmieren\c_cpp\github_os\input\src\os_base\os_task_queue.c **** {
 1228              		.loc 1 224 0
 1229              		.cfi_startproc
 1230              		@ args = 0, pretend = 0, frame = 16
 1231              		@ frame_needed = 1, uses_anonymous_args = 0
 1232              		@ link register save eliminated.
 1233 0718 80B4     		push	{r7}
 1234              		.cfi_def_cfa_offset 4
 1235              		.cfi_offset 7, -4
 1236 071a 85B0     		sub	sp, sp, #20
 1237              		.cfi_def_cfa_offset 24
 1238 071c 00AF     		add	r7, sp, #0
 1239              		.cfi_def_cfa_register 7
 1240 071e 7860     		str	r0, [r7, #4]
 225:E:\NeuOrga\Programmieren\c_cpp\github_os\input\src\os_base\os_task_queue.c ****    /*
 226:E:\NeuOrga\Programmieren\c_cpp\github_os\input\src\os_base\os_task_queue.c ****    Description:
 227:E:\NeuOrga\Programmieren\c_cpp\github_os\input\src\os_base\os_task_queue.c ****    add "task" into next free slot of pTASK_RUN_QUEUE
 228:E:\NeuOrga\Programmieren\c_cpp\github_os\input\src\os_base\os_task_queue.c **** 
 229:E:\NeuOrga\Programmieren\c_cpp\github_os\input\src\os_base\os_task_queue.c ****    in:     task_t* task (task to be added)
 230:E:\NeuOrga\Programmieren\c_cpp\github_os\input\src\os_base\os_task_queue.c ****    out     addresse of linklist_element, in which task was added
 231:E:\NeuOrga\Programmieren\c_cpp\github_os\input\src\os_base\os_task_queue.c ****    */
 232:E:\NeuOrga\Programmieren\c_cpp\github_os\input\src\os_base\os_task_queue.c ****    unsigned_char_t Add_successful = False;
 1241              		.loc 1 232 0
 1242 0720 0023     		movs	r3, #0
 1243 0722 FB73     		strb	r3, [r7, #15]
 233:E:\NeuOrga\Programmieren\c_cpp\github_os\input\src\os_base\os_task_queue.c ****    unsigned_char_t index = 0;
 1244              		.loc 1 233 0
 1245 0724 0023     		movs	r3, #0
 1246 0726 BB73     		strb	r3, [r7, #14]
 234:E:\NeuOrga\Programmieren\c_cpp\github_os\input\src\os_base\os_task_queue.c ****    void*        ret_val = 0;
 1247              		.loc 1 234 0
 1248 0728 0023     		movs	r3, #0
 1249 072a BB60     		str	r3, [r7, #8]
 235:E:\NeuOrga\Programmieren\c_cpp\github_os\input\src\os_base\os_task_queue.c **** 
 236:E:\NeuOrga\Programmieren\c_cpp\github_os\input\src\os_base\os_task_queue.c ****    while(  (index < MAX_RUN_QUEUE_SIZE)
 1250              		.loc 1 236 0
 1251 072c 14E0     		b	.L37
 1252              	.L40:
 237:E:\NeuOrga\Programmieren\c_cpp\github_os\input\src\os_base\os_task_queue.c ****            &&(Add_successful == False))
 238:E:\NeuOrga\Programmieren\c_cpp\github_os\input\src\os_base\os_task_queue.c ****    {
 239:E:\NeuOrga\Programmieren\c_cpp\github_os\input\src\os_base\os_task_queue.c ****       if(pTASK_RUN_QUEUE[index] == 0)
 1253              		.loc 1 239 0
 1254 072e BB7B     		ldrb	r3, [r7, #14]	@ zero_extendqisi2
 1255 0730 0F4A     		ldr	r2, .L42
ARM GAS  C:\Users\PRESID~1\AppData\Local\Temp\ccAgDin9.s 			page 27


 1256 0732 52F82330 		ldr	r3, [r2, r3, lsl #2]
 1257 0736 002B     		cmp	r3, #0
 1258 0738 0BD1     		bne	.L38
 240:E:\NeuOrga\Programmieren\c_cpp\github_os\input\src\os_base\os_task_queue.c ****       {
 241:E:\NeuOrga\Programmieren\c_cpp\github_os\input\src\os_base\os_task_queue.c ****          pTASK_RUN_QUEUE[index] = task;
 1259              		.loc 1 241 0
 1260 073a BB7B     		ldrb	r3, [r7, #14]	@ zero_extendqisi2
 1261 073c 0C49     		ldr	r1, .L42
 1262 073e 7A68     		ldr	r2, [r7, #4]
 1263 0740 41F82320 		str	r2, [r1, r3, lsl #2]
 242:E:\NeuOrga\Programmieren\c_cpp\github_os\input\src\os_base\os_task_queue.c ****          Add_successful         = True;
 1264              		.loc 1 242 0
 1265 0744 0123     		movs	r3, #1
 1266 0746 FB73     		strb	r3, [r7, #15]
 243:E:\NeuOrga\Programmieren\c_cpp\github_os\input\src\os_base\os_task_queue.c ****          ret_val                = &pTASK_RUN_QUEUE[index];
 1267              		.loc 1 243 0
 1268 0748 BB7B     		ldrb	r3, [r7, #14]	@ zero_extendqisi2
 1269 074a 9B00     		lsls	r3, r3, #2
 1270 074c 084A     		ldr	r2, .L42
 1271 074e 1344     		add	r3, r3, r2
 1272 0750 BB60     		str	r3, [r7, #8]
 1273              	.L38:
 244:E:\NeuOrga\Programmieren\c_cpp\github_os\input\src\os_base\os_task_queue.c ****       }
 245:E:\NeuOrga\Programmieren\c_cpp\github_os\input\src\os_base\os_task_queue.c ****       index++;
 1274              		.loc 1 245 0
 1275 0752 BB7B     		ldrb	r3, [r7, #14]	@ zero_extendqisi2
 1276 0754 0133     		adds	r3, r3, #1
 1277 0756 BB73     		strb	r3, [r7, #14]
 1278              	.L37:
 236:E:\NeuOrga\Programmieren\c_cpp\github_os\input\src\os_base\os_task_queue.c ****            &&(Add_successful == False))
 1279              		.loc 1 236 0
 1280 0758 BB7B     		ldrb	r3, [r7, #14]	@ zero_extendqisi2
 1281 075a 042B     		cmp	r3, #4
 1282 075c 02D8     		bhi	.L39
 237:E:\NeuOrga\Programmieren\c_cpp\github_os\input\src\os_base\os_task_queue.c ****    {
 1283              		.loc 1 237 0
 1284 075e FB7B     		ldrb	r3, [r7, #15]	@ zero_extendqisi2
 1285 0760 002B     		cmp	r3, #0
 1286 0762 E4D0     		beq	.L40
 1287              	.L39:
 246:E:\NeuOrga\Programmieren\c_cpp\github_os\input\src\os_base\os_task_queue.c ****    }
 247:E:\NeuOrga\Programmieren\c_cpp\github_os\input\src\os_base\os_task_queue.c ****    return ret_val;
 1288              		.loc 1 247 0
 1289 0764 BB68     		ldr	r3, [r7, #8]
 248:E:\NeuOrga\Programmieren\c_cpp\github_os\input\src\os_base\os_task_queue.c **** }
 1290              		.loc 1 248 0
 1291 0766 1846     		mov	r0, r3
 1292 0768 1437     		adds	r7, r7, #20
 1293              		.cfi_def_cfa_offset 4
 1294 076a BD46     		mov	sp, r7
 1295              		.cfi_def_cfa_register 13
 1296              		@ sp needed
 1297 076c 80BC     		pop	{r7}
 1298              		.cfi_restore 7
 1299              		.cfi_def_cfa_offset 0
 1300 076e 7047     		bx	lr
 1301              	.L43:
ARM GAS  C:\Users\PRESID~1\AppData\Local\Temp\ccAgDin9.s 			page 28


 1302              		.align	2
 1303              	.L42:
 1304 0770 00000000 		.word	pTASK_RUN_QUEUE
 1305              		.cfi_endproc
 1306              	.LFE7:
 1308              		.align	1
 1309              		.global	UpdateLinkList
 1310              		.syntax unified
 1311              		.thumb
 1312              		.thumb_func
 1313              		.fpu softvfp
 1315              	UpdateLinkList:
 1316              	.LFB8:
 249:E:\NeuOrga\Programmieren\c_cpp\github_os\input\src\os_base\os_task_queue.c **** void UpdateLinkList(void)
 250:E:\NeuOrga\Programmieren\c_cpp\github_os\input\src\os_base\os_task_queue.c **** {
 1317              		.loc 1 250 0
 1318              		.cfi_startproc
 1319              		@ args = 0, pretend = 0, frame = 8
 1320              		@ frame_needed = 1, uses_anonymous_args = 0
 1321              		@ link register save eliminated.
 1322 0774 80B4     		push	{r7}
 1323              		.cfi_def_cfa_offset 4
 1324              		.cfi_offset 7, -4
 1325 0776 83B0     		sub	sp, sp, #12
 1326              		.cfi_def_cfa_offset 16
 1327 0778 00AF     		add	r7, sp, #0
 1328              		.cfi_def_cfa_register 7
 251:E:\NeuOrga\Programmieren\c_cpp\github_os\input\src\os_base\os_task_queue.c ****    /* eliminate emptry link list entries (should be colleted at the high numbers) */
 252:E:\NeuOrga\Programmieren\c_cpp\github_os\input\src\os_base\os_task_queue.c ****    unsigned_char_t dest = 0, src = 0;
 1329              		.loc 1 252 0
 1330 077a 0023     		movs	r3, #0
 1331 077c FB71     		strb	r3, [r7, #7]
 1332 077e 0023     		movs	r3, #0
 1333 0780 BB71     		strb	r3, [r7, #6]
 253:E:\NeuOrga\Programmieren\c_cpp\github_os\input\src\os_base\os_task_queue.c **** 
 254:E:\NeuOrga\Programmieren\c_cpp\github_os\input\src\os_base\os_task_queue.c ****    while (dest < MAX_RUN_PQUEUE_SIZE)
 1334              		.loc 1 254 0
 1335 0782 2DE0     		b	.L45
 1336              	.L50:
 255:E:\NeuOrga\Programmieren\c_cpp\github_os\input\src\os_base\os_task_queue.c ****    {
 256:E:\NeuOrga\Programmieren\c_cpp\github_os\input\src\os_base\os_task_queue.c ****       if(pTASK_RUN_QUEUE[dest] == 0)
 1337              		.loc 1 256 0
 1338 0784 FB79     		ldrb	r3, [r7, #7]	@ zero_extendqisi2
 1339 0786 1A4A     		ldr	r2, .L51
 1340 0788 52F82330 		ldr	r3, [r2, r3, lsl #2]
 1341 078c 002B     		cmp	r3, #0
 1342 078e 24D1     		bne	.L46
 257:E:\NeuOrga\Programmieren\c_cpp\github_os\input\src\os_base\os_task_queue.c ****       {
 258:E:\NeuOrga\Programmieren\c_cpp\github_os\input\src\os_base\os_task_queue.c ****          /* found empty entry ->shift following elements left in array */
 259:E:\NeuOrga\Programmieren\c_cpp\github_os\input\src\os_base\os_task_queue.c **** 
 260:E:\NeuOrga\Programmieren\c_cpp\github_os\input\src\os_base\os_task_queue.c ****          src = dest; /* start from empty entry point */
 1343              		.loc 1 260 0
 1344 0790 FB79     		ldrb	r3, [r7, #7]
 1345 0792 BB71     		strb	r3, [r7, #6]
 261:E:\NeuOrga\Programmieren\c_cpp\github_os\input\src\os_base\os_task_queue.c ****          while((src < MAX_RUN_PQUEUE_SIZE)&&(pTASK_RUN_QUEUE[src]==0))
 1346              		.loc 1 261 0
 1347 0794 02E0     		b	.L47
ARM GAS  C:\Users\PRESID~1\AppData\Local\Temp\ccAgDin9.s 			page 29


 1348              	.L49:
 262:E:\NeuOrga\Programmieren\c_cpp\github_os\input\src\os_base\os_task_queue.c ****          {
 263:E:\NeuOrga\Programmieren\c_cpp\github_os\input\src\os_base\os_task_queue.c ****             src++;
 1349              		.loc 1 263 0
 1350 0796 BB79     		ldrb	r3, [r7, #6]	@ zero_extendqisi2
 1351 0798 0133     		adds	r3, r3, #1
 1352 079a BB71     		strb	r3, [r7, #6]
 1353              	.L47:
 261:E:\NeuOrga\Programmieren\c_cpp\github_os\input\src\os_base\os_task_queue.c ****          while((src < MAX_RUN_PQUEUE_SIZE)&&(pTASK_RUN_QUEUE[src]==0))
 1354              		.loc 1 261 0
 1355 079c BB79     		ldrb	r3, [r7, #6]	@ zero_extendqisi2
 1356 079e 042B     		cmp	r3, #4
 1357 07a0 05D8     		bhi	.L48
 261:E:\NeuOrga\Programmieren\c_cpp\github_os\input\src\os_base\os_task_queue.c ****          while((src < MAX_RUN_PQUEUE_SIZE)&&(pTASK_RUN_QUEUE[src]==0))
 1358              		.loc 1 261 0 is_stmt 0 discriminator 1
 1359 07a2 BB79     		ldrb	r3, [r7, #6]	@ zero_extendqisi2
 1360 07a4 124A     		ldr	r2, .L51
 1361 07a6 52F82330 		ldr	r3, [r2, r3, lsl #2]
 1362 07aa 002B     		cmp	r3, #0
 1363 07ac F3D0     		beq	.L49
 1364              	.L48:
 264:E:\NeuOrga\Programmieren\c_cpp\github_os\input\src\os_base\os_task_queue.c ****          }
 265:E:\NeuOrga\Programmieren\c_cpp\github_os\input\src\os_base\os_task_queue.c ****          if((src < MAX_RUN_PQUEUE_SIZE)&&(pTASK_RUN_QUEUE[src]!=0))
 1365              		.loc 1 265 0 is_stmt 1
 1366 07ae BB79     		ldrb	r3, [r7, #6]	@ zero_extendqisi2
 1367 07b0 042B     		cmp	r3, #4
 1368 07b2 12D8     		bhi	.L46
 1369              		.loc 1 265 0 is_stmt 0 discriminator 1
 1370 07b4 BB79     		ldrb	r3, [r7, #6]	@ zero_extendqisi2
 1371 07b6 0E4A     		ldr	r2, .L51
 1372 07b8 52F82330 		ldr	r3, [r2, r3, lsl #2]
 1373 07bc 002B     		cmp	r3, #0
 1374 07be 0CD0     		beq	.L46
 266:E:\NeuOrga\Programmieren\c_cpp\github_os\input\src\os_base\os_task_queue.c ****          {
 267:E:\NeuOrga\Programmieren\c_cpp\github_os\input\src\os_base\os_task_queue.c ****             pTASK_RUN_QUEUE[dest] = pTASK_RUN_QUEUE[src];
 1375              		.loc 1 267 0 is_stmt 1
 1376 07c0 BA79     		ldrb	r2, [r7, #6]	@ zero_extendqisi2
 1377 07c2 FB79     		ldrb	r3, [r7, #7]	@ zero_extendqisi2
 1378 07c4 0A49     		ldr	r1, .L51
 1379 07c6 51F82220 		ldr	r2, [r1, r2, lsl #2]
 1380 07ca 0949     		ldr	r1, .L51
 1381 07cc 41F82320 		str	r2, [r1, r3, lsl #2]
 268:E:\NeuOrga\Programmieren\c_cpp\github_os\input\src\os_base\os_task_queue.c ****             pTASK_RUN_QUEUE[src]  = 0;
 1382              		.loc 1 268 0
 1383 07d0 BB79     		ldrb	r3, [r7, #6]	@ zero_extendqisi2
 1384 07d2 074A     		ldr	r2, .L51
 1385 07d4 0021     		movs	r1, #0
 1386 07d6 42F82310 		str	r1, [r2, r3, lsl #2]
 1387              	.L46:
 269:E:\NeuOrga\Programmieren\c_cpp\github_os\input\src\os_base\os_task_queue.c ****          }
 270:E:\NeuOrga\Programmieren\c_cpp\github_os\input\src\os_base\os_task_queue.c ****       }
 271:E:\NeuOrga\Programmieren\c_cpp\github_os\input\src\os_base\os_task_queue.c ****       dest++;
 1388              		.loc 1 271 0
 1389 07da FB79     		ldrb	r3, [r7, #7]	@ zero_extendqisi2
 1390 07dc 0133     		adds	r3, r3, #1
 1391 07de FB71     		strb	r3, [r7, #7]
 1392              	.L45:
ARM GAS  C:\Users\PRESID~1\AppData\Local\Temp\ccAgDin9.s 			page 30


 254:E:\NeuOrga\Programmieren\c_cpp\github_os\input\src\os_base\os_task_queue.c ****    {
 1393              		.loc 1 254 0
 1394 07e0 FB79     		ldrb	r3, [r7, #7]	@ zero_extendqisi2
 1395 07e2 042B     		cmp	r3, #4
 1396 07e4 CED9     		bls	.L50
 272:E:\NeuOrga\Programmieren\c_cpp\github_os\input\src\os_base\os_task_queue.c ****    }
 273:E:\NeuOrga\Programmieren\c_cpp\github_os\input\src\os_base\os_task_queue.c **** }
 1397              		.loc 1 273 0
 1398 07e6 00BF     		nop
 1399 07e8 0C37     		adds	r7, r7, #12
 1400              		.cfi_def_cfa_offset 4
 1401 07ea BD46     		mov	sp, r7
 1402              		.cfi_def_cfa_register 13
 1403              		@ sp needed
 1404 07ec 80BC     		pop	{r7}
 1405              		.cfi_restore 7
 1406              		.cfi_def_cfa_offset 0
 1407 07ee 7047     		bx	lr
 1408              	.L52:
 1409              		.align	2
 1410              	.L51:
 1411 07f0 00000000 		.word	pTASK_RUN_QUEUE
 1412              		.cfi_endproc
 1413              	.LFE8:
 1415              		.align	1
 1416              		.global	GetIdleTask
 1417              		.syntax unified
 1418              		.thumb
 1419              		.thumb_func
 1420              		.fpu softvfp
 1422              	GetIdleTask:
 1423              	.LFB9:
 274:E:\NeuOrga\Programmieren\c_cpp\github_os\input\src\os_base\os_task_queue.c **** 
 275:E:\NeuOrga\Programmieren\c_cpp\github_os\input\src\os_base\os_task_queue.c **** /* Idle task queue handling */
 276:E:\NeuOrga\Programmieren\c_cpp\github_os\input\src\os_base\os_task_queue.c **** task_t* GetIdleTask(void)
 277:E:\NeuOrga\Programmieren\c_cpp\github_os\input\src\os_base\os_task_queue.c **** {
 1424              		.loc 1 277 0
 1425              		.cfi_startproc
 1426              		@ args = 0, pretend = 0, frame = 0
 1427              		@ frame_needed = 1, uses_anonymous_args = 0
 1428              		@ link register save eliminated.
 1429 07f4 80B4     		push	{r7}
 1430              		.cfi_def_cfa_offset 4
 1431              		.cfi_offset 7, -4
 1432 07f6 00AF     		add	r7, sp, #0
 1433              		.cfi_def_cfa_register 7
 278:E:\NeuOrga\Programmieren\c_cpp\github_os\input\src\os_base\os_task_queue.c ****    return (&TASK_IDLE_QUEUE[0]);
 1434              		.loc 1 278 0
 1435 07f8 024B     		ldr	r3, .L55
 279:E:\NeuOrga\Programmieren\c_cpp\github_os\input\src\os_base\os_task_queue.c **** }
 1436              		.loc 1 279 0
 1437 07fa 1846     		mov	r0, r3
 1438 07fc BD46     		mov	sp, r7
 1439              		.cfi_def_cfa_register 13
 1440              		@ sp needed
 1441 07fe 80BC     		pop	{r7}
 1442              		.cfi_restore 7
ARM GAS  C:\Users\PRESID~1\AppData\Local\Temp\ccAgDin9.s 			page 31


 1443              		.cfi_def_cfa_offset 0
 1444 0800 7047     		bx	lr
 1445              	.L56:
 1446 0802 00BF     		.align	2
 1447              	.L55:
 1448 0804 00000000 		.word	TASK_IDLE_QUEUE
 1449              		.cfi_endproc
 1450              	.LFE9:
 1452              		.align	1
 1453              		.global	AddToIdleTaskQueue
 1454              		.syntax unified
 1455              		.thumb
 1456              		.thumb_func
 1457              		.fpu softvfp
 1459              	AddToIdleTaskQueue:
 1460              	.LFB10:
 280:E:\NeuOrga\Programmieren\c_cpp\github_os\input\src\os_base\os_task_queue.c **** void AddToIdleTaskQueue(task_t* task)
 281:E:\NeuOrga\Programmieren\c_cpp\github_os\input\src\os_base\os_task_queue.c **** {
 1461              		.loc 1 281 0
 1462              		.cfi_startproc
 1463              		@ args = 0, pretend = 0, frame = 8
 1464              		@ frame_needed = 1, uses_anonymous_args = 0
 1465              		@ link register save eliminated.
 1466 0808 80B4     		push	{r7}
 1467              		.cfi_def_cfa_offset 4
 1468              		.cfi_offset 7, -4
 1469 080a 83B0     		sub	sp, sp, #12
 1470              		.cfi_def_cfa_offset 16
 1471 080c 00AF     		add	r7, sp, #0
 1472              		.cfi_def_cfa_register 7
 1473 080e 7860     		str	r0, [r7, #4]
 282:E:\NeuOrga\Programmieren\c_cpp\github_os\input\src\os_base\os_task_queue.c ****    /* only 1 element for TASK_IDLE_QUEUE allowed */
 283:E:\NeuOrga\Programmieren\c_cpp\github_os\input\src\os_base\os_task_queue.c ****    if((&TASK_IDLE_QUEUE[0])->IdleTask == False)
 1474              		.loc 1 283 0
 1475 0810 5C4B     		ldr	r3, .L60
 1476 0812 1B78     		ldrb	r3, [r3]	@ zero_extendqisi2
 1477 0814 03F00403 		and	r3, r3, #4
 1478 0818 DBB2     		uxtb	r3, r3
 1479 081a 002B     		cmp	r3, #0
 1480 081c 40F0AD80 		bne	.L59
 284:E:\NeuOrga\Programmieren\c_cpp\github_os\input\src\os_base\os_task_queue.c ****    {
 285:E:\NeuOrga\Programmieren\c_cpp\github_os\input\src\os_base\os_task_queue.c ****       (&TASK_IDLE_QUEUE[0])->active                                =   task->active           ;
 1481              		.loc 1 285 0
 1482 0820 7B68     		ldr	r3, [r7, #4]
 1483 0822 1B78     		ldrb	r3, [r3]
 1484 0824 C3F30003 		ubfx	r3, r3, #0, #1
 1485 0828 D9B2     		uxtb	r1, r3
 1486 082a 564A     		ldr	r2, .L60
 1487 082c 1378     		ldrb	r3, [r2]
 1488 082e 61F30003 		bfi	r3, r1, #0, #1
 1489 0832 1370     		strb	r3, [r2]
 286:E:\NeuOrga\Programmieren\c_cpp\github_os\input\src\os_base\os_task_queue.c ****       (&TASK_IDLE_QUEUE[0])->task_queued                           =   task->task_queued      ;
 1490              		.loc 1 286 0
 1491 0834 7B68     		ldr	r3, [r7, #4]
 1492 0836 1B78     		ldrb	r3, [r3]
 1493 0838 C3F34003 		ubfx	r3, r3, #1, #1
 1494 083c D9B2     		uxtb	r1, r3
ARM GAS  C:\Users\PRESID~1\AppData\Local\Temp\ccAgDin9.s 			page 32


 1495 083e 514A     		ldr	r2, .L60
 1496 0840 1378     		ldrb	r3, [r2]
 1497 0842 61F34103 		bfi	r3, r1, #1, #1
 1498 0846 1370     		strb	r3, [r2]
 287:E:\NeuOrga\Programmieren\c_cpp\github_os\input\src\os_base\os_task_queue.c ****       (&TASK_IDLE_QUEUE[0])->IdleTask                              =   task->IdleTask         ;
 1499              		.loc 1 287 0
 1500 0848 7B68     		ldr	r3, [r7, #4]
 1501 084a 1B78     		ldrb	r3, [r3]
 1502 084c C3F38003 		ubfx	r3, r3, #2, #1
 1503 0850 D9B2     		uxtb	r1, r3
 1504 0852 4C4A     		ldr	r2, .L60
 1505 0854 1378     		ldrb	r3, [r2]
 1506 0856 61F38203 		bfi	r3, r1, #2, #1
 1507 085a 1370     		strb	r3, [r2]
 288:E:\NeuOrga\Programmieren\c_cpp\github_os\input\src\os_base\os_task_queue.c ****       (&TASK_IDLE_QUEUE[0])->FREE                                  =   task->FREE             ;
 1508              		.loc 1 288 0
 1509 085c 7B68     		ldr	r3, [r7, #4]
 1510 085e 1B68     		ldr	r3, [r3]
 1511 0860 C3F3DC01 		ubfx	r1, r3, #3, #29
 1512 0864 474A     		ldr	r2, .L60
 1513 0866 1368     		ldr	r3, [r2]
 1514 0868 61F3DF03 		bfi	r3, r1, #3, #29
 1515 086c 1360     		str	r3, [r2]
 289:E:\NeuOrga\Programmieren\c_cpp\github_os\input\src\os_base\os_task_queue.c ****       (&TASK_IDLE_QUEUE[0])->NrOfInsAllowed                        =   task->NrOfInsAllowed   ;
 1516              		.loc 1 289 0
 1517 086e 7B68     		ldr	r3, [r7, #4]
 1518 0870 1A79     		ldrb	r2, [r3, #4]	@ zero_extendqisi2
 1519 0872 444B     		ldr	r3, .L60
 1520 0874 1A71     		strb	r2, [r3, #4]
 290:E:\NeuOrga\Programmieren\c_cpp\github_os\input\src\os_base\os_task_queue.c ****       (&TASK_IDLE_QUEUE[0])->NrOfInsActivated                      =   task->NrOfInsActivated ;
 1521              		.loc 1 290 0
 1522 0876 7B68     		ldr	r3, [r7, #4]
 1523 0878 5A79     		ldrb	r2, [r3, #5]	@ zero_extendqisi2
 1524 087a 424B     		ldr	r3, .L60
 1525 087c 5A71     		strb	r2, [r3, #5]
 291:E:\NeuOrga\Programmieren\c_cpp\github_os\input\src\os_base\os_task_queue.c ****       (&TASK_IDLE_QUEUE[0])->WaitActUntil                          =   task->WaitActUntil     ;
 1526              		.loc 1 291 0
 1527 087e 7B68     		ldr	r3, [r7, #4]
 1528 0880 9B68     		ldr	r3, [r3, #8]
 1529 0882 404A     		ldr	r2, .L60
 1530 0884 9360     		str	r3, [r2, #8]
 292:E:\NeuOrga\Programmieren\c_cpp\github_os\input\src\os_base\os_task_queue.c ****       (&TASK_IDLE_QUEUE[0])->wait_time                             =   task->wait_time        ;
 1531              		.loc 1 292 0
 1532 0886 7B68     		ldr	r3, [r7, #4]
 1533 0888 DB68     		ldr	r3, [r3, #12]
 1534 088a 3E4A     		ldr	r2, .L60
 1535 088c D360     		str	r3, [r2, #12]
 293:E:\NeuOrga\Programmieren\c_cpp\github_os\input\src\os_base\os_task_queue.c ****       (&TASK_IDLE_QUEUE[0])->TimeToPrioInc                         =   task->TimeToPrioInc    ;
 1536              		.loc 1 293 0
 1537 088e 7B68     		ldr	r3, [r7, #4]
 1538 0890 1B69     		ldr	r3, [r3, #16]
 1539 0892 3C4A     		ldr	r2, .L60
 1540 0894 1361     		str	r3, [r2, #16]
 294:E:\NeuOrga\Programmieren\c_cpp\github_os\input\src\os_base\os_task_queue.c ****       (&TASK_IDLE_QUEUE[0])->overwaittime_per_prio_inc_step        =   task->overwaittime_per_prio_
 1541              		.loc 1 294 0
 1542 0896 7B68     		ldr	r3, [r7, #4]
 1543 0898 5B69     		ldr	r3, [r3, #20]
ARM GAS  C:\Users\PRESID~1\AppData\Local\Temp\ccAgDin9.s 			page 33


 1544 089a 3A4A     		ldr	r2, .L60
 1545 089c 5361     		str	r3, [r2, #20]
 295:E:\NeuOrga\Programmieren\c_cpp\github_os\input\src\os_base\os_task_queue.c ****       (&TASK_IDLE_QUEUE[0])->max_allowed_wait_time                 =   task->max_allowed_wait_time;
 1546              		.loc 1 295 0
 1547 089e 7B68     		ldr	r3, [r7, #4]
 1548 08a0 9B69     		ldr	r3, [r3, #24]
 1549 08a2 384A     		ldr	r2, .L60
 1550 08a4 9361     		str	r3, [r2, #24]
 296:E:\NeuOrga\Programmieren\c_cpp\github_os\input\src\os_base\os_task_queue.c ****       (&TASK_IDLE_QUEUE[0])->exe_time                              =   task->exe_time;
 1551              		.loc 1 296 0
 1552 08a6 7B68     		ldr	r3, [r7, #4]
 1553 08a8 DB69     		ldr	r3, [r3, #28]
 1554 08aa 364A     		ldr	r2, .L60
 1555 08ac D361     		str	r3, [r2, #28]
 297:E:\NeuOrga\Programmieren\c_cpp\github_os\input\src\os_base\os_task_queue.c ****       (&TASK_IDLE_QUEUE[0])->current_prio                          =   task->current_prio     ;
 1556              		.loc 1 297 0
 1557 08ae 7B68     		ldr	r3, [r7, #4]
 1558 08b0 93F82420 		ldrb	r2, [r3, #36]	@ zero_extendqisi2
 1559 08b4 334B     		ldr	r3, .L60
 1560 08b6 83F82420 		strb	r2, [r3, #36]
 298:E:\NeuOrga\Programmieren\c_cpp\github_os\input\src\os_base\os_task_queue.c ****       (&TASK_IDLE_QUEUE[0])->default_prio                          =   task->default_prio     ;
 1561              		.loc 1 298 0
 1562 08ba 7B68     		ldr	r3, [r7, #4]
 1563 08bc 93F82520 		ldrb	r2, [r3, #37]	@ zero_extendqisi2
 1564 08c0 304B     		ldr	r3, .L60
 1565 08c2 83F82520 		strb	r2, [r3, #37]
 299:E:\NeuOrga\Programmieren\c_cpp\github_os\input\src\os_base\os_task_queue.c ****       (&TASK_IDLE_QUEUE[0])->fp                                    =   task->fp               ;
 1566              		.loc 1 299 0
 1567 08c6 7B68     		ldr	r3, [r7, #4]
 1568 08c8 DB6A     		ldr	r3, [r3, #44]
 1569 08ca 2E4A     		ldr	r2, .L60
 1570 08cc D362     		str	r3, [r2, #44]
 300:E:\NeuOrga\Programmieren\c_cpp\github_os\input\src\os_base\os_task_queue.c ****       (&TASK_IDLE_QUEUE[0])->state_request                         =   task->state_request    ;
 1571              		.loc 1 300 0
 1572 08ce 7B68     		ldr	r3, [r7, #4]
 1573 08d0 1B6B     		ldr	r3, [r3, #48]
 1574 08d2 2C4A     		ldr	r2, .L60
 1575 08d4 1363     		str	r3, [r2, #48]
 301:E:\NeuOrga\Programmieren\c_cpp\github_os\input\src\os_base\os_task_queue.c ****       (&TASK_IDLE_QUEUE[0])->task_state                            =   Task_ready             ;
 1576              		.loc 1 301 0
 1577 08d6 2B4B     		ldr	r3, .L60
 1578 08d8 0222     		movs	r2, #2
 1579 08da 83F83420 		strb	r2, [r3, #52]
 302:E:\NeuOrga\Programmieren\c_cpp\github_os\input\src\os_base\os_task_queue.c ****       (&TASK_IDLE_QUEUE[0])->task_group                            =   task->task_group       ;
 1580              		.loc 1 302 0
 1581 08de 7B68     		ldr	r3, [r7, #4]
 1582 08e0 9B6B     		ldr	r3, [r3, #56]
 1583 08e2 284A     		ldr	r2, .L60
 1584 08e4 9363     		str	r3, [r2, #56]
 303:E:\NeuOrga\Programmieren\c_cpp\github_os\input\src\os_base\os_task_queue.c ****       #if(CFG_PROCESSOR == cMCU_X86)
 304:E:\NeuOrga\Programmieren\c_cpp\github_os\input\src\os_base\os_task_queue.c ****       (&TASK_IDLE_QUEUE[0])->EAX                                   =   task->EAX              ;
 305:E:\NeuOrga\Programmieren\c_cpp\github_os\input\src\os_base\os_task_queue.c ****       (&TASK_IDLE_QUEUE[0])->EBX                                   =   task->EBX              ;
 306:E:\NeuOrga\Programmieren\c_cpp\github_os\input\src\os_base\os_task_queue.c ****       (&TASK_IDLE_QUEUE[0])->ECX                                   =   task->ECX              ;
 307:E:\NeuOrga\Programmieren\c_cpp\github_os\input\src\os_base\os_task_queue.c ****       (&TASK_IDLE_QUEUE[0])->EDX                                   =   task->EDX              ;
 308:E:\NeuOrga\Programmieren\c_cpp\github_os\input\src\os_base\os_task_queue.c ****       #elif(CFG_PROCESSOR == cMCU_CORTEX_M4)
 309:E:\NeuOrga\Programmieren\c_cpp\github_os\input\src\os_base\os_task_queue.c ****       (&TASK_IDLE_QUEUE[0])->r0                                   =   task->r0              ;
 1585              		.loc 1 309 0
ARM GAS  C:\Users\PRESID~1\AppData\Local\Temp\ccAgDin9.s 			page 34


 1586 08e6 7B68     		ldr	r3, [r7, #4]
 1587 08e8 DB6B     		ldr	r3, [r3, #60]
 1588 08ea 264A     		ldr	r2, .L60
 1589 08ec D363     		str	r3, [r2, #60]
 310:E:\NeuOrga\Programmieren\c_cpp\github_os\input\src\os_base\os_task_queue.c ****       (&TASK_IDLE_QUEUE[0])->r1                                   =   task->r1              ;
 1590              		.loc 1 310 0
 1591 08ee 7B68     		ldr	r3, [r7, #4]
 1592 08f0 1B6C     		ldr	r3, [r3, #64]
 1593 08f2 244A     		ldr	r2, .L60
 1594 08f4 1364     		str	r3, [r2, #64]
 311:E:\NeuOrga\Programmieren\c_cpp\github_os\input\src\os_base\os_task_queue.c ****       (&TASK_IDLE_QUEUE[0])->r2                                   =   task->r2              ;
 1595              		.loc 1 311 0
 1596 08f6 7B68     		ldr	r3, [r7, #4]
 1597 08f8 5B6C     		ldr	r3, [r3, #68]
 1598 08fa 224A     		ldr	r2, .L60
 1599 08fc 5364     		str	r3, [r2, #68]
 312:E:\NeuOrga\Programmieren\c_cpp\github_os\input\src\os_base\os_task_queue.c ****       (&TASK_IDLE_QUEUE[0])->r3                                   =   task->r3              ;
 1600              		.loc 1 312 0
 1601 08fe 7B68     		ldr	r3, [r7, #4]
 1602 0900 9B6C     		ldr	r3, [r3, #72]
 1603 0902 204A     		ldr	r2, .L60
 1604 0904 9364     		str	r3, [r2, #72]
 313:E:\NeuOrga\Programmieren\c_cpp\github_os\input\src\os_base\os_task_queue.c ****       (&TASK_IDLE_QUEUE[0])->r4                                   =   task->r4              ;
 1605              		.loc 1 313 0
 1606 0906 7B68     		ldr	r3, [r7, #4]
 1607 0908 DB6C     		ldr	r3, [r3, #76]
 1608 090a 1E4A     		ldr	r2, .L60
 1609 090c D364     		str	r3, [r2, #76]
 314:E:\NeuOrga\Programmieren\c_cpp\github_os\input\src\os_base\os_task_queue.c ****       (&TASK_IDLE_QUEUE[0])->r5                                   =   task->r5              ;
 1610              		.loc 1 314 0
 1611 090e 7B68     		ldr	r3, [r7, #4]
 1612 0910 1B6D     		ldr	r3, [r3, #80]
 1613 0912 1C4A     		ldr	r2, .L60
 1614 0914 1365     		str	r3, [r2, #80]
 315:E:\NeuOrga\Programmieren\c_cpp\github_os\input\src\os_base\os_task_queue.c ****       (&TASK_IDLE_QUEUE[0])->r6                                   =   task->r6              ;
 1615              		.loc 1 315 0
 1616 0916 7B68     		ldr	r3, [r7, #4]
 1617 0918 5B6D     		ldr	r3, [r3, #84]
 1618 091a 1A4A     		ldr	r2, .L60
 1619 091c 5365     		str	r3, [r2, #84]
 316:E:\NeuOrga\Programmieren\c_cpp\github_os\input\src\os_base\os_task_queue.c ****       (&TASK_IDLE_QUEUE[0])->r7                                   =   task->r7              ;
 1620              		.loc 1 316 0
 1621 091e 7B68     		ldr	r3, [r7, #4]
 1622 0920 9B6D     		ldr	r3, [r3, #88]
 1623 0922 184A     		ldr	r2, .L60
 1624 0924 9365     		str	r3, [r2, #88]
 317:E:\NeuOrga\Programmieren\c_cpp\github_os\input\src\os_base\os_task_queue.c ****       (&TASK_IDLE_QUEUE[0])->r8                                   =   task->r8              ;
 1625              		.loc 1 317 0
 1626 0926 7B68     		ldr	r3, [r7, #4]
 1627 0928 DB6D     		ldr	r3, [r3, #92]
 1628 092a 164A     		ldr	r2, .L60
 1629 092c D365     		str	r3, [r2, #92]
 318:E:\NeuOrga\Programmieren\c_cpp\github_os\input\src\os_base\os_task_queue.c ****       (&TASK_IDLE_QUEUE[0])->r9                                   =   task->r9              ;
 1630              		.loc 1 318 0
 1631 092e 7B68     		ldr	r3, [r7, #4]
 1632 0930 1B6E     		ldr	r3, [r3, #96]
 1633 0932 144A     		ldr	r2, .L60
ARM GAS  C:\Users\PRESID~1\AppData\Local\Temp\ccAgDin9.s 			page 35


 1634 0934 1366     		str	r3, [r2, #96]
 319:E:\NeuOrga\Programmieren\c_cpp\github_os\input\src\os_base\os_task_queue.c ****       (&TASK_IDLE_QUEUE[0])->r10                                  =   task->r10             ;
 1635              		.loc 1 319 0
 1636 0936 7B68     		ldr	r3, [r7, #4]
 1637 0938 5B6E     		ldr	r3, [r3, #100]
 1638 093a 124A     		ldr	r2, .L60
 1639 093c 5366     		str	r3, [r2, #100]
 320:E:\NeuOrga\Programmieren\c_cpp\github_os\input\src\os_base\os_task_queue.c ****       (&TASK_IDLE_QUEUE[0])->r11                                  =   task->r11             ;
 1640              		.loc 1 320 0
 1641 093e 7B68     		ldr	r3, [r7, #4]
 1642 0940 9B6E     		ldr	r3, [r3, #104]
 1643 0942 104A     		ldr	r2, .L60
 1644 0944 9366     		str	r3, [r2, #104]
 321:E:\NeuOrga\Programmieren\c_cpp\github_os\input\src\os_base\os_task_queue.c ****       (&TASK_IDLE_QUEUE[0])->r12                                  =   task->r12             ;
 1645              		.loc 1 321 0
 1646 0946 7B68     		ldr	r3, [r7, #4]
 1647 0948 DB6E     		ldr	r3, [r3, #108]
 1648 094a 0E4A     		ldr	r2, .L60
 1649 094c D366     		str	r3, [r2, #108]
 322:E:\NeuOrga\Programmieren\c_cpp\github_os\input\src\os_base\os_task_queue.c ****       #else
 323:E:\NeuOrga\Programmieren\c_cpp\github_os\input\src\os_base\os_task_queue.c ****       #error "os_task_queue.c"
 324:E:\NeuOrga\Programmieren\c_cpp\github_os\input\src\os_base\os_task_queue.c ****       #endif
 325:E:\NeuOrga\Programmieren\c_cpp\github_os\input\src\os_base\os_task_queue.c ****       (&TASK_IDLE_QUEUE[0])->pStackPointer                         =   task->pStackPointer    ;
 1650              		.loc 1 325 0
 1651 094e 7B68     		ldr	r3, [r7, #4]
 1652 0950 1B6F     		ldr	r3, [r3, #112]
 1653 0952 0C4A     		ldr	r2, .L60
 1654 0954 1367     		str	r3, [r2, #112]
 326:E:\NeuOrga\Programmieren\c_cpp\github_os\input\src\os_base\os_task_queue.c ****       (&TASK_IDLE_QUEUE[0])->pStackPointerByMalloc                 =   task->pStackPointerByMalloc;
 1655              		.loc 1 326 0
 1656 0956 7B68     		ldr	r3, [r7, #4]
 1657 0958 5B6F     		ldr	r3, [r3, #116]
 1658 095a 0A4A     		ldr	r2, .L60
 1659 095c 5367     		str	r3, [r2, #116]
 327:E:\NeuOrga\Programmieren\c_cpp\github_os\input\src\os_base\os_task_queue.c ****       (&TASK_IDLE_QUEUE[0])->pStackPointerStart                    =   task->pStackPointerStart;
 1660              		.loc 1 327 0
 1661 095e 7B68     		ldr	r3, [r7, #4]
 1662 0960 9B6F     		ldr	r3, [r3, #120]
 1663 0962 084A     		ldr	r2, .L60
 1664 0964 9367     		str	r3, [r2, #120]
 328:E:\NeuOrga\Programmieren\c_cpp\github_os\input\src\os_base\os_task_queue.c ****       (&TASK_IDLE_QUEUE[0])->StackSize                             =   task->StackSize        ;
 1665              		.loc 1 328 0
 1666 0966 7B68     		ldr	r3, [r7, #4]
 1667 0968 DB6F     		ldr	r3, [r3, #124]
 1668 096a 064A     		ldr	r2, .L60
 1669 096c D367     		str	r3, [r2, #124]
 329:E:\NeuOrga\Programmieren\c_cpp\github_os\input\src\os_base\os_task_queue.c ****       (&TASK_IDLE_QUEUE[0])->pStackPointerEnd                      =   task->pStackPointerEnd ;
 1670              		.loc 1 329 0
 1671 096e 7B68     		ldr	r3, [r7, #4]
 1672 0970 D3F88030 		ldr	r3, [r3, #128]
 1673 0974 034A     		ldr	r2, .L60
 1674 0976 C2F88030 		str	r3, [r2, #128]
 1675              	.L59:
 330:E:\NeuOrga\Programmieren\c_cpp\github_os\input\src\os_base\os_task_queue.c ****    }
 331:E:\NeuOrga\Programmieren\c_cpp\github_os\input\src\os_base\os_task_queue.c **** }
 1676              		.loc 1 331 0
 1677 097a 00BF     		nop
ARM GAS  C:\Users\PRESID~1\AppData\Local\Temp\ccAgDin9.s 			page 36


 1678 097c 0C37     		adds	r7, r7, #12
 1679              		.cfi_def_cfa_offset 4
 1680 097e BD46     		mov	sp, r7
 1681              		.cfi_def_cfa_register 13
 1682              		@ sp needed
 1683 0980 80BC     		pop	{r7}
 1684              		.cfi_restore 7
 1685              		.cfi_def_cfa_offset 0
 1686 0982 7047     		bx	lr
 1687              	.L61:
 1688              		.align	2
 1689              	.L60:
 1690 0984 00000000 		.word	TASK_IDLE_QUEUE
 1691              		.cfi_endproc
 1692              	.LFE10:
 1694              		.align	1
 1695              		.global	GetRunningTask
 1696              		.syntax unified
 1697              		.thumb
 1698              		.thumb_func
 1699              		.fpu softvfp
 1701              	GetRunningTask:
 1702              	.LFB11:
 332:E:\NeuOrga\Programmieren\c_cpp\github_os\input\src\os_base\os_task_queue.c **** task_t* GetRunningTask(void)
 333:E:\NeuOrga\Programmieren\c_cpp\github_os\input\src\os_base\os_task_queue.c **** {
 1703              		.loc 1 333 0
 1704              		.cfi_startproc
 1705              		@ args = 0, pretend = 0, frame = 0
 1706              		@ frame_needed = 1, uses_anonymous_args = 0
 1707              		@ link register save eliminated.
 1708 0988 80B4     		push	{r7}
 1709              		.cfi_def_cfa_offset 4
 1710              		.cfi_offset 7, -4
 1711 098a 00AF     		add	r7, sp, #0
 1712              		.cfi_def_cfa_register 7
 334:E:\NeuOrga\Programmieren\c_cpp\github_os\input\src\os_base\os_task_queue.c ****    return (&RUNNING_TASK[0]);
 1713              		.loc 1 334 0
 1714 098c 024B     		ldr	r3, .L64
 335:E:\NeuOrga\Programmieren\c_cpp\github_os\input\src\os_base\os_task_queue.c **** }
 1715              		.loc 1 335 0
 1716 098e 1846     		mov	r0, r3
 1717 0990 BD46     		mov	sp, r7
 1718              		.cfi_def_cfa_register 13
 1719              		@ sp needed
 1720 0992 80BC     		pop	{r7}
 1721              		.cfi_restore 7
 1722              		.cfi_def_cfa_offset 0
 1723 0994 7047     		bx	lr
 1724              	.L65:
 1725 0996 00BF     		.align	2
 1726              	.L64:
 1727 0998 00000000 		.word	RUNNING_TASK
 1728              		.cfi_endproc
 1729              	.LFE11:
 1731              		.align	1
 1732              		.global	OS_INIT_TASK
 1733              		.syntax unified
ARM GAS  C:\Users\PRESID~1\AppData\Local\Temp\ccAgDin9.s 			page 37


 1734              		.thumb
 1735              		.thumb_func
 1736              		.fpu softvfp
 1738              	OS_INIT_TASK:
 1739              	.LFB12:
 336:E:\NeuOrga\Programmieren\c_cpp\github_os\input\src\os_base\os_task_queue.c **** 
 337:E:\NeuOrga\Programmieren\c_cpp\github_os\input\src\os_base\os_task_queue.c **** void OS_INIT_TASK(
 338:E:\NeuOrga\Programmieren\c_cpp\github_os\input\src\os_base\os_task_queue.c ****    task_t*          task,
 339:E:\NeuOrga\Programmieren\c_cpp\github_os\input\src\os_base\os_task_queue.c ****    func_p_t         TaskFunction,
 340:E:\NeuOrga\Programmieren\c_cpp\github_os\input\src\os_base\os_task_queue.c ****    unsigned_char_t  AllowedInstances,
 341:E:\NeuOrga\Programmieren\c_cpp\github_os\input\src\os_base\os_task_queue.c ****    unsigned_char_t  IdleTask,
 342:E:\NeuOrga\Programmieren\c_cpp\github_os\input\src\os_base\os_task_queue.c ****    task_group_t*    p_task_group,
 343:E:\NeuOrga\Programmieren\c_cpp\github_os\input\src\os_base\os_task_queue.c ****    unsigned_char_t* pStackAddr,
 344:E:\NeuOrga\Programmieren\c_cpp\github_os\input\src\os_base\os_task_queue.c ****    unsigned_int32_t uStackSize,
 345:E:\NeuOrga\Programmieren\c_cpp\github_os\input\src\os_base\os_task_queue.c ****    privilige_mode_t privilige_mode,
 346:E:\NeuOrga\Programmieren\c_cpp\github_os\input\src\os_base\os_task_queue.c ****    CoreID_t         core,
 347:E:\NeuOrga\Programmieren\c_cpp\github_os\input\src\os_base\os_task_queue.c ****    unsigned_char_t  default_prio
 348:E:\NeuOrga\Programmieren\c_cpp\github_os\input\src\os_base\os_task_queue.c **** )
 349:E:\NeuOrga\Programmieren\c_cpp\github_os\input\src\os_base\os_task_queue.c **** {
 1740              		.loc 1 349 0
 1741              		.cfi_startproc
 1742              		@ args = 24, pretend = 0, frame = 16
 1743              		@ frame_needed = 1, uses_anonymous_args = 0
 1744 099c 80B5     		push	{r7, lr}
 1745              		.cfi_def_cfa_offset 8
 1746              		.cfi_offset 7, -8
 1747              		.cfi_offset 14, -4
 1748 099e 84B0     		sub	sp, sp, #16
 1749              		.cfi_def_cfa_offset 24
 1750 09a0 00AF     		add	r7, sp, #0
 1751              		.cfi_def_cfa_register 7
 1752 09a2 F860     		str	r0, [r7, #12]
 1753 09a4 B960     		str	r1, [r7, #8]
 1754 09a6 1146     		mov	r1, r2
 1755 09a8 1A46     		mov	r2, r3
 1756 09aa 0B46     		mov	r3, r1
 1757 09ac FB71     		strb	r3, [r7, #7]
 1758 09ae 1346     		mov	r3, r2
 1759 09b0 BB71     		strb	r3, [r7, #6]
 350:E:\NeuOrga\Programmieren\c_cpp\github_os\input\src\os_base\os_task_queue.c ****    ReferenceUnusedParameter(core);
 351:E:\NeuOrga\Programmieren\c_cpp\github_os\input\src\os_base\os_task_queue.c ****    if(task!=0)
 1760              		.loc 1 351 0
 1761 09b2 FB68     		ldr	r3, [r7, #12]
 1762 09b4 002B     		cmp	r3, #0
 1763 09b6 5AD0     		beq	.L67
 352:E:\NeuOrga\Programmieren\c_cpp\github_os\input\src\os_base\os_task_queue.c ****    {
 353:E:\NeuOrga\Programmieren\c_cpp\github_os\input\src\os_base\os_task_queue.c ****       task->active           = False;
 1764              		.loc 1 353 0
 1765 09b8 FA68     		ldr	r2, [r7, #12]
 1766 09ba 1378     		ldrb	r3, [r2]
 1767 09bc 6FF30003 		bfc	r3, #0, #1
 1768 09c0 1370     		strb	r3, [r2]
 354:E:\NeuOrga\Programmieren\c_cpp\github_os\input\src\os_base\os_task_queue.c ****       task->fp               = TaskFunction;
 1769              		.loc 1 354 0
 1770 09c2 FB68     		ldr	r3, [r7, #12]
 1771 09c4 BA68     		ldr	r2, [r7, #8]
 1772 09c6 DA62     		str	r2, [r3, #44]
ARM GAS  C:\Users\PRESID~1\AppData\Local\Temp\ccAgDin9.s 			page 38


 355:E:\NeuOrga\Programmieren\c_cpp\github_os\input\src\os_base\os_task_queue.c ****       task->NrOfInsAllowed   = AllowedInstances;
 1773              		.loc 1 355 0
 1774 09c8 FB68     		ldr	r3, [r7, #12]
 1775 09ca FA79     		ldrb	r2, [r7, #7]
 1776 09cc 1A71     		strb	r2, [r3, #4]
 356:E:\NeuOrga\Programmieren\c_cpp\github_os\input\src\os_base\os_task_queue.c ****       task->task_group       = p_task_group;
 1777              		.loc 1 356 0
 1778 09ce FB68     		ldr	r3, [r7, #12]
 1779 09d0 BA69     		ldr	r2, [r7, #24]
 1780 09d2 9A63     		str	r2, [r3, #56]
 357:E:\NeuOrga\Programmieren\c_cpp\github_os\input\src\os_base\os_task_queue.c ****       task->NrOfInsActivated = 0;
 1781              		.loc 1 357 0
 1782 09d4 FB68     		ldr	r3, [r7, #12]
 1783 09d6 0022     		movs	r2, #0
 1784 09d8 5A71     		strb	r2, [r3, #5]
 358:E:\NeuOrga\Programmieren\c_cpp\github_os\input\src\os_base\os_task_queue.c ****       task->WaitActUntil     = 0;
 1785              		.loc 1 358 0
 1786 09da FB68     		ldr	r3, [r7, #12]
 1787 09dc 0022     		movs	r2, #0
 1788 09de 9A60     		str	r2, [r3, #8]
 359:E:\NeuOrga\Programmieren\c_cpp\github_os\input\src\os_base\os_task_queue.c ****       task->privilige_mode   = privilige_mode;
 1789              		.loc 1 359 0
 1790 09e0 FB68     		ldr	r3, [r7, #12]
 1791 09e2 97F82420 		ldrb	r2, [r7, #36]
 1792 09e6 83F88420 		strb	r2, [r3, #132]
 360:E:\NeuOrga\Programmieren\c_cpp\github_os\input\src\os_base\os_task_queue.c ****       task->default_prio     = default_prio;
 1793              		.loc 1 360 0
 1794 09ea FB68     		ldr	r3, [r7, #12]
 1795 09ec 97F82C20 		ldrb	r2, [r7, #44]
 1796 09f0 83F82520 		strb	r2, [r3, #37]
 361:E:\NeuOrga\Programmieren\c_cpp\github_os\input\src\os_base\os_task_queue.c **** 
 362:E:\NeuOrga\Programmieren\c_cpp\github_os\input\src\os_base\os_task_queue.c ****       task->overwaittime_per_prio_inc_step = 1;
 1797              		.loc 1 362 0
 1798 09f4 FB68     		ldr	r3, [r7, #12]
 1799 09f6 0122     		movs	r2, #1
 1800 09f8 5A61     		str	r2, [r3, #20]
 363:E:\NeuOrga\Programmieren\c_cpp\github_os\input\src\os_base\os_task_queue.c ****       task->max_allowed_wait_time          = 100000;
 1801              		.loc 1 363 0
 1802 09fa FB68     		ldr	r3, [r7, #12]
 1803 09fc 204A     		ldr	r2, .L73
 1804 09fe 9A61     		str	r2, [r3, #24]
 364:E:\NeuOrga\Programmieren\c_cpp\github_os\input\src\os_base\os_task_queue.c **** 
 365:E:\NeuOrga\Programmieren\c_cpp\github_os\input\src\os_base\os_task_queue.c ****       task->IdleTask      = IdleTask;
 1805              		.loc 1 365 0
 1806 0a00 BB79     		ldrb	r3, [r7, #6]
 1807 0a02 03F00103 		and	r3, r3, #1
 1808 0a06 D9B2     		uxtb	r1, r3
 1809 0a08 FA68     		ldr	r2, [r7, #12]
 1810 0a0a 1378     		ldrb	r3, [r2]
 1811 0a0c 61F38203 		bfi	r3, r1, #2, #1
 1812 0a10 1370     		strb	r3, [r2]
 366:E:\NeuOrga\Programmieren\c_cpp\github_os\input\src\os_base\os_task_queue.c ****       task->state_request = &task_state_request;
 1813              		.loc 1 366 0
 1814 0a12 FB68     		ldr	r3, [r7, #12]
 1815 0a14 1B4A     		ldr	r2, .L73+4
 1816 0a16 1A63     		str	r2, [r3, #48]
 367:E:\NeuOrga\Programmieren\c_cpp\github_os\input\src\os_base\os_task_queue.c **** 
ARM GAS  C:\Users\PRESID~1\AppData\Local\Temp\ccAgDin9.s 			page 39


 368:E:\NeuOrga\Programmieren\c_cpp\github_os\input\src\os_base\os_task_queue.c ****       /* Idle Task needs to be running at the start .... (violation of transition rule!) */
 369:E:\NeuOrga\Programmieren\c_cpp\github_os\input\src\os_base\os_task_queue.c ****       if(IdleTask != False)
 1817              		.loc 1 369 0
 1818 0a18 BB79     		ldrb	r3, [r7, #6]	@ zero_extendqisi2
 1819 0a1a 002B     		cmp	r3, #0
 1820 0a1c 04D0     		beq	.L68
 370:E:\NeuOrga\Programmieren\c_cpp\github_os\input\src\os_base\os_task_queue.c ****       {
 371:E:\NeuOrga\Programmieren\c_cpp\github_os\input\src\os_base\os_task_queue.c ****          task->task_state       = Task_running;
 1821              		.loc 1 371 0
 1822 0a1e FB68     		ldr	r3, [r7, #12]
 1823 0a20 0322     		movs	r2, #3
 1824 0a22 83F83420 		strb	r2, [r3, #52]
 1825 0a26 07E0     		b	.L69
 1826              	.L68:
 372:E:\NeuOrga\Programmieren\c_cpp\github_os\input\src\os_base\os_task_queue.c ****       }
 373:E:\NeuOrga\Programmieren\c_cpp\github_os\input\src\os_base\os_task_queue.c ****       else
 374:E:\NeuOrga\Programmieren\c_cpp\github_os\input\src\os_base\os_task_queue.c ****       {
 375:E:\NeuOrga\Programmieren\c_cpp\github_os\input\src\os_base\os_task_queue.c ****          task_state_request(task, Task_unspecified);
 1827              		.loc 1 375 0
 1828 0a28 0021     		movs	r1, #0
 1829 0a2a F868     		ldr	r0, [r7, #12]
 1830 0a2c FFF7FEFF 		bl	task_state_request
 376:E:\NeuOrga\Programmieren\c_cpp\github_os\input\src\os_base\os_task_queue.c ****          task_state_request(task, Task_suspended);
 1831              		.loc 1 376 0
 1832 0a30 0121     		movs	r1, #1
 1833 0a32 F868     		ldr	r0, [r7, #12]
 1834 0a34 FFF7FEFF 		bl	task_state_request
 1835              	.L69:
 377:E:\NeuOrga\Programmieren\c_cpp\github_os\input\src\os_base\os_task_queue.c ****       }
 378:E:\NeuOrga\Programmieren\c_cpp\github_os\input\src\os_base\os_task_queue.c ****       if(uStackSize > TASK_STACK_SIZE)
 1836              		.loc 1 378 0
 1837 0a38 3B6A     		ldr	r3, [r7, #32]
 1838 0a3a C82B     		cmp	r3, #200
 1839 0a3c 01D9     		bls	.L70
 379:E:\NeuOrga\Programmieren\c_cpp\github_os\input\src\os_base\os_task_queue.c ****       {
 380:E:\NeuOrga\Programmieren\c_cpp\github_os\input\src\os_base\os_task_queue.c ****          uStackSize = TASK_STACK_SIZE;
 1840              		.loc 1 380 0
 1841 0a3e C823     		movs	r3, #200
 1842 0a40 3B62     		str	r3, [r7, #32]
 1843              	.L70:
 381:E:\NeuOrga\Programmieren\c_cpp\github_os\input\src\os_base\os_task_queue.c ****       }
 382:E:\NeuOrga\Programmieren\c_cpp\github_os\input\src\os_base\os_task_queue.c **** 
 383:E:\NeuOrga\Programmieren\c_cpp\github_os\input\src\os_base\os_task_queue.c ****       /* just create stack */
 384:E:\NeuOrga\Programmieren\c_cpp\github_os\input\src\os_base\os_task_queue.c ****       task->pStackPointerByMalloc = pStackAddr;
 1844              		.loc 1 384 0
 1845 0a42 FB68     		ldr	r3, [r7, #12]
 1846 0a44 FA69     		ldr	r2, [r7, #28]
 1847 0a46 5A67     		str	r2, [r3, #116]
 385:E:\NeuOrga\Programmieren\c_cpp\github_os\input\src\os_base\os_task_queue.c ****       task->pStackPointerStart    = pStackAddr;/*low addresse */
 1848              		.loc 1 385 0
 1849 0a48 FB68     		ldr	r3, [r7, #12]
 1850 0a4a FA69     		ldr	r2, [r7, #28]
 1851 0a4c 9A67     		str	r2, [r3, #120]
 386:E:\NeuOrga\Programmieren\c_cpp\github_os\input\src\os_base\os_task_queue.c ****       task->pStackPointerEnd      = (unsigned_char_t*)pStackAddr + uStackSize - 1;/* end addresse *
 1852              		.loc 1 386 0
 1853 0a4e 3B6A     		ldr	r3, [r7, #32]
 1854 0a50 013B     		subs	r3, r3, #1
ARM GAS  C:\Users\PRESID~1\AppData\Local\Temp\ccAgDin9.s 			page 40


 1855 0a52 FA69     		ldr	r2, [r7, #28]
 1856 0a54 1A44     		add	r2, r2, r3
 1857 0a56 FB68     		ldr	r3, [r7, #12]
 1858 0a58 C3F88020 		str	r2, [r3, #128]
 387:E:\NeuOrga\Programmieren\c_cpp\github_os\input\src\os_base\os_task_queue.c ****       task->StackSize             = uStackSize;
 1859              		.loc 1 387 0
 1860 0a5c FB68     		ldr	r3, [r7, #12]
 1861 0a5e 3A6A     		ldr	r2, [r7, #32]
 1862 0a60 DA67     		str	r2, [r3, #124]
 388:E:\NeuOrga\Programmieren\c_cpp\github_os\input\src\os_base\os_task_queue.c ****       /* stack register */
 389:E:\NeuOrga\Programmieren\c_cpp\github_os\input\src\os_base\os_task_queue.c ****       task->pStackPointer                    = task->pStackPointerEnd;/* stack wchst von groen zu
 1863              		.loc 1 389 0
 1864 0a62 FB68     		ldr	r3, [r7, #12]
 1865 0a64 D3F88020 		ldr	r2, [r3, #128]
 1866 0a68 FB68     		ldr	r3, [r7, #12]
 1867 0a6a 1A67     		str	r2, [r3, #112]
 390:E:\NeuOrga\Programmieren\c_cpp\github_os\input\src\os_base\os_task_queue.c ****    }
 391:E:\NeuOrga\Programmieren\c_cpp\github_os\input\src\os_base\os_task_queue.c ****    else
 392:E:\NeuOrga\Programmieren\c_cpp\github_os\input\src\os_base\os_task_queue.c ****    {
 393:E:\NeuOrga\Programmieren\c_cpp\github_os\input\src\os_base\os_task_queue.c ****       OS_SET_SW_BUG(os_bug_null_pointer, Func_InitTask);
 394:E:\NeuOrga\Programmieren\c_cpp\github_os\input\src\os_base\os_task_queue.c ****    }
 395:E:\NeuOrga\Programmieren\c_cpp\github_os\input\src\os_base\os_task_queue.c **** }
 1868              		.loc 1 395 0
 1869 0a6c 03E0     		b	.L72
 1870              	.L67:
 393:E:\NeuOrga\Programmieren\c_cpp\github_os\input\src\os_base\os_task_queue.c ****    }
 1871              		.loc 1 393 0
 1872 0a6e 0921     		movs	r1, #9
 1873 0a70 0220     		movs	r0, #2
 1874 0a72 FFF7FEFF 		bl	OS_SET_SW_BUG
 1875              	.L72:
 1876              		.loc 1 395 0
 1877 0a76 00BF     		nop
 1878 0a78 1037     		adds	r7, r7, #16
 1879              		.cfi_def_cfa_offset 8
 1880 0a7a BD46     		mov	sp, r7
 1881              		.cfi_def_cfa_register 13
 1882              		@ sp needed
 1883 0a7c 80BD     		pop	{r7, pc}
 1884              	.L74:
 1885 0a7e 00BF     		.align	2
 1886              	.L73:
 1887 0a80 A0860100 		.word	100000
 1888 0a84 00000000 		.word	task_state_request
 1889              		.cfi_endproc
 1890              	.LFE12:
 1892              	.Letext0:
 1893              		.file 2 "e:\\neuorga\\programmieren\\c_cpp\\github_os\\input\\src\\os_base\\os_base_types.h"
 1894              		.file 3 "e:\\neuorga\\programmieren\\c_cpp\\github_os\\input\\src\\os_base\\os_common.h"
 1895              		.file 4 "e:\\neuorga\\programmieren\\c_cpp\\github_os\\input\\src\\os_drivers\\lld_core.h"
 1896              		.file 5 "e:\\neuorga\\programmieren\\c_cpp\\github_os\\input\\src\\os_base\\os_task_common.h"
 1897              		.file 6 "e:\\neuorga\\programmieren\\c_cpp\\github_os\\input\\src\\os_base\\os_ram.h"
 1898              		.file 7 "E:\\NeuOrga\\Programmieren\\c_cpp\\github_os\\input\\src\\os_base\\os_task_queue.h"
ARM GAS  C:\Users\PRESID~1\AppData\Local\Temp\ccAgDin9.s 			page 41

