ARM GAS  C:\Users\PRESID~1\AppData\Local\Temp\cc5Rq7of.s 			page 1


   1              		.cpu cortex-m4
   2              		.eabi_attribute 20, 1
   3              		.eabi_attribute 21, 1
   4              		.eabi_attribute 23, 3
   5              		.eabi_attribute 24, 1
   6              		.eabi_attribute 25, 1
   7              		.eabi_attribute 26, 1
   8              		.eabi_attribute 30, 2
   9              		.eabi_attribute 34, 1
  10              		.eabi_attribute 18, 4
  11              		.file	"os_task_common.c"
  12              		.text
  13              	.Ltext0:
  14              		.cfi_sections	.debug_frame
  15              		.align	1
  16              		.p2align 2,,3
  17              		.global	OS_TASK_SAVE_TASK_ENVIRONMENT
  18              		.arch armv7e-m
  19              		.syntax unified
  20              		.thumb
  21              		.thumb_func
  22              		.fpu softvfp
  24              	OS_TASK_SAVE_TASK_ENVIRONMENT:
  25              	.LVL0:
  26              	.LFB0:
  27              		.file 1 "C:\\Users\\president\\Desktop\\sbx\\input\\src\\os_base\\os_task_common.c"
   1:C:\Users\president\Desktop\sbx\input\src\os_base\os_task_common.c **** #include "os_firstinc.h"
   2:C:\Users\president\Desktop\sbx\input\src\os_base\os_task_common.c **** #include "os_task_common.h"
   3:C:\Users\president\Desktop\sbx\input\src\os_base\os_task_common.c **** #include "os_task_scheduler.h"
   4:C:\Users\president\Desktop\sbx\input\src\os_base\os_task_common.c **** #include "os_heap.h"
   5:C:\Users\president\Desktop\sbx\input\src\os_base\os_task_common.c **** 
   6:C:\Users\president\Desktop\sbx\input\src\os_base\os_task_common.c **** /* Create and delete the task environment is not supported,
   7:C:\Users\president\Desktop\sbx\input\src\os_base\os_task_common.c ****    because we do not allow dynamic RAM allocation for task environment.
   8:C:\Users\president\Desktop\sbx\input\src\os_base\os_task_common.c **** 
   9:C:\Users\president\Desktop\sbx\input\src\os_base\os_task_common.c **** 
  10:C:\Users\president\Desktop\sbx\input\src\os_base\os_task_common.c **** */
  11:C:\Users\president\Desktop\sbx\input\src\os_base\os_task_common.c **** 
  12:C:\Users\president\Desktop\sbx\input\src\os_base\os_task_common.c **** 
  13:C:\Users\president\Desktop\sbx\input\src\os_base\os_task_common.c **** task_t* TASK_PTR[MAX_RUN_QUEUE_SIZE];
  14:C:\Users\president\Desktop\sbx\input\src\os_base\os_task_common.c **** 
  15:C:\Users\president\Desktop\sbx\input\src\os_base\os_task_common.c **** void OS_TASK_SAVE_TASK_ENVIRONMENT(task_t* task)
  16:C:\Users\president\Desktop\sbx\input\src\os_base\os_task_common.c **** {
  28              		.loc 1 16 1 view -0
  29              		.cfi_startproc
  30              		@ args = 0, pretend = 0, frame = 0
  31              		@ frame_needed = 0, uses_anonymous_args = 0
  17:C:\Users\president\Desktop\sbx\input\src\os_base\os_task_common.c ****    if(task != NULL)
  32              		.loc 1 17 4 view .LVU1
  33              		.loc 1 17 6 is_stmt 0 view .LVU2
  34 0000 68B1     		cbz	r0, .L2
  18:C:\Users\president\Desktop\sbx\input\src\os_base\os_task_common.c ****    {
  19:C:\Users\president\Desktop\sbx\input\src\os_base\os_task_common.c ****       /*
  20:C:\Users\president\Desktop\sbx\input\src\os_base\os_task_common.c ****       http://www.ibiblio.org/gferg/ldp/GCC-Inline-Assembly-HOWTO.html#s2
  21:C:\Users\president\Desktop\sbx\input\src\os_base\os_task_common.c ****       x86: mov ... esp
  22:C:\Users\president\Desktop\sbx\input\src\os_base\os_task_common.c ****       */
  23:C:\Users\president\Desktop\sbx\input\src\os_base\os_task_common.c ****       LLF_SAVE_TASK_STACK(task->p_stack_pointer);
  35              		.loc 1 23 7 is_stmt 1 view .LVU3
ARM GAS  C:\Users\PRESID~1\AppData\Local\Temp\cc5Rq7of.s 			page 2


  16:C:\Users\president\Desktop\sbx\input\src\os_base\os_task_common.c ****    if(task != NULL)
  36              		.loc 1 16 1 is_stmt 0 view .LVU4
  37 0002 10B5     		push	{r4, lr}
  38              		.cfi_def_cfa_offset 8
  39              		.cfi_offset 4, -8
  40              		.cfi_offset 14, -4
  41 0004 0446     		mov	r4, r0
  42              		.loc 1 23 7 view .LVU5
  43 0006 D0F8B800 		ldr	r0, [r0, #184]
  44              	.LVL1:
  45              		.loc 1 23 7 view .LVU6
  46 000a FFF7FEFF 		bl	LLF_SAVE_TASK_STACK
  47              	.LVL2:
  24:C:\Users\president\Desktop\sbx\input\src\os_base\os_task_common.c **** #if(CFG_PROCESSOR == MCU_X86)
  25:C:\Users\president\Desktop\sbx\input\src\os_base\os_task_common.c ****       LLF_SAVE_REGISTERS(task->eax,task->ebx,task->ecx,task->edx);
  26:C:\Users\president\Desktop\sbx\input\src\os_base\os_task_common.c **** #else
  27:C:\Users\president\Desktop\sbx\input\src\os_base\os_task_common.c ****       LLF_SAVE_REGISTERS(task->r0,task->r1,task->r2,task->r3);
  48              		.loc 1 27 7 is_stmt 1 view .LVU7
  49 000e D4E92323 		ldrd	r2, r3, [r4, #140]
  50 0012 D4E92101 		ldrd	r0, r1, [r4, #132]
  28:C:\Users\president\Desktop\sbx\input\src\os_base\os_task_common.c **** #endif
  29:C:\Users\president\Desktop\sbx\input\src\os_base\os_task_common.c ****    }
  30:C:\Users\president\Desktop\sbx\input\src\os_base\os_task_common.c ****    else
  31:C:\Users\president\Desktop\sbx\input\src\os_base\os_task_common.c ****    {
  32:C:\Users\president\Desktop\sbx\input\src\os_base\os_task_common.c ****       OS_SET_SW_BUG(E_OS_BUG_NULL_POINTER,E_FUNC_SAVETASKENVIRONMENT);
  33:C:\Users\president\Desktop\sbx\input\src\os_base\os_task_common.c ****    }
  34:C:\Users\president\Desktop\sbx\input\src\os_base\os_task_common.c ****    return;
  35:C:\Users\president\Desktop\sbx\input\src\os_base\os_task_common.c **** }
  51              		.loc 1 35 1 is_stmt 0 view .LVU8
  52 0016 BDE81040 		pop	{r4, lr}
  53              		.cfi_restore 14
  54              		.cfi_restore 4
  55              		.cfi_def_cfa_offset 0
  56              	.LVL3:
  27:C:\Users\president\Desktop\sbx\input\src\os_base\os_task_common.c **** #endif
  57              		.loc 1 27 7 view .LVU9
  58 001a FFF7FEBF 		b	LLF_SAVE_REGISTERS
  59              	.LVL4:
  60              	.L2:
  32:C:\Users\president\Desktop\sbx\input\src\os_base\os_task_common.c ****    }
  61              		.loc 1 32 7 is_stmt 1 view .LVU10
  62 001e 0121     		movs	r1, #1
  63 0020 0220     		movs	r0, #2
  64              	.LVL5:
  32:C:\Users\president\Desktop\sbx\input\src\os_base\os_task_common.c ****    }
  65              		.loc 1 32 7 is_stmt 0 view .LVU11
  66 0022 FFF7FEBF 		b	OS_SET_SW_BUG
  67              	.LVL6:
  68              		.cfi_endproc
  69              	.LFE0:
  71              		.align	1
  72 0026 00BF     		.p2align 2,,3
  73              		.global	OS_TASK_RESTORETASK_ENVIRONMENT
  74              		.syntax unified
  75              		.thumb
  76              		.thumb_func
  77              		.fpu softvfp
ARM GAS  C:\Users\PRESID~1\AppData\Local\Temp\cc5Rq7of.s 			page 3


  79              	OS_TASK_RESTORETASK_ENVIRONMENT:
  80              	.LVL7:
  81              	.LFB1:
  36:C:\Users\president\Desktop\sbx\input\src\os_base\os_task_common.c **** 
  37:C:\Users\president\Desktop\sbx\input\src\os_base\os_task_common.c **** void OS_TASK_RESTORETASK_ENVIRONMENT(task_t* task)
  38:C:\Users\president\Desktop\sbx\input\src\os_base\os_task_common.c **** {
  82              		.loc 1 38 1 is_stmt 1 view -0
  83              		.cfi_startproc
  84              		@ args = 0, pretend = 0, frame = 0
  85              		@ frame_needed = 0, uses_anonymous_args = 0
  39:C:\Users\president\Desktop\sbx\input\src\os_base\os_task_common.c ****    if(task != NULL)
  86              		.loc 1 39 4 view .LVU13
  87              		.loc 1 39 6 is_stmt 0 view .LVU14
  88 0028 50B1     		cbz	r0, .L8
  40:C:\Users\president\Desktop\sbx\input\src\os_base\os_task_common.c ****    {
  41:C:\Users\president\Desktop\sbx\input\src\os_base\os_task_common.c ****       LLF_RESTORE_TASK_STACK(task->p_stack_pointer);
  89              		.loc 1 41 7 is_stmt 1 view .LVU15
  38:C:\Users\president\Desktop\sbx\input\src\os_base\os_task_common.c ****    if(task != NULL)
  90              		.loc 1 38 1 is_stmt 0 view .LVU16
  91 002a 10B5     		push	{r4, lr}
  92              		.cfi_def_cfa_offset 8
  93              		.cfi_offset 4, -8
  94              		.cfi_offset 14, -4
  95 002c 0446     		mov	r4, r0
  96              		.loc 1 41 7 view .LVU17
  97 002e D0F8B800 		ldr	r0, [r0, #184]
  98              	.LVL8:
  99              		.loc 1 41 7 view .LVU18
 100 0032 FFF7FEFF 		bl	LLF_RESTORE_TASK_STACK
 101              	.LVL9:
  42:C:\Users\president\Desktop\sbx\input\src\os_base\os_task_common.c ****       LLF_RESTORE_REGISTERS(task);
 102              		.loc 1 42 7 is_stmt 1 view .LVU19
 103 0036 2046     		mov	r0, r4
  43:C:\Users\president\Desktop\sbx\input\src\os_base\os_task_common.c ****    }
  44:C:\Users\president\Desktop\sbx\input\src\os_base\os_task_common.c ****    else
  45:C:\Users\president\Desktop\sbx\input\src\os_base\os_task_common.c ****    {
  46:C:\Users\president\Desktop\sbx\input\src\os_base\os_task_common.c ****       OS_SET_SW_BUG(E_OS_BUG_NULL_POINTER,E_FUNC_RESTORETASKENVIRONMENT);
  47:C:\Users\president\Desktop\sbx\input\src\os_base\os_task_common.c ****    }
  48:C:\Users\president\Desktop\sbx\input\src\os_base\os_task_common.c **** }
 104              		.loc 1 48 1 is_stmt 0 view .LVU20
 105 0038 BDE81040 		pop	{r4, lr}
 106              		.cfi_restore 14
 107              		.cfi_restore 4
 108              		.cfi_def_cfa_offset 0
 109              	.LVL10:
  42:C:\Users\president\Desktop\sbx\input\src\os_base\os_task_common.c ****       LLF_RESTORE_REGISTERS(task);
 110              		.loc 1 42 7 view .LVU21
 111 003c FFF7FEBF 		b	LLF_RESTORE_REGISTERS
 112              	.LVL11:
 113              	.L8:
  46:C:\Users\president\Desktop\sbx\input\src\os_base\os_task_common.c ****    }
 114              		.loc 1 46 7 is_stmt 1 view .LVU22
 115 0040 0221     		movs	r1, #2
 116 0042 0846     		mov	r0, r1
 117              	.LVL12:
  46:C:\Users\president\Desktop\sbx\input\src\os_base\os_task_common.c ****    }
 118              		.loc 1 46 7 is_stmt 0 view .LVU23
ARM GAS  C:\Users\PRESID~1\AppData\Local\Temp\cc5Rq7of.s 			page 4


 119 0044 FFF7FEBF 		b	OS_SET_SW_BUG
 120              	.LVL13:
 121              		.cfi_endproc
 122              	.LFE1:
 124              		.align	1
 125              		.p2align 2,,3
 126              		.global	OS_TASK_RESTORE_SYSTEM_STACK
 127              		.syntax unified
 128              		.thumb
 129              		.thumb_func
 130              		.fpu softvfp
 132              	OS_TASK_RESTORE_SYSTEM_STACK:
 133              	.LVL14:
 134              	.LFB2:
  49:C:\Users\president\Desktop\sbx\input\src\os_base\os_task_common.c **** void OS_TASK_RESTORE_SYSTEM_STACK(uint8* system_stack_ptr)
  50:C:\Users\president\Desktop\sbx\input\src\os_base\os_task_common.c **** {
 135              		.loc 1 50 1 is_stmt 1 view -0
 136              		.cfi_startproc
 137              		@ args = 0, pretend = 0, frame = 0
 138              		@ frame_needed = 0, uses_anonymous_args = 0
 139              		@ link register save eliminated.
  51:C:\Users\president\Desktop\sbx\input\src\os_base\os_task_common.c ****    LLF_RESTORE_SYSTEM_STACK(system_stack_ptr);
 140              		.loc 1 51 4 view .LVU25
 141 0048 FFF7FEBF 		b	LLF_RESTORE_SYSTEM_STACK
 142              	.LVL15:
 143              		.loc 1 51 4 is_stmt 0 view .LVU26
 144              		.cfi_endproc
 145              	.LFE2:
 147              		.align	1
 148              		.p2align 2,,3
 149              		.global	OS_TASK_SAVE_SYSTEM_STACK
 150              		.syntax unified
 151              		.thumb
 152              		.thumb_func
 153              		.fpu softvfp
 155              	OS_TASK_SAVE_SYSTEM_STACK:
 156              	.LVL16:
 157              	.LFB3:
  52:C:\Users\president\Desktop\sbx\input\src\os_base\os_task_common.c **** }
  53:C:\Users\president\Desktop\sbx\input\src\os_base\os_task_common.c **** void OS_TASK_SAVE_SYSTEM_STACK(uint8* system_stack_ptr)
  54:C:\Users\president\Desktop\sbx\input\src\os_base\os_task_common.c **** {
 158              		.loc 1 54 1 is_stmt 1 view -0
 159              		.cfi_startproc
 160              		@ args = 0, pretend = 0, frame = 0
 161              		@ frame_needed = 0, uses_anonymous_args = 0
 162              		@ link register save eliminated.
  55:C:\Users\president\Desktop\sbx\input\src\os_base\os_task_common.c ****    LLF_SAVE_SYSTEM_STACK(system_stack_ptr);
 163              		.loc 1 55 4 view .LVU28
 164 004c FFF7FEBF 		b	LLF_SAVE_SYSTEM_STACK
 165              	.LVL17:
 166              		.loc 1 55 4 is_stmt 0 view .LVU29
 167              		.cfi_endproc
 168              	.LFE3:
 170              		.align	1
 171              		.p2align 2,,3
 172              		.global	OS_TASK_INIT_TASK_ENVIRONMENT
 173              		.syntax unified
ARM GAS  C:\Users\PRESID~1\AppData\Local\Temp\cc5Rq7of.s 			page 5


 174              		.thumb
 175              		.thumb_func
 176              		.fpu softvfp
 178              	OS_TASK_INIT_TASK_ENVIRONMENT:
 179              	.LVL18:
 180              	.LFB4:
  56:C:\Users\president\Desktop\sbx\input\src\os_base\os_task_common.c **** }
  57:C:\Users\president\Desktop\sbx\input\src\os_base\os_task_common.c **** void OS_TASK_INIT_TASK_ENVIRONMENT(task_t* task)
  58:C:\Users\president\Desktop\sbx\input\src\os_base\os_task_common.c **** {
 181              		.loc 1 58 1 is_stmt 1 view -0
 182              		.cfi_startproc
 183              		@ args = 0, pretend = 0, frame = 0
 184              		@ frame_needed = 0, uses_anonymous_args = 0
  59:C:\Users\president\Desktop\sbx\input\src\os_base\os_task_common.c ****    if(task != NULL)
 185              		.loc 1 59 4 view .LVU31
 186              		.loc 1 59 6 is_stmt 0 view .LVU32
 187 0050 0028     		cmp	r0, #0
 188 0052 38D0     		beq	.L15
  60:C:\Users\president\Desktop\sbx\input\src\os_base\os_task_common.c ****    {
  61:C:\Users\president\Desktop\sbx\input\src\os_base\os_task_common.c ****       /* general*/
  62:C:\Users\president\Desktop\sbx\input\src\os_base\os_task_common.c ****       task->active                = FALSE;
 189              		.loc 1 62 7 is_stmt 1 view .LVU33
  58:C:\Users\president\Desktop\sbx\input\src\os_base\os_task_common.c ****    if(task != NULL)
 190              		.loc 1 58 1 is_stmt 0 view .LVU34
 191 0054 38B5     		push	{r3, r4, r5, lr}
 192              		.cfi_def_cfa_offset 16
 193              		.cfi_offset 3, -16
 194              		.cfi_offset 4, -12
 195              		.cfi_offset 5, -8
 196              		.cfi_offset 14, -4
 197              		.loc 1 62 35 view .LVU35
 198 0056 0378     		ldrb	r3, [r0]	@ zero_extendqisi2
  63:C:\Users\president\Desktop\sbx\input\src\os_base\os_task_common.c ****       /* general purpose registers */
  64:C:\Users\president\Desktop\sbx\input\src\os_base\os_task_common.c **** #if(CFG_PROCESSOR == MCU_X86)
  65:C:\Users\president\Desktop\sbx\input\src\os_base\os_task_common.c ****       task->eax                             = (unsigned_int32_t)       0u;
  66:C:\Users\president\Desktop\sbx\input\src\os_base\os_task_common.c ****       task->ebx                             = (unsigned_int32_t)       0u;
  67:C:\Users\president\Desktop\sbx\input\src\os_base\os_task_common.c ****       task->ecx                             = (unsigned_int32_t)       0u;
  68:C:\Users\president\Desktop\sbx\input\src\os_base\os_task_common.c ****       task->edx                             = (unsigned_int32_t)       0u;
  69:C:\Users\president\Desktop\sbx\input\src\os_base\os_task_common.c **** #else
  70:C:\Users\president\Desktop\sbx\input\src\os_base\os_task_common.c ****       task->r0                             = (unsigned_int32_t)       0u;
 199              		.loc 1 70 44 view .LVU36
 200 0058 0025     		movs	r5, #0
  62:C:\Users\president\Desktop\sbx\input\src\os_base\os_task_common.c ****       /* general purpose registers */
 201              		.loc 1 62 35 view .LVU37
 202 005a 6FF30003 		bfc	r3, #0, #1
 203 005e 0446     		mov	r4, r0
 204 0060 0370     		strb	r3, [r0]
 205              		.loc 1 70 7 is_stmt 1 view .LVU38
  71:C:\Users\president\Desktop\sbx\input\src\os_base\os_task_common.c ****       task->r1                             = (unsigned_int32_t)       0u;
  72:C:\Users\president\Desktop\sbx\input\src\os_base\os_task_common.c ****       task->r2                             = (unsigned_int32_t)       0u;
  73:C:\Users\president\Desktop\sbx\input\src\os_base\os_task_common.c ****       task->r3                             = (unsigned_int32_t)       0u;
  74:C:\Users\president\Desktop\sbx\input\src\os_base\os_task_common.c ****       task->r4                             = (unsigned_int32_t)       0u;
  75:C:\Users\president\Desktop\sbx\input\src\os_base\os_task_common.c ****       task->r5                             = (unsigned_int32_t)       0u;
  76:C:\Users\president\Desktop\sbx\input\src\os_base\os_task_common.c ****       task->r6                             = (unsigned_int32_t)       0u;
  77:C:\Users\president\Desktop\sbx\input\src\os_base\os_task_common.c ****       task->r7                             = (unsigned_int32_t)       0u;
  78:C:\Users\president\Desktop\sbx\input\src\os_base\os_task_common.c ****       task->r8                             = (unsigned_int32_t)       0u;
  79:C:\Users\president\Desktop\sbx\input\src\os_base\os_task_common.c ****       task->r9                             = (unsigned_int32_t)       0u;
ARM GAS  C:\Users\PRESID~1\AppData\Local\Temp\cc5Rq7of.s 			page 6


  80:C:\Users\president\Desktop\sbx\input\src\os_base\os_task_common.c ****       task->r10                             = (unsigned_int32_t)       0u;
  81:C:\Users\president\Desktop\sbx\input\src\os_base\os_task_common.c ****       task->r11                             = (unsigned_int32_t)       0u;
  82:C:\Users\president\Desktop\sbx\input\src\os_base\os_task_common.c ****       task->r12                             = (unsigned_int32_t)       0u;
 206              		.loc 1 82 45 is_stmt 0 view .LVU39
 207 0062 C0F8B450 		str	r5, [r0, #180]
  71:C:\Users\president\Desktop\sbx\input\src\os_base\os_task_common.c ****       task->r1                             = (unsigned_int32_t)       0u;
 208              		.loc 1 71 44 view .LVU40
 209 0066 C0E92155 		strd	r5, r5, [r0, #132]
  72:C:\Users\president\Desktop\sbx\input\src\os_base\os_task_common.c ****       task->r3                             = (unsigned_int32_t)       0u;
 210              		.loc 1 72 7 is_stmt 1 view .LVU41
  73:C:\Users\president\Desktop\sbx\input\src\os_base\os_task_common.c ****       task->r4                             = (unsigned_int32_t)       0u;
 211              		.loc 1 73 44 is_stmt 0 view .LVU42
 212 006a C0E92355 		strd	r5, r5, [r0, #140]
  74:C:\Users\president\Desktop\sbx\input\src\os_base\os_task_common.c ****       task->r5                             = (unsigned_int32_t)       0u;
 213              		.loc 1 74 7 is_stmt 1 view .LVU43
  75:C:\Users\president\Desktop\sbx\input\src\os_base\os_task_common.c ****       task->r6                             = (unsigned_int32_t)       0u;
 214              		.loc 1 75 44 is_stmt 0 view .LVU44
 215 006e C0E92555 		strd	r5, r5, [r0, #148]
  76:C:\Users\president\Desktop\sbx\input\src\os_base\os_task_common.c ****       task->r7                             = (unsigned_int32_t)       0u;
 216              		.loc 1 76 7 is_stmt 1 view .LVU45
  77:C:\Users\president\Desktop\sbx\input\src\os_base\os_task_common.c ****       task->r8                             = (unsigned_int32_t)       0u;
 217              		.loc 1 77 44 is_stmt 0 view .LVU46
 218 0072 C0E92755 		strd	r5, r5, [r0, #156]
  78:C:\Users\president\Desktop\sbx\input\src\os_base\os_task_common.c ****       task->r9                             = (unsigned_int32_t)       0u;
 219              		.loc 1 78 7 is_stmt 1 view .LVU47
  79:C:\Users\president\Desktop\sbx\input\src\os_base\os_task_common.c ****       task->r10                             = (unsigned_int32_t)       0u;
 220              		.loc 1 79 44 is_stmt 0 view .LVU48
 221 0076 C0E92955 		strd	r5, r5, [r0, #164]
  80:C:\Users\president\Desktop\sbx\input\src\os_base\os_task_common.c ****       task->r11                             = (unsigned_int32_t)       0u;
 222              		.loc 1 80 7 is_stmt 1 view .LVU49
  81:C:\Users\president\Desktop\sbx\input\src\os_base\os_task_common.c ****       task->r12                             = (unsigned_int32_t)       0u;
 223              		.loc 1 81 45 is_stmt 0 view .LVU50
 224 007a C0E92B55 		strd	r5, r5, [r0, #172]
 225              		.loc 1 82 7 is_stmt 1 view .LVU51
  83:C:\Users\president\Desktop\sbx\input\src\os_base\os_task_common.c **** #endif
  84:C:\Users\president\Desktop\sbx\input\src\os_base\os_task_common.c ****       /* task scheduling */
  85:C:\Users\president\Desktop\sbx\input\src\os_base\os_task_common.c ****       ASSIGN_NULL(&task->wait_act_until);
 226              		.loc 1 85 7 view .LVU52
 227 007e 0630     		adds	r0, r0, #6
 228              	.LVL19:
 229              		.loc 1 85 7 is_stmt 0 view .LVU53
 230 0080 FFF7FEFF 		bl	ASSIGN_NULL
 231              	.LVL20:
  86:C:\Users\president\Desktop\sbx\input\src\os_base\os_task_common.c ****       ASSIGN_NULL(&task->wait_time);
 232              		.loc 1 86 7 is_stmt 1 view .LVU54
 233 0084 04F11600 		add	r0, r4, #22
 234 0088 FFF7FEFF 		bl	ASSIGN_NULL
 235              	.LVL21:
  87:C:\Users\president\Desktop\sbx\input\src\os_base\os_task_common.c ****       ASSIGN_UINT32(&task->time_to_prio_inc, 5u);
 236              		.loc 1 87 7 view .LVU55
 237 008c 0521     		movs	r1, #5
 238 008e 04F12600 		add	r0, r4, #38
 239 0092 FFF7FEFF 		bl	ASSIGN_UINT32
 240              	.LVL22:
  88:C:\Users\president\Desktop\sbx\input\src\os_base\os_task_common.c ****       task->overwaittime_per_prio_inc_step   = (unsigned_int32_t)        1u;/* has to be >=1 */
 241              		.loc 1 88 7 view .LVU56
 242              		.loc 1 88 46 is_stmt 0 view .LVU57
ARM GAS  C:\Users\PRESID~1\AppData\Local\Temp\cc5Rq7of.s 			page 7


 243 0096 0123     		movs	r3, #1
 244 0098 A363     		str	r3, [r4, #56]
  89:C:\Users\president\Desktop\sbx\input\src\os_base\os_task_common.c ****       ASSIGN_UINT32(&task->max_allowed_wait_time,         100000u);
 245              		.loc 1 89 7 is_stmt 1 view .LVU58
 246 009a 0D49     		ldr	r1, .L21
 247 009c 04F13C00 		add	r0, r4, #60
 248 00a0 FFF7FEFF 		bl	ASSIGN_UINT32
 249              	.LVL23:
  90:C:\Users\president\Desktop\sbx\input\src\os_base\os_task_common.c ****       ASSIGN_NULL(&task->exe_time);
 250              		.loc 1 90 7 view .LVU59
 251 00a4 04F14C00 		add	r0, r4, #76
 252 00a8 FFF7FEFF 		bl	ASSIGN_NULL
 253              	.LVL24:
  91:C:\Users\president\Desktop\sbx\input\src\os_base\os_task_common.c ****       task->current_prio                     = (unsigned_char_t)         0u;
 254              		.loc 1 91 7 view .LVU60
  92:C:\Users\president\Desktop\sbx\input\src\os_base\os_task_common.c ****       task->default_prio                     = (unsigned_char_t)         0u;/* the default prio for
 255              		.loc 1 92 7 view .LVU61
  93:C:\Users\president\Desktop\sbx\input\src\os_base\os_task_common.c **** 
  94:C:\Users\president\Desktop\sbx\input\src\os_base\os_task_common.c ****       /* task management */
  95:C:\Users\president\Desktop\sbx\input\src\os_base\os_task_common.c ****       task->state_request                    =                           &OS_TASK_STATE_REQUEST;
  96:C:\Users\president\Desktop\sbx\input\src\os_base\os_task_common.c ****       task->task_state                       =                           E_TASK_UNSPECIFIED;
  97:C:\Users\president\Desktop\sbx\input\src\os_base\os_task_common.c ****       task->task_queued                      =                           FALSE;
 256              		.loc 1 97 46 is_stmt 0 view .LVU62
 257 00ac 2368     		ldr	r3, [r4]
  95:C:\Users\president\Desktop\sbx\input\src\os_base\os_task_common.c ****       task->task_state                       =                           E_TASK_UNSPECIFIED;
 258              		.loc 1 95 46 view .LVU63
 259 00ae 094A     		ldr	r2, .L21+4
  91:C:\Users\president\Desktop\sbx\input\src\os_base\os_task_common.c ****       task->default_prio                     = (unsigned_char_t)         0u;/* the default prio for
 260              		.loc 1 91 46 view .LVU64
 261 00b0 A4F86C50 		strh	r5, [r4, #108]	@ movhi
  95:C:\Users\president\Desktop\sbx\input\src\os_base\os_task_common.c ****       task->task_state                       =                           E_TASK_UNSPECIFIED;
 262              		.loc 1 95 7 is_stmt 1 view .LVU65
 263              		.loc 1 97 46 is_stmt 0 view .LVU66
 264 00b4 03F00503 		and	r3, r3, #5
  98:C:\Users\president\Desktop\sbx\input\src\os_base\os_task_common.c ****       task->free                             =                           0u;
  99:C:\Users\president\Desktop\sbx\input\src\os_base\os_task_common.c ****       task->nr_of_ins_allowed                   = (unsigned_char_t)         0u;
 265              		.loc 1 99 49 view .LVU67
 266 00b8 A580     		strh	r5, [r4, #4]	@ movhi
  96:C:\Users\president\Desktop\sbx\input\src\os_base\os_task_common.c ****       task->task_queued                      =                           FALSE;
 267              		.loc 1 96 46 view .LVU68
 268 00ba 84F87C50 		strb	r5, [r4, #124]
 100:C:\Users\president\Desktop\sbx\input\src\os_base\os_task_common.c ****       task->nr_of_ins_activated                 = (unsigned_char_t)         0u;
 101:C:\Users\president\Desktop\sbx\input\src\os_base\os_task_common.c ****       task->fp                               = (func_p_t)                0u;
 269              		.loc 1 101 46 view .LVU69
 270 00be 6567     		str	r5, [r4, #116]
  97:C:\Users\president\Desktop\sbx\input\src\os_base\os_task_common.c ****       task->free                             =                           0u;
 271              		.loc 1 97 46 view .LVU70
 272 00c0 2360     		str	r3, [r4]
  95:C:\Users\president\Desktop\sbx\input\src\os_base\os_task_common.c ****       task->task_state                       =                           E_TASK_UNSPECIFIED;
 273              		.loc 1 95 46 view .LVU71
 274 00c2 A267     		str	r2, [r4, #120]
  96:C:\Users\president\Desktop\sbx\input\src\os_base\os_task_common.c ****       task->task_queued                      =                           FALSE;
 275              		.loc 1 96 7 is_stmt 1 view .LVU72
  97:C:\Users\president\Desktop\sbx\input\src\os_base\os_task_common.c ****       task->free                             =                           0u;
 276              		.loc 1 97 7 view .LVU73
  98:C:\Users\president\Desktop\sbx\input\src\os_base\os_task_common.c ****       task->nr_of_ins_allowed                   = (unsigned_char_t)         0u;
 277              		.loc 1 98 7 view .LVU74
ARM GAS  C:\Users\PRESID~1\AppData\Local\Temp\cc5Rq7of.s 			page 8


  99:C:\Users\president\Desktop\sbx\input\src\os_base\os_task_common.c ****       task->nr_of_ins_activated                 = (unsigned_char_t)         0u;
 278              		.loc 1 99 7 view .LVU75
 100:C:\Users\president\Desktop\sbx\input\src\os_base\os_task_common.c ****       task->fp                               = (func_p_t)                0u;
 279              		.loc 1 100 7 view .LVU76
 280              		.loc 1 101 7 view .LVU77
 102:C:\Users\president\Desktop\sbx\input\src\os_base\os_task_common.c **** 
 103:C:\Users\president\Desktop\sbx\input\src\os_base\os_task_common.c ****    }
 104:C:\Users\president\Desktop\sbx\input\src\os_base\os_task_common.c ****    else
 105:C:\Users\president\Desktop\sbx\input\src\os_base\os_task_common.c ****    {
 106:C:\Users\president\Desktop\sbx\input\src\os_base\os_task_common.c ****       OS_SET_SW_BUG(E_OS_BUG_NULL_POINTER,E_FUNC_INITTASKENVIRONMENT);
 107:C:\Users\president\Desktop\sbx\input\src\os_base\os_task_common.c ****    }
 108:C:\Users\president\Desktop\sbx\input\src\os_base\os_task_common.c **** }
 281              		.loc 1 108 1 is_stmt 0 view .LVU78
 282 00c4 38BD     		pop	{r3, r4, r5, pc}
 283              	.LVL25:
 284              	.L15:
 285              		.cfi_def_cfa_offset 0
 286              		.cfi_restore 3
 287              		.cfi_restore 4
 288              		.cfi_restore 5
 289              		.cfi_restore 14
 106:C:\Users\president\Desktop\sbx\input\src\os_base\os_task_common.c ****    }
 290              		.loc 1 106 7 is_stmt 1 view .LVU79
 291 00c6 0521     		movs	r1, #5
 292 00c8 0220     		movs	r0, #2
 293              	.LVL26:
 106:C:\Users\president\Desktop\sbx\input\src\os_base\os_task_common.c ****    }
 294              		.loc 1 106 7 is_stmt 0 view .LVU80
 295 00ca FFF7FEBF 		b	OS_SET_SW_BUG
 296              	.LVL27:
 297              	.L22:
 298 00ce 00BF     		.align	2
 299              	.L21:
 300 00d0 A0860100 		.word	100000
 301 00d4 00000000 		.word	OS_TASK_STATE_REQUEST
 302              		.cfi_endproc
 303              	.LFE4:
 305              		.comm	TASK_PTR,40,4
 306              	.Letext0:
 307              		.file 2 "c:\\users\\president\\desktop\\sbx\\input\\src\\os_base\\os_base_types.h"
 308              		.file 3 "c:\\users\\president\\desktop\\sbx\\input\\src\\os_base\\os_common.h"
 309              		.file 4 "c:\\users\\president\\desktop\\sbx\\input\\src\\os_drivers\\lld_core.h"
 310              		.file 5 "c:\\users\\president\\desktop\\sbx\\input\\src\\os_base\\os_task_common.h"
 311              		.file 6 "C:\\Users\\president\\Desktop\\sbx\\input\\src\\os_base\\os_main.h"
 312              		.file 7 "c:\\users\\president\\desktop\\sbx\\input\\src\\os_base\\os_ram.h"
 313              		.file 8 "c:\\users\\president\\desktop\\sbx\\input\\src\\os_base\\os_ram_stack.h"
 314              		.file 9 "c:\\users\\president\\desktop\\sbx\\input\\src\\os_drivers\\lld_global.h"
ARM GAS  C:\Users\PRESID~1\AppData\Local\Temp\cc5Rq7of.s 			page 9

