ARM GAS  C:\Users\PRESID~1\AppData\Local\Temp\cciwdv84.s 			page 1


   1              		.cpu cortex-m4
   2              		.eabi_attribute 20, 1
   3              		.eabi_attribute 21, 1
   4              		.eabi_attribute 23, 3
   5              		.eabi_attribute 24, 1
   6              		.eabi_attribute 25, 1
   7              		.eabi_attribute 26, 1
   8              		.eabi_attribute 30, 6
   9              		.eabi_attribute 34, 1
  10              		.eabi_attribute 18, 4
  11              		.file	"os_task_queue.c"
  12              		.text
  13              	.Ltext0:
  14              		.cfi_sections	.debug_frame
  15              		.align	1
  16              		.global	SET_RUNNING_TASK
  17              		.syntax unified
  18              		.thumb
  19              		.thumb_func
  20              		.fpu softvfp
  22              	SET_RUNNING_TASK:
  23              	.LFB0:
  24              		.file 1 "E:\\NeuOrga\\Programmieren\\c_cpp\\github_os\\input\\src\\os_base\\os_task_queue.c"
   1:E:\NeuOrga\Programmieren\c_cpp\github_os\input\src\os_base\os_task_queue.c **** #include "os_firstinc.h"
   2:E:\NeuOrga\Programmieren\c_cpp\github_os\input\src\os_base\os_task_queue.c **** #include "os_task_common.h"
   3:E:\NeuOrga\Programmieren\c_cpp\github_os\input\src\os_base\os_task_queue.c **** #include "os_task_queue.h"
   4:E:\NeuOrga\Programmieren\c_cpp\github_os\input\src\os_base\os_task_queue.c **** #include "os_task_scheduler.h"
   5:E:\NeuOrga\Programmieren\c_cpp\github_os\input\src\os_base\os_task_queue.c **** 
   6:E:\NeuOrga\Programmieren\c_cpp\github_os\input\src\os_base\os_task_queue.c **** 
   7:E:\NeuOrga\Programmieren\c_cpp\github_os\input\src\os_base\os_task_queue.c **** 
   8:E:\NeuOrga\Programmieren\c_cpp\github_os\input\src\os_base\os_task_queue.c **** 
   9:E:\NeuOrga\Programmieren\c_cpp\github_os\input\src\os_base\os_task_queue.c **** 
  10:E:\NeuOrga\Programmieren\c_cpp\github_os\input\src\os_base\os_task_queue.c **** /* index 0: current task, 1,2,3,4: next tasks to be executed */
  11:E:\NeuOrga\Programmieren\c_cpp\github_os\input\src\os_base\os_task_queue.c **** /*
  12:E:\NeuOrga\Programmieren\c_cpp\github_os\input\src\os_base\os_task_queue.c **** 1. after execution of task finished(OS_TerminateTask):
  13:E:\NeuOrga\Programmieren\c_cpp\github_os\input\src\os_base\os_task_queue.c ****  - delete run_queue_element         (DeleteFromTaskQueue)
  14:E:\NeuOrga\Programmieren\c_cpp\github_os\input\src\os_base\os_task_queue.c ****  - delete Scheduling queue entry    (DeleteFromSchedulingQueue)
  15:E:\NeuOrga\Programmieren\c_cpp\github_os\input\src\os_base\os_task_queue.c ****  - shift pointers towards index 0   (UpdateSchedulingQueue)
  16:E:\NeuOrga\Programmieren\c_cpp\github_os\input\src\os_base\os_task_queue.c **** 
  17:E:\NeuOrga\Programmieren\c_cpp\github_os\input\src\os_base\os_task_queue.c **** 
  18:E:\NeuOrga\Programmieren\c_cpp\github_os\input\src\os_base\os_task_queue.c ****  2. to add new task (ActivateTask):
  19:E:\NeuOrga\Programmieren\c_cpp\github_os\input\src\os_base\os_task_queue.c ****  - add element to run_queue at first free element (AddToTaskQueue)
  20:E:\NeuOrga\Programmieren\c_cpp\github_os\input\src\os_base\os_task_queue.c ****  - add a reference to the scheduling Queue         (AddToSchedulingQueue)
  21:E:\NeuOrga\Programmieren\c_cpp\github_os\input\src\os_base\os_task_queue.c **** 
  22:E:\NeuOrga\Programmieren\c_cpp\github_os\input\src\os_base\os_task_queue.c ****  3. to start task:
  23:E:\NeuOrga\Programmieren\c_cpp\github_os\input\src\os_base\os_task_queue.c **** - start the task at index = 0                     (GetFromTaskQueue)
  24:E:\NeuOrga\Programmieren\c_cpp\github_os\input\src\os_base\os_task_queue.c **** 
  25:E:\NeuOrga\Programmieren\c_cpp\github_os\input\src\os_base\os_task_queue.c ****  4. to preempt task:
  26:E:\NeuOrga\Programmieren\c_cpp\github_os\input\src\os_base\os_task_queue.c **** - take element of index = 0 of SchedulingQueue and save it somewhere else  (UpdateSchedulingQueue)
  27:E:\NeuOrga\Programmieren\c_cpp\github_os\input\src\os_base\os_task_queue.c **** - shift all entries in SchedulingQueue to 0 by 1                           (UpdateSchedulingQueue)
  28:E:\NeuOrga\Programmieren\c_cpp\github_os\input\src\os_base\os_task_queue.c **** - add saved element at first free entry in SchedulingQueue                 (UpdateSchedulingQueue)
  29:E:\NeuOrga\Programmieren\c_cpp\github_os\input\src\os_base\os_task_queue.c **** - eliminate empty SchedulingQueue entries                                  (UpdateSchedulingQueue)
  30:E:\NeuOrga\Programmieren\c_cpp\github_os\input\src\os_base\os_task_queue.c ****  */
  31:E:\NeuOrga\Programmieren\c_cpp\github_os\input\src\os_base\os_task_queue.c **** 
  32:E:\NeuOrga\Programmieren\c_cpp\github_os\input\src\os_base\os_task_queue.c **** 
  33:E:\NeuOrga\Programmieren\c_cpp\github_os\input\src\os_base\os_task_queue.c **** void SET_RUNNING_TASK(task_t* task, scheduling_t* scheduling_task)
  34:E:\NeuOrga\Programmieren\c_cpp\github_os\input\src\os_base\os_task_queue.c **** {
ARM GAS  C:\Users\PRESID~1\AppData\Local\Temp\cciwdv84.s 			page 2


  25              		.loc 1 34 0
  26              		.cfi_startproc
  27              		@ args = 0, pretend = 0, frame = 8
  28              		@ frame_needed = 1, uses_anonymous_args = 0
  29              		@ link register save eliminated.
  30 0000 80B4     		push	{r7}
  31              		.cfi_def_cfa_offset 4
  32              		.cfi_offset 7, -4
  33 0002 83B0     		sub	sp, sp, #12
  34              		.cfi_def_cfa_offset 16
  35 0004 00AF     		add	r7, sp, #0
  36              		.cfi_def_cfa_register 7
  37 0006 7860     		str	r0, [r7, #4]
  38 0008 3960     		str	r1, [r7]
  35:E:\NeuOrga\Programmieren\c_cpp\github_os\input\src\os_base\os_task_queue.c ****    RUNNING_SCHEDULING_QUEUE_ENTRY = scheduling_task;
  39              		.loc 1 35 0
  40 000a 5F4A     		ldr	r2, .L4
  41 000c 3B68     		ldr	r3, [r7]
  42 000e 1360     		str	r3, [r2]
  36:E:\NeuOrga\Programmieren\c_cpp\github_os\input\src\os_base\os_task_queue.c ****    if(task != 0)
  43              		.loc 1 36 0
  44 0010 7B68     		ldr	r3, [r7, #4]
  45 0012 002B     		cmp	r3, #0
  46 0014 00F0B380 		beq	.L3
  37:E:\NeuOrga\Programmieren\c_cpp\github_os\input\src\os_base\os_task_queue.c ****    {
  38:E:\NeuOrga\Programmieren\c_cpp\github_os\input\src\os_base\os_task_queue.c ****       (&RUNNING_TASK[0])->active                          = task->active;
  47              		.loc 1 38 0
  48 0018 7B68     		ldr	r3, [r7, #4]
  49 001a 1B78     		ldrb	r3, [r3]
  50 001c C3F30003 		ubfx	r3, r3, #0, #1
  51 0020 D9B2     		uxtb	r1, r3
  52 0022 5A4A     		ldr	r2, .L4+4
  53 0024 1378     		ldrb	r3, [r2]
  54 0026 61F30003 		bfi	r3, r1, #0, #1
  55 002a 1370     		strb	r3, [r2]
  39:E:\NeuOrga\Programmieren\c_cpp\github_os\input\src\os_base\os_task_queue.c ****       (&RUNNING_TASK[0])->task_queued                     = task->task_queued;
  56              		.loc 1 39 0
  57 002c 7B68     		ldr	r3, [r7, #4]
  58 002e 1B78     		ldrb	r3, [r3]
  59 0030 C3F34003 		ubfx	r3, r3, #1, #1
  60 0034 D9B2     		uxtb	r1, r3
  61 0036 554A     		ldr	r2, .L4+4
  62 0038 1378     		ldrb	r3, [r2]
  63 003a 61F34103 		bfi	r3, r1, #1, #1
  64 003e 1370     		strb	r3, [r2]
  40:E:\NeuOrga\Programmieren\c_cpp\github_os\input\src\os_base\os_task_queue.c ****       (&RUNNING_TASK[0])->IdleTask                        = task->IdleTask;
  65              		.loc 1 40 0
  66 0040 7B68     		ldr	r3, [r7, #4]
  67 0042 1B78     		ldrb	r3, [r3]
  68 0044 C3F38003 		ubfx	r3, r3, #2, #1
  69 0048 D9B2     		uxtb	r1, r3
  70 004a 504A     		ldr	r2, .L4+4
  71 004c 1378     		ldrb	r3, [r2]
  72 004e 61F38203 		bfi	r3, r1, #2, #1
  73 0052 1370     		strb	r3, [r2]
  41:E:\NeuOrga\Programmieren\c_cpp\github_os\input\src\os_base\os_task_queue.c ****       (&RUNNING_TASK[0])->FREE                            = task->FREE;
  74              		.loc 1 41 0
ARM GAS  C:\Users\PRESID~1\AppData\Local\Temp\cciwdv84.s 			page 3


  75 0054 7B68     		ldr	r3, [r7, #4]
  76 0056 1B68     		ldr	r3, [r3]
  77 0058 C3F3DC01 		ubfx	r1, r3, #3, #29
  78 005c 4B4A     		ldr	r2, .L4+4
  79 005e 1368     		ldr	r3, [r2]
  80 0060 61F3DF03 		bfi	r3, r1, #3, #29
  81 0064 1360     		str	r3, [r2]
  42:E:\NeuOrga\Programmieren\c_cpp\github_os\input\src\os_base\os_task_queue.c ****       (&RUNNING_TASK[0])->NrOfInsAllowed                  = task->NrOfInsAllowed;
  82              		.loc 1 42 0
  83 0066 7B68     		ldr	r3, [r7, #4]
  84 0068 1A79     		ldrb	r2, [r3, #4]	@ zero_extendqisi2
  85 006a 484B     		ldr	r3, .L4+4
  86 006c 1A71     		strb	r2, [r3, #4]
  43:E:\NeuOrga\Programmieren\c_cpp\github_os\input\src\os_base\os_task_queue.c ****       (&RUNNING_TASK[0])->NrOfInsActivated                = task->NrOfInsActivated;
  87              		.loc 1 43 0
  88 006e 7B68     		ldr	r3, [r7, #4]
  89 0070 5A79     		ldrb	r2, [r3, #5]	@ zero_extendqisi2
  90 0072 464B     		ldr	r3, .L4+4
  91 0074 5A71     		strb	r2, [r3, #5]
  44:E:\NeuOrga\Programmieren\c_cpp\github_os\input\src\os_base\os_task_queue.c ****       (&RUNNING_TASK[0])->WaitActUntil                    = task->WaitActUntil;
  92              		.loc 1 44 0
  93 0076 7B68     		ldr	r3, [r7, #4]
  94 0078 9B68     		ldr	r3, [r3, #8]
  95 007a 444A     		ldr	r2, .L4+4
  96 007c 9360     		str	r3, [r2, #8]
  45:E:\NeuOrga\Programmieren\c_cpp\github_os\input\src\os_base\os_task_queue.c ****       (&RUNNING_TASK[0])->wait_time                       = task->wait_time;
  97              		.loc 1 45 0
  98 007e 7B68     		ldr	r3, [r7, #4]
  99 0080 DB68     		ldr	r3, [r3, #12]
 100 0082 424A     		ldr	r2, .L4+4
 101 0084 D360     		str	r3, [r2, #12]
  46:E:\NeuOrga\Programmieren\c_cpp\github_os\input\src\os_base\os_task_queue.c ****       (&RUNNING_TASK[0])->TimeToPrioInc                   = task->TimeToPrioInc;
 102              		.loc 1 46 0
 103 0086 7B68     		ldr	r3, [r7, #4]
 104 0088 1B69     		ldr	r3, [r3, #16]
 105 008a 404A     		ldr	r2, .L4+4
 106 008c 1361     		str	r3, [r2, #16]
  47:E:\NeuOrga\Programmieren\c_cpp\github_os\input\src\os_base\os_task_queue.c ****       (&RUNNING_TASK[0])->overwaittime_per_prio_inc_step  = task->overwaittime_per_prio_inc_step;
 107              		.loc 1 47 0
 108 008e 7B68     		ldr	r3, [r7, #4]
 109 0090 5B69     		ldr	r3, [r3, #20]
 110 0092 3E4A     		ldr	r2, .L4+4
 111 0094 5361     		str	r3, [r2, #20]
  48:E:\NeuOrga\Programmieren\c_cpp\github_os\input\src\os_base\os_task_queue.c ****       (&RUNNING_TASK[0])->max_allowed_wait_time           = task->max_allowed_wait_time;
 112              		.loc 1 48 0
 113 0096 7B68     		ldr	r3, [r7, #4]
 114 0098 9B69     		ldr	r3, [r3, #24]
 115 009a 3C4A     		ldr	r2, .L4+4
 116 009c 9361     		str	r3, [r2, #24]
  49:E:\NeuOrga\Programmieren\c_cpp\github_os\input\src\os_base\os_task_queue.c ****       (&RUNNING_TASK[0])->exe_time                        = task->exe_time;
 117              		.loc 1 49 0
 118 009e 7B68     		ldr	r3, [r7, #4]
 119 00a0 DB69     		ldr	r3, [r3, #28]
 120 00a2 3A4A     		ldr	r2, .L4+4
 121 00a4 D361     		str	r3, [r2, #28]
  50:E:\NeuOrga\Programmieren\c_cpp\github_os\input\src\os_base\os_task_queue.c ****       (&RUNNING_TASK[0])->start_time                      = task->start_time;
 122              		.loc 1 50 0
ARM GAS  C:\Users\PRESID~1\AppData\Local\Temp\cciwdv84.s 			page 4


 123 00a6 7B68     		ldr	r3, [r7, #4]
 124 00a8 1B6A     		ldr	r3, [r3, #32]
 125 00aa 384A     		ldr	r2, .L4+4
 126 00ac 1362     		str	r3, [r2, #32]
  51:E:\NeuOrga\Programmieren\c_cpp\github_os\input\src\os_base\os_task_queue.c ****       (&RUNNING_TASK[0])->current_prio                    = task->current_prio;
 127              		.loc 1 51 0
 128 00ae 7B68     		ldr	r3, [r7, #4]
 129 00b0 93F82420 		ldrb	r2, [r3, #36]	@ zero_extendqisi2
 130 00b4 354B     		ldr	r3, .L4+4
 131 00b6 83F82420 		strb	r2, [r3, #36]
  52:E:\NeuOrga\Programmieren\c_cpp\github_os\input\src\os_base\os_task_queue.c ****       (&RUNNING_TASK[0])->default_prio                    = task->default_prio;
 132              		.loc 1 52 0
 133 00ba 7B68     		ldr	r3, [r7, #4]
 134 00bc 93F82520 		ldrb	r2, [r3, #37]	@ zero_extendqisi2
 135 00c0 324B     		ldr	r3, .L4+4
 136 00c2 83F82520 		strb	r2, [r3, #37]
  53:E:\NeuOrga\Programmieren\c_cpp\github_os\input\src\os_base\os_task_queue.c ****       (&RUNNING_TASK[0])->fp                              = task->fp;
 137              		.loc 1 53 0
 138 00c6 7B68     		ldr	r3, [r7, #4]
 139 00c8 DB6A     		ldr	r3, [r3, #44]
 140 00ca 304A     		ldr	r2, .L4+4
 141 00cc D362     		str	r3, [r2, #44]
  54:E:\NeuOrga\Programmieren\c_cpp\github_os\input\src\os_base\os_task_queue.c ****       (&RUNNING_TASK[0])->state_request                   = task->state_request;
 142              		.loc 1 54 0
 143 00ce 7B68     		ldr	r3, [r7, #4]
 144 00d0 1B6B     		ldr	r3, [r3, #48]
 145 00d2 2E4A     		ldr	r2, .L4+4
 146 00d4 1363     		str	r3, [r2, #48]
  55:E:\NeuOrga\Programmieren\c_cpp\github_os\input\src\os_base\os_task_queue.c ****       (&RUNNING_TASK[0])->task_state                      = task->task_state;
 147              		.loc 1 55 0
 148 00d6 7B68     		ldr	r3, [r7, #4]
 149 00d8 93F83420 		ldrb	r2, [r3, #52]	@ zero_extendqisi2
 150 00dc 2B4B     		ldr	r3, .L4+4
 151 00de 83F83420 		strb	r2, [r3, #52]
  56:E:\NeuOrga\Programmieren\c_cpp\github_os\input\src\os_base\os_task_queue.c ****       (&RUNNING_TASK[0])->task_group                      = task->task_group;
 152              		.loc 1 56 0
 153 00e2 7B68     		ldr	r3, [r7, #4]
 154 00e4 9B6B     		ldr	r3, [r3, #56]
 155 00e6 294A     		ldr	r2, .L4+4
 156 00e8 9363     		str	r3, [r2, #56]
  57:E:\NeuOrga\Programmieren\c_cpp\github_os\input\src\os_base\os_task_queue.c ****    #if(CFG_PROCESSOR == cMCU_X86)
  58:E:\NeuOrga\Programmieren\c_cpp\github_os\input\src\os_base\os_task_queue.c ****       (&RUNNING_TASK[0])->EAX                             = task->EAX;
  59:E:\NeuOrga\Programmieren\c_cpp\github_os\input\src\os_base\os_task_queue.c ****       (&RUNNING_TASK[0])->EBX                             = task->EBX;
  60:E:\NeuOrga\Programmieren\c_cpp\github_os\input\src\os_base\os_task_queue.c ****       (&RUNNING_TASK[0])->ECX                             = task->ECX;
  61:E:\NeuOrga\Programmieren\c_cpp\github_os\input\src\os_base\os_task_queue.c ****       (&RUNNING_TASK[0])->EDX                             = task->EDX;
  62:E:\NeuOrga\Programmieren\c_cpp\github_os\input\src\os_base\os_task_queue.c ****    #else
  63:E:\NeuOrga\Programmieren\c_cpp\github_os\input\src\os_base\os_task_queue.c ****       (&RUNNING_TASK[0])->r0                             = task->r0;
 157              		.loc 1 63 0
 158 00ea 7B68     		ldr	r3, [r7, #4]
 159 00ec DB6B     		ldr	r3, [r3, #60]
 160 00ee 274A     		ldr	r2, .L4+4
 161 00f0 D363     		str	r3, [r2, #60]
  64:E:\NeuOrga\Programmieren\c_cpp\github_os\input\src\os_base\os_task_queue.c ****       (&RUNNING_TASK[0])->r1                             = task->r1;
 162              		.loc 1 64 0
 163 00f2 7B68     		ldr	r3, [r7, #4]
 164 00f4 1B6C     		ldr	r3, [r3, #64]
 165 00f6 254A     		ldr	r2, .L4+4
ARM GAS  C:\Users\PRESID~1\AppData\Local\Temp\cciwdv84.s 			page 5


 166 00f8 1364     		str	r3, [r2, #64]
  65:E:\NeuOrga\Programmieren\c_cpp\github_os\input\src\os_base\os_task_queue.c ****       (&RUNNING_TASK[0])->r2                             = task->r2;
 167              		.loc 1 65 0
 168 00fa 7B68     		ldr	r3, [r7, #4]
 169 00fc 5B6C     		ldr	r3, [r3, #68]
 170 00fe 234A     		ldr	r2, .L4+4
 171 0100 5364     		str	r3, [r2, #68]
  66:E:\NeuOrga\Programmieren\c_cpp\github_os\input\src\os_base\os_task_queue.c ****       (&RUNNING_TASK[0])->r3                             = task->r3;
 172              		.loc 1 66 0
 173 0102 7B68     		ldr	r3, [r7, #4]
 174 0104 9B6C     		ldr	r3, [r3, #72]
 175 0106 214A     		ldr	r2, .L4+4
 176 0108 9364     		str	r3, [r2, #72]
  67:E:\NeuOrga\Programmieren\c_cpp\github_os\input\src\os_base\os_task_queue.c ****       (&RUNNING_TASK[0])->r4                             = task->r4;
 177              		.loc 1 67 0
 178 010a 7B68     		ldr	r3, [r7, #4]
 179 010c DB6C     		ldr	r3, [r3, #76]
 180 010e 1F4A     		ldr	r2, .L4+4
 181 0110 D364     		str	r3, [r2, #76]
  68:E:\NeuOrga\Programmieren\c_cpp\github_os\input\src\os_base\os_task_queue.c ****       (&RUNNING_TASK[0])->r5                             = task->r5;
 182              		.loc 1 68 0
 183 0112 7B68     		ldr	r3, [r7, #4]
 184 0114 1B6D     		ldr	r3, [r3, #80]
 185 0116 1D4A     		ldr	r2, .L4+4
 186 0118 1365     		str	r3, [r2, #80]
  69:E:\NeuOrga\Programmieren\c_cpp\github_os\input\src\os_base\os_task_queue.c ****       (&RUNNING_TASK[0])->r6                             = task->r6;
 187              		.loc 1 69 0
 188 011a 7B68     		ldr	r3, [r7, #4]
 189 011c 5B6D     		ldr	r3, [r3, #84]
 190 011e 1B4A     		ldr	r2, .L4+4
 191 0120 5365     		str	r3, [r2, #84]
  70:E:\NeuOrga\Programmieren\c_cpp\github_os\input\src\os_base\os_task_queue.c ****       (&RUNNING_TASK[0])->r7                             = task->r7;
 192              		.loc 1 70 0
 193 0122 7B68     		ldr	r3, [r7, #4]
 194 0124 9B6D     		ldr	r3, [r3, #88]
 195 0126 194A     		ldr	r2, .L4+4
 196 0128 9365     		str	r3, [r2, #88]
  71:E:\NeuOrga\Programmieren\c_cpp\github_os\input\src\os_base\os_task_queue.c ****       (&RUNNING_TASK[0])->r8                             = task->r8;
 197              		.loc 1 71 0
 198 012a 7B68     		ldr	r3, [r7, #4]
 199 012c DB6D     		ldr	r3, [r3, #92]
 200 012e 174A     		ldr	r2, .L4+4
 201 0130 D365     		str	r3, [r2, #92]
  72:E:\NeuOrga\Programmieren\c_cpp\github_os\input\src\os_base\os_task_queue.c ****       (&RUNNING_TASK[0])->r9                             = task->r9;
 202              		.loc 1 72 0
 203 0132 7B68     		ldr	r3, [r7, #4]
 204 0134 1B6E     		ldr	r3, [r3, #96]
 205 0136 154A     		ldr	r2, .L4+4
 206 0138 1366     		str	r3, [r2, #96]
  73:E:\NeuOrga\Programmieren\c_cpp\github_os\input\src\os_base\os_task_queue.c ****       (&RUNNING_TASK[0])->r10                            = task->r10;
 207              		.loc 1 73 0
 208 013a 7B68     		ldr	r3, [r7, #4]
 209 013c 5B6E     		ldr	r3, [r3, #100]
 210 013e 134A     		ldr	r2, .L4+4
 211 0140 5366     		str	r3, [r2, #100]
  74:E:\NeuOrga\Programmieren\c_cpp\github_os\input\src\os_base\os_task_queue.c ****       (&RUNNING_TASK[0])->r11                            = task->r11;
 212              		.loc 1 74 0
ARM GAS  C:\Users\PRESID~1\AppData\Local\Temp\cciwdv84.s 			page 6


 213 0142 7B68     		ldr	r3, [r7, #4]
 214 0144 9B6E     		ldr	r3, [r3, #104]
 215 0146 114A     		ldr	r2, .L4+4
 216 0148 9366     		str	r3, [r2, #104]
  75:E:\NeuOrga\Programmieren\c_cpp\github_os\input\src\os_base\os_task_queue.c ****       (&RUNNING_TASK[0])->r12                            = task->r12;
 217              		.loc 1 75 0
 218 014a 7B68     		ldr	r3, [r7, #4]
 219 014c DB6E     		ldr	r3, [r3, #108]
 220 014e 0F4A     		ldr	r2, .L4+4
 221 0150 D366     		str	r3, [r2, #108]
  76:E:\NeuOrga\Programmieren\c_cpp\github_os\input\src\os_base\os_task_queue.c ****    #endif
  77:E:\NeuOrga\Programmieren\c_cpp\github_os\input\src\os_base\os_task_queue.c **** 
  78:E:\NeuOrga\Programmieren\c_cpp\github_os\input\src\os_base\os_task_queue.c ****       (&RUNNING_TASK[0])->pStackPointer                   = task->pStackPointer;
 222              		.loc 1 78 0
 223 0152 7B68     		ldr	r3, [r7, #4]
 224 0154 1B6F     		ldr	r3, [r3, #112]
 225 0156 0D4A     		ldr	r2, .L4+4
 226 0158 1367     		str	r3, [r2, #112]
  79:E:\NeuOrga\Programmieren\c_cpp\github_os\input\src\os_base\os_task_queue.c ****       (&RUNNING_TASK[0])->pStackPointerByMalloc           = task->pStackPointerByMalloc;
 227              		.loc 1 79 0
 228 015a 7B68     		ldr	r3, [r7, #4]
 229 015c 5B6F     		ldr	r3, [r3, #116]
 230 015e 0B4A     		ldr	r2, .L4+4
 231 0160 5367     		str	r3, [r2, #116]
  80:E:\NeuOrga\Programmieren\c_cpp\github_os\input\src\os_base\os_task_queue.c ****       (&RUNNING_TASK[0])->pStackPointerStart              = task->pStackPointerStart;
 232              		.loc 1 80 0
 233 0162 7B68     		ldr	r3, [r7, #4]
 234 0164 9B6F     		ldr	r3, [r3, #120]
 235 0166 094A     		ldr	r2, .L4+4
 236 0168 9367     		str	r3, [r2, #120]
  81:E:\NeuOrga\Programmieren\c_cpp\github_os\input\src\os_base\os_task_queue.c ****       (&RUNNING_TASK[0])->StackSize                       = task->StackSize;
 237              		.loc 1 81 0
 238 016a 7B68     		ldr	r3, [r7, #4]
 239 016c DB6F     		ldr	r3, [r3, #124]
 240 016e 074A     		ldr	r2, .L4+4
 241 0170 D367     		str	r3, [r2, #124]
  82:E:\NeuOrga\Programmieren\c_cpp\github_os\input\src\os_base\os_task_queue.c ****       (&RUNNING_TASK[0])->pStackPointerEnd                = task->pStackPointerEnd;
 242              		.loc 1 82 0
 243 0172 7B68     		ldr	r3, [r7, #4]
 244 0174 D3F88030 		ldr	r3, [r3, #128]
 245 0178 044A     		ldr	r2, .L4+4
 246 017a C2F88030 		str	r3, [r2, #128]
 247              	.L3:
  83:E:\NeuOrga\Programmieren\c_cpp\github_os\input\src\os_base\os_task_queue.c ****    }
  84:E:\NeuOrga\Programmieren\c_cpp\github_os\input\src\os_base\os_task_queue.c **** }
 248              		.loc 1 84 0
 249 017e 00BF     		nop
 250 0180 0C37     		adds	r7, r7, #12
 251              		.cfi_def_cfa_offset 4
 252 0182 BD46     		mov	sp, r7
 253              		.cfi_def_cfa_register 13
 254              		@ sp needed
 255 0184 80BC     		pop	{r7}
 256              		.cfi_restore 7
 257              		.cfi_def_cfa_offset 0
 258 0186 7047     		bx	lr
 259              	.L5:
ARM GAS  C:\Users\PRESID~1\AppData\Local\Temp\cciwdv84.s 			page 7


 260              		.align	2
 261              	.L4:
 262 0188 00000000 		.word	RUNNING_SCHEDULING_QUEUE_ENTRY
 263 018c 00000000 		.word	RUNNING_TASK
 264              		.cfi_endproc
 265              	.LFE0:
 267              		.align	1
 268              		.global	OS_InitTaskQueue
 269              		.syntax unified
 270              		.thumb
 271              		.thumb_func
 272              		.fpu softvfp
 274              	OS_InitTaskQueue:
 275              	.LFB1:
  85:E:\NeuOrga\Programmieren\c_cpp\github_os\input\src\os_base\os_task_queue.c **** 
  86:E:\NeuOrga\Programmieren\c_cpp\github_os\input\src\os_base\os_task_queue.c **** /* task queue handling */
  87:E:\NeuOrga\Programmieren\c_cpp\github_os\input\src\os_base\os_task_queue.c **** void OS_InitTaskQueue(void)
  88:E:\NeuOrga\Programmieren\c_cpp\github_os\input\src\os_base\os_task_queue.c **** {
 276              		.loc 1 88 0
 277              		.cfi_startproc
 278              		@ args = 0, pretend = 0, frame = 8
 279              		@ frame_needed = 1, uses_anonymous_args = 0
 280 0190 80B5     		push	{r7, lr}
 281              		.cfi_def_cfa_offset 8
 282              		.cfi_offset 7, -8
 283              		.cfi_offset 14, -4
 284 0192 82B0     		sub	sp, sp, #8
 285              		.cfi_def_cfa_offset 16
 286 0194 00AF     		add	r7, sp, #0
 287              		.cfi_def_cfa_register 7
  89:E:\NeuOrga\Programmieren\c_cpp\github_os\input\src\os_base\os_task_queue.c ****    if(bTASK_QUEUE_INITIALIZED == False)
 288              		.loc 1 89 0
 289 0196 114B     		ldr	r3, .L11
 290 0198 1B78     		ldrb	r3, [r3]	@ zero_extendqisi2
 291 019a 002B     		cmp	r3, #0
 292 019c 1AD1     		bne	.L10
 293              	.LBB2:
  90:E:\NeuOrga\Programmieren\c_cpp\github_os\input\src\os_base\os_task_queue.c ****    {
  91:E:\NeuOrga\Programmieren\c_cpp\github_os\input\src\os_base\os_task_queue.c ****       unsigned_char_t element_nr = 0;
 294              		.loc 1 91 0
 295 019e 0023     		movs	r3, #0
 296 01a0 FB71     		strb	r3, [r7, #7]
  92:E:\NeuOrga\Programmieren\c_cpp\github_os\input\src\os_base\os_task_queue.c ****       while(element_nr < MAX_RUN_QUEUE_SIZE)
 297              		.loc 1 92 0
 298 01a2 11E0     		b	.L8
 299              	.L9:
  93:E:\NeuOrga\Programmieren\c_cpp\github_os\input\src\os_base\os_task_queue.c ****       {
  94:E:\NeuOrga\Programmieren\c_cpp\github_os\input\src\os_base\os_task_queue.c ****          TASK_SCHEDULING_QUEUE[element_nr] = (scheduling_t)0;
 300              		.loc 1 94 0
 301 01a4 FB79     		ldrb	r3, [r7, #7]	@ zero_extendqisi2
 302 01a6 0E4A     		ldr	r2, .L11+4
 303 01a8 0021     		movs	r1, #0
 304 01aa 42F82310 		str	r1, [r2, r3, lsl #2]
  95:E:\NeuOrga\Programmieren\c_cpp\github_os\input\src\os_base\os_task_queue.c ****          OS_Task_InitTaskEnvironment(&TASK_RUN_QUEUE[element_nr]);
 305              		.loc 1 95 0
 306 01ae FA79     		ldrb	r2, [r7, #7]	@ zero_extendqisi2
 307 01b0 1346     		mov	r3, r2
ARM GAS  C:\Users\PRESID~1\AppData\Local\Temp\cciwdv84.s 			page 8


 308 01b2 1B01     		lsls	r3, r3, #4
 309 01b4 1344     		add	r3, r3, r2
 310 01b6 DB00     		lsls	r3, r3, #3
 311 01b8 0A4A     		ldr	r2, .L11+8
 312 01ba 1344     		add	r3, r3, r2
 313 01bc 1846     		mov	r0, r3
 314 01be FFF7FEFF 		bl	OS_Task_InitTaskEnvironment
  96:E:\NeuOrga\Programmieren\c_cpp\github_os\input\src\os_base\os_task_queue.c ****          element_nr++;
 315              		.loc 1 96 0
 316 01c2 FB79     		ldrb	r3, [r7, #7]	@ zero_extendqisi2
 317 01c4 0133     		adds	r3, r3, #1
 318 01c6 FB71     		strb	r3, [r7, #7]
 319              	.L8:
  92:E:\NeuOrga\Programmieren\c_cpp\github_os\input\src\os_base\os_task_queue.c ****       {
 320              		.loc 1 92 0
 321 01c8 FB79     		ldrb	r3, [r7, #7]	@ zero_extendqisi2
 322 01ca 092B     		cmp	r3, #9
 323 01cc EAD9     		bls	.L9
  97:E:\NeuOrga\Programmieren\c_cpp\github_os\input\src\os_base\os_task_queue.c ****       }
  98:E:\NeuOrga\Programmieren\c_cpp\github_os\input\src\os_base\os_task_queue.c ****       bTASK_QUEUE_INITIALIZED = True;
 324              		.loc 1 98 0
 325 01ce 034B     		ldr	r3, .L11
 326 01d0 0122     		movs	r2, #1
 327 01d2 1A70     		strb	r2, [r3]
 328              	.L10:
 329              	.LBE2:
  99:E:\NeuOrga\Programmieren\c_cpp\github_os\input\src\os_base\os_task_queue.c ****    }
 100:E:\NeuOrga\Programmieren\c_cpp\github_os\input\src\os_base\os_task_queue.c **** }
 330              		.loc 1 100 0
 331 01d4 00BF     		nop
 332 01d6 0837     		adds	r7, r7, #8
 333              		.cfi_def_cfa_offset 8
 334 01d8 BD46     		mov	sp, r7
 335              		.cfi_def_cfa_register 13
 336              		@ sp needed
 337 01da 80BD     		pop	{r7, pc}
 338              	.L12:
 339              		.align	2
 340              	.L11:
 341 01dc 00000000 		.word	bTASK_QUEUE_INITIALIZED
 342 01e0 00000000 		.word	TASK_SCHEDULING_QUEUE
 343 01e4 00000000 		.word	TASK_RUN_QUEUE
 344              		.cfi_endproc
 345              	.LFE1:
 347              		.align	1
 348              		.global	AddToTaskQueue
 349              		.syntax unified
 350              		.thumb
 351              		.thumb_func
 352              		.fpu softvfp
 354              	AddToTaskQueue:
 355              	.LFB2:
 101:E:\NeuOrga\Programmieren\c_cpp\github_os\input\src\os_base\os_task_queue.c **** task_t* AddToTaskQueue(task_t* task)
 102:E:\NeuOrga\Programmieren\c_cpp\github_os\input\src\os_base\os_task_queue.c **** {
 356              		.loc 1 102 0
 357              		.cfi_startproc
 358              		@ args = 0, pretend = 0, frame = 16
ARM GAS  C:\Users\PRESID~1\AppData\Local\Temp\cciwdv84.s 			page 9


 359              		@ frame_needed = 1, uses_anonymous_args = 0
 360              		@ link register save eliminated.
 361 01e8 80B4     		push	{r7}
 362              		.cfi_def_cfa_offset 4
 363              		.cfi_offset 7, -4
 364 01ea 85B0     		sub	sp, sp, #20
 365              		.cfi_def_cfa_offset 24
 366 01ec 00AF     		add	r7, sp, #0
 367              		.cfi_def_cfa_register 7
 368 01ee 7860     		str	r0, [r7, #4]
 103:E:\NeuOrga\Programmieren\c_cpp\github_os\input\src\os_base\os_task_queue.c ****    unsigned_char_t element_nr = 0;
 369              		.loc 1 103 0
 370 01f0 0023     		movs	r3, #0
 371 01f2 FB73     		strb	r3, [r7, #15]
 104:E:\NeuOrga\Programmieren\c_cpp\github_os\input\src\os_base\os_task_queue.c ****    while( (element_nr < MAX_RUN_QUEUE_SIZE)
 372              		.loc 1 104 0
 373 01f4 02E0     		b	.L14
 374              	.L16:
 105:E:\NeuOrga\Programmieren\c_cpp\github_os\input\src\os_base\os_task_queue.c ****           &&((&TASK_RUN_QUEUE[element_nr])->task_queued == True)
 106:E:\NeuOrga\Programmieren\c_cpp\github_os\input\src\os_base\os_task_queue.c ****         )
 107:E:\NeuOrga\Programmieren\c_cpp\github_os\input\src\os_base\os_task_queue.c ****    {
 108:E:\NeuOrga\Programmieren\c_cpp\github_os\input\src\os_base\os_task_queue.c ****       element_nr++;
 375              		.loc 1 108 0
 376 01f6 FB7B     		ldrb	r3, [r7, #15]	@ zero_extendqisi2
 377 01f8 0133     		adds	r3, r3, #1
 378 01fa FB73     		strb	r3, [r7, #15]
 379              	.L14:
 104:E:\NeuOrga\Programmieren\c_cpp\github_os\input\src\os_base\os_task_queue.c ****    while( (element_nr < MAX_RUN_QUEUE_SIZE)
 380              		.loc 1 104 0
 381 01fc FB7B     		ldrb	r3, [r7, #15]	@ zero_extendqisi2
 382 01fe 092B     		cmp	r3, #9
 383 0200 0CD8     		bhi	.L15
 105:E:\NeuOrga\Programmieren\c_cpp\github_os\input\src\os_base\os_task_queue.c ****           &&((&TASK_RUN_QUEUE[element_nr])->task_queued == True)
 384              		.loc 1 105 0
 385 0202 FA7B     		ldrb	r2, [r7, #15]	@ zero_extendqisi2
 386 0204 B849     		ldr	r1, .L19
 387 0206 1346     		mov	r3, r2
 388 0208 1B01     		lsls	r3, r3, #4
 389 020a 1344     		add	r3, r3, r2
 390 020c DB00     		lsls	r3, r3, #3
 391 020e 0B44     		add	r3, r3, r1
 392 0210 1B78     		ldrb	r3, [r3]
 393 0212 C3F34003 		ubfx	r3, r3, #1, #1
 394 0216 DBB2     		uxtb	r3, r3
 395 0218 012B     		cmp	r3, #1
 396 021a ECD0     		beq	.L16
 397              	.L15:
 109:E:\NeuOrga\Programmieren\c_cpp\github_os\input\src\os_base\os_task_queue.c ****    }
 110:E:\NeuOrga\Programmieren\c_cpp\github_os\input\src\os_base\os_task_queue.c ****    /* while loop ended due to free task_array slot ...*/
 111:E:\NeuOrga\Programmieren\c_cpp\github_os\input\src\os_base\os_task_queue.c ****    if( (element_nr < MAX_RUN_QUEUE_SIZE) && ((&TASK_RUN_QUEUE[element_nr])->task_queued == False) )
 398              		.loc 1 111 0
 399 021c FB7B     		ldrb	r3, [r7, #15]	@ zero_extendqisi2
 400 021e 092B     		cmp	r3, #9
 401 0220 00F2BF81 		bhi	.L17
 402              		.loc 1 111 0 is_stmt 0 discriminator 1
 403 0224 FA7B     		ldrb	r2, [r7, #15]	@ zero_extendqisi2
 404 0226 B049     		ldr	r1, .L19
ARM GAS  C:\Users\PRESID~1\AppData\Local\Temp\cciwdv84.s 			page 10


 405 0228 1346     		mov	r3, r2
 406 022a 1B01     		lsls	r3, r3, #4
 407 022c 1344     		add	r3, r3, r2
 408 022e DB00     		lsls	r3, r3, #3
 409 0230 0B44     		add	r3, r3, r1
 410 0232 1B78     		ldrb	r3, [r3]
 411 0234 C3F34003 		ubfx	r3, r3, #1, #1
 412 0238 DBB2     		uxtb	r3, r3
 413 023a 002B     		cmp	r3, #0
 414 023c 40F0B181 		bne	.L17
 112:E:\NeuOrga\Programmieren\c_cpp\github_os\input\src\os_base\os_task_queue.c ****    {
 113:E:\NeuOrga\Programmieren\c_cpp\github_os\input\src\os_base\os_task_queue.c ****       (&TASK_RUN_QUEUE[element_nr])->active                          = task->active;
 415              		.loc 1 113 0 is_stmt 1
 416 0240 FA7B     		ldrb	r2, [r7, #15]	@ zero_extendqisi2
 417 0242 7B68     		ldr	r3, [r7, #4]
 418 0244 1B78     		ldrb	r3, [r3]
 419 0246 C3F30003 		ubfx	r3, r3, #0, #1
 420 024a D9B2     		uxtb	r1, r3
 421 024c A648     		ldr	r0, .L19
 422 024e 1346     		mov	r3, r2
 423 0250 1B01     		lsls	r3, r3, #4
 424 0252 1344     		add	r3, r3, r2
 425 0254 DB00     		lsls	r3, r3, #3
 426 0256 C218     		adds	r2, r0, r3
 427 0258 1378     		ldrb	r3, [r2]
 428 025a 61F30003 		bfi	r3, r1, #0, #1
 429 025e 1370     		strb	r3, [r2]
 114:E:\NeuOrga\Programmieren\c_cpp\github_os\input\src\os_base\os_task_queue.c ****       (&TASK_RUN_QUEUE[element_nr])->task_queued                     = True;
 430              		.loc 1 114 0
 431 0260 FA7B     		ldrb	r2, [r7, #15]	@ zero_extendqisi2
 432 0262 A149     		ldr	r1, .L19
 433 0264 1346     		mov	r3, r2
 434 0266 1B01     		lsls	r3, r3, #4
 435 0268 1344     		add	r3, r3, r2
 436 026a DB00     		lsls	r3, r3, #3
 437 026c CA18     		adds	r2, r1, r3
 438 026e 1378     		ldrb	r3, [r2]
 439 0270 43F00203 		orr	r3, r3, #2
 440 0274 1370     		strb	r3, [r2]
 115:E:\NeuOrga\Programmieren\c_cpp\github_os\input\src\os_base\os_task_queue.c ****       (&TASK_RUN_QUEUE[element_nr])->IdleTask                        = task->IdleTask;
 441              		.loc 1 115 0
 442 0276 FA7B     		ldrb	r2, [r7, #15]	@ zero_extendqisi2
 443 0278 7B68     		ldr	r3, [r7, #4]
 444 027a 1B78     		ldrb	r3, [r3]
 445 027c C3F38003 		ubfx	r3, r3, #2, #1
 446 0280 D9B2     		uxtb	r1, r3
 447 0282 9948     		ldr	r0, .L19
 448 0284 1346     		mov	r3, r2
 449 0286 1B01     		lsls	r3, r3, #4
 450 0288 1344     		add	r3, r3, r2
 451 028a DB00     		lsls	r3, r3, #3
 452 028c C218     		adds	r2, r0, r3
 453 028e 1378     		ldrb	r3, [r2]
 454 0290 61F38203 		bfi	r3, r1, #2, #1
 455 0294 1370     		strb	r3, [r2]
 116:E:\NeuOrga\Programmieren\c_cpp\github_os\input\src\os_base\os_task_queue.c ****       (&TASK_RUN_QUEUE[element_nr])->FREE                            = task->FREE;
 456              		.loc 1 116 0
ARM GAS  C:\Users\PRESID~1\AppData\Local\Temp\cciwdv84.s 			page 11


 457 0296 FA7B     		ldrb	r2, [r7, #15]	@ zero_extendqisi2
 458 0298 7B68     		ldr	r3, [r7, #4]
 459 029a 1B68     		ldr	r3, [r3]
 460 029c C3F3DC01 		ubfx	r1, r3, #3, #29
 461 02a0 9148     		ldr	r0, .L19
 462 02a2 1346     		mov	r3, r2
 463 02a4 1B01     		lsls	r3, r3, #4
 464 02a6 1344     		add	r3, r3, r2
 465 02a8 DB00     		lsls	r3, r3, #3
 466 02aa C218     		adds	r2, r0, r3
 467 02ac 1368     		ldr	r3, [r2]
 468 02ae 61F3DF03 		bfi	r3, r1, #3, #29
 469 02b2 1360     		str	r3, [r2]
 117:E:\NeuOrga\Programmieren\c_cpp\github_os\input\src\os_base\os_task_queue.c ****       (&TASK_RUN_QUEUE[element_nr])->NrOfInsAllowed                  = task->NrOfInsAllowed;
 470              		.loc 1 117 0
 471 02b4 FA7B     		ldrb	r2, [r7, #15]	@ zero_extendqisi2
 472 02b6 7B68     		ldr	r3, [r7, #4]
 473 02b8 1879     		ldrb	r0, [r3, #4]	@ zero_extendqisi2
 474 02ba 8B49     		ldr	r1, .L19
 475 02bc 1346     		mov	r3, r2
 476 02be 1B01     		lsls	r3, r3, #4
 477 02c0 1344     		add	r3, r3, r2
 478 02c2 DB00     		lsls	r3, r3, #3
 479 02c4 0B44     		add	r3, r3, r1
 480 02c6 0433     		adds	r3, r3, #4
 481 02c8 0246     		mov	r2, r0
 482 02ca 1A70     		strb	r2, [r3]
 118:E:\NeuOrga\Programmieren\c_cpp\github_os\input\src\os_base\os_task_queue.c ****       (&TASK_RUN_QUEUE[element_nr])->NrOfInsActivated                = task->NrOfInsActivated;
 483              		.loc 1 118 0
 484 02cc FA7B     		ldrb	r2, [r7, #15]	@ zero_extendqisi2
 485 02ce 7B68     		ldr	r3, [r7, #4]
 486 02d0 5879     		ldrb	r0, [r3, #5]	@ zero_extendqisi2
 487 02d2 8549     		ldr	r1, .L19
 488 02d4 1346     		mov	r3, r2
 489 02d6 1B01     		lsls	r3, r3, #4
 490 02d8 1344     		add	r3, r3, r2
 491 02da DB00     		lsls	r3, r3, #3
 492 02dc 0B44     		add	r3, r3, r1
 493 02de 0533     		adds	r3, r3, #5
 494 02e0 0246     		mov	r2, r0
 495 02e2 1A70     		strb	r2, [r3]
 119:E:\NeuOrga\Programmieren\c_cpp\github_os\input\src\os_base\os_task_queue.c ****       (&TASK_RUN_QUEUE[element_nr])->WaitActUntil                    = task->WaitActUntil;
 496              		.loc 1 119 0
 497 02e4 FA7B     		ldrb	r2, [r7, #15]	@ zero_extendqisi2
 498 02e6 7B68     		ldr	r3, [r7, #4]
 499 02e8 9968     		ldr	r1, [r3, #8]
 500 02ea 7F48     		ldr	r0, .L19
 501 02ec 1346     		mov	r3, r2
 502 02ee 1B01     		lsls	r3, r3, #4
 503 02f0 1344     		add	r3, r3, r2
 504 02f2 DB00     		lsls	r3, r3, #3
 505 02f4 0344     		add	r3, r3, r0
 506 02f6 0833     		adds	r3, r3, #8
 507 02f8 1960     		str	r1, [r3]
 120:E:\NeuOrga\Programmieren\c_cpp\github_os\input\src\os_base\os_task_queue.c ****       (&TASK_RUN_QUEUE[element_nr])->wait_time                       = task->wait_time;
 508              		.loc 1 120 0
 509 02fa FA7B     		ldrb	r2, [r7, #15]	@ zero_extendqisi2
ARM GAS  C:\Users\PRESID~1\AppData\Local\Temp\cciwdv84.s 			page 12


 510 02fc 7B68     		ldr	r3, [r7, #4]
 511 02fe D968     		ldr	r1, [r3, #12]
 512 0300 7948     		ldr	r0, .L19
 513 0302 1346     		mov	r3, r2
 514 0304 1B01     		lsls	r3, r3, #4
 515 0306 1344     		add	r3, r3, r2
 516 0308 DB00     		lsls	r3, r3, #3
 517 030a 0344     		add	r3, r3, r0
 518 030c 0C33     		adds	r3, r3, #12
 519 030e 1960     		str	r1, [r3]
 121:E:\NeuOrga\Programmieren\c_cpp\github_os\input\src\os_base\os_task_queue.c ****       (&TASK_RUN_QUEUE[element_nr])->TimeToPrioInc                   = task->TimeToPrioInc;
 520              		.loc 1 121 0
 521 0310 FA7B     		ldrb	r2, [r7, #15]	@ zero_extendqisi2
 522 0312 7B68     		ldr	r3, [r7, #4]
 523 0314 1969     		ldr	r1, [r3, #16]
 524 0316 7448     		ldr	r0, .L19
 525 0318 1346     		mov	r3, r2
 526 031a 1B01     		lsls	r3, r3, #4
 527 031c 1344     		add	r3, r3, r2
 528 031e DB00     		lsls	r3, r3, #3
 529 0320 0344     		add	r3, r3, r0
 530 0322 1033     		adds	r3, r3, #16
 531 0324 1960     		str	r1, [r3]
 122:E:\NeuOrga\Programmieren\c_cpp\github_os\input\src\os_base\os_task_queue.c ****       (&TASK_RUN_QUEUE[element_nr])->overwaittime_per_prio_inc_step  = task->overwaittime_per_prio_
 532              		.loc 1 122 0
 533 0326 FA7B     		ldrb	r2, [r7, #15]	@ zero_extendqisi2
 534 0328 7B68     		ldr	r3, [r7, #4]
 535 032a 5969     		ldr	r1, [r3, #20]
 536 032c 6E48     		ldr	r0, .L19
 537 032e 1346     		mov	r3, r2
 538 0330 1B01     		lsls	r3, r3, #4
 539 0332 1344     		add	r3, r3, r2
 540 0334 DB00     		lsls	r3, r3, #3
 541 0336 0344     		add	r3, r3, r0
 542 0338 1433     		adds	r3, r3, #20
 543 033a 1960     		str	r1, [r3]
 123:E:\NeuOrga\Programmieren\c_cpp\github_os\input\src\os_base\os_task_queue.c ****       (&TASK_RUN_QUEUE[element_nr])->max_allowed_wait_time           = task->max_allowed_wait_time;
 544              		.loc 1 123 0
 545 033c FA7B     		ldrb	r2, [r7, #15]	@ zero_extendqisi2
 546 033e 7B68     		ldr	r3, [r7, #4]
 547 0340 9969     		ldr	r1, [r3, #24]
 548 0342 6948     		ldr	r0, .L19
 549 0344 1346     		mov	r3, r2
 550 0346 1B01     		lsls	r3, r3, #4
 551 0348 1344     		add	r3, r3, r2
 552 034a DB00     		lsls	r3, r3, #3
 553 034c 0344     		add	r3, r3, r0
 554 034e 1833     		adds	r3, r3, #24
 555 0350 1960     		str	r1, [r3]
 124:E:\NeuOrga\Programmieren\c_cpp\github_os\input\src\os_base\os_task_queue.c ****       (&TASK_RUN_QUEUE[element_nr])->exe_time                        = task->exe_time;
 556              		.loc 1 124 0
 557 0352 FA7B     		ldrb	r2, [r7, #15]	@ zero_extendqisi2
 558 0354 7B68     		ldr	r3, [r7, #4]
 559 0356 D969     		ldr	r1, [r3, #28]
 560 0358 6348     		ldr	r0, .L19
 561 035a 1346     		mov	r3, r2
 562 035c 1B01     		lsls	r3, r3, #4
ARM GAS  C:\Users\PRESID~1\AppData\Local\Temp\cciwdv84.s 			page 13


 563 035e 1344     		add	r3, r3, r2
 564 0360 DB00     		lsls	r3, r3, #3
 565 0362 0344     		add	r3, r3, r0
 566 0364 1C33     		adds	r3, r3, #28
 567 0366 1960     		str	r1, [r3]
 125:E:\NeuOrga\Programmieren\c_cpp\github_os\input\src\os_base\os_task_queue.c ****       (&TASK_RUN_QUEUE[element_nr])->start_time                      = task->start_time;
 568              		.loc 1 125 0
 569 0368 FA7B     		ldrb	r2, [r7, #15]	@ zero_extendqisi2
 570 036a 7B68     		ldr	r3, [r7, #4]
 571 036c 196A     		ldr	r1, [r3, #32]
 572 036e 5E48     		ldr	r0, .L19
 573 0370 1346     		mov	r3, r2
 574 0372 1B01     		lsls	r3, r3, #4
 575 0374 1344     		add	r3, r3, r2
 576 0376 DB00     		lsls	r3, r3, #3
 577 0378 0344     		add	r3, r3, r0
 578 037a 2033     		adds	r3, r3, #32
 579 037c 1960     		str	r1, [r3]
 126:E:\NeuOrga\Programmieren\c_cpp\github_os\input\src\os_base\os_task_queue.c ****       (&TASK_RUN_QUEUE[element_nr])->current_prio                    = task->current_prio;
 580              		.loc 1 126 0
 581 037e FA7B     		ldrb	r2, [r7, #15]	@ zero_extendqisi2
 582 0380 7B68     		ldr	r3, [r7, #4]
 583 0382 93F82400 		ldrb	r0, [r3, #36]	@ zero_extendqisi2
 584 0386 5849     		ldr	r1, .L19
 585 0388 1346     		mov	r3, r2
 586 038a 1B01     		lsls	r3, r3, #4
 587 038c 1344     		add	r3, r3, r2
 588 038e DB00     		lsls	r3, r3, #3
 589 0390 0B44     		add	r3, r3, r1
 590 0392 2433     		adds	r3, r3, #36
 591 0394 0246     		mov	r2, r0
 592 0396 1A70     		strb	r2, [r3]
 127:E:\NeuOrga\Programmieren\c_cpp\github_os\input\src\os_base\os_task_queue.c ****       (&TASK_RUN_QUEUE[element_nr])->default_prio                    = task->default_prio;
 593              		.loc 1 127 0
 594 0398 FA7B     		ldrb	r2, [r7, #15]	@ zero_extendqisi2
 595 039a 7B68     		ldr	r3, [r7, #4]
 596 039c 93F82500 		ldrb	r0, [r3, #37]	@ zero_extendqisi2
 597 03a0 5149     		ldr	r1, .L19
 598 03a2 1346     		mov	r3, r2
 599 03a4 1B01     		lsls	r3, r3, #4
 600 03a6 1344     		add	r3, r3, r2
 601 03a8 DB00     		lsls	r3, r3, #3
 602 03aa 0B44     		add	r3, r3, r1
 603 03ac 2533     		adds	r3, r3, #37
 604 03ae 0246     		mov	r2, r0
 605 03b0 1A70     		strb	r2, [r3]
 128:E:\NeuOrga\Programmieren\c_cpp\github_os\input\src\os_base\os_task_queue.c ****       (&TASK_RUN_QUEUE[element_nr])->fp                              = task->fp;
 606              		.loc 1 128 0
 607 03b2 FA7B     		ldrb	r2, [r7, #15]	@ zero_extendqisi2
 608 03b4 7B68     		ldr	r3, [r7, #4]
 609 03b6 D96A     		ldr	r1, [r3, #44]
 610 03b8 4B48     		ldr	r0, .L19
 611 03ba 1346     		mov	r3, r2
 612 03bc 1B01     		lsls	r3, r3, #4
 613 03be 1344     		add	r3, r3, r2
 614 03c0 DB00     		lsls	r3, r3, #3
 615 03c2 0344     		add	r3, r3, r0
ARM GAS  C:\Users\PRESID~1\AppData\Local\Temp\cciwdv84.s 			page 14


 616 03c4 2C33     		adds	r3, r3, #44
 617 03c6 1960     		str	r1, [r3]
 129:E:\NeuOrga\Programmieren\c_cpp\github_os\input\src\os_base\os_task_queue.c ****       (&TASK_RUN_QUEUE[element_nr])->state_request                   = task->state_request;
 618              		.loc 1 129 0
 619 03c8 FA7B     		ldrb	r2, [r7, #15]	@ zero_extendqisi2
 620 03ca 7B68     		ldr	r3, [r7, #4]
 621 03cc 196B     		ldr	r1, [r3, #48]
 622 03ce 4648     		ldr	r0, .L19
 623 03d0 1346     		mov	r3, r2
 624 03d2 1B01     		lsls	r3, r3, #4
 625 03d4 1344     		add	r3, r3, r2
 626 03d6 DB00     		lsls	r3, r3, #3
 627 03d8 0344     		add	r3, r3, r0
 628 03da 3033     		adds	r3, r3, #48
 629 03dc 1960     		str	r1, [r3]
 130:E:\NeuOrga\Programmieren\c_cpp\github_os\input\src\os_base\os_task_queue.c ****       (&TASK_RUN_QUEUE[element_nr])->task_state                      = task->task_state;
 630              		.loc 1 130 0
 631 03de FA7B     		ldrb	r2, [r7, #15]	@ zero_extendqisi2
 632 03e0 7B68     		ldr	r3, [r7, #4]
 633 03e2 93F83400 		ldrb	r0, [r3, #52]	@ zero_extendqisi2
 634 03e6 4049     		ldr	r1, .L19
 635 03e8 1346     		mov	r3, r2
 636 03ea 1B01     		lsls	r3, r3, #4
 637 03ec 1344     		add	r3, r3, r2
 638 03ee DB00     		lsls	r3, r3, #3
 639 03f0 0B44     		add	r3, r3, r1
 640 03f2 3433     		adds	r3, r3, #52
 641 03f4 0246     		mov	r2, r0
 642 03f6 1A70     		strb	r2, [r3]
 131:E:\NeuOrga\Programmieren\c_cpp\github_os\input\src\os_base\os_task_queue.c ****       (&TASK_RUN_QUEUE[element_nr])->task_group                      = task->task_group;
 643              		.loc 1 131 0
 644 03f8 FA7B     		ldrb	r2, [r7, #15]	@ zero_extendqisi2
 645 03fa 7B68     		ldr	r3, [r7, #4]
 646 03fc 996B     		ldr	r1, [r3, #56]
 647 03fe 3A48     		ldr	r0, .L19
 648 0400 1346     		mov	r3, r2
 649 0402 1B01     		lsls	r3, r3, #4
 650 0404 1344     		add	r3, r3, r2
 651 0406 DB00     		lsls	r3, r3, #3
 652 0408 0344     		add	r3, r3, r0
 653 040a 3833     		adds	r3, r3, #56
 654 040c 1960     		str	r1, [r3]
 132:E:\NeuOrga\Programmieren\c_cpp\github_os\input\src\os_base\os_task_queue.c ****    #if(CFG_PROCESSOR == cMCU_X86)
 133:E:\NeuOrga\Programmieren\c_cpp\github_os\input\src\os_base\os_task_queue.c ****       (&TASK_RUN_QUEUE[element_nr])->EAX                             = task->EAX;
 134:E:\NeuOrga\Programmieren\c_cpp\github_os\input\src\os_base\os_task_queue.c ****       (&TASK_RUN_QUEUE[element_nr])->EBX                             = task->EBX;
 135:E:\NeuOrga\Programmieren\c_cpp\github_os\input\src\os_base\os_task_queue.c ****       (&TASK_RUN_QUEUE[element_nr])->ECX                             = task->ECX;
 136:E:\NeuOrga\Programmieren\c_cpp\github_os\input\src\os_base\os_task_queue.c ****       (&TASK_RUN_QUEUE[element_nr])->EDX                             = task->EDX;
 137:E:\NeuOrga\Programmieren\c_cpp\github_os\input\src\os_base\os_task_queue.c ****    #else
 138:E:\NeuOrga\Programmieren\c_cpp\github_os\input\src\os_base\os_task_queue.c ****       (&TASK_RUN_QUEUE[element_nr])->r0                             = task->r0;
 655              		.loc 1 138 0
 656 040e FA7B     		ldrb	r2, [r7, #15]	@ zero_extendqisi2
 657 0410 7B68     		ldr	r3, [r7, #4]
 658 0412 D96B     		ldr	r1, [r3, #60]
 659 0414 3448     		ldr	r0, .L19
 660 0416 1346     		mov	r3, r2
 661 0418 1B01     		lsls	r3, r3, #4
 662 041a 1344     		add	r3, r3, r2
ARM GAS  C:\Users\PRESID~1\AppData\Local\Temp\cciwdv84.s 			page 15


 663 041c DB00     		lsls	r3, r3, #3
 664 041e 0344     		add	r3, r3, r0
 665 0420 3C33     		adds	r3, r3, #60
 666 0422 1960     		str	r1, [r3]
 139:E:\NeuOrga\Programmieren\c_cpp\github_os\input\src\os_base\os_task_queue.c ****       (&TASK_RUN_QUEUE[element_nr])->r1                             = task->r1;
 667              		.loc 1 139 0
 668 0424 FA7B     		ldrb	r2, [r7, #15]	@ zero_extendqisi2
 669 0426 7B68     		ldr	r3, [r7, #4]
 670 0428 196C     		ldr	r1, [r3, #64]
 671 042a 2F48     		ldr	r0, .L19
 672 042c 1346     		mov	r3, r2
 673 042e 1B01     		lsls	r3, r3, #4
 674 0430 1344     		add	r3, r3, r2
 675 0432 DB00     		lsls	r3, r3, #3
 676 0434 0344     		add	r3, r3, r0
 677 0436 4033     		adds	r3, r3, #64
 678 0438 1960     		str	r1, [r3]
 140:E:\NeuOrga\Programmieren\c_cpp\github_os\input\src\os_base\os_task_queue.c ****       (&TASK_RUN_QUEUE[element_nr])->r2                             = task->r2;
 679              		.loc 1 140 0
 680 043a FA7B     		ldrb	r2, [r7, #15]	@ zero_extendqisi2
 681 043c 7B68     		ldr	r3, [r7, #4]
 682 043e 596C     		ldr	r1, [r3, #68]
 683 0440 2948     		ldr	r0, .L19
 684 0442 1346     		mov	r3, r2
 685 0444 1B01     		lsls	r3, r3, #4
 686 0446 1344     		add	r3, r3, r2
 687 0448 DB00     		lsls	r3, r3, #3
 688 044a 0344     		add	r3, r3, r0
 689 044c 4433     		adds	r3, r3, #68
 690 044e 1960     		str	r1, [r3]
 141:E:\NeuOrga\Programmieren\c_cpp\github_os\input\src\os_base\os_task_queue.c ****       (&TASK_RUN_QUEUE[element_nr])->r3                             = task->r3;
 691              		.loc 1 141 0
 692 0450 FA7B     		ldrb	r2, [r7, #15]	@ zero_extendqisi2
 693 0452 7B68     		ldr	r3, [r7, #4]
 694 0454 996C     		ldr	r1, [r3, #72]
 695 0456 2448     		ldr	r0, .L19
 696 0458 1346     		mov	r3, r2
 697 045a 1B01     		lsls	r3, r3, #4
 698 045c 1344     		add	r3, r3, r2
 699 045e DB00     		lsls	r3, r3, #3
 700 0460 0344     		add	r3, r3, r0
 701 0462 4833     		adds	r3, r3, #72
 702 0464 1960     		str	r1, [r3]
 142:E:\NeuOrga\Programmieren\c_cpp\github_os\input\src\os_base\os_task_queue.c ****       (&TASK_RUN_QUEUE[element_nr])->r4                             = task->r4;
 703              		.loc 1 142 0
 704 0466 FA7B     		ldrb	r2, [r7, #15]	@ zero_extendqisi2
 705 0468 7B68     		ldr	r3, [r7, #4]
 706 046a D96C     		ldr	r1, [r3, #76]
 707 046c 1E48     		ldr	r0, .L19
 708 046e 1346     		mov	r3, r2
 709 0470 1B01     		lsls	r3, r3, #4
 710 0472 1344     		add	r3, r3, r2
 711 0474 DB00     		lsls	r3, r3, #3
 712 0476 0344     		add	r3, r3, r0
 713 0478 4C33     		adds	r3, r3, #76
 714 047a 1960     		str	r1, [r3]
 143:E:\NeuOrga\Programmieren\c_cpp\github_os\input\src\os_base\os_task_queue.c ****       (&TASK_RUN_QUEUE[element_nr])->r5                             = task->r5;
ARM GAS  C:\Users\PRESID~1\AppData\Local\Temp\cciwdv84.s 			page 16


 715              		.loc 1 143 0
 716 047c FA7B     		ldrb	r2, [r7, #15]	@ zero_extendqisi2
 717 047e 7B68     		ldr	r3, [r7, #4]
 718 0480 196D     		ldr	r1, [r3, #80]
 719 0482 1948     		ldr	r0, .L19
 720 0484 1346     		mov	r3, r2
 721 0486 1B01     		lsls	r3, r3, #4
 722 0488 1344     		add	r3, r3, r2
 723 048a DB00     		lsls	r3, r3, #3
 724 048c 0344     		add	r3, r3, r0
 725 048e 5033     		adds	r3, r3, #80
 726 0490 1960     		str	r1, [r3]
 144:E:\NeuOrga\Programmieren\c_cpp\github_os\input\src\os_base\os_task_queue.c ****       (&TASK_RUN_QUEUE[element_nr])->r6                             = task->r6;
 727              		.loc 1 144 0
 728 0492 FA7B     		ldrb	r2, [r7, #15]	@ zero_extendqisi2
 729 0494 7B68     		ldr	r3, [r7, #4]
 730 0496 596D     		ldr	r1, [r3, #84]
 731 0498 1348     		ldr	r0, .L19
 732 049a 1346     		mov	r3, r2
 733 049c 1B01     		lsls	r3, r3, #4
 734 049e 1344     		add	r3, r3, r2
 735 04a0 DB00     		lsls	r3, r3, #3
 736 04a2 0344     		add	r3, r3, r0
 737 04a4 5433     		adds	r3, r3, #84
 738 04a6 1960     		str	r1, [r3]
 145:E:\NeuOrga\Programmieren\c_cpp\github_os\input\src\os_base\os_task_queue.c ****       (&TASK_RUN_QUEUE[element_nr])->r7                             = task->r7;
 739              		.loc 1 145 0
 740 04a8 FA7B     		ldrb	r2, [r7, #15]	@ zero_extendqisi2
 741 04aa 7B68     		ldr	r3, [r7, #4]
 742 04ac 996D     		ldr	r1, [r3, #88]
 743 04ae 0E48     		ldr	r0, .L19
 744 04b0 1346     		mov	r3, r2
 745 04b2 1B01     		lsls	r3, r3, #4
 746 04b4 1344     		add	r3, r3, r2
 747 04b6 DB00     		lsls	r3, r3, #3
 748 04b8 0344     		add	r3, r3, r0
 749 04ba 5833     		adds	r3, r3, #88
 750 04bc 1960     		str	r1, [r3]
 146:E:\NeuOrga\Programmieren\c_cpp\github_os\input\src\os_base\os_task_queue.c ****       (&TASK_RUN_QUEUE[element_nr])->r8                             = task->r8;
 751              		.loc 1 146 0
 752 04be FA7B     		ldrb	r2, [r7, #15]	@ zero_extendqisi2
 753 04c0 7B68     		ldr	r3, [r7, #4]
 754 04c2 D96D     		ldr	r1, [r3, #92]
 755 04c4 0848     		ldr	r0, .L19
 756 04c6 1346     		mov	r3, r2
 757 04c8 1B01     		lsls	r3, r3, #4
 758 04ca 1344     		add	r3, r3, r2
 759 04cc DB00     		lsls	r3, r3, #3
 760 04ce 0344     		add	r3, r3, r0
 761 04d0 5C33     		adds	r3, r3, #92
 762 04d2 1960     		str	r1, [r3]
 147:E:\NeuOrga\Programmieren\c_cpp\github_os\input\src\os_base\os_task_queue.c ****       (&TASK_RUN_QUEUE[element_nr])->r9                             = task->r9;
 763              		.loc 1 147 0
 764 04d4 FA7B     		ldrb	r2, [r7, #15]	@ zero_extendqisi2
 765 04d6 7B68     		ldr	r3, [r7, #4]
 766 04d8 196E     		ldr	r1, [r3, #96]
 767 04da 0348     		ldr	r0, .L19
ARM GAS  C:\Users\PRESID~1\AppData\Local\Temp\cciwdv84.s 			page 17


 768 04dc 1346     		mov	r3, r2
 769 04de 1B01     		lsls	r3, r3, #4
 770 04e0 1344     		add	r3, r3, r2
 771 04e2 DB00     		lsls	r3, r3, #3
 772 04e4 0344     		add	r3, r3, r0
 773 04e6 01E0     		b	.L20
 774              	.L21:
 775              		.align	2
 776              	.L19:
 777 04e8 00000000 		.word	TASK_RUN_QUEUE
 778              	.L20:
 779 04ec 6033     		adds	r3, r3, #96
 780 04ee 1960     		str	r1, [r3]
 148:E:\NeuOrga\Programmieren\c_cpp\github_os\input\src\os_base\os_task_queue.c ****       (&TASK_RUN_QUEUE[element_nr])->r10                            = task->r10;
 781              		.loc 1 148 0
 782 04f0 FA7B     		ldrb	r2, [r7, #15]	@ zero_extendqisi2
 783 04f2 7B68     		ldr	r3, [r7, #4]
 784 04f4 596E     		ldr	r1, [r3, #100]
 785 04f6 3148     		ldr	r0, .L22
 786 04f8 1346     		mov	r3, r2
 787 04fa 1B01     		lsls	r3, r3, #4
 788 04fc 1344     		add	r3, r3, r2
 789 04fe DB00     		lsls	r3, r3, #3
 790 0500 0344     		add	r3, r3, r0
 791 0502 6433     		adds	r3, r3, #100
 792 0504 1960     		str	r1, [r3]
 149:E:\NeuOrga\Programmieren\c_cpp\github_os\input\src\os_base\os_task_queue.c ****       (&TASK_RUN_QUEUE[element_nr])->r11                            = task->r11;
 793              		.loc 1 149 0
 794 0506 FA7B     		ldrb	r2, [r7, #15]	@ zero_extendqisi2
 795 0508 7B68     		ldr	r3, [r7, #4]
 796 050a 996E     		ldr	r1, [r3, #104]
 797 050c 2B48     		ldr	r0, .L22
 798 050e 1346     		mov	r3, r2
 799 0510 1B01     		lsls	r3, r3, #4
 800 0512 1344     		add	r3, r3, r2
 801 0514 DB00     		lsls	r3, r3, #3
 802 0516 0344     		add	r3, r3, r0
 803 0518 6833     		adds	r3, r3, #104
 804 051a 1960     		str	r1, [r3]
 150:E:\NeuOrga\Programmieren\c_cpp\github_os\input\src\os_base\os_task_queue.c ****       (&TASK_RUN_QUEUE[element_nr])->r12                            = task->r12;
 805              		.loc 1 150 0
 806 051c FA7B     		ldrb	r2, [r7, #15]	@ zero_extendqisi2
 807 051e 7B68     		ldr	r3, [r7, #4]
 808 0520 D96E     		ldr	r1, [r3, #108]
 809 0522 2648     		ldr	r0, .L22
 810 0524 1346     		mov	r3, r2
 811 0526 1B01     		lsls	r3, r3, #4
 812 0528 1344     		add	r3, r3, r2
 813 052a DB00     		lsls	r3, r3, #3
 814 052c 0344     		add	r3, r3, r0
 815 052e 6C33     		adds	r3, r3, #108
 816 0530 1960     		str	r1, [r3]
 151:E:\NeuOrga\Programmieren\c_cpp\github_os\input\src\os_base\os_task_queue.c ****    #endif
 152:E:\NeuOrga\Programmieren\c_cpp\github_os\input\src\os_base\os_task_queue.c ****       (&TASK_RUN_QUEUE[element_nr])->pStackPointer                   = task->pStackPointer;
 817              		.loc 1 152 0
 818 0532 FA7B     		ldrb	r2, [r7, #15]	@ zero_extendqisi2
 819 0534 7B68     		ldr	r3, [r7, #4]
ARM GAS  C:\Users\PRESID~1\AppData\Local\Temp\cciwdv84.s 			page 18


 820 0536 196F     		ldr	r1, [r3, #112]
 821 0538 2048     		ldr	r0, .L22
 822 053a 1346     		mov	r3, r2
 823 053c 1B01     		lsls	r3, r3, #4
 824 053e 1344     		add	r3, r3, r2
 825 0540 DB00     		lsls	r3, r3, #3
 826 0542 0344     		add	r3, r3, r0
 827 0544 7033     		adds	r3, r3, #112
 828 0546 1960     		str	r1, [r3]
 153:E:\NeuOrga\Programmieren\c_cpp\github_os\input\src\os_base\os_task_queue.c ****       (&TASK_RUN_QUEUE[element_nr])->pStackPointerByMalloc           = task->pStackPointerByMalloc;
 829              		.loc 1 153 0
 830 0548 FA7B     		ldrb	r2, [r7, #15]	@ zero_extendqisi2
 831 054a 7B68     		ldr	r3, [r7, #4]
 832 054c 596F     		ldr	r1, [r3, #116]
 833 054e 1B48     		ldr	r0, .L22
 834 0550 1346     		mov	r3, r2
 835 0552 1B01     		lsls	r3, r3, #4
 836 0554 1344     		add	r3, r3, r2
 837 0556 DB00     		lsls	r3, r3, #3
 838 0558 0344     		add	r3, r3, r0
 839 055a 7433     		adds	r3, r3, #116
 840 055c 1960     		str	r1, [r3]
 154:E:\NeuOrga\Programmieren\c_cpp\github_os\input\src\os_base\os_task_queue.c ****       (&TASK_RUN_QUEUE[element_nr])->pStackPointerStart              = task->pStackPointerStart;
 841              		.loc 1 154 0
 842 055e FA7B     		ldrb	r2, [r7, #15]	@ zero_extendqisi2
 843 0560 7B68     		ldr	r3, [r7, #4]
 844 0562 996F     		ldr	r1, [r3, #120]
 845 0564 1548     		ldr	r0, .L22
 846 0566 1346     		mov	r3, r2
 847 0568 1B01     		lsls	r3, r3, #4
 848 056a 1344     		add	r3, r3, r2
 849 056c DB00     		lsls	r3, r3, #3
 850 056e 0344     		add	r3, r3, r0
 851 0570 7833     		adds	r3, r3, #120
 852 0572 1960     		str	r1, [r3]
 155:E:\NeuOrga\Programmieren\c_cpp\github_os\input\src\os_base\os_task_queue.c ****       (&TASK_RUN_QUEUE[element_nr])->StackSize                       = task->StackSize;
 853              		.loc 1 155 0
 854 0574 FA7B     		ldrb	r2, [r7, #15]	@ zero_extendqisi2
 855 0576 7B68     		ldr	r3, [r7, #4]
 856 0578 D96F     		ldr	r1, [r3, #124]
 857 057a 1048     		ldr	r0, .L22
 858 057c 1346     		mov	r3, r2
 859 057e 1B01     		lsls	r3, r3, #4
 860 0580 1344     		add	r3, r3, r2
 861 0582 DB00     		lsls	r3, r3, #3
 862 0584 0344     		add	r3, r3, r0
 863 0586 7C33     		adds	r3, r3, #124
 864 0588 1960     		str	r1, [r3]
 156:E:\NeuOrga\Programmieren\c_cpp\github_os\input\src\os_base\os_task_queue.c ****       (&TASK_RUN_QUEUE[element_nr])->pStackPointerEnd                = task->pStackPointerEnd;
 865              		.loc 1 156 0
 866 058a FA7B     		ldrb	r2, [r7, #15]	@ zero_extendqisi2
 867 058c 7B68     		ldr	r3, [r7, #4]
 868 058e D3F88010 		ldr	r1, [r3, #128]
 869 0592 0A48     		ldr	r0, .L22
 870 0594 1346     		mov	r3, r2
 871 0596 1B01     		lsls	r3, r3, #4
 872 0598 1344     		add	r3, r3, r2
ARM GAS  C:\Users\PRESID~1\AppData\Local\Temp\cciwdv84.s 			page 19


 873 059a DB00     		lsls	r3, r3, #3
 874 059c 0344     		add	r3, r3, r0
 875 059e 8033     		adds	r3, r3, #128
 876 05a0 1960     		str	r1, [r3]
 877              	.L17:
 157:E:\NeuOrga\Programmieren\c_cpp\github_os\input\src\os_base\os_task_queue.c ****    }
 158:E:\NeuOrga\Programmieren\c_cpp\github_os\input\src\os_base\os_task_queue.c ****    return (&TASK_RUN_QUEUE[element_nr]);
 878              		.loc 1 158 0
 879 05a2 FA7B     		ldrb	r2, [r7, #15]	@ zero_extendqisi2
 880 05a4 1346     		mov	r3, r2
 881 05a6 1B01     		lsls	r3, r3, #4
 882 05a8 1344     		add	r3, r3, r2
 883 05aa DB00     		lsls	r3, r3, #3
 884 05ac 034A     		ldr	r2, .L22
 885 05ae 1344     		add	r3, r3, r2
 159:E:\NeuOrga\Programmieren\c_cpp\github_os\input\src\os_base\os_task_queue.c **** }
 886              		.loc 1 159 0
 887 05b0 1846     		mov	r0, r3
 888 05b2 1437     		adds	r7, r7, #20
 889              		.cfi_def_cfa_offset 4
 890 05b4 BD46     		mov	sp, r7
 891              		.cfi_def_cfa_register 13
 892              		@ sp needed
 893 05b6 80BC     		pop	{r7}
 894              		.cfi_restore 7
 895              		.cfi_def_cfa_offset 0
 896 05b8 7047     		bx	lr
 897              	.L23:
 898 05ba 00BF     		.align	2
 899              	.L22:
 900 05bc 00000000 		.word	TASK_RUN_QUEUE
 901              		.cfi_endproc
 902              	.LFE2:
 904              		.align	1
 905              		.global	DeleteFromTaskQueue
 906              		.syntax unified
 907              		.thumb
 908              		.thumb_func
 909              		.fpu softvfp
 911              	DeleteFromTaskQueue:
 912              	.LFB3:
 160:E:\NeuOrga\Programmieren\c_cpp\github_os\input\src\os_base\os_task_queue.c **** void DeleteFromTaskQueue(task_t* task)
 161:E:\NeuOrga\Programmieren\c_cpp\github_os\input\src\os_base\os_task_queue.c **** {
 913              		.loc 1 161 0
 914              		.cfi_startproc
 915              		@ args = 0, pretend = 0, frame = 8
 916              		@ frame_needed = 1, uses_anonymous_args = 0
 917              		@ link register save eliminated.
 918 05c0 80B4     		push	{r7}
 919              		.cfi_def_cfa_offset 4
 920              		.cfi_offset 7, -4
 921 05c2 83B0     		sub	sp, sp, #12
 922              		.cfi_def_cfa_offset 16
 923 05c4 00AF     		add	r7, sp, #0
 924              		.cfi_def_cfa_register 7
 925 05c6 7860     		str	r0, [r7, #4]
 162:E:\NeuOrga\Programmieren\c_cpp\github_os\input\src\os_base\os_task_queue.c ****    task->active                                =   False   ;
ARM GAS  C:\Users\PRESID~1\AppData\Local\Temp\cciwdv84.s 			page 20


 926              		.loc 1 162 0
 927 05c8 7A68     		ldr	r2, [r7, #4]
 928 05ca 1378     		ldrb	r3, [r2]
 929 05cc 6FF30003 		bfc	r3, #0, #1
 930 05d0 1370     		strb	r3, [r2]
 163:E:\NeuOrga\Programmieren\c_cpp\github_os\input\src\os_base\os_task_queue.c ****    task->task_queued                           =   False   ;
 931              		.loc 1 163 0
 932 05d2 7A68     		ldr	r2, [r7, #4]
 933 05d4 1378     		ldrb	r3, [r2]
 934 05d6 6FF34103 		bfc	r3, #1, #1
 935 05da 1370     		strb	r3, [r2]
 164:E:\NeuOrga\Programmieren\c_cpp\github_os\input\src\os_base\os_task_queue.c ****    task->IdleTask                              =   False   ;
 936              		.loc 1 164 0
 937 05dc 7A68     		ldr	r2, [r7, #4]
 938 05de 1378     		ldrb	r3, [r2]
 939 05e0 6FF38203 		bfc	r3, #2, #1
 940 05e4 1370     		strb	r3, [r2]
 165:E:\NeuOrga\Programmieren\c_cpp\github_os\input\src\os_base\os_task_queue.c ****    task->FREE                                  =   0       ;
 941              		.loc 1 165 0
 942 05e6 7A68     		ldr	r2, [r7, #4]
 943 05e8 1368     		ldr	r3, [r2]
 944 05ea 6FF3DF03 		bfc	r3, #3, #29
 945 05ee 1360     		str	r3, [r2]
 166:E:\NeuOrga\Programmieren\c_cpp\github_os\input\src\os_base\os_task_queue.c ****    task->NrOfInsAllowed                        =   0       ;
 946              		.loc 1 166 0
 947 05f0 7B68     		ldr	r3, [r7, #4]
 948 05f2 0022     		movs	r2, #0
 949 05f4 1A71     		strb	r2, [r3, #4]
 167:E:\NeuOrga\Programmieren\c_cpp\github_os\input\src\os_base\os_task_queue.c ****    task->NrOfInsActivated                      =   0       ;
 950              		.loc 1 167 0
 951 05f6 7B68     		ldr	r3, [r7, #4]
 952 05f8 0022     		movs	r2, #0
 953 05fa 5A71     		strb	r2, [r3, #5]
 168:E:\NeuOrga\Programmieren\c_cpp\github_os\input\src\os_base\os_task_queue.c ****    task->WaitActUntil                          =   0       ;
 954              		.loc 1 168 0
 955 05fc 7B68     		ldr	r3, [r7, #4]
 956 05fe 0022     		movs	r2, #0
 957 0600 9A60     		str	r2, [r3, #8]
 169:E:\NeuOrga\Programmieren\c_cpp\github_os\input\src\os_base\os_task_queue.c ****    task->wait_time                             =   0       ;
 958              		.loc 1 169 0
 959 0602 7B68     		ldr	r3, [r7, #4]
 960 0604 0022     		movs	r2, #0
 961 0606 DA60     		str	r2, [r3, #12]
 170:E:\NeuOrga\Programmieren\c_cpp\github_os\input\src\os_base\os_task_queue.c ****    task->TimeToPrioInc                         =   0       ;
 962              		.loc 1 170 0
 963 0608 7B68     		ldr	r3, [r7, #4]
 964 060a 0022     		movs	r2, #0
 965 060c 1A61     		str	r2, [r3, #16]
 171:E:\NeuOrga\Programmieren\c_cpp\github_os\input\src\os_base\os_task_queue.c ****    task->overwaittime_per_prio_inc_step        =   0       ;
 966              		.loc 1 171 0
 967 060e 7B68     		ldr	r3, [r7, #4]
 968 0610 0022     		movs	r2, #0
 969 0612 5A61     		str	r2, [r3, #20]
 172:E:\NeuOrga\Programmieren\c_cpp\github_os\input\src\os_base\os_task_queue.c ****    task->max_allowed_wait_time                 =   0       ;
 970              		.loc 1 172 0
 971 0614 7B68     		ldr	r3, [r7, #4]
 972 0616 0022     		movs	r2, #0
ARM GAS  C:\Users\PRESID~1\AppData\Local\Temp\cciwdv84.s 			page 21


 973 0618 9A61     		str	r2, [r3, #24]
 173:E:\NeuOrga\Programmieren\c_cpp\github_os\input\src\os_base\os_task_queue.c ****    task->exe_time                              =   0       ;
 974              		.loc 1 173 0
 975 061a 7B68     		ldr	r3, [r7, #4]
 976 061c 0022     		movs	r2, #0
 977 061e DA61     		str	r2, [r3, #28]
 174:E:\NeuOrga\Programmieren\c_cpp\github_os\input\src\os_base\os_task_queue.c ****    task->start_time                            =   0       ;
 978              		.loc 1 174 0
 979 0620 7B68     		ldr	r3, [r7, #4]
 980 0622 0022     		movs	r2, #0
 981 0624 1A62     		str	r2, [r3, #32]
 175:E:\NeuOrga\Programmieren\c_cpp\github_os\input\src\os_base\os_task_queue.c ****    task->current_prio                          =   0       ;
 982              		.loc 1 175 0
 983 0626 7B68     		ldr	r3, [r7, #4]
 984 0628 0022     		movs	r2, #0
 985 062a 83F82420 		strb	r2, [r3, #36]
 176:E:\NeuOrga\Programmieren\c_cpp\github_os\input\src\os_base\os_task_queue.c ****    task->default_prio                          =   0       ;
 986              		.loc 1 176 0
 987 062e 7B68     		ldr	r3, [r7, #4]
 988 0630 0022     		movs	r2, #0
 989 0632 83F82520 		strb	r2, [r3, #37]
 177:E:\NeuOrga\Programmieren\c_cpp\github_os\input\src\os_base\os_task_queue.c ****    task->fp                                    =   0       ;
 990              		.loc 1 177 0
 991 0636 7B68     		ldr	r3, [r7, #4]
 992 0638 0022     		movs	r2, #0
 993 063a DA62     		str	r2, [r3, #44]
 178:E:\NeuOrga\Programmieren\c_cpp\github_os\input\src\os_base\os_task_queue.c ****    task->state_request                         =   &task_state_request       ;
 994              		.loc 1 178 0
 995 063c 7B68     		ldr	r3, [r7, #4]
 996 063e 224A     		ldr	r2, .L25
 997 0640 1A63     		str	r2, [r3, #48]
 179:E:\NeuOrga\Programmieren\c_cpp\github_os\input\src\os_base\os_task_queue.c ****    task->task_state                            =   Task_unspecified;
 998              		.loc 1 179 0
 999 0642 7B68     		ldr	r3, [r7, #4]
 1000 0644 0022     		movs	r2, #0
 1001 0646 83F83420 		strb	r2, [r3, #52]
 180:E:\NeuOrga\Programmieren\c_cpp\github_os\input\src\os_base\os_task_queue.c ****    task->task_group                            =   0       ;
 1002              		.loc 1 180 0
 1003 064a 7B68     		ldr	r3, [r7, #4]
 1004 064c 0022     		movs	r2, #0
 1005 064e 9A63     		str	r2, [r3, #56]
 181:E:\NeuOrga\Programmieren\c_cpp\github_os\input\src\os_base\os_task_queue.c ****       #if(CFG_PROCESSOR == cMCU_X86)
 182:E:\NeuOrga\Programmieren\c_cpp\github_os\input\src\os_base\os_task_queue.c ****       task->EAX                                   =   0              ;
 183:E:\NeuOrga\Programmieren\c_cpp\github_os\input\src\os_base\os_task_queue.c ****       task->EBX                                   =   0             ;
 184:E:\NeuOrga\Programmieren\c_cpp\github_os\input\src\os_base\os_task_queue.c ****       task->ECX                                   =   0              ;
 185:E:\NeuOrga\Programmieren\c_cpp\github_os\input\src\os_base\os_task_queue.c ****       task->EDX                                   =   0              ;
 186:E:\NeuOrga\Programmieren\c_cpp\github_os\input\src\os_base\os_task_queue.c ****       #elif(CFG_PROCESSOR == cMCU_CORTEX_M4)
 187:E:\NeuOrga\Programmieren\c_cpp\github_os\input\src\os_base\os_task_queue.c ****       task->r0                                   =   0              ;
 1006              		.loc 1 187 0
 1007 0650 7B68     		ldr	r3, [r7, #4]
 1008 0652 0022     		movs	r2, #0
 1009 0654 DA63     		str	r2, [r3, #60]
 188:E:\NeuOrga\Programmieren\c_cpp\github_os\input\src\os_base\os_task_queue.c ****       task->r1                                   =   0              ;
 1010              		.loc 1 188 0
 1011 0656 7B68     		ldr	r3, [r7, #4]
 1012 0658 0022     		movs	r2, #0
 1013 065a 1A64     		str	r2, [r3, #64]
ARM GAS  C:\Users\PRESID~1\AppData\Local\Temp\cciwdv84.s 			page 22


 189:E:\NeuOrga\Programmieren\c_cpp\github_os\input\src\os_base\os_task_queue.c ****       task->r2                                   =   0              ;
 1014              		.loc 1 189 0
 1015 065c 7B68     		ldr	r3, [r7, #4]
 1016 065e 0022     		movs	r2, #0
 1017 0660 5A64     		str	r2, [r3, #68]
 190:E:\NeuOrga\Programmieren\c_cpp\github_os\input\src\os_base\os_task_queue.c ****       task->r3                                   =   0              ;
 1018              		.loc 1 190 0
 1019 0662 7B68     		ldr	r3, [r7, #4]
 1020 0664 0022     		movs	r2, #0
 1021 0666 9A64     		str	r2, [r3, #72]
 191:E:\NeuOrga\Programmieren\c_cpp\github_os\input\src\os_base\os_task_queue.c ****       task->r4                                   =   0              ;
 1022              		.loc 1 191 0
 1023 0668 7B68     		ldr	r3, [r7, #4]
 1024 066a 0022     		movs	r2, #0
 1025 066c DA64     		str	r2, [r3, #76]
 192:E:\NeuOrga\Programmieren\c_cpp\github_os\input\src\os_base\os_task_queue.c ****       task->r5                                   =   0              ;
 1026              		.loc 1 192 0
 1027 066e 7B68     		ldr	r3, [r7, #4]
 1028 0670 0022     		movs	r2, #0
 1029 0672 1A65     		str	r2, [r3, #80]
 193:E:\NeuOrga\Programmieren\c_cpp\github_os\input\src\os_base\os_task_queue.c ****       task->r6                                   =   0              ;
 1030              		.loc 1 193 0
 1031 0674 7B68     		ldr	r3, [r7, #4]
 1032 0676 0022     		movs	r2, #0
 1033 0678 5A65     		str	r2, [r3, #84]
 194:E:\NeuOrga\Programmieren\c_cpp\github_os\input\src\os_base\os_task_queue.c ****       task->r7                                   =   0              ;
 1034              		.loc 1 194 0
 1035 067a 7B68     		ldr	r3, [r7, #4]
 1036 067c 0022     		movs	r2, #0
 1037 067e 9A65     		str	r2, [r3, #88]
 195:E:\NeuOrga\Programmieren\c_cpp\github_os\input\src\os_base\os_task_queue.c ****       task->r8                                   =   0              ;
 1038              		.loc 1 195 0
 1039 0680 7B68     		ldr	r3, [r7, #4]
 1040 0682 0022     		movs	r2, #0
 1041 0684 DA65     		str	r2, [r3, #92]
 196:E:\NeuOrga\Programmieren\c_cpp\github_os\input\src\os_base\os_task_queue.c ****       task->r9                                   =   0              ;
 1042              		.loc 1 196 0
 1043 0686 7B68     		ldr	r3, [r7, #4]
 1044 0688 0022     		movs	r2, #0
 1045 068a 1A66     		str	r2, [r3, #96]
 197:E:\NeuOrga\Programmieren\c_cpp\github_os\input\src\os_base\os_task_queue.c ****       task->r10                                  =   0             ;
 1046              		.loc 1 197 0
 1047 068c 7B68     		ldr	r3, [r7, #4]
 1048 068e 0022     		movs	r2, #0
 1049 0690 5A66     		str	r2, [r3, #100]
 198:E:\NeuOrga\Programmieren\c_cpp\github_os\input\src\os_base\os_task_queue.c ****       task->r11                                  =   0             ;
 1050              		.loc 1 198 0
 1051 0692 7B68     		ldr	r3, [r7, #4]
 1052 0694 0022     		movs	r2, #0
 1053 0696 9A66     		str	r2, [r3, #104]
 199:E:\NeuOrga\Programmieren\c_cpp\github_os\input\src\os_base\os_task_queue.c ****       task->r12                                  =   0             ;
 1054              		.loc 1 199 0
 1055 0698 7B68     		ldr	r3, [r7, #4]
 1056 069a 0022     		movs	r2, #0
 1057 069c DA66     		str	r2, [r3, #108]
 200:E:\NeuOrga\Programmieren\c_cpp\github_os\input\src\os_base\os_task_queue.c ****       #else
 201:E:\NeuOrga\Programmieren\c_cpp\github_os\input\src\os_base\os_task_queue.c ****       #error "os_task_queue.c"
ARM GAS  C:\Users\PRESID~1\AppData\Local\Temp\cciwdv84.s 			page 23


 202:E:\NeuOrga\Programmieren\c_cpp\github_os\input\src\os_base\os_task_queue.c ****       #endif
 203:E:\NeuOrga\Programmieren\c_cpp\github_os\input\src\os_base\os_task_queue.c ****    task->pStackPointer                         =   0       ;
 1058              		.loc 1 203 0
 1059 069e 7B68     		ldr	r3, [r7, #4]
 1060 06a0 0022     		movs	r2, #0
 1061 06a2 1A67     		str	r2, [r3, #112]
 204:E:\NeuOrga\Programmieren\c_cpp\github_os\input\src\os_base\os_task_queue.c ****    task->pStackPointerByMalloc                 =   0       ;
 1062              		.loc 1 204 0
 1063 06a4 7B68     		ldr	r3, [r7, #4]
 1064 06a6 0022     		movs	r2, #0
 1065 06a8 5A67     		str	r2, [r3, #116]
 205:E:\NeuOrga\Programmieren\c_cpp\github_os\input\src\os_base\os_task_queue.c ****    task->pStackPointerStart                    =   0       ;
 1066              		.loc 1 205 0
 1067 06aa 7B68     		ldr	r3, [r7, #4]
 1068 06ac 0022     		movs	r2, #0
 1069 06ae 9A67     		str	r2, [r3, #120]
 206:E:\NeuOrga\Programmieren\c_cpp\github_os\input\src\os_base\os_task_queue.c ****    task->StackSize                             =   0       ;
 1070              		.loc 1 206 0
 1071 06b0 7B68     		ldr	r3, [r7, #4]
 1072 06b2 0022     		movs	r2, #0
 1073 06b4 DA67     		str	r2, [r3, #124]
 207:E:\NeuOrga\Programmieren\c_cpp\github_os\input\src\os_base\os_task_queue.c ****    task->pStackPointerEnd                      =   0       ;
 1074              		.loc 1 207 0
 1075 06b6 7B68     		ldr	r3, [r7, #4]
 1076 06b8 0022     		movs	r2, #0
 1077 06ba C3F88020 		str	r2, [r3, #128]
 208:E:\NeuOrga\Programmieren\c_cpp\github_os\input\src\os_base\os_task_queue.c **** }
 1078              		.loc 1 208 0
 1079 06be 00BF     		nop
 1080 06c0 0C37     		adds	r7, r7, #12
 1081              		.cfi_def_cfa_offset 4
 1082 06c2 BD46     		mov	sp, r7
 1083              		.cfi_def_cfa_register 13
 1084              		@ sp needed
 1085 06c4 80BC     		pop	{r7}
 1086              		.cfi_restore 7
 1087              		.cfi_def_cfa_offset 0
 1088 06c6 7047     		bx	lr
 1089              	.L26:
 1090              		.align	2
 1091              	.L25:
 1092 06c8 00000000 		.word	task_state_request
 1093              		.cfi_endproc
 1094              	.LFE3:
 1096              		.align	1
 1097              		.global	GetFromTaskQueue
 1098              		.syntax unified
 1099              		.thumb
 1100              		.thumb_func
 1101              		.fpu softvfp
 1103              	GetFromTaskQueue:
 1104              	.LFB4:
 209:E:\NeuOrga\Programmieren\c_cpp\github_os\input\src\os_base\os_task_queue.c **** task_t* GetFromTaskQueue(scheduling_t* scheduling_queue_element)
 210:E:\NeuOrga\Programmieren\c_cpp\github_os\input\src\os_base\os_task_queue.c **** {
 1105              		.loc 1 210 0
 1106              		.cfi_startproc
 1107              		@ args = 0, pretend = 0, frame = 8
ARM GAS  C:\Users\PRESID~1\AppData\Local\Temp\cciwdv84.s 			page 24


 1108              		@ frame_needed = 1, uses_anonymous_args = 0
 1109              		@ link register save eliminated.
 1110 06cc 80B4     		push	{r7}
 1111              		.cfi_def_cfa_offset 4
 1112              		.cfi_offset 7, -4
 1113 06ce 83B0     		sub	sp, sp, #12
 1114              		.cfi_def_cfa_offset 16
 1115 06d0 00AF     		add	r7, sp, #0
 1116              		.cfi_def_cfa_register 7
 1117 06d2 7860     		str	r0, [r7, #4]
 211:E:\NeuOrga\Programmieren\c_cpp\github_os\input\src\os_base\os_task_queue.c ****    return ((task_t*)*scheduling_queue_element);
 1118              		.loc 1 211 0
 1119 06d4 7B68     		ldr	r3, [r7, #4]
 1120 06d6 1B68     		ldr	r3, [r3]
 212:E:\NeuOrga\Programmieren\c_cpp\github_os\input\src\os_base\os_task_queue.c **** }
 1121              		.loc 1 212 0
 1122 06d8 1846     		mov	r0, r3
 1123 06da 0C37     		adds	r7, r7, #12
 1124              		.cfi_def_cfa_offset 4
 1125 06dc BD46     		mov	sp, r7
 1126              		.cfi_def_cfa_register 13
 1127              		@ sp needed
 1128 06de 80BC     		pop	{r7}
 1129              		.cfi_restore 7
 1130              		.cfi_def_cfa_offset 0
 1131 06e0 7047     		bx	lr
 1132              		.cfi_endproc
 1133              	.LFE4:
 1135              		.align	1
 1136              		.global	GetFromSchedulingQueue
 1137              		.syntax unified
 1138              		.thumb
 1139              		.thumb_func
 1140              		.fpu softvfp
 1142              	GetFromSchedulingQueue:
 1143              	.LFB5:
 213:E:\NeuOrga\Programmieren\c_cpp\github_os\input\src\os_base\os_task_queue.c **** scheduling_t* GetFromSchedulingQueue(unsigned_char_t element_nr)
 214:E:\NeuOrga\Programmieren\c_cpp\github_os\input\src\os_base\os_task_queue.c **** {
 1144              		.loc 1 214 0
 1145              		.cfi_startproc
 1146              		@ args = 0, pretend = 0, frame = 8
 1147              		@ frame_needed = 1, uses_anonymous_args = 0
 1148              		@ link register save eliminated.
 1149 06e2 80B4     		push	{r7}
 1150              		.cfi_def_cfa_offset 4
 1151              		.cfi_offset 7, -4
 1152 06e4 83B0     		sub	sp, sp, #12
 1153              		.cfi_def_cfa_offset 16
 1154 06e6 00AF     		add	r7, sp, #0
 1155              		.cfi_def_cfa_register 7
 1156 06e8 0346     		mov	r3, r0
 1157 06ea FB71     		strb	r3, [r7, #7]
 215:E:\NeuOrga\Programmieren\c_cpp\github_os\input\src\os_base\os_task_queue.c ****    return ((scheduling_t*)&TASK_SCHEDULING_QUEUE[element_nr]);
 1158              		.loc 1 215 0
 1159 06ec FB79     		ldrb	r3, [r7, #7]	@ zero_extendqisi2
 1160 06ee 9B00     		lsls	r3, r3, #2
 1161 06f0 034A     		ldr	r2, .L31
ARM GAS  C:\Users\PRESID~1\AppData\Local\Temp\cciwdv84.s 			page 25


 1162 06f2 1344     		add	r3, r3, r2
 216:E:\NeuOrga\Programmieren\c_cpp\github_os\input\src\os_base\os_task_queue.c **** }
 1163              		.loc 1 216 0
 1164 06f4 1846     		mov	r0, r3
 1165 06f6 0C37     		adds	r7, r7, #12
 1166              		.cfi_def_cfa_offset 4
 1167 06f8 BD46     		mov	sp, r7
 1168              		.cfi_def_cfa_register 13
 1169              		@ sp needed
 1170 06fa 80BC     		pop	{r7}
 1171              		.cfi_restore 7
 1172              		.cfi_def_cfa_offset 0
 1173 06fc 7047     		bx	lr
 1174              	.L32:
 1175 06fe 00BF     		.align	2
 1176              	.L31:
 1177 0700 00000000 		.word	TASK_SCHEDULING_QUEUE
 1178              		.cfi_endproc
 1179              	.LFE5:
 1181              		.align	1
 1182              		.global	DeleteFromSchedulingQueue
 1183              		.syntax unified
 1184              		.thumb
 1185              		.thumb_func
 1186              		.fpu softvfp
 1188              	DeleteFromSchedulingQueue:
 1189              	.LFB6:
 217:E:\NeuOrga\Programmieren\c_cpp\github_os\input\src\os_base\os_task_queue.c **** /* Pointer Queue Handling*/
 218:E:\NeuOrga\Programmieren\c_cpp\github_os\input\src\os_base\os_task_queue.c **** void DeleteFromSchedulingQueue(scheduling_t* scheduling_queue_element)
 219:E:\NeuOrga\Programmieren\c_cpp\github_os\input\src\os_base\os_task_queue.c **** {
 1190              		.loc 1 219 0
 1191              		.cfi_startproc
 1192              		@ args = 0, pretend = 0, frame = 8
 1193              		@ frame_needed = 1, uses_anonymous_args = 0
 1194              		@ link register save eliminated.
 1195 0704 80B4     		push	{r7}
 1196              		.cfi_def_cfa_offset 4
 1197              		.cfi_offset 7, -4
 1198 0706 83B0     		sub	sp, sp, #12
 1199              		.cfi_def_cfa_offset 16
 1200 0708 00AF     		add	r7, sp, #0
 1201              		.cfi_def_cfa_register 7
 1202 070a 7860     		str	r0, [r7, #4]
 220:E:\NeuOrga\Programmieren\c_cpp\github_os\input\src\os_base\os_task_queue.c ****    *scheduling_queue_element = 0;
 1203              		.loc 1 220 0
 1204 070c 7B68     		ldr	r3, [r7, #4]
 1205 070e 0022     		movs	r2, #0
 1206 0710 1A60     		str	r2, [r3]
 221:E:\NeuOrga\Programmieren\c_cpp\github_os\input\src\os_base\os_task_queue.c **** }
 1207              		.loc 1 221 0
 1208 0712 00BF     		nop
 1209 0714 0C37     		adds	r7, r7, #12
 1210              		.cfi_def_cfa_offset 4
 1211 0716 BD46     		mov	sp, r7
 1212              		.cfi_def_cfa_register 13
 1213              		@ sp needed
 1214 0718 80BC     		pop	{r7}
ARM GAS  C:\Users\PRESID~1\AppData\Local\Temp\cciwdv84.s 			page 26


 1215              		.cfi_restore 7
 1216              		.cfi_def_cfa_offset 0
 1217 071a 7047     		bx	lr
 1218              		.cfi_endproc
 1219              	.LFE6:
 1221              		.align	1
 1222              		.global	AddToSchedulingQueue
 1223              		.syntax unified
 1224              		.thumb
 1225              		.thumb_func
 1226              		.fpu softvfp
 1228              	AddToSchedulingQueue:
 1229              	.LFB7:
 222:E:\NeuOrga\Programmieren\c_cpp\github_os\input\src\os_base\os_task_queue.c **** void AddToSchedulingQueue(task_t* task)
 223:E:\NeuOrga\Programmieren\c_cpp\github_os\input\src\os_base\os_task_queue.c **** {
 1230              		.loc 1 223 0
 1231              		.cfi_startproc
 1232              		@ args = 0, pretend = 0, frame = 16
 1233              		@ frame_needed = 1, uses_anonymous_args = 0
 1234              		@ link register save eliminated.
 1235 071c 80B4     		push	{r7}
 1236              		.cfi_def_cfa_offset 4
 1237              		.cfi_offset 7, -4
 1238 071e 85B0     		sub	sp, sp, #20
 1239              		.cfi_def_cfa_offset 24
 1240 0720 00AF     		add	r7, sp, #0
 1241              		.cfi_def_cfa_register 7
 1242 0722 7860     		str	r0, [r7, #4]
 224:E:\NeuOrga\Programmieren\c_cpp\github_os\input\src\os_base\os_task_queue.c ****    /*
 225:E:\NeuOrga\Programmieren\c_cpp\github_os\input\src\os_base\os_task_queue.c ****    Description:
 226:E:\NeuOrga\Programmieren\c_cpp\github_os\input\src\os_base\os_task_queue.c ****    add "task" into next free slot of TASK_SCHEDULING_QUEUE
 227:E:\NeuOrga\Programmieren\c_cpp\github_os\input\src\os_base\os_task_queue.c **** 
 228:E:\NeuOrga\Programmieren\c_cpp\github_os\input\src\os_base\os_task_queue.c ****    in:     task_t* task (task to be added)
 229:E:\NeuOrga\Programmieren\c_cpp\github_os\input\src\os_base\os_task_queue.c ****    out:
 230:E:\NeuOrga\Programmieren\c_cpp\github_os\input\src\os_base\os_task_queue.c ****    */
 231:E:\NeuOrga\Programmieren\c_cpp\github_os\input\src\os_base\os_task_queue.c ****    unsigned_char_t Add_successful = False;
 1243              		.loc 1 231 0
 1244 0724 0023     		movs	r3, #0
 1245 0726 FB73     		strb	r3, [r7, #15]
 232:E:\NeuOrga\Programmieren\c_cpp\github_os\input\src\os_base\os_task_queue.c ****    unsigned_char_t index = 0;
 1246              		.loc 1 232 0
 1247 0728 0023     		movs	r3, #0
 1248 072a BB73     		strb	r3, [r7, #14]
 233:E:\NeuOrga\Programmieren\c_cpp\github_os\input\src\os_base\os_task_queue.c **** 
 234:E:\NeuOrga\Programmieren\c_cpp\github_os\input\src\os_base\os_task_queue.c ****    while(  (index < MAX_RUN_QUEUE_SIZE)
 1249              		.loc 1 234 0
 1250 072c 0FE0     		b	.L35
 1251              	.L38:
 235:E:\NeuOrga\Programmieren\c_cpp\github_os\input\src\os_base\os_task_queue.c ****            &&(Add_successful == False))
 236:E:\NeuOrga\Programmieren\c_cpp\github_os\input\src\os_base\os_task_queue.c ****    {
 237:E:\NeuOrga\Programmieren\c_cpp\github_os\input\src\os_base\os_task_queue.c ****       if(TASK_SCHEDULING_QUEUE[index] == 0)
 1252              		.loc 1 237 0
 1253 072e BB7B     		ldrb	r3, [r7, #14]	@ zero_extendqisi2
 1254 0730 0D4A     		ldr	r2, .L41
 1255 0732 52F82330 		ldr	r3, [r2, r3, lsl #2]
 1256 0736 002B     		cmp	r3, #0
 1257 0738 06D1     		bne	.L36
ARM GAS  C:\Users\PRESID~1\AppData\Local\Temp\cciwdv84.s 			page 27


 238:E:\NeuOrga\Programmieren\c_cpp\github_os\input\src\os_base\os_task_queue.c ****       {
 239:E:\NeuOrga\Programmieren\c_cpp\github_os\input\src\os_base\os_task_queue.c ****          TASK_SCHEDULING_QUEUE[index] = task;
 1258              		.loc 1 239 0
 1259 073a BB7B     		ldrb	r3, [r7, #14]	@ zero_extendqisi2
 1260 073c 0A49     		ldr	r1, .L41
 1261 073e 7A68     		ldr	r2, [r7, #4]
 1262 0740 41F82320 		str	r2, [r1, r3, lsl #2]
 240:E:\NeuOrga\Programmieren\c_cpp\github_os\input\src\os_base\os_task_queue.c ****          Add_successful         = True;
 1263              		.loc 1 240 0
 1264 0744 0123     		movs	r3, #1
 1265 0746 FB73     		strb	r3, [r7, #15]
 1266              	.L36:
 241:E:\NeuOrga\Programmieren\c_cpp\github_os\input\src\os_base\os_task_queue.c ****       }
 242:E:\NeuOrga\Programmieren\c_cpp\github_os\input\src\os_base\os_task_queue.c ****       index++;
 1267              		.loc 1 242 0
 1268 0748 BB7B     		ldrb	r3, [r7, #14]	@ zero_extendqisi2
 1269 074a 0133     		adds	r3, r3, #1
 1270 074c BB73     		strb	r3, [r7, #14]
 1271              	.L35:
 234:E:\NeuOrga\Programmieren\c_cpp\github_os\input\src\os_base\os_task_queue.c ****            &&(Add_successful == False))
 1272              		.loc 1 234 0
 1273 074e BB7B     		ldrb	r3, [r7, #14]	@ zero_extendqisi2
 1274 0750 092B     		cmp	r3, #9
 1275 0752 03D8     		bhi	.L40
 235:E:\NeuOrga\Programmieren\c_cpp\github_os\input\src\os_base\os_task_queue.c ****    {
 1276              		.loc 1 235 0
 1277 0754 FB7B     		ldrb	r3, [r7, #15]	@ zero_extendqisi2
 1278 0756 002B     		cmp	r3, #0
 1279 0758 E9D0     		beq	.L38
 243:E:\NeuOrga\Programmieren\c_cpp\github_os\input\src\os_base\os_task_queue.c ****    }
 244:E:\NeuOrga\Programmieren\c_cpp\github_os\input\src\os_base\os_task_queue.c ****    return;
 1280              		.loc 1 244 0
 1281 075a 00BF     		nop
 1282              	.L40:
 1283 075c 00BF     		nop
 245:E:\NeuOrga\Programmieren\c_cpp\github_os\input\src\os_base\os_task_queue.c **** }
 1284              		.loc 1 245 0
 1285 075e 1437     		adds	r7, r7, #20
 1286              		.cfi_def_cfa_offset 4
 1287 0760 BD46     		mov	sp, r7
 1288              		.cfi_def_cfa_register 13
 1289              		@ sp needed
 1290 0762 80BC     		pop	{r7}
 1291              		.cfi_restore 7
 1292              		.cfi_def_cfa_offset 0
 1293 0764 7047     		bx	lr
 1294              	.L42:
 1295 0766 00BF     		.align	2
 1296              	.L41:
 1297 0768 00000000 		.word	TASK_SCHEDULING_QUEUE
 1298              		.cfi_endproc
 1299              	.LFE7:
 1301              		.align	1
 1302              		.global	UpdateSchedulingQueue
 1303              		.syntax unified
 1304              		.thumb
 1305              		.thumb_func
ARM GAS  C:\Users\PRESID~1\AppData\Local\Temp\cciwdv84.s 			page 28


 1306              		.fpu softvfp
 1308              	UpdateSchedulingQueue:
 1309              	.LFB8:
 246:E:\NeuOrga\Programmieren\c_cpp\github_os\input\src\os_base\os_task_queue.c **** void UpdateSchedulingQueue(void)
 247:E:\NeuOrga\Programmieren\c_cpp\github_os\input\src\os_base\os_task_queue.c **** {
 1310              		.loc 1 247 0
 1311              		.cfi_startproc
 1312              		@ args = 0, pretend = 0, frame = 8
 1313              		@ frame_needed = 1, uses_anonymous_args = 0
 1314              		@ link register save eliminated.
 1315 076c 80B4     		push	{r7}
 1316              		.cfi_def_cfa_offset 4
 1317              		.cfi_offset 7, -4
 1318 076e 83B0     		sub	sp, sp, #12
 1319              		.cfi_def_cfa_offset 16
 1320 0770 00AF     		add	r7, sp, #0
 1321              		.cfi_def_cfa_register 7
 248:E:\NeuOrga\Programmieren\c_cpp\github_os\input\src\os_base\os_task_queue.c ****    /* eliminate emptry link list entries (should be colleted at the high numbers) */
 249:E:\NeuOrga\Programmieren\c_cpp\github_os\input\src\os_base\os_task_queue.c ****    unsigned_char_t dest = 0, src = 0;
 1322              		.loc 1 249 0
 1323 0772 0023     		movs	r3, #0
 1324 0774 FB71     		strb	r3, [r7, #7]
 1325 0776 0023     		movs	r3, #0
 1326 0778 BB71     		strb	r3, [r7, #6]
 250:E:\NeuOrga\Programmieren\c_cpp\github_os\input\src\os_base\os_task_queue.c **** 
 251:E:\NeuOrga\Programmieren\c_cpp\github_os\input\src\os_base\os_task_queue.c ****    while (dest < MAX_RUN_PQUEUE_SIZE)
 1327              		.loc 1 251 0
 1328 077a 2DE0     		b	.L44
 1329              	.L49:
 252:E:\NeuOrga\Programmieren\c_cpp\github_os\input\src\os_base\os_task_queue.c ****    {
 253:E:\NeuOrga\Programmieren\c_cpp\github_os\input\src\os_base\os_task_queue.c ****       if(TASK_SCHEDULING_QUEUE[dest] == 0)
 1330              		.loc 1 253 0
 1331 077c FB79     		ldrb	r3, [r7, #7]	@ zero_extendqisi2
 1332 077e 1A4A     		ldr	r2, .L50
 1333 0780 52F82330 		ldr	r3, [r2, r3, lsl #2]
 1334 0784 002B     		cmp	r3, #0
 1335 0786 24D1     		bne	.L45
 254:E:\NeuOrga\Programmieren\c_cpp\github_os\input\src\os_base\os_task_queue.c ****       {
 255:E:\NeuOrga\Programmieren\c_cpp\github_os\input\src\os_base\os_task_queue.c ****          /* found empty entry ->shift following elements left in array */
 256:E:\NeuOrga\Programmieren\c_cpp\github_os\input\src\os_base\os_task_queue.c **** 
 257:E:\NeuOrga\Programmieren\c_cpp\github_os\input\src\os_base\os_task_queue.c ****          src = dest; /* start from empty entry point */
 1336              		.loc 1 257 0
 1337 0788 FB79     		ldrb	r3, [r7, #7]
 1338 078a BB71     		strb	r3, [r7, #6]
 258:E:\NeuOrga\Programmieren\c_cpp\github_os\input\src\os_base\os_task_queue.c ****          while((src < MAX_RUN_PQUEUE_SIZE)&&(TASK_SCHEDULING_QUEUE[src]==0))
 1339              		.loc 1 258 0
 1340 078c 02E0     		b	.L46
 1341              	.L48:
 259:E:\NeuOrga\Programmieren\c_cpp\github_os\input\src\os_base\os_task_queue.c ****          {
 260:E:\NeuOrga\Programmieren\c_cpp\github_os\input\src\os_base\os_task_queue.c ****             src++;
 1342              		.loc 1 260 0
 1343 078e BB79     		ldrb	r3, [r7, #6]	@ zero_extendqisi2
 1344 0790 0133     		adds	r3, r3, #1
 1345 0792 BB71     		strb	r3, [r7, #6]
 1346              	.L46:
 258:E:\NeuOrga\Programmieren\c_cpp\github_os\input\src\os_base\os_task_queue.c ****          while((src < MAX_RUN_PQUEUE_SIZE)&&(TASK_SCHEDULING_QUEUE[src]==0))
 1347              		.loc 1 258 0
ARM GAS  C:\Users\PRESID~1\AppData\Local\Temp\cciwdv84.s 			page 29


 1348 0794 BB79     		ldrb	r3, [r7, #6]	@ zero_extendqisi2
 1349 0796 092B     		cmp	r3, #9
 1350 0798 05D8     		bhi	.L47
 258:E:\NeuOrga\Programmieren\c_cpp\github_os\input\src\os_base\os_task_queue.c ****          while((src < MAX_RUN_PQUEUE_SIZE)&&(TASK_SCHEDULING_QUEUE[src]==0))
 1351              		.loc 1 258 0 is_stmt 0 discriminator 1
 1352 079a BB79     		ldrb	r3, [r7, #6]	@ zero_extendqisi2
 1353 079c 124A     		ldr	r2, .L50
 1354 079e 52F82330 		ldr	r3, [r2, r3, lsl #2]
 1355 07a2 002B     		cmp	r3, #0
 1356 07a4 F3D0     		beq	.L48
 1357              	.L47:
 261:E:\NeuOrga\Programmieren\c_cpp\github_os\input\src\os_base\os_task_queue.c ****          }
 262:E:\NeuOrga\Programmieren\c_cpp\github_os\input\src\os_base\os_task_queue.c ****          if((src < MAX_RUN_PQUEUE_SIZE)&&(TASK_SCHEDULING_QUEUE[src]!=0))
 1358              		.loc 1 262 0 is_stmt 1
 1359 07a6 BB79     		ldrb	r3, [r7, #6]	@ zero_extendqisi2
 1360 07a8 092B     		cmp	r3, #9
 1361 07aa 12D8     		bhi	.L45
 1362              		.loc 1 262 0 is_stmt 0 discriminator 1
 1363 07ac BB79     		ldrb	r3, [r7, #6]	@ zero_extendqisi2
 1364 07ae 0E4A     		ldr	r2, .L50
 1365 07b0 52F82330 		ldr	r3, [r2, r3, lsl #2]
 1366 07b4 002B     		cmp	r3, #0
 1367 07b6 0CD0     		beq	.L45
 263:E:\NeuOrga\Programmieren\c_cpp\github_os\input\src\os_base\os_task_queue.c ****          {
 264:E:\NeuOrga\Programmieren\c_cpp\github_os\input\src\os_base\os_task_queue.c ****             TASK_SCHEDULING_QUEUE[dest] = TASK_SCHEDULING_QUEUE[src];
 1368              		.loc 1 264 0 is_stmt 1
 1369 07b8 BA79     		ldrb	r2, [r7, #6]	@ zero_extendqisi2
 1370 07ba FB79     		ldrb	r3, [r7, #7]	@ zero_extendqisi2
 1371 07bc 0A49     		ldr	r1, .L50
 1372 07be 51F82220 		ldr	r2, [r1, r2, lsl #2]
 1373 07c2 0949     		ldr	r1, .L50
 1374 07c4 41F82320 		str	r2, [r1, r3, lsl #2]
 265:E:\NeuOrga\Programmieren\c_cpp\github_os\input\src\os_base\os_task_queue.c ****             TASK_SCHEDULING_QUEUE[src]  = 0;
 1375              		.loc 1 265 0
 1376 07c8 BB79     		ldrb	r3, [r7, #6]	@ zero_extendqisi2
 1377 07ca 074A     		ldr	r2, .L50
 1378 07cc 0021     		movs	r1, #0
 1379 07ce 42F82310 		str	r1, [r2, r3, lsl #2]
 1380              	.L45:
 266:E:\NeuOrga\Programmieren\c_cpp\github_os\input\src\os_base\os_task_queue.c ****          }
 267:E:\NeuOrga\Programmieren\c_cpp\github_os\input\src\os_base\os_task_queue.c ****       }
 268:E:\NeuOrga\Programmieren\c_cpp\github_os\input\src\os_base\os_task_queue.c ****       dest++;
 1381              		.loc 1 268 0
 1382 07d2 FB79     		ldrb	r3, [r7, #7]	@ zero_extendqisi2
 1383 07d4 0133     		adds	r3, r3, #1
 1384 07d6 FB71     		strb	r3, [r7, #7]
 1385              	.L44:
 251:E:\NeuOrga\Programmieren\c_cpp\github_os\input\src\os_base\os_task_queue.c ****    {
 1386              		.loc 1 251 0
 1387 07d8 FB79     		ldrb	r3, [r7, #7]	@ zero_extendqisi2
 1388 07da 092B     		cmp	r3, #9
 1389 07dc CED9     		bls	.L49
 269:E:\NeuOrga\Programmieren\c_cpp\github_os\input\src\os_base\os_task_queue.c ****    }
 270:E:\NeuOrga\Programmieren\c_cpp\github_os\input\src\os_base\os_task_queue.c **** }
 1390              		.loc 1 270 0
 1391 07de 00BF     		nop
 1392 07e0 0C37     		adds	r7, r7, #12
ARM GAS  C:\Users\PRESID~1\AppData\Local\Temp\cciwdv84.s 			page 30


 1393              		.cfi_def_cfa_offset 4
 1394 07e2 BD46     		mov	sp, r7
 1395              		.cfi_def_cfa_register 13
 1396              		@ sp needed
 1397 07e4 80BC     		pop	{r7}
 1398              		.cfi_restore 7
 1399              		.cfi_def_cfa_offset 0
 1400 07e6 7047     		bx	lr
 1401              	.L51:
 1402              		.align	2
 1403              	.L50:
 1404 07e8 00000000 		.word	TASK_SCHEDULING_QUEUE
 1405              		.cfi_endproc
 1406              	.LFE8:
 1408              		.align	1
 1409              		.global	GetIdleTask
 1410              		.syntax unified
 1411              		.thumb
 1412              		.thumb_func
 1413              		.fpu softvfp
 1415              	GetIdleTask:
 1416              	.LFB9:
 271:E:\NeuOrga\Programmieren\c_cpp\github_os\input\src\os_base\os_task_queue.c **** 
 272:E:\NeuOrga\Programmieren\c_cpp\github_os\input\src\os_base\os_task_queue.c **** /* Idle task queue handling */
 273:E:\NeuOrga\Programmieren\c_cpp\github_os\input\src\os_base\os_task_queue.c **** task_t* GetIdleTask(void)
 274:E:\NeuOrga\Programmieren\c_cpp\github_os\input\src\os_base\os_task_queue.c **** {
 1417              		.loc 1 274 0
 1418              		.cfi_startproc
 1419              		@ args = 0, pretend = 0, frame = 0
 1420              		@ frame_needed = 1, uses_anonymous_args = 0
 1421              		@ link register save eliminated.
 1422 07ec 80B4     		push	{r7}
 1423              		.cfi_def_cfa_offset 4
 1424              		.cfi_offset 7, -4
 1425 07ee 00AF     		add	r7, sp, #0
 1426              		.cfi_def_cfa_register 7
 275:E:\NeuOrga\Programmieren\c_cpp\github_os\input\src\os_base\os_task_queue.c ****    return (&TASK_IDLE_QUEUE[0]);
 1427              		.loc 1 275 0
 1428 07f0 024B     		ldr	r3, .L54
 276:E:\NeuOrga\Programmieren\c_cpp\github_os\input\src\os_base\os_task_queue.c **** }
 1429              		.loc 1 276 0
 1430 07f2 1846     		mov	r0, r3
 1431 07f4 BD46     		mov	sp, r7
 1432              		.cfi_def_cfa_register 13
 1433              		@ sp needed
 1434 07f6 80BC     		pop	{r7}
 1435              		.cfi_restore 7
 1436              		.cfi_def_cfa_offset 0
 1437 07f8 7047     		bx	lr
 1438              	.L55:
 1439 07fa 00BF     		.align	2
 1440              	.L54:
 1441 07fc 00000000 		.word	TASK_IDLE_QUEUE
 1442              		.cfi_endproc
 1443              	.LFE9:
 1445              		.align	1
 1446              		.global	AddToIdleTaskQueue
ARM GAS  C:\Users\PRESID~1\AppData\Local\Temp\cciwdv84.s 			page 31


 1447              		.syntax unified
 1448              		.thumb
 1449              		.thumb_func
 1450              		.fpu softvfp
 1452              	AddToIdleTaskQueue:
 1453              	.LFB10:
 277:E:\NeuOrga\Programmieren\c_cpp\github_os\input\src\os_base\os_task_queue.c **** void AddToIdleTaskQueue(task_t* task)
 278:E:\NeuOrga\Programmieren\c_cpp\github_os\input\src\os_base\os_task_queue.c **** {
 1454              		.loc 1 278 0
 1455              		.cfi_startproc
 1456              		@ args = 0, pretend = 0, frame = 8
 1457              		@ frame_needed = 1, uses_anonymous_args = 0
 1458              		@ link register save eliminated.
 1459 0800 80B4     		push	{r7}
 1460              		.cfi_def_cfa_offset 4
 1461              		.cfi_offset 7, -4
 1462 0802 83B0     		sub	sp, sp, #12
 1463              		.cfi_def_cfa_offset 16
 1464 0804 00AF     		add	r7, sp, #0
 1465              		.cfi_def_cfa_register 7
 1466 0806 7860     		str	r0, [r7, #4]
 279:E:\NeuOrga\Programmieren\c_cpp\github_os\input\src\os_base\os_task_queue.c ****    /* only 1 element for TASK_IDLE_QUEUE allowed */
 280:E:\NeuOrga\Programmieren\c_cpp\github_os\input\src\os_base\os_task_queue.c ****    if((&TASK_IDLE_QUEUE[0])->IdleTask == False)
 1467              		.loc 1 280 0
 1468 0808 5C4B     		ldr	r3, .L59
 1469 080a 1B78     		ldrb	r3, [r3]	@ zero_extendqisi2
 1470 080c 03F00403 		and	r3, r3, #4
 1471 0810 DBB2     		uxtb	r3, r3
 1472 0812 002B     		cmp	r3, #0
 1473 0814 40F0AD80 		bne	.L58
 281:E:\NeuOrga\Programmieren\c_cpp\github_os\input\src\os_base\os_task_queue.c ****    {
 282:E:\NeuOrga\Programmieren\c_cpp\github_os\input\src\os_base\os_task_queue.c ****       (&TASK_IDLE_QUEUE[0])->active                                =   task->active           ;
 1474              		.loc 1 282 0
 1475 0818 7B68     		ldr	r3, [r7, #4]
 1476 081a 1B78     		ldrb	r3, [r3]
 1477 081c C3F30003 		ubfx	r3, r3, #0, #1
 1478 0820 D9B2     		uxtb	r1, r3
 1479 0822 564A     		ldr	r2, .L59
 1480 0824 1378     		ldrb	r3, [r2]
 1481 0826 61F30003 		bfi	r3, r1, #0, #1
 1482 082a 1370     		strb	r3, [r2]
 283:E:\NeuOrga\Programmieren\c_cpp\github_os\input\src\os_base\os_task_queue.c ****       (&TASK_IDLE_QUEUE[0])->task_queued                           =   task->task_queued      ;
 1483              		.loc 1 283 0
 1484 082c 7B68     		ldr	r3, [r7, #4]
 1485 082e 1B78     		ldrb	r3, [r3]
 1486 0830 C3F34003 		ubfx	r3, r3, #1, #1
 1487 0834 D9B2     		uxtb	r1, r3
 1488 0836 514A     		ldr	r2, .L59
 1489 0838 1378     		ldrb	r3, [r2]
 1490 083a 61F34103 		bfi	r3, r1, #1, #1
 1491 083e 1370     		strb	r3, [r2]
 284:E:\NeuOrga\Programmieren\c_cpp\github_os\input\src\os_base\os_task_queue.c ****       (&TASK_IDLE_QUEUE[0])->IdleTask                              =   task->IdleTask         ;
 1492              		.loc 1 284 0
 1493 0840 7B68     		ldr	r3, [r7, #4]
 1494 0842 1B78     		ldrb	r3, [r3]
 1495 0844 C3F38003 		ubfx	r3, r3, #2, #1
 1496 0848 D9B2     		uxtb	r1, r3
ARM GAS  C:\Users\PRESID~1\AppData\Local\Temp\cciwdv84.s 			page 32


 1497 084a 4C4A     		ldr	r2, .L59
 1498 084c 1378     		ldrb	r3, [r2]
 1499 084e 61F38203 		bfi	r3, r1, #2, #1
 1500 0852 1370     		strb	r3, [r2]
 285:E:\NeuOrga\Programmieren\c_cpp\github_os\input\src\os_base\os_task_queue.c ****       (&TASK_IDLE_QUEUE[0])->FREE                                  =   task->FREE             ;
 1501              		.loc 1 285 0
 1502 0854 7B68     		ldr	r3, [r7, #4]
 1503 0856 1B68     		ldr	r3, [r3]
 1504 0858 C3F3DC01 		ubfx	r1, r3, #3, #29
 1505 085c 474A     		ldr	r2, .L59
 1506 085e 1368     		ldr	r3, [r2]
 1507 0860 61F3DF03 		bfi	r3, r1, #3, #29
 1508 0864 1360     		str	r3, [r2]
 286:E:\NeuOrga\Programmieren\c_cpp\github_os\input\src\os_base\os_task_queue.c ****       (&TASK_IDLE_QUEUE[0])->NrOfInsAllowed                        =   task->NrOfInsAllowed   ;
 1509              		.loc 1 286 0
 1510 0866 7B68     		ldr	r3, [r7, #4]
 1511 0868 1A79     		ldrb	r2, [r3, #4]	@ zero_extendqisi2
 1512 086a 444B     		ldr	r3, .L59
 1513 086c 1A71     		strb	r2, [r3, #4]
 287:E:\NeuOrga\Programmieren\c_cpp\github_os\input\src\os_base\os_task_queue.c ****       (&TASK_IDLE_QUEUE[0])->NrOfInsActivated                      =   task->NrOfInsActivated ;
 1514              		.loc 1 287 0
 1515 086e 7B68     		ldr	r3, [r7, #4]
 1516 0870 5A79     		ldrb	r2, [r3, #5]	@ zero_extendqisi2
 1517 0872 424B     		ldr	r3, .L59
 1518 0874 5A71     		strb	r2, [r3, #5]
 288:E:\NeuOrga\Programmieren\c_cpp\github_os\input\src\os_base\os_task_queue.c ****       (&TASK_IDLE_QUEUE[0])->WaitActUntil                          =   task->WaitActUntil     ;
 1519              		.loc 1 288 0
 1520 0876 7B68     		ldr	r3, [r7, #4]
 1521 0878 9B68     		ldr	r3, [r3, #8]
 1522 087a 404A     		ldr	r2, .L59
 1523 087c 9360     		str	r3, [r2, #8]
 289:E:\NeuOrga\Programmieren\c_cpp\github_os\input\src\os_base\os_task_queue.c ****       (&TASK_IDLE_QUEUE[0])->wait_time                             =   task->wait_time        ;
 1524              		.loc 1 289 0
 1525 087e 7B68     		ldr	r3, [r7, #4]
 1526 0880 DB68     		ldr	r3, [r3, #12]
 1527 0882 3E4A     		ldr	r2, .L59
 1528 0884 D360     		str	r3, [r2, #12]
 290:E:\NeuOrga\Programmieren\c_cpp\github_os\input\src\os_base\os_task_queue.c ****       (&TASK_IDLE_QUEUE[0])->TimeToPrioInc                         =   task->TimeToPrioInc    ;
 1529              		.loc 1 290 0
 1530 0886 7B68     		ldr	r3, [r7, #4]
 1531 0888 1B69     		ldr	r3, [r3, #16]
 1532 088a 3C4A     		ldr	r2, .L59
 1533 088c 1361     		str	r3, [r2, #16]
 291:E:\NeuOrga\Programmieren\c_cpp\github_os\input\src\os_base\os_task_queue.c ****       (&TASK_IDLE_QUEUE[0])->overwaittime_per_prio_inc_step        =   task->overwaittime_per_prio_
 1534              		.loc 1 291 0
 1535 088e 7B68     		ldr	r3, [r7, #4]
 1536 0890 5B69     		ldr	r3, [r3, #20]
 1537 0892 3A4A     		ldr	r2, .L59
 1538 0894 5361     		str	r3, [r2, #20]
 292:E:\NeuOrga\Programmieren\c_cpp\github_os\input\src\os_base\os_task_queue.c ****       (&TASK_IDLE_QUEUE[0])->max_allowed_wait_time                 =   task->max_allowed_wait_time;
 1539              		.loc 1 292 0
 1540 0896 7B68     		ldr	r3, [r7, #4]
 1541 0898 9B69     		ldr	r3, [r3, #24]
 1542 089a 384A     		ldr	r2, .L59
 1543 089c 9361     		str	r3, [r2, #24]
 293:E:\NeuOrga\Programmieren\c_cpp\github_os\input\src\os_base\os_task_queue.c ****       (&TASK_IDLE_QUEUE[0])->exe_time                              =   task->exe_time;
 1544              		.loc 1 293 0
ARM GAS  C:\Users\PRESID~1\AppData\Local\Temp\cciwdv84.s 			page 33


 1545 089e 7B68     		ldr	r3, [r7, #4]
 1546 08a0 DB69     		ldr	r3, [r3, #28]
 1547 08a2 364A     		ldr	r2, .L59
 1548 08a4 D361     		str	r3, [r2, #28]
 294:E:\NeuOrga\Programmieren\c_cpp\github_os\input\src\os_base\os_task_queue.c ****       (&TASK_IDLE_QUEUE[0])->current_prio                          =   task->current_prio     ;
 1549              		.loc 1 294 0
 1550 08a6 7B68     		ldr	r3, [r7, #4]
 1551 08a8 93F82420 		ldrb	r2, [r3, #36]	@ zero_extendqisi2
 1552 08ac 334B     		ldr	r3, .L59
 1553 08ae 83F82420 		strb	r2, [r3, #36]
 295:E:\NeuOrga\Programmieren\c_cpp\github_os\input\src\os_base\os_task_queue.c ****       (&TASK_IDLE_QUEUE[0])->default_prio                          =   task->default_prio     ;
 1554              		.loc 1 295 0
 1555 08b2 7B68     		ldr	r3, [r7, #4]
 1556 08b4 93F82520 		ldrb	r2, [r3, #37]	@ zero_extendqisi2
 1557 08b8 304B     		ldr	r3, .L59
 1558 08ba 83F82520 		strb	r2, [r3, #37]
 296:E:\NeuOrga\Programmieren\c_cpp\github_os\input\src\os_base\os_task_queue.c ****       (&TASK_IDLE_QUEUE[0])->fp                                    =   task->fp               ;
 1559              		.loc 1 296 0
 1560 08be 7B68     		ldr	r3, [r7, #4]
 1561 08c0 DB6A     		ldr	r3, [r3, #44]
 1562 08c2 2E4A     		ldr	r2, .L59
 1563 08c4 D362     		str	r3, [r2, #44]
 297:E:\NeuOrga\Programmieren\c_cpp\github_os\input\src\os_base\os_task_queue.c ****       (&TASK_IDLE_QUEUE[0])->state_request                         =   task->state_request    ;
 1564              		.loc 1 297 0
 1565 08c6 7B68     		ldr	r3, [r7, #4]
 1566 08c8 1B6B     		ldr	r3, [r3, #48]
 1567 08ca 2C4A     		ldr	r2, .L59
 1568 08cc 1363     		str	r3, [r2, #48]
 298:E:\NeuOrga\Programmieren\c_cpp\github_os\input\src\os_base\os_task_queue.c ****       (&TASK_IDLE_QUEUE[0])->task_state                            =   Task_ready             ;
 1569              		.loc 1 298 0
 1570 08ce 2B4B     		ldr	r3, .L59
 1571 08d0 0222     		movs	r2, #2
 1572 08d2 83F83420 		strb	r2, [r3, #52]
 299:E:\NeuOrga\Programmieren\c_cpp\github_os\input\src\os_base\os_task_queue.c ****       (&TASK_IDLE_QUEUE[0])->task_group                            =   task->task_group       ;
 1573              		.loc 1 299 0
 1574 08d6 7B68     		ldr	r3, [r7, #4]
 1575 08d8 9B6B     		ldr	r3, [r3, #56]
 1576 08da 284A     		ldr	r2, .L59
 1577 08dc 9363     		str	r3, [r2, #56]
 300:E:\NeuOrga\Programmieren\c_cpp\github_os\input\src\os_base\os_task_queue.c ****       #if(CFG_PROCESSOR == cMCU_X86)
 301:E:\NeuOrga\Programmieren\c_cpp\github_os\input\src\os_base\os_task_queue.c ****       (&TASK_IDLE_QUEUE[0])->EAX                                   =   task->EAX              ;
 302:E:\NeuOrga\Programmieren\c_cpp\github_os\input\src\os_base\os_task_queue.c ****       (&TASK_IDLE_QUEUE[0])->EBX                                   =   task->EBX              ;
 303:E:\NeuOrga\Programmieren\c_cpp\github_os\input\src\os_base\os_task_queue.c ****       (&TASK_IDLE_QUEUE[0])->ECX                                   =   task->ECX              ;
 304:E:\NeuOrga\Programmieren\c_cpp\github_os\input\src\os_base\os_task_queue.c ****       (&TASK_IDLE_QUEUE[0])->EDX                                   =   task->EDX              ;
 305:E:\NeuOrga\Programmieren\c_cpp\github_os\input\src\os_base\os_task_queue.c ****       #elif(CFG_PROCESSOR == cMCU_CORTEX_M4)
 306:E:\NeuOrga\Programmieren\c_cpp\github_os\input\src\os_base\os_task_queue.c ****       (&TASK_IDLE_QUEUE[0])->r0                                   =   task->r0              ;
 1578              		.loc 1 306 0
 1579 08de 7B68     		ldr	r3, [r7, #4]
 1580 08e0 DB6B     		ldr	r3, [r3, #60]
 1581 08e2 264A     		ldr	r2, .L59
 1582 08e4 D363     		str	r3, [r2, #60]
 307:E:\NeuOrga\Programmieren\c_cpp\github_os\input\src\os_base\os_task_queue.c ****       (&TASK_IDLE_QUEUE[0])->r1                                   =   task->r1              ;
 1583              		.loc 1 307 0
 1584 08e6 7B68     		ldr	r3, [r7, #4]
 1585 08e8 1B6C     		ldr	r3, [r3, #64]
 1586 08ea 244A     		ldr	r2, .L59
 1587 08ec 1364     		str	r3, [r2, #64]
ARM GAS  C:\Users\PRESID~1\AppData\Local\Temp\cciwdv84.s 			page 34


 308:E:\NeuOrga\Programmieren\c_cpp\github_os\input\src\os_base\os_task_queue.c ****       (&TASK_IDLE_QUEUE[0])->r2                                   =   task->r2              ;
 1588              		.loc 1 308 0
 1589 08ee 7B68     		ldr	r3, [r7, #4]
 1590 08f0 5B6C     		ldr	r3, [r3, #68]
 1591 08f2 224A     		ldr	r2, .L59
 1592 08f4 5364     		str	r3, [r2, #68]
 309:E:\NeuOrga\Programmieren\c_cpp\github_os\input\src\os_base\os_task_queue.c ****       (&TASK_IDLE_QUEUE[0])->r3                                   =   task->r3              ;
 1593              		.loc 1 309 0
 1594 08f6 7B68     		ldr	r3, [r7, #4]
 1595 08f8 9B6C     		ldr	r3, [r3, #72]
 1596 08fa 204A     		ldr	r2, .L59
 1597 08fc 9364     		str	r3, [r2, #72]
 310:E:\NeuOrga\Programmieren\c_cpp\github_os\input\src\os_base\os_task_queue.c ****       (&TASK_IDLE_QUEUE[0])->r4                                   =   task->r4              ;
 1598              		.loc 1 310 0
 1599 08fe 7B68     		ldr	r3, [r7, #4]
 1600 0900 DB6C     		ldr	r3, [r3, #76]
 1601 0902 1E4A     		ldr	r2, .L59
 1602 0904 D364     		str	r3, [r2, #76]
 311:E:\NeuOrga\Programmieren\c_cpp\github_os\input\src\os_base\os_task_queue.c ****       (&TASK_IDLE_QUEUE[0])->r5                                   =   task->r5              ;
 1603              		.loc 1 311 0
 1604 0906 7B68     		ldr	r3, [r7, #4]
 1605 0908 1B6D     		ldr	r3, [r3, #80]
 1606 090a 1C4A     		ldr	r2, .L59
 1607 090c 1365     		str	r3, [r2, #80]
 312:E:\NeuOrga\Programmieren\c_cpp\github_os\input\src\os_base\os_task_queue.c ****       (&TASK_IDLE_QUEUE[0])->r6                                   =   task->r6              ;
 1608              		.loc 1 312 0
 1609 090e 7B68     		ldr	r3, [r7, #4]
 1610 0910 5B6D     		ldr	r3, [r3, #84]
 1611 0912 1A4A     		ldr	r2, .L59
 1612 0914 5365     		str	r3, [r2, #84]
 313:E:\NeuOrga\Programmieren\c_cpp\github_os\input\src\os_base\os_task_queue.c ****       (&TASK_IDLE_QUEUE[0])->r7                                   =   task->r7              ;
 1613              		.loc 1 313 0
 1614 0916 7B68     		ldr	r3, [r7, #4]
 1615 0918 9B6D     		ldr	r3, [r3, #88]
 1616 091a 184A     		ldr	r2, .L59
 1617 091c 9365     		str	r3, [r2, #88]
 314:E:\NeuOrga\Programmieren\c_cpp\github_os\input\src\os_base\os_task_queue.c ****       (&TASK_IDLE_QUEUE[0])->r8                                   =   task->r8              ;
 1618              		.loc 1 314 0
 1619 091e 7B68     		ldr	r3, [r7, #4]
 1620 0920 DB6D     		ldr	r3, [r3, #92]
 1621 0922 164A     		ldr	r2, .L59
 1622 0924 D365     		str	r3, [r2, #92]
 315:E:\NeuOrga\Programmieren\c_cpp\github_os\input\src\os_base\os_task_queue.c ****       (&TASK_IDLE_QUEUE[0])->r9                                   =   task->r9              ;
 1623              		.loc 1 315 0
 1624 0926 7B68     		ldr	r3, [r7, #4]
 1625 0928 1B6E     		ldr	r3, [r3, #96]
 1626 092a 144A     		ldr	r2, .L59
 1627 092c 1366     		str	r3, [r2, #96]
 316:E:\NeuOrga\Programmieren\c_cpp\github_os\input\src\os_base\os_task_queue.c ****       (&TASK_IDLE_QUEUE[0])->r10                                  =   task->r10             ;
 1628              		.loc 1 316 0
 1629 092e 7B68     		ldr	r3, [r7, #4]
 1630 0930 5B6E     		ldr	r3, [r3, #100]
 1631 0932 124A     		ldr	r2, .L59
 1632 0934 5366     		str	r3, [r2, #100]
 317:E:\NeuOrga\Programmieren\c_cpp\github_os\input\src\os_base\os_task_queue.c ****       (&TASK_IDLE_QUEUE[0])->r11                                  =   task->r11             ;
 1633              		.loc 1 317 0
 1634 0936 7B68     		ldr	r3, [r7, #4]
ARM GAS  C:\Users\PRESID~1\AppData\Local\Temp\cciwdv84.s 			page 35


 1635 0938 9B6E     		ldr	r3, [r3, #104]
 1636 093a 104A     		ldr	r2, .L59
 1637 093c 9366     		str	r3, [r2, #104]
 318:E:\NeuOrga\Programmieren\c_cpp\github_os\input\src\os_base\os_task_queue.c ****       (&TASK_IDLE_QUEUE[0])->r12                                  =   task->r12             ;
 1638              		.loc 1 318 0
 1639 093e 7B68     		ldr	r3, [r7, #4]
 1640 0940 DB6E     		ldr	r3, [r3, #108]
 1641 0942 0E4A     		ldr	r2, .L59
 1642 0944 D366     		str	r3, [r2, #108]
 319:E:\NeuOrga\Programmieren\c_cpp\github_os\input\src\os_base\os_task_queue.c ****       #else
 320:E:\NeuOrga\Programmieren\c_cpp\github_os\input\src\os_base\os_task_queue.c ****       #error "os_task_queue.c"
 321:E:\NeuOrga\Programmieren\c_cpp\github_os\input\src\os_base\os_task_queue.c ****       #endif
 322:E:\NeuOrga\Programmieren\c_cpp\github_os\input\src\os_base\os_task_queue.c ****       (&TASK_IDLE_QUEUE[0])->pStackPointer                         =   task->pStackPointer    ;
 1643              		.loc 1 322 0
 1644 0946 7B68     		ldr	r3, [r7, #4]
 1645 0948 1B6F     		ldr	r3, [r3, #112]
 1646 094a 0C4A     		ldr	r2, .L59
 1647 094c 1367     		str	r3, [r2, #112]
 323:E:\NeuOrga\Programmieren\c_cpp\github_os\input\src\os_base\os_task_queue.c ****       (&TASK_IDLE_QUEUE[0])->pStackPointerByMalloc                 =   task->pStackPointerByMalloc;
 1648              		.loc 1 323 0
 1649 094e 7B68     		ldr	r3, [r7, #4]
 1650 0950 5B6F     		ldr	r3, [r3, #116]
 1651 0952 0A4A     		ldr	r2, .L59
 1652 0954 5367     		str	r3, [r2, #116]
 324:E:\NeuOrga\Programmieren\c_cpp\github_os\input\src\os_base\os_task_queue.c ****       (&TASK_IDLE_QUEUE[0])->pStackPointerStart                    =   task->pStackPointerStart;
 1653              		.loc 1 324 0
 1654 0956 7B68     		ldr	r3, [r7, #4]
 1655 0958 9B6F     		ldr	r3, [r3, #120]
 1656 095a 084A     		ldr	r2, .L59
 1657 095c 9367     		str	r3, [r2, #120]
 325:E:\NeuOrga\Programmieren\c_cpp\github_os\input\src\os_base\os_task_queue.c ****       (&TASK_IDLE_QUEUE[0])->StackSize                             =   task->StackSize        ;
 1658              		.loc 1 325 0
 1659 095e 7B68     		ldr	r3, [r7, #4]
 1660 0960 DB6F     		ldr	r3, [r3, #124]
 1661 0962 064A     		ldr	r2, .L59
 1662 0964 D367     		str	r3, [r2, #124]
 326:E:\NeuOrga\Programmieren\c_cpp\github_os\input\src\os_base\os_task_queue.c ****       (&TASK_IDLE_QUEUE[0])->pStackPointerEnd                      =   task->pStackPointerEnd ;
 1663              		.loc 1 326 0
 1664 0966 7B68     		ldr	r3, [r7, #4]
 1665 0968 D3F88030 		ldr	r3, [r3, #128]
 1666 096c 034A     		ldr	r2, .L59
 1667 096e C2F88030 		str	r3, [r2, #128]
 1668              	.L58:
 327:E:\NeuOrga\Programmieren\c_cpp\github_os\input\src\os_base\os_task_queue.c ****    }
 328:E:\NeuOrga\Programmieren\c_cpp\github_os\input\src\os_base\os_task_queue.c **** }
 1669              		.loc 1 328 0
 1670 0972 00BF     		nop
 1671 0974 0C37     		adds	r7, r7, #12
 1672              		.cfi_def_cfa_offset 4
 1673 0976 BD46     		mov	sp, r7
 1674              		.cfi_def_cfa_register 13
 1675              		@ sp needed
 1676 0978 80BC     		pop	{r7}
 1677              		.cfi_restore 7
 1678              		.cfi_def_cfa_offset 0
 1679 097a 7047     		bx	lr
 1680              	.L60:
ARM GAS  C:\Users\PRESID~1\AppData\Local\Temp\cciwdv84.s 			page 36


 1681              		.align	2
 1682              	.L59:
 1683 097c 00000000 		.word	TASK_IDLE_QUEUE
 1684              		.cfi_endproc
 1685              	.LFE10:
 1687              		.align	1
 1688              		.global	GetRunningTask
 1689              		.syntax unified
 1690              		.thumb
 1691              		.thumb_func
 1692              		.fpu softvfp
 1694              	GetRunningTask:
 1695              	.LFB11:
 329:E:\NeuOrga\Programmieren\c_cpp\github_os\input\src\os_base\os_task_queue.c **** task_t* GetRunningTask(void)
 330:E:\NeuOrga\Programmieren\c_cpp\github_os\input\src\os_base\os_task_queue.c **** {
 1696              		.loc 1 330 0
 1697              		.cfi_startproc
 1698              		@ args = 0, pretend = 0, frame = 0
 1699              		@ frame_needed = 1, uses_anonymous_args = 0
 1700              		@ link register save eliminated.
 1701 0980 80B4     		push	{r7}
 1702              		.cfi_def_cfa_offset 4
 1703              		.cfi_offset 7, -4
 1704 0982 00AF     		add	r7, sp, #0
 1705              		.cfi_def_cfa_register 7
 331:E:\NeuOrga\Programmieren\c_cpp\github_os\input\src\os_base\os_task_queue.c ****    return (&RUNNING_TASK[0]);
 1706              		.loc 1 331 0
 1707 0984 024B     		ldr	r3, .L63
 332:E:\NeuOrga\Programmieren\c_cpp\github_os\input\src\os_base\os_task_queue.c **** }
 1708              		.loc 1 332 0
 1709 0986 1846     		mov	r0, r3
 1710 0988 BD46     		mov	sp, r7
 1711              		.cfi_def_cfa_register 13
 1712              		@ sp needed
 1713 098a 80BC     		pop	{r7}
 1714              		.cfi_restore 7
 1715              		.cfi_def_cfa_offset 0
 1716 098c 7047     		bx	lr
 1717              	.L64:
 1718 098e 00BF     		.align	2
 1719              	.L63:
 1720 0990 00000000 		.word	RUNNING_TASK
 1721              		.cfi_endproc
 1722              	.LFE11:
 1724              		.align	1
 1725              		.global	GetRunningSchedulingQueueElementPtr
 1726              		.syntax unified
 1727              		.thumb
 1728              		.thumb_func
 1729              		.fpu softvfp
 1731              	GetRunningSchedulingQueueElementPtr:
 1732              	.LFB12:
 333:E:\NeuOrga\Programmieren\c_cpp\github_os\input\src\os_base\os_task_queue.c **** scheduling_t* GetRunningSchedulingQueueElementPtr(void)
 334:E:\NeuOrga\Programmieren\c_cpp\github_os\input\src\os_base\os_task_queue.c **** {
 1733              		.loc 1 334 0
 1734              		.cfi_startproc
 1735              		@ args = 0, pretend = 0, frame = 0
ARM GAS  C:\Users\PRESID~1\AppData\Local\Temp\cciwdv84.s 			page 37


 1736              		@ frame_needed = 1, uses_anonymous_args = 0
 1737              		@ link register save eliminated.
 1738 0994 80B4     		push	{r7}
 1739              		.cfi_def_cfa_offset 4
 1740              		.cfi_offset 7, -4
 1741 0996 00AF     		add	r7, sp, #0
 1742              		.cfi_def_cfa_register 7
 335:E:\NeuOrga\Programmieren\c_cpp\github_os\input\src\os_base\os_task_queue.c ****     return RUNNING_SCHEDULING_QUEUE_ENTRY;
 1743              		.loc 1 335 0
 1744 0998 024B     		ldr	r3, .L67
 1745 099a 1B68     		ldr	r3, [r3]
 336:E:\NeuOrga\Programmieren\c_cpp\github_os\input\src\os_base\os_task_queue.c **** }
 1746              		.loc 1 336 0
 1747 099c 1846     		mov	r0, r3
 1748 099e BD46     		mov	sp, r7
 1749              		.cfi_def_cfa_register 13
 1750              		@ sp needed
 1751 09a0 80BC     		pop	{r7}
 1752              		.cfi_restore 7
 1753              		.cfi_def_cfa_offset 0
 1754 09a2 7047     		bx	lr
 1755              	.L68:
 1756              		.align	2
 1757              	.L67:
 1758 09a4 00000000 		.word	RUNNING_SCHEDULING_QUEUE_ENTRY
 1759              		.cfi_endproc
 1760              	.LFE12:
 1762              		.align	1
 1763              		.global	OS_InitTask
 1764              		.syntax unified
 1765              		.thumb
 1766              		.thumb_func
 1767              		.fpu softvfp
 1769              	OS_InitTask:
 1770              	.LFB13:
 337:E:\NeuOrga\Programmieren\c_cpp\github_os\input\src\os_base\os_task_queue.c **** void OS_InitTask(
 338:E:\NeuOrga\Programmieren\c_cpp\github_os\input\src\os_base\os_task_queue.c ****    task_t*          task,
 339:E:\NeuOrga\Programmieren\c_cpp\github_os\input\src\os_base\os_task_queue.c ****    func_p_t         TaskFunction,
 340:E:\NeuOrga\Programmieren\c_cpp\github_os\input\src\os_base\os_task_queue.c ****    unsigned_char_t  AllowedInstances,
 341:E:\NeuOrga\Programmieren\c_cpp\github_os\input\src\os_base\os_task_queue.c ****    unsigned_char_t  IdleTask,
 342:E:\NeuOrga\Programmieren\c_cpp\github_os\input\src\os_base\os_task_queue.c ****    task_group_t*    p_task_group,
 343:E:\NeuOrga\Programmieren\c_cpp\github_os\input\src\os_base\os_task_queue.c ****    unsigned_char_t* pStackAddr,
 344:E:\NeuOrga\Programmieren\c_cpp\github_os\input\src\os_base\os_task_queue.c ****    unsigned_int32_t uStackSize,
 345:E:\NeuOrga\Programmieren\c_cpp\github_os\input\src\os_base\os_task_queue.c ****    privilige_mode_t privilige_mode,
 346:E:\NeuOrga\Programmieren\c_cpp\github_os\input\src\os_base\os_task_queue.c ****    CoreID_t         core,
 347:E:\NeuOrga\Programmieren\c_cpp\github_os\input\src\os_base\os_task_queue.c ****    unsigned_char_t  default_prio
 348:E:\NeuOrga\Programmieren\c_cpp\github_os\input\src\os_base\os_task_queue.c **** )
 349:E:\NeuOrga\Programmieren\c_cpp\github_os\input\src\os_base\os_task_queue.c **** {
 1771              		.loc 1 349 0
 1772              		.cfi_startproc
 1773              		@ args = 24, pretend = 0, frame = 16
 1774              		@ frame_needed = 1, uses_anonymous_args = 0
 1775 09a8 80B5     		push	{r7, lr}
 1776              		.cfi_def_cfa_offset 8
 1777              		.cfi_offset 7, -8
 1778              		.cfi_offset 14, -4
 1779 09aa 84B0     		sub	sp, sp, #16
ARM GAS  C:\Users\PRESID~1\AppData\Local\Temp\cciwdv84.s 			page 38


 1780              		.cfi_def_cfa_offset 24
 1781 09ac 00AF     		add	r7, sp, #0
 1782              		.cfi_def_cfa_register 7
 1783 09ae F860     		str	r0, [r7, #12]
 1784 09b0 B960     		str	r1, [r7, #8]
 1785 09b2 1146     		mov	r1, r2
 1786 09b4 1A46     		mov	r2, r3
 1787 09b6 0B46     		mov	r3, r1
 1788 09b8 FB71     		strb	r3, [r7, #7]
 1789 09ba 1346     		mov	r3, r2
 1790 09bc BB71     		strb	r3, [r7, #6]
 350:E:\NeuOrga\Programmieren\c_cpp\github_os\input\src\os_base\os_task_queue.c ****    ReferenceUnusedParameter(core);
 351:E:\NeuOrga\Programmieren\c_cpp\github_os\input\src\os_base\os_task_queue.c ****    if(task!=0)
 1791              		.loc 1 351 0
 1792 09be FB68     		ldr	r3, [r7, #12]
 1793 09c0 002B     		cmp	r3, #0
 1794 09c2 53D0     		beq	.L70
 352:E:\NeuOrga\Programmieren\c_cpp\github_os\input\src\os_base\os_task_queue.c ****    {
 353:E:\NeuOrga\Programmieren\c_cpp\github_os\input\src\os_base\os_task_queue.c ****       task->active           = False;
 1795              		.loc 1 353 0
 1796 09c4 FA68     		ldr	r2, [r7, #12]
 1797 09c6 1378     		ldrb	r3, [r2]
 1798 09c8 6FF30003 		bfc	r3, #0, #1
 1799 09cc 1370     		strb	r3, [r2]
 354:E:\NeuOrga\Programmieren\c_cpp\github_os\input\src\os_base\os_task_queue.c ****       task->fp               = TaskFunction;
 1800              		.loc 1 354 0
 1801 09ce FB68     		ldr	r3, [r7, #12]
 1802 09d0 BA68     		ldr	r2, [r7, #8]
 1803 09d2 DA62     		str	r2, [r3, #44]
 355:E:\NeuOrga\Programmieren\c_cpp\github_os\input\src\os_base\os_task_queue.c ****       task->NrOfInsAllowed   = AllowedInstances;
 1804              		.loc 1 355 0
 1805 09d4 FB68     		ldr	r3, [r7, #12]
 1806 09d6 FA79     		ldrb	r2, [r7, #7]
 1807 09d8 1A71     		strb	r2, [r3, #4]
 356:E:\NeuOrga\Programmieren\c_cpp\github_os\input\src\os_base\os_task_queue.c ****       task->task_group       = p_task_group;
 1808              		.loc 1 356 0
 1809 09da FB68     		ldr	r3, [r7, #12]
 1810 09dc BA69     		ldr	r2, [r7, #24]
 1811 09de 9A63     		str	r2, [r3, #56]
 357:E:\NeuOrga\Programmieren\c_cpp\github_os\input\src\os_base\os_task_queue.c ****       task->NrOfInsActivated = 0;
 1812              		.loc 1 357 0
 1813 09e0 FB68     		ldr	r3, [r7, #12]
 1814 09e2 0022     		movs	r2, #0
 1815 09e4 5A71     		strb	r2, [r3, #5]
 358:E:\NeuOrga\Programmieren\c_cpp\github_os\input\src\os_base\os_task_queue.c ****       task->WaitActUntil     = 0;
 1816              		.loc 1 358 0
 1817 09e6 FB68     		ldr	r3, [r7, #12]
 1818 09e8 0022     		movs	r2, #0
 1819 09ea 9A60     		str	r2, [r3, #8]
 359:E:\NeuOrga\Programmieren\c_cpp\github_os\input\src\os_base\os_task_queue.c ****       task->privilige_mode   = privilige_mode;
 1820              		.loc 1 359 0
 1821 09ec FB68     		ldr	r3, [r7, #12]
 1822 09ee 97F82420 		ldrb	r2, [r7, #36]
 1823 09f2 83F88420 		strb	r2, [r3, #132]
 360:E:\NeuOrga\Programmieren\c_cpp\github_os\input\src\os_base\os_task_queue.c ****       task->default_prio     = default_prio;
 1824              		.loc 1 360 0
 1825 09f6 FB68     		ldr	r3, [r7, #12]
ARM GAS  C:\Users\PRESID~1\AppData\Local\Temp\cciwdv84.s 			page 39


 1826 09f8 97F82C20 		ldrb	r2, [r7, #44]
 1827 09fc 83F82520 		strb	r2, [r3, #37]
 361:E:\NeuOrga\Programmieren\c_cpp\github_os\input\src\os_base\os_task_queue.c **** 
 362:E:\NeuOrga\Programmieren\c_cpp\github_os\input\src\os_base\os_task_queue.c ****       task->overwaittime_per_prio_inc_step = 1;
 1828              		.loc 1 362 0
 1829 0a00 FB68     		ldr	r3, [r7, #12]
 1830 0a02 0122     		movs	r2, #1
 1831 0a04 5A61     		str	r2, [r3, #20]
 363:E:\NeuOrga\Programmieren\c_cpp\github_os\input\src\os_base\os_task_queue.c ****       task->max_allowed_wait_time          = 100000;
 1832              		.loc 1 363 0
 1833 0a06 FB68     		ldr	r3, [r7, #12]
 1834 0a08 1C4A     		ldr	r2, .L74
 1835 0a0a 9A61     		str	r2, [r3, #24]
 364:E:\NeuOrga\Programmieren\c_cpp\github_os\input\src\os_base\os_task_queue.c **** 
 365:E:\NeuOrga\Programmieren\c_cpp\github_os\input\src\os_base\os_task_queue.c ****       task->IdleTask      = IdleTask;
 1836              		.loc 1 365 0
 1837 0a0c BB79     		ldrb	r3, [r7, #6]
 1838 0a0e 03F00103 		and	r3, r3, #1
 1839 0a12 D9B2     		uxtb	r1, r3
 1840 0a14 FA68     		ldr	r2, [r7, #12]
 1841 0a16 1378     		ldrb	r3, [r2]
 1842 0a18 61F38203 		bfi	r3, r1, #2, #1
 1843 0a1c 1370     		strb	r3, [r2]
 366:E:\NeuOrga\Programmieren\c_cpp\github_os\input\src\os_base\os_task_queue.c ****       task->state_request = &task_state_request;
 1844              		.loc 1 366 0
 1845 0a1e FB68     		ldr	r3, [r7, #12]
 1846 0a20 174A     		ldr	r2, .L74+4
 1847 0a22 1A63     		str	r2, [r3, #48]
 367:E:\NeuOrga\Programmieren\c_cpp\github_os\input\src\os_base\os_task_queue.c ****       task_state_request(task, Task_unspecified);
 1848              		.loc 1 367 0
 1849 0a24 0021     		movs	r1, #0
 1850 0a26 F868     		ldr	r0, [r7, #12]
 1851 0a28 FFF7FEFF 		bl	task_state_request
 368:E:\NeuOrga\Programmieren\c_cpp\github_os\input\src\os_base\os_task_queue.c ****       OS_CreateTask(task);
 1852              		.loc 1 368 0
 1853 0a2c F868     		ldr	r0, [r7, #12]
 1854 0a2e FFF7FEFF 		bl	OS_CreateTask
 369:E:\NeuOrga\Programmieren\c_cpp\github_os\input\src\os_base\os_task_queue.c ****       if(uStackSize > TASK_STACK_SIZE)
 1855              		.loc 1 369 0
 1856 0a32 3B6A     		ldr	r3, [r7, #32]
 1857 0a34 B3F5FA6F 		cmp	r3, #2000
 1858 0a38 02D9     		bls	.L71
 370:E:\NeuOrga\Programmieren\c_cpp\github_os\input\src\os_base\os_task_queue.c ****       {
 371:E:\NeuOrga\Programmieren\c_cpp\github_os\input\src\os_base\os_task_queue.c ****          uStackSize = TASK_STACK_SIZE;
 1859              		.loc 1 371 0
 1860 0a3a 4FF4FA63 		mov	r3, #2000
 1861 0a3e 3B62     		str	r3, [r7, #32]
 1862              	.L71:
 372:E:\NeuOrga\Programmieren\c_cpp\github_os\input\src\os_base\os_task_queue.c ****       }
 373:E:\NeuOrga\Programmieren\c_cpp\github_os\input\src\os_base\os_task_queue.c **** 
 374:E:\NeuOrga\Programmieren\c_cpp\github_os\input\src\os_base\os_task_queue.c ****       /* just create stack */
 375:E:\NeuOrga\Programmieren\c_cpp\github_os\input\src\os_base\os_task_queue.c ****       task->pStackPointerByMalloc = pStackAddr;
 1863              		.loc 1 375 0
 1864 0a40 FB68     		ldr	r3, [r7, #12]
 1865 0a42 FA69     		ldr	r2, [r7, #28]
 1866 0a44 5A67     		str	r2, [r3, #116]
 376:E:\NeuOrga\Programmieren\c_cpp\github_os\input\src\os_base\os_task_queue.c ****       task->pStackPointerStart    = pStackAddr;/*low addresse */
ARM GAS  C:\Users\PRESID~1\AppData\Local\Temp\cciwdv84.s 			page 40


 1867              		.loc 1 376 0
 1868 0a46 FB68     		ldr	r3, [r7, #12]
 1869 0a48 FA69     		ldr	r2, [r7, #28]
 1870 0a4a 9A67     		str	r2, [r3, #120]
 377:E:\NeuOrga\Programmieren\c_cpp\github_os\input\src\os_base\os_task_queue.c ****       task->pStackPointerEnd      = (unsigned_char_t*)pStackAddr + uStackSize - 1;/* end addresse *
 1871              		.loc 1 377 0
 1872 0a4c 3B6A     		ldr	r3, [r7, #32]
 1873 0a4e 013B     		subs	r3, r3, #1
 1874 0a50 FA69     		ldr	r2, [r7, #28]
 1875 0a52 1A44     		add	r2, r2, r3
 1876 0a54 FB68     		ldr	r3, [r7, #12]
 1877 0a56 C3F88020 		str	r2, [r3, #128]
 378:E:\NeuOrga\Programmieren\c_cpp\github_os\input\src\os_base\os_task_queue.c ****       task->StackSize             = uStackSize;
 1878              		.loc 1 378 0
 1879 0a5a FB68     		ldr	r3, [r7, #12]
 1880 0a5c 3A6A     		ldr	r2, [r7, #32]
 1881 0a5e DA67     		str	r2, [r3, #124]
 379:E:\NeuOrga\Programmieren\c_cpp\github_os\input\src\os_base\os_task_queue.c ****       /* stack register */
 380:E:\NeuOrga\Programmieren\c_cpp\github_os\input\src\os_base\os_task_queue.c ****       task->pStackPointer                    = task->pStackPointerEnd;/* stack wchst von groen zu
 1882              		.loc 1 380 0
 1883 0a60 FB68     		ldr	r3, [r7, #12]
 1884 0a62 D3F88020 		ldr	r2, [r3, #128]
 1885 0a66 FB68     		ldr	r3, [r7, #12]
 1886 0a68 1A67     		str	r2, [r3, #112]
 381:E:\NeuOrga\Programmieren\c_cpp\github_os\input\src\os_base\os_task_queue.c ****    }
 382:E:\NeuOrga\Programmieren\c_cpp\github_os\input\src\os_base\os_task_queue.c ****    else
 383:E:\NeuOrga\Programmieren\c_cpp\github_os\input\src\os_base\os_task_queue.c ****    {
 384:E:\NeuOrga\Programmieren\c_cpp\github_os\input\src\os_base\os_task_queue.c ****       OS_SetSwBug(os_bug_null_pointer, Func_InitTask);
 385:E:\NeuOrga\Programmieren\c_cpp\github_os\input\src\os_base\os_task_queue.c ****    }
 386:E:\NeuOrga\Programmieren\c_cpp\github_os\input\src\os_base\os_task_queue.c **** }
 1887              		.loc 1 386 0
 1888 0a6a 03E0     		b	.L73
 1889              	.L70:
 384:E:\NeuOrga\Programmieren\c_cpp\github_os\input\src\os_base\os_task_queue.c ****    }
 1890              		.loc 1 384 0
 1891 0a6c 0A21     		movs	r1, #10
 1892 0a6e 0220     		movs	r0, #2
 1893 0a70 FFF7FEFF 		bl	OS_SetSwBug
 1894              	.L73:
 1895              		.loc 1 386 0
 1896 0a74 00BF     		nop
 1897 0a76 1037     		adds	r7, r7, #16
 1898              		.cfi_def_cfa_offset 8
 1899 0a78 BD46     		mov	sp, r7
 1900              		.cfi_def_cfa_register 13
 1901              		@ sp needed
 1902 0a7a 80BD     		pop	{r7, pc}
 1903              	.L75:
 1904              		.align	2
 1905              	.L74:
 1906 0a7c A0860100 		.word	100000
 1907 0a80 00000000 		.word	task_state_request
 1908              		.cfi_endproc
 1909              	.LFE13:
 1911              	.Letext0:
 1912              		.file 2 "e:\\neuorga\\programmieren\\c_cpp\\github_os\\input\\src\\os_base\\os_base_types.h"
 1913              		.file 3 "e:\\neuorga\\programmieren\\c_cpp\\github_os\\input\\src\\os_base\\os_common.h"
ARM GAS  C:\Users\PRESID~1\AppData\Local\Temp\cciwdv84.s 			page 41


 1914              		.file 4 "e:\\neuorga\\programmieren\\c_cpp\\github_os\\input\\src\\os_drivers\\lld_core.h"
 1915              		.file 5 "e:\\neuorga\\programmieren\\c_cpp\\github_os\\input\\src\\os_base\\os_task_common.h"
 1916              		.file 6 "e:\\neuorga\\programmieren\\c_cpp\\github_os\\input\\src\\os_base\\os_ram.h"
ARM GAS  C:\Users\PRESID~1\AppData\Local\Temp\cciwdv84.s 			page 42


DEFINED SYMBOLS
                            *ABS*:00000000 os_task_queue.c
C:\Users\PRESID~1\AppData\Local\Temp\cciwdv84.s:15     .text:00000000 $t
C:\Users\PRESID~1\AppData\Local\Temp\cciwdv84.s:22     .text:00000000 SET_RUNNING_TASK
C:\Users\PRESID~1\AppData\Local\Temp\cciwdv84.s:262    .text:00000188 $d
C:\Users\PRESID~1\AppData\Local\Temp\cciwdv84.s:267    .text:00000190 $t
C:\Users\PRESID~1\AppData\Local\Temp\cciwdv84.s:274    .text:00000190 OS_InitTaskQueue
C:\Users\PRESID~1\AppData\Local\Temp\cciwdv84.s:341    .text:000001dc $d
C:\Users\PRESID~1\AppData\Local\Temp\cciwdv84.s:347    .text:000001e8 $t
C:\Users\PRESID~1\AppData\Local\Temp\cciwdv84.s:354    .text:000001e8 AddToTaskQueue
C:\Users\PRESID~1\AppData\Local\Temp\cciwdv84.s:777    .text:000004e8 $d
C:\Users\PRESID~1\AppData\Local\Temp\cciwdv84.s:779    .text:000004ec $t
C:\Users\PRESID~1\AppData\Local\Temp\cciwdv84.s:900    .text:000005bc $d
C:\Users\PRESID~1\AppData\Local\Temp\cciwdv84.s:904    .text:000005c0 $t
C:\Users\PRESID~1\AppData\Local\Temp\cciwdv84.s:911    .text:000005c0 DeleteFromTaskQueue
C:\Users\PRESID~1\AppData\Local\Temp\cciwdv84.s:1092   .text:000006c8 $d
C:\Users\PRESID~1\AppData\Local\Temp\cciwdv84.s:1096   .text:000006cc $t
C:\Users\PRESID~1\AppData\Local\Temp\cciwdv84.s:1103   .text:000006cc GetFromTaskQueue
C:\Users\PRESID~1\AppData\Local\Temp\cciwdv84.s:1142   .text:000006e2 GetFromSchedulingQueue
C:\Users\PRESID~1\AppData\Local\Temp\cciwdv84.s:1177   .text:00000700 $d
C:\Users\PRESID~1\AppData\Local\Temp\cciwdv84.s:1181   .text:00000704 $t
C:\Users\PRESID~1\AppData\Local\Temp\cciwdv84.s:1188   .text:00000704 DeleteFromSchedulingQueue
C:\Users\PRESID~1\AppData\Local\Temp\cciwdv84.s:1228   .text:0000071c AddToSchedulingQueue
C:\Users\PRESID~1\AppData\Local\Temp\cciwdv84.s:1297   .text:00000768 $d
C:\Users\PRESID~1\AppData\Local\Temp\cciwdv84.s:1301   .text:0000076c $t
C:\Users\PRESID~1\AppData\Local\Temp\cciwdv84.s:1308   .text:0000076c UpdateSchedulingQueue
C:\Users\PRESID~1\AppData\Local\Temp\cciwdv84.s:1404   .text:000007e8 $d
C:\Users\PRESID~1\AppData\Local\Temp\cciwdv84.s:1408   .text:000007ec $t
C:\Users\PRESID~1\AppData\Local\Temp\cciwdv84.s:1415   .text:000007ec GetIdleTask
C:\Users\PRESID~1\AppData\Local\Temp\cciwdv84.s:1441   .text:000007fc $d
C:\Users\PRESID~1\AppData\Local\Temp\cciwdv84.s:1445   .text:00000800 $t
C:\Users\PRESID~1\AppData\Local\Temp\cciwdv84.s:1452   .text:00000800 AddToIdleTaskQueue
C:\Users\PRESID~1\AppData\Local\Temp\cciwdv84.s:1683   .text:0000097c $d
C:\Users\PRESID~1\AppData\Local\Temp\cciwdv84.s:1687   .text:00000980 $t
C:\Users\PRESID~1\AppData\Local\Temp\cciwdv84.s:1694   .text:00000980 GetRunningTask
C:\Users\PRESID~1\AppData\Local\Temp\cciwdv84.s:1720   .text:00000990 $d
C:\Users\PRESID~1\AppData\Local\Temp\cciwdv84.s:1724   .text:00000994 $t
C:\Users\PRESID~1\AppData\Local\Temp\cciwdv84.s:1731   .text:00000994 GetRunningSchedulingQueueElementPtr
C:\Users\PRESID~1\AppData\Local\Temp\cciwdv84.s:1758   .text:000009a4 $d
C:\Users\PRESID~1\AppData\Local\Temp\cciwdv84.s:1762   .text:000009a8 $t
C:\Users\PRESID~1\AppData\Local\Temp\cciwdv84.s:1769   .text:000009a8 OS_InitTask
C:\Users\PRESID~1\AppData\Local\Temp\cciwdv84.s:1906   .text:00000a7c $d
                           .group:00000000 wm4.0.aa75c0738974a382baf71fbad152c229
                           .group:00000000 wm4.os_base_types.h.2.f3c0267f175f5cbacca6b71710665a02
                           .group:00000000 wm4.os_common.h.2.c6c04bcf238b83a2cba2b703b96f6544
                           .group:00000000 wm4.os_task_config.h.2.a73335dbec9f276504b3b94e79d1d898
                           .group:00000000 wm4.os_task_common.h.95.eb4fc951d6d8ca08a3f35501d742a960
                           .group:00000000 wm4.os_stack.h.2.a33fb8b396f31bed4bacb411e67ef75c
                           .group:00000000 wm4.os_heap.h.2.89074aae455d2462b5952479e3530dd1
                           .group:00000000 wm4.os_main.h.2.1f66ae3841c27bd36097fa1d2e1fe6a7
                           .group:00000000 wm4.os_task_queue.h.2.9428c7964838a07bb4b1cac6c50ee9b2
                           .group:00000000 wm4.os_task_scheduler.h.2.125feba674fa85672711aed1ca8ea199

UNDEFINED SYMBOLS
RUNNING_SCHEDULING_QUEUE_ENTRY
RUNNING_TASK
OS_Task_InitTaskEnvironment
ARM GAS  C:\Users\PRESID~1\AppData\Local\Temp\cciwdv84.s 			page 43


bTASK_QUEUE_INITIALIZED
TASK_SCHEDULING_QUEUE
TASK_RUN_QUEUE
task_state_request
TASK_IDLE_QUEUE
OS_CreateTask
OS_SetSwBug
