	.file	"lld_global_test.c"
	.text
Ltext0:
	.def	_fprintf;	.scl	3;	.type	32;	.endef
_fprintf:
LFB0:
	.file 1 "d:/programm/mingw/include/stdio.h"
	.loc 1 242 0
	.cfi_startproc
	pushl	%ebp
	.cfi_def_cfa_offset 8
	.cfi_offset 5, -8
	movl	%esp, %ebp
	.cfi_def_cfa_register 5
	pushl	%ebx
	subl	$36, %esp
	.cfi_offset 3, -12
	.loc 1 244 0
	leal	16(%ebp), %eax
	movl	%eax, -12(%ebp)
	.loc 1 245 0
	movl	-12(%ebp), %eax
	movl	%eax, 8(%esp)
	movl	12(%ebp), %eax
	movl	%eax, 4(%esp)
	movl	8(%ebp), %eax
	movl	%eax, (%esp)
	call	___mingw_vfprintf
	movl	%eax, %ebx
	.loc 1 247 0
	movl	%ebx, %eax
	.loc 1 248 0
	addl	$36, %esp
	popl	%ebx
	.cfi_restore 3
	popl	%ebp
	.cfi_restore 5
	.cfi_def_cfa 4, 4
	ret
	.cfi_endproc
LFE0:
.lcomm ___sput,76,32
	.def	_count_vowels;	.scl	3;	.type	32;	.endef
_count_vowels:
LFB10:
	.file 2 "E:/NeuOrga/Programmieren/c_cpp/github_os/input/src/os_sim/lld_global_test.c"
	.loc 2 14 0
	.cfi_startproc
	pushl	%ebp
	.cfi_def_cfa_offset 8
	.cfi_offset 5, -8
	movl	%esp, %ebp
	.cfi_def_cfa_register 5
	subl	$16, %esp
	.loc 2 15 0
	movl	8(%ebp), %eax
	movl	%eax, -4(%ebp)
	.loc 2 16 0
	movl	$0, -8(%ebp)
	.loc 2 18 0
	jmp	L4
L7:
	.loc 2 20 0
	movl	-4(%ebp), %eax
	movb	(%eax), %al
	cmpb	$97, %al
	je	L5
	.loc 2 20 0 is_stmt 0 discriminator 1
	movl	-4(%ebp), %eax
	movb	(%eax), %al
	cmpb	$101, %al
	je	L5
	.loc 2 20 0 discriminator 2
	movl	-4(%ebp), %eax
	movb	(%eax), %al
	cmpb	$105, %al
	je	L5
	.loc 2 21 0 is_stmt 1 discriminator 3
	movl	-4(%ebp), %eax
	movb	(%eax), %al
	.loc 2 20 0 discriminator 3
	cmpb	$111, %al
	je	L5
	.loc 2 21 0
	movl	-4(%ebp), %eax
	movb	(%eax), %al
	cmpb	$117, %al
	jne	L6
L5:
	.loc 2 23 0
	incl	-8(%ebp)
L6:
	.loc 2 26 0
	incl	-4(%ebp)
L4:
	.loc 2 18 0
	movl	-4(%ebp), %eax
	movb	(%eax), %al
	testb	%al, %al
	jne	L7
	.loc 2 29 0
	movl	-8(%ebp), %eax
	.loc 2 30 0
	leave
	.cfi_restore 5
	.cfi_def_cfa 4, 4
	ret
	.cfi_endproc
LFE10:
	.section .rdata,"dr"
LC0:
	.ascii "sput_start_testing() omitted\12\0"
LC1:
	.ascii "sput_enter_suite() omitted\12\0"
LC2:
	.ascii "sput_run_test() omitted\12\0"
LC3:
	.ascii "book == 2v\0"
LC4:
	.ascii "count_vowels(\"book\") == 2\0"
LC5:
	.ascii "fail-unless\0"
LC6:
	.ascii "book\0"
	.align 4
LC7:
	.ascii "[%lu:%lu]  %s:#%lu  \"%s\"  FAIL\12!    Type:      %s\12!    Condition: %s\12!    Line:      %lu\12\0"
	.align 4
LC8:
	.ascii "[%lu:%lu]  %s:#%lu  \"%s\"  pass\12\0"
LC9:
	.ascii "hand == 1v\0"
LC10:
	.ascii "count_vowels(\"hand\") == 1\0"
LC11:
	.ascii "hand\0"
LC12:
	.ascii "test == 1v\0"
LC13:
	.ascii "count_vowels(\"test\") == 1\0"
LC14:
	.ascii "test\0"
LC15:
	.ascii "Peter == 2v\0"
LC16:
	.ascii "count_vowels(\"Peter\") == 2\0"
LC17:
	.ascii "Peter\0"
LC18:
	.ascii "Apu == 2v\0"
LC19:
	.ascii "count_vowels(\"Apu\") == 2\0"
LC20:
	.ascii "Apu\0"
	.text
	.def	_test_vowels_present;	.scl	3;	.type	32;	.endef
_test_vowels_present:
LFB11:
	.loc 2 34 0
	.cfi_startproc
	pushl	%ebp
	.cfi_def_cfa_offset 8
	.cfi_offset 5, -8
	movl	%esp, %ebp
	.cfi_def_cfa_register 5
	pushl	%edi
	pushl	%esi
	pushl	%ebx
	subl	$76, %esp
	.cfi_offset 7, -12
	.cfi_offset 6, -16
	.cfi_offset 3, -20
	.loc 2 35 0
	movb	___sput+4, %al
	cmpb	$6, %al
	je	L10
	.loc 2 35 0 is_stmt 0 discriminator 1
	movl	__imp___iob, %eax
	addl	$64, %eax
	movl	%eax, 12(%esp)
	movl	$29, 8(%esp)
	movl	$1, 4(%esp)
	movl	$LC0, (%esp)
	call	_fwrite
	movl	$1, (%esp)
	call	_exit
L10:
	.loc 2 35 0 discriminator 2
	movl	___sput+24, %eax
	testl	%eax, %eax
	jne	L11
	.loc 2 35 0 discriminator 3
	movl	___sput, %eax
	movl	%eax, 12(%esp)
	movl	$27, 8(%esp)
	movl	$1, 4(%esp)
	movl	$LC1, (%esp)
	call	_fwrite
	movl	$1, (%esp)
	call	_exit
L11:
	.loc 2 35 0 discriminator 4
	movl	___sput+44, %eax
	testl	%eax, %eax
	jne	L12
	.loc 2 35 0 discriminator 5
	movl	___sput, %eax
	movl	%eax, 12(%esp)
	movl	$24, 8(%esp)
	movl	$1, 4(%esp)
	movl	$LC2, (%esp)
	call	_fwrite
	movl	$1, (%esp)
	call	_exit
L12:
	.loc 2 35 0 discriminator 6
	movl	$LC3, ___sput+52
	movl	$35, ___sput+64
	movl	$LC4, ___sput+56
	movl	$LC5, ___sput+60
	movl	___sput+48, %eax
	incl	%eax
	movl	%eax, ___sput+48
	movl	___sput+32, %eax
	incl	%eax
	movl	%eax, ___sput+32
	movl	$LC6, (%esp)
	call	_count_vowels
	cmpl	$2, %eax
	je	L13
	.loc 2 35 0 discriminator 7
	movb	___sput+4, %al
	cmpb	$6, %al
	je	L14
	.loc 2 35 0 discriminator 9
	movl	__imp___iob, %eax
	addl	$64, %eax
	movl	%eax, 12(%esp)
	movl	$29, 8(%esp)
	movl	$1, 4(%esp)
	movl	$LC0, (%esp)
	call	_fwrite
	movl	$1, (%esp)
	call	_exit
L14:
	.loc 2 35 0 discriminator 10
	movl	___sput+24, %eax
	testl	%eax, %eax
	jne	L15
	.loc 2 35 0 discriminator 11
	movl	___sput, %eax
	movl	%eax, 12(%esp)
	movl	$27, 8(%esp)
	movl	$1, 4(%esp)
	movl	$LC1, (%esp)
	call	_fwrite
	movl	$1, (%esp)
	call	_exit
L15:
	.loc 2 35 0 discriminator 12
	movl	___sput+40, %eax
	incl	%eax
	movl	%eax, ___sput+40
	movl	___sput+64, %edx
	movl	___sput+56, %ebx
	movl	___sput+60, %eax
	movl	%eax, -28(%ebp)
	movl	___sput+52, %ecx
	movl	%ecx, -32(%ebp)
	movl	___sput+48, %esi
	movl	%esi, -36(%ebp)
	movl	___sput+44, %edi
	movl	___sput+32, %esi
	movl	___sput+28, %ecx
	movl	___sput, %eax
	movl	%edx, 36(%esp)
	movl	%ebx, 32(%esp)
	movl	-28(%ebp), %edx
	movl	%edx, 28(%esp)
	movl	-32(%ebp), %ebx
	movl	%ebx, 24(%esp)
	movl	-36(%ebp), %edx
	movl	%edx, 20(%esp)
	movl	%edi, 16(%esp)
	movl	%esi, 12(%esp)
	movl	%ecx, 8(%esp)
	movl	$LC7, 4(%esp)
	movl	%eax, (%esp)
	call	_fprintf
	jmp	L16
L13:
	.loc 2 35 0 discriminator 8
	movb	___sput+4, %al
	cmpb	$6, %al
	je	L17
	.loc 2 35 0 discriminator 13
	movl	__imp___iob, %eax
	addl	$64, %eax
	movl	%eax, 12(%esp)
	movl	$29, 8(%esp)
	movl	$1, 4(%esp)
	movl	$LC0, (%esp)
	call	_fwrite
	movl	$1, (%esp)
	call	_exit
L17:
	.loc 2 35 0 discriminator 14
	movl	___sput+24, %eax
	testl	%eax, %eax
	jne	L18
	.loc 2 35 0 discriminator 15
	movl	___sput, %eax
	movl	%eax, 12(%esp)
	movl	$27, 8(%esp)
	movl	$1, 4(%esp)
	movl	$LC1, (%esp)
	call	_fwrite
	movl	$1, (%esp)
	call	_exit
L18:
	.loc 2 35 0 discriminator 16
	movl	___sput+36, %eax
	incl	%eax
	movl	%eax, ___sput+36
	movl	___sput+52, %edi
	movl	___sput+48, %esi
	movl	___sput+44, %ebx
	movl	___sput+32, %ecx
	movl	___sput+28, %edx
	movl	___sput, %eax
	movl	%edi, 24(%esp)
	movl	%esi, 20(%esp)
	movl	%ebx, 16(%esp)
	movl	%ecx, 12(%esp)
	movl	%edx, 8(%esp)
	movl	$LC8, 4(%esp)
	movl	%eax, (%esp)
	call	_fprintf
L16:
	.loc 2 36 0 is_stmt 1
	movb	___sput+4, %al
	cmpb	$6, %al
	je	L19
	.loc 2 36 0 is_stmt 0 discriminator 1
	movl	__imp___iob, %eax
	addl	$64, %eax
	movl	%eax, 12(%esp)
	movl	$29, 8(%esp)
	movl	$1, 4(%esp)
	movl	$LC0, (%esp)
	call	_fwrite
	movl	$1, (%esp)
	call	_exit
L19:
	.loc 2 36 0 discriminator 2
	movl	___sput+24, %eax
	testl	%eax, %eax
	jne	L20
	.loc 2 36 0 discriminator 3
	movl	___sput, %eax
	movl	%eax, 12(%esp)
	movl	$27, 8(%esp)
	movl	$1, 4(%esp)
	movl	$LC1, (%esp)
	call	_fwrite
	movl	$1, (%esp)
	call	_exit
L20:
	.loc 2 36 0 discriminator 4
	movl	___sput+44, %eax
	testl	%eax, %eax
	jne	L21
	.loc 2 36 0 discriminator 5
	movl	___sput, %eax
	movl	%eax, 12(%esp)
	movl	$24, 8(%esp)
	movl	$1, 4(%esp)
	movl	$LC2, (%esp)
	call	_fwrite
	movl	$1, (%esp)
	call	_exit
L21:
	.loc 2 36 0 discriminator 6
	movl	$LC9, ___sput+52
	movl	$36, ___sput+64
	movl	$LC10, ___sput+56
	movl	$LC5, ___sput+60
	movl	___sput+48, %eax
	incl	%eax
	movl	%eax, ___sput+48
	movl	___sput+32, %eax
	incl	%eax
	movl	%eax, ___sput+32
	movl	$LC11, (%esp)
	call	_count_vowels
	cmpl	$1, %eax
	je	L22
	.loc 2 36 0 discriminator 7
	movb	___sput+4, %al
	cmpb	$6, %al
	je	L23
	.loc 2 36 0 discriminator 9
	movl	__imp___iob, %eax
	addl	$64, %eax
	movl	%eax, 12(%esp)
	movl	$29, 8(%esp)
	movl	$1, 4(%esp)
	movl	$LC0, (%esp)
	call	_fwrite
	movl	$1, (%esp)
	call	_exit
L23:
	.loc 2 36 0 discriminator 10
	movl	___sput+24, %eax
	testl	%eax, %eax
	jne	L24
	.loc 2 36 0 discriminator 11
	movl	___sput, %eax
	movl	%eax, 12(%esp)
	movl	$27, 8(%esp)
	movl	$1, 4(%esp)
	movl	$LC1, (%esp)
	call	_fwrite
	movl	$1, (%esp)
	call	_exit
L24:
	.loc 2 36 0 discriminator 12
	movl	___sput+40, %eax
	incl	%eax
	movl	%eax, ___sput+40
	movl	___sput+64, %edx
	movl	___sput+56, %ebx
	movl	___sput+60, %eax
	movl	%eax, -28(%ebp)
	movl	___sput+52, %edi
	movl	%edi, -32(%ebp)
	movl	___sput+48, %ecx
	movl	%ecx, -36(%ebp)
	movl	___sput+44, %edi
	movl	___sput+32, %esi
	movl	___sput+28, %ecx
	movl	___sput, %eax
	movl	%edx, 36(%esp)
	movl	%ebx, 32(%esp)
	movl	-28(%ebp), %ebx
	movl	%ebx, 28(%esp)
	movl	-32(%ebp), %edx
	movl	%edx, 24(%esp)
	movl	-36(%ebp), %ebx
	movl	%ebx, 20(%esp)
	movl	%edi, 16(%esp)
	movl	%esi, 12(%esp)
	movl	%ecx, 8(%esp)
	movl	$LC7, 4(%esp)
	movl	%eax, (%esp)
	call	_fprintf
	jmp	L25
L22:
	.loc 2 36 0 discriminator 8
	movb	___sput+4, %al
	cmpb	$6, %al
	je	L26
	.loc 2 36 0 discriminator 13
	movl	__imp___iob, %eax
	addl	$64, %eax
	movl	%eax, 12(%esp)
	movl	$29, 8(%esp)
	movl	$1, 4(%esp)
	movl	$LC0, (%esp)
	call	_fwrite
	movl	$1, (%esp)
	call	_exit
L26:
	.loc 2 36 0 discriminator 14
	movl	___sput+24, %eax
	testl	%eax, %eax
	jne	L27
	.loc 2 36 0 discriminator 15
	movl	___sput, %eax
	movl	%eax, 12(%esp)
	movl	$27, 8(%esp)
	movl	$1, 4(%esp)
	movl	$LC1, (%esp)
	call	_fwrite
	movl	$1, (%esp)
	call	_exit
L27:
	.loc 2 36 0 discriminator 16
	movl	___sput+36, %eax
	incl	%eax
	movl	%eax, ___sput+36
	movl	___sput+52, %edi
	movl	___sput+48, %esi
	movl	___sput+44, %ebx
	movl	___sput+32, %ecx
	movl	___sput+28, %edx
	movl	___sput, %eax
	movl	%edi, 24(%esp)
	movl	%esi, 20(%esp)
	movl	%ebx, 16(%esp)
	movl	%ecx, 12(%esp)
	movl	%edx, 8(%esp)
	movl	$LC8, 4(%esp)
	movl	%eax, (%esp)
	call	_fprintf
L25:
	.loc 2 37 0 is_stmt 1
	movb	___sput+4, %al
	cmpb	$6, %al
	je	L28
	.loc 2 37 0 is_stmt 0 discriminator 1
	movl	__imp___iob, %eax
	addl	$64, %eax
	movl	%eax, 12(%esp)
	movl	$29, 8(%esp)
	movl	$1, 4(%esp)
	movl	$LC0, (%esp)
	call	_fwrite
	movl	$1, (%esp)
	call	_exit
L28:
	.loc 2 37 0 discriminator 2
	movl	___sput+24, %eax
	testl	%eax, %eax
	jne	L29
	.loc 2 37 0 discriminator 3
	movl	___sput, %eax
	movl	%eax, 12(%esp)
	movl	$27, 8(%esp)
	movl	$1, 4(%esp)
	movl	$LC1, (%esp)
	call	_fwrite
	movl	$1, (%esp)
	call	_exit
L29:
	.loc 2 37 0 discriminator 4
	movl	___sput+44, %eax
	testl	%eax, %eax
	jne	L30
	.loc 2 37 0 discriminator 5
	movl	___sput, %eax
	movl	%eax, 12(%esp)
	movl	$24, 8(%esp)
	movl	$1, 4(%esp)
	movl	$LC2, (%esp)
	call	_fwrite
	movl	$1, (%esp)
	call	_exit
L30:
	.loc 2 37 0 discriminator 6
	movl	$LC12, ___sput+52
	movl	$37, ___sput+64
	movl	$LC13, ___sput+56
	movl	$LC5, ___sput+60
	movl	___sput+48, %eax
	incl	%eax
	movl	%eax, ___sput+48
	movl	___sput+32, %eax
	incl	%eax
	movl	%eax, ___sput+32
	movl	$LC14, (%esp)
	call	_count_vowels
	cmpl	$1, %eax
	je	L31
	.loc 2 37 0 discriminator 7
	movb	___sput+4, %al
	cmpb	$6, %al
	je	L32
	.loc 2 37 0 discriminator 9
	movl	__imp___iob, %eax
	addl	$64, %eax
	movl	%eax, 12(%esp)
	movl	$29, 8(%esp)
	movl	$1, 4(%esp)
	movl	$LC0, (%esp)
	call	_fwrite
	movl	$1, (%esp)
	call	_exit
L32:
	.loc 2 37 0 discriminator 10
	movl	___sput+24, %eax
	testl	%eax, %eax
	jne	L33
	.loc 2 37 0 discriminator 11
	movl	___sput, %eax
	movl	%eax, 12(%esp)
	movl	$27, 8(%esp)
	movl	$1, 4(%esp)
	movl	$LC1, (%esp)
	call	_fwrite
	movl	$1, (%esp)
	call	_exit
L33:
	.loc 2 37 0 discriminator 12
	movl	___sput+40, %eax
	incl	%eax
	movl	%eax, ___sput+40
	movl	___sput+64, %edx
	movl	___sput+56, %ebx
	movl	___sput+60, %eax
	movl	%eax, -28(%ebp)
	movl	___sput+52, %esi
	movl	%esi, -32(%ebp)
	movl	___sput+48, %edi
	movl	%edi, -36(%ebp)
	movl	___sput+44, %edi
	movl	___sput+32, %esi
	movl	___sput+28, %ecx
	movl	___sput, %eax
	movl	%edx, 36(%esp)
	movl	%ebx, 32(%esp)
	movl	-28(%ebp), %edx
	movl	%edx, 28(%esp)
	movl	-32(%ebp), %ebx
	movl	%ebx, 24(%esp)
	movl	-36(%ebp), %edx
	movl	%edx, 20(%esp)
	movl	%edi, 16(%esp)
	movl	%esi, 12(%esp)
	movl	%ecx, 8(%esp)
	movl	$LC7, 4(%esp)
	movl	%eax, (%esp)
	call	_fprintf
	jmp	L34
L31:
	.loc 2 37 0 discriminator 8
	movb	___sput+4, %al
	cmpb	$6, %al
	je	L35
	.loc 2 37 0 discriminator 13
	movl	__imp___iob, %eax
	addl	$64, %eax
	movl	%eax, 12(%esp)
	movl	$29, 8(%esp)
	movl	$1, 4(%esp)
	movl	$LC0, (%esp)
	call	_fwrite
	movl	$1, (%esp)
	call	_exit
L35:
	.loc 2 37 0 discriminator 14
	movl	___sput+24, %eax
	testl	%eax, %eax
	jne	L36
	.loc 2 37 0 discriminator 15
	movl	___sput, %eax
	movl	%eax, 12(%esp)
	movl	$27, 8(%esp)
	movl	$1, 4(%esp)
	movl	$LC1, (%esp)
	call	_fwrite
	movl	$1, (%esp)
	call	_exit
L36:
	.loc 2 37 0 discriminator 16
	movl	___sput+36, %eax
	incl	%eax
	movl	%eax, ___sput+36
	movl	___sput+52, %edi
	movl	___sput+48, %esi
	movl	___sput+44, %ebx
	movl	___sput+32, %ecx
	movl	___sput+28, %edx
	movl	___sput, %eax
	movl	%edi, 24(%esp)
	movl	%esi, 20(%esp)
	movl	%ebx, 16(%esp)
	movl	%ecx, 12(%esp)
	movl	%edx, 8(%esp)
	movl	$LC8, 4(%esp)
	movl	%eax, (%esp)
	call	_fprintf
L34:
	.loc 2 38 0 is_stmt 1
	movb	___sput+4, %al
	cmpb	$6, %al
	je	L37
	.loc 2 38 0 is_stmt 0 discriminator 1
	movl	__imp___iob, %eax
	addl	$64, %eax
	movl	%eax, 12(%esp)
	movl	$29, 8(%esp)
	movl	$1, 4(%esp)
	movl	$LC0, (%esp)
	call	_fwrite
	movl	$1, (%esp)
	call	_exit
L37:
	.loc 2 38 0 discriminator 2
	movl	___sput+24, %eax
	testl	%eax, %eax
	jne	L38
	.loc 2 38 0 discriminator 3
	movl	___sput, %eax
	movl	%eax, 12(%esp)
	movl	$27, 8(%esp)
	movl	$1, 4(%esp)
	movl	$LC1, (%esp)
	call	_fwrite
	movl	$1, (%esp)
	call	_exit
L38:
	.loc 2 38 0 discriminator 4
	movl	___sput+44, %eax
	testl	%eax, %eax
	jne	L39
	.loc 2 38 0 discriminator 5
	movl	___sput, %eax
	movl	%eax, 12(%esp)
	movl	$24, 8(%esp)
	movl	$1, 4(%esp)
	movl	$LC2, (%esp)
	call	_fwrite
	movl	$1, (%esp)
	call	_exit
L39:
	.loc 2 38 0 discriminator 6
	movl	$LC15, ___sput+52
	movl	$38, ___sput+64
	movl	$LC16, ___sput+56
	movl	$LC5, ___sput+60
	movl	___sput+48, %eax
	incl	%eax
	movl	%eax, ___sput+48
	movl	___sput+32, %eax
	incl	%eax
	movl	%eax, ___sput+32
	movl	$LC17, (%esp)
	call	_count_vowels
	cmpl	$2, %eax
	je	L40
	.loc 2 38 0 discriminator 7
	movb	___sput+4, %al
	cmpb	$6, %al
	je	L41
	.loc 2 38 0 discriminator 9
	movl	__imp___iob, %eax
	addl	$64, %eax
	movl	%eax, 12(%esp)
	movl	$29, 8(%esp)
	movl	$1, 4(%esp)
	movl	$LC0, (%esp)
	call	_fwrite
	movl	$1, (%esp)
	call	_exit
L41:
	.loc 2 38 0 discriminator 10
	movl	___sput+24, %eax
	testl	%eax, %eax
	jne	L42
	.loc 2 38 0 discriminator 11
	movl	___sput, %eax
	movl	%eax, 12(%esp)
	movl	$27, 8(%esp)
	movl	$1, 4(%esp)
	movl	$LC1, (%esp)
	call	_fwrite
	movl	$1, (%esp)
	call	_exit
L42:
	.loc 2 38 0 discriminator 12
	movl	___sput+40, %eax
	incl	%eax
	movl	%eax, ___sput+40
	movl	___sput+64, %edx
	movl	___sput+56, %ebx
	movl	___sput+60, %eax
	movl	%eax, -28(%ebp)
	movl	___sput+52, %ecx
	movl	%ecx, -32(%ebp)
	movl	___sput+48, %esi
	movl	%esi, -36(%ebp)
	movl	___sput+44, %edi
	movl	___sput+32, %esi
	movl	___sput+28, %ecx
	movl	___sput, %eax
	movl	%edx, 36(%esp)
	movl	%ebx, 32(%esp)
	movl	-28(%ebp), %ebx
	movl	%ebx, 28(%esp)
	movl	-32(%ebp), %edx
	movl	%edx, 24(%esp)
	movl	-36(%ebp), %ebx
	movl	%ebx, 20(%esp)
	movl	%edi, 16(%esp)
	movl	%esi, 12(%esp)
	movl	%ecx, 8(%esp)
	movl	$LC7, 4(%esp)
	movl	%eax, (%esp)
	call	_fprintf
	jmp	L43
L40:
	.loc 2 38 0 discriminator 8
	movb	___sput+4, %al
	cmpb	$6, %al
	je	L44
	.loc 2 38 0 discriminator 13
	movl	__imp___iob, %eax
	addl	$64, %eax
	movl	%eax, 12(%esp)
	movl	$29, 8(%esp)
	movl	$1, 4(%esp)
	movl	$LC0, (%esp)
	call	_fwrite
	movl	$1, (%esp)
	call	_exit
L44:
	.loc 2 38 0 discriminator 14
	movl	___sput+24, %eax
	testl	%eax, %eax
	jne	L45
	.loc 2 38 0 discriminator 15
	movl	___sput, %eax
	movl	%eax, 12(%esp)
	movl	$27, 8(%esp)
	movl	$1, 4(%esp)
	movl	$LC1, (%esp)
	call	_fwrite
	movl	$1, (%esp)
	call	_exit
L45:
	.loc 2 38 0 discriminator 16
	movl	___sput+36, %eax
	incl	%eax
	movl	%eax, ___sput+36
	movl	___sput+52, %edi
	movl	___sput+48, %esi
	movl	___sput+44, %ebx
	movl	___sput+32, %ecx
	movl	___sput+28, %edx
	movl	___sput, %eax
	movl	%edi, 24(%esp)
	movl	%esi, 20(%esp)
	movl	%ebx, 16(%esp)
	movl	%ecx, 12(%esp)
	movl	%edx, 8(%esp)
	movl	$LC8, 4(%esp)
	movl	%eax, (%esp)
	call	_fprintf
L43:
	.loc 2 39 0 is_stmt 1
	movb	___sput+4, %al
	cmpb	$6, %al
	je	L46
	.loc 2 39 0 is_stmt 0 discriminator 1
	movl	__imp___iob, %eax
	addl	$64, %eax
	movl	%eax, 12(%esp)
	movl	$29, 8(%esp)
	movl	$1, 4(%esp)
	movl	$LC0, (%esp)
	call	_fwrite
	movl	$1, (%esp)
	call	_exit
L46:
	.loc 2 39 0 discriminator 2
	movl	___sput+24, %eax
	testl	%eax, %eax
	jne	L47
	.loc 2 39 0 discriminator 3
	movl	___sput, %eax
	movl	%eax, 12(%esp)
	movl	$27, 8(%esp)
	movl	$1, 4(%esp)
	movl	$LC1, (%esp)
	call	_fwrite
	movl	$1, (%esp)
	call	_exit
L47:
	.loc 2 39 0 discriminator 4
	movl	___sput+44, %eax
	testl	%eax, %eax
	jne	L48
	.loc 2 39 0 discriminator 5
	movl	___sput, %eax
	movl	%eax, 12(%esp)
	movl	$24, 8(%esp)
	movl	$1, 4(%esp)
	movl	$LC2, (%esp)
	call	_fwrite
	movl	$1, (%esp)
	call	_exit
L48:
	.loc 2 39 0 discriminator 6
	movl	$LC18, ___sput+52
	movl	$39, ___sput+64
	movl	$LC19, ___sput+56
	movl	$LC5, ___sput+60
	movl	___sput+48, %eax
	incl	%eax
	movl	%eax, ___sput+48
	movl	___sput+32, %eax
	incl	%eax
	movl	%eax, ___sput+32
	movl	$LC20, (%esp)
	call	_count_vowels
	cmpl	$2, %eax
	je	L49
	.loc 2 39 0 discriminator 7
	movb	___sput+4, %al
	cmpb	$6, %al
	je	L50
	.loc 2 39 0 discriminator 9
	movl	__imp___iob, %eax
	addl	$64, %eax
	movl	%eax, 12(%esp)
	movl	$29, 8(%esp)
	movl	$1, 4(%esp)
	movl	$LC0, (%esp)
	call	_fwrite
	movl	$1, (%esp)
	call	_exit
L50:
	.loc 2 39 0 discriminator 10
	movl	___sput+24, %eax
	testl	%eax, %eax
	jne	L51
	.loc 2 39 0 discriminator 11
	movl	___sput, %eax
	movl	%eax, 12(%esp)
	movl	$27, 8(%esp)
	movl	$1, 4(%esp)
	movl	$LC1, (%esp)
	call	_fwrite
	movl	$1, (%esp)
	call	_exit
L51:
	.loc 2 39 0 discriminator 12
	movl	___sput+40, %eax
	incl	%eax
	movl	%eax, ___sput+40
	movl	___sput+64, %edx
	movl	___sput+56, %ebx
	movl	___sput+60, %eax
	movl	%eax, -28(%ebp)
	movl	___sput+52, %edi
	movl	%edi, -32(%ebp)
	movl	___sput+48, %ecx
	movl	%ecx, -36(%ebp)
	movl	___sput+44, %edi
	movl	___sput+32, %esi
	movl	___sput+28, %ecx
	movl	___sput, %eax
	movl	%edx, 36(%esp)
	movl	%ebx, 32(%esp)
	movl	-28(%ebp), %edx
	movl	%edx, 28(%esp)
	movl	-32(%ebp), %ebx
	movl	%ebx, 24(%esp)
	movl	-36(%ebp), %edx
	movl	%edx, 20(%esp)
	movl	%edi, 16(%esp)
	movl	%esi, 12(%esp)
	movl	%ecx, 8(%esp)
	movl	$LC7, 4(%esp)
	movl	%eax, (%esp)
	call	_fprintf
	jmp	L9
L49:
	.loc 2 39 0 discriminator 8
	movb	___sput+4, %al
	cmpb	$6, %al
	je	L53
	.loc 2 39 0 discriminator 13
	movl	__imp___iob, %eax
	addl	$64, %eax
	movl	%eax, 12(%esp)
	movl	$29, 8(%esp)
	movl	$1, 4(%esp)
	movl	$LC0, (%esp)
	call	_fwrite
	movl	$1, (%esp)
	call	_exit
L53:
	.loc 2 39 0 discriminator 14
	movl	___sput+24, %eax
	testl	%eax, %eax
	jne	L54
	.loc 2 39 0 discriminator 15
	movl	___sput, %eax
	movl	%eax, 12(%esp)
	movl	$27, 8(%esp)
	movl	$1, 4(%esp)
	movl	$LC1, (%esp)
	call	_fwrite
	movl	$1, (%esp)
	call	_exit
L54:
	.loc 2 39 0 discriminator 16
	movl	___sput+36, %eax
	incl	%eax
	movl	%eax, ___sput+36
	movl	___sput+52, %edi
	movl	___sput+48, %esi
	movl	___sput+44, %ebx
	movl	___sput+32, %ecx
	movl	___sput+28, %edx
	movl	___sput, %eax
	movl	%edi, 24(%esp)
	movl	%esi, 20(%esp)
	movl	%ebx, 16(%esp)
	movl	%ecx, 12(%esp)
	movl	%edx, 8(%esp)
	movl	$LC8, 4(%esp)
	movl	%eax, (%esp)
	call	_fprintf
L9:
	.loc 2 40 0 is_stmt 1
	addl	$76, %esp
	popl	%ebx
	.cfi_restore 3
	popl	%esi
	.cfi_restore 6
	popl	%edi
	.cfi_restore 7
	popl	%ebp
	.cfi_restore 5
	.cfi_def_cfa 4, 4
	ret
	.cfi_endproc
LFE11:
	.section .rdata,"dr"
LC21:
	.ascii "GCC == 0v\0"
LC22:
	.ascii "count_vowels(\"GCC\") == 0\0"
LC23:
	.ascii "GCC\0"
LC24:
	.ascii "BBC == 0v\0"
LC25:
	.ascii "count_vowels(\"BBC\") == 0\0"
LC26:
	.ascii "BBC\0"
LC27:
	.ascii "CNN == 0v\0"
LC28:
	.ascii "count_vowels(\"CNN\") == 0\0"
LC29:
	.ascii "CNN\0"
LC30:
	.ascii "GPS == 0v\0"
LC31:
	.ascii "count_vowels(\"GPS\") == 0\0"
LC32:
	.ascii "GPS\0"
LC33:
	.ascii "Ltd == 0v\0"
LC34:
	.ascii "count_vowels(\"Ltd\") == 0\0"
LC35:
	.ascii "Ltd\0"
	.text
	.def	_test_no_vowels_present;	.scl	3;	.type	32;	.endef
_test_no_vowels_present:
LFB12:
	.loc 2 44 0
	.cfi_startproc
	pushl	%ebp
	.cfi_def_cfa_offset 8
	.cfi_offset 5, -8
	movl	%esp, %ebp
	.cfi_def_cfa_register 5
	pushl	%edi
	pushl	%esi
	pushl	%ebx
	subl	$76, %esp
	.cfi_offset 7, -12
	.cfi_offset 6, -16
	.cfi_offset 3, -20
	.loc 2 45 0
	movb	___sput+4, %al
	cmpb	$6, %al
	je	L56
	.loc 2 45 0 is_stmt 0 discriminator 1
	movl	__imp___iob, %eax
	addl	$64, %eax
	movl	%eax, 12(%esp)
	movl	$29, 8(%esp)
	movl	$1, 4(%esp)
	movl	$LC0, (%esp)
	call	_fwrite
	movl	$1, (%esp)
	call	_exit
L56:
	.loc 2 45 0 discriminator 2
	movl	___sput+24, %eax
	testl	%eax, %eax
	jne	L57
	.loc 2 45 0 discriminator 3
	movl	___sput, %eax
	movl	%eax, 12(%esp)
	movl	$27, 8(%esp)
	movl	$1, 4(%esp)
	movl	$LC1, (%esp)
	call	_fwrite
	movl	$1, (%esp)
	call	_exit
L57:
	.loc 2 45 0 discriminator 4
	movl	___sput+44, %eax
	testl	%eax, %eax
	jne	L58
	.loc 2 45 0 discriminator 5
	movl	___sput, %eax
	movl	%eax, 12(%esp)
	movl	$24, 8(%esp)
	movl	$1, 4(%esp)
	movl	$LC2, (%esp)
	call	_fwrite
	movl	$1, (%esp)
	call	_exit
L58:
	.loc 2 45 0 discriminator 6
	movl	$LC21, ___sput+52
	movl	$45, ___sput+64
	movl	$LC22, ___sput+56
	movl	$LC5, ___sput+60
	movl	___sput+48, %eax
	incl	%eax
	movl	%eax, ___sput+48
	movl	___sput+32, %eax
	incl	%eax
	movl	%eax, ___sput+32
	movl	$LC23, (%esp)
	call	_count_vowels
	testl	%eax, %eax
	je	L59
	.loc 2 45 0 discriminator 7
	movb	___sput+4, %al
	cmpb	$6, %al
	je	L60
	.loc 2 45 0 discriminator 9
	movl	__imp___iob, %eax
	addl	$64, %eax
	movl	%eax, 12(%esp)
	movl	$29, 8(%esp)
	movl	$1, 4(%esp)
	movl	$LC0, (%esp)
	call	_fwrite
	movl	$1, (%esp)
	call	_exit
L60:
	.loc 2 45 0 discriminator 10
	movl	___sput+24, %eax
	testl	%eax, %eax
	jne	L61
	.loc 2 45 0 discriminator 11
	movl	___sput, %eax
	movl	%eax, 12(%esp)
	movl	$27, 8(%esp)
	movl	$1, 4(%esp)
	movl	$LC1, (%esp)
	call	_fwrite
	movl	$1, (%esp)
	call	_exit
L61:
	.loc 2 45 0 discriminator 12
	movl	___sput+40, %eax
	incl	%eax
	movl	%eax, ___sput+40
	movl	___sput+64, %edx
	movl	___sput+56, %ebx
	movl	___sput+60, %eax
	movl	%eax, -28(%ebp)
	movl	___sput+52, %ecx
	movl	%ecx, -32(%ebp)
	movl	___sput+48, %esi
	movl	%esi, -36(%ebp)
	movl	___sput+44, %edi
	movl	___sput+32, %esi
	movl	___sput+28, %ecx
	movl	___sput, %eax
	movl	%edx, 36(%esp)
	movl	%ebx, 32(%esp)
	movl	-28(%ebp), %edx
	movl	%edx, 28(%esp)
	movl	-32(%ebp), %ebx
	movl	%ebx, 24(%esp)
	movl	-36(%ebp), %edx
	movl	%edx, 20(%esp)
	movl	%edi, 16(%esp)
	movl	%esi, 12(%esp)
	movl	%ecx, 8(%esp)
	movl	$LC7, 4(%esp)
	movl	%eax, (%esp)
	call	_fprintf
	jmp	L62
L59:
	.loc 2 45 0 discriminator 8
	movb	___sput+4, %al
	cmpb	$6, %al
	je	L63
	.loc 2 45 0 discriminator 13
	movl	__imp___iob, %eax
	addl	$64, %eax
	movl	%eax, 12(%esp)
	movl	$29, 8(%esp)
	movl	$1, 4(%esp)
	movl	$LC0, (%esp)
	call	_fwrite
	movl	$1, (%esp)
	call	_exit
L63:
	.loc 2 45 0 discriminator 14
	movl	___sput+24, %eax
	testl	%eax, %eax
	jne	L64
	.loc 2 45 0 discriminator 15
	movl	___sput, %eax
	movl	%eax, 12(%esp)
	movl	$27, 8(%esp)
	movl	$1, 4(%esp)
	movl	$LC1, (%esp)
	call	_fwrite
	movl	$1, (%esp)
	call	_exit
L64:
	.loc 2 45 0 discriminator 16
	movl	___sput+36, %eax
	incl	%eax
	movl	%eax, ___sput+36
	movl	___sput+52, %edi
	movl	___sput+48, %esi
	movl	___sput+44, %ebx
	movl	___sput+32, %ecx
	movl	___sput+28, %edx
	movl	___sput, %eax
	movl	%edi, 24(%esp)
	movl	%esi, 20(%esp)
	movl	%ebx, 16(%esp)
	movl	%ecx, 12(%esp)
	movl	%edx, 8(%esp)
	movl	$LC8, 4(%esp)
	movl	%eax, (%esp)
	call	_fprintf
L62:
	.loc 2 46 0 is_stmt 1
	movb	___sput+4, %al
	cmpb	$6, %al
	je	L65
	.loc 2 46 0 is_stmt 0 discriminator 1
	movl	__imp___iob, %eax
	addl	$64, %eax
	movl	%eax, 12(%esp)
	movl	$29, 8(%esp)
	movl	$1, 4(%esp)
	movl	$LC0, (%esp)
	call	_fwrite
	movl	$1, (%esp)
	call	_exit
L65:
	.loc 2 46 0 discriminator 2
	movl	___sput+24, %eax
	testl	%eax, %eax
	jne	L66
	.loc 2 46 0 discriminator 3
	movl	___sput, %eax
	movl	%eax, 12(%esp)
	movl	$27, 8(%esp)
	movl	$1, 4(%esp)
	movl	$LC1, (%esp)
	call	_fwrite
	movl	$1, (%esp)
	call	_exit
L66:
	.loc 2 46 0 discriminator 4
	movl	___sput+44, %eax
	testl	%eax, %eax
	jne	L67
	.loc 2 46 0 discriminator 5
	movl	___sput, %eax
	movl	%eax, 12(%esp)
	movl	$24, 8(%esp)
	movl	$1, 4(%esp)
	movl	$LC2, (%esp)
	call	_fwrite
	movl	$1, (%esp)
	call	_exit
L67:
	.loc 2 46 0 discriminator 6
	movl	$LC24, ___sput+52
	movl	$46, ___sput+64
	movl	$LC25, ___sput+56
	movl	$LC5, ___sput+60
	movl	___sput+48, %eax
	incl	%eax
	movl	%eax, ___sput+48
	movl	___sput+32, %eax
	incl	%eax
	movl	%eax, ___sput+32
	movl	$LC26, (%esp)
	call	_count_vowels
	testl	%eax, %eax
	je	L68
	.loc 2 46 0 discriminator 7
	movb	___sput+4, %al
	cmpb	$6, %al
	je	L69
	.loc 2 46 0 discriminator 9
	movl	__imp___iob, %eax
	addl	$64, %eax
	movl	%eax, 12(%esp)
	movl	$29, 8(%esp)
	movl	$1, 4(%esp)
	movl	$LC0, (%esp)
	call	_fwrite
	movl	$1, (%esp)
	call	_exit
L69:
	.loc 2 46 0 discriminator 10
	movl	___sput+24, %eax
	testl	%eax, %eax
	jne	L70
	.loc 2 46 0 discriminator 11
	movl	___sput, %eax
	movl	%eax, 12(%esp)
	movl	$27, 8(%esp)
	movl	$1, 4(%esp)
	movl	$LC1, (%esp)
	call	_fwrite
	movl	$1, (%esp)
	call	_exit
L70:
	.loc 2 46 0 discriminator 12
	movl	___sput+40, %eax
	incl	%eax
	movl	%eax, ___sput+40
	movl	___sput+64, %edx
	movl	___sput+56, %ebx
	movl	___sput+60, %eax
	movl	%eax, -28(%ebp)
	movl	___sput+52, %edi
	movl	%edi, -32(%ebp)
	movl	___sput+48, %ecx
	movl	%ecx, -36(%ebp)
	movl	___sput+44, %edi
	movl	___sput+32, %esi
	movl	___sput+28, %ecx
	movl	___sput, %eax
	movl	%edx, 36(%esp)
	movl	%ebx, 32(%esp)
	movl	-28(%ebp), %ebx
	movl	%ebx, 28(%esp)
	movl	-32(%ebp), %edx
	movl	%edx, 24(%esp)
	movl	-36(%ebp), %ebx
	movl	%ebx, 20(%esp)
	movl	%edi, 16(%esp)
	movl	%esi, 12(%esp)
	movl	%ecx, 8(%esp)
	movl	$LC7, 4(%esp)
	movl	%eax, (%esp)
	call	_fprintf
	jmp	L71
L68:
	.loc 2 46 0 discriminator 8
	movb	___sput+4, %al
	cmpb	$6, %al
	je	L72
	.loc 2 46 0 discriminator 13
	movl	__imp___iob, %eax
	addl	$64, %eax
	movl	%eax, 12(%esp)
	movl	$29, 8(%esp)
	movl	$1, 4(%esp)
	movl	$LC0, (%esp)
	call	_fwrite
	movl	$1, (%esp)
	call	_exit
L72:
	.loc 2 46 0 discriminator 14
	movl	___sput+24, %eax
	testl	%eax, %eax
	jne	L73
	.loc 2 46 0 discriminator 15
	movl	___sput, %eax
	movl	%eax, 12(%esp)
	movl	$27, 8(%esp)
	movl	$1, 4(%esp)
	movl	$LC1, (%esp)
	call	_fwrite
	movl	$1, (%esp)
	call	_exit
L73:
	.loc 2 46 0 discriminator 16
	movl	___sput+36, %eax
	incl	%eax
	movl	%eax, ___sput+36
	movl	___sput+52, %edi
	movl	___sput+48, %esi
	movl	___sput+44, %ebx
	movl	___sput+32, %ecx
	movl	___sput+28, %edx
	movl	___sput, %eax
	movl	%edi, 24(%esp)
	movl	%esi, 20(%esp)
	movl	%ebx, 16(%esp)
	movl	%ecx, 12(%esp)
	movl	%edx, 8(%esp)
	movl	$LC8, 4(%esp)
	movl	%eax, (%esp)
	call	_fprintf
L71:
	.loc 2 47 0 is_stmt 1
	movb	___sput+4, %al
	cmpb	$6, %al
	je	L74
	.loc 2 47 0 is_stmt 0 discriminator 1
	movl	__imp___iob, %eax
	addl	$64, %eax
	movl	%eax, 12(%esp)
	movl	$29, 8(%esp)
	movl	$1, 4(%esp)
	movl	$LC0, (%esp)
	call	_fwrite
	movl	$1, (%esp)
	call	_exit
L74:
	.loc 2 47 0 discriminator 2
	movl	___sput+24, %eax
	testl	%eax, %eax
	jne	L75
	.loc 2 47 0 discriminator 3
	movl	___sput, %eax
	movl	%eax, 12(%esp)
	movl	$27, 8(%esp)
	movl	$1, 4(%esp)
	movl	$LC1, (%esp)
	call	_fwrite
	movl	$1, (%esp)
	call	_exit
L75:
	.loc 2 47 0 discriminator 4
	movl	___sput+44, %eax
	testl	%eax, %eax
	jne	L76
	.loc 2 47 0 discriminator 5
	movl	___sput, %eax
	movl	%eax, 12(%esp)
	movl	$24, 8(%esp)
	movl	$1, 4(%esp)
	movl	$LC2, (%esp)
	call	_fwrite
	movl	$1, (%esp)
	call	_exit
L76:
	.loc 2 47 0 discriminator 6
	movl	$LC27, ___sput+52
	movl	$47, ___sput+64
	movl	$LC28, ___sput+56
	movl	$LC5, ___sput+60
	movl	___sput+48, %eax
	incl	%eax
	movl	%eax, ___sput+48
	movl	___sput+32, %eax
	incl	%eax
	movl	%eax, ___sput+32
	movl	$LC29, (%esp)
	call	_count_vowels
	testl	%eax, %eax
	je	L77
	.loc 2 47 0 discriminator 7
	movb	___sput+4, %al
	cmpb	$6, %al
	je	L78
	.loc 2 47 0 discriminator 9
	movl	__imp___iob, %eax
	addl	$64, %eax
	movl	%eax, 12(%esp)
	movl	$29, 8(%esp)
	movl	$1, 4(%esp)
	movl	$LC0, (%esp)
	call	_fwrite
	movl	$1, (%esp)
	call	_exit
L78:
	.loc 2 47 0 discriminator 10
	movl	___sput+24, %eax
	testl	%eax, %eax
	jne	L79
	.loc 2 47 0 discriminator 11
	movl	___sput, %eax
	movl	%eax, 12(%esp)
	movl	$27, 8(%esp)
	movl	$1, 4(%esp)
	movl	$LC1, (%esp)
	call	_fwrite
	movl	$1, (%esp)
	call	_exit
L79:
	.loc 2 47 0 discriminator 12
	movl	___sput+40, %eax
	incl	%eax
	movl	%eax, ___sput+40
	movl	___sput+64, %edx
	movl	___sput+56, %ebx
	movl	___sput+60, %eax
	movl	%eax, -28(%ebp)
	movl	___sput+52, %esi
	movl	%esi, -32(%ebp)
	movl	___sput+48, %edi
	movl	%edi, -36(%ebp)
	movl	___sput+44, %edi
	movl	___sput+32, %esi
	movl	___sput+28, %ecx
	movl	___sput, %eax
	movl	%edx, 36(%esp)
	movl	%ebx, 32(%esp)
	movl	-28(%ebp), %edx
	movl	%edx, 28(%esp)
	movl	-32(%ebp), %ebx
	movl	%ebx, 24(%esp)
	movl	-36(%ebp), %edx
	movl	%edx, 20(%esp)
	movl	%edi, 16(%esp)
	movl	%esi, 12(%esp)
	movl	%ecx, 8(%esp)
	movl	$LC7, 4(%esp)
	movl	%eax, (%esp)
	call	_fprintf
	jmp	L80
L77:
	.loc 2 47 0 discriminator 8
	movb	___sput+4, %al
	cmpb	$6, %al
	je	L81
	.loc 2 47 0 discriminator 13
	movl	__imp___iob, %eax
	addl	$64, %eax
	movl	%eax, 12(%esp)
	movl	$29, 8(%esp)
	movl	$1, 4(%esp)
	movl	$LC0, (%esp)
	call	_fwrite
	movl	$1, (%esp)
	call	_exit
L81:
	.loc 2 47 0 discriminator 14
	movl	___sput+24, %eax
	testl	%eax, %eax
	jne	L82
	.loc 2 47 0 discriminator 15
	movl	___sput, %eax
	movl	%eax, 12(%esp)
	movl	$27, 8(%esp)
	movl	$1, 4(%esp)
	movl	$LC1, (%esp)
	call	_fwrite
	movl	$1, (%esp)
	call	_exit
L82:
	.loc 2 47 0 discriminator 16
	movl	___sput+36, %eax
	incl	%eax
	movl	%eax, ___sput+36
	movl	___sput+52, %edi
	movl	___sput+48, %esi
	movl	___sput+44, %ebx
	movl	___sput+32, %ecx
	movl	___sput+28, %edx
	movl	___sput, %eax
	movl	%edi, 24(%esp)
	movl	%esi, 20(%esp)
	movl	%ebx, 16(%esp)
	movl	%ecx, 12(%esp)
	movl	%edx, 8(%esp)
	movl	$LC8, 4(%esp)
	movl	%eax, (%esp)
	call	_fprintf
L80:
	.loc 2 48 0 is_stmt 1
	movb	___sput+4, %al
	cmpb	$6, %al
	je	L83
	.loc 2 48 0 is_stmt 0 discriminator 1
	movl	__imp___iob, %eax
	addl	$64, %eax
	movl	%eax, 12(%esp)
	movl	$29, 8(%esp)
	movl	$1, 4(%esp)
	movl	$LC0, (%esp)
	call	_fwrite
	movl	$1, (%esp)
	call	_exit
L83:
	.loc 2 48 0 discriminator 2
	movl	___sput+24, %eax
	testl	%eax, %eax
	jne	L84
	.loc 2 48 0 discriminator 3
	movl	___sput, %eax
	movl	%eax, 12(%esp)
	movl	$27, 8(%esp)
	movl	$1, 4(%esp)
	movl	$LC1, (%esp)
	call	_fwrite
	movl	$1, (%esp)
	call	_exit
L84:
	.loc 2 48 0 discriminator 4
	movl	___sput+44, %eax
	testl	%eax, %eax
	jne	L85
	.loc 2 48 0 discriminator 5
	movl	___sput, %eax
	movl	%eax, 12(%esp)
	movl	$24, 8(%esp)
	movl	$1, 4(%esp)
	movl	$LC2, (%esp)
	call	_fwrite
	movl	$1, (%esp)
	call	_exit
L85:
	.loc 2 48 0 discriminator 6
	movl	$LC30, ___sput+52
	movl	$48, ___sput+64
	movl	$LC31, ___sput+56
	movl	$LC5, ___sput+60
	movl	___sput+48, %eax
	incl	%eax
	movl	%eax, ___sput+48
	movl	___sput+32, %eax
	incl	%eax
	movl	%eax, ___sput+32
	movl	$LC32, (%esp)
	call	_count_vowels
	testl	%eax, %eax
	je	L86
	.loc 2 48 0 discriminator 7
	movb	___sput+4, %al
	cmpb	$6, %al
	je	L87
	.loc 2 48 0 discriminator 9
	movl	__imp___iob, %eax
	addl	$64, %eax
	movl	%eax, 12(%esp)
	movl	$29, 8(%esp)
	movl	$1, 4(%esp)
	movl	$LC0, (%esp)
	call	_fwrite
	movl	$1, (%esp)
	call	_exit
L87:
	.loc 2 48 0 discriminator 10
	movl	___sput+24, %eax
	testl	%eax, %eax
	jne	L88
	.loc 2 48 0 discriminator 11
	movl	___sput, %eax
	movl	%eax, 12(%esp)
	movl	$27, 8(%esp)
	movl	$1, 4(%esp)
	movl	$LC1, (%esp)
	call	_fwrite
	movl	$1, (%esp)
	call	_exit
L88:
	.loc 2 48 0 discriminator 12
	movl	___sput+40, %eax
	incl	%eax
	movl	%eax, ___sput+40
	movl	___sput+64, %edx
	movl	___sput+56, %ebx
	movl	___sput+60, %eax
	movl	%eax, -28(%ebp)
	movl	___sput+52, %ecx
	movl	%ecx, -32(%ebp)
	movl	___sput+48, %esi
	movl	%esi, -36(%ebp)
	movl	___sput+44, %edi
	movl	___sput+32, %esi
	movl	___sput+28, %ecx
	movl	___sput, %eax
	movl	%edx, 36(%esp)
	movl	%ebx, 32(%esp)
	movl	-28(%ebp), %ebx
	movl	%ebx, 28(%esp)
	movl	-32(%ebp), %edx
	movl	%edx, 24(%esp)
	movl	-36(%ebp), %ebx
	movl	%ebx, 20(%esp)
	movl	%edi, 16(%esp)
	movl	%esi, 12(%esp)
	movl	%ecx, 8(%esp)
	movl	$LC7, 4(%esp)
	movl	%eax, (%esp)
	call	_fprintf
	jmp	L89
L86:
	.loc 2 48 0 discriminator 8
	movb	___sput+4, %al
	cmpb	$6, %al
	je	L90
	.loc 2 48 0 discriminator 13
	movl	__imp___iob, %eax
	addl	$64, %eax
	movl	%eax, 12(%esp)
	movl	$29, 8(%esp)
	movl	$1, 4(%esp)
	movl	$LC0, (%esp)
	call	_fwrite
	movl	$1, (%esp)
	call	_exit
L90:
	.loc 2 48 0 discriminator 14
	movl	___sput+24, %eax
	testl	%eax, %eax
	jne	L91
	.loc 2 48 0 discriminator 15
	movl	___sput, %eax
	movl	%eax, 12(%esp)
	movl	$27, 8(%esp)
	movl	$1, 4(%esp)
	movl	$LC1, (%esp)
	call	_fwrite
	movl	$1, (%esp)
	call	_exit
L91:
	.loc 2 48 0 discriminator 16
	movl	___sput+36, %eax
	incl	%eax
	movl	%eax, ___sput+36
	movl	___sput+52, %edi
	movl	___sput+48, %esi
	movl	___sput+44, %ebx
	movl	___sput+32, %ecx
	movl	___sput+28, %edx
	movl	___sput, %eax
	movl	%edi, 24(%esp)
	movl	%esi, 20(%esp)
	movl	%ebx, 16(%esp)
	movl	%ecx, 12(%esp)
	movl	%edx, 8(%esp)
	movl	$LC8, 4(%esp)
	movl	%eax, (%esp)
	call	_fprintf
L89:
	.loc 2 49 0 is_stmt 1
	movb	___sput+4, %al
	cmpb	$6, %al
	je	L92
	.loc 2 49 0 is_stmt 0 discriminator 1
	movl	__imp___iob, %eax
	addl	$64, %eax
	movl	%eax, 12(%esp)
	movl	$29, 8(%esp)
	movl	$1, 4(%esp)
	movl	$LC0, (%esp)
	call	_fwrite
	movl	$1, (%esp)
	call	_exit
L92:
	.loc 2 49 0 discriminator 2
	movl	___sput+24, %eax
	testl	%eax, %eax
	jne	L93
	.loc 2 49 0 discriminator 3
	movl	___sput, %eax
	movl	%eax, 12(%esp)
	movl	$27, 8(%esp)
	movl	$1, 4(%esp)
	movl	$LC1, (%esp)
	call	_fwrite
	movl	$1, (%esp)
	call	_exit
L93:
	.loc 2 49 0 discriminator 4
	movl	___sput+44, %eax
	testl	%eax, %eax
	jne	L94
	.loc 2 49 0 discriminator 5
	movl	___sput, %eax
	movl	%eax, 12(%esp)
	movl	$24, 8(%esp)
	movl	$1, 4(%esp)
	movl	$LC2, (%esp)
	call	_fwrite
	movl	$1, (%esp)
	call	_exit
L94:
	.loc 2 49 0 discriminator 6
	movl	$LC33, ___sput+52
	movl	$49, ___sput+64
	movl	$LC34, ___sput+56
	movl	$LC5, ___sput+60
	movl	___sput+48, %eax
	incl	%eax
	movl	%eax, ___sput+48
	movl	___sput+32, %eax
	incl	%eax
	movl	%eax, ___sput+32
	movl	$LC35, (%esp)
	call	_count_vowels
	testl	%eax, %eax
	je	L95
	.loc 2 49 0 discriminator 7
	movb	___sput+4, %al
	cmpb	$6, %al
	je	L96
	.loc 2 49 0 discriminator 9
	movl	__imp___iob, %eax
	addl	$64, %eax
	movl	%eax, 12(%esp)
	movl	$29, 8(%esp)
	movl	$1, 4(%esp)
	movl	$LC0, (%esp)
	call	_fwrite
	movl	$1, (%esp)
	call	_exit
L96:
	.loc 2 49 0 discriminator 10
	movl	___sput+24, %eax
	testl	%eax, %eax
	jne	L97
	.loc 2 49 0 discriminator 11
	movl	___sput, %eax
	movl	%eax, 12(%esp)
	movl	$27, 8(%esp)
	movl	$1, 4(%esp)
	movl	$LC1, (%esp)
	call	_fwrite
	movl	$1, (%esp)
	call	_exit
L97:
	.loc 2 49 0 discriminator 12
	movl	___sput+40, %eax
	incl	%eax
	movl	%eax, ___sput+40
	movl	___sput+64, %edx
	movl	___sput+56, %ebx
	movl	___sput+60, %eax
	movl	%eax, -28(%ebp)
	movl	___sput+52, %edi
	movl	%edi, -32(%ebp)
	movl	___sput+48, %ecx
	movl	%ecx, -36(%ebp)
	movl	___sput+44, %edi
	movl	___sput+32, %esi
	movl	___sput+28, %ecx
	movl	___sput, %eax
	movl	%edx, 36(%esp)
	movl	%ebx, 32(%esp)
	movl	-28(%ebp), %edx
	movl	%edx, 28(%esp)
	movl	-32(%ebp), %ebx
	movl	%ebx, 24(%esp)
	movl	-36(%ebp), %edx
	movl	%edx, 20(%esp)
	movl	%edi, 16(%esp)
	movl	%esi, 12(%esp)
	movl	%ecx, 8(%esp)
	movl	$LC7, 4(%esp)
	movl	%eax, (%esp)
	call	_fprintf
	jmp	L55
L95:
	.loc 2 49 0 discriminator 8
	movb	___sput+4, %al
	cmpb	$6, %al
	je	L99
	.loc 2 49 0 discriminator 13
	movl	__imp___iob, %eax
	addl	$64, %eax
	movl	%eax, 12(%esp)
	movl	$29, 8(%esp)
	movl	$1, 4(%esp)
	movl	$LC0, (%esp)
	call	_fwrite
	movl	$1, (%esp)
	call	_exit
L99:
	.loc 2 49 0 discriminator 14
	movl	___sput+24, %eax
	testl	%eax, %eax
	jne	L100
	.loc 2 49 0 discriminator 15
	movl	___sput, %eax
	movl	%eax, 12(%esp)
	movl	$27, 8(%esp)
	movl	$1, 4(%esp)
	movl	$LC1, (%esp)
	call	_fwrite
	movl	$1, (%esp)
	call	_exit
L100:
	.loc 2 49 0 discriminator 16
	movl	___sput+36, %eax
	incl	%eax
	movl	%eax, ___sput+36
	movl	___sput+52, %edi
	movl	___sput+48, %esi
	movl	___sput+44, %ebx
	movl	___sput+32, %ecx
	movl	___sput+28, %edx
	movl	___sput, %eax
	movl	%edi, 24(%esp)
	movl	%esi, 20(%esp)
	movl	%ebx, 16(%esp)
	movl	%ecx, 12(%esp)
	movl	%edx, 8(%esp)
	movl	$LC8, 4(%esp)
	movl	%eax, (%esp)
	call	_fprintf
L55:
	.loc 2 50 0 is_stmt 1
	addl	$76, %esp
	popl	%ebx
	.cfi_restore 3
	popl	%esi
	.cfi_restore 6
	popl	%edi
	.cfi_restore 7
	popl	%ebp
	.cfi_restore 5
	.cfi_def_cfa 4, 4
	ret
	.cfi_endproc
LFE12:
	.def	___main;	.scl	2;	.type	32;	.endef
	.section .rdata,"dr"
	.align 4
LC38:
	.ascii "\12--> %lu check(s), %lu ok, %lu failed (%.2f%%)\12\0"
	.align 4
LC39:
	.ascii "count_vowels(): Vowels Present\0"
	.align 4
LC40:
	.ascii "\12== Entering suite #%lu, \"%s\" ==\12\12\0"
LC41:
	.ascii "test_vowels_present\0"
	.align 4
LC42:
	.ascii "count_vowels(): No Vowels Present\0"
LC43:
	.ascii "test_no_vowels_present\0"
LC44:
	.ascii "SUCCESS\0"
LC45:
	.ascii "FAILURE\0"
	.align 4
LC46:
	.ascii "\12==> %lu check(s) in %lu suite(s) finished after %.2f second(s),\12    %lu succeeded, %lu failed (%.2f%%)\12\12[%s]\12\0"
	.text
	.globl	_main
	.def	_main;	.scl	2;	.type	32;	.endef
_main:
LFB13:
	.loc 2 54 0
	.cfi_startproc
	pushl	%ebp
	.cfi_def_cfa_offset 8
	.cfi_offset 5, -8
	movl	%esp, %ebp
	.cfi_def_cfa_register 5
	pushl	%edi
	pushl	%esi
	pushl	%ebx
	andl	$-16, %esp
	subl	$112, %esp
	.cfi_offset 7, -12
	.cfi_offset 6, -16
	.cfi_offset 3, -20
	.loc 2 54 0
	call	___main
	.loc 2 55 0
	movl	$76, 8(%esp)
	movl	$0, 4(%esp)
	movl	$___sput, (%esp)
	call	_memset
	movl	__imp___iob, %eax
	addl	$32, %eax
	movl	%eax, ___sput
	movl	$0, (%esp)
	call	_time
	movl	%eax, ___sput+68
	movb	$6, ___sput+4
	.loc 2 57 0
	movb	___sput+4, %al
	cmpb	$6, %al
	je	L102
	.loc 2 57 0 is_stmt 0 discriminator 1
	movl	__imp___iob, %eax
	addl	$64, %eax
	movl	%eax, 12(%esp)
	movl	$29, 8(%esp)
	movl	$1, 4(%esp)
	movl	$LC0, (%esp)
	call	_fwrite
	movl	$1, (%esp)
	call	_exit
L102:
	.loc 2 57 0 discriminator 2
	movl	___sput+24, %eax
	testl	%eax, %eax
	je	L103
LBB2:
	.loc 2 57 0 discriminator 3
	movl	LC36, %eax
	movl	%eax, 108(%esp)
	movb	___sput+4, %al
	cmpb	$6, %al
	je	L104
	.loc 2 57 0 discriminator 5
	movl	__imp___iob, %eax
	addl	$64, %eax
	movl	%eax, 12(%esp)
	movl	$29, 8(%esp)
	movl	$1, 4(%esp)
	movl	$LC0, (%esp)
	call	_fwrite
	movl	$1, (%esp)
	call	_exit
L104:
	.loc 2 57 0 discriminator 6
	movl	___sput+24, %eax
	testl	%eax, %eax
	jne	L105
	.loc 2 57 0 discriminator 7
	movl	___sput, %eax
	movl	%eax, 12(%esp)
	movl	$27, 8(%esp)
	movl	$1, 4(%esp)
	movl	$LC1, (%esp)
	call	_fwrite
	movl	$1, (%esp)
	call	_exit
L105:
	.loc 2 57 0 discriminator 8
	movl	___sput+32, %eax
	testl	%eax, %eax
	je	L106
	.loc 2 57 0 discriminator 9
	movl	___sput+40, %eax
	movl	%eax, 72(%esp)
	movl	$0, 76(%esp)
	fildq	72(%esp)
	fstpl	88(%esp)
	fldl	88(%esp)
	fldt	LC37
	fmulp	%st, %st(1)
	movl	___sput+32, %eax
	movl	%eax, 72(%esp)
	movl	$0, 76(%esp)
	fildq	72(%esp)
	fstpl	88(%esp)
	fldl	88(%esp)
	fdivrp	%st, %st(1)
	fstps	84(%esp)
	movl	84(%esp), %eax
	jmp	L107
L106:
	.loc 2 57 0 discriminator 10
	movl	LC36, %eax
L107:
	.loc 2 57 0 discriminator 12
	movl	%eax, 108(%esp)
	flds	108(%esp)
	fstpl	72(%esp)
	movl	72(%esp), %eax
	movl	76(%esp), %edx
	movl	___sput+40, %edi
	movl	___sput+36, %esi
	movl	___sput+32, %ebx
	movl	___sput, %ecx
	movl	%eax, 20(%esp)
	movl	%edx, 24(%esp)
	movl	%edi, 16(%esp)
	movl	%esi, 12(%esp)
	movl	%ebx, 8(%esp)
	movl	$LC38, 4(%esp)
	movl	%ecx, (%esp)
	call	_fprintf
	movl	___sput+8, %edx
	movl	___sput+32, %eax
	addl	%edx, %eax
	movl	%eax, ___sput+8
	movl	___sput+16, %edx
	movl	___sput+36, %eax
	addl	%edx, %eax
	movl	%eax, ___sput+16
	movl	___sput+20, %edx
	movl	___sput+40, %eax
	addl	%edx, %eax
	movl	%eax, ___sput+20
	movl	$20, 8(%esp)
	movl	$0, 4(%esp)
	movl	$___sput+24, (%esp)
	call	_memset
L103:
LBE2:
	.loc 2 57 0 discriminator 13
	movl	$LC39, ___sput+24
	movl	___sput+12, %eax
	incl	%eax
	movl	%eax, ___sput+12
	movl	___sput+12, %eax
	movl	%eax, ___sput+28
	movl	___sput+24, %ecx
	movl	___sput+28, %edx
	movl	___sput, %eax
	movl	%ecx, 12(%esp)
	movl	%edx, 8(%esp)
	movl	$LC40, 4(%esp)
	movl	%eax, (%esp)
	call	_fprintf
	.loc 2 58 0 is_stmt 1 discriminator 13
	movb	___sput+4, %al
	cmpb	$6, %al
	je	L108
	.loc 2 58 0 is_stmt 0 discriminator 1
	movl	__imp___iob, %eax
	addl	$64, %eax
	movl	%eax, 12(%esp)
	movl	$29, 8(%esp)
	movl	$1, 4(%esp)
	movl	$LC0, (%esp)
	call	_fwrite
	movl	$1, (%esp)
	call	_exit
L108:
	.loc 2 58 0 discriminator 2
	movl	___sput+24, %eax
	testl	%eax, %eax
	jne	L109
	.loc 2 58 0 discriminator 3
	movl	___sput, %eax
	movl	%eax, 12(%esp)
	movl	$27, 8(%esp)
	movl	$1, 4(%esp)
	movl	$LC1, (%esp)
	call	_fwrite
	movl	$1, (%esp)
	call	_exit
L109:
	.loc 2 58 0 discriminator 4
	movl	$8, 8(%esp)
	movl	$0, 4(%esp)
	movl	$___sput+44, (%esp)
	call	_memset
	movl	$LC41, ___sput+44
	call	_test_vowels_present
	.loc 2 60 0 is_stmt 1 discriminator 4
	movb	___sput+4, %al
	cmpb	$6, %al
	je	L110
	.loc 2 60 0 is_stmt 0 discriminator 1
	movl	__imp___iob, %eax
	addl	$64, %eax
	movl	%eax, 12(%esp)
	movl	$29, 8(%esp)
	movl	$1, 4(%esp)
	movl	$LC0, (%esp)
	call	_fwrite
	movl	$1, (%esp)
	call	_exit
L110:
	.loc 2 60 0 discriminator 2
	movl	___sput+24, %eax
	testl	%eax, %eax
	je	L111
LBB3:
	.loc 2 60 0 discriminator 3
	movl	LC36, %eax
	movl	%eax, 104(%esp)
	movb	___sput+4, %al
	cmpb	$6, %al
	je	L112
	.loc 2 60 0 discriminator 5
	movl	__imp___iob, %eax
	addl	$64, %eax
	movl	%eax, 12(%esp)
	movl	$29, 8(%esp)
	movl	$1, 4(%esp)
	movl	$LC0, (%esp)
	call	_fwrite
	movl	$1, (%esp)
	call	_exit
L112:
	.loc 2 60 0 discriminator 6
	movl	___sput+24, %eax
	testl	%eax, %eax
	jne	L113
	.loc 2 60 0 discriminator 7
	movl	___sput, %eax
	movl	%eax, 12(%esp)
	movl	$27, 8(%esp)
	movl	$1, 4(%esp)
	movl	$LC1, (%esp)
	call	_fwrite
	movl	$1, (%esp)
	call	_exit
L113:
	.loc 2 60 0 discriminator 8
	movl	___sput+32, %eax
	testl	%eax, %eax
	je	L114
	.loc 2 60 0 discriminator 9
	movl	___sput+40, %eax
	movl	%eax, 72(%esp)
	movl	$0, 76(%esp)
	fildq	72(%esp)
	fstpl	88(%esp)
	fldl	88(%esp)
	fldt	LC37
	fmulp	%st, %st(1)
	movl	___sput+32, %eax
	movl	%eax, 72(%esp)
	movl	$0, 76(%esp)
	fildq	72(%esp)
	fstpl	88(%esp)
	fldl	88(%esp)
	fdivrp	%st, %st(1)
	fstps	84(%esp)
	movl	84(%esp), %eax
	jmp	L115
L114:
	.loc 2 60 0 discriminator 10
	movl	LC36, %eax
L115:
	.loc 2 60 0 discriminator 12
	movl	%eax, 104(%esp)
	flds	104(%esp)
	fstpl	72(%esp)
	movl	72(%esp), %eax
	movl	76(%esp), %edx
	movl	___sput+40, %edi
	movl	___sput+36, %esi
	movl	___sput+32, %ebx
	movl	___sput, %ecx
	movl	%eax, 20(%esp)
	movl	%edx, 24(%esp)
	movl	%edi, 16(%esp)
	movl	%esi, 12(%esp)
	movl	%ebx, 8(%esp)
	movl	$LC38, 4(%esp)
	movl	%ecx, (%esp)
	call	_fprintf
	movl	___sput+8, %edx
	movl	___sput+32, %eax
	addl	%edx, %eax
	movl	%eax, ___sput+8
	movl	___sput+16, %edx
	movl	___sput+36, %eax
	addl	%edx, %eax
	movl	%eax, ___sput+16
	movl	___sput+20, %edx
	movl	___sput+40, %eax
	addl	%edx, %eax
	movl	%eax, ___sput+20
	movl	$20, 8(%esp)
	movl	$0, 4(%esp)
	movl	$___sput+24, (%esp)
	call	_memset
L111:
LBE3:
	.loc 2 60 0 discriminator 13
	movl	$LC42, ___sput+24
	movl	___sput+12, %eax
	incl	%eax
	movl	%eax, ___sput+12
	movl	___sput+12, %eax
	movl	%eax, ___sput+28
	movl	___sput+24, %ecx
	movl	___sput+28, %edx
	movl	___sput, %eax
	movl	%ecx, 12(%esp)
	movl	%edx, 8(%esp)
	movl	$LC40, 4(%esp)
	movl	%eax, (%esp)
	call	_fprintf
	.loc 2 61 0 is_stmt 1 discriminator 13
	movb	___sput+4, %al
	cmpb	$6, %al
	je	L116
	.loc 2 61 0 is_stmt 0 discriminator 1
	movl	__imp___iob, %eax
	addl	$64, %eax
	movl	%eax, 12(%esp)
	movl	$29, 8(%esp)
	movl	$1, 4(%esp)
	movl	$LC0, (%esp)
	call	_fwrite
	movl	$1, (%esp)
	call	_exit
L116:
	.loc 2 61 0 discriminator 2
	movl	___sput+24, %eax
	testl	%eax, %eax
	jne	L117
	.loc 2 61 0 discriminator 3
	movl	___sput, %eax
	movl	%eax, 12(%esp)
	movl	$27, 8(%esp)
	movl	$1, 4(%esp)
	movl	$LC1, (%esp)
	call	_fwrite
	movl	$1, (%esp)
	call	_exit
L117:
	.loc 2 61 0 discriminator 4
	movl	$8, 8(%esp)
	movl	$0, 4(%esp)
	movl	$___sput+44, (%esp)
	call	_memset
	movl	$LC43, ___sput+44
	call	_test_no_vowels_present
LBB4:
	.loc 2 63 0 is_stmt 1 discriminator 4
	movl	LC36, %eax
	movl	%eax, 100(%esp)
	movb	___sput+4, %al
	cmpb	$6, %al
	je	L118
	.loc 2 63 0 is_stmt 0 discriminator 1
	movl	__imp___iob, %eax
	addl	$64, %eax
	movl	%eax, 12(%esp)
	movl	$29, 8(%esp)
	movl	$1, 4(%esp)
	movl	$LC0, (%esp)
	call	_fwrite
	movl	$1, (%esp)
	call	_exit
L118:
	.loc 2 63 0 discriminator 2
	movl	___sput+24, %eax
	testl	%eax, %eax
	je	L119
LBB5:
	.loc 2 63 0 discriminator 3
	movl	LC36, %eax
	movl	%eax, 96(%esp)
	movb	___sput+4, %al
	cmpb	$6, %al
	je	L120
	.loc 2 63 0 discriminator 5
	movl	__imp___iob, %eax
	addl	$64, %eax
	movl	%eax, 12(%esp)
	movl	$29, 8(%esp)
	movl	$1, 4(%esp)
	movl	$LC0, (%esp)
	call	_fwrite
	movl	$1, (%esp)
	call	_exit
L120:
	.loc 2 63 0 discriminator 6
	movl	___sput+24, %eax
	testl	%eax, %eax
	jne	L121
	.loc 2 63 0 discriminator 7
	movl	___sput, %eax
	movl	%eax, 12(%esp)
	movl	$27, 8(%esp)
	movl	$1, 4(%esp)
	movl	$LC1, (%esp)
	call	_fwrite
	movl	$1, (%esp)
	call	_exit
L121:
	.loc 2 63 0 discriminator 8
	movl	___sput+32, %eax
	testl	%eax, %eax
	je	L122
	.loc 2 63 0 discriminator 9
	movl	___sput+40, %eax
	movl	%eax, 72(%esp)
	movl	$0, 76(%esp)
	fildq	72(%esp)
	fstpl	88(%esp)
	fldl	88(%esp)
	fldt	LC37
	fmulp	%st, %st(1)
	movl	___sput+32, %eax
	movl	%eax, 72(%esp)
	movl	$0, 76(%esp)
	fildq	72(%esp)
	fstpl	88(%esp)
	fldl	88(%esp)
	fdivrp	%st, %st(1)
	fstps	84(%esp)
	movl	84(%esp), %eax
	jmp	L123
L122:
	.loc 2 63 0 discriminator 10
	movl	LC36, %eax
L123:
	.loc 2 63 0 discriminator 12
	movl	%eax, 96(%esp)
	flds	96(%esp)
	fstpl	72(%esp)
	movl	72(%esp), %eax
	movl	76(%esp), %edx
	movl	___sput+40, %edi
	movl	___sput+36, %esi
	movl	___sput+32, %ebx
	movl	___sput, %ecx
	movl	%eax, 20(%esp)
	movl	%edx, 24(%esp)
	movl	%edi, 16(%esp)
	movl	%esi, 12(%esp)
	movl	%ebx, 8(%esp)
	movl	$LC38, 4(%esp)
	movl	%ecx, (%esp)
	call	_fprintf
	movl	___sput+8, %edx
	movl	___sput+32, %eax
	addl	%edx, %eax
	movl	%eax, ___sput+8
	movl	___sput+16, %edx
	movl	___sput+36, %eax
	addl	%edx, %eax
	movl	%eax, ___sput+16
	movl	___sput+20, %edx
	movl	___sput+40, %eax
	addl	%edx, %eax
	movl	%eax, ___sput+20
	movl	$20, 8(%esp)
	movl	$0, 4(%esp)
	movl	$___sput+24, (%esp)
	call	_memset
L119:
LBE5:
	.loc 2 63 0 discriminator 13
	movl	___sput+8, %eax
	testl	%eax, %eax
	je	L124
	.loc 2 63 0 discriminator 14
	movl	___sput+20, %eax
	movl	%eax, 72(%esp)
	movl	$0, 76(%esp)
	fildq	72(%esp)
	fstpl	88(%esp)
	fldl	88(%esp)
	fldt	LC37
	fmulp	%st, %st(1)
	movl	___sput+8, %eax
	movl	%eax, 72(%esp)
	movl	$0, 76(%esp)
	fildq	72(%esp)
	fstpl	88(%esp)
	fldl	88(%esp)
	fdivrp	%st, %st(1)
	fstps	84(%esp)
	movl	84(%esp), %eax
	jmp	L125
L124:
	.loc 2 63 0 discriminator 15
	movl	LC36, %eax
L125:
	.loc 2 63 0 discriminator 17
	movl	%eax, 100(%esp)
	movl	$0, (%esp)
	call	_time
	movl	%eax, ___sput+72
	movl	___sput+20, %eax
	testl	%eax, %eax
	jne	L126
	.loc 2 63 0 discriminator 18
	movl	$LC44, 72(%esp)
	jmp	L127
L126:
	.loc 2 63 0 discriminator 19
	movl	$LC45, 72(%esp)
L127:
	.loc 2 63 0 discriminator 21
	flds	100(%esp)
	fstpl	64(%esp)
	movl	64(%esp), %ebx
	movl	68(%esp), %esi
	movl	___sput+20, %eax
	movl	%eax, 64(%esp)
	movl	___sput+16, %edi
	movl	%edi, 80(%esp)
	movl	___sput+68, %edx
	movl	___sput+72, %eax
	movl	%edx, 4(%esp)
	movl	%eax, (%esp)
	call	_difftime
	fstpl	56(%esp)
	fldl	56(%esp)
	movl	___sput+12, %ecx
	movl	%ecx, %eax
	movl	___sput+8, %edi
	movl	___sput, %ecx
	movl	72(%esp), %edx
	movl	%edx, 40(%esp)
	movl	%ebx, 32(%esp)
	movl	%esi, 36(%esp)
	movl	64(%esp), %esi
	movl	%esi, 28(%esp)
	movl	80(%esp), %ebx
	movl	%ebx, 24(%esp)
	fstpl	16(%esp)
	movl	%eax, 12(%esp)
	movl	%edi, 8(%esp)
	movl	$LC46, 4(%esp)
	movl	%ecx, (%esp)
	call	_fprintf
LBE4:
	.loc 2 65 0 is_stmt 1 discriminator 21
	movl	___sput+20, %eax
	testl	%eax, %eax
	setne	%al
	movzbl	%al, %eax
	.loc 2 66 0 discriminator 21
	leal	-12(%ebp), %esp
	popl	%ebx
	.cfi_restore 3
	popl	%esi
	.cfi_restore 6
	popl	%edi
	.cfi_restore 7
	popl	%ebp
	.cfi_restore 5
	.cfi_def_cfa 4, 4
	ret
	.cfi_endproc
LFE13:
	.section .rdata,"dr"
	.align 4
LC36:
	.long	0
	.align 16
LC37:
	.long	0
	.long	-939524096
	.long	16389
	.text
Letext0:
	.file 3 "d:/programm/mingw/include/parts/time.h"
	.file 4 "E:/NeuOrga/Programmieren/c_cpp/github_os/input/src/os_sim/../os_base/os_sput.h"