	.file	"hal_driver_fs_fat.c"
	.text
Ltext0:
	.comm	_FILE_HANDLER_POOL, 20, 2
.lcomm _FILE_HANDLER_POOL_USED,20,4
	.def	_fopen;	.scl	3;	.type	32;	.endef
_fopen:
LFB0:
	.file 1 "E:/NeuOrga/Programmieren/c_cpp/github_os/input/src/os_sim/hal_driver_fs_fat.c"
	.loc 1 12 0
	.cfi_startproc
	pushl	%ebp
	.cfi_def_cfa_offset 8
	.cfi_offset 5, -8
	movl	%esp, %ebp
	.cfi_def_cfa_register 5
	subl	$16, %esp
	.loc 1 14 0
	movl	$0, -8(%ebp)
	.loc 1 15 0
	movl	$0, -12(%ebp)
	.loc 1 17 0
	movl	$0, -4(%ebp)
	jmp	L2
L21:
	.loc 1 19 0
	movl	-4(%ebp), %eax
	movl	_FILE_HANDLER_POOL_USED(,%eax,4), %eax
	testl	%eax, %eax
	jne	L3
	.loc 1 22 0
	movl	-4(%ebp), %eax
	movl	$1, _FILE_HANDLER_POOL_USED(,%eax,4)
	.loc 1 23 0
	movl	-4(%ebp), %eax
	movl	%eax, -12(%ebp)
	.loc 1 26 0
	movl	-12(%ebp), %eax
	movl	_FILE_HANDLER_POOL(,%eax,4), %eax
	movl	%eax, -8(%ebp)
	.loc 1 35 0
	movl	12(%ebp), %eax
	movb	(%eax), %al
	movsbl	%al, %eax
	cmpl	$114, %eax
	je	L5
	cmpl	$119, %eax
	je	L6
	cmpl	$97, %eax
	je	L7
	.loc 1 68 0
	jmp	L10
L5:
	.loc 1 38 0
	movl	12(%ebp), %eax
	incl	%eax
	movb	(%eax), %al
	cmpb	$43, %al
	jne	L8
	.loc 1 40 0
	movl	-8(%ebp), %eax
	movb	(%eax), %dl
	orl	$8, %edx
	movb	%dl, (%eax)
	.loc 1 46 0
	jmp	L10
L8:
	.loc 1 44 0
	movl	-8(%ebp), %eax
	movb	(%eax), %dl
	orl	$1, %edx
	movb	%dl, (%eax)
	.loc 1 46 0
	jmp	L10
L6:
	.loc 1 48 0
	movl	12(%ebp), %eax
	incl	%eax
	movb	(%eax), %al
	cmpb	$43, %al
	jne	L11
	.loc 1 50 0
	movl	-8(%ebp), %eax
	movb	(%eax), %dl
	orl	$16, %edx
	movb	%dl, (%eax)
	.loc 1 56 0
	jmp	L10
L11:
	.loc 1 54 0
	movl	-8(%ebp), %eax
	movb	(%eax), %dl
	orl	$2, %edx
	movb	%dl, (%eax)
	.loc 1 56 0
	jmp	L10
L7:
	.loc 1 58 0
	movl	12(%ebp), %eax
	incl	%eax
	movb	(%eax), %al
	cmpb	$43, %al
	jne	L13
	.loc 1 60 0
	movl	-8(%ebp), %eax
	movb	(%eax), %dl
	orl	$32, %edx
	movb	%dl, (%eax)
	.loc 1 66 0
	jmp	L23
L13:
	.loc 1 64 0
	movl	-8(%ebp), %eax
	movb	(%eax), %dl
	orl	$4, %edx
	movb	%dl, (%eax)
L23:
	.loc 1 66 0
	nop
L10:
	.loc 1 71 0
	movl	$0, -4(%ebp)
	jmp	L15
L18:
	.loc 1 73 0
	movl	8(%ebp), %edx
	movl	-4(%ebp), %eax
	addl	%edx, %eax
	movb	(%eax), %al
	testb	%al, %al
	jne	L16
	.loc 1 75 0
	movl	-4(%ebp), %eax
	leal	1(%eax), %edx
	movl	-8(%ebp), %eax
	movl	%edx, 8(%eax)
	.loc 1 76 0
	jmp	L17
L16:
	.loc 1 71 0 discriminator 2
	incl	-4(%ebp)
L15:
	.loc 1 71 0 is_stmt 0 discriminator 1
	movl	-8(%ebp), %eax
	movl	4(%eax), %eax
	cmpl	-4(%ebp), %eax
	ja	L18
L17:
	.loc 1 79 0 is_stmt 1
	movl	$0, -4(%ebp)
	jmp	L19
L20:
	.loc 1 81 0 discriminator 3
	movl	8(%ebp), %edx
	movl	-4(%ebp), %eax
	addl	%edx, %eax
	movb	(%eax), %al
	movb	%al, %dl
	movl	-8(%ebp), %ecx
	movl	-4(%ebp), %eax
	addl	%ecx, %eax
	movb	%dl, 12(%eax)
	.loc 1 79 0 discriminator 3
	incl	-4(%ebp)
L19:
	.loc 1 79 0 is_stmt 0 discriminator 1
	movl	-8(%ebp), %eax
	movl	8(%eax), %eax
	cmpl	-4(%ebp), %eax
	ja	L20
	.loc 1 85 0 is_stmt 1
	movl	$0, -8(%ebp)
L3:
	.loc 1 17 0 discriminator 2
	incl	-4(%ebp)
L2:
	.loc 1 17 0 is_stmt 0 discriminator 1
	cmpl	$4, -4(%ebp)
	jbe	L21
	.loc 1 89 0 is_stmt 1
	movl	-8(%ebp), %eax
	.loc 1 90 0
	leave
	.cfi_restore 5
	.cfi_def_cfa 4, 4
	ret
	.cfi_endproc
LFE0:
	.globl	_freopen
	.def	_freopen;	.scl	2;	.type	32;	.endef
_freopen:
LFB1:
	.loc 1 92 0
	.cfi_startproc
	pushl	%ebp
	.cfi_def_cfa_offset 8
	.cfi_offset 5, -8
	movl	%esp, %ebp
	.cfi_def_cfa_register 5
	subl	$24, %esp
	.loc 1 93 0
	movl	16(%ebp), %eax
	movl	%eax, (%esp)
	call	_fclose
	.loc 1 94 0
	movl	12(%ebp), %eax
	movl	%eax, 4(%esp)
	movl	8(%ebp), %eax
	movl	%eax, (%esp)
	call	_fopen
	.loc 1 95 0
	leave
	.cfi_restore 5
	.cfi_def_cfa 4, 4
	ret
	.cfi_endproc
LFE1:
	.globl	_fflush
	.def	_fflush;	.scl	2;	.type	32;	.endef
_fflush:
LFB2:
	.loc 1 97 0
	.cfi_startproc
	pushl	%ebp
	.cfi_def_cfa_offset 8
	.cfi_offset 5, -8
	movl	%esp, %ebp
	.cfi_def_cfa_register 5
	.loc 1 99 0
	popl	%ebp
	.cfi_restore 5
	.cfi_def_cfa 4, 4
	ret
	.cfi_endproc
LFE2:
	.def	_fclose;	.scl	3;	.type	32;	.endef
_fclose:
LFB3:
	.loc 1 101 0
	.cfi_startproc
	pushl	%ebp
	.cfi_def_cfa_offset 8
	.cfi_offset 5, -8
	movl	%esp, %ebp
	.cfi_def_cfa_register 5
	subl	$16, %esp
	.loc 1 102 0
	movb	$0, -1(%ebp)
	.loc 1 104 0
	movl	8(%ebp), %eax
	movb	(%eax), %dl
	andl	$-2, %edx
	movb	%dl, (%eax)
	.loc 1 105 0
	movl	8(%ebp), %eax
	movb	(%eax), %dl
	andl	$-3, %edx
	movb	%dl, (%eax)
	.loc 1 106 0
	movl	8(%ebp), %eax
	movb	(%eax), %dl
	andl	$-5, %edx
	movb	%dl, (%eax)
	.loc 1 107 0
	movl	8(%ebp), %eax
	movb	(%eax), %dl
	andl	$-9, %edx
	movb	%dl, (%eax)
	.loc 1 108 0
	movl	8(%ebp), %eax
	movb	(%eax), %dl
	andl	$-17, %edx
	movb	%dl, (%eax)
	.loc 1 109 0
	movl	8(%ebp), %eax
	movb	(%eax), %dl
	andl	$-33, %edx
	movb	%dl, (%eax)
	.loc 1 110 0
	movb	$0, -1(%ebp)
	jmp	L28
L29:
	.loc 1 112 0 discriminator 3
	movzbl	-1(%ebp), %eax
	movl	8(%ebp), %edx
	movb	$0, 12(%edx,%eax)
	.loc 1 110 0 discriminator 3
	movb	-1(%ebp), %al
	incl	%eax
	movb	%al, -1(%ebp)
L28:
	.loc 1 110 0 is_stmt 0 discriminator 1
	movzbl	-1(%ebp), %edx
	movl	8(%ebp), %eax
	movl	4(%eax), %eax
	cmpl	%eax, %edx
	jb	L29
	.loc 1 114 0 is_stmt 1
	movl	8(%ebp), %eax
	movl	$0, 8(%eax)
	.loc 1 115 0
	movl	$0, 8(%ebp)
	.loc 1 116 0
	leave
	.cfi_restore 5
	.cfi_def_cfa 4, 4
	ret
	.cfi_endproc
LFE3:
	.globl	_remove
	.def	_remove;	.scl	2;	.type	32;	.endef
_remove:
LFB4:
	.loc 1 118 0
	.cfi_startproc
	pushl	%ebp
	.cfi_def_cfa_offset 8
	.cfi_offset 5, -8
	movl	%esp, %ebp
	.cfi_def_cfa_register 5
	.loc 1 120 0
	popl	%ebp
	.cfi_restore 5
	.cfi_def_cfa 4, 4
	ret
	.cfi_endproc
LFE4:
	.globl	_rename
	.def	_rename;	.scl	2;	.type	32;	.endef
_rename:
LFB5:
	.loc 1 122 0
	.cfi_startproc
	pushl	%ebp
	.cfi_def_cfa_offset 8
	.cfi_offset 5, -8
	movl	%esp, %ebp
	.cfi_def_cfa_register 5
	.loc 1 124 0
	popl	%ebp
	.cfi_restore 5
	.cfi_def_cfa 4, 4
	ret
	.cfi_endproc
LFE5:
	.globl	_fread
	.def	_fread;	.scl	2;	.type	32;	.endef
_fread:
LFB6:
	.loc 1 126 0
	.cfi_startproc
	pushl	%ebp
	.cfi_def_cfa_offset 8
	.cfi_offset 5, -8
	movl	%esp, %ebp
	.cfi_def_cfa_register 5
	.loc 1 128 0
	popl	%ebp
	.cfi_restore 5
	.cfi_def_cfa 4, 4
	ret
	.cfi_endproc
LFE6:
	.globl	_fwrite
	.def	_fwrite;	.scl	2;	.type	32;	.endef
_fwrite:
LFB7:
	.loc 1 130 0
	.cfi_startproc
	pushl	%ebp
	.cfi_def_cfa_offset 8
	.cfi_offset 5, -8
	movl	%esp, %ebp
	.cfi_def_cfa_register 5
	.loc 1 132 0
	popl	%ebp
	.cfi_restore 5
	.cfi_def_cfa 4, 4
	ret
	.cfi_endproc
LFE7:
Letext0:
	.file 2 "E:/NeuOrga/Programmieren/c_cpp/github_os/input/src/os_sim/../os_base/../os_base/os_base_types.h"
	.file 3 "E:/NeuOrga/Programmieren/c_cpp/github_os/input/src/os_sim/../os_drivers/hal_driver_fs_fat.h"