	.file	"lld_global.c"
	.text
Ltext0:
	.globl	_Get_core_id
	.def	_Get_core_id;	.scl	2;	.type	32;	.endef
_Get_core_id:
LFB0:
	.file 1 "E:/NeuOrga/Programmieren/c_cpp/github_os/input/src/os_sim/lld_global.c"
	.loc 1 3 0
	.cfi_startproc
	pushl	%ebp
	.cfi_def_cfa_offset 8
	.cfi_offset 5, -8
	movl	%esp, %ebp
	.cfi_def_cfa_register 5
	subl	$16, %esp
	.loc 1 20 0
	movl	$0, -4(%ebp)
	.loc 1 21 0
	movl	-4(%ebp), %eax
	.loc 1 22 0
	leave
	.cfi_restore 5
	.cfi_def_cfa 4, 4
	ret
	.cfi_endproc
LFE0:
	.globl	_LLF_SAVE_TASK_STACK
	.def	_LLF_SAVE_TASK_STACK;	.scl	2;	.type	32;	.endef
_LLF_SAVE_TASK_STACK:
LFB1:
	.loc 1 24 0
	.cfi_startproc
	pushl	%ebp
	.cfi_def_cfa_offset 8
	.cfi_offset 5, -8
	movl	%esp, %ebp
	.cfi_def_cfa_register 5
	.loc 1 29 0
	movl	8(%ebp), %eax
	movb	(%eax), %dl
	movl	8(%ebp), %eax
	movb	%dl, (%eax)
	.loc 1 31 0
	popl	%ebp
	.cfi_restore 5
	.cfi_def_cfa 4, 4
	ret
	.cfi_endproc
LFE1:
	.globl	_LLF_SAVE_REGISTERS
	.def	_LLF_SAVE_REGISTERS;	.scl	2;	.type	32;	.endef
_LLF_SAVE_REGISTERS:
LFB2:
	.loc 1 33 0
	.cfi_startproc
	pushl	%ebp
	.cfi_def_cfa_offset 8
	.cfi_offset 5, -8
	movl	%esp, %ebp
	.cfi_def_cfa_register 5
	.loc 1 35 0
	popl	%ebp
	.cfi_restore 5
	.cfi_def_cfa 4, 4
	ret
	.cfi_endproc
LFE2:
	.globl	_LLF_RESTORE_TASK_STACK
	.def	_LLF_RESTORE_TASK_STACK;	.scl	2;	.type	32;	.endef
_LLF_RESTORE_TASK_STACK:
LFB3:
	.loc 1 37 0
	.cfi_startproc
	pushl	%ebp
	.cfi_def_cfa_offset 8
	.cfi_offset 5, -8
	movl	%esp, %ebp
	.cfi_def_cfa_register 5
	.loc 1 38 0
	movl	8(%ebp), %eax
	movb	(%eax), %dl
	movl	8(%ebp), %eax
	movb	%dl, (%eax)
	.loc 1 39 0
	popl	%ebp
	.cfi_restore 5
	.cfi_def_cfa 4, 4
	ret
	.cfi_endproc
LFE3:
	.globl	_LLF_RESTORE_REGISTERS
	.def	_LLF_RESTORE_REGISTERS;	.scl	2;	.type	32;	.endef
_LLF_RESTORE_REGISTERS:
LFB4:
	.loc 1 41 0
	.cfi_startproc
	pushl	%ebp
	.cfi_def_cfa_offset 8
	.cfi_offset 5, -8
	movl	%esp, %ebp
	.cfi_def_cfa_register 5
	.loc 1 44 0
	popl	%ebp
	.cfi_restore 5
	.cfi_def_cfa 4, 4
	ret
	.cfi_endproc
LFE4:
	.globl	_LLF_RESTORE_SYSTEM_STACK
	.def	_LLF_RESTORE_SYSTEM_STACK;	.scl	2;	.type	32;	.endef
_LLF_RESTORE_SYSTEM_STACK:
LFB5:
	.loc 1 46 0
	.cfi_startproc
	pushl	%ebp
	.cfi_def_cfa_offset 8
	.cfi_offset 5, -8
	movl	%esp, %ebp
	.cfi_def_cfa_register 5
	.loc 1 47 0
	movl	8(%ebp), %eax
	movb	(%eax), %dl
	movl	8(%ebp), %eax
	movb	%dl, (%eax)
	.loc 1 49 0
	popl	%ebp
	.cfi_restore 5
	.cfi_def_cfa 4, 4
	ret
	.cfi_endproc
LFE5:
	.globl	_LLF_SAVE_SYSTEM_STACK
	.def	_LLF_SAVE_SYSTEM_STACK;	.scl	2;	.type	32;	.endef
_LLF_SAVE_SYSTEM_STACK:
LFB6:
	.loc 1 51 0
	.cfi_startproc
	pushl	%ebp
	.cfi_def_cfa_offset 8
	.cfi_offset 5, -8
	movl	%esp, %ebp
	.cfi_def_cfa_register 5
	.loc 1 52 0
	movl	8(%ebp), %eax
	movb	(%eax), %dl
	movl	8(%ebp), %eax
	movb	%dl, (%eax)
	.loc 1 54 0
	popl	%ebp
	.cfi_restore 5
	.cfi_def_cfa 4, 4
	ret
	.cfi_endproc
LFE6:
	.globl	_LLF_CLEAR_ALL_GP_REGISTERS
	.def	_LLF_CLEAR_ALL_GP_REGISTERS;	.scl	2;	.type	32;	.endef
_LLF_CLEAR_ALL_GP_REGISTERS:
LFB7:
	.loc 1 56 0
	.cfi_startproc
	pushl	%ebp
	.cfi_def_cfa_offset 8
	.cfi_offset 5, -8
	movl	%esp, %ebp
	.cfi_def_cfa_register 5
	.loc 1 58 0
	popl	%ebp
	.cfi_restore 5
	.cfi_def_cfa 4, 4
	ret
	.cfi_endproc
LFE7:
	.globl	_LLF_PERFORM_RAM_CHECK
	.def	_LLF_PERFORM_RAM_CHECK;	.scl	2;	.type	32;	.endef
_LLF_PERFORM_RAM_CHECK:
LFB8:
	.loc 1 60 0
	.cfi_startproc
	pushl	%ebp
	.cfi_def_cfa_offset 8
	.cfi_offset 5, -8
	movl	%esp, %ebp
	.cfi_def_cfa_register 5
	.loc 1 62 0
	popl	%ebp
	.cfi_restore 5
	.cfi_def_cfa 4, 4
	ret
	.cfi_endproc
LFE8:
Letext0:
	.file 2 "E:/NeuOrga/Programmieren/c_cpp/github_os/input/src/os_sim/../os_base/../os_base/os_base_types.h"
	.file 3 "E:/NeuOrga/Programmieren/c_cpp/github_os/input/src/os_sim/../os_base/../os_sim/lld_core.h"
	.file 4 "E:/NeuOrga/Programmieren/c_cpp/github_os/input/src/os_sim/../os_base/../os_sim/../os_base/os_task_common.h"