GAS LISTING C:\Users\PRESID~1\AppData\Local\Temp\ccPJOK5j.s 			page 1


   1              		.file	"os_init_task_system_test.c"
   2              		.text
   3              	Ltext0:
   5              	_fprintf:
   6              	LFB0:
   7              		.file 1 "d:/programm/mingw/include/stdio.h"
   1:d:/programm/mingw/include\stdio.h **** /*
   2:d:/programm/mingw/include\stdio.h ****  * stdio.h
   3:d:/programm/mingw/include\stdio.h ****  * This file has no copyright assigned and is placed in the Public Domain.
   4:d:/programm/mingw/include\stdio.h ****  * This file is a part of the mingw-runtime package.
   5:d:/programm/mingw/include\stdio.h ****  * No warranty is given; refer to the file DISCLAIMER within the package.
   6:d:/programm/mingw/include\stdio.h ****  *
   7:d:/programm/mingw/include\stdio.h ****  * Definitions of types and prototypes of functions for standard input and
   8:d:/programm/mingw/include\stdio.h ****  * output.
   9:d:/programm/mingw/include\stdio.h ****  *
  10:d:/programm/mingw/include\stdio.h ****  * NOTE: The file manipulation functions provided by Microsoft seem to
  11:d:/programm/mingw/include\stdio.h ****  * work with either slash (/) or backslash (\) as the directory separator.
  12:d:/programm/mingw/include\stdio.h ****  *
  13:d:/programm/mingw/include\stdio.h ****  */
  14:d:/programm/mingw/include\stdio.h **** 
  15:d:/programm/mingw/include\stdio.h **** #ifndef _STDIO_H_
  16:d:/programm/mingw/include\stdio.h **** #define	_STDIO_H_
  17:d:/programm/mingw/include\stdio.h **** 
  18:d:/programm/mingw/include\stdio.h **** /* All the headers include this file. */
  19:d:/programm/mingw/include\stdio.h **** #include <_mingw.h>
  20:d:/programm/mingw/include\stdio.h **** 
  21:d:/programm/mingw/include\stdio.h **** #ifndef RC_INVOKED
  22:d:/programm/mingw/include\stdio.h **** #define __need_size_t
  23:d:/programm/mingw/include\stdio.h **** #define __need_NULL
  24:d:/programm/mingw/include\stdio.h **** #define __need_wchar_t
  25:d:/programm/mingw/include\stdio.h **** #define	__need_wint_t
  26:d:/programm/mingw/include\stdio.h **** #include <stddef.h>
  27:d:/programm/mingw/include\stdio.h **** #define __need___va_list
  28:d:/programm/mingw/include\stdio.h **** #include <stdarg.h>
  29:d:/programm/mingw/include\stdio.h **** #endif	/* Not RC_INVOKED */
  30:d:/programm/mingw/include\stdio.h **** 
  31:d:/programm/mingw/include\stdio.h **** 
  32:d:/programm/mingw/include\stdio.h **** /* Flags for the iobuf structure  */
  33:d:/programm/mingw/include\stdio.h **** #define	_IOREAD	1 /* currently reading */
  34:d:/programm/mingw/include\stdio.h **** #define	_IOWRT	2 /* currently writing */
  35:d:/programm/mingw/include\stdio.h **** #define	_IORW	0x0080 /* opened as "r+w" */
  36:d:/programm/mingw/include\stdio.h **** 
  37:d:/programm/mingw/include\stdio.h **** 
  38:d:/programm/mingw/include\stdio.h **** /*
  39:d:/programm/mingw/include\stdio.h ****  * The three standard file pointers provided by the run time library.
  40:d:/programm/mingw/include\stdio.h ****  * NOTE: These will go to the bit-bucket silently in GUI applications!
  41:d:/programm/mingw/include\stdio.h ****  */
  42:d:/programm/mingw/include\stdio.h **** #define	STDIN_FILENO	0
  43:d:/programm/mingw/include\stdio.h **** #define	STDOUT_FILENO	1
  44:d:/programm/mingw/include\stdio.h **** #define	STDERR_FILENO	2
  45:d:/programm/mingw/include\stdio.h **** 
  46:d:/programm/mingw/include\stdio.h **** /* Returned by various functions on end of file condition or error. */
  47:d:/programm/mingw/include\stdio.h **** #define	EOF	(-1)
  48:d:/programm/mingw/include\stdio.h **** 
  49:d:/programm/mingw/include\stdio.h **** /*
  50:d:/programm/mingw/include\stdio.h ****  * The maximum length of a file name. You should use GetVolumeInformation
  51:d:/programm/mingw/include\stdio.h ****  * instead of this constant. But hey, this works.
GAS LISTING C:\Users\PRESID~1\AppData\Local\Temp\ccPJOK5j.s 			page 2


  52:d:/programm/mingw/include\stdio.h ****  * Also defined in io.h.
  53:d:/programm/mingw/include\stdio.h ****  */
  54:d:/programm/mingw/include\stdio.h **** #ifndef FILENAME_MAX
  55:d:/programm/mingw/include\stdio.h **** #define	FILENAME_MAX	(260)
  56:d:/programm/mingw/include\stdio.h **** #endif
  57:d:/programm/mingw/include\stdio.h **** 
  58:d:/programm/mingw/include\stdio.h **** /*
  59:d:/programm/mingw/include\stdio.h ****  * The maximum number of files that may be open at once. I have set this to
  60:d:/programm/mingw/include\stdio.h ****  * a conservative number. The actual value may be higher.
  61:d:/programm/mingw/include\stdio.h ****  */
  62:d:/programm/mingw/include\stdio.h **** #define FOPEN_MAX	(20)
  63:d:/programm/mingw/include\stdio.h **** 
  64:d:/programm/mingw/include\stdio.h **** /* After creating this many names, tmpnam and tmpfile return NULL */
  65:d:/programm/mingw/include\stdio.h **** #define TMP_MAX	32767
  66:d:/programm/mingw/include\stdio.h **** /*
  67:d:/programm/mingw/include\stdio.h ****  * Tmpnam, tmpfile and, sometimes, _tempnam try to create
  68:d:/programm/mingw/include\stdio.h ****  * temp files in the root directory of the current drive
  69:d:/programm/mingw/include\stdio.h ****  * (not in pwd, as suggested by some older MS doc's).
  70:d:/programm/mingw/include\stdio.h ****  * Redefining these macros does not effect the CRT functions.
  71:d:/programm/mingw/include\stdio.h ****  */
  72:d:/programm/mingw/include\stdio.h **** #define _P_tmpdir   "\\"
  73:d:/programm/mingw/include\stdio.h **** #ifndef __STRICT_ANSI__
  74:d:/programm/mingw/include\stdio.h **** #define P_tmpdir _P_tmpdir
  75:d:/programm/mingw/include\stdio.h **** #endif
  76:d:/programm/mingw/include\stdio.h **** #define _wP_tmpdir  L"\\"
  77:d:/programm/mingw/include\stdio.h **** 
  78:d:/programm/mingw/include\stdio.h **** /*
  79:d:/programm/mingw/include\stdio.h ****  * The maximum size of name (including NUL) that will be put in the user
  80:d:/programm/mingw/include\stdio.h ****  * supplied buffer caName for tmpnam.
  81:d:/programm/mingw/include\stdio.h ****  * Inferred from the size of the static buffer returned by tmpnam
  82:d:/programm/mingw/include\stdio.h ****  * when passed a NULL argument. May actually be smaller.
  83:d:/programm/mingw/include\stdio.h ****  */
  84:d:/programm/mingw/include\stdio.h **** #define L_tmpnam (16)
  85:d:/programm/mingw/include\stdio.h **** 
  86:d:/programm/mingw/include\stdio.h **** #define _IOFBF    0x0000  /* full buffered */
  87:d:/programm/mingw/include\stdio.h **** #define _IOLBF    0x0040  /* line buffered */
  88:d:/programm/mingw/include\stdio.h **** #define _IONBF    0x0004  /* not buffered */
  89:d:/programm/mingw/include\stdio.h **** 
  90:d:/programm/mingw/include\stdio.h **** #define _IOMYBUF  0x0008  /* stdio malloc()'d buffer */
  91:d:/programm/mingw/include\stdio.h **** #define _IOEOF    0x0010  /* EOF reached on read */
  92:d:/programm/mingw/include\stdio.h **** #define _IOERR    0x0020  /* I/O error from system */
  93:d:/programm/mingw/include\stdio.h **** #define _IOSTRG   0x0040  /* Strange or no file descriptor */
  94:d:/programm/mingw/include\stdio.h **** #ifdef _POSIX_SOURCE
  95:d:/programm/mingw/include\stdio.h **** # define _IOAPPEND 0x0200
  96:d:/programm/mingw/include\stdio.h **** #endif
  97:d:/programm/mingw/include\stdio.h **** /*
  98:d:/programm/mingw/include\stdio.h ****  * The buffer size as used by setbuf such that it is equivalent to
  99:d:/programm/mingw/include\stdio.h ****  * (void) setvbuf(fileSetBuffer, caBuffer, _IOFBF, BUFSIZ).
 100:d:/programm/mingw/include\stdio.h ****  */
 101:d:/programm/mingw/include\stdio.h **** #define	BUFSIZ	512
 102:d:/programm/mingw/include\stdio.h **** 
 103:d:/programm/mingw/include\stdio.h **** /* Constants for nOrigin indicating the position relative to which fseek
 104:d:/programm/mingw/include\stdio.h ****  * sets the file position.  Defined unconditionally since ISO and POSIX
 105:d:/programm/mingw/include\stdio.h ****  * say they are defined here.
 106:d:/programm/mingw/include\stdio.h ****  */
 107:d:/programm/mingw/include\stdio.h **** #define SEEK_SET  0
 108:d:/programm/mingw/include\stdio.h **** #define SEEK_CUR  1
GAS LISTING C:\Users\PRESID~1\AppData\Local\Temp\ccPJOK5j.s 			page 3


 109:d:/programm/mingw/include\stdio.h **** #define SEEK_END  2
 110:d:/programm/mingw/include\stdio.h **** 
 111:d:/programm/mingw/include\stdio.h **** #ifndef	RC_INVOKED
 112:d:/programm/mingw/include\stdio.h **** 
 113:d:/programm/mingw/include\stdio.h **** #ifndef __VALIST
 114:d:/programm/mingw/include\stdio.h **** #ifdef __GNUC__
 115:d:/programm/mingw/include\stdio.h **** #define __VALIST __gnuc_va_list
 116:d:/programm/mingw/include\stdio.h **** #else
 117:d:/programm/mingw/include\stdio.h **** #define __VALIST char*
 118:d:/programm/mingw/include\stdio.h **** #endif
 119:d:/programm/mingw/include\stdio.h **** #endif /* defined __VALIST  */
 120:d:/programm/mingw/include\stdio.h **** 
 121:d:/programm/mingw/include\stdio.h **** /*
 122:d:/programm/mingw/include\stdio.h ****  * The structure underlying the FILE type.
 123:d:/programm/mingw/include\stdio.h ****  *
 124:d:/programm/mingw/include\stdio.h ****  * Some believe that nobody in their right mind should make use of the
 125:d:/programm/mingw/include\stdio.h ****  * internals of this structure. Provided by Pedro A. Aranda Gutiirrez
 126:d:/programm/mingw/include\stdio.h ****  * <paag@tid.es>.
 127:d:/programm/mingw/include\stdio.h ****  */
 128:d:/programm/mingw/include\stdio.h **** #ifndef _FILE_DEFINED
 129:d:/programm/mingw/include\stdio.h **** #define	_FILE_DEFINED
 130:d:/programm/mingw/include\stdio.h **** typedef struct _iobuf
 131:d:/programm/mingw/include\stdio.h **** {
 132:d:/programm/mingw/include\stdio.h **** 	char*	_ptr;
 133:d:/programm/mingw/include\stdio.h **** 	int	_cnt;
 134:d:/programm/mingw/include\stdio.h **** 	char*	_base;
 135:d:/programm/mingw/include\stdio.h **** 	int	_flag;
 136:d:/programm/mingw/include\stdio.h **** 	int	_file;
 137:d:/programm/mingw/include\stdio.h **** 	int	_charbuf;
 138:d:/programm/mingw/include\stdio.h **** 	int	_bufsiz;
 139:d:/programm/mingw/include\stdio.h **** 	char*	_tmpfname;
 140:d:/programm/mingw/include\stdio.h **** } FILE;
 141:d:/programm/mingw/include\stdio.h **** #endif	/* Not _FILE_DEFINED */
 142:d:/programm/mingw/include\stdio.h **** 
 143:d:/programm/mingw/include\stdio.h **** 
 144:d:/programm/mingw/include\stdio.h **** /*
 145:d:/programm/mingw/include\stdio.h ****  * The standard file handles
 146:d:/programm/mingw/include\stdio.h ****  */
 147:d:/programm/mingw/include\stdio.h **** #ifndef __DECLSPEC_SUPPORTED
 148:d:/programm/mingw/include\stdio.h **** 
 149:d:/programm/mingw/include\stdio.h **** extern FILE (*_imp___iob)[];	/* A pointer to an array of FILE */
 150:d:/programm/mingw/include\stdio.h **** 
 151:d:/programm/mingw/include\stdio.h **** #define _iob	(*_imp___iob)	/* An array of FILE */
 152:d:/programm/mingw/include\stdio.h **** 
 153:d:/programm/mingw/include\stdio.h **** #else /* __DECLSPEC_SUPPORTED */
 154:d:/programm/mingw/include\stdio.h **** 
 155:d:/programm/mingw/include\stdio.h **** __MINGW_IMPORT FILE _iob[];	/* An array of FILE imported from DLL. */
 156:d:/programm/mingw/include\stdio.h **** 
 157:d:/programm/mingw/include\stdio.h **** #endif /* __DECLSPEC_SUPPORTED */
 158:d:/programm/mingw/include\stdio.h **** 
 159:d:/programm/mingw/include\stdio.h **** #define stdin	(&_iob[STDIN_FILENO])
 160:d:/programm/mingw/include\stdio.h **** #define stdout	(&_iob[STDOUT_FILENO])
 161:d:/programm/mingw/include\stdio.h **** #define stderr	(&_iob[STDERR_FILENO])
 162:d:/programm/mingw/include\stdio.h **** 
 163:d:/programm/mingw/include\stdio.h **** _BEGIN_C_DECLS
 164:d:/programm/mingw/include\stdio.h **** 
 165:d:/programm/mingw/include\stdio.h **** /*
GAS LISTING C:\Users\PRESID~1\AppData\Local\Temp\ccPJOK5j.s 			page 4


 166:d:/programm/mingw/include\stdio.h ****  * File Operations
 167:d:/programm/mingw/include\stdio.h ****  */
 168:d:/programm/mingw/include\stdio.h **** _CRTIMP FILE* __cdecl __MINGW_NOTHROW	fopen (const char*, const char*);
 169:d:/programm/mingw/include\stdio.h **** _CRTIMP FILE* __cdecl __MINGW_NOTHROW	freopen (const char*, const char*, FILE*);
 170:d:/programm/mingw/include\stdio.h **** _CRTIMP int __cdecl __MINGW_NOTHROW	fflush (FILE*);
 171:d:/programm/mingw/include\stdio.h **** _CRTIMP int __cdecl __MINGW_NOTHROW	fclose (FILE*);
 172:d:/programm/mingw/include\stdio.h **** /* MS puts remove & rename (but not wide versions) in io.h  also */
 173:d:/programm/mingw/include\stdio.h **** _CRTIMP int __cdecl __MINGW_NOTHROW	remove (const char*);
 174:d:/programm/mingw/include\stdio.h **** _CRTIMP int __cdecl __MINGW_NOTHROW	rename (const char*, const char*);
 175:d:/programm/mingw/include\stdio.h **** _CRTIMP FILE* __cdecl __MINGW_NOTHROW	tmpfile (void);
 176:d:/programm/mingw/include\stdio.h **** _CRTIMP char* __cdecl __MINGW_NOTHROW	tmpnam (char*);
 177:d:/programm/mingw/include\stdio.h **** 
 178:d:/programm/mingw/include\stdio.h **** #ifndef __STRICT_ANSI__
 179:d:/programm/mingw/include\stdio.h **** _CRTIMP char* __cdecl __MINGW_NOTHROW	_tempnam (const char*, const char*);
 180:d:/programm/mingw/include\stdio.h **** _CRTIMP int __cdecl __MINGW_NOTHROW	_rmtmp(void);
 181:d:/programm/mingw/include\stdio.h **** _CRTIMP int __cdecl __MINGW_NOTHROW	_unlink (const char*);
 182:d:/programm/mingw/include\stdio.h **** 
 183:d:/programm/mingw/include\stdio.h **** #ifndef	NO_OLDNAMES
 184:d:/programm/mingw/include\stdio.h **** _CRTIMP char* __cdecl __MINGW_NOTHROW	tempnam (const char*, const char*);
 185:d:/programm/mingw/include\stdio.h **** _CRTIMP int __cdecl __MINGW_NOTHROW	rmtmp(void);
 186:d:/programm/mingw/include\stdio.h **** _CRTIMP int __cdecl __MINGW_NOTHROW	unlink (const char*);
 187:d:/programm/mingw/include\stdio.h **** #endif
 188:d:/programm/mingw/include\stdio.h **** #endif /* __STRICT_ANSI__ */
 189:d:/programm/mingw/include\stdio.h **** 
 190:d:/programm/mingw/include\stdio.h **** _CRTIMP int __cdecl __MINGW_NOTHROW	setvbuf (FILE*, char*, int, size_t);
 191:d:/programm/mingw/include\stdio.h **** 
 192:d:/programm/mingw/include\stdio.h **** _CRTIMP void __cdecl __MINGW_NOTHROW	setbuf (FILE*, char*);
 193:d:/programm/mingw/include\stdio.h **** 
 194:d:/programm/mingw/include\stdio.h **** /*
 195:d:/programm/mingw/include\stdio.h ****  * Formatted Output
 196:d:/programm/mingw/include\stdio.h ****  *
 197:d:/programm/mingw/include\stdio.h ****  * MSVCRT implementations are not ANSI C99 conformant...
 198:d:/programm/mingw/include\stdio.h ****  * we offer these conforming alternatives from libmingwex.a
 199:d:/programm/mingw/include\stdio.h ****  */
 200:d:/programm/mingw/include\stdio.h **** #undef  __mingw_stdio_redirect__
 201:d:/programm/mingw/include\stdio.h **** #define __mingw_stdio_redirect__(F) __cdecl __MINGW_NOTHROW __mingw_##F
 202:d:/programm/mingw/include\stdio.h **** 
 203:d:/programm/mingw/include\stdio.h **** extern int __mingw_stdio_redirect__(fprintf)(FILE*, const char*, ...);
 204:d:/programm/mingw/include\stdio.h **** extern int __mingw_stdio_redirect__(printf)(const char*, ...);
 205:d:/programm/mingw/include\stdio.h **** extern int __mingw_stdio_redirect__(sprintf)(char*, const char*, ...);
 206:d:/programm/mingw/include\stdio.h **** extern int __mingw_stdio_redirect__(snprintf)(char*, size_t, const char*, ...);
 207:d:/programm/mingw/include\stdio.h **** extern int __mingw_stdio_redirect__(vfprintf)(FILE*, const char*, __VALIST);
 208:d:/programm/mingw/include\stdio.h **** extern int __mingw_stdio_redirect__(vprintf)(const char*, __VALIST);
 209:d:/programm/mingw/include\stdio.h **** extern int __mingw_stdio_redirect__(vsprintf)(char*, const char*, __VALIST);
 210:d:/programm/mingw/include\stdio.h **** extern int __mingw_stdio_redirect__(vsnprintf)(char*, size_t, const char*, __VALIST);
 211:d:/programm/mingw/include\stdio.h **** 
 212:d:/programm/mingw/include\stdio.h **** #if __USE_MINGW_ANSI_STDIO
 213:d:/programm/mingw/include\stdio.h **** /*
 214:d:/programm/mingw/include\stdio.h ****  * User has expressed a preference for C99 conformance...
 215:d:/programm/mingw/include\stdio.h ****  */
 216:d:/programm/mingw/include\stdio.h **** # undef __mingw_stdio_redirect__
 217:d:/programm/mingw/include\stdio.h **** # ifdef __cplusplus
 218:d:/programm/mingw/include\stdio.h **** /*
 219:d:/programm/mingw/include\stdio.h ****  * For C++ we use inline implementations, to avoid interference
 220:d:/programm/mingw/include\stdio.h ****  * with namespace qualification, which may result from using #defines.
 221:d:/programm/mingw/include\stdio.h ****  */
 222:d:/programm/mingw/include\stdio.h **** #  define __mingw_stdio_redirect__  inline __cdecl __MINGW_NOTHROW
GAS LISTING C:\Users\PRESID~1\AppData\Local\Temp\ccPJOK5j.s 			page 5


 223:d:/programm/mingw/include\stdio.h **** 
 224:d:/programm/mingw/include\stdio.h **** # elif defined __GNUC__
 225:d:/programm/mingw/include\stdio.h **** /*
 226:d:/programm/mingw/include\stdio.h ****  * FIXME: Is there any GCC version prerequisite here?
 227:d:/programm/mingw/include\stdio.h ****  *
 228:d:/programm/mingw/include\stdio.h ****  * We also prefer inline implementations for C, when we can be confident
 229:d:/programm/mingw/include\stdio.h ****  * that the GNU specific __inline__ mechanism is supported.
 230:d:/programm/mingw/include\stdio.h ****  */
 231:d:/programm/mingw/include\stdio.h **** #  define __mingw_stdio_redirect__  static __inline__ __cdecl __MINGW_NOTHROW
 232:d:/programm/mingw/include\stdio.h **** 
 233:d:/programm/mingw/include\stdio.h **** # else
 234:d:/programm/mingw/include\stdio.h **** /*
 235:d:/programm/mingw/include\stdio.h ****  * Can't use inlines; fall back on module local static stubs.
 236:d:/programm/mingw/include\stdio.h ****  */
 237:d:/programm/mingw/include\stdio.h **** #  define __mingw_stdio_redirect__  static __cdecl __MINGW_NOTHROW
 238:d:/programm/mingw/include\stdio.h **** # endif
 239:d:/programm/mingw/include\stdio.h **** 
 240:d:/programm/mingw/include\stdio.h **** __mingw_stdio_redirect__
 241:d:/programm/mingw/include\stdio.h **** int fprintf (FILE *__stream, const char *__format, ...)
 242:d:/programm/mingw/include\stdio.h **** {
   8              		.loc 1 242 0
   9              		.cfi_startproc
  10 0000 55       		pushl	%ebp
  11              		.cfi_def_cfa_offset 8
  12              		.cfi_offset 5, -8
  13 0001 89E5     		movl	%esp, %ebp
  14              		.cfi_def_cfa_register 5
  15 0003 53       		pushl	%ebx
  16 0004 83EC24   		subl	$36, %esp
  17              		.cfi_offset 3, -12
 243:d:/programm/mingw/include\stdio.h ****   register int __retval;
 244:d:/programm/mingw/include\stdio.h ****   __builtin_va_list __local_argv; __builtin_va_start( __local_argv, __format );
  18              		.loc 1 244 0
  19 0007 8D4510   		leal	16(%ebp), %eax
  20 000a 8945F4   		movl	%eax, -12(%ebp)
 245:d:/programm/mingw/include\stdio.h ****   __retval = __mingw_vfprintf( __stream, __format, __local_argv );
  21              		.loc 1 245 0
  22 000d 8B45F4   		movl	-12(%ebp), %eax
  23 0010 89442408 		movl	%eax, 8(%esp)
  24 0014 8B450C   		movl	12(%ebp), %eax
  25 0017 89442404 		movl	%eax, 4(%esp)
  26 001b 8B4508   		movl	8(%ebp), %eax
  27 001e 890424   		movl	%eax, (%esp)
  28 0021 E8000000 		call	___mingw_vfprintf
  28      00
  29 0026 89C3     		movl	%eax, %ebx
 246:d:/programm/mingw/include\stdio.h ****   __builtin_va_end( __local_argv );
 247:d:/programm/mingw/include\stdio.h ****   return __retval;
  30              		.loc 1 247 0
  31 0028 89D8     		movl	%ebx, %eax
 248:d:/programm/mingw/include\stdio.h **** }
  32              		.loc 1 248 0
  33 002a 83C424   		addl	$36, %esp
  34 002d 5B       		popl	%ebx
  35              		.cfi_restore 3
  36 002e 5D       		popl	%ebp
  37              		.cfi_restore 5
GAS LISTING C:\Users\PRESID~1\AppData\Local\Temp\ccPJOK5j.s 			page 6


  38              		.cfi_def_cfa 4, 4
  39 002f C3       		ret
  40              		.cfi_endproc
  41              	LFE0:
  42              	.lcomm ___sput,76,32
  44              	_count_vowels:
  45              	LFB10:
  46              		.file 2 "E:/NeuOrga/Programmieren/c_cpp/github_os/input/src/os_base/os_init_task_system_test.c"
   1:E:/NeuOrga/Programmieren/c_cpp/github_os/input/src/os_base\os_init_task_system_test.c **** #include <stdio.h>
   2:E:/NeuOrga/Programmieren/c_cpp/github_os/input/src/os_base\os_init_task_system_test.c **** 
   3:E:/NeuOrga/Programmieren/c_cpp/github_os/input/src/os_base\os_init_task_system_test.c **** #include "..\os_base\os_sput.h"
   4:E:/NeuOrga/Programmieren/c_cpp/github_os/input/src/os_base\os_init_task_system_test.c **** 
   5:E:/NeuOrga/Programmieren/c_cpp/github_os/input/src/os_base\os_init_task_system_test.c **** 
   6:E:/NeuOrga/Programmieren/c_cpp/github_os/input/src/os_base\os_init_task_system_test.c **** /*
   7:E:/NeuOrga/Programmieren/c_cpp/github_os/input/src/os_base\os_init_task_system_test.c ****  * count_vowels() counts the vowels present in a given string.
   8:E:/NeuOrga/Programmieren/c_cpp/github_os/input/src/os_base\os_init_task_system_test.c ****  *
   9:E:/NeuOrga/Programmieren/c_cpp/github_os/input/src/os_base\os_init_task_system_test.c ****  * While the function basically works as expected, it recognizes
  10:E:/NeuOrga/Programmieren/c_cpp/github_os/input/src/os_base\os_init_task_system_test.c ****  * [aeiou] as vowels only and erroneously does not take uppercase
  11:E:/NeuOrga/Programmieren/c_cpp/github_os/input/src/os_base\os_init_task_system_test.c ****  * vowels into account.
  12:E:/NeuOrga/Programmieren/c_cpp/github_os/input/src/os_base\os_init_task_system_test.c ****  */
  13:E:/NeuOrga/Programmieren/c_cpp/github_os/input/src/os_base\os_init_task_system_test.c **** static int count_vowels(const char *s)
  14:E:/NeuOrga/Programmieren/c_cpp/github_os/input/src/os_base\os_init_task_system_test.c **** {
  47              		.loc 2 14 0
  48              		.cfi_startproc
  49 0030 55       		pushl	%ebp
  50              		.cfi_def_cfa_offset 8
  51              		.cfi_offset 5, -8
  52 0031 89E5     		movl	%esp, %ebp
  53              		.cfi_def_cfa_register 5
  54 0033 83EC10   		subl	$16, %esp
  15:E:/NeuOrga/Programmieren/c_cpp/github_os/input/src/os_base\os_init_task_system_test.c ****    const char *cp    = s;
  55              		.loc 2 15 0
  56 0036 8B4508   		movl	8(%ebp), %eax
  57 0039 8945FC   		movl	%eax, -4(%ebp)
  16:E:/NeuOrga/Programmieren/c_cpp/github_os/input/src/os_base\os_init_task_system_test.c ****    int         count = 0;
  58              		.loc 2 16 0
  59 003c C745F800 		movl	$0, -8(%ebp)
  59      000000
  17:E:/NeuOrga/Programmieren/c_cpp/github_os/input/src/os_base\os_init_task_system_test.c **** 
  18:E:/NeuOrga/Programmieren/c_cpp/github_os/input/src/os_base\os_init_task_system_test.c ****    while (*cp)
  60              		.loc 2 18 0
  61 0043 EB33     		jmp	L4
  62              	L7:
  19:E:/NeuOrga/Programmieren/c_cpp/github_os/input/src/os_base\os_init_task_system_test.c ****    {
  20:E:/NeuOrga/Programmieren/c_cpp/github_os/input/src/os_base\os_init_task_system_test.c ****       if (*cp == 'a' || *cp == 'e' || *cp == 'i' ||
  63              		.loc 2 20 0
  64 0045 8B45FC   		movl	-4(%ebp), %eax
  65 0048 8A00     		movb	(%eax), %al
  66 004a 3C61     		cmpb	$97, %al
  67 004c 7424     		je	L5
  68              		.loc 2 20 0 is_stmt 0 discriminator 1
  69 004e 8B45FC   		movl	-4(%ebp), %eax
  70 0051 8A00     		movb	(%eax), %al
  71 0053 3C65     		cmpb	$101, %al
  72 0055 741B     		je	L5
  73              		.loc 2 20 0 discriminator 2
  74 0057 8B45FC   		movl	-4(%ebp), %eax
GAS LISTING C:\Users\PRESID~1\AppData\Local\Temp\ccPJOK5j.s 			page 7


  75 005a 8A00     		movb	(%eax), %al
  76 005c 3C69     		cmpb	$105, %al
  77 005e 7412     		je	L5
  21:E:/NeuOrga/Programmieren/c_cpp/github_os/input/src/os_base\os_init_task_system_test.c ****             *cp == 'o' || *cp == 'u')
  78              		.loc 2 21 0 is_stmt 1 discriminator 3
  79 0060 8B45FC   		movl	-4(%ebp), %eax
  80 0063 8A00     		movb	(%eax), %al
  20:E:/NeuOrga/Programmieren/c_cpp/github_os/input/src/os_base\os_init_task_system_test.c ****             *cp == 'o' || *cp == 'u')
  81              		.loc 2 20 0 discriminator 3
  82 0065 3C6F     		cmpb	$111, %al
  83 0067 7409     		je	L5
  84              		.loc 2 21 0
  85 0069 8B45FC   		movl	-4(%ebp), %eax
  86 006c 8A00     		movb	(%eax), %al
  87 006e 3C75     		cmpb	$117, %al
  88 0070 7503     		jne	L6
  89              	L5:
  22:E:/NeuOrga/Programmieren/c_cpp/github_os/input/src/os_base\os_init_task_system_test.c ****       {
  23:E:/NeuOrga/Programmieren/c_cpp/github_os/input/src/os_base\os_init_task_system_test.c ****          count++;
  90              		.loc 2 23 0
  91 0072 FF45F8   		incl	-8(%ebp)
  92              	L6:
  24:E:/NeuOrga/Programmieren/c_cpp/github_os/input/src/os_base\os_init_task_system_test.c ****       }
  25:E:/NeuOrga/Programmieren/c_cpp/github_os/input/src/os_base\os_init_task_system_test.c **** 
  26:E:/NeuOrga/Programmieren/c_cpp/github_os/input/src/os_base\os_init_task_system_test.c ****       cp++;
  93              		.loc 2 26 0
  94 0075 FF45FC   		incl	-4(%ebp)
  95              	L4:
  18:E:/NeuOrga/Programmieren/c_cpp/github_os/input/src/os_base\os_init_task_system_test.c ****    {
  96              		.loc 2 18 0
  97 0078 8B45FC   		movl	-4(%ebp), %eax
  98 007b 8A00     		movb	(%eax), %al
  99 007d 84C0     		testb	%al, %al
 100 007f 75C4     		jne	L7
  27:E:/NeuOrga/Programmieren/c_cpp/github_os/input/src/os_base\os_init_task_system_test.c ****    }
  28:E:/NeuOrga/Programmieren/c_cpp/github_os/input/src/os_base\os_init_task_system_test.c **** 
  29:E:/NeuOrga/Programmieren/c_cpp/github_os/input/src/os_base\os_init_task_system_test.c ****    return count;
 101              		.loc 2 29 0
 102 0081 8B45F8   		movl	-8(%ebp), %eax
  30:E:/NeuOrga/Programmieren/c_cpp/github_os/input/src/os_base\os_init_task_system_test.c **** }
 103              		.loc 2 30 0
 104 0084 C9       		leave
 105              		.cfi_restore 5
 106              		.cfi_def_cfa 4, 4
 107 0085 C3       		ret
 108              		.cfi_endproc
 109              	LFE10:
 110              		.section .rdata,"dr"
 111              	LC0:
 112 0000 73707574 		.ascii "sput_start_testing() omitted\12\0"
 112      5F737461 
 112      72745F74 
 112      65737469 
 112      6E672829 
 113              	LC1:
 114 001e 73707574 		.ascii "sput_enter_suite() omitted\12\0"
 114      5F656E74 
GAS LISTING C:\Users\PRESID~1\AppData\Local\Temp\ccPJOK5j.s 			page 8


 114      65725F73 
 114      75697465 
 114      2829206F 
 115              	LC2:
 116 003a 73707574 		.ascii "sput_run_test() omitted\12\0"
 116      5F72756E 
 116      5F746573 
 116      74282920 
 116      6F6D6974 
 117              	LC3:
 118 0053 626F6F6B 		.ascii "book == 2v\0"
 118      203D3D20 
 118      327600
 119              	LC4:
 120 005e 636F756E 		.ascii "count_vowels(\"book\") == 2\0"
 120      745F766F 
 120      77656C73 
 120      2822626F 
 120      6F6B2229 
 121              	LC5:
 122 0078 6661696C 		.ascii "fail-unless\0"
 122      2D756E6C 
 122      65737300 
 123              	LC6:
 124 0084 626F6F6B 		.ascii "book\0"
 124      00
 125 0089 000000   		.align 4
 126              	LC7:
 127 008c 5B256C75 		.ascii "[%lu:%lu]  %s:#%lu  \"%s\"  FAIL\12!    Type:      %s\12!    Condition: %s\12!    Line:   
 127      3A256C75 
 127      5D202025 
 127      733A2325 
 127      6C752020 
 128 00e6 0000     		.align 4
 129              	LC8:
 130 00e8 5B256C75 		.ascii "[%lu:%lu]  %s:#%lu  \"%s\"  pass\12\0"
 130      3A256C75 
 130      5D202025 
 130      733A2325 
 130      6C752020 
 131              	LC9:
 132 0108 68616E64 		.ascii "hand == 1v\0"
 132      203D3D20 
 132      317600
 133              	LC10:
 134 0113 636F756E 		.ascii "count_vowels(\"hand\") == 1\0"
 134      745F766F 
 134      77656C73 
 134      28226861 
 134      6E642229 
 135              	LC11:
 136 012d 68616E64 		.ascii "hand\0"
 136      00
 137              	LC12:
 138 0132 74657374 		.ascii "test == 1v\0"
 138      203D3D20 
 138      317600
GAS LISTING C:\Users\PRESID~1\AppData\Local\Temp\ccPJOK5j.s 			page 9


 139              	LC13:
 140 013d 636F756E 		.ascii "count_vowels(\"test\") == 1\0"
 140      745F766F 
 140      77656C73 
 140      28227465 
 140      73742229 
 141              	LC14:
 142 0157 74657374 		.ascii "test\0"
 142      00
 143              	LC15:
 144 015c 50657465 		.ascii "Peter == 2v\0"
 144      72203D3D 
 144      20327600 
 145              	LC16:
 146 0168 636F756E 		.ascii "count_vowels(\"Peter\") == 2\0"
 146      745F766F 
 146      77656C73 
 146      28225065 
 146      74657222 
 147              	LC17:
 148 0183 50657465 		.ascii "Peter\0"
 148      7200
 149              	LC18:
 150 0189 41707520 		.ascii "Apu == 2v\0"
 150      3D3D2032 
 150      7600
 151              	LC19:
 152 0193 636F756E 		.ascii "count_vowels(\"Apu\") == 2\0"
 152      745F766F 
 152      77656C73 
 152      28224170 
 152      75222920 
 153              	LC20:
 154 01ac 41707500 		.ascii "Apu\0"
 155              		.text
 157              	_test_vowels_present:
 158              	LFB11:
  31:E:/NeuOrga/Programmieren/c_cpp/github_os/input/src/os_base\os_init_task_system_test.c **** 
  32:E:/NeuOrga/Programmieren/c_cpp/github_os/input/src/os_base\os_init_task_system_test.c **** 
  33:E:/NeuOrga/Programmieren/c_cpp/github_os/input/src/os_base\os_init_task_system_test.c **** static void test_vowels_present()
  34:E:/NeuOrga/Programmieren/c_cpp/github_os/input/src/os_base\os_init_task_system_test.c **** {
 159              		.loc 2 34 0
 160              		.cfi_startproc
 161 0086 55       		pushl	%ebp
 162              		.cfi_def_cfa_offset 8
 163              		.cfi_offset 5, -8
 164 0087 89E5     		movl	%esp, %ebp
 165              		.cfi_def_cfa_register 5
 166 0089 57       		pushl	%edi
 167 008a 56       		pushl	%esi
 168 008b 53       		pushl	%ebx
 169 008c 83EC4C   		subl	$76, %esp
 170              		.cfi_offset 7, -12
 171              		.cfi_offset 6, -16
 172              		.cfi_offset 3, -20
  35:E:/NeuOrga/Programmieren/c_cpp/github_os/input/src/os_base\os_init_task_system_test.c ****    sput_fail_unless(count_vowels("book")  == 2, "book == 2v");
 173              		.loc 2 35 0
GAS LISTING C:\Users\PRESID~1\AppData\Local\Temp\ccPJOK5j.s 			page 10


 174 008f A0040000 		movb	___sput+4, %al
 174      00
 175 0094 3C06     		cmpb	$6, %al
 176 0096 7434     		je	L10
 177              		.loc 2 35 0 is_stmt 0 discriminator 1
 178 0098 A1000000 		movl	__imp___iob, %eax
 178      00
 179 009d 83C040   		addl	$64, %eax
 180 00a0 8944240C 		movl	%eax, 12(%esp)
 181 00a4 C7442408 		movl	$29, 8(%esp)
 181      1D000000 
 182 00ac C7442404 		movl	$1, 4(%esp)
 182      01000000 
 183 00b4 C7042400 		movl	$LC0, (%esp)
 183      000000
 184 00bb E8000000 		call	_fwrite
 184      00
 185 00c0 C7042401 		movl	$1, (%esp)
 185      000000
 186 00c7 E8000000 		call	_exit
 186      00
 187              	L10:
 188              		.loc 2 35 0 discriminator 2
 189 00cc A1180000 		movl	___sput+24, %eax
 189      00
 190 00d1 85C0     		testl	%eax, %eax
 191 00d3 7531     		jne	L11
 192              		.loc 2 35 0 discriminator 3
 193 00d5 A1000000 		movl	___sput, %eax
 193      00
 194 00da 8944240C 		movl	%eax, 12(%esp)
 195 00de C7442408 		movl	$27, 8(%esp)
 195      1B000000 
 196 00e6 C7442404 		movl	$1, 4(%esp)
 196      01000000 
 197 00ee C704241E 		movl	$LC1, (%esp)
 197      000000
 198 00f5 E8000000 		call	_fwrite
 198      00
 199 00fa C7042401 		movl	$1, (%esp)
 199      000000
 200 0101 E8000000 		call	_exit
 200      00
 201              	L11:
 202              		.loc 2 35 0 discriminator 4
 203 0106 A12C0000 		movl	___sput+44, %eax
 203      00
 204 010b 85C0     		testl	%eax, %eax
 205 010d 7531     		jne	L12
 206              		.loc 2 35 0 discriminator 5
 207 010f A1000000 		movl	___sput, %eax
 207      00
 208 0114 8944240C 		movl	%eax, 12(%esp)
 209 0118 C7442408 		movl	$24, 8(%esp)
 209      18000000 
 210 0120 C7442404 		movl	$1, 4(%esp)
 210      01000000 
GAS LISTING C:\Users\PRESID~1\AppData\Local\Temp\ccPJOK5j.s 			page 11


 211 0128 C704243A 		movl	$LC2, (%esp)
 211      000000
 212 012f E8000000 		call	_fwrite
 212      00
 213 0134 C7042401 		movl	$1, (%esp)
 213      000000
 214 013b E8000000 		call	_exit
 214      00
 215              	L12:
 216              		.loc 2 35 0 discriminator 6
 217 0140 C7053400 		movl	$LC3, ___sput+52
 217      00005300 
 217      0000
 218 014a C7054000 		movl	$35, ___sput+64
 218      00002300 
 218      0000
 219 0154 C7053800 		movl	$LC4, ___sput+56
 219      00005E00 
 219      0000
 220 015e C7053C00 		movl	$LC5, ___sput+60
 220      00007800 
 220      0000
 221 0168 A1300000 		movl	___sput+48, %eax
 221      00
 222 016d 40       		incl	%eax
 223 016e A3300000 		movl	%eax, ___sput+48
 223      00
 224 0173 A1200000 		movl	___sput+32, %eax
 224      00
 225 0178 40       		incl	%eax
 226 0179 A3200000 		movl	%eax, ___sput+32
 226      00
 227 017e C7042484 		movl	$LC6, (%esp)
 227      000000
 228 0185 E8A6FEFF 		call	_count_vowels
 228      FF
 229 018a 83F802   		cmpl	$2, %eax
 230 018d 0F84FD00 		je	L13
 230      0000
 231              		.loc 2 35 0 discriminator 7
 232 0193 A0040000 		movb	___sput+4, %al
 232      00
 233 0198 3C06     		cmpb	$6, %al
 234 019a 7434     		je	L14
 235              		.loc 2 35 0 discriminator 9
 236 019c A1000000 		movl	__imp___iob, %eax
 236      00
 237 01a1 83C040   		addl	$64, %eax
 238 01a4 8944240C 		movl	%eax, 12(%esp)
 239 01a8 C7442408 		movl	$29, 8(%esp)
 239      1D000000 
 240 01b0 C7442404 		movl	$1, 4(%esp)
 240      01000000 
 241 01b8 C7042400 		movl	$LC0, (%esp)
 241      000000
 242 01bf E8000000 		call	_fwrite
 242      00
GAS LISTING C:\Users\PRESID~1\AppData\Local\Temp\ccPJOK5j.s 			page 12


 243 01c4 C7042401 		movl	$1, (%esp)
 243      000000
 244 01cb E8000000 		call	_exit
 244      00
 245              	L14:
 246              		.loc 2 35 0 discriminator 10
 247 01d0 A1180000 		movl	___sput+24, %eax
 247      00
 248 01d5 85C0     		testl	%eax, %eax
 249 01d7 7531     		jne	L15
 250              		.loc 2 35 0 discriminator 11
 251 01d9 A1000000 		movl	___sput, %eax
 251      00
 252 01de 8944240C 		movl	%eax, 12(%esp)
 253 01e2 C7442408 		movl	$27, 8(%esp)
 253      1B000000 
 254 01ea C7442404 		movl	$1, 4(%esp)
 254      01000000 
 255 01f2 C704241E 		movl	$LC1, (%esp)
 255      000000
 256 01f9 E8000000 		call	_fwrite
 256      00
 257 01fe C7042401 		movl	$1, (%esp)
 257      000000
 258 0205 E8000000 		call	_exit
 258      00
 259              	L15:
 260              		.loc 2 35 0 discriminator 12
 261 020a A1280000 		movl	___sput+40, %eax
 261      00
 262 020f 40       		incl	%eax
 263 0210 A3280000 		movl	%eax, ___sput+40
 263      00
 264 0215 8B154000 		movl	___sput+64, %edx
 264      0000
 265 021b 8B1D3800 		movl	___sput+56, %ebx
 265      0000
 266 0221 A13C0000 		movl	___sput+60, %eax
 266      00
 267 0226 8945E4   		movl	%eax, -28(%ebp)
 268 0229 8B0D3400 		movl	___sput+52, %ecx
 268      0000
 269 022f 894DE0   		movl	%ecx, -32(%ebp)
 270 0232 8B353000 		movl	___sput+48, %esi
 270      0000
 271 0238 8975DC   		movl	%esi, -36(%ebp)
 272 023b 8B3D2C00 		movl	___sput+44, %edi
 272      0000
 273 0241 8B352000 		movl	___sput+32, %esi
 273      0000
 274 0247 8B0D1C00 		movl	___sput+28, %ecx
 274      0000
 275 024d A1000000 		movl	___sput, %eax
 275      00
 276 0252 89542424 		movl	%edx, 36(%esp)
 277 0256 895C2420 		movl	%ebx, 32(%esp)
 278 025a 8B55E4   		movl	-28(%ebp), %edx
GAS LISTING C:\Users\PRESID~1\AppData\Local\Temp\ccPJOK5j.s 			page 13


 279 025d 8954241C 		movl	%edx, 28(%esp)
 280 0261 8B5DE0   		movl	-32(%ebp), %ebx
 281 0264 895C2418 		movl	%ebx, 24(%esp)
 282 0268 8B55DC   		movl	-36(%ebp), %edx
 283 026b 89542414 		movl	%edx, 20(%esp)
 284 026f 897C2410 		movl	%edi, 16(%esp)
 285 0273 8974240C 		movl	%esi, 12(%esp)
 286 0277 894C2408 		movl	%ecx, 8(%esp)
 287 027b C7442404 		movl	$LC7, 4(%esp)
 287      8C000000 
 288 0283 890424   		movl	%eax, (%esp)
 289 0286 E875FDFF 		call	_fprintf
 289      FF
 290 028b E9C90000 		jmp	L16
 290      00
 291              	L13:
 292              		.loc 2 35 0 discriminator 8
 293 0290 A0040000 		movb	___sput+4, %al
 293      00
 294 0295 3C06     		cmpb	$6, %al
 295 0297 7434     		je	L17
 296              		.loc 2 35 0 discriminator 13
 297 0299 A1000000 		movl	__imp___iob, %eax
 297      00
 298 029e 83C040   		addl	$64, %eax
 299 02a1 8944240C 		movl	%eax, 12(%esp)
 300 02a5 C7442408 		movl	$29, 8(%esp)
 300      1D000000 
 301 02ad C7442404 		movl	$1, 4(%esp)
 301      01000000 
 302 02b5 C7042400 		movl	$LC0, (%esp)
 302      000000
 303 02bc E8000000 		call	_fwrite
 303      00
 304 02c1 C7042401 		movl	$1, (%esp)
 304      000000
 305 02c8 E8000000 		call	_exit
 305      00
 306              	L17:
 307              		.loc 2 35 0 discriminator 14
 308 02cd A1180000 		movl	___sput+24, %eax
 308      00
 309 02d2 85C0     		testl	%eax, %eax
 310 02d4 7531     		jne	L18
 311              		.loc 2 35 0 discriminator 15
 312 02d6 A1000000 		movl	___sput, %eax
 312      00
 313 02db 8944240C 		movl	%eax, 12(%esp)
 314 02df C7442408 		movl	$27, 8(%esp)
 314      1B000000 
 315 02e7 C7442404 		movl	$1, 4(%esp)
 315      01000000 
 316 02ef C704241E 		movl	$LC1, (%esp)
 316      000000
 317 02f6 E8000000 		call	_fwrite
 317      00
 318 02fb C7042401 		movl	$1, (%esp)
GAS LISTING C:\Users\PRESID~1\AppData\Local\Temp\ccPJOK5j.s 			page 14


 318      000000
 319 0302 E8000000 		call	_exit
 319      00
 320              	L18:
 321              		.loc 2 35 0 discriminator 16
 322 0307 A1240000 		movl	___sput+36, %eax
 322      00
 323 030c 40       		incl	%eax
 324 030d A3240000 		movl	%eax, ___sput+36
 324      00
 325 0312 8B3D3400 		movl	___sput+52, %edi
 325      0000
 326 0318 8B353000 		movl	___sput+48, %esi
 326      0000
 327 031e 8B1D2C00 		movl	___sput+44, %ebx
 327      0000
 328 0324 8B0D2000 		movl	___sput+32, %ecx
 328      0000
 329 032a 8B151C00 		movl	___sput+28, %edx
 329      0000
 330 0330 A1000000 		movl	___sput, %eax
 330      00
 331 0335 897C2418 		movl	%edi, 24(%esp)
 332 0339 89742414 		movl	%esi, 20(%esp)
 333 033d 895C2410 		movl	%ebx, 16(%esp)
 334 0341 894C240C 		movl	%ecx, 12(%esp)
 335 0345 89542408 		movl	%edx, 8(%esp)
 336 0349 C7442404 		movl	$LC8, 4(%esp)
 336      E8000000 
 337 0351 890424   		movl	%eax, (%esp)
 338 0354 E8A7FCFF 		call	_fprintf
 338      FF
 339              	L16:
  36:E:/NeuOrga/Programmieren/c_cpp/github_os/input/src/os_base\os_init_task_system_test.c ****    sput_fail_unless(count_vowels("hand")  == 1, "hand == 1v");
 340              		.loc 2 36 0 is_stmt 1
 341 0359 A0040000 		movb	___sput+4, %al
 341      00
 342 035e 3C06     		cmpb	$6, %al
 343 0360 7434     		je	L19
 344              		.loc 2 36 0 is_stmt 0 discriminator 1
 345 0362 A1000000 		movl	__imp___iob, %eax
 345      00
 346 0367 83C040   		addl	$64, %eax
 347 036a 8944240C 		movl	%eax, 12(%esp)
 348 036e C7442408 		movl	$29, 8(%esp)
 348      1D000000 
 349 0376 C7442404 		movl	$1, 4(%esp)
 349      01000000 
 350 037e C7042400 		movl	$LC0, (%esp)
 350      000000
 351 0385 E8000000 		call	_fwrite
 351      00
 352 038a C7042401 		movl	$1, (%esp)
 352      000000
 353 0391 E8000000 		call	_exit
 353      00
 354              	L19:
GAS LISTING C:\Users\PRESID~1\AppData\Local\Temp\ccPJOK5j.s 			page 15


 355              		.loc 2 36 0 discriminator 2
 356 0396 A1180000 		movl	___sput+24, %eax
 356      00
 357 039b 85C0     		testl	%eax, %eax
 358 039d 7531     		jne	L20
 359              		.loc 2 36 0 discriminator 3
 360 039f A1000000 		movl	___sput, %eax
 360      00
 361 03a4 8944240C 		movl	%eax, 12(%esp)
 362 03a8 C7442408 		movl	$27, 8(%esp)
 362      1B000000 
 363 03b0 C7442404 		movl	$1, 4(%esp)
 363      01000000 
 364 03b8 C704241E 		movl	$LC1, (%esp)
 364      000000
 365 03bf E8000000 		call	_fwrite
 365      00
 366 03c4 C7042401 		movl	$1, (%esp)
 366      000000
 367 03cb E8000000 		call	_exit
 367      00
 368              	L20:
 369              		.loc 2 36 0 discriminator 4
 370 03d0 A12C0000 		movl	___sput+44, %eax
 370      00
 371 03d5 85C0     		testl	%eax, %eax
 372 03d7 7531     		jne	L21
 373              		.loc 2 36 0 discriminator 5
 374 03d9 A1000000 		movl	___sput, %eax
 374      00
 375 03de 8944240C 		movl	%eax, 12(%esp)
 376 03e2 C7442408 		movl	$24, 8(%esp)
 376      18000000 
 377 03ea C7442404 		movl	$1, 4(%esp)
 377      01000000 
 378 03f2 C704243A 		movl	$LC2, (%esp)
 378      000000
 379 03f9 E8000000 		call	_fwrite
 379      00
 380 03fe C7042401 		movl	$1, (%esp)
 380      000000
 381 0405 E8000000 		call	_exit
 381      00
 382              	L21:
 383              		.loc 2 36 0 discriminator 6
 384 040a C7053400 		movl	$LC9, ___sput+52
 384      00000801 
 384      0000
 385 0414 C7054000 		movl	$36, ___sput+64
 385      00002400 
 385      0000
 386 041e C7053800 		movl	$LC10, ___sput+56
 386      00001301 
 386      0000
 387 0428 C7053C00 		movl	$LC5, ___sput+60
 387      00007800 
 387      0000
GAS LISTING C:\Users\PRESID~1\AppData\Local\Temp\ccPJOK5j.s 			page 16


 388 0432 A1300000 		movl	___sput+48, %eax
 388      00
 389 0437 40       		incl	%eax
 390 0438 A3300000 		movl	%eax, ___sput+48
 390      00
 391 043d A1200000 		movl	___sput+32, %eax
 391      00
 392 0442 40       		incl	%eax
 393 0443 A3200000 		movl	%eax, ___sput+32
 393      00
 394 0448 C704242D 		movl	$LC11, (%esp)
 394      010000
 395 044f E8DCFBFF 		call	_count_vowels
 395      FF
 396 0454 83F801   		cmpl	$1, %eax
 397 0457 0F84FD00 		je	L22
 397      0000
 398              		.loc 2 36 0 discriminator 7
 399 045d A0040000 		movb	___sput+4, %al
 399      00
 400 0462 3C06     		cmpb	$6, %al
 401 0464 7434     		je	L23
 402              		.loc 2 36 0 discriminator 9
 403 0466 A1000000 		movl	__imp___iob, %eax
 403      00
 404 046b 83C040   		addl	$64, %eax
 405 046e 8944240C 		movl	%eax, 12(%esp)
 406 0472 C7442408 		movl	$29, 8(%esp)
 406      1D000000 
 407 047a C7442404 		movl	$1, 4(%esp)
 407      01000000 
 408 0482 C7042400 		movl	$LC0, (%esp)
 408      000000
 409 0489 E8000000 		call	_fwrite
 409      00
 410 048e C7042401 		movl	$1, (%esp)
 410      000000
 411 0495 E8000000 		call	_exit
 411      00
 412              	L23:
 413              		.loc 2 36 0 discriminator 10
 414 049a A1180000 		movl	___sput+24, %eax
 414      00
 415 049f 85C0     		testl	%eax, %eax
 416 04a1 7531     		jne	L24
 417              		.loc 2 36 0 discriminator 11
 418 04a3 A1000000 		movl	___sput, %eax
 418      00
 419 04a8 8944240C 		movl	%eax, 12(%esp)
 420 04ac C7442408 		movl	$27, 8(%esp)
 420      1B000000 
 421 04b4 C7442404 		movl	$1, 4(%esp)
 421      01000000 
 422 04bc C704241E 		movl	$LC1, (%esp)
 422      000000
 423 04c3 E8000000 		call	_fwrite
 423      00
GAS LISTING C:\Users\PRESID~1\AppData\Local\Temp\ccPJOK5j.s 			page 17


 424 04c8 C7042401 		movl	$1, (%esp)
 424      000000
 425 04cf E8000000 		call	_exit
 425      00
 426              	L24:
 427              		.loc 2 36 0 discriminator 12
 428 04d4 A1280000 		movl	___sput+40, %eax
 428      00
 429 04d9 40       		incl	%eax
 430 04da A3280000 		movl	%eax, ___sput+40
 430      00
 431 04df 8B154000 		movl	___sput+64, %edx
 431      0000
 432 04e5 8B1D3800 		movl	___sput+56, %ebx
 432      0000
 433 04eb A13C0000 		movl	___sput+60, %eax
 433      00
 434 04f0 8945E4   		movl	%eax, -28(%ebp)
 435 04f3 8B3D3400 		movl	___sput+52, %edi
 435      0000
 436 04f9 897DE0   		movl	%edi, -32(%ebp)
 437 04fc 8B0D3000 		movl	___sput+48, %ecx
 437      0000
 438 0502 894DDC   		movl	%ecx, -36(%ebp)
 439 0505 8B3D2C00 		movl	___sput+44, %edi
 439      0000
 440 050b 8B352000 		movl	___sput+32, %esi
 440      0000
 441 0511 8B0D1C00 		movl	___sput+28, %ecx
 441      0000
 442 0517 A1000000 		movl	___sput, %eax
 442      00
 443 051c 89542424 		movl	%edx, 36(%esp)
 444 0520 895C2420 		movl	%ebx, 32(%esp)
 445 0524 8B5DE4   		movl	-28(%ebp), %ebx
 446 0527 895C241C 		movl	%ebx, 28(%esp)
 447 052b 8B55E0   		movl	-32(%ebp), %edx
 448 052e 89542418 		movl	%edx, 24(%esp)
 449 0532 8B5DDC   		movl	-36(%ebp), %ebx
 450 0535 895C2414 		movl	%ebx, 20(%esp)
 451 0539 897C2410 		movl	%edi, 16(%esp)
 452 053d 8974240C 		movl	%esi, 12(%esp)
 453 0541 894C2408 		movl	%ecx, 8(%esp)
 454 0545 C7442404 		movl	$LC7, 4(%esp)
 454      8C000000 
 455 054d 890424   		movl	%eax, (%esp)
 456 0550 E8ABFAFF 		call	_fprintf
 456      FF
 457 0555 E9C90000 		jmp	L25
 457      00
 458              	L22:
 459              		.loc 2 36 0 discriminator 8
 460 055a A0040000 		movb	___sput+4, %al
 460      00
 461 055f 3C06     		cmpb	$6, %al
 462 0561 7434     		je	L26
 463              		.loc 2 36 0 discriminator 13
GAS LISTING C:\Users\PRESID~1\AppData\Local\Temp\ccPJOK5j.s 			page 18


 464 0563 A1000000 		movl	__imp___iob, %eax
 464      00
 465 0568 83C040   		addl	$64, %eax
 466 056b 8944240C 		movl	%eax, 12(%esp)
 467 056f C7442408 		movl	$29, 8(%esp)
 467      1D000000 
 468 0577 C7442404 		movl	$1, 4(%esp)
 468      01000000 
 469 057f C7042400 		movl	$LC0, (%esp)
 469      000000
 470 0586 E8000000 		call	_fwrite
 470      00
 471 058b C7042401 		movl	$1, (%esp)
 471      000000
 472 0592 E8000000 		call	_exit
 472      00
 473              	L26:
 474              		.loc 2 36 0 discriminator 14
 475 0597 A1180000 		movl	___sput+24, %eax
 475      00
 476 059c 85C0     		testl	%eax, %eax
 477 059e 7531     		jne	L27
 478              		.loc 2 36 0 discriminator 15
 479 05a0 A1000000 		movl	___sput, %eax
 479      00
 480 05a5 8944240C 		movl	%eax, 12(%esp)
 481 05a9 C7442408 		movl	$27, 8(%esp)
 481      1B000000 
 482 05b1 C7442404 		movl	$1, 4(%esp)
 482      01000000 
 483 05b9 C704241E 		movl	$LC1, (%esp)
 483      000000
 484 05c0 E8000000 		call	_fwrite
 484      00
 485 05c5 C7042401 		movl	$1, (%esp)
 485      000000
 486 05cc E8000000 		call	_exit
 486      00
 487              	L27:
 488              		.loc 2 36 0 discriminator 16
 489 05d1 A1240000 		movl	___sput+36, %eax
 489      00
 490 05d6 40       		incl	%eax
 491 05d7 A3240000 		movl	%eax, ___sput+36
 491      00
 492 05dc 8B3D3400 		movl	___sput+52, %edi
 492      0000
 493 05e2 8B353000 		movl	___sput+48, %esi
 493      0000
 494 05e8 8B1D2C00 		movl	___sput+44, %ebx
 494      0000
 495 05ee 8B0D2000 		movl	___sput+32, %ecx
 495      0000
 496 05f4 8B151C00 		movl	___sput+28, %edx
 496      0000
 497 05fa A1000000 		movl	___sput, %eax
 497      00
GAS LISTING C:\Users\PRESID~1\AppData\Local\Temp\ccPJOK5j.s 			page 19


 498 05ff 897C2418 		movl	%edi, 24(%esp)
 499 0603 89742414 		movl	%esi, 20(%esp)
 500 0607 895C2410 		movl	%ebx, 16(%esp)
 501 060b 894C240C 		movl	%ecx, 12(%esp)
 502 060f 89542408 		movl	%edx, 8(%esp)
 503 0613 C7442404 		movl	$LC8, 4(%esp)
 503      E8000000 
 504 061b 890424   		movl	%eax, (%esp)
 505 061e E8DDF9FF 		call	_fprintf
 505      FF
 506              	L25:
  37:E:/NeuOrga/Programmieren/c_cpp/github_os/input/src/os_base\os_init_task_system_test.c ****    sput_fail_unless(count_vowels("test")  == 1, "test == 1v");
 507              		.loc 2 37 0 is_stmt 1
 508 0623 A0040000 		movb	___sput+4, %al
 508      00
 509 0628 3C06     		cmpb	$6, %al
 510 062a 7434     		je	L28
 511              		.loc 2 37 0 is_stmt 0 discriminator 1
 512 062c A1000000 		movl	__imp___iob, %eax
 512      00
 513 0631 83C040   		addl	$64, %eax
 514 0634 8944240C 		movl	%eax, 12(%esp)
 515 0638 C7442408 		movl	$29, 8(%esp)
 515      1D000000 
 516 0640 C7442404 		movl	$1, 4(%esp)
 516      01000000 
 517 0648 C7042400 		movl	$LC0, (%esp)
 517      000000
 518 064f E8000000 		call	_fwrite
 518      00
 519 0654 C7042401 		movl	$1, (%esp)
 519      000000
 520 065b E8000000 		call	_exit
 520      00
 521              	L28:
 522              		.loc 2 37 0 discriminator 2
 523 0660 A1180000 		movl	___sput+24, %eax
 523      00
 524 0665 85C0     		testl	%eax, %eax
 525 0667 7531     		jne	L29
 526              		.loc 2 37 0 discriminator 3
 527 0669 A1000000 		movl	___sput, %eax
 527      00
 528 066e 8944240C 		movl	%eax, 12(%esp)
 529 0672 C7442408 		movl	$27, 8(%esp)
 529      1B000000 
 530 067a C7442404 		movl	$1, 4(%esp)
 530      01000000 
 531 0682 C704241E 		movl	$LC1, (%esp)
 531      000000
 532 0689 E8000000 		call	_fwrite
 532      00
 533 068e C7042401 		movl	$1, (%esp)
 533      000000
 534 0695 E8000000 		call	_exit
 534      00
 535              	L29:
GAS LISTING C:\Users\PRESID~1\AppData\Local\Temp\ccPJOK5j.s 			page 20


 536              		.loc 2 37 0 discriminator 4
 537 069a A12C0000 		movl	___sput+44, %eax
 537      00
 538 069f 85C0     		testl	%eax, %eax
 539 06a1 7531     		jne	L30
 540              		.loc 2 37 0 discriminator 5
 541 06a3 A1000000 		movl	___sput, %eax
 541      00
 542 06a8 8944240C 		movl	%eax, 12(%esp)
 543 06ac C7442408 		movl	$24, 8(%esp)
 543      18000000 
 544 06b4 C7442404 		movl	$1, 4(%esp)
 544      01000000 
 545 06bc C704243A 		movl	$LC2, (%esp)
 545      000000
 546 06c3 E8000000 		call	_fwrite
 546      00
 547 06c8 C7042401 		movl	$1, (%esp)
 547      000000
 548 06cf E8000000 		call	_exit
 548      00
 549              	L30:
 550              		.loc 2 37 0 discriminator 6
 551 06d4 C7053400 		movl	$LC12, ___sput+52
 551      00003201 
 551      0000
 552 06de C7054000 		movl	$37, ___sput+64
 552      00002500 
 552      0000
 553 06e8 C7053800 		movl	$LC13, ___sput+56
 553      00003D01 
 553      0000
 554 06f2 C7053C00 		movl	$LC5, ___sput+60
 554      00007800 
 554      0000
 555 06fc A1300000 		movl	___sput+48, %eax
 555      00
 556 0701 40       		incl	%eax
 557 0702 A3300000 		movl	%eax, ___sput+48
 557      00
 558 0707 A1200000 		movl	___sput+32, %eax
 558      00
 559 070c 40       		incl	%eax
 560 070d A3200000 		movl	%eax, ___sput+32
 560      00
 561 0712 C7042457 		movl	$LC14, (%esp)
 561      010000
 562 0719 E812F9FF 		call	_count_vowels
 562      FF
 563 071e 83F801   		cmpl	$1, %eax
 564 0721 0F84FD00 		je	L31
 564      0000
 565              		.loc 2 37 0 discriminator 7
 566 0727 A0040000 		movb	___sput+4, %al
 566      00
 567 072c 3C06     		cmpb	$6, %al
 568 072e 7434     		je	L32
GAS LISTING C:\Users\PRESID~1\AppData\Local\Temp\ccPJOK5j.s 			page 21


 569              		.loc 2 37 0 discriminator 9
 570 0730 A1000000 		movl	__imp___iob, %eax
 570      00
 571 0735 83C040   		addl	$64, %eax
 572 0738 8944240C 		movl	%eax, 12(%esp)
 573 073c C7442408 		movl	$29, 8(%esp)
 573      1D000000 
 574 0744 C7442404 		movl	$1, 4(%esp)
 574      01000000 
 575 074c C7042400 		movl	$LC0, (%esp)
 575      000000
 576 0753 E8000000 		call	_fwrite
 576      00
 577 0758 C7042401 		movl	$1, (%esp)
 577      000000
 578 075f E8000000 		call	_exit
 578      00
 579              	L32:
 580              		.loc 2 37 0 discriminator 10
 581 0764 A1180000 		movl	___sput+24, %eax
 581      00
 582 0769 85C0     		testl	%eax, %eax
 583 076b 7531     		jne	L33
 584              		.loc 2 37 0 discriminator 11
 585 076d A1000000 		movl	___sput, %eax
 585      00
 586 0772 8944240C 		movl	%eax, 12(%esp)
 587 0776 C7442408 		movl	$27, 8(%esp)
 587      1B000000 
 588 077e C7442404 		movl	$1, 4(%esp)
 588      01000000 
 589 0786 C704241E 		movl	$LC1, (%esp)
 589      000000
 590 078d E8000000 		call	_fwrite
 590      00
 591 0792 C7042401 		movl	$1, (%esp)
 591      000000
 592 0799 E8000000 		call	_exit
 592      00
 593              	L33:
 594              		.loc 2 37 0 discriminator 12
 595 079e A1280000 		movl	___sput+40, %eax
 595      00
 596 07a3 40       		incl	%eax
 597 07a4 A3280000 		movl	%eax, ___sput+40
 597      00
 598 07a9 8B154000 		movl	___sput+64, %edx
 598      0000
 599 07af 8B1D3800 		movl	___sput+56, %ebx
 599      0000
 600 07b5 A13C0000 		movl	___sput+60, %eax
 600      00
 601 07ba 8945E4   		movl	%eax, -28(%ebp)
 602 07bd 8B353400 		movl	___sput+52, %esi
 602      0000
 603 07c3 8975E0   		movl	%esi, -32(%ebp)
 604 07c6 8B3D3000 		movl	___sput+48, %edi
GAS LISTING C:\Users\PRESID~1\AppData\Local\Temp\ccPJOK5j.s 			page 22


 604      0000
 605 07cc 897DDC   		movl	%edi, -36(%ebp)
 606 07cf 8B3D2C00 		movl	___sput+44, %edi
 606      0000
 607 07d5 8B352000 		movl	___sput+32, %esi
 607      0000
 608 07db 8B0D1C00 		movl	___sput+28, %ecx
 608      0000
 609 07e1 A1000000 		movl	___sput, %eax
 609      00
 610 07e6 89542424 		movl	%edx, 36(%esp)
 611 07ea 895C2420 		movl	%ebx, 32(%esp)
 612 07ee 8B55E4   		movl	-28(%ebp), %edx
 613 07f1 8954241C 		movl	%edx, 28(%esp)
 614 07f5 8B5DE0   		movl	-32(%ebp), %ebx
 615 07f8 895C2418 		movl	%ebx, 24(%esp)
 616 07fc 8B55DC   		movl	-36(%ebp), %edx
 617 07ff 89542414 		movl	%edx, 20(%esp)
 618 0803 897C2410 		movl	%edi, 16(%esp)
 619 0807 8974240C 		movl	%esi, 12(%esp)
 620 080b 894C2408 		movl	%ecx, 8(%esp)
 621 080f C7442404 		movl	$LC7, 4(%esp)
 621      8C000000 
 622 0817 890424   		movl	%eax, (%esp)
 623 081a E8E1F7FF 		call	_fprintf
 623      FF
 624 081f E9C90000 		jmp	L34
 624      00
 625              	L31:
 626              		.loc 2 37 0 discriminator 8
 627 0824 A0040000 		movb	___sput+4, %al
 627      00
 628 0829 3C06     		cmpb	$6, %al
 629 082b 7434     		je	L35
 630              		.loc 2 37 0 discriminator 13
 631 082d A1000000 		movl	__imp___iob, %eax
 631      00
 632 0832 83C040   		addl	$64, %eax
 633 0835 8944240C 		movl	%eax, 12(%esp)
 634 0839 C7442408 		movl	$29, 8(%esp)
 634      1D000000 
 635 0841 C7442404 		movl	$1, 4(%esp)
 635      01000000 
 636 0849 C7042400 		movl	$LC0, (%esp)
 636      000000
 637 0850 E8000000 		call	_fwrite
 637      00
 638 0855 C7042401 		movl	$1, (%esp)
 638      000000
 639 085c E8000000 		call	_exit
 639      00
 640              	L35:
 641              		.loc 2 37 0 discriminator 14
 642 0861 A1180000 		movl	___sput+24, %eax
 642      00
 643 0866 85C0     		testl	%eax, %eax
 644 0868 7531     		jne	L36
GAS LISTING C:\Users\PRESID~1\AppData\Local\Temp\ccPJOK5j.s 			page 23


 645              		.loc 2 37 0 discriminator 15
 646 086a A1000000 		movl	___sput, %eax
 646      00
 647 086f 8944240C 		movl	%eax, 12(%esp)
 648 0873 C7442408 		movl	$27, 8(%esp)
 648      1B000000 
 649 087b C7442404 		movl	$1, 4(%esp)
 649      01000000 
 650 0883 C704241E 		movl	$LC1, (%esp)
 650      000000
 651 088a E8000000 		call	_fwrite
 651      00
 652 088f C7042401 		movl	$1, (%esp)
 652      000000
 653 0896 E8000000 		call	_exit
 653      00
 654              	L36:
 655              		.loc 2 37 0 discriminator 16
 656 089b A1240000 		movl	___sput+36, %eax
 656      00
 657 08a0 40       		incl	%eax
 658 08a1 A3240000 		movl	%eax, ___sput+36
 658      00
 659 08a6 8B3D3400 		movl	___sput+52, %edi
 659      0000
 660 08ac 8B353000 		movl	___sput+48, %esi
 660      0000
 661 08b2 8B1D2C00 		movl	___sput+44, %ebx
 661      0000
 662 08b8 8B0D2000 		movl	___sput+32, %ecx
 662      0000
 663 08be 8B151C00 		movl	___sput+28, %edx
 663      0000
 664 08c4 A1000000 		movl	___sput, %eax
 664      00
 665 08c9 897C2418 		movl	%edi, 24(%esp)
 666 08cd 89742414 		movl	%esi, 20(%esp)
 667 08d1 895C2410 		movl	%ebx, 16(%esp)
 668 08d5 894C240C 		movl	%ecx, 12(%esp)
 669 08d9 89542408 		movl	%edx, 8(%esp)
 670 08dd C7442404 		movl	$LC8, 4(%esp)
 670      E8000000 
 671 08e5 890424   		movl	%eax, (%esp)
 672 08e8 E813F7FF 		call	_fprintf
 672      FF
 673              	L34:
  38:E:/NeuOrga/Programmieren/c_cpp/github_os/input/src/os_base\os_init_task_system_test.c ****    sput_fail_unless(count_vowels("Peter") == 2, "Peter == 2v");
 674              		.loc 2 38 0 is_stmt 1
 675 08ed A0040000 		movb	___sput+4, %al
 675      00
 676 08f2 3C06     		cmpb	$6, %al
 677 08f4 7434     		je	L37
 678              		.loc 2 38 0 is_stmt 0 discriminator 1
 679 08f6 A1000000 		movl	__imp___iob, %eax
 679      00
 680 08fb 83C040   		addl	$64, %eax
 681 08fe 8944240C 		movl	%eax, 12(%esp)
GAS LISTING C:\Users\PRESID~1\AppData\Local\Temp\ccPJOK5j.s 			page 24


 682 0902 C7442408 		movl	$29, 8(%esp)
 682      1D000000 
 683 090a C7442404 		movl	$1, 4(%esp)
 683      01000000 
 684 0912 C7042400 		movl	$LC0, (%esp)
 684      000000
 685 0919 E8000000 		call	_fwrite
 685      00
 686 091e C7042401 		movl	$1, (%esp)
 686      000000
 687 0925 E8000000 		call	_exit
 687      00
 688              	L37:
 689              		.loc 2 38 0 discriminator 2
 690 092a A1180000 		movl	___sput+24, %eax
 690      00
 691 092f 85C0     		testl	%eax, %eax
 692 0931 7531     		jne	L38
 693              		.loc 2 38 0 discriminator 3
 694 0933 A1000000 		movl	___sput, %eax
 694      00
 695 0938 8944240C 		movl	%eax, 12(%esp)
 696 093c C7442408 		movl	$27, 8(%esp)
 696      1B000000 
 697 0944 C7442404 		movl	$1, 4(%esp)
 697      01000000 
 698 094c C704241E 		movl	$LC1, (%esp)
 698      000000
 699 0953 E8000000 		call	_fwrite
 699      00
 700 0958 C7042401 		movl	$1, (%esp)
 700      000000
 701 095f E8000000 		call	_exit
 701      00
 702              	L38:
 703              		.loc 2 38 0 discriminator 4
 704 0964 A12C0000 		movl	___sput+44, %eax
 704      00
 705 0969 85C0     		testl	%eax, %eax
 706 096b 7531     		jne	L39
 707              		.loc 2 38 0 discriminator 5
 708 096d A1000000 		movl	___sput, %eax
 708      00
 709 0972 8944240C 		movl	%eax, 12(%esp)
 710 0976 C7442408 		movl	$24, 8(%esp)
 710      18000000 
 711 097e C7442404 		movl	$1, 4(%esp)
 711      01000000 
 712 0986 C704243A 		movl	$LC2, (%esp)
 712      000000
 713 098d E8000000 		call	_fwrite
 713      00
 714 0992 C7042401 		movl	$1, (%esp)
 714      000000
 715 0999 E8000000 		call	_exit
 715      00
 716              	L39:
GAS LISTING C:\Users\PRESID~1\AppData\Local\Temp\ccPJOK5j.s 			page 25


 717              		.loc 2 38 0 discriminator 6
 718 099e C7053400 		movl	$LC15, ___sput+52
 718      00005C01 
 718      0000
 719 09a8 C7054000 		movl	$38, ___sput+64
 719      00002600 
 719      0000
 720 09b2 C7053800 		movl	$LC16, ___sput+56
 720      00006801 
 720      0000
 721 09bc C7053C00 		movl	$LC5, ___sput+60
 721      00007800 
 721      0000
 722 09c6 A1300000 		movl	___sput+48, %eax
 722      00
 723 09cb 40       		incl	%eax
 724 09cc A3300000 		movl	%eax, ___sput+48
 724      00
 725 09d1 A1200000 		movl	___sput+32, %eax
 725      00
 726 09d6 40       		incl	%eax
 727 09d7 A3200000 		movl	%eax, ___sput+32
 727      00
 728 09dc C7042483 		movl	$LC17, (%esp)
 728      010000
 729 09e3 E848F6FF 		call	_count_vowels
 729      FF
 730 09e8 83F802   		cmpl	$2, %eax
 731 09eb 0F84FD00 		je	L40
 731      0000
 732              		.loc 2 38 0 discriminator 7
 733 09f1 A0040000 		movb	___sput+4, %al
 733      00
 734 09f6 3C06     		cmpb	$6, %al
 735 09f8 7434     		je	L41
 736              		.loc 2 38 0 discriminator 9
 737 09fa A1000000 		movl	__imp___iob, %eax
 737      00
 738 09ff 83C040   		addl	$64, %eax
 739 0a02 8944240C 		movl	%eax, 12(%esp)
 740 0a06 C7442408 		movl	$29, 8(%esp)
 740      1D000000 
 741 0a0e C7442404 		movl	$1, 4(%esp)
 741      01000000 
 742 0a16 C7042400 		movl	$LC0, (%esp)
 742      000000
 743 0a1d E8000000 		call	_fwrite
 743      00
 744 0a22 C7042401 		movl	$1, (%esp)
 744      000000
 745 0a29 E8000000 		call	_exit
 745      00
 746              	L41:
 747              		.loc 2 38 0 discriminator 10
 748 0a2e A1180000 		movl	___sput+24, %eax
 748      00
 749 0a33 85C0     		testl	%eax, %eax
GAS LISTING C:\Users\PRESID~1\AppData\Local\Temp\ccPJOK5j.s 			page 26


 750 0a35 7531     		jne	L42
 751              		.loc 2 38 0 discriminator 11
 752 0a37 A1000000 		movl	___sput, %eax
 752      00
 753 0a3c 8944240C 		movl	%eax, 12(%esp)
 754 0a40 C7442408 		movl	$27, 8(%esp)
 754      1B000000 
 755 0a48 C7442404 		movl	$1, 4(%esp)
 755      01000000 
 756 0a50 C704241E 		movl	$LC1, (%esp)
 756      000000
 757 0a57 E8000000 		call	_fwrite
 757      00
 758 0a5c C7042401 		movl	$1, (%esp)
 758      000000
 759 0a63 E8000000 		call	_exit
 759      00
 760              	L42:
 761              		.loc 2 38 0 discriminator 12
 762 0a68 A1280000 		movl	___sput+40, %eax
 762      00
 763 0a6d 40       		incl	%eax
 764 0a6e A3280000 		movl	%eax, ___sput+40
 764      00
 765 0a73 8B154000 		movl	___sput+64, %edx
 765      0000
 766 0a79 8B1D3800 		movl	___sput+56, %ebx
 766      0000
 767 0a7f A13C0000 		movl	___sput+60, %eax
 767      00
 768 0a84 8945E4   		movl	%eax, -28(%ebp)
 769 0a87 8B0D3400 		movl	___sput+52, %ecx
 769      0000
 770 0a8d 894DE0   		movl	%ecx, -32(%ebp)
 771 0a90 8B353000 		movl	___sput+48, %esi
 771      0000
 772 0a96 8975DC   		movl	%esi, -36(%ebp)
 773 0a99 8B3D2C00 		movl	___sput+44, %edi
 773      0000
 774 0a9f 8B352000 		movl	___sput+32, %esi
 774      0000
 775 0aa5 8B0D1C00 		movl	___sput+28, %ecx
 775      0000
 776 0aab A1000000 		movl	___sput, %eax
 776      00
 777 0ab0 89542424 		movl	%edx, 36(%esp)
 778 0ab4 895C2420 		movl	%ebx, 32(%esp)
 779 0ab8 8B5DE4   		movl	-28(%ebp), %ebx
 780 0abb 895C241C 		movl	%ebx, 28(%esp)
 781 0abf 8B55E0   		movl	-32(%ebp), %edx
 782 0ac2 89542418 		movl	%edx, 24(%esp)
 783 0ac6 8B5DDC   		movl	-36(%ebp), %ebx
 784 0ac9 895C2414 		movl	%ebx, 20(%esp)
 785 0acd 897C2410 		movl	%edi, 16(%esp)
 786 0ad1 8974240C 		movl	%esi, 12(%esp)
 787 0ad5 894C2408 		movl	%ecx, 8(%esp)
 788 0ad9 C7442404 		movl	$LC7, 4(%esp)
GAS LISTING C:\Users\PRESID~1\AppData\Local\Temp\ccPJOK5j.s 			page 27


 788      8C000000 
 789 0ae1 890424   		movl	%eax, (%esp)
 790 0ae4 E817F5FF 		call	_fprintf
 790      FF
 791 0ae9 E9C90000 		jmp	L43
 791      00
 792              	L40:
 793              		.loc 2 38 0 discriminator 8
 794 0aee A0040000 		movb	___sput+4, %al
 794      00
 795 0af3 3C06     		cmpb	$6, %al
 796 0af5 7434     		je	L44
 797              		.loc 2 38 0 discriminator 13
 798 0af7 A1000000 		movl	__imp___iob, %eax
 798      00
 799 0afc 83C040   		addl	$64, %eax
 800 0aff 8944240C 		movl	%eax, 12(%esp)
 801 0b03 C7442408 		movl	$29, 8(%esp)
 801      1D000000 
 802 0b0b C7442404 		movl	$1, 4(%esp)
 802      01000000 
 803 0b13 C7042400 		movl	$LC0, (%esp)
 803      000000
 804 0b1a E8000000 		call	_fwrite
 804      00
 805 0b1f C7042401 		movl	$1, (%esp)
 805      000000
 806 0b26 E8000000 		call	_exit
 806      00
 807              	L44:
 808              		.loc 2 38 0 discriminator 14
 809 0b2b A1180000 		movl	___sput+24, %eax
 809      00
 810 0b30 85C0     		testl	%eax, %eax
 811 0b32 7531     		jne	L45
 812              		.loc 2 38 0 discriminator 15
 813 0b34 A1000000 		movl	___sput, %eax
 813      00
 814 0b39 8944240C 		movl	%eax, 12(%esp)
 815 0b3d C7442408 		movl	$27, 8(%esp)
 815      1B000000 
 816 0b45 C7442404 		movl	$1, 4(%esp)
 816      01000000 
 817 0b4d C704241E 		movl	$LC1, (%esp)
 817      000000
 818 0b54 E8000000 		call	_fwrite
 818      00
 819 0b59 C7042401 		movl	$1, (%esp)
 819      000000
 820 0b60 E8000000 		call	_exit
 820      00
 821              	L45:
 822              		.loc 2 38 0 discriminator 16
 823 0b65 A1240000 		movl	___sput+36, %eax
 823      00
 824 0b6a 40       		incl	%eax
 825 0b6b A3240000 		movl	%eax, ___sput+36
GAS LISTING C:\Users\PRESID~1\AppData\Local\Temp\ccPJOK5j.s 			page 28


 825      00
 826 0b70 8B3D3400 		movl	___sput+52, %edi
 826      0000
 827 0b76 8B353000 		movl	___sput+48, %esi
 827      0000
 828 0b7c 8B1D2C00 		movl	___sput+44, %ebx
 828      0000
 829 0b82 8B0D2000 		movl	___sput+32, %ecx
 829      0000
 830 0b88 8B151C00 		movl	___sput+28, %edx
 830      0000
 831 0b8e A1000000 		movl	___sput, %eax
 831      00
 832 0b93 897C2418 		movl	%edi, 24(%esp)
 833 0b97 89742414 		movl	%esi, 20(%esp)
 834 0b9b 895C2410 		movl	%ebx, 16(%esp)
 835 0b9f 894C240C 		movl	%ecx, 12(%esp)
 836 0ba3 89542408 		movl	%edx, 8(%esp)
 837 0ba7 C7442404 		movl	$LC8, 4(%esp)
 837      E8000000 
 838 0baf 890424   		movl	%eax, (%esp)
 839 0bb2 E849F4FF 		call	_fprintf
 839      FF
 840              	L43:
  39:E:/NeuOrga/Programmieren/c_cpp/github_os/input/src/os_base\os_init_task_system_test.c ****    sput_fail_unless(count_vowels("Apu")   == 2, "Apu == 2v");
 841              		.loc 2 39 0 is_stmt 1
 842 0bb7 A0040000 		movb	___sput+4, %al
 842      00
 843 0bbc 3C06     		cmpb	$6, %al
 844 0bbe 7434     		je	L46
 845              		.loc 2 39 0 is_stmt 0 discriminator 1
 846 0bc0 A1000000 		movl	__imp___iob, %eax
 846      00
 847 0bc5 83C040   		addl	$64, %eax
 848 0bc8 8944240C 		movl	%eax, 12(%esp)
 849 0bcc C7442408 		movl	$29, 8(%esp)
 849      1D000000 
 850 0bd4 C7442404 		movl	$1, 4(%esp)
 850      01000000 
 851 0bdc C7042400 		movl	$LC0, (%esp)
 851      000000
 852 0be3 E8000000 		call	_fwrite
 852      00
 853 0be8 C7042401 		movl	$1, (%esp)
 853      000000
 854 0bef E8000000 		call	_exit
 854      00
 855              	L46:
 856              		.loc 2 39 0 discriminator 2
 857 0bf4 A1180000 		movl	___sput+24, %eax
 857      00
 858 0bf9 85C0     		testl	%eax, %eax
 859 0bfb 7531     		jne	L47
 860              		.loc 2 39 0 discriminator 3
 861 0bfd A1000000 		movl	___sput, %eax
 861      00
 862 0c02 8944240C 		movl	%eax, 12(%esp)
GAS LISTING C:\Users\PRESID~1\AppData\Local\Temp\ccPJOK5j.s 			page 29


 863 0c06 C7442408 		movl	$27, 8(%esp)
 863      1B000000 
 864 0c0e C7442404 		movl	$1, 4(%esp)
 864      01000000 
 865 0c16 C704241E 		movl	$LC1, (%esp)
 865      000000
 866 0c1d E8000000 		call	_fwrite
 866      00
 867 0c22 C7042401 		movl	$1, (%esp)
 867      000000
 868 0c29 E8000000 		call	_exit
 868      00
 869              	L47:
 870              		.loc 2 39 0 discriminator 4
 871 0c2e A12C0000 		movl	___sput+44, %eax
 871      00
 872 0c33 85C0     		testl	%eax, %eax
 873 0c35 7531     		jne	L48
 874              		.loc 2 39 0 discriminator 5
 875 0c37 A1000000 		movl	___sput, %eax
 875      00
 876 0c3c 8944240C 		movl	%eax, 12(%esp)
 877 0c40 C7442408 		movl	$24, 8(%esp)
 877      18000000 
 878 0c48 C7442404 		movl	$1, 4(%esp)
 878      01000000 
 879 0c50 C704243A 		movl	$LC2, (%esp)
 879      000000
 880 0c57 E8000000 		call	_fwrite
 880      00
 881 0c5c C7042401 		movl	$1, (%esp)
 881      000000
 882 0c63 E8000000 		call	_exit
 882      00
 883              	L48:
 884              		.loc 2 39 0 discriminator 6
 885 0c68 C7053400 		movl	$LC18, ___sput+52
 885      00008901 
 885      0000
 886 0c72 C7054000 		movl	$39, ___sput+64
 886      00002700 
 886      0000
 887 0c7c C7053800 		movl	$LC19, ___sput+56
 887      00009301 
 887      0000
 888 0c86 C7053C00 		movl	$LC5, ___sput+60
 888      00007800 
 888      0000
 889 0c90 A1300000 		movl	___sput+48, %eax
 889      00
 890 0c95 40       		incl	%eax
 891 0c96 A3300000 		movl	%eax, ___sput+48
 891      00
 892 0c9b A1200000 		movl	___sput+32, %eax
 892      00
 893 0ca0 40       		incl	%eax
 894 0ca1 A3200000 		movl	%eax, ___sput+32
GAS LISTING C:\Users\PRESID~1\AppData\Local\Temp\ccPJOK5j.s 			page 30


 894      00
 895 0ca6 C70424AC 		movl	$LC20, (%esp)
 895      010000
 896 0cad E87EF3FF 		call	_count_vowels
 896      FF
 897 0cb2 83F802   		cmpl	$2, %eax
 898 0cb5 0F84FD00 		je	L49
 898      0000
 899              		.loc 2 39 0 discriminator 7
 900 0cbb A0040000 		movb	___sput+4, %al
 900      00
 901 0cc0 3C06     		cmpb	$6, %al
 902 0cc2 7434     		je	L50
 903              		.loc 2 39 0 discriminator 9
 904 0cc4 A1000000 		movl	__imp___iob, %eax
 904      00
 905 0cc9 83C040   		addl	$64, %eax
 906 0ccc 8944240C 		movl	%eax, 12(%esp)
 907 0cd0 C7442408 		movl	$29, 8(%esp)
 907      1D000000 
 908 0cd8 C7442404 		movl	$1, 4(%esp)
 908      01000000 
 909 0ce0 C7042400 		movl	$LC0, (%esp)
 909      000000
 910 0ce7 E8000000 		call	_fwrite
 910      00
 911 0cec C7042401 		movl	$1, (%esp)
 911      000000
 912 0cf3 E8000000 		call	_exit
 912      00
 913              	L50:
 914              		.loc 2 39 0 discriminator 10
 915 0cf8 A1180000 		movl	___sput+24, %eax
 915      00
 916 0cfd 85C0     		testl	%eax, %eax
 917 0cff 7531     		jne	L51
 918              		.loc 2 39 0 discriminator 11
 919 0d01 A1000000 		movl	___sput, %eax
 919      00
 920 0d06 8944240C 		movl	%eax, 12(%esp)
 921 0d0a C7442408 		movl	$27, 8(%esp)
 921      1B000000 
 922 0d12 C7442404 		movl	$1, 4(%esp)
 922      01000000 
 923 0d1a C704241E 		movl	$LC1, (%esp)
 923      000000
 924 0d21 E8000000 		call	_fwrite
 924      00
 925 0d26 C7042401 		movl	$1, (%esp)
 925      000000
 926 0d2d E8000000 		call	_exit
 926      00
 927              	L51:
 928              		.loc 2 39 0 discriminator 12
 929 0d32 A1280000 		movl	___sput+40, %eax
 929      00
 930 0d37 40       		incl	%eax
GAS LISTING C:\Users\PRESID~1\AppData\Local\Temp\ccPJOK5j.s 			page 31


 931 0d38 A3280000 		movl	%eax, ___sput+40
 931      00
 932 0d3d 8B154000 		movl	___sput+64, %edx
 932      0000
 933 0d43 8B1D3800 		movl	___sput+56, %ebx
 933      0000
 934 0d49 A13C0000 		movl	___sput+60, %eax
 934      00
 935 0d4e 8945E4   		movl	%eax, -28(%ebp)
 936 0d51 8B3D3400 		movl	___sput+52, %edi
 936      0000
 937 0d57 897DE0   		movl	%edi, -32(%ebp)
 938 0d5a 8B0D3000 		movl	___sput+48, %ecx
 938      0000
 939 0d60 894DDC   		movl	%ecx, -36(%ebp)
 940 0d63 8B3D2C00 		movl	___sput+44, %edi
 940      0000
 941 0d69 8B352000 		movl	___sput+32, %esi
 941      0000
 942 0d6f 8B0D1C00 		movl	___sput+28, %ecx
 942      0000
 943 0d75 A1000000 		movl	___sput, %eax
 943      00
 944 0d7a 89542424 		movl	%edx, 36(%esp)
 945 0d7e 895C2420 		movl	%ebx, 32(%esp)
 946 0d82 8B55E4   		movl	-28(%ebp), %edx
 947 0d85 8954241C 		movl	%edx, 28(%esp)
 948 0d89 8B5DE0   		movl	-32(%ebp), %ebx
 949 0d8c 895C2418 		movl	%ebx, 24(%esp)
 950 0d90 8B55DC   		movl	-36(%ebp), %edx
 951 0d93 89542414 		movl	%edx, 20(%esp)
 952 0d97 897C2410 		movl	%edi, 16(%esp)
 953 0d9b 8974240C 		movl	%esi, 12(%esp)
 954 0d9f 894C2408 		movl	%ecx, 8(%esp)
 955 0da3 C7442404 		movl	$LC7, 4(%esp)
 955      8C000000 
 956 0dab 890424   		movl	%eax, (%esp)
 957 0dae E84DF2FF 		call	_fprintf
 957      FF
 958 0db3 E9C90000 		jmp	L9
 958      00
 959              	L49:
 960              		.loc 2 39 0 discriminator 8
 961 0db8 A0040000 		movb	___sput+4, %al
 961      00
 962 0dbd 3C06     		cmpb	$6, %al
 963 0dbf 7434     		je	L53
 964              		.loc 2 39 0 discriminator 13
 965 0dc1 A1000000 		movl	__imp___iob, %eax
 965      00
 966 0dc6 83C040   		addl	$64, %eax
 967 0dc9 8944240C 		movl	%eax, 12(%esp)
 968 0dcd C7442408 		movl	$29, 8(%esp)
 968      1D000000 
 969 0dd5 C7442404 		movl	$1, 4(%esp)
 969      01000000 
 970 0ddd C7042400 		movl	$LC0, (%esp)
GAS LISTING C:\Users\PRESID~1\AppData\Local\Temp\ccPJOK5j.s 			page 32


 970      000000
 971 0de4 E8000000 		call	_fwrite
 971      00
 972 0de9 C7042401 		movl	$1, (%esp)
 972      000000
 973 0df0 E8000000 		call	_exit
 973      00
 974              	L53:
 975              		.loc 2 39 0 discriminator 14
 976 0df5 A1180000 		movl	___sput+24, %eax
 976      00
 977 0dfa 85C0     		testl	%eax, %eax
 978 0dfc 7531     		jne	L54
 979              		.loc 2 39 0 discriminator 15
 980 0dfe A1000000 		movl	___sput, %eax
 980      00
 981 0e03 8944240C 		movl	%eax, 12(%esp)
 982 0e07 C7442408 		movl	$27, 8(%esp)
 982      1B000000 
 983 0e0f C7442404 		movl	$1, 4(%esp)
 983      01000000 
 984 0e17 C704241E 		movl	$LC1, (%esp)
 984      000000
 985 0e1e E8000000 		call	_fwrite
 985      00
 986 0e23 C7042401 		movl	$1, (%esp)
 986      000000
 987 0e2a E8000000 		call	_exit
 987      00
 988              	L54:
 989              		.loc 2 39 0 discriminator 16
 990 0e2f A1240000 		movl	___sput+36, %eax
 990      00
 991 0e34 40       		incl	%eax
 992 0e35 A3240000 		movl	%eax, ___sput+36
 992      00
 993 0e3a 8B3D3400 		movl	___sput+52, %edi
 993      0000
 994 0e40 8B353000 		movl	___sput+48, %esi
 994      0000
 995 0e46 8B1D2C00 		movl	___sput+44, %ebx
 995      0000
 996 0e4c 8B0D2000 		movl	___sput+32, %ecx
 996      0000
 997 0e52 8B151C00 		movl	___sput+28, %edx
 997      0000
 998 0e58 A1000000 		movl	___sput, %eax
 998      00
 999 0e5d 897C2418 		movl	%edi, 24(%esp)
 1000 0e61 89742414 		movl	%esi, 20(%esp)
 1001 0e65 895C2410 		movl	%ebx, 16(%esp)
 1002 0e69 894C240C 		movl	%ecx, 12(%esp)
 1003 0e6d 89542408 		movl	%edx, 8(%esp)
 1004 0e71 C7442404 		movl	$LC8, 4(%esp)
 1004      E8000000 
 1005 0e79 890424   		movl	%eax, (%esp)
 1006 0e7c E87FF1FF 		call	_fprintf
GAS LISTING C:\Users\PRESID~1\AppData\Local\Temp\ccPJOK5j.s 			page 33


 1006      FF
 1007              	L9:
  40:E:/NeuOrga/Programmieren/c_cpp/github_os/input/src/os_base\os_init_task_system_test.c **** }
 1008              		.loc 2 40 0 is_stmt 1
 1009 0e81 83C44C   		addl	$76, %esp
 1010 0e84 5B       		popl	%ebx
 1011              		.cfi_restore 3
 1012 0e85 5E       		popl	%esi
 1013              		.cfi_restore 6
 1014 0e86 5F       		popl	%edi
 1015              		.cfi_restore 7
 1016 0e87 5D       		popl	%ebp
 1017              		.cfi_restore 5
 1018              		.cfi_def_cfa 4, 4
 1019 0e88 C3       		ret
 1020              		.cfi_endproc
 1021              	LFE11:
 1022              		.section .rdata,"dr"
 1023              	LC21:
 1024 01b0 47434320 		.ascii "GCC == 0v\0"
 1024      3D3D2030 
 1024      7600
 1025              	LC22:
 1026 01ba 636F756E 		.ascii "count_vowels(\"GCC\") == 0\0"
 1026      745F766F 
 1026      77656C73 
 1026      28224743 
 1026      43222920 
 1027              	LC23:
 1028 01d3 47434300 		.ascii "GCC\0"
 1029              	LC24:
 1030 01d7 42424320 		.ascii "BBC == 0v\0"
 1030      3D3D2030 
 1030      7600
 1031              	LC25:
 1032 01e1 636F756E 		.ascii "count_vowels(\"BBC\") == 0\0"
 1032      745F766F 
 1032      77656C73 
 1032      28224242 
 1032      43222920 
 1033              	LC26:
 1034 01fa 42424300 		.ascii "BBC\0"
 1035              	LC27:
 1036 01fe 434E4E20 		.ascii "CNN == 0v\0"
 1036      3D3D2030 
 1036      7600
 1037              	LC28:
 1038 0208 636F756E 		.ascii "count_vowels(\"CNN\") == 0\0"
 1038      745F766F 
 1038      77656C73 
 1038      2822434E 
 1038      4E222920 
 1039              	LC29:
 1040 0221 434E4E00 		.ascii "CNN\0"
 1041              	LC30:
 1042 0225 47505320 		.ascii "GPS == 0v\0"
 1042      3D3D2030 
GAS LISTING C:\Users\PRESID~1\AppData\Local\Temp\ccPJOK5j.s 			page 34


 1042      7600
 1043              	LC31:
 1044 022f 636F756E 		.ascii "count_vowels(\"GPS\") == 0\0"
 1044      745F766F 
 1044      77656C73 
 1044      28224750 
 1044      53222920 
 1045              	LC32:
 1046 0248 47505300 		.ascii "GPS\0"
 1047              	LC33:
 1048 024c 4C746420 		.ascii "Ltd == 0v\0"
 1048      3D3D2030 
 1048      7600
 1049              	LC34:
 1050 0256 636F756E 		.ascii "count_vowels(\"Ltd\") == 0\0"
 1050      745F766F 
 1050      77656C73 
 1050      28224C74 
 1050      64222920 
 1051              	LC35:
 1052 026f 4C746400 		.ascii "Ltd\0"
 1053              		.text
 1055              	_test_no_vowels_present:
 1056              	LFB12:
  41:E:/NeuOrga/Programmieren/c_cpp/github_os/input/src/os_base\os_init_task_system_test.c **** 
  42:E:/NeuOrga/Programmieren/c_cpp/github_os/input/src/os_base\os_init_task_system_test.c **** 
  43:E:/NeuOrga/Programmieren/c_cpp/github_os/input/src/os_base\os_init_task_system_test.c **** static void test_no_vowels_present()
  44:E:/NeuOrga/Programmieren/c_cpp/github_os/input/src/os_base\os_init_task_system_test.c **** {
 1057              		.loc 2 44 0
 1058              		.cfi_startproc
 1059 0e89 55       		pushl	%ebp
 1060              		.cfi_def_cfa_offset 8
 1061              		.cfi_offset 5, -8
 1062 0e8a 89E5     		movl	%esp, %ebp
 1063              		.cfi_def_cfa_register 5
 1064 0e8c 57       		pushl	%edi
 1065 0e8d 56       		pushl	%esi
 1066 0e8e 53       		pushl	%ebx
 1067 0e8f 83EC4C   		subl	$76, %esp
 1068              		.cfi_offset 7, -12
 1069              		.cfi_offset 6, -16
 1070              		.cfi_offset 3, -20
  45:E:/NeuOrga/Programmieren/c_cpp/github_os/input/src/os_base\os_init_task_system_test.c ****    sput_fail_unless(count_vowels("GCC") == 0, "GCC == 0v");
 1071              		.loc 2 45 0
 1072 0e92 A0040000 		movb	___sput+4, %al
 1072      00
 1073 0e97 3C06     		cmpb	$6, %al
 1074 0e99 7434     		je	L56
 1075              		.loc 2 45 0 is_stmt 0 discriminator 1
 1076 0e9b A1000000 		movl	__imp___iob, %eax
 1076      00
 1077 0ea0 83C040   		addl	$64, %eax
 1078 0ea3 8944240C 		movl	%eax, 12(%esp)
 1079 0ea7 C7442408 		movl	$29, 8(%esp)
 1079      1D000000 
 1080 0eaf C7442404 		movl	$1, 4(%esp)
 1080      01000000 
GAS LISTING C:\Users\PRESID~1\AppData\Local\Temp\ccPJOK5j.s 			page 35


 1081 0eb7 C7042400 		movl	$LC0, (%esp)
 1081      000000
 1082 0ebe E8000000 		call	_fwrite
 1082      00
 1083 0ec3 C7042401 		movl	$1, (%esp)
 1083      000000
 1084 0eca E8000000 		call	_exit
 1084      00
 1085              	L56:
 1086              		.loc 2 45 0 discriminator 2
 1087 0ecf A1180000 		movl	___sput+24, %eax
 1087      00
 1088 0ed4 85C0     		testl	%eax, %eax
 1089 0ed6 7531     		jne	L57
 1090              		.loc 2 45 0 discriminator 3
 1091 0ed8 A1000000 		movl	___sput, %eax
 1091      00
 1092 0edd 8944240C 		movl	%eax, 12(%esp)
 1093 0ee1 C7442408 		movl	$27, 8(%esp)
 1093      1B000000 
 1094 0ee9 C7442404 		movl	$1, 4(%esp)
 1094      01000000 
 1095 0ef1 C704241E 		movl	$LC1, (%esp)
 1095      000000
 1096 0ef8 E8000000 		call	_fwrite
 1096      00
 1097 0efd C7042401 		movl	$1, (%esp)
 1097      000000
 1098 0f04 E8000000 		call	_exit
 1098      00
 1099              	L57:
 1100              		.loc 2 45 0 discriminator 4
 1101 0f09 A12C0000 		movl	___sput+44, %eax
 1101      00
 1102 0f0e 85C0     		testl	%eax, %eax
 1103 0f10 7531     		jne	L58
 1104              		.loc 2 45 0 discriminator 5
 1105 0f12 A1000000 		movl	___sput, %eax
 1105      00
 1106 0f17 8944240C 		movl	%eax, 12(%esp)
 1107 0f1b C7442408 		movl	$24, 8(%esp)
 1107      18000000 
 1108 0f23 C7442404 		movl	$1, 4(%esp)
 1108      01000000 
 1109 0f2b C704243A 		movl	$LC2, (%esp)
 1109      000000
 1110 0f32 E8000000 		call	_fwrite
 1110      00
 1111 0f37 C7042401 		movl	$1, (%esp)
 1111      000000
 1112 0f3e E8000000 		call	_exit
 1112      00
 1113              	L58:
 1114              		.loc 2 45 0 discriminator 6
 1115 0f43 C7053400 		movl	$LC21, ___sput+52
 1115      0000B001 
 1115      0000
GAS LISTING C:\Users\PRESID~1\AppData\Local\Temp\ccPJOK5j.s 			page 36


 1116 0f4d C7054000 		movl	$45, ___sput+64
 1116      00002D00 
 1116      0000
 1117 0f57 C7053800 		movl	$LC22, ___sput+56
 1117      0000BA01 
 1117      0000
 1118 0f61 C7053C00 		movl	$LC5, ___sput+60
 1118      00007800 
 1118      0000
 1119 0f6b A1300000 		movl	___sput+48, %eax
 1119      00
 1120 0f70 40       		incl	%eax
 1121 0f71 A3300000 		movl	%eax, ___sput+48
 1121      00
 1122 0f76 A1200000 		movl	___sput+32, %eax
 1122      00
 1123 0f7b 40       		incl	%eax
 1124 0f7c A3200000 		movl	%eax, ___sput+32
 1124      00
 1125 0f81 C70424D3 		movl	$LC23, (%esp)
 1125      010000
 1126 0f88 E8A3F0FF 		call	_count_vowels
 1126      FF
 1127 0f8d 85C0     		testl	%eax, %eax
 1128 0f8f 0F84FD00 		je	L59
 1128      0000
 1129              		.loc 2 45 0 discriminator 7
 1130 0f95 A0040000 		movb	___sput+4, %al
 1130      00
 1131 0f9a 3C06     		cmpb	$6, %al
 1132 0f9c 7434     		je	L60
 1133              		.loc 2 45 0 discriminator 9
 1134 0f9e A1000000 		movl	__imp___iob, %eax
 1134      00
 1135 0fa3 83C040   		addl	$64, %eax
 1136 0fa6 8944240C 		movl	%eax, 12(%esp)
 1137 0faa C7442408 		movl	$29, 8(%esp)
 1137      1D000000 
 1138 0fb2 C7442404 		movl	$1, 4(%esp)
 1138      01000000 
 1139 0fba C7042400 		movl	$LC0, (%esp)
 1139      000000
 1140 0fc1 E8000000 		call	_fwrite
 1140      00
 1141 0fc6 C7042401 		movl	$1, (%esp)
 1141      000000
 1142 0fcd E8000000 		call	_exit
 1142      00
 1143              	L60:
 1144              		.loc 2 45 0 discriminator 10
 1145 0fd2 A1180000 		movl	___sput+24, %eax
 1145      00
 1146 0fd7 85C0     		testl	%eax, %eax
 1147 0fd9 7531     		jne	L61
 1148              		.loc 2 45 0 discriminator 11
 1149 0fdb A1000000 		movl	___sput, %eax
 1149      00
GAS LISTING C:\Users\PRESID~1\AppData\Local\Temp\ccPJOK5j.s 			page 37


 1150 0fe0 8944240C 		movl	%eax, 12(%esp)
 1151 0fe4 C7442408 		movl	$27, 8(%esp)
 1151      1B000000 
 1152 0fec C7442404 		movl	$1, 4(%esp)
 1152      01000000 
 1153 0ff4 C704241E 		movl	$LC1, (%esp)
 1153      000000
 1154 0ffb E8000000 		call	_fwrite
 1154      00
 1155 1000 C7042401 		movl	$1, (%esp)
 1155      000000
 1156 1007 E8000000 		call	_exit
 1156      00
 1157              	L61:
 1158              		.loc 2 45 0 discriminator 12
 1159 100c A1280000 		movl	___sput+40, %eax
 1159      00
 1160 1011 40       		incl	%eax
 1161 1012 A3280000 		movl	%eax, ___sput+40
 1161      00
 1162 1017 8B154000 		movl	___sput+64, %edx
 1162      0000
 1163 101d 8B1D3800 		movl	___sput+56, %ebx
 1163      0000
 1164 1023 A13C0000 		movl	___sput+60, %eax
 1164      00
 1165 1028 8945E4   		movl	%eax, -28(%ebp)
 1166 102b 8B0D3400 		movl	___sput+52, %ecx
 1166      0000
 1167 1031 894DE0   		movl	%ecx, -32(%ebp)
 1168 1034 8B353000 		movl	___sput+48, %esi
 1168      0000
 1169 103a 8975DC   		movl	%esi, -36(%ebp)
 1170 103d 8B3D2C00 		movl	___sput+44, %edi
 1170      0000
 1171 1043 8B352000 		movl	___sput+32, %esi
 1171      0000
 1172 1049 8B0D1C00 		movl	___sput+28, %ecx
 1172      0000
 1173 104f A1000000 		movl	___sput, %eax
 1173      00
 1174 1054 89542424 		movl	%edx, 36(%esp)
 1175 1058 895C2420 		movl	%ebx, 32(%esp)
 1176 105c 8B55E4   		movl	-28(%ebp), %edx
 1177 105f 8954241C 		movl	%edx, 28(%esp)
 1178 1063 8B5DE0   		movl	-32(%ebp), %ebx
 1179 1066 895C2418 		movl	%ebx, 24(%esp)
 1180 106a 8B55DC   		movl	-36(%ebp), %edx
 1181 106d 89542414 		movl	%edx, 20(%esp)
 1182 1071 897C2410 		movl	%edi, 16(%esp)
 1183 1075 8974240C 		movl	%esi, 12(%esp)
 1184 1079 894C2408 		movl	%ecx, 8(%esp)
 1185 107d C7442404 		movl	$LC7, 4(%esp)
 1185      8C000000 
 1186 1085 890424   		movl	%eax, (%esp)
 1187 1088 E873EFFF 		call	_fprintf
 1187      FF
GAS LISTING C:\Users\PRESID~1\AppData\Local\Temp\ccPJOK5j.s 			page 38


 1188 108d E9C90000 		jmp	L62
 1188      00
 1189              	L59:
 1190              		.loc 2 45 0 discriminator 8
 1191 1092 A0040000 		movb	___sput+4, %al
 1191      00
 1192 1097 3C06     		cmpb	$6, %al
 1193 1099 7434     		je	L63
 1194              		.loc 2 45 0 discriminator 13
 1195 109b A1000000 		movl	__imp___iob, %eax
 1195      00
 1196 10a0 83C040   		addl	$64, %eax
 1197 10a3 8944240C 		movl	%eax, 12(%esp)
 1198 10a7 C7442408 		movl	$29, 8(%esp)
 1198      1D000000 
 1199 10af C7442404 		movl	$1, 4(%esp)
 1199      01000000 
 1200 10b7 C7042400 		movl	$LC0, (%esp)
 1200      000000
 1201 10be E8000000 		call	_fwrite
 1201      00
 1202 10c3 C7042401 		movl	$1, (%esp)
 1202      000000
 1203 10ca E8000000 		call	_exit
 1203      00
 1204              	L63:
 1205              		.loc 2 45 0 discriminator 14
 1206 10cf A1180000 		movl	___sput+24, %eax
 1206      00
 1207 10d4 85C0     		testl	%eax, %eax
 1208 10d6 7531     		jne	L64
 1209              		.loc 2 45 0 discriminator 15
 1210 10d8 A1000000 		movl	___sput, %eax
 1210      00
 1211 10dd 8944240C 		movl	%eax, 12(%esp)
 1212 10e1 C7442408 		movl	$27, 8(%esp)
 1212      1B000000 
 1213 10e9 C7442404 		movl	$1, 4(%esp)
 1213      01000000 
 1214 10f1 C704241E 		movl	$LC1, (%esp)
 1214      000000
 1215 10f8 E8000000 		call	_fwrite
 1215      00
 1216 10fd C7042401 		movl	$1, (%esp)
 1216      000000
 1217 1104 E8000000 		call	_exit
 1217      00
 1218              	L64:
 1219              		.loc 2 45 0 discriminator 16
 1220 1109 A1240000 		movl	___sput+36, %eax
 1220      00
 1221 110e 40       		incl	%eax
 1222 110f A3240000 		movl	%eax, ___sput+36
 1222      00
 1223 1114 8B3D3400 		movl	___sput+52, %edi
 1223      0000
 1224 111a 8B353000 		movl	___sput+48, %esi
GAS LISTING C:\Users\PRESID~1\AppData\Local\Temp\ccPJOK5j.s 			page 39


 1224      0000
 1225 1120 8B1D2C00 		movl	___sput+44, %ebx
 1225      0000
 1226 1126 8B0D2000 		movl	___sput+32, %ecx
 1226      0000
 1227 112c 8B151C00 		movl	___sput+28, %edx
 1227      0000
 1228 1132 A1000000 		movl	___sput, %eax
 1228      00
 1229 1137 897C2418 		movl	%edi, 24(%esp)
 1230 113b 89742414 		movl	%esi, 20(%esp)
 1231 113f 895C2410 		movl	%ebx, 16(%esp)
 1232 1143 894C240C 		movl	%ecx, 12(%esp)
 1233 1147 89542408 		movl	%edx, 8(%esp)
 1234 114b C7442404 		movl	$LC8, 4(%esp)
 1234      E8000000 
 1235 1153 890424   		movl	%eax, (%esp)
 1236 1156 E8A5EEFF 		call	_fprintf
 1236      FF
 1237              	L62:
  46:E:/NeuOrga/Programmieren/c_cpp/github_os/input/src/os_base\os_init_task_system_test.c ****    sput_fail_unless(count_vowels("BBC") == 0, "BBC == 0v");
 1238              		.loc 2 46 0 is_stmt 1
 1239 115b A0040000 		movb	___sput+4, %al
 1239      00
 1240 1160 3C06     		cmpb	$6, %al
 1241 1162 7434     		je	L65
 1242              		.loc 2 46 0 is_stmt 0 discriminator 1
 1243 1164 A1000000 		movl	__imp___iob, %eax
 1243      00
 1244 1169 83C040   		addl	$64, %eax
 1245 116c 8944240C 		movl	%eax, 12(%esp)
 1246 1170 C7442408 		movl	$29, 8(%esp)
 1246      1D000000 
 1247 1178 C7442404 		movl	$1, 4(%esp)
 1247      01000000 
 1248 1180 C7042400 		movl	$LC0, (%esp)
 1248      000000
 1249 1187 E8000000 		call	_fwrite
 1249      00
 1250 118c C7042401 		movl	$1, (%esp)
 1250      000000
 1251 1193 E8000000 		call	_exit
 1251      00
 1252              	L65:
 1253              		.loc 2 46 0 discriminator 2
 1254 1198 A1180000 		movl	___sput+24, %eax
 1254      00
 1255 119d 85C0     		testl	%eax, %eax
 1256 119f 7531     		jne	L66
 1257              		.loc 2 46 0 discriminator 3
 1258 11a1 A1000000 		movl	___sput, %eax
 1258      00
 1259 11a6 8944240C 		movl	%eax, 12(%esp)
 1260 11aa C7442408 		movl	$27, 8(%esp)
 1260      1B000000 
 1261 11b2 C7442404 		movl	$1, 4(%esp)
 1261      01000000 
GAS LISTING C:\Users\PRESID~1\AppData\Local\Temp\ccPJOK5j.s 			page 40


 1262 11ba C704241E 		movl	$LC1, (%esp)
 1262      000000
 1263 11c1 E8000000 		call	_fwrite
 1263      00
 1264 11c6 C7042401 		movl	$1, (%esp)
 1264      000000
 1265 11cd E8000000 		call	_exit
 1265      00
 1266              	L66:
 1267              		.loc 2 46 0 discriminator 4
 1268 11d2 A12C0000 		movl	___sput+44, %eax
 1268      00
 1269 11d7 85C0     		testl	%eax, %eax
 1270 11d9 7531     		jne	L67
 1271              		.loc 2 46 0 discriminator 5
 1272 11db A1000000 		movl	___sput, %eax
 1272      00
 1273 11e0 8944240C 		movl	%eax, 12(%esp)
 1274 11e4 C7442408 		movl	$24, 8(%esp)
 1274      18000000 
 1275 11ec C7442404 		movl	$1, 4(%esp)
 1275      01000000 
 1276 11f4 C704243A 		movl	$LC2, (%esp)
 1276      000000
 1277 11fb E8000000 		call	_fwrite
 1277      00
 1278 1200 C7042401 		movl	$1, (%esp)
 1278      000000
 1279 1207 E8000000 		call	_exit
 1279      00
 1280              	L67:
 1281              		.loc 2 46 0 discriminator 6
 1282 120c C7053400 		movl	$LC24, ___sput+52
 1282      0000D701 
 1282      0000
 1283 1216 C7054000 		movl	$46, ___sput+64
 1283      00002E00 
 1283      0000
 1284 1220 C7053800 		movl	$LC25, ___sput+56
 1284      0000E101 
 1284      0000
 1285 122a C7053C00 		movl	$LC5, ___sput+60
 1285      00007800 
 1285      0000
 1286 1234 A1300000 		movl	___sput+48, %eax
 1286      00
 1287 1239 40       		incl	%eax
 1288 123a A3300000 		movl	%eax, ___sput+48
 1288      00
 1289 123f A1200000 		movl	___sput+32, %eax
 1289      00
 1290 1244 40       		incl	%eax
 1291 1245 A3200000 		movl	%eax, ___sput+32
 1291      00
 1292 124a C70424FA 		movl	$LC26, (%esp)
 1292      010000
 1293 1251 E8DAEDFF 		call	_count_vowels
GAS LISTING C:\Users\PRESID~1\AppData\Local\Temp\ccPJOK5j.s 			page 41


 1293      FF
 1294 1256 85C0     		testl	%eax, %eax
 1295 1258 0F84FD00 		je	L68
 1295      0000
 1296              		.loc 2 46 0 discriminator 7
 1297 125e A0040000 		movb	___sput+4, %al
 1297      00
 1298 1263 3C06     		cmpb	$6, %al
 1299 1265 7434     		je	L69
 1300              		.loc 2 46 0 discriminator 9
 1301 1267 A1000000 		movl	__imp___iob, %eax
 1301      00
 1302 126c 83C040   		addl	$64, %eax
 1303 126f 8944240C 		movl	%eax, 12(%esp)
 1304 1273 C7442408 		movl	$29, 8(%esp)
 1304      1D000000 
 1305 127b C7442404 		movl	$1, 4(%esp)
 1305      01000000 
 1306 1283 C7042400 		movl	$LC0, (%esp)
 1306      000000
 1307 128a E8000000 		call	_fwrite
 1307      00
 1308 128f C7042401 		movl	$1, (%esp)
 1308      000000
 1309 1296 E8000000 		call	_exit
 1309      00
 1310              	L69:
 1311              		.loc 2 46 0 discriminator 10
 1312 129b A1180000 		movl	___sput+24, %eax
 1312      00
 1313 12a0 85C0     		testl	%eax, %eax
 1314 12a2 7531     		jne	L70
 1315              		.loc 2 46 0 discriminator 11
 1316 12a4 A1000000 		movl	___sput, %eax
 1316      00
 1317 12a9 8944240C 		movl	%eax, 12(%esp)
 1318 12ad C7442408 		movl	$27, 8(%esp)
 1318      1B000000 
 1319 12b5 C7442404 		movl	$1, 4(%esp)
 1319      01000000 
 1320 12bd C704241E 		movl	$LC1, (%esp)
 1320      000000
 1321 12c4 E8000000 		call	_fwrite
 1321      00
 1322 12c9 C7042401 		movl	$1, (%esp)
 1322      000000
 1323 12d0 E8000000 		call	_exit
 1323      00
 1324              	L70:
 1325              		.loc 2 46 0 discriminator 12
 1326 12d5 A1280000 		movl	___sput+40, %eax
 1326      00
 1327 12da 40       		incl	%eax
 1328 12db A3280000 		movl	%eax, ___sput+40
 1328      00
 1329 12e0 8B154000 		movl	___sput+64, %edx
 1329      0000
GAS LISTING C:\Users\PRESID~1\AppData\Local\Temp\ccPJOK5j.s 			page 42


 1330 12e6 8B1D3800 		movl	___sput+56, %ebx
 1330      0000
 1331 12ec A13C0000 		movl	___sput+60, %eax
 1331      00
 1332 12f1 8945E4   		movl	%eax, -28(%ebp)
 1333 12f4 8B3D3400 		movl	___sput+52, %edi
 1333      0000
 1334 12fa 897DE0   		movl	%edi, -32(%ebp)
 1335 12fd 8B0D3000 		movl	___sput+48, %ecx
 1335      0000
 1336 1303 894DDC   		movl	%ecx, -36(%ebp)
 1337 1306 8B3D2C00 		movl	___sput+44, %edi
 1337      0000
 1338 130c 8B352000 		movl	___sput+32, %esi
 1338      0000
 1339 1312 8B0D1C00 		movl	___sput+28, %ecx
 1339      0000
 1340 1318 A1000000 		movl	___sput, %eax
 1340      00
 1341 131d 89542424 		movl	%edx, 36(%esp)
 1342 1321 895C2420 		movl	%ebx, 32(%esp)
 1343 1325 8B5DE4   		movl	-28(%ebp), %ebx
 1344 1328 895C241C 		movl	%ebx, 28(%esp)
 1345 132c 8B55E0   		movl	-32(%ebp), %edx
 1346 132f 89542418 		movl	%edx, 24(%esp)
 1347 1333 8B5DDC   		movl	-36(%ebp), %ebx
 1348 1336 895C2414 		movl	%ebx, 20(%esp)
 1349 133a 897C2410 		movl	%edi, 16(%esp)
 1350 133e 8974240C 		movl	%esi, 12(%esp)
 1351 1342 894C2408 		movl	%ecx, 8(%esp)
 1352 1346 C7442404 		movl	$LC7, 4(%esp)
 1352      8C000000 
 1353 134e 890424   		movl	%eax, (%esp)
 1354 1351 E8AAECFF 		call	_fprintf
 1354      FF
 1355 1356 E9C90000 		jmp	L71
 1355      00
 1356              	L68:
 1357              		.loc 2 46 0 discriminator 8
 1358 135b A0040000 		movb	___sput+4, %al
 1358      00
 1359 1360 3C06     		cmpb	$6, %al
 1360 1362 7434     		je	L72
 1361              		.loc 2 46 0 discriminator 13
 1362 1364 A1000000 		movl	__imp___iob, %eax
 1362      00
 1363 1369 83C040   		addl	$64, %eax
 1364 136c 8944240C 		movl	%eax, 12(%esp)
 1365 1370 C7442408 		movl	$29, 8(%esp)
 1365      1D000000 
 1366 1378 C7442404 		movl	$1, 4(%esp)
 1366      01000000 
 1367 1380 C7042400 		movl	$LC0, (%esp)
 1367      000000
 1368 1387 E8000000 		call	_fwrite
 1368      00
 1369 138c C7042401 		movl	$1, (%esp)
GAS LISTING C:\Users\PRESID~1\AppData\Local\Temp\ccPJOK5j.s 			page 43


 1369      000000
 1370 1393 E8000000 		call	_exit
 1370      00
 1371              	L72:
 1372              		.loc 2 46 0 discriminator 14
 1373 1398 A1180000 		movl	___sput+24, %eax
 1373      00
 1374 139d 85C0     		testl	%eax, %eax
 1375 139f 7531     		jne	L73
 1376              		.loc 2 46 0 discriminator 15
 1377 13a1 A1000000 		movl	___sput, %eax
 1377      00
 1378 13a6 8944240C 		movl	%eax, 12(%esp)
 1379 13aa C7442408 		movl	$27, 8(%esp)
 1379      1B000000 
 1380 13b2 C7442404 		movl	$1, 4(%esp)
 1380      01000000 
 1381 13ba C704241E 		movl	$LC1, (%esp)
 1381      000000
 1382 13c1 E8000000 		call	_fwrite
 1382      00
 1383 13c6 C7042401 		movl	$1, (%esp)
 1383      000000
 1384 13cd E8000000 		call	_exit
 1384      00
 1385              	L73:
 1386              		.loc 2 46 0 discriminator 16
 1387 13d2 A1240000 		movl	___sput+36, %eax
 1387      00
 1388 13d7 40       		incl	%eax
 1389 13d8 A3240000 		movl	%eax, ___sput+36
 1389      00
 1390 13dd 8B3D3400 		movl	___sput+52, %edi
 1390      0000
 1391 13e3 8B353000 		movl	___sput+48, %esi
 1391      0000
 1392 13e9 8B1D2C00 		movl	___sput+44, %ebx
 1392      0000
 1393 13ef 8B0D2000 		movl	___sput+32, %ecx
 1393      0000
 1394 13f5 8B151C00 		movl	___sput+28, %edx
 1394      0000
 1395 13fb A1000000 		movl	___sput, %eax
 1395      00
 1396 1400 897C2418 		movl	%edi, 24(%esp)
 1397 1404 89742414 		movl	%esi, 20(%esp)
 1398 1408 895C2410 		movl	%ebx, 16(%esp)
 1399 140c 894C240C 		movl	%ecx, 12(%esp)
 1400 1410 89542408 		movl	%edx, 8(%esp)
 1401 1414 C7442404 		movl	$LC8, 4(%esp)
 1401      E8000000 
 1402 141c 890424   		movl	%eax, (%esp)
 1403 141f E8DCEBFF 		call	_fprintf
 1403      FF
 1404              	L71:
  47:E:/NeuOrga/Programmieren/c_cpp/github_os/input/src/os_base\os_init_task_system_test.c ****    sput_fail_unless(count_vowels("CNN") == 0, "CNN == 0v");
 1405              		.loc 2 47 0 is_stmt 1
GAS LISTING C:\Users\PRESID~1\AppData\Local\Temp\ccPJOK5j.s 			page 44


 1406 1424 A0040000 		movb	___sput+4, %al
 1406      00
 1407 1429 3C06     		cmpb	$6, %al
 1408 142b 7434     		je	L74
 1409              		.loc 2 47 0 is_stmt 0 discriminator 1
 1410 142d A1000000 		movl	__imp___iob, %eax
 1410      00
 1411 1432 83C040   		addl	$64, %eax
 1412 1435 8944240C 		movl	%eax, 12(%esp)
 1413 1439 C7442408 		movl	$29, 8(%esp)
 1413      1D000000 
 1414 1441 C7442404 		movl	$1, 4(%esp)
 1414      01000000 
 1415 1449 C7042400 		movl	$LC0, (%esp)
 1415      000000
 1416 1450 E8000000 		call	_fwrite
 1416      00
 1417 1455 C7042401 		movl	$1, (%esp)
 1417      000000
 1418 145c E8000000 		call	_exit
 1418      00
 1419              	L74:
 1420              		.loc 2 47 0 discriminator 2
 1421 1461 A1180000 		movl	___sput+24, %eax
 1421      00
 1422 1466 85C0     		testl	%eax, %eax
 1423 1468 7531     		jne	L75
 1424              		.loc 2 47 0 discriminator 3
 1425 146a A1000000 		movl	___sput, %eax
 1425      00
 1426 146f 8944240C 		movl	%eax, 12(%esp)
 1427 1473 C7442408 		movl	$27, 8(%esp)
 1427      1B000000 
 1428 147b C7442404 		movl	$1, 4(%esp)
 1428      01000000 
 1429 1483 C704241E 		movl	$LC1, (%esp)
 1429      000000
 1430 148a E8000000 		call	_fwrite
 1430      00
 1431 148f C7042401 		movl	$1, (%esp)
 1431      000000
 1432 1496 E8000000 		call	_exit
 1432      00
 1433              	L75:
 1434              		.loc 2 47 0 discriminator 4
 1435 149b A12C0000 		movl	___sput+44, %eax
 1435      00
 1436 14a0 85C0     		testl	%eax, %eax
 1437 14a2 7531     		jne	L76
 1438              		.loc 2 47 0 discriminator 5
 1439 14a4 A1000000 		movl	___sput, %eax
 1439      00
 1440 14a9 8944240C 		movl	%eax, 12(%esp)
 1441 14ad C7442408 		movl	$24, 8(%esp)
 1441      18000000 
 1442 14b5 C7442404 		movl	$1, 4(%esp)
 1442      01000000 
GAS LISTING C:\Users\PRESID~1\AppData\Local\Temp\ccPJOK5j.s 			page 45


 1443 14bd C704243A 		movl	$LC2, (%esp)
 1443      000000
 1444 14c4 E8000000 		call	_fwrite
 1444      00
 1445 14c9 C7042401 		movl	$1, (%esp)
 1445      000000
 1446 14d0 E8000000 		call	_exit
 1446      00
 1447              	L76:
 1448              		.loc 2 47 0 discriminator 6
 1449 14d5 C7053400 		movl	$LC27, ___sput+52
 1449      0000FE01 
 1449      0000
 1450 14df C7054000 		movl	$47, ___sput+64
 1450      00002F00 
 1450      0000
 1451 14e9 C7053800 		movl	$LC28, ___sput+56
 1451      00000802 
 1451      0000
 1452 14f3 C7053C00 		movl	$LC5, ___sput+60
 1452      00007800 
 1452      0000
 1453 14fd A1300000 		movl	___sput+48, %eax
 1453      00
 1454 1502 40       		incl	%eax
 1455 1503 A3300000 		movl	%eax, ___sput+48
 1455      00
 1456 1508 A1200000 		movl	___sput+32, %eax
 1456      00
 1457 150d 40       		incl	%eax
 1458 150e A3200000 		movl	%eax, ___sput+32
 1458      00
 1459 1513 C7042421 		movl	$LC29, (%esp)
 1459      020000
 1460 151a E811EBFF 		call	_count_vowels
 1460      FF
 1461 151f 85C0     		testl	%eax, %eax
 1462 1521 0F84FD00 		je	L77
 1462      0000
 1463              		.loc 2 47 0 discriminator 7
 1464 1527 A0040000 		movb	___sput+4, %al
 1464      00
 1465 152c 3C06     		cmpb	$6, %al
 1466 152e 7434     		je	L78
 1467              		.loc 2 47 0 discriminator 9
 1468 1530 A1000000 		movl	__imp___iob, %eax
 1468      00
 1469 1535 83C040   		addl	$64, %eax
 1470 1538 8944240C 		movl	%eax, 12(%esp)
 1471 153c C7442408 		movl	$29, 8(%esp)
 1471      1D000000 
 1472 1544 C7442404 		movl	$1, 4(%esp)
 1472      01000000 
 1473 154c C7042400 		movl	$LC0, (%esp)
 1473      000000
 1474 1553 E8000000 		call	_fwrite
 1474      00
GAS LISTING C:\Users\PRESID~1\AppData\Local\Temp\ccPJOK5j.s 			page 46


 1475 1558 C7042401 		movl	$1, (%esp)
 1475      000000
 1476 155f E8000000 		call	_exit
 1476      00
 1477              	L78:
 1478              		.loc 2 47 0 discriminator 10
 1479 1564 A1180000 		movl	___sput+24, %eax
 1479      00
 1480 1569 85C0     		testl	%eax, %eax
 1481 156b 7531     		jne	L79
 1482              		.loc 2 47 0 discriminator 11
 1483 156d A1000000 		movl	___sput, %eax
 1483      00
 1484 1572 8944240C 		movl	%eax, 12(%esp)
 1485 1576 C7442408 		movl	$27, 8(%esp)
 1485      1B000000 
 1486 157e C7442404 		movl	$1, 4(%esp)
 1486      01000000 
 1487 1586 C704241E 		movl	$LC1, (%esp)
 1487      000000
 1488 158d E8000000 		call	_fwrite
 1488      00
 1489 1592 C7042401 		movl	$1, (%esp)
 1489      000000
 1490 1599 E8000000 		call	_exit
 1490      00
 1491              	L79:
 1492              		.loc 2 47 0 discriminator 12
 1493 159e A1280000 		movl	___sput+40, %eax
 1493      00
 1494 15a3 40       		incl	%eax
 1495 15a4 A3280000 		movl	%eax, ___sput+40
 1495      00
 1496 15a9 8B154000 		movl	___sput+64, %edx
 1496      0000
 1497 15af 8B1D3800 		movl	___sput+56, %ebx
 1497      0000
 1498 15b5 A13C0000 		movl	___sput+60, %eax
 1498      00
 1499 15ba 8945E4   		movl	%eax, -28(%ebp)
 1500 15bd 8B353400 		movl	___sput+52, %esi
 1500      0000
 1501 15c3 8975E0   		movl	%esi, -32(%ebp)
 1502 15c6 8B3D3000 		movl	___sput+48, %edi
 1502      0000
 1503 15cc 897DDC   		movl	%edi, -36(%ebp)
 1504 15cf 8B3D2C00 		movl	___sput+44, %edi
 1504      0000
 1505 15d5 8B352000 		movl	___sput+32, %esi
 1505      0000
 1506 15db 8B0D1C00 		movl	___sput+28, %ecx
 1506      0000
 1507 15e1 A1000000 		movl	___sput, %eax
 1507      00
 1508 15e6 89542424 		movl	%edx, 36(%esp)
 1509 15ea 895C2420 		movl	%ebx, 32(%esp)
 1510 15ee 8B55E4   		movl	-28(%ebp), %edx
GAS LISTING C:\Users\PRESID~1\AppData\Local\Temp\ccPJOK5j.s 			page 47


 1511 15f1 8954241C 		movl	%edx, 28(%esp)
 1512 15f5 8B5DE0   		movl	-32(%ebp), %ebx
 1513 15f8 895C2418 		movl	%ebx, 24(%esp)
 1514 15fc 8B55DC   		movl	-36(%ebp), %edx
 1515 15ff 89542414 		movl	%edx, 20(%esp)
 1516 1603 897C2410 		movl	%edi, 16(%esp)
 1517 1607 8974240C 		movl	%esi, 12(%esp)
 1518 160b 894C2408 		movl	%ecx, 8(%esp)
 1519 160f C7442404 		movl	$LC7, 4(%esp)
 1519      8C000000 
 1520 1617 890424   		movl	%eax, (%esp)
 1521 161a E8E1E9FF 		call	_fprintf
 1521      FF
 1522 161f E9C90000 		jmp	L80
 1522      00
 1523              	L77:
 1524              		.loc 2 47 0 discriminator 8
 1525 1624 A0040000 		movb	___sput+4, %al
 1525      00
 1526 1629 3C06     		cmpb	$6, %al
 1527 162b 7434     		je	L81
 1528              		.loc 2 47 0 discriminator 13
 1529 162d A1000000 		movl	__imp___iob, %eax
 1529      00
 1530 1632 83C040   		addl	$64, %eax
 1531 1635 8944240C 		movl	%eax, 12(%esp)
 1532 1639 C7442408 		movl	$29, 8(%esp)
 1532      1D000000 
 1533 1641 C7442404 		movl	$1, 4(%esp)
 1533      01000000 
 1534 1649 C7042400 		movl	$LC0, (%esp)
 1534      000000
 1535 1650 E8000000 		call	_fwrite
 1535      00
 1536 1655 C7042401 		movl	$1, (%esp)
 1536      000000
 1537 165c E8000000 		call	_exit
 1537      00
 1538              	L81:
 1539              		.loc 2 47 0 discriminator 14
 1540 1661 A1180000 		movl	___sput+24, %eax
 1540      00
 1541 1666 85C0     		testl	%eax, %eax
 1542 1668 7531     		jne	L82
 1543              		.loc 2 47 0 discriminator 15
 1544 166a A1000000 		movl	___sput, %eax
 1544      00
 1545 166f 8944240C 		movl	%eax, 12(%esp)
 1546 1673 C7442408 		movl	$27, 8(%esp)
 1546      1B000000 
 1547 167b C7442404 		movl	$1, 4(%esp)
 1547      01000000 
 1548 1683 C704241E 		movl	$LC1, (%esp)
 1548      000000
 1549 168a E8000000 		call	_fwrite
 1549      00
 1550 168f C7042401 		movl	$1, (%esp)
GAS LISTING C:\Users\PRESID~1\AppData\Local\Temp\ccPJOK5j.s 			page 48


 1550      000000
 1551 1696 E8000000 		call	_exit
 1551      00
 1552              	L82:
 1553              		.loc 2 47 0 discriminator 16
 1554 169b A1240000 		movl	___sput+36, %eax
 1554      00
 1555 16a0 40       		incl	%eax
 1556 16a1 A3240000 		movl	%eax, ___sput+36
 1556      00
 1557 16a6 8B3D3400 		movl	___sput+52, %edi
 1557      0000
 1558 16ac 8B353000 		movl	___sput+48, %esi
 1558      0000
 1559 16b2 8B1D2C00 		movl	___sput+44, %ebx
 1559      0000
 1560 16b8 8B0D2000 		movl	___sput+32, %ecx
 1560      0000
 1561 16be 8B151C00 		movl	___sput+28, %edx
 1561      0000
 1562 16c4 A1000000 		movl	___sput, %eax
 1562      00
 1563 16c9 897C2418 		movl	%edi, 24(%esp)
 1564 16cd 89742414 		movl	%esi, 20(%esp)
 1565 16d1 895C2410 		movl	%ebx, 16(%esp)
 1566 16d5 894C240C 		movl	%ecx, 12(%esp)
 1567 16d9 89542408 		movl	%edx, 8(%esp)
 1568 16dd C7442404 		movl	$LC8, 4(%esp)
 1568      E8000000 
 1569 16e5 890424   		movl	%eax, (%esp)
 1570 16e8 E813E9FF 		call	_fprintf
 1570      FF
 1571              	L80:
  48:E:/NeuOrga/Programmieren/c_cpp/github_os/input/src/os_base\os_init_task_system_test.c ****    sput_fail_unless(count_vowels("GPS") == 0, "GPS == 0v");
 1572              		.loc 2 48 0 is_stmt 1
 1573 16ed A0040000 		movb	___sput+4, %al
 1573      00
 1574 16f2 3C06     		cmpb	$6, %al
 1575 16f4 7434     		je	L83
 1576              		.loc 2 48 0 is_stmt 0 discriminator 1
 1577 16f6 A1000000 		movl	__imp___iob, %eax
 1577      00
 1578 16fb 83C040   		addl	$64, %eax
 1579 16fe 8944240C 		movl	%eax, 12(%esp)
 1580 1702 C7442408 		movl	$29, 8(%esp)
 1580      1D000000 
 1581 170a C7442404 		movl	$1, 4(%esp)
 1581      01000000 
 1582 1712 C7042400 		movl	$LC0, (%esp)
 1582      000000
 1583 1719 E8000000 		call	_fwrite
 1583      00
 1584 171e C7042401 		movl	$1, (%esp)
 1584      000000
 1585 1725 E8000000 		call	_exit
 1585      00
 1586              	L83:
GAS LISTING C:\Users\PRESID~1\AppData\Local\Temp\ccPJOK5j.s 			page 49


 1587              		.loc 2 48 0 discriminator 2
 1588 172a A1180000 		movl	___sput+24, %eax
 1588      00
 1589 172f 85C0     		testl	%eax, %eax
 1590 1731 7531     		jne	L84
 1591              		.loc 2 48 0 discriminator 3
 1592 1733 A1000000 		movl	___sput, %eax
 1592      00
 1593 1738 8944240C 		movl	%eax, 12(%esp)
 1594 173c C7442408 		movl	$27, 8(%esp)
 1594      1B000000 
 1595 1744 C7442404 		movl	$1, 4(%esp)
 1595      01000000 
 1596 174c C704241E 		movl	$LC1, (%esp)
 1596      000000
 1597 1753 E8000000 		call	_fwrite
 1597      00
 1598 1758 C7042401 		movl	$1, (%esp)
 1598      000000
 1599 175f E8000000 		call	_exit
 1599      00
 1600              	L84:
 1601              		.loc 2 48 0 discriminator 4
 1602 1764 A12C0000 		movl	___sput+44, %eax
 1602      00
 1603 1769 85C0     		testl	%eax, %eax
 1604 176b 7531     		jne	L85
 1605              		.loc 2 48 0 discriminator 5
 1606 176d A1000000 		movl	___sput, %eax
 1606      00
 1607 1772 8944240C 		movl	%eax, 12(%esp)
 1608 1776 C7442408 		movl	$24, 8(%esp)
 1608      18000000 
 1609 177e C7442404 		movl	$1, 4(%esp)
 1609      01000000 
 1610 1786 C704243A 		movl	$LC2, (%esp)
 1610      000000
 1611 178d E8000000 		call	_fwrite
 1611      00
 1612 1792 C7042401 		movl	$1, (%esp)
 1612      000000
 1613 1799 E8000000 		call	_exit
 1613      00
 1614              	L85:
 1615              		.loc 2 48 0 discriminator 6
 1616 179e C7053400 		movl	$LC30, ___sput+52
 1616      00002502 
 1616      0000
 1617 17a8 C7054000 		movl	$48, ___sput+64
 1617      00003000 
 1617      0000
 1618 17b2 C7053800 		movl	$LC31, ___sput+56
 1618      00002F02 
 1618      0000
 1619 17bc C7053C00 		movl	$LC5, ___sput+60
 1619      00007800 
 1619      0000
GAS LISTING C:\Users\PRESID~1\AppData\Local\Temp\ccPJOK5j.s 			page 50


 1620 17c6 A1300000 		movl	___sput+48, %eax
 1620      00
 1621 17cb 40       		incl	%eax
 1622 17cc A3300000 		movl	%eax, ___sput+48
 1622      00
 1623 17d1 A1200000 		movl	___sput+32, %eax
 1623      00
 1624 17d6 40       		incl	%eax
 1625 17d7 A3200000 		movl	%eax, ___sput+32
 1625      00
 1626 17dc C7042448 		movl	$LC32, (%esp)
 1626      020000
 1627 17e3 E848E8FF 		call	_count_vowels
 1627      FF
 1628 17e8 85C0     		testl	%eax, %eax
 1629 17ea 0F84FD00 		je	L86
 1629      0000
 1630              		.loc 2 48 0 discriminator 7
 1631 17f0 A0040000 		movb	___sput+4, %al
 1631      00
 1632 17f5 3C06     		cmpb	$6, %al
 1633 17f7 7434     		je	L87
 1634              		.loc 2 48 0 discriminator 9
 1635 17f9 A1000000 		movl	__imp___iob, %eax
 1635      00
 1636 17fe 83C040   		addl	$64, %eax
 1637 1801 8944240C 		movl	%eax, 12(%esp)
 1638 1805 C7442408 		movl	$29, 8(%esp)
 1638      1D000000 
 1639 180d C7442404 		movl	$1, 4(%esp)
 1639      01000000 
 1640 1815 C7042400 		movl	$LC0, (%esp)
 1640      000000
 1641 181c E8000000 		call	_fwrite
 1641      00
 1642 1821 C7042401 		movl	$1, (%esp)
 1642      000000
 1643 1828 E8000000 		call	_exit
 1643      00
 1644              	L87:
 1645              		.loc 2 48 0 discriminator 10
 1646 182d A1180000 		movl	___sput+24, %eax
 1646      00
 1647 1832 85C0     		testl	%eax, %eax
 1648 1834 7531     		jne	L88
 1649              		.loc 2 48 0 discriminator 11
 1650 1836 A1000000 		movl	___sput, %eax
 1650      00
 1651 183b 8944240C 		movl	%eax, 12(%esp)
 1652 183f C7442408 		movl	$27, 8(%esp)
 1652      1B000000 
 1653 1847 C7442404 		movl	$1, 4(%esp)
 1653      01000000 
 1654 184f C704241E 		movl	$LC1, (%esp)
 1654      000000
 1655 1856 E8000000 		call	_fwrite
 1655      00
GAS LISTING C:\Users\PRESID~1\AppData\Local\Temp\ccPJOK5j.s 			page 51


 1656 185b C7042401 		movl	$1, (%esp)
 1656      000000
 1657 1862 E8000000 		call	_exit
 1657      00
 1658              	L88:
 1659              		.loc 2 48 0 discriminator 12
 1660 1867 A1280000 		movl	___sput+40, %eax
 1660      00
 1661 186c 40       		incl	%eax
 1662 186d A3280000 		movl	%eax, ___sput+40
 1662      00
 1663 1872 8B154000 		movl	___sput+64, %edx
 1663      0000
 1664 1878 8B1D3800 		movl	___sput+56, %ebx
 1664      0000
 1665 187e A13C0000 		movl	___sput+60, %eax
 1665      00
 1666 1883 8945E4   		movl	%eax, -28(%ebp)
 1667 1886 8B0D3400 		movl	___sput+52, %ecx
 1667      0000
 1668 188c 894DE0   		movl	%ecx, -32(%ebp)
 1669 188f 8B353000 		movl	___sput+48, %esi
 1669      0000
 1670 1895 8975DC   		movl	%esi, -36(%ebp)
 1671 1898 8B3D2C00 		movl	___sput+44, %edi
 1671      0000
 1672 189e 8B352000 		movl	___sput+32, %esi
 1672      0000
 1673 18a4 8B0D1C00 		movl	___sput+28, %ecx
 1673      0000
 1674 18aa A1000000 		movl	___sput, %eax
 1674      00
 1675 18af 89542424 		movl	%edx, 36(%esp)
 1676 18b3 895C2420 		movl	%ebx, 32(%esp)
 1677 18b7 8B5DE4   		movl	-28(%ebp), %ebx
 1678 18ba 895C241C 		movl	%ebx, 28(%esp)
 1679 18be 8B55E0   		movl	-32(%ebp), %edx
 1680 18c1 89542418 		movl	%edx, 24(%esp)
 1681 18c5 8B5DDC   		movl	-36(%ebp), %ebx
 1682 18c8 895C2414 		movl	%ebx, 20(%esp)
 1683 18cc 897C2410 		movl	%edi, 16(%esp)
 1684 18d0 8974240C 		movl	%esi, 12(%esp)
 1685 18d4 894C2408 		movl	%ecx, 8(%esp)
 1686 18d8 C7442404 		movl	$LC7, 4(%esp)
 1686      8C000000 
 1687 18e0 890424   		movl	%eax, (%esp)
 1688 18e3 E818E7FF 		call	_fprintf
 1688      FF
 1689 18e8 E9C90000 		jmp	L89
 1689      00
 1690              	L86:
 1691              		.loc 2 48 0 discriminator 8
 1692 18ed A0040000 		movb	___sput+4, %al
 1692      00
 1693 18f2 3C06     		cmpb	$6, %al
 1694 18f4 7434     		je	L90
 1695              		.loc 2 48 0 discriminator 13
GAS LISTING C:\Users\PRESID~1\AppData\Local\Temp\ccPJOK5j.s 			page 52


 1696 18f6 A1000000 		movl	__imp___iob, %eax
 1696      00
 1697 18fb 83C040   		addl	$64, %eax
 1698 18fe 8944240C 		movl	%eax, 12(%esp)
 1699 1902 C7442408 		movl	$29, 8(%esp)
 1699      1D000000 
 1700 190a C7442404 		movl	$1, 4(%esp)
 1700      01000000 
 1701 1912 C7042400 		movl	$LC0, (%esp)
 1701      000000
 1702 1919 E8000000 		call	_fwrite
 1702      00
 1703 191e C7042401 		movl	$1, (%esp)
 1703      000000
 1704 1925 E8000000 		call	_exit
 1704      00
 1705              	L90:
 1706              		.loc 2 48 0 discriminator 14
 1707 192a A1180000 		movl	___sput+24, %eax
 1707      00
 1708 192f 85C0     		testl	%eax, %eax
 1709 1931 7531     		jne	L91
 1710              		.loc 2 48 0 discriminator 15
 1711 1933 A1000000 		movl	___sput, %eax
 1711      00
 1712 1938 8944240C 		movl	%eax, 12(%esp)
 1713 193c C7442408 		movl	$27, 8(%esp)
 1713      1B000000 
 1714 1944 C7442404 		movl	$1, 4(%esp)
 1714      01000000 
 1715 194c C704241E 		movl	$LC1, (%esp)
 1715      000000
 1716 1953 E8000000 		call	_fwrite
 1716      00
 1717 1958 C7042401 		movl	$1, (%esp)
 1717      000000
 1718 195f E8000000 		call	_exit
 1718      00
 1719              	L91:
 1720              		.loc 2 48 0 discriminator 16
 1721 1964 A1240000 		movl	___sput+36, %eax
 1721      00
 1722 1969 40       		incl	%eax
 1723 196a A3240000 		movl	%eax, ___sput+36
 1723      00
 1724 196f 8B3D3400 		movl	___sput+52, %edi
 1724      0000
 1725 1975 8B353000 		movl	___sput+48, %esi
 1725      0000
 1726 197b 8B1D2C00 		movl	___sput+44, %ebx
 1726      0000
 1727 1981 8B0D2000 		movl	___sput+32, %ecx
 1727      0000
 1728 1987 8B151C00 		movl	___sput+28, %edx
 1728      0000
 1729 198d A1000000 		movl	___sput, %eax
 1729      00
GAS LISTING C:\Users\PRESID~1\AppData\Local\Temp\ccPJOK5j.s 			page 53


 1730 1992 897C2418 		movl	%edi, 24(%esp)
 1731 1996 89742414 		movl	%esi, 20(%esp)
 1732 199a 895C2410 		movl	%ebx, 16(%esp)
 1733 199e 894C240C 		movl	%ecx, 12(%esp)
 1734 19a2 89542408 		movl	%edx, 8(%esp)
 1735 19a6 C7442404 		movl	$LC8, 4(%esp)
 1735      E8000000 
 1736 19ae 890424   		movl	%eax, (%esp)
 1737 19b1 E84AE6FF 		call	_fprintf
 1737      FF
 1738              	L89:
  49:E:/NeuOrga/Programmieren/c_cpp/github_os/input/src/os_base\os_init_task_system_test.c ****    sput_fail_unless(count_vowels("Ltd") == 0, "Ltd == 0v");
 1739              		.loc 2 49 0 is_stmt 1
 1740 19b6 A0040000 		movb	___sput+4, %al
 1740      00
 1741 19bb 3C06     		cmpb	$6, %al
 1742 19bd 7434     		je	L92
 1743              		.loc 2 49 0 is_stmt 0 discriminator 1
 1744 19bf A1000000 		movl	__imp___iob, %eax
 1744      00
 1745 19c4 83C040   		addl	$64, %eax
 1746 19c7 8944240C 		movl	%eax, 12(%esp)
 1747 19cb C7442408 		movl	$29, 8(%esp)
 1747      1D000000 
 1748 19d3 C7442404 		movl	$1, 4(%esp)
 1748      01000000 
 1749 19db C7042400 		movl	$LC0, (%esp)
 1749      000000
 1750 19e2 E8000000 		call	_fwrite
 1750      00
 1751 19e7 C7042401 		movl	$1, (%esp)
 1751      000000
 1752 19ee E8000000 		call	_exit
 1752      00
 1753              	L92:
 1754              		.loc 2 49 0 discriminator 2
 1755 19f3 A1180000 		movl	___sput+24, %eax
 1755      00
 1756 19f8 85C0     		testl	%eax, %eax
 1757 19fa 7531     		jne	L93
 1758              		.loc 2 49 0 discriminator 3
 1759 19fc A1000000 		movl	___sput, %eax
 1759      00
 1760 1a01 8944240C 		movl	%eax, 12(%esp)
 1761 1a05 C7442408 		movl	$27, 8(%esp)
 1761      1B000000 
 1762 1a0d C7442404 		movl	$1, 4(%esp)
 1762      01000000 
 1763 1a15 C704241E 		movl	$LC1, (%esp)
 1763      000000
 1764 1a1c E8000000 		call	_fwrite
 1764      00
 1765 1a21 C7042401 		movl	$1, (%esp)
 1765      000000
 1766 1a28 E8000000 		call	_exit
 1766      00
 1767              	L93:
GAS LISTING C:\Users\PRESID~1\AppData\Local\Temp\ccPJOK5j.s 			page 54


 1768              		.loc 2 49 0 discriminator 4
 1769 1a2d A12C0000 		movl	___sput+44, %eax
 1769      00
 1770 1a32 85C0     		testl	%eax, %eax
 1771 1a34 7531     		jne	L94
 1772              		.loc 2 49 0 discriminator 5
 1773 1a36 A1000000 		movl	___sput, %eax
 1773      00
 1774 1a3b 8944240C 		movl	%eax, 12(%esp)
 1775 1a3f C7442408 		movl	$24, 8(%esp)
 1775      18000000 
 1776 1a47 C7442404 		movl	$1, 4(%esp)
 1776      01000000 
 1777 1a4f C704243A 		movl	$LC2, (%esp)
 1777      000000
 1778 1a56 E8000000 		call	_fwrite
 1778      00
 1779 1a5b C7042401 		movl	$1, (%esp)
 1779      000000
 1780 1a62 E8000000 		call	_exit
 1780      00
 1781              	L94:
 1782              		.loc 2 49 0 discriminator 6
 1783 1a67 C7053400 		movl	$LC33, ___sput+52
 1783      00004C02 
 1783      0000
 1784 1a71 C7054000 		movl	$49, ___sput+64
 1784      00003100 
 1784      0000
 1785 1a7b C7053800 		movl	$LC34, ___sput+56
 1785      00005602 
 1785      0000
 1786 1a85 C7053C00 		movl	$LC5, ___sput+60
 1786      00007800 
 1786      0000
 1787 1a8f A1300000 		movl	___sput+48, %eax
 1787      00
 1788 1a94 40       		incl	%eax
 1789 1a95 A3300000 		movl	%eax, ___sput+48
 1789      00
 1790 1a9a A1200000 		movl	___sput+32, %eax
 1790      00
 1791 1a9f 40       		incl	%eax
 1792 1aa0 A3200000 		movl	%eax, ___sput+32
 1792      00
 1793 1aa5 C704246F 		movl	$LC35, (%esp)
 1793      020000
 1794 1aac E87FE5FF 		call	_count_vowels
 1794      FF
 1795 1ab1 85C0     		testl	%eax, %eax
 1796 1ab3 0F84FD00 		je	L95
 1796      0000
 1797              		.loc 2 49 0 discriminator 7
 1798 1ab9 A0040000 		movb	___sput+4, %al
 1798      00
 1799 1abe 3C06     		cmpb	$6, %al
 1800 1ac0 7434     		je	L96
GAS LISTING C:\Users\PRESID~1\AppData\Local\Temp\ccPJOK5j.s 			page 55


 1801              		.loc 2 49 0 discriminator 9
 1802 1ac2 A1000000 		movl	__imp___iob, %eax
 1802      00
 1803 1ac7 83C040   		addl	$64, %eax
 1804 1aca 8944240C 		movl	%eax, 12(%esp)
 1805 1ace C7442408 		movl	$29, 8(%esp)
 1805      1D000000 
 1806 1ad6 C7442404 		movl	$1, 4(%esp)
 1806      01000000 
 1807 1ade C7042400 		movl	$LC0, (%esp)
 1807      000000
 1808 1ae5 E8000000 		call	_fwrite
 1808      00
 1809 1aea C7042401 		movl	$1, (%esp)
 1809      000000
 1810 1af1 E8000000 		call	_exit
 1810      00
 1811              	L96:
 1812              		.loc 2 49 0 discriminator 10
 1813 1af6 A1180000 		movl	___sput+24, %eax
 1813      00
 1814 1afb 85C0     		testl	%eax, %eax
 1815 1afd 7531     		jne	L97
 1816              		.loc 2 49 0 discriminator 11
 1817 1aff A1000000 		movl	___sput, %eax
 1817      00
 1818 1b04 8944240C 		movl	%eax, 12(%esp)
 1819 1b08 C7442408 		movl	$27, 8(%esp)
 1819      1B000000 
 1820 1b10 C7442404 		movl	$1, 4(%esp)
 1820      01000000 
 1821 1b18 C704241E 		movl	$LC1, (%esp)
 1821      000000
 1822 1b1f E8000000 		call	_fwrite
 1822      00
 1823 1b24 C7042401 		movl	$1, (%esp)
 1823      000000
 1824 1b2b E8000000 		call	_exit
 1824      00
 1825              	L97:
 1826              		.loc 2 49 0 discriminator 12
 1827 1b30 A1280000 		movl	___sput+40, %eax
 1827      00
 1828 1b35 40       		incl	%eax
 1829 1b36 A3280000 		movl	%eax, ___sput+40
 1829      00
 1830 1b3b 8B154000 		movl	___sput+64, %edx
 1830      0000
 1831 1b41 8B1D3800 		movl	___sput+56, %ebx
 1831      0000
 1832 1b47 A13C0000 		movl	___sput+60, %eax
 1832      00
 1833 1b4c 8945E4   		movl	%eax, -28(%ebp)
 1834 1b4f 8B3D3400 		movl	___sput+52, %edi
 1834      0000
 1835 1b55 897DE0   		movl	%edi, -32(%ebp)
 1836 1b58 8B0D3000 		movl	___sput+48, %ecx
GAS LISTING C:\Users\PRESID~1\AppData\Local\Temp\ccPJOK5j.s 			page 56


 1836      0000
 1837 1b5e 894DDC   		movl	%ecx, -36(%ebp)
 1838 1b61 8B3D2C00 		movl	___sput+44, %edi
 1838      0000
 1839 1b67 8B352000 		movl	___sput+32, %esi
 1839      0000
 1840 1b6d 8B0D1C00 		movl	___sput+28, %ecx
 1840      0000
 1841 1b73 A1000000 		movl	___sput, %eax
 1841      00
 1842 1b78 89542424 		movl	%edx, 36(%esp)
 1843 1b7c 895C2420 		movl	%ebx, 32(%esp)
 1844 1b80 8B55E4   		movl	-28(%ebp), %edx
 1845 1b83 8954241C 		movl	%edx, 28(%esp)
 1846 1b87 8B5DE0   		movl	-32(%ebp), %ebx
 1847 1b8a 895C2418 		movl	%ebx, 24(%esp)
 1848 1b8e 8B55DC   		movl	-36(%ebp), %edx
 1849 1b91 89542414 		movl	%edx, 20(%esp)
 1850 1b95 897C2410 		movl	%edi, 16(%esp)
 1851 1b99 8974240C 		movl	%esi, 12(%esp)
 1852 1b9d 894C2408 		movl	%ecx, 8(%esp)
 1853 1ba1 C7442404 		movl	$LC7, 4(%esp)
 1853      8C000000 
 1854 1ba9 890424   		movl	%eax, (%esp)
 1855 1bac E84FE4FF 		call	_fprintf
 1855      FF
 1856 1bb1 E9C90000 		jmp	L55
 1856      00
 1857              	L95:
 1858              		.loc 2 49 0 discriminator 8
 1859 1bb6 A0040000 		movb	___sput+4, %al
 1859      00
 1860 1bbb 3C06     		cmpb	$6, %al
 1861 1bbd 7434     		je	L99
 1862              		.loc 2 49 0 discriminator 13
 1863 1bbf A1000000 		movl	__imp___iob, %eax
 1863      00
 1864 1bc4 83C040   		addl	$64, %eax
 1865 1bc7 8944240C 		movl	%eax, 12(%esp)
 1866 1bcb C7442408 		movl	$29, 8(%esp)
 1866      1D000000 
 1867 1bd3 C7442404 		movl	$1, 4(%esp)
 1867      01000000 
 1868 1bdb C7042400 		movl	$LC0, (%esp)
 1868      000000
 1869 1be2 E8000000 		call	_fwrite
 1869      00
 1870 1be7 C7042401 		movl	$1, (%esp)
 1870      000000
 1871 1bee E8000000 		call	_exit
 1871      00
 1872              	L99:
 1873              		.loc 2 49 0 discriminator 14
 1874 1bf3 A1180000 		movl	___sput+24, %eax
 1874      00
 1875 1bf8 85C0     		testl	%eax, %eax
 1876 1bfa 7531     		jne	L100
GAS LISTING C:\Users\PRESID~1\AppData\Local\Temp\ccPJOK5j.s 			page 57


 1877              		.loc 2 49 0 discriminator 15
 1878 1bfc A1000000 		movl	___sput, %eax
 1878      00
 1879 1c01 8944240C 		movl	%eax, 12(%esp)
 1880 1c05 C7442408 		movl	$27, 8(%esp)
 1880      1B000000 
 1881 1c0d C7442404 		movl	$1, 4(%esp)
 1881      01000000 
 1882 1c15 C704241E 		movl	$LC1, (%esp)
 1882      000000
 1883 1c1c E8000000 		call	_fwrite
 1883      00
 1884 1c21 C7042401 		movl	$1, (%esp)
 1884      000000
 1885 1c28 E8000000 		call	_exit
 1885      00
 1886              	L100:
 1887              		.loc 2 49 0 discriminator 16
 1888 1c2d A1240000 		movl	___sput+36, %eax
 1888      00
 1889 1c32 40       		incl	%eax
 1890 1c33 A3240000 		movl	%eax, ___sput+36
 1890      00
 1891 1c38 8B3D3400 		movl	___sput+52, %edi
 1891      0000
 1892 1c3e 8B353000 		movl	___sput+48, %esi
 1892      0000
 1893 1c44 8B1D2C00 		movl	___sput+44, %ebx
 1893      0000
 1894 1c4a 8B0D2000 		movl	___sput+32, %ecx
 1894      0000
 1895 1c50 8B151C00 		movl	___sput+28, %edx
 1895      0000
 1896 1c56 A1000000 		movl	___sput, %eax
 1896      00
 1897 1c5b 897C2418 		movl	%edi, 24(%esp)
 1898 1c5f 89742414 		movl	%esi, 20(%esp)
 1899 1c63 895C2410 		movl	%ebx, 16(%esp)
 1900 1c67 894C240C 		movl	%ecx, 12(%esp)
 1901 1c6b 89542408 		movl	%edx, 8(%esp)
 1902 1c6f C7442404 		movl	$LC8, 4(%esp)
 1902      E8000000 
 1903 1c77 890424   		movl	%eax, (%esp)
 1904 1c7a E881E3FF 		call	_fprintf
 1904      FF
 1905              	L55:
  50:E:/NeuOrga/Programmieren/c_cpp/github_os/input/src/os_base\os_init_task_system_test.c **** }
 1906              		.loc 2 50 0 is_stmt 1
 1907 1c7f 83C44C   		addl	$76, %esp
 1908 1c82 5B       		popl	%ebx
 1909              		.cfi_restore 3
 1910 1c83 5E       		popl	%esi
 1911              		.cfi_restore 6
 1912 1c84 5F       		popl	%edi
 1913              		.cfi_restore 7
 1914 1c85 5D       		popl	%ebp
 1915              		.cfi_restore 5
GAS LISTING C:\Users\PRESID~1\AppData\Local\Temp\ccPJOK5j.s 			page 58


 1916              		.cfi_def_cfa 4, 4
 1917 1c86 C3       		ret
 1918              		.cfi_endproc
 1919              	LFE12:
 1921              		.section .rdata,"dr"
 1922 0273 00       		.align 4
 1923              	LC38:
 1924 0274 0A2D2D3E 		.ascii "\12--> %lu check(s), %lu ok, %lu failed (%.2f%%)\12\0"
 1924      20256C75 
 1924      20636865 
 1924      636B2873 
 1924      292C2025 
 1925              		.align 4
 1926              	LC39:
 1927 02a4 636F756E 		.ascii "count_vowels(): Vowels Present\0"
 1927      745F766F 
 1927      77656C73 
 1927      28293A20 
 1927      566F7765 
 1928 02c3 00       		.align 4
 1929              	LC40:
 1930 02c4 0A3D3D20 		.ascii "\12== Entering suite #%lu, \"%s\" ==\12\12\0"
 1930      456E7465 
 1930      72696E67 
 1930      20737569 
 1930      74652023 
 1931              	LC41:
 1932 02e7 74657374 		.ascii "test_vowels_present\0"
 1932      5F766F77 
 1932      656C735F 
 1932      70726573 
 1932      656E7400 
 1933 02fb 00       		.align 4
 1934              	LC42:
 1935 02fc 636F756E 		.ascii "count_vowels(): No Vowels Present\0"
 1935      745F766F 
 1935      77656C73 
 1935      28293A20 
 1935      4E6F2056 
 1936              	LC43:
 1937 031e 74657374 		.ascii "test_no_vowels_present\0"
 1937      5F6E6F5F 
 1937      766F7765 
 1937      6C735F70 
 1937      72657365 
 1938              	LC44:
 1939 0335 53554343 		.ascii "SUCCESS\0"
 1939      45535300 
 1940              	LC45:
 1941 033d 4641494C 		.ascii "FAILURE\0"
 1941      55524500 
 1942 0345 000000   		.align 4
 1943              	LC46:
 1944 0348 0A3D3D3E 		.ascii "\12==> %lu check(s) in %lu suite(s) finished after %.2f second(s),\12    %lu succeeded, %l
 1944      20256C75 
 1944      20636865 
 1944      636B2873 
GAS LISTING C:\Users\PRESID~1\AppData\Local\Temp\ccPJOK5j.s 			page 59


 1944      2920696E 
 1945              		.text
 1946              		.globl	_main
 1948              	_main:
 1949              	LFB13:
  51:E:/NeuOrga/Programmieren/c_cpp/github_os/input/src/os_base\os_init_task_system_test.c **** 
  52:E:/NeuOrga/Programmieren/c_cpp/github_os/input/src/os_base\os_init_task_system_test.c **** 
  53:E:/NeuOrga/Programmieren/c_cpp/github_os/input/src/os_base\os_init_task_system_test.c **** int main(int argc, char *argv[])
  54:E:/NeuOrga/Programmieren/c_cpp/github_os/input/src/os_base\os_init_task_system_test.c **** {
 1950              		.loc 2 54 0
 1951              		.cfi_startproc
 1952 1c87 55       		pushl	%ebp
 1953              		.cfi_def_cfa_offset 8
 1954              		.cfi_offset 5, -8
 1955 1c88 89E5     		movl	%esp, %ebp
 1956              		.cfi_def_cfa_register 5
 1957 1c8a 57       		pushl	%edi
 1958 1c8b 56       		pushl	%esi
 1959 1c8c 53       		pushl	%ebx
 1960 1c8d 83E4F0   		andl	$-16, %esp
 1961 1c90 83EC70   		subl	$112, %esp
 1962              		.cfi_offset 7, -12
 1963              		.cfi_offset 6, -16
 1964              		.cfi_offset 3, -20
 1965              		.loc 2 54 0
 1966 1c93 E8000000 		call	___main
 1966      00
  55:E:/NeuOrga/Programmieren/c_cpp/github_os/input/src/os_base\os_init_task_system_test.c ****    sput_start_testing();
 1967              		.loc 2 55 0
 1968 1c98 C7442408 		movl	$76, 8(%esp)
 1968      4C000000 
 1969 1ca0 C7442404 		movl	$0, 4(%esp)
 1969      00000000 
 1970 1ca8 C7042400 		movl	$___sput, (%esp)
 1970      000000
 1971 1caf E8000000 		call	_memset
 1971      00
 1972 1cb4 A1000000 		movl	__imp___iob, %eax
 1972      00
 1973 1cb9 83C020   		addl	$32, %eax
 1974 1cbc A3000000 		movl	%eax, ___sput
 1974      00
 1975 1cc1 C7042400 		movl	$0, (%esp)
 1975      000000
 1976 1cc8 E8000000 		call	_time
 1976      00
 1977 1ccd A3440000 		movl	%eax, ___sput+68
 1977      00
 1978 1cd2 C6050400 		movb	$6, ___sput+4
 1978      000006
  56:E:/NeuOrga/Programmieren/c_cpp/github_os/input/src/os_base\os_init_task_system_test.c **** 
  57:E:/NeuOrga/Programmieren/c_cpp/github_os/input/src/os_base\os_init_task_system_test.c ****    sput_enter_suite("count_vowels(): Vowels Present");
 1979              		.loc 2 57 0
 1980 1cd9 A0040000 		movb	___sput+4, %al
 1980      00
 1981 1cde 3C06     		cmpb	$6, %al
 1982 1ce0 7434     		je	L102
GAS LISTING C:\Users\PRESID~1\AppData\Local\Temp\ccPJOK5j.s 			page 60


 1983              		.loc 2 57 0 is_stmt 0 discriminator 1
 1984 1ce2 A1000000 		movl	__imp___iob, %eax
 1984      00
 1985 1ce7 83C040   		addl	$64, %eax
 1986 1cea 8944240C 		movl	%eax, 12(%esp)
 1987 1cee C7442408 		movl	$29, 8(%esp)
 1987      1D000000 
 1988 1cf6 C7442404 		movl	$1, 4(%esp)
 1988      01000000 
 1989 1cfe C7042400 		movl	$LC0, (%esp)
 1989      000000
 1990 1d05 E8000000 		call	_fwrite
 1990      00
 1991 1d0a C7042401 		movl	$1, (%esp)
 1991      000000
 1992 1d11 E8000000 		call	_exit
 1992      00
 1993              	L102:
 1994              		.loc 2 57 0 discriminator 2
 1995 1d16 A1180000 		movl	___sput+24, %eax
 1995      00
 1996 1d1b 85C0     		testl	%eax, %eax
 1997 1d1d 0F847E01 		je	L103
 1997      0000
 1998              	LBB2:
 1999              		.loc 2 57 0 discriminator 3
 2000 1d23 A1B80300 		movl	LC36, %eax
 2000      00
 2001 1d28 8944246C 		movl	%eax, 108(%esp)
 2002 1d2c A0040000 		movb	___sput+4, %al
 2002      00
 2003 1d31 3C06     		cmpb	$6, %al
 2004 1d33 7434     		je	L104
 2005              		.loc 2 57 0 discriminator 5
 2006 1d35 A1000000 		movl	__imp___iob, %eax
 2006      00
 2007 1d3a 83C040   		addl	$64, %eax
 2008 1d3d 8944240C 		movl	%eax, 12(%esp)
 2009 1d41 C7442408 		movl	$29, 8(%esp)
 2009      1D000000 
 2010 1d49 C7442404 		movl	$1, 4(%esp)
 2010      01000000 
 2011 1d51 C7042400 		movl	$LC0, (%esp)
 2011      000000
 2012 1d58 E8000000 		call	_fwrite
 2012      00
 2013 1d5d C7042401 		movl	$1, (%esp)
 2013      000000
 2014 1d64 E8000000 		call	_exit
 2014      00
 2015              	L104:
 2016              		.loc 2 57 0 discriminator 6
 2017 1d69 A1180000 		movl	___sput+24, %eax
 2017      00
 2018 1d6e 85C0     		testl	%eax, %eax
 2019 1d70 7531     		jne	L105
 2020              		.loc 2 57 0 discriminator 7
GAS LISTING C:\Users\PRESID~1\AppData\Local\Temp\ccPJOK5j.s 			page 61


 2021 1d72 A1000000 		movl	___sput, %eax
 2021      00
 2022 1d77 8944240C 		movl	%eax, 12(%esp)
 2023 1d7b C7442408 		movl	$27, 8(%esp)
 2023      1B000000 
 2024 1d83 C7442404 		movl	$1, 4(%esp)
 2024      01000000 
 2025 1d8b C704241E 		movl	$LC1, (%esp)
 2025      000000
 2026 1d92 E8000000 		call	_fwrite
 2026      00
 2027 1d97 C7042401 		movl	$1, (%esp)
 2027      000000
 2028 1d9e E8000000 		call	_exit
 2028      00
 2029              	L105:
 2030              		.loc 2 57 0 discriminator 8
 2031 1da3 A1200000 		movl	___sput+32, %eax
 2031      00
 2032 1da8 85C0     		testl	%eax, %eax
 2033 1daa 744E     		je	L106
 2034              		.loc 2 57 0 discriminator 9
 2035 1dac A1280000 		movl	___sput+40, %eax
 2035      00
 2036 1db1 89442448 		movl	%eax, 72(%esp)
 2037 1db5 C744244C 		movl	$0, 76(%esp)
 2037      00000000 
 2038 1dbd DF6C2448 		fildq	72(%esp)
 2039 1dc1 DD5C2458 		fstpl	88(%esp)
 2040 1dc5 DD442458 		fldl	88(%esp)
 2041 1dc9 DB2DC003 		fldt	LC37
 2041      0000
 2042 1dcf DEC9     		fmulp	%st, %st(1)
 2043 1dd1 A1200000 		movl	___sput+32, %eax
 2043      00
 2044 1dd6 89442448 		movl	%eax, 72(%esp)
 2045 1dda C744244C 		movl	$0, 76(%esp)
 2045      00000000 
 2046 1de2 DF6C2448 		fildq	72(%esp)
 2047 1de6 DD5C2458 		fstpl	88(%esp)
 2048 1dea DD442458 		fldl	88(%esp)
 2049 1dee DEF9     		fdivrp	%st, %st(1)
 2050 1df0 D95C2454 		fstps	84(%esp)
 2051 1df4 8B442454 		movl	84(%esp), %eax
 2052 1df8 EB05     		jmp	L107
 2053              	L106:
 2054              		.loc 2 57 0 discriminator 10
 2055 1dfa A1B80300 		movl	LC36, %eax
 2055      00
 2056              	L107:
 2057              		.loc 2 57 0 discriminator 12
 2058 1dff 8944246C 		movl	%eax, 108(%esp)
 2059 1e03 D944246C 		flds	108(%esp)
 2060 1e07 DD5C2448 		fstpl	72(%esp)
 2061 1e0b 8B442448 		movl	72(%esp), %eax
 2062 1e0f 8B54244C 		movl	76(%esp), %edx
 2063 1e13 8B3D2800 		movl	___sput+40, %edi
GAS LISTING C:\Users\PRESID~1\AppData\Local\Temp\ccPJOK5j.s 			page 62


 2063      0000
 2064 1e19 8B352400 		movl	___sput+36, %esi
 2064      0000
 2065 1e1f 8B1D2000 		movl	___sput+32, %ebx
 2065      0000
 2066 1e25 8B0D0000 		movl	___sput, %ecx
 2066      0000
 2067 1e2b 89442414 		movl	%eax, 20(%esp)
 2068 1e2f 89542418 		movl	%edx, 24(%esp)
 2069 1e33 897C2410 		movl	%edi, 16(%esp)
 2070 1e37 8974240C 		movl	%esi, 12(%esp)
 2071 1e3b 895C2408 		movl	%ebx, 8(%esp)
 2072 1e3f C7442404 		movl	$LC38, 4(%esp)
 2072      74020000 
 2073 1e47 890C24   		movl	%ecx, (%esp)
 2074 1e4a E8B1E1FF 		call	_fprintf
 2074      FF
 2075 1e4f 8B150800 		movl	___sput+8, %edx
 2075      0000
 2076 1e55 A1200000 		movl	___sput+32, %eax
 2076      00
 2077 1e5a 01D0     		addl	%edx, %eax
 2078 1e5c A3080000 		movl	%eax, ___sput+8
 2078      00
 2079 1e61 8B151000 		movl	___sput+16, %edx
 2079      0000
 2080 1e67 A1240000 		movl	___sput+36, %eax
 2080      00
 2081 1e6c 01D0     		addl	%edx, %eax
 2082 1e6e A3100000 		movl	%eax, ___sput+16
 2082      00
 2083 1e73 8B151400 		movl	___sput+20, %edx
 2083      0000
 2084 1e79 A1280000 		movl	___sput+40, %eax
 2084      00
 2085 1e7e 01D0     		addl	%edx, %eax
 2086 1e80 A3140000 		movl	%eax, ___sput+20
 2086      00
 2087 1e85 C7442408 		movl	$20, 8(%esp)
 2087      14000000 
 2088 1e8d C7442404 		movl	$0, 4(%esp)
 2088      00000000 
 2089 1e95 C7042418 		movl	$___sput+24, (%esp)
 2089      000000
 2090 1e9c E8000000 		call	_memset
 2090      00
 2091              	L103:
 2092              	LBE2:
 2093              		.loc 2 57 0 discriminator 13
 2094 1ea1 C7051800 		movl	$LC39, ___sput+24
 2094      0000A402 
 2094      0000
 2095 1eab A10C0000 		movl	___sput+12, %eax
 2095      00
 2096 1eb0 40       		incl	%eax
 2097 1eb1 A30C0000 		movl	%eax, ___sput+12
 2097      00
GAS LISTING C:\Users\PRESID~1\AppData\Local\Temp\ccPJOK5j.s 			page 63


 2098 1eb6 A10C0000 		movl	___sput+12, %eax
 2098      00
 2099 1ebb A31C0000 		movl	%eax, ___sput+28
 2099      00
 2100 1ec0 8B0D1800 		movl	___sput+24, %ecx
 2100      0000
 2101 1ec6 8B151C00 		movl	___sput+28, %edx
 2101      0000
 2102 1ecc A1000000 		movl	___sput, %eax
 2102      00
 2103 1ed1 894C240C 		movl	%ecx, 12(%esp)
 2104 1ed5 89542408 		movl	%edx, 8(%esp)
 2105 1ed9 C7442404 		movl	$LC40, 4(%esp)
 2105      C4020000 
 2106 1ee1 890424   		movl	%eax, (%esp)
 2107 1ee4 E817E1FF 		call	_fprintf
 2107      FF
  58:E:/NeuOrga/Programmieren/c_cpp/github_os/input/src/os_base\os_init_task_system_test.c ****    sput_run_test(test_vowels_present);
 2108              		.loc 2 58 0 is_stmt 1 discriminator 13
 2109 1ee9 A0040000 		movb	___sput+4, %al
 2109      00
 2110 1eee 3C06     		cmpb	$6, %al
 2111 1ef0 7434     		je	L108
 2112              		.loc 2 58 0 is_stmt 0 discriminator 1
 2113 1ef2 A1000000 		movl	__imp___iob, %eax
 2113      00
 2114 1ef7 83C040   		addl	$64, %eax
 2115 1efa 8944240C 		movl	%eax, 12(%esp)
 2116 1efe C7442408 		movl	$29, 8(%esp)
 2116      1D000000 
 2117 1f06 C7442404 		movl	$1, 4(%esp)
 2117      01000000 
 2118 1f0e C7042400 		movl	$LC0, (%esp)
 2118      000000
 2119 1f15 E8000000 		call	_fwrite
 2119      00
 2120 1f1a C7042401 		movl	$1, (%esp)
 2120      000000
 2121 1f21 E8000000 		call	_exit
 2121      00
 2122              	L108:
 2123              		.loc 2 58 0 discriminator 2
 2124 1f26 A1180000 		movl	___sput+24, %eax
 2124      00
 2125 1f2b 85C0     		testl	%eax, %eax
 2126 1f2d 7531     		jne	L109
 2127              		.loc 2 58 0 discriminator 3
 2128 1f2f A1000000 		movl	___sput, %eax
 2128      00
 2129 1f34 8944240C 		movl	%eax, 12(%esp)
 2130 1f38 C7442408 		movl	$27, 8(%esp)
 2130      1B000000 
 2131 1f40 C7442404 		movl	$1, 4(%esp)
 2131      01000000 
 2132 1f48 C704241E 		movl	$LC1, (%esp)
 2132      000000
 2133 1f4f E8000000 		call	_fwrite
GAS LISTING C:\Users\PRESID~1\AppData\Local\Temp\ccPJOK5j.s 			page 64


 2133      00
 2134 1f54 C7042401 		movl	$1, (%esp)
 2134      000000
 2135 1f5b E8000000 		call	_exit
 2135      00
 2136              	L109:
 2137              		.loc 2 58 0 discriminator 4
 2138 1f60 C7442408 		movl	$8, 8(%esp)
 2138      08000000 
 2139 1f68 C7442404 		movl	$0, 4(%esp)
 2139      00000000 
 2140 1f70 C704242C 		movl	$___sput+44, (%esp)
 2140      000000
 2141 1f77 E8000000 		call	_memset
 2141      00
 2142 1f7c C7052C00 		movl	$LC41, ___sput+44
 2142      0000E702 
 2142      0000
 2143 1f86 E8FBE0FF 		call	_test_vowels_present
 2143      FF
  59:E:/NeuOrga/Programmieren/c_cpp/github_os/input/src/os_base\os_init_task_system_test.c **** 
  60:E:/NeuOrga/Programmieren/c_cpp/github_os/input/src/os_base\os_init_task_system_test.c ****    sput_enter_suite("count_vowels(): No Vowels Present");
 2144              		.loc 2 60 0 is_stmt 1 discriminator 4
 2145 1f8b A0040000 		movb	___sput+4, %al
 2145      00
 2146 1f90 3C06     		cmpb	$6, %al
 2147 1f92 7434     		je	L110
 2148              		.loc 2 60 0 is_stmt 0 discriminator 1
 2149 1f94 A1000000 		movl	__imp___iob, %eax
 2149      00
 2150 1f99 83C040   		addl	$64, %eax
 2151 1f9c 8944240C 		movl	%eax, 12(%esp)
 2152 1fa0 C7442408 		movl	$29, 8(%esp)
 2152      1D000000 
 2153 1fa8 C7442404 		movl	$1, 4(%esp)
 2153      01000000 
 2154 1fb0 C7042400 		movl	$LC0, (%esp)
 2154      000000
 2155 1fb7 E8000000 		call	_fwrite
 2155      00
 2156 1fbc C7042401 		movl	$1, (%esp)
 2156      000000
 2157 1fc3 E8000000 		call	_exit
 2157      00
 2158              	L110:
 2159              		.loc 2 60 0 discriminator 2
 2160 1fc8 A1180000 		movl	___sput+24, %eax
 2160      00
 2161 1fcd 85C0     		testl	%eax, %eax
 2162 1fcf 0F847E01 		je	L111
 2162      0000
 2163              	LBB3:
 2164              		.loc 2 60 0 discriminator 3
 2165 1fd5 A1B80300 		movl	LC36, %eax
 2165      00
 2166 1fda 89442468 		movl	%eax, 104(%esp)
 2167 1fde A0040000 		movb	___sput+4, %al
GAS LISTING C:\Users\PRESID~1\AppData\Local\Temp\ccPJOK5j.s 			page 65


 2167      00
 2168 1fe3 3C06     		cmpb	$6, %al
 2169 1fe5 7434     		je	L112
 2170              		.loc 2 60 0 discriminator 5
 2171 1fe7 A1000000 		movl	__imp___iob, %eax
 2171      00
 2172 1fec 83C040   		addl	$64, %eax
 2173 1fef 8944240C 		movl	%eax, 12(%esp)
 2174 1ff3 C7442408 		movl	$29, 8(%esp)
 2174      1D000000 
 2175 1ffb C7442404 		movl	$1, 4(%esp)
 2175      01000000 
 2176 2003 C7042400 		movl	$LC0, (%esp)
 2176      000000
 2177 200a E8000000 		call	_fwrite
 2177      00
 2178 200f C7042401 		movl	$1, (%esp)
 2178      000000
 2179 2016 E8000000 		call	_exit
 2179      00
 2180              	L112:
 2181              		.loc 2 60 0 discriminator 6
 2182 201b A1180000 		movl	___sput+24, %eax
 2182      00
 2183 2020 85C0     		testl	%eax, %eax
 2184 2022 7531     		jne	L113
 2185              		.loc 2 60 0 discriminator 7
 2186 2024 A1000000 		movl	___sput, %eax
 2186      00
 2187 2029 8944240C 		movl	%eax, 12(%esp)
 2188 202d C7442408 		movl	$27, 8(%esp)
 2188      1B000000 
 2189 2035 C7442404 		movl	$1, 4(%esp)
 2189      01000000 
 2190 203d C704241E 		movl	$LC1, (%esp)
 2190      000000
 2191 2044 E8000000 		call	_fwrite
 2191      00
 2192 2049 C7042401 		movl	$1, (%esp)
 2192      000000
 2193 2050 E8000000 		call	_exit
 2193      00
 2194              	L113:
 2195              		.loc 2 60 0 discriminator 8
 2196 2055 A1200000 		movl	___sput+32, %eax
 2196      00
 2197 205a 85C0     		testl	%eax, %eax
 2198 205c 744E     		je	L114
 2199              		.loc 2 60 0 discriminator 9
 2200 205e A1280000 		movl	___sput+40, %eax
 2200      00
 2201 2063 89442448 		movl	%eax, 72(%esp)
 2202 2067 C744244C 		movl	$0, 76(%esp)
 2202      00000000 
 2203 206f DF6C2448 		fildq	72(%esp)
 2204 2073 DD5C2458 		fstpl	88(%esp)
 2205 2077 DD442458 		fldl	88(%esp)
GAS LISTING C:\Users\PRESID~1\AppData\Local\Temp\ccPJOK5j.s 			page 66


 2206 207b DB2DC003 		fldt	LC37
 2206      0000
 2207 2081 DEC9     		fmulp	%st, %st(1)
 2208 2083 A1200000 		movl	___sput+32, %eax
 2208      00
 2209 2088 89442448 		movl	%eax, 72(%esp)
 2210 208c C744244C 		movl	$0, 76(%esp)
 2210      00000000 
 2211 2094 DF6C2448 		fildq	72(%esp)
 2212 2098 DD5C2458 		fstpl	88(%esp)
 2213 209c DD442458 		fldl	88(%esp)
 2214 20a0 DEF9     		fdivrp	%st, %st(1)
 2215 20a2 D95C2454 		fstps	84(%esp)
 2216 20a6 8B442454 		movl	84(%esp), %eax
 2217 20aa EB05     		jmp	L115
 2218              	L114:
 2219              		.loc 2 60 0 discriminator 10
 2220 20ac A1B80300 		movl	LC36, %eax
 2220      00
 2221              	L115:
 2222              		.loc 2 60 0 discriminator 12
 2223 20b1 89442468 		movl	%eax, 104(%esp)
 2224 20b5 D9442468 		flds	104(%esp)
 2225 20b9 DD5C2448 		fstpl	72(%esp)
 2226 20bd 8B442448 		movl	72(%esp), %eax
 2227 20c1 8B54244C 		movl	76(%esp), %edx
 2228 20c5 8B3D2800 		movl	___sput+40, %edi
 2228      0000
 2229 20cb 8B352400 		movl	___sput+36, %esi
 2229      0000
 2230 20d1 8B1D2000 		movl	___sput+32, %ebx
 2230      0000
 2231 20d7 8B0D0000 		movl	___sput, %ecx
 2231      0000
 2232 20dd 89442414 		movl	%eax, 20(%esp)
 2233 20e1 89542418 		movl	%edx, 24(%esp)
 2234 20e5 897C2410 		movl	%edi, 16(%esp)
 2235 20e9 8974240C 		movl	%esi, 12(%esp)
 2236 20ed 895C2408 		movl	%ebx, 8(%esp)
 2237 20f1 C7442404 		movl	$LC38, 4(%esp)
 2237      74020000 
 2238 20f9 890C24   		movl	%ecx, (%esp)
 2239 20fc E8FFDEFF 		call	_fprintf
 2239      FF
 2240 2101 8B150800 		movl	___sput+8, %edx
 2240      0000
 2241 2107 A1200000 		movl	___sput+32, %eax
 2241      00
 2242 210c 01D0     		addl	%edx, %eax
 2243 210e A3080000 		movl	%eax, ___sput+8
 2243      00
 2244 2113 8B151000 		movl	___sput+16, %edx
 2244      0000
 2245 2119 A1240000 		movl	___sput+36, %eax
 2245      00
 2246 211e 01D0     		addl	%edx, %eax
 2247 2120 A3100000 		movl	%eax, ___sput+16
GAS LISTING C:\Users\PRESID~1\AppData\Local\Temp\ccPJOK5j.s 			page 67


 2247      00
 2248 2125 8B151400 		movl	___sput+20, %edx
 2248      0000
 2249 212b A1280000 		movl	___sput+40, %eax
 2249      00
 2250 2130 01D0     		addl	%edx, %eax
 2251 2132 A3140000 		movl	%eax, ___sput+20
 2251      00
 2252 2137 C7442408 		movl	$20, 8(%esp)
 2252      14000000 
 2253 213f C7442404 		movl	$0, 4(%esp)
 2253      00000000 
 2254 2147 C7042418 		movl	$___sput+24, (%esp)
 2254      000000
 2255 214e E8000000 		call	_memset
 2255      00
 2256              	L111:
 2257              	LBE3:
 2258              		.loc 2 60 0 discriminator 13
 2259 2153 C7051800 		movl	$LC42, ___sput+24
 2259      0000FC02 
 2259      0000
 2260 215d A10C0000 		movl	___sput+12, %eax
 2260      00
 2261 2162 40       		incl	%eax
 2262 2163 A30C0000 		movl	%eax, ___sput+12
 2262      00
 2263 2168 A10C0000 		movl	___sput+12, %eax
 2263      00
 2264 216d A31C0000 		movl	%eax, ___sput+28
 2264      00
 2265 2172 8B0D1800 		movl	___sput+24, %ecx
 2265      0000
 2266 2178 8B151C00 		movl	___sput+28, %edx
 2266      0000
 2267 217e A1000000 		movl	___sput, %eax
 2267      00
 2268 2183 894C240C 		movl	%ecx, 12(%esp)
 2269 2187 89542408 		movl	%edx, 8(%esp)
 2270 218b C7442404 		movl	$LC40, 4(%esp)
 2270      C4020000 
 2271 2193 890424   		movl	%eax, (%esp)
 2272 2196 E865DEFF 		call	_fprintf
 2272      FF
  61:E:/NeuOrga/Programmieren/c_cpp/github_os/input/src/os_base\os_init_task_system_test.c ****    sput_run_test(test_no_vowels_present);
 2273              		.loc 2 61 0 is_stmt 1 discriminator 13
 2274 219b A0040000 		movb	___sput+4, %al
 2274      00
 2275 21a0 3C06     		cmpb	$6, %al
 2276 21a2 7434     		je	L116
 2277              		.loc 2 61 0 is_stmt 0 discriminator 1
 2278 21a4 A1000000 		movl	__imp___iob, %eax
 2278      00
 2279 21a9 83C040   		addl	$64, %eax
 2280 21ac 8944240C 		movl	%eax, 12(%esp)
 2281 21b0 C7442408 		movl	$29, 8(%esp)
 2281      1D000000 
GAS LISTING C:\Users\PRESID~1\AppData\Local\Temp\ccPJOK5j.s 			page 68


 2282 21b8 C7442404 		movl	$1, 4(%esp)
 2282      01000000 
 2283 21c0 C7042400 		movl	$LC0, (%esp)
 2283      000000
 2284 21c7 E8000000 		call	_fwrite
 2284      00
 2285 21cc C7042401 		movl	$1, (%esp)
 2285      000000
 2286 21d3 E8000000 		call	_exit
 2286      00
 2287              	L116:
 2288              		.loc 2 61 0 discriminator 2
 2289 21d8 A1180000 		movl	___sput+24, %eax
 2289      00
 2290 21dd 85C0     		testl	%eax, %eax
 2291 21df 7531     		jne	L117
 2292              		.loc 2 61 0 discriminator 3
 2293 21e1 A1000000 		movl	___sput, %eax
 2293      00
 2294 21e6 8944240C 		movl	%eax, 12(%esp)
 2295 21ea C7442408 		movl	$27, 8(%esp)
 2295      1B000000 
 2296 21f2 C7442404 		movl	$1, 4(%esp)
 2296      01000000 
 2297 21fa C704241E 		movl	$LC1, (%esp)
 2297      000000
 2298 2201 E8000000 		call	_fwrite
 2298      00
 2299 2206 C7042401 		movl	$1, (%esp)
 2299      000000
 2300 220d E8000000 		call	_exit
 2300      00
 2301              	L117:
 2302              		.loc 2 61 0 discriminator 4
 2303 2212 C7442408 		movl	$8, 8(%esp)
 2303      08000000 
 2304 221a C7442404 		movl	$0, 4(%esp)
 2304      00000000 
 2305 2222 C704242C 		movl	$___sput+44, (%esp)
 2305      000000
 2306 2229 E8000000 		call	_memset
 2306      00
 2307 222e C7052C00 		movl	$LC43, ___sput+44
 2307      00001E03 
 2307      0000
 2308 2238 E84CECFF 		call	_test_no_vowels_present
 2308      FF
 2309              	LBB4:
  62:E:/NeuOrga/Programmieren/c_cpp/github_os/input/src/os_base\os_init_task_system_test.c **** 
  63:E:/NeuOrga/Programmieren/c_cpp/github_os/input/src/os_base\os_init_task_system_test.c ****    sput_finish_testing();
 2310              		.loc 2 63 0 is_stmt 1 discriminator 4
 2311 223d A1B80300 		movl	LC36, %eax
 2311      00
 2312 2242 89442464 		movl	%eax, 100(%esp)
 2313 2246 A0040000 		movb	___sput+4, %al
 2313      00
 2314 224b 3C06     		cmpb	$6, %al
GAS LISTING C:\Users\PRESID~1\AppData\Local\Temp\ccPJOK5j.s 			page 69


 2315 224d 7434     		je	L118
 2316              		.loc 2 63 0 is_stmt 0 discriminator 1
 2317 224f A1000000 		movl	__imp___iob, %eax
 2317      00
 2318 2254 83C040   		addl	$64, %eax
 2319 2257 8944240C 		movl	%eax, 12(%esp)
 2320 225b C7442408 		movl	$29, 8(%esp)
 2320      1D000000 
 2321 2263 C7442404 		movl	$1, 4(%esp)
 2321      01000000 
 2322 226b C7042400 		movl	$LC0, (%esp)
 2322      000000
 2323 2272 E8000000 		call	_fwrite
 2323      00
 2324 2277 C7042401 		movl	$1, (%esp)
 2324      000000
 2325 227e E8000000 		call	_exit
 2325      00
 2326              	L118:
 2327              		.loc 2 63 0 discriminator 2
 2328 2283 A1180000 		movl	___sput+24, %eax
 2328      00
 2329 2288 85C0     		testl	%eax, %eax
 2330 228a 0F847E01 		je	L119
 2330      0000
 2331              	LBB5:
 2332              		.loc 2 63 0 discriminator 3
 2333 2290 A1B80300 		movl	LC36, %eax
 2333      00
 2334 2295 89442460 		movl	%eax, 96(%esp)
 2335 2299 A0040000 		movb	___sput+4, %al
 2335      00
 2336 229e 3C06     		cmpb	$6, %al
 2337 22a0 7434     		je	L120
 2338              		.loc 2 63 0 discriminator 5
 2339 22a2 A1000000 		movl	__imp___iob, %eax
 2339      00
 2340 22a7 83C040   		addl	$64, %eax
 2341 22aa 8944240C 		movl	%eax, 12(%esp)
 2342 22ae C7442408 		movl	$29, 8(%esp)
 2342      1D000000 
 2343 22b6 C7442404 		movl	$1, 4(%esp)
 2343      01000000 
 2344 22be C7042400 		movl	$LC0, (%esp)
 2344      000000
 2345 22c5 E8000000 		call	_fwrite
 2345      00
 2346 22ca C7042401 		movl	$1, (%esp)
 2346      000000
 2347 22d1 E8000000 		call	_exit
 2347      00
 2348              	L120:
 2349              		.loc 2 63 0 discriminator 6
 2350 22d6 A1180000 		movl	___sput+24, %eax
 2350      00
 2351 22db 85C0     		testl	%eax, %eax
 2352 22dd 7531     		jne	L121
GAS LISTING C:\Users\PRESID~1\AppData\Local\Temp\ccPJOK5j.s 			page 70


 2353              		.loc 2 63 0 discriminator 7
 2354 22df A1000000 		movl	___sput, %eax
 2354      00
 2355 22e4 8944240C 		movl	%eax, 12(%esp)
 2356 22e8 C7442408 		movl	$27, 8(%esp)
 2356      1B000000 
 2357 22f0 C7442404 		movl	$1, 4(%esp)
 2357      01000000 
 2358 22f8 C704241E 		movl	$LC1, (%esp)
 2358      000000
 2359 22ff E8000000 		call	_fwrite
 2359      00
 2360 2304 C7042401 		movl	$1, (%esp)
 2360      000000
 2361 230b E8000000 		call	_exit
 2361      00
 2362              	L121:
 2363              		.loc 2 63 0 discriminator 8
 2364 2310 A1200000 		movl	___sput+32, %eax
 2364      00
 2365 2315 85C0     		testl	%eax, %eax
 2366 2317 744E     		je	L122
 2367              		.loc 2 63 0 discriminator 9
 2368 2319 A1280000 		movl	___sput+40, %eax
 2368      00
 2369 231e 89442448 		movl	%eax, 72(%esp)
 2370 2322 C744244C 		movl	$0, 76(%esp)
 2370      00000000 
 2371 232a DF6C2448 		fildq	72(%esp)
 2372 232e DD5C2458 		fstpl	88(%esp)
 2373 2332 DD442458 		fldl	88(%esp)
 2374 2336 DB2DC003 		fldt	LC37
 2374      0000
 2375 233c DEC9     		fmulp	%st, %st(1)
 2376 233e A1200000 		movl	___sput+32, %eax
 2376      00
 2377 2343 89442448 		movl	%eax, 72(%esp)
 2378 2347 C744244C 		movl	$0, 76(%esp)
 2378      00000000 
 2379 234f DF6C2448 		fildq	72(%esp)
 2380 2353 DD5C2458 		fstpl	88(%esp)
 2381 2357 DD442458 		fldl	88(%esp)
 2382 235b DEF9     		fdivrp	%st, %st(1)
 2383 235d D95C2454 		fstps	84(%esp)
 2384 2361 8B442454 		movl	84(%esp), %eax
 2385 2365 EB05     		jmp	L123
 2386              	L122:
 2387              		.loc 2 63 0 discriminator 10
 2388 2367 A1B80300 		movl	LC36, %eax
 2388      00
 2389              	L123:
 2390              		.loc 2 63 0 discriminator 12
 2391 236c 89442460 		movl	%eax, 96(%esp)
 2392 2370 D9442460 		flds	96(%esp)
 2393 2374 DD5C2448 		fstpl	72(%esp)
 2394 2378 8B442448 		movl	72(%esp), %eax
 2395 237c 8B54244C 		movl	76(%esp), %edx
GAS LISTING C:\Users\PRESID~1\AppData\Local\Temp\ccPJOK5j.s 			page 71


 2396 2380 8B3D2800 		movl	___sput+40, %edi
 2396      0000
 2397 2386 8B352400 		movl	___sput+36, %esi
 2397      0000
 2398 238c 8B1D2000 		movl	___sput+32, %ebx
 2398      0000
 2399 2392 8B0D0000 		movl	___sput, %ecx
 2399      0000
 2400 2398 89442414 		movl	%eax, 20(%esp)
 2401 239c 89542418 		movl	%edx, 24(%esp)
 2402 23a0 897C2410 		movl	%edi, 16(%esp)
 2403 23a4 8974240C 		movl	%esi, 12(%esp)
 2404 23a8 895C2408 		movl	%ebx, 8(%esp)
 2405 23ac C7442404 		movl	$LC38, 4(%esp)
 2405      74020000 
 2406 23b4 890C24   		movl	%ecx, (%esp)
 2407 23b7 E844DCFF 		call	_fprintf
 2407      FF
 2408 23bc 8B150800 		movl	___sput+8, %edx
 2408      0000
 2409 23c2 A1200000 		movl	___sput+32, %eax
 2409      00
 2410 23c7 01D0     		addl	%edx, %eax
 2411 23c9 A3080000 		movl	%eax, ___sput+8
 2411      00
 2412 23ce 8B151000 		movl	___sput+16, %edx
 2412      0000
 2413 23d4 A1240000 		movl	___sput+36, %eax
 2413      00
 2414 23d9 01D0     		addl	%edx, %eax
 2415 23db A3100000 		movl	%eax, ___sput+16
 2415      00
 2416 23e0 8B151400 		movl	___sput+20, %edx
 2416      0000
 2417 23e6 A1280000 		movl	___sput+40, %eax
 2417      00
 2418 23eb 01D0     		addl	%edx, %eax
 2419 23ed A3140000 		movl	%eax, ___sput+20
 2419      00
 2420 23f2 C7442408 		movl	$20, 8(%esp)
 2420      14000000 
 2421 23fa C7442404 		movl	$0, 4(%esp)
 2421      00000000 
 2422 2402 C7042418 		movl	$___sput+24, (%esp)
 2422      000000
 2423 2409 E8000000 		call	_memset
 2423      00
 2424              	L119:
 2425              	LBE5:
 2426              		.loc 2 63 0 discriminator 13
 2427 240e A1080000 		movl	___sput+8, %eax
 2427      00
 2428 2413 85C0     		testl	%eax, %eax
 2429 2415 744E     		je	L124
 2430              		.loc 2 63 0 discriminator 14
 2431 2417 A1140000 		movl	___sput+20, %eax
 2431      00
GAS LISTING C:\Users\PRESID~1\AppData\Local\Temp\ccPJOK5j.s 			page 72


 2432 241c 89442448 		movl	%eax, 72(%esp)
 2433 2420 C744244C 		movl	$0, 76(%esp)
 2433      00000000 
 2434 2428 DF6C2448 		fildq	72(%esp)
 2435 242c DD5C2458 		fstpl	88(%esp)
 2436 2430 DD442458 		fldl	88(%esp)
 2437 2434 DB2DC003 		fldt	LC37
 2437      0000
 2438 243a DEC9     		fmulp	%st, %st(1)
 2439 243c A1080000 		movl	___sput+8, %eax
 2439      00
 2440 2441 89442448 		movl	%eax, 72(%esp)
 2441 2445 C744244C 		movl	$0, 76(%esp)
 2441      00000000 
 2442 244d DF6C2448 		fildq	72(%esp)
 2443 2451 DD5C2458 		fstpl	88(%esp)
 2444 2455 DD442458 		fldl	88(%esp)
 2445 2459 DEF9     		fdivrp	%st, %st(1)
 2446 245b D95C2454 		fstps	84(%esp)
 2447 245f 8B442454 		movl	84(%esp), %eax
 2448 2463 EB05     		jmp	L125
 2449              	L124:
 2450              		.loc 2 63 0 discriminator 15
 2451 2465 A1B80300 		movl	LC36, %eax
 2451      00
 2452              	L125:
 2453              		.loc 2 63 0 discriminator 17
 2454 246a 89442464 		movl	%eax, 100(%esp)
 2455 246e C7042400 		movl	$0, (%esp)
 2455      000000
 2456 2475 E8000000 		call	_time
 2456      00
 2457 247a A3480000 		movl	%eax, ___sput+72
 2457      00
 2458 247f A1140000 		movl	___sput+20, %eax
 2458      00
 2459 2484 85C0     		testl	%eax, %eax
 2460 2486 750A     		jne	L126
 2461              		.loc 2 63 0 discriminator 18
 2462 2488 C7442448 		movl	$LC44, 72(%esp)
 2462      35030000 
 2463 2490 EB08     		jmp	L127
 2464              	L126:
 2465              		.loc 2 63 0 discriminator 19
 2466 2492 C7442448 		movl	$LC45, 72(%esp)
 2466      3D030000 
 2467              	L127:
 2468              		.loc 2 63 0 discriminator 21
 2469 249a D9442464 		flds	100(%esp)
 2470 249e DD5C2440 		fstpl	64(%esp)
 2471 24a2 8B5C2440 		movl	64(%esp), %ebx
 2472 24a6 8B742444 		movl	68(%esp), %esi
 2473 24aa A1140000 		movl	___sput+20, %eax
 2473      00
 2474 24af 89442440 		movl	%eax, 64(%esp)
 2475 24b3 8B3D1000 		movl	___sput+16, %edi
 2475      0000
GAS LISTING C:\Users\PRESID~1\AppData\Local\Temp\ccPJOK5j.s 			page 73


 2476 24b9 897C2450 		movl	%edi, 80(%esp)
 2477 24bd 8B154400 		movl	___sput+68, %edx
 2477      0000
 2478 24c3 A1480000 		movl	___sput+72, %eax
 2478      00
 2479 24c8 89542404 		movl	%edx, 4(%esp)
 2480 24cc 890424   		movl	%eax, (%esp)
 2481 24cf E8000000 		call	_difftime
 2481      00
 2482 24d4 DD5C2438 		fstpl	56(%esp)
 2483 24d8 DD442438 		fldl	56(%esp)
 2484 24dc 8B0D0C00 		movl	___sput+12, %ecx
 2484      0000
 2485 24e2 89C8     		movl	%ecx, %eax
 2486 24e4 8B3D0800 		movl	___sput+8, %edi
 2486      0000
 2487 24ea 8B0D0000 		movl	___sput, %ecx
 2487      0000
 2488 24f0 8B542448 		movl	72(%esp), %edx
 2489 24f4 89542428 		movl	%edx, 40(%esp)
 2490 24f8 895C2420 		movl	%ebx, 32(%esp)
 2491 24fc 89742424 		movl	%esi, 36(%esp)
 2492 2500 8B742440 		movl	64(%esp), %esi
 2493 2504 8974241C 		movl	%esi, 28(%esp)
 2494 2508 8B5C2450 		movl	80(%esp), %ebx
 2495 250c 895C2418 		movl	%ebx, 24(%esp)
 2496 2510 DD5C2410 		fstpl	16(%esp)
 2497 2514 8944240C 		movl	%eax, 12(%esp)
 2498 2518 897C2408 		movl	%edi, 8(%esp)
 2499 251c C7442404 		movl	$LC46, 4(%esp)
 2499      48030000 
 2500 2524 890C24   		movl	%ecx, (%esp)
 2501 2527 E8D4DAFF 		call	_fprintf
 2501      FF
 2502              	LBE4:
  64:E:/NeuOrga/Programmieren/c_cpp/github_os/input/src/os_base\os_init_task_system_test.c **** 
  65:E:/NeuOrga/Programmieren/c_cpp/github_os/input/src/os_base\os_init_task_system_test.c ****    return sput_get_return_value();
 2503              		.loc 2 65 0 is_stmt 1 discriminator 21
 2504 252c A1140000 		movl	___sput+20, %eax
 2504      00
 2505 2531 85C0     		testl	%eax, %eax
 2506 2533 0F95C0   		setne	%al
 2507 2536 0FB6C0   		movzbl	%al, %eax
  66:E:/NeuOrga/Programmieren/c_cpp/github_os/input/src/os_base\os_init_task_system_test.c **** }
 2508              		.loc 2 66 0 discriminator 21
 2509 2539 8D65F4   		leal	-12(%ebp), %esp
 2510 253c 5B       		popl	%ebx
 2511              		.cfi_restore 3
 2512 253d 5E       		popl	%esi
 2513              		.cfi_restore 6
 2514 253e 5F       		popl	%edi
 2515              		.cfi_restore 7
 2516 253f 5D       		popl	%ebp
 2517              		.cfi_restore 5
 2518              		.cfi_def_cfa 4, 4
 2519 2540 C3       		ret
 2520              		.cfi_endproc
GAS LISTING C:\Users\PRESID~1\AppData\Local\Temp\ccPJOK5j.s 			page 74


 2521              	LFE13:
 2522              		.section .rdata,"dr"
 2523 03b7 00       		.align 4
 2524              	LC36:
 2525 03b8 00000000 		.long	0
 2526 03bc 00000000 		.align 16
 2527              	LC37:
 2528 03c0 00000000 		.long	0
 2529 03c4 000000C8 		.long	-939524096
 2530 03c8 05400000 		.long	16389
 2531 03cc 00000000 		.text
 2532              	Letext0:
 2533              		.file 3 "d:/programm/mingw/include/parts/time.h"
 2534              		.file 4 "E:/NeuOrga/Programmieren/c_cpp/github_os/input/src/os_base/../os_base/os_sput.h"
 2535 2541 909090   		.section	.debug_info,"dr"
 2536              	Ldebug_info0:
 2537 0000 75050000 		.long	0x575
 2538 0004 0400     		.word	0x4
 2539 0006 00000000 		.secrel32	Ldebug_abbrev0
 2540 000a 04       		.byte	0x4
 2541 000b 01       		.uleb128 0x1
 2542 000c 474E5520 		.ascii "GNU C 4.9.3 -march=i386 -g3 -O0 -std=c90\0"
 2542      4320342E 
 2542      392E3320 
 2542      2D6D6172 
 2542      63683D69 
 2543 0035 01       		.byte	0x1
 2544 0036 453A5C4E 		.ascii "E:\\NeuOrga\\Programmieren\\c_cpp\\github_os\\input\\src\\os_base\\os_init_task_system_tes
 2544      65754F72 
 2544      67615C50 
 2544      726F6772 
 2544      616D6D69 
 2545 008c 00000000 		.long	Ltext0
 2546 0090 41250000 		.long	Letext0-Ltext0
 2547 0094 00000000 		.secrel32	Ldebug_line0
 2548 0098 00000000 		.secrel32	Ldebug_macro0
 2549 009c 02       		.uleb128 0x2
 2550 009d 04       		.byte	0x4
 2551 009e 07       		.byte	0x7
 2552 009f 756E7369 		.ascii "unsigned int\0"
 2552      676E6564 
 2552      20696E74 
 2552      00
 2553 00ac 02       		.uleb128 0x2
 2554 00ad 02       		.byte	0x2
 2555 00ae 07       		.byte	0x7
 2556 00af 73686F72 		.ascii "short unsigned int\0"
 2556      7420756E 
 2556      7369676E 
 2556      65642069 
 2556      6E7400
 2557 00c2 03       		.uleb128 0x3
 2558 00c3 04       		.byte	0x4
 2559 00c4 5F5F6275 		.ascii "__builtin_va_list\0"
 2559      696C7469 
 2559      6E5F7661 
 2559      5F6C6973 
GAS LISTING C:\Users\PRESID~1\AppData\Local\Temp\ccPJOK5j.s 			page 75


 2559      7400
 2560 00d6 DA000000 		.long	0xda
 2561 00da 02       		.uleb128 0x2
 2562 00db 01       		.byte	0x1
 2563 00dc 06       		.byte	0x6
 2564 00dd 63686172 		.ascii "char\0"
 2564      00
 2565 00e2 04       		.uleb128 0x4
 2566 00e3 5F696F62 		.ascii "_iobuf\0"
 2566      756600
 2567 00ea 20       		.byte	0x20
 2568 00eb 01       		.byte	0x1
 2569 00ec 82       		.byte	0x82
 2570 00ed 69010000 		.long	0x169
 2571 00f1 05       		.uleb128 0x5
 2572 00f2 5F707472 		.ascii "_ptr\0"
 2572      00
 2573 00f7 01       		.byte	0x1
 2574 00f8 84       		.byte	0x84
 2575 00f9 69010000 		.long	0x169
 2576 00fd 00       		.byte	0
 2577 00fe 05       		.uleb128 0x5
 2578 00ff 5F636E74 		.ascii "_cnt\0"
 2578      00
 2579 0104 01       		.byte	0x1
 2580 0105 85       		.byte	0x85
 2581 0106 6F010000 		.long	0x16f
 2582 010a 04       		.byte	0x4
 2583 010b 05       		.uleb128 0x5
 2584 010c 5F626173 		.ascii "_base\0"
 2584      6500
 2585 0112 01       		.byte	0x1
 2586 0113 86       		.byte	0x86
 2587 0114 69010000 		.long	0x169
 2588 0118 08       		.byte	0x8
 2589 0119 05       		.uleb128 0x5
 2590 011a 5F666C61 		.ascii "_flag\0"
 2590      6700
 2591 0120 01       		.byte	0x1
 2592 0121 87       		.byte	0x87
 2593 0122 6F010000 		.long	0x16f
 2594 0126 0C       		.byte	0xc
 2595 0127 05       		.uleb128 0x5
 2596 0128 5F66696C 		.ascii "_file\0"
 2596      6500
 2597 012e 01       		.byte	0x1
 2598 012f 88       		.byte	0x88
 2599 0130 6F010000 		.long	0x16f
 2600 0134 10       		.byte	0x10
 2601 0135 05       		.uleb128 0x5
 2602 0136 5F636861 		.ascii "_charbuf\0"
 2602      72627566 
 2602      00
 2603 013f 01       		.byte	0x1
 2604 0140 89       		.byte	0x89
 2605 0141 6F010000 		.long	0x16f
 2606 0145 14       		.byte	0x14
GAS LISTING C:\Users\PRESID~1\AppData\Local\Temp\ccPJOK5j.s 			page 76


 2607 0146 05       		.uleb128 0x5
 2608 0147 5F627566 		.ascii "_bufsiz\0"
 2608      73697A00 
 2609 014f 01       		.byte	0x1
 2610 0150 8A       		.byte	0x8a
 2611 0151 6F010000 		.long	0x16f
 2612 0155 18       		.byte	0x18
 2613 0156 05       		.uleb128 0x5
 2614 0157 5F746D70 		.ascii "_tmpfname\0"
 2614      666E616D 
 2614      6500
 2615 0161 01       		.byte	0x1
 2616 0162 8B       		.byte	0x8b
 2617 0163 69010000 		.long	0x169
 2618 0167 1C       		.byte	0x1c
 2619 0168 00       		.byte	0
 2620 0169 06       		.uleb128 0x6
 2621 016a 04       		.byte	0x4
 2622 016b DA000000 		.long	0xda
 2623 016f 02       		.uleb128 0x2
 2624 0170 04       		.byte	0x4
 2625 0171 05       		.byte	0x5
 2626 0172 696E7400 		.ascii "int\0"
 2627 0176 07       		.uleb128 0x7
 2628 0177 46494C45 		.ascii "FILE\0"
 2628      00
 2629 017c 01       		.byte	0x1
 2630 017d 8C       		.byte	0x8c
 2631 017e E2000000 		.long	0xe2
 2632 0182 02       		.uleb128 0x2
 2633 0183 08       		.byte	0x8
 2634 0184 05       		.byte	0x5
 2635 0185 6C6F6E67 		.ascii "long long int\0"
 2635      206C6F6E 
 2635      6720696E 
 2635      7400
 2636 0193 02       		.uleb128 0x2
 2637 0194 04       		.byte	0x4
 2638 0195 05       		.byte	0x5
 2639 0196 6C6F6E67 		.ascii "long int\0"
 2639      20696E74 
 2639      00
 2640 019f 07       		.uleb128 0x7
 2641 01a0 5F5F7469 		.ascii "__time32_t\0"
 2641      6D653332 
 2641      5F7400
 2642 01ab 03       		.byte	0x3
 2643 01ac 40       		.byte	0x40
 2644 01ad 93010000 		.long	0x193
 2645 01b1 07       		.uleb128 0x7
 2646 01b2 74696D65 		.ascii "time_t\0"
 2646      5F7400
 2647 01b9 03       		.byte	0x3
 2648 01ba 4A       		.byte	0x4a
 2649 01bb 9F010000 		.long	0x19f
 2650 01bf 04       		.uleb128 0x4
 2651 01c0 73707574 		.ascii "sput_overall\0"
GAS LISTING C:\Users\PRESID~1\AppData\Local\Temp\ccPJOK5j.s 			page 77


 2651      5F6F7665 
 2651      72616C6C 
 2651      00
 2652 01cd 10       		.byte	0x10
 2653 01ce 04       		.byte	0x4
 2654 01cf 4C       		.byte	0x4c
 2655 01d0 0A020000 		.long	0x20a
 2656 01d4 05       		.uleb128 0x5
 2657 01d5 63686563 		.ascii "checks\0"
 2657      6B7300
 2658 01dc 04       		.byte	0x4
 2659 01dd 4E       		.byte	0x4e
 2660 01de 0A020000 		.long	0x20a
 2661 01e2 00       		.byte	0
 2662 01e3 05       		.uleb128 0x5
 2663 01e4 73756974 		.ascii "suites\0"
 2663      657300
 2664 01eb 04       		.byte	0x4
 2665 01ec 4F       		.byte	0x4f
 2666 01ed 0A020000 		.long	0x20a
 2667 01f1 04       		.byte	0x4
 2668 01f2 05       		.uleb128 0x5
 2669 01f3 6F6B00   		.ascii "ok\0"
 2670 01f6 04       		.byte	0x4
 2671 01f7 50       		.byte	0x50
 2672 01f8 0A020000 		.long	0x20a
 2673 01fc 08       		.byte	0x8
 2674 01fd 05       		.uleb128 0x5
 2675 01fe 6E6F6B00 		.ascii "nok\0"
 2676 0202 04       		.byte	0x4
 2677 0203 51       		.byte	0x51
 2678 0204 0A020000 		.long	0x20a
 2679 0208 0C       		.byte	0xc
 2680 0209 00       		.byte	0
 2681 020a 02       		.uleb128 0x2
 2682 020b 04       		.byte	0x4
 2683 020c 07       		.byte	0x7
 2684 020d 6C6F6E67 		.ascii "long unsigned int\0"
 2684      20756E73 
 2684      69676E65 
 2684      6420696E 
 2684      7400
 2685 021f 04       		.uleb128 0x4
 2686 0220 73707574 		.ascii "sput_suite\0"
 2686      5F737569 
 2686      746500
 2687 022b 14       		.byte	0x14
 2688 022c 04       		.byte	0x4
 2689 022d 54       		.byte	0x54
 2690 022e 71020000 		.long	0x271
 2691 0232 05       		.uleb128 0x5
 2692 0233 6E616D65 		.ascii "name\0"
 2692      00
 2693 0238 04       		.byte	0x4
 2694 0239 56       		.byte	0x56
 2695 023a 71020000 		.long	0x271
 2696 023e 00       		.byte	0
GAS LISTING C:\Users\PRESID~1\AppData\Local\Temp\ccPJOK5j.s 			page 78


 2697 023f 05       		.uleb128 0x5
 2698 0240 6E7200   		.ascii "nr\0"
 2699 0243 04       		.byte	0x4
 2700 0244 57       		.byte	0x57
 2701 0245 0A020000 		.long	0x20a
 2702 0249 04       		.byte	0x4
 2703 024a 05       		.uleb128 0x5
 2704 024b 63686563 		.ascii "checks\0"
 2704      6B7300
 2705 0252 04       		.byte	0x4
 2706 0253 58       		.byte	0x58
 2707 0254 0A020000 		.long	0x20a
 2708 0258 08       		.byte	0x8
 2709 0259 05       		.uleb128 0x5
 2710 025a 6F6B00   		.ascii "ok\0"
 2711 025d 04       		.byte	0x4
 2712 025e 59       		.byte	0x59
 2713 025f 0A020000 		.long	0x20a
 2714 0263 0C       		.byte	0xc
 2715 0264 05       		.uleb128 0x5
 2716 0265 6E6F6B00 		.ascii "nok\0"
 2717 0269 04       		.byte	0x4
 2718 026a 5A       		.byte	0x5a
 2719 026b 0A020000 		.long	0x20a
 2720 026f 10       		.byte	0x10
 2721 0270 00       		.byte	0
 2722 0271 06       		.uleb128 0x6
 2723 0272 04       		.byte	0x4
 2724 0273 77020000 		.long	0x277
 2725 0277 08       		.uleb128 0x8
 2726 0278 DA000000 		.long	0xda
 2727 027c 04       		.uleb128 0x4
 2728 027d 73707574 		.ascii "sput_test\0"
 2728      5F746573 
 2728      7400
 2729 0287 08       		.byte	0x8
 2730 0288 04       		.byte	0x4
 2731 0289 5D       		.byte	0x5d
 2732 028a A7020000 		.long	0x2a7
 2733 028e 05       		.uleb128 0x5
 2734 028f 6E616D65 		.ascii "name\0"
 2734      00
 2735 0294 04       		.byte	0x4
 2736 0295 5F       		.byte	0x5f
 2737 0296 71020000 		.long	0x271
 2738 029a 00       		.byte	0
 2739 029b 05       		.uleb128 0x5
 2740 029c 6E7200   		.ascii "nr\0"
 2741 029f 04       		.byte	0x4
 2742 02a0 60       		.byte	0x60
 2743 02a1 0A020000 		.long	0x20a
 2744 02a5 04       		.byte	0x4
 2745 02a6 00       		.byte	0
 2746 02a7 04       		.uleb128 0x4
 2747 02a8 73707574 		.ascii "sput_check\0"
 2747      5F636865 
 2747      636B00
GAS LISTING C:\Users\PRESID~1\AppData\Local\Temp\ccPJOK5j.s 			page 79


 2748 02b3 10       		.byte	0x10
 2749 02b4 04       		.byte	0x4
 2750 02b5 63       		.byte	0x63
 2751 02b6 EF020000 		.long	0x2ef
 2752 02ba 05       		.uleb128 0x5
 2753 02bb 6E616D65 		.ascii "name\0"
 2753      00
 2754 02c0 04       		.byte	0x4
 2755 02c1 65       		.byte	0x65
 2756 02c2 71020000 		.long	0x271
 2757 02c6 00       		.byte	0
 2758 02c7 05       		.uleb128 0x5
 2759 02c8 636F6E64 		.ascii "cond\0"
 2759      00
 2760 02cd 04       		.byte	0x4
 2761 02ce 66       		.byte	0x66
 2762 02cf 71020000 		.long	0x271
 2763 02d3 04       		.byte	0x4
 2764 02d4 05       		.uleb128 0x5
 2765 02d5 74797065 		.ascii "type\0"
 2765      00
 2766 02da 04       		.byte	0x4
 2767 02db 67       		.byte	0x67
 2768 02dc 71020000 		.long	0x271
 2769 02e0 08       		.byte	0x8
 2770 02e1 05       		.uleb128 0x5
 2771 02e2 6C696E65 		.ascii "line\0"
 2771      00
 2772 02e7 04       		.byte	0x4
 2773 02e8 68       		.byte	0x68
 2774 02e9 0A020000 		.long	0x20a
 2775 02ed 0C       		.byte	0xc
 2776 02ee 00       		.byte	0
 2777 02ef 04       		.uleb128 0x4
 2778 02f0 73707574 		.ascii "sput_time\0"
 2778      5F74696D 
 2778      6500
 2779 02fa 08       		.byte	0x8
 2780 02fb 04       		.byte	0x4
 2781 02fc 6B       		.byte	0x6b
 2782 02fd 1C030000 		.long	0x31c
 2783 0301 05       		.uleb128 0x5
 2784 0302 73746172 		.ascii "start\0"
 2784      7400
 2785 0308 04       		.byte	0x4
 2786 0309 6D       		.byte	0x6d
 2787 030a B1010000 		.long	0x1b1
 2788 030e 00       		.byte	0
 2789 030f 05       		.uleb128 0x5
 2790 0310 656E6400 		.ascii "end\0"
 2791 0314 04       		.byte	0x4
 2792 0315 6E       		.byte	0x6e
 2793 0316 B1010000 		.long	0x1b1
 2794 031a 04       		.byte	0x4
 2795 031b 00       		.byte	0
 2796 031c 04       		.uleb128 0x4
 2797 031d 73707574 		.ascii "sput\0"
GAS LISTING C:\Users\PRESID~1\AppData\Local\Temp\ccPJOK5j.s 			page 80


 2797      00
 2798 0322 4C       		.byte	0x4c
 2799 0323 04       		.byte	0x4
 2800 0324 47       		.byte	0x47
 2801 0325 90030000 		.long	0x390
 2802 0329 05       		.uleb128 0x5
 2803 032a 6F757400 		.ascii "out\0"
 2804 032e 04       		.byte	0x4
 2805 032f 49       		.byte	0x49
 2806 0330 90030000 		.long	0x390
 2807 0334 00       		.byte	0
 2808 0335 05       		.uleb128 0x5
 2809 0336 696E6974 		.ascii "initialized\0"
 2809      69616C69 
 2809      7A656400 
 2810 0342 04       		.byte	0x4
 2811 0343 4A       		.byte	0x4a
 2812 0344 DA000000 		.long	0xda
 2813 0348 04       		.byte	0x4
 2814 0349 05       		.uleb128 0x5
 2815 034a 6F766572 		.ascii "overall\0"
 2815      616C6C00 
 2816 0352 04       		.byte	0x4
 2817 0353 52       		.byte	0x52
 2818 0354 BF010000 		.long	0x1bf
 2819 0358 08       		.byte	0x8
 2820 0359 05       		.uleb128 0x5
 2821 035a 73756974 		.ascii "suite\0"
 2821      6500
 2822 0360 04       		.byte	0x4
 2823 0361 5B       		.byte	0x5b
 2824 0362 1F020000 		.long	0x21f
 2825 0366 18       		.byte	0x18
 2826 0367 05       		.uleb128 0x5
 2827 0368 74657374 		.ascii "test\0"
 2827      00
 2828 036d 04       		.byte	0x4
 2829 036e 61       		.byte	0x61
 2830 036f 7C020000 		.long	0x27c
 2831 0373 2C       		.byte	0x2c
 2832 0374 05       		.uleb128 0x5
 2833 0375 63686563 		.ascii "check\0"
 2833      6B00
 2834 037b 04       		.byte	0x4
 2835 037c 69       		.byte	0x69
 2836 037d A7020000 		.long	0x2a7
 2837 0381 34       		.byte	0x34
 2838 0382 05       		.uleb128 0x5
 2839 0383 74696D65 		.ascii "time\0"
 2839      00
 2840 0388 04       		.byte	0x4
 2841 0389 6F       		.byte	0x6f
 2842 038a EF020000 		.long	0x2ef
 2843 038e 44       		.byte	0x44
 2844 038f 00       		.byte	0
 2845 0390 06       		.uleb128 0x6
 2846 0391 04       		.byte	0x4
GAS LISTING C:\Users\PRESID~1\AppData\Local\Temp\ccPJOK5j.s 			page 81


 2847 0392 76010000 		.long	0x176
 2848 0396 09       		.uleb128 0x9
 2849 0397 66707269 		.ascii "fprintf\0"
 2849      6E746600 
 2850 039f 01       		.byte	0x1
 2851 03a0 F1       		.byte	0xf1
 2852 03a1 6F010000 		.long	0x16f
 2853 03a5 00000000 		.long	LFB0
 2854 03a9 30000000 		.long	LFE0-LFB0
 2855 03ad 01       		.uleb128 0x1
 2856 03ae 9C       		.byte	0x9c
 2857 03af 04040000 		.long	0x404
 2858 03b3 0A       		.uleb128 0xa
 2859 03b4 5F5F7374 		.ascii "__stream\0"
 2859      7265616D 
 2859      00
 2860 03bd 01       		.byte	0x1
 2861 03be F1       		.byte	0xf1
 2862 03bf 90030000 		.long	0x390
 2863 03c3 02       		.uleb128 0x2
 2864 03c4 91       		.byte	0x91
 2865 03c5 00       		.sleb128 0
 2866 03c6 0A       		.uleb128 0xa
 2867 03c7 5F5F666F 		.ascii "__format\0"
 2867      726D6174 
 2867      00
 2868 03d0 01       		.byte	0x1
 2869 03d1 F1       		.byte	0xf1
 2870 03d2 71020000 		.long	0x271
 2871 03d6 02       		.uleb128 0x2
 2872 03d7 91       		.byte	0x91
 2873 03d8 04       		.sleb128 4
 2874 03d9 0B       		.uleb128 0xb
 2875 03da 0C       		.uleb128 0xc
 2876 03db 5F5F7265 		.ascii "__retval\0"
 2876      7476616C 
 2876      00
 2877 03e4 01       		.byte	0x1
 2878 03e5 F3       		.byte	0xf3
 2879 03e6 6F010000 		.long	0x16f
 2880 03ea 01       		.uleb128 0x1
 2881 03eb 53       		.byte	0x53
 2882 03ec 0C       		.uleb128 0xc
 2883 03ed 5F5F6C6F 		.ascii "__local_argv\0"
 2883      63616C5F 
 2883      61726776 
 2883      00
 2884 03fa 01       		.byte	0x1
 2885 03fb F4       		.byte	0xf4
 2886 03fc C2000000 		.long	0xc2
 2887 0400 02       		.uleb128 0x2
 2888 0401 91       		.byte	0x91
 2889 0402 6C       		.sleb128 -20
 2890 0403 00       		.byte	0
 2891 0404 0D       		.uleb128 0xd
 2892 0405 636F756E 		.ascii "count_vowels\0"
 2892      745F766F 
GAS LISTING C:\Users\PRESID~1\AppData\Local\Temp\ccPJOK5j.s 			page 82


 2892      77656C73 
 2892      00
 2893 0412 02       		.byte	0x2
 2894 0413 0D       		.byte	0xd
 2895 0414 6F010000 		.long	0x16f
 2896 0418 30000000 		.long	LFB10
 2897 041c 56000000 		.long	LFE10-LFB10
 2898 0420 01       		.uleb128 0x1
 2899 0421 9C       		.byte	0x9c
 2900 0422 50040000 		.long	0x450
 2901 0426 0A       		.uleb128 0xa
 2902 0427 7300     		.ascii "s\0"
 2903 0429 02       		.byte	0x2
 2904 042a 0D       		.byte	0xd
 2905 042b 71020000 		.long	0x271
 2906 042f 02       		.uleb128 0x2
 2907 0430 91       		.byte	0x91
 2908 0431 00       		.sleb128 0
 2909 0432 0C       		.uleb128 0xc
 2910 0433 637000   		.ascii "cp\0"
 2911 0436 02       		.byte	0x2
 2912 0437 0F       		.byte	0xf
 2913 0438 71020000 		.long	0x271
 2914 043c 02       		.uleb128 0x2
 2915 043d 91       		.byte	0x91
 2916 043e 74       		.sleb128 -12
 2917 043f 0C       		.uleb128 0xc
 2918 0440 636F756E 		.ascii "count\0"
 2918      7400
 2919 0446 02       		.byte	0x2
 2920 0447 10       		.byte	0x10
 2921 0448 6F010000 		.long	0x16f
 2922 044c 02       		.uleb128 0x2
 2923 044d 91       		.byte	0x91
 2924 044e 70       		.sleb128 -16
 2925 044f 00       		.byte	0
 2926 0450 0E       		.uleb128 0xe
 2927 0451 74657374 		.ascii "test_vowels_present\0"
 2927      5F766F77 
 2927      656C735F 
 2927      70726573 
 2927      656E7400 
 2928 0465 02       		.byte	0x2
 2929 0466 21       		.byte	0x21
 2930 0467 86000000 		.long	LFB11
 2931 046b 030E0000 		.long	LFE11-LFB11
 2932 046f 01       		.uleb128 0x1
 2933 0470 9C       		.byte	0x9c
 2934 0471 0E       		.uleb128 0xe
 2935 0472 74657374 		.ascii "test_no_vowels_present\0"
 2935      5F6E6F5F 
 2935      766F7765 
 2935      6C735F70 
 2935      72657365 
 2936 0489 02       		.byte	0x2
 2937 048a 2B       		.byte	0x2b
 2938 048b 890E0000 		.long	LFB12
GAS LISTING C:\Users\PRESID~1\AppData\Local\Temp\ccPJOK5j.s 			page 83


 2939 048f FE0D0000 		.long	LFE12-LFB12
 2940 0493 01       		.uleb128 0x1
 2941 0494 9C       		.byte	0x9c
 2942 0495 0F       		.uleb128 0xf
 2943 0496 6D61696E 		.ascii "main\0"
 2943      00
 2944 049b 02       		.byte	0x2
 2945 049c 35       		.byte	0x35
 2946 049d 6F010000 		.long	0x16f
 2947 04a1 871C0000 		.long	LFB13
 2948 04a5 BA080000 		.long	LFE13-LFB13
 2949 04a9 01       		.uleb128 0x1
 2950 04aa 9C       		.byte	0x9c
 2951 04ab 3E050000 		.long	0x53e
 2952 04af 0A       		.uleb128 0xa
 2953 04b0 61726763 		.ascii "argc\0"
 2953      00
 2954 04b5 02       		.byte	0x2
 2955 04b6 35       		.byte	0x35
 2956 04b7 6F010000 		.long	0x16f
 2957 04bb 02       		.uleb128 0x2
 2958 04bc 91       		.byte	0x91
 2959 04bd 00       		.sleb128 0
 2960 04be 0A       		.uleb128 0xa
 2961 04bf 61726776 		.ascii "argv\0"
 2961      00
 2962 04c4 02       		.byte	0x2
 2963 04c5 35       		.byte	0x35
 2964 04c6 3E050000 		.long	0x53e
 2965 04ca 02       		.uleb128 0x2
 2966 04cb 91       		.byte	0x91
 2967 04cc 04       		.sleb128 4
 2968 04cd 10       		.uleb128 0x10
 2969 04ce 231D0000 		.long	LBB2
 2970 04d2 7E010000 		.long	LBE2-LBB2
 2971 04d6 EA040000 		.long	0x4ea
 2972 04da 11       		.uleb128 0x11
 2973 04db 00000000 		.secrel32	LASF0
 2974 04df 02       		.byte	0x2
 2975 04e0 39       		.byte	0x39
 2976 04e1 44050000 		.long	0x544
 2977 04e5 03       		.uleb128 0x3
 2978 04e6 74       		.byte	0x74
 2979 04e7 EC00     		.sleb128 108
 2980 04e9 00       		.byte	0
 2981 04ea 10       		.uleb128 0x10
 2982 04eb D51F0000 		.long	LBB3
 2983 04ef 7E010000 		.long	LBE3-LBB3
 2984 04f3 07050000 		.long	0x507
 2985 04f7 11       		.uleb128 0x11
 2986 04f8 00000000 		.secrel32	LASF0
 2987 04fc 02       		.byte	0x2
 2988 04fd 3C       		.byte	0x3c
 2989 04fe 44050000 		.long	0x544
 2990 0502 03       		.uleb128 0x3
 2991 0503 74       		.byte	0x74
 2992 0504 E800     		.sleb128 104
GAS LISTING C:\Users\PRESID~1\AppData\Local\Temp\ccPJOK5j.s 			page 84


 2993 0506 00       		.byte	0
 2994 0507 12       		.uleb128 0x12
 2995 0508 3D220000 		.long	LBB4
 2996 050c EF020000 		.long	LBE4-LBB4
 2997 0510 0C       		.uleb128 0xc
 2998 0511 6661696C 		.ascii "failpft\0"
 2998      70667400 
 2999 0519 02       		.byte	0x2
 3000 051a 3F       		.byte	0x3f
 3001 051b 44050000 		.long	0x544
 3002 051f 03       		.uleb128 0x3
 3003 0520 74       		.byte	0x74
 3004 0521 E400     		.sleb128 100
 3005 0523 12       		.uleb128 0x12
 3006 0524 90220000 		.long	LBB5
 3007 0528 7E010000 		.long	LBE5-LBB5
 3008 052c 11       		.uleb128 0x11
 3009 052d 00000000 		.secrel32	LASF0
 3010 0531 02       		.byte	0x2
 3011 0532 3F       		.byte	0x3f
 3012 0533 44050000 		.long	0x544
 3013 0537 03       		.uleb128 0x3
 3014 0538 74       		.byte	0x74
 3015 0539 E000     		.sleb128 96
 3016 053b 00       		.byte	0
 3017 053c 00       		.byte	0
 3018 053d 00       		.byte	0
 3019 053e 06       		.uleb128 0x6
 3020 053f 04       		.byte	0x4
 3021 0540 69010000 		.long	0x169
 3022 0544 02       		.uleb128 0x2
 3023 0545 04       		.byte	0x4
 3024 0546 04       		.byte	0x4
 3025 0547 666C6F61 		.ascii "float\0"
 3025      7400
 3026 054d 0C       		.uleb128 0xc
 3027 054e 5F5F7370 		.ascii "__sput\0"
 3027      757400
 3028 0555 04       		.byte	0x4
 3029 0556 70       		.byte	0x70
 3030 0557 1C030000 		.long	0x31c
 3031 055b 05       		.uleb128 0x5
 3032 055c 03       		.byte	0x3
 3033 055d 00000000 		.long	___sput
 3034 0561 13       		.uleb128 0x13
 3035 0562 76010000 		.long	0x176
 3036 0566 6C050000 		.long	0x56c
 3037 056a 14       		.uleb128 0x14
 3038 056b 00       		.byte	0
 3039 056c 15       		.uleb128 0x15
 3040 056d 5F696F62 		.ascii "_iob\0"
 3040      00
 3041 0572 01       		.byte	0x1
 3042 0573 9B       		.byte	0x9b
 3043 0574 61050000 		.long	0x561
 3044 0578 00       		.byte	0
 3045              		.section	.debug_abbrev,"dr"
GAS LISTING C:\Users\PRESID~1\AppData\Local\Temp\ccPJOK5j.s 			page 85


 3046              	Ldebug_abbrev0:
 3047 0000 01       		.uleb128 0x1
 3048 0001 11       		.uleb128 0x11
 3049 0002 01       		.byte	0x1
 3050 0003 25       		.uleb128 0x25
 3051 0004 08       		.uleb128 0x8
 3052 0005 13       		.uleb128 0x13
 3053 0006 0B       		.uleb128 0xb
 3054 0007 03       		.uleb128 0x3
 3055 0008 08       		.uleb128 0x8
 3056 0009 11       		.uleb128 0x11
 3057 000a 01       		.uleb128 0x1
 3058 000b 12       		.uleb128 0x12
 3059 000c 06       		.uleb128 0x6
 3060 000d 10       		.uleb128 0x10
 3061 000e 17       		.uleb128 0x17
 3062 000f 9942     		.uleb128 0x2119
 3063 0011 17       		.uleb128 0x17
 3064 0012 00       		.byte	0
 3065 0013 00       		.byte	0
 3066 0014 02       		.uleb128 0x2
 3067 0015 24       		.uleb128 0x24
 3068 0016 00       		.byte	0
 3069 0017 0B       		.uleb128 0xb
 3070 0018 0B       		.uleb128 0xb
 3071 0019 3E       		.uleb128 0x3e
 3072 001a 0B       		.uleb128 0xb
 3073 001b 03       		.uleb128 0x3
 3074 001c 08       		.uleb128 0x8
 3075 001d 00       		.byte	0
 3076 001e 00       		.byte	0
 3077 001f 03       		.uleb128 0x3
 3078 0020 0F       		.uleb128 0xf
 3079 0021 00       		.byte	0
 3080 0022 0B       		.uleb128 0xb
 3081 0023 0B       		.uleb128 0xb
 3082 0024 03       		.uleb128 0x3
 3083 0025 08       		.uleb128 0x8
 3084 0026 49       		.uleb128 0x49
 3085 0027 13       		.uleb128 0x13
 3086 0028 00       		.byte	0
 3087 0029 00       		.byte	0
 3088 002a 04       		.uleb128 0x4
 3089 002b 13       		.uleb128 0x13
 3090 002c 01       		.byte	0x1
 3091 002d 03       		.uleb128 0x3
 3092 002e 08       		.uleb128 0x8
 3093 002f 0B       		.uleb128 0xb
 3094 0030 0B       		.uleb128 0xb
 3095 0031 3A       		.uleb128 0x3a
 3096 0032 0B       		.uleb128 0xb
 3097 0033 3B       		.uleb128 0x3b
 3098 0034 0B       		.uleb128 0xb
 3099 0035 01       		.uleb128 0x1
 3100 0036 13       		.uleb128 0x13
 3101 0037 00       		.byte	0
 3102 0038 00       		.byte	0
GAS LISTING C:\Users\PRESID~1\AppData\Local\Temp\ccPJOK5j.s 			page 86


 3103 0039 05       		.uleb128 0x5
 3104 003a 0D       		.uleb128 0xd
 3105 003b 00       		.byte	0
 3106 003c 03       		.uleb128 0x3
 3107 003d 08       		.uleb128 0x8
 3108 003e 3A       		.uleb128 0x3a
 3109 003f 0B       		.uleb128 0xb
 3110 0040 3B       		.uleb128 0x3b
 3111 0041 0B       		.uleb128 0xb
 3112 0042 49       		.uleb128 0x49
 3113 0043 13       		.uleb128 0x13
 3114 0044 38       		.uleb128 0x38
 3115 0045 0B       		.uleb128 0xb
 3116 0046 00       		.byte	0
 3117 0047 00       		.byte	0
 3118 0048 06       		.uleb128 0x6
 3119 0049 0F       		.uleb128 0xf
 3120 004a 00       		.byte	0
 3121 004b 0B       		.uleb128 0xb
 3122 004c 0B       		.uleb128 0xb
 3123 004d 49       		.uleb128 0x49
 3124 004e 13       		.uleb128 0x13
 3125 004f 00       		.byte	0
 3126 0050 00       		.byte	0
 3127 0051 07       		.uleb128 0x7
 3128 0052 16       		.uleb128 0x16
 3129 0053 00       		.byte	0
 3130 0054 03       		.uleb128 0x3
 3131 0055 08       		.uleb128 0x8
 3132 0056 3A       		.uleb128 0x3a
 3133 0057 0B       		.uleb128 0xb
 3134 0058 3B       		.uleb128 0x3b
 3135 0059 0B       		.uleb128 0xb
 3136 005a 49       		.uleb128 0x49
 3137 005b 13       		.uleb128 0x13
 3138 005c 00       		.byte	0
 3139 005d 00       		.byte	0
 3140 005e 08       		.uleb128 0x8
 3141 005f 26       		.uleb128 0x26
 3142 0060 00       		.byte	0
 3143 0061 49       		.uleb128 0x49
 3144 0062 13       		.uleb128 0x13
 3145 0063 00       		.byte	0
 3146 0064 00       		.byte	0
 3147 0065 09       		.uleb128 0x9
 3148 0066 2E       		.uleb128 0x2e
 3149 0067 01       		.byte	0x1
 3150 0068 03       		.uleb128 0x3
 3151 0069 08       		.uleb128 0x8
 3152 006a 3A       		.uleb128 0x3a
 3153 006b 0B       		.uleb128 0xb
 3154 006c 3B       		.uleb128 0x3b
 3155 006d 0B       		.uleb128 0xb
 3156 006e 27       		.uleb128 0x27
 3157 006f 19       		.uleb128 0x19
 3158 0070 49       		.uleb128 0x49
 3159 0071 13       		.uleb128 0x13
GAS LISTING C:\Users\PRESID~1\AppData\Local\Temp\ccPJOK5j.s 			page 87


 3160 0072 11       		.uleb128 0x11
 3161 0073 01       		.uleb128 0x1
 3162 0074 12       		.uleb128 0x12
 3163 0075 06       		.uleb128 0x6
 3164 0076 40       		.uleb128 0x40
 3165 0077 18       		.uleb128 0x18
 3166 0078 9642     		.uleb128 0x2116
 3167 007a 19       		.uleb128 0x19
 3168 007b 01       		.uleb128 0x1
 3169 007c 13       		.uleb128 0x13
 3170 007d 00       		.byte	0
 3171 007e 00       		.byte	0
 3172 007f 0A       		.uleb128 0xa
 3173 0080 05       		.uleb128 0x5
 3174 0081 00       		.byte	0
 3175 0082 03       		.uleb128 0x3
 3176 0083 08       		.uleb128 0x8
 3177 0084 3A       		.uleb128 0x3a
 3178 0085 0B       		.uleb128 0xb
 3179 0086 3B       		.uleb128 0x3b
 3180 0087 0B       		.uleb128 0xb
 3181 0088 49       		.uleb128 0x49
 3182 0089 13       		.uleb128 0x13
 3183 008a 02       		.uleb128 0x2
 3184 008b 18       		.uleb128 0x18
 3185 008c 00       		.byte	0
 3186 008d 00       		.byte	0
 3187 008e 0B       		.uleb128 0xb
 3188 008f 18       		.uleb128 0x18
 3189 0090 00       		.byte	0
 3190 0091 00       		.byte	0
 3191 0092 00       		.byte	0
 3192 0093 0C       		.uleb128 0xc
 3193 0094 34       		.uleb128 0x34
 3194 0095 00       		.byte	0
 3195 0096 03       		.uleb128 0x3
 3196 0097 08       		.uleb128 0x8
 3197 0098 3A       		.uleb128 0x3a
 3198 0099 0B       		.uleb128 0xb
 3199 009a 3B       		.uleb128 0x3b
 3200 009b 0B       		.uleb128 0xb
 3201 009c 49       		.uleb128 0x49
 3202 009d 13       		.uleb128 0x13
 3203 009e 02       		.uleb128 0x2
 3204 009f 18       		.uleb128 0x18
 3205 00a0 00       		.byte	0
 3206 00a1 00       		.byte	0
 3207 00a2 0D       		.uleb128 0xd
 3208 00a3 2E       		.uleb128 0x2e
 3209 00a4 01       		.byte	0x1
 3210 00a5 03       		.uleb128 0x3
 3211 00a6 08       		.uleb128 0x8
 3212 00a7 3A       		.uleb128 0x3a
 3213 00a8 0B       		.uleb128 0xb
 3214 00a9 3B       		.uleb128 0x3b
 3215 00aa 0B       		.uleb128 0xb
 3216 00ab 27       		.uleb128 0x27
GAS LISTING C:\Users\PRESID~1\AppData\Local\Temp\ccPJOK5j.s 			page 88


 3217 00ac 19       		.uleb128 0x19
 3218 00ad 49       		.uleb128 0x49
 3219 00ae 13       		.uleb128 0x13
 3220 00af 11       		.uleb128 0x11
 3221 00b0 01       		.uleb128 0x1
 3222 00b1 12       		.uleb128 0x12
 3223 00b2 06       		.uleb128 0x6
 3224 00b3 40       		.uleb128 0x40
 3225 00b4 18       		.uleb128 0x18
 3226 00b5 9742     		.uleb128 0x2117
 3227 00b7 19       		.uleb128 0x19
 3228 00b8 01       		.uleb128 0x1
 3229 00b9 13       		.uleb128 0x13
 3230 00ba 00       		.byte	0
 3231 00bb 00       		.byte	0
 3232 00bc 0E       		.uleb128 0xe
 3233 00bd 2E       		.uleb128 0x2e
 3234 00be 00       		.byte	0
 3235 00bf 03       		.uleb128 0x3
 3236 00c0 08       		.uleb128 0x8
 3237 00c1 3A       		.uleb128 0x3a
 3238 00c2 0B       		.uleb128 0xb
 3239 00c3 3B       		.uleb128 0x3b
 3240 00c4 0B       		.uleb128 0xb
 3241 00c5 11       		.uleb128 0x11
 3242 00c6 01       		.uleb128 0x1
 3243 00c7 12       		.uleb128 0x12
 3244 00c8 06       		.uleb128 0x6
 3245 00c9 40       		.uleb128 0x40
 3246 00ca 18       		.uleb128 0x18
 3247 00cb 9642     		.uleb128 0x2116
 3248 00cd 19       		.uleb128 0x19
 3249 00ce 00       		.byte	0
 3250 00cf 00       		.byte	0
 3251 00d0 0F       		.uleb128 0xf
 3252 00d1 2E       		.uleb128 0x2e
 3253 00d2 01       		.byte	0x1
 3254 00d3 3F       		.uleb128 0x3f
 3255 00d4 19       		.uleb128 0x19
 3256 00d5 03       		.uleb128 0x3
 3257 00d6 08       		.uleb128 0x8
 3258 00d7 3A       		.uleb128 0x3a
 3259 00d8 0B       		.uleb128 0xb
 3260 00d9 3B       		.uleb128 0x3b
 3261 00da 0B       		.uleb128 0xb
 3262 00db 27       		.uleb128 0x27
 3263 00dc 19       		.uleb128 0x19
 3264 00dd 49       		.uleb128 0x49
 3265 00de 13       		.uleb128 0x13
 3266 00df 11       		.uleb128 0x11
 3267 00e0 01       		.uleb128 0x1
 3268 00e1 12       		.uleb128 0x12
 3269 00e2 06       		.uleb128 0x6
 3270 00e3 40       		.uleb128 0x40
 3271 00e4 18       		.uleb128 0x18
 3272 00e5 9642     		.uleb128 0x2116
 3273 00e7 19       		.uleb128 0x19
GAS LISTING C:\Users\PRESID~1\AppData\Local\Temp\ccPJOK5j.s 			page 89


 3274 00e8 01       		.uleb128 0x1
 3275 00e9 13       		.uleb128 0x13
 3276 00ea 00       		.byte	0
 3277 00eb 00       		.byte	0
 3278 00ec 10       		.uleb128 0x10
 3279 00ed 0B       		.uleb128 0xb
 3280 00ee 01       		.byte	0x1
 3281 00ef 11       		.uleb128 0x11
 3282 00f0 01       		.uleb128 0x1
 3283 00f1 12       		.uleb128 0x12
 3284 00f2 06       		.uleb128 0x6
 3285 00f3 01       		.uleb128 0x1
 3286 00f4 13       		.uleb128 0x13
 3287 00f5 00       		.byte	0
 3288 00f6 00       		.byte	0
 3289 00f7 11       		.uleb128 0x11
 3290 00f8 34       		.uleb128 0x34
 3291 00f9 00       		.byte	0
 3292 00fa 03       		.uleb128 0x3
 3293 00fb 0E       		.uleb128 0xe
 3294 00fc 3A       		.uleb128 0x3a
 3295 00fd 0B       		.uleb128 0xb
 3296 00fe 3B       		.uleb128 0x3b
 3297 00ff 0B       		.uleb128 0xb
 3298 0100 49       		.uleb128 0x49
 3299 0101 13       		.uleb128 0x13
 3300 0102 02       		.uleb128 0x2
 3301 0103 18       		.uleb128 0x18
 3302 0104 00       		.byte	0
 3303 0105 00       		.byte	0
 3304 0106 12       		.uleb128 0x12
 3305 0107 0B       		.uleb128 0xb
 3306 0108 01       		.byte	0x1
 3307 0109 11       		.uleb128 0x11
 3308 010a 01       		.uleb128 0x1
 3309 010b 12       		.uleb128 0x12
 3310 010c 06       		.uleb128 0x6
 3311 010d 00       		.byte	0
 3312 010e 00       		.byte	0
 3313 010f 13       		.uleb128 0x13
 3314 0110 01       		.uleb128 0x1
 3315 0111 01       		.byte	0x1
 3316 0112 49       		.uleb128 0x49
 3317 0113 13       		.uleb128 0x13
 3318 0114 01       		.uleb128 0x1
 3319 0115 13       		.uleb128 0x13
 3320 0116 00       		.byte	0
 3321 0117 00       		.byte	0
 3322 0118 14       		.uleb128 0x14
 3323 0119 21       		.uleb128 0x21
 3324 011a 00       		.byte	0
 3325 011b 00       		.byte	0
 3326 011c 00       		.byte	0
 3327 011d 15       		.uleb128 0x15
 3328 011e 34       		.uleb128 0x34
 3329 011f 00       		.byte	0
 3330 0120 03       		.uleb128 0x3
GAS LISTING C:\Users\PRESID~1\AppData\Local\Temp\ccPJOK5j.s 			page 90


 3331 0121 08       		.uleb128 0x8
 3332 0122 3A       		.uleb128 0x3a
 3333 0123 0B       		.uleb128 0xb
 3334 0124 3B       		.uleb128 0x3b
 3335 0125 0B       		.uleb128 0xb
 3336 0126 49       		.uleb128 0x49
 3337 0127 13       		.uleb128 0x13
 3338 0128 3F       		.uleb128 0x3f
 3339 0129 19       		.uleb128 0x19
 3340 012a 3C       		.uleb128 0x3c
 3341 012b 19       		.uleb128 0x19
 3342 012c 00       		.byte	0
 3343 012d 00       		.byte	0
 3344 012e 00       		.byte	0
 3345              		.section	.debug_aranges,"dr"
 3346 0000 1C000000 		.long	0x1c
 3347 0004 0200     		.word	0x2
 3348 0006 00000000 		.secrel32	Ldebug_info0
 3349 000a 04       		.byte	0x4
 3350 000b 00       		.byte	0
 3351 000c 0000     		.word	0
 3352 000e 0000     		.word	0
 3353 0010 00000000 		.long	Ltext0
 3354 0014 41250000 		.long	Letext0-Ltext0
 3355 0018 00000000 		.long	0
 3356 001c 00000000 		.long	0
 3357              		.section	.debug_macro,"dr"
 3358              	Ldebug_macro0:
 3359 0000 0400     		.word	0x4
 3360 0002 02       		.byte	0x2
 3361 0003 00000000 		.secrel32	Ldebug_line0
 3362 0007 01       		.byte	0x1
 3363 0008 00       		.uleb128 0
 3364 0009 5F5F5354 		.ascii "__STDC__ 1\0"
 3364      44435F5F 
 3364      203100
 3365 0014 01       		.byte	0x1
 3366 0015 00       		.uleb128 0
 3367 0016 5F5F5354 		.ascii "__STDC_HOSTED__ 1\0"
 3367      44435F48 
 3367      4F535445 
 3367      445F5F20 
 3367      3100
 3368 0028 01       		.byte	0x1
 3369 0029 00       		.uleb128 0
 3370 002a 5F5F474E 		.ascii "__GNUC__ 4\0"
 3370      55435F5F 
 3370      203400
 3371 0035 01       		.byte	0x1
 3372 0036 00       		.uleb128 0
 3373 0037 5F5F474E 		.ascii "__GNUC_MINOR__ 9\0"
 3373      55435F4D 
 3373      494E4F52 
 3373      5F5F2039 
 3373      00
 3374 0048 01       		.byte	0x1
 3375 0049 00       		.uleb128 0
GAS LISTING C:\Users\PRESID~1\AppData\Local\Temp\ccPJOK5j.s 			page 91


 3376 004a 5F5F474E 		.ascii "__GNUC_PATCHLEVEL__ 3\0"
 3376      55435F50 
 3376      41544348 
 3376      4C455645 
 3376      4C5F5F20 
 3377 0060 01       		.byte	0x1
 3378 0061 00       		.uleb128 0
 3379 0062 5F5F5645 		.ascii "__VERSION__ \"4.9.3\"\0"
 3379      5253494F 
 3379      4E5F5F20 
 3379      22342E39 
 3379      2E332200 
 3380 0076 01       		.byte	0x1
 3381 0077 00       		.uleb128 0
 3382 0078 5F5F4154 		.ascii "__ATOMIC_RELAXED 0\0"
 3382      4F4D4943 
 3382      5F52454C 
 3382      41584544 
 3382      203000
 3383 008b 01       		.byte	0x1
 3384 008c 00       		.uleb128 0
 3385 008d 5F5F4154 		.ascii "__ATOMIC_SEQ_CST 5\0"
 3385      4F4D4943 
 3385      5F534551 
 3385      5F435354 
 3385      203500
 3386 00a0 01       		.byte	0x1
 3387 00a1 00       		.uleb128 0
 3388 00a2 5F5F4154 		.ascii "__ATOMIC_ACQUIRE 2\0"
 3388      4F4D4943 
 3388      5F414351 
 3388      55495245 
 3388      203200
 3389 00b5 01       		.byte	0x1
 3390 00b6 00       		.uleb128 0
 3391 00b7 5F5F4154 		.ascii "__ATOMIC_RELEASE 3\0"
 3391      4F4D4943 
 3391      5F52454C 
 3391      45415345 
 3391      203300
 3392 00ca 01       		.byte	0x1
 3393 00cb 00       		.uleb128 0
 3394 00cc 5F5F4154 		.ascii "__ATOMIC_ACQ_REL 4\0"
 3394      4F4D4943 
 3394      5F414351 
 3394      5F52454C 
 3394      203400
 3395 00df 01       		.byte	0x1
 3396 00e0 00       		.uleb128 0
 3397 00e1 5F5F4154 		.ascii "__ATOMIC_CONSUME 1\0"
 3397      4F4D4943 
 3397      5F434F4E 
 3397      53554D45 
 3397      203100
 3398 00f4 01       		.byte	0x1
 3399 00f5 00       		.uleb128 0
 3400 00f6 5F5F4649 		.ascii "__FINITE_MATH_ONLY__ 0\0"
GAS LISTING C:\Users\PRESID~1\AppData\Local\Temp\ccPJOK5j.s 			page 92


 3400      4E495445 
 3400      5F4D4154 
 3400      485F4F4E 
 3400      4C595F5F 
 3401 010d 01       		.byte	0x1
 3402 010e 00       		.uleb128 0
 3403 010f 5F5F5349 		.ascii "__SIZEOF_INT__ 4\0"
 3403      5A454F46 
 3403      5F494E54 
 3403      5F5F2034 
 3403      00
 3404 0120 01       		.byte	0x1
 3405 0121 00       		.uleb128 0
 3406 0122 5F5F5349 		.ascii "__SIZEOF_LONG__ 4\0"
 3406      5A454F46 
 3406      5F4C4F4E 
 3406      475F5F20 
 3406      3400
 3407 0134 01       		.byte	0x1
 3408 0135 00       		.uleb128 0
 3409 0136 5F5F5349 		.ascii "__SIZEOF_LONG_LONG__ 8\0"
 3409      5A454F46 
 3409      5F4C4F4E 
 3409      475F4C4F 
 3409      4E475F5F 
 3410 014d 01       		.byte	0x1
 3411 014e 00       		.uleb128 0
 3412 014f 5F5F5349 		.ascii "__SIZEOF_SHORT__ 2\0"
 3412      5A454F46 
 3412      5F53484F 
 3412      52545F5F 
 3412      203200
 3413 0162 01       		.byte	0x1
 3414 0163 00       		.uleb128 0
 3415 0164 5F5F5349 		.ascii "__SIZEOF_FLOAT__ 4\0"
 3415      5A454F46 
 3415      5F464C4F 
 3415      41545F5F 
 3415      203400
 3416 0177 01       		.byte	0x1
 3417 0178 00       		.uleb128 0
 3418 0179 5F5F5349 		.ascii "__SIZEOF_DOUBLE__ 8\0"
 3418      5A454F46 
 3418      5F444F55 
 3418      424C455F 
 3418      5F203800 
 3419 018d 01       		.byte	0x1
 3420 018e 00       		.uleb128 0
 3421 018f 5F5F5349 		.ascii "__SIZEOF_LONG_DOUBLE__ 12\0"
 3421      5A454F46 
 3421      5F4C4F4E 
 3421      475F444F 
 3421      55424C45 
 3422 01a9 01       		.byte	0x1
 3423 01aa 00       		.uleb128 0
 3424 01ab 5F5F5349 		.ascii "__SIZEOF_SIZE_T__ 4\0"
 3424      5A454F46 
GAS LISTING C:\Users\PRESID~1\AppData\Local\Temp\ccPJOK5j.s 			page 93


 3424      5F53495A 
 3424      455F545F 
 3424      5F203400 
 3425 01bf 01       		.byte	0x1
 3426 01c0 00       		.uleb128 0
 3427 01c1 5F5F4348 		.ascii "__CHAR_BIT__ 8\0"
 3427      41525F42 
 3427      49545F5F 
 3427      203800
 3428 01d0 01       		.byte	0x1
 3429 01d1 00       		.uleb128 0
 3430 01d2 5F5F4249 		.ascii "__BIGGEST_ALIGNMENT__ 16\0"
 3430      47474553 
 3430      545F414C 
 3430      49474E4D 
 3430      454E545F 
 3431 01eb 01       		.byte	0x1
 3432 01ec 00       		.uleb128 0
 3433 01ed 5F5F4F52 		.ascii "__ORDER_LITTLE_ENDIAN__ 1234\0"
 3433      4445525F 
 3433      4C495454 
 3433      4C455F45 
 3433      4E444941 
 3434 020a 01       		.byte	0x1
 3435 020b 00       		.uleb128 0
 3436 020c 5F5F4F52 		.ascii "__ORDER_BIG_ENDIAN__ 4321\0"
 3436      4445525F 
 3436      4249475F 
 3436      454E4449 
 3436      414E5F5F 
 3437 0226 01       		.byte	0x1
 3438 0227 00       		.uleb128 0
 3439 0228 5F5F4F52 		.ascii "__ORDER_PDP_ENDIAN__ 3412\0"
 3439      4445525F 
 3439      5044505F 
 3439      454E4449 
 3439      414E5F5F 
 3440 0242 01       		.byte	0x1
 3441 0243 00       		.uleb128 0
 3442 0244 5F5F4259 		.ascii "__BYTE_ORDER__ __ORDER_LITTLE_ENDIAN__\0"
 3442      54455F4F 
 3442      52444552 
 3442      5F5F205F 
 3442      5F4F5244 
 3443 026b 01       		.byte	0x1
 3444 026c 00       		.uleb128 0
 3445 026d 5F5F464C 		.ascii "__FLOAT_WORD_ORDER__ __ORDER_LITTLE_ENDIAN__\0"
 3445      4F41545F 
 3445      574F5244 
 3445      5F4F5244 
 3445      45525F5F 
 3446 029a 01       		.byte	0x1
 3447 029b 00       		.uleb128 0
 3448 029c 5F5F5349 		.ascii "__SIZEOF_POINTER__ 4\0"
 3448      5A454F46 
 3448      5F504F49 
 3448      4E544552 
GAS LISTING C:\Users\PRESID~1\AppData\Local\Temp\ccPJOK5j.s 			page 94


 3448      5F5F2034 
 3449 02b1 01       		.byte	0x1
 3450 02b2 00       		.uleb128 0
 3451 02b3 5F5F5349 		.ascii "__SIZE_TYPE__ unsigned int\0"
 3451      5A455F54 
 3451      5950455F 
 3451      5F20756E 
 3451      7369676E 
 3452 02ce 01       		.byte	0x1
 3453 02cf 00       		.uleb128 0
 3454 02d0 5F5F5054 		.ascii "__PTRDIFF_TYPE__ int\0"
 3454      52444946 
 3454      465F5459 
 3454      50455F5F 
 3454      20696E74 
 3455 02e5 01       		.byte	0x1
 3456 02e6 00       		.uleb128 0
 3457 02e7 5F5F5743 		.ascii "__WCHAR_TYPE__ short unsigned int\0"
 3457      4841525F 
 3457      54595045 
 3457      5F5F2073 
 3457      686F7274 
 3458 0309 01       		.byte	0x1
 3459 030a 00       		.uleb128 0
 3460 030b 5F5F5749 		.ascii "__WINT_TYPE__ short unsigned int\0"
 3460      4E545F54 
 3460      5950455F 
 3460      5F207368 
 3460      6F727420 
 3461 032c 01       		.byte	0x1
 3462 032d 00       		.uleb128 0
 3463 032e 5F5F494E 		.ascii "__INTMAX_TYPE__ long long int\0"
 3463      544D4158 
 3463      5F545950 
 3463      455F5F20 
 3463      6C6F6E67 
 3464 034c 01       		.byte	0x1
 3465 034d 00       		.uleb128 0
 3466 034e 5F5F5549 		.ascii "__UINTMAX_TYPE__ long long unsigned int\0"
 3466      4E544D41 
 3466      585F5459 
 3466      50455F5F 
 3466      206C6F6E 
 3467 0376 01       		.byte	0x1
 3468 0377 00       		.uleb128 0
 3469 0378 5F5F4348 		.ascii "__CHAR16_TYPE__ short unsigned int\0"
 3469      41523136 
 3469      5F545950 
 3469      455F5F20 
 3469      73686F72 
 3470 039b 01       		.byte	0x1
 3471 039c 00       		.uleb128 0
 3472 039d 5F5F4348 		.ascii "__CHAR32_TYPE__ unsigned int\0"
 3472      41523332 
 3472      5F545950 
 3472      455F5F20 
 3472      756E7369 
GAS LISTING C:\Users\PRESID~1\AppData\Local\Temp\ccPJOK5j.s 			page 95


 3473 03ba 01       		.byte	0x1
 3474 03bb 00       		.uleb128 0
 3475 03bc 5F5F5349 		.ascii "__SIG_ATOMIC_TYPE__ int\0"
 3475      475F4154 
 3475      4F4D4943 
 3475      5F545950 
 3475      455F5F20 
 3476 03d4 01       		.byte	0x1
 3477 03d5 00       		.uleb128 0
 3478 03d6 5F5F494E 		.ascii "__INT8_TYPE__ signed char\0"
 3478      54385F54 
 3478      5950455F 
 3478      5F207369 
 3478      676E6564 
 3479 03f0 01       		.byte	0x1
 3480 03f1 00       		.uleb128 0
 3481 03f2 5F5F494E 		.ascii "__INT16_TYPE__ short int\0"
 3481      5431365F 
 3481      54595045 
 3481      5F5F2073 
 3481      686F7274 
 3482 040b 01       		.byte	0x1
 3483 040c 00       		.uleb128 0
 3484 040d 5F5F494E 		.ascii "__INT32_TYPE__ int\0"
 3484      5433325F 
 3484      54595045 
 3484      5F5F2069 
 3484      6E7400
 3485 0420 01       		.byte	0x1
 3486 0421 00       		.uleb128 0
 3487 0422 5F5F494E 		.ascii "__INT64_TYPE__ long long int\0"
 3487      5436345F 
 3487      54595045 
 3487      5F5F206C 
 3487      6F6E6720 
 3488 043f 01       		.byte	0x1
 3489 0440 00       		.uleb128 0
 3490 0441 5F5F5549 		.ascii "__UINT8_TYPE__ unsigned char\0"
 3490      4E54385F 
 3490      54595045 
 3490      5F5F2075 
 3490      6E736967 
 3491 045e 01       		.byte	0x1
 3492 045f 00       		.uleb128 0
 3493 0460 5F5F5549 		.ascii "__UINT16_TYPE__ short unsigned int\0"
 3493      4E543136 
 3493      5F545950 
 3493      455F5F20 
 3493      73686F72 
 3494 0483 01       		.byte	0x1
 3495 0484 00       		.uleb128 0
 3496 0485 5F5F5549 		.ascii "__UINT32_TYPE__ unsigned int\0"
 3496      4E543332 
 3496      5F545950 
 3496      455F5F20 
 3496      756E7369 
 3497 04a2 01       		.byte	0x1
GAS LISTING C:\Users\PRESID~1\AppData\Local\Temp\ccPJOK5j.s 			page 96


 3498 04a3 00       		.uleb128 0
 3499 04a4 5F5F5549 		.ascii "__UINT64_TYPE__ long long unsigned int\0"
 3499      4E543634 
 3499      5F545950 
 3499      455F5F20 
 3499      6C6F6E67 
 3500 04cb 01       		.byte	0x1
 3501 04cc 00       		.uleb128 0
 3502 04cd 5F5F494E 		.ascii "__INT_LEAST8_TYPE__ signed char\0"
 3502      545F4C45 
 3502      41535438 
 3502      5F545950 
 3502      455F5F20 
 3503 04ed 01       		.byte	0x1
 3504 04ee 00       		.uleb128 0
 3505 04ef 5F5F494E 		.ascii "__INT_LEAST16_TYPE__ short int\0"
 3505      545F4C45 
 3505      41535431 
 3505      365F5459 
 3505      50455F5F 
 3506 050e 01       		.byte	0x1
 3507 050f 00       		.uleb128 0
 3508 0510 5F5F494E 		.ascii "__INT_LEAST32_TYPE__ int\0"
 3508      545F4C45 
 3508      41535433 
 3508      325F5459 
 3508      50455F5F 
 3509 0529 01       		.byte	0x1
 3510 052a 00       		.uleb128 0
 3511 052b 5F5F494E 		.ascii "__INT_LEAST64_TYPE__ long long int\0"
 3511      545F4C45 
 3511      41535436 
 3511      345F5459 
 3511      50455F5F 
 3512 054e 01       		.byte	0x1
 3513 054f 00       		.uleb128 0
 3514 0550 5F5F5549 		.ascii "__UINT_LEAST8_TYPE__ unsigned char\0"
 3514      4E545F4C 
 3514      45415354 
 3514      385F5459 
 3514      50455F5F 
 3515 0573 01       		.byte	0x1
 3516 0574 00       		.uleb128 0
 3517 0575 5F5F5549 		.ascii "__UINT_LEAST16_TYPE__ short unsigned int\0"
 3517      4E545F4C 
 3517      45415354 
 3517      31365F54 
 3517      5950455F 
 3518 059e 01       		.byte	0x1
 3519 059f 00       		.uleb128 0
 3520 05a0 5F5F5549 		.ascii "__UINT_LEAST32_TYPE__ unsigned int\0"
 3520      4E545F4C 
 3520      45415354 
 3520      33325F54 
 3520      5950455F 
 3521 05c3 01       		.byte	0x1
 3522 05c4 00       		.uleb128 0
GAS LISTING C:\Users\PRESID~1\AppData\Local\Temp\ccPJOK5j.s 			page 97


 3523 05c5 5F5F5549 		.ascii "__UINT_LEAST64_TYPE__ long long unsigned int\0"
 3523      4E545F4C 
 3523      45415354 
 3523      36345F54 
 3523      5950455F 
 3524 05f2 01       		.byte	0x1
 3525 05f3 00       		.uleb128 0
 3526 05f4 5F5F494E 		.ascii "__INT_FAST8_TYPE__ signed char\0"
 3526      545F4641 
 3526      5354385F 
 3526      54595045 
 3526      5F5F2073 
 3527 0613 01       		.byte	0x1
 3528 0614 00       		.uleb128 0
 3529 0615 5F5F494E 		.ascii "__INT_FAST16_TYPE__ short int\0"
 3529      545F4641 
 3529      53543136 
 3529      5F545950 
 3529      455F5F20 
 3530 0633 01       		.byte	0x1
 3531 0634 00       		.uleb128 0
 3532 0635 5F5F494E 		.ascii "__INT_FAST32_TYPE__ int\0"
 3532      545F4641 
 3532      53543332 
 3532      5F545950 
 3532      455F5F20 
 3533 064d 01       		.byte	0x1
 3534 064e 00       		.uleb128 0
 3535 064f 5F5F494E 		.ascii "__INT_FAST64_TYPE__ long long int\0"
 3535      545F4641 
 3535      53543634 
 3535      5F545950 
 3535      455F5F20 
 3536 0671 01       		.byte	0x1
 3537 0672 00       		.uleb128 0
 3538 0673 5F5F5549 		.ascii "__UINT_FAST8_TYPE__ unsigned char\0"
 3538      4E545F46 
 3538      41535438 
 3538      5F545950 
 3538      455F5F20 
 3539 0695 01       		.byte	0x1
 3540 0696 00       		.uleb128 0
 3541 0697 5F5F5549 		.ascii "__UINT_FAST16_TYPE__ short unsigned int\0"
 3541      4E545F46 
 3541      41535431 
 3541      365F5459 
 3541      50455F5F 
 3542 06bf 01       		.byte	0x1
 3543 06c0 00       		.uleb128 0
 3544 06c1 5F5F5549 		.ascii "__UINT_FAST32_TYPE__ unsigned int\0"
 3544      4E545F46 
 3544      41535433 
 3544      325F5459 
 3544      50455F5F 
 3545 06e3 01       		.byte	0x1
 3546 06e4 00       		.uleb128 0
 3547 06e5 5F5F5549 		.ascii "__UINT_FAST64_TYPE__ long long unsigned int\0"
GAS LISTING C:\Users\PRESID~1\AppData\Local\Temp\ccPJOK5j.s 			page 98


 3547      4E545F46 
 3547      41535436 
 3547      345F5459 
 3547      50455F5F 
 3548 0711 01       		.byte	0x1
 3549 0712 00       		.uleb128 0
 3550 0713 5F5F494E 		.ascii "__INTPTR_TYPE__ int\0"
 3550      54505452 
 3550      5F545950 
 3550      455F5F20 
 3550      696E7400 
 3551 0727 01       		.byte	0x1
 3552 0728 00       		.uleb128 0
 3553 0729 5F5F5549 		.ascii "__UINTPTR_TYPE__ unsigned int\0"
 3553      4E545054 
 3553      525F5459 
 3553      50455F5F 
 3553      20756E73 
 3554 0747 01       		.byte	0x1
 3555 0748 00       		.uleb128 0
 3556 0749 5F5F6861 		.ascii "__has_include(STR) __has_include__(STR)\0"
 3556      735F696E 
 3556      636C7564 
 3556      65285354 
 3556      5229205F 
 3557 0771 01       		.byte	0x1
 3558 0772 00       		.uleb128 0
 3559 0773 5F5F6861 		.ascii "__has_include_next(STR) __has_include_next__(STR)\0"
 3559      735F696E 
 3559      636C7564 
 3559      655F6E65 
 3559      78742853 
 3560 07a5 01       		.byte	0x1
 3561 07a6 00       		.uleb128 0
 3562 07a7 5F5F4758 		.ascii "__GXX_ABI_VERSION 1002\0"
 3562      585F4142 
 3562      495F5645 
 3562      5253494F 
 3562      4E203130 
 3563 07be 01       		.byte	0x1
 3564 07bf 00       		.uleb128 0
 3565 07c0 5F5F5343 		.ascii "__SCHAR_MAX__ 127\0"
 3565      4841525F 
 3565      4D41585F 
 3565      5F203132 
 3565      3700
 3566 07d2 01       		.byte	0x1
 3567 07d3 00       		.uleb128 0
 3568 07d4 5F5F5348 		.ascii "__SHRT_MAX__ 32767\0"
 3568      52545F4D 
 3568      41585F5F 
 3568      20333237 
 3568      363700
 3569 07e7 01       		.byte	0x1
 3570 07e8 00       		.uleb128 0
 3571 07e9 5F5F494E 		.ascii "__INT_MAX__ 2147483647\0"
 3571      545F4D41 
GAS LISTING C:\Users\PRESID~1\AppData\Local\Temp\ccPJOK5j.s 			page 99


 3571      585F5F20 
 3571      32313437 
 3571      34383336 
 3572 0800 01       		.byte	0x1
 3573 0801 00       		.uleb128 0
 3574 0802 5F5F4C4F 		.ascii "__LONG_MAX__ 2147483647L\0"
 3574      4E475F4D 
 3574      41585F5F 
 3574      20323134 
 3574      37343833 
 3575 081b 01       		.byte	0x1
 3576 081c 00       		.uleb128 0
 3577 081d 5F5F4C4F 		.ascii "__LONG_LONG_MAX__ 9223372036854775807LL\0"
 3577      4E475F4C 
 3577      4F4E475F 
 3577      4D41585F 
 3577      5F203932 
 3578 0845 01       		.byte	0x1
 3579 0846 00       		.uleb128 0
 3580 0847 5F5F5743 		.ascii "__WCHAR_MAX__ 65535\0"
 3580      4841525F 
 3580      4D41585F 
 3580      5F203635 
 3580      35333500 
 3581 085b 01       		.byte	0x1
 3582 085c 00       		.uleb128 0
 3583 085d 5F5F5743 		.ascii "__WCHAR_MIN__ 0\0"
 3583      4841525F 
 3583      4D494E5F 
 3583      5F203000 
 3584 086d 01       		.byte	0x1
 3585 086e 00       		.uleb128 0
 3586 086f 5F5F5749 		.ascii "__WINT_MAX__ 65535\0"
 3586      4E545F4D 
 3586      41585F5F 
 3586      20363535 
 3586      333500
 3587 0882 01       		.byte	0x1
 3588 0883 00       		.uleb128 0
 3589 0884 5F5F5749 		.ascii "__WINT_MIN__ 0\0"
 3589      4E545F4D 
 3589      494E5F5F 
 3589      203000
 3590 0893 01       		.byte	0x1
 3591 0894 00       		.uleb128 0
 3592 0895 5F5F5054 		.ascii "__PTRDIFF_MAX__ 2147483647\0"
 3592      52444946 
 3592      465F4D41 
 3592      585F5F20 
 3592      32313437 
 3593 08b0 01       		.byte	0x1
 3594 08b1 00       		.uleb128 0
 3595 08b2 5F5F5349 		.ascii "__SIZE_MAX__ 4294967295U\0"
 3595      5A455F4D 
 3595      41585F5F 
 3595      20343239 
 3595      34393637 
GAS LISTING C:\Users\PRESID~1\AppData\Local\Temp\ccPJOK5j.s 			page 100


 3596 08cb 01       		.byte	0x1
 3597 08cc 00       		.uleb128 0
 3598 08cd 5F5F494E 		.ascii "__INTMAX_MAX__ 9223372036854775807LL\0"
 3598      544D4158 
 3598      5F4D4158 
 3598      5F5F2039 
 3598      32323333 
 3599 08f2 01       		.byte	0x1
 3600 08f3 00       		.uleb128 0
 3601 08f4 5F5F494E 		.ascii "__INTMAX_C(c) c ## LL\0"
 3601      544D4158 
 3601      5F432863 
 3601      29206320 
 3601      2323204C 
 3602 090a 01       		.byte	0x1
 3603 090b 00       		.uleb128 0
 3604 090c 5F5F5549 		.ascii "__UINTMAX_MAX__ 18446744073709551615ULL\0"
 3604      4E544D41 
 3604      585F4D41 
 3604      585F5F20 
 3604      31383434 
 3605 0934 01       		.byte	0x1
 3606 0935 00       		.uleb128 0
 3607 0936 5F5F5549 		.ascii "__UINTMAX_C(c) c ## ULL\0"
 3607      4E544D41 
 3607      585F4328 
 3607      63292063 
 3607      20232320 
 3608 094e 01       		.byte	0x1
 3609 094f 00       		.uleb128 0
 3610 0950 5F5F5349 		.ascii "__SIG_ATOMIC_MAX__ 2147483647\0"
 3610      475F4154 
 3610      4F4D4943 
 3610      5F4D4158 
 3610      5F5F2032 
 3611 096e 01       		.byte	0x1
 3612 096f 00       		.uleb128 0
 3613 0970 5F5F5349 		.ascii "__SIG_ATOMIC_MIN__ (-__SIG_ATOMIC_MAX__ - 1)\0"
 3613      475F4154 
 3613      4F4D4943 
 3613      5F4D494E 
 3613      5F5F2028 
 3614 099d 01       		.byte	0x1
 3615 099e 00       		.uleb128 0
 3616 099f 5F5F494E 		.ascii "__INT8_MAX__ 127\0"
 3616      54385F4D 
 3616      41585F5F 
 3616      20313237 
 3616      00
 3617 09b0 01       		.byte	0x1
 3618 09b1 00       		.uleb128 0
 3619 09b2 5F5F494E 		.ascii "__INT16_MAX__ 32767\0"
 3619      5431365F 
 3619      4D41585F 
 3619      5F203332 
 3619      37363700 
 3620 09c6 01       		.byte	0x1
GAS LISTING C:\Users\PRESID~1\AppData\Local\Temp\ccPJOK5j.s 			page 101


 3621 09c7 00       		.uleb128 0
 3622 09c8 5F5F494E 		.ascii "__INT32_MAX__ 2147483647\0"
 3622      5433325F 
 3622      4D41585F 
 3622      5F203231 
 3622      34373438 
 3623 09e1 01       		.byte	0x1
 3624 09e2 00       		.uleb128 0
 3625 09e3 5F5F494E 		.ascii "__INT64_MAX__ 9223372036854775807LL\0"
 3625      5436345F 
 3625      4D41585F 
 3625      5F203932 
 3625      32333337 
 3626 0a07 01       		.byte	0x1
 3627 0a08 00       		.uleb128 0
 3628 0a09 5F5F5549 		.ascii "__UINT8_MAX__ 255\0"
 3628      4E54385F 
 3628      4D41585F 
 3628      5F203235 
 3628      3500
 3629 0a1b 01       		.byte	0x1
 3630 0a1c 00       		.uleb128 0
 3631 0a1d 5F5F5549 		.ascii "__UINT16_MAX__ 65535\0"
 3631      4E543136 
 3631      5F4D4158 
 3631      5F5F2036 
 3631      35353335 
 3632 0a32 01       		.byte	0x1
 3633 0a33 00       		.uleb128 0
 3634 0a34 5F5F5549 		.ascii "__UINT32_MAX__ 4294967295U\0"
 3634      4E543332 
 3634      5F4D4158 
 3634      5F5F2034 
 3634      32393439 
 3635 0a4f 01       		.byte	0x1
 3636 0a50 00       		.uleb128 0
 3637 0a51 5F5F5549 		.ascii "__UINT64_MAX__ 18446744073709551615ULL\0"
 3637      4E543634 
 3637      5F4D4158 
 3637      5F5F2031 
 3637      38343436 
 3638 0a78 01       		.byte	0x1
 3639 0a79 00       		.uleb128 0
 3640 0a7a 5F5F494E 		.ascii "__INT_LEAST8_MAX__ 127\0"
 3640      545F4C45 
 3640      41535438 
 3640      5F4D4158 
 3640      5F5F2031 
 3641 0a91 01       		.byte	0x1
 3642 0a92 00       		.uleb128 0
 3643 0a93 5F5F494E 		.ascii "__INT8_C(c) c\0"
 3643      54385F43 
 3643      28632920 
 3643      6300
 3644 0aa1 01       		.byte	0x1
 3645 0aa2 00       		.uleb128 0
 3646 0aa3 5F5F494E 		.ascii "__INT_LEAST16_MAX__ 32767\0"
GAS LISTING C:\Users\PRESID~1\AppData\Local\Temp\ccPJOK5j.s 			page 102


 3646      545F4C45 
 3646      41535431 
 3646      365F4D41 
 3646      585F5F20 
 3647 0abd 01       		.byte	0x1
 3648 0abe 00       		.uleb128 0
 3649 0abf 5F5F494E 		.ascii "__INT16_C(c) c\0"
 3649      5431365F 
 3649      43286329 
 3649      206300
 3650 0ace 01       		.byte	0x1
 3651 0acf 00       		.uleb128 0
 3652 0ad0 5F5F494E 		.ascii "__INT_LEAST32_MAX__ 2147483647\0"
 3652      545F4C45 
 3652      41535433 
 3652      325F4D41 
 3652      585F5F20 
 3653 0aef 01       		.byte	0x1
 3654 0af0 00       		.uleb128 0
 3655 0af1 5F5F494E 		.ascii "__INT32_C(c) c\0"
 3655      5433325F 
 3655      43286329 
 3655      206300
 3656 0b00 01       		.byte	0x1
 3657 0b01 00       		.uleb128 0
 3658 0b02 5F5F494E 		.ascii "__INT_LEAST64_MAX__ 9223372036854775807LL\0"
 3658      545F4C45 
 3658      41535436 
 3658      345F4D41 
 3658      585F5F20 
 3659 0b2c 01       		.byte	0x1
 3660 0b2d 00       		.uleb128 0
 3661 0b2e 5F5F494E 		.ascii "__INT64_C(c) c ## LL\0"
 3661      5436345F 
 3661      43286329 
 3661      20632023 
 3661      23204C4C 
 3662 0b43 01       		.byte	0x1
 3663 0b44 00       		.uleb128 0
 3664 0b45 5F5F5549 		.ascii "__UINT_LEAST8_MAX__ 255\0"
 3664      4E545F4C 
 3664      45415354 
 3664      385F4D41 
 3664      585F5F20 
 3665 0b5d 01       		.byte	0x1
 3666 0b5e 00       		.uleb128 0
 3667 0b5f 5F5F5549 		.ascii "__UINT8_C(c) c\0"
 3667      4E54385F 
 3667      43286329 
 3667      206300
 3668 0b6e 01       		.byte	0x1
 3669 0b6f 00       		.uleb128 0
 3670 0b70 5F5F5549 		.ascii "__UINT_LEAST16_MAX__ 65535\0"
 3670      4E545F4C 
 3670      45415354 
 3670      31365F4D 
 3670      41585F5F 
GAS LISTING C:\Users\PRESID~1\AppData\Local\Temp\ccPJOK5j.s 			page 103


 3671 0b8b 01       		.byte	0x1
 3672 0b8c 00       		.uleb128 0
 3673 0b8d 5F5F5549 		.ascii "__UINT16_C(c) c\0"
 3673      4E543136 
 3673      5F432863 
 3673      29206300 
 3674 0b9d 01       		.byte	0x1
 3675 0b9e 00       		.uleb128 0
 3676 0b9f 5F5F5549 		.ascii "__UINT_LEAST32_MAX__ 4294967295U\0"
 3676      4E545F4C 
 3676      45415354 
 3676      33325F4D 
 3676      41585F5F 
 3677 0bc0 01       		.byte	0x1
 3678 0bc1 00       		.uleb128 0
 3679 0bc2 5F5F5549 		.ascii "__UINT32_C(c) c ## U\0"
 3679      4E543332 
 3679      5F432863 
 3679      29206320 
 3679      23232055 
 3680 0bd7 01       		.byte	0x1
 3681 0bd8 00       		.uleb128 0
 3682 0bd9 5F5F5549 		.ascii "__UINT_LEAST64_MAX__ 18446744073709551615ULL\0"
 3682      4E545F4C 
 3682      45415354 
 3682      36345F4D 
 3682      41585F5F 
 3683 0c06 01       		.byte	0x1
 3684 0c07 00       		.uleb128 0
 3685 0c08 5F5F5549 		.ascii "__UINT64_C(c) c ## ULL\0"
 3685      4E543634 
 3685      5F432863 
 3685      29206320 
 3685      23232055 
 3686 0c1f 01       		.byte	0x1
 3687 0c20 00       		.uleb128 0
 3688 0c21 5F5F494E 		.ascii "__INT_FAST8_MAX__ 127\0"
 3688      545F4641 
 3688      5354385F 
 3688      4D41585F 
 3688      5F203132 
 3689 0c37 01       		.byte	0x1
 3690 0c38 00       		.uleb128 0
 3691 0c39 5F5F494E 		.ascii "__INT_FAST16_MAX__ 32767\0"
 3691      545F4641 
 3691      53543136 
 3691      5F4D4158 
 3691      5F5F2033 
 3692 0c52 01       		.byte	0x1
 3693 0c53 00       		.uleb128 0
 3694 0c54 5F5F494E 		.ascii "__INT_FAST32_MAX__ 2147483647\0"
 3694      545F4641 
 3694      53543332 
 3694      5F4D4158 
 3694      5F5F2032 
 3695 0c72 01       		.byte	0x1
 3696 0c73 00       		.uleb128 0
GAS LISTING C:\Users\PRESID~1\AppData\Local\Temp\ccPJOK5j.s 			page 104


 3697 0c74 5F5F494E 		.ascii "__INT_FAST64_MAX__ 9223372036854775807LL\0"
 3697      545F4641 
 3697      53543634 
 3697      5F4D4158 
 3697      5F5F2039 
 3698 0c9d 01       		.byte	0x1
 3699 0c9e 00       		.uleb128 0
 3700 0c9f 5F5F5549 		.ascii "__UINT_FAST8_MAX__ 255\0"
 3700      4E545F46 
 3700      41535438 
 3700      5F4D4158 
 3700      5F5F2032 
 3701 0cb6 01       		.byte	0x1
 3702 0cb7 00       		.uleb128 0
 3703 0cb8 5F5F5549 		.ascii "__UINT_FAST16_MAX__ 65535\0"
 3703      4E545F46 
 3703      41535431 
 3703      365F4D41 
 3703      585F5F20 
 3704 0cd2 01       		.byte	0x1
 3705 0cd3 00       		.uleb128 0
 3706 0cd4 5F5F5549 		.ascii "__UINT_FAST32_MAX__ 4294967295U\0"
 3706      4E545F46 
 3706      41535433 
 3706      325F4D41 
 3706      585F5F20 
 3707 0cf4 01       		.byte	0x1
 3708 0cf5 00       		.uleb128 0
 3709 0cf6 5F5F5549 		.ascii "__UINT_FAST64_MAX__ 18446744073709551615ULL\0"
 3709      4E545F46 
 3709      41535436 
 3709      345F4D41 
 3709      585F5F20 
 3710 0d22 01       		.byte	0x1
 3711 0d23 00       		.uleb128 0
 3712 0d24 5F5F494E 		.ascii "__INTPTR_MAX__ 2147483647\0"
 3712      54505452 
 3712      5F4D4158 
 3712      5F5F2032 
 3712      31343734 
 3713 0d3e 01       		.byte	0x1
 3714 0d3f 00       		.uleb128 0
 3715 0d40 5F5F5549 		.ascii "__UINTPTR_MAX__ 4294967295U\0"
 3715      4E545054 
 3715      525F4D41 
 3715      585F5F20 
 3715      34323934 
 3716 0d5c 01       		.byte	0x1
 3717 0d5d 00       		.uleb128 0
 3718 0d5e 5F5F4743 		.ascii "__GCC_IEC_559 2\0"
 3718      435F4945 
 3718      435F3535 
 3718      39203200 
 3719 0d6e 01       		.byte	0x1
 3720 0d6f 00       		.uleb128 0
 3721 0d70 5F5F4743 		.ascii "__GCC_IEC_559_COMPLEX 2\0"
 3721      435F4945 
GAS LISTING C:\Users\PRESID~1\AppData\Local\Temp\ccPJOK5j.s 			page 105


 3721      435F3535 
 3721      395F434F 
 3721      4D504C45 
 3722 0d88 01       		.byte	0x1
 3723 0d89 00       		.uleb128 0
 3724 0d8a 5F5F464C 		.ascii "__FLT_EVAL_METHOD__ 2\0"
 3724      545F4556 
 3724      414C5F4D 
 3724      4554484F 
 3724      445F5F20 
 3725 0da0 01       		.byte	0x1
 3726 0da1 00       		.uleb128 0
 3727 0da2 5F5F4445 		.ascii "__DEC_EVAL_METHOD__ 2\0"
 3727      435F4556 
 3727      414C5F4D 
 3727      4554484F 
 3727      445F5F20 
 3728 0db8 01       		.byte	0x1
 3729 0db9 00       		.uleb128 0
 3730 0dba 5F5F464C 		.ascii "__FLT_RADIX__ 2\0"
 3730      545F5241 
 3730      4449585F 
 3730      5F203200 
 3731 0dca 01       		.byte	0x1
 3732 0dcb 00       		.uleb128 0
 3733 0dcc 5F5F464C 		.ascii "__FLT_MANT_DIG__ 24\0"
 3733      545F4D41 
 3733      4E545F44 
 3733      49475F5F 
 3733      20323400 
 3734 0de0 01       		.byte	0x1
 3735 0de1 00       		.uleb128 0
 3736 0de2 5F5F464C 		.ascii "__FLT_DIG__ 6\0"
 3736      545F4449 
 3736      475F5F20 
 3736      3600
 3737 0df0 01       		.byte	0x1
 3738 0df1 00       		.uleb128 0
 3739 0df2 5F5F464C 		.ascii "__FLT_MIN_EXP__ (-125)\0"
 3739      545F4D49 
 3739      4E5F4558 
 3739      505F5F20 
 3739      282D3132 
 3740 0e09 01       		.byte	0x1
 3741 0e0a 00       		.uleb128 0
 3742 0e0b 5F5F464C 		.ascii "__FLT_MIN_10_EXP__ (-37)\0"
 3742      545F4D49 
 3742      4E5F3130 
 3742      5F455850 
 3742      5F5F2028 
 3743 0e24 01       		.byte	0x1
 3744 0e25 00       		.uleb128 0
 3745 0e26 5F5F464C 		.ascii "__FLT_MAX_EXP__ 128\0"
 3745      545F4D41 
 3745      585F4558 
 3745      505F5F20 
 3745      31323800 
GAS LISTING C:\Users\PRESID~1\AppData\Local\Temp\ccPJOK5j.s 			page 106


 3746 0e3a 01       		.byte	0x1
 3747 0e3b 00       		.uleb128 0
 3748 0e3c 5F5F464C 		.ascii "__FLT_MAX_10_EXP__ 38\0"
 3748      545F4D41 
 3748      585F3130 
 3748      5F455850 
 3748      5F5F2033 
 3749 0e52 01       		.byte	0x1
 3750 0e53 00       		.uleb128 0
 3751 0e54 5F5F464C 		.ascii "__FLT_DECIMAL_DIG__ 9\0"
 3751      545F4445 
 3751      43494D41 
 3751      4C5F4449 
 3751      475F5F20 
 3752 0e6a 01       		.byte	0x1
 3753 0e6b 00       		.uleb128 0
 3754 0e6c 5F5F464C 		.ascii "__FLT_MAX__ 3.40282346638528859812e+38F\0"
 3754      545F4D41 
 3754      585F5F20 
 3754      332E3430 
 3754      32383233 
 3755 0e94 01       		.byte	0x1
 3756 0e95 00       		.uleb128 0
 3757 0e96 5F5F464C 		.ascii "__FLT_MIN__ 1.17549435082228750797e-38F\0"
 3757      545F4D49 
 3757      4E5F5F20 
 3757      312E3137 
 3757      35343934 
 3758 0ebe 01       		.byte	0x1
 3759 0ebf 00       		.uleb128 0
 3760 0ec0 5F5F464C 		.ascii "__FLT_EPSILON__ 1.19209289550781250000e-7F\0"
 3760      545F4550 
 3760      53494C4F 
 3760      4E5F5F20 
 3760      312E3139 
 3761 0eeb 01       		.byte	0x1
 3762 0eec 00       		.uleb128 0
 3763 0eed 5F5F464C 		.ascii "__FLT_DENORM_MIN__ 1.40129846432481707092e-45F\0"
 3763      545F4445 
 3763      4E4F524D 
 3763      5F4D494E 
 3763      5F5F2031 
 3764 0f1c 01       		.byte	0x1
 3765 0f1d 00       		.uleb128 0
 3766 0f1e 5F5F464C 		.ascii "__FLT_HAS_DENORM__ 1\0"
 3766      545F4841 
 3766      535F4445 
 3766      4E4F524D 
 3766      5F5F2031 
 3767 0f33 01       		.byte	0x1
 3768 0f34 00       		.uleb128 0
 3769 0f35 5F5F464C 		.ascii "__FLT_HAS_INFINITY__ 1\0"
 3769      545F4841 
 3769      535F494E 
 3769      46494E49 
 3769      54595F5F 
 3770 0f4c 01       		.byte	0x1
GAS LISTING C:\Users\PRESID~1\AppData\Local\Temp\ccPJOK5j.s 			page 107


 3771 0f4d 00       		.uleb128 0
 3772 0f4e 5F5F464C 		.ascii "__FLT_HAS_QUIET_NAN__ 1\0"
 3772      545F4841 
 3772      535F5155 
 3772      4945545F 
 3772      4E414E5F 
 3773 0f66 01       		.byte	0x1
 3774 0f67 00       		.uleb128 0
 3775 0f68 5F5F4442 		.ascii "__DBL_MANT_DIG__ 53\0"
 3775      4C5F4D41 
 3775      4E545F44 
 3775      49475F5F 
 3775      20353300 
 3776 0f7c 01       		.byte	0x1
 3777 0f7d 00       		.uleb128 0
 3778 0f7e 5F5F4442 		.ascii "__DBL_DIG__ 15\0"
 3778      4C5F4449 
 3778      475F5F20 
 3778      313500
 3779 0f8d 01       		.byte	0x1
 3780 0f8e 00       		.uleb128 0
 3781 0f8f 5F5F4442 		.ascii "__DBL_MIN_EXP__ (-1021)\0"
 3781      4C5F4D49 
 3781      4E5F4558 
 3781      505F5F20 
 3781      282D3130 
 3782 0fa7 01       		.byte	0x1
 3783 0fa8 00       		.uleb128 0
 3784 0fa9 5F5F4442 		.ascii "__DBL_MIN_10_EXP__ (-307)\0"
 3784      4C5F4D49 
 3784      4E5F3130 
 3784      5F455850 
 3784      5F5F2028 
 3785 0fc3 01       		.byte	0x1
 3786 0fc4 00       		.uleb128 0
 3787 0fc5 5F5F4442 		.ascii "__DBL_MAX_EXP__ 1024\0"
 3787      4C5F4D41 
 3787      585F4558 
 3787      505F5F20 
 3787      31303234 
 3788 0fda 01       		.byte	0x1
 3789 0fdb 00       		.uleb128 0
 3790 0fdc 5F5F4442 		.ascii "__DBL_MAX_10_EXP__ 308\0"
 3790      4C5F4D41 
 3790      585F3130 
 3790      5F455850 
 3790      5F5F2033 
 3791 0ff3 01       		.byte	0x1
 3792 0ff4 00       		.uleb128 0
 3793 0ff5 5F5F4442 		.ascii "__DBL_DECIMAL_DIG__ 17\0"
 3793      4C5F4445 
 3793      43494D41 
 3793      4C5F4449 
 3793      475F5F20 
 3794 100c 01       		.byte	0x1
 3795 100d 00       		.uleb128 0
 3796 100e 5F5F4442 		.ascii "__DBL_MAX__ ((double)1.79769313486231570815e+308L)\0"
GAS LISTING C:\Users\PRESID~1\AppData\Local\Temp\ccPJOK5j.s 			page 108


 3796      4C5F4D41 
 3796      585F5F20 
 3796      2828646F 
 3796      75626C65 
 3797 1041 01       		.byte	0x1
 3798 1042 00       		.uleb128 0
 3799 1043 5F5F4442 		.ascii "__DBL_MIN__ ((double)2.22507385850720138309e-308L)\0"
 3799      4C5F4D49 
 3799      4E5F5F20 
 3799      2828646F 
 3799      75626C65 
 3800 1076 01       		.byte	0x1
 3801 1077 00       		.uleb128 0
 3802 1078 5F5F4442 		.ascii "__DBL_EPSILON__ ((double)2.22044604925031308085e-16L)\0"
 3802      4C5F4550 
 3802      53494C4F 
 3802      4E5F5F20 
 3802      2828646F 
 3803 10ae 01       		.byte	0x1
 3804 10af 00       		.uleb128 0
 3805 10b0 5F5F4442 		.ascii "__DBL_DENORM_MIN__ ((double)4.94065645841246544177e-324L)\0"
 3805      4C5F4445 
 3805      4E4F524D 
 3805      5F4D494E 
 3805      5F5F2028 
 3806 10ea 01       		.byte	0x1
 3807 10eb 00       		.uleb128 0
 3808 10ec 5F5F4442 		.ascii "__DBL_HAS_DENORM__ 1\0"
 3808      4C5F4841 
 3808      535F4445 
 3808      4E4F524D 
 3808      5F5F2031 
 3809 1101 01       		.byte	0x1
 3810 1102 00       		.uleb128 0
 3811 1103 5F5F4442 		.ascii "__DBL_HAS_INFINITY__ 1\0"
 3811      4C5F4841 
 3811      535F494E 
 3811      46494E49 
 3811      54595F5F 
 3812 111a 01       		.byte	0x1
 3813 111b 00       		.uleb128 0
 3814 111c 5F5F4442 		.ascii "__DBL_HAS_QUIET_NAN__ 1\0"
 3814      4C5F4841 
 3814      535F5155 
 3814      4945545F 
 3814      4E414E5F 
 3815 1134 01       		.byte	0x1
 3816 1135 00       		.uleb128 0
 3817 1136 5F5F4C44 		.ascii "__LDBL_MANT_DIG__ 64\0"
 3817      424C5F4D 
 3817      414E545F 
 3817      4449475F 
 3817      5F203634 
 3818 114b 01       		.byte	0x1
 3819 114c 00       		.uleb128 0
 3820 114d 5F5F4C44 		.ascii "__LDBL_DIG__ 18\0"
 3820      424C5F44 
GAS LISTING C:\Users\PRESID~1\AppData\Local\Temp\ccPJOK5j.s 			page 109


 3820      49475F5F 
 3820      20313800 
 3821 115d 01       		.byte	0x1
 3822 115e 00       		.uleb128 0
 3823 115f 5F5F4C44 		.ascii "__LDBL_MIN_EXP__ (-16381)\0"
 3823      424C5F4D 
 3823      494E5F45 
 3823      58505F5F 
 3823      20282D31 
 3824 1179 01       		.byte	0x1
 3825 117a 00       		.uleb128 0
 3826 117b 5F5F4C44 		.ascii "__LDBL_MIN_10_EXP__ (-4931)\0"
 3826      424C5F4D 
 3826      494E5F31 
 3826      305F4558 
 3826      505F5F20 
 3827 1197 01       		.byte	0x1
 3828 1198 00       		.uleb128 0
 3829 1199 5F5F4C44 		.ascii "__LDBL_MAX_EXP__ 16384\0"
 3829      424C5F4D 
 3829      41585F45 
 3829      58505F5F 
 3829      20313633 
 3830 11b0 01       		.byte	0x1
 3831 11b1 00       		.uleb128 0
 3832 11b2 5F5F4C44 		.ascii "__LDBL_MAX_10_EXP__ 4932\0"
 3832      424C5F4D 
 3832      41585F31 
 3832      305F4558 
 3832      505F5F20 
 3833 11cb 01       		.byte	0x1
 3834 11cc 00       		.uleb128 0
 3835 11cd 5F5F4445 		.ascii "__DECIMAL_DIG__ 21\0"
 3835      43494D41 
 3835      4C5F4449 
 3835      475F5F20 
 3835      323100
 3836 11e0 01       		.byte	0x1
 3837 11e1 00       		.uleb128 0
 3838 11e2 5F5F4C44 		.ascii "__LDBL_MAX__ 1.18973149535723176502e+4932L\0"
 3838      424C5F4D 
 3838      41585F5F 
 3838      20312E31 
 3838      38393733 
 3839 120d 01       		.byte	0x1
 3840 120e 00       		.uleb128 0
 3841 120f 5F5F4C44 		.ascii "__LDBL_MIN__ 3.36210314311209350626e-4932L\0"
 3841      424C5F4D 
 3841      494E5F5F 
 3841      20332E33 
 3841      36323130 
 3842 123a 01       		.byte	0x1
 3843 123b 00       		.uleb128 0
 3844 123c 5F5F4C44 		.ascii "__LDBL_EPSILON__ 1.08420217248550443401e-19L\0"
 3844      424C5F45 
 3844      5053494C 
 3844      4F4E5F5F 
GAS LISTING C:\Users\PRESID~1\AppData\Local\Temp\ccPJOK5j.s 			page 110


 3844      20312E30 
 3845 1269 01       		.byte	0x1
 3846 126a 00       		.uleb128 0
 3847 126b 5F5F4C44 		.ascii "__LDBL_DENORM_MIN__ 3.64519953188247460253e-4951L\0"
 3847      424C5F44 
 3847      454E4F52 
 3847      4D5F4D49 
 3847      4E5F5F20 
 3848 129d 01       		.byte	0x1
 3849 129e 00       		.uleb128 0
 3850 129f 5F5F4C44 		.ascii "__LDBL_HAS_DENORM__ 1\0"
 3850      424C5F48 
 3850      41535F44 
 3850      454E4F52 
 3850      4D5F5F20 
 3851 12b5 01       		.byte	0x1
 3852 12b6 00       		.uleb128 0
 3853 12b7 5F5F4C44 		.ascii "__LDBL_HAS_INFINITY__ 1\0"
 3853      424C5F48 
 3853      41535F49 
 3853      4E46494E 
 3853      4954595F 
 3854 12cf 01       		.byte	0x1
 3855 12d0 00       		.uleb128 0
 3856 12d1 5F5F4C44 		.ascii "__LDBL_HAS_QUIET_NAN__ 1\0"
 3856      424C5F48 
 3856      41535F51 
 3856      55494554 
 3856      5F4E414E 
 3857 12ea 01       		.byte	0x1
 3858 12eb 00       		.uleb128 0
 3859 12ec 5F5F4445 		.ascii "__DEC32_MANT_DIG__ 7\0"
 3859      4333325F 
 3859      4D414E54 
 3859      5F444947 
 3859      5F5F2037 
 3860 1301 01       		.byte	0x1
 3861 1302 00       		.uleb128 0
 3862 1303 5F5F4445 		.ascii "__DEC32_MIN_EXP__ (-94)\0"
 3862      4333325F 
 3862      4D494E5F 
 3862      4558505F 
 3862      5F20282D 
 3863 131b 01       		.byte	0x1
 3864 131c 00       		.uleb128 0
 3865 131d 5F5F4445 		.ascii "__DEC32_MAX_EXP__ 97\0"
 3865      4333325F 
 3865      4D41585F 
 3865      4558505F 
 3865      5F203937 
 3866 1332 01       		.byte	0x1
 3867 1333 00       		.uleb128 0
 3868 1334 5F5F4445 		.ascii "__DEC32_MIN__ 1E-95DF\0"
 3868      4333325F 
 3868      4D494E5F 
 3868      5F203145 
 3868      2D393544 
GAS LISTING C:\Users\PRESID~1\AppData\Local\Temp\ccPJOK5j.s 			page 111


 3869 134a 01       		.byte	0x1
 3870 134b 00       		.uleb128 0
 3871 134c 5F5F4445 		.ascii "__DEC32_MAX__ 9.999999E96DF\0"
 3871      4333325F 
 3871      4D41585F 
 3871      5F20392E 
 3871      39393939 
 3872 1368 01       		.byte	0x1
 3873 1369 00       		.uleb128 0
 3874 136a 5F5F4445 		.ascii "__DEC32_EPSILON__ 1E-6DF\0"
 3874      4333325F 
 3874      45505349 
 3874      4C4F4E5F 
 3874      5F203145 
 3875 1383 01       		.byte	0x1
 3876 1384 00       		.uleb128 0
 3877 1385 5F5F4445 		.ascii "__DEC32_SUBNORMAL_MIN__ 0.000001E-95DF\0"
 3877      4333325F 
 3877      5355424E 
 3877      4F524D41 
 3877      4C5F4D49 
 3878 13ac 01       		.byte	0x1
 3879 13ad 00       		.uleb128 0
 3880 13ae 5F5F4445 		.ascii "__DEC64_MANT_DIG__ 16\0"
 3880      4336345F 
 3880      4D414E54 
 3880      5F444947 
 3880      5F5F2031 
 3881 13c4 01       		.byte	0x1
 3882 13c5 00       		.uleb128 0
 3883 13c6 5F5F4445 		.ascii "__DEC64_MIN_EXP__ (-382)\0"
 3883      4336345F 
 3883      4D494E5F 
 3883      4558505F 
 3883      5F20282D 
 3884 13df 01       		.byte	0x1
 3885 13e0 00       		.uleb128 0
 3886 13e1 5F5F4445 		.ascii "__DEC64_MAX_EXP__ 385\0"
 3886      4336345F 
 3886      4D41585F 
 3886      4558505F 
 3886      5F203338 
 3887 13f7 01       		.byte	0x1
 3888 13f8 00       		.uleb128 0
 3889 13f9 5F5F4445 		.ascii "__DEC64_MIN__ 1E-383DD\0"
 3889      4336345F 
 3889      4D494E5F 
 3889      5F203145 
 3889      2D333833 
 3890 1410 01       		.byte	0x1
 3891 1411 00       		.uleb128 0
 3892 1412 5F5F4445 		.ascii "__DEC64_MAX__ 9.999999999999999E384DD\0"
 3892      4336345F 
 3892      4D41585F 
 3892      5F20392E 
 3892      39393939 
 3893 1438 01       		.byte	0x1
GAS LISTING C:\Users\PRESID~1\AppData\Local\Temp\ccPJOK5j.s 			page 112


 3894 1439 00       		.uleb128 0
 3895 143a 5F5F4445 		.ascii "__DEC64_EPSILON__ 1E-15DD\0"
 3895      4336345F 
 3895      45505349 
 3895      4C4F4E5F 
 3895      5F203145 
 3896 1454 01       		.byte	0x1
 3897 1455 00       		.uleb128 0
 3898 1456 5F5F4445 		.ascii "__DEC64_SUBNORMAL_MIN__ 0.000000000000001E-383DD\0"
 3898      4336345F 
 3898      5355424E 
 3898      4F524D41 
 3898      4C5F4D49 
 3899 1487 01       		.byte	0x1
 3900 1488 00       		.uleb128 0
 3901 1489 5F5F4445 		.ascii "__DEC128_MANT_DIG__ 34\0"
 3901      43313238 
 3901      5F4D414E 
 3901      545F4449 
 3901      475F5F20 
 3902 14a0 01       		.byte	0x1
 3903 14a1 00       		.uleb128 0
 3904 14a2 5F5F4445 		.ascii "__DEC128_MIN_EXP__ (-6142)\0"
 3904      43313238 
 3904      5F4D494E 
 3904      5F455850 
 3904      5F5F2028 
 3905 14bd 01       		.byte	0x1
 3906 14be 00       		.uleb128 0
 3907 14bf 5F5F4445 		.ascii "__DEC128_MAX_EXP__ 6145\0"
 3907      43313238 
 3907      5F4D4158 
 3907      5F455850 
 3907      5F5F2036 
 3908 14d7 01       		.byte	0x1
 3909 14d8 00       		.uleb128 0
 3910 14d9 5F5F4445 		.ascii "__DEC128_MIN__ 1E-6143DL\0"
 3910      43313238 
 3910      5F4D494E 
 3910      5F5F2031 
 3910      452D3631 
 3911 14f2 01       		.byte	0x1
 3912 14f3 00       		.uleb128 0
 3913 14f4 5F5F4445 		.ascii "__DEC128_MAX__ 9.999999999999999999999999999999999E6144DL\0"
 3913      43313238 
 3913      5F4D4158 
 3913      5F5F2039 
 3913      2E393939 
 3914 152e 01       		.byte	0x1
 3915 152f 00       		.uleb128 0
 3916 1530 5F5F4445 		.ascii "__DEC128_EPSILON__ 1E-33DL\0"
 3916      43313238 
 3916      5F455053 
 3916      494C4F4E 
 3916      5F5F2031 
 3917 154b 01       		.byte	0x1
 3918 154c 00       		.uleb128 0
GAS LISTING C:\Users\PRESID~1\AppData\Local\Temp\ccPJOK5j.s 			page 113


 3919 154d 5F5F4445 		.ascii "__DEC128_SUBNORMAL_MIN__ 0.000000000000000000000000000000001E-6143DL\0"
 3919      43313238 
 3919      5F535542 
 3919      4E4F524D 
 3919      414C5F4D 
 3920 1592 01       		.byte	0x1
 3921 1593 00       		.uleb128 0
 3922 1594 5F5F5245 		.ascii "__REGISTER_PREFIX__ \0"
 3922      47495354 
 3922      45525F50 
 3922      52454649 
 3922      585F5F20 
 3923 15a9 01       		.byte	0x1
 3924 15aa 00       		.uleb128 0
 3925 15ab 5F5F5553 		.ascii "__USER_LABEL_PREFIX__ _\0"
 3925      45525F4C 
 3925      4142454C 
 3925      5F505245 
 3925      4649585F 
 3926 15c3 01       		.byte	0x1
 3927 15c4 00       		.uleb128 0
 3928 15c5 5F5F474E 		.ascii "__GNUC_GNU_INLINE__ 1\0"
 3928      55435F47 
 3928      4E555F49 
 3928      4E4C494E 
 3928      455F5F20 
 3929 15db 01       		.byte	0x1
 3930 15dc 00       		.uleb128 0
 3931 15dd 5F5F4E4F 		.ascii "__NO_INLINE__ 1\0"
 3931      5F494E4C 
 3931      494E455F 
 3931      5F203100 
 3932 15ed 01       		.byte	0x1
 3933 15ee 00       		.uleb128 0
 3934 15ef 5F5F5354 		.ascii "__STRICT_ANSI__ 1\0"
 3934      52494354 
 3934      5F414E53 
 3934      495F5F20 
 3934      3100
 3935 1601 01       		.byte	0x1
 3936 1602 00       		.uleb128 0
 3937 1603 5F5F4743 		.ascii "__GCC_ATOMIC_BOOL_LOCK_FREE 1\0"
 3937      435F4154 
 3937      4F4D4943 
 3937      5F424F4F 
 3937      4C5F4C4F 
 3938 1621 01       		.byte	0x1
 3939 1622 00       		.uleb128 0
 3940 1623 5F5F4743 		.ascii "__GCC_ATOMIC_CHAR_LOCK_FREE 1\0"
 3940      435F4154 
 3940      4F4D4943 
 3940      5F434841 
 3940      525F4C4F 
 3941 1641 01       		.byte	0x1
 3942 1642 00       		.uleb128 0
 3943 1643 5F5F4743 		.ascii "__GCC_ATOMIC_CHAR16_T_LOCK_FREE 1\0"
 3943      435F4154 
GAS LISTING C:\Users\PRESID~1\AppData\Local\Temp\ccPJOK5j.s 			page 114


 3943      4F4D4943 
 3943      5F434841 
 3943      5231365F 
 3944 1665 01       		.byte	0x1
 3945 1666 00       		.uleb128 0
 3946 1667 5F5F4743 		.ascii "__GCC_ATOMIC_CHAR32_T_LOCK_FREE 1\0"
 3946      435F4154 
 3946      4F4D4943 
 3946      5F434841 
 3946      5233325F 
 3947 1689 01       		.byte	0x1
 3948 168a 00       		.uleb128 0
 3949 168b 5F5F4743 		.ascii "__GCC_ATOMIC_WCHAR_T_LOCK_FREE 1\0"
 3949      435F4154 
 3949      4F4D4943 
 3949      5F574348 
 3949      41525F54 
 3950 16ac 01       		.byte	0x1
 3951 16ad 00       		.uleb128 0
 3952 16ae 5F5F4743 		.ascii "__GCC_ATOMIC_SHORT_LOCK_FREE 1\0"
 3952      435F4154 
 3952      4F4D4943 
 3952      5F53484F 
 3952      52545F4C 
 3953 16cd 01       		.byte	0x1
 3954 16ce 00       		.uleb128 0
 3955 16cf 5F5F4743 		.ascii "__GCC_ATOMIC_INT_LOCK_FREE 1\0"
 3955      435F4154 
 3955      4F4D4943 
 3955      5F494E54 
 3955      5F4C4F43 
 3956 16ec 01       		.byte	0x1
 3957 16ed 00       		.uleb128 0
 3958 16ee 5F5F4743 		.ascii "__GCC_ATOMIC_LONG_LOCK_FREE 1\0"
 3958      435F4154 
 3958      4F4D4943 
 3958      5F4C4F4E 
 3958      475F4C4F 
 3959 170c 01       		.byte	0x1
 3960 170d 00       		.uleb128 0
 3961 170e 5F5F4743 		.ascii "__GCC_ATOMIC_LLONG_LOCK_FREE 1\0"
 3961      435F4154 
 3961      4F4D4943 
 3961      5F4C4C4F 
 3961      4E475F4C 
 3962 172d 01       		.byte	0x1
 3963 172e 00       		.uleb128 0
 3964 172f 5F5F4743 		.ascii "__GCC_ATOMIC_TEST_AND_SET_TRUEVAL 1\0"
 3964      435F4154 
 3964      4F4D4943 
 3964      5F544553 
 3964      545F414E 
 3965 1753 01       		.byte	0x1
 3966 1754 00       		.uleb128 0
 3967 1755 5F5F4743 		.ascii "__GCC_ATOMIC_POINTER_LOCK_FREE 1\0"
 3967      435F4154 
 3967      4F4D4943 
GAS LISTING C:\Users\PRESID~1\AppData\Local\Temp\ccPJOK5j.s 			page 115


 3967      5F504F49 
 3967      4E544552 
 3968 1776 01       		.byte	0x1
 3969 1777 00       		.uleb128 0
 3970 1778 5F5F4743 		.ascii "__GCC_HAVE_DWARF2_CFI_ASM 1\0"
 3970      435F4841 
 3970      56455F44 
 3970      57415246 
 3970      325F4346 
 3971 1794 01       		.byte	0x1
 3972 1795 00       		.uleb128 0
 3973 1796 5F5F5052 		.ascii "__PRAGMA_REDEFINE_EXTNAME 1\0"
 3973      41474D41 
 3973      5F524544 
 3973      4546494E 
 3973      455F4558 
 3974 17b2 01       		.byte	0x1
 3975 17b3 00       		.uleb128 0
 3976 17b4 5F5F5349 		.ascii "__SIZEOF_WCHAR_T__ 2\0"
 3976      5A454F46 
 3976      5F574348 
 3976      41525F54 
 3976      5F5F2032 
 3977 17c9 01       		.byte	0x1
 3978 17ca 00       		.uleb128 0
 3979 17cb 5F5F5349 		.ascii "__SIZEOF_WINT_T__ 2\0"
 3979      5A454F46 
 3979      5F57494E 
 3979      545F545F 
 3979      5F203200 
 3980 17df 01       		.byte	0x1
 3981 17e0 00       		.uleb128 0
 3982 17e1 5F5F5349 		.ascii "__SIZEOF_PTRDIFF_T__ 4\0"
 3982      5A454F46 
 3982      5F505452 
 3982      44494646 
 3982      5F545F5F 
 3983 17f8 01       		.byte	0x1
 3984 17f9 00       		.uleb128 0
 3985 17fa 5F5F6933 		.ascii "__i386 1\0"
 3985      38362031 
 3985      00
 3986 1803 01       		.byte	0x1
 3987 1804 00       		.uleb128 0
 3988 1805 5F5F6933 		.ascii "__i386__ 1\0"
 3988      38365F5F 
 3988      203100
 3989 1810 01       		.byte	0x1
 3990 1811 00       		.uleb128 0
 3991 1812 5F5F4154 		.ascii "__ATOMIC_HLE_ACQUIRE 65536\0"
 3991      4F4D4943 
 3991      5F484C45 
 3991      5F414351 
 3991      55495245 
 3992 182d 01       		.byte	0x1
 3993 182e 00       		.uleb128 0
 3994 182f 5F5F4154 		.ascii "__ATOMIC_HLE_RELEASE 131072\0"
GAS LISTING C:\Users\PRESID~1\AppData\Local\Temp\ccPJOK5j.s 			page 116


 3994      4F4D4943 
 3994      5F484C45 
 3994      5F52454C 
 3994      45415345 
 3995 184b 01       		.byte	0x1
 3996 184c 00       		.uleb128 0
 3997 184d 5F5F7475 		.ascii "__tune_i386__ 1\0"
 3997      6E655F69 
 3997      3338365F 
 3997      5F203100 
 3998 185d 01       		.byte	0x1
 3999 185e 00       		.uleb128 0
 4000 185f 5F5F636F 		.ascii "__code_model_32__ 1\0"
 4000      64655F6D 
 4000      6F64656C 
 4000      5F33325F 
 4000      5F203100 
 4001 1873 01       		.byte	0x1
 4002 1874 00       		.uleb128 0
 4003 1875 5F583836 		.ascii "_X86_ 1\0"
 4003      5F203100 
 4004 187d 01       		.byte	0x1
 4005 187e 00       		.uleb128 0
 4006 187f 5F5F7374 		.ascii "__stdcall __attribute__((__stdcall__))\0"
 4006      6463616C 
 4006      6C205F5F 
 4006      61747472 
 4006      69627574 
 4007 18a6 01       		.byte	0x1
 4008 18a7 00       		.uleb128 0
 4009 18a8 5F5F6661 		.ascii "__fastcall __attribute__((__fastcall__))\0"
 4009      73746361 
 4009      6C6C205F 
 4009      5F617474 
 4009      72696275 
 4010 18d1 01       		.byte	0x1
 4011 18d2 00       		.uleb128 0
 4012 18d3 5F5F7468 		.ascii "__thiscall __attribute__((__thiscall__))\0"
 4012      69736361 
 4012      6C6C205F 
 4012      5F617474 
 4012      72696275 
 4013 18fc 01       		.byte	0x1
 4014 18fd 00       		.uleb128 0
 4015 18fe 5F5F6364 		.ascii "__cdecl __attribute__((__cdecl__))\0"
 4015      65636C20 
 4015      5F5F6174 
 4015      74726962 
 4015      7574655F 
 4016 1921 01       		.byte	0x1
 4017 1922 00       		.uleb128 0
 4018 1923 5F5F4758 		.ascii "__GXX_MERGED_TYPEINFO_NAMES 0\0"
 4018      585F4D45 
 4018      52474544 
 4018      5F545950 
 4018      45494E46 
 4019 1941 01       		.byte	0x1
GAS LISTING C:\Users\PRESID~1\AppData\Local\Temp\ccPJOK5j.s 			page 117


 4020 1942 00       		.uleb128 0
 4021 1943 5F5F4758 		.ascii "__GXX_TYPEINFO_EQUALITY_INLINE 0\0"
 4021      585F5459 
 4021      5045494E 
 4021      464F5F45 
 4021      5155414C 
 4022 1964 01       		.byte	0x1
 4023 1965 00       		.uleb128 0
 4024 1966 5F5F4D53 		.ascii "__MSVCRT__ 1\0"
 4024      56435254 
 4024      5F5F2031 
 4024      00
 4025 1973 01       		.byte	0x1
 4026 1974 00       		.uleb128 0
 4027 1975 5F5F4D49 		.ascii "__MINGW32__ 1\0"
 4027      4E475733 
 4027      325F5F20 
 4027      3100
 4028 1983 01       		.byte	0x1
 4029 1984 00       		.uleb128 0
 4030 1985 5F57494E 		.ascii "_WIN32 1\0"
 4030      33322031 
 4030      00
 4031 198e 01       		.byte	0x1
 4032 198f 00       		.uleb128 0
 4033 1990 5F5F5749 		.ascii "__WIN32 1\0"
 4033      4E333220 
 4033      3100
 4034 199a 01       		.byte	0x1
 4035 199b 00       		.uleb128 0
 4036 199c 5F5F5749 		.ascii "__WIN32__ 1\0"
 4036      4E33325F 
 4036      5F203100 
 4037 19a8 01       		.byte	0x1
 4038 19a9 00       		.uleb128 0
 4039 19aa 5F5F5749 		.ascii "__WINNT 1\0"
 4039      4E4E5420 
 4039      3100
 4040 19b4 01       		.byte	0x1
 4041 19b5 00       		.uleb128 0
 4042 19b6 5F5F5749 		.ascii "__WINNT__ 1\0"
 4042      4E4E545F 
 4042      5F203100 
 4043 19c2 01       		.byte	0x1
 4044 19c3 00       		.uleb128 0
 4045 19c4 5F494E54 		.ascii "_INTEGRAL_MAX_BITS 64\0"
 4045      45475241 
 4045      4C5F4D41 
 4045      585F4249 
 4045      54532036 
 4046 19da 01       		.byte	0x1
 4047 19db 00       		.uleb128 0
 4048 19dc 5F5F6465 		.ascii "__declspec(x) __attribute__((x))\0"
 4048      636C7370 
 4048      65632878 
 4048      29205F5F 
 4048      61747472 
GAS LISTING C:\Users\PRESID~1\AppData\Local\Temp\ccPJOK5j.s 			page 118


 4049 19fd 01       		.byte	0x1
 4050 19fe 00       		.uleb128 0
 4051 19ff 5F5F4445 		.ascii "__DECIMAL_BID_FORMAT__ 1\0"
 4051      43494D41 
 4051      4C5F4249 
 4051      445F464F 
 4051      524D4154 
 4052 1a18 01       		.byte	0x1
 4053 1a19 00       		.uleb128 0
 4054 1a1a 4346475F 		.ascii "CFG_PROCESSOR 3\0"
 4054      50524F43 
 4054      4553534F 
 4054      52203300 
 4055 1a2a 03       		.byte	0x3
 4056 1a2b 00       		.uleb128 0
 4057 1a2c 02       		.uleb128 0x2
 4058 1a2d 03       		.byte	0x3
 4059 1a2e 01       		.uleb128 0x1
 4060 1a2f 01       		.uleb128 0x1
 4061 1a30 01       		.byte	0x1
 4062 1a31 10       		.uleb128 0x10
 4063 1a32 5F535444 		.ascii "_STDIO_H_ \0"
 4063      494F5F48 
 4063      5F2000
 4064              		.file 5 "d:/programm/mingw/include/_mingw.h"
 4065 1a3d 03       		.byte	0x3
 4066 1a3e 13       		.uleb128 0x13
 4067 1a3f 05       		.uleb128 0x5
 4068 1a40 01       		.byte	0x1
 4069 1a41 17       		.uleb128 0x17
 4070 1a42 5F5F4D49 		.ascii "__MINGW_H \0"
 4070      4E47575F 
 4070      482000
 4071 1a4d 01       		.byte	0x1
 4072 1a4e 22       		.uleb128 0x22
 4073 1a4f 5F5F4D49 		.ascii "__MINGW32_VERSION 3021001L\0"
 4073      4E475733 
 4073      325F5645 
 4073      5253494F 
 4073      4E203330 
 4074 1a6a 01       		.byte	0x1
 4075 1a6b 23       		.uleb128 0x23
 4076 1a6c 5F5F4D49 		.ascii "__MINGW32_MAJOR_VERSION 3\0"
 4076      4E475733 
 4076      325F4D41 
 4076      4A4F525F 
 4076      56455253 
 4077 1a86 01       		.byte	0x1
 4078 1a87 24       		.uleb128 0x24
 4079 1a88 5F5F4D49 		.ascii "__MINGW32_MINOR_VERSION 21\0"
 4079      4E475733 
 4079      325F4D49 
 4079      4E4F525F 
 4079      56455253 
 4080 1aa3 01       		.byte	0x1
 4081 1aa4 25       		.uleb128 0x25
 4082 1aa5 5F5F4D49 		.ascii "__MINGW32_PATCHLEVEL 1\0"
GAS LISTING C:\Users\PRESID~1\AppData\Local\Temp\ccPJOK5j.s 			page 119


 4082      4E475733 
 4082      325F5041 
 4082      5443484C 
 4082      4556454C 
 4083 1abc 01       		.byte	0x1
 4084 1abd 52       		.uleb128 0x52
 4085 1abe 5F5F4352 		.ascii "__CRT_GLOB_USE_MSVCRT__ 0x0001\0"
 4085      545F474C 
 4085      4F425F55 
 4085      53455F4D 
 4085      53564352 
 4086 1add 01       		.byte	0x1
 4087 1ade 57       		.uleb128 0x57
 4088 1adf 5F5F4352 		.ascii "__CRT_GLOB_USE_MINGW__ 0x0002\0"
 4088      545F474C 
 4088      4F425F55 
 4088      53455F4D 
 4088      494E4757 
 4089 1afd 01       		.byte	0x1
 4090 1afe 75       		.uleb128 0x75
 4091 1aff 5F5F4352 		.ascii "__CRT_GLOB_USE_SINGLE_QUOTE__ 0x0010\0"
 4091      545F474C 
 4091      4F425F55 
 4091      53455F53 
 4091      494E474C 
 4092 1b24 01       		.byte	0x1
 4093 1b25 76       		.uleb128 0x76
 4094 1b26 5F5F4352 		.ascii "__CRT_GLOB_BRACKET_GROUPS__ 0x0020\0"
 4094      545F474C 
 4094      4F425F42 
 4094      5241434B 
 4094      45545F47 
 4095 1b49 01       		.byte	0x1
 4096 1b4a 77       		.uleb128 0x77
 4097 1b4b 5F5F4352 		.ascii "__CRT_GLOB_CASE_SENSITIVE__ 0x0040\0"
 4097      545F474C 
 4097      4F425F43 
 4097      4153455F 
 4097      53454E53 
 4098 1b6e 01       		.byte	0x1
 4099 1b6f 8001     		.uleb128 0x80
 4100 1b71 5F5F4352 		.ascii "__CRT_GLOB_ESCAPE_CHAR__ (char)(127)\0"
 4100      545F474C 
 4100      4F425F45 
 4100      53434150 
 4100      455F4348 
 4101 1b96 01       		.byte	0x1
 4102 1b97 8601     		.uleb128 0x86
 4103 1b99 5F5F4D49 		.ascii "__MINGW_ANSI_STDIO__ 0x0000000000000001ULL\0"
 4103      4E47575F 
 4103      414E5349 
 4103      5F535444 
 4103      494F5F5F 
 4104 1bc4 01       		.byte	0x1
 4105 1bc5 8B01     		.uleb128 0x8b
 4106 1bc7 5F5F4D49 		.ascii "__MINGW_LC_EXTENSIONS__ 0x0000000000000050ULL\0"
 4106      4E47575F 
GAS LISTING C:\Users\PRESID~1\AppData\Local\Temp\ccPJOK5j.s 			page 120


 4106      4C435F45 
 4106      5854454E 
 4106      53494F4E 
 4107 1bf5 01       		.byte	0x1
 4108 1bf6 8C01     		.uleb128 0x8c
 4109 1bf8 5F5F4D49 		.ascii "__MINGW_LC_MESSAGES__ 0x0000000000000010ULL\0"
 4109      4E47575F 
 4109      4C435F4D 
 4109      45535341 
 4109      4745535F 
 4110 1c24 01       		.byte	0x1
 4111 1c25 8D01     		.uleb128 0x8d
 4112 1c27 5F5F4D49 		.ascii "__MINGW_LC_ENVVARS__ 0x0000000000000040ULL\0"
 4112      4E47575F 
 4112      4C435F45 
 4112      4E565641 
 4112      52535F5F 
 4113 1c52 02       		.byte	0x2
 4114 1c53 9201     		.uleb128 0x92
 4115 1c55 5F5F6174 		.ascii "__attribute__\0"
 4115      74726962 
 4115      7574655F 
 4115      5F00
 4116 1c63 01       		.byte	0x1
 4117 1c64 C001     		.uleb128 0xc0
 4118 1c66 5F5F4D49 		.ascii "__MINGW_IMPORT extern __attribute__ ((__dllimport__))\0"
 4118      4E47575F 
 4118      494D504F 
 4118      52542065 
 4118      78746572 
 4119 1c9c 01       		.byte	0x1
 4120 1c9d C601     		.uleb128 0xc6
 4121 1c9f 5F435254 		.ascii "_CRTIMP \0"
 4121      494D5020 
 4121      00
 4122 1ca8 01       		.byte	0x1
 4123 1ca9 C901     		.uleb128 0xc9
 4124 1cab 5F5F4445 		.ascii "__DECLSPEC_SUPPORTED \0"
 4124      434C5350 
 4124      45435F53 
 4124      5550504F 
 4124      52544544 
 4125 1cc1 01       		.byte	0x1
 4126 1cc2 DD01     		.uleb128 0xdd
 4127 1cc4 5F5F696E 		.ascii "__int64 long long\0"
 4127      74363420 
 4127      6C6F6E67 
 4127      206C6F6E 
 4127      6700
 4128 1cd6 01       		.byte	0x1
 4129 1cd7 E001     		.uleb128 0xe0
 4130 1cd9 5F5F696E 		.ascii "__int32 long\0"
 4130      74333220 
 4130      6C6F6E67 
 4130      00
 4131 1ce6 01       		.byte	0x1
 4132 1ce7 E301     		.uleb128 0xe3
GAS LISTING C:\Users\PRESID~1\AppData\Local\Temp\ccPJOK5j.s 			page 121


 4133 1ce9 5F5F696E 		.ascii "__int16 short\0"
 4133      74313620 
 4133      73686F72 
 4133      7400
 4134 1cf7 01       		.byte	0x1
 4135 1cf8 E601     		.uleb128 0xe6
 4136 1cfa 5F5F696E 		.ascii "__int8 char\0"
 4136      74382063 
 4136      68617200 
 4137 1d06 01       		.byte	0x1
 4138 1d07 E901     		.uleb128 0xe9
 4139 1d09 5F5F736D 		.ascii "__small char\0"
 4139      616C6C20 
 4139      63686172 
 4139      00
 4140 1d16 01       		.byte	0x1
 4141 1d17 EC01     		.uleb128 0xec
 4142 1d19 5F5F6879 		.ascii "__hyper long long\0"
 4142      70657220 
 4142      6C6F6E67 
 4142      206C6F6E 
 4142      6700
 4143 1d2b 01       		.byte	0x1
 4144 1d2c FA01     		.uleb128 0xfa
 4145 1d2e 5F5F4D49 		.ascii "__MINGW_GNUC_PREREQ(major,minor) (__GNUC__ > (major) || (__GNUC__ == (major) && __GNUC_MIN
 4145      4E47575F 
 4145      474E5543 
 4145      5F505245 
 4145      52455128 
 4146 1d9a 01       		.byte	0x1
 4147 1d9b 8902     		.uleb128 0x109
 4148 1d9d 5F455854 		.ascii "_EXTERN_C extern\0"
 4148      45524E5F 
 4148      43206578 
 4148      7465726E 
 4148      00
 4149 1dae 01       		.byte	0x1
 4150 1daf 8A02     		.uleb128 0x10a
 4151 1db1 5F424547 		.ascii "_BEGIN_C_DECLS \0"
 4151      494E5F43 
 4151      5F444543 
 4151      4C532000 
 4152 1dc1 01       		.byte	0x1
 4153 1dc2 8B02     		.uleb128 0x10b
 4154 1dc4 5F454E44 		.ascii "_END_C_DECLS \0"
 4154      5F435F44 
 4154      45434C53 
 4154      2000
 4155 1dd2 01       		.byte	0x1
 4156 1dd3 9002     		.uleb128 0x110
 4157 1dd5 5F5F4352 		.ascii "__CRT_INLINE extern __inline__\0"
 4157      545F494E 
 4157      4C494E45 
 4157      20657874 
 4157      65726E20 
 4158 1df4 01       		.byte	0x1
 4159 1df5 9A02     		.uleb128 0x11a
GAS LISTING C:\Users\PRESID~1\AppData\Local\Temp\ccPJOK5j.s 			page 122


 4160 1df7 5F435254 		.ascii "_CRTALIAS __CRT_INLINE __attribute__((__always_inline__))\0"
 4160      414C4941 
 4160      53205F5F 
 4160      4352545F 
 4160      494E4C49 
 4161 1e31 01       		.byte	0x1
 4162 1e32 9B02     		.uleb128 0x11b
 4163 1e34 5F5F4352 		.ascii "__CRT_ALIAS __CRT_INLINE __attribute__((__always_inline__))\0"
 4163      545F414C 
 4163      49415320 
 4163      5F5F4352 
 4163      545F494E 
 4164 1e70 01       		.byte	0x1
 4165 1e71 A902     		.uleb128 0x129
 4166 1e73 5F5F4A4D 		.ascii "__JMPSTUB__(__BUILD_HINT__) \0"
 4166      50535455 
 4166      425F5F28 
 4166      5F5F4255 
 4166      494C445F 
 4167 1e90 01       		.byte	0x1
 4168 1e91 AA02     		.uleb128 0x12a
 4169 1e93 5F5F4C49 		.ascii "__LIBIMPL__(__BUILD_HINT__) \0"
 4169      42494D50 
 4169      4C5F5F28 
 4169      5F5F4255 
 4169      494C445F 
 4170 1eb0 01       		.byte	0x1
 4171 1eb1 B002     		.uleb128 0x130
 4172 1eb3 5F5F554E 		.ascii "__UNUSED_PARAM(x) x __attribute__ ((__unused__))\0"
 4172      55534544 
 4172      5F504152 
 4172      414D2878 
 4172      29207820 
 4173 1ee4 01       		.byte	0x1
 4174 1ee5 B702     		.uleb128 0x137
 4175 1ee7 5F5F4D49 		.ascii "__MINGW_ATTRIB_NORETURN __attribute__ ((__noreturn__))\0"
 4175      4E47575F 
 4175      41545452 
 4175      49425F4E 
 4175      4F524554 
 4176 1f1e 01       		.byte	0x1
 4177 1f1f B802     		.uleb128 0x138
 4178 1f21 5F5F4D49 		.ascii "__MINGW_ATTRIB_CONST __attribute__ ((__const__))\0"
 4178      4E47575F 
 4178      41545452 
 4178      49425F43 
 4178      4F4E5354 
 4179 1f52 01       		.byte	0x1
 4180 1f53 BF02     		.uleb128 0x13f
 4181 1f55 5F5F4D49 		.ascii "__MINGW_ATTRIB_MALLOC __attribute__ ((__malloc__))\0"
 4181      4E47575F 
 4181      41545452 
 4181      49425F4D 
 4181      414C4C4F 
 4182 1f88 01       		.byte	0x1
 4183 1f89 C002     		.uleb128 0x140
 4184 1f8b 5F5F4D49 		.ascii "__MINGW_ATTRIB_PURE __attribute__ ((__pure__))\0"
GAS LISTING C:\Users\PRESID~1\AppData\Local\Temp\ccPJOK5j.s 			page 123


 4184      4E47575F 
 4184      41545452 
 4184      49425F50 
 4184      55524520 
 4185 1fba 01       		.byte	0x1
 4186 1fbb CA02     		.uleb128 0x14a
 4187 1fbd 5F5F4D49 		.ascii "__MINGW_ATTRIB_NONNULL(arg) __attribute__ ((__nonnull__ (arg)))\0"
 4187      4E47575F 
 4187      41545452 
 4187      49425F4E 
 4187      4F4E4E55 
 4188 1ffd 01       		.byte	0x1
 4189 1ffe D002     		.uleb128 0x150
 4190 2000 5F5F4D49 		.ascii "__MINGW_ATTRIB_DEPRECATED __attribute__ ((__deprecated__))\0"
 4190      4E47575F 
 4190      41545452 
 4190      49425F44 
 4190      45505245 
 4191 203b 01       		.byte	0x1
 4192 203c D602     		.uleb128 0x156
 4193 203e 5F5F4D49 		.ascii "__MINGW_NOTHROW __attribute__ ((__nothrow__))\0"
 4193      4E47575F 
 4193      4E4F5448 
 4193      524F5720 
 4193      5F5F6174 
 4194 206c 01       		.byte	0x1
 4195 206d E102     		.uleb128 0x161
 4196 206f 5F5F4D53 		.ascii "__MSVCRT_VERSION__ 0x0600\0"
 4196      56435254 
 4196      5F564552 
 4196      53494F4E 
 4196      5F5F2030 
 4197 2089 01       		.byte	0x1
 4198 208a F502     		.uleb128 0x175
 4199 208c 5F5F5553 		.ascii "__USE_MINGW_ANSI_STDIO 1\0"
 4199      455F4D49 
 4199      4E47575F 
 4199      414E5349 
 4199      5F535444 
 4200 20a5 04       		.byte	0x4
 4201 20a6 01       		.byte	0x1
 4202 20a7 16       		.uleb128 0x16
 4203 20a8 5F5F6E65 		.ascii "__need_size_t \0"
 4203      65645F73 
 4203      697A655F 
 4203      742000
 4204 20b7 01       		.byte	0x1
 4205 20b8 17       		.uleb128 0x17
 4206 20b9 5F5F6E65 		.ascii "__need_NULL \0"
 4206      65645F4E 
 4206      554C4C20 
 4206      00
 4207 20c6 01       		.byte	0x1
 4208 20c7 18       		.uleb128 0x18
 4209 20c8 5F5F6E65 		.ascii "__need_wchar_t \0"
 4209      65645F77 
 4209      63686172 
GAS LISTING C:\Users\PRESID~1\AppData\Local\Temp\ccPJOK5j.s 			page 124


 4209      5F742000 
 4210 20d8 01       		.byte	0x1
 4211 20d9 19       		.uleb128 0x19
 4212 20da 5F5F6E65 		.ascii "__need_wint_t \0"
 4212      65645F77 
 4212      696E745F 
 4212      742000
 4213              		.file 6 "d:/programm/mingw/lib/gcc/mingw32/4.9.3/include/stddef.h"
 4214 20e9 03       		.byte	0x3
 4215 20ea 1A       		.uleb128 0x1a
 4216 20eb 06       		.uleb128 0x6
 4217 20ec 01       		.byte	0x1
 4218 20ed B801     		.uleb128 0xb8
 4219 20ef 5F5F7369 		.ascii "__size_t__ \0"
 4219      7A655F74 
 4219      5F5F2000 
 4220 20fb 01       		.byte	0x1
 4221 20fc B901     		.uleb128 0xb9
 4222 20fe 5F5F5349 		.ascii "__SIZE_T__ \0"
 4222      5A455F54 
 4222      5F5F2000 
 4223 210a 01       		.byte	0x1
 4224 210b BA01     		.uleb128 0xba
 4225 210d 5F53495A 		.ascii "_SIZE_T \0"
 4225      455F5420 
 4225      00
 4226 2116 01       		.byte	0x1
 4227 2117 BB01     		.uleb128 0xbb
 4228 2119 5F535953 		.ascii "_SYS_SIZE_T_H \0"
 4228      5F53495A 
 4228      455F545F 
 4228      482000
 4229 2128 01       		.byte	0x1
 4230 2129 BC01     		.uleb128 0xbc
 4231 212b 5F545F53 		.ascii "_T_SIZE_ \0"
 4231      495A455F 
 4231      2000
 4232 2135 01       		.byte	0x1
 4233 2136 BD01     		.uleb128 0xbd
 4234 2138 5F545F53 		.ascii "_T_SIZE \0"
 4234      495A4520 
 4234      00
 4235 2141 01       		.byte	0x1
 4236 2142 BE01     		.uleb128 0xbe
 4237 2144 5F5F5349 		.ascii "__SIZE_T \0"
 4237      5A455F54 
 4237      2000
 4238 214e 01       		.byte	0x1
 4239 214f BF01     		.uleb128 0xbf
 4240 2151 5F53495A 		.ascii "_SIZE_T_ \0"
 4240      455F545F 
 4240      2000
 4241 215b 01       		.byte	0x1
 4242 215c C001     		.uleb128 0xc0
 4243 215e 5F425344 		.ascii "_BSD_SIZE_T_ \0"
 4243      5F53495A 
 4243      455F545F 
GAS LISTING C:\Users\PRESID~1\AppData\Local\Temp\ccPJOK5j.s 			page 125


 4243      2000
 4244 216c 01       		.byte	0x1
 4245 216d C101     		.uleb128 0xc1
 4246 216f 5F53495A 		.ascii "_SIZE_T_DEFINED_ \0"
 4246      455F545F 
 4246      44454649 
 4246      4E45445F 
 4246      2000
 4247 2181 01       		.byte	0x1
 4248 2182 C201     		.uleb128 0xc2
 4249 2184 5F53495A 		.ascii "_SIZE_T_DEFINED \0"
 4249      455F545F 
 4249      44454649 
 4249      4E454420 
 4249      00
 4250 2195 01       		.byte	0x1
 4251 2196 C301     		.uleb128 0xc3
 4252 2198 5F425344 		.ascii "_BSD_SIZE_T_DEFINED_ \0"
 4252      5F53495A 
 4252      455F545F 
 4252      44454649 
 4252      4E45445F 
 4253 21ae 01       		.byte	0x1
 4254 21af C401     		.uleb128 0xc4
 4255 21b1 5F53495A 		.ascii "_SIZE_T_DECLARED \0"
 4255      455F545F 
 4255      4445434C 
 4255      41524544 
 4255      2000
 4256 21c3 01       		.byte	0x1
 4257 21c4 C501     		.uleb128 0xc5
 4258 21c6 5F5F5F69 		.ascii "___int_size_t_h \0"
 4258      6E745F73 
 4258      697A655F 
 4258      745F6820 
 4258      00
 4259 21d7 01       		.byte	0x1
 4260 21d8 C601     		.uleb128 0xc6
 4261 21da 5F474343 		.ascii "_GCC_SIZE_T \0"
 4261      5F53495A 
 4261      455F5420 
 4261      00
 4262 21e7 01       		.byte	0x1
 4263 21e8 C701     		.uleb128 0xc7
 4264 21ea 5F53495A 		.ascii "_SIZET_ \0"
 4264      45545F20 
 4264      00
 4265 21f3 01       		.byte	0x1
 4266 21f4 CE01     		.uleb128 0xce
 4267 21f6 5F5F7369 		.ascii "__size_t \0"
 4267      7A655F74 
 4267      2000
 4268 2200 02       		.byte	0x2
 4269 2201 EA01     		.uleb128 0xea
 4270 2203 5F5F6E65 		.ascii "__need_size_t\0"
 4270      65645F73 
 4270      697A655F 
GAS LISTING C:\Users\PRESID~1\AppData\Local\Temp\ccPJOK5j.s 			page 126


 4270      7400
 4271 2211 01       		.byte	0x1
 4272 2212 8702     		.uleb128 0x107
 4273 2214 5F5F7763 		.ascii "__wchar_t__ \0"
 4273      6861725F 
 4273      745F5F20 
 4273      00
 4274 2221 01       		.byte	0x1
 4275 2222 8802     		.uleb128 0x108
 4276 2224 5F5F5743 		.ascii "__WCHAR_T__ \0"
 4276      4841525F 
 4276      545F5F20 
 4276      00
 4277 2231 01       		.byte	0x1
 4278 2232 8902     		.uleb128 0x109
 4279 2234 5F574348 		.ascii "_WCHAR_T \0"
 4279      41525F54 
 4279      2000
 4280 223e 01       		.byte	0x1
 4281 223f 8A02     		.uleb128 0x10a
 4282 2241 5F545F57 		.ascii "_T_WCHAR_ \0"
 4282      43484152 
 4282      5F2000
 4283 224c 01       		.byte	0x1
 4284 224d 8B02     		.uleb128 0x10b
 4285 224f 5F545F57 		.ascii "_T_WCHAR \0"
 4285      43484152 
 4285      2000
 4286 2259 01       		.byte	0x1
 4287 225a 8C02     		.uleb128 0x10c
 4288 225c 5F5F5743 		.ascii "__WCHAR_T \0"
 4288      4841525F 
 4288      542000
 4289 2267 01       		.byte	0x1
 4290 2268 8D02     		.uleb128 0x10d
 4291 226a 5F574348 		.ascii "_WCHAR_T_ \0"
 4291      41525F54 
 4291      5F2000
 4292 2275 01       		.byte	0x1
 4293 2276 8E02     		.uleb128 0x10e
 4294 2278 5F425344 		.ascii "_BSD_WCHAR_T_ \0"
 4294      5F574348 
 4294      41525F54 
 4294      5F2000
 4295 2287 01       		.byte	0x1
 4296 2288 8F02     		.uleb128 0x10f
 4297 228a 5F574348 		.ascii "_WCHAR_T_DEFINED_ \0"
 4297      41525F54 
 4297      5F444546 
 4297      494E4544 
 4297      5F2000
 4298 229d 01       		.byte	0x1
 4299 229e 9002     		.uleb128 0x110
 4300 22a0 5F574348 		.ascii "_WCHAR_T_DEFINED \0"
 4300      41525F54 
 4300      5F444546 
 4300      494E4544 
GAS LISTING C:\Users\PRESID~1\AppData\Local\Temp\ccPJOK5j.s 			page 127


 4300      2000
 4301 22b2 01       		.byte	0x1
 4302 22b3 9102     		.uleb128 0x111
 4303 22b5 5F574348 		.ascii "_WCHAR_T_H \0"
 4303      41525F54 
 4303      5F482000 
 4304 22c1 01       		.byte	0x1
 4305 22c2 9202     		.uleb128 0x112
 4306 22c4 5F5F5F69 		.ascii "___int_wchar_t_h \0"
 4306      6E745F77 
 4306      63686172 
 4306      5F745F68 
 4306      2000
 4307 22d6 01       		.byte	0x1
 4308 22d7 9302     		.uleb128 0x113
 4309 22d9 5F5F494E 		.ascii "__INT_WCHAR_T_H \0"
 4309      545F5743 
 4309      4841525F 
 4309      545F4820 
 4309      00
 4310 22ea 01       		.byte	0x1
 4311 22eb 9402     		.uleb128 0x114
 4312 22ed 5F474343 		.ascii "_GCC_WCHAR_T \0"
 4312      5F574348 
 4312      41525F54 
 4312      2000
 4313 22fb 01       		.byte	0x1
 4314 22fc 9502     		.uleb128 0x115
 4315 22fe 5F574348 		.ascii "_WCHAR_T_DECLARED \0"
 4315      41525F54 
 4315      5F444543 
 4315      4C415245 
 4315      442000
 4316 2311 02       		.byte	0x2
 4317 2312 A202     		.uleb128 0x122
 4318 2314 5F425344 		.ascii "_BSD_WCHAR_T_\0"
 4318      5F574348 
 4318      41525F54 
 4318      5F00
 4319 2322 02       		.byte	0x2
 4320 2323 D702     		.uleb128 0x157
 4321 2325 5F5F6E65 		.ascii "__need_wchar_t\0"
 4321      65645F77 
 4321      63686172 
 4321      5F7400
 4322 2334 01       		.byte	0x1
 4323 2335 DC02     		.uleb128 0x15c
 4324 2337 5F57494E 		.ascii "_WINT_T \0"
 4324      545F5420 
 4324      00
 4325 2340 02       		.byte	0x2
 4326 2341 E302     		.uleb128 0x163
 4327 2343 5F5F6E65 		.ascii "__need_wint_t\0"
 4327      65645F77 
 4327      696E745F 
 4327      7400
 4328 2351 02       		.byte	0x2
GAS LISTING C:\Users\PRESID~1\AppData\Local\Temp\ccPJOK5j.s 			page 128


 4329 2352 8D03     		.uleb128 0x18d
 4330 2354 4E554C4C 		.ascii "NULL\0"
 4330      00
 4331 2359 01       		.byte	0x1
 4332 235a 9203     		.uleb128 0x192
 4333 235c 4E554C4C 		.ascii "NULL ((void *)0)\0"
 4333      20282876 
 4333      6F696420 
 4333      2A293029 
 4333      00
 4334 236d 02       		.byte	0x2
 4335 236e 9803     		.uleb128 0x198
 4336 2370 5F5F6E65 		.ascii "__need_NULL\0"
 4336      65645F4E 
 4336      554C4C00 
 4337 237c 04       		.byte	0x4
 4338 237d 01       		.byte	0x1
 4339 237e 1B       		.uleb128 0x1b
 4340 237f 5F5F6E65 		.ascii "__need___va_list \0"
 4340      65645F5F 
 4340      5F76615F 
 4340      6C697374 
 4340      2000
 4341              		.file 7 "d:/programm/mingw/lib/gcc/mingw32/4.9.3/include/stdarg.h"
 4342 2391 03       		.byte	0x3
 4343 2392 1C       		.uleb128 0x1c
 4344 2393 07       		.uleb128 0x7
 4345 2394 02       		.byte	0x2
 4346 2395 22       		.uleb128 0x22
 4347 2396 5F5F6E65 		.ascii "__need___va_list\0"
 4347      65645F5F 
 4347      5F76615F 
 4347      6C697374 
 4347      00
 4348 23a7 01       		.byte	0x1
 4349 23a8 27       		.uleb128 0x27
 4350 23a9 5F5F474E 		.ascii "__GNUC_VA_LIST \0"
 4350      55435F56 
 4350      415F4C49 
 4350      53542000 
 4351 23b9 04       		.byte	0x4
 4352 23ba 01       		.byte	0x1
 4353 23bb 21       		.uleb128 0x21
 4354 23bc 5F494F52 		.ascii "_IOREAD 1\0"
 4354      45414420 
 4354      3100
 4355 23c6 01       		.byte	0x1
 4356 23c7 22       		.uleb128 0x22
 4357 23c8 5F494F57 		.ascii "_IOWRT 2\0"
 4357      52542032 
 4357      00
 4358 23d1 01       		.byte	0x1
 4359 23d2 23       		.uleb128 0x23
 4360 23d3 5F494F52 		.ascii "_IORW 0x0080\0"
 4360      57203078 
 4360      30303830 
 4360      00
GAS LISTING C:\Users\PRESID~1\AppData\Local\Temp\ccPJOK5j.s 			page 129


 4361 23e0 01       		.byte	0x1
 4362 23e1 2A       		.uleb128 0x2a
 4363 23e2 53544449 		.ascii "STDIN_FILENO 0\0"
 4363      4E5F4649 
 4363      4C454E4F 
 4363      203000
 4364 23f1 01       		.byte	0x1
 4365 23f2 2B       		.uleb128 0x2b
 4366 23f3 5354444F 		.ascii "STDOUT_FILENO 1\0"
 4366      55545F46 
 4366      494C454E 
 4366      4F203100 
 4367 2403 01       		.byte	0x1
 4368 2404 2C       		.uleb128 0x2c
 4369 2405 53544445 		.ascii "STDERR_FILENO 2\0"
 4369      52525F46 
 4369      494C454E 
 4369      4F203200 
 4370 2415 01       		.byte	0x1
 4371 2416 2F       		.uleb128 0x2f
 4372 2417 454F4620 		.ascii "EOF (-1)\0"
 4372      282D3129 
 4372      00
 4373 2420 01       		.byte	0x1
 4374 2421 37       		.uleb128 0x37
 4375 2422 46494C45 		.ascii "FILENAME_MAX (260)\0"
 4375      4E414D45 
 4375      5F4D4158 
 4375      20283236 
 4375      302900
 4376 2435 01       		.byte	0x1
 4377 2436 3E       		.uleb128 0x3e
 4378 2437 464F5045 		.ascii "FOPEN_MAX (20)\0"
 4378      4E5F4D41 
 4378      58202832 
 4378      302900
 4379 2446 01       		.byte	0x1
 4380 2447 41       		.uleb128 0x41
 4381 2448 544D505F 		.ascii "TMP_MAX 32767\0"
 4381      4D415820 
 4381      33323736 
 4381      3700
 4382 2456 01       		.byte	0x1
 4383 2457 48       		.uleb128 0x48
 4384 2458 5F505F74 		.ascii "_P_tmpdir \"\\\\\"\0"
 4384      6D706469 
 4384      7220225C 
 4384      5C2200
 4385 2467 01       		.byte	0x1
 4386 2468 4C       		.uleb128 0x4c
 4387 2469 5F77505F 		.ascii "_wP_tmpdir L\"\\\\\"\0"
 4387      746D7064 
 4387      6972204C 
 4387      225C5C22 
 4387      00
 4388 247a 01       		.byte	0x1
 4389 247b 54       		.uleb128 0x54
GAS LISTING C:\Users\PRESID~1\AppData\Local\Temp\ccPJOK5j.s 			page 130


 4390 247c 4C5F746D 		.ascii "L_tmpnam (16)\0"
 4390      706E616D 
 4390      20283136 
 4390      2900
 4391 248a 01       		.byte	0x1
 4392 248b 56       		.uleb128 0x56
 4393 248c 5F494F46 		.ascii "_IOFBF 0x0000\0"
 4393      42462030 
 4393      78303030 
 4393      3000
 4394 249a 01       		.byte	0x1
 4395 249b 57       		.uleb128 0x57
 4396 249c 5F494F4C 		.ascii "_IOLBF 0x0040\0"
 4396      42462030 
 4396      78303034 
 4396      3000
 4397 24aa 01       		.byte	0x1
 4398 24ab 58       		.uleb128 0x58
 4399 24ac 5F494F4E 		.ascii "_IONBF 0x0004\0"
 4399      42462030 
 4399      78303030 
 4399      3400
 4400 24ba 01       		.byte	0x1
 4401 24bb 5A       		.uleb128 0x5a
 4402 24bc 5F494F4D 		.ascii "_IOMYBUF 0x0008\0"
 4402      59425546 
 4402      20307830 
 4402      30303800 
 4403 24cc 01       		.byte	0x1
 4404 24cd 5B       		.uleb128 0x5b
 4405 24ce 5F494F45 		.ascii "_IOEOF 0x0010\0"
 4405      4F462030 
 4405      78303031 
 4405      3000
 4406 24dc 01       		.byte	0x1
 4407 24dd 5C       		.uleb128 0x5c
 4408 24de 5F494F45 		.ascii "_IOERR 0x0020\0"
 4408      52522030 
 4408      78303032 
 4408      3000
 4409 24ec 01       		.byte	0x1
 4410 24ed 5D       		.uleb128 0x5d
 4411 24ee 5F494F53 		.ascii "_IOSTRG 0x0040\0"
 4411      54524720 
 4411      30783030 
 4411      343000
 4412 24fd 01       		.byte	0x1
 4413 24fe 65       		.uleb128 0x65
 4414 24ff 42554653 		.ascii "BUFSIZ 512\0"
 4414      495A2035 
 4414      313200
 4415 250a 01       		.byte	0x1
 4416 250b 6B       		.uleb128 0x6b
 4417 250c 5345454B 		.ascii "SEEK_SET 0\0"
 4417      5F534554 
 4417      203000
 4418 2517 01       		.byte	0x1
GAS LISTING C:\Users\PRESID~1\AppData\Local\Temp\ccPJOK5j.s 			page 131


 4419 2518 6C       		.uleb128 0x6c
 4420 2519 5345454B 		.ascii "SEEK_CUR 1\0"
 4420      5F435552 
 4420      203100
 4421 2524 01       		.byte	0x1
 4422 2525 6D       		.uleb128 0x6d
 4423 2526 5345454B 		.ascii "SEEK_END 2\0"
 4423      5F454E44 
 4423      203200
 4424 2531 01       		.byte	0x1
 4425 2532 73       		.uleb128 0x73
 4426 2533 5F5F5641 		.ascii "__VALIST __gnuc_va_list\0"
 4426      4C495354 
 4426      205F5F67 
 4426      6E75635F 
 4426      76615F6C 
 4427 254b 01       		.byte	0x1
 4428 254c 8101     		.uleb128 0x81
 4429 254e 5F46494C 		.ascii "_FILE_DEFINED \0"
 4429      455F4445 
 4429      46494E45 
 4429      442000
 4430 255d 01       		.byte	0x1
 4431 255e 9F01     		.uleb128 0x9f
 4432 2560 73746469 		.ascii "stdin (&_iob[STDIN_FILENO])\0"
 4432      6E202826 
 4432      5F696F62 
 4432      5B535444 
 4432      494E5F46 
 4433 257c 01       		.byte	0x1
 4434 257d A001     		.uleb128 0xa0
 4435 257f 7374646F 		.ascii "stdout (&_iob[STDOUT_FILENO])\0"
 4435      75742028 
 4435      265F696F 
 4435      625B5354 
 4435      444F5554 
 4436 259d 01       		.byte	0x1
 4437 259e A101     		.uleb128 0xa1
 4438 25a0 73746465 		.ascii "stderr (&_iob[STDERR_FILENO])\0"
 4438      72722028 
 4438      265F696F 
 4438      625B5354 
 4438      44455252 
 4439 25be 02       		.byte	0x2
 4440 25bf C801     		.uleb128 0xc8
 4441 25c1 5F5F6D69 		.ascii "__mingw_stdio_redirect__\0"
 4441      6E67775F 
 4441      73746469 
 4441      6F5F7265 
 4441      64697265 
 4442 25da 01       		.byte	0x1
 4443 25db C901     		.uleb128 0xc9
 4444 25dd 5F5F6D69 		.ascii "__mingw_stdio_redirect__(F) __cdecl __MINGW_NOTHROW __mingw_ ##F\0"
 4444      6E67775F 
 4444      73746469 
 4444      6F5F7265 
 4444      64697265 
GAS LISTING C:\Users\PRESID~1\AppData\Local\Temp\ccPJOK5j.s 			page 132


 4445 261e 02       		.byte	0x2
 4446 261f D801     		.uleb128 0xd8
 4447 2621 5F5F6D69 		.ascii "__mingw_stdio_redirect__\0"
 4447      6E67775F 
 4447      73746469 
 4447      6F5F7265 
 4447      64697265 
 4448 263a 01       		.byte	0x1
 4449 263b E701     		.uleb128 0xe7
 4450 263d 5F5F6D69 		.ascii "__mingw_stdio_redirect__ static __inline__ __cdecl __MINGW_NOTHROW\0"
 4450      6E67775F 
 4450      73746469 
 4450      6F5F7265 
 4450      64697265 
 4451 2680 02       		.byte	0x2
 4452 2681 B002     		.uleb128 0x130
 4453 2683 5F5F6D69 		.ascii "__mingw_stdio_redirect__\0"
 4453      6E67775F 
 4453      73746469 
 4453      6F5F7265 
 4453      64697265 
 4454 269c 01       		.byte	0x1
 4455 269d B102     		.uleb128 0x131
 4456 269f 5F5F6D69 		.ascii "__mingw_stdio_redirect__(F) __cdecl __MINGW_NOTHROW __msvcrt_ ##F\0"
 4456      6E67775F 
 4456      73746469 
 4456      6F5F7265 
 4456      64697265 
 4457 26e1 02       		.byte	0x2
 4458 26e2 BA02     		.uleb128 0x13a
 4459 26e4 5F5F6D69 		.ascii "__mingw_stdio_redirect__\0"
 4459      6E67775F 
 4459      73746469 
 4459      6F5F7265 
 4459      64697265 
 4460 26fd 01       		.byte	0x1
 4461 26fe DB03     		.uleb128 0x1db
 4462 2700 66656F66 		.ascii "feof(__F) ((__F)->_flag & _IOEOF)\0"
 4462      285F5F46 
 4462      29202828 
 4462      5F5F4629 
 4462      2D3E5F66 
 4463 2722 01       		.byte	0x1
 4464 2723 DC03     		.uleb128 0x1dc
 4465 2725 66657272 		.ascii "ferror(__F) ((__F)->_flag & _IOERR)\0"
 4465      6F72285F 
 4465      5F462920 
 4465      28285F5F 
 4465      46292D3E 
 4466 2749 01       		.byte	0x1
 4467 274a AC05     		.uleb128 0x2ac
 4468 274c 5F575354 		.ascii "_WSTDIO_DEFINED \0"
 4468      44494F5F 
 4468      44454649 
 4468      4E454420 
 4468      00
 4469 275d 04       		.byte	0x4
GAS LISTING C:\Users\PRESID~1\AppData\Local\Temp\ccPJOK5j.s 			page 133


 4470 275e 03       		.byte	0x3
 4471 275f 03       		.uleb128 0x3
 4472 2760 04       		.uleb128 0x4
 4473 2761 01       		.byte	0x1
 4474 2762 26       		.uleb128 0x26
 4475 2763 48415645 		.ascii "HAVE_SPUT_H \0"
 4475      5F535055 
 4475      545F4820 
 4475      00
 4476              		.file 8 "d:/programm/mingw/include/stdlib.h"
 4477 2770 03       		.byte	0x3
 4478 2771 2F       		.uleb128 0x2f
 4479 2772 08       		.uleb128 0x8
 4480 2773 01       		.byte	0x1
 4481 2774 0C       		.uleb128 0xc
 4482 2775 5F535444 		.ascii "_STDLIB_H_ \0"
 4482      4C49425F 
 4482      485F2000 
 4483 2781 01       		.byte	0x1
 4484 2782 11       		.uleb128 0x11
 4485 2783 5F5F6E65 		.ascii "__need_size_t \0"
 4485      65645F73 
 4485      697A655F 
 4485      742000
 4486 2792 01       		.byte	0x1
 4487 2793 12       		.uleb128 0x12
 4488 2794 5F5F6E65 		.ascii "__need_wchar_t \0"
 4488      65645F77 
 4488      63686172 
 4488      5F742000 
 4489 27a4 01       		.byte	0x1
 4490 27a5 13       		.uleb128 0x13
 4491 27a6 5F5F6E65 		.ascii "__need_NULL \0"
 4491      65645F4E 
 4491      554C4C20 
 4491      00
 4492 27b3 03       		.byte	0x3
 4493 27b4 16       		.uleb128 0x16
 4494 27b5 06       		.uleb128 0x6
 4495 27b6 02       		.byte	0x2
 4496 27b7 EA01     		.uleb128 0xea
 4497 27b9 5F5F6E65 		.ascii "__need_size_t\0"
 4497      65645F73 
 4497      697A655F 
 4497      7400
 4498 27c7 02       		.byte	0x2
 4499 27c8 D702     		.uleb128 0x157
 4500 27ca 5F5F6E65 		.ascii "__need_wchar_t\0"
 4500      65645F77 
 4500      63686172 
 4500      5F7400
 4501 27d9 02       		.byte	0x2
 4502 27da 8D03     		.uleb128 0x18d
 4503 27dc 4E554C4C 		.ascii "NULL\0"
 4503      00
 4504 27e1 01       		.byte	0x1
 4505 27e2 9203     		.uleb128 0x192
GAS LISTING C:\Users\PRESID~1\AppData\Local\Temp\ccPJOK5j.s 			page 134


 4506 27e4 4E554C4C 		.ascii "NULL ((void *)0)\0"
 4506      20282876 
 4506      6F696420 
 4506      2A293029 
 4506      00
 4507 27f5 02       		.byte	0x2
 4508 27f6 9803     		.uleb128 0x198
 4509 27f8 5F5F6E65 		.ascii "__need_NULL\0"
 4509      65645F4E 
 4509      554C4C00 
 4510 2804 04       		.byte	0x4
 4511 2805 01       		.byte	0x1
 4512 2806 1D       		.uleb128 0x1d
 4513 2807 52414E44 		.ascii "RAND_MAX 0x7FFF\0"
 4513      5F4D4158 
 4513      20307837 
 4513      46464600 
 4514 2817 01       		.byte	0x1
 4515 2818 22       		.uleb128 0x22
 4516 2819 45584954 		.ascii "EXIT_SUCCESS 0\0"
 4516      5F535543 
 4516      43455353 
 4516      203000
 4517 2828 01       		.byte	0x1
 4518 2829 23       		.uleb128 0x23
 4519 282a 45584954 		.ascii "EXIT_FAILURE 1\0"
 4519      5F464149 
 4519      4C555245 
 4519      203100
 4520 2839 01       		.byte	0x1
 4521 283a 6E       		.uleb128 0x6e
 4522 283b 4D425F43 		.ascii "MB_CUR_MAX __mb_cur_max\0"
 4522      55525F4D 
 4522      4158205F 
 4522      5F6D625F 
 4522      6375725F 
 4523 2853 01       		.byte	0x1
 4524 2854 8901     		.uleb128 0x89
 4525 2856 6572726E 		.ascii "errno (*_errno())\0"
 4525      6F20282A 
 4525      5F657272 
 4525      6E6F2829 
 4525      2900
 4526 2868 01       		.byte	0x1
 4527 2869 8C01     		.uleb128 0x8c
 4528 286b 5F646F73 		.ascii "_doserrno (*__doserrno())\0"
 4528      6572726E 
 4528      6F20282A 
 4528      5F5F646F 
 4528      73657272 
 4529 2885 01       		.byte	0x1
 4530 2886 D502     		.uleb128 0x155
 4531 2888 5F575354 		.ascii "_WSTDLIB_DEFINED \0"
 4531      444C4942 
 4531      5F444546 
 4531      494E4544 
 4531      2000
GAS LISTING C:\Users\PRESID~1\AppData\Local\Temp\ccPJOK5j.s 			page 135


 4532 289a 04       		.byte	0x4
 4533              		.file 9 "d:/programm/mingw/include/string.h"
 4534 289b 03       		.byte	0x3
 4535 289c 30       		.uleb128 0x30
 4536 289d 09       		.uleb128 0x9
 4537 289e 01       		.byte	0x1
 4538 289f 0C       		.uleb128 0xc
 4539 28a0 5F535452 		.ascii "_STRING_H_ \0"
 4539      494E475F 
 4539      485F2000 
 4540 28ac 01       		.byte	0x1
 4541 28ad 14       		.uleb128 0x14
 4542 28ae 5F5F6E65 		.ascii "__need_size_t \0"
 4542      65645F73 
 4542      697A655F 
 4542      742000
 4543 28bd 01       		.byte	0x1
 4544 28be 15       		.uleb128 0x15
 4545 28bf 5F5F6E65 		.ascii "__need_wchar_t \0"
 4545      65645F77 
 4545      63686172 
 4545      5F742000 
 4546 28cf 01       		.byte	0x1
 4547 28d0 16       		.uleb128 0x16
 4548 28d1 5F5F6E65 		.ascii "__need_NULL \0"
 4548      65645F4E 
 4548      554C4C20 
 4548      00
 4549 28de 03       		.byte	0x3
 4550 28df 18       		.uleb128 0x18
 4551 28e0 06       		.uleb128 0x6
 4552 28e1 02       		.byte	0x2
 4553 28e2 EA01     		.uleb128 0xea
 4554 28e4 5F5F6E65 		.ascii "__need_size_t\0"
 4554      65645F73 
 4554      697A655F 
 4554      7400
 4555 28f2 02       		.byte	0x2
 4556 28f3 D702     		.uleb128 0x157
 4557 28f5 5F5F6E65 		.ascii "__need_wchar_t\0"
 4557      65645F77 
 4557      63686172 
 4557      5F7400
 4558 2904 02       		.byte	0x2
 4559 2905 8D03     		.uleb128 0x18d
 4560 2907 4E554C4C 		.ascii "NULL\0"
 4560      00
 4561 290c 01       		.byte	0x1
 4562 290d 9203     		.uleb128 0x192
 4563 290f 4E554C4C 		.ascii "NULL ((void *)0)\0"
 4563      20282876 
 4563      6F696420 
 4563      2A293029 
 4563      00
 4564 2920 02       		.byte	0x2
 4565 2921 9803     		.uleb128 0x198
 4566 2923 5F5F6E65 		.ascii "__need_NULL\0"
GAS LISTING C:\Users\PRESID~1\AppData\Local\Temp\ccPJOK5j.s 			page 136


 4566      65645F4E 
 4566      554C4C00 
 4567 292f 04       		.byte	0x4
 4568 2930 01       		.byte	0x1
 4569 2931 C001     		.uleb128 0xc0
 4570 2933 5F575354 		.ascii "_WSTRING_DEFINED \0"
 4570      52494E47 
 4570      5F444546 
 4570      494E4544 
 4570      2000
 4571 2945 04       		.byte	0x4
 4572              		.file 10 "d:/programm/mingw/include/time.h"
 4573 2946 03       		.byte	0x3
 4574 2947 31       		.uleb128 0x31
 4575 2948 0A       		.uleb128 0xa
 4576 2949 01       		.byte	0x1
 4577 294a 21       		.uleb128 0x21
 4578 294b 5F54494D 		.ascii "_TIME_H \0"
 4578      455F4820 
 4578      00
 4579 2954 01       		.byte	0x1
 4580 2955 29       		.uleb128 0x29
 4581 2956 434C4F43 		.ascii "CLOCKS_PER_SEC ((clock_t)(1000))\0"
 4581      4B535F50 
 4581      45525F53 
 4581      45432028 
 4581      28636C6F 
 4582 2977 01       		.byte	0x1
 4583 2978 2A       		.uleb128 0x2a
 4584 2979 434C4B5F 		.ascii "CLK_TCK CLOCKS_PER_SEC\0"
 4584      54434B20 
 4584      434C4F43 
 4584      4B535F50 
 4584      45525F53 
 4585 2990 01       		.byte	0x1
 4586 2991 33       		.uleb128 0x33
 4587 2992 5F5F6E65 		.ascii "__need_time_t \0"
 4587      65645F74 
 4587      696D655F 
 4587      742000
 4588 29a1 01       		.byte	0x1
 4589 29a2 34       		.uleb128 0x34
 4590 29a3 5F5F6E65 		.ascii "__need_struct_timespec \0"
 4590      65645F73 
 4590      74727563 
 4590      745F7469 
 4590      6D657370 
 4591 29bb 03       		.byte	0x3
 4592 29bc 35       		.uleb128 0x35
 4593 29bd 03       		.uleb128 0x3
 4594 29be 01       		.byte	0x1
 4595 29bf 57       		.uleb128 0x57
 4596 29c0 5F5F6861 		.ascii "__have_typedef_time_t 1\0"
 4596      76655F74 
 4596      79706564 
 4596      65665F74 
 4596      696D655F 
GAS LISTING C:\Users\PRESID~1\AppData\Local\Temp\ccPJOK5j.s 			page 137


 4597 29d8 01       		.byte	0x1
 4598 29d9 79       		.uleb128 0x79
 4599 29da 5F5F7374 		.ascii "__struct_timespec_defined 1\0"
 4599      72756374 
 4599      5F74696D 
 4599      65737065 
 4599      635F6465 
 4600 29f6 04       		.byte	0x4
 4601 29f7 01       		.byte	0x1
 4602 29f8 3A       		.uleb128 0x3a
 4603 29f9 5F5F6E65 		.ascii "__need_NULL \0"
 4603      65645F4E 
 4603      554C4C20 
 4603      00
 4604 2a06 01       		.byte	0x1
 4605 2a07 3B       		.uleb128 0x3b
 4606 2a08 5F5F6E65 		.ascii "__need_wchar_t \0"
 4606      65645F77 
 4606      63686172 
 4606      5F742000 
 4607 2a18 01       		.byte	0x1
 4608 2a19 3C       		.uleb128 0x3c
 4609 2a1a 5F5F6E65 		.ascii "__need_size_t \0"
 4609      65645F73 
 4609      697A655F 
 4609      742000
 4610 2a29 03       		.byte	0x3
 4611 2a2a 3D       		.uleb128 0x3d
 4612 2a2b 06       		.uleb128 0x6
 4613 2a2c 02       		.byte	0x2
 4614 2a2d EA01     		.uleb128 0xea
 4615 2a2f 5F5F6E65 		.ascii "__need_size_t\0"
 4615      65645F73 
 4615      697A655F 
 4615      7400
 4616 2a3d 02       		.byte	0x2
 4617 2a3e D702     		.uleb128 0x157
 4618 2a40 5F5F6E65 		.ascii "__need_wchar_t\0"
 4618      65645F77 
 4618      63686172 
 4618      5F7400
 4619 2a4f 02       		.byte	0x2
 4620 2a50 8D03     		.uleb128 0x18d
 4621 2a52 4E554C4C 		.ascii "NULL\0"
 4621      00
 4622 2a57 01       		.byte	0x1
 4623 2a58 9203     		.uleb128 0x192
 4624 2a5a 4E554C4C 		.ascii "NULL ((void *)0)\0"
 4624      20282876 
 4624      6F696420 
 4624      2A293029 
 4624      00
 4625 2a6b 02       		.byte	0x2
 4626 2a6c 9803     		.uleb128 0x198
 4627 2a6e 5F5F6E65 		.ascii "__need_NULL\0"
 4627      65645F4E 
 4627      554C4C00 
GAS LISTING C:\Users\PRESID~1\AppData\Local\Temp\ccPJOK5j.s 			page 138


 4628 2a7a 04       		.byte	0x4
 4629 2a7b 01       		.byte	0x1
 4630 2a7c 56       		.uleb128 0x56
 4631 2a7d 5F544D5F 		.ascii "_TM_DEFINED \0"
 4631      44454649 
 4631      4E454420 
 4631      00
 4632 2a8a 01       		.byte	0x1
 4633 2a8b 8202     		.uleb128 0x102
 4634 2a8d 5F575449 		.ascii "_WTIME_DEFINED \0"
 4634      4D455F44 
 4634      4546494E 
 4634      45442000 
 4635 2a9d 04       		.byte	0x4
 4636 2a9e 01       		.byte	0x1
 4637 2a9f 38       		.uleb128 0x38
 4638 2aa0 53505554 		.ascii "SPUT_VERSION_MAJOR 1\0"
 4638      5F564552 
 4638      53494F4E 
 4638      5F4D414A 
 4638      4F522031 
 4639 2ab5 01       		.byte	0x1
 4640 2ab6 39       		.uleb128 0x39
 4641 2ab7 53505554 		.ascii "SPUT_VERSION_MINOR 4\0"
 4641      5F564552 
 4641      53494F4E 
 4641      5F4D494E 
 4641      4F522034 
 4642 2acc 01       		.byte	0x1
 4643 2acd 3A       		.uleb128 0x3a
 4644 2ace 53505554 		.ascii "SPUT_VERSION_PATCH 0\0"
 4644      5F564552 
 4644      53494F4E 
 4644      5F504154 
 4644      43482030 
 4645 2ae3 01       		.byte	0x1
 4646 2ae4 3B       		.uleb128 0x3b
 4647 2ae5 53505554 		.ascii "SPUT_VERSION_STRING \"1.4.0\"\0"
 4647      5F564552 
 4647      53494F4E 
 4647      5F535452 
 4647      494E4720 
 4648 2b01 01       		.byte	0x1
 4649 2b02 3D       		.uleb128 0x3d
 4650 2b03 53505554 		.ascii "SPUT_DEFAULT_SUITE_NAME \"Unlabeled Suite\"\0"
 4650      5F444546 
 4650      41554C54 
 4650      5F535549 
 4650      54455F4E 
 4651 2b2d 01       		.byte	0x1
 4652 2b2e 3E       		.uleb128 0x3e
 4653 2b2f 53505554 		.ascii "SPUT_DEFAULT_CHECK_NAME \"Unlabeled Check\"\0"
 4653      5F444546 
 4653      41554C54 
 4653      5F434845 
 4653      434B5F4E 
 4654 2b59 01       		.byte	0x1
GAS LISTING C:\Users\PRESID~1\AppData\Local\Temp\ccPJOK5j.s 			page 139


 4655 2b5a 40       		.uleb128 0x40
 4656 2b5b 53505554 		.ascii "SPUT_INITIALIZED 0x06\0"
 4656      5F494E49 
 4656      5449414C 
 4656      495A4544 
 4656      20307830 
 4657 2b71 01       		.byte	0x1
 4658 2b72 77       		.uleb128 0x77
 4659 2b73 5F737075 		.ascii "_sput_die_unless_initialized() if (__sput.initialized != SPUT_INITIALIZED) { fputs(\"sput_
 4659      745F6469 
 4659      655F756E 
 4659      6C657373 
 4659      5F696E69 
 4660 2c07 01       		.byte	0x1
 4661 2c08 7F       		.uleb128 0x7f
 4662 2c09 5F737075 		.ascii "_sput_die_unless_suite_set() if (! __sput.suite.name) { fputs(\"sput_enter_suite() omitted
 4662      745F6469 
 4662      655F756E 
 4662      6C657373 
 4662      5F737569 
 4663 2c8a 01       		.byte	0x1
 4664 2c8b 8701     		.uleb128 0x87
 4665 2c8d 5F737075 		.ascii "_sput_die_unless_test_set() if (! __sput.test.name) { fputs(\"sput_run_test() omitted\\n\"
 4665      745F6469 
 4665      655F756E 
 4665      6C657373 
 4665      5F746573 
 4666 2d09 01       		.byte	0x1
 4667 2d0a 8F01     		.uleb128 0x8f
 4668 2d0c 5F737075 		.ascii "_sput_check_failed() { _sput_die_unless_initialized(); _sput_die_unless_suite_set(); __spu
 4668      745F6368 
 4668      65636B5F 
 4668      6661696C 
 4668      65642829 
 4669 2e8c 01       		.byte	0x1
 4670 2e8d 9F01     		.uleb128 0x9f
 4671 2e8f 5F737075 		.ascii "_sput_check_succeeded() { _sput_die_unless_initialized(); _sput_die_unless_suite_set(); __
 4671      745F6368 
 4671      65636B5F 
 4671      73756363 
 4671      65656465 
 4672 2f92 01       		.byte	0x1
 4673 2f93 B101     		.uleb128 0xb1
 4674 2f95 73707574 		.ascii "sput_start_testing() do { memset(&__sput, 0, sizeof(__sput)); __sput.out = stdout; __sput.
 4674      5F737461 
 4674      72745F74 
 4674      65737469 
 4674      6E672829 
 4675 303b 01       		.byte	0x1
 4676 303c BA01     		.uleb128 0xba
 4677 303e 73707574 		.ascii "sput_leave_suite() do { float failpls = 0.0f; _sput_die_unless_initialized(); _sput_die_un
 4677      5F6C6561 
 4677      76655F73 
 4677      75697465 
 4677      28292064 
 4678 3250 01       		.byte	0x1
 4679 3251 CD01     		.uleb128 0xcd
GAS LISTING C:\Users\PRESID~1\AppData\Local\Temp\ccPJOK5j.s 			page 140


 4680 3253 73707574 		.ascii "sput_get_return_value() (__sput.overall.nok > 0 ? EXIT_FAILURE : EXIT_SUCCESS)\0"
 4680      5F676574 
 4680      5F726574 
 4680      75726E5F 
 4680      76616C75 
 4681 32a2 01       		.byte	0x1
 4682 32a3 D101     		.uleb128 0xd1
 4683 32a5 73707574 		.ascii "sput_enter_suite(_name) do { _sput_die_unless_initialized(); if (__sput.suite.name) { sput
 4683      5F656E74 
 4683      65725F73 
 4683      75697465 
 4683      285F6E61 
 4684 33f1 01       		.byte	0x1
 4685 33f2 E001     		.uleb128 0xe0
 4686 33f4 73707574 		.ascii "sput_finish_testing() do { float failpft = 0.0f; _sput_die_unless_initialized(); if (__spu
 4686      5F66696E 
 4686      6973685F 
 4686      74657374 
 4686      696E6728 
 4687 366b 01       		.byte	0x1
 4688 366c F901     		.uleb128 0xf9
 4689 366e 73707574 		.ascii "sput_set_output_stream(_fp) do { __sput.out = _fp != NULL ? _fp : stdout; } while (0)\0"
 4689      5F736574 
 4689      5F6F7574 
 4689      7075745F 
 4689      73747265 
 4690 36c4 01       		.byte	0x1
 4691 36c5 FF01     		.uleb128 0xff
 4692 36c7 73707574 		.ascii "sput_fail_if(_cond,_name) do { _sput_die_unless_initialized(); _sput_die_unless_suite_set(
 4692      5F666169 
 4692      6C5F6966 
 4692      285F636F 
 4692      6E642C5F 
 4693 385d 01       		.byte	0x1
 4694 385e 9602     		.uleb128 0x116
 4695 3860 73707574 		.ascii "sput_fail_unless(_cond,_name) do { _sput_die_unless_initialized(); _sput_die_unless_suite_
 4695      5F666169 
 4695      6C5F756E 
 4695      6C657373 
 4695      285F636F 
 4696 3a00 01       		.byte	0x1
 4697 3a01 AD02     		.uleb128 0x12d
 4698 3a03 73707574 		.ascii "sput_run_test(_func) do { _sput_die_unless_initialized(); _sput_die_unless_suite_set(); me
 4698      5F72756E 
 4698      5F746573 
 4698      74285F66 
 4698      756E6329 
 4699 3ab9 04       		.byte	0x4
 4700 3aba 04       		.byte	0x4
 4701 3abb 00       		.byte	0
 4702              		.section	.debug_line,"dr"
 4703              	Ldebug_line0:
 4704 0000 31070000 		.section	.debug_str,"dr"
 4704      02008401 
 4704      00000101 
 4704      FB0E0D00 
 4704      01010101 
GAS LISTING C:\Users\PRESID~1\AppData\Local\Temp\ccPJOK5j.s 			page 141


 4705              	LASF0:
 4706 0000 6661696C 		.ascii "failpls\0"
 4706      706C7300 
 4707              		.ident	"GCC: (GNU) 4.9.3"
GAS LISTING C:\Users\PRESID~1\AppData\Local\Temp\ccPJOK5j.s 			page 142


DEFINED SYMBOLS
                            *ABS*:00000000 os_init_task_system_test.c
C:\Users\PRESID~1\AppData\Local\Temp\ccPJOK5j.s:5      .text:00000000 _fprintf
C:\Users\PRESID~1\AppData\Local\Temp\ccPJOK5j.s:42     .bss:00000000 ___sput
C:\Users\PRESID~1\AppData\Local\Temp\ccPJOK5j.s:44     .text:00000030 _count_vowels
C:\Users\PRESID~1\AppData\Local\Temp\ccPJOK5j.s:157    .text:00000086 _test_vowels_present
C:\Users\PRESID~1\AppData\Local\Temp\ccPJOK5j.s:1055   .text:00000e89 _test_no_vowels_present
C:\Users\PRESID~1\AppData\Local\Temp\ccPJOK5j.s:1948   .text:00001c87 _main

UNDEFINED SYMBOLS
__imp___iob
___main
___mingw_vfprintf
_fwrite
_exit
_memset
_time
_difftime
