GAS LISTING C:\Users\PRESID~1\AppData\Local\Temp\ccPJOK5j.s 			page 1


   1              		.file	"os_init_task_system_test.c"
   2              		.text
   3              	Ltext0:
   5              	_fprintf:
   6              	LFB0:
   7              		.file 1 "d:/programm/mingw/include/stdio.h"
   1:d:/programm/mingw/include\stdio.h **** /*
   2:d:/programm/mingw/include\stdio.h ****  * stdio.h
   3:d:/programm/mingw/include\stdio.h ****  * This file has no copyright assigned and is placed in the Public Domain.
   4:d:/programm/mingw/include\stdio.h ****  * This file is a part of the mingw-runtime package.
   5:d:/programm/mingw/include\stdio.h ****  * No warranty is given; refer to the file DISCLAIMER within the package.
   6:d:/programm/mingw/include\stdio.h ****  *
   7:d:/programm/mingw/include\stdio.h ****  * Definitions of types and prototypes of functions for standard input and
   8:d:/programm/mingw/include\stdio.h ****  * output.
   9:d:/programm/mingw/include\stdio.h ****  *
  10:d:/programm/mingw/include\stdio.h ****  * NOTE: The file manipulation functions provided by Microsoft seem to
  11:d:/programm/mingw/include\stdio.h ****  * work with either slash (/) or backslash (\) as the directory separator.
  12:d:/programm/mingw/include\stdio.h ****  *
  13:d:/programm/mingw/include\stdio.h ****  */
  14:d:/programm/mingw/include\stdio.h **** 
  15:d:/programm/mingw/include\stdio.h **** #ifndef _STDIO_H_
  16:d:/programm/mingw/include\stdio.h **** #define	_STDIO_H_
  17:d:/programm/mingw/include\stdio.h **** 
  18:d:/programm/mingw/include\stdio.h **** /* All the headers include this file. */
  19:d:/programm/mingw/include\stdio.h **** #include <_mingw.h>
  20:d:/programm/mingw/include\stdio.h **** 
  21:d:/programm/mingw/include\stdio.h **** #ifndef RC_INVOKED
  22:d:/programm/mingw/include\stdio.h **** #define __need_size_t
  23:d:/programm/mingw/include\stdio.h **** #define __need_NULL
  24:d:/programm/mingw/include\stdio.h **** #define __need_wchar_t
  25:d:/programm/mingw/include\stdio.h **** #define	__need_wint_t
  26:d:/programm/mingw/include\stdio.h **** #include <stddef.h>
  27:d:/programm/mingw/include\stdio.h **** #define __need___va_list
  28:d:/programm/mingw/include\stdio.h **** #include <stdarg.h>
  29:d:/programm/mingw/include\stdio.h **** #endif	/* Not RC_INVOKED */
  30:d:/programm/mingw/include\stdio.h **** 
  31:d:/programm/mingw/include\stdio.h **** 
  32:d:/programm/mingw/include\stdio.h **** /* Flags for the iobuf structure  */
  33:d:/programm/mingw/include\stdio.h **** #define	_IOREAD	1 /* currently reading */
  34:d:/programm/mingw/include\stdio.h **** #define	_IOWRT	2 /* currently writing */
  35:d:/programm/mingw/include\stdio.h **** #define	_IORW	0x0080 /* opened as "r+w" */
  36:d:/programm/mingw/include\stdio.h **** 
  37:d:/programm/mingw/include\stdio.h **** 
  38:d:/programm/mingw/include\stdio.h **** /*
  39:d:/programm/mingw/include\stdio.h ****  * The three standard file pointers provided by the run time library.
  40:d:/programm/mingw/include\stdio.h ****  * NOTE: These will go to the bit-bucket silently in GUI applications!
  41:d:/programm/mingw/include\stdio.h ****  */
  42:d:/programm/mingw/include\stdio.h **** #define	STDIN_FILENO	0
  43:d:/programm/mingw/include\stdio.h **** #define	STDOUT_FILENO	1
  44:d:/programm/mingw/include\stdio.h **** #define	STDERR_FILENO	2
  45:d:/programm/mingw/include\stdio.h **** 
  46:d:/programm/mingw/include\stdio.h **** /* Returned by various functions on end of file condition or error. */
  47:d:/programm/mingw/include\stdio.h **** #define	EOF	(-1)
  48:d:/programm/mingw/include\stdio.h **** 
  49:d:/programm/mingw/include\stdio.h **** /*
  50:d:/programm/mingw/include\stdio.h ****  * The maximum length of a file name. You should use GetVolumeInformation
  51:d:/programm/mingw/include\stdio.h ****  * instead of this constant. But hey, this works.
GAS LISTING C:\Users\PRESID~1\AppData\Local\Temp\ccPJOK5j.s 			page 2


  52:d:/programm/mingw/include\stdio.h ****  * Also defined in io.h.
  53:d:/programm/mingw/include\stdio.h ****  */
  54:d:/programm/mingw/include\stdio.h **** #ifndef FILENAME_MAX
  55:d:/programm/mingw/include\stdio.h **** #define	FILENAME_MAX	(260)
  56:d:/programm/mingw/include\stdio.h **** #endif
  57:d:/programm/mingw/include\stdio.h **** 
  58:d:/programm/mingw/include\stdio.h **** /*
  59:d:/programm/mingw/include\stdio.h ****  * The maximum number of files that may be open at once. I have set this to
  60:d:/programm/mingw/include\stdio.h ****  * a conservative number. The actual value may be higher.
  61:d:/programm/mingw/include\stdio.h ****  */
  62:d:/programm/mingw/include\stdio.h **** #define FOPEN_MAX	(20)
  63:d:/programm/mingw/include\stdio.h **** 
  64:d:/programm/mingw/include\stdio.h **** /* After creating this many names, tmpnam and tmpfile return NULL */
  65:d:/programm/mingw/include\stdio.h **** #define TMP_MAX	32767
  66:d:/programm/mingw/include\stdio.h **** /*
  67:d:/programm/mingw/include\stdio.h ****  * Tmpnam, tmpfile and, sometimes, _tempnam try to create
  68:d:/programm/mingw/include\stdio.h ****  * temp files in the root directory of the current drive
  69:d:/programm/mingw/include\stdio.h ****  * (not in pwd, as suggested by some older MS doc's).
  70:d:/programm/mingw/include\stdio.h ****  * Redefining these macros does not effect the CRT functions.
  71:d:/programm/mingw/include\stdio.h ****  */
  72:d:/programm/mingw/include\stdio.h **** #define _P_tmpdir   "\\"
  73:d:/programm/mingw/include\stdio.h **** #ifndef __STRICT_ANSI__
  74:d:/programm/mingw/include\stdio.h **** #define P_tmpdir _P_tmpdir
  75:d:/programm/mingw/include\stdio.h **** #endif
  76:d:/programm/mingw/include\stdio.h **** #define _wP_tmpdir  L"\\"
  77:d:/programm/mingw/include\stdio.h **** 
  78:d:/programm/mingw/include\stdio.h **** /*
  79:d:/programm/mingw/include\stdio.h ****  * The maximum size of name (including NUL) that will be put in the user
  80:d:/programm/mingw/include\stdio.h ****  * supplied buffer caName for tmpnam.
  81:d:/programm/mingw/include\stdio.h ****  * Inferred from the size of the static buffer returned by tmpnam
  82:d:/programm/mingw/include\stdio.h ****  * when passed a NULL argument. May actually be smaller.
  83:d:/programm/mingw/include\stdio.h ****  */
  84:d:/programm/mingw/include\stdio.h **** #define L_tmpnam (16)
  85:d:/programm/mingw/include\stdio.h **** 
  86:d:/programm/mingw/include\stdio.h **** #define _IOFBF    0x0000  /* full buffered */
  87:d:/programm/mingw/include\stdio.h **** #define _IOLBF    0x0040  /* line buffered */
  88:d:/programm/mingw/include\stdio.h **** #define _IONBF    0x0004  /* not buffered */
  89:d:/programm/mingw/include\stdio.h **** 
  90:d:/programm/mingw/include\stdio.h **** #define _IOMYBUF  0x0008  /* stdio malloc()'d buffer */
  91:d:/programm/mingw/include\stdio.h **** #define _IOEOF    0x0010  /* EOF reached on read */
  92:d:/programm/mingw/include\stdio.h **** #define _IOERR    0x0020  /* I/O error from system */
  93:d:/programm/mingw/include\stdio.h **** #define _IOSTRG   0x0040  /* Strange or no file descriptor */
  94:d:/programm/mingw/include\stdio.h **** #ifdef _POSIX_SOURCE
  95:d:/programm/mingw/include\stdio.h **** # define _IOAPPEND 0x0200
  96:d:/programm/mingw/include\stdio.h **** #endif
  97:d:/programm/mingw/include\stdio.h **** /*
  98:d:/programm/mingw/include\stdio.h ****  * The buffer size as used by setbuf such that it is equivalent to
  99:d:/programm/mingw/include\stdio.h ****  * (void) setvbuf(fileSetBuffer, caBuffer, _IOFBF, BUFSIZ).
 100:d:/programm/mingw/include\stdio.h ****  */
 101:d:/programm/mingw/include\stdio.h **** #define	BUFSIZ	512
 102:d:/programm/mingw/include\stdio.h **** 
 103:d:/programm/mingw/include\stdio.h **** /* Constants for nOrigin indicating the position relative to which fseek
 104:d:/programm/mingw/include\stdio.h ****  * sets the file position.  Defined unconditionally since ISO and POSIX
 105:d:/programm/mingw/include\stdio.h ****  * say they are defined here.
 106:d:/programm/mingw/include\stdio.h ****  */
 107:d:/programm/mingw/include\stdio.h **** #define SEEK_SET  0
 108:d:/programm/mingw/include\stdio.h **** #define SEEK_CUR  1
GAS LISTING C:\Users\PRESID~1\AppData\Local\Temp\ccPJOK5j.s 			page 3


 109:d:/programm/mingw/include\stdio.h **** #define SEEK_END  2
 110:d:/programm/mingw/include\stdio.h **** 
 111:d:/programm/mingw/include\stdio.h **** #ifndef	RC_INVOKED
 112:d:/programm/mingw/include\stdio.h **** 
 113:d:/programm/mingw/include\stdio.h **** #ifndef __VALIST
 114:d:/programm/mingw/include\stdio.h **** #ifdef __GNUC__
 115:d:/programm/mingw/include\stdio.h **** #define __VALIST __gnuc_va_list
 116:d:/programm/mingw/include\stdio.h **** #else
 117:d:/programm/mingw/include\stdio.h **** #define __VALIST char*
 118:d:/programm/mingw/include\stdio.h **** #endif
 119:d:/programm/mingw/include\stdio.h **** #endif /* defined __VALIST  */
 120:d:/programm/mingw/include\stdio.h **** 
 121:d:/programm/mingw/include\stdio.h **** /*
 122:d:/programm/mingw/include\stdio.h ****  * The structure underlying the FILE type.
 123:d:/programm/mingw/include\stdio.h ****  *
 124:d:/programm/mingw/include\stdio.h ****  * Some believe that nobody in their right mind should make use of the
 125:d:/programm/mingw/include\stdio.h ****  * internals of this structure. Provided by Pedro A. Aranda Gutiirrez
 126:d:/programm/mingw/include\stdio.h ****  * <paag@tid.es>.
 127:d:/programm/mingw/include\stdio.h ****  */
 128:d:/programm/mingw/include\stdio.h **** #ifndef _FILE_DEFINED
 129:d:/programm/mingw/include\stdio.h **** #define	_FILE_DEFINED
 130:d:/programm/mingw/include\stdio.h **** typedef struct _iobuf
 131:d:/programm/mingw/include\stdio.h **** {
 132:d:/programm/mingw/include\stdio.h **** 	char*	_ptr;
 133:d:/programm/mingw/include\stdio.h **** 	int	_cnt;
 134:d:/programm/mingw/include\stdio.h **** 	char*	_base;
 135:d:/programm/mingw/include\stdio.h **** 	int	_flag;
 136:d:/programm/mingw/include\stdio.h **** 	int	_file;
 137:d:/programm/mingw/include\stdio.h **** 	int	_charbuf;
 138:d:/programm/mingw/include\stdio.h **** 	int	_bufsiz;
 139:d:/programm/mingw/include\stdio.h **** 	char*	_tmpfname;
 140:d:/programm/mingw/include\stdio.h **** } FILE;
 141:d:/programm/mingw/include\stdio.h **** #endif	/* Not _FILE_DEFINED */
 142:d:/programm/mingw/include\stdio.h **** 
 143:d:/programm/mingw/include\stdio.h **** 
 144:d:/programm/mingw/include\stdio.h **** /*
 145:d:/programm/mingw/include\stdio.h ****  * The standard file handles
 146:d:/programm/mingw/include\stdio.h ****  */
 147:d:/programm/mingw/include\stdio.h **** #ifndef __DECLSPEC_SUPPORTED
 148:d:/programm/mingw/include\stdio.h **** 
 149:d:/programm/mingw/include\stdio.h **** extern FILE (*_imp___iob)[];	/* A pointer to an array of FILE */
 150:d:/programm/mingw/include\stdio.h **** 
 151:d:/programm/mingw/include\stdio.h **** #define _iob	(*_imp___iob)	/* An array of FILE */
 152:d:/programm/mingw/include\stdio.h **** 
 153:d:/programm/mingw/include\stdio.h **** #else /* __DECLSPEC_SUPPORTED */
 154:d:/programm/mingw/include\stdio.h **** 
 155:d:/programm/mingw/include\stdio.h **** __MINGW_IMPORT FILE _iob[];	/* An array of FILE imported from DLL. */
 156:d:/programm/mingw/include\stdio.h **** 
 157:d:/programm/mingw/include\stdio.h **** #endif /* __DECLSPEC_SUPPORTED */
 158:d:/programm/mingw/include\stdio.h **** 
 159:d:/programm/mingw/include\stdio.h **** #define stdin	(&_iob[STDIN_FILENO])
 160:d:/programm/mingw/include\stdio.h **** #define stdout	(&_iob[STDOUT_FILENO])
 161:d:/programm/mingw/include\stdio.h **** #define stderr	(&_iob[STDERR_FILENO])
 162:d:/programm/mingw/include\stdio.h **** 
 163:d:/programm/mingw/include\stdio.h **** _BEGIN_C_DECLS
 164:d:/programm/mingw/include\stdio.h **** 
 165:d:/programm/mingw/include\stdio.h **** /*
GAS LISTING C:\Users\PRESID~1\AppData\Local\Temp\ccPJOK5j.s 			page 4


 166:d:/programm/mingw/include\stdio.h ****  * File Operations
 167:d:/programm/mingw/include\stdio.h ****  */
 168:d:/programm/mingw/include\stdio.h **** _CRTIMP FILE* __cdecl __MINGW_NOTHROW	fopen (const char*, const char*);
 169:d:/programm/mingw/include\stdio.h **** _CRTIMP FILE* __cdecl __MINGW_NOTHROW	freopen (const char*, const char*, FILE*);
 170:d:/programm/mingw/include\stdio.h **** _CRTIMP int __cdecl __MINGW_NOTHROW	fflush (FILE*);
 171:d:/programm/mingw/include\stdio.h **** _CRTIMP int __cdecl __MINGW_NOTHROW	fclose (FILE*);
 172:d:/programm/mingw/include\stdio.h **** /* MS puts remove & rename (but not wide versions) in io.h  also */
 173:d:/programm/mingw/include\stdio.h **** _CRTIMP int __cdecl __MINGW_NOTHROW	remove (const char*);
 174:d:/programm/mingw/include\stdio.h **** _CRTIMP int __cdecl __MINGW_NOTHROW	rename (const char*, const char*);
 175:d:/programm/mingw/include\stdio.h **** _CRTIMP FILE* __cdecl __MINGW_NOTHROW	tmpfile (void);
 176:d:/programm/mingw/include\stdio.h **** _CRTIMP char* __cdecl __MINGW_NOTHROW	tmpnam (char*);
 177:d:/programm/mingw/include\stdio.h **** 
 178:d:/programm/mingw/include\stdio.h **** #ifndef __STRICT_ANSI__
 179:d:/programm/mingw/include\stdio.h **** _CRTIMP char* __cdecl __MINGW_NOTHROW	_tempnam (const char*, const char*);
 180:d:/programm/mingw/include\stdio.h **** _CRTIMP int __cdecl __MINGW_NOTHROW	_rmtmp(void);
 181:d:/programm/mingw/include\stdio.h **** _CRTIMP int __cdecl __MINGW_NOTHROW	_unlink (const char*);
 182:d:/programm/mingw/include\stdio.h **** 
 183:d:/programm/mingw/include\stdio.h **** #ifndef	NO_OLDNAMES
 184:d:/programm/mingw/include\stdio.h **** _CRTIMP char* __cdecl __MINGW_NOTHROW	tempnam (const char*, const char*);
 185:d:/programm/mingw/include\stdio.h **** _CRTIMP int __cdecl __MINGW_NOTHROW	rmtmp(void);
 186:d:/programm/mingw/include\stdio.h **** _CRTIMP int __cdecl __MINGW_NOTHROW	unlink (const char*);
 187:d:/programm/mingw/include\stdio.h **** #endif
 188:d:/programm/mingw/include\stdio.h **** #endif /* __STRICT_ANSI__ */
 189:d:/programm/mingw/include\stdio.h **** 
 190:d:/programm/mingw/include\stdio.h **** _CRTIMP int __cdecl __MINGW_NOTHROW	setvbuf (FILE*, char*, int, size_t);
 191:d:/programm/mingw/include\stdio.h **** 
 192:d:/programm/mingw/include\stdio.h **** _CRTIMP void __cdecl __MINGW_NOTHROW	setbuf (FILE*, char*);
 193:d:/programm/mingw/include\stdio.h **** 
 194:d:/programm/mingw/include\stdio.h **** /*
 195:d:/programm/mingw/include\stdio.h ****  * Formatted Output
 196:d:/programm/mingw/include\stdio.h ****  *
 197:d:/programm/mingw/include\stdio.h ****  * MSVCRT implementations are not ANSI C99 conformant...
 198:d:/programm/mingw/include\stdio.h ****  * we offer these conforming alternatives from libmingwex.a
 199:d:/programm/mingw/include\stdio.h ****  */
 200:d:/programm/mingw/include\stdio.h **** #undef  __mingw_stdio_redirect__
 201:d:/programm/mingw/include\stdio.h **** #define __mingw_stdio_redirect__(F) __cdecl __MINGW_NOTHROW __mingw_##F
 202:d:/programm/mingw/include\stdio.h **** 
 203:d:/programm/mingw/include\stdio.h **** extern int __mingw_stdio_redirect__(fprintf)(FILE*, const char*, ...);
 204:d:/programm/mingw/include\stdio.h **** extern int __mingw_stdio_redirect__(printf)(const char*, ...);
 205:d:/programm/mingw/include\stdio.h **** extern int __mingw_stdio_redirect__(sprintf)(char*, const char*, ...);
 206:d:/programm/mingw/include\stdio.h **** extern int __mingw_stdio_redirect__(snprintf)(char*, size_t, const char*, ...);
 207:d:/programm/mingw/include\stdio.h **** extern int __mingw_stdio_redirect__(vfprintf)(FILE*, const char*, __VALIST);
 208:d:/programm/mingw/include\stdio.h **** extern int __mingw_stdio_redirect__(vprintf)(const char*, __VALIST);
 209:d:/programm/mingw/include\stdio.h **** extern int __mingw_stdio_redirect__(vsprintf)(char*, const char*, __VALIST);
 210:d:/programm/mingw/include\stdio.h **** extern int __mingw_stdio_redirect__(vsnprintf)(char*, size_t, const char*, __VALIST);
 211:d:/programm/mingw/include\stdio.h **** 
 212:d:/programm/mingw/include\stdio.h **** #if __USE_MINGW_ANSI_STDIO
 213:d:/programm/mingw/include\stdio.h **** /*
 214:d:/programm/mingw/include\stdio.h ****  * User has expressed a preference for C99 conformance...
 215:d:/programm/mingw/include\stdio.h ****  */
 216:d:/programm/mingw/include\stdio.h **** # undef __mingw_stdio_redirect__
 217:d:/programm/mingw/include\stdio.h **** # ifdef __cplusplus
 218:d:/programm/mingw/include\stdio.h **** /*
 219:d:/programm/mingw/include\stdio.h ****  * For C++ we use inline implementations, to avoid interference
 220:d:/programm/mingw/include\stdio.h ****  * with namespace qualification, which may result from using #defines.
 221:d:/programm/mingw/include\stdio.h ****  */
 222:d:/programm/mingw/include\stdio.h **** #  define __mingw_stdio_redirect__  inline __cdecl __MINGW_NOTHROW
GAS LISTING C:\Users\PRESID~1\AppData\Local\Temp\ccPJOK5j.s 			page 5


 223:d:/programm/mingw/include\stdio.h **** 
 224:d:/programm/mingw/include\stdio.h **** # elif defined __GNUC__
 225:d:/programm/mingw/include\stdio.h **** /*
 226:d:/programm/mingw/include\stdio.h ****  * FIXME: Is there any GCC version prerequisite here?
 227:d:/programm/mingw/include\stdio.h ****  *
 228:d:/programm/mingw/include\stdio.h ****  * We also prefer inline implementations for C, when we can be confident
 229:d:/programm/mingw/include\stdio.h ****  * that the GNU specific __inline__ mechanism is supported.
 230:d:/programm/mingw/include\stdio.h ****  */
 231:d:/programm/mingw/include\stdio.h **** #  define __mingw_stdio_redirect__  static __inline__ __cdecl __MINGW_NOTHROW
 232:d:/programm/mingw/include\stdio.h **** 
 233:d:/programm/mingw/include\stdio.h **** # else
 234:d:/programm/mingw/include\stdio.h **** /*
 235:d:/programm/mingw/include\stdio.h ****  * Can't use inlines; fall back on module local static stubs.
 236:d:/programm/mingw/include\stdio.h ****  */
 237:d:/programm/mingw/include\stdio.h **** #  define __mingw_stdio_redirect__  static __cdecl __MINGW_NOTHROW
 238:d:/programm/mingw/include\stdio.h **** # endif
 239:d:/programm/mingw/include\stdio.h **** 
 240:d:/programm/mingw/include\stdio.h **** __mingw_stdio_redirect__
 241:d:/programm/mingw/include\stdio.h **** int fprintf (FILE *__stream, const char *__format, ...)
 242:d:/programm/mingw/include\stdio.h **** {
   8              		.loc 1 242 0
   9              		.cfi_startproc
  10 0000 55       		pushl	%ebp
  11              		.cfi_def_cfa_offset 8
  12              		.cfi_offset 5, -8
  13 0001 89E5     		movl	%esp, %ebp
  14              		.cfi_def_cfa_register 5
  15 0003 53       		pushl	%ebx
  16 0004 83EC24   		subl	$36, %esp
  17              		.cfi_offset 3, -12
 243:d:/programm/mingw/include\stdio.h ****   register int __retval;
 244:d:/programm/mingw/include\stdio.h ****   __builtin_va_list __local_argv; __builtin_va_start( __local_argv, __format );
  18              		.loc 1 244 0
  19 0007 8D4510   		leal	16(%ebp), %eax
  20 000a 8945F4   		movl	%eax, -12(%ebp)
 245:d:/programm/mingw/include\stdio.h ****   __retval = __mingw_vfprintf( __stream, __format, __local_argv );
  21              		.loc 1 245 0
  22 000d 8B45F4   		movl	-12(%ebp), %eax
  23 0010 89442408 		movl	%eax, 8(%esp)
  24 0014 8B450C   		movl	12(%ebp), %eax
  25 0017 89442404 		movl	%eax, 4(%esp)
  26 001b 8B4508   		movl	8(%ebp), %eax
  27 001e 890424   		movl	%eax, (%esp)
  28 0021 E8000000 		call	___mingw_vfprintf
  28      00
  29 0026 89C3     		movl	%eax, %ebx
 246:d:/programm/mingw/include\stdio.h ****   __builtin_va_end( __local_argv );
 247:d:/programm/mingw/include\stdio.h ****   return __retval;
  30              		.loc 1 247 0
  31 0028 89D8     		movl	%ebx, %eax
 248:d:/programm/mingw/include\stdio.h **** }
  32              		.loc 1 248 0
  33 002a 83C424   		addl	$36, %esp
  34 002d 5B       		popl	%ebx
  35              		.cfi_restore 3
  36 002e 5D       		popl	%ebp
  37              		.cfi_restore 5
GAS LISTING C:\Users\PRESID~1\AppData\Local\Temp\ccPJOK5j.s 			page 6


  38              		.cfi_def_cfa 4, 4
  39 002f C3       		ret
  40              		.cfi_endproc
  41              	LFE0:
  42              	.lcomm ___sput,76,32
  44              	_count_vowels:
  45              	LFB10:
  46              		.file 2 "E:/NeuOrga/Programmieren/c_cpp/github_os/input/src/os_base/os_init_task_system_test.c"
   1:E:/NeuOrga/Programmieren/c_cpp/github_os/input/src/os_base\os_init_task_system_test.c **** #include <stdio.h>
   2:E:/NeuOrga/Programmieren/c_cpp/github_os/input/src/os_base\os_init_task_system_test.c **** 
   3:E:/NeuOrga/Programmieren/c_cpp/github_os/input/src/os_base\os_init_task_system_test.c **** #include "..\os_base\os_sput.h"
   4:E:/NeuOrga/Programmieren/c_cpp/github_os/input/src/os_base\os_init_task_system_test.c **** 
   5:E:/NeuOrga/Programmieren/c_cpp/github_os/input/src/os_base\os_init_task_system_test.c **** 
   6:E:/NeuOrga/Programmieren/c_cpp/github_os/input/src/os_base\os_init_task_system_test.c **** /*
   7:E:/NeuOrga/Programmieren/c_cpp/github_os/input/src/os_base\os_init_task_system_test.c ****  * count_vowels() counts the vowels present in a given string.
   8:E:/NeuOrga/Programmieren/c_cpp/github_os/input/src/os_base\os_init_task_system_test.c ****  *
   9:E:/NeuOrga/Programmieren/c_cpp/github_os/input/src/os_base\os_init_task_system_test.c ****  * While the function basically works as expected, it recognizes
  10:E:/NeuOrga/Programmieren/c_cpp/github_os/input/src/os_base\os_init_task_system_test.c ****  * [aeiou] as vowels only and erroneously does not take uppercase
  11:E:/NeuOrga/Programmieren/c_cpp/github_os/input/src/os_base\os_init_task_system_test.c ****  * vowels into account.
  12:E:/NeuOrga/Programmieren/c_cpp/github_os/input/src/os_base\os_init_task_system_test.c ****  */
  13:E:/NeuOrga/Programmieren/c_cpp/github_os/input/src/os_base\os_init_task_system_test.c **** static int count_vowels(const char *s)
  14:E:/NeuOrga/Programmieren/c_cpp/github_os/input/src/os_base\os_init_task_system_test.c **** {
  47              		.loc 2 14 0
  48              		.cfi_startproc
  49 0030 55       		pushl	%ebp
  50              		.cfi_def_cfa_offset 8
  51              		.cfi_offset 5, -8
  52 0031 89E5     		movl	%esp, %ebp
  53              		.cfi_def_cfa_register 5
  54 0033 83EC10   		subl	$16, %esp
  15:E:/NeuOrga/Programmieren/c_cpp/github_os/input/src/os_base\os_init_task_system_test.c ****    const char *cp    = s;
  55              		.loc 2 15 0
  56 0036 8B4508   		movl	8(%ebp), %eax
  57 0039 8945FC   		movl	%eax, -4(%ebp)
  16:E:/NeuOrga/Programmieren/c_cpp/github_os/input/src/os_base\os_init_task_system_test.c ****    int         count = 0;
  58              		.loc 2 16 0
  59 003c C745F800 		movl	$0, -8(%ebp)
  59      000000
  17:E:/NeuOrga/Programmieren/c_cpp/github_os/input/src/os_base\os_init_task_system_test.c **** 
  18:E:/NeuOrga/Programmieren/c_cpp/github_os/input/src/os_base\os_init_task_system_test.c ****    while (*cp)
  60              		.loc 2 18 0
  61 0043 EB33     		jmp	L4
  62              	L7:
  19:E:/NeuOrga/Programmieren/c_cpp/github_os/input/src/os_base\os_init_task_system_test.c ****    {
  20:E:/NeuOrga/Programmieren/c_cpp/github_os/input/src/os_base\os_init_task_system_test.c ****       if (*cp == 'a' || *cp == 'e' || *cp == 'i' ||
  63              		.loc 2 20 0
  64 0045 8B45FC   		movl	-4(%ebp), %eax
  65 0048 8A00     		movb	(%eax), %al
  66 004a 3C61     		cmpb	$97, %al
  67 004c 7424     		je	L5
  68              		.loc 2 20 0 is_stmt 0 discriminator 1
  69 004e 8B45FC   		movl	-4(%ebp), %eax
  70 0051 8A00     		movb	(%eax), %al
  71 0053 3C65     		cmpb	$101, %al
  72 0055 741B     		je	L5
  73              		.loc 2 20 0 discriminator 2
  74 0057 8B45FC   		movl	-4(%ebp), %eax
GAS LISTING C:\Users\PRESID~1\AppData\Local\Temp\ccPJOK5j.s 			page 7


  75 005a 8A00     		movb	(%eax), %al
  76 005c 3C69     		cmpb	$105, %al
  77 005e 7412     		je	L5
  21:E:/NeuOrga/Programmieren/c_cpp/github_os/input/src/os_base\os_init_task_system_test.c ****             *cp == 'o' || *cp == 'u')
  78              		.loc 2 21 0 is_stmt 1 discriminator 3
  79 0060 8B45FC   		movl	-4(%ebp), %eax
  80 0063 8A00     		movb	(%eax), %al
  20:E:/NeuOrga/Programmieren/c_cpp/github_os/input/src/os_base\os_init_task_system_test.c ****             *cp == 'o' || *cp == 'u')
  81              		.loc 2 20 0 discriminator 3
  82 0065 3C6F     		cmpb	$111, %al
  83 0067 7409     		je	L5
  84              		.loc 2 21 0
  85 0069 8B45FC   		movl	-4(%ebp), %eax
  86 006c 8A00     		movb	(%eax), %al
  87 006e 3C75     		cmpb	$117, %al
  88 0070 7503     		jne	L6
  89              	L5:
  22:E:/NeuOrga/Programmieren/c_cpp/github_os/input/src/os_base\os_init_task_system_test.c ****       {
  23:E:/NeuOrga/Programmieren/c_cpp/github_os/input/src/os_base\os_init_task_system_test.c ****          count++;
  90              		.loc 2 23 0
  91 0072 FF45F8   		incl	-8(%ebp)
  92              	L6:
  24:E:/NeuOrga/Programmieren/c_cpp/github_os/input/src/os_base\os_init_task_system_test.c ****       }
  25:E:/NeuOrga/Programmieren/c_cpp/github_os/input/src/os_base\os_init_task_system_test.c **** 
  26:E:/NeuOrga/Programmieren/c_cpp/github_os/input/src/os_base\os_init_task_system_test.c ****       cp++;
  93              		.loc 2 26 0
  94 0075 FF45FC   		incl	-4(%ebp)
  95              	L4:
  18:E:/NeuOrga/Programmieren/c_cpp/github_os/input/src/os_base\os_init_task_system_test.c ****    {
  96              		.loc 2 18 0
  97 0078 8B45FC   		movl	-4(%ebp), %eax
  98 007b 8A00     		movb	(%eax), %al
  99 007d 84C0     		testb	%al, %al
 100 007f 75C4     		jne	L7
  27:E:/NeuOrga/Programmieren/c_cpp/github_os/input/src/os_base\os_init_task_system_test.c ****    }
  28:E:/NeuOrga/Programmieren/c_cpp/github_os/input/src/os_base\os_init_task_system_test.c **** 
  29:E:/NeuOrga/Programmieren/c_cpp/github_os/input/src/os_base\os_init_task_system_test.c ****    return count;
 101              		.loc 2 29 0
 102 0081 8B45F8   		movl	-8(%ebp), %eax
  30:E:/NeuOrga/Programmieren/c_cpp/github_os/input/src/os_base\os_init_task_system_test.c **** }
 103              		.loc 2 30 0
 104 0084 C9       		leave
 105              		.cfi_restore 5
 106              		.cfi_def_cfa 4, 4
 107 0085 C3       		ret
 108              		.cfi_endproc
 109              	LFE10:
 110              		.section .rdata,"dr"
 111              	LC0:
 112 0000 73707574 		.ascii "sput_start_testing() omitted\12\0"
 112      5F737461 
 112      72745F74 
 112      65737469 
 112      6E672829 
 113              	LC1:
 114 001e 73707574 		.ascii "sput_enter_suite() omitted\12\0"
 114      5F656E74 
GAS LISTING C:\Users\PRESID~1\AppData\Local\Temp\ccPJOK5j.s 			page 8


 114      65725F73 
 114      75697465 
 114      2829206F 
 115              	LC2:
 116 003a 73707574 		.ascii "sput_run_test() omitted\12\0"
 116      5F72756E 
 116      5F746573 
 116      74282920 
 116      6F6D6974 
 117              	LC3:
 118 0053 626F6F6B 		.ascii "book == 2v\0"
 118      203D3D20 
 118      327600
 119              	LC4:
 120 005e 636F756E 		.ascii "count_vowels(\"book\") == 2\0"
 120      745F766F 
 120      77656C73 
 120      2822626F 
 120      6F6B2229 
 121              	LC5:
 122 0078 6661696C 		.ascii "fail-unless\0"
 122      2D756E6C 
 122      65737300 
 123              	LC6:
 124 0084 626F6F6B 		.ascii "book\0"
 124      00
 125 0089 000000   		.align 4
 126              	LC7:
 127 008c 5B256C75 		.ascii "[%lu:%lu]  %s:#%lu  \"%s\"  FAIL\12!    Type:      %s\12!    Condition: %s\12!    Line:   
 127      3A256C75 
 127      5D202025 
 127      733A2325 
 127      6C752020 
 128 00e6 0000     		.align 4
 129              	LC8:
 130 00e8 5B256C75 		.ascii "[%lu:%lu]  %s:#%lu  \"%s\"  pass\12\0"
 130      3A256C75 
 130      5D202025 
 130      733A2325 
 130      6C752020 
 131              	LC9:
 132 0108 68616E64 		.ascii "hand == 1v\0"
 132      203D3D20 
 132      317600
 133              	LC10:
 134 0113 636F756E 		.ascii "count_vowels(\"hand\") == 1\0"
 134      745F766F 
 134      77656C73 
 134      28226861 
 134      6E642229 
 135              	LC11:
 136 012d 68616E64 		.ascii "hand\0"
 136      00
 137              	LC12:
 138 0132 74657374 		.ascii "test == 1v\0"
 138      203D3D20 
 138      317600
GAS LISTING C:\Users\PRESID~1\AppData\Local\Temp\ccPJOK5j.s 			page 9


 139              	LC13:
 140 013d 636F756E 		.ascii "count_vowels(\"test\") == 1\0"
 140      745F766F 
 140      77656C73 
 140      28227465 
 140      73742229 
 141              	LC14:
 142 0157 74657374 		.ascii "test\0"
 142      00
 143              	LC15:
 144 015c 50657465 		.ascii "Peter == 2v\0"
 144      72203D3D 
 144      20327600 
 145              	LC16:
 146 0168 636F756E 		.ascii "count_vowels(\"Peter\") == 2\0"
 146      745F766F 
 146      77656C73 
 146      28225065 
 146      74657222 
 147              	LC17:
 148 0183 50657465 		.ascii "Peter\0"
 148      7200
 149              	LC18:
 150 0189 41707520 		.ascii "Apu == 2v\0"
 150      3D3D2032 
 150      7600
 151              	LC19:
 152 0193 636F756E 		.ascii "count_vowels(\"Apu\") == 2\0"
 152      745F766F 
 152      77656C73 
 152      28224170 
 152      75222920 
 153              	LC20:
 154 01ac 41707500 		.ascii "Apu\0"
 155              		.text
 157              	_test_vowels_present:
 158              	LFB11:
  31:E:/NeuOrga/Programmieren/c_cpp/github_os/input/src/os_base\os_init_task_system_test.c **** 
  32:E:/NeuOrga/Programmieren/c_cpp/github_os/input/src/os_base\os_init_task_system_test.c **** 
  33:E:/NeuOrga/Programmieren/c_cpp/github_os/input/src/os_base\os_init_task_system_test.c **** static void test_vowels_present()
  34:E:/NeuOrga/Programmieren/c_cpp/github_os/input/src/os_base\os_init_task_system_test.c **** {
 159              		.loc 2 34 0
 160              		.cfi_startproc
 161 0086 55       		pushl	%ebp
 162              		.cfi_def_cfa_offset 8
 163              		.cfi_offset 5, -8
 164 0087 89E5     		movl	%esp, %ebp
 165              		.cfi_def_cfa_register 5
 166 0089 57       		pushl	%edi
 167 008a 56       		pushl	%esi
 168 008b 53       		pushl	%ebx
 169 008c 83EC4C   		subl	$76, %esp
 170              		.cfi_offset 7, -12
 171              		.cfi_offset 6, -16
 172              		.cfi_offset 3, -20
  35:E:/NeuOrga/Programmieren/c_cpp/github_os/input/src/os_base\os_init_task_system_test.c ****    sput_fail_unless(count_vowels("book")  == 2, "book == 2v");
 173              		.loc 2 35 0
GAS LISTING C:\Users\PRESID~1\AppData\Local\Temp\ccPJOK5j.s 			page 10


 174 008f A0040000 		movb	___sput+4, %al
 174      00
 175 0094 3C06     		cmpb	$6, %al
 176 0096 7434     		je	L10
 177              		.loc 2 35 0 is_stmt 0 discriminator 1
 178 0098 A1000000 		movl	__imp___iob, %eax
 178      00
 179 009d 83C040   		addl	$64, %eax
 180 00a0 8944240C 		movl	%eax, 12(%esp)
 181 00a4 C7442408 		movl	$29, 8(%esp)
 181      1D000000 
 182 00ac C7442404 		movl	$1, 4(%esp)
 182      01000000 
 183 00b4 C7042400 		movl	$LC0, (%esp)
 183      000000
 184 00bb E8000000 		call	_fwrite
 184      00
 185 00c0 C7042401 		movl	$1, (%esp)
 185      000000
 186 00c7 E8000000 		call	_exit
 186      00
 187              	L10:
 188              		.loc 2 35 0 discriminator 2
 189 00cc A1180000 		movl	___sput+24, %eax
 189      00
 190 00d1 85C0     		testl	%eax, %eax
 191 00d3 7531     		jne	L11
 192              		.loc 2 35 0 discriminator 3
 193 00d5 A1000000 		movl	___sput, %eax
 193      00
 194 00da 8944240C 		movl	%eax, 12(%esp)
 195 00de C7442408 		movl	$27, 8(%esp)
 195      1B000000 
 196 00e6 C7442404 		movl	$1, 4(%esp)
 196      01000000 
 197 00ee C704241E 		movl	$LC1, (%esp)
 197      000000
 198 00f5 E8000000 		call	_fwrite
 198      00
 199 00fa C7042401 		movl	$1, (%esp)
 199      000000
 200 0101 E8000000 		call	_exit
 200      00
 201              	L11:
 202              		.loc 2 35 0 discriminator 4
 203 0106 A12C0000 		movl	___sput+44, %eax
 203      00
 204 010b 85C0     		testl	%eax, %eax
 205 010d 7531     		jne	L12
 206              		.loc 2 35 0 discriminator 5
 207 010f A1000000 		movl	___sput, %eax
 207      00
 208 0114 8944240C 		movl	%eax, 12(%esp)
 209 0118 C7442408 		movl	$24, 8(%esp)
 209      18000000 
 210 0120 C7442404 		movl	$1, 4(%esp)
 210      01000000 
GAS LISTING C:\Users\PRESID~1\AppData\Local\Temp\ccPJOK5j.s 			page 11


 211 0128 C704243A 		movl	$LC2, (%esp)
 211      000000
 212 012f E8000000 		call	_fwrite
 212      00
 213 0134 C7042401 		movl	$1, (%esp)
 213      000000
 214 013b E8000000 		call	_exit
 214      00
 215              	L12:
 216              		.loc 2 35 0 discriminator 6
 217 0140 C7053400 		movl	$LC3, ___sput+52
 217      00005300 
 217      0000
 218 014a C7054000 		movl	$35, ___sput+64
 218      00002300 
 218      0000
 219 0154 C7053800 		movl	$LC4, ___sput+56
 219      00005E00 
 219      0000
 220 015e C7053C00 		movl	$LC5, ___sput+60
 220      00007800 
 220      0000
 221 0168 A1300000 		movl	___sput+48, %eax
 221      00
 222 016d 40       		incl	%eax
 223 016e A3300000 		movl	%eax, ___sput+48
 223      00
 224 0173 A1200000 		movl	___sput+32, %eax
 224      00
 225 0178 40       		incl	%eax
 226 0179 A3200000 		movl	%eax, ___sput+32
 226      00
 227 017e C7042484 		movl	$LC6, (%esp)
 227      000000
 228 0185 E8A6FEFF 		call	_count_vowels
 228      FF
 229 018a 83F802   		cmpl	$2, %eax
 230 018d 0F84FD00 		je	L13
 230      0000
 231              		.loc 2 35 0 discriminator 7
 232 0193 A0040000 		movb	___sput+4, %al
 232      00
 233 0198 3C06     		cmpb	$6, %al
 234 019a 7434     		je	L14
 235              		.loc 2 35 0 discriminator 9
 236 019c A1000000 		movl	__imp___iob, %eax
 236      00
 237 01a1 83C040   		addl	$64, %eax
 238 01a4 8944240C 		movl	%eax, 12(%esp)
 239 01a8 C7442408 		movl	$29, 8(%esp)
 239      1D000000 
 240 01b0 C7442404 		movl	$1, 4(%esp)
 240      01000000 
 241 01b8 C7042400 		movl	$LC0, (%esp)
 241      000000
 242 01bf E8000000 		call	_fwrite
 242      00
GAS LISTING C:\Users\PRESID~1\AppData\Local\Temp\ccPJOK5j.s 			page 12


 243 01c4 C7042401 		movl	$1, (%esp)
 243      000000
 244 01cb E8000000 		call	_exit
 244      00
 245              	L14:
 246              		.loc 2 35 0 discriminator 10
 247 01d0 A1180000 		movl	___sput+24, %eax
 247      00
 248 01d5 85C0     		testl	%eax, %eax
 249 01d7 7531     		jne	L15
 250              		.loc 2 35 0 discriminator 11
 251 01d9 A1000000 		movl	___sput, %eax
 251      00
 252 01de 8944240C 		movl	%eax, 12(%esp)
 253 01e2 C7442408 		movl	$27, 8(%esp)
 253      1B000000 
 254 01ea C7442404 		movl	$1, 4(%esp)
 254      01000000 
 255 01f2 C704241E 		movl	$LC1, (%esp)
 255      000000
 256 01f9 E8000000 		call	_fwrite
 256      00
 257 01fe C7042401 		movl	$1, (%esp)
 257      000000
 258 0205 E8000000 		call	_exit
 258      00
 259              	L15:
 260              		.loc 2 35 0 discriminator 12
 261 020a A1280000 		movl	___sput+40, %eax
 261      00
 262 020f 40       		incl	%eax
 263 0210 A3280000 		movl	%eax, ___sput+40
 263      00
 264 0215 8B154000 		movl	___sput+64, %edx
 264      0000
 265 021b 8B1D3800 		movl	___sput+56, %ebx
 265      0000
 266 0221 A13C0000 		movl	___sput+60, %eax
 266      00
 267 0226 8945E4   		movl	%eax, -28(%ebp)
 268 0229 8B0D3400 		movl	___sput+52, %ecx
 268      0000
 269 022f 894DE0   		movl	%ecx, -32(%ebp)
 270 0232 8B353000 		movl	___sput+48, %esi
 270      0000
 271 0238 8975DC   		movl	%esi, -36(%ebp)
 272 023b 8B3D2C00 		movl	___sput+44, %edi
 272      0000
 273 0241 8B352000 		movl	___sput+32, %esi
 273      0000
 274 0247 8B0D1C00 		movl	___sput+28, %ecx
 274      0000
 275 024d A1000000 		movl	___sput, %eax
 275      00
 276 0252 89542424 		movl	%edx, 36(%esp)
 277 0256 895C2420 		movl	%ebx, 32(%esp)
 278 025a 8B55E4   		movl	-28(%ebp), %edx
GAS LISTING C:\Users\PRESID~1\AppData\Local\Temp\ccPJOK5j.s 			page 13


 279 025d 8954241C 		movl	%edx, 28(%esp)
 280 0261 8B5DE0   		movl	-32(%ebp), %ebx
 281 0264 895C2418 		movl	%ebx, 24(%esp)
 282 0268 8B55DC   		movl	-36(%ebp), %edx
 283 026b 89542414 		movl	%edx, 20(%esp)
 284 026f 897C2410 		movl	%edi, 16(%esp)
 285 0273 8974240C 		movl	%esi, 12(%esp)
 286 0277 894C2408 		movl	%ecx, 8(%esp)
 287 027b C7442404 		movl	$LC7, 4(%esp)
 287      8C000000 
 288 0283 890424   		movl	%eax, (%esp)
 289 0286 E875FDFF 		call	_fprintf
 289      FF
 290 028b E9C90000 		jmp	L16
 290      00
 291              	L13:
 292              		.loc 2 35 0 discriminator 8
 293 0290 A0040000 		movb	___sput+4, %al
 293      00
 294 0295 3C06     		cmpb	$6, %al
 295 0297 7434     		je	L17
 296              		.loc 2 35 0 discriminator 13
 297 0299 A1000000 		movl	__imp___iob, %eax
 297      00
 298 029e 83C040   		addl	$64, %eax
 299 02a1 8944240C 		movl	%eax, 12(%esp)
 300 02a5 C7442408 		movl	$29, 8(%esp)
 300      1D000000 
 301 02ad C7442404 		movl	$1, 4(%esp)
 301      01000000 
 302 02b5 C7042400 		movl	$LC0, (%esp)
 302      000000
 303 02bc E8000000 		call	_fwrite
 303      00
 304 02c1 C7042401 		movl	$1, (%esp)
 304      000000
 305 02c8 E8000000 		call	_exit
 305      00
 306              	L17:
 307              		.loc 2 35 0 discriminator 14
 308 02cd A1180000 		movl	___sput+24, %eax
 308      00
 309 02d2 85C0     		testl	%eax, %eax
 310 02d4 7531     		jne	L18
 311              		.loc 2 35 0 discriminator 15
 312 02d6 A1000000 		movl	___sput, %eax
 312      00
 313 02db 8944240C 		movl	%eax, 12(%esp)
 314 02df C7442408 		movl	$27, 8(%esp)
 314      1B000000 
 315 02e7 C7442404 		movl	$1, 4(%esp)
 315      01000000 
 316 02ef C704241E 		movl	$LC1, (%esp)
 316      000000
 317 02f6 E8000000 		call	_fwrite
 317      00
 318 02fb C7042401 		movl	$1, (%esp)
GAS LISTING C:\Users\PRESID~1\AppData\Local\Temp\ccPJOK5j.s 			page 14


 318      000000
 319 0302 E8000000 		call	_exit
 319      00
 320              	L18:
 321              		.loc 2 35 0 discriminator 16
 322 0307 A1240000 		movl	___sput+36, %eax
 322      00
 323 030c 40       		incl	%eax
 324 030d A3240000 		movl	%eax, ___sput+36
 324      00
 325 0312 8B3D3400 		movl	___sput+52, %edi
 325      0000
 326 0318 8B353000 		movl	___sput+48, %esi
 326      0000
 327 031e 8B1D2C00 		movl	___sput+44, %ebx
 327      0000
 328 0324 8B0D2000 		movl	___sput+32, %ecx
 328      0000
 329 032a 8B151C00 		movl	___sput+28, %edx
 329      0000
 330 0330 A1000000 		movl	___sput, %eax
 330      00
 331 0335 897C2418 		movl	%edi, 24(%esp)
 332 0339 89742414 		movl	%esi, 20(%esp)
 333 033d 895C2410 		movl	%ebx, 16(%esp)
 334 0341 894C240C 		movl	%ecx, 12(%esp)
 335 0345 89542408 		movl	%edx, 8(%esp)
 336 0349 C7442404 		movl	$LC8, 4(%esp)
 336      E8000000 
 337 0351 890424   		movl	%eax, (%esp)
 338 0354 E8A7FCFF 		call	_fprintf
 338      FF
 339              	L16:
  36:E:/NeuOrga/Programmieren/c_cpp/github_os/input/src/os_base\os_init_task_system_test.c ****    sput_fail_unless(count_vowels("hand")  == 1, "hand == 1v");
 340              		.loc 2 36 0 is_stmt 1
 341 0359 A0040000 		movb	___sput+4, %al
 341      00
 342 035e 3C06     		cmpb	$6, %al
 343 0360 7434     		je	L19
 344              		.loc 2 36 0 is_stmt 0 discriminator 1
 345 0362 A1000000 		movl	__imp___iob, %eax
 345      00
 346 0367 83C040   		addl	$64, %eax
 347 036a 8944240C 		movl	%eax, 12(%esp)
 348 036e C7442408 		movl	$29, 8(%esp)
 348      1D000000 
 349 0376 C7442404 		movl	$1, 4(%esp)
 349      01000000 
 350 037e C7042400 		movl	$LC0, (%esp)
 350      000000
 351 0385 E8000000 		call	_fwrite
 351      00
 352 038a C7042401 		movl	$1, (%esp)
 352      000000
 353 0391 E8000000 		call	_exit
 353      00
 354              	L19:
GAS LISTING C:\Users\PRESID~1\AppData\Local\Temp\ccPJOK5j.s 			page 15


 355              		.loc 2 36 0 discriminator 2
 356 0396 A1180000 		movl	___sput+24, %eax
 356      00
 357 039b 85C0     		testl	%eax, %eax
 358 039d 7531     		jne	L20
 359              		.loc 2 36 0 discriminator 3
 360 039f A1000000 		movl	___sput, %eax
 360      00
 361 03a4 8944240C 		movl	%eax, 12(%esp)
 362 03a8 C7442408 		movl	$27, 8(%esp)
 362      1B000000 
 363 03b0 C7442404 		movl	$1, 4(%esp)
 363      01000000 
 364 03b8 C704241E 		movl	$LC1, (%esp)
 364      000000
 365 03bf E8000000 		call	_fwrite
 365      00
 366 03c4 C7042401 		movl	$1, (%esp)
 366      000000
 367 03cb E8000000 		call	_exit
 367      00
 368              	L20:
 369              		.loc 2 36 0 discriminator 4
 370 03d0 A12C0000 		movl	___sput+44, %eax
 370      00
 371 03d5 85C0     		testl	%eax, %eax
 372 03d7 7531     		jne	L21
 373              		.loc 2 36 0 discriminator 5
 374 03d9 A1000000 		movl	___sput, %eax
 374      00
 375 03de 8944240C 		movl	%eax, 12(%esp)
 376 03e2 C7442408 		movl	$24, 8(%esp)
 376      18000000 
 377 03ea C7442404 		movl	$1, 4(%esp)
 377      01000000 
 378 03f2 C704243A 		movl	$LC2, (%esp)
 378      000000
 379 03f9 E8000000 		call	_fwrite
 379      00
 380 03fe C7042401 		movl	$1, (%esp)
 380      000000
 381 0405 E8000000 		call	_exit
 381      00
 382              	L21:
 383              		.loc 2 36 0 discriminator 6
 384 040a C7053400 		movl	$LC9, ___sput+52
 384      00000801 
 384      0000
 385 0414 C7054000 		movl	$36, ___sput+64
 385      00002400 
 385      0000
 386 041e C7053800 		movl	$LC10, ___sput+56
 386      00001301 
 386      0000
 387 0428 C7053C00 		movl	$LC5, ___sput+60
 387      00007800 
 387      0000
GAS LISTING C:\Users\PRESID~1\AppData\Local\Temp\ccPJOK5j.s 			page 16


 388 0432 A1300000 		movl	___sput+48, %eax
 388      00
 389 0437 40       		incl	%eax
 390 0438 A3300000 		movl	%eax, ___sput+48
 390      00
 391 043d A1200000 		movl	___sput+32, %eax
 391      00
 392 0442 40       		incl	%eax
 393 0443 A3200000 		movl	%eax, ___sput+32
 393      00
 394 0448 C704242D 		movl	$LC11, (%esp)
 394      010000
 395 044f E8DCFBFF 		call	_count_vowels
 395      FF
 396 0454 83F801   		cmpl	$1, %eax
 397 0457 0F84FD00 		je	L22
 397      0000
 398              		.loc 2 36 0 discriminator 7
 399 045d A0040000 		movb	___sput+4, %al
 399      00
 400 0462 3C06     		cmpb	$6, %al
 401 0464 7434     		je	L23
 402              		.loc 2 36 0 discriminator 9
 403 0466 A1000000 		movl	__imp___iob, %eax
 403      00
 404 046b 83C040   		addl	$64, %eax
 405 046e 8944240C 		movl	%eax, 12(%esp)
 406 0472 C7442408 		movl	$29, 8(%esp)
 406      1D000000 
 407 047a C7442404 		movl	$1, 4(%esp)
 407      01000000 
 408 0482 C7042400 		movl	$LC0, (%esp)
 408      000000
 409 0489 E8000000 		call	_fwrite
 409      00
 410 048e C7042401 		movl	$1, (%esp)
 410      000000
 411 0495 E8000000 		call	_exit
 411      00
 412              	L23:
 413              		.loc 2 36 0 discriminator 10
 414 049a A1180000 		movl	___sput+24, %eax
 414      00
 415 049f 85C0     		testl	%eax, %eax
 416 04a1 7531     		jne	L24
 417              		.loc 2 36 0 discriminator 11
 418 04a3 A1000000 		movl	___sput, %eax
 418      00
 419 04a8 8944240C 		movl	%eax, 12(%esp)
 420 04ac C7442408 		movl	$27, 8(%esp)
 420      1B000000 
 421 04b4 C7442404 		movl	$1, 4(%esp)
 421      01000000 
 422 04bc C704241E 		movl	$LC1, (%esp)
 422      000000
 423 04c3 E8000000 		call	_fwrite
 423      00
GAS LISTING C:\Users\PRESID~1\AppData\Local\Temp\ccPJOK5j.s 			page 17


 424 04c8 C7042401 		movl	$1, (%esp)
 424      000000
 425 04cf E8000000 		call	_exit
 425      00
 426              	L24:
 427              		.loc 2 36 0 discriminator 12
 428 04d4 A1280000 		movl	___sput+40, %eax
 428      00
 429 04d9 40       		incl	%eax
 430 04da A3280000 		movl	%eax, ___sput+40
 430      00
 431 04df 8B154000 		movl	___sput+64, %edx
 431      0000
 432 04e5 8B1D3800 		movl	___sput+56, %ebx
 432      0000
 433 04eb A13C0000 		movl	___sput+60, %eax
 433      00
 434 04f0 8945E4   		movl	%eax, -28(%ebp)
 435 04f3 8B3D3400 		movl	___sput+52, %edi
 435      0000
 436 04f9 897DE0   		movl	%edi, -32(%ebp)
 437 04fc 8B0D3000 		movl	___sput+48, %ecx
 437      0000
 438 0502 894DDC   		movl	%ecx, -36(%ebp)
 439 0505 8B3D2C00 		movl	___sput+44, %edi
 439      0000
 440 050b 8B352000 		movl	___sput+32, %esi
 440      0000
 441 0511 8B0D1C00 		movl	___sput+28, %ecx
 441      0000
 442 0517 A1000000 		movl	___sput, %eax
 442      00
 443 051c 89542424 		movl	%edx, 36(%esp)
 444 0520 895C2420 		movl	%ebx, 32(%esp)
 445 0524 8B5DE4   		movl	-28(%ebp), %ebx
 446 0527 895C241C 		movl	%ebx, 28(%esp)
 447 052b 8B55E0   		movl	-32(%ebp), %edx
 448 052e 89542418 		movl	%edx, 24(%esp)
 449 0532 8B5DDC   		movl	-36(%ebp), %ebx
 450 0535 895C2414 		movl	%ebx, 20(%esp)
 451 0539 897C2410 		movl	%edi, 16(%esp)
 452 053d 8974240C 		movl	%esi, 12(%esp)
 453 0541 894C2408 		movl	%ecx, 8(%esp)
 454 0545 C7442404 		movl	$LC7, 4(%esp)
 454      8C000000 
 455 054d 890424   		movl	%eax, (%esp)
 456 0550 E8ABFAFF 		call	_fprintf
 456      FF
 457 0555 E9C90000 		jmp	L25
 457      00
 458              	L22:
 459              		.loc 2 36 0 discriminator 8
 460 055a A0040000 		movb	___sput+4, %al
 460      00
 461 055f 3C06     		cmpb	$6, %al
 462 0561 7434     		je	L26
 463              		.loc 2 36 0 discriminator 13
GAS LISTING C:\Users\PRESID~1\AppData\Local\Temp\ccPJOK5j.s 			page 18


 464 0563 A1000000 		movl	__imp___iob, %eax
 464      00
 465 0568 83C040   		addl	$64, %eax
 466 056b 8944240C 		movl	%eax, 12(%esp)
 467 056f C7442408 		movl	$29, 8(%esp)
 467      1D000000 
 468 0577 C7442404 		movl	$1, 4(%esp)
 468      01000000 
 469 057f C7042400 		movl	$LC0, (%esp)
 469      000000
 470 0586 E8000000 		call	_fwrite
 470      00
 471 058b C7042401 		movl	$1, (%esp)
 471      000000
 472 0592 E8000000 		call	_exit
 472      00
 473              	L26:
 474              		.loc 2 36 0 discriminator 14
 475 0597 A1180000 		movl	___sput+24, %eax
 475      00
 476 059c 85C0     		testl	%eax, %eax
 477 059e 7531     		jne	L27
 478              		.loc 2 36 0 discriminator 15
 479 05a0 A1000000 		movl	___sput, %eax
 479      00
 480 05a5 8944240C 		movl	%eax, 12(%esp)
 481 05a9 C7442408 		movl	$27, 8(%esp)
 481      1B000000 
 482 05b1 C7442404 		movl	$1, 4(%esp)
 482      01000000 
 483 05b9 C704241E 		movl	$LC1, (%esp)
 483      000000
 484 05c0 E8000000 		call	_fwrite
 484      00
 485 05c5 C7042401 		movl	$1, (%esp)
 485      000000
 486 05cc E8000000 		call	_exit
 486      00
 487              	L27:
 488              		.loc 2 36 0 discriminator 16
 489 05d1 A1240000 		movl	___sput+36, %eax
 489      00
 490 05d6 40       		incl	%eax
 491 05d7 A3240000 		movl	%eax, ___sput+36
 491      00
 492 05dc 8B3D3400 		movl	___sput+52, %edi
 492      0000
 493 05e2 8B353000 		movl	___sput+48, %esi
 493      0000
 494 05e8 8B1D2C00 		movl	___sput+44, %ebx
 494      0000
 495 05ee 8B0D2000 		movl	___sput+32, %ecx
 495      0000
 496 05f4 8B151C00 		movl	___sput+28, %edx
 496      0000
 497 05fa A1000000 		movl	___sput, %eax
 497      00
GAS LISTING C:\Users\PRESID~1\AppData\Local\Temp\ccPJOK5j.s 			page 19


 498 05ff 897C2418 		movl	%edi, 24(%esp)
 499 0603 89742414 		movl	%esi, 20(%esp)
 500 0607 895C2410 		movl	%ebx, 16(%esp)
 501 060b 894C240C 		movl	%ecx, 12(%esp)
 502 060f 89542408 		movl	%edx, 8(%esp)
 503 0613 C7442404 		movl	$LC8, 4(%esp)
 503      E8000000 
 504 061b 890424   		movl	%eax, (%esp)
 505 061e E8DDF9FF 		call	_fprintf
 505      FF
 506              	L25:
  37:E:/NeuOrga/Programmieren/c_cpp/github_os/input/src/os_base\os_init_task_system_test.c ****    sput_fail_unless(count_vowels("test")  == 1, "test == 1v");
 507              		.loc 2 37 0 is_stmt 1
 508 0623 A0040000 		movb	___sput+4, %al
 508      00
 509 0628 3C06     		cmpb	$6, %al
 510 062a 7434     		je	L28
 511              		.loc 2 37 0 is_stmt 0 discriminator 1
 512 062c A1000000 		movl	__imp___iob, %eax
 512      00
 513 0631 83C040   		addl	$64, %eax
 514 0634 8944240C 		movl	%eax, 12(%esp)
 515 0638 C7442408 		movl	$29, 8(%esp)
 515      1D000000 
 516 0640 C7442404 		movl	$1, 4(%esp)
 516      01000000 
 517 0648 C7042400 		movl	$LC0, (%esp)
 517      000000
 518 064f E8000000 		call	_fwrite
 518      00
 519 0654 C7042401 		movl	$1, (%esp)
 519      000000
 520 065b E8000000 		call	_exit
 520      00
 521              	L28:
 522              		.loc 2 37 0 discriminator 2
 523 0660 A1180000 		movl	___sput+24, %eax
 523      00
 524 0665 85C0     		testl	%eax, %eax
 525 0667 7531     		jne	L29
 526              		.loc 2 37 0 discriminator 3
 527 0669 A1000000 		movl	___sput, %eax
 527      00
 528 066e 8944240C 		movl	%eax, 12(%esp)
 529 0672 C7442408 		movl	$27, 8(%esp)
 529      1B000000 
 530 067a C7442404 		movl	$1, 4(%esp)
 530      01000000 
 531 0682 C704241E 		movl	$LC1, (%esp)
 531      000000
 532 0689 E8000000 		call	_fwrite
 532      00
 533 068e C7042401 		movl	$1, (%esp)
 533      000000
 534 0695 E8000000 		call	_exit
 534      00
 535              	L29:
GAS LISTING C:\Users\PRESID~1\AppData\Local\Temp\ccPJOK5j.s 			page 20


 536              		.loc 2 37 0 discriminator 4
 537 069a A12C0000 		movl	___sput+44, %eax
 537      00
 538 069f 85C0     		testl	%eax, %eax
 539 06a1 7531     		jne	L30
 540              		.loc 2 37 0 discriminator 5
 541 06a3 A1000000 		movl	___sput, %eax
 541      00
 542 06a8 8944240C 		movl	%eax, 12(%esp)
 543 06ac C7442408 		movl	$24, 8(%esp)
 543      18000000 
 544 06b4 C7442404 		movl	$1, 4(%esp)
 544      01000000 
 545 06bc C704243A 		movl	$LC2, (%esp)
 545      000000
 546 06c3 E8000000 		call	_fwrite
 546      00
 547 06c8 C7042401 		movl	$1, (%esp)
 547      000000
 548 06cf E8000000 		call	_exit
 548      00
 549              	L30:
 550              		.loc 2 37 0 discriminator 6
 551 06d4 C7053400 		movl	$LC12, ___sput+52
 551      00003201 
 551      0000
 552 06de C7054000 		movl	$37, ___sput+64
 552      00002500 
 552      0000
 553 06e8 C7053800 		movl	$LC13, ___sput+56
 553      00003D01 
 553      0000
 554 06f2 C7053C00 		movl	$LC5, ___sput+60
 554      00007800 
 554      0000
 555 06fc A1300000 		movl	___sput+48, %eax
 555      00
 556 0701 40       		incl	%eax
 557 0702 A3300000 		movl	%eax, ___sput+48
 557      00
 558 0707 A1200000 		movl	___sput+32, %eax
 558      00
 559 070c 40       		incl	%eax
 560 070d A3200000 		movl	%eax, ___sput+32
 560      00
 561 0712 C7042457 		movl	$LC14, (%esp)
 561      010000
 562 0719 E812F9FF 		call	_count_vowels
 562      FF
 563 071e 83F801   		cmpl	$1, %eax
 564 0721 0F84FD00 		je	L31
 564      0000
 565              		.loc 2 37 0 discriminator 7
 566 0727 A0040000 		movb	___sput+4, %al
 566      00
 567 072c 3C06     		cmpb	$6, %al
 568 072e 7434     		je	L32
GAS LISTING C:\Users\PRESID~1\AppData\Local\Temp\ccPJOK5j.s 			page 21


 569              		.loc 2 37 0 discriminator 9
 570 0730 A1000000 		movl	__imp___iob, %eax
 570      00
 571 0735 83C040   		addl	$64, %eax
 572 0738 8944240C 		movl	%eax, 12(%esp)
 573 073c C7442408 		movl	$29, 8(%esp)
 573      1D000000 
 574 0744 C7442404 		movl	$1, 4(%esp)
 574      01000000 
 575 074c C7042400 		movl	$LC0, (%esp)
 575      000000
 576 0753 E8000000 		call	_fwrite
 576      00
 577 0758 C7042401 		movl	$1, (%esp)
 577      000000
 578 075f E8000000 		call	_exit
 578      00
 579              	L32:
 580              		.loc 2 37 0 discriminator 10
 581 0764 A1180000 		movl	___sput+24, %eax
 581      00
 582 0769 85C0     		testl	%eax, %eax
 583 076b 7531     		jne	L33
 584              		.loc 2 37 0 discriminator 11
 585 076d A1000000 		movl	___sput, %eax
 585      00
 586 0772 8944240C 		movl	%eax, 12(%esp)
 587 0776 C7442408 		movl	$27, 8(%esp)
 587      1B000000 
 588 077e C7442404 		movl	$1, 4(%esp)
 588      01000000 
 589 0786 C704241E 		movl	$LC1, (%esp)
 589      000000
 590 078d E8000000 		call	_fwrite
 590      00
 591 0792 C7042401 		movl	$1, (%esp)
 591      000000
 592 0799 E8000000 		call	_exit
 592      00
 593              	L33:
 594              		.loc 2 37 0 discriminator 12
 595 079e A1280000 		movl	___sput+40, %eax
 595      00
 596 07a3 40       		incl	%eax
 597 07a4 A3280000 		movl	%eax, ___sput+40
 597      00
 598 07a9 8B154000 		movl	___sput+64, %edx
 598      0000
 599 07af 8B1D3800 		movl	___sput+56, %ebx
 599      0000
 600 07b5 A13C0000 		movl	___sput+60, %eax
 600      00
 601 07ba 8945E4   		movl	%eax, -28(%ebp)
 602 07bd 8B353400 		movl	___sput+52, %esi
 602      0000
 603 07c3 8975E0   		movl	%esi, -32(%ebp)
 604 07c6 8B3D3000 		movl	___sput+48, %edi
GAS LISTING C:\Users\PRESID~1\AppData\Local\Temp\ccPJOK5j.s 			page 22


 604      0000
 605 07cc 897DDC   		movl	%edi, -36(%ebp)
 606 07cf 8B3D2C00 		movl	___sput+44, %edi
 606      0000
 607 07d5 8B352000 		movl	___sput+32, %esi
 607      0000
 608 07db 8B0D1C00 		movl	___sput+28, %ecx
 608      0000
 609 07e1 A1000000 		movl	___sput, %eax
 609      00
 610 07e6 89542424 		movl	%edx, 36(%esp)
 611 07ea 895C2420 		movl	%ebx, 32(%esp)
 612 07ee 8B55E4   		movl	-28(%ebp), %edx
 613 07f1 8954241C 		movl	%edx, 28(%esp)
 614 07f5 8B5DE0   		movl	-32(%ebp), %ebx
 615 07f8 895C2418 		movl	%ebx, 24(%esp)
 616 07fc 8B55DC   		movl	-36(%ebp), %edx
 617 07ff 89542414 		movl	%edx, 20(%esp)
 618 0803 897C2410 		movl	%edi, 16(%esp)
 619 0807 8974240C 		movl	%esi, 12(%esp)
 620 080b 894C2408 		movl	%ecx, 8(%esp)
 621 080f C7442404 		movl	$LC7, 4(%esp)
 621      8C000000 
 622 0817 890424   		movl	%eax, (%esp)
 623 081a E8E1F7FF 		call	_fprintf
 623      FF
 624 081f E9C90000 		jmp	L34
 624      00
 625              	L31:
 626              		.loc 2 37 0 discriminator 8
 627 0824 A0040000 		movb	___sput+4, %al
 627      00
 628 0829 3C06     		cmpb	$6, %al
 629 082b 7434     		je	L35
 630              		.loc 2 37 0 discriminator 13
 631 082d A1000000 		movl	__imp___iob, %eax
 631      00
 632 0832 83C040   		addl	$64, %eax
 633 0835 8944240C 		movl	%eax, 12(%esp)
 634 0839 C7442408 		movl	$29, 8(%esp)
 634      1D000000 
 635 0841 C7442404 		movl	$1, 4(%esp)
 635      01000000 
 636 0849 C7042400 		movl	$LC0, (%esp)
 636      000000
 637 0850 E8000000 		call	_fwrite
 637      00
 638 0855 C7042401 		movl	$1, (%esp)
 638      000000
 639 085c E8000000 		call	_exit
 639      00
 640              	L35:
 641              		.loc 2 37 0 discriminator 14
 642 0861 A1180000 		movl	___sput+24, %eax
 642      00
 643 0866 85C0     		testl	%eax, %eax
 644 0868 7531     		jne	L36
GAS LISTING C:\Users\PRESID~1\AppData\Local\Temp\ccPJOK5j.s 			page 23


 645              		.loc 2 37 0 discriminator 15
 646 086a A1000000 		movl	___sput, %eax
 646      00
 647 086f 8944240C 		movl	%eax, 12(%esp)
 648 0873 C7442408 		movl	$27, 8(%esp)
 648      1B000000 
 649 087b C7442404 		movl	$1, 4(%esp)
 649      01000000 
 650 0883 C704241E 		movl	$LC1, (%esp)
 650      000000
 651 088a E8000000 		call	_fwrite
 651      00
 652 088f C7042401 		movl	$1, (%esp)
 652      000000
 653 0896 E8000000 		call	_exit
 653      00
 654              	L36:
 655              		.loc 2 37 0 discriminator 16
 656 089b A1240000 		movl	___sput+36, %eax
 656      00
 657 08a0 40       		incl	%eax
 658 08a1 A3240000 		movl	%eax, ___sput+36
 658      00
 659 08a6 8B3D3400 		movl	___sput+52, %edi
 659      0000
 660 08ac 8B353000 		movl	___sput+48, %esi
 660      0000
 661 08b2 8B1D2C00 		movl	___sput+44, %ebx
 661      0000
 662 08b8 8B0D2000 		movl	___sput+32, %ecx
 662      0000
 663 08be 8B151C00 		movl	___sput+28, %edx
 663      0000
 664 08c4 A1000000 		movl	___sput, %eax
 664      00
 665 08c9 897C2418 		movl	%edi, 24(%esp)
 666 08cd 89742414 		movl	%esi, 20(%esp)
 667 08d1 895C2410 		movl	%ebx, 16(%esp)
 668 08d5 894C240C 		movl	%ecx, 12(%esp)
 669 08d9 89542408 		movl	%edx, 8(%esp)
 670 08dd C7442404 		movl	$LC8, 4(%esp)
 670      E8000000 
 671 08e5 890424   		movl	%eax, (%esp)
 672 08e8 E813F7FF 		call	_fprintf
 672      FF
 673              	L34:
  38:E:/NeuOrga/Programmieren/c_cpp/github_os/input/src/os_base\os_init_task_system_test.c ****    sput_fail_unless(count_vowels("Peter") == 2, "Peter == 2v");
 674              		.loc 2 38 0 is_stmt 1
 675 08ed A0040000 		movb	___sput+4, %al
 675      00
 676 08f2 3C06     		cmpb	$6, %al
 677 08f4 7434     		je	L37
 678              		.loc 2 38 0 is_stmt 0 discriminator 1
 679 08f6 A1000000 		movl	__imp___iob, %eax
 679      00
 680 08fb 83C040   		addl	$64, %eax
 681 08fe 8944240C 		movl	%eax, 12(%esp)
GAS LISTING C:\Users\PRESID~1\AppData\Local\Temp\ccPJOK5j.s 			page 24


 682 0902 C7442408 		movl	$29, 8(%esp)
 682      1D000000 
 683 090a C7442404 		movl	$1, 4(%esp)
 683      01000000 
 684 0912 C7042400 		movl	$LC0, (%esp)
 684      000000
 685 0919 E8000000 		call	_fwrite
 685      00
 686 091e C7042401 		movl	$1, (%esp)
 686      000000
 687 0925 E8000000 		call	_exit
 687      00
 688              	L37:
 689              		.loc 2 38 0 discriminator 2
 690 092a A1180000 		movl	___sput+24, %eax
 690      00
 691 092f 85C0     		testl	%eax, %eax
 692 0931 7531     		jne	L38
 693              		.loc 2 38 0 discriminator 3
 694 0933 A1000000 		movl	___sput, %eax
 694      00
 695 0938 8944240C 		movl	%eax, 12(%esp)
 696 093c C7442408 		movl	$27, 8(%esp)
 696      1B000000 
 697 0944 C7442404 		movl	$1, 4(%esp)
 697      01000000 
 698 094c C704241E 		movl	$LC1, (%esp)
 698      000000
 699 0953 E8000000 		call	_fwrite
 699      00
 700 0958 C7042401 		movl	$1, (%esp)
 700      000000
 701 095f E8000000 		call	_exit
 701      00
 702              	L38:
 703              		.loc 2 38 0 discriminator 4
 704 0964 A12C0000 		movl	___sput+44, %eax
 704      00
 705 0969 85C0     		testl	%eax, %eax
 706 096b 7531     		jne	L39
 707              		.loc 2 38 0 discriminator 5
 708 096d A1000000 		movl	___sput, %eax
 708      00
 709 0972 8944240C 		movl	%eax, 12(%esp)
 710 0976 C7442408 		movl	$24, 8(%esp)
 710      18000000 
 711 097e C7442404 		movl	$1, 4(%esp)
 711      01000000 
 712 0986 C704243A 		movl	$LC2, (%esp)
 712      000000
 713 098d E8000000 		call	_fwrite
 713      00
 714 0992 C7042401 		movl	$1, (%esp)
 714      000000
 715 0999 E8000000 		call	_exit
 715      00
 716              	L39:
GAS LISTING C:\Users\PRESID~1\AppData\Local\Temp\ccPJOK5j.s 			page 25


 717              		.loc 2 38 0 discriminator 6
 718 099e C7053400 		movl	$LC15, ___sput+52
 718      00005C01 
 718      0000
 719 09a8 C7054000 		movl	$38, ___sput+64
 719      00002600 
 719      0000
 720 09b2 C7053800 		movl	$LC16, ___sput+56
 720      00006801 
 720      0000
 721 09bc C7053C00 		movl	$LC5, ___sput+60
 721      00007800 
 721      0000
 722 09c6 A1300000 		movl	___sput+48, %eax
 722      00
 723 09cb 40       		incl	%eax
 724 09cc A3300000 		movl	%eax, ___sput+48
 724      00
 725 09d1 A1200000 		movl	___sput+32, %eax
 725      00
 726 09d6 40       		incl	%eax
 727 09d7 A3200000 		movl	%eax, ___sput+32
 727      00
 728 09dc C7042483 		movl	$LC17, (%esp)
 728      010000
 729 09e3 E848F6FF 		call	_count_vowels
 729      FF
 730 09e8 83F802   		cmpl	$2, %eax
 731 09eb 0F84FD00 		je	L40
 731      0000
 732              		.loc 2 38 0 discriminator 7
 733 09f1 A0040000 		movb	___sput+4, %al
 733      00
 734 09f6 3C06     		cmpb	$6, %al
 735 09f8 7434     		je	L41
 736              		.loc 2 38 0 discriminator 9
 737 09fa A1000000 		movl	__imp___iob, %eax
 737      00
 738 09ff 83C040   		addl	$64, %eax
 739 0a02 8944240C 		movl	%eax, 12(%esp)
 740 0a06 C7442408 		movl	$29, 8(%esp)
 740      1D000000 
 741 0a0e C7442404 		movl	$1, 4(%esp)
 741      01000000 
 742 0a16 C7042400 		movl	$LC0, (%esp)
 742      000000
 743 0a1d E8000000 		call	_fwrite
 743      00
 744 0a22 C7042401 		movl	$1, (%esp)
 744      000000
 745 0a29 E8000000 		call	_exit
 745      00
 746              	L41:
 747              		.loc 2 38 0 discriminator 10
 748 0a2e A1180000 		movl	___sput+24, %eax
 748      00
 749 0a33 85C0     		testl	%eax, %eax
GAS LISTING C:\Users\PRESID~1\AppData\Local\Temp\ccPJOK5j.s 			page 26


 750 0a35 7531     		jne	L42
 751              		.loc 2 38 0 discriminator 11
 752 0a37 A1000000 		movl	___sput, %eax
 752      00
 753 0a3c 8944240C 		movl	%eax, 12(%esp)
 754 0a40 C7442408 		movl	$27, 8(%esp)
 754      1B000000 
 755 0a48 C7442404 		movl	$1, 4(%esp)
 755      01000000 
 756 0a50 C704241E 		movl	$LC1, (%esp)
 756      000000
 757 0a57 E8000000 		call	_fwrite
 757      00
 758 0a5c C7042401 		movl	$1, (%esp)
 758      000000
 759 0a63 E8000000 		call	_exit
 759      00
 760              	L42:
 761              		.loc 2 38 0 discriminator 12
 762 0a68 A1280000 		movl	___sput+40, %eax
 762      00
 763 0a6d 40       		incl	%eax
 764 0a6e A3280000 		movl	%eax, ___sput+40
 764      00
 765 0a73 8B154000 		movl	___sput+64, %edx
 765      0000
 766 0a79 8B1D3800 		movl	___sput+56, %ebx
 766      0000
 767 0a7f A13C0000 		movl	___sput+60, %eax
 767      00
 768 0a84 8945E4   		movl	%eax, -28(%ebp)
 769 0a87 8B0D3400 		movl	___sput+52, %ecx
 769      0000
 770 0a8d 894DE0   		movl	%ecx, -32(%ebp)
 771 0a90 8B353000 		movl	___sput+48, %esi
 771      0000
 772 0a96 8975DC   		movl	%esi, -36(%ebp)
 773 0a99 8B3D2C00 		movl	___sput+44, %edi
 773      0000
 774 0a9f 8B352000 		movl	___sput+32, %esi
 774      0000
 775 0aa5 8B0D1C00 		movl	___sput+28, %ecx
 775      0000
 776 0aab A1000000 		movl	___sput, %eax
 776      00
 777 0ab0 89542424 		movl	%edx, 36(%esp)
 778 0ab4 895C2420 		movl	%ebx, 32(%esp)
 779 0ab8 8B5DE4   		movl	-28(%ebp), %ebx
 780 0abb 895C241C 		movl	%ebx, 28(%esp)
 781 0abf 8B55E0   		movl	-32(%ebp), %edx
 782 0ac2 89542418 		movl	%edx, 24(%esp)
 783 0ac6 8B5DDC   		movl	-36(%ebp), %ebx
 784 0ac9 895C2414 		movl	%ebx, 20(%esp)
 785 0acd 897C2410 		movl	%edi, 16(%esp)
 786 0ad1 8974240C 		movl	%esi, 12(%esp)
 787 0ad5 894C2408 		movl	%ecx, 8(%esp)
 788 0ad9 C7442404 		movl	$LC7, 4(%esp)
GAS LISTING C:\Users\PRESID~1\AppData\Local\Temp\ccPJOK5j.s 			page 27


 788      8C000000 
 789 0ae1 890424   		movl	%eax, (%esp)
 790 0ae4 E817F5FF 		call	_fprintf
 790      FF
 791 0ae9 E9C90000 		jmp	L43
 791      00
 792              	L40:
 793              		.loc 2 38 0 discriminator 8
 794 0aee A0040000 		movb	___sput+4, %al
 794      00
 795 0af3 3C06     		cmpb	$6, %al
 796 0af5 7434     		je	L44
 797              		.loc 2 38 0 discriminator 13
 798 0af7 A1000000 		movl	__imp___iob, %eax
 798      00
 799 0afc 83C040   		addl	$64, %eax
 800 0aff 8944240C 		movl	%eax, 12(%esp)
 801 0b03 C7442408 		movl	$29, 8(%esp)
 801      1D000000 
 802 0b0b C7442404 		movl	$1, 4(%esp)
 802      01000000 
 803 0b13 C7042400 		movl	$LC0, (%esp)
 803      000000
 804 0b1a E8000000 		call	_fwrite
 804      00
 805 0b1f C7042401 		movl	$1, (%esp)
 805      000000
 806 0b26 E8000000 		call	_exit
 806      00
 807              	L44:
 808              		.loc 2 38 0 discriminator 14
 809 0b2b A1180000 		movl	___sput+24, %eax
 809      00
 810 0b30 85C0     		testl	%eax, %eax
 811 0b32 7531     		jne	L45
 812              		.loc 2 38 0 discriminator 15
 813 0b34 A1000000 		movl	___sput, %eax
 813      00
 814 0b39 8944240C 		movl	%eax, 12(%esp)
 815 0b3d C7442408 		movl	$27, 8(%esp)
 815      1B000000 
 816 0b45 C7442404 		movl	$1, 4(%esp)
 816      01000000 
 817 0b4d C704241E 		movl	$LC1, (%esp)
 817      000000
 818 0b54 E8000000 		call	_fwrite
 818      00
 819 0b59 C7042401 		movl	$1, (%esp)
 819      000000
 820 0b60 E8000000 		call	_exit
 820      00
 821              	L45:
 822              		.loc 2 38 0 discriminator 16
 823 0b65 A1240000 		movl	___sput+36, %eax
 823      00
 824 0b6a 40       		incl	%eax
 825 0b6b A3240000 		movl	%eax, ___sput+36
GAS LISTING C:\Users\PRESID~1\AppData\Local\Temp\ccPJOK5j.s 			page 28


 825      00
 826 0b70 8B3D3400 		movl	___sput+52, %edi
 826      0000
 827 0b76 8B353000 		movl	___sput+48, %esi
 827      0000
 828 0b7c 8B1D2C00 		movl	___sput+44, %ebx
 828      0000
 829 0b82 8B0D2000 		movl	___sput+32, %ecx
 829      0000
 830 0b88 8B151C00 		movl	___sput+28, %edx
 830      0000
 831 0b8e A1000000 		movl	___sput, %eax
 831      00
 832 0b93 897C2418 		movl	%edi, 24(%esp)
 833 0b97 89742414 		movl	%esi, 20(%esp)
 834 0b9b 895C2410 		movl	%ebx, 16(%esp)
 835 0b9f 894C240C 		movl	%ecx, 12(%esp)
 836 0ba3 89542408 		movl	%edx, 8(%esp)
 837 0ba7 C7442404 		movl	$LC8, 4(%esp)
 837      E8000000 
 838 0baf 890424   		movl	%eax, (%esp)
 839 0bb2 E849F4FF 		call	_fprintf
 839      FF
 840              	L43:
  39:E:/NeuOrga/Programmieren/c_cpp/github_os/input/src/os_base\os_init_task_system_test.c ****    sput_fail_unless(count_vowels("Apu")   == 2, "Apu == 2v");
 841              		.loc 2 39 0 is_stmt 1
 842 0bb7 A0040000 		movb	___sput+4, %al
 842      00
 843 0bbc 3C06     		cmpb	$6, %al
 844 0bbe 7434     		je	L46
 845              		.loc 2 39 0 is_stmt 0 discriminator 1
 846 0bc0 A1000000 		movl	__imp___iob, %eax
 846      00
 847 0bc5 83C040   		addl	$64, %eax
 848 0bc8 8944240C 		movl	%eax, 12(%esp)
 849 0bcc C7442408 		movl	$29, 8(%esp)
 849      1D000000 
 850 0bd4 C7442404 		movl	$1, 4(%esp)
 850      01000000 
 851 0bdc C7042400 		movl	$LC0, (%esp)
 851      000000
 852 0be3 E8000000 		call	_fwrite
 852      00
 853 0be8 C7042401 		movl	$1, (%esp)
 853      000000
 854 0bef E8000000 		call	_exit
 854      00
 855              	L46:
 856              		.loc 2 39 0 discriminator 2
 857 0bf4 A1180000 		movl	___sput+24, %eax
 857      00
 858 0bf9 85C0     		testl	%eax, %eax
 859 0bfb 7531     		jne	L47
 860              		.loc 2 39 0 discriminator 3
 861 0bfd A1000000 		movl	___sput, %eax
 861      00
 862 0c02 8944240C 		movl	%eax, 12(%esp)
GAS LISTING C:\Users\PRESID~1\AppData\Local\Temp\ccPJOK5j.s 			page 29


 863 0c06 C7442408 		movl	$27, 8(%esp)
 863      1B000000 
 864 0c0e C7442404 		movl	$1, 4(%esp)
 864      01000000 
 865 0c16 C704241E 		movl	$LC1, (%esp)
 865      000000
 866 0c1d E8000000 		call	_fwrite
 866      00
 867 0c22 C7042401 		movl	$1, (%esp)
 867      000000
 868 0c29 E8000000 		call	_exit
 868      00
 869              	L47:
 870              		.loc 2 39 0 discriminator 4
 871 0c2e A12C0000 		movl	___sput+44, %eax
 871      00
 872 0c33 85C0     		testl	%eax, %eax
 873 0c35 7531     		jne	L48
 874              		.loc 2 39 0 discriminator 5
 875 0c37 A1000000 		movl	___sput, %eax
 875      00
 876 0c3c 8944240C 		movl	%eax, 12(%esp)
 877 0c40 C7442408 		movl	$24, 8(%esp)
 877      18000000 
 878 0c48 C7442404 		movl	$1, 4(%esp)
 878      01000000 
 879 0c50 C704243A 		movl	$LC2, (%esp)
 879      000000
 880 0c57 E8000000 		call	_fwrite
 880      00
 881 0c5c C7042401 		movl	$1, (%esp)
 881      000000
 882 0c63 E8000000 		call	_exit
 882      00
 883              	L48:
 884              		.loc 2 39 0 discriminator 6
 885 0c68 C7053400 		movl	$LC18, ___sput+52
 885      00008901 
 885      0000
 886 0c72 C7054000 		movl	$39, ___sput+64
 886      00002700 
 886      0000
 887 0c7c C7053800 		movl	$LC19, ___sput+56
 887      00009301 
 887      0000
 888 0c86 C7053C00 		movl	$LC5, ___sput+60
 888      00007800 
 888      0000
 889 0c90 A1300000 		movl	___sput+48, %eax
 889      00
 890 0c95 40       		incl	%eax
 891 0c96 A3300000 		movl	%eax, ___sput+48
 891      00
 892 0c9b A1200000 		movl	___sput+32, %eax
 892      00
 893 0ca0 40       		incl	%eax
 894 0ca1 A3200000 		movl	%eax, ___sput+32
GAS LISTING C:\Users\PRESID~1\AppData\Local\Temp\ccPJOK5j.s 			page 30


 894      00
 895 0ca6 C70424AC 		movl	$LC20, (%esp)
 895      010000
 896 0cad E87EF3FF 		call	_count_vowels
 896      FF
 897 0cb2 83F802   		cmpl	$2, %eax
 898 0cb5 0F84FD00 		je	L49
 898      0000
 899              		.loc 2 39 0 discriminator 7
 900 0cbb A0040000 		movb	___sput+4, %al
 900      00
 901 0cc0 3C06     		cmpb	$6, %al
 902 0cc2 7434     		je	L50
 903              		.loc 2 39 0 discriminator 9
 904 0cc4 A1000000 		movl	__imp___iob, %eax
 904      00
 905 0cc9 83C040   		addl	$64, %eax
 906 0ccc 8944240C 		movl	%eax, 12(%esp)
 907 0cd0 C7442408 		movl	$29, 8(%esp)
 907      1D000000 
 908 0cd8 C7442404 		movl	$1, 4(%esp)
 908      01000000 
 909 0ce0 C7042400 		movl	$LC0, (%esp)
 909      000000
 910 0ce7 E8000000 		call	_fwrite
 910      00
 911 0cec C7042401 		movl	$1, (%esp)
 911      000000
 912 0cf3 E8000000 		call	_exit
 912      00
 913              	L50:
 914              		.loc 2 39 0 discriminator 10
 915 0cf8 A1180000 		movl	___sput+24, %eax
 915      00
 916 0cfd 85C0     		testl	%eax, %eax
 917 0cff 7531     		jne	L51
 918              		.loc 2 39 0 discriminator 11
 919 0d01 A1000000 		movl	___sput, %eax
 919      00
 920 0d06 8944240C 		movl	%eax, 12(%esp)
 921 0d0a C7442408 		movl	$27, 8(%esp)
 921      1B000000 
 922 0d12 C7442404 		movl	$1, 4(%esp)
 922      01000000 
 923 0d1a C704241E 		movl	$LC1, (%esp)
 923      000000
 924 0d21 E8000000 		call	_fwrite
 924      00
 925 0d26 C7042401 		movl	$1, (%esp)
 925      000000
 926 0d2d E8000000 		call	_exit
 926      00
 927              	L51:
 928              		.loc 2 39 0 discriminator 12
 929 0d32 A1280000 		movl	___sput+40, %eax
 929      00
 930 0d37 40       		incl	%eax
GAS LISTING C:\Users\PRESID~1\AppData\Local\Temp\ccPJOK5j.s 			page 31


 931 0d38 A3280000 		movl	%eax, ___sput+40
 931      00
 932 0d3d 8B154000 		movl	___sput+64, %edx
 932      0000
 933 0d43 8B1D3800 		movl	___sput+56, %ebx
 933      0000
 934 0d49 A13C0000 		movl	___sput+60, %eax
 934      00
 935 0d4e 8945E4   		movl	%eax, -28(%ebp)
 936 0d51 8B3D3400 		movl	___sput+52, %edi
 936      0000
 937 0d57 897DE0   		movl	%edi, -32(%ebp)
 938 0d5a 8B0D3000 		movl	___sput+48, %ecx
 938      0000
 939 0d60 894DDC   		movl	%ecx, -36(%ebp)
 940 0d63 8B3D2C00 		movl	___sput+44, %edi
 940      0000
 941 0d69 8B352000 		movl	___sput+32, %esi
 941      0000
 942 0d6f 8B0D1C00 		movl	___sput+28, %ecx
 942      0000
 943 0d75 A1000000 		movl	___sput, %eax
 943      00
 944 0d7a 89542424 		movl	%edx, 36(%esp)
 945 0d7e 895C2420 		movl	%ebx, 32(%esp)
 946 0d82 8B55E4   		movl	-28(%ebp), %edx
 947 0d85 8954241C 		movl	%edx, 28(%esp)
 948 0d89 8B5DE0   		movl	-32(%ebp), %ebx
 949 0d8c 895C2418 		movl	%ebx, 24(%esp)
 950 0d90 8B55DC   		movl	-36(%ebp), %edx
 951 0d93 89542414 		movl	%edx, 20(%esp)
 952 0d97 897C2410 		movl	%edi, 16(%esp)
 953 0d9b 8974240C 		movl	%esi, 12(%esp)
 954 0d9f 894C2408 		movl	%ecx, 8(%esp)
 955 0da3 C7442404 		movl	$LC7, 4(%esp)
 955      8C000000 
 956 0dab 890424   		movl	%eax, (%esp)
 957 0dae E84DF2FF 		call	_fprintf
 957      FF
 958 0db3 E9C90000 		jmp	L9
 958      00
 959              	L49:
 960              		.loc 2 39 0 discriminator 8
 961 0db8 A0040000 		movb	___sput+4, %al
 961      00
 962 0dbd 3C06     		cmpb	$6, %al
 963 0dbf 7434     		je	L53
 964              		.loc 2 39 0 discriminator 13
 965 0dc1 A1000000 		movl	__imp___iob, %eax
 965      00
 966 0dc6 83C040   		addl	$64, %eax
 967 0dc9 8944240C 		movl	%eax, 12(%esp)
 968 0dcd C7442408 		movl	$29, 8(%esp)
 968      1D000000 
 969 0dd5 C7442404 		movl	$1, 4(%esp)
 969      01000000 
 970 0ddd C7042400 		movl	$LC0, (%esp)
GAS LISTING C:\Users\PRESID~1\AppData\Local\Temp\ccPJOK5j.s 			page 32


 970      000000
 971 0de4 E8000000 		call	_fwrite
 971      00
 972 0de9 C7042401 		movl	$1, (%esp)
 972      000000
 973 0df0 E8000000 		call	_exit
 973      00
 974              	L53:
 975              		.loc 2 39 0 discriminator 14
 976 0df5 A1180000 		movl	___sput+24, %eax
 976      00
 977 0dfa 85C0     		testl	%eax, %eax
 978 0dfc 7531     		jne	L54
 979              		.loc 2 39 0 discriminator 15
 980 0dfe A1000000 		movl	___sput, %eax
 980      00
 981 0e03 8944240C 		movl	%eax, 12(%esp)
 982 0e07 C7442408 		movl	$27, 8(%esp)
 982      1B000000 
 983 0e0f C7442404 		movl	$1, 4(%esp)
 983      01000000 
 984 0e17 C704241E 		movl	$LC1, (%esp)
 984      000000
 985 0e1e E8000000 		call	_fwrite
 985      00
 986 0e23 C7042401 		movl	$1, (%esp)
 986      000000
 987 0e2a E8000000 		call	_exit
 987      00
 988              	L54:
 989              		.loc 2 39 0 discriminator 16
 990 0e2f A1240000 		movl	___sput+36, %eax
 990      00
 991 0e34 40       		incl	%eax
 992 0e35 A3240000 		movl	%eax, ___sput+36
 992      00
 993 0e3a 8B3D3400 		movl	___sput+52, %edi
 993      0000
 994 0e40 8B353000 		movl	___sput+48, %esi
 994      0000
 995 0e46 8B1D2C00 		movl	___sput+44, %ebx
 995      0000
 996 0e4c 8B0D2000 		movl	___sput+32, %ecx
 996      0000
 997 0e52 8B151C00 		movl	___sput+28, %edx
 997      0000
 998 0e58 A1000000 		movl	___sput, %eax
 998      00
 999 0e5d 897C2418 		movl	%edi, 24(%esp)
 1000 0e61 89742414 		movl	%esi, 20(%esp)
 1001 0e65 895C2410 		movl	%ebx, 16(%esp)
 1002 0e69 894C240C 		movl	%ecx, 12(%esp)
 1003 0e6d 89542408 		movl	%edx, 8(%esp)
 1004 0e71 C7442404 		movl	$LC8, 4(%esp)
 1004      E8000000 
 1005 0e79 890424   		movl	%eax, (%esp)
 1006 0e7c E87FF1FF 		call	_fprintf
GAS LISTING C:\Users\PRESID~1\AppData\Local\Temp\ccPJOK5j.s 			page 33


 1006      FF
 1007              	L9:
  40:E:/NeuOrga/Programmieren/c_cpp/github_os/input/src/os_base\os_init_task_system_test.c **** }
 1008              		.loc 2 40 0 is_stmt 1
 1009 0e81 83C44C   		addl	$76, %esp
 1010 0e84 5B       		popl	%ebx
 1011              		.cfi_restore 3
 1012 0e85 5E       		popl	%esi
 1013              		.cfi_restore 6
 1014 0e86 5F       		popl	%edi
 1015              		.cfi_restore 7
 1016 0e87 5D       		popl	%ebp
 1017              		.cfi_restore 5
 1018              		.cfi_def_cfa 4, 4
 1019 0e88 C3       		ret
 1020              		.cfi_endproc
 1021              	LFE11:
 1022              		.section .rdata,"dr"
 1023              	LC21:
 1024 01b0 47434320 		.ascii "GCC == 0v\0"
 1024      3D3D2030 
 1024      7600
 1025              	LC22:
 1026 01ba 636F756E 		.ascii "count_vowels(\"GCC\") == 0\0"
 1026      745F766F 
 1026      77656C73 
 1026      28224743 
 1026      43222920 
 1027              	LC23:
 1028 01d3 47434300 		.ascii "GCC\0"
 1029              	LC24:
 1030 01d7 42424320 		.ascii "BBC == 0v\0"
 1030      3D3D2030 
 1030      7600
 1031              	LC25:
 1032 01e1 636F756E 		.ascii "count_vowels(\"BBC\") == 0\0"
 1032      745F766F 
 1032      77656C73 
 1032      28224242 
 1032      43222920 
 1033              	LC26:
 1034 01fa 42424300 		.ascii "BBC\0"
 1035              	LC27:
 1036 01fe 434E4E20 		.ascii "CNN == 0v\0"
 1036      3D3D2030 
 1036      7600
 1037              	LC28:
 1038 0208 636F756E 		.ascii "count_vowels(\"CNN\") == 0\0"
 1038      745F766F 
 1038      77656C73 
 1038      2822434E 
 1038      4E222920 
 1039              	LC29:
 1040 0221 434E4E00 		.ascii "CNN\0"
 1041              	LC30:
 1042 0225 47505320 		.ascii "GPS == 0v\0"
 1042      3D3D2030 
GAS LISTING C:\Users\PRESID~1\AppData\Local\Temp\ccPJOK5j.s 			page 34


 1042      7600
 1043              	LC31:
 1044 022f 636F756E 		.ascii "count_vowels(\"GPS\") == 0\0"
 1044      745F766F 
 1044      77656C73 
 1044      28224750 
 1044      53222920 
 1045              	LC32:
 1046 0248 47505300 		.ascii "GPS\0"
 1047              	LC33:
 1048 024c 4C746420 		.ascii "Ltd == 0v\0"
 1048      3D3D2030 
 1048      7600
 1049              	LC34:
 1050 0256 636F756E 		.ascii "count_vowels(\"Ltd\") == 0\0"
 1050      745F766F 
 1050      77656C73 
 1050      28224C74 
 1050      64222920 
 1051              	LC35:
 1052 026f 4C746400 		.ascii "Ltd\0"
 1053              		.text
 1055              	_test_no_vowels_present:
 1056              	LFB12:
  41:E:/NeuOrga/Programmieren/c_cpp/github_os/input/src/os_base\os_init_task_system_test.c **** 
  42:E:/NeuOrga/Programmieren/c_cpp/github_os/input/src/os_base\os_init_task_system_test.c **** 
  43:E:/NeuOrga/Programmieren/c_cpp/github_os/input/src/os_base\os_init_task_system_test.c **** static void test_no_vowels_present()
  44:E:/NeuOrga/Programmieren/c_cpp/github_os/input/src/os_base\os_init_task_system_test.c **** {
 1057              		.loc 2 44 0
 1058              		.cfi_startproc
 1059 0e89 55       		pushl	%ebp
 1060              		.cfi_def_cfa_offset 8
 1061              		.cfi_offset 5, -8
 1062 0e8a 89E5     		movl	%esp, %ebp
 1063              		.cfi_def_cfa_register 5
 1064 0e8c 57       		pushl	%edi
 1065 0e8d 56       		pushl	%esi
 1066 0e8e 53       		pushl	%ebx
 1067 0e8f 83EC4C   		subl	$76, %esp
 1068              		.cfi_offset 7, -12
 1069              		.cfi_offset 6, -16
 1070              		.cfi_offset 3, -20
  45:E:/NeuOrga/Programmieren/c_cpp/github_os/input/src/os_base\os_init_task_system_test.c ****    sput_fail_unless(count_vowels("GCC") == 0, "GCC == 0v");
 1071              		.loc 2 45 0
 1072 0e92 A0040000 		movb	___sput+4, %al
 1072      00
 1073 0e97 3C06     		cmpb	$6, %al
 1074 0e99 7434     		je	L56
 1075              		.loc 2 45 0 is_stmt 0 discriminator 1
 1076 0e9b A1000000 		movl	__imp___iob, %eax
 1076      00
 1077 0ea0 83C040   		addl	$64, %eax
 1078 0ea3 8944240C 		movl	%eax, 12(%esp)
 1079 0ea7 C7442408 		movl	$29, 8(%esp)
 1079      1D000000 
 1080 0eaf C7442404 		movl	$1, 4(%esp)
 1080      01000000 
GAS LISTING C:\Users\PRESID~1\AppData\Local\Temp\ccPJOK5j.s 			page 35


 1081 0eb7 C7042400 		movl	$LC0, (%esp)
 1081      000000
 1082 0ebe E8000000 		call	_fwrite
 1082      00
 1083 0ec3 C7042401 		movl	$1, (%esp)
 1083      000000
 1084 0eca E8000000 		call	_exit
 1084      00
 1085              	L56:
 1086              		.loc 2 45 0 discriminator 2
 1087 0ecf A1180000 		movl	___sput+24, %eax
 1087      00
 1088 0ed4 85C0     		testl	%eax, %eax
 1089 0ed6 7531     		jne	L57
 1090              		.loc 2 45 0 discriminator 3
 1091 0ed8 A1000000 		movl	___sput, %eax
 1091      00
 1092 0edd 8944240C 		movl	%eax, 12(%esp)
 1093 0ee1 C7442408 		movl	$27, 8(%esp)
 1093      1B000000 
 1094 0ee9 C7442404 		movl	$1, 4(%esp)
 1094      01000000 
 1095 0ef1 C704241E 		movl	$LC1, (%esp)
 1095      000000
 1096 0ef8 E8000000 		call	_fwrite
 1096      00
 1097 0efd C7042401 		movl	$1, (%esp)
 1097      000000
 1098 0f04 E8000000 		call	_exit
 1098      00
 1099              	L57:
 1100              		.loc 2 45 0 discriminator 4
 1101 0f09 A12C0000 		movl	___sput+44, %eax
 1101      00
 1102 0f0e 85C0     		testl	%eax, %eax
 1103 0f10 7531     		jne	L58
 1104              		.loc 2 45 0 discriminator 5
 1105 0f12 A1000000 		movl	___sput, %eax
 1105      00
 1106 0f17 8944240C 		movl	%eax, 12(%esp)
 1107 0f1b C7442408 		movl	$24, 8(%esp)
 1107      18000000 
 1108 0f23 C7442404 		movl	$1, 4(%esp)
 1108      01000000 
 1109 0f2b C704243A 		movl	$LC2, (%esp)
 1109      000000
 1110 0f32 E8000000 		call	_fwrite
 1110      00
 1111 0f37 C7042401 		movl	$1, (%esp)
 1111      000000
 1112 0f3e E8000000 		call	_exit
 1112      00
 1113              	L58:
 1114              		.loc 2 45 0 discriminator 6
 1115 0f43 C7053400 		movl	$LC21, ___sput+52
 1115      0000B001 
 1115      0000
GAS LISTING C:\Users\PRESID~1\AppData\Local\Temp\ccPJOK5j.s 			page 36


 1116 0f4d C7054000 		movl	$45, ___sput+64
 1116      00002D00 
 1116      0000
 1117 0f57 C7053800 		movl	$LC22, ___sput+56
 1117      0000BA01 
 1117      0000
 1118 0f61 C7053C00 		movl	$LC5, ___sput+60
 1118      00007800 
 1118      0000
 1119 0f6b A1300000 		movl	___sput+48, %eax
 1119      00
 1120 0f70 40       		incl	%eax
 1121 0f71 A3300000 		movl	%eax, ___sput+48
 1121      00
 1122 0f76 A1200000 		movl	___sput+32, %eax
 1122      00
 1123 0f7b 40       		incl	%eax
 1124 0f7c A3200000 		movl	%eax, ___sput+32
 1124      00
 1125 0f81 C70424D3 		movl	$LC23, (%esp)
 1125      010000
 1126 0f88 E8A3F0FF 		call	_count_vowels
 1126      FF
 1127 0f8d 85C0     		testl	%eax, %eax
 1128 0f8f 0F84FD00 		je	L59
 1128      0000
 1129              		.loc 2 45 0 discriminator 7
 1130 0f95 A0040000 		movb	___sput+4, %al
 1130      00
 1131 0f9a 3C06     		cmpb	$6, %al
 1132 0f9c 7434     		je	L60
 1133              		.loc 2 45 0 discriminator 9
 1134 0f9e A1000000 		movl	__imp___iob, %eax
 1134      00
 1135 0fa3 83C040   		addl	$64, %eax
 1136 0fa6 8944240C 		movl	%eax, 12(%esp)
 1137 0faa C7442408 		movl	$29, 8(%esp)
 1137      1D000000 
 1138 0fb2 C7442404 		movl	$1, 4(%esp)
 1138      01000000 
 1139 0fba C7042400 		movl	$LC0, (%esp)
 1139      000000
 1140 0fc1 E8000000 		call	_fwrite
 1140      00
 1141 0fc6 C7042401 		movl	$1, (%esp)
 1141      000000
 1142 0fcd E8000000 		call	_exit
 1142      00
 1143              	L60:
 1144              		.loc 2 45 0 discriminator 10
 1145 0fd2 A1180000 		movl	___sput+24, %eax
 1145      00
 1146 0fd7 85C0     		testl	%eax, %eax
 1147 0fd9 7531     		jne	L61
 1148              		.loc 2 45 0 discriminator 11
 1149 0fdb A1000000 		movl	___sput, %eax
 1149      00
GAS LISTING C:\Users\PRESID~1\AppData\Local\Temp\ccPJOK5j.s 			page 37


 1150 0fe0 8944240C 		movl	%eax, 12(%esp)
 1151 0fe4 C7442408 		movl	$27, 8(%esp)
 1151      1B000000 
 1152 0fec C7442404 		movl	$1, 4(%esp)
 1152      01000000 
 1153 0ff4 C704241E 		movl	$LC1, (%esp)
 1153      000000
 1154 0ffb E8000000 		call	_fwrite
 1154      00
 1155 1000 C7042401 		movl	$1, (%esp)
 1155      000000
 1156 1007 E8000000 		call	_exit
 1156      00
 1157              	L61:
 1158              		.loc 2 45 0 discriminator 12
 1159 100c A1280000 		movl	___sput+40, %eax
 1159      00
 1160 1011 40       		incl	%eax
 1161 1012 A3280000 		movl	%eax, ___sput+40
 1161      00
 1162 1017 8B154000 		movl	___sput+64, %edx
 1162      0000
 1163 101d 8B1D3800 		movl	___sput+56, %ebx
 1163      0000
 1164 1023 A13C0000 		movl	___sput+60, %eax
 1164      00
 1165 1028 8945E4   		movl	%eax, -28(%ebp)
 1166 102b 8B0D3400 		movl	___sput+52, %ecx
 1166      0000
 1167 1031 894DE0   		movl	%ecx, -32(%ebp)
 1168 1034 8B353000 		movl	___sput+48, %esi
 1168      0000
 1169 103a 8975DC   		movl	%esi, -36(%ebp)
 1170 103d 8B3D2C00 		movl	___sput+44, %edi
 1170      0000
 1171 1043 8B352000 		movl	___sput+32, %esi
 1171      0000
 1172 1049 8B0D1C00 		movl	___sput+28, %ecx
 1172      0000
 1173 104f A1000000 		movl	___sput, %eax
 1173      00
 1174 1054 89542424 		movl	%edx, 36(%esp)
 1175 1058 895C2420 		movl	%ebx, 32(%esp)
 1176 105c 8B55E4   		movl	-28(%ebp), %edx
 1177 105f 8954241C 		movl	%edx, 28(%esp)
 1178 1063 8B5DE0   		movl	-32(%ebp), %ebx
 1179 1066 895C2418 		movl	%ebx, 24(%esp)
 1180 106a 8B55DC   		movl	-36(%ebp), %edx
 1181 106d 89542414 		movl	%edx, 20(%esp)
 1182 1071 897C2410 		movl	%edi, 16(%esp)
 1183 1075 8974240C 		movl	%esi, 12(%esp)
 1184 1079 894C2408 		movl	%ecx, 8(%esp)
 1185 107d C7442404 		movl	$LC7, 4(%esp)
 1185      8C000000 
 1186 1085 890424   		movl	%eax, (%esp)
 1187 1088 E873EFFF 		call	_fprintf
 1187      FF
GAS LISTING C:\Users\PRESID~1\AppData\Local\Temp\ccPJOK5j.s 			page 38


 1188 108d E9C90000 		jmp	L62
 1188      00
 1189              	L59:
 1190              		.loc 2 45 0 discriminator 8
 1191 1092 A0040000 		movb	___sput+4, %al
 1191      00
 1192 1097 3C06     		cmpb	$6, %al
 1193 1099 7434     		je	L63
 1194              		.loc 2 45 0 discriminator 13
 1195 109b A1000000 		movl	__imp___iob, %eax
 1195      00
 1196 10a0 83C040   		addl	$64, %eax
 1197 10a3 8944240C 		movl	%eax, 12(%esp)
 1198 10a7 C7442408 		movl	$29, 8(%esp)
 1198      1D000000 
 1199 10af C7442404 		movl	$1, 4(%esp)
 1199      01000000 
 1200 10b7 C7042400 		movl	$LC0, (%esp)
 1200      000000
 1201 10be E8000000 		call	_fwrite
 1201      00
 1202 10c3 C7042401 		movl	$1, (%esp)
 1202      000000
 1203 10ca E8000000 		call	_exit
 1203      00
 1204              	L63:
 1205              		.loc 2 45 0 discriminator 14
 1206 10cf A1180000 		movl	___sput+24, %eax
 1206      00
 1207 10d4 85C0     		testl	%eax, %eax
 1208 10d6 7531     		jne	L64
 1209              		.loc 2 45 0 discriminator 15
 1210 10d8 A1000000 		movl	___sput, %eax
 1210      00
 1211 10dd 8944240C 		movl	%eax, 12(%esp)
 1212 10e1 C7442408 		movl	$27, 8(%esp)
 1212      1B000000 
 1213 10e9 C7442404 		movl	$1, 4(%esp)
 1213      01000000 
 1214 10f1 C704241E 		movl	$LC1, (%esp)
 1214      000000
 1215 10f8 E8000000 		call	_fwrite
 1215      00
 1216 10fd C7042401 		movl	$1, (%esp)
 1216      000000
 1217 1104 E8000000 		call	_exit
 1217      00
 1218              	L64:
 1219              		.loc 2 45 0 discriminator 16
 1220 1109 A1240000 		movl	___sput+36, %eax
 1220      00
 1221 110e 40       		incl	%eax
 1222 110f A3240000 		movl	%eax, ___sput+36
 1222      00
 1223 1114 8B3D3400 		movl	___sput+52, %edi
 1223      0000
 1224 111a 8B353000 		movl	___sput+48, %esi
GAS LISTING C:\Users\PRESID~1\AppData\Local\Temp\ccPJOK5j.s 			page 39


 1224      0000
 1225 1120 8B1D2C00 		movl	___sput+44, %ebx
 1225      0000
 1226 1126 8B0D2000 		movl	___sput+32, %ecx
 1226      0000
 1227 112c 8B151C00 		movl	___sput+28, %edx
 1227      0000
 1228 1132 A1000000 		movl	___sput, %eax
 1228      00
 1229 1137 897C2418 		movl	%edi, 24(%esp)
 1230 113b 89742414 		movl	%esi, 20(%esp)
 1231 113f 895C2410 		movl	%ebx, 16(%esp)
 1232 1143 894C240C 		movl	%ecx, 12(%esp)
 1233 1147 89542408 		movl	%edx, 8(%esp)
 1234 114b C7442404 		movl	$LC8, 4(%esp)
 1234      E8000000 
 1235 1153 890424   		movl	%eax, (%esp)
 1236 1156 E8A5EEFF 		call	_fprintf
 1236      FF
 1237              	L62:
  46:E:/NeuOrga/Programmieren/c_cpp/github_os/input/src/os_base\os_init_task_system_test.c ****    sput_fail_unless(count_vowels("BBC") == 0, "BBC == 0v");
 1238              		.loc 2 46 0 is_stmt 1
 1239 115b A0040000 		movb	___sput+4, %al
 1239      00
 1240 1160 3C06     		cmpb	$6, %al
 1241 1162 7434     		je	L65
 1242              		.loc 2 46 0 is_stmt 0 discriminator 1
 1243 1164 A1000000 		movl	__imp___iob, %eax
 1243      00
 1244 1169 83C040   		addl	$64, %eax
 1245 116c 8944240C 		movl	%eax, 12(%esp)
 1246 1170 C7442408 		movl	$29, 8(%esp)
 1246      1D000000 
 1247 1178 C7442404 		movl	$1, 4(%esp)
 1247      01000000 
 1248 1180 C7042400 		movl	$LC0, (%esp)
 1248      000000
 1249 1187 E8000000 		call	_fwrite
 1249      00
 1250 118c C7042401 		movl	$1, (%esp)
 1250      000000
 1251 1193 E8000000 		call	_exit
 1251      00
 1252              	L65:
 1253              		.loc 2 46 0 discriminator 2
 1254 1198 A1180000 		movl	___sput+24, %eax
 1254      00
 1255 119d 85C0     		testl	%eax, %eax
 1256 119f 7531     		jne	L66
 1257              		.loc 2 46 0 discriminator 3
 1258 11a1 A1000000 		movl	___sput, %eax
 1258      00
 1259 11a6 8944240C 		movl	%eax, 12(%esp)
 1260 11aa C7442408 		movl	$27, 8(%esp)
 1260      1B000000 
 1261 11b2 C7442404 		movl	$1, 4(%esp)
 1261      01000000 
GAS LISTING C:\Users\PRESID~1\AppData\Local\Temp\ccPJOK5j.s 			page 40


 1262 11ba C704241E 		movl	$LC1, (%esp)
 1262      000000
 1263 11c1 E8000000 		call	_fwrite
 1263      00
 1264 11c6 C7042401 		movl	$1, (%esp)
 1264      000000
 1265 11cd E8000000 		call	_exit
 1265      00
 1266              	L66:
 1267              		.loc 2 46 0 discriminator 4
 1268 11d2 A12C0000 		movl	___sput+44, %eax
 1268      00
 1269 11d7 85C0     		testl	%eax, %eax
 1270 11d9 7531     		jne	L67
 1271              		.loc 2 46 0 discriminator 5
 1272 11db A1000000 		movl	___sput, %eax
 1272      00
 1273 11e0 8944240C 		movl	%eax, 12(%esp)
 1274 11e4 C7442408 		movl	$24, 8(%esp)
 1274      18000000 
 1275 11ec C7442404 		movl	$1, 4(%esp)
 1275      01000000 
 1276 11f4 C704243A 		movl	$LC2, (%esp)
 1276      000000
 1277 11fb E8000000 		call	_fwrite
 1277      00
 1278 1200 C7042401 		movl	$1, (%esp)
 1278      000000
 1279 1207 E8000000 		call	_exit
 1279      00
 1280              	L67:
 1281              		.loc 2 46 0 discriminator 6
 1282 120c C7053400 		movl	$LC24, ___sput+52
 1282      0000D701 
 1282      0000
 1283 1216 C7054000 		movl	$46, ___sput+64
 1283      00002E00 
 1283      0000
 1284 1220 C7053800 		movl	$LC25, ___sput+56
 1284      0000E101 
 1284      0000
 1285 122a C7053C00 		movl	$LC5, ___sput+60
 1285      00007800 
 1285      0000
 1286 1234 A1300000 		movl	___sput+48, %eax
 1286      00
 1287 1239 40       		incl	%eax
 1288 123a A3300000 		movl	%eax, ___sput+48
 1288      00
 1289 123f A1200000 		movl	___sput+32, %eax
 1289      00
 1290 1244 40       		incl	%eax
 1291 1245 A3200000 		movl	%eax, ___sput+32
 1291      00
 1292 124a C70424FA 		movl	$LC26, (%esp)
 1292      010000
 1293 1251 E8DAEDFF 		call	_count_vowels
GAS LISTING C:\Users\PRESID~1\AppData\Local\Temp\ccPJOK5j.s 			page 41


 1293      FF
 1294 1256 85C0     		testl	%eax, %eax
 1295 1258 0F84FD00 		je	L68
 1295      0000
 1296              		.loc 2 46 0 discriminator 7
 1297 125e A0040000 		movb	___sput+4, %al
 1297      00
 1298 1263 3C06     		cmpb	$6, %al
 1299 1265 7434     		je	L69
 1300              		.loc 2 46 0 discriminator 9
 1301 1267 A1000000 		movl	__imp___iob, %eax
 1301      00
 1302 126c 83C040   		addl	$64, %eax
 1303 126f 8944240C 		movl	%eax, 12(%esp)
 1304 1273 C7442408 		movl	$29, 8(%esp)
 1304      1D000000 
 1305 127b C7442404 		movl	$1, 4(%esp)
 1305      01000000 
 1306 1283 C7042400 		movl	$LC0, (%esp)
 1306      000000
 1307 128a E8000000 		call	_fwrite
 1307      00
 1308 128f C7042401 		movl	$1, (%esp)
 1308      000000
 1309 1296 E8000000 		call	_exit
 1309      00
 1310              	L69:
 1311              		.loc 2 46 0 discriminator 10
 1312 129b A1180000 		movl	___sput+24, %eax
 1312      00
 1313 12a0 85C0     		testl	%eax, %eax
 1314 12a2 7531     		jne	L70
 1315              		.loc 2 46 0 discriminator 11
 1316 12a4 A1000000 		movl	___sput, %eax
 1316      00
 1317 12a9 8944240C 		movl	%eax, 12(%esp)
 1318 12ad C7442408 		movl	$27, 8(%esp)
 1318      1B000000 
 1319 12b5 C7442404 		movl	$1, 4(%esp)
 1319      01000000 
 1320 12bd C704241E 		movl	$LC1, (%esp)
 1320      000000
 1321 12c4 E8000000 		call	_fwrite
 1321      00
 1322 12c9 C7042401 		movl	$1, (%esp)
 1322      000000
 1323 12d0 E8000000 		call	_exit
 1323      00
 1324              	L70:
 1325              		.loc 2 46 0 discriminator 12
 1326 12d5 A1280000 		movl	___sput+40, %eax
 1326      00
 1327 12da 40       		incl	%eax
 1328 12db A3280000 		movl	%eax, ___sput+40
 1328      00
 1329 12e0 8B154000 		movl	___sput+64, %edx
 1329      0000
GAS LISTING C:\Users\PRESID~1\AppData\Local\Temp\ccPJOK5j.s 			page 42


 1330 12e6 8B1D3800 		movl	___sput+56, %ebx
 1330      0000
 1331 12ec A13C0000 		movl	___sput+60, %eax
 1331      00
 1332 12f1 8945E4   		movl	%eax, -28(%ebp)
 1333 12f4 8B3D3400 		movl	___sput+52, %edi
 1333      0000
 1334 12fa 897DE0   		movl	%edi, -32(%ebp)
 1335 12fd 8B0D3000 		movl	___sput+48, %ecx
 1335      0000
 1336 1303 894DDC   		movl	%ecx, -36(%ebp)
 1337 1306 8B3D2C00 		movl	___sput+44, %edi
 1337      0000
 1338 130c 8B352000 		movl	___sput+32, %esi
 1338      0000
 1339 1312 8B0D1C00 		movl	___sput+28, %ecx
 1339      0000
 1340 1318 A1000000 		movl	___sput, %eax
 1340      00
 1341 131d 89542424 		movl	%edx, 36(%esp)
 1342 1321 895C2420 		movl	%ebx, 32(%esp)
 1343 1325 8B5DE4   		movl	-28(%ebp), %ebx
 1344 1328 895C241C 		movl	%ebx, 28(%esp)
 1345 132c 8B55E0   		movl	-32(%ebp), %edx
 1346 132f 89542418 		movl	%edx, 24(%esp)
 1347 1333 8B5DDC   		movl	-36(%ebp), %ebx
 1348 1336 895C2414 		movl	%ebx, 20(%esp)
 1349 133a 897C2410 		movl	%edi, 16(%esp)
 1350 133e 8974240C 		movl	%esi, 12(%esp)
 1351 1342 894C2408 		movl	%ecx, 8(%esp)
 1352 1346 C7442404 		movl	$LC7, 4(%esp)
 1352      8C000000 
 1353 134e 890424   		movl	%eax, (%esp)
 1354 1351 E8AAECFF 		call	_fprintf
 1354      FF
 1355 1356 E9C90000 		jmp	L71
 1355      00
 1356              	L68:
 1357              		.loc 2 46 0 discriminator 8
 1358 135b A0040000 		movb	___sput+4, %al
 1358      00
 1359 1360 3C06     		cmpb	$6, %al
 1360 1362 7434     		je	L72
 1361              		.loc 2 46 0 discriminator 13
 1362 1364 A1000000 		movl	__imp___iob, %eax
 1362      00
 1363 1369 83C040   		addl	$64, %eax
 1364 136c 8944240C 		movl	%eax, 12(%esp)
 1365 1370 C7442408 		movl	$29, 8(%esp)
 1365      1D000000 
 1366 1378 C7442404 		movl	$1, 4(%esp)
 1366      01000000 
 1367 1380 C7042400 		movl	$LC0, (%esp)
 1367      000000
 1368 1387 E8000000 		call	_fwrite
 1368      00
 1369 138c C7042401 		movl	$1, (%esp)
GAS LISTING C:\Users\PRESID~1\AppData\Local\Temp\ccPJOK5j.s 			page 43


 1369      000000
 1370 1393 E8000000 		call	_exit
 1370      00
 1371              	L72:
 1372              		.loc 2 46 0 discriminator 14
 1373 1398 A1180000 		movl	___sput+24, %eax
 1373      00
 1374 139d 85C0     		testl	%eax, %eax
 1375 139f 7531     		jne	L73
 1376              		.loc 2 46 0 discriminator 15
 1377 13a1 A1000000 		movl	___sput, %eax
 1377      00
 1378 13a6 8944240C 		movl	%eax, 12(%esp)
 1379 13aa C7442408 		movl	$27, 8(%esp)
 1379      1B000000 
 1380 13b2 C7442404 		movl	$1, 4(%esp)
 1380      01000000 
 1381 13ba C704241E 		movl	$LC1, (%esp)
 1381      000000
 1382 13c1 E8000000 		call	_fwrite
 1382      00
 1383 13c6 C7042401 		movl	$1, (%esp)
 1383      000000
 1384 13cd E8000000 		call	_exit
 1384      00
 1385              	L73:
 1386              		.loc 2 46 0 discriminator 16
 1387 13d2 A1240000 		movl	___sput+36, %eax
 1387      00
 1388 13d7 40       		incl	%eax
 1389 13d8 A3240000 		movl	%eax, ___sput+36
 1389      00
 1390 13dd 8B3D3400 		movl	___sput+52, %edi
 1390      0000
 1391 13e3 8B353000 		movl	___sput+48, %esi
 1391      0000
 1392 13e9 8B1D2C00 		movl	___sput+44, %ebx
 1392      0000
 1393 13ef 8B0D2000 		movl	___sput+32, %ecx
 1393      0000
 1394 13f5 8B151C00 		movl	___sput+28, %edx
 1394      0000
 1395 13fb A1000000 		movl	___sput, %eax
 1395      00
 1396 1400 897C2418 		movl	%edi, 24(%esp)
 1397 1404 89742414 		movl	%esi, 20(%esp)
 1398 1408 895C2410 		movl	%ebx, 16(%esp)
 1399 140c 894C240C 		movl	%ecx, 12(%esp)
 1400 1410 89542408 		movl	%edx, 8(%esp)
 1401 1414 C7442404 		movl	$LC8, 4(%esp)
 1401      E8000000 
 1402 141c 890424   		movl	%eax, (%esp)
 1403 141f E8DCEBFF 		call	_fprintf
 1403      FF
 1404              	L71:
  47:E:/NeuOrga/Programmieren/c_cpp/github_os/input/src/os_base\os_init_task_system_test.c ****    sput_fail_unless(count_vowels("CNN") == 0, "CNN == 0v");
 1405              		.loc 2 47 0 is_stmt 1
GAS LISTING C:\Users\PRESID~1\AppData\Local\Temp\ccPJOK5j.s 			page 44


 1406 1424 A0040000 		movb	___sput+4, %al
 1406      00
 1407 1429 3C06     		cmpb	$6, %al
 1408 142b 7434     		je	L74
 1409              		.loc 2 47 0 is_stmt 0 discriminator 1
 1410 142d A1000000 		movl	__imp___iob, %eax
 1410      00
 1411 1432 83C040   		addl	$64, %eax
 1412 1435 8944240C 		movl	%eax, 12(%esp)
 1413 1439 C7442408 		movl	$29, 8(%esp)
 1413      1D000000 
 1414 1441 C7442404 		movl	$1, 4(%esp)
 1414      01000000 
 1415 1449 C7042400 		movl	$LC0, (%esp)
 1415      000000
 1416 1450 E8000000 		call	_fwrite
 1416      00
 1417 1455 C7042401 		movl	$1, (%esp)
 1417      000000
 1418 145c E8000000 		call	_exit
 1418      00
 1419              	L74:
 1420              		.loc 2 47 0 discriminator 2
 1421 1461 A1180000 		movl	___sput+24, %eax
 1421      00
 1422 1466 85C0     		testl	%eax, %eax
 1423 1468 7531     		jne	L75
 1424              		.loc 2 47 0 discriminator 3
 1425 146a A1000000 		movl	___sput, %eax
 1425      00
 1426 146f 8944240C 		movl	%eax, 12(%esp)
 1427 1473 C7442408 		movl	$27, 8(%esp)
 1427      1B000000 
 1428 147b C7442404 		movl	$1, 4(%esp)
 1428      01000000 
 1429 1483 C704241E 		movl	$LC1, (%esp)
 1429      000000
 1430 148a E8000000 		call	_fwrite
 1430      00
 1431 148f C7042401 		movl	$1, (%esp)
 1431      000000
 1432 1496 E8000000 		call	_exit
 1432      00
 1433              	L75:
 1434              		.loc 2 47 0 discriminator 4
 1435 149b A12C0000 		movl	___sput+44, %eax
 1435      00
 1436 14a0 85C0     		testl	%eax, %eax
 1437 14a2 7531     		jne	L76
 1438              		.loc 2 47 0 discriminator 5
 1439 14a4 A1000000 		movl	___sput, %eax
 1439      00
 1440 14a9 8944240C 		movl	%eax, 12(%esp)
 1441 14ad C7442408 		movl	$24, 8(%esp)
 1441      18000000 
 1442 14b5 C7442404 		movl	$1, 4(%esp)
 1442      01000000 
GAS LISTING C:\Users\PRESID~1\AppData\Local\Temp\ccPJOK5j.s 			page 45


 1443 14bd C704243A 		movl	$LC2, (%esp)
 1443      000000
 1444 14c4 E8000000 		call	_fwrite
 1444      00
 1445 14c9 C7042401 		movl	$1, (%esp)
 1445      000000
 1446 14d0 E8000000 		call	_exit
 1446      00
 1447              	L76:
 1448              		.loc 2 47 0 discriminator 6
 1449 14d5 C7053400 		movl	$LC27, ___sput+52
 1449      0000FE01 
 1449      0000
 1450 14df C7054000 		movl	$47, ___sput+64
 1450      00002F00 
 1450      0000
 1451 14e9 C7053800 		movl	$LC28, ___sput+56
 1451      00000802 
 1451      0000
 1452 14f3 C7053C00 		movl	$LC5, ___sput+60
 1452      00007800 
 1452      0000
 1453 14fd A1300000 		movl	___sput+48, %eax
 1453      00
 1454 1502 40       		incl	%eax
 1455 1503 A3300000 		movl	%eax, ___sput+48
 1455      00
 1456 1508 A1200000 		movl	___sput+32, %eax
 1456      00
 1457 150d 40       		incl	%eax
 1458 150e A3200000 		movl	%eax, ___sput+32
 1458      00
 1459 1513 C7042421 		movl	$LC29, (%esp)
 1459      020000
 1460 151a E811EBFF 		call	_count_vowels
 1460      FF
 1461 151f 85C0     		testl	%eax, %eax
 1462 1521 0F84FD00 		je	L77
 1462      0000
 1463              		.loc 2 47 0 discriminator 7
 1464 1527 A0040000 		movb	___sput+4, %al
 1464      00
 1465 152c 3C06     		cmpb	$6, %al
 1466 152e 7434     		je	L78
 1467              		.loc 2 47 0 discriminator 9
 1468 1530 A1000000 		movl	__imp___iob, %eax
 1468      00
 1469 1535 83C040   		addl	$64, %eax
 1470 1538 8944240C 		movl	%eax, 12(%esp)
 1471 153c C7442408 		movl	$29, 8(%esp)
 1471      1D000000 
 1472 1544 C7442404 		movl	$1, 4(%esp)
 1472      01000000 
 1473 154c C7042400 		movl	$LC0, (%esp)
 1473      000000
 1474 1553 E8000000 		call	_fwrite
 1474      00
GAS LISTING C:\Users\PRESID~1\AppData\Local\Temp\ccPJOK5j.s 			page 46


 1475 1558 C7042401 		movl	$1, (%esp)
 1475      000000
 1476 155f E8000000 		call	_exit
 1476      00
 1477              	L78:
 1478              		.loc 2 47 0 discriminator 10
 1479 1564 A1180000 		movl	___sput+24, %eax
 1479      00
 1480 1569 85C0     		testl	%eax, %eax
 1481 156b 7531     		jne	L79
 1482              		.loc 2 47 0 discriminator 11
 1483 156d A1000000 		movl	___sput, %eax
 1483      00
 1484 1572 8944240C 		movl	%eax, 12(%esp)
 1485 1576 C7442408 		movl	$27, 8(%esp)
 1485      1B000000 
 1486 157e C7442404 		movl	$1, 4(%esp)
 1486      01000000 
 1487 1586 C704241E 		movl	$LC1, (%esp)
 1487      000000
 1488 158d E8000000 		call	_fwrite
 1488      00
 1489 1592 C7042401 		movl	$1, (%esp)
 1489      000000
 1490 1599 E8000000 		call	_exit
 1490      00
 1491              	L79:
 1492              		.loc 2 47 0 discriminator 12
 1493 159e A1280000 		movl	___sput+40, %eax
 1493      00
 1494 15a3 40       		incl	%eax
 1495 15a4 A3280000 		movl	%eax, ___sput+40
 1495      00
 1496 15a9 8B154000 		movl	___sput+64, %edx
 1496      0000
 1497 15af 8B1D3800 		movl	___sput+56, %ebx
 1497      0000
 1498 15b5 A13C0000 		movl	___sput+60, %eax
 1498      00
 1499 15ba 8945E4   		movl	%eax, -28(%ebp)
 1500 15bd 8B353400 		movl	___sput+52, %esi
 1500      0000
 1501 15c3 8975E0   		movl	%esi, -32(%ebp)
 1502 15c6 8B3D3000 		movl	___sput+48, %edi
 1502      0000
 1503 15cc 897DDC   		movl	%edi, -36(%ebp)
 1504 15cf 8B3D2C00 		movl	___sput+44, %edi
 1504      0000
 1505 15d5 8B352000 		movl	___sput+32, %esi
 1505      0000
 1506 15db 8B0D1C00 		movl	___sput+28, %ecx
 1506      0000
 1507 15e1 A1000000 		movl	___sput, %eax
 1507      00
 1508 15e6 89542424 		movl	%edx, 36(%esp)
 1509 15ea 895C2420 		movl	%ebx, 32(%esp)
 1510 15ee 8B55E4   		movl	-28(%ebp), %edx
GAS LISTING C:\Users\PRESID~1\AppData\Local\Temp\ccPJOK5j.s 			page 47


 1511 15f1 8954241C 		movl	%edx, 28(%esp)
 1512 15f5 8B5DE0   		movl	-32(%ebp), %ebx
 1513 15f8 895C2418 		movl	%ebx, 24(%esp)
 1514 15fc 8B55DC   		movl	-36(%ebp), %edx
 1515 15ff 89542414 		movl	%edx, 20(%esp)
 1516 1603 897C2410 		movl	%edi, 16(%esp)
 1517 1607 8974240C 		movl	%esi, 12(%esp)
 1518 160b 894C2408 		movl	%ecx, 8(%esp)
 1519 160f C7442404 		movl	$LC7, 4(%esp)
 1519      8C000000 
 1520 1617 890424   		movl	%eax, (%esp)
 1521 161a E8E1E9FF 		call	_fprintf
 1521      FF
 1522 161f E9C90000 		jmp	L80
 1522      00
 1523              	L77:
 1524              		.loc 2 47 0 discriminator 8
 1525 1624 A0040000 		movb	___sput+4, %al
 1525      00
 1526 1629 3C06     		cmpb	$6, %al
 1527 162b 7434     		je	L81
 1528              		.loc 2 47 0 discriminator 13
 1529 162d A1000000 		movl	__imp___iob, %eax
 1529      00
 1530 1632 83C040   		addl	$64, %eax
 1531 1635 8944240C 		movl	%eax, 12(%esp)
 1532 1639 C7442408 		movl	$29, 8(%esp)
 1532      1D000000 
 1533 1641 C7442404 		movl	$1, 4(%esp)
 1533      01000000 
 1534 1649 C7042400 		movl	$LC0, (%esp)
 1534      000000
 1535 1650 E8000000 		call	_fwrite
 1535      00
 1536 1655 C7042401 		movl	$1, (%esp)
 1536      000000
 1537 165c E8000000 		call	_exit
 1537      00
 1538              	L81:
 1539              		.loc 2 47 0 discriminator 14
 1540 1661 A1180000 		movl	___sput+24, %eax
 1540      00
 1541 1666 85C0     		testl	%eax, %eax
 1542 1668 7531     		jne	L82
 1543              		.loc 2 47 0 discriminator 15
 1544 166a A1000000 		movl	___sput, %eax
 1544      00
 1545 166f 8944240C 		movl	%eax, 12(%esp)
 1546 1673 C7442408 		movl	$27, 8(%esp)
 1546      1B000000 
 1547 167b C7442404 		movl	$1, 4(%esp)
 1547      01000000 
 1548 1683 C704241E 		movl	$LC1, (%esp)
 1548      000000
 1549 168a E8000000 		call	_fwrite
 1549      00
 1550 168f C7042401 		movl	$1, (%esp)
GAS LISTING C:\Users\PRESID~1\AppData\Local\Temp\ccPJOK5j.s 			page 48


 1550      000000
 1551 1696 E8000000 		call	_exit
 1551      00
 1552              	L82:
 1553              		.loc 2 47 0 discriminator 16
 1554 169b A1240000 		movl	___sput+36, %eax
 1554      00
 1555 16a0 40       		incl	%eax
 1556 16a1 A3240000 		movl	%eax, ___sput+36
 1556      00
 1557 16a6 8B3D3400 		movl	___sput+52, %edi
 1557      0000
 1558 16ac 8B353000 		movl	___sput+48, %esi
 1558      0000
 1559 16b2 8B1D2C00 		movl	___sput+44, %ebx
 1559      0000
 1560 16b8 8B0D2000 		movl	___sput+32, %ecx
 1560      0000
 1561 16be 8B151C00 		movl	___sput+28, %edx
 1561      0000
 1562 16c4 A1000000 		movl	___sput, %eax
 1562      00
 1563 16c9 897C2418 		movl	%edi, 24(%esp)
 1564 16cd 89742414 		movl	%esi, 20(%esp)
 1565 16d1 895C2410 		movl	%ebx, 16(%esp)
 1566 16d5 894C240C 		movl	%ecx, 12(%esp)
 1567 16d9 89542408 		movl	%edx, 8(%esp)
 1568 16dd C7442404 		movl	$LC8, 4(%esp)
 1568      E8000000 
 1569 16e5 890424   		movl	%eax, (%esp)
 1570 16e8 E813E9FF 		call	_fprintf
 1570      FF
 1571              	L80:
  48:E:/NeuOrga/Programmieren/c_cpp/github_os/input/src/os_base\os_init_task_system_test.c ****    sput_fail_unless(count_vowels("GPS") == 0, "GPS == 0v");
 1572              		.loc 2 48 0 is_stmt 1
 1573 16ed A0040000 		movb	___sput+4, %al
 1573      00
 1574 16f2 3C06     		cmpb	$6, %al
 1575 16f4 7434     		je	L83
 1576              		.loc 2 48 0 is_stmt 0 discriminator 1
 1577 16f6 A1000000 		movl	__imp___iob, %eax
 1577      00
 1578 16fb 83C040   		addl	$64, %eax
 1579 16fe 8944240C 		movl	%eax, 12(%esp)
 1580 1702 C7442408 		movl	$29, 8(%esp)
 1580      1D000000 
 1581 170a C7442404 		movl	$1, 4(%esp)
 1581      01000000 
 1582 1712 C7042400 		movl	$LC0, (%esp)
 1582      000000
 1583 1719 E8000000 		call	_fwrite
 1583      00
 1584 171e C7042401 		movl	$1, (%esp)
 1584      000000
 1585 1725 E8000000 		call	_exit
 1585      00
 1586              	L83:
GAS LISTING C:\Users\PRESID~1\AppData\Local\Temp\ccPJOK5j.s 			page 49


 1587              		.loc 2 48 0 discriminator 2
 1588 172a A1180000 		movl	___sput+24, %eax
 1588      00
 1589 172f 85C0     		testl	%eax, %eax
 1590 1731 7531     		jne	L84
 1591              		.loc 2 48 0 discriminator 3
 1592 1733 A1000000 		movl	___sput, %eax
 1592      00
 1593 1738 8944240C 		movl	%eax, 12(%esp)
 1594 173c C7442408 		movl	$27, 8(%esp)
 1594      1B000000 
 1595 1744 C7442404 		movl	$1, 4(%esp)
 1595      01000000 
 1596 174c C704241E 		movl	$LC1, (%esp)
 1596      000000
 1597 1753 E8000000 		call	_fwrite
 1597      00
 1598 1758 C7042401 		movl	$1, (%esp)
 1598      000000
 1599 175f E8000000 		call	_exit
 1599      00
 1600              	L84:
 1601              		.loc 2 48 0 discriminator 4
 1602 1764 A12C0000 		movl	___sput+44, %eax
 1602      00
 1603 1769 85C0     		testl	%eax, %eax
 1604 176b 7531     		jne	L85
 1605              		.loc 2 48 0 discriminator 5
 1606 176d A1000000 		movl	___sput, %eax
 1606      00
 1607 1772 8944240C 		movl	%eax, 12(%esp)
 1608 1776 C7442408 		movl	$24, 8(%esp)
 1608      18000000 
 1609 177e C7442404 		movl	$1, 4(%esp)
 1609      01000000 
 1610 1786 C704243A 		movl	$LC2, (%esp)
 1610      000000
 1611 178d E8000000 		call	_fwrite
 1611      00
 1612 1792 C7042401 		movl	$1, (%esp)
 1612      000000
 1613 1799 E8000000 		call	_exit
 1613      00
 1614              	L85:
 1615              		.loc 2 48 0 discriminator 6
 1616 179e C7053400 		movl	$LC30, ___sput+52
 1616      00002502 
 1616      0000
 1617 17a8 C7054000 		movl	$48, ___sput+64
 1617      00003000 
 1617      0000
 1618 17b2 C7053800 		movl	$LC31, ___sput+56
 1618      00002F02 
 1618      0000
 1619 17bc C7053C00 		movl	$LC5, ___sput+60
 1619      00007800 
 1619      0000
GAS LISTING C:\Users\PRESID~1\AppData\Local\Temp\ccPJOK5j.s 			page 50


 1620 17c6 A1300000 		movl	___sput+48, %eax
 1620      00
 1621 17cb 40       		incl	%eax
 1622 17cc A3300000 		movl	%eax, ___sput+48
 1622      00
 1623 17d1 A1200000 		movl	___sput+32, %eax
 1623      00
 1624 17d6 40       		incl	%eax
 1625 17d7 A3200000 		movl	%eax, ___sput+32
 1625      00
 1626 17dc C7042448 		movl	$LC32, (%esp)
 1626      020000
 1627 17e3 E848E8FF 		call	_count_vowels
 1627      FF
 1628 17e8 85C0     		testl	%eax, %eax
 1629 17ea 0F84FD00 		je	L86
 1629      0000
 1630              		.loc 2 48 0 discriminator 7
 1631 17f0 A0040000 		movb	___sput+4, %al
 1631      00
 1632 17f5 3C06     		cmpb	$6, %al
 1633 17f7 7434     		je	L87
 1634              		.loc 2 48 0 discriminator 9
 1635 17f9 A1000000 		movl	__imp___iob, %eax
 1635      00
 1636 17fe 83C040   		addl	$64, %eax
 1637 1801 8944240C 		movl	%eax, 12(%esp)
 1638 1805 C7442408 		movl	$29, 8(%esp)
 1638      1D000000 
 1639 180d C7442404 		movl	$1, 4(%esp)
 1639      01000000 
 1640 1815 C7042400 		movl	$LC0, (%esp)
 1640      000000
 1641 181c E8000000 		call	_fwrite
 1641      00
 1642 1821 C7042401 		movl	$1, (%esp)
 1642      000000
 1643 1828 E8000000 		call	_exit
 1643      00
 1644              	L87:
 1645              		.loc 2 48 0 discriminator 10
 1646 182d A1180000 		movl	___sput+24, %eax
 1646      00
 1647 1832 85C0     		testl	%eax, %eax
 1648 1834 7531     		jne	L88
 1649              		.loc 2 48 0 discriminator 11
 1650 1836 A1000000 		movl	___sput, %eax
 1650      00
 1651 183b 8944240C 		movl	%eax, 12(%esp)
 1652 183f C7442408 		movl	$27, 8(%esp)
 1652      1B000000 
 1653 1847 C7442404 		movl	$1, 4(%esp)
 1653      01000000 
 1654 184f C704241E 		movl	$LC1, (%esp)
 1654      000000
 1655 1856 E8000000 		call	_fwrite
 1655      00
GAS LISTING C:\Users\PRESID~1\AppData\Local\Temp\ccPJOK5j.s 			page 51


 1656 185b C7042401 		movl	$1, (%esp)
 1656      000000
 1657 1862 E8000000 		call	_exit
 1657      00
 1658              	L88:
 1659              		.loc 2 48 0 discriminator 12
 1660 1867 A1280000 		movl	___sput+40, %eax
 1660      00
 1661 186c 40       		incl	%eax
 1662 186d A3280000 		movl	%eax, ___sput+40
 1662      00
 1663 1872 8B154000 		movl	___sput+64, %edx
 1663      0000
 1664 1878 8B1D3800 		movl	___sput+56, %ebx
 1664      0000
 1665 187e A13C0000 		movl	___sput+60, %eax
 1665      00
 1666 1883 8945E4   		movl	%eax, -28(%ebp)
 1667 1886 8B0D3400 		movl	___sput+52, %ecx
 1667      0000
 1668 188c 894DE0   		movl	%ecx, -32(%ebp)
 1669 188f 8B353000 		movl	___sput+48, %esi
 1669      0000
 1670 1895 8975DC   		movl	%esi, -36(%ebp)
 1671 1898 8B3D2C00 		movl	___sput+44, %edi
 1671      0000
 1672 189e 8B352000 		movl	___sput+32, %esi
 1672      0000
 1673 18a4 8B0D1C00 		movl	___sput+28, %ecx
 1673      0000
 1674 18aa A1000000 		movl	___sput, %eax
 1674      00
 1675 18af 89542424 		movl	%edx, 36(%esp)
 1676 18b3 895C2420 		movl	%ebx, 32(%esp)
 1677 18b7 8B5DE4   		movl	-28(%ebp), %ebx
 1678 18ba 895C241C 		movl	%ebx, 28(%esp)
 1679 18be 8B55E0   		movl	-32(%ebp), %edx
 1680 18c1 89542418 		movl	%edx, 24(%esp)
 1681 18c5 8B5DDC   		movl	-36(%ebp), %ebx
 1682 18c8 895C2414 		movl	%ebx, 20(%esp)
 1683 18cc 897C2410 		movl	%edi, 16(%esp)
 1684 18d0 8974240C 		movl	%esi, 12(%esp)
 1685 18d4 894C2408 		movl	%ecx, 8(%esp)
 1686 18d8 C7442404 		movl	$LC7, 4(%esp)
 1686      8C000000 
 1687 18e0 890424   		movl	%eax, (%esp)
 1688 18e3 E818E7FF 		call	_fprintf
 1688      FF
 1689 18e8 E9C90000 		jmp	L89
 1689      00
 1690              	L86:
 1691              		.loc 2 48 0 discriminator 8
 1692 18ed A0040000 		movb	___sput+4, %al
 1692      00
 1693 18f2 3C06     		cmpb	$6, %al
 1694 18f4 7434     		je	L90
 1695              		.loc 2 48 0 discriminator 13
GAS LISTING C:\Users\PRESID~1\AppData\Local\Temp\ccPJOK5j.s 			page 52


 1696 18f6 A1000000 		movl	__imp___iob, %eax
 1696      00
 1697 18fb 83C040   		addl	$64, %eax
 1698 18fe 8944240C 		movl	%eax, 12(%esp)
 1699 1902 C7442408 		movl	$29, 8(%esp)
 1699      1D000000 
 1700 190a C7442404 		movl	$1, 4(%esp)
 1700      01000000 
 1701 1912 C7042400 		movl	$LC0, (%esp)
 1701      000000
 1702 1919 E8000000 		call	_fwrite
 1702      00
 1703 191e C7042401 		movl	$1, (%esp)
 1703      000000
 1704 1925 E8000000 		call	_exit
 1704      00
 1705              	L90:
 1706              		.loc 2 48 0 discriminator 14
 1707 192a A1180000 		movl	___sput+24, %eax
 1707      00
 1708 192f 85C0     		testl	%eax, %eax
 1709 1931 7531     		jne	L91
 1710              		.loc 2 48 0 discriminator 15
 1711 1933 A1000000 		movl	___sput, %eax
 1711      00
 1712 1938 8944240C 		movl	%eax, 12(%esp)
 1713 193c C7442408 		movl	$27, 8(%esp)
 1713      1B000000 
 1714 1944 C7442404 		movl	$1, 4(%esp)
 1714      01000000 
 1715 194c C704241E 		movl	$LC1, (%esp)
 1715      000000
 1716 1953 E8000000 		call	_fwrite
 1716      00
 1717 1958 C7042401 		movl	$1, (%esp)
 1717      000000
 1718 195f E8000000 		call	_exit
 1718      00
 1719              	L91:
 1720              		.loc 2 48 0 discriminator 16
 1721 1964 A1240000 		movl	___sput+36, %eax
 1721      00
 1722 1969 40       		incl	%eax
 1723 196a A3240000 		movl	%eax, ___sput+36
 1723      00
 1724 196f 8B3D3400 		movl	___sput+52, %edi
 1724      0000
 1725 1975 8B353000 		movl	___sput+48, %esi
 1725      0000
 1726 197b 8B1D2C00 		movl	___sput+44, %ebx
 1726      0000
 1727 1981 8B0D2000 		movl	___sput+32, %ecx
 1727      0000
 1728 1987 8B151C00 		movl	___sput+28, %edx
 1728      0000
 1729 198d A1000000 		movl	___sput, %eax
 1729      00
GAS LISTING C:\Users\PRESID~1\AppData\Local\Temp\ccPJOK5j.s 			page 53


 1730 1992 897C2418 		movl	%edi, 24(%esp)
 1731 1996 89742414 		movl	%esi, 20(%esp)
 1732 199a 895C2410 		movl	%ebx, 16(%esp)
 1733 199e 894C240C 		movl	%ecx, 12(%esp)
 1734 19a2 89542408 		movl	%edx, 8(%esp)
 1735 19a6 C7442404 		movl	$LC8, 4(%esp)
 1735      E8000000 
 1736 19ae 890424   		movl	%eax, (%esp)
 1737 19b1 E84AE6FF 		call	_fprintf
 1737      FF
 1738              	L89:
  49:E:/NeuOrga/Programmieren/c_cpp/github_os/input/src/os_base\os_init_task_system_test.c ****    sput_fail_unless(count_vowels("Ltd") == 0, "Ltd == 0v");
 1739              		.loc 2 49 0 is_stmt 1
 1740 19b6 A0040000 		movb	___sput+4, %al
 1740      00
 1741 19bb 3C06     		cmpb	$6, %al
 1742 19bd 7434     		je	L92
 1743              		.loc 2 49 0 is_stmt 0 discriminator 1
 1744 19bf A1000000 		movl	__imp___iob, %eax
 1744      00
 1745 19c4 83C040   		addl	$64, %eax
 1746 19c7 8944240C 		movl	%eax, 12(%esp)
 1747 19cb C7442408 		movl	$29, 8(%esp)
 1747      1D000000 
 1748 19d3 C7442404 		movl	$1, 4(%esp)
 1748      01000000 
 1749 19db C7042400 		movl	$LC0, (%esp)
 1749      000000
 1750 19e2 E8000000 		call	_fwrite
 1750      00
 1751 19e7 C7042401 		movl	$1, (%esp)
 1751      000000
 1752 19ee E8000000 		call	_exit
 1752      00
 1753              	L92:
 1754              		.loc 2 49 0 discriminator 2
 1755 19f3 A1180000 		movl	___sput+24, %eax
 1755      00
 1756 19f8 85C0     		testl	%eax, %eax
 1757 19fa 7531     		jne	L93
 1758              		.loc 2 49 0 discriminator 3
 1759 19fc A1000000 		movl	___sput, %eax
 1759      00
 1760 1a01 8944240C 		movl	%eax, 12(%esp)
 1761 1a05 C7442408 		movl	$27, 8(%esp)
 1761      1B000000 
 1762 1a0d C7442404 		movl	$1, 4(%esp)
 1762      01000000 
 1763 1a15 C704241E 		movl	$LC1, (%esp)
 1763      000000
 1764 1a1c E8000000 		call	_fwrite
 1764      00
 1765 1a21 C7042401 		movl	$1, (%esp)
 1765      000000
 1766 1a28 E8000000 		call	_exit
 1766      00
 1767              	L93:
GAS LISTING C:\Users\PRESID~1\AppData\Local\Temp\ccPJOK5j.s 			page 54


 1768              		.loc 2 49 0 discriminator 4
 1769 1a2d A12C0000 		movl	___sput+44, %eax
 1769      00
 1770 1a32 85C0     		testl	%eax, %eax
 1771 1a34 7531     		jne	L94
 1772              		.loc 2 49 0 discriminator 5
 1773 1a36 A1000000 		movl	___sput, %eax
 1773      00
 1774 1a3b 8944240C 		movl	%eax, 12(%esp)
 1775 1a3f C7442408 		movl	$24, 8(%esp)
 1775      18000000 
 1776 1a47 C7442404 		movl	$1, 4(%esp)
 1776      01000000 
 1777 1a4f C704243A 		movl	$LC2, (%esp)
 1777      000000
 1778 1a56 E8000000 		call	_fwrite
 1778      00
 1779 1a5b C7042401 		movl	$1, (%esp)
 1779      000000
 1780 1a62 E8000000 		call	_exit
 1780      00
 1781              	L94:
 1782              		.loc 2 49 0 discriminator 6
 1783 1a67 C7053400 		movl	$LC33, ___sput+52
 1783      00004C02 
 1783      0000
 1784 1a71 C7054000 		movl	$49, ___sput+64
 1784      00003100 
 1784      0000
 1785 1a7b C7053800 		movl	$LC34, ___sput+56
 1785      00005602 
 1785      0000
 1786 1a85 C7053C00 		movl	$LC5, ___sput+60
 1786      00007800 
 1786      0000
 1787 1a8f A1300000 		movl	___sput+48, %eax
 1787      00
 1788 1a94 40       		incl	%eax
 1789 1a95 A3300000 		movl	%eax, ___sput+48
 1789      00
 1790 1a9a A1200000 		movl	___sput+32, %eax
 1790      00
 1791 1a9f 40       		incl	%eax
 1792 1aa0 A3200000 		movl	%eax, ___sput+32
 1792      00
 1793 1aa5 C704246F 		movl	$LC35, (%esp)
 1793      020000
 1794 1aac E87FE5FF 		call	_count_vowels
 1794      FF
 1795 1ab1 85C0     		testl	%eax, %eax
 1796 1ab3 0F84FD00 		je	L95
 1796      0000
 1797              		.loc 2 49 0 discriminator 7
 1798 1ab9 A0040000 		movb	___sput+4, %al
 1798      00
 1799 1abe 3C06     		cmpb	$6, %al
 1800 1ac0 7434     		je	L96
GAS LISTING C:\Users\PRESID~1\AppData\Local\Temp\ccPJOK5j.s 			page 55


 1801              		.loc 2 49 0 discriminator 9
 1802 1ac2 A1000000 		movl	__imp___iob, %eax
 1802      00
 1803 1ac7 83C040   		addl	$64, %eax
 1804 1aca 8944240C 		movl	%eax, 12(%esp)
 1805 1ace C7442408 		movl	$29, 8(%esp)
 1805      1D000000 
 1806 1ad6 C7442404 		movl	$1, 4(%esp)
 1806      01000000 
 1807 1ade C7042400 		movl	$LC0, (%esp)
 1807      000000
 1808 1ae5 E8000000 		call	_fwrite
 1808      00
 1809 1aea C7042401 		movl	$1, (%esp)
 1809      000000
 1810 1af1 E8000000 		call	_exit
 1810      00
 1811              	L96:
 1812              		.loc 2 49 0 discriminator 10
 1813 1af6 A1180000 		movl	___sput+24, %eax
 1813      00
 1814 1afb 85C0     		testl	%eax, %eax
 1815 1afd 7531     		jne	L97
 1816              		.loc 2 49 0 discriminator 11
 1817 1aff A1000000 		movl	___sput, %eax
 1817      00
 1818 1b04 8944240C 		movl	%eax, 12(%esp)
 1819 1b08 C7442408 		movl	$27, 8(%esp)
 1819      1B000000 
 1820 1b10 C7442404 		movl	$1, 4(%esp)
 1820      01000000 
 1821 1b18 C704241E 		movl	$LC1, (%esp)
 1821      000000
 1822 1b1f E8000000 		call	_fwrite
 1822      00
 1823 1b24 C7042401 		movl	$1, (%esp)
 1823      000000
 1824 1b2b E8000000 		call	_exit
 1824      00
 1825              	L97:
 1826              		.loc 2 49 0 discriminator 12
 1827 1b30 A1280000 		movl	___sput+40, %eax
 1827      00
 1828 1b35 40       		incl	%eax
 1829 1b36 A3280000 		movl	%eax, ___sput+40
 1829      00
 1830 1b3b 8B154000 		movl	___sput+64, %edx
 1830      0000
 1831 1b41 8B1D3800 		movl	___sput+56, %ebx
 1831      0000
 1832 1b47 A13C0000 		movl	___sput+60, %eax
 1832      00
 1833 1b4c 8945E4   		movl	%eax, -28(%ebp)
 1834 1b4f 8B3D3400 		movl	___sput+52, %edi
 1834      0000
 1835 1b55 897DE0   		movl	%edi, -32(%ebp)
 1836 1b58 8B0D3000 		movl	___sput+48, %ecx
GAS LISTING C:\Users\PRESID~1\AppData\Local\Temp\ccPJOK5j.s 			page 56


 1836      0000
 1837 1b5e 894DDC   		movl	%ecx, -36(%ebp)
 1838 1b61 8B3D2C00 		movl	___sput+44, %edi
 1838      0000
 1839 1b67 8B352000 		movl	___sput+32, %esi
 1839      0000
 1840 1b6d 8B0D1C00 		movl	___sput+28, %ecx
 1840      0000
 1841 1b73 A1000000 		movl	___sput, %eax
 1841      00
 1842 1b78 89542424 		movl	%edx, 36(%esp)
 1843 1b7c 895C2420 		movl	%ebx, 32(%esp)
 1844 1b80 8B55E4   		movl	-28(%ebp), %edx
 1845 1b83 8954241C 		movl	%edx, 28(%esp)
 1846 1b87 8B5DE0   		movl	-32(%ebp), %ebx
 1847 1b8a 895C2418 		movl	%ebx, 24(%esp)
 1848 1b8e 8B55DC   		movl	-36(%ebp), %edx
 1849 1b91 89542414 		movl	%edx, 20(%esp)
 1850 1b95 897C2410 		movl	%edi, 16(%esp)
 1851 1b99 8974240C 		movl	%esi, 12(%esp)
 1852 1b9d 894C2408 		movl	%ecx, 8(%esp)
 1853 1ba1 C7442404 		movl	$LC7, 4(%esp)
 1853      8C000000 
 1854 1ba9 890424   		movl	%eax, (%esp)
 1855 1bac E84FE4FF 		call	_fprintf
 1855      FF
 1856 1bb1 E9C90000 		jmp	L55
 1856      00
 1857              	L95:
 1858              		.loc 2 49 0 discriminator 8
 1859 1bb6 A0040000 		movb	___sput+4, %al
 1859      00
 1860 1bbb 3C06     		cmpb	$6, %al
 1861 1bbd 7434     		je	L99
 1862              		.loc 2 49 0 discriminator 13
 1863 1bbf A1000000 		movl	__imp___iob, %eax
 1863      00
 1864 1bc4 83C040   		addl	$64, %eax
 1865 1bc7 8944240C 		movl	%eax, 12(%esp)
 1866 1bcb C7442408 		movl	$29, 8(%esp)
 1866      1D000000 
 1867 1bd3 C7442404 		movl	$1, 4(%esp)
 1867      01000000 
 1868 1bdb C7042400 		movl	$LC0, (%esp)
 1868      000000
 1869 1be2 E8000000 		call	_fwrite
 1869      00
 1870 1be7 C7042401 		movl	$1, (%esp)
 1870      000000
 1871 1bee E8000000 		call	_exit
 1871      00
 1872              	L99:
 1873              		.loc 2 49 0 discriminator 14
 1874 1bf3 A1180000 		movl	___sput+24, %eax
 1874      00
 1875 1bf8 85C0     		testl	%eax, %eax
 1876 1bfa 7531     		jne	L100
GAS LISTING C:\Users\PRESID~1\AppData\Local\Temp\ccPJOK5j.s 			page 57


 1877              		.loc 2 49 0 discriminator 15
 1878 1bfc A1000000 		movl	___sput, %eax
 1878      00
 1879 1c01 8944240C 		movl	%eax, 12(%esp)
 1880 1c05 C7442408 		movl	$27, 8(%esp)
 1880      1B000000 
 1881 1c0d C7442404 		movl	$1, 4(%esp)
 1881      01000000 
 1882 1c15 C704241E 		movl	$LC1, (%esp)
 1882      000000
 1883 1c1c E8000000 		call	_fwrite
 1883      00
 1884 1c21 C7042401 		movl	$1, (%esp)
 1884      000000
 1885 1c28 E8000000 		call	_exit
 1885      00
 1886              	L100:
 1887              		.loc 2 49 0 discriminator 16
 1888 1c2d A1240000 		movl	___sput+36, %eax
 1888      00
 1889 1c32 40       		incl	%eax
 1890 1c33 A3240000 		movl	%eax, ___sput+36
 1890      00
 1891 1c38 8B3D3400 		movl	___sput+52, %edi
 1891      0000
 1892 1c3e 8B353000 		movl	___sput+48, %esi
 1892      0000
 1893 1c44 8B1D2C00 		movl	___sput+44, %ebx
 1893      0000
 1894 1c4a 8B0D2000 		movl	___sput+32, %ecx
 1894      0000
 1895 1c50 8B151C00 		movl	___sput+28, %edx
 1895      0000
 1896 1c56 A1000000 		movl	___sput, %eax
 1896      00
 1897 1c5b 897C2418 		movl	%edi, 24(%esp)
 1898 1c5f 89742414 		movl	%esi, 20(%esp)
 1899 1c63 895C2410 		movl	%ebx, 16(%esp)
 1900 1c67 894C240C 		movl	%ecx, 12(%esp)
 1901 1c6b 89542408 		movl	%edx, 8(%esp)
 1902 1c6f C7442404 		movl	$LC8, 4(%esp)
 1902      E8000000 
 1903 1c77 890424   		movl	%eax, (%esp)
 1904 1c7a E881E3FF 		call	_fprintf
 1904      FF
 1905              	L55:
  50:E:/NeuOrga/Programmieren/c_cpp/github_os/input/src/os_base\os_init_task_system_test.c **** }
 1906              		.loc 2 50 0 is_stmt 1
 1907 1c7f 83C44C   		addl	$76, %esp
 1908 1c82 5B       		popl	%ebx
 1909              		.cfi_restore 3
 1910 1c83 5E       		popl	%esi
 1911              		.cfi_restore 6
 1912 1c84 5F       		popl	%edi
 1913              		.cfi_restore 7
 1914 1c85 5D       		popl	%ebp
 1915              		.cfi_restore 5
GAS LISTING C:\Users\PRESID~1\AppData\Local\Temp\ccPJOK5j.s 			page 58


 1916              		.cfi_def_cfa 4, 4
 1917 1c86 C3       		ret
 1918              		.cfi_endproc
 1919              	LFE12:
 1921              		.section .rdata,"dr"
 1922 0273 00       		.align 4
 1923              	LC38:
 1924 0274 0A2D2D3E 		.ascii "\12--> %lu check(s), %lu ok, %lu failed (%.2f%%)\12\0"
 1924      20256C75 
 1924      20636865 
 1924      636B2873 
 1924      292C2025 
 1925              		.align 4
 1926              	LC39:
 1927 02a4 636F756E 		.ascii "count_vowels(): Vowels Present\0"
 1927      745F766F 
 1927      77656C73 
 1927      28293A20 
 1927      566F7765 
 1928 02c3 00       		.align 4
 1929              	LC40:
 1930 02c4 0A3D3D20 		.ascii "\12== Entering suite #%lu, \"%s\" ==\12\12\0"
 1930      456E7465 
 1930      72696E67 
 1930      20737569 
 1930      74652023 
 1931              	LC41:
 1932 02e7 74657374 		.ascii "test_vowels_present\0"
 1932      5F766F77 
 1932      656C735F 
 1932      70726573 
 1932      656E7400 
 1933 02fb 00       		.align 4
 1934              	LC42:
 1935 02fc 636F756E 		.ascii "count_vowels(): No Vowels Present\0"
 1935      745F766F 
 1935      77656C73 
 1935      28293A20 
 1935      4E6F2056 
 1936              	LC43:
 1937 031e 74657374 		.ascii "test_no_vowels_present\0"
 1937      5F6E6F5F 
 1937      766F7765 
 1937      6C735F70 
 1937      72657365 
 1938              	LC44:
 1939 0335 53554343 		.ascii "SUCCESS\0"
 1939      45535300 
 1940              	LC45:
 1941 033d 4641494C 		.ascii "FAILURE\0"
 1941      55524500 
 1942 0345 000000   		.align 4
 1943              	LC46:
 1944 0348 0A3D3D3E 		.ascii "\12==> %lu check(s) in %lu suite(s) finished after %.2f second(s),\12    %lu succeeded, %l
 1944      20256C75 
 1944      20636865 
 1944      636B2873 
GAS LISTING C:\Users\PRESID~1\AppData\Local\Temp\ccPJOK5j.s 			page 59


 1944      2920696E 
 1945              		.text
 1946              		.globl	_main
 1948              	_main:
 1949              	LFB13:
  51:E:/NeuOrga/Programmieren/c_cpp/github_os/input/src/os_base\os_init_task_system_test.c **** 
  52:E:/NeuOrga/Programmieren/c_cpp/github_os/input/src/os_base\os_init_task_system_test.c **** 
  53:E:/NeuOrga/Programmieren/c_cpp/github_os/input/src/os_base\os_init_task_system_test.c **** int main(int argc, char *argv[])
  54:E:/NeuOrga/Programmieren/c_cpp/github_os/input/src/os_base\os_init_task_system_test.c **** {
 1950              		.loc 2 54 0
 1951              		.cfi_startproc
 1952 1c87 55       		pushl	%ebp
 1953              		.cfi_def_cfa_offset 8
 1954              		.cfi_offset 5, -8
 1955 1c88 89E5     		movl	%esp, %ebp
 1956              		.cfi_def_cfa_register 5
 1957 1c8a 57       		pushl	%edi
 1958 1c8b 56       		pushl	%esi
 1959 1c8c 53       		pushl	%ebx
 1960 1c8d 83E4F0   		andl	$-16, %esp
 1961 1c90 83EC70   		subl	$112, %esp
 1962              		.cfi_offset 7, -12
 1963              		.cfi_offset 6, -16
 1964              		.cfi_offset 3, -20
 1965              		.loc 2 54 0
 1966 1c93 E8000000 		call	___main
 1966      00
  55:E:/NeuOrga/Programmieren/c_cpp/github_os/input/src/os_base\os_init_task_system_test.c ****    sput_start_testing();
 1967              		.loc 2 55 0
 1968 1c98 C7442408 		movl	$76, 8(%esp)
 1968      4C000000 
 1969 1ca0 C7442404 		movl	$0, 4(%esp)
 1969      00000000 
 1970 1ca8 C7042400 		movl	$___sput, (%esp)
 1970      000000
 1971 1caf E8000000 		call	_memset
 1971      00
 1972 1cb4 A1000000 		movl	__imp___iob, %eax
 1972      00
 1973 1cb9 83C020   		addl	$32, %eax
 1974 1cbc A3000000 		movl	%eax, ___sput
 1974      00
 1975 1cc1 C7042400 		movl	$0, (%esp)
 1975      000000
 1976 1cc8 E8000000 		call	_time
 1976      00
 1977 1ccd A3440000 		movl	%eax, ___sput+68
 1977      00
 1978 1cd2 C6050400 		movb	$6, ___sput+4
 1978      000006
  56:E:/NeuOrga/Programmieren/c_cpp/github_os/input/src/os_base\os_init_task_system_test.c **** 
  57:E:/NeuOrga/Programmieren/c_cpp/github_os/input/src/os_base\os_init_task_system_test.c ****    sput_enter_suite("count_vowels(): Vowels Present");
 1979              		.loc 2 57 0
 1980 1cd9 A0040000 		movb	___sput+4, %al
 1980      00
 1981 1cde 3C06     		cmpb	$6, %al
 1982 1ce0 7434     		je	L102
GAS LISTING C:\Users\PRESID~1\AppData\Local\Temp\ccPJOK5j.s 			page 60


 1983              		.loc 2 57 0 is_stmt 0 discriminator 1
 1984 1ce2 A1000000 		movl	__imp___iob, %eax
 1984      00
 1985 1ce7 83C040   		addl	$64, %eax
 1986 1cea 8944240C 		movl	%eax, 12(%esp)
 1987 1cee C7442408 		movl	$29, 8(%esp)
 1987      1D000000 
 1988 1cf6 C7442404 		movl	$1, 4(%esp)
 1988      01000000 
 1989 1cfe C7042400 		movl	$LC0, (%esp)
 1989      000000
 1990 1d05 E8000000 		call	_fwrite
 1990      00
 1991 1d0a C7042401 		movl	$1, (%esp)
 1991      000000
 1992 1d11 E8000000 		call	_exit
 1992      00
 1993              	L102:
 1994              		.loc 2 57 0 discriminator 2
 1995 1d16 A1180000 		movl	___sput+24, %eax
 1995      00
 1996 1d1b 85C0     		testl	%eax, %eax
 1997 1d1d 0F847E01 		je	L103
 1997      0000
 1998              	LBB2:
 1999              		.loc 2 57 0 discriminator 3
 2000 1d23 A1B80300 		movl	LC36, %eax
 2000      00
 2001 1d28 8944246C 		movl	%eax, 108(%esp)
 2002 1d2c A0040000 		movb	___sput+4, %al
 2002      00
 2003 1d31 3C06     		cmpb	$6, %al
 2004 1d33 7434     		je	L104
 2005              		.loc 2 57 0 discriminator 5
 2006 1d35 A1000000 		movl	__imp___iob, %eax
 2006      00
 2007 1d3a 83C040   		addl	$64, %eax
 2008 1d3d 8944240C 		movl	%eax, 12(%esp)
 2009 1d41 C7442408 		movl	$29, 8(%esp)
 2009      1D000000 
 2010 1d49 C7442404 		movl	$1, 4(%esp)
 2010      01000000 
 2011 1d51 C7042400 		movl	$LC0, (%esp)
 2011      000000
 2012 1d58 E8000000 		call	_fwrite
 2012      00
 2013 1d5d C7042401 		movl	$1, (%esp)
 2013      000000
 2014 1d64 E8000000 		call	_exit
 2014      00
 2015              	L104:
 2016              		.loc 2 57 0 discriminator 6
 2017 1d69 A1180000 		movl	___sput+24, %eax
 2017      00
 2018 1d6e 85C0     		testl	%eax, %eax
 2019 1d70 7531     		jne	L105
 2020              		.loc 2 57 0 discriminator 7
GAS LISTING C:\Users\PRESID~1\AppData\Local\Temp\ccPJOK5j.s 			page 61


 2021 1d72 A1000000 		movl	___sput, %eax
 2021      00
 2022 1d77 8944240C 		movl	%eax, 12(%esp)
 2023 1d7b C7442408 		movl	$27, 8(%esp)
 2023      1B000000 
 2024 1d83 C7442404 		movl	$1, 4(%esp)
 2024      01000000 
 2025 1d8b C704241E 		movl	$LC1, (%esp)
 2025      000000
 2026 1d92 E8000000 		call	_fwrite
 2026      00
 2027 1d97 C7042401 		movl	$1, (%esp)
 2027      000000
 2028 1d9e E8000000 		call	_exit
 2028      00
 2029              	L105:
 2030              		.loc 2 57 0 discriminator 8
 2031 1da3 A1200000 		movl	___sput+32, %eax
 2031      00
 2032 1da8 85C0     		testl	%eax, %eax
 2033 1daa 744E     		je	L106
 2034              		.loc 2 57 0 discriminator 9
 2035 1dac A1280000 		movl	___sput+40, %eax
 2035      00
 2036 1db1 89442448 		movl	%eax, 72(%esp)
 2037 1db5 C744244C 		movl	$0, 76(%esp)
 2037      00000000 
 2038 1dbd DF6C2448 		fildq	72(%esp)
 2039 1dc1 DD5C2458 		fstpl	88(%esp)
 2040 1dc5 DD442458 		fldl	88(%esp)
 2041 1dc9 DB2DC003 		fldt	LC37
 2041      0000
 2042 1dcf DEC9     		fmulp	%st, %st(1)
 2043 1dd1 A1200000 		movl	___sput+32, %eax
 2043      00
 2044 1dd6 89442448 		movl	%eax, 72(%esp)
 2045 1dda C744244C 		movl	$0, 76(%esp)
 2045      00000000 
 2046 1de2 DF6C2448 		fildq	72(%esp)
 2047 1de6 DD5C2458 		fstpl	88(%esp)
 2048 1dea DD442458 		fldl	88(%esp)
 2049 1dee DEF9     		fdivrp	%st, %st(1)
 2050 1df0 D95C2454 		fstps	84(%esp)
 2051 1df4 8B442454 		movl	84(%esp), %eax
 2052 1df8 EB05     		jmp	L107
 2053              	L106:
 2054              		.loc 2 57 0 discriminator 10
 2055 1dfa A1B80300 		movl	LC36, %eax
 2055      00
 2056              	L107:
 2057              		.loc 2 57 0 discriminator 12
 2058 1dff 8944246C 		movl	%eax, 108(%esp)
 2059 1e03 D944246C 		flds	108(%esp)
 2060 1e07 DD5C2448 		fstpl	72(%esp)
 2061 1e0b 8B442448 		movl	72(%esp), %eax
 2062 1e0f 8B54244C 		movl	76(%esp), %edx
 2063 1e13 8B3D2800 		movl	___sput+40, %edi
GAS LISTING C:\Users\PRESID~1\AppData\Local\Temp\ccPJOK5j.s 			page 62


 2063      0000
 2064 1e19 8B352400 		movl	___sput+36, %esi
 2064      0000
 2065 1e1f 8B1D2000 		movl	___sput+32, %ebx
 2065      0000
 2066 1e25 8B0D0000 		movl	___sput, %ecx
 2066      0000
 2067 1e2b 89442414 		movl	%eax, 20(%esp)
 2068 1e2f 89542418 		movl	%edx, 24(%esp)
 2069 1e33 897C2410 		movl	%edi, 16(%esp)
 2070 1e37 8974240C 		movl	%esi, 12(%esp)
 2071 1e3b 895C2408 		movl	%ebx, 8(%esp)
 2072 1e3f C7442404 		movl	$LC38, 4(%esp)
 2072      74020000 
 2073 1e47 890C24   		movl	%ecx, (%esp)
 2074 1e4a E8B1E1FF 		call	_fprintf
 2074      FF
 2075 1e4f 8B150800 		movl	___sput+8, %edx
 2075      0000
 2076 1e55 A1200000 		movl	___sput+32, %eax
 2076      00
 2077 1e5a 01D0     		addl	%edx, %eax
 2078 1e5c A3080000 		movl	%eax, ___sput+8
 2078      00
 2079 1e61 8B151000 		movl	___sput+16, %edx
 2079      0000
 2080 1e67 A1240000 		movl	___sput+36, %eax
 2080      00
 2081 1e6c 01D0     		addl	%edx, %eax
 2082 1e6e A3100000 		movl	%eax, ___sput+16
 2082      00
 2083 1e73 8B151400 		movl	___sput+20, %edx
 2083      0000
 2084 1e79 A1280000 		movl	___sput+40, %eax
 2084      00
 2085 1e7e 01D0     		addl	%edx, %eax
 2086 1e80 A3140000 		movl	%eax, ___sput+20
 2086      00
 2087 1e85 C7442408 		movl	$20, 8(%esp)
 2087      14000000 
 2088 1e8d C7442404 		movl	$0, 4(%esp)
 2088      00000000 
 2089 1e95 C7042418 		movl	$___sput+24, (%esp)
 2089      000000
 2090 1e9c E8000000 		call	_memset
 2090      00
 2091              	L103:
 2092              	LBE2:
 2093              		.loc 2 57 0 discriminator 13
 2094 1ea1 C7051800 		movl	$LC39, ___sput+24
 2094      0000A402 
 2094      0000
 2095 1eab A10C0000 		movl	___sput+12, %eax
 2095      00
 2096 1eb0 40       		incl	%eax
 2097 1eb1 A30C0000 		movl	%eax, ___sput+12
 2097      00
GAS LISTING C:\Users\PRESID~1\AppData\Local\Temp\ccPJOK5j.s 			page 63


 2098 1eb6 A10C0000 		movl	___sput+12, %eax
 2098      00
 2099 1ebb A31C0000 		movl	%eax, ___sput+28
 2099      00
 2100 1ec0 8B0D1800 		movl	___sput+24, %ecx
 2100      0000
 2101 1ec6 8B151C00 		movl	___sput+28, %edx
 2101      0000
 2102 1ecc A1000000 		movl	___sput, %eax
 2102      00
 2103 1ed1 894C240C 		movl	%ecx, 12(%esp)
 2104 1ed5 89542408 		movl	%edx, 8(%esp)
 2105 1ed9 C7442404 		movl	$LC40, 4(%esp)
 2105      C4020000 
 2106 1ee1 890424   		movl	%eax, (%esp)
 2107 1ee4 E817E1FF 		call	_fprintf
 2107      FF
  58:E:/NeuOrga/Programmieren/c_cpp/github_os/input/src/os_base\os_init_task_system_test.c ****    sput_run_test(test_vowels_present);
 2108              		.loc 2 58 0 is_stmt 1 discriminator 13
 2109 1ee9 A0040000 		movb	___sput+4, %al
 2109      00
 2110 1eee 3C06     		cmpb	$6, %al
 2111 1ef0 7434     		je	L108
 2112              		.loc 2 58 0 is_stmt 0 discriminator 1
 2113 1ef2 A1000000 		movl	__imp___iob, %eax
 2113      00
 2114 1ef7 83C040   		addl	$64, %eax
 2115 1efa 8944240C 		movl	%eax, 12(%esp)
 2116 1efe C7442408 		movl	$29, 8(%esp)
 2116      1D000000 
 2117 1f06 C7442404 		movl	$1, 4(%esp)
 2117      01000000 
 2118 1f0e C7042400 		movl	$LC0, (%esp)
 2118      000000
 2119 1f15 E8000000 		call	_fwrite
 2119      00
 2120 1f1a C7042401 		movl	$1, (%esp)
 2120      000000
 2121 1f21 E8000000 		call	_exit
 2121      00
 2122              	L108:
 2123              		.loc 2 58 0 discriminator 2
 2124 1f26 A1180000 		movl	___sput+24, %eax
 2124      00
 2125 1f2b 85C0     		testl	%eax, %eax
 2126 1f2d 7531     		jne	L109
 2127              		.loc 2 58 0 discriminator 3
 2128 1f2f A1000000 		movl	___sput, %eax
 2128      00
 2129 1f34 8944240C 		movl	%eax, 12(%esp)
 2130 1f38 C7442408 		movl	$27, 8(%esp)
 2130      1B000000 
 2131 1f40 C7442404 		movl	$1, 4(%esp)
 2131      01000000 
 2132 1f48 C704241E 		movl	$LC1, (%esp)
 2132      000000
 2133 1f4f E8000000 		call	_fwrite
GAS LISTING C:\Users\PRESID~1\AppData\Local\Temp\ccPJOK5j.s 			page 64


 2133      00
 2134 1f54 C7042401 		movl	$1, (%esp)
 2134      000000
 2135 1f5b E8000000 		call	_exit
 2135      00
 2136              	L109:
 2137              		.loc 2 58 0 discriminator 4
 2138 1f60 C7442408 		movl	$8, 8(%esp)
 2138      08000000 
 2139 1f68 C7442404 		movl	$0, 4(%esp)
 2139      00000000 
 2140 1f70 C704242C 		movl	$___sput+44, (%esp)
 2140      000000
 2141 1f77 E8000000 		call	_memset
 2141      00
 2142 1f7c C7052C00 		movl	$LC41, ___sput+44
 2142      0000E702 
 2142      0000
 2143 1f86 E8FBE0FF 		call	_test_vowels_present
 2143      FF
  59:E:/NeuOrga/Programmieren/c_cpp/github_os/input/src/os_base\os_init_task_system_test.c **** 
  60:E:/NeuOrga/Programmieren/c_cpp/github_os/input/src/os_base\os_init_task_system_test.c ****    sput_enter_suite("count_vowels(): No Vowels Present");
 2144              		.loc 2 60 0 is_stmt 1 discriminator 4
 2145 1f8b A0040000 		movb	___sput+4, %al
 2145      00
 2146 1f90 3C06     		cmpb	$6, %al
 2147 1f92 7434     		je	L110
 2148              		.loc 2 60 0 is_stmt 0 discriminator 1
 2149 1f94 A1000000 		movl	__imp___iob, %eax
 2149      00
 2150 1f99 83C040   		addl	$64, %eax
 2151 1f9c 8944240C 		movl	%eax, 12(%esp)
 2152 1fa0 C7442408 		movl	$29, 8(%esp)
 2152      1D000000 
 2153 1fa8 C7442404 		movl	$1, 4(%esp)
 2153      01000000 
 2154 1fb0 C7042400 		movl	$LC0, (%esp)
 2154      000000
 2155 1fb7 E8000000 		call	_fwrite
 2155      00
 2156 1fbc C7042401 		movl	$1, (%esp)
 2156      000000
 2157 1fc3 E8000000 		call	_exit
 2157      00
 2158              	L110:
 2159              		.loc 2 60 0 discriminator 2
 2160 1fc8 A1180000 		movl	___sput+24, %eax
 2160      00
 2161 1fcd 85C0     		testl	%eax, %eax
 2162 1fcf 0F847E01 		je	L111
 2162      0000
 2163              	LBB3:
 2164              		.loc 2 60 0 discriminator 3
 2165 1fd5 A1B80300 		movl	LC36, %eax
 2165      00
 2166 1fda 89442468 		movl	%eax, 104(%esp)
 2167 1fde A0040000 		movb	___sput+4, %al
GAS LISTING C:\Users\PRESID~1\AppData\Local\Temp\ccPJOK5j.s 			page 65


 2167      00
 2168 1fe3 3C06     		cmpb	$6, %al
 2169 1fe5 7434     		je	L112
 2170              		.loc 2 60 0 discriminator 5
 2171 1fe7 A1000000 		movl	__imp___iob, %eax
 2171      00
 2172 1fec 83C040   		addl	$64, %eax
 2173 1fef 8944240C 		movl	%eax, 12(%esp)
 2174 1ff3 C7442408 		movl	$29, 8(%esp)
 2174      1D000000 
 2175 1ffb C7442404 		movl	$1, 4(%esp)
 2175      01000000 
 2176 2003 C7042400 		movl	$LC0, (%esp)
 2176      000000
 2177 200a E8000000 		call	_fwrite
 2177      00
 2178 200f C7042401 		movl	$1, (%esp)
 2178      000000
 2179 2016 E8000000 		call	_exit
 2179      00
 2180              	L112:
 2181              		.loc 2 60 0 discriminator 6
 2182 201b A1180000 		movl	___sput+24, %eax
 2182      00
 2183 2020 85C0     		testl	%eax, %eax
 2184 2022 7531     		jne	L113
 2185              		.loc 2 60 0 discriminator 7
 2186 2024 A1000000 		movl	___sput, %eax
 2186      00
 2187 2029 8944240C 		movl	%eax, 12(%esp)
 2188 202d C7442408 		movl	$27, 8(%esp)
 2188      1B000000 
 2189 2035 C7442404 		movl	$1, 4(%esp)
 2189      01000000 
 2190 203d C704241E 		movl	$LC1, (%esp)
 2190      000000
 2191 2044 E8000000 		call	_fwrite
 2191      00
 2192 2049 C7042401 		movl	$1, (%esp)
 2192      000000
 2193 2050 E8000000 		call	_exit
 2193      00
 2194              	L113:
 2195              		.loc 2 60 0 discriminator 8
 2196 2055 A1200000 		movl	___sput+32, %eax
 2196      00
 2197 205a 85C0     		testl	%eax, %eax
 2198 205c 744E     		je	L114
 2199              		.loc 2 60 0 discriminator 9
 2200 205e A1280000 		movl	___sput+40, %eax
 2200      00
 2201 2063 89442448 		movl	%eax, 72(%esp)
 2202 2067 C744244C 		movl	$0, 76(%esp)
 2202      00000000 
 2203 206f DF6C2448 		fildq	72(%esp)
 2204 2073 DD5C2458 		fstpl	88(%esp)
 2205 2077 DD442458 		fldl	88(%esp)
GAS LISTING C:\Users\PRESID~1\AppData\Local\Temp\ccPJOK5j.s 			page 66


 2206 207b DB2DC003 		fldt	LC37
 2206      0000
 2207 2081 DEC9     		fmulp	%st, %st(1)
 2208 2083 A1200000 		movl	___sput+32, %eax
 2208      00
 2209 2088 89442448 		movl	%eax, 72(%esp)
 2210 208c C744244C 		movl	$0, 76(%esp)
 2210      00000000 
 2211 2094 DF6C2448 		fildq	72(%esp)
 2212 2098 DD5C2458 		fstpl	88(%esp)
 2213 209c DD442458 		fldl	88(%esp)
 2214 20a0 DEF9     		fdivrp	%st, %st(1)
 2215 20a2 D95C2454 		fstps	84(%esp)
 2216 20a6 8B442454 		movl	84(%esp), %eax
 2217 20aa EB05     		jmp	L115
 2218              	L114:
 2219              		.loc 2 60 0 discriminator 10
 2220 20ac A1B80300 		movl	LC36, %eax
 2220      00
 2221              	L115:
 2222              		.loc 2 60 0 discriminator 12
 2223 20b1 89442468 		movl	%eax, 104(%esp)
 2224 20b5 D9442468 		flds	104(%esp)
 2225 20b9 DD5C2448 		fstpl	72(%esp)
 2226 20bd 8B442448 		movl	72(%esp), %eax
 2227 20c1 8B54244C 		movl	76(%esp), %edx
 2228 20c5 8B3D2800 		movl	___sput+40, %edi
 2228      0000
 2229 20cb 8B352400 		movl	___sput+36, %esi
 2229      0000
 2230 20d1 8B1D2000 		movl	___sput+32, %ebx
 2230      0000
 2231 20d7 8B0D0000 		movl	___sput, %ecx
 2231      0000
 2232 20dd 89442414 		movl	%eax, 20(%esp)
 2233 20e1 89542418 		movl	%edx, 24(%esp)
 2234 20e5 897C2410 		movl	%edi, 16(%esp)
 2235 20e9 8974240C 		movl	%esi, 12(%esp)
 2236 20ed 895C2408 		movl	%ebx, 8(%esp)
 2237 20f1 C7442404 		movl	$LC38, 4(%esp)
 2237      74020000 
 2238 20f9 890C24   		movl	%ecx, (%esp)
 2239 20fc E8FFDEFF 		call	_fprintf
 2239      FF
 2240 2101 8B150800 		movl	___sput+8, %edx
 2240      0000
 2241 2107 A1200000 		movl	___sput+32, %eax
 2241      00
 2242 210c 01D0     		addl	%edx, %eax
 2243 210e A3080000 		movl	%eax, ___sput+8
 2243      00
 2244 2113 8B151000 		movl	___sput+16, %edx
 2244      0000
 2245 2119 A1240000 		movl	___sput+36, %eax
 2245      00
 2246 211e 01D0     		addl	%edx, %eax
 2247 2120 A3100000 		movl	%eax, ___sput+16
GAS LISTING C:\Users\PRESID~1\AppData\Local\Temp\ccPJOK5j.s 			page 67


 2247      00
 2248 2125 8B151400 		movl	___sput+20, %edx
 2248      0000
 2249 212b A1280000 		movl	___sput+40, %eax
 2249      00
 2250 2130 01D0     		addl	%edx, %eax
 2251 2132 A3140000 		movl	%eax, ___sput+20
 2251      00
 2252 2137 C7442408 		movl	$20, 8(%esp)
 2252      14000000 
 2253 213f C7442404 		movl	$0, 4(%esp)
 2253      00000000 
 2254 2147 C7042418 		movl	$___sput+24, (%esp)
 2254      000000
 2255 214e E8000000 		call	_memset
 2255      00
 2256              	L111:
 2257              	LBE3:
 2258              		.loc 2 60 0 discriminator 13
 2259 2153 C7051800 		movl	$LC42, ___sput+24
 2259      0000FC02 
 2259      0000
 2260 215d A10C0000 		movl	___sput+12, %eax
 2260      00
 2261 2162 40       		incl	%eax
 2262 2163 A30C0000 		movl	%eax, ___sput+12
 2262      00
 2263 2168 A10C0000 		movl	___sput+12, %eax
 2263      00
 2264 216d A31C0000 		movl	%eax, ___sput+28
 2264      00
 2265 2172 8B0D1800 		movl	___sput+24, %ecx
 2265      0000
 2266 2178 8B151C00 		movl	___sput+28, %edx
 2266      0000
 2267 217e A1000000 		movl	___sput, %eax
 2267      00
 2268 2183 894C240C 		movl	%ecx, 12(%esp)
 2269 2187 89542408 		movl	%edx, 8(%esp)
 2270 218b C7442404 		movl	$LC40, 4(%esp)
 2270      C4020000 
 2271 2193 890424   		movl	%eax, (%esp)
 2272 2196 E865DEFF 		call	_fprintf
 2272      FF
  61:E:/NeuOrga/Programmieren/c_cpp/github_os/input/src/os_base\os_init_task_system_test.c ****    sput_run_test(test_no_vowels_present);
 2273              		.loc 2 61 0 is_stmt 1 discriminator 13
 2274 219b A0040000 		movb	___sput+4, %al
 2274      00
 2275 21a0 3C06     		cmpb	$6, %al
 2276 21a2 7434     		je	L116
 2277              		.loc 2 61 0 is_stmt 0 discriminator 1
 2278 21a4 A1000000 		movl	__imp___iob, %eax
 2278      00
 2279 21a9 83C040   		addl	$64, %eax
 2280 21ac 8944240C 		movl	%eax, 12(%esp)
 2281 21b0 C7442408 		movl	$29, 8(%esp)
 2281      1D000000 
GAS LISTING C:\Users\PRESID~1\AppData\Local\Temp\ccPJOK5j.s 			page 68


 2282 21b8 C7442404 		movl	$1, 4(%esp)
 2282      01000000 
 2283 21c0 C7042400 		movl	$LC0, (%esp)
 2283      000000
 2284 21c7 E8000000 		call	_fwrite
 2284      00
 2285 21cc C7042401 		movl	$1, (%esp)
 2285      000000
 2286 21d3 E8000000 		call	_exit
 2286      00
 2287              	L116:
 2288              		.loc 2 61 0 discriminator 2
 2289 21d8 A1180000 		movl	___sput+24, %eax
 2289      00
 2290 21dd 85C0     		testl	%eax, %eax
 2291 21df 7531     		jne	L117
 2292              		.loc 2 61 0 discriminator 3
 2293 21e1 A1000000 		movl	___sput, %eax
 2293      00
 2294 21e6 8944240C 		movl	%eax, 12(%esp)
 2295 21ea C7442408 		movl	$27, 8(%esp)
 2295      1B000000 
 2296 21f2 C7442404 		movl	$1, 4(%esp)
 2296      01000000 
 2297 21fa C704241E 		movl	$LC1, (%esp)
 2297      000000
 2298 2201 E8000000 		call	_fwrite
 2298      00
 2299 2206 C7042401 		movl	$1, (%esp)
 2299      000000
 2300 220d E8000000 		call	_exit
 2300      00
 2301              	L117:
 2302              		.loc 2 61 0 discriminator 4
 2303 2212 C7442408 		movl	$8, 8(%esp)
 2303      08000000 
 2304 221a C7442404 		movl	$0, 4(%esp)
 2304      00000000 
 2305 2222 C704242C 		movl	$___sput+44, (%esp)
 2305      000000
 2306 2229 E8000000 		call	_memset
 2306      00
 2307 222e C7052C00 		movl	$LC43, ___sput+44
 2307      00001E03 
 2307      0000
 2308 2238 E84CECFF 		call	_test_no_vowels_present
 2308      FF
 2309              	LBB4:
  62:E:/NeuOrga/Programmieren/c_cpp/github_os/input/src/os_base\os_init_task_system_test.c **** 
  63:E:/NeuOrga/Programmieren/c_cpp/github_os/input/src/os_base\os_init_task_system_test.c ****    sput_finish_testing();
 2310              		.loc 2 63 0 is_stmt 1 discriminator 4
 2311 223d A1B80300 		movl	LC36, %eax
 2311      00
 2312 2242 89442464 		movl	%eax, 100(%esp)
 2313 2246 A0040000 		movb	___sput+4, %al
 2313      00
 2314 224b 3C06     		cmpb	$6, %al
GAS LISTING C:\Users\PRESID~1\AppData\Local\Temp\ccPJOK5j.s 			page 69


 2315 224d 7434     		je	L118
 2316              		.loc 2 63 0 is_stmt 0 discriminator 1
 2317 224f A1000000 		movl	__imp___iob, %eax
 2317      00
 2318 2254 83C040   		addl	$64, %eax
 2319 2257 8944240C 		movl	%eax, 12(%esp)
 2320 225b C7442408 		movl	$29, 8(%esp)
 2320      1D000000 
 2321 2263 C7442404 		movl	$1, 4(%esp)
 2321      01000000 
 2322 226b C7042400 		movl	$LC0, (%esp)
 2322      000000
 2323 2272 E8000000 		call	_fwrite
 2323      00
 2324 2277 C7042401 		movl	$1, (%esp)
 2324      000000
 2325 227e E8000000 		call	_exit
 2325      00
 2326              	L118:
 2327              		.loc 2 63 0 discriminator 2
 2328 2283 A1180000 		movl	___sput+24, %eax
 2328      00
 2329 2288 85C0     		testl	%eax, %eax
 2330 228a 0F847E01 		je	L119
 2330      0000
 2331              	LBB5:
 2332              		.loc 2 63 0 discriminator 3
 2333 2290 A1B80300 		movl	LC36, %eax
 2333      00
 2334 2295 89442460 		movl	%eax, 96(%esp)
 2335 2299 A0040000 		movb	___sput+4, %al
 2335      00
 2336 229e 3C06     		cmpb	$6, %al
 2337 22a0 7434     		je	L120
 2338              		.loc 2 63 0 discriminator 5
 2339 22a2 A1000000 		movl	__imp___iob, %eax
 2339      00
 2340 22a7 83C040   		addl	$64, %eax
 2341 22aa 8944240C 		movl	%eax, 12(%esp)
 2342 22ae C7442408 		movl	$29, 8(%esp)
 2342      1D000000 
 2343 22b6 C7442404 		movl	$1, 4(%esp)
 2343      01000000 
 2344 22be C7042400 		movl	$LC0, (%esp)
 2344      000000
 2345 22c5 E8000000 		call	_fwrite
 2345      00
 2346 22ca C7042401 		movl	$1, (%esp)
 2346      000000
 2347 22d1 E8000000 		call	_exit
 2347      00
 2348              	L120:
 2349              		.loc 2 63 0 discriminator 6
 2350 22d6 A1180000 		movl	___sput+24, %eax
 2350      00
 2351 22db 85C0     		testl	%eax, %eax
 2352 22dd 7531     		jne	L121
GAS LISTING C:\Users\PRESID~1\AppData\Local\Temp\ccPJOK5j.s 			page 70


 2353              		.loc 2 63 0 discriminator 7
 2354 22df A1000000 		movl	___sput, %eax
 2354      00
 2355 22e4 8944240C 		movl	%eax, 12(%esp)
 2356 22e8 C7442408 		movl	$27, 8(%esp)
 2356      1B000000 
 2357 22f0 C7442404 		movl	$1, 4(%esp)
 2357      01000000 
 2358 22f8 C704241E 		movl	$LC1, (%esp)
 2358      000000
 2359 22ff E8000000 		call	_fwrite
 2359      00
 2360 2304 C7042401 		movl	$1, (%esp)
 2360      000000
 2361 230b E8000000 		call	_exit
 2361      00
 2362              	L121:
 2363              		.loc 2 63 0 discriminator 8
 2364 2310 A1200000 		movl	___sput+32, %eax
 2364      00
 2365 2315 85C0     		testl	%eax, %eax
 2366 2317 744E     		je	L122
 2367              		.loc 2 63 0 discriminator 9
 2368 2319 A1280000 		movl	___sput+40, %eax
 2368      00
 2369 231e 89442448 		movl	%eax, 72(%esp)
 2370 2322 C744244C 		movl	$0, 76(%esp)
 2370      00000000 
 2371 232a DF6C2448 		fildq	72(%esp)
 2372 232e DD5C2458 		fstpl	88(%esp)
 2373 2332 DD442458 		fldl	88(%esp)
 2374 2336 DB2DC003 		fldt	LC37
 2374      0000
 2375 233c DEC9     		fmulp	%st, %st(1)
 2376 233e A1200000 		movl	___sput+32, %eax
 2376      00
 2377 2343 89442448 		movl	%eax, 72(%esp)
 2378 2347 C744244C 		movl	$0, 76(%esp)
 2378      00000000 
 2379 234f DF6C2448 		fildq	72(%esp)
 2380 2353 DD5C2458 		fstpl	88(%esp)
 2381 2357 DD442458 		fldl	88(%esp)
 2382 235b DEF9     		fdivrp	%st, %st(1)
 2383 235d D95C2454 		fstps	84(%esp)
 2384 2361 8B442454 		movl	84(%esp), %eax
 2385 2365 EB05     		jmp	L123
 2386              	L122:
 2387              		.loc 2 63 0 discriminator 10
 2388 2367 A1B80300 		movl	LC36, %eax
 2388      00
 2389              	L123:
 2390              		.loc 2 63 0 discriminator 12
 2391 236c 89442460 		movl	%eax, 96(%esp)
 2392 2370 D9442460 		flds	96(%esp)
 2393 2374 DD5C2448 		fstpl	72(%esp)
 2394 2378 8B442448 		movl	72(%esp), %eax
 2395 237c 8B54244C 		movl	76(%esp), %edx
GAS LISTING C:\Users\PRESID~1\AppData\Local\Temp\ccPJOK5j.s 			page 71


 2396 2380 8B3D2800 		movl	___sput+40, %edi
 2396      0000
 2397 2386 8B352400 		movl	___sput+36, %esi
 2397      0000
 2398 238c 8B1D2000 		movl	___sput+32, %ebx
 2398      0000
 2399 2392 8B0D0000 		movl	___sput, %ecx
 2399      0000
 2400 2398 89442414 		movl	%eax, 20(%esp)
 2401 239c 89542418 		movl	%edx, 24(%esp)
 2402 23a0 897C2410 		movl	%edi, 16(%esp)
 2403 23a4 8974240C 		movl	%esi, 12(%esp)
 2404 23a8 895C2408 		movl	%ebx, 8(%esp)
 2405 23ac C7442404 		movl	$LC38, 4(%esp)
 2405      74020000 
 2406 23b4 890C24   		movl	%ecx, (%esp)
 2407 23b7 E844DCFF 		call	_fprintf
 2407      FF
 2408 23bc 8B150800 		movl	___sput+8, %edx
 2408      0000
 2409 23c2 A1200000 		movl	___sput+32, %eax
 2409      00
 2410 23c7 01D0     		addl	%edx, %eax
 2411 23c9 A3080000 		movl	%eax, ___sput+8
 2411      00
 2412 23ce 8B151000 		movl	___sput+16, %edx
 2412      0000
 2413 23d4 A1240000 		movl	___sput+36, %eax
 2413      00
 2414 23d9 01D0     		addl	%edx, %eax
 2415 23db A3100000 		movl	%eax, ___sput+16
 2415      00
 2416 23e0 8B151400 		movl	___sput+20, %edx
 2416      0000
 2417 23e6 A1280000 		movl	___sput+40, %eax
 2417      00
 2418 23eb 01D0     		addl	%edx, %eax
 2419 23ed A3140000 		movl	%eax, ___sput+20
 2419      00
 2420 23f2 C7442408 		movl	$20, 8(%esp)
 2420      14000000 
 2421 23fa C7442404 		movl	$0, 4(%esp)
 2421      00000000 
 2422 2402 C7042418 		movl	$___sput+24, (%esp)
 2422      000000
 2423 2409 E8000000 		call	_memset
 2423      00
 2424              	L119:
 2425              	LBE5:
 2426              		.loc 2 63 0 discriminator 13
 2427 240e A1080000 		movl	___sput+8, %eax
 2427      00
 2428 2413 85C0     		testl	%eax, %eax
 2429 2415 744E     		je	L124
 2430              		.loc 2 63 0 discriminator 14
 2431 2417 A1140000 		movl	___sput+20, %eax
 2431      00
GAS LISTING C:\Users\PRESID~1\AppData\Local\Temp\ccPJOK5j.s 			page 72


 2432 241c 89442448 		movl	%eax, 72(%esp)
 2433 2420 C744244C 		movl	$0, 76(%esp)
 2433      00000000 
 2434 2428 DF6C2448 		fildq	72(%esp)
 2435 242c DD5C2458 		fstpl	88(%esp)
 2436 2430 DD442458 		fldl	88(%esp)
 2437 2434 DB2DC003 		fldt	LC37
 2437      0000
 2438 243a DEC9     		fmulp	%st, %st(1)
 2439 243c A1080000 		movl	___sput+8, %eax
 2439      00
 2440 2441 89442448 		movl	%eax, 72(%esp)
 2441 2445 C744244C 		movl	$0, 76(%esp)
 2441      00000000 
 2442 244d DF6C2448 		fildq	72(%esp)
 2443 2451 DD5C2458 		fstpl	88(%esp)
 2444 2455 DD442458 		fldl	88(%esp)
 2445 2459 DEF9     		fdivrp	%st, %st(1)
 2446 245b D95C2454 		fstps	84(%esp)
 2447 245f 8B442454 		movl	84(%esp), %eax
 2448 2463 EB05     		jmp	L125
 2449              	L124:
 2450              		.loc 2 63 0 discriminator 15
 2451 2465 A1B80300 		movl	LC36, %eax
 2451      00
 2452              	L125:
 2453              		.loc 2 63 0 discriminator 17
 2454 246a 89442464 		movl	%eax, 100(%esp)
 2455 246e C7042400 		movl	$0, (%esp)
 2455      000000
 2456 2475 E8000000 		call	_time
 2456      00
 2457 247a A3480000 		movl	%eax, ___sput+72
 2457      00
 2458 247f A1140000 		movl	___sput+20, %eax
 2458      00
 2459 2484 85C0     		testl	%eax, %eax
 2460 2486 750A     		jne	L126
 2461              		.loc 2 63 0 discriminator 18
 2462 2488 C7442448 		movl	$LC44, 72(%esp)
 2462      35030000 
 2463 2490 EB08     		jmp	L127
 2464              	L126:
 2465              		.loc 2 63 0 discriminator 19
 2466 2492 C7442448 		movl	$LC45, 72(%esp)
 2466      3D030000 
 2467              	L127:
 2468              		.loc 2 63 0 discriminator 21
 2469 249a D9442464 		flds	100(%esp)
 2470 249e DD5C2440 		fstpl	64(%esp)
 2471 24a2 8B5C2440 		movl	64(%esp), %ebx
 2472 24a6 8B742444 		movl	68(%esp), %esi
 2473 24aa A1140000 		movl	___sput+20, %eax
 2473      00
 2474 24af 89442440 		movl	%eax, 64(%esp)
 2475 24b3 8B3D1000 		movl	___sput+16, %edi
 2475      0000
GAS LISTING C:\Users\PRESID~1\AppData\Local\Temp\ccPJOK5j.s 			page 73


 2476 24b9 897C2450 		movl	%edi, 80(%esp)
 2477 24bd 8B154400 		movl	___sput+68, %edx
 2477      0000
 2478 24c3 A1480000 		movl	___sput+72, %eax
 2478      00
 2479 24c8 89542404 		movl	%edx, 4(%esp)
 2480 24cc 890424   		movl	%eax, (%esp)
 2481 24cf E8000000 		call	_difftime
 2481      00
 2482 24d4 DD5C2438 		fstpl	56(%esp)
 2483 24d8 DD442438 		fldl	56(%esp)
 2484 24dc 8B0D0C00 		movl	___sput+12, %ecx
 2484      0000
 2485 24e2 89C8     		movl	%ecx, %eax
 2486 24e4 8B3D0800 		movl	___sput+8, %edi
 2486      0000
 2487 24ea 8B0D0000 		movl	___sput, %ecx
 2487      0000
 2488 24f0 8B542448 		movl	72(%esp), %edx
 2489 24f4 89542428 		movl	%edx, 40(%esp)
 2490 24f8 895C2420 		movl	%ebx, 32(%esp)
 2491 24fc 89742424 		movl	%esi, 36(%esp)
 2492 2500 8B742440 		movl	64(%esp), %esi
 2493 2504 8974241C 		movl	%esi, 28(%esp)
 2494 2508 8B5C2450 		movl	80(%esp), %ebx
 2495 250c 895C2418 		movl	%ebx, 24(%esp)
 2496 2510 DD5C2410 		fstpl	16(%esp)
 2497 2514 8944240C 		movl	%eax, 12(%esp)
 2498 2518 897C2408 		movl	%edi, 8(%esp)
 2499 251c C7442404 		movl	$LC46, 4(%esp)
 2499      48030000 
 2500 2524 890C24   		movl	%ecx, (%esp)
 2501 2527 E8D4DAFF 		call	_fprintf
 2501      FF
 2502              	LBE4:
  64:E:/NeuOrga/Programmieren/c_cpp/github_os/input/src/os_base\os_init_task_system_test.c **** 
  65:E:/NeuOrga/Programmieren/c_cpp/github_os/input/src/os_base\os_init_task_system_test.c ****    return sput_get_return_value();
 2503              		.loc 2 65 0 is_stmt 1 discriminator 21
 2504 252c A1140000 		movl	___sput+20, %eax
 2504      00
 2505 2531 85C0     		testl	%eax, %eax
 2506 2533 0F95C0   		setne	%al
 2507 2536 0FB6C0   		movzbl	%al, %eax
  66:E:/NeuOrga/Programmieren/c_cpp/github_os/input/src/os_base\os_init_task_system_test.c **** }
 2508              		.loc 2 66 0 discriminator 21
 2509 2539 8D65F4   		leal	-12(%ebp), %esp
 2510 253c 5B       		popl	%ebx
 2511              		.cfi_restore 3
 2512 253d 5E       		popl	%esi
 2513              		.cfi_restore 6
 2514 253e 5F       		popl	%edi
 2515              		.cfi_restore 7
 2516 253f 5D       		popl	%ebp
 2517              		.cfi_restore 5
 2518              		.cfi_def_cfa 4, 4
 2519 2540 C3       		ret
 2520              		.cfi_endproc
GAS LISTING C:\Users\PRESID~1\AppData\Local\Temp\ccPJOK5j.s 			page 74


 2521              	LFE13:
 2522              		.section .rdata,"dr"
 2523 03b7 00       		.align 4
 2524              	LC36:
 2525 03b8 00000000 		.long	0
 2526 03bc 00000000 		.align 16
 2527              	LC37:
 2528 03c0 00000000 		.long	0
 2529 03c4 000000C8 		.long	-939524096
 2530 03c8 05400000 		.long	16389
 2531 03cc 00000000 		.text
 2532              	Letext0:
 2533              		.file 3 "d:/programm/mingw/include/parts/time.h"
 2534              		.file 4 "E:/NeuOrga/Programmieren/c_cpp/github_os/input/src/os_base/../os_base/os_sput.h"