GAS LISTING C:\Users\PRESID~1\AppData\Local\Temp\ccCA8Smq.s 			page 1


   1              		.file	"os_start_ext_prg_test.c"
   2              		.text
   3              	Ltext0:
   5              	_fprintf:
   6              	LFB0:
   7              		.file 1 "c:/program/mingw/include/stdio.h"
   1:c:/program/mingw/include\stdio.h **** /*
   2:c:/program/mingw/include\stdio.h ****  * stdio.h
   3:c:/program/mingw/include\stdio.h ****  *
   4:c:/program/mingw/include\stdio.h ****  * Definitions of types and prototypes of functions for operations on
   5:c:/program/mingw/include\stdio.h ****  * standard input and standard output streams.
   6:c:/program/mingw/include\stdio.h ****  *
   7:c:/program/mingw/include\stdio.h ****  * $Id: stdio.h,v 45c964eb9184 2019/07/03 20:49:42 keith $
   8:c:/program/mingw/include\stdio.h ****  *
   9:c:/program/mingw/include\stdio.h ****  * Written by Colin Peters <colin@bird.fu.is.saga-u.ac.jp>
  10:c:/program/mingw/include\stdio.h ****  * Copyright (C) 1997-2005, 2007-2010, 2014-2019, MinGW.org Project.
  11:c:/program/mingw/include\stdio.h ****  *
  12:c:/program/mingw/include\stdio.h ****  *
  13:c:/program/mingw/include\stdio.h ****  * Permission is hereby granted, free of charge, to any person obtaining a
  14:c:/program/mingw/include\stdio.h ****  * copy of this software and associated documentation files (the "Software"),
  15:c:/program/mingw/include\stdio.h ****  * to deal in the Software without restriction, including without limitation
  16:c:/program/mingw/include\stdio.h ****  * the rights to use, copy, modify, merge, publish, distribute, sublicense,
  17:c:/program/mingw/include\stdio.h ****  * and/or sell copies of the Software, and to permit persons to whom the
  18:c:/program/mingw/include\stdio.h ****  * Software is furnished to do so, subject to the following conditions:
  19:c:/program/mingw/include\stdio.h ****  *
  20:c:/program/mingw/include\stdio.h ****  * The above copyright notice, this permission notice, and the following
  21:c:/program/mingw/include\stdio.h ****  * disclaimer shall be included in all copies or substantial portions of
  22:c:/program/mingw/include\stdio.h ****  * the Software.
  23:c:/program/mingw/include\stdio.h ****  *
  24:c:/program/mingw/include\stdio.h ****  * THE SOFTWARE IS PROVIDED "AS IS", WITHOUT WARRANTY OF ANY KIND, EXPRESS
  25:c:/program/mingw/include\stdio.h ****  * OR IMPLIED, INCLUDING BUT NOT LIMITED TO THE WARRANTIES OF MERCHANTABILITY,
  26:c:/program/mingw/include\stdio.h ****  * FITNESS FOR A PARTICULAR PURPOSE AND NONINFRINGEMENT.  IN NO EVENT SHALL
  27:c:/program/mingw/include\stdio.h ****  * THE AUTHORS OR COPYRIGHT HOLDERS BE LIABLE FOR ANY CLAIM, DAMAGES OR OTHER
  28:c:/program/mingw/include\stdio.h ****  * LIABILITY, WHETHER IN AN ACTION OF CONTRACT, TORT OR OTHERWISE, ARISING
  29:c:/program/mingw/include\stdio.h ****  * FROM, OUT OF OR IN CONNECTION WITH THE SOFTWARE OR THE USE OF OR OTHER
  30:c:/program/mingw/include\stdio.h ****  * DEALINGS IN THE SOFTWARE.
  31:c:/program/mingw/include\stdio.h ****  *
  32:c:/program/mingw/include\stdio.h ****  * NOTE: The file manipulation functions provided by Microsoft seem to
  33:c:/program/mingw/include\stdio.h ****  * work with either slash (/) or backslash (\) as the directory separator;
  34:c:/program/mingw/include\stdio.h ****  * (this is consistent with Microsoft's own documentation, on MSDN).
  35:c:/program/mingw/include\stdio.h ****  *
  36:c:/program/mingw/include\stdio.h ****  */
  37:c:/program/mingw/include\stdio.h **** #ifndef _STDIO_H
  38:c:/program/mingw/include\stdio.h **** #pragma GCC system_header
  39:c:/program/mingw/include\stdio.h **** 
  40:c:/program/mingw/include\stdio.h **** /* When including <wchar.h>, some of the definitions and declarations
  41:c:/program/mingw/include\stdio.h ****  * which are nominally provided in <stdio.h> must be duplicated.  Rather
  42:c:/program/mingw/include\stdio.h ****  * than require duplicated maintenance effort, we provide for partial
  43:c:/program/mingw/include\stdio.h ****  * inclusion of <stdio.h> by <wchar.h>; only when not included in
  44:c:/program/mingw/include\stdio.h ****  * this partial fashion...
  45:c:/program/mingw/include\stdio.h ****  */
  46:c:/program/mingw/include\stdio.h **** #ifndef __WCHAR_H_SOURCED__
  47:c:/program/mingw/include\stdio.h ****  /* ...which is exclusive to <wchar.h>, do we assert the multiple
  48:c:/program/mingw/include\stdio.h ****   * inclusion guard for <stdio.h> itself.
  49:c:/program/mingw/include\stdio.h ****   */
  50:c:/program/mingw/include\stdio.h **** #define _STDIO_H
  51:c:/program/mingw/include\stdio.h **** #endif
GAS LISTING C:\Users\PRESID~1\AppData\Local\Temp\ccCA8Smq.s 			page 2


  52:c:/program/mingw/include\stdio.h **** 
  53:c:/program/mingw/include\stdio.h **** /* All the headers include this file.
  54:c:/program/mingw/include\stdio.h ****  */
  55:c:/program/mingw/include\stdio.h **** #include <_mingw.h>
  56:c:/program/mingw/include\stdio.h **** 
  57:c:/program/mingw/include\stdio.h **** #ifndef RC_INVOKED
  58:c:/program/mingw/include\stdio.h **** /* POSIX stipulates that the following set of types, (as identified by
  59:c:/program/mingw/include\stdio.h ****  * __need_TYPENAME macros), shall be defined consistently with <stddef.h>;
  60:c:/program/mingw/include\stdio.h ****  * by defining the appropriate __need_TYPENAME macros, we may selectively
  61:c:/program/mingw/include\stdio.h ****  * obtain the required definitions by inclusion of <stddef.h>, WITHOUT
  62:c:/program/mingw/include\stdio.h ****  * automatic exposure of any of its additional content.
  63:c:/program/mingw/include\stdio.h ****  */
  64:c:/program/mingw/include\stdio.h **** #define __need_NULL
  65:c:/program/mingw/include\stdio.h **** #define __need_size_t
  66:c:/program/mingw/include\stdio.h **** #define __need_wchar_t
  67:c:/program/mingw/include\stdio.h **** #define __need_wint_t
  68:c:/program/mingw/include\stdio.h **** #include <stddef.h>
  69:c:/program/mingw/include\stdio.h **** 
  70:c:/program/mingw/include\stdio.h **** #if _POSIX_C_SOURCE >= 200809L
  71:c:/program/mingw/include\stdio.h ****  /* Similarly, for types defined in <sys/types.h>, (which are explicitly
  72:c:/program/mingw/include\stdio.h ****   * dependent on the POSIX.1-2008 feature test)...
  73:c:/program/mingw/include\stdio.h ****   */
  74:c:/program/mingw/include\stdio.h **** # define __need_off_t
  75:c:/program/mingw/include\stdio.h **** # define __need_ssize_t
  76:c:/program/mingw/include\stdio.h **** #endif
  77:c:/program/mingw/include\stdio.h **** 
  78:c:/program/mingw/include\stdio.h **** /* Although non-standard themselves, we also need either one or other
  79:c:/program/mingw/include\stdio.h ****  * of the following pair of data types, from <sys/types.h>, because our
  80:c:/program/mingw/include\stdio.h ****  * standard fpos_t is opaquely defined in terms of...
  81:c:/program/mingw/include\stdio.h ****  */
  82:c:/program/mingw/include\stdio.h **** #ifdef __MSVCRT__
  83:c:/program/mingw/include\stdio.h ****  /* ...an explicitly 64-bit file offset type, for MSVCRT.DLL users...
  84:c:/program/mingw/include\stdio.h ****   */
  85:c:/program/mingw/include\stdio.h **** # define __need___off64_t
  86:c:/program/mingw/include\stdio.h **** #else
  87:c:/program/mingw/include\stdio.h ****  /* ...or a 32-bit equivalent, for pre-MSVCRT.DLL users.
  88:c:/program/mingw/include\stdio.h ****   */
  89:c:/program/mingw/include\stdio.h **** # define __need___off32_t
  90:c:/program/mingw/include\stdio.h **** #endif
  91:c:/program/mingw/include\stdio.h **** 
  92:c:/program/mingw/include\stdio.h **** /* Note the use of the #include "..." form here, to ensure that we get
  93:c:/program/mingw/include\stdio.h ****  * the correct header file, relative to the location of this <stdio.h>
  94:c:/program/mingw/include\stdio.h ****  */
  95:c:/program/mingw/include\stdio.h **** #include "sys/types.h"
  96:c:/program/mingw/include\stdio.h **** 
  97:c:/program/mingw/include\stdio.h **** #ifndef __VALIST
  98:c:/program/mingw/include\stdio.h ****  /* Also similarly, for the va_list type, defined in "stdarg.h"
  99:c:/program/mingw/include\stdio.h ****   */
 100:c:/program/mingw/include\stdio.h **** # if defined __GNUC__ && __GNUC__ >= 3
 101:c:/program/mingw/include\stdio.h **** #  define __need___va_list
 102:c:/program/mingw/include\stdio.h **** #  include "stdarg.h"
 103:c:/program/mingw/include\stdio.h **** #  define __VALIST __builtin_va_list
 104:c:/program/mingw/include\stdio.h **** # else
 105:c:/program/mingw/include\stdio.h **** #  define __VALIST char *
 106:c:/program/mingw/include\stdio.h **** # endif
 107:c:/program/mingw/include\stdio.h **** #endif
 108:c:/program/mingw/include\stdio.h **** #endif	/* ! RC_INVOKED */
GAS LISTING C:\Users\PRESID~1\AppData\Local\Temp\ccCA8Smq.s 			page 3


 109:c:/program/mingw/include\stdio.h **** 
 110:c:/program/mingw/include\stdio.h **** #ifdef _STDIO_H
 111:c:/program/mingw/include\stdio.h **** /* Flags for the iobuf structure
 112:c:/program/mingw/include\stdio.h ****  */
 113:c:/program/mingw/include\stdio.h **** #define _IOREAD 	1	/* currently reading */
 114:c:/program/mingw/include\stdio.h **** #define _IOWRT		2	/* currently writing */
 115:c:/program/mingw/include\stdio.h **** #define _IORW	   0x0080	/* opened as "r+w" */
 116:c:/program/mingw/include\stdio.h **** 
 117:c:/program/mingw/include\stdio.h **** /* The three standard file pointers provided by the run time library.
 118:c:/program/mingw/include\stdio.h ****  * NOTE: These will go to the bit-bucket silently in GUI applications!
 119:c:/program/mingw/include\stdio.h ****  */
 120:c:/program/mingw/include\stdio.h **** #define STDIN_FILENO	0
 121:c:/program/mingw/include\stdio.h **** #define STDOUT_FILENO	1
 122:c:/program/mingw/include\stdio.h **** #define STDERR_FILENO	2
 123:c:/program/mingw/include\stdio.h **** 
 124:c:/program/mingw/include\stdio.h **** /* Returned by various functions on end of file condition or error.
 125:c:/program/mingw/include\stdio.h ****  */
 126:c:/program/mingw/include\stdio.h **** #define EOF	      (-1)
 127:c:/program/mingw/include\stdio.h **** 
 128:c:/program/mingw/include\stdio.h **** #endif	/* _STDIO_H */
 129:c:/program/mingw/include\stdio.h **** 
 130:c:/program/mingw/include\stdio.h **** /* The maximum length of a file name.  It may be better to use the Windows'
 131:c:/program/mingw/include\stdio.h ****  * GetVolumeInformation() function in preference to this constant, but hey,
 132:c:/program/mingw/include\stdio.h ****  * this works!  Note that <io.h> also defines it, but we don't guard it, so
 133:c:/program/mingw/include\stdio.h ****  * that the compiler has a chance to catch inconsistencies.
 134:c:/program/mingw/include\stdio.h ****  *
 135:c:/program/mingw/include\stdio.h ****  * FIXME: Right now, we define this unconditionally for both full <stdio.h>
 136:c:/program/mingw/include\stdio.h ****  * inclusion, and for partial inclusion on behalf of <wchar.h>, (which needs
 137:c:/program/mingw/include\stdio.h ****  * it for some non-ANSI structure declarations).  The conditions under which
 138:c:/program/mingw/include\stdio.h ****  * <wchar.h> needs this require review, because defining it as a consequence
 139:c:/program/mingw/include\stdio.h ****  * of including <wchar.h> alone may violate strict ANSI conformity.
 140:c:/program/mingw/include\stdio.h ****  */
 141:c:/program/mingw/include\stdio.h **** #define FILENAME_MAX  (260)
 142:c:/program/mingw/include\stdio.h **** 
 143:c:/program/mingw/include\stdio.h **** #ifdef _STDIO_H
 144:c:/program/mingw/include\stdio.h **** /* The maximum number of files that may be open at once. I have set this to
 145:c:/program/mingw/include\stdio.h ****  * a conservative number. The actual value may be higher.
 146:c:/program/mingw/include\stdio.h ****  */
 147:c:/program/mingw/include\stdio.h **** #define FOPEN_MAX      (20)
 148:c:/program/mingw/include\stdio.h **** 
 149:c:/program/mingw/include\stdio.h **** /* After creating this many names, tmpnam and tmpfile return NULL
 150:c:/program/mingw/include\stdio.h ****  */
 151:c:/program/mingw/include\stdio.h **** #define TMP_MAX      32767
 152:c:/program/mingw/include\stdio.h **** 
 153:c:/program/mingw/include\stdio.h **** /* Tmpnam, tmpfile and, sometimes, _tempnam try to create
 154:c:/program/mingw/include\stdio.h ****  * temp files in the root directory of the current drive
 155:c:/program/mingw/include\stdio.h ****  * (not in pwd, as suggested by some older MS doc's).
 156:c:/program/mingw/include\stdio.h ****  * Redefining these macros does not effect the CRT functions.
 157:c:/program/mingw/include\stdio.h ****  */
 158:c:/program/mingw/include\stdio.h **** #define _P_tmpdir   "\\"
 159:c:/program/mingw/include\stdio.h **** #ifndef __STRICT_ANSI__
 160:c:/program/mingw/include\stdio.h **** #define P_tmpdir _P_tmpdir
 161:c:/program/mingw/include\stdio.h **** #endif
 162:c:/program/mingw/include\stdio.h **** #define _wP_tmpdir  L"\\"
 163:c:/program/mingw/include\stdio.h **** 
 164:c:/program/mingw/include\stdio.h **** /* The maximum size of name (including NUL) that will be put in the user
 165:c:/program/mingw/include\stdio.h ****  * supplied buffer caName for tmpnam.
GAS LISTING C:\Users\PRESID~1\AppData\Local\Temp\ccCA8Smq.s 			page 4


 166:c:/program/mingw/include\stdio.h ****  * Inferred from the size of the static buffer returned by tmpnam
 167:c:/program/mingw/include\stdio.h ****  * when passed a NULL argument. May actually be smaller.
 168:c:/program/mingw/include\stdio.h ****  */
 169:c:/program/mingw/include\stdio.h **** #define L_tmpnam (16)
 170:c:/program/mingw/include\stdio.h **** 
 171:c:/program/mingw/include\stdio.h **** #define _IOFBF		0x0000	/* full buffered */
 172:c:/program/mingw/include\stdio.h **** #define _IOLBF		0x0040	/* line buffered */
 173:c:/program/mingw/include\stdio.h **** #define _IONBF		0x0004	/* not buffered */
 174:c:/program/mingw/include\stdio.h **** 
 175:c:/program/mingw/include\stdio.h **** #define _IOMYBUF	0x0008	/* stdio malloc()'d buffer */
 176:c:/program/mingw/include\stdio.h **** #define _IOEOF		0x0010	/* EOF reached on read */
 177:c:/program/mingw/include\stdio.h **** #define _IOERR		0x0020	/* I/O error from system */
 178:c:/program/mingw/include\stdio.h **** #define _IOSTRG 	0x0040	/* Strange or no file descriptor */
 179:c:/program/mingw/include\stdio.h **** #ifdef _POSIX_SOURCE
 180:c:/program/mingw/include\stdio.h **** # define _IOAPPEND	0x0200
 181:c:/program/mingw/include\stdio.h **** #endif
 182:c:/program/mingw/include\stdio.h **** 
 183:c:/program/mingw/include\stdio.h **** /* The buffer size as used by setbuf such that it is equivalent to
 184:c:/program/mingw/include\stdio.h ****  * (void) setvbuf(fileSetBuffer, caBuffer, _IOFBF, BUFSIZ).
 185:c:/program/mingw/include\stdio.h ****  */
 186:c:/program/mingw/include\stdio.h **** #define BUFSIZ		   512
 187:c:/program/mingw/include\stdio.h **** 
 188:c:/program/mingw/include\stdio.h **** /* Constants for nOrigin indicating the position relative to which fseek
 189:c:/program/mingw/include\stdio.h ****  * sets the file position.  Defined unconditionally since ISO and POSIX
 190:c:/program/mingw/include\stdio.h ****  * say they are defined here.
 191:c:/program/mingw/include\stdio.h ****  */
 192:c:/program/mingw/include\stdio.h **** #define SEEK_SET	     0
 193:c:/program/mingw/include\stdio.h **** #define SEEK_CUR	     1
 194:c:/program/mingw/include\stdio.h **** #define SEEK_END	     2
 195:c:/program/mingw/include\stdio.h **** 
 196:c:/program/mingw/include\stdio.h **** #endif	/* _STDIO_H */
 197:c:/program/mingw/include\stdio.h **** 
 198:c:/program/mingw/include\stdio.h **** #ifndef RC_INVOKED
 199:c:/program/mingw/include\stdio.h **** #if ! (defined _STDIO_H && defined _WCHAR_H)
 200:c:/program/mingw/include\stdio.h **** /* The structure underlying the FILE type; this should be defined when
 201:c:/program/mingw/include\stdio.h ****  * including either <stdio.h> or <wchar.h>.  If both header include guards
 202:c:/program/mingw/include\stdio.h ****  * are now in place, then we must currently be including <stdio.h> in its
 203:c:/program/mingw/include\stdio.h ****  * own right, having already processed this block during a prior partial
 204:c:/program/mingw/include\stdio.h ****  * inclusion by <wchar.h>; there is no need to process it a second time.
 205:c:/program/mingw/include\stdio.h ****  *
 206:c:/program/mingw/include\stdio.h ****  * Some believe that nobody in their right mind should make use of the
 207:c:/program/mingw/include\stdio.h ****  * internals of this structure. Provided by Pedro A. Aranda Gutiirrez
 208:c:/program/mingw/include\stdio.h ****  * <paag@tid.es>.
 209:c:/program/mingw/include\stdio.h ****  */
 210:c:/program/mingw/include\stdio.h **** typedef struct _iobuf
 211:c:/program/mingw/include\stdio.h **** {
 212:c:/program/mingw/include\stdio.h ****   char	*_ptr;
 213:c:/program/mingw/include\stdio.h ****   int	 _cnt;
 214:c:/program/mingw/include\stdio.h ****   char	*_base;
 215:c:/program/mingw/include\stdio.h ****   int	 _flag;
 216:c:/program/mingw/include\stdio.h ****   int	 _file;
 217:c:/program/mingw/include\stdio.h ****   int	 _charbuf;
 218:c:/program/mingw/include\stdio.h ****   int	 _bufsiz;
 219:c:/program/mingw/include\stdio.h ****   char	*_tmpfname;
 220:c:/program/mingw/include\stdio.h **** } FILE;
 221:c:/program/mingw/include\stdio.h **** 
 222:c:/program/mingw/include\stdio.h **** #endif  /* ! (_STDIO_H && _WCHAR_H) */
GAS LISTING C:\Users\PRESID~1\AppData\Local\Temp\ccCA8Smq.s 			page 5


 223:c:/program/mingw/include\stdio.h **** #ifdef _STDIO_H
 224:c:/program/mingw/include\stdio.h **** /* Content to be exposed only when including <stdio.h> in its own right;
 225:c:/program/mingw/include\stdio.h ****  * these will not be exposed when __WCHAR_H_SOURCE__ is defined, as will
 226:c:/program/mingw/include\stdio.h ****  * be the case when <stdio.h> is included indirectly, by <wchar.h>
 227:c:/program/mingw/include\stdio.h ****  *
 228:c:/program/mingw/include\stdio.h ****  *
 229:c:/program/mingw/include\stdio.h ****  * The standard file handles
 230:c:/program/mingw/include\stdio.h ****  */
 231:c:/program/mingw/include\stdio.h **** #ifndef __DECLSPEC_SUPPORTED
 232:c:/program/mingw/include\stdio.h **** 
 233:c:/program/mingw/include\stdio.h **** extern FILE (*_imp___iob)[];	/* A pointer to an array of FILE */
 234:c:/program/mingw/include\stdio.h **** 
 235:c:/program/mingw/include\stdio.h **** #define _iob (*_imp___iob)	/* An array of FILE */
 236:c:/program/mingw/include\stdio.h **** 
 237:c:/program/mingw/include\stdio.h **** #else /* __DECLSPEC_SUPPORTED */
 238:c:/program/mingw/include\stdio.h **** 
 239:c:/program/mingw/include\stdio.h **** __MINGW_IMPORT FILE _iob[];	/* An array of FILE imported from DLL. */
 240:c:/program/mingw/include\stdio.h **** 
 241:c:/program/mingw/include\stdio.h **** #endif /* __DECLSPEC_SUPPORTED */
 242:c:/program/mingw/include\stdio.h **** 
 243:c:/program/mingw/include\stdio.h **** #define stdin	(&_iob[STDIN_FILENO])
 244:c:/program/mingw/include\stdio.h **** #define stdout	(&_iob[STDOUT_FILENO])
 245:c:/program/mingw/include\stdio.h **** #define stderr	(&_iob[STDERR_FILENO])
 246:c:/program/mingw/include\stdio.h **** 
 247:c:/program/mingw/include\stdio.h **** /* Need to close the current _STDIO_H specific block here...
 248:c:/program/mingw/include\stdio.h ****  */
 249:c:/program/mingw/include\stdio.h **** #endif
 250:c:/program/mingw/include\stdio.h **** /* ...because, we need this regardless of the inclusion mode...
 251:c:/program/mingw/include\stdio.h ****  */
 252:c:/program/mingw/include\stdio.h **** _BEGIN_C_DECLS
 253:c:/program/mingw/include\stdio.h **** 
 254:c:/program/mingw/include\stdio.h **** #ifdef _STDIO_H
 255:c:/program/mingw/include\stdio.h **** /* ...then revert to _STDIO_H specific mode, to declare...
 256:c:/program/mingw/include\stdio.h ****  *
 257:c:/program/mingw/include\stdio.h ****  *
 258:c:/program/mingw/include\stdio.h ****  * File Operations
 259:c:/program/mingw/include\stdio.h ****  */
 260:c:/program/mingw/include\stdio.h **** _CRTIMP __cdecl __MINGW_NOTHROW  FILE * fopen (const char *, const char *);
 261:c:/program/mingw/include\stdio.h **** _CRTIMP __cdecl __MINGW_NOTHROW  FILE * freopen (const char *, const char *, FILE *);
 262:c:/program/mingw/include\stdio.h **** _CRTIMP __cdecl __MINGW_NOTHROW  int    fflush (FILE *);
 263:c:/program/mingw/include\stdio.h **** _CRTIMP __cdecl __MINGW_NOTHROW  int    fclose (FILE *);
 264:c:/program/mingw/include\stdio.h **** 
 265:c:/program/mingw/include\stdio.h **** /* Note: Microsoft also declares remove & rename (but not their wide char
 266:c:/program/mingw/include\stdio.h ****  * variants) in <io.h>; since duplicate prototypes are acceptable, provided
 267:c:/program/mingw/include\stdio.h ****  * they are consistent, we simply declare them here anyway, while allowing
 268:c:/program/mingw/include\stdio.h ****  * the compiler to check consistency as appropriate.
 269:c:/program/mingw/include\stdio.h ****  */
 270:c:/program/mingw/include\stdio.h **** _CRTIMP __cdecl __MINGW_NOTHROW  int    remove (const char *);
 271:c:/program/mingw/include\stdio.h **** _CRTIMP __cdecl __MINGW_NOTHROW  int    rename (const char *, const char *);
 272:c:/program/mingw/include\stdio.h **** _CRTIMP __cdecl __MINGW_NOTHROW  FILE * tmpfile (void);
 273:c:/program/mingw/include\stdio.h **** _CRTIMP __cdecl __MINGW_NOTHROW  char * tmpnam (char *);
 274:c:/program/mingw/include\stdio.h **** 
 275:c:/program/mingw/include\stdio.h **** #ifndef __STRICT_ANSI__
 276:c:/program/mingw/include\stdio.h **** _CRTIMP __cdecl __MINGW_NOTHROW  char *_tempnam (const char *, const char *);
 277:c:/program/mingw/include\stdio.h **** _CRTIMP __cdecl __MINGW_NOTHROW  int   _rmtmp (void);
 278:c:/program/mingw/include\stdio.h **** _CRTIMP __cdecl __MINGW_NOTHROW  int   _unlink (const char *);
 279:c:/program/mingw/include\stdio.h **** 
GAS LISTING C:\Users\PRESID~1\AppData\Local\Temp\ccCA8Smq.s 			page 6


 280:c:/program/mingw/include\stdio.h **** #if __MSVCRT_VERSION__>=__MSVCR80_DLL
 281:c:/program/mingw/include\stdio.h **** /* The following pair of non-ANSI functions require a non-free version of
 282:c:/program/mingw/include\stdio.h ****  * the Microsoft runtime; neither is provided by any MSVCRT.DLL variant.
 283:c:/program/mingw/include\stdio.h ****  */
 284:c:/program/mingw/include\stdio.h **** _CRTIMP __cdecl __MINGW_NOTHROW  void  _lock_file(FILE *);
 285:c:/program/mingw/include\stdio.h **** _CRTIMP __cdecl __MINGW_NOTHROW  void  _unlock_file(FILE *);
 286:c:/program/mingw/include\stdio.h **** #endif
 287:c:/program/mingw/include\stdio.h **** 
 288:c:/program/mingw/include\stdio.h **** #ifndef NO_OLDNAMES
 289:c:/program/mingw/include\stdio.h **** _CRTIMP __cdecl __MINGW_NOTHROW  char * tempnam (const char *, const char *);
 290:c:/program/mingw/include\stdio.h **** _CRTIMP __cdecl __MINGW_NOTHROW  int    rmtmp (void);
 291:c:/program/mingw/include\stdio.h **** _CRTIMP __cdecl __MINGW_NOTHROW  int    unlink (const char *);
 292:c:/program/mingw/include\stdio.h **** #endif
 293:c:/program/mingw/include\stdio.h **** #endif /* __STRICT_ANSI__ */
 294:c:/program/mingw/include\stdio.h **** 
 295:c:/program/mingw/include\stdio.h **** _CRTIMP __cdecl __MINGW_NOTHROW  int    setvbuf (FILE *, char *, int, size_t);
 296:c:/program/mingw/include\stdio.h **** _CRTIMP __cdecl __MINGW_NOTHROW  void   setbuf (FILE *, char *);
 297:c:/program/mingw/include\stdio.h **** 
 298:c:/program/mingw/include\stdio.h **** /* Formatted Output
 299:c:/program/mingw/include\stdio.h ****  *
 300:c:/program/mingw/include\stdio.h ****  * MSVCRT implementations are not ANSI C99 conformant...
 301:c:/program/mingw/include\stdio.h ****  * we offer conforming alternatives from libmingwex.a
 302:c:/program/mingw/include\stdio.h ****  */
 303:c:/program/mingw/include\stdio.h **** #undef  __mingw_stdio_redirect__
 304:c:/program/mingw/include\stdio.h **** #define __mingw_stdio_redirect__(F) __cdecl __MINGW_NOTHROW __Wformat(F)
 305:c:/program/mingw/include\stdio.h **** #define __Wformat_mingw_printf(F,A) __attribute__((__format__(__mingw_printf__,F,A)))
 306:c:/program/mingw/include\stdio.h **** 
 307:c:/program/mingw/include\stdio.h **** #if __GNUC__ >= 6
 308:c:/program/mingw/include\stdio.h **** /* From GCC-6 onwards, we will provide customized -Wformat
 309:c:/program/mingw/include\stdio.h ****  * handling, via our own mingw_printf format category...
 310:c:/program/mingw/include\stdio.h ****  */
 311:c:/program/mingw/include\stdio.h **** #define __Wformat(F)		__Wformat_##F __mingw_##F
 312:c:/program/mingw/include\stdio.h **** 
 313:c:/program/mingw/include\stdio.h **** #else	/* __GNUC__ < 6 */
 314:c:/program/mingw/include\stdio.h **** /* ...whereas, for earlier GCC, we preserve the status quo,
 315:c:/program/mingw/include\stdio.h ****  * offering no -Wformat checking for those functions which
 316:c:/program/mingw/include\stdio.h ****  * replace the MSVCRT.DLL versions...
 317:c:/program/mingw/include\stdio.h ****  */
 318:c:/program/mingw/include\stdio.h **** #define __Wformat(F)		__mingw_##F
 319:c:/program/mingw/include\stdio.h **** 
 320:c:/program/mingw/include\stdio.h **** /* ...while degrading to gnu_printf checking for snprintf()
 321:c:/program/mingw/include\stdio.h ****  * and vsnprintf(), (which are ALWAYS MinGW.org variants).
 322:c:/program/mingw/include\stdio.h ****  */
 323:c:/program/mingw/include\stdio.h **** #define __mingw_printf__	__gnu_printf__
 324:c:/program/mingw/include\stdio.h **** #endif
 325:c:/program/mingw/include\stdio.h **** 
 326:c:/program/mingw/include\stdio.h **** /* The following convenience macros specify the appropriate
 327:c:/program/mingw/include\stdio.h ****  * -Wformat checking for MSVCRT.DLL replacement functions...
 328:c:/program/mingw/include\stdio.h ****  */
 329:c:/program/mingw/include\stdio.h **** #define __Wformat_printf	__Wformat_mingw_printf(1,2)
 330:c:/program/mingw/include\stdio.h **** #define __Wformat_fprintf	__Wformat_mingw_printf(2,3)
 331:c:/program/mingw/include\stdio.h **** #define __Wformat_sprintf	__Wformat_mingw_printf(2,3)
 332:c:/program/mingw/include\stdio.h **** #define __Wformat_vprintf	__Wformat_mingw_printf(1,0)
 333:c:/program/mingw/include\stdio.h **** #define __Wformat_vfprintf	__Wformat_mingw_printf(2,0)
 334:c:/program/mingw/include\stdio.h **** #define __Wformat_vsprintf	__Wformat_mingw_printf(2,0)
 335:c:/program/mingw/include\stdio.h **** 
 336:c:/program/mingw/include\stdio.h **** /* ...while this pair are specific to the two MinGW.org
GAS LISTING C:\Users\PRESID~1\AppData\Local\Temp\ccCA8Smq.s 			page 7


 337:c:/program/mingw/include\stdio.h ****  * only functions.
 338:c:/program/mingw/include\stdio.h ****  */
 339:c:/program/mingw/include\stdio.h **** #define __Wformat_snprintf	__Wformat_mingw_printf(3,4)
 340:c:/program/mingw/include\stdio.h **** #define __Wformat_vsnprintf	__Wformat_mingw_printf(3,0)
 341:c:/program/mingw/include\stdio.h **** 
 342:c:/program/mingw/include\stdio.h **** extern int __mingw_stdio_redirect__(fprintf)(FILE*, const char*, ...);
 343:c:/program/mingw/include\stdio.h **** extern int __mingw_stdio_redirect__(printf)(const char*, ...);
 344:c:/program/mingw/include\stdio.h **** extern int __mingw_stdio_redirect__(sprintf)(char*, const char*, ...);
 345:c:/program/mingw/include\stdio.h **** extern int __mingw_stdio_redirect__(snprintf)(char*, size_t, const char*, ...);
 346:c:/program/mingw/include\stdio.h **** extern int __mingw_stdio_redirect__(vfprintf)(FILE*, const char*, __VALIST);
 347:c:/program/mingw/include\stdio.h **** extern int __mingw_stdio_redirect__(vprintf)(const char*, __VALIST);
 348:c:/program/mingw/include\stdio.h **** extern int __mingw_stdio_redirect__(vsprintf)(char*, const char*, __VALIST);
 349:c:/program/mingw/include\stdio.h **** extern int __mingw_stdio_redirect__(vsnprintf)(char*, size_t, const char*, __VALIST);
 350:c:/program/mingw/include\stdio.h **** 
 351:c:/program/mingw/include\stdio.h **** /* When using these C99 conforming alternatives, we may wish to support
 352:c:/program/mingw/include\stdio.h ****  * some of Microsoft's quirky formatting options, even when they violate
 353:c:/program/mingw/include\stdio.h ****  * strict C99 conformance.
 354:c:/program/mingw/include\stdio.h ****  */
 355:c:/program/mingw/include\stdio.h **** #define _MSVC_PRINTF_QUIRKS		0x0100U
 356:c:/program/mingw/include\stdio.h **** #define _QUERY_MSVC_PRINTF_QUIRKS	~0U, 0U
 357:c:/program/mingw/include\stdio.h **** #define _DISABLE_MSVC_PRINTF_QUIRKS	~_MSVC_PRINTF_QUIRKS, 0U
 358:c:/program/mingw/include\stdio.h **** #define _ENABLE_MSVC_PRINTF_QUIRKS	~0U, _MSVC_PRINTF_QUIRKS
 359:c:/program/mingw/include\stdio.h **** 
 360:c:/program/mingw/include\stdio.h **** /* Those quirks which conflict with ANSI C99 specified behaviour are
 361:c:/program/mingw/include\stdio.h ****  * disabled by default; use the following function, like this:
 362:c:/program/mingw/include\stdio.h ****  *
 363:c:/program/mingw/include\stdio.h ****  *   _mingw_output_format_control( _ENABLE_MSVC_PRINTF_QUIRKS );
 364:c:/program/mingw/include\stdio.h ****  *
 365:c:/program/mingw/include\stdio.h ****  * to enable them, like this:
 366:c:/program/mingw/include\stdio.h ****  *
 367:c:/program/mingw/include\stdio.h ****  *   state = _mingw_output_format_control( _QUERY_MSVC_PRINTF_QUIRKS )
 368:c:/program/mingw/include\stdio.h ****  *		& _MSVC_PRINTF_QUIRKS;
 369:c:/program/mingw/include\stdio.h ****  *
 370:c:/program/mingw/include\stdio.h ****  * to ascertain the currently active enabled state, or like this:
 371:c:/program/mingw/include\stdio.h ****  *
 372:c:/program/mingw/include\stdio.h ****  *   _mingw_output_format_control( _DISABLE_MSVC_PRINTF_QUIRKS );
 373:c:/program/mingw/include\stdio.h ****  *
 374:c:/program/mingw/include\stdio.h ****  * to disable them again.
 375:c:/program/mingw/include\stdio.h ****  */
 376:c:/program/mingw/include\stdio.h **** extern unsigned int _mingw_output_format_control( unsigned int, unsigned int );
 377:c:/program/mingw/include\stdio.h **** 
 378:c:/program/mingw/include\stdio.h **** #if __USE_MINGW_ANSI_STDIO || defined _ISOC99_SOURCE
 379:c:/program/mingw/include\stdio.h **** /* User has expressed a preference for C99 conformance...
 380:c:/program/mingw/include\stdio.h ****  */
 381:c:/program/mingw/include\stdio.h **** # undef __mingw_stdio_redirect__
 382:c:/program/mingw/include\stdio.h **** # ifdef __cplusplus
 383:c:/program/mingw/include\stdio.h **** /* For C++ we use inline implementations, to avoid interference
 384:c:/program/mingw/include\stdio.h ****  * with namespace qualification, which may result from using #defines.
 385:c:/program/mingw/include\stdio.h ****  */
 386:c:/program/mingw/include\stdio.h **** #  define __mingw_stdio_redirect__  inline __cdecl __MINGW_NOTHROW
 387:c:/program/mingw/include\stdio.h **** 
 388:c:/program/mingw/include\stdio.h **** # elif defined __GNUC__
 389:c:/program/mingw/include\stdio.h **** /* FIXME: Is there any GCC version prerequisite here?
 390:c:/program/mingw/include\stdio.h ****  *
 391:c:/program/mingw/include\stdio.h ****  * We also prefer inline implementations for C, when we can be confident
 392:c:/program/mingw/include\stdio.h ****  * that the GNU specific __inline__ mechanism is supported.
 393:c:/program/mingw/include\stdio.h ****  */
GAS LISTING C:\Users\PRESID~1\AppData\Local\Temp\ccCA8Smq.s 			page 8


 394:c:/program/mingw/include\stdio.h **** #  define __mingw_stdio_redirect__  static __inline__ __cdecl __MINGW_NOTHROW
 395:c:/program/mingw/include\stdio.h **** 
 396:c:/program/mingw/include\stdio.h **** # else	/* Neither C++ nor __GNUC__ */
 397:c:/program/mingw/include\stdio.h **** /* Can't use inlines; fall back on module local static stubs.
 398:c:/program/mingw/include\stdio.h ****  */
 399:c:/program/mingw/include\stdio.h **** #  define __mingw_stdio_redirect__  static __cdecl __MINGW_NOTHROW
 400:c:/program/mingw/include\stdio.h **** 
 401:c:/program/mingw/include\stdio.h **** # endif	/* Neither C++ nor __GNUC__ */
 402:c:/program/mingw/include\stdio.h **** #endif	/* __USE_MINGW_ANSI_STDIO || defined _ISOC99_SOURCE */
 403:c:/program/mingw/include\stdio.h **** 
 404:c:/program/mingw/include\stdio.h **** #if __USE_MINGW_ANSI_STDIO
 405:c:/program/mingw/include\stdio.h **** /* The MinGW ISO-C conforming implementations of the printf() family
 406:c:/program/mingw/include\stdio.h ****  * of functions are to be used, in place of non-conforming Microsoft
 407:c:/program/mingw/include\stdio.h ****  * implementations; force call redirection, via the following set of
 408:c:/program/mingw/include\stdio.h ****  * in-line functions.
 409:c:/program/mingw/include\stdio.h ****  */
 410:c:/program/mingw/include\stdio.h **** __mingw_stdio_redirect__
 411:c:/program/mingw/include\stdio.h **** int fprintf (FILE *__stream, const char *__format, ...)
 412:c:/program/mingw/include\stdio.h **** {
   8              		.loc 1 412 1
   9              		.cfi_startproc
  10 0000 55       		pushl	%ebp
  11              		.cfi_def_cfa_offset 8
  12              		.cfi_offset 5, -8
  13 0001 89E5     		movl	%esp, %ebp
  14              		.cfi_def_cfa_register 5
  15 0003 53       		pushl	%ebx
  16 0004 83EC24   		subl	$36, %esp
  17              		.cfi_offset 3, -12
 413:c:/program/mingw/include\stdio.h ****   register int __retval;
 414:c:/program/mingw/include\stdio.h ****   __builtin_va_list __local_argv; __builtin_va_start( __local_argv, __format );
  18              		.loc 1 414 35
  19 0007 8D4510   		leal	16(%ebp), %eax
  20 000a 8945F4   		movl	%eax, -12(%ebp)
 415:c:/program/mingw/include\stdio.h ****   __retval = __mingw_vfprintf( __stream, __format, __local_argv );
  21              		.loc 1 415 14
  22 000d 8B45F4   		movl	-12(%ebp), %eax
  23 0010 89442408 		movl	%eax, 8(%esp)
  24 0014 8B450C   		movl	12(%ebp), %eax
  25 0017 89442404 		movl	%eax, 4(%esp)
  26 001b 8B4508   		movl	8(%ebp), %eax
  27 001e 890424   		movl	%eax, (%esp)
  28 0021 E8000000 		call	___mingw_vfprintf
  28      00
  29 0026 89C3     		movl	%eax, %ebx
 416:c:/program/mingw/include\stdio.h ****   __builtin_va_end( __local_argv );
 417:c:/program/mingw/include\stdio.h ****   return __retval;
  30              		.loc 1 417 10
  31 0028 89D8     		movl	%ebx, %eax
 418:c:/program/mingw/include\stdio.h **** }
  32              		.loc 1 418 1
  33 002a 83C424   		addl	$36, %esp
  34 002d 5B       		popl	%ebx
  35              		.cfi_restore 3
  36 002e 5D       		popl	%ebp
  37              		.cfi_restore 5
  38              		.cfi_def_cfa 4, 4
GAS LISTING C:\Users\PRESID~1\AppData\Local\Temp\ccCA8Smq.s 			page 9


  39 002f C3       		ret
  40              		.cfi_endproc
  41              	LFE0:
  42              	.lcomm ___sput,76,32
  44              	_count_vowels:
  45              	LFB14:
  46              		.file 2 "C:/Users/president/Desktop/sbx/input/src/os_base/os_start_ext_prg_test.c"
   1:C:/Users/president/Desktop/sbx/input/src/os_base\os_start_ext_prg_test.c **** #include <stdio.h>
   2:C:/Users/president/Desktop/sbx/input/src/os_base\os_start_ext_prg_test.c **** 
   3:C:/Users/president/Desktop/sbx/input/src/os_base\os_start_ext_prg_test.c **** #include "..\os_base\os_sput.h"
   4:C:/Users/president/Desktop/sbx/input/src/os_base\os_start_ext_prg_test.c **** 
   5:C:/Users/president/Desktop/sbx/input/src/os_base\os_start_ext_prg_test.c **** 
   6:C:/Users/president/Desktop/sbx/input/src/os_base\os_start_ext_prg_test.c **** /*
   7:C:/Users/president/Desktop/sbx/input/src/os_base\os_start_ext_prg_test.c ****  * count_vowels() counts the vowels present in a given string.
   8:C:/Users/president/Desktop/sbx/input/src/os_base\os_start_ext_prg_test.c ****  *
   9:C:/Users/president/Desktop/sbx/input/src/os_base\os_start_ext_prg_test.c ****  * While the function basically works as expected, it recognizes
  10:C:/Users/president/Desktop/sbx/input/src/os_base\os_start_ext_prg_test.c ****  * [aeiou] as vowels only and erroneously does not take uppercase
  11:C:/Users/president/Desktop/sbx/input/src/os_base\os_start_ext_prg_test.c ****  * vowels into account.
  12:C:/Users/president/Desktop/sbx/input/src/os_base\os_start_ext_prg_test.c ****  */
  13:C:/Users/president/Desktop/sbx/input/src/os_base\os_start_ext_prg_test.c **** static int count_vowels(const char *s)
  14:C:/Users/president/Desktop/sbx/input/src/os_base\os_start_ext_prg_test.c **** {
  47              		.loc 2 14 1
  48              		.cfi_startproc
  49 0030 55       		pushl	%ebp
  50              		.cfi_def_cfa_offset 8
  51              		.cfi_offset 5, -8
  52 0031 89E5     		movl	%esp, %ebp
  53              		.cfi_def_cfa_register 5
  54 0033 83EC10   		subl	$16, %esp
  15:C:/Users/president/Desktop/sbx/input/src/os_base\os_start_ext_prg_test.c ****    const char *cp    = s;
  55              		.loc 2 15 16
  56 0036 8B4508   		movl	8(%ebp), %eax
  57 0039 8945FC   		movl	%eax, -4(%ebp)
  16:C:/Users/president/Desktop/sbx/input/src/os_base\os_start_ext_prg_test.c ****    int         count = 0;
  58              		.loc 2 16 16
  59 003c C745F800 		movl	$0, -8(%ebp)
  59      000000
  17:C:/Users/president/Desktop/sbx/input/src/os_base\os_start_ext_prg_test.c **** 
  18:C:/Users/president/Desktop/sbx/input/src/os_base\os_start_ext_prg_test.c ****    while (*cp)
  60              		.loc 2 18 10
  61 0043 EB33     		jmp	L4
  62              	L7:
  19:C:/Users/president/Desktop/sbx/input/src/os_base\os_start_ext_prg_test.c ****    {
  20:C:/Users/president/Desktop/sbx/input/src/os_base\os_start_ext_prg_test.c ****       if (*cp == 'a' || *cp == 'e' || *cp == 'i' ||
  63              		.loc 2 20 11
  64 0045 8B45FC   		movl	-4(%ebp), %eax
  65 0048 8A00     		movb	(%eax), %al
  66              		.loc 2 20 10
  67 004a 3C61     		cmpb	$97, %al
  68 004c 7424     		je	L5
  69              		.loc 2 20 25 discriminator 1
  70 004e 8B45FC   		movl	-4(%ebp), %eax
  71 0051 8A00     		movb	(%eax), %al
  72              		.loc 2 20 22 discriminator 1
  73 0053 3C65     		cmpb	$101, %al
  74 0055 741B     		je	L5
  75              		.loc 2 20 39 discriminator 2
GAS LISTING C:\Users\PRESID~1\AppData\Local\Temp\ccCA8Smq.s 			page 10


  76 0057 8B45FC   		movl	-4(%ebp), %eax
  77 005a 8A00     		movb	(%eax), %al
  78              		.loc 2 20 36 discriminator 2
  79 005c 3C69     		cmpb	$105, %al
  80 005e 7412     		je	L5
  21:C:/Users/president/Desktop/sbx/input/src/os_base\os_start_ext_prg_test.c ****             *cp == 'o' || *cp == 'u')
  81              		.loc 2 21 13 discriminator 3
  82 0060 8B45FC   		movl	-4(%ebp), %eax
  83 0063 8A00     		movb	(%eax), %al
  20:C:/Users/president/Desktop/sbx/input/src/os_base\os_start_ext_prg_test.c ****             *cp == 'o' || *cp == 'u')
  84              		.loc 2 20 50 discriminator 3
  85 0065 3C6F     		cmpb	$111, %al
  86 0067 7409     		je	L5
  87              		.loc 2 21 27
  88 0069 8B45FC   		movl	-4(%ebp), %eax
  89 006c 8A00     		movb	(%eax), %al
  90              		.loc 2 21 24
  91 006e 3C75     		cmpb	$117, %al
  92 0070 7503     		jne	L6
  93              	L5:
  22:C:/Users/president/Desktop/sbx/input/src/os_base\os_start_ext_prg_test.c ****       {
  23:C:/Users/president/Desktop/sbx/input/src/os_base\os_start_ext_prg_test.c ****          count++;
  94              		.loc 2 23 15
  95 0072 FF45F8   		incl	-8(%ebp)
  96              	L6:
  24:C:/Users/president/Desktop/sbx/input/src/os_base\os_start_ext_prg_test.c ****       }
  25:C:/Users/president/Desktop/sbx/input/src/os_base\os_start_ext_prg_test.c **** 
  26:C:/Users/president/Desktop/sbx/input/src/os_base\os_start_ext_prg_test.c ****       cp++;
  97              		.loc 2 26 9
  98 0075 FF45FC   		incl	-4(%ebp)
  99              	L4:
  18:C:/Users/president/Desktop/sbx/input/src/os_base\os_start_ext_prg_test.c ****    {
 100              		.loc 2 18 11
 101 0078 8B45FC   		movl	-4(%ebp), %eax
 102 007b 8A00     		movb	(%eax), %al
  18:C:/Users/president/Desktop/sbx/input/src/os_base\os_start_ext_prg_test.c ****    {
 103              		.loc 2 18 10
 104 007d 84C0     		testb	%al, %al
 105 007f 75C4     		jne	L7
  27:C:/Users/president/Desktop/sbx/input/src/os_base\os_start_ext_prg_test.c ****    }
  28:C:/Users/president/Desktop/sbx/input/src/os_base\os_start_ext_prg_test.c **** 
  29:C:/Users/president/Desktop/sbx/input/src/os_base\os_start_ext_prg_test.c ****    return count;
 106              		.loc 2 29 11
 107 0081 8B45F8   		movl	-8(%ebp), %eax
  30:C:/Users/president/Desktop/sbx/input/src/os_base\os_start_ext_prg_test.c **** }
 108              		.loc 2 30 1
 109 0084 C9       		leave
 110              		.cfi_restore 5
 111              		.cfi_def_cfa 4, 4
 112 0085 C3       		ret
 113              		.cfi_endproc
 114              	LFE14:
 115              		.section .rdata,"dr"
 116              	LC0:
 117 0000 73707574 		.ascii "sput_start_testing() omitted\12\0"
 117      5F737461 
 117      72745F74 
GAS LISTING C:\Users\PRESID~1\AppData\Local\Temp\ccCA8Smq.s 			page 11


 117      65737469 
 117      6E672829 
 118              	LC1:
 119 001e 73707574 		.ascii "sput_enter_suite() omitted\12\0"
 119      5F656E74 
 119      65725F73 
 119      75697465 
 119      2829206F 
 120              	LC2:
 121 003a 73707574 		.ascii "sput_run_test() omitted\12\0"
 121      5F72756E 
 121      5F746573 
 121      74282920 
 121      6F6D6974 
 122              	LC3:
 123 0053 626F6F6B 		.ascii "book == 2v\0"
 123      203D3D20 
 123      327600
 124              	LC4:
 125 005e 636F756E 		.ascii "count_vowels(\"book\") == 2\0"
 125      745F766F 
 125      77656C73 
 125      2822626F 
 125      6F6B2229 
 126              	LC5:
 127 0078 6661696C 		.ascii "fail-unless\0"
 127      2D756E6C 
 127      65737300 
 128              	LC6:
 129 0084 626F6F6B 		.ascii "book\0"
 129      00
 130 0089 000000   		.align 4
 131              	LC7:
 132 008c 5B256C75 		.ascii "[%lu:%lu]  %s:#%lu  \"%s\"  FAIL\12!    Type:      %s\12!    Condition: %s\12!    Line:   
 132      3A256C75 
 132      5D202025 
 132      733A2325 
 132      6C752020 
 133 00e6 0000     		.align 4
 134              	LC8:
 135 00e8 5B256C75 		.ascii "[%lu:%lu]  %s:#%lu  \"%s\"  pass\12\0"
 135      3A256C75 
 135      5D202025 
 135      733A2325 
 135      6C752020 
 136              	LC9:
 137 0108 68616E64 		.ascii "hand == 1v\0"
 137      203D3D20 
 137      317600
 138              	LC10:
 139 0113 636F756E 		.ascii "count_vowels(\"hand\") == 1\0"
 139      745F766F 
 139      77656C73 
 139      28226861 
 139      6E642229 
 140              	LC11:
 141 012d 68616E64 		.ascii "hand\0"
GAS LISTING C:\Users\PRESID~1\AppData\Local\Temp\ccCA8Smq.s 			page 12


 141      00
 142              	LC12:
 143 0132 74657374 		.ascii "test == 1v\0"
 143      203D3D20 
 143      317600
 144              	LC13:
 145 013d 636F756E 		.ascii "count_vowels(\"test\") == 1\0"
 145      745F766F 
 145      77656C73 
 145      28227465 
 145      73742229 
 146              	LC14:
 147 0157 74657374 		.ascii "test\0"
 147      00
 148              	LC15:
 149 015c 50657465 		.ascii "Peter == 2v\0"
 149      72203D3D 
 149      20327600 
 150              	LC16:
 151 0168 636F756E 		.ascii "count_vowels(\"Peter\") == 2\0"
 151      745F766F 
 151      77656C73 
 151      28225065 
 151      74657222 
 152              	LC17:
 153 0183 50657465 		.ascii "Peter\0"
 153      7200
 154              	LC18:
 155 0189 41707520 		.ascii "Apu == 2v\0"
 155      3D3D2032 
 155      7600
 156              	LC19:
 157 0193 636F756E 		.ascii "count_vowels(\"Apu\") == 2\0"
 157      745F766F 
 157      77656C73 
 157      28224170 
 157      75222920 
 158              	LC20:
 159 01ac 41707500 		.ascii "Apu\0"
 160              		.text
 162              	_test_vowels_present:
 163              	LFB15:
  31:C:/Users/president/Desktop/sbx/input/src/os_base\os_start_ext_prg_test.c **** 
  32:C:/Users/president/Desktop/sbx/input/src/os_base\os_start_ext_prg_test.c **** 
  33:C:/Users/president/Desktop/sbx/input/src/os_base\os_start_ext_prg_test.c **** static void test_vowels_present()
  34:C:/Users/president/Desktop/sbx/input/src/os_base\os_start_ext_prg_test.c **** {
 164              		.loc 2 34 1
 165              		.cfi_startproc
 166 0086 55       		pushl	%ebp
 167              		.cfi_def_cfa_offset 8
 168              		.cfi_offset 5, -8
 169 0087 89E5     		movl	%esp, %ebp
 170              		.cfi_def_cfa_register 5
 171 0089 57       		pushl	%edi
 172 008a 56       		pushl	%esi
 173 008b 53       		pushl	%ebx
 174 008c 83EC4C   		subl	$76, %esp
GAS LISTING C:\Users\PRESID~1\AppData\Local\Temp\ccCA8Smq.s 			page 13


 175              		.cfi_offset 7, -12
 176              		.cfi_offset 6, -16
 177              		.cfi_offset 3, -20
  35:C:/Users/president/Desktop/sbx/input/src/os_base\os_start_ext_prg_test.c ****    sput_fail_unless(count_vowels("book")  == 2, "book == 2v");
 178              		.loc 2 35 4
 179 008f A0040000 		movb	___sput+4, %al
 179      00
 180 0094 3C06     		cmpb	$6, %al
 181 0096 7434     		je	L10
 182              		.loc 2 35 4 is_stmt 0 discriminator 1
 183 0098 A1000000 		movl	__imp___iob, %eax
 183      00
 184 009d 83C040   		addl	$64, %eax
 185 00a0 8944240C 		movl	%eax, 12(%esp)
 186 00a4 C7442408 		movl	$29, 8(%esp)
 186      1D000000 
 187 00ac C7442404 		movl	$1, 4(%esp)
 187      01000000 
 188 00b4 C7042400 		movl	$LC0, (%esp)
 188      000000
 189 00bb E8000000 		call	_fwrite
 189      00
 190 00c0 C7042401 		movl	$1, (%esp)
 190      000000
 191 00c7 E8000000 		call	_exit
 191      00
 192              	L10:
 193              		.loc 2 35 4 discriminator 2
 194 00cc A1180000 		movl	___sput+24, %eax
 194      00
 195 00d1 85C0     		testl	%eax, %eax
 196 00d3 7531     		jne	L11
 197              		.loc 2 35 4 discriminator 3
 198 00d5 A1000000 		movl	___sput, %eax
 198      00
 199 00da 8944240C 		movl	%eax, 12(%esp)
 200 00de C7442408 		movl	$27, 8(%esp)
 200      1B000000 
 201 00e6 C7442404 		movl	$1, 4(%esp)
 201      01000000 
 202 00ee C704241E 		movl	$LC1, (%esp)
 202      000000
 203 00f5 E8000000 		call	_fwrite
 203      00
 204 00fa C7042401 		movl	$1, (%esp)
 204      000000
 205 0101 E8000000 		call	_exit
 205      00
 206              	L11:
 207              		.loc 2 35 4 discriminator 4
 208 0106 A12C0000 		movl	___sput+44, %eax
 208      00
 209 010b 85C0     		testl	%eax, %eax
 210 010d 7531     		jne	L12
 211              		.loc 2 35 4 discriminator 5
 212 010f A1000000 		movl	___sput, %eax
 212      00
GAS LISTING C:\Users\PRESID~1\AppData\Local\Temp\ccCA8Smq.s 			page 14


 213 0114 8944240C 		movl	%eax, 12(%esp)
 214 0118 C7442408 		movl	$24, 8(%esp)
 214      18000000 
 215 0120 C7442404 		movl	$1, 4(%esp)
 215      01000000 
 216 0128 C704243A 		movl	$LC2, (%esp)
 216      000000
 217 012f E8000000 		call	_fwrite
 217      00
 218 0134 C7042401 		movl	$1, (%esp)
 218      000000
 219 013b E8000000 		call	_exit
 219      00
 220              	L12:
 221              		.loc 2 35 4 discriminator 6
 222 0140 C7053400 		movl	$LC3, ___sput+52
 222      00005300 
 222      0000
 223 014a C7054000 		movl	$35, ___sput+64
 223      00002300 
 223      0000
 224 0154 C7053800 		movl	$LC4, ___sput+56
 224      00005E00 
 224      0000
 225 015e C7053C00 		movl	$LC5, ___sput+60
 225      00007800 
 225      0000
 226 0168 A1300000 		movl	___sput+48, %eax
 226      00
 227 016d 40       		incl	%eax
 228 016e A3300000 		movl	%eax, ___sput+48
 228      00
 229 0173 A1200000 		movl	___sput+32, %eax
 229      00
 230 0178 40       		incl	%eax
 231 0179 A3200000 		movl	%eax, ___sput+32
 231      00
 232 017e C7042484 		movl	$LC6, (%esp)
 232      000000
 233 0185 E8A6FEFF 		call	_count_vowels
 233      FF
 234 018a 83F802   		cmpl	$2, %eax
 235 018d 0F84FD00 		je	L13
 235      0000
 236              		.loc 2 35 4 discriminator 7
 237 0193 A0040000 		movb	___sput+4, %al
 237      00
 238 0198 3C06     		cmpb	$6, %al
 239 019a 7434     		je	L14
 240              		.loc 2 35 4 discriminator 9
 241 019c A1000000 		movl	__imp___iob, %eax
 241      00
 242 01a1 83C040   		addl	$64, %eax
 243 01a4 8944240C 		movl	%eax, 12(%esp)
 244 01a8 C7442408 		movl	$29, 8(%esp)
 244      1D000000 
 245 01b0 C7442404 		movl	$1, 4(%esp)
GAS LISTING C:\Users\PRESID~1\AppData\Local\Temp\ccCA8Smq.s 			page 15


 245      01000000 
 246 01b8 C7042400 		movl	$LC0, (%esp)
 246      000000
 247 01bf E8000000 		call	_fwrite
 247      00
 248 01c4 C7042401 		movl	$1, (%esp)
 248      000000
 249 01cb E8000000 		call	_exit
 249      00
 250              	L14:
 251              		.loc 2 35 4 discriminator 10
 252 01d0 A1180000 		movl	___sput+24, %eax
 252      00
 253 01d5 85C0     		testl	%eax, %eax
 254 01d7 7531     		jne	L15
 255              		.loc 2 35 4 discriminator 11
 256 01d9 A1000000 		movl	___sput, %eax
 256      00
 257 01de 8944240C 		movl	%eax, 12(%esp)
 258 01e2 C7442408 		movl	$27, 8(%esp)
 258      1B000000 
 259 01ea C7442404 		movl	$1, 4(%esp)
 259      01000000 
 260 01f2 C704241E 		movl	$LC1, (%esp)
 260      000000
 261 01f9 E8000000 		call	_fwrite
 261      00
 262 01fe C7042401 		movl	$1, (%esp)
 262      000000
 263 0205 E8000000 		call	_exit
 263      00
 264              	L15:
 265              		.loc 2 35 4 discriminator 12
 266 020a A1280000 		movl	___sput+40, %eax
 266      00
 267 020f 40       		incl	%eax
 268 0210 A3280000 		movl	%eax, ___sput+40
 268      00
 269 0215 8B154000 		movl	___sput+64, %edx
 269      0000
 270 021b 8B1D3800 		movl	___sput+56, %ebx
 270      0000
 271 0221 A13C0000 		movl	___sput+60, %eax
 271      00
 272 0226 8945E4   		movl	%eax, -28(%ebp)
 273 0229 8B0D3400 		movl	___sput+52, %ecx
 273      0000
 274 022f 894DE0   		movl	%ecx, -32(%ebp)
 275 0232 8B353000 		movl	___sput+48, %esi
 275      0000
 276 0238 8975DC   		movl	%esi, -36(%ebp)
 277 023b 8B3D2C00 		movl	___sput+44, %edi
 277      0000
 278 0241 8B352000 		movl	___sput+32, %esi
 278      0000
 279 0247 8B0D1C00 		movl	___sput+28, %ecx
 279      0000
GAS LISTING C:\Users\PRESID~1\AppData\Local\Temp\ccCA8Smq.s 			page 16


 280 024d A1000000 		movl	___sput, %eax
 280      00
 281 0252 89542424 		movl	%edx, 36(%esp)
 282 0256 895C2420 		movl	%ebx, 32(%esp)
 283 025a 8B55E4   		movl	-28(%ebp), %edx
 284 025d 8954241C 		movl	%edx, 28(%esp)
 285 0261 8B5DE0   		movl	-32(%ebp), %ebx
 286 0264 895C2418 		movl	%ebx, 24(%esp)
 287 0268 8B55DC   		movl	-36(%ebp), %edx
 288 026b 89542414 		movl	%edx, 20(%esp)
 289 026f 897C2410 		movl	%edi, 16(%esp)
 290 0273 8974240C 		movl	%esi, 12(%esp)
 291 0277 894C2408 		movl	%ecx, 8(%esp)
 292 027b C7442404 		movl	$LC7, 4(%esp)
 292      8C000000 
 293 0283 890424   		movl	%eax, (%esp)
 294 0286 E875FDFF 		call	_fprintf
 294      FF
 295 028b E9C90000 		jmp	L16
 295      00
 296              	L13:
 297              		.loc 2 35 4 discriminator 8
 298 0290 A0040000 		movb	___sput+4, %al
 298      00
 299 0295 3C06     		cmpb	$6, %al
 300 0297 7434     		je	L17
 301              		.loc 2 35 4 discriminator 13
 302 0299 A1000000 		movl	__imp___iob, %eax
 302      00
 303 029e 83C040   		addl	$64, %eax
 304 02a1 8944240C 		movl	%eax, 12(%esp)
 305 02a5 C7442408 		movl	$29, 8(%esp)
 305      1D000000 
 306 02ad C7442404 		movl	$1, 4(%esp)
 306      01000000 
 307 02b5 C7042400 		movl	$LC0, (%esp)
 307      000000
 308 02bc E8000000 		call	_fwrite
 308      00
 309 02c1 C7042401 		movl	$1, (%esp)
 309      000000
 310 02c8 E8000000 		call	_exit
 310      00
 311              	L17:
 312              		.loc 2 35 4 discriminator 14
 313 02cd A1180000 		movl	___sput+24, %eax
 313      00
 314 02d2 85C0     		testl	%eax, %eax
 315 02d4 7531     		jne	L18
 316              		.loc 2 35 4 discriminator 15
 317 02d6 A1000000 		movl	___sput, %eax
 317      00
 318 02db 8944240C 		movl	%eax, 12(%esp)
 319 02df C7442408 		movl	$27, 8(%esp)
 319      1B000000 
 320 02e7 C7442404 		movl	$1, 4(%esp)
 320      01000000 
GAS LISTING C:\Users\PRESID~1\AppData\Local\Temp\ccCA8Smq.s 			page 17


 321 02ef C704241E 		movl	$LC1, (%esp)
 321      000000
 322 02f6 E8000000 		call	_fwrite
 322      00
 323 02fb C7042401 		movl	$1, (%esp)
 323      000000
 324 0302 E8000000 		call	_exit
 324      00
 325              	L18:
 326              		.loc 2 35 4 discriminator 16
 327 0307 A1240000 		movl	___sput+36, %eax
 327      00
 328 030c 40       		incl	%eax
 329 030d A3240000 		movl	%eax, ___sput+36
 329      00
 330 0312 8B3D3400 		movl	___sput+52, %edi
 330      0000
 331 0318 8B353000 		movl	___sput+48, %esi
 331      0000
 332 031e 8B1D2C00 		movl	___sput+44, %ebx
 332      0000
 333 0324 8B0D2000 		movl	___sput+32, %ecx
 333      0000
 334 032a 8B151C00 		movl	___sput+28, %edx
 334      0000
 335 0330 A1000000 		movl	___sput, %eax
 335      00
 336 0335 897C2418 		movl	%edi, 24(%esp)
 337 0339 89742414 		movl	%esi, 20(%esp)
 338 033d 895C2410 		movl	%ebx, 16(%esp)
 339 0341 894C240C 		movl	%ecx, 12(%esp)
 340 0345 89542408 		movl	%edx, 8(%esp)
 341 0349 C7442404 		movl	$LC8, 4(%esp)
 341      E8000000 
 342 0351 890424   		movl	%eax, (%esp)
 343 0354 E8A7FCFF 		call	_fprintf
 343      FF
 344              	L16:
  36:C:/Users/president/Desktop/sbx/input/src/os_base\os_start_ext_prg_test.c ****    sput_fail_unless(count_vowels("hand")  == 1, "hand == 1v");
 345              		.loc 2 36 4 is_stmt 1
 346 0359 A0040000 		movb	___sput+4, %al
 346      00
 347 035e 3C06     		cmpb	$6, %al
 348 0360 7434     		je	L19
 349              		.loc 2 36 4 is_stmt 0 discriminator 1
 350 0362 A1000000 		movl	__imp___iob, %eax
 350      00
 351 0367 83C040   		addl	$64, %eax
 352 036a 8944240C 		movl	%eax, 12(%esp)
 353 036e C7442408 		movl	$29, 8(%esp)
 353      1D000000 
 354 0376 C7442404 		movl	$1, 4(%esp)
 354      01000000 
 355 037e C7042400 		movl	$LC0, (%esp)
 355      000000
 356 0385 E8000000 		call	_fwrite
 356      00
GAS LISTING C:\Users\PRESID~1\AppData\Local\Temp\ccCA8Smq.s 			page 18


 357 038a C7042401 		movl	$1, (%esp)
 357      000000
 358 0391 E8000000 		call	_exit
 358      00
 359              	L19:
 360              		.loc 2 36 4 discriminator 2
 361 0396 A1180000 		movl	___sput+24, %eax
 361      00
 362 039b 85C0     		testl	%eax, %eax
 363 039d 7531     		jne	L20
 364              		.loc 2 36 4 discriminator 3
 365 039f A1000000 		movl	___sput, %eax
 365      00
 366 03a4 8944240C 		movl	%eax, 12(%esp)
 367 03a8 C7442408 		movl	$27, 8(%esp)
 367      1B000000 
 368 03b0 C7442404 		movl	$1, 4(%esp)
 368      01000000 
 369 03b8 C704241E 		movl	$LC1, (%esp)
 369      000000
 370 03bf E8000000 		call	_fwrite
 370      00
 371 03c4 C7042401 		movl	$1, (%esp)
 371      000000
 372 03cb E8000000 		call	_exit
 372      00
 373              	L20:
 374              		.loc 2 36 4 discriminator 4
 375 03d0 A12C0000 		movl	___sput+44, %eax
 375      00
 376 03d5 85C0     		testl	%eax, %eax
 377 03d7 7531     		jne	L21
 378              		.loc 2 36 4 discriminator 5
 379 03d9 A1000000 		movl	___sput, %eax
 379      00
 380 03de 8944240C 		movl	%eax, 12(%esp)
 381 03e2 C7442408 		movl	$24, 8(%esp)
 381      18000000 
 382 03ea C7442404 		movl	$1, 4(%esp)
 382      01000000 
 383 03f2 C704243A 		movl	$LC2, (%esp)
 383      000000
 384 03f9 E8000000 		call	_fwrite
 384      00
 385 03fe C7042401 		movl	$1, (%esp)
 385      000000
 386 0405 E8000000 		call	_exit
 386      00
 387              	L21:
 388              		.loc 2 36 4 discriminator 6
 389 040a C7053400 		movl	$LC9, ___sput+52
 389      00000801 
 389      0000
 390 0414 C7054000 		movl	$36, ___sput+64
 390      00002400 
 390      0000
 391 041e C7053800 		movl	$LC10, ___sput+56
GAS LISTING C:\Users\PRESID~1\AppData\Local\Temp\ccCA8Smq.s 			page 19


 391      00001301 
 391      0000
 392 0428 C7053C00 		movl	$LC5, ___sput+60
 392      00007800 
 392      0000
 393 0432 A1300000 		movl	___sput+48, %eax
 393      00
 394 0437 40       		incl	%eax
 395 0438 A3300000 		movl	%eax, ___sput+48
 395      00
 396 043d A1200000 		movl	___sput+32, %eax
 396      00
 397 0442 40       		incl	%eax
 398 0443 A3200000 		movl	%eax, ___sput+32
 398      00
 399 0448 C704242D 		movl	$LC11, (%esp)
 399      010000
 400 044f E8DCFBFF 		call	_count_vowels
 400      FF
 401 0454 83F801   		cmpl	$1, %eax
 402 0457 0F84FD00 		je	L22
 402      0000
 403              		.loc 2 36 4 discriminator 7
 404 045d A0040000 		movb	___sput+4, %al
 404      00
 405 0462 3C06     		cmpb	$6, %al
 406 0464 7434     		je	L23
 407              		.loc 2 36 4 discriminator 9
 408 0466 A1000000 		movl	__imp___iob, %eax
 408      00
 409 046b 83C040   		addl	$64, %eax
 410 046e 8944240C 		movl	%eax, 12(%esp)
 411 0472 C7442408 		movl	$29, 8(%esp)
 411      1D000000 
 412 047a C7442404 		movl	$1, 4(%esp)
 412      01000000 
 413 0482 C7042400 		movl	$LC0, (%esp)
 413      000000
 414 0489 E8000000 		call	_fwrite
 414      00
 415 048e C7042401 		movl	$1, (%esp)
 415      000000
 416 0495 E8000000 		call	_exit
 416      00
 417              	L23:
 418              		.loc 2 36 4 discriminator 10
 419 049a A1180000 		movl	___sput+24, %eax
 419      00
 420 049f 85C0     		testl	%eax, %eax
 421 04a1 7531     		jne	L24
 422              		.loc 2 36 4 discriminator 11
 423 04a3 A1000000 		movl	___sput, %eax
 423      00
 424 04a8 8944240C 		movl	%eax, 12(%esp)
 425 04ac C7442408 		movl	$27, 8(%esp)
 425      1B000000 
 426 04b4 C7442404 		movl	$1, 4(%esp)
GAS LISTING C:\Users\PRESID~1\AppData\Local\Temp\ccCA8Smq.s 			page 20


 426      01000000 
 427 04bc C704241E 		movl	$LC1, (%esp)
 427      000000
 428 04c3 E8000000 		call	_fwrite
 428      00
 429 04c8 C7042401 		movl	$1, (%esp)
 429      000000
 430 04cf E8000000 		call	_exit
 430      00
 431              	L24:
 432              		.loc 2 36 4 discriminator 12
 433 04d4 A1280000 		movl	___sput+40, %eax
 433      00
 434 04d9 40       		incl	%eax
 435 04da A3280000 		movl	%eax, ___sput+40
 435      00
 436 04df 8B154000 		movl	___sput+64, %edx
 436      0000
 437 04e5 8B1D3800 		movl	___sput+56, %ebx
 437      0000
 438 04eb A13C0000 		movl	___sput+60, %eax
 438      00
 439 04f0 8945E4   		movl	%eax, -28(%ebp)
 440 04f3 8B3D3400 		movl	___sput+52, %edi
 440      0000
 441 04f9 897DE0   		movl	%edi, -32(%ebp)
 442 04fc 8B0D3000 		movl	___sput+48, %ecx
 442      0000
 443 0502 894DDC   		movl	%ecx, -36(%ebp)
 444 0505 8B3D2C00 		movl	___sput+44, %edi
 444      0000
 445 050b 8B352000 		movl	___sput+32, %esi
 445      0000
 446 0511 8B0D1C00 		movl	___sput+28, %ecx
 446      0000
 447 0517 A1000000 		movl	___sput, %eax
 447      00
 448 051c 89542424 		movl	%edx, 36(%esp)
 449 0520 895C2420 		movl	%ebx, 32(%esp)
 450 0524 8B5DE4   		movl	-28(%ebp), %ebx
 451 0527 895C241C 		movl	%ebx, 28(%esp)
 452 052b 8B55E0   		movl	-32(%ebp), %edx
 453 052e 89542418 		movl	%edx, 24(%esp)
 454 0532 8B5DDC   		movl	-36(%ebp), %ebx
 455 0535 895C2414 		movl	%ebx, 20(%esp)
 456 0539 897C2410 		movl	%edi, 16(%esp)
 457 053d 8974240C 		movl	%esi, 12(%esp)
 458 0541 894C2408 		movl	%ecx, 8(%esp)
 459 0545 C7442404 		movl	$LC7, 4(%esp)
 459      8C000000 
 460 054d 890424   		movl	%eax, (%esp)
 461 0550 E8ABFAFF 		call	_fprintf
 461      FF
 462 0555 E9C90000 		jmp	L25
 462      00
 463              	L22:
 464              		.loc 2 36 4 discriminator 8
GAS LISTING C:\Users\PRESID~1\AppData\Local\Temp\ccCA8Smq.s 			page 21


 465 055a A0040000 		movb	___sput+4, %al
 465      00
 466 055f 3C06     		cmpb	$6, %al
 467 0561 7434     		je	L26
 468              		.loc 2 36 4 discriminator 13
 469 0563 A1000000 		movl	__imp___iob, %eax
 469      00
 470 0568 83C040   		addl	$64, %eax
 471 056b 8944240C 		movl	%eax, 12(%esp)
 472 056f C7442408 		movl	$29, 8(%esp)
 472      1D000000 
 473 0577 C7442404 		movl	$1, 4(%esp)
 473      01000000 
 474 057f C7042400 		movl	$LC0, (%esp)
 474      000000
 475 0586 E8000000 		call	_fwrite
 475      00
 476 058b C7042401 		movl	$1, (%esp)
 476      000000
 477 0592 E8000000 		call	_exit
 477      00
 478              	L26:
 479              		.loc 2 36 4 discriminator 14
 480 0597 A1180000 		movl	___sput+24, %eax
 480      00
 481 059c 85C0     		testl	%eax, %eax
 482 059e 7531     		jne	L27
 483              		.loc 2 36 4 discriminator 15
 484 05a0 A1000000 		movl	___sput, %eax
 484      00
 485 05a5 8944240C 		movl	%eax, 12(%esp)
 486 05a9 C7442408 		movl	$27, 8(%esp)
 486      1B000000 
 487 05b1 C7442404 		movl	$1, 4(%esp)
 487      01000000 
 488 05b9 C704241E 		movl	$LC1, (%esp)
 488      000000
 489 05c0 E8000000 		call	_fwrite
 489      00
 490 05c5 C7042401 		movl	$1, (%esp)
 490      000000
 491 05cc E8000000 		call	_exit
 491      00
 492              	L27:
 493              		.loc 2 36 4 discriminator 16
 494 05d1 A1240000 		movl	___sput+36, %eax
 494      00
 495 05d6 40       		incl	%eax
 496 05d7 A3240000 		movl	%eax, ___sput+36
 496      00
 497 05dc 8B3D3400 		movl	___sput+52, %edi
 497      0000
 498 05e2 8B353000 		movl	___sput+48, %esi
 498      0000
 499 05e8 8B1D2C00 		movl	___sput+44, %ebx
 499      0000
 500 05ee 8B0D2000 		movl	___sput+32, %ecx
GAS LISTING C:\Users\PRESID~1\AppData\Local\Temp\ccCA8Smq.s 			page 22


 500      0000
 501 05f4 8B151C00 		movl	___sput+28, %edx
 501      0000
 502 05fa A1000000 		movl	___sput, %eax
 502      00
 503 05ff 897C2418 		movl	%edi, 24(%esp)
 504 0603 89742414 		movl	%esi, 20(%esp)
 505 0607 895C2410 		movl	%ebx, 16(%esp)
 506 060b 894C240C 		movl	%ecx, 12(%esp)
 507 060f 89542408 		movl	%edx, 8(%esp)
 508 0613 C7442404 		movl	$LC8, 4(%esp)
 508      E8000000 
 509 061b 890424   		movl	%eax, (%esp)
 510 061e E8DDF9FF 		call	_fprintf
 510      FF
 511              	L25:
  37:C:/Users/president/Desktop/sbx/input/src/os_base\os_start_ext_prg_test.c ****    sput_fail_unless(count_vowels("test")  == 1, "test == 1v");
 512              		.loc 2 37 4 is_stmt 1
 513 0623 A0040000 		movb	___sput+4, %al
 513      00
 514 0628 3C06     		cmpb	$6, %al
 515 062a 7434     		je	L28
 516              		.loc 2 37 4 is_stmt 0 discriminator 1
 517 062c A1000000 		movl	__imp___iob, %eax
 517      00
 518 0631 83C040   		addl	$64, %eax
 519 0634 8944240C 		movl	%eax, 12(%esp)
 520 0638 C7442408 		movl	$29, 8(%esp)
 520      1D000000 
 521 0640 C7442404 		movl	$1, 4(%esp)
 521      01000000 
 522 0648 C7042400 		movl	$LC0, (%esp)
 522      000000
 523 064f E8000000 		call	_fwrite
 523      00
 524 0654 C7042401 		movl	$1, (%esp)
 524      000000
 525 065b E8000000 		call	_exit
 525      00
 526              	L28:
 527              		.loc 2 37 4 discriminator 2
 528 0660 A1180000 		movl	___sput+24, %eax
 528      00
 529 0665 85C0     		testl	%eax, %eax
 530 0667 7531     		jne	L29
 531              		.loc 2 37 4 discriminator 3
 532 0669 A1000000 		movl	___sput, %eax
 532      00
 533 066e 8944240C 		movl	%eax, 12(%esp)
 534 0672 C7442408 		movl	$27, 8(%esp)
 534      1B000000 
 535 067a C7442404 		movl	$1, 4(%esp)
 535      01000000 
 536 0682 C704241E 		movl	$LC1, (%esp)
 536      000000
 537 0689 E8000000 		call	_fwrite
 537      00
GAS LISTING C:\Users\PRESID~1\AppData\Local\Temp\ccCA8Smq.s 			page 23


 538 068e C7042401 		movl	$1, (%esp)
 538      000000
 539 0695 E8000000 		call	_exit
 539      00
 540              	L29:
 541              		.loc 2 37 4 discriminator 4
 542 069a A12C0000 		movl	___sput+44, %eax
 542      00
 543 069f 85C0     		testl	%eax, %eax
 544 06a1 7531     		jne	L30
 545              		.loc 2 37 4 discriminator 5
 546 06a3 A1000000 		movl	___sput, %eax
 546      00
 547 06a8 8944240C 		movl	%eax, 12(%esp)
 548 06ac C7442408 		movl	$24, 8(%esp)
 548      18000000 
 549 06b4 C7442404 		movl	$1, 4(%esp)
 549      01000000 
 550 06bc C704243A 		movl	$LC2, (%esp)
 550      000000
 551 06c3 E8000000 		call	_fwrite
 551      00
 552 06c8 C7042401 		movl	$1, (%esp)
 552      000000
 553 06cf E8000000 		call	_exit
 553      00
 554              	L30:
 555              		.loc 2 37 4 discriminator 6
 556 06d4 C7053400 		movl	$LC12, ___sput+52
 556      00003201 
 556      0000
 557 06de C7054000 		movl	$37, ___sput+64
 557      00002500 
 557      0000
 558 06e8 C7053800 		movl	$LC13, ___sput+56
 558      00003D01 
 558      0000
 559 06f2 C7053C00 		movl	$LC5, ___sput+60
 559      00007800 
 559      0000
 560 06fc A1300000 		movl	___sput+48, %eax
 560      00
 561 0701 40       		incl	%eax
 562 0702 A3300000 		movl	%eax, ___sput+48
 562      00
 563 0707 A1200000 		movl	___sput+32, %eax
 563      00
 564 070c 40       		incl	%eax
 565 070d A3200000 		movl	%eax, ___sput+32
 565      00
 566 0712 C7042457 		movl	$LC14, (%esp)
 566      010000
 567 0719 E812F9FF 		call	_count_vowels
 567      FF
 568 071e 83F801   		cmpl	$1, %eax
 569 0721 0F84FD00 		je	L31
 569      0000
GAS LISTING C:\Users\PRESID~1\AppData\Local\Temp\ccCA8Smq.s 			page 24


 570              		.loc 2 37 4 discriminator 7
 571 0727 A0040000 		movb	___sput+4, %al
 571      00
 572 072c 3C06     		cmpb	$6, %al
 573 072e 7434     		je	L32
 574              		.loc 2 37 4 discriminator 9
 575 0730 A1000000 		movl	__imp___iob, %eax
 575      00
 576 0735 83C040   		addl	$64, %eax
 577 0738 8944240C 		movl	%eax, 12(%esp)
 578 073c C7442408 		movl	$29, 8(%esp)
 578      1D000000 
 579 0744 C7442404 		movl	$1, 4(%esp)
 579      01000000 
 580 074c C7042400 		movl	$LC0, (%esp)
 580      000000
 581 0753 E8000000 		call	_fwrite
 581      00
 582 0758 C7042401 		movl	$1, (%esp)
 582      000000
 583 075f E8000000 		call	_exit
 583      00
 584              	L32:
 585              		.loc 2 37 4 discriminator 10
 586 0764 A1180000 		movl	___sput+24, %eax
 586      00
 587 0769 85C0     		testl	%eax, %eax
 588 076b 7531     		jne	L33
 589              		.loc 2 37 4 discriminator 11
 590 076d A1000000 		movl	___sput, %eax
 590      00
 591 0772 8944240C 		movl	%eax, 12(%esp)
 592 0776 C7442408 		movl	$27, 8(%esp)
 592      1B000000 
 593 077e C7442404 		movl	$1, 4(%esp)
 593      01000000 
 594 0786 C704241E 		movl	$LC1, (%esp)
 594      000000
 595 078d E8000000 		call	_fwrite
 595      00
 596 0792 C7042401 		movl	$1, (%esp)
 596      000000
 597 0799 E8000000 		call	_exit
 597      00
 598              	L33:
 599              		.loc 2 37 4 discriminator 12
 600 079e A1280000 		movl	___sput+40, %eax
 600      00
 601 07a3 40       		incl	%eax
 602 07a4 A3280000 		movl	%eax, ___sput+40
 602      00
 603 07a9 8B154000 		movl	___sput+64, %edx
 603      0000
 604 07af 8B1D3800 		movl	___sput+56, %ebx
 604      0000
 605 07b5 A13C0000 		movl	___sput+60, %eax
 605      00
GAS LISTING C:\Users\PRESID~1\AppData\Local\Temp\ccCA8Smq.s 			page 25


 606 07ba 8945E4   		movl	%eax, -28(%ebp)
 607 07bd 8B353400 		movl	___sput+52, %esi
 607      0000
 608 07c3 8975E0   		movl	%esi, -32(%ebp)
 609 07c6 8B3D3000 		movl	___sput+48, %edi
 609      0000
 610 07cc 897DDC   		movl	%edi, -36(%ebp)
 611 07cf 8B3D2C00 		movl	___sput+44, %edi
 611      0000
 612 07d5 8B352000 		movl	___sput+32, %esi
 612      0000
 613 07db 8B0D1C00 		movl	___sput+28, %ecx
 613      0000
 614 07e1 A1000000 		movl	___sput, %eax
 614      00
 615 07e6 89542424 		movl	%edx, 36(%esp)
 616 07ea 895C2420 		movl	%ebx, 32(%esp)
 617 07ee 8B55E4   		movl	-28(%ebp), %edx
 618 07f1 8954241C 		movl	%edx, 28(%esp)
 619 07f5 8B5DE0   		movl	-32(%ebp), %ebx
 620 07f8 895C2418 		movl	%ebx, 24(%esp)
 621 07fc 8B55DC   		movl	-36(%ebp), %edx
 622 07ff 89542414 		movl	%edx, 20(%esp)
 623 0803 897C2410 		movl	%edi, 16(%esp)
 624 0807 8974240C 		movl	%esi, 12(%esp)
 625 080b 894C2408 		movl	%ecx, 8(%esp)
 626 080f C7442404 		movl	$LC7, 4(%esp)
 626      8C000000 
 627 0817 890424   		movl	%eax, (%esp)
 628 081a E8E1F7FF 		call	_fprintf
 628      FF
 629 081f E9C90000 		jmp	L34
 629      00
 630              	L31:
 631              		.loc 2 37 4 discriminator 8
 632 0824 A0040000 		movb	___sput+4, %al
 632      00
 633 0829 3C06     		cmpb	$6, %al
 634 082b 7434     		je	L35
 635              		.loc 2 37 4 discriminator 13
 636 082d A1000000 		movl	__imp___iob, %eax
 636      00
 637 0832 83C040   		addl	$64, %eax
 638 0835 8944240C 		movl	%eax, 12(%esp)
 639 0839 C7442408 		movl	$29, 8(%esp)
 639      1D000000 
 640 0841 C7442404 		movl	$1, 4(%esp)
 640      01000000 
 641 0849 C7042400 		movl	$LC0, (%esp)
 641      000000
 642 0850 E8000000 		call	_fwrite
 642      00
 643 0855 C7042401 		movl	$1, (%esp)
 643      000000
 644 085c E8000000 		call	_exit
 644      00
 645              	L35:
GAS LISTING C:\Users\PRESID~1\AppData\Local\Temp\ccCA8Smq.s 			page 26


 646              		.loc 2 37 4 discriminator 14
 647 0861 A1180000 		movl	___sput+24, %eax
 647      00
 648 0866 85C0     		testl	%eax, %eax
 649 0868 7531     		jne	L36
 650              		.loc 2 37 4 discriminator 15
 651 086a A1000000 		movl	___sput, %eax
 651      00
 652 086f 8944240C 		movl	%eax, 12(%esp)
 653 0873 C7442408 		movl	$27, 8(%esp)
 653      1B000000 
 654 087b C7442404 		movl	$1, 4(%esp)
 654      01000000 
 655 0883 C704241E 		movl	$LC1, (%esp)
 655      000000
 656 088a E8000000 		call	_fwrite
 656      00
 657 088f C7042401 		movl	$1, (%esp)
 657      000000
 658 0896 E8000000 		call	_exit
 658      00
 659              	L36:
 660              		.loc 2 37 4 discriminator 16
 661 089b A1240000 		movl	___sput+36, %eax
 661      00
 662 08a0 40       		incl	%eax
 663 08a1 A3240000 		movl	%eax, ___sput+36
 663      00
 664 08a6 8B3D3400 		movl	___sput+52, %edi
 664      0000
 665 08ac 8B353000 		movl	___sput+48, %esi
 665      0000
 666 08b2 8B1D2C00 		movl	___sput+44, %ebx
 666      0000
 667 08b8 8B0D2000 		movl	___sput+32, %ecx
 667      0000
 668 08be 8B151C00 		movl	___sput+28, %edx
 668      0000
 669 08c4 A1000000 		movl	___sput, %eax
 669      00
 670 08c9 897C2418 		movl	%edi, 24(%esp)
 671 08cd 89742414 		movl	%esi, 20(%esp)
 672 08d1 895C2410 		movl	%ebx, 16(%esp)
 673 08d5 894C240C 		movl	%ecx, 12(%esp)
 674 08d9 89542408 		movl	%edx, 8(%esp)
 675 08dd C7442404 		movl	$LC8, 4(%esp)
 675      E8000000 
 676 08e5 890424   		movl	%eax, (%esp)
 677 08e8 E813F7FF 		call	_fprintf
 677      FF
 678              	L34:
  38:C:/Users/president/Desktop/sbx/input/src/os_base\os_start_ext_prg_test.c ****    sput_fail_unless(count_vowels("Peter") == 2, "Peter == 2v");
 679              		.loc 2 38 4 is_stmt 1
 680 08ed A0040000 		movb	___sput+4, %al
 680      00
 681 08f2 3C06     		cmpb	$6, %al
 682 08f4 7434     		je	L37
GAS LISTING C:\Users\PRESID~1\AppData\Local\Temp\ccCA8Smq.s 			page 27


 683              		.loc 2 38 4 is_stmt 0 discriminator 1
 684 08f6 A1000000 		movl	__imp___iob, %eax
 684      00
 685 08fb 83C040   		addl	$64, %eax
 686 08fe 8944240C 		movl	%eax, 12(%esp)
 687 0902 C7442408 		movl	$29, 8(%esp)
 687      1D000000 
 688 090a C7442404 		movl	$1, 4(%esp)
 688      01000000 
 689 0912 C7042400 		movl	$LC0, (%esp)
 689      000000
 690 0919 E8000000 		call	_fwrite
 690      00
 691 091e C7042401 		movl	$1, (%esp)
 691      000000
 692 0925 E8000000 		call	_exit
 692      00
 693              	L37:
 694              		.loc 2 38 4 discriminator 2
 695 092a A1180000 		movl	___sput+24, %eax
 695      00
 696 092f 85C0     		testl	%eax, %eax
 697 0931 7531     		jne	L38
 698              		.loc 2 38 4 discriminator 3
 699 0933 A1000000 		movl	___sput, %eax
 699      00
 700 0938 8944240C 		movl	%eax, 12(%esp)
 701 093c C7442408 		movl	$27, 8(%esp)
 701      1B000000 
 702 0944 C7442404 		movl	$1, 4(%esp)
 702      01000000 
 703 094c C704241E 		movl	$LC1, (%esp)
 703      000000
 704 0953 E8000000 		call	_fwrite
 704      00
 705 0958 C7042401 		movl	$1, (%esp)
 705      000000
 706 095f E8000000 		call	_exit
 706      00
 707              	L38:
 708              		.loc 2 38 4 discriminator 4
 709 0964 A12C0000 		movl	___sput+44, %eax
 709      00
 710 0969 85C0     		testl	%eax, %eax
 711 096b 7531     		jne	L39
 712              		.loc 2 38 4 discriminator 5
 713 096d A1000000 		movl	___sput, %eax
 713      00
 714 0972 8944240C 		movl	%eax, 12(%esp)
 715 0976 C7442408 		movl	$24, 8(%esp)
 715      18000000 
 716 097e C7442404 		movl	$1, 4(%esp)
 716      01000000 
 717 0986 C704243A 		movl	$LC2, (%esp)
 717      000000
 718 098d E8000000 		call	_fwrite
 718      00
GAS LISTING C:\Users\PRESID~1\AppData\Local\Temp\ccCA8Smq.s 			page 28


 719 0992 C7042401 		movl	$1, (%esp)
 719      000000
 720 0999 E8000000 		call	_exit
 720      00
 721              	L39:
 722              		.loc 2 38 4 discriminator 6
 723 099e C7053400 		movl	$LC15, ___sput+52
 723      00005C01 
 723      0000
 724 09a8 C7054000 		movl	$38, ___sput+64
 724      00002600 
 724      0000
 725 09b2 C7053800 		movl	$LC16, ___sput+56
 725      00006801 
 725      0000
 726 09bc C7053C00 		movl	$LC5, ___sput+60
 726      00007800 
 726      0000
 727 09c6 A1300000 		movl	___sput+48, %eax
 727      00
 728 09cb 40       		incl	%eax
 729 09cc A3300000 		movl	%eax, ___sput+48
 729      00
 730 09d1 A1200000 		movl	___sput+32, %eax
 730      00
 731 09d6 40       		incl	%eax
 732 09d7 A3200000 		movl	%eax, ___sput+32
 732      00
 733 09dc C7042483 		movl	$LC17, (%esp)
 733      010000
 734 09e3 E848F6FF 		call	_count_vowels
 734      FF
 735 09e8 83F802   		cmpl	$2, %eax
 736 09eb 0F84FD00 		je	L40
 736      0000
 737              		.loc 2 38 4 discriminator 7
 738 09f1 A0040000 		movb	___sput+4, %al
 738      00
 739 09f6 3C06     		cmpb	$6, %al
 740 09f8 7434     		je	L41
 741              		.loc 2 38 4 discriminator 9
 742 09fa A1000000 		movl	__imp___iob, %eax
 742      00
 743 09ff 83C040   		addl	$64, %eax
 744 0a02 8944240C 		movl	%eax, 12(%esp)
 745 0a06 C7442408 		movl	$29, 8(%esp)
 745      1D000000 
 746 0a0e C7442404 		movl	$1, 4(%esp)
 746      01000000 
 747 0a16 C7042400 		movl	$LC0, (%esp)
 747      000000
 748 0a1d E8000000 		call	_fwrite
 748      00
 749 0a22 C7042401 		movl	$1, (%esp)
 749      000000
 750 0a29 E8000000 		call	_exit
 750      00
GAS LISTING C:\Users\PRESID~1\AppData\Local\Temp\ccCA8Smq.s 			page 29


 751              	L41:
 752              		.loc 2 38 4 discriminator 10
 753 0a2e A1180000 		movl	___sput+24, %eax
 753      00
 754 0a33 85C0     		testl	%eax, %eax
 755 0a35 7531     		jne	L42
 756              		.loc 2 38 4 discriminator 11
 757 0a37 A1000000 		movl	___sput, %eax
 757      00
 758 0a3c 8944240C 		movl	%eax, 12(%esp)
 759 0a40 C7442408 		movl	$27, 8(%esp)
 759      1B000000 
 760 0a48 C7442404 		movl	$1, 4(%esp)
 760      01000000 
 761 0a50 C704241E 		movl	$LC1, (%esp)
 761      000000
 762 0a57 E8000000 		call	_fwrite
 762      00
 763 0a5c C7042401 		movl	$1, (%esp)
 763      000000
 764 0a63 E8000000 		call	_exit
 764      00
 765              	L42:
 766              		.loc 2 38 4 discriminator 12
 767 0a68 A1280000 		movl	___sput+40, %eax
 767      00
 768 0a6d 40       		incl	%eax
 769 0a6e A3280000 		movl	%eax, ___sput+40
 769      00
 770 0a73 8B154000 		movl	___sput+64, %edx
 770      0000
 771 0a79 8B1D3800 		movl	___sput+56, %ebx
 771      0000
 772 0a7f A13C0000 		movl	___sput+60, %eax
 772      00
 773 0a84 8945E4   		movl	%eax, -28(%ebp)
 774 0a87 8B0D3400 		movl	___sput+52, %ecx
 774      0000
 775 0a8d 894DE0   		movl	%ecx, -32(%ebp)
 776 0a90 8B353000 		movl	___sput+48, %esi
 776      0000
 777 0a96 8975DC   		movl	%esi, -36(%ebp)
 778 0a99 8B3D2C00 		movl	___sput+44, %edi
 778      0000
 779 0a9f 8B352000 		movl	___sput+32, %esi
 779      0000
 780 0aa5 8B0D1C00 		movl	___sput+28, %ecx
 780      0000
 781 0aab A1000000 		movl	___sput, %eax
 781      00
 782 0ab0 89542424 		movl	%edx, 36(%esp)
 783 0ab4 895C2420 		movl	%ebx, 32(%esp)
 784 0ab8 8B5DE4   		movl	-28(%ebp), %ebx
 785 0abb 895C241C 		movl	%ebx, 28(%esp)
 786 0abf 8B55E0   		movl	-32(%ebp), %edx
 787 0ac2 89542418 		movl	%edx, 24(%esp)
 788 0ac6 8B5DDC   		movl	-36(%ebp), %ebx
GAS LISTING C:\Users\PRESID~1\AppData\Local\Temp\ccCA8Smq.s 			page 30


 789 0ac9 895C2414 		movl	%ebx, 20(%esp)
 790 0acd 897C2410 		movl	%edi, 16(%esp)
 791 0ad1 8974240C 		movl	%esi, 12(%esp)
 792 0ad5 894C2408 		movl	%ecx, 8(%esp)
 793 0ad9 C7442404 		movl	$LC7, 4(%esp)
 793      8C000000 
 794 0ae1 890424   		movl	%eax, (%esp)
 795 0ae4 E817F5FF 		call	_fprintf
 795      FF
 796 0ae9 E9C90000 		jmp	L43
 796      00
 797              	L40:
 798              		.loc 2 38 4 discriminator 8
 799 0aee A0040000 		movb	___sput+4, %al
 799      00
 800 0af3 3C06     		cmpb	$6, %al
 801 0af5 7434     		je	L44
 802              		.loc 2 38 4 discriminator 13
 803 0af7 A1000000 		movl	__imp___iob, %eax
 803      00
 804 0afc 83C040   		addl	$64, %eax
 805 0aff 8944240C 		movl	%eax, 12(%esp)
 806 0b03 C7442408 		movl	$29, 8(%esp)
 806      1D000000 
 807 0b0b C7442404 		movl	$1, 4(%esp)
 807      01000000 
 808 0b13 C7042400 		movl	$LC0, (%esp)
 808      000000
 809 0b1a E8000000 		call	_fwrite
 809      00
 810 0b1f C7042401 		movl	$1, (%esp)
 810      000000
 811 0b26 E8000000 		call	_exit
 811      00
 812              	L44:
 813              		.loc 2 38 4 discriminator 14
 814 0b2b A1180000 		movl	___sput+24, %eax
 814      00
 815 0b30 85C0     		testl	%eax, %eax
 816 0b32 7531     		jne	L45
 817              		.loc 2 38 4 discriminator 15
 818 0b34 A1000000 		movl	___sput, %eax
 818      00
 819 0b39 8944240C 		movl	%eax, 12(%esp)
 820 0b3d C7442408 		movl	$27, 8(%esp)
 820      1B000000 
 821 0b45 C7442404 		movl	$1, 4(%esp)
 821      01000000 
 822 0b4d C704241E 		movl	$LC1, (%esp)
 822      000000
 823 0b54 E8000000 		call	_fwrite
 823      00
 824 0b59 C7042401 		movl	$1, (%esp)
 824      000000
 825 0b60 E8000000 		call	_exit
 825      00
 826              	L45:
GAS LISTING C:\Users\PRESID~1\AppData\Local\Temp\ccCA8Smq.s 			page 31


 827              		.loc 2 38 4 discriminator 16
 828 0b65 A1240000 		movl	___sput+36, %eax
 828      00
 829 0b6a 40       		incl	%eax
 830 0b6b A3240000 		movl	%eax, ___sput+36
 830      00
 831 0b70 8B3D3400 		movl	___sput+52, %edi
 831      0000
 832 0b76 8B353000 		movl	___sput+48, %esi
 832      0000
 833 0b7c 8B1D2C00 		movl	___sput+44, %ebx
 833      0000
 834 0b82 8B0D2000 		movl	___sput+32, %ecx
 834      0000
 835 0b88 8B151C00 		movl	___sput+28, %edx
 835      0000
 836 0b8e A1000000 		movl	___sput, %eax
 836      00
 837 0b93 897C2418 		movl	%edi, 24(%esp)
 838 0b97 89742414 		movl	%esi, 20(%esp)
 839 0b9b 895C2410 		movl	%ebx, 16(%esp)
 840 0b9f 894C240C 		movl	%ecx, 12(%esp)
 841 0ba3 89542408 		movl	%edx, 8(%esp)
 842 0ba7 C7442404 		movl	$LC8, 4(%esp)
 842      E8000000 
 843 0baf 890424   		movl	%eax, (%esp)
 844 0bb2 E849F4FF 		call	_fprintf
 844      FF
 845              	L43:
  39:C:/Users/president/Desktop/sbx/input/src/os_base\os_start_ext_prg_test.c ****    sput_fail_unless(count_vowels("Apu")   == 2, "Apu == 2v");
 846              		.loc 2 39 4 is_stmt 1
 847 0bb7 A0040000 		movb	___sput+4, %al
 847      00
 848 0bbc 3C06     		cmpb	$6, %al
 849 0bbe 7434     		je	L46
 850              		.loc 2 39 4 is_stmt 0 discriminator 1
 851 0bc0 A1000000 		movl	__imp___iob, %eax
 851      00
 852 0bc5 83C040   		addl	$64, %eax
 853 0bc8 8944240C 		movl	%eax, 12(%esp)
 854 0bcc C7442408 		movl	$29, 8(%esp)
 854      1D000000 
 855 0bd4 C7442404 		movl	$1, 4(%esp)
 855      01000000 
 856 0bdc C7042400 		movl	$LC0, (%esp)
 856      000000
 857 0be3 E8000000 		call	_fwrite
 857      00
 858 0be8 C7042401 		movl	$1, (%esp)
 858      000000
 859 0bef E8000000 		call	_exit
 859      00
 860              	L46:
 861              		.loc 2 39 4 discriminator 2
 862 0bf4 A1180000 		movl	___sput+24, %eax
 862      00
 863 0bf9 85C0     		testl	%eax, %eax
GAS LISTING C:\Users\PRESID~1\AppData\Local\Temp\ccCA8Smq.s 			page 32


 864 0bfb 7531     		jne	L47
 865              		.loc 2 39 4 discriminator 3
 866 0bfd A1000000 		movl	___sput, %eax
 866      00
 867 0c02 8944240C 		movl	%eax, 12(%esp)
 868 0c06 C7442408 		movl	$27, 8(%esp)
 868      1B000000 
 869 0c0e C7442404 		movl	$1, 4(%esp)
 869      01000000 
 870 0c16 C704241E 		movl	$LC1, (%esp)
 870      000000
 871 0c1d E8000000 		call	_fwrite
 871      00
 872 0c22 C7042401 		movl	$1, (%esp)
 872      000000
 873 0c29 E8000000 		call	_exit
 873      00
 874              	L47:
 875              		.loc 2 39 4 discriminator 4
 876 0c2e A12C0000 		movl	___sput+44, %eax
 876      00
 877 0c33 85C0     		testl	%eax, %eax
 878 0c35 7531     		jne	L48
 879              		.loc 2 39 4 discriminator 5
 880 0c37 A1000000 		movl	___sput, %eax
 880      00
 881 0c3c 8944240C 		movl	%eax, 12(%esp)
 882 0c40 C7442408 		movl	$24, 8(%esp)
 882      18000000 
 883 0c48 C7442404 		movl	$1, 4(%esp)
 883      01000000 
 884 0c50 C704243A 		movl	$LC2, (%esp)
 884      000000
 885 0c57 E8000000 		call	_fwrite
 885      00
 886 0c5c C7042401 		movl	$1, (%esp)
 886      000000
 887 0c63 E8000000 		call	_exit
 887      00
 888              	L48:
 889              		.loc 2 39 4 discriminator 6
 890 0c68 C7053400 		movl	$LC18, ___sput+52
 890      00008901 
 890      0000
 891 0c72 C7054000 		movl	$39, ___sput+64
 891      00002700 
 891      0000
 892 0c7c C7053800 		movl	$LC19, ___sput+56
 892      00009301 
 892      0000
 893 0c86 C7053C00 		movl	$LC5, ___sput+60
 893      00007800 
 893      0000
 894 0c90 A1300000 		movl	___sput+48, %eax
 894      00
 895 0c95 40       		incl	%eax
 896 0c96 A3300000 		movl	%eax, ___sput+48
GAS LISTING C:\Users\PRESID~1\AppData\Local\Temp\ccCA8Smq.s 			page 33


 896      00
 897 0c9b A1200000 		movl	___sput+32, %eax
 897      00
 898 0ca0 40       		incl	%eax
 899 0ca1 A3200000 		movl	%eax, ___sput+32
 899      00
 900 0ca6 C70424AC 		movl	$LC20, (%esp)
 900      010000
 901 0cad E87EF3FF 		call	_count_vowels
 901      FF
 902 0cb2 83F802   		cmpl	$2, %eax
 903 0cb5 0F84FD00 		je	L49
 903      0000
 904              		.loc 2 39 4 discriminator 7
 905 0cbb A0040000 		movb	___sput+4, %al
 905      00
 906 0cc0 3C06     		cmpb	$6, %al
 907 0cc2 7434     		je	L50
 908              		.loc 2 39 4 discriminator 9
 909 0cc4 A1000000 		movl	__imp___iob, %eax
 909      00
 910 0cc9 83C040   		addl	$64, %eax
 911 0ccc 8944240C 		movl	%eax, 12(%esp)
 912 0cd0 C7442408 		movl	$29, 8(%esp)
 912      1D000000 
 913 0cd8 C7442404 		movl	$1, 4(%esp)
 913      01000000 
 914 0ce0 C7042400 		movl	$LC0, (%esp)
 914      000000
 915 0ce7 E8000000 		call	_fwrite
 915      00
 916 0cec C7042401 		movl	$1, (%esp)
 916      000000
 917 0cf3 E8000000 		call	_exit
 917      00
 918              	L50:
 919              		.loc 2 39 4 discriminator 10
 920 0cf8 A1180000 		movl	___sput+24, %eax
 920      00
 921 0cfd 85C0     		testl	%eax, %eax
 922 0cff 7531     		jne	L51
 923              		.loc 2 39 4 discriminator 11
 924 0d01 A1000000 		movl	___sput, %eax
 924      00
 925 0d06 8944240C 		movl	%eax, 12(%esp)
 926 0d0a C7442408 		movl	$27, 8(%esp)
 926      1B000000 
 927 0d12 C7442404 		movl	$1, 4(%esp)
 927      01000000 
 928 0d1a C704241E 		movl	$LC1, (%esp)
 928      000000
 929 0d21 E8000000 		call	_fwrite
 929      00
 930 0d26 C7042401 		movl	$1, (%esp)
 930      000000
 931 0d2d E8000000 		call	_exit
 931      00
GAS LISTING C:\Users\PRESID~1\AppData\Local\Temp\ccCA8Smq.s 			page 34


 932              	L51:
 933              		.loc 2 39 4 discriminator 12
 934 0d32 A1280000 		movl	___sput+40, %eax
 934      00
 935 0d37 40       		incl	%eax
 936 0d38 A3280000 		movl	%eax, ___sput+40
 936      00
 937 0d3d 8B154000 		movl	___sput+64, %edx
 937      0000
 938 0d43 8B1D3800 		movl	___sput+56, %ebx
 938      0000
 939 0d49 A13C0000 		movl	___sput+60, %eax
 939      00
 940 0d4e 8945E4   		movl	%eax, -28(%ebp)
 941 0d51 8B3D3400 		movl	___sput+52, %edi
 941      0000
 942 0d57 897DE0   		movl	%edi, -32(%ebp)
 943 0d5a 8B0D3000 		movl	___sput+48, %ecx
 943      0000
 944 0d60 894DDC   		movl	%ecx, -36(%ebp)
 945 0d63 8B3D2C00 		movl	___sput+44, %edi
 945      0000
 946 0d69 8B352000 		movl	___sput+32, %esi
 946      0000
 947 0d6f 8B0D1C00 		movl	___sput+28, %ecx
 947      0000
 948 0d75 A1000000 		movl	___sput, %eax
 948      00
 949 0d7a 89542424 		movl	%edx, 36(%esp)
 950 0d7e 895C2420 		movl	%ebx, 32(%esp)
 951 0d82 8B55E4   		movl	-28(%ebp), %edx
 952 0d85 8954241C 		movl	%edx, 28(%esp)
 953 0d89 8B5DE0   		movl	-32(%ebp), %ebx
 954 0d8c 895C2418 		movl	%ebx, 24(%esp)
 955 0d90 8B55DC   		movl	-36(%ebp), %edx
 956 0d93 89542414 		movl	%edx, 20(%esp)
 957 0d97 897C2410 		movl	%edi, 16(%esp)
 958 0d9b 8974240C 		movl	%esi, 12(%esp)
 959 0d9f 894C2408 		movl	%ecx, 8(%esp)
 960 0da3 C7442404 		movl	$LC7, 4(%esp)
 960      8C000000 
 961 0dab 890424   		movl	%eax, (%esp)
 962 0dae E84DF2FF 		call	_fprintf
 962      FF
  40:C:/Users/president/Desktop/sbx/input/src/os_base\os_start_ext_prg_test.c **** }
 963              		.loc 2 40 1 is_stmt 1 discriminator 12
 964 0db3 E9C90000 		jmp	L55
 964      00
 965              	L49:
  39:C:/Users/president/Desktop/sbx/input/src/os_base\os_start_ext_prg_test.c ****    sput_fail_unless(count_vowels("Apu")   == 2, "Apu == 2v");
 966              		.loc 2 39 4 discriminator 8
 967 0db8 A0040000 		movb	___sput+4, %al
 967      00
 968 0dbd 3C06     		cmpb	$6, %al
 969 0dbf 7434     		je	L53
  39:C:/Users/president/Desktop/sbx/input/src/os_base\os_start_ext_prg_test.c ****    sput_fail_unless(count_vowels("Apu")   == 2, "Apu == 2v");
 970              		.loc 2 39 4 is_stmt 0 discriminator 13
GAS LISTING C:\Users\PRESID~1\AppData\Local\Temp\ccCA8Smq.s 			page 35


 971 0dc1 A1000000 		movl	__imp___iob, %eax
 971      00
 972 0dc6 83C040   		addl	$64, %eax
 973 0dc9 8944240C 		movl	%eax, 12(%esp)
 974 0dcd C7442408 		movl	$29, 8(%esp)
 974      1D000000 
 975 0dd5 C7442404 		movl	$1, 4(%esp)
 975      01000000 
 976 0ddd C7042400 		movl	$LC0, (%esp)
 976      000000
 977 0de4 E8000000 		call	_fwrite
 977      00
 978 0de9 C7042401 		movl	$1, (%esp)
 978      000000
 979 0df0 E8000000 		call	_exit
 979      00
 980              	L53:
  39:C:/Users/president/Desktop/sbx/input/src/os_base\os_start_ext_prg_test.c ****    sput_fail_unless(count_vowels("Apu")   == 2, "Apu == 2v");
 981              		.loc 2 39 4 discriminator 14
 982 0df5 A1180000 		movl	___sput+24, %eax
 982      00
 983 0dfa 85C0     		testl	%eax, %eax
 984 0dfc 7531     		jne	L54
  39:C:/Users/president/Desktop/sbx/input/src/os_base\os_start_ext_prg_test.c ****    sput_fail_unless(count_vowels("Apu")   == 2, "Apu == 2v");
 985              		.loc 2 39 4 discriminator 15
 986 0dfe A1000000 		movl	___sput, %eax
 986      00
 987 0e03 8944240C 		movl	%eax, 12(%esp)
 988 0e07 C7442408 		movl	$27, 8(%esp)
 988      1B000000 
 989 0e0f C7442404 		movl	$1, 4(%esp)
 989      01000000 
 990 0e17 C704241E 		movl	$LC1, (%esp)
 990      000000
 991 0e1e E8000000 		call	_fwrite
 991      00
 992 0e23 C7042401 		movl	$1, (%esp)
 992      000000
 993 0e2a E8000000 		call	_exit
 993      00
 994              	L54:
  39:C:/Users/president/Desktop/sbx/input/src/os_base\os_start_ext_prg_test.c ****    sput_fail_unless(count_vowels("Apu")   == 2, "Apu == 2v");
 995              		.loc 2 39 4 discriminator 16
 996 0e2f A1240000 		movl	___sput+36, %eax
 996      00
 997 0e34 40       		incl	%eax
 998 0e35 A3240000 		movl	%eax, ___sput+36
 998      00
 999 0e3a 8B3D3400 		movl	___sput+52, %edi
 999      0000
 1000 0e40 8B353000 		movl	___sput+48, %esi
 1000      0000
 1001 0e46 8B1D2C00 		movl	___sput+44, %ebx
 1001      0000
 1002 0e4c 8B0D2000 		movl	___sput+32, %ecx
 1002      0000
 1003 0e52 8B151C00 		movl	___sput+28, %edx
GAS LISTING C:\Users\PRESID~1\AppData\Local\Temp\ccCA8Smq.s 			page 36


 1003      0000
 1004 0e58 A1000000 		movl	___sput, %eax
 1004      00
 1005 0e5d 897C2418 		movl	%edi, 24(%esp)
 1006 0e61 89742414 		movl	%esi, 20(%esp)
 1007 0e65 895C2410 		movl	%ebx, 16(%esp)
 1008 0e69 894C240C 		movl	%ecx, 12(%esp)
 1009 0e6d 89542408 		movl	%edx, 8(%esp)
 1010 0e71 C7442404 		movl	$LC8, 4(%esp)
 1010      E8000000 
 1011 0e79 890424   		movl	%eax, (%esp)
 1012 0e7c E87FF1FF 		call	_fprintf
 1012      FF
 1013              	L55:
 1014              		.loc 2 40 1 is_stmt 1
 1015 0e81 90       		nop
 1016 0e82 83C44C   		addl	$76, %esp
 1017 0e85 5B       		popl	%ebx
 1018              		.cfi_restore 3
 1019 0e86 5E       		popl	%esi
 1020              		.cfi_restore 6
 1021 0e87 5F       		popl	%edi
 1022              		.cfi_restore 7
 1023 0e88 5D       		popl	%ebp
 1024              		.cfi_restore 5
 1025              		.cfi_def_cfa 4, 4
 1026 0e89 C3       		ret
 1027              		.cfi_endproc
 1028              	LFE15:
 1029              		.section .rdata,"dr"
 1030              	LC21:
 1031 01b0 47434320 		.ascii "GCC == 0v\0"
 1031      3D3D2030 
 1031      7600
 1032              	LC22:
 1033 01ba 636F756E 		.ascii "count_vowels(\"GCC\") == 0\0"
 1033      745F766F 
 1033      77656C73 
 1033      28224743 
 1033      43222920 
 1034              	LC23:
 1035 01d3 47434300 		.ascii "GCC\0"
 1036              	LC24:
 1037 01d7 42424320 		.ascii "BBC == 0v\0"
 1037      3D3D2030 
 1037      7600
 1038              	LC25:
 1039 01e1 636F756E 		.ascii "count_vowels(\"BBC\") == 0\0"
 1039      745F766F 
 1039      77656C73 
 1039      28224242 
 1039      43222920 
 1040              	LC26:
 1041 01fa 42424300 		.ascii "BBC\0"
 1042              	LC27:
 1043 01fe 434E4E20 		.ascii "CNN == 0v\0"
 1043      3D3D2030 
GAS LISTING C:\Users\PRESID~1\AppData\Local\Temp\ccCA8Smq.s 			page 37


 1043      7600
 1044              	LC28:
 1045 0208 636F756E 		.ascii "count_vowels(\"CNN\") == 0\0"
 1045      745F766F 
 1045      77656C73 
 1045      2822434E 
 1045      4E222920 
 1046              	LC29:
 1047 0221 434E4E00 		.ascii "CNN\0"
 1048              	LC30:
 1049 0225 47505320 		.ascii "GPS == 0v\0"
 1049      3D3D2030 
 1049      7600
 1050              	LC31:
 1051 022f 636F756E 		.ascii "count_vowels(\"GPS\") == 0\0"
 1051      745F766F 
 1051      77656C73 
 1051      28224750 
 1051      53222920 
 1052              	LC32:
 1053 0248 47505300 		.ascii "GPS\0"
 1054              	LC33:
 1055 024c 4C746420 		.ascii "Ltd == 0v\0"
 1055      3D3D2030 
 1055      7600
 1056              	LC34:
 1057 0256 636F756E 		.ascii "count_vowels(\"Ltd\") == 0\0"
 1057      745F766F 
 1057      77656C73 
 1057      28224C74 
 1057      64222920 
 1058              	LC35:
 1059 026f 4C746400 		.ascii "Ltd\0"
 1060              		.text
 1062              	_test_no_vowels_present:
 1063              	LFB16:
  41:C:/Users/president/Desktop/sbx/input/src/os_base\os_start_ext_prg_test.c **** 
  42:C:/Users/president/Desktop/sbx/input/src/os_base\os_start_ext_prg_test.c **** 
  43:C:/Users/president/Desktop/sbx/input/src/os_base\os_start_ext_prg_test.c **** static void test_no_vowels_present()
  44:C:/Users/president/Desktop/sbx/input/src/os_base\os_start_ext_prg_test.c **** {
 1064              		.loc 2 44 1
 1065              		.cfi_startproc
 1066 0e8a 55       		pushl	%ebp
 1067              		.cfi_def_cfa_offset 8
 1068              		.cfi_offset 5, -8
 1069 0e8b 89E5     		movl	%esp, %ebp
 1070              		.cfi_def_cfa_register 5
 1071 0e8d 57       		pushl	%edi
 1072 0e8e 56       		pushl	%esi
 1073 0e8f 53       		pushl	%ebx
 1074 0e90 83EC4C   		subl	$76, %esp
 1075              		.cfi_offset 7, -12
 1076              		.cfi_offset 6, -16
 1077              		.cfi_offset 3, -20
  45:C:/Users/president/Desktop/sbx/input/src/os_base\os_start_ext_prg_test.c ****    sput_fail_unless(count_vowels("GCC") == 0, "GCC == 0v");
 1078              		.loc 2 45 4
 1079 0e93 A0040000 		movb	___sput+4, %al
GAS LISTING C:\Users\PRESID~1\AppData\Local\Temp\ccCA8Smq.s 			page 38


 1079      00
 1080 0e98 3C06     		cmpb	$6, %al
 1081 0e9a 7434     		je	L57
 1082              		.loc 2 45 4 is_stmt 0 discriminator 1
 1083 0e9c A1000000 		movl	__imp___iob, %eax
 1083      00
 1084 0ea1 83C040   		addl	$64, %eax
 1085 0ea4 8944240C 		movl	%eax, 12(%esp)
 1086 0ea8 C7442408 		movl	$29, 8(%esp)
 1086      1D000000 
 1087 0eb0 C7442404 		movl	$1, 4(%esp)
 1087      01000000 
 1088 0eb8 C7042400 		movl	$LC0, (%esp)
 1088      000000
 1089 0ebf E8000000 		call	_fwrite
 1089      00
 1090 0ec4 C7042401 		movl	$1, (%esp)
 1090      000000
 1091 0ecb E8000000 		call	_exit
 1091      00
 1092              	L57:
 1093              		.loc 2 45 4 discriminator 2
 1094 0ed0 A1180000 		movl	___sput+24, %eax
 1094      00
 1095 0ed5 85C0     		testl	%eax, %eax
 1096 0ed7 7531     		jne	L58
 1097              		.loc 2 45 4 discriminator 3
 1098 0ed9 A1000000 		movl	___sput, %eax
 1098      00
 1099 0ede 8944240C 		movl	%eax, 12(%esp)
 1100 0ee2 C7442408 		movl	$27, 8(%esp)
 1100      1B000000 
 1101 0eea C7442404 		movl	$1, 4(%esp)
 1101      01000000 
 1102 0ef2 C704241E 		movl	$LC1, (%esp)
 1102      000000
 1103 0ef9 E8000000 		call	_fwrite
 1103      00
 1104 0efe C7042401 		movl	$1, (%esp)
 1104      000000
 1105 0f05 E8000000 		call	_exit
 1105      00
 1106              	L58:
 1107              		.loc 2 45 4 discriminator 4
 1108 0f0a A12C0000 		movl	___sput+44, %eax
 1108      00
 1109 0f0f 85C0     		testl	%eax, %eax
 1110 0f11 7531     		jne	L59
 1111              		.loc 2 45 4 discriminator 5
 1112 0f13 A1000000 		movl	___sput, %eax
 1112      00
 1113 0f18 8944240C 		movl	%eax, 12(%esp)
 1114 0f1c C7442408 		movl	$24, 8(%esp)
 1114      18000000 
 1115 0f24 C7442404 		movl	$1, 4(%esp)
 1115      01000000 
 1116 0f2c C704243A 		movl	$LC2, (%esp)
GAS LISTING C:\Users\PRESID~1\AppData\Local\Temp\ccCA8Smq.s 			page 39


 1116      000000
 1117 0f33 E8000000 		call	_fwrite
 1117      00
 1118 0f38 C7042401 		movl	$1, (%esp)
 1118      000000
 1119 0f3f E8000000 		call	_exit
 1119      00
 1120              	L59:
 1121              		.loc 2 45 4 discriminator 6
 1122 0f44 C7053400 		movl	$LC21, ___sput+52
 1122      0000B001 
 1122      0000
 1123 0f4e C7054000 		movl	$45, ___sput+64
 1123      00002D00 
 1123      0000
 1124 0f58 C7053800 		movl	$LC22, ___sput+56
 1124      0000BA01 
 1124      0000
 1125 0f62 C7053C00 		movl	$LC5, ___sput+60
 1125      00007800 
 1125      0000
 1126 0f6c A1300000 		movl	___sput+48, %eax
 1126      00
 1127 0f71 40       		incl	%eax
 1128 0f72 A3300000 		movl	%eax, ___sput+48
 1128      00
 1129 0f77 A1200000 		movl	___sput+32, %eax
 1129      00
 1130 0f7c 40       		incl	%eax
 1131 0f7d A3200000 		movl	%eax, ___sput+32
 1131      00
 1132 0f82 C70424D3 		movl	$LC23, (%esp)
 1132      010000
 1133 0f89 E8A2F0FF 		call	_count_vowels
 1133      FF
 1134 0f8e 85C0     		testl	%eax, %eax
 1135 0f90 0F84FD00 		je	L60
 1135      0000
 1136              		.loc 2 45 4 discriminator 7
 1137 0f96 A0040000 		movb	___sput+4, %al
 1137      00
 1138 0f9b 3C06     		cmpb	$6, %al
 1139 0f9d 7434     		je	L61
 1140              		.loc 2 45 4 discriminator 9
 1141 0f9f A1000000 		movl	__imp___iob, %eax
 1141      00
 1142 0fa4 83C040   		addl	$64, %eax
 1143 0fa7 8944240C 		movl	%eax, 12(%esp)
 1144 0fab C7442408 		movl	$29, 8(%esp)
 1144      1D000000 
 1145 0fb3 C7442404 		movl	$1, 4(%esp)
 1145      01000000 
 1146 0fbb C7042400 		movl	$LC0, (%esp)
 1146      000000
 1147 0fc2 E8000000 		call	_fwrite
 1147      00
 1148 0fc7 C7042401 		movl	$1, (%esp)
GAS LISTING C:\Users\PRESID~1\AppData\Local\Temp\ccCA8Smq.s 			page 40


 1148      000000
 1149 0fce E8000000 		call	_exit
 1149      00
 1150              	L61:
 1151              		.loc 2 45 4 discriminator 10
 1152 0fd3 A1180000 		movl	___sput+24, %eax
 1152      00
 1153 0fd8 85C0     		testl	%eax, %eax
 1154 0fda 7531     		jne	L62
 1155              		.loc 2 45 4 discriminator 11
 1156 0fdc A1000000 		movl	___sput, %eax
 1156      00
 1157 0fe1 8944240C 		movl	%eax, 12(%esp)
 1158 0fe5 C7442408 		movl	$27, 8(%esp)
 1158      1B000000 
 1159 0fed C7442404 		movl	$1, 4(%esp)
 1159      01000000 
 1160 0ff5 C704241E 		movl	$LC1, (%esp)
 1160      000000
 1161 0ffc E8000000 		call	_fwrite
 1161      00
 1162 1001 C7042401 		movl	$1, (%esp)
 1162      000000
 1163 1008 E8000000 		call	_exit
 1163      00
 1164              	L62:
 1165              		.loc 2 45 4 discriminator 12
 1166 100d A1280000 		movl	___sput+40, %eax
 1166      00
 1167 1012 40       		incl	%eax
 1168 1013 A3280000 		movl	%eax, ___sput+40
 1168      00
 1169 1018 8B154000 		movl	___sput+64, %edx
 1169      0000
 1170 101e 8B1D3800 		movl	___sput+56, %ebx
 1170      0000
 1171 1024 A13C0000 		movl	___sput+60, %eax
 1171      00
 1172 1029 8945E4   		movl	%eax, -28(%ebp)
 1173 102c 8B0D3400 		movl	___sput+52, %ecx
 1173      0000
 1174 1032 894DE0   		movl	%ecx, -32(%ebp)
 1175 1035 8B353000 		movl	___sput+48, %esi
 1175      0000
 1176 103b 8975DC   		movl	%esi, -36(%ebp)
 1177 103e 8B3D2C00 		movl	___sput+44, %edi
 1177      0000
 1178 1044 8B352000 		movl	___sput+32, %esi
 1178      0000
 1179 104a 8B0D1C00 		movl	___sput+28, %ecx
 1179      0000
 1180 1050 A1000000 		movl	___sput, %eax
 1180      00
 1181 1055 89542424 		movl	%edx, 36(%esp)
 1182 1059 895C2420 		movl	%ebx, 32(%esp)
 1183 105d 8B55E4   		movl	-28(%ebp), %edx
 1184 1060 8954241C 		movl	%edx, 28(%esp)
GAS LISTING C:\Users\PRESID~1\AppData\Local\Temp\ccCA8Smq.s 			page 41


 1185 1064 8B5DE0   		movl	-32(%ebp), %ebx
 1186 1067 895C2418 		movl	%ebx, 24(%esp)
 1187 106b 8B55DC   		movl	-36(%ebp), %edx
 1188 106e 89542414 		movl	%edx, 20(%esp)
 1189 1072 897C2410 		movl	%edi, 16(%esp)
 1190 1076 8974240C 		movl	%esi, 12(%esp)
 1191 107a 894C2408 		movl	%ecx, 8(%esp)
 1192 107e C7442404 		movl	$LC7, 4(%esp)
 1192      8C000000 
 1193 1086 890424   		movl	%eax, (%esp)
 1194 1089 E872EFFF 		call	_fprintf
 1194      FF
 1195 108e E9C90000 		jmp	L63
 1195      00
 1196              	L60:
 1197              		.loc 2 45 4 discriminator 8
 1198 1093 A0040000 		movb	___sput+4, %al
 1198      00
 1199 1098 3C06     		cmpb	$6, %al
 1200 109a 7434     		je	L64
 1201              		.loc 2 45 4 discriminator 13
 1202 109c A1000000 		movl	__imp___iob, %eax
 1202      00
 1203 10a1 83C040   		addl	$64, %eax
 1204 10a4 8944240C 		movl	%eax, 12(%esp)
 1205 10a8 C7442408 		movl	$29, 8(%esp)
 1205      1D000000 
 1206 10b0 C7442404 		movl	$1, 4(%esp)
 1206      01000000 
 1207 10b8 C7042400 		movl	$LC0, (%esp)
 1207      000000
 1208 10bf E8000000 		call	_fwrite
 1208      00
 1209 10c4 C7042401 		movl	$1, (%esp)
 1209      000000
 1210 10cb E8000000 		call	_exit
 1210      00
 1211              	L64:
 1212              		.loc 2 45 4 discriminator 14
 1213 10d0 A1180000 		movl	___sput+24, %eax
 1213      00
 1214 10d5 85C0     		testl	%eax, %eax
 1215 10d7 7531     		jne	L65
 1216              		.loc 2 45 4 discriminator 15
 1217 10d9 A1000000 		movl	___sput, %eax
 1217      00
 1218 10de 8944240C 		movl	%eax, 12(%esp)
 1219 10e2 C7442408 		movl	$27, 8(%esp)
 1219      1B000000 
 1220 10ea C7442404 		movl	$1, 4(%esp)
 1220      01000000 
 1221 10f2 C704241E 		movl	$LC1, (%esp)
 1221      000000
 1222 10f9 E8000000 		call	_fwrite
 1222      00
 1223 10fe C7042401 		movl	$1, (%esp)
 1223      000000
GAS LISTING C:\Users\PRESID~1\AppData\Local\Temp\ccCA8Smq.s 			page 42


 1224 1105 E8000000 		call	_exit
 1224      00
 1225              	L65:
 1226              		.loc 2 45 4 discriminator 16
 1227 110a A1240000 		movl	___sput+36, %eax
 1227      00
 1228 110f 40       		incl	%eax
 1229 1110 A3240000 		movl	%eax, ___sput+36
 1229      00
 1230 1115 8B3D3400 		movl	___sput+52, %edi
 1230      0000
 1231 111b 8B353000 		movl	___sput+48, %esi
 1231      0000
 1232 1121 8B1D2C00 		movl	___sput+44, %ebx
 1232      0000
 1233 1127 8B0D2000 		movl	___sput+32, %ecx
 1233      0000
 1234 112d 8B151C00 		movl	___sput+28, %edx
 1234      0000
 1235 1133 A1000000 		movl	___sput, %eax
 1235      00
 1236 1138 897C2418 		movl	%edi, 24(%esp)
 1237 113c 89742414 		movl	%esi, 20(%esp)
 1238 1140 895C2410 		movl	%ebx, 16(%esp)
 1239 1144 894C240C 		movl	%ecx, 12(%esp)
 1240 1148 89542408 		movl	%edx, 8(%esp)
 1241 114c C7442404 		movl	$LC8, 4(%esp)
 1241      E8000000 
 1242 1154 890424   		movl	%eax, (%esp)
 1243 1157 E8A4EEFF 		call	_fprintf
 1243      FF
 1244              	L63:
  46:C:/Users/president/Desktop/sbx/input/src/os_base\os_start_ext_prg_test.c ****    sput_fail_unless(count_vowels("BBC") == 0, "BBC == 0v");
 1245              		.loc 2 46 4 is_stmt 1
 1246 115c A0040000 		movb	___sput+4, %al
 1246      00
 1247 1161 3C06     		cmpb	$6, %al
 1248 1163 7434     		je	L66
 1249              		.loc 2 46 4 is_stmt 0 discriminator 1
 1250 1165 A1000000 		movl	__imp___iob, %eax
 1250      00
 1251 116a 83C040   		addl	$64, %eax
 1252 116d 8944240C 		movl	%eax, 12(%esp)
 1253 1171 C7442408 		movl	$29, 8(%esp)
 1253      1D000000 
 1254 1179 C7442404 		movl	$1, 4(%esp)
 1254      01000000 
 1255 1181 C7042400 		movl	$LC0, (%esp)
 1255      000000
 1256 1188 E8000000 		call	_fwrite
 1256      00
 1257 118d C7042401 		movl	$1, (%esp)
 1257      000000
 1258 1194 E8000000 		call	_exit
 1258      00
 1259              	L66:
 1260              		.loc 2 46 4 discriminator 2
GAS LISTING C:\Users\PRESID~1\AppData\Local\Temp\ccCA8Smq.s 			page 43


 1261 1199 A1180000 		movl	___sput+24, %eax
 1261      00
 1262 119e 85C0     		testl	%eax, %eax
 1263 11a0 7531     		jne	L67
 1264              		.loc 2 46 4 discriminator 3
 1265 11a2 A1000000 		movl	___sput, %eax
 1265      00
 1266 11a7 8944240C 		movl	%eax, 12(%esp)
 1267 11ab C7442408 		movl	$27, 8(%esp)
 1267      1B000000 
 1268 11b3 C7442404 		movl	$1, 4(%esp)
 1268      01000000 
 1269 11bb C704241E 		movl	$LC1, (%esp)
 1269      000000
 1270 11c2 E8000000 		call	_fwrite
 1270      00
 1271 11c7 C7042401 		movl	$1, (%esp)
 1271      000000
 1272 11ce E8000000 		call	_exit
 1272      00
 1273              	L67:
 1274              		.loc 2 46 4 discriminator 4
 1275 11d3 A12C0000 		movl	___sput+44, %eax
 1275      00
 1276 11d8 85C0     		testl	%eax, %eax
 1277 11da 7531     		jne	L68
 1278              		.loc 2 46 4 discriminator 5
 1279 11dc A1000000 		movl	___sput, %eax
 1279      00
 1280 11e1 8944240C 		movl	%eax, 12(%esp)
 1281 11e5 C7442408 		movl	$24, 8(%esp)
 1281      18000000 
 1282 11ed C7442404 		movl	$1, 4(%esp)
 1282      01000000 
 1283 11f5 C704243A 		movl	$LC2, (%esp)
 1283      000000
 1284 11fc E8000000 		call	_fwrite
 1284      00
 1285 1201 C7042401 		movl	$1, (%esp)
 1285      000000
 1286 1208 E8000000 		call	_exit
 1286      00
 1287              	L68:
 1288              		.loc 2 46 4 discriminator 6
 1289 120d C7053400 		movl	$LC24, ___sput+52
 1289      0000D701 
 1289      0000
 1290 1217 C7054000 		movl	$46, ___sput+64
 1290      00002E00 
 1290      0000
 1291 1221 C7053800 		movl	$LC25, ___sput+56
 1291      0000E101 
 1291      0000
 1292 122b C7053C00 		movl	$LC5, ___sput+60
 1292      00007800 
 1292      0000
 1293 1235 A1300000 		movl	___sput+48, %eax
GAS LISTING C:\Users\PRESID~1\AppData\Local\Temp\ccCA8Smq.s 			page 44


 1293      00
 1294 123a 40       		incl	%eax
 1295 123b A3300000 		movl	%eax, ___sput+48
 1295      00
 1296 1240 A1200000 		movl	___sput+32, %eax
 1296      00
 1297 1245 40       		incl	%eax
 1298 1246 A3200000 		movl	%eax, ___sput+32
 1298      00
 1299 124b C70424FA 		movl	$LC26, (%esp)
 1299      010000
 1300 1252 E8D9EDFF 		call	_count_vowels
 1300      FF
 1301 1257 85C0     		testl	%eax, %eax
 1302 1259 0F84FD00 		je	L69
 1302      0000
 1303              		.loc 2 46 4 discriminator 7
 1304 125f A0040000 		movb	___sput+4, %al
 1304      00
 1305 1264 3C06     		cmpb	$6, %al
 1306 1266 7434     		je	L70
 1307              		.loc 2 46 4 discriminator 9
 1308 1268 A1000000 		movl	__imp___iob, %eax
 1308      00
 1309 126d 83C040   		addl	$64, %eax
 1310 1270 8944240C 		movl	%eax, 12(%esp)
 1311 1274 C7442408 		movl	$29, 8(%esp)
 1311      1D000000 
 1312 127c C7442404 		movl	$1, 4(%esp)
 1312      01000000 
 1313 1284 C7042400 		movl	$LC0, (%esp)
 1313      000000
 1314 128b E8000000 		call	_fwrite
 1314      00
 1315 1290 C7042401 		movl	$1, (%esp)
 1315      000000
 1316 1297 E8000000 		call	_exit
 1316      00
 1317              	L70:
 1318              		.loc 2 46 4 discriminator 10
 1319 129c A1180000 		movl	___sput+24, %eax
 1319      00
 1320 12a1 85C0     		testl	%eax, %eax
 1321 12a3 7531     		jne	L71
 1322              		.loc 2 46 4 discriminator 11
 1323 12a5 A1000000 		movl	___sput, %eax
 1323      00
 1324 12aa 8944240C 		movl	%eax, 12(%esp)
 1325 12ae C7442408 		movl	$27, 8(%esp)
 1325      1B000000 
 1326 12b6 C7442404 		movl	$1, 4(%esp)
 1326      01000000 
 1327 12be C704241E 		movl	$LC1, (%esp)
 1327      000000
 1328 12c5 E8000000 		call	_fwrite
 1328      00
 1329 12ca C7042401 		movl	$1, (%esp)
GAS LISTING C:\Users\PRESID~1\AppData\Local\Temp\ccCA8Smq.s 			page 45


 1329      000000
 1330 12d1 E8000000 		call	_exit
 1330      00
 1331              	L71:
 1332              		.loc 2 46 4 discriminator 12
 1333 12d6 A1280000 		movl	___sput+40, %eax
 1333      00
 1334 12db 40       		incl	%eax
 1335 12dc A3280000 		movl	%eax, ___sput+40
 1335      00
 1336 12e1 8B154000 		movl	___sput+64, %edx
 1336      0000
 1337 12e7 8B1D3800 		movl	___sput+56, %ebx
 1337      0000
 1338 12ed A13C0000 		movl	___sput+60, %eax
 1338      00
 1339 12f2 8945E4   		movl	%eax, -28(%ebp)
 1340 12f5 8B3D3400 		movl	___sput+52, %edi
 1340      0000
 1341 12fb 897DE0   		movl	%edi, -32(%ebp)
 1342 12fe 8B0D3000 		movl	___sput+48, %ecx
 1342      0000
 1343 1304 894DDC   		movl	%ecx, -36(%ebp)
 1344 1307 8B3D2C00 		movl	___sput+44, %edi
 1344      0000
 1345 130d 8B352000 		movl	___sput+32, %esi
 1345      0000
 1346 1313 8B0D1C00 		movl	___sput+28, %ecx
 1346      0000
 1347 1319 A1000000 		movl	___sput, %eax
 1347      00
 1348 131e 89542424 		movl	%edx, 36(%esp)
 1349 1322 895C2420 		movl	%ebx, 32(%esp)
 1350 1326 8B5DE4   		movl	-28(%ebp), %ebx
 1351 1329 895C241C 		movl	%ebx, 28(%esp)
 1352 132d 8B55E0   		movl	-32(%ebp), %edx
 1353 1330 89542418 		movl	%edx, 24(%esp)
 1354 1334 8B5DDC   		movl	-36(%ebp), %ebx
 1355 1337 895C2414 		movl	%ebx, 20(%esp)
 1356 133b 897C2410 		movl	%edi, 16(%esp)
 1357 133f 8974240C 		movl	%esi, 12(%esp)
 1358 1343 894C2408 		movl	%ecx, 8(%esp)
 1359 1347 C7442404 		movl	$LC7, 4(%esp)
 1359      8C000000 
 1360 134f 890424   		movl	%eax, (%esp)
 1361 1352 E8A9ECFF 		call	_fprintf
 1361      FF
 1362 1357 E9C90000 		jmp	L72
 1362      00
 1363              	L69:
 1364              		.loc 2 46 4 discriminator 8
 1365 135c A0040000 		movb	___sput+4, %al
 1365      00
 1366 1361 3C06     		cmpb	$6, %al
 1367 1363 7434     		je	L73
 1368              		.loc 2 46 4 discriminator 13
 1369 1365 A1000000 		movl	__imp___iob, %eax
GAS LISTING C:\Users\PRESID~1\AppData\Local\Temp\ccCA8Smq.s 			page 46


 1369      00
 1370 136a 83C040   		addl	$64, %eax
 1371 136d 8944240C 		movl	%eax, 12(%esp)
 1372 1371 C7442408 		movl	$29, 8(%esp)
 1372      1D000000 
 1373 1379 C7442404 		movl	$1, 4(%esp)
 1373      01000000 
 1374 1381 C7042400 		movl	$LC0, (%esp)
 1374      000000
 1375 1388 E8000000 		call	_fwrite
 1375      00
 1376 138d C7042401 		movl	$1, (%esp)
 1376      000000
 1377 1394 E8000000 		call	_exit
 1377      00
 1378              	L73:
 1379              		.loc 2 46 4 discriminator 14
 1380 1399 A1180000 		movl	___sput+24, %eax
 1380      00
 1381 139e 85C0     		testl	%eax, %eax
 1382 13a0 7531     		jne	L74
 1383              		.loc 2 46 4 discriminator 15
 1384 13a2 A1000000 		movl	___sput, %eax
 1384      00
 1385 13a7 8944240C 		movl	%eax, 12(%esp)
 1386 13ab C7442408 		movl	$27, 8(%esp)
 1386      1B000000 
 1387 13b3 C7442404 		movl	$1, 4(%esp)
 1387      01000000 
 1388 13bb C704241E 		movl	$LC1, (%esp)
 1388      000000
 1389 13c2 E8000000 		call	_fwrite
 1389      00
 1390 13c7 C7042401 		movl	$1, (%esp)
 1390      000000
 1391 13ce E8000000 		call	_exit
 1391      00
 1392              	L74:
 1393              		.loc 2 46 4 discriminator 16
 1394 13d3 A1240000 		movl	___sput+36, %eax
 1394      00
 1395 13d8 40       		incl	%eax
 1396 13d9 A3240000 		movl	%eax, ___sput+36
 1396      00
 1397 13de 8B3D3400 		movl	___sput+52, %edi
 1397      0000
 1398 13e4 8B353000 		movl	___sput+48, %esi
 1398      0000
 1399 13ea 8B1D2C00 		movl	___sput+44, %ebx
 1399      0000
 1400 13f0 8B0D2000 		movl	___sput+32, %ecx
 1400      0000
 1401 13f6 8B151C00 		movl	___sput+28, %edx
 1401      0000
 1402 13fc A1000000 		movl	___sput, %eax
 1402      00
 1403 1401 897C2418 		movl	%edi, 24(%esp)
GAS LISTING C:\Users\PRESID~1\AppData\Local\Temp\ccCA8Smq.s 			page 47


 1404 1405 89742414 		movl	%esi, 20(%esp)
 1405 1409 895C2410 		movl	%ebx, 16(%esp)
 1406 140d 894C240C 		movl	%ecx, 12(%esp)
 1407 1411 89542408 		movl	%edx, 8(%esp)
 1408 1415 C7442404 		movl	$LC8, 4(%esp)
 1408      E8000000 
 1409 141d 890424   		movl	%eax, (%esp)
 1410 1420 E8DBEBFF 		call	_fprintf
 1410      FF
 1411              	L72:
  47:C:/Users/president/Desktop/sbx/input/src/os_base\os_start_ext_prg_test.c ****    sput_fail_unless(count_vowels("CNN") == 0, "CNN == 0v");
 1412              		.loc 2 47 4 is_stmt 1
 1413 1425 A0040000 		movb	___sput+4, %al
 1413      00
 1414 142a 3C06     		cmpb	$6, %al
 1415 142c 7434     		je	L75
 1416              		.loc 2 47 4 is_stmt 0 discriminator 1
 1417 142e A1000000 		movl	__imp___iob, %eax
 1417      00
 1418 1433 83C040   		addl	$64, %eax
 1419 1436 8944240C 		movl	%eax, 12(%esp)
 1420 143a C7442408 		movl	$29, 8(%esp)
 1420      1D000000 
 1421 1442 C7442404 		movl	$1, 4(%esp)
 1421      01000000 
 1422 144a C7042400 		movl	$LC0, (%esp)
 1422      000000
 1423 1451 E8000000 		call	_fwrite
 1423      00
 1424 1456 C7042401 		movl	$1, (%esp)
 1424      000000
 1425 145d E8000000 		call	_exit
 1425      00
 1426              	L75:
 1427              		.loc 2 47 4 discriminator 2
 1428 1462 A1180000 		movl	___sput+24, %eax
 1428      00
 1429 1467 85C0     		testl	%eax, %eax
 1430 1469 7531     		jne	L76
 1431              		.loc 2 47 4 discriminator 3
 1432 146b A1000000 		movl	___sput, %eax
 1432      00
 1433 1470 8944240C 		movl	%eax, 12(%esp)
 1434 1474 C7442408 		movl	$27, 8(%esp)
 1434      1B000000 
 1435 147c C7442404 		movl	$1, 4(%esp)
 1435      01000000 
 1436 1484 C704241E 		movl	$LC1, (%esp)
 1436      000000
 1437 148b E8000000 		call	_fwrite
 1437      00
 1438 1490 C7042401 		movl	$1, (%esp)
 1438      000000
 1439 1497 E8000000 		call	_exit
 1439      00
 1440              	L76:
 1441              		.loc 2 47 4 discriminator 4
GAS LISTING C:\Users\PRESID~1\AppData\Local\Temp\ccCA8Smq.s 			page 48


 1442 149c A12C0000 		movl	___sput+44, %eax
 1442      00
 1443 14a1 85C0     		testl	%eax, %eax
 1444 14a3 7531     		jne	L77
 1445              		.loc 2 47 4 discriminator 5
 1446 14a5 A1000000 		movl	___sput, %eax
 1446      00
 1447 14aa 8944240C 		movl	%eax, 12(%esp)
 1448 14ae C7442408 		movl	$24, 8(%esp)
 1448      18000000 
 1449 14b6 C7442404 		movl	$1, 4(%esp)
 1449      01000000 
 1450 14be C704243A 		movl	$LC2, (%esp)
 1450      000000
 1451 14c5 E8000000 		call	_fwrite
 1451      00
 1452 14ca C7042401 		movl	$1, (%esp)
 1452      000000
 1453 14d1 E8000000 		call	_exit
 1453      00
 1454              	L77:
 1455              		.loc 2 47 4 discriminator 6
 1456 14d6 C7053400 		movl	$LC27, ___sput+52
 1456      0000FE01 
 1456      0000
 1457 14e0 C7054000 		movl	$47, ___sput+64
 1457      00002F00 
 1457      0000
 1458 14ea C7053800 		movl	$LC28, ___sput+56
 1458      00000802 
 1458      0000
 1459 14f4 C7053C00 		movl	$LC5, ___sput+60
 1459      00007800 
 1459      0000
 1460 14fe A1300000 		movl	___sput+48, %eax
 1460      00
 1461 1503 40       		incl	%eax
 1462 1504 A3300000 		movl	%eax, ___sput+48
 1462      00
 1463 1509 A1200000 		movl	___sput+32, %eax
 1463      00
 1464 150e 40       		incl	%eax
 1465 150f A3200000 		movl	%eax, ___sput+32
 1465      00
 1466 1514 C7042421 		movl	$LC29, (%esp)
 1466      020000
 1467 151b E810EBFF 		call	_count_vowels
 1467      FF
 1468 1520 85C0     		testl	%eax, %eax
 1469 1522 0F84FD00 		je	L78
 1469      0000
 1470              		.loc 2 47 4 discriminator 7
 1471 1528 A0040000 		movb	___sput+4, %al
 1471      00
 1472 152d 3C06     		cmpb	$6, %al
 1473 152f 7434     		je	L79
 1474              		.loc 2 47 4 discriminator 9
GAS LISTING C:\Users\PRESID~1\AppData\Local\Temp\ccCA8Smq.s 			page 49


 1475 1531 A1000000 		movl	__imp___iob, %eax
 1475      00
 1476 1536 83C040   		addl	$64, %eax
 1477 1539 8944240C 		movl	%eax, 12(%esp)
 1478 153d C7442408 		movl	$29, 8(%esp)
 1478      1D000000 
 1479 1545 C7442404 		movl	$1, 4(%esp)
 1479      01000000 
 1480 154d C7042400 		movl	$LC0, (%esp)
 1480      000000
 1481 1554 E8000000 		call	_fwrite
 1481      00
 1482 1559 C7042401 		movl	$1, (%esp)
 1482      000000
 1483 1560 E8000000 		call	_exit
 1483      00
 1484              	L79:
 1485              		.loc 2 47 4 discriminator 10
 1486 1565 A1180000 		movl	___sput+24, %eax
 1486      00
 1487 156a 85C0     		testl	%eax, %eax
 1488 156c 7531     		jne	L80
 1489              		.loc 2 47 4 discriminator 11
 1490 156e A1000000 		movl	___sput, %eax
 1490      00
 1491 1573 8944240C 		movl	%eax, 12(%esp)
 1492 1577 C7442408 		movl	$27, 8(%esp)
 1492      1B000000 
 1493 157f C7442404 		movl	$1, 4(%esp)
 1493      01000000 
 1494 1587 C704241E 		movl	$LC1, (%esp)
 1494      000000
 1495 158e E8000000 		call	_fwrite
 1495      00
 1496 1593 C7042401 		movl	$1, (%esp)
 1496      000000
 1497 159a E8000000 		call	_exit
 1497      00
 1498              	L80:
 1499              		.loc 2 47 4 discriminator 12
 1500 159f A1280000 		movl	___sput+40, %eax
 1500      00
 1501 15a4 40       		incl	%eax
 1502 15a5 A3280000 		movl	%eax, ___sput+40
 1502      00
 1503 15aa 8B154000 		movl	___sput+64, %edx
 1503      0000
 1504 15b0 8B1D3800 		movl	___sput+56, %ebx
 1504      0000
 1505 15b6 A13C0000 		movl	___sput+60, %eax
 1505      00
 1506 15bb 8945E4   		movl	%eax, -28(%ebp)
 1507 15be 8B353400 		movl	___sput+52, %esi
 1507      0000
 1508 15c4 8975E0   		movl	%esi, -32(%ebp)
 1509 15c7 8B3D3000 		movl	___sput+48, %edi
 1509      0000
GAS LISTING C:\Users\PRESID~1\AppData\Local\Temp\ccCA8Smq.s 			page 50


 1510 15cd 897DDC   		movl	%edi, -36(%ebp)
 1511 15d0 8B3D2C00 		movl	___sput+44, %edi
 1511      0000
 1512 15d6 8B352000 		movl	___sput+32, %esi
 1512      0000
 1513 15dc 8B0D1C00 		movl	___sput+28, %ecx
 1513      0000
 1514 15e2 A1000000 		movl	___sput, %eax
 1514      00
 1515 15e7 89542424 		movl	%edx, 36(%esp)
 1516 15eb 895C2420 		movl	%ebx, 32(%esp)
 1517 15ef 8B55E4   		movl	-28(%ebp), %edx
 1518 15f2 8954241C 		movl	%edx, 28(%esp)
 1519 15f6 8B5DE0   		movl	-32(%ebp), %ebx
 1520 15f9 895C2418 		movl	%ebx, 24(%esp)
 1521 15fd 8B55DC   		movl	-36(%ebp), %edx
 1522 1600 89542414 		movl	%edx, 20(%esp)
 1523 1604 897C2410 		movl	%edi, 16(%esp)
 1524 1608 8974240C 		movl	%esi, 12(%esp)
 1525 160c 894C2408 		movl	%ecx, 8(%esp)
 1526 1610 C7442404 		movl	$LC7, 4(%esp)
 1526      8C000000 
 1527 1618 890424   		movl	%eax, (%esp)
 1528 161b E8E0E9FF 		call	_fprintf
 1528      FF
 1529 1620 E9C90000 		jmp	L81
 1529      00
 1530              	L78:
 1531              		.loc 2 47 4 discriminator 8
 1532 1625 A0040000 		movb	___sput+4, %al
 1532      00
 1533 162a 3C06     		cmpb	$6, %al
 1534 162c 7434     		je	L82
 1535              		.loc 2 47 4 discriminator 13
 1536 162e A1000000 		movl	__imp___iob, %eax
 1536      00
 1537 1633 83C040   		addl	$64, %eax
 1538 1636 8944240C 		movl	%eax, 12(%esp)
 1539 163a C7442408 		movl	$29, 8(%esp)
 1539      1D000000 
 1540 1642 C7442404 		movl	$1, 4(%esp)
 1540      01000000 
 1541 164a C7042400 		movl	$LC0, (%esp)
 1541      000000
 1542 1651 E8000000 		call	_fwrite
 1542      00
 1543 1656 C7042401 		movl	$1, (%esp)
 1543      000000
 1544 165d E8000000 		call	_exit
 1544      00
 1545              	L82:
 1546              		.loc 2 47 4 discriminator 14
 1547 1662 A1180000 		movl	___sput+24, %eax
 1547      00
 1548 1667 85C0     		testl	%eax, %eax
 1549 1669 7531     		jne	L83
 1550              		.loc 2 47 4 discriminator 15
GAS LISTING C:\Users\PRESID~1\AppData\Local\Temp\ccCA8Smq.s 			page 51


 1551 166b A1000000 		movl	___sput, %eax
 1551      00
 1552 1670 8944240C 		movl	%eax, 12(%esp)
 1553 1674 C7442408 		movl	$27, 8(%esp)
 1553      1B000000 
 1554 167c C7442404 		movl	$1, 4(%esp)
 1554      01000000 
 1555 1684 C704241E 		movl	$LC1, (%esp)
 1555      000000
 1556 168b E8000000 		call	_fwrite
 1556      00
 1557 1690 C7042401 		movl	$1, (%esp)
 1557      000000
 1558 1697 E8000000 		call	_exit
 1558      00
 1559              	L83:
 1560              		.loc 2 47 4 discriminator 16
 1561 169c A1240000 		movl	___sput+36, %eax
 1561      00
 1562 16a1 40       		incl	%eax
 1563 16a2 A3240000 		movl	%eax, ___sput+36
 1563      00
 1564 16a7 8B3D3400 		movl	___sput+52, %edi
 1564      0000
 1565 16ad 8B353000 		movl	___sput+48, %esi
 1565      0000
 1566 16b3 8B1D2C00 		movl	___sput+44, %ebx
 1566      0000
 1567 16b9 8B0D2000 		movl	___sput+32, %ecx
 1567      0000
 1568 16bf 8B151C00 		movl	___sput+28, %edx
 1568      0000
 1569 16c5 A1000000 		movl	___sput, %eax
 1569      00
 1570 16ca 897C2418 		movl	%edi, 24(%esp)
 1571 16ce 89742414 		movl	%esi, 20(%esp)
 1572 16d2 895C2410 		movl	%ebx, 16(%esp)
 1573 16d6 894C240C 		movl	%ecx, 12(%esp)
 1574 16da 89542408 		movl	%edx, 8(%esp)
 1575 16de C7442404 		movl	$LC8, 4(%esp)
 1575      E8000000 
 1576 16e6 890424   		movl	%eax, (%esp)
 1577 16e9 E812E9FF 		call	_fprintf
 1577      FF
 1578              	L81:
  48:C:/Users/president/Desktop/sbx/input/src/os_base\os_start_ext_prg_test.c ****    sput_fail_unless(count_vowels("GPS") == 0, "GPS == 0v");
 1579              		.loc 2 48 4 is_stmt 1
 1580 16ee A0040000 		movb	___sput+4, %al
 1580      00
 1581 16f3 3C06     		cmpb	$6, %al
 1582 16f5 7434     		je	L84
 1583              		.loc 2 48 4 is_stmt 0 discriminator 1
 1584 16f7 A1000000 		movl	__imp___iob, %eax
 1584      00
 1585 16fc 83C040   		addl	$64, %eax
 1586 16ff 8944240C 		movl	%eax, 12(%esp)
 1587 1703 C7442408 		movl	$29, 8(%esp)
GAS LISTING C:\Users\PRESID~1\AppData\Local\Temp\ccCA8Smq.s 			page 52


 1587      1D000000 
 1588 170b C7442404 		movl	$1, 4(%esp)
 1588      01000000 
 1589 1713 C7042400 		movl	$LC0, (%esp)
 1589      000000
 1590 171a E8000000 		call	_fwrite
 1590      00
 1591 171f C7042401 		movl	$1, (%esp)
 1591      000000
 1592 1726 E8000000 		call	_exit
 1592      00
 1593              	L84:
 1594              		.loc 2 48 4 discriminator 2
 1595 172b A1180000 		movl	___sput+24, %eax
 1595      00
 1596 1730 85C0     		testl	%eax, %eax
 1597 1732 7531     		jne	L85
 1598              		.loc 2 48 4 discriminator 3
 1599 1734 A1000000 		movl	___sput, %eax
 1599      00
 1600 1739 8944240C 		movl	%eax, 12(%esp)
 1601 173d C7442408 		movl	$27, 8(%esp)
 1601      1B000000 
 1602 1745 C7442404 		movl	$1, 4(%esp)
 1602      01000000 
 1603 174d C704241E 		movl	$LC1, (%esp)
 1603      000000
 1604 1754 E8000000 		call	_fwrite
 1604      00
 1605 1759 C7042401 		movl	$1, (%esp)
 1605      000000
 1606 1760 E8000000 		call	_exit
 1606      00
 1607              	L85:
 1608              		.loc 2 48 4 discriminator 4
 1609 1765 A12C0000 		movl	___sput+44, %eax
 1609      00
 1610 176a 85C0     		testl	%eax, %eax
 1611 176c 7531     		jne	L86
 1612              		.loc 2 48 4 discriminator 5
 1613 176e A1000000 		movl	___sput, %eax
 1613      00
 1614 1773 8944240C 		movl	%eax, 12(%esp)
 1615 1777 C7442408 		movl	$24, 8(%esp)
 1615      18000000 
 1616 177f C7442404 		movl	$1, 4(%esp)
 1616      01000000 
 1617 1787 C704243A 		movl	$LC2, (%esp)
 1617      000000
 1618 178e E8000000 		call	_fwrite
 1618      00
 1619 1793 C7042401 		movl	$1, (%esp)
 1619      000000
 1620 179a E8000000 		call	_exit
 1620      00
 1621              	L86:
 1622              		.loc 2 48 4 discriminator 6
GAS LISTING C:\Users\PRESID~1\AppData\Local\Temp\ccCA8Smq.s 			page 53


 1623 179f C7053400 		movl	$LC30, ___sput+52
 1623      00002502 
 1623      0000
 1624 17a9 C7054000 		movl	$48, ___sput+64
 1624      00003000 
 1624      0000
 1625 17b3 C7053800 		movl	$LC31, ___sput+56
 1625      00002F02 
 1625      0000
 1626 17bd C7053C00 		movl	$LC5, ___sput+60
 1626      00007800 
 1626      0000
 1627 17c7 A1300000 		movl	___sput+48, %eax
 1627      00
 1628 17cc 40       		incl	%eax
 1629 17cd A3300000 		movl	%eax, ___sput+48
 1629      00
 1630 17d2 A1200000 		movl	___sput+32, %eax
 1630      00
 1631 17d7 40       		incl	%eax
 1632 17d8 A3200000 		movl	%eax, ___sput+32
 1632      00
 1633 17dd C7042448 		movl	$LC32, (%esp)
 1633      020000
 1634 17e4 E847E8FF 		call	_count_vowels
 1634      FF
 1635 17e9 85C0     		testl	%eax, %eax
 1636 17eb 0F84FD00 		je	L87
 1636      0000
 1637              		.loc 2 48 4 discriminator 7
 1638 17f1 A0040000 		movb	___sput+4, %al
 1638      00
 1639 17f6 3C06     		cmpb	$6, %al
 1640 17f8 7434     		je	L88
 1641              		.loc 2 48 4 discriminator 9
 1642 17fa A1000000 		movl	__imp___iob, %eax
 1642      00
 1643 17ff 83C040   		addl	$64, %eax
 1644 1802 8944240C 		movl	%eax, 12(%esp)
 1645 1806 C7442408 		movl	$29, 8(%esp)
 1645      1D000000 
 1646 180e C7442404 		movl	$1, 4(%esp)
 1646      01000000 
 1647 1816 C7042400 		movl	$LC0, (%esp)
 1647      000000
 1648 181d E8000000 		call	_fwrite
 1648      00
 1649 1822 C7042401 		movl	$1, (%esp)
 1649      000000
 1650 1829 E8000000 		call	_exit
 1650      00
 1651              	L88:
 1652              		.loc 2 48 4 discriminator 10
 1653 182e A1180000 		movl	___sput+24, %eax
 1653      00
 1654 1833 85C0     		testl	%eax, %eax
 1655 1835 7531     		jne	L89
GAS LISTING C:\Users\PRESID~1\AppData\Local\Temp\ccCA8Smq.s 			page 54


 1656              		.loc 2 48 4 discriminator 11
 1657 1837 A1000000 		movl	___sput, %eax
 1657      00
 1658 183c 8944240C 		movl	%eax, 12(%esp)
 1659 1840 C7442408 		movl	$27, 8(%esp)
 1659      1B000000 
 1660 1848 C7442404 		movl	$1, 4(%esp)
 1660      01000000 
 1661 1850 C704241E 		movl	$LC1, (%esp)
 1661      000000
 1662 1857 E8000000 		call	_fwrite
 1662      00
 1663 185c C7042401 		movl	$1, (%esp)
 1663      000000
 1664 1863 E8000000 		call	_exit
 1664      00
 1665              	L89:
 1666              		.loc 2 48 4 discriminator 12
 1667 1868 A1280000 		movl	___sput+40, %eax
 1667      00
 1668 186d 40       		incl	%eax
 1669 186e A3280000 		movl	%eax, ___sput+40
 1669      00
 1670 1873 8B154000 		movl	___sput+64, %edx
 1670      0000
 1671 1879 8B1D3800 		movl	___sput+56, %ebx
 1671      0000
 1672 187f A13C0000 		movl	___sput+60, %eax
 1672      00
 1673 1884 8945E4   		movl	%eax, -28(%ebp)
 1674 1887 8B0D3400 		movl	___sput+52, %ecx
 1674      0000
 1675 188d 894DE0   		movl	%ecx, -32(%ebp)
 1676 1890 8B353000 		movl	___sput+48, %esi
 1676      0000
 1677 1896 8975DC   		movl	%esi, -36(%ebp)
 1678 1899 8B3D2C00 		movl	___sput+44, %edi
 1678      0000
 1679 189f 8B352000 		movl	___sput+32, %esi
 1679      0000
 1680 18a5 8B0D1C00 		movl	___sput+28, %ecx
 1680      0000
 1681 18ab A1000000 		movl	___sput, %eax
 1681      00
 1682 18b0 89542424 		movl	%edx, 36(%esp)
 1683 18b4 895C2420 		movl	%ebx, 32(%esp)
 1684 18b8 8B5DE4   		movl	-28(%ebp), %ebx
 1685 18bb 895C241C 		movl	%ebx, 28(%esp)
 1686 18bf 8B55E0   		movl	-32(%ebp), %edx
 1687 18c2 89542418 		movl	%edx, 24(%esp)
 1688 18c6 8B5DDC   		movl	-36(%ebp), %ebx
 1689 18c9 895C2414 		movl	%ebx, 20(%esp)
 1690 18cd 897C2410 		movl	%edi, 16(%esp)
 1691 18d1 8974240C 		movl	%esi, 12(%esp)
 1692 18d5 894C2408 		movl	%ecx, 8(%esp)
 1693 18d9 C7442404 		movl	$LC7, 4(%esp)
 1693      8C000000 
GAS LISTING C:\Users\PRESID~1\AppData\Local\Temp\ccCA8Smq.s 			page 55


 1694 18e1 890424   		movl	%eax, (%esp)
 1695 18e4 E817E7FF 		call	_fprintf
 1695      FF
 1696 18e9 E9C90000 		jmp	L90
 1696      00
 1697              	L87:
 1698              		.loc 2 48 4 discriminator 8
 1699 18ee A0040000 		movb	___sput+4, %al
 1699      00
 1700 18f3 3C06     		cmpb	$6, %al
 1701 18f5 7434     		je	L91
 1702              		.loc 2 48 4 discriminator 13
 1703 18f7 A1000000 		movl	__imp___iob, %eax
 1703      00
 1704 18fc 83C040   		addl	$64, %eax
 1705 18ff 8944240C 		movl	%eax, 12(%esp)
 1706 1903 C7442408 		movl	$29, 8(%esp)
 1706      1D000000 
 1707 190b C7442404 		movl	$1, 4(%esp)
 1707      01000000 
 1708 1913 C7042400 		movl	$LC0, (%esp)
 1708      000000
 1709 191a E8000000 		call	_fwrite
 1709      00
 1710 191f C7042401 		movl	$1, (%esp)
 1710      000000
 1711 1926 E8000000 		call	_exit
 1711      00
 1712              	L91:
 1713              		.loc 2 48 4 discriminator 14
 1714 192b A1180000 		movl	___sput+24, %eax
 1714      00
 1715 1930 85C0     		testl	%eax, %eax
 1716 1932 7531     		jne	L92
 1717              		.loc 2 48 4 discriminator 15
 1718 1934 A1000000 		movl	___sput, %eax
 1718      00
 1719 1939 8944240C 		movl	%eax, 12(%esp)
 1720 193d C7442408 		movl	$27, 8(%esp)
 1720      1B000000 
 1721 1945 C7442404 		movl	$1, 4(%esp)
 1721      01000000 
 1722 194d C704241E 		movl	$LC1, (%esp)
 1722      000000
 1723 1954 E8000000 		call	_fwrite
 1723      00
 1724 1959 C7042401 		movl	$1, (%esp)
 1724      000000
 1725 1960 E8000000 		call	_exit
 1725      00
 1726              	L92:
 1727              		.loc 2 48 4 discriminator 16
 1728 1965 A1240000 		movl	___sput+36, %eax
 1728      00
 1729 196a 40       		incl	%eax
 1730 196b A3240000 		movl	%eax, ___sput+36
 1730      00
GAS LISTING C:\Users\PRESID~1\AppData\Local\Temp\ccCA8Smq.s 			page 56


 1731 1970 8B3D3400 		movl	___sput+52, %edi
 1731      0000
 1732 1976 8B353000 		movl	___sput+48, %esi
 1732      0000
 1733 197c 8B1D2C00 		movl	___sput+44, %ebx
 1733      0000
 1734 1982 8B0D2000 		movl	___sput+32, %ecx
 1734      0000
 1735 1988 8B151C00 		movl	___sput+28, %edx
 1735      0000
 1736 198e A1000000 		movl	___sput, %eax
 1736      00
 1737 1993 897C2418 		movl	%edi, 24(%esp)
 1738 1997 89742414 		movl	%esi, 20(%esp)
 1739 199b 895C2410 		movl	%ebx, 16(%esp)
 1740 199f 894C240C 		movl	%ecx, 12(%esp)
 1741 19a3 89542408 		movl	%edx, 8(%esp)
 1742 19a7 C7442404 		movl	$LC8, 4(%esp)
 1742      E8000000 
 1743 19af 890424   		movl	%eax, (%esp)
 1744 19b2 E849E6FF 		call	_fprintf
 1744      FF
 1745              	L90:
  49:C:/Users/president/Desktop/sbx/input/src/os_base\os_start_ext_prg_test.c ****    sput_fail_unless(count_vowels("Ltd") == 0, "Ltd == 0v");
 1746              		.loc 2 49 4 is_stmt 1
 1747 19b7 A0040000 		movb	___sput+4, %al
 1747      00
 1748 19bc 3C06     		cmpb	$6, %al
 1749 19be 7434     		je	L93
 1750              		.loc 2 49 4 is_stmt 0 discriminator 1
 1751 19c0 A1000000 		movl	__imp___iob, %eax
 1751      00
 1752 19c5 83C040   		addl	$64, %eax
 1753 19c8 8944240C 		movl	%eax, 12(%esp)
 1754 19cc C7442408 		movl	$29, 8(%esp)
 1754      1D000000 
 1755 19d4 C7442404 		movl	$1, 4(%esp)
 1755      01000000 
 1756 19dc C7042400 		movl	$LC0, (%esp)
 1756      000000
 1757 19e3 E8000000 		call	_fwrite
 1757      00
 1758 19e8 C7042401 		movl	$1, (%esp)
 1758      000000
 1759 19ef E8000000 		call	_exit
 1759      00
 1760              	L93:
 1761              		.loc 2 49 4 discriminator 2
 1762 19f4 A1180000 		movl	___sput+24, %eax
 1762      00
 1763 19f9 85C0     		testl	%eax, %eax
 1764 19fb 7531     		jne	L94
 1765              		.loc 2 49 4 discriminator 3
 1766 19fd A1000000 		movl	___sput, %eax
 1766      00
 1767 1a02 8944240C 		movl	%eax, 12(%esp)
 1768 1a06 C7442408 		movl	$27, 8(%esp)
GAS LISTING C:\Users\PRESID~1\AppData\Local\Temp\ccCA8Smq.s 			page 57


 1768      1B000000 
 1769 1a0e C7442404 		movl	$1, 4(%esp)
 1769      01000000 
 1770 1a16 C704241E 		movl	$LC1, (%esp)
 1770      000000
 1771 1a1d E8000000 		call	_fwrite
 1771      00
 1772 1a22 C7042401 		movl	$1, (%esp)
 1772      000000
 1773 1a29 E8000000 		call	_exit
 1773      00
 1774              	L94:
 1775              		.loc 2 49 4 discriminator 4
 1776 1a2e A12C0000 		movl	___sput+44, %eax
 1776      00
 1777 1a33 85C0     		testl	%eax, %eax
 1778 1a35 7531     		jne	L95
 1779              		.loc 2 49 4 discriminator 5
 1780 1a37 A1000000 		movl	___sput, %eax
 1780      00
 1781 1a3c 8944240C 		movl	%eax, 12(%esp)
 1782 1a40 C7442408 		movl	$24, 8(%esp)
 1782      18000000 
 1783 1a48 C7442404 		movl	$1, 4(%esp)
 1783      01000000 
 1784 1a50 C704243A 		movl	$LC2, (%esp)
 1784      000000
 1785 1a57 E8000000 		call	_fwrite
 1785      00
 1786 1a5c C7042401 		movl	$1, (%esp)
 1786      000000
 1787 1a63 E8000000 		call	_exit
 1787      00
 1788              	L95:
 1789              		.loc 2 49 4 discriminator 6
 1790 1a68 C7053400 		movl	$LC33, ___sput+52
 1790      00004C02 
 1790      0000
 1791 1a72 C7054000 		movl	$49, ___sput+64
 1791      00003100 
 1791      0000
 1792 1a7c C7053800 		movl	$LC34, ___sput+56
 1792      00005602 
 1792      0000
 1793 1a86 C7053C00 		movl	$LC5, ___sput+60
 1793      00007800 
 1793      0000
 1794 1a90 A1300000 		movl	___sput+48, %eax
 1794      00
 1795 1a95 40       		incl	%eax
 1796 1a96 A3300000 		movl	%eax, ___sput+48
 1796      00
 1797 1a9b A1200000 		movl	___sput+32, %eax
 1797      00
 1798 1aa0 40       		incl	%eax
 1799 1aa1 A3200000 		movl	%eax, ___sput+32
 1799      00
GAS LISTING C:\Users\PRESID~1\AppData\Local\Temp\ccCA8Smq.s 			page 58


 1800 1aa6 C704246F 		movl	$LC35, (%esp)
 1800      020000
 1801 1aad E87EE5FF 		call	_count_vowels
 1801      FF
 1802 1ab2 85C0     		testl	%eax, %eax
 1803 1ab4 0F84FD00 		je	L96
 1803      0000
 1804              		.loc 2 49 4 discriminator 7
 1805 1aba A0040000 		movb	___sput+4, %al
 1805      00
 1806 1abf 3C06     		cmpb	$6, %al
 1807 1ac1 7434     		je	L97
 1808              		.loc 2 49 4 discriminator 9
 1809 1ac3 A1000000 		movl	__imp___iob, %eax
 1809      00
 1810 1ac8 83C040   		addl	$64, %eax
 1811 1acb 8944240C 		movl	%eax, 12(%esp)
 1812 1acf C7442408 		movl	$29, 8(%esp)
 1812      1D000000 
 1813 1ad7 C7442404 		movl	$1, 4(%esp)
 1813      01000000 
 1814 1adf C7042400 		movl	$LC0, (%esp)
 1814      000000
 1815 1ae6 E8000000 		call	_fwrite
 1815      00
 1816 1aeb C7042401 		movl	$1, (%esp)
 1816      000000
 1817 1af2 E8000000 		call	_exit
 1817      00
 1818              	L97:
 1819              		.loc 2 49 4 discriminator 10
 1820 1af7 A1180000 		movl	___sput+24, %eax
 1820      00
 1821 1afc 85C0     		testl	%eax, %eax
 1822 1afe 7531     		jne	L98
 1823              		.loc 2 49 4 discriminator 11
 1824 1b00 A1000000 		movl	___sput, %eax
 1824      00
 1825 1b05 8944240C 		movl	%eax, 12(%esp)
 1826 1b09 C7442408 		movl	$27, 8(%esp)
 1826      1B000000 
 1827 1b11 C7442404 		movl	$1, 4(%esp)
 1827      01000000 
 1828 1b19 C704241E 		movl	$LC1, (%esp)
 1828      000000
 1829 1b20 E8000000 		call	_fwrite
 1829      00
 1830 1b25 C7042401 		movl	$1, (%esp)
 1830      000000
 1831 1b2c E8000000 		call	_exit
 1831      00
 1832              	L98:
 1833              		.loc 2 49 4 discriminator 12
 1834 1b31 A1280000 		movl	___sput+40, %eax
 1834      00
 1835 1b36 40       		incl	%eax
 1836 1b37 A3280000 		movl	%eax, ___sput+40
GAS LISTING C:\Users\PRESID~1\AppData\Local\Temp\ccCA8Smq.s 			page 59


 1836      00
 1837 1b3c 8B154000 		movl	___sput+64, %edx
 1837      0000
 1838 1b42 8B1D3800 		movl	___sput+56, %ebx
 1838      0000
 1839 1b48 A13C0000 		movl	___sput+60, %eax
 1839      00
 1840 1b4d 8945E4   		movl	%eax, -28(%ebp)
 1841 1b50 8B3D3400 		movl	___sput+52, %edi
 1841      0000
 1842 1b56 897DE0   		movl	%edi, -32(%ebp)
 1843 1b59 8B0D3000 		movl	___sput+48, %ecx
 1843      0000
 1844 1b5f 894DDC   		movl	%ecx, -36(%ebp)
 1845 1b62 8B3D2C00 		movl	___sput+44, %edi
 1845      0000
 1846 1b68 8B352000 		movl	___sput+32, %esi
 1846      0000
 1847 1b6e 8B0D1C00 		movl	___sput+28, %ecx
 1847      0000
 1848 1b74 A1000000 		movl	___sput, %eax
 1848      00
 1849 1b79 89542424 		movl	%edx, 36(%esp)
 1850 1b7d 895C2420 		movl	%ebx, 32(%esp)
 1851 1b81 8B55E4   		movl	-28(%ebp), %edx
 1852 1b84 8954241C 		movl	%edx, 28(%esp)
 1853 1b88 8B5DE0   		movl	-32(%ebp), %ebx
 1854 1b8b 895C2418 		movl	%ebx, 24(%esp)
 1855 1b8f 8B55DC   		movl	-36(%ebp), %edx
 1856 1b92 89542414 		movl	%edx, 20(%esp)
 1857 1b96 897C2410 		movl	%edi, 16(%esp)
 1858 1b9a 8974240C 		movl	%esi, 12(%esp)
 1859 1b9e 894C2408 		movl	%ecx, 8(%esp)
 1860 1ba2 C7442404 		movl	$LC7, 4(%esp)
 1860      8C000000 
 1861 1baa 890424   		movl	%eax, (%esp)
 1862 1bad E84EE4FF 		call	_fprintf
 1862      FF
  50:C:/Users/president/Desktop/sbx/input/src/os_base\os_start_ext_prg_test.c **** }
 1863              		.loc 2 50 1 is_stmt 1 discriminator 12
 1864 1bb2 E9C90000 		jmp	L102
 1864      00
 1865              	L96:
  49:C:/Users/president/Desktop/sbx/input/src/os_base\os_start_ext_prg_test.c ****    sput_fail_unless(count_vowels("Ltd") == 0, "Ltd == 0v");
 1866              		.loc 2 49 4 discriminator 8
 1867 1bb7 A0040000 		movb	___sput+4, %al
 1867      00
 1868 1bbc 3C06     		cmpb	$6, %al
 1869 1bbe 7434     		je	L100
  49:C:/Users/president/Desktop/sbx/input/src/os_base\os_start_ext_prg_test.c ****    sput_fail_unless(count_vowels("Ltd") == 0, "Ltd == 0v");
 1870              		.loc 2 49 4 is_stmt 0 discriminator 13
 1871 1bc0 A1000000 		movl	__imp___iob, %eax
 1871      00
 1872 1bc5 83C040   		addl	$64, %eax
 1873 1bc8 8944240C 		movl	%eax, 12(%esp)
 1874 1bcc C7442408 		movl	$29, 8(%esp)
 1874      1D000000 
GAS LISTING C:\Users\PRESID~1\AppData\Local\Temp\ccCA8Smq.s 			page 60


 1875 1bd4 C7442404 		movl	$1, 4(%esp)
 1875      01000000 
 1876 1bdc C7042400 		movl	$LC0, (%esp)
 1876      000000
 1877 1be3 E8000000 		call	_fwrite
 1877      00
 1878 1be8 C7042401 		movl	$1, (%esp)
 1878      000000
 1879 1bef E8000000 		call	_exit
 1879      00
 1880              	L100:
  49:C:/Users/president/Desktop/sbx/input/src/os_base\os_start_ext_prg_test.c ****    sput_fail_unless(count_vowels("Ltd") == 0, "Ltd == 0v");
 1881              		.loc 2 49 4 discriminator 14
 1882 1bf4 A1180000 		movl	___sput+24, %eax
 1882      00
 1883 1bf9 85C0     		testl	%eax, %eax
 1884 1bfb 7531     		jne	L101
  49:C:/Users/president/Desktop/sbx/input/src/os_base\os_start_ext_prg_test.c ****    sput_fail_unless(count_vowels("Ltd") == 0, "Ltd == 0v");
 1885              		.loc 2 49 4 discriminator 15
 1886 1bfd A1000000 		movl	___sput, %eax
 1886      00
 1887 1c02 8944240C 		movl	%eax, 12(%esp)
 1888 1c06 C7442408 		movl	$27, 8(%esp)
 1888      1B000000 
 1889 1c0e C7442404 		movl	$1, 4(%esp)
 1889      01000000 
 1890 1c16 C704241E 		movl	$LC1, (%esp)
 1890      000000
 1891 1c1d E8000000 		call	_fwrite
 1891      00
 1892 1c22 C7042401 		movl	$1, (%esp)
 1892      000000
 1893 1c29 E8000000 		call	_exit
 1893      00
 1894              	L101:
  49:C:/Users/president/Desktop/sbx/input/src/os_base\os_start_ext_prg_test.c ****    sput_fail_unless(count_vowels("Ltd") == 0, "Ltd == 0v");
 1895              		.loc 2 49 4 discriminator 16
 1896 1c2e A1240000 		movl	___sput+36, %eax
 1896      00
 1897 1c33 40       		incl	%eax
 1898 1c34 A3240000 		movl	%eax, ___sput+36
 1898      00
 1899 1c39 8B3D3400 		movl	___sput+52, %edi
 1899      0000
 1900 1c3f 8B353000 		movl	___sput+48, %esi
 1900      0000
 1901 1c45 8B1D2C00 		movl	___sput+44, %ebx
 1901      0000
 1902 1c4b 8B0D2000 		movl	___sput+32, %ecx
 1902      0000
 1903 1c51 8B151C00 		movl	___sput+28, %edx
 1903      0000
 1904 1c57 A1000000 		movl	___sput, %eax
 1904      00
 1905 1c5c 897C2418 		movl	%edi, 24(%esp)
 1906 1c60 89742414 		movl	%esi, 20(%esp)
 1907 1c64 895C2410 		movl	%ebx, 16(%esp)
GAS LISTING C:\Users\PRESID~1\AppData\Local\Temp\ccCA8Smq.s 			page 61


 1908 1c68 894C240C 		movl	%ecx, 12(%esp)
 1909 1c6c 89542408 		movl	%edx, 8(%esp)
 1910 1c70 C7442404 		movl	$LC8, 4(%esp)
 1910      E8000000 
 1911 1c78 890424   		movl	%eax, (%esp)
 1912 1c7b E880E3FF 		call	_fprintf
 1912      FF
 1913              	L102:
 1914              		.loc 2 50 1 is_stmt 1
 1915 1c80 90       		nop
 1916 1c81 83C44C   		addl	$76, %esp
 1917 1c84 5B       		popl	%ebx
 1918              		.cfi_restore 3
 1919 1c85 5E       		popl	%esi
 1920              		.cfi_restore 6
 1921 1c86 5F       		popl	%edi
 1922              		.cfi_restore 7
 1923 1c87 5D       		popl	%ebp
 1924              		.cfi_restore 5
 1925              		.cfi_def_cfa 4, 4
 1926 1c88 C3       		ret
 1927              		.cfi_endproc
 1928              	LFE16:
 1930              		.section .rdata,"dr"
 1931 0273 00       		.align 4
 1932              	LC38:
 1933 0274 0A2D2D3E 		.ascii "\12--> %lu check(s), %lu ok, %lu failed (%.2f%%)\12\0"
 1933      20256C75 
 1933      20636865 
 1933      636B2873 
 1933      292C2025 
 1934              		.align 4
 1935              	LC39:
 1936 02a4 636F756E 		.ascii "count_vowels(): Vowels Present\0"
 1936      745F766F 
 1936      77656C73 
 1936      28293A20 
 1936      566F7765 
 1937 02c3 00       		.align 4
 1938              	LC40:
 1939 02c4 0A3D3D20 		.ascii "\12== Entering suite #%lu, \"%s\" ==\12\12\0"
 1939      456E7465 
 1939      72696E67 
 1939      20737569 
 1939      74652023 
 1940              	LC41:
 1941 02e7 74657374 		.ascii "test_vowels_present\0"
 1941      5F766F77 
 1941      656C735F 
 1941      70726573 
 1941      656E7400 
 1942 02fb 00       		.align 4
 1943              	LC42:
 1944 02fc 636F756E 		.ascii "count_vowels(): No Vowels Present\0"
 1944      745F766F 
 1944      77656C73 
 1944      28293A20 
GAS LISTING C:\Users\PRESID~1\AppData\Local\Temp\ccCA8Smq.s 			page 62


 1944      4E6F2056 
 1945              	LC43:
 1946 031e 74657374 		.ascii "test_no_vowels_present\0"
 1946      5F6E6F5F 
 1946      766F7765 
 1946      6C735F70 
 1946      72657365 
 1947              	LC44:
 1948 0335 53554343 		.ascii "SUCCESS\0"
 1948      45535300 
 1949              	LC45:
 1950 033d 4641494C 		.ascii "FAILURE\0"
 1950      55524500 
 1951 0345 000000   		.align 4
 1952              	LC46:
 1953 0348 0A3D3D3E 		.ascii "\12==> %lu check(s) in %lu suite(s) finished after %.2f second(s),\12    %lu succeeded, %l
 1953      20256C75 
 1953      20636865 
 1953      636B2873 
 1953      2920696E 
 1954              		.text
 1955              		.globl	_main
 1957              	_main:
 1958              	LFB17:
  51:C:/Users/president/Desktop/sbx/input/src/os_base\os_start_ext_prg_test.c **** 
  52:C:/Users/president/Desktop/sbx/input/src/os_base\os_start_ext_prg_test.c **** 
  53:C:/Users/president/Desktop/sbx/input/src/os_base\os_start_ext_prg_test.c **** int main(int argc, char *argv[])
  54:C:/Users/president/Desktop/sbx/input/src/os_base\os_start_ext_prg_test.c **** {
 1959              		.loc 2 54 1
 1960              		.cfi_startproc
 1961 1c89 55       		pushl	%ebp
 1962              		.cfi_def_cfa_offset 8
 1963              		.cfi_offset 5, -8
 1964 1c8a 89E5     		movl	%esp, %ebp
 1965              		.cfi_def_cfa_register 5
 1966 1c8c 57       		pushl	%edi
 1967 1c8d 56       		pushl	%esi
 1968 1c8e 53       		pushl	%ebx
 1969 1c8f 83E4F0   		andl	$-16, %esp
 1970 1c92 83EC70   		subl	$112, %esp
 1971              		.cfi_offset 7, -12
 1972              		.cfi_offset 6, -16
 1973              		.cfi_offset 3, -20
 1974              		.loc 2 54 1
 1975 1c95 E8000000 		call	___main
 1975      00
 1976              	LVL0:
  55:C:/Users/president/Desktop/sbx/input/src/os_base\os_start_ext_prg_test.c ****    sput_start_testing();
 1977              		.loc 2 55 4
 1978 1c9a C7442408 		movl	$76, 8(%esp)
 1978      4C000000 
 1979 1ca2 C7442404 		movl	$0, 4(%esp)
 1979      00000000 
 1980 1caa C7042400 		movl	$___sput, (%esp)
 1980      000000
 1981 1cb1 E8000000 		call	_memset
 1981      00
GAS LISTING C:\Users\PRESID~1\AppData\Local\Temp\ccCA8Smq.s 			page 63


 1982 1cb6 A1000000 		movl	__imp___iob, %eax
 1982      00
 1983 1cbb 83C020   		addl	$32, %eax
 1984 1cbe A3000000 		movl	%eax, ___sput
 1984      00
 1985 1cc3 C7042400 		movl	$0, (%esp)
 1985      000000
 1986 1cca E8000000 		call	_time
 1986      00
 1987 1ccf A3440000 		movl	%eax, ___sput+68
 1987      00
 1988 1cd4 C6050400 		movb	$6, ___sput+4
 1988      000006
  56:C:/Users/president/Desktop/sbx/input/src/os_base\os_start_ext_prg_test.c **** 
  57:C:/Users/president/Desktop/sbx/input/src/os_base\os_start_ext_prg_test.c ****    sput_enter_suite("count_vowels(): Vowels Present");
 1989              		.loc 2 57 4
 1990 1cdb A0040000 		movb	___sput+4, %al
 1990      00
 1991 1ce0 3C06     		cmpb	$6, %al
 1992 1ce2 7434     		je	L104
 1993              		.loc 2 57 4 is_stmt 0 discriminator 1
 1994 1ce4 A1000000 		movl	__imp___iob, %eax
 1994      00
 1995 1ce9 83C040   		addl	$64, %eax
 1996 1cec 8944240C 		movl	%eax, 12(%esp)
 1997 1cf0 C7442408 		movl	$29, 8(%esp)
 1997      1D000000 
 1998 1cf8 C7442404 		movl	$1, 4(%esp)
 1998      01000000 
 1999 1d00 C7042400 		movl	$LC0, (%esp)
 1999      000000
 2000 1d07 E8000000 		call	_fwrite
 2000      00
 2001 1d0c C7042401 		movl	$1, (%esp)
 2001      000000
 2002 1d13 E8000000 		call	_exit
 2002      00
 2003              	L104:
 2004              		.loc 2 57 4 discriminator 2
 2005 1d18 A1180000 		movl	___sput+24, %eax
 2005      00
 2006 1d1d 85C0     		testl	%eax, %eax
 2007 1d1f 0F846701 		je	L105
 2007      0000
 2008              	LBB2:
 2009              		.loc 2 57 4 discriminator 3
 2010 1d25 D9EE     		fldz
 2011 1d27 D95C246C 		fstps	108(%esp)
 2012 1d2b A0040000 		movb	___sput+4, %al
 2012      00
 2013 1d30 3C06     		cmpb	$6, %al
 2014 1d32 7434     		je	L106
 2015              		.loc 2 57 4 discriminator 5
 2016 1d34 A1000000 		movl	__imp___iob, %eax
 2016      00
 2017 1d39 83C040   		addl	$64, %eax
 2018 1d3c 8944240C 		movl	%eax, 12(%esp)
GAS LISTING C:\Users\PRESID~1\AppData\Local\Temp\ccCA8Smq.s 			page 64


 2019 1d40 C7442408 		movl	$29, 8(%esp)
 2019      1D000000 
 2020 1d48 C7442404 		movl	$1, 4(%esp)
 2020      01000000 
 2021 1d50 C7042400 		movl	$LC0, (%esp)
 2021      000000
 2022 1d57 E8000000 		call	_fwrite
 2022      00
 2023 1d5c C7042401 		movl	$1, (%esp)
 2023      000000
 2024 1d63 E8000000 		call	_exit
 2024      00
 2025              	L106:
 2026              		.loc 2 57 4 discriminator 6
 2027 1d68 A1180000 		movl	___sput+24, %eax
 2027      00
 2028 1d6d 85C0     		testl	%eax, %eax
 2029 1d6f 7531     		jne	L107
 2030              		.loc 2 57 4 discriminator 7
 2031 1d71 A1000000 		movl	___sput, %eax
 2031      00
 2032 1d76 8944240C 		movl	%eax, 12(%esp)
 2033 1d7a C7442408 		movl	$27, 8(%esp)
 2033      1B000000 
 2034 1d82 C7442404 		movl	$1, 4(%esp)
 2034      01000000 
 2035 1d8a C704241E 		movl	$LC1, (%esp)
 2035      000000
 2036 1d91 E8000000 		call	_fwrite
 2036      00
 2037 1d96 C7042401 		movl	$1, (%esp)
 2037      000000
 2038 1d9d E8000000 		call	_exit
 2038      00
 2039              	L107:
 2040              		.loc 2 57 4 discriminator 8
 2041 1da2 A1200000 		movl	___sput+32, %eax
 2041      00
 2042 1da7 85C0     		testl	%eax, %eax
 2043 1da9 744E     		je	L108
 2044              		.loc 2 57 4 discriminator 9
 2045 1dab A1280000 		movl	___sput+40, %eax
 2045      00
 2046 1db0 89442448 		movl	%eax, 72(%esp)
 2047 1db4 C744244C 		movl	$0, 76(%esp)
 2047      00000000 
 2048 1dbc DF6C2448 		fildq	72(%esp)
 2049 1dc0 DD5C2458 		fstpl	88(%esp)
 2050 1dc4 DD442458 		fldl	88(%esp)
 2051 1dc8 DB2DC003 		fldt	LC37
 2051      0000
 2052 1dce DEC9     		fmulp	%st, %st(1)
 2053 1dd0 A1200000 		movl	___sput+32, %eax
 2053      00
 2054 1dd5 89442448 		movl	%eax, 72(%esp)
 2055 1dd9 C744244C 		movl	$0, 76(%esp)
 2055      00000000 
GAS LISTING C:\Users\PRESID~1\AppData\Local\Temp\ccCA8Smq.s 			page 65


 2056 1de1 DF6C2448 		fildq	72(%esp)
 2057 1de5 DD5C2458 		fstpl	88(%esp)
 2058 1de9 DD442458 		fldl	88(%esp)
 2059 1ded DEF9     		fdivrp	%st, %st(1)
 2060 1def D95C2454 		fstps	84(%esp)
 2061 1df3 D9442454 		flds	84(%esp)
 2062 1df7 EB02     		jmp	L109
 2063              	L108:
 2064              		.loc 2 57 4 discriminator 10
 2065 1df9 D9EE     		fldz
 2066              	L109:
 2067              		.loc 2 57 4 discriminator 12
 2068 1dfb D95C246C 		fstps	108(%esp)
 2069 1dff D944246C 		flds	108(%esp)
 2070 1e03 8B1D2800 		movl	___sput+40, %ebx
 2070      0000
 2071 1e09 8B0D2400 		movl	___sput+36, %ecx
 2071      0000
 2072 1e0f 8B152000 		movl	___sput+32, %edx
 2072      0000
 2073 1e15 A1000000 		movl	___sput, %eax
 2073      00
 2074 1e1a DD5C2414 		fstpl	20(%esp)
 2075 1e1e 895C2410 		movl	%ebx, 16(%esp)
 2076 1e22 894C240C 		movl	%ecx, 12(%esp)
 2077 1e26 89542408 		movl	%edx, 8(%esp)
 2078 1e2a C7442404 		movl	$LC38, 4(%esp)
 2078      74020000 
 2079 1e32 890424   		movl	%eax, (%esp)
 2080 1e35 E8C6E1FF 		call	_fprintf
 2080      FF
 2081 1e3a 8B150800 		movl	___sput+8, %edx
 2081      0000
 2082 1e40 A1200000 		movl	___sput+32, %eax
 2082      00
 2083 1e45 01D0     		addl	%edx, %eax
 2084 1e47 A3080000 		movl	%eax, ___sput+8
 2084      00
 2085 1e4c 8B151000 		movl	___sput+16, %edx
 2085      0000
 2086 1e52 A1240000 		movl	___sput+36, %eax
 2086      00
 2087 1e57 01D0     		addl	%edx, %eax
 2088 1e59 A3100000 		movl	%eax, ___sput+16
 2088      00
 2089 1e5e 8B151400 		movl	___sput+20, %edx
 2089      0000
 2090 1e64 A1280000 		movl	___sput+40, %eax
 2090      00
 2091 1e69 01D0     		addl	%edx, %eax
 2092 1e6b A3140000 		movl	%eax, ___sput+20
 2092      00
 2093 1e70 C7442408 		movl	$20, 8(%esp)
 2093      14000000 
 2094 1e78 C7442404 		movl	$0, 4(%esp)
 2094      00000000 
 2095 1e80 C7042418 		movl	$___sput+24, (%esp)
GAS LISTING C:\Users\PRESID~1\AppData\Local\Temp\ccCA8Smq.s 			page 66


 2095      000000
 2096 1e87 E8000000 		call	_memset
 2096      00
 2097              	L105:
 2098              	LBE2:
 2099              		.loc 2 57 4 discriminator 13
 2100 1e8c C7051800 		movl	$LC39, ___sput+24
 2100      0000A402 
 2100      0000
 2101 1e96 A10C0000 		movl	___sput+12, %eax
 2101      00
 2102 1e9b 40       		incl	%eax
 2103 1e9c A30C0000 		movl	%eax, ___sput+12
 2103      00
 2104 1ea1 A10C0000 		movl	___sput+12, %eax
 2104      00
 2105 1ea6 A31C0000 		movl	%eax, ___sput+28
 2105      00
 2106 1eab 8B0D1800 		movl	___sput+24, %ecx
 2106      0000
 2107 1eb1 8B151C00 		movl	___sput+28, %edx
 2107      0000
 2108 1eb7 A1000000 		movl	___sput, %eax
 2108      00
 2109 1ebc 894C240C 		movl	%ecx, 12(%esp)
 2110 1ec0 89542408 		movl	%edx, 8(%esp)
 2111 1ec4 C7442404 		movl	$LC40, 4(%esp)
 2111      C4020000 
 2112 1ecc 890424   		movl	%eax, (%esp)
 2113 1ecf E82CE1FF 		call	_fprintf
 2113      FF
  58:C:/Users/president/Desktop/sbx/input/src/os_base\os_start_ext_prg_test.c ****    sput_run_test(test_vowels_present);
 2114              		.loc 2 58 4 is_stmt 1 discriminator 13
 2115 1ed4 A0040000 		movb	___sput+4, %al
 2115      00
 2116 1ed9 3C06     		cmpb	$6, %al
 2117 1edb 7434     		je	L110
 2118              		.loc 2 58 4 is_stmt 0 discriminator 1
 2119 1edd A1000000 		movl	__imp___iob, %eax
 2119      00
 2120 1ee2 83C040   		addl	$64, %eax
 2121 1ee5 8944240C 		movl	%eax, 12(%esp)
 2122 1ee9 C7442408 		movl	$29, 8(%esp)
 2122      1D000000 
 2123 1ef1 C7442404 		movl	$1, 4(%esp)
 2123      01000000 
 2124 1ef9 C7042400 		movl	$LC0, (%esp)
 2124      000000
 2125 1f00 E8000000 		call	_fwrite
 2125      00
 2126 1f05 C7042401 		movl	$1, (%esp)
 2126      000000
 2127 1f0c E8000000 		call	_exit
 2127      00
 2128              	L110:
 2129              		.loc 2 58 4 discriminator 2
 2130 1f11 A1180000 		movl	___sput+24, %eax
GAS LISTING C:\Users\PRESID~1\AppData\Local\Temp\ccCA8Smq.s 			page 67


 2130      00
 2131 1f16 85C0     		testl	%eax, %eax
 2132 1f18 7531     		jne	L111
 2133              		.loc 2 58 4 discriminator 3
 2134 1f1a A1000000 		movl	___sput, %eax
 2134      00
 2135 1f1f 8944240C 		movl	%eax, 12(%esp)
 2136 1f23 C7442408 		movl	$27, 8(%esp)
 2136      1B000000 
 2137 1f2b C7442404 		movl	$1, 4(%esp)
 2137      01000000 
 2138 1f33 C704241E 		movl	$LC1, (%esp)
 2138      000000
 2139 1f3a E8000000 		call	_fwrite
 2139      00
 2140 1f3f C7042401 		movl	$1, (%esp)
 2140      000000
 2141 1f46 E8000000 		call	_exit
 2141      00
 2142              	L111:
 2143              		.loc 2 58 4 discriminator 4
 2144 1f4b C7442408 		movl	$8, 8(%esp)
 2144      08000000 
 2145 1f53 C7442404 		movl	$0, 4(%esp)
 2145      00000000 
 2146 1f5b C704242C 		movl	$___sput+44, (%esp)
 2146      000000
 2147 1f62 E8000000 		call	_memset
 2147      00
 2148 1f67 C7052C00 		movl	$LC41, ___sput+44
 2148      0000E702 
 2148      0000
 2149 1f71 E810E1FF 		call	_test_vowels_present
 2149      FF
  59:C:/Users/president/Desktop/sbx/input/src/os_base\os_start_ext_prg_test.c **** 
  60:C:/Users/president/Desktop/sbx/input/src/os_base\os_start_ext_prg_test.c ****    sput_enter_suite("count_vowels(): No Vowels Present");
 2150              		.loc 2 60 4 is_stmt 1 discriminator 4
 2151 1f76 A0040000 		movb	___sput+4, %al
 2151      00
 2152 1f7b 3C06     		cmpb	$6, %al
 2153 1f7d 7434     		je	L112
 2154              		.loc 2 60 4 is_stmt 0 discriminator 1
 2155 1f7f A1000000 		movl	__imp___iob, %eax
 2155      00
 2156 1f84 83C040   		addl	$64, %eax
 2157 1f87 8944240C 		movl	%eax, 12(%esp)
 2158 1f8b C7442408 		movl	$29, 8(%esp)
 2158      1D000000 
 2159 1f93 C7442404 		movl	$1, 4(%esp)
 2159      01000000 
 2160 1f9b C7042400 		movl	$LC0, (%esp)
 2160      000000
 2161 1fa2 E8000000 		call	_fwrite
 2161      00
 2162 1fa7 C7042401 		movl	$1, (%esp)
 2162      000000
 2163 1fae E8000000 		call	_exit
GAS LISTING C:\Users\PRESID~1\AppData\Local\Temp\ccCA8Smq.s 			page 68


 2163      00
 2164              	L112:
 2165              		.loc 2 60 4 discriminator 2
 2166 1fb3 A1180000 		movl	___sput+24, %eax
 2166      00
 2167 1fb8 85C0     		testl	%eax, %eax
 2168 1fba 0F846701 		je	L113
 2168      0000
 2169              	LBB3:
 2170              		.loc 2 60 4 discriminator 3
 2171 1fc0 D9EE     		fldz
 2172 1fc2 D95C2468 		fstps	104(%esp)
 2173 1fc6 A0040000 		movb	___sput+4, %al
 2173      00
 2174 1fcb 3C06     		cmpb	$6, %al
 2175 1fcd 7434     		je	L114
 2176              		.loc 2 60 4 discriminator 5
 2177 1fcf A1000000 		movl	__imp___iob, %eax
 2177      00
 2178 1fd4 83C040   		addl	$64, %eax
 2179 1fd7 8944240C 		movl	%eax, 12(%esp)
 2180 1fdb C7442408 		movl	$29, 8(%esp)
 2180      1D000000 
 2181 1fe3 C7442404 		movl	$1, 4(%esp)
 2181      01000000 
 2182 1feb C7042400 		movl	$LC0, (%esp)
 2182      000000
 2183 1ff2 E8000000 		call	_fwrite
 2183      00
 2184 1ff7 C7042401 		movl	$1, (%esp)
 2184      000000
 2185 1ffe E8000000 		call	_exit
 2185      00
 2186              	L114:
 2187              		.loc 2 60 4 discriminator 6
 2188 2003 A1180000 		movl	___sput+24, %eax
 2188      00
 2189 2008 85C0     		testl	%eax, %eax
 2190 200a 7531     		jne	L115
 2191              		.loc 2 60 4 discriminator 7
 2192 200c A1000000 		movl	___sput, %eax
 2192      00
 2193 2011 8944240C 		movl	%eax, 12(%esp)
 2194 2015 C7442408 		movl	$27, 8(%esp)
 2194      1B000000 
 2195 201d C7442404 		movl	$1, 4(%esp)
 2195      01000000 
 2196 2025 C704241E 		movl	$LC1, (%esp)
 2196      000000
 2197 202c E8000000 		call	_fwrite
 2197      00
 2198 2031 C7042401 		movl	$1, (%esp)
 2198      000000
 2199 2038 E8000000 		call	_exit
 2199      00
 2200              	L115:
 2201              		.loc 2 60 4 discriminator 8
GAS LISTING C:\Users\PRESID~1\AppData\Local\Temp\ccCA8Smq.s 			page 69


 2202 203d A1200000 		movl	___sput+32, %eax
 2202      00
 2203 2042 85C0     		testl	%eax, %eax
 2204 2044 744E     		je	L116
 2205              		.loc 2 60 4 discriminator 9
 2206 2046 A1280000 		movl	___sput+40, %eax
 2206      00
 2207 204b 89442448 		movl	%eax, 72(%esp)
 2208 204f C744244C 		movl	$0, 76(%esp)
 2208      00000000 
 2209 2057 DF6C2448 		fildq	72(%esp)
 2210 205b DD5C2458 		fstpl	88(%esp)
 2211 205f DD442458 		fldl	88(%esp)
 2212 2063 DB2DC003 		fldt	LC37
 2212      0000
 2213 2069 DEC9     		fmulp	%st, %st(1)
 2214 206b A1200000 		movl	___sput+32, %eax
 2214      00
 2215 2070 89442448 		movl	%eax, 72(%esp)
 2216 2074 C744244C 		movl	$0, 76(%esp)
 2216      00000000 
 2217 207c DF6C2448 		fildq	72(%esp)
 2218 2080 DD5C2458 		fstpl	88(%esp)
 2219 2084 DD442458 		fldl	88(%esp)
 2220 2088 DEF9     		fdivrp	%st, %st(1)
 2221 208a D95C2454 		fstps	84(%esp)
 2222 208e D9442454 		flds	84(%esp)
 2223 2092 EB02     		jmp	L117
 2224              	L116:
 2225              		.loc 2 60 4 discriminator 10
 2226 2094 D9EE     		fldz
 2227              	L117:
 2228              		.loc 2 60 4 discriminator 12
 2229 2096 D95C2468 		fstps	104(%esp)
 2230 209a D9442468 		flds	104(%esp)
 2231 209e 8B1D2800 		movl	___sput+40, %ebx
 2231      0000
 2232 20a4 8B0D2400 		movl	___sput+36, %ecx
 2232      0000
 2233 20aa 8B152000 		movl	___sput+32, %edx
 2233      0000
 2234 20b0 A1000000 		movl	___sput, %eax
 2234      00
 2235 20b5 DD5C2414 		fstpl	20(%esp)
 2236 20b9 895C2410 		movl	%ebx, 16(%esp)
 2237 20bd 894C240C 		movl	%ecx, 12(%esp)
 2238 20c1 89542408 		movl	%edx, 8(%esp)
 2239 20c5 C7442404 		movl	$LC38, 4(%esp)
 2239      74020000 
 2240 20cd 890424   		movl	%eax, (%esp)
 2241 20d0 E82BDFFF 		call	_fprintf
 2241      FF
 2242 20d5 8B150800 		movl	___sput+8, %edx
 2242      0000
 2243 20db A1200000 		movl	___sput+32, %eax
 2243      00
 2244 20e0 01D0     		addl	%edx, %eax
GAS LISTING C:\Users\PRESID~1\AppData\Local\Temp\ccCA8Smq.s 			page 70


 2245 20e2 A3080000 		movl	%eax, ___sput+8
 2245      00
 2246 20e7 8B151000 		movl	___sput+16, %edx
 2246      0000
 2247 20ed A1240000 		movl	___sput+36, %eax
 2247      00
 2248 20f2 01D0     		addl	%edx, %eax
 2249 20f4 A3100000 		movl	%eax, ___sput+16
 2249      00
 2250 20f9 8B151400 		movl	___sput+20, %edx
 2250      0000
 2251 20ff A1280000 		movl	___sput+40, %eax
 2251      00
 2252 2104 01D0     		addl	%edx, %eax
 2253 2106 A3140000 		movl	%eax, ___sput+20
 2253      00
 2254 210b C7442408 		movl	$20, 8(%esp)
 2254      14000000 
 2255 2113 C7442404 		movl	$0, 4(%esp)
 2255      00000000 
 2256 211b C7042418 		movl	$___sput+24, (%esp)
 2256      000000
 2257 2122 E8000000 		call	_memset
 2257      00
 2258              	L113:
 2259              	LBE3:
 2260              		.loc 2 60 4 discriminator 13
 2261 2127 C7051800 		movl	$LC42, ___sput+24
 2261      0000FC02 
 2261      0000
 2262 2131 A10C0000 		movl	___sput+12, %eax
 2262      00
 2263 2136 40       		incl	%eax
 2264 2137 A30C0000 		movl	%eax, ___sput+12
 2264      00
 2265 213c A10C0000 		movl	___sput+12, %eax
 2265      00
 2266 2141 A31C0000 		movl	%eax, ___sput+28
 2266      00
 2267 2146 8B0D1800 		movl	___sput+24, %ecx
 2267      0000
 2268 214c 8B151C00 		movl	___sput+28, %edx
 2268      0000
 2269 2152 A1000000 		movl	___sput, %eax
 2269      00
 2270 2157 894C240C 		movl	%ecx, 12(%esp)
 2271 215b 89542408 		movl	%edx, 8(%esp)
 2272 215f C7442404 		movl	$LC40, 4(%esp)
 2272      C4020000 
 2273 2167 890424   		movl	%eax, (%esp)
 2274 216a E891DEFF 		call	_fprintf
 2274      FF
  61:C:/Users/president/Desktop/sbx/input/src/os_base\os_start_ext_prg_test.c ****    sput_run_test(test_no_vowels_present);
 2275              		.loc 2 61 4 is_stmt 1 discriminator 13
 2276 216f A0040000 		movb	___sput+4, %al
 2276      00
 2277 2174 3C06     		cmpb	$6, %al
GAS LISTING C:\Users\PRESID~1\AppData\Local\Temp\ccCA8Smq.s 			page 71


 2278 2176 7434     		je	L118
 2279              		.loc 2 61 4 is_stmt 0 discriminator 1
 2280 2178 A1000000 		movl	__imp___iob, %eax
 2280      00
 2281 217d 83C040   		addl	$64, %eax
 2282 2180 8944240C 		movl	%eax, 12(%esp)
 2283 2184 C7442408 		movl	$29, 8(%esp)
 2283      1D000000 
 2284 218c C7442404 		movl	$1, 4(%esp)
 2284      01000000 
 2285 2194 C7042400 		movl	$LC0, (%esp)
 2285      000000
 2286 219b E8000000 		call	_fwrite
 2286      00
 2287 21a0 C7042401 		movl	$1, (%esp)
 2287      000000
 2288 21a7 E8000000 		call	_exit
 2288      00
 2289              	L118:
 2290              		.loc 2 61 4 discriminator 2
 2291 21ac A1180000 		movl	___sput+24, %eax
 2291      00
 2292 21b1 85C0     		testl	%eax, %eax
 2293 21b3 7531     		jne	L119
 2294              		.loc 2 61 4 discriminator 3
 2295 21b5 A1000000 		movl	___sput, %eax
 2295      00
 2296 21ba 8944240C 		movl	%eax, 12(%esp)
 2297 21be C7442408 		movl	$27, 8(%esp)
 2297      1B000000 
 2298 21c6 C7442404 		movl	$1, 4(%esp)
 2298      01000000 
 2299 21ce C704241E 		movl	$LC1, (%esp)
 2299      000000
 2300 21d5 E8000000 		call	_fwrite
 2300      00
 2301 21da C7042401 		movl	$1, (%esp)
 2301      000000
 2302 21e1 E8000000 		call	_exit
 2302      00
 2303              	L119:
 2304              		.loc 2 61 4 discriminator 4
 2305 21e6 C7442408 		movl	$8, 8(%esp)
 2305      08000000 
 2306 21ee C7442404 		movl	$0, 4(%esp)
 2306      00000000 
 2307 21f6 C704242C 		movl	$___sput+44, (%esp)
 2307      000000
 2308 21fd E8000000 		call	_memset
 2308      00
 2309 2202 C7052C00 		movl	$LC43, ___sput+44
 2309      00001E03 
 2309      0000
 2310 220c E879ECFF 		call	_test_no_vowels_present
 2310      FF
 2311              	LBB4:
  62:C:/Users/president/Desktop/sbx/input/src/os_base\os_start_ext_prg_test.c **** 
GAS LISTING C:\Users\PRESID~1\AppData\Local\Temp\ccCA8Smq.s 			page 72


  63:C:/Users/president/Desktop/sbx/input/src/os_base\os_start_ext_prg_test.c ****    sput_finish_testing();
 2312              		.loc 2 63 4 is_stmt 1 discriminator 4
 2313 2211 D9EE     		fldz
 2314 2213 D95C2464 		fstps	100(%esp)
 2315 2217 A0040000 		movb	___sput+4, %al
 2315      00
 2316 221c 3C06     		cmpb	$6, %al
 2317 221e 7434     		je	L120
 2318              		.loc 2 63 4 is_stmt 0 discriminator 1
 2319 2220 A1000000 		movl	__imp___iob, %eax
 2319      00
 2320 2225 83C040   		addl	$64, %eax
 2321 2228 8944240C 		movl	%eax, 12(%esp)
 2322 222c C7442408 		movl	$29, 8(%esp)
 2322      1D000000 
 2323 2234 C7442404 		movl	$1, 4(%esp)
 2323      01000000 
 2324 223c C7042400 		movl	$LC0, (%esp)
 2324      000000
 2325 2243 E8000000 		call	_fwrite
 2325      00
 2326 2248 C7042401 		movl	$1, (%esp)
 2326      000000
 2327 224f E8000000 		call	_exit
 2327      00
 2328              	L120:
 2329              		.loc 2 63 4 discriminator 2
 2330 2254 A1180000 		movl	___sput+24, %eax
 2330      00
 2331 2259 85C0     		testl	%eax, %eax
 2332 225b 0F846701 		je	L121
 2332      0000
 2333              	LBB5:
 2334              		.loc 2 63 4 discriminator 3
 2335 2261 D9EE     		fldz
 2336 2263 D95C2460 		fstps	96(%esp)
 2337 2267 A0040000 		movb	___sput+4, %al
 2337      00
 2338 226c 3C06     		cmpb	$6, %al
 2339 226e 7434     		je	L122
 2340              		.loc 2 63 4 discriminator 5
 2341 2270 A1000000 		movl	__imp___iob, %eax
 2341      00
 2342 2275 83C040   		addl	$64, %eax
 2343 2278 8944240C 		movl	%eax, 12(%esp)
 2344 227c C7442408 		movl	$29, 8(%esp)
 2344      1D000000 
 2345 2284 C7442404 		movl	$1, 4(%esp)
 2345      01000000 
 2346 228c C7042400 		movl	$LC0, (%esp)
 2346      000000
 2347 2293 E8000000 		call	_fwrite
 2347      00
 2348 2298 C7042401 		movl	$1, (%esp)
 2348      000000
 2349 229f E8000000 		call	_exit
 2349      00
GAS LISTING C:\Users\PRESID~1\AppData\Local\Temp\ccCA8Smq.s 			page 73


 2350              	L122:
 2351              		.loc 2 63 4 discriminator 6
 2352 22a4 A1180000 		movl	___sput+24, %eax
 2352      00
 2353 22a9 85C0     		testl	%eax, %eax
 2354 22ab 7531     		jne	L123
 2355              		.loc 2 63 4 discriminator 7
 2356 22ad A1000000 		movl	___sput, %eax
 2356      00
 2357 22b2 8944240C 		movl	%eax, 12(%esp)
 2358 22b6 C7442408 		movl	$27, 8(%esp)
 2358      1B000000 
 2359 22be C7442404 		movl	$1, 4(%esp)
 2359      01000000 
 2360 22c6 C704241E 		movl	$LC1, (%esp)
 2360      000000
 2361 22cd E8000000 		call	_fwrite
 2361      00
 2362 22d2 C7042401 		movl	$1, (%esp)
 2362      000000
 2363 22d9 E8000000 		call	_exit
 2363      00
 2364              	L123:
 2365              		.loc 2 63 4 discriminator 8
 2366 22de A1200000 		movl	___sput+32, %eax
 2366      00
 2367 22e3 85C0     		testl	%eax, %eax
 2368 22e5 744E     		je	L124
 2369              		.loc 2 63 4 discriminator 9
 2370 22e7 A1280000 		movl	___sput+40, %eax
 2370      00
 2371 22ec 89442448 		movl	%eax, 72(%esp)
 2372 22f0 C744244C 		movl	$0, 76(%esp)
 2372      00000000 
 2373 22f8 DF6C2448 		fildq	72(%esp)
 2374 22fc DD5C2458 		fstpl	88(%esp)
 2375 2300 DD442458 		fldl	88(%esp)
 2376 2304 DB2DC003 		fldt	LC37
 2376      0000
 2377 230a DEC9     		fmulp	%st, %st(1)
 2378 230c A1200000 		movl	___sput+32, %eax
 2378      00
 2379 2311 89442448 		movl	%eax, 72(%esp)
 2380 2315 C744244C 		movl	$0, 76(%esp)
 2380      00000000 
 2381 231d DF6C2448 		fildq	72(%esp)
 2382 2321 DD5C2458 		fstpl	88(%esp)
 2383 2325 DD442458 		fldl	88(%esp)
 2384 2329 DEF9     		fdivrp	%st, %st(1)
 2385 232b D95C2454 		fstps	84(%esp)
 2386 232f D9442454 		flds	84(%esp)
 2387 2333 EB02     		jmp	L125
 2388              	L124:
 2389              		.loc 2 63 4 discriminator 10
 2390 2335 D9EE     		fldz
 2391              	L125:
 2392              		.loc 2 63 4 discriminator 12
GAS LISTING C:\Users\PRESID~1\AppData\Local\Temp\ccCA8Smq.s 			page 74


 2393 2337 D95C2460 		fstps	96(%esp)
 2394 233b D9442460 		flds	96(%esp)
 2395 233f 8B1D2800 		movl	___sput+40, %ebx
 2395      0000
 2396 2345 8B0D2400 		movl	___sput+36, %ecx
 2396      0000
 2397 234b 8B152000 		movl	___sput+32, %edx
 2397      0000
 2398 2351 A1000000 		movl	___sput, %eax
 2398      00
 2399 2356 DD5C2414 		fstpl	20(%esp)
 2400 235a 895C2410 		movl	%ebx, 16(%esp)
 2401 235e 894C240C 		movl	%ecx, 12(%esp)
 2402 2362 89542408 		movl	%edx, 8(%esp)
 2403 2366 C7442404 		movl	$LC38, 4(%esp)
 2403      74020000 
 2404 236e 890424   		movl	%eax, (%esp)
 2405 2371 E88ADCFF 		call	_fprintf
 2405      FF
 2406 2376 8B150800 		movl	___sput+8, %edx
 2406      0000
 2407 237c A1200000 		movl	___sput+32, %eax
 2407      00
 2408 2381 01D0     		addl	%edx, %eax
 2409 2383 A3080000 		movl	%eax, ___sput+8
 2409      00
 2410 2388 8B151000 		movl	___sput+16, %edx
 2410      0000
 2411 238e A1240000 		movl	___sput+36, %eax
 2411      00
 2412 2393 01D0     		addl	%edx, %eax
 2413 2395 A3100000 		movl	%eax, ___sput+16
 2413      00
 2414 239a 8B151400 		movl	___sput+20, %edx
 2414      0000
 2415 23a0 A1280000 		movl	___sput+40, %eax
 2415      00
 2416 23a5 01D0     		addl	%edx, %eax
 2417 23a7 A3140000 		movl	%eax, ___sput+20
 2417      00
 2418 23ac C7442408 		movl	$20, 8(%esp)
 2418      14000000 
 2419 23b4 C7442404 		movl	$0, 4(%esp)
 2419      00000000 
 2420 23bc C7042418 		movl	$___sput+24, (%esp)
 2420      000000
 2421 23c3 E8000000 		call	_memset
 2421      00
 2422              	L121:
 2423              	LBE5:
 2424              		.loc 2 63 4 discriminator 13
 2425 23c8 A1080000 		movl	___sput+8, %eax
 2425      00
 2426 23cd 85C0     		testl	%eax, %eax
 2427 23cf 744E     		je	L126
 2428              		.loc 2 63 4 discriminator 14
 2429 23d1 A1140000 		movl	___sput+20, %eax
GAS LISTING C:\Users\PRESID~1\AppData\Local\Temp\ccCA8Smq.s 			page 75


 2429      00
 2430 23d6 89442448 		movl	%eax, 72(%esp)
 2431 23da C744244C 		movl	$0, 76(%esp)
 2431      00000000 
 2432 23e2 DF6C2448 		fildq	72(%esp)
 2433 23e6 DD5C2458 		fstpl	88(%esp)
 2434 23ea DD442458 		fldl	88(%esp)
 2435 23ee DB2DC003 		fldt	LC37
 2435      0000
 2436 23f4 DEC9     		fmulp	%st, %st(1)
 2437 23f6 A1080000 		movl	___sput+8, %eax
 2437      00
 2438 23fb 89442448 		movl	%eax, 72(%esp)
 2439 23ff C744244C 		movl	$0, 76(%esp)
 2439      00000000 
 2440 2407 DF6C2448 		fildq	72(%esp)
 2441 240b DD5C2458 		fstpl	88(%esp)
 2442 240f DD442458 		fldl	88(%esp)
 2443 2413 DEF9     		fdivrp	%st, %st(1)
 2444 2415 D95C2454 		fstps	84(%esp)
 2445 2419 D9442454 		flds	84(%esp)
 2446 241d EB02     		jmp	L127
 2447              	L126:
 2448              		.loc 2 63 4 discriminator 15
 2449 241f D9EE     		fldz
 2450              	L127:
 2451              		.loc 2 63 4 discriminator 17
 2452 2421 D95C2464 		fstps	100(%esp)
 2453 2425 C7042400 		movl	$0, (%esp)
 2453      000000
 2454 242c E8000000 		call	_time
 2454      00
 2455 2431 A3480000 		movl	%eax, ___sput+72
 2455      00
 2456 2436 A1140000 		movl	___sput+20, %eax
 2456      00
 2457 243b 85C0     		testl	%eax, %eax
 2458 243d 7507     		jne	L128
 2459              		.loc 2 63 4 discriminator 18
 2460 243f BB350300 		movl	$LC44, %ebx
 2460      00
 2461 2444 EB05     		jmp	L129
 2462              	L128:
 2463              		.loc 2 63 4 discriminator 19
 2464 2446 BB3D0300 		movl	$LC45, %ebx
 2464      00
 2465              	L129:
 2466              		.loc 2 63 4 discriminator 21
 2467 244b D9442464 		flds	100(%esp)
 2468 244f DD5C2448 		fstpl	72(%esp)
 2469 2453 A1140000 		movl	___sput+20, %eax
 2469      00
 2470 2458 89442450 		movl	%eax, 80(%esp)
 2471 245c 8B351000 		movl	___sput+16, %esi
 2471      0000
 2472 2462 89742444 		movl	%esi, 68(%esp)
 2473 2466 8B154400 		movl	___sput+68, %edx
GAS LISTING C:\Users\PRESID~1\AppData\Local\Temp\ccCA8Smq.s 			page 76


 2473      0000
 2474 246c A1480000 		movl	___sput+72, %eax
 2474      00
 2475 2471 89542404 		movl	%edx, 4(%esp)
 2476 2475 890424   		movl	%eax, (%esp)
 2477 2478 E8000000 		call	_difftime
 2477      00
 2478 247d DD5C2438 		fstpl	56(%esp)
 2479 2481 8B442438 		movl	56(%esp), %eax
 2480 2485 8B54243C 		movl	60(%esp), %edx
 2481 2489 8B3D0C00 		movl	___sput+12, %edi
 2481      0000
 2482 248f 8B350800 		movl	___sput+8, %esi
 2482      0000
 2483 2495 8B0D0000 		movl	___sput, %ecx
 2483      0000
 2484 249b 895C2428 		movl	%ebx, 40(%esp)
 2485 249f DD442448 		fldl	72(%esp)
 2486 24a3 DD5C2420 		fstpl	32(%esp)
 2487 24a7 8B5C2450 		movl	80(%esp), %ebx
 2488 24ab 895C241C 		movl	%ebx, 28(%esp)
 2489 24af 8B5C2444 		movl	68(%esp), %ebx
 2490 24b3 895C2418 		movl	%ebx, 24(%esp)
 2491 24b7 89442410 		movl	%eax, 16(%esp)
 2492 24bb 89542414 		movl	%edx, 20(%esp)
 2493 24bf 897C240C 		movl	%edi, 12(%esp)
 2494 24c3 89742408 		movl	%esi, 8(%esp)
 2495 24c7 C7442404 		movl	$LC46, 4(%esp)
 2495      48030000 
 2496 24cf 890C24   		movl	%ecx, (%esp)
 2497 24d2 E829DBFF 		call	_fprintf
 2497      FF
 2498              	LBE4:
  64:C:/Users/president/Desktop/sbx/input/src/os_base\os_start_ext_prg_test.c **** 
  65:C:/Users/president/Desktop/sbx/input/src/os_base\os_start_ext_prg_test.c ****    return sput_get_return_value();
 2499              		.loc 2 65 11 is_stmt 1 discriminator 21
 2500 24d7 A1140000 		movl	___sput+20, %eax
 2500      00
 2501 24dc 85C0     		testl	%eax, %eax
 2502 24de 0F95C0   		setne	%al
 2503 24e1 0FB6C0   		movzbl	%al, %eax
  66:C:/Users/president/Desktop/sbx/input/src/os_base\os_start_ext_prg_test.c **** }
 2504              		.loc 2 66 1 discriminator 21
 2505 24e4 8D65F4   		leal	-12(%ebp), %esp
 2506 24e7 5B       		popl	%ebx
 2507              		.cfi_restore 3
 2508 24e8 5E       		popl	%esi
 2509              		.cfi_restore 6
 2510 24e9 5F       		popl	%edi
 2511              		.cfi_restore 7
 2512 24ea 5D       		popl	%ebp
 2513              		.cfi_restore 5
 2514              		.cfi_def_cfa 4, 4
 2515 24eb C3       		ret
 2516              		.cfi_endproc
 2517              	LFE17:
 2518              		.section .rdata,"dr"
GAS LISTING C:\Users\PRESID~1\AppData\Local\Temp\ccCA8Smq.s 			page 77


 2519 03b7 00000000 		.align 16
 2519      00000000 
 2519      00
 2520              	LC37:
 2521 03c0 00000000 		.long	0
 2522 03c4 000000C8 		.long	-939524096
 2523 03c8 05400000 		.long	16389
 2524 03cc 00000000 		.text
 2525              	Letext0:
 2526              		.file 3 "c:/program/mingw/include/stdlib.h"
 2527              		.file 4 "c:/program/mingw/include/sys/types.h"
 2528              		.file 5 "c:/program/mingw/include/time.h"
 2529              		.file 6 "c:/users/president/desktop/sbx/input/src/os_base/os_sput.h"